ARM GAS  /var/folders/qx/2_175_4n2s19vhvtspjhb3qh0000gn/T//ccp3poHl.s 			page 1


   1              		.cpu cortex-m4
   2              		.arch armv7e-m
   3              		.fpu fpv4-sp-d16
   4              		.eabi_attribute 27, 1
   5              		.eabi_attribute 28, 1
   6              		.eabi_attribute 20, 1
   7              		.eabi_attribute 21, 1
   8              		.eabi_attribute 23, 3
   9              		.eabi_attribute 24, 1
  10              		.eabi_attribute 25, 1
  11              		.eabi_attribute 26, 1
  12              		.eabi_attribute 30, 1
  13              		.eabi_attribute 34, 1
  14              		.eabi_attribute 18, 4
  15              		.file	"lv_draw_sw_blend.c"
  16              		.text
  17              	.Ltext0:
  18              		.cfi_sections	.debug_frame
  19              		.file 1 "Drivers/lvgl/src/draw/sw/blend/lv_draw_sw_blend.c"
  20              		.section	.text.lv_draw_sw_blend_color,"ax",%progbits
  21              		.align	1
  22              		.syntax unified
  23              		.thumb
  24              		.thumb_func
  26              	lv_draw_sw_blend_color:
  27              	.LVL0:
  28              	.LFB44:
   1:Drivers/lvgl/src/draw/sw/blend/lv_draw_sw_blend.c **** /**
   2:Drivers/lvgl/src/draw/sw/blend/lv_draw_sw_blend.c ****  * @file lv_draw_sw_blend.c
   3:Drivers/lvgl/src/draw/sw/blend/lv_draw_sw_blend.c ****  *
   4:Drivers/lvgl/src/draw/sw/blend/lv_draw_sw_blend.c ****  */
   5:Drivers/lvgl/src/draw/sw/blend/lv_draw_sw_blend.c **** 
   6:Drivers/lvgl/src/draw/sw/blend/lv_draw_sw_blend.c **** /*********************
   7:Drivers/lvgl/src/draw/sw/blend/lv_draw_sw_blend.c ****  *      INCLUDES
   8:Drivers/lvgl/src/draw/sw/blend/lv_draw_sw_blend.c ****  *********************/
   9:Drivers/lvgl/src/draw/sw/blend/lv_draw_sw_blend.c **** #include "../../../misc/lv_area_private.h"
  10:Drivers/lvgl/src/draw/sw/blend/lv_draw_sw_blend.c **** #include "lv_draw_sw_blend_private.h"
  11:Drivers/lvgl/src/draw/sw/blend/lv_draw_sw_blend.c **** #include "../../lv_draw_private.h"
  12:Drivers/lvgl/src/draw/sw/blend/lv_draw_sw_blend.c **** #include "../lv_draw_sw.h"
  13:Drivers/lvgl/src/draw/sw/blend/lv_draw_sw_blend.c **** #if LV_DRAW_SW_SUPPORT_L8
  14:Drivers/lvgl/src/draw/sw/blend/lv_draw_sw_blend.c ****     #include "lv_draw_sw_blend_to_l8.h"
  15:Drivers/lvgl/src/draw/sw/blend/lv_draw_sw_blend.c **** #endif
  16:Drivers/lvgl/src/draw/sw/blend/lv_draw_sw_blend.c **** #if LV_DRAW_SW_SUPPORT_AL88
  17:Drivers/lvgl/src/draw/sw/blend/lv_draw_sw_blend.c ****     #include "lv_draw_sw_blend_to_al88.h"
  18:Drivers/lvgl/src/draw/sw/blend/lv_draw_sw_blend.c **** #endif
  19:Drivers/lvgl/src/draw/sw/blend/lv_draw_sw_blend.c **** #if LV_DRAW_SW_SUPPORT_RGB565
  20:Drivers/lvgl/src/draw/sw/blend/lv_draw_sw_blend.c ****     #include "lv_draw_sw_blend_to_rgb565.h"
  21:Drivers/lvgl/src/draw/sw/blend/lv_draw_sw_blend.c **** #endif
  22:Drivers/lvgl/src/draw/sw/blend/lv_draw_sw_blend.c **** #if LV_DRAW_SW_SUPPORT_RGB565_SWAPPED
  23:Drivers/lvgl/src/draw/sw/blend/lv_draw_sw_blend.c ****     #include "lv_draw_sw_blend_to_rgb565_swapped.h"
  24:Drivers/lvgl/src/draw/sw/blend/lv_draw_sw_blend.c **** #endif
  25:Drivers/lvgl/src/draw/sw/blend/lv_draw_sw_blend.c **** #if LV_DRAW_SW_SUPPORT_ARGB8888
  26:Drivers/lvgl/src/draw/sw/blend/lv_draw_sw_blend.c ****     #include "lv_draw_sw_blend_to_argb8888.h"
  27:Drivers/lvgl/src/draw/sw/blend/lv_draw_sw_blend.c **** #endif
  28:Drivers/lvgl/src/draw/sw/blend/lv_draw_sw_blend.c **** #if LV_DRAW_SW_SUPPORT_ARGB8888_PREMULTIPLIED
  29:Drivers/lvgl/src/draw/sw/blend/lv_draw_sw_blend.c ****     #include "lv_draw_sw_blend_to_argb8888_premultiplied.h"
  30:Drivers/lvgl/src/draw/sw/blend/lv_draw_sw_blend.c **** #endif
ARM GAS  /var/folders/qx/2_175_4n2s19vhvtspjhb3qh0000gn/T//ccp3poHl.s 			page 2


  31:Drivers/lvgl/src/draw/sw/blend/lv_draw_sw_blend.c **** #if LV_DRAW_SW_SUPPORT_RGB888 || LV_DRAW_SW_SUPPORT_XRGB8888
  32:Drivers/lvgl/src/draw/sw/blend/lv_draw_sw_blend.c ****     #include "lv_draw_sw_blend_to_rgb888.h"
  33:Drivers/lvgl/src/draw/sw/blend/lv_draw_sw_blend.c **** #endif
  34:Drivers/lvgl/src/draw/sw/blend/lv_draw_sw_blend.c **** #if LV_DRAW_SW_SUPPORT_I1
  35:Drivers/lvgl/src/draw/sw/blend/lv_draw_sw_blend.c ****     #include "lv_draw_sw_blend_to_i1.h"
  36:Drivers/lvgl/src/draw/sw/blend/lv_draw_sw_blend.c **** #endif
  37:Drivers/lvgl/src/draw/sw/blend/lv_draw_sw_blend.c **** #if LV_USE_DRAW_SW
  38:Drivers/lvgl/src/draw/sw/blend/lv_draw_sw_blend.c **** 
  39:Drivers/lvgl/src/draw/sw/blend/lv_draw_sw_blend.c **** /*********************
  40:Drivers/lvgl/src/draw/sw/blend/lv_draw_sw_blend.c ****  *      DEFINES
  41:Drivers/lvgl/src/draw/sw/blend/lv_draw_sw_blend.c ****  *********************/
  42:Drivers/lvgl/src/draw/sw/blend/lv_draw_sw_blend.c **** 
  43:Drivers/lvgl/src/draw/sw/blend/lv_draw_sw_blend.c **** /**********************
  44:Drivers/lvgl/src/draw/sw/blend/lv_draw_sw_blend.c ****  *      TYPEDEFS
  45:Drivers/lvgl/src/draw/sw/blend/lv_draw_sw_blend.c ****  **********************/
  46:Drivers/lvgl/src/draw/sw/blend/lv_draw_sw_blend.c **** 
  47:Drivers/lvgl/src/draw/sw/blend/lv_draw_sw_blend.c **** /**********************
  48:Drivers/lvgl/src/draw/sw/blend/lv_draw_sw_blend.c ****  *  STATIC PROTOTYPES
  49:Drivers/lvgl/src/draw/sw/blend/lv_draw_sw_blend.c ****  **********************/
  50:Drivers/lvgl/src/draw/sw/blend/lv_draw_sw_blend.c **** 
  51:Drivers/lvgl/src/draw/sw/blend/lv_draw_sw_blend.c **** static inline void /* LV_ATTRIBUTE_FAST_MEM */ lv_draw_sw_blend_color(lv_color_format_t layer_cf,
  52:Drivers/lvgl/src/draw/sw/blend/lv_draw_sw_blend.c ****                                                                       lv_draw_sw_blend_fill_dsc_t *
  53:Drivers/lvgl/src/draw/sw/blend/lv_draw_sw_blend.c **** 
  54:Drivers/lvgl/src/draw/sw/blend/lv_draw_sw_blend.c **** static inline void /* LV_ATTRIBUTE_FAST_MEM */ lv_draw_sw_blend_image(lv_color_format_t layer_cf,
  55:Drivers/lvgl/src/draw/sw/blend/lv_draw_sw_blend.c ****                                                                       lv_draw_sw_blend_image_dsc_t 
  56:Drivers/lvgl/src/draw/sw/blend/lv_draw_sw_blend.c **** 
  57:Drivers/lvgl/src/draw/sw/blend/lv_draw_sw_blend.c **** 
  58:Drivers/lvgl/src/draw/sw/blend/lv_draw_sw_blend.c **** /**********************
  59:Drivers/lvgl/src/draw/sw/blend/lv_draw_sw_blend.c ****  *  STATIC VARIABLES
  60:Drivers/lvgl/src/draw/sw/blend/lv_draw_sw_blend.c ****  **********************/
  61:Drivers/lvgl/src/draw/sw/blend/lv_draw_sw_blend.c **** 
  62:Drivers/lvgl/src/draw/sw/blend/lv_draw_sw_blend.c **** /**********************
  63:Drivers/lvgl/src/draw/sw/blend/lv_draw_sw_blend.c ****  *      MACROS
  64:Drivers/lvgl/src/draw/sw/blend/lv_draw_sw_blend.c ****  **********************/
  65:Drivers/lvgl/src/draw/sw/blend/lv_draw_sw_blend.c **** 
  66:Drivers/lvgl/src/draw/sw/blend/lv_draw_sw_blend.c **** /**********************
  67:Drivers/lvgl/src/draw/sw/blend/lv_draw_sw_blend.c ****  *   GLOBAL FUNCTIONS
  68:Drivers/lvgl/src/draw/sw/blend/lv_draw_sw_blend.c ****  **********************/
  69:Drivers/lvgl/src/draw/sw/blend/lv_draw_sw_blend.c **** 
  70:Drivers/lvgl/src/draw/sw/blend/lv_draw_sw_blend.c **** void lv_draw_sw_blend(lv_draw_task_t * t, const lv_draw_sw_blend_dsc_t * blend_dsc)
  71:Drivers/lvgl/src/draw/sw/blend/lv_draw_sw_blend.c **** {
  72:Drivers/lvgl/src/draw/sw/blend/lv_draw_sw_blend.c ****     /*Do not draw transparent things*/
  73:Drivers/lvgl/src/draw/sw/blend/lv_draw_sw_blend.c ****     if(blend_dsc->opa <= LV_OPA_MIN) return;
  74:Drivers/lvgl/src/draw/sw/blend/lv_draw_sw_blend.c ****     if(blend_dsc->mask_buf && blend_dsc->mask_res == LV_DRAW_SW_MASK_RES_TRANSP) return;
  75:Drivers/lvgl/src/draw/sw/blend/lv_draw_sw_blend.c **** 
  76:Drivers/lvgl/src/draw/sw/blend/lv_draw_sw_blend.c ****     lv_area_t blend_area;
  77:Drivers/lvgl/src/draw/sw/blend/lv_draw_sw_blend.c ****     if(!lv_area_intersect(&blend_area, blend_dsc->blend_area, &t->clip_area)) return;
  78:Drivers/lvgl/src/draw/sw/blend/lv_draw_sw_blend.c **** 
  79:Drivers/lvgl/src/draw/sw/blend/lv_draw_sw_blend.c ****     LV_PROFILER_DRAW_BEGIN;
  80:Drivers/lvgl/src/draw/sw/blend/lv_draw_sw_blend.c ****     lv_layer_t * layer = t->target_layer;
  81:Drivers/lvgl/src/draw/sw/blend/lv_draw_sw_blend.c ****     uint32_t layer_stride_byte = layer->draw_buf->header.stride;
  82:Drivers/lvgl/src/draw/sw/blend/lv_draw_sw_blend.c **** 
  83:Drivers/lvgl/src/draw/sw/blend/lv_draw_sw_blend.c ****     lv_draw_sw_blend_handler_t handler = lv_draw_sw_get_blend_handler(layer->color_format);
  84:Drivers/lvgl/src/draw/sw/blend/lv_draw_sw_blend.c ****     if(handler) {
  85:Drivers/lvgl/src/draw/sw/blend/lv_draw_sw_blend.c ****         handler(t, blend_dsc);
  86:Drivers/lvgl/src/draw/sw/blend/lv_draw_sw_blend.c ****         LV_PROFILER_DRAW_END;
  87:Drivers/lvgl/src/draw/sw/blend/lv_draw_sw_blend.c ****         return;
ARM GAS  /var/folders/qx/2_175_4n2s19vhvtspjhb3qh0000gn/T//ccp3poHl.s 			page 3


  88:Drivers/lvgl/src/draw/sw/blend/lv_draw_sw_blend.c ****     }
  89:Drivers/lvgl/src/draw/sw/blend/lv_draw_sw_blend.c **** 
  90:Drivers/lvgl/src/draw/sw/blend/lv_draw_sw_blend.c ****     if(blend_dsc->src_buf == NULL) {
  91:Drivers/lvgl/src/draw/sw/blend/lv_draw_sw_blend.c ****         lv_draw_sw_blend_fill_dsc_t fill_dsc;
  92:Drivers/lvgl/src/draw/sw/blend/lv_draw_sw_blend.c ****         fill_dsc.dest_w = lv_area_get_width(&blend_area);
  93:Drivers/lvgl/src/draw/sw/blend/lv_draw_sw_blend.c ****         fill_dsc.dest_h = lv_area_get_height(&blend_area);
  94:Drivers/lvgl/src/draw/sw/blend/lv_draw_sw_blend.c ****         fill_dsc.dest_stride = layer_stride_byte;
  95:Drivers/lvgl/src/draw/sw/blend/lv_draw_sw_blend.c ****         fill_dsc.opa = blend_dsc->opa;
  96:Drivers/lvgl/src/draw/sw/blend/lv_draw_sw_blend.c ****         fill_dsc.color = blend_dsc->color;
  97:Drivers/lvgl/src/draw/sw/blend/lv_draw_sw_blend.c ****         fill_dsc.mask_stride = 0;
  98:Drivers/lvgl/src/draw/sw/blend/lv_draw_sw_blend.c **** 
  99:Drivers/lvgl/src/draw/sw/blend/lv_draw_sw_blend.c ****         if(blend_dsc->mask_buf == NULL) fill_dsc.mask_buf = NULL;
 100:Drivers/lvgl/src/draw/sw/blend/lv_draw_sw_blend.c ****         else if(blend_dsc->mask_res == LV_DRAW_SW_MASK_RES_FULL_COVER) fill_dsc.mask_buf = NULL;
 101:Drivers/lvgl/src/draw/sw/blend/lv_draw_sw_blend.c ****         else fill_dsc.mask_buf = blend_dsc->mask_buf;
 102:Drivers/lvgl/src/draw/sw/blend/lv_draw_sw_blend.c **** 
 103:Drivers/lvgl/src/draw/sw/blend/lv_draw_sw_blend.c **** 
 104:Drivers/lvgl/src/draw/sw/blend/lv_draw_sw_blend.c ****         fill_dsc.relative_area  = blend_area;
 105:Drivers/lvgl/src/draw/sw/blend/lv_draw_sw_blend.c ****         lv_area_move(&fill_dsc.relative_area, -layer->buf_area.x1, -layer->buf_area.y1);
 106:Drivers/lvgl/src/draw/sw/blend/lv_draw_sw_blend.c ****         fill_dsc.dest_buf = lv_draw_layer_go_to_xy(layer, blend_area.x1 - layer->buf_area.x1,
 107:Drivers/lvgl/src/draw/sw/blend/lv_draw_sw_blend.c ****                                                    blend_area.y1 - layer->buf_area.y1);
 108:Drivers/lvgl/src/draw/sw/blend/lv_draw_sw_blend.c ****         if(fill_dsc.mask_buf) {
 109:Drivers/lvgl/src/draw/sw/blend/lv_draw_sw_blend.c ****             fill_dsc.mask_stride = blend_dsc->mask_stride == 0  ? lv_area_get_width(blend_dsc->mask
 110:Drivers/lvgl/src/draw/sw/blend/lv_draw_sw_blend.c ****             fill_dsc.mask_buf += fill_dsc.mask_stride * (blend_area.y1 - blend_dsc->mask_area->y1) 
 111:Drivers/lvgl/src/draw/sw/blend/lv_draw_sw_blend.c ****                                  (blend_area.x1 - blend_dsc->mask_area->x1);
 112:Drivers/lvgl/src/draw/sw/blend/lv_draw_sw_blend.c ****         }
 113:Drivers/lvgl/src/draw/sw/blend/lv_draw_sw_blend.c **** 
 114:Drivers/lvgl/src/draw/sw/blend/lv_draw_sw_blend.c ****         lv_draw_sw_blend_color(layer->color_format, &fill_dsc);
 115:Drivers/lvgl/src/draw/sw/blend/lv_draw_sw_blend.c ****     }
 116:Drivers/lvgl/src/draw/sw/blend/lv_draw_sw_blend.c ****     else {
 117:Drivers/lvgl/src/draw/sw/blend/lv_draw_sw_blend.c ****         if(!lv_area_intersect(&blend_area, &blend_area, blend_dsc->src_area)) {
 118:Drivers/lvgl/src/draw/sw/blend/lv_draw_sw_blend.c ****             LV_PROFILER_DRAW_END;
 119:Drivers/lvgl/src/draw/sw/blend/lv_draw_sw_blend.c ****             return;
 120:Drivers/lvgl/src/draw/sw/blend/lv_draw_sw_blend.c ****         }
 121:Drivers/lvgl/src/draw/sw/blend/lv_draw_sw_blend.c **** 
 122:Drivers/lvgl/src/draw/sw/blend/lv_draw_sw_blend.c ****         if(blend_dsc->mask_area && !lv_area_intersect(&blend_area, &blend_area, blend_dsc->mask_are
 123:Drivers/lvgl/src/draw/sw/blend/lv_draw_sw_blend.c ****             LV_PROFILER_DRAW_END;
 124:Drivers/lvgl/src/draw/sw/blend/lv_draw_sw_blend.c ****             return;
 125:Drivers/lvgl/src/draw/sw/blend/lv_draw_sw_blend.c ****         }
 126:Drivers/lvgl/src/draw/sw/blend/lv_draw_sw_blend.c **** 
 127:Drivers/lvgl/src/draw/sw/blend/lv_draw_sw_blend.c ****         lv_draw_sw_blend_image_dsc_t image_dsc;
 128:Drivers/lvgl/src/draw/sw/blend/lv_draw_sw_blend.c ****         image_dsc.dest_w = lv_area_get_width(&blend_area);
 129:Drivers/lvgl/src/draw/sw/blend/lv_draw_sw_blend.c ****         image_dsc.dest_h = lv_area_get_height(&blend_area);
 130:Drivers/lvgl/src/draw/sw/blend/lv_draw_sw_blend.c ****         image_dsc.dest_stride = layer_stride_byte;
 131:Drivers/lvgl/src/draw/sw/blend/lv_draw_sw_blend.c **** 
 132:Drivers/lvgl/src/draw/sw/blend/lv_draw_sw_blend.c ****         image_dsc.opa = blend_dsc->opa;
 133:Drivers/lvgl/src/draw/sw/blend/lv_draw_sw_blend.c ****         image_dsc.blend_mode = blend_dsc->blend_mode;
 134:Drivers/lvgl/src/draw/sw/blend/lv_draw_sw_blend.c ****         image_dsc.src_stride = blend_dsc->src_stride;
 135:Drivers/lvgl/src/draw/sw/blend/lv_draw_sw_blend.c ****         image_dsc.src_color_format = blend_dsc->src_color_format;
 136:Drivers/lvgl/src/draw/sw/blend/lv_draw_sw_blend.c **** 
 137:Drivers/lvgl/src/draw/sw/blend/lv_draw_sw_blend.c ****         const uint8_t * src_buf = blend_dsc->src_buf;
 138:Drivers/lvgl/src/draw/sw/blend/lv_draw_sw_blend.c ****         uint32_t src_px_size = lv_color_format_get_bpp(blend_dsc->src_color_format);
 139:Drivers/lvgl/src/draw/sw/blend/lv_draw_sw_blend.c ****         src_buf += image_dsc.src_stride * (blend_area.y1 - blend_dsc->src_area->y1);
 140:Drivers/lvgl/src/draw/sw/blend/lv_draw_sw_blend.c ****         src_buf += ((blend_area.x1 - blend_dsc->src_area->x1) * src_px_size) >> 3;
 141:Drivers/lvgl/src/draw/sw/blend/lv_draw_sw_blend.c ****         image_dsc.src_buf = src_buf;
 142:Drivers/lvgl/src/draw/sw/blend/lv_draw_sw_blend.c ****         image_dsc.mask_stride = 0;
 143:Drivers/lvgl/src/draw/sw/blend/lv_draw_sw_blend.c **** 
 144:Drivers/lvgl/src/draw/sw/blend/lv_draw_sw_blend.c ****         if(blend_dsc->mask_buf == NULL) image_dsc.mask_buf = NULL;
ARM GAS  /var/folders/qx/2_175_4n2s19vhvtspjhb3qh0000gn/T//ccp3poHl.s 			page 4


 145:Drivers/lvgl/src/draw/sw/blend/lv_draw_sw_blend.c ****         else if(blend_dsc->mask_res == LV_DRAW_SW_MASK_RES_FULL_COVER) image_dsc.mask_buf = NULL;
 146:Drivers/lvgl/src/draw/sw/blend/lv_draw_sw_blend.c ****         else image_dsc.mask_buf = blend_dsc->mask_buf;
 147:Drivers/lvgl/src/draw/sw/blend/lv_draw_sw_blend.c **** 
 148:Drivers/lvgl/src/draw/sw/blend/lv_draw_sw_blend.c ****         if(image_dsc.mask_buf) {
 149:Drivers/lvgl/src/draw/sw/blend/lv_draw_sw_blend.c ****             LV_ASSERT_NULL(blend_dsc->mask_area);
 150:Drivers/lvgl/src/draw/sw/blend/lv_draw_sw_blend.c ****             image_dsc.mask_buf = blend_dsc->mask_buf;
 151:Drivers/lvgl/src/draw/sw/blend/lv_draw_sw_blend.c ****             image_dsc.mask_stride = blend_dsc->mask_stride ? blend_dsc->mask_stride : lv_area_get_w
 152:Drivers/lvgl/src/draw/sw/blend/lv_draw_sw_blend.c ****             image_dsc.mask_buf += image_dsc.mask_stride * (blend_area.y1 - blend_dsc->mask_area->y1
 153:Drivers/lvgl/src/draw/sw/blend/lv_draw_sw_blend.c ****                                   (blend_area.x1 - blend_dsc->mask_area->x1);
 154:Drivers/lvgl/src/draw/sw/blend/lv_draw_sw_blend.c ****         }
 155:Drivers/lvgl/src/draw/sw/blend/lv_draw_sw_blend.c **** 
 156:Drivers/lvgl/src/draw/sw/blend/lv_draw_sw_blend.c ****         image_dsc.relative_area  = blend_area;
 157:Drivers/lvgl/src/draw/sw/blend/lv_draw_sw_blend.c ****         lv_area_move(&image_dsc.relative_area, -layer->buf_area.x1, -layer->buf_area.y1);
 158:Drivers/lvgl/src/draw/sw/blend/lv_draw_sw_blend.c **** 
 159:Drivers/lvgl/src/draw/sw/blend/lv_draw_sw_blend.c ****         image_dsc.src_area  = *blend_dsc->src_area;
 160:Drivers/lvgl/src/draw/sw/blend/lv_draw_sw_blend.c ****         lv_area_move(&image_dsc.src_area, -layer->buf_area.x1, -layer->buf_area.y1);
 161:Drivers/lvgl/src/draw/sw/blend/lv_draw_sw_blend.c **** 
 162:Drivers/lvgl/src/draw/sw/blend/lv_draw_sw_blend.c ****         image_dsc.dest_buf = lv_draw_layer_go_to_xy(layer, blend_area.x1 - layer->buf_area.x1,
 163:Drivers/lvgl/src/draw/sw/blend/lv_draw_sw_blend.c ****                                                     blend_area.y1 - layer->buf_area.y1);
 164:Drivers/lvgl/src/draw/sw/blend/lv_draw_sw_blend.c **** 
 165:Drivers/lvgl/src/draw/sw/blend/lv_draw_sw_blend.c ****         lv_draw_sw_blend_image(layer->color_format, &image_dsc);
 166:Drivers/lvgl/src/draw/sw/blend/lv_draw_sw_blend.c ****     }
 167:Drivers/lvgl/src/draw/sw/blend/lv_draw_sw_blend.c ****     LV_PROFILER_DRAW_END;
 168:Drivers/lvgl/src/draw/sw/blend/lv_draw_sw_blend.c **** }
 169:Drivers/lvgl/src/draw/sw/blend/lv_draw_sw_blend.c **** 
 170:Drivers/lvgl/src/draw/sw/blend/lv_draw_sw_blend.c **** /**********************
 171:Drivers/lvgl/src/draw/sw/blend/lv_draw_sw_blend.c ****  *   STATIC FUNCTIONS
 172:Drivers/lvgl/src/draw/sw/blend/lv_draw_sw_blend.c ****  **********************/
 173:Drivers/lvgl/src/draw/sw/blend/lv_draw_sw_blend.c **** 
 174:Drivers/lvgl/src/draw/sw/blend/lv_draw_sw_blend.c **** static inline void LV_ATTRIBUTE_FAST_MEM lv_draw_sw_blend_color(lv_color_format_t layer_cf,
 175:Drivers/lvgl/src/draw/sw/blend/lv_draw_sw_blend.c ****                                                                 lv_draw_sw_blend_fill_dsc_t * fill_
 176:Drivers/lvgl/src/draw/sw/blend/lv_draw_sw_blend.c **** {
  29              		.loc 1 176 1 view -0
  30              		.cfi_startproc
  31              		@ args = 0, pretend = 0, frame = 0
  32              		@ frame_needed = 0, uses_anonymous_args = 0
  33              		.loc 1 176 1 is_stmt 0 view .LVU1
  34 0000 08B5     		push	{r3, lr}
  35              	.LCFI0:
  36              		.cfi_def_cfa_offset 8
  37              		.cfi_offset 3, -8
  38              		.cfi_offset 14, -4
  39 0002 0A46     		mov	r2, r1
 177:Drivers/lvgl/src/draw/sw/blend/lv_draw_sw_blend.c ****     switch(layer_cf) {
  40              		.loc 1 177 5 is_stmt 1 view .LVU2
  41 0004 831F     		subs	r3, r0, #6
  42 0006 152B     		cmp	r3, #21
  43 0008 0FD8     		bhi	.L1
  44 000a DFE803F0 		tbb	[pc, r3]
  45              	.LVL1:
  46              	.L4:
  47 000e 25       		.byte	(.L12-.L4)/2
  48 000f 2D       		.byte	(.L11-.L4)/2
  49 0010 0E       		.byte	(.L1-.L4)/2
  50 0011 0E       		.byte	(.L1-.L4)/2
  51 0012 0E       		.byte	(.L1-.L4)/2
  52 0013 0E       		.byte	(.L1-.L4)/2
ARM GAS  /var/folders/qx/2_175_4n2s19vhvtspjhb3qh0000gn/T//ccp3poHl.s 			page 5


  53 0014 0E       		.byte	(.L1-.L4)/2
  54 0015 0E       		.byte	(.L1-.L4)/2
  55 0016 0E       		.byte	(.L1-.L4)/2
  56 0017 17       		.byte	(.L10-.L4)/2
  57 0018 13       		.byte	(.L9-.L4)/2
  58 0019 1C       		.byte	(.L8-.L4)/2
  59 001a 0B       		.byte	(.L7-.L4)/2
  60 001b 0E       		.byte	(.L1-.L4)/2
  61 001c 0E       		.byte	(.L1-.L4)/2
  62 001d 29       		.byte	(.L6-.L4)/2
  63 001e 0E       		.byte	(.L1-.L4)/2
  64 001f 0E       		.byte	(.L1-.L4)/2
  65 0020 0E       		.byte	(.L1-.L4)/2
  66 0021 0E       		.byte	(.L1-.L4)/2
  67 0022 21       		.byte	(.L5-.L4)/2
  68 0023 0F       		.byte	(.L3-.L4)/2
  69              		.p2align 1
  70              	.L7:
 178:Drivers/lvgl/src/draw/sw/blend/lv_draw_sw_blend.c **** #if LV_DRAW_SW_SUPPORT_RGB565
 179:Drivers/lvgl/src/draw/sw/blend/lv_draw_sw_blend.c ****         case LV_COLOR_FORMAT_RGB565:
 180:Drivers/lvgl/src/draw/sw/blend/lv_draw_sw_blend.c ****             lv_draw_sw_blend_color_to_rgb565(fill_dsc);
  71              		.loc 1 180 13 view .LVU3
  72 0024 1046     		mov	r0, r2
  73              	.LVL2:
  74              		.loc 1 180 13 is_stmt 0 view .LVU4
  75 0026 FFF7FEFF 		bl	lv_draw_sw_blend_color_to_rgb565
  76              	.LVL3:
 181:Drivers/lvgl/src/draw/sw/blend/lv_draw_sw_blend.c ****             break;
  77              		.loc 1 181 13 is_stmt 1 view .LVU5
  78              	.L1:
 182:Drivers/lvgl/src/draw/sw/blend/lv_draw_sw_blend.c **** #endif
 183:Drivers/lvgl/src/draw/sw/blend/lv_draw_sw_blend.c **** #if LV_DRAW_SW_SUPPORT_RGB565_SWAPPED
 184:Drivers/lvgl/src/draw/sw/blend/lv_draw_sw_blend.c ****         case LV_COLOR_FORMAT_RGB565_SWAPPED:
 185:Drivers/lvgl/src/draw/sw/blend/lv_draw_sw_blend.c ****             lv_draw_sw_blend_color_to_rgb565_swapped(fill_dsc);
 186:Drivers/lvgl/src/draw/sw/blend/lv_draw_sw_blend.c ****             break;
 187:Drivers/lvgl/src/draw/sw/blend/lv_draw_sw_blend.c **** #endif
 188:Drivers/lvgl/src/draw/sw/blend/lv_draw_sw_blend.c **** #if LV_DRAW_SW_SUPPORT_ARGB8888
 189:Drivers/lvgl/src/draw/sw/blend/lv_draw_sw_blend.c ****         case LV_COLOR_FORMAT_ARGB8888:
 190:Drivers/lvgl/src/draw/sw/blend/lv_draw_sw_blend.c ****             lv_draw_sw_blend_color_to_argb8888(fill_dsc);
 191:Drivers/lvgl/src/draw/sw/blend/lv_draw_sw_blend.c ****             break;
 192:Drivers/lvgl/src/draw/sw/blend/lv_draw_sw_blend.c **** #endif
 193:Drivers/lvgl/src/draw/sw/blend/lv_draw_sw_blend.c **** #if LV_DRAW_SW_SUPPORT_RGB888
 194:Drivers/lvgl/src/draw/sw/blend/lv_draw_sw_blend.c ****         case LV_COLOR_FORMAT_RGB888:
 195:Drivers/lvgl/src/draw/sw/blend/lv_draw_sw_blend.c ****             lv_draw_sw_blend_color_to_rgb888(fill_dsc, 3);
 196:Drivers/lvgl/src/draw/sw/blend/lv_draw_sw_blend.c ****             break;
 197:Drivers/lvgl/src/draw/sw/blend/lv_draw_sw_blend.c **** #endif
 198:Drivers/lvgl/src/draw/sw/blend/lv_draw_sw_blend.c **** #if LV_DRAW_SW_SUPPORT_XRGB8888
 199:Drivers/lvgl/src/draw/sw/blend/lv_draw_sw_blend.c ****         case LV_COLOR_FORMAT_XRGB8888:
 200:Drivers/lvgl/src/draw/sw/blend/lv_draw_sw_blend.c ****             lv_draw_sw_blend_color_to_rgb888(fill_dsc, 4);
 201:Drivers/lvgl/src/draw/sw/blend/lv_draw_sw_blend.c ****             break;
 202:Drivers/lvgl/src/draw/sw/blend/lv_draw_sw_blend.c **** #endif
 203:Drivers/lvgl/src/draw/sw/blend/lv_draw_sw_blend.c **** #if LV_DRAW_SW_SUPPORT_ARGB8888_PREMULTIPLIED
 204:Drivers/lvgl/src/draw/sw/blend/lv_draw_sw_blend.c ****         case LV_COLOR_FORMAT_ARGB8888_PREMULTIPLIED:
 205:Drivers/lvgl/src/draw/sw/blend/lv_draw_sw_blend.c ****             lv_draw_sw_blend_color_to_argb8888_premultiplied(fill_dsc);
 206:Drivers/lvgl/src/draw/sw/blend/lv_draw_sw_blend.c ****             break;
 207:Drivers/lvgl/src/draw/sw/blend/lv_draw_sw_blend.c **** #endif
 208:Drivers/lvgl/src/draw/sw/blend/lv_draw_sw_blend.c **** #if LV_DRAW_SW_SUPPORT_L8
ARM GAS  /var/folders/qx/2_175_4n2s19vhvtspjhb3qh0000gn/T//ccp3poHl.s 			page 6


 209:Drivers/lvgl/src/draw/sw/blend/lv_draw_sw_blend.c ****         case LV_COLOR_FORMAT_L8:
 210:Drivers/lvgl/src/draw/sw/blend/lv_draw_sw_blend.c ****             lv_draw_sw_blend_color_to_l8(fill_dsc);
 211:Drivers/lvgl/src/draw/sw/blend/lv_draw_sw_blend.c ****             break;
 212:Drivers/lvgl/src/draw/sw/blend/lv_draw_sw_blend.c **** #endif
 213:Drivers/lvgl/src/draw/sw/blend/lv_draw_sw_blend.c **** #if LV_DRAW_SW_SUPPORT_AL88
 214:Drivers/lvgl/src/draw/sw/blend/lv_draw_sw_blend.c ****         case LV_COLOR_FORMAT_AL88:
 215:Drivers/lvgl/src/draw/sw/blend/lv_draw_sw_blend.c ****             lv_draw_sw_blend_color_to_al88(fill_dsc);
 216:Drivers/lvgl/src/draw/sw/blend/lv_draw_sw_blend.c ****             break;
 217:Drivers/lvgl/src/draw/sw/blend/lv_draw_sw_blend.c **** #endif
 218:Drivers/lvgl/src/draw/sw/blend/lv_draw_sw_blend.c **** #if LV_DRAW_SW_SUPPORT_I1
 219:Drivers/lvgl/src/draw/sw/blend/lv_draw_sw_blend.c ****         case LV_COLOR_FORMAT_I1:
 220:Drivers/lvgl/src/draw/sw/blend/lv_draw_sw_blend.c ****             lv_draw_sw_blend_color_to_i1(fill_dsc);
 221:Drivers/lvgl/src/draw/sw/blend/lv_draw_sw_blend.c ****             break;
 222:Drivers/lvgl/src/draw/sw/blend/lv_draw_sw_blend.c **** #endif
 223:Drivers/lvgl/src/draw/sw/blend/lv_draw_sw_blend.c ****         default:
 224:Drivers/lvgl/src/draw/sw/blend/lv_draw_sw_blend.c ****             break;
 225:Drivers/lvgl/src/draw/sw/blend/lv_draw_sw_blend.c ****     }
 226:Drivers/lvgl/src/draw/sw/blend/lv_draw_sw_blend.c **** }
  79              		.loc 1 226 1 is_stmt 0 view .LVU6
  80 002a 08BD     		pop	{r3, pc}
  81              	.LVL4:
  82              	.L3:
 185:Drivers/lvgl/src/draw/sw/blend/lv_draw_sw_blend.c ****             break;
  83              		.loc 1 185 13 is_stmt 1 view .LVU7
  84 002c 1046     		mov	r0, r2
  85              	.LVL5:
 185:Drivers/lvgl/src/draw/sw/blend/lv_draw_sw_blend.c ****             break;
  86              		.loc 1 185 13 is_stmt 0 view .LVU8
  87 002e FFF7FEFF 		bl	lv_draw_sw_blend_color_to_rgb565_swapped
  88              	.LVL6:
 186:Drivers/lvgl/src/draw/sw/blend/lv_draw_sw_blend.c **** #endif
  89              		.loc 1 186 13 is_stmt 1 view .LVU9
  90 0032 FAE7     		b	.L1
  91              	.LVL7:
  92              	.L9:
 190:Drivers/lvgl/src/draw/sw/blend/lv_draw_sw_blend.c ****             break;
  93              		.loc 1 190 13 view .LVU10
  94 0034 1046     		mov	r0, r2
  95              	.LVL8:
 190:Drivers/lvgl/src/draw/sw/blend/lv_draw_sw_blend.c ****             break;
  96              		.loc 1 190 13 is_stmt 0 view .LVU11
  97 0036 FFF7FEFF 		bl	lv_draw_sw_blend_color_to_argb8888
  98              	.LVL9:
 191:Drivers/lvgl/src/draw/sw/blend/lv_draw_sw_blend.c **** #endif
  99              		.loc 1 191 13 is_stmt 1 view .LVU12
 100 003a F6E7     		b	.L1
 101              	.LVL10:
 102              	.L10:
 195:Drivers/lvgl/src/draw/sw/blend/lv_draw_sw_blend.c ****             break;
 103              		.loc 1 195 13 view .LVU13
 104 003c 0321     		movs	r1, #3
 105 003e 1046     		mov	r0, r2
 106              	.LVL11:
 195:Drivers/lvgl/src/draw/sw/blend/lv_draw_sw_blend.c ****             break;
 107              		.loc 1 195 13 is_stmt 0 view .LVU14
 108 0040 FFF7FEFF 		bl	lv_draw_sw_blend_color_to_rgb888
 109              	.LVL12:
ARM GAS  /var/folders/qx/2_175_4n2s19vhvtspjhb3qh0000gn/T//ccp3poHl.s 			page 7


 196:Drivers/lvgl/src/draw/sw/blend/lv_draw_sw_blend.c **** #endif
 110              		.loc 1 196 13 is_stmt 1 view .LVU15
 111 0044 F1E7     		b	.L1
 112              	.LVL13:
 113              	.L8:
 200:Drivers/lvgl/src/draw/sw/blend/lv_draw_sw_blend.c ****             break;
 114              		.loc 1 200 13 view .LVU16
 115 0046 0421     		movs	r1, #4
 116 0048 1046     		mov	r0, r2
 117              	.LVL14:
 200:Drivers/lvgl/src/draw/sw/blend/lv_draw_sw_blend.c ****             break;
 118              		.loc 1 200 13 is_stmt 0 view .LVU17
 119 004a FFF7FEFF 		bl	lv_draw_sw_blend_color_to_rgb888
 120              	.LVL15:
 201:Drivers/lvgl/src/draw/sw/blend/lv_draw_sw_blend.c **** #endif
 121              		.loc 1 201 13 is_stmt 1 view .LVU18
 122 004e ECE7     		b	.L1
 123              	.LVL16:
 124              	.L5:
 205:Drivers/lvgl/src/draw/sw/blend/lv_draw_sw_blend.c ****             break;
 125              		.loc 1 205 13 view .LVU19
 126 0050 1046     		mov	r0, r2
 127              	.LVL17:
 205:Drivers/lvgl/src/draw/sw/blend/lv_draw_sw_blend.c ****             break;
 128              		.loc 1 205 13 is_stmt 0 view .LVU20
 129 0052 FFF7FEFF 		bl	lv_draw_sw_blend_color_to_argb8888_premultiplied
 130              	.LVL18:
 206:Drivers/lvgl/src/draw/sw/blend/lv_draw_sw_blend.c **** #endif
 131              		.loc 1 206 13 is_stmt 1 view .LVU21
 132 0056 E8E7     		b	.L1
 133              	.LVL19:
 134              	.L12:
 210:Drivers/lvgl/src/draw/sw/blend/lv_draw_sw_blend.c ****             break;
 135              		.loc 1 210 13 view .LVU22
 136 0058 1046     		mov	r0, r2
 137              	.LVL20:
 210:Drivers/lvgl/src/draw/sw/blend/lv_draw_sw_blend.c ****             break;
 138              		.loc 1 210 13 is_stmt 0 view .LVU23
 139 005a FFF7FEFF 		bl	lv_draw_sw_blend_color_to_l8
 140              	.LVL21:
 211:Drivers/lvgl/src/draw/sw/blend/lv_draw_sw_blend.c **** #endif
 141              		.loc 1 211 13 is_stmt 1 view .LVU24
 142 005e E4E7     		b	.L1
 143              	.LVL22:
 144              	.L6:
 215:Drivers/lvgl/src/draw/sw/blend/lv_draw_sw_blend.c ****             break;
 145              		.loc 1 215 13 view .LVU25
 146 0060 1046     		mov	r0, r2
 147              	.LVL23:
 215:Drivers/lvgl/src/draw/sw/blend/lv_draw_sw_blend.c ****             break;
 148              		.loc 1 215 13 is_stmt 0 view .LVU26
 149 0062 FFF7FEFF 		bl	lv_draw_sw_blend_color_to_al88
 150              	.LVL24:
 216:Drivers/lvgl/src/draw/sw/blend/lv_draw_sw_blend.c **** #endif
 151              		.loc 1 216 13 is_stmt 1 view .LVU27
 152 0066 E0E7     		b	.L1
 153              	.LVL25:
ARM GAS  /var/folders/qx/2_175_4n2s19vhvtspjhb3qh0000gn/T//ccp3poHl.s 			page 8


 154              	.L11:
 220:Drivers/lvgl/src/draw/sw/blend/lv_draw_sw_blend.c ****             break;
 155              		.loc 1 220 13 view .LVU28
 156 0068 1046     		mov	r0, r2
 157              	.LVL26:
 220:Drivers/lvgl/src/draw/sw/blend/lv_draw_sw_blend.c ****             break;
 158              		.loc 1 220 13 is_stmt 0 view .LVU29
 159 006a FFF7FEFF 		bl	lv_draw_sw_blend_color_to_i1
 160              	.LVL27:
 221:Drivers/lvgl/src/draw/sw/blend/lv_draw_sw_blend.c **** #endif
 161              		.loc 1 221 13 is_stmt 1 view .LVU30
 162              		.loc 1 226 1 is_stmt 0 view .LVU31
 163 006e DCE7     		b	.L1
 164              		.cfi_endproc
 165              	.LFE44:
 167              		.section	.text.lv_draw_sw_blend_image,"ax",%progbits
 168              		.align	1
 169              		.syntax unified
 170              		.thumb
 171              		.thumb_func
 173              	lv_draw_sw_blend_image:
 174              	.LVL28:
 175              	.LFB45:
 227:Drivers/lvgl/src/draw/sw/blend/lv_draw_sw_blend.c **** 
 228:Drivers/lvgl/src/draw/sw/blend/lv_draw_sw_blend.c **** static inline void LV_ATTRIBUTE_FAST_MEM lv_draw_sw_blend_image(lv_color_format_t layer_cf,
 229:Drivers/lvgl/src/draw/sw/blend/lv_draw_sw_blend.c ****                                                                 lv_draw_sw_blend_image_dsc_t * imag
 230:Drivers/lvgl/src/draw/sw/blend/lv_draw_sw_blend.c **** {
 176              		.loc 1 230 1 is_stmt 1 view -0
 177              		.cfi_startproc
 178              		@ args = 0, pretend = 0, frame = 0
 179              		@ frame_needed = 0, uses_anonymous_args = 0
 180              		.loc 1 230 1 is_stmt 0 view .LVU33
 181 0000 08B5     		push	{r3, lr}
 182              	.LCFI1:
 183              		.cfi_def_cfa_offset 8
 184              		.cfi_offset 3, -8
 185              		.cfi_offset 14, -4
 186 0002 0A46     		mov	r2, r1
 231:Drivers/lvgl/src/draw/sw/blend/lv_draw_sw_blend.c ****     switch(layer_cf) {
 187              		.loc 1 231 5 is_stmt 1 view .LVU34
 188 0004 831F     		subs	r3, r0, #6
 189 0006 152B     		cmp	r3, #21
 190 0008 0FD8     		bhi	.L15
 191 000a DFE803F0 		tbb	[pc, r3]
 192              	.LVL29:
 193              	.L18:
 194 000e 25       		.byte	(.L26-.L18)/2
 195 000f 2D       		.byte	(.L25-.L18)/2
 196 0010 0E       		.byte	(.L15-.L18)/2
 197 0011 0E       		.byte	(.L15-.L18)/2
 198 0012 0E       		.byte	(.L15-.L18)/2
 199 0013 0E       		.byte	(.L15-.L18)/2
 200 0014 0E       		.byte	(.L15-.L18)/2
 201 0015 0E       		.byte	(.L15-.L18)/2
 202 0016 0E       		.byte	(.L15-.L18)/2
 203 0017 17       		.byte	(.L24-.L18)/2
 204 0018 13       		.byte	(.L23-.L18)/2
ARM GAS  /var/folders/qx/2_175_4n2s19vhvtspjhb3qh0000gn/T//ccp3poHl.s 			page 9


 205 0019 1C       		.byte	(.L22-.L18)/2
 206 001a 0B       		.byte	(.L21-.L18)/2
 207 001b 0E       		.byte	(.L15-.L18)/2
 208 001c 0B       		.byte	(.L21-.L18)/2
 209 001d 29       		.byte	(.L20-.L18)/2
 210 001e 0E       		.byte	(.L15-.L18)/2
 211 001f 0E       		.byte	(.L15-.L18)/2
 212 0020 0E       		.byte	(.L15-.L18)/2
 213 0021 0E       		.byte	(.L15-.L18)/2
 214 0022 21       		.byte	(.L19-.L18)/2
 215 0023 0F       		.byte	(.L17-.L18)/2
 216              		.p2align 1
 217              	.L21:
 232:Drivers/lvgl/src/draw/sw/blend/lv_draw_sw_blend.c **** #if LV_DRAW_SW_SUPPORT_RGB565
 233:Drivers/lvgl/src/draw/sw/blend/lv_draw_sw_blend.c ****         case LV_COLOR_FORMAT_RGB565:
 234:Drivers/lvgl/src/draw/sw/blend/lv_draw_sw_blend.c ****         case LV_COLOR_FORMAT_RGB565A8:
 235:Drivers/lvgl/src/draw/sw/blend/lv_draw_sw_blend.c ****             lv_draw_sw_blend_image_to_rgb565(image_dsc);
 218              		.loc 1 235 13 view .LVU35
 219 0024 1046     		mov	r0, r2
 220              	.LVL30:
 221              		.loc 1 235 13 is_stmt 0 view .LVU36
 222 0026 FFF7FEFF 		bl	lv_draw_sw_blend_image_to_rgb565
 223              	.LVL31:
 236:Drivers/lvgl/src/draw/sw/blend/lv_draw_sw_blend.c ****             break;
 224              		.loc 1 236 13 is_stmt 1 view .LVU37
 225              	.L15:
 237:Drivers/lvgl/src/draw/sw/blend/lv_draw_sw_blend.c **** #endif
 238:Drivers/lvgl/src/draw/sw/blend/lv_draw_sw_blend.c **** #if LV_DRAW_SW_SUPPORT_RGB565_SWAPPED
 239:Drivers/lvgl/src/draw/sw/blend/lv_draw_sw_blend.c ****         case LV_COLOR_FORMAT_RGB565_SWAPPED:
 240:Drivers/lvgl/src/draw/sw/blend/lv_draw_sw_blend.c ****             lv_draw_sw_blend_image_to_rgb565_swapped(image_dsc);
 241:Drivers/lvgl/src/draw/sw/blend/lv_draw_sw_blend.c ****             break;
 242:Drivers/lvgl/src/draw/sw/blend/lv_draw_sw_blend.c **** #endif
 243:Drivers/lvgl/src/draw/sw/blend/lv_draw_sw_blend.c **** #if LV_DRAW_SW_SUPPORT_ARGB8888
 244:Drivers/lvgl/src/draw/sw/blend/lv_draw_sw_blend.c ****         case LV_COLOR_FORMAT_ARGB8888:
 245:Drivers/lvgl/src/draw/sw/blend/lv_draw_sw_blend.c ****             lv_draw_sw_blend_image_to_argb8888(image_dsc);
 246:Drivers/lvgl/src/draw/sw/blend/lv_draw_sw_blend.c ****             break;
 247:Drivers/lvgl/src/draw/sw/blend/lv_draw_sw_blend.c **** #endif
 248:Drivers/lvgl/src/draw/sw/blend/lv_draw_sw_blend.c **** #if LV_DRAW_SW_SUPPORT_RGB888
 249:Drivers/lvgl/src/draw/sw/blend/lv_draw_sw_blend.c ****         case LV_COLOR_FORMAT_RGB888:
 250:Drivers/lvgl/src/draw/sw/blend/lv_draw_sw_blend.c ****             lv_draw_sw_blend_image_to_rgb888(image_dsc, 3);
 251:Drivers/lvgl/src/draw/sw/blend/lv_draw_sw_blend.c ****             break;
 252:Drivers/lvgl/src/draw/sw/blend/lv_draw_sw_blend.c **** #endif
 253:Drivers/lvgl/src/draw/sw/blend/lv_draw_sw_blend.c **** #if LV_DRAW_SW_SUPPORT_XRGB8888
 254:Drivers/lvgl/src/draw/sw/blend/lv_draw_sw_blend.c ****         case LV_COLOR_FORMAT_XRGB8888:
 255:Drivers/lvgl/src/draw/sw/blend/lv_draw_sw_blend.c ****             lv_draw_sw_blend_image_to_rgb888(image_dsc, 4);
 256:Drivers/lvgl/src/draw/sw/blend/lv_draw_sw_blend.c ****             break;
 257:Drivers/lvgl/src/draw/sw/blend/lv_draw_sw_blend.c **** #endif
 258:Drivers/lvgl/src/draw/sw/blend/lv_draw_sw_blend.c **** #if LV_DRAW_SW_SUPPORT_ARGB8888_PREMULTIPLIED
 259:Drivers/lvgl/src/draw/sw/blend/lv_draw_sw_blend.c ****         case LV_COLOR_FORMAT_ARGB8888_PREMULTIPLIED:
 260:Drivers/lvgl/src/draw/sw/blend/lv_draw_sw_blend.c ****             lv_draw_sw_blend_image_to_argb8888_premultiplied(image_dsc);
 261:Drivers/lvgl/src/draw/sw/blend/lv_draw_sw_blend.c ****             break;
 262:Drivers/lvgl/src/draw/sw/blend/lv_draw_sw_blend.c **** #endif
 263:Drivers/lvgl/src/draw/sw/blend/lv_draw_sw_blend.c **** #if LV_DRAW_SW_SUPPORT_L8
 264:Drivers/lvgl/src/draw/sw/blend/lv_draw_sw_blend.c ****         case LV_COLOR_FORMAT_L8:
 265:Drivers/lvgl/src/draw/sw/blend/lv_draw_sw_blend.c ****             lv_draw_sw_blend_image_to_l8(image_dsc);
 266:Drivers/lvgl/src/draw/sw/blend/lv_draw_sw_blend.c ****             break;
 267:Drivers/lvgl/src/draw/sw/blend/lv_draw_sw_blend.c **** #endif
ARM GAS  /var/folders/qx/2_175_4n2s19vhvtspjhb3qh0000gn/T//ccp3poHl.s 			page 10


 268:Drivers/lvgl/src/draw/sw/blend/lv_draw_sw_blend.c **** #if LV_DRAW_SW_SUPPORT_AL88
 269:Drivers/lvgl/src/draw/sw/blend/lv_draw_sw_blend.c ****         case LV_COLOR_FORMAT_AL88:
 270:Drivers/lvgl/src/draw/sw/blend/lv_draw_sw_blend.c ****             lv_draw_sw_blend_image_to_al88(image_dsc);
 271:Drivers/lvgl/src/draw/sw/blend/lv_draw_sw_blend.c ****             break;
 272:Drivers/lvgl/src/draw/sw/blend/lv_draw_sw_blend.c **** #endif
 273:Drivers/lvgl/src/draw/sw/blend/lv_draw_sw_blend.c **** #if LV_DRAW_SW_SUPPORT_I1
 274:Drivers/lvgl/src/draw/sw/blend/lv_draw_sw_blend.c ****         case LV_COLOR_FORMAT_I1:
 275:Drivers/lvgl/src/draw/sw/blend/lv_draw_sw_blend.c ****             lv_draw_sw_blend_image_to_i1(image_dsc);
 276:Drivers/lvgl/src/draw/sw/blend/lv_draw_sw_blend.c ****             break;
 277:Drivers/lvgl/src/draw/sw/blend/lv_draw_sw_blend.c **** #endif
 278:Drivers/lvgl/src/draw/sw/blend/lv_draw_sw_blend.c ****         default:
 279:Drivers/lvgl/src/draw/sw/blend/lv_draw_sw_blend.c ****             break;
 280:Drivers/lvgl/src/draw/sw/blend/lv_draw_sw_blend.c ****     }
 281:Drivers/lvgl/src/draw/sw/blend/lv_draw_sw_blend.c **** }
 226              		.loc 1 281 1 is_stmt 0 view .LVU38
 227 002a 08BD     		pop	{r3, pc}
 228              	.LVL32:
 229              	.L17:
 240:Drivers/lvgl/src/draw/sw/blend/lv_draw_sw_blend.c ****             break;
 230              		.loc 1 240 13 is_stmt 1 view .LVU39
 231 002c 1046     		mov	r0, r2
 232              	.LVL33:
 240:Drivers/lvgl/src/draw/sw/blend/lv_draw_sw_blend.c ****             break;
 233              		.loc 1 240 13 is_stmt 0 view .LVU40
 234 002e FFF7FEFF 		bl	lv_draw_sw_blend_image_to_rgb565_swapped
 235              	.LVL34:
 241:Drivers/lvgl/src/draw/sw/blend/lv_draw_sw_blend.c **** #endif
 236              		.loc 1 241 13 is_stmt 1 view .LVU41
 237 0032 FAE7     		b	.L15
 238              	.LVL35:
 239              	.L23:
 245:Drivers/lvgl/src/draw/sw/blend/lv_draw_sw_blend.c ****             break;
 240              		.loc 1 245 13 view .LVU42
 241 0034 1046     		mov	r0, r2
 242              	.LVL36:
 245:Drivers/lvgl/src/draw/sw/blend/lv_draw_sw_blend.c ****             break;
 243              		.loc 1 245 13 is_stmt 0 view .LVU43
 244 0036 FFF7FEFF 		bl	lv_draw_sw_blend_image_to_argb8888
 245              	.LVL37:
 246:Drivers/lvgl/src/draw/sw/blend/lv_draw_sw_blend.c **** #endif
 246              		.loc 1 246 13 is_stmt 1 view .LVU44
 247 003a F6E7     		b	.L15
 248              	.LVL38:
 249              	.L24:
 250:Drivers/lvgl/src/draw/sw/blend/lv_draw_sw_blend.c ****             break;
 250              		.loc 1 250 13 view .LVU45
 251 003c 0321     		movs	r1, #3
 252 003e 1046     		mov	r0, r2
 253              	.LVL39:
 250:Drivers/lvgl/src/draw/sw/blend/lv_draw_sw_blend.c ****             break;
 254              		.loc 1 250 13 is_stmt 0 view .LVU46
 255 0040 FFF7FEFF 		bl	lv_draw_sw_blend_image_to_rgb888
 256              	.LVL40:
 251:Drivers/lvgl/src/draw/sw/blend/lv_draw_sw_blend.c **** #endif
 257              		.loc 1 251 13 is_stmt 1 view .LVU47
 258 0044 F1E7     		b	.L15
 259              	.LVL41:
ARM GAS  /var/folders/qx/2_175_4n2s19vhvtspjhb3qh0000gn/T//ccp3poHl.s 			page 11


 260              	.L22:
 255:Drivers/lvgl/src/draw/sw/blend/lv_draw_sw_blend.c ****             break;
 261              		.loc 1 255 13 view .LVU48
 262 0046 0421     		movs	r1, #4
 263 0048 1046     		mov	r0, r2
 264              	.LVL42:
 255:Drivers/lvgl/src/draw/sw/blend/lv_draw_sw_blend.c ****             break;
 265              		.loc 1 255 13 is_stmt 0 view .LVU49
 266 004a FFF7FEFF 		bl	lv_draw_sw_blend_image_to_rgb888
 267              	.LVL43:
 256:Drivers/lvgl/src/draw/sw/blend/lv_draw_sw_blend.c **** #endif
 268              		.loc 1 256 13 is_stmt 1 view .LVU50
 269 004e ECE7     		b	.L15
 270              	.LVL44:
 271              	.L19:
 260:Drivers/lvgl/src/draw/sw/blend/lv_draw_sw_blend.c ****             break;
 272              		.loc 1 260 13 view .LVU51
 273 0050 1046     		mov	r0, r2
 274              	.LVL45:
 260:Drivers/lvgl/src/draw/sw/blend/lv_draw_sw_blend.c ****             break;
 275              		.loc 1 260 13 is_stmt 0 view .LVU52
 276 0052 FFF7FEFF 		bl	lv_draw_sw_blend_image_to_argb8888_premultiplied
 277              	.LVL46:
 261:Drivers/lvgl/src/draw/sw/blend/lv_draw_sw_blend.c **** #endif
 278              		.loc 1 261 13 is_stmt 1 view .LVU53
 279 0056 E8E7     		b	.L15
 280              	.LVL47:
 281              	.L26:
 265:Drivers/lvgl/src/draw/sw/blend/lv_draw_sw_blend.c ****             break;
 282              		.loc 1 265 13 view .LVU54
 283 0058 1046     		mov	r0, r2
 284              	.LVL48:
 265:Drivers/lvgl/src/draw/sw/blend/lv_draw_sw_blend.c ****             break;
 285              		.loc 1 265 13 is_stmt 0 view .LVU55
 286 005a FFF7FEFF 		bl	lv_draw_sw_blend_image_to_l8
 287              	.LVL49:
 266:Drivers/lvgl/src/draw/sw/blend/lv_draw_sw_blend.c **** #endif
 288              		.loc 1 266 13 is_stmt 1 view .LVU56
 289 005e E4E7     		b	.L15
 290              	.LVL50:
 291              	.L20:
 270:Drivers/lvgl/src/draw/sw/blend/lv_draw_sw_blend.c ****             break;
 292              		.loc 1 270 13 view .LVU57
 293 0060 1046     		mov	r0, r2
 294              	.LVL51:
 270:Drivers/lvgl/src/draw/sw/blend/lv_draw_sw_blend.c ****             break;
 295              		.loc 1 270 13 is_stmt 0 view .LVU58
 296 0062 FFF7FEFF 		bl	lv_draw_sw_blend_image_to_al88
 297              	.LVL52:
 271:Drivers/lvgl/src/draw/sw/blend/lv_draw_sw_blend.c **** #endif
 298              		.loc 1 271 13 is_stmt 1 view .LVU59
 299 0066 E0E7     		b	.L15
 300              	.LVL53:
 301              	.L25:
 275:Drivers/lvgl/src/draw/sw/blend/lv_draw_sw_blend.c ****             break;
 302              		.loc 1 275 13 view .LVU60
 303 0068 1046     		mov	r0, r2
ARM GAS  /var/folders/qx/2_175_4n2s19vhvtspjhb3qh0000gn/T//ccp3poHl.s 			page 12


 304              	.LVL54:
 275:Drivers/lvgl/src/draw/sw/blend/lv_draw_sw_blend.c ****             break;
 305              		.loc 1 275 13 is_stmt 0 view .LVU61
 306 006a FFF7FEFF 		bl	lv_draw_sw_blend_image_to_i1
 307              	.LVL55:
 276:Drivers/lvgl/src/draw/sw/blend/lv_draw_sw_blend.c **** #endif
 308              		.loc 1 276 13 is_stmt 1 view .LVU62
 309              		.loc 1 281 1 is_stmt 0 view .LVU63
 310 006e DCE7     		b	.L15
 311              		.cfi_endproc
 312              	.LFE45:
 314              		.section	.text.lv_draw_sw_blend,"ax",%progbits
 315              		.align	1
 316              		.global	lv_draw_sw_blend
 317              		.syntax unified
 318              		.thumb
 319              		.thumb_func
 321              	lv_draw_sw_blend:
 322              	.LVL56:
 323              	.LFB43:
  71:Drivers/lvgl/src/draw/sw/blend/lv_draw_sw_blend.c ****     /*Do not draw transparent things*/
 324              		.loc 1 71 1 is_stmt 1 view -0
 325              		.cfi_startproc
 326              		@ args = 0, pretend = 0, frame = 88
 327              		@ frame_needed = 0, uses_anonymous_args = 0
  73:Drivers/lvgl/src/draw/sw/blend/lv_draw_sw_blend.c ****     if(blend_dsc->mask_buf && blend_dsc->mask_res == LV_DRAW_SW_MASK_RES_TRANSP) return;
 328              		.loc 1 73 5 view .LVU65
  73:Drivers/lvgl/src/draw/sw/blend/lv_draw_sw_blend.c ****     if(blend_dsc->mask_buf && blend_dsc->mask_res == LV_DRAW_SW_MASK_RES_TRANSP) return;
 329              		.loc 1 73 17 is_stmt 0 view .LVU66
 330 0000 0B7D     		ldrb	r3, [r1, #20]	@ zero_extendqisi2
  73:Drivers/lvgl/src/draw/sw/blend/lv_draw_sw_blend.c ****     if(blend_dsc->mask_buf && blend_dsc->mask_res == LV_DRAW_SW_MASK_RES_TRANSP) return;
 331              		.loc 1 73 7 view .LVU67
 332 0002 022B     		cmp	r3, #2
 333 0004 40F20481 		bls	.L51
  71:Drivers/lvgl/src/draw/sw/blend/lv_draw_sw_blend.c ****     /*Do not draw transparent things*/
 334              		.loc 1 71 1 view .LVU68
 335 0008 F0B5     		push	{r4, r5, r6, r7, lr}
 336              	.LCFI2:
 337              		.cfi_def_cfa_offset 20
 338              		.cfi_offset 4, -20
 339              		.cfi_offset 5, -16
 340              		.cfi_offset 6, -12
 341              		.cfi_offset 7, -8
 342              		.cfi_offset 14, -4
 343 000a 97B0     		sub	sp, sp, #92
 344              	.LCFI3:
 345              		.cfi_def_cfa_offset 112
 346 000c 0546     		mov	r5, r0
 347 000e 0C46     		mov	r4, r1
  74:Drivers/lvgl/src/draw/sw/blend/lv_draw_sw_blend.c **** 
 348              		.loc 1 74 5 is_stmt 1 view .LVU69
  74:Drivers/lvgl/src/draw/sw/blend/lv_draw_sw_blend.c **** 
 349              		.loc 1 74 17 is_stmt 0 view .LVU70
 350 0010 8B69     		ldr	r3, [r1, #24]
  74:Drivers/lvgl/src/draw/sw/blend/lv_draw_sw_blend.c **** 
 351              		.loc 1 74 7 view .LVU71
 352 0012 0BB1     		cbz	r3, .L31
ARM GAS  /var/folders/qx/2_175_4n2s19vhvtspjhb3qh0000gn/T//ccp3poHl.s 			page 13


  74:Drivers/lvgl/src/draw/sw/blend/lv_draw_sw_blend.c **** 
 353              		.loc 1 74 40 discriminator 1 view .LVU72
 354 0014 0B7F     		ldrb	r3, [r1, #28]	@ zero_extendqisi2
  74:Drivers/lvgl/src/draw/sw/blend/lv_draw_sw_blend.c **** 
 355              		.loc 1 74 28 discriminator 1 view .LVU73
 356 0016 33B1     		cbz	r3, .L29
 357              	.L31:
  76:Drivers/lvgl/src/draw/sw/blend/lv_draw_sw_blend.c ****     if(!lv_area_intersect(&blend_area, blend_dsc->blend_area, &t->clip_area)) return;
 358              		.loc 1 76 5 is_stmt 1 view .LVU74
  77:Drivers/lvgl/src/draw/sw/blend/lv_draw_sw_blend.c **** 
 359              		.loc 1 77 5 view .LVU75
  77:Drivers/lvgl/src/draw/sw/blend/lv_draw_sw_blend.c **** 
 360              		.loc 1 77 9 is_stmt 0 view .LVU76
 361 0018 05F13802 		add	r2, r5, #56
 362 001c 2168     		ldr	r1, [r4]
 363              	.LVL57:
  77:Drivers/lvgl/src/draw/sw/blend/lv_draw_sw_blend.c **** 
 364              		.loc 1 77 9 view .LVU77
 365 001e 12A8     		add	r0, sp, #72
 366              	.LVL58:
  77:Drivers/lvgl/src/draw/sw/blend/lv_draw_sw_blend.c **** 
 367              		.loc 1 77 9 view .LVU78
 368 0020 FFF7FEFF 		bl	lv_area_intersect
 369              	.LVL59:
  77:Drivers/lvgl/src/draw/sw/blend/lv_draw_sw_blend.c **** 
 370              		.loc 1 77 7 discriminator 1 view .LVU79
 371 0024 08B9     		cbnz	r0, .L54
 372              	.LVL60:
 373              	.L29:
 168:Drivers/lvgl/src/draw/sw/blend/lv_draw_sw_blend.c **** 
 374              		.loc 1 168 1 view .LVU80
 375 0026 17B0     		add	sp, sp, #92
 376              	.LCFI4:
 377              		.cfi_remember_state
 378              		.cfi_def_cfa_offset 20
 379              		@ sp needed
 380 0028 F0BD     		pop	{r4, r5, r6, r7, pc}
 381              	.LVL61:
 382              	.L54:
 383              	.LCFI5:
 384              		.cfi_restore_state
  79:Drivers/lvgl/src/draw/sw/blend/lv_draw_sw_blend.c ****     lv_layer_t * layer = t->target_layer;
 385              		.loc 1 79 27 is_stmt 1 view .LVU81
  80:Drivers/lvgl/src/draw/sw/blend/lv_draw_sw_blend.c ****     uint32_t layer_stride_byte = layer->draw_buf->header.stride;
 386              		.loc 1 80 5 view .LVU82
  80:Drivers/lvgl/src/draw/sw/blend/lv_draw_sw_blend.c ****     uint32_t layer_stride_byte = layer->draw_buf->header.stride;
 387              		.loc 1 80 18 is_stmt 0 view .LVU83
 388 002a AE6C     		ldr	r6, [r5, #72]
 389              	.LVL62:
  81:Drivers/lvgl/src/draw/sw/blend/lv_draw_sw_blend.c **** 
 390              		.loc 1 81 5 is_stmt 1 view .LVU84
  81:Drivers/lvgl/src/draw/sw/blend/lv_draw_sw_blend.c **** 
 391              		.loc 1 81 39 is_stmt 0 view .LVU85
 392 002c 3368     		ldr	r3, [r6]
  81:Drivers/lvgl/src/draw/sw/blend/lv_draw_sw_blend.c **** 
 393              		.loc 1 81 57 view .LVU86
 394 002e 1F89     		ldrh	r7, [r3, #8]
ARM GAS  /var/folders/qx/2_175_4n2s19vhvtspjhb3qh0000gn/T//ccp3poHl.s 			page 14


 395              	.LVL63:
  83:Drivers/lvgl/src/draw/sw/blend/lv_draw_sw_blend.c ****     if(handler) {
 396              		.loc 1 83 5 is_stmt 1 view .LVU87
  83:Drivers/lvgl/src/draw/sw/blend/lv_draw_sw_blend.c ****     if(handler) {
 397              		.loc 1 83 42 is_stmt 0 view .LVU88
 398 0030 96F84C00 		ldrb	r0, [r6, #76]	@ zero_extendqisi2
 399 0034 FFF7FEFF 		bl	lv_draw_sw_get_blend_handler
 400              	.LVL64:
  84:Drivers/lvgl/src/draw/sw/blend/lv_draw_sw_blend.c ****         handler(t, blend_dsc);
 401              		.loc 1 84 5 is_stmt 1 view .LVU89
  84:Drivers/lvgl/src/draw/sw/blend/lv_draw_sw_blend.c ****         handler(t, blend_dsc);
 402              		.loc 1 84 7 is_stmt 0 view .LVU90
 403 0038 0346     		mov	r3, r0
 404 003a 18B1     		cbz	r0, .L32
  85:Drivers/lvgl/src/draw/sw/blend/lv_draw_sw_blend.c ****         LV_PROFILER_DRAW_END;
 405              		.loc 1 85 9 is_stmt 1 view .LVU91
 406 003c 2146     		mov	r1, r4
 407 003e 2846     		mov	r0, r5
 408              	.LVL65:
  85:Drivers/lvgl/src/draw/sw/blend/lv_draw_sw_blend.c ****         LV_PROFILER_DRAW_END;
 409              		.loc 1 85 9 is_stmt 0 view .LVU92
 410 0040 9847     		blx	r3
 411              	.LVL66:
  86:Drivers/lvgl/src/draw/sw/blend/lv_draw_sw_blend.c ****         return;
 412              		.loc 1 86 29 is_stmt 1 view .LVU93
  87:Drivers/lvgl/src/draw/sw/blend/lv_draw_sw_blend.c ****     }
 413              		.loc 1 87 9 view .LVU94
 414 0042 F0E7     		b	.L29
 415              	.LVL67:
 416              	.L32:
  90:Drivers/lvgl/src/draw/sw/blend/lv_draw_sw_blend.c ****         lv_draw_sw_blend_fill_dsc_t fill_dsc;
 417              		.loc 1 90 5 view .LVU95
  90:Drivers/lvgl/src/draw/sw/blend/lv_draw_sw_blend.c ****         lv_draw_sw_blend_fill_dsc_t fill_dsc;
 418              		.loc 1 90 17 is_stmt 0 view .LVU96
 419 0044 6368     		ldr	r3, [r4, #4]
  90:Drivers/lvgl/src/draw/sw/blend/lv_draw_sw_blend.c ****         lv_draw_sw_blend_fill_dsc_t fill_dsc;
 420              		.loc 1 90 7 view .LVU97
 421 0046 002B     		cmp	r3, #0
 422 0048 00F08380 		beq	.L55
 423              	.LBB2:
 117:Drivers/lvgl/src/draw/sw/blend/lv_draw_sw_blend.c ****             LV_PROFILER_DRAW_END;
 424              		.loc 1 117 9 is_stmt 1 view .LVU98
 117:Drivers/lvgl/src/draw/sw/blend/lv_draw_sw_blend.c ****             LV_PROFILER_DRAW_END;
 425              		.loc 1 117 13 is_stmt 0 view .LVU99
 426 004c 12A8     		add	r0, sp, #72
 427              	.LVL68:
 117:Drivers/lvgl/src/draw/sw/blend/lv_draw_sw_blend.c ****             LV_PROFILER_DRAW_END;
 428              		.loc 1 117 13 view .LVU100
 429 004e 2269     		ldr	r2, [r4, #16]
 430 0050 0146     		mov	r1, r0
 431 0052 FFF7FEFF 		bl	lv_area_intersect
 432              	.LVL69:
 117:Drivers/lvgl/src/draw/sw/blend/lv_draw_sw_blend.c ****             LV_PROFILER_DRAW_END;
 433              		.loc 1 117 11 discriminator 1 view .LVU101
 434 0056 0028     		cmp	r0, #0
 435 0058 E5D0     		beq	.L29
 122:Drivers/lvgl/src/draw/sw/blend/lv_draw_sw_blend.c ****             LV_PROFILER_DRAW_END;
ARM GAS  /var/folders/qx/2_175_4n2s19vhvtspjhb3qh0000gn/T//ccp3poHl.s 			page 15


 436              		.loc 1 122 9 is_stmt 1 view .LVU102
 122:Drivers/lvgl/src/draw/sw/blend/lv_draw_sw_blend.c ****             LV_PROFILER_DRAW_END;
 437              		.loc 1 122 21 is_stmt 0 view .LVU103
 438 005a 226A     		ldr	r2, [r4, #32]
 122:Drivers/lvgl/src/draw/sw/blend/lv_draw_sw_blend.c ****             LV_PROFILER_DRAW_END;
 439              		.loc 1 122 11 view .LVU104
 440 005c 2AB1     		cbz	r2, .L41
 122:Drivers/lvgl/src/draw/sw/blend/lv_draw_sw_blend.c ****             LV_PROFILER_DRAW_END;
 441              		.loc 1 122 37 discriminator 1 view .LVU105
 442 005e 12A8     		add	r0, sp, #72
 443 0060 0146     		mov	r1, r0
 444 0062 FFF7FEFF 		bl	lv_area_intersect
 445              	.LVL70:
 122:Drivers/lvgl/src/draw/sw/blend/lv_draw_sw_blend.c ****             LV_PROFILER_DRAW_END;
 446              		.loc 1 122 33 discriminator 1 view .LVU106
 447 0066 0028     		cmp	r0, #0
 448 0068 DDD0     		beq	.L29
 449              	.L41:
 127:Drivers/lvgl/src/draw/sw/blend/lv_draw_sw_blend.c ****         image_dsc.dest_w = lv_area_get_width(&blend_area);
 450              		.loc 1 127 9 is_stmt 1 view .LVU107
 128:Drivers/lvgl/src/draw/sw/blend/lv_draw_sw_blend.c ****         image_dsc.dest_h = lv_area_get_height(&blend_area);
 451              		.loc 1 128 9 view .LVU108
 128:Drivers/lvgl/src/draw/sw/blend/lv_draw_sw_blend.c ****         image_dsc.dest_h = lv_area_get_height(&blend_area);
 452              		.loc 1 128 28 is_stmt 0 view .LVU109
 453 006a 12AD     		add	r5, sp, #72
 454              	.LVL71:
 128:Drivers/lvgl/src/draw/sw/blend/lv_draw_sw_blend.c ****         image_dsc.dest_h = lv_area_get_height(&blend_area);
 455              		.loc 1 128 28 view .LVU110
 456 006c 2846     		mov	r0, r5
 457 006e FFF7FEFF 		bl	lv_area_get_width
 458              	.LVL72:
 128:Drivers/lvgl/src/draw/sw/blend/lv_draw_sw_blend.c ****         image_dsc.dest_h = lv_area_get_height(&blend_area);
 459              		.loc 1 128 26 discriminator 1 view .LVU111
 460 0072 0290     		str	r0, [sp, #8]
 129:Drivers/lvgl/src/draw/sw/blend/lv_draw_sw_blend.c ****         image_dsc.dest_stride = layer_stride_byte;
 461              		.loc 1 129 9 is_stmt 1 view .LVU112
 129:Drivers/lvgl/src/draw/sw/blend/lv_draw_sw_blend.c ****         image_dsc.dest_stride = layer_stride_byte;
 462              		.loc 1 129 28 is_stmt 0 view .LVU113
 463 0074 2846     		mov	r0, r5
 464 0076 FFF7FEFF 		bl	lv_area_get_height
 465              	.LVL73:
 129:Drivers/lvgl/src/draw/sw/blend/lv_draw_sw_blend.c ****         image_dsc.dest_stride = layer_stride_byte;
 466              		.loc 1 129 26 discriminator 1 view .LVU114
 467 007a 0390     		str	r0, [sp, #12]
 130:Drivers/lvgl/src/draw/sw/blend/lv_draw_sw_blend.c **** 
 468              		.loc 1 130 9 is_stmt 1 view .LVU115
 130:Drivers/lvgl/src/draw/sw/blend/lv_draw_sw_blend.c **** 
 469              		.loc 1 130 31 is_stmt 0 view .LVU116
 470 007c 0497     		str	r7, [sp, #16]
 132:Drivers/lvgl/src/draw/sw/blend/lv_draw_sw_blend.c ****         image_dsc.blend_mode = blend_dsc->blend_mode;
 471              		.loc 1 132 9 is_stmt 1 view .LVU117
 132:Drivers/lvgl/src/draw/sw/blend/lv_draw_sw_blend.c ****         image_dsc.blend_mode = blend_dsc->blend_mode;
 472              		.loc 1 132 34 is_stmt 0 view .LVU118
 473 007e 237D     		ldrb	r3, [r4, #20]	@ zero_extendqisi2
 132:Drivers/lvgl/src/draw/sw/blend/lv_draw_sw_blend.c ****         image_dsc.blend_mode = blend_dsc->blend_mode;
 474              		.loc 1 132 23 view .LVU119
 475 0080 8DF82530 		strb	r3, [sp, #37]
ARM GAS  /var/folders/qx/2_175_4n2s19vhvtspjhb3qh0000gn/T//ccp3poHl.s 			page 16


 133:Drivers/lvgl/src/draw/sw/blend/lv_draw_sw_blend.c ****         image_dsc.src_stride = blend_dsc->src_stride;
 476              		.loc 1 133 9 is_stmt 1 view .LVU120
 133:Drivers/lvgl/src/draw/sw/blend/lv_draw_sw_blend.c ****         image_dsc.src_stride = blend_dsc->src_stride;
 477              		.loc 1 133 41 is_stmt 0 view .LVU121
 478 0084 94F82830 		ldrb	r3, [r4, #40]	@ zero_extendqisi2
 133:Drivers/lvgl/src/draw/sw/blend/lv_draw_sw_blend.c ****         image_dsc.src_stride = blend_dsc->src_stride;
 479              		.loc 1 133 30 view .LVU122
 480 0088 8DF82630 		strb	r3, [sp, #38]
 134:Drivers/lvgl/src/draw/sw/blend/lv_draw_sw_blend.c ****         image_dsc.src_color_format = blend_dsc->src_color_format;
 481              		.loc 1 134 9 is_stmt 1 view .LVU123
 134:Drivers/lvgl/src/draw/sw/blend/lv_draw_sw_blend.c ****         image_dsc.src_color_format = blend_dsc->src_color_format;
 482              		.loc 1 134 41 is_stmt 0 view .LVU124
 483 008c A368     		ldr	r3, [r4, #8]
 134:Drivers/lvgl/src/draw/sw/blend/lv_draw_sw_blend.c ****         image_dsc.src_color_format = blend_dsc->src_color_format;
 484              		.loc 1 134 30 view .LVU125
 485 008e 0893     		str	r3, [sp, #32]
 135:Drivers/lvgl/src/draw/sw/blend/lv_draw_sw_blend.c **** 
 486              		.loc 1 135 9 is_stmt 1 view .LVU126
 135:Drivers/lvgl/src/draw/sw/blend/lv_draw_sw_blend.c **** 
 487              		.loc 1 135 47 is_stmt 0 view .LVU127
 488 0090 207B     		ldrb	r0, [r4, #12]	@ zero_extendqisi2
 135:Drivers/lvgl/src/draw/sw/blend/lv_draw_sw_blend.c **** 
 489              		.loc 1 135 36 view .LVU128
 490 0092 8DF82400 		strb	r0, [sp, #36]
 137:Drivers/lvgl/src/draw/sw/blend/lv_draw_sw_blend.c ****         uint32_t src_px_size = lv_color_format_get_bpp(blend_dsc->src_color_format);
 491              		.loc 1 137 9 is_stmt 1 view .LVU129
 137:Drivers/lvgl/src/draw/sw/blend/lv_draw_sw_blend.c ****         uint32_t src_px_size = lv_color_format_get_bpp(blend_dsc->src_color_format);
 492              		.loc 1 137 25 is_stmt 0 view .LVU130
 493 0096 6568     		ldr	r5, [r4, #4]
 494              	.LVL74:
 138:Drivers/lvgl/src/draw/sw/blend/lv_draw_sw_blend.c ****         src_buf += image_dsc.src_stride * (blend_area.y1 - blend_dsc->src_area->y1);
 495              		.loc 1 138 9 is_stmt 1 view .LVU131
 138:Drivers/lvgl/src/draw/sw/blend/lv_draw_sw_blend.c ****         src_buf += image_dsc.src_stride * (blend_area.y1 - blend_dsc->src_area->y1);
 496              		.loc 1 138 32 is_stmt 0 view .LVU132
 497 0098 FFF7FEFF 		bl	lv_color_format_get_bpp
 498              	.LVL75:
 139:Drivers/lvgl/src/draw/sw/blend/lv_draw_sw_blend.c ****         src_buf += ((blend_area.x1 - blend_dsc->src_area->x1) * src_px_size) >> 3;
 499              		.loc 1 139 9 is_stmt 1 view .LVU133
 139:Drivers/lvgl/src/draw/sw/blend/lv_draw_sw_blend.c ****         src_buf += ((blend_area.x1 - blend_dsc->src_area->x1) * src_px_size) >> 3;
 500              		.loc 1 139 69 is_stmt 0 view .LVU134
 501 009c 2169     		ldr	r1, [r4, #16]
 139:Drivers/lvgl/src/draw/sw/blend/lv_draw_sw_blend.c ****         src_buf += ((blend_area.x1 - blend_dsc->src_area->x1) * src_px_size) >> 3;
 502              		.loc 1 139 79 view .LVU135
 503 009e 4A68     		ldr	r2, [r1, #4]
 139:Drivers/lvgl/src/draw/sw/blend/lv_draw_sw_blend.c ****         src_buf += ((blend_area.x1 - blend_dsc->src_area->x1) * src_px_size) >> 3;
 504              		.loc 1 139 58 view .LVU136
 505 00a0 139B     		ldr	r3, [sp, #76]
 506 00a2 9A1A     		subs	r2, r3, r2
 507              	.LVL76:
 140:Drivers/lvgl/src/draw/sw/blend/lv_draw_sw_blend.c ****         image_dsc.src_buf = src_buf;
 508              		.loc 1 140 9 is_stmt 1 view .LVU137
 140:Drivers/lvgl/src/draw/sw/blend/lv_draw_sw_blend.c ****         image_dsc.src_buf = src_buf;
 509              		.loc 1 140 57 is_stmt 0 view .LVU138
 510 00a4 0968     		ldr	r1, [r1]
 140:Drivers/lvgl/src/draw/sw/blend/lv_draw_sw_blend.c ****         image_dsc.src_buf = src_buf;
 511              		.loc 1 140 36 view .LVU139
 512 00a6 129B     		ldr	r3, [sp, #72]
ARM GAS  /var/folders/qx/2_175_4n2s19vhvtspjhb3qh0000gn/T//ccp3poHl.s 			page 17


 513 00a8 5B1A     		subs	r3, r3, r1
 140:Drivers/lvgl/src/draw/sw/blend/lv_draw_sw_blend.c ****         image_dsc.src_buf = src_buf;
 514              		.loc 1 140 63 view .LVU140
 515 00aa 00FB03F3 		mul	r3, r0, r3
 140:Drivers/lvgl/src/draw/sw/blend/lv_draw_sw_blend.c ****         image_dsc.src_buf = src_buf;
 516              		.loc 1 140 78 view .LVU141
 517 00ae DB08     		lsrs	r3, r3, #3
 140:Drivers/lvgl/src/draw/sw/blend/lv_draw_sw_blend.c ****         image_dsc.src_buf = src_buf;
 518              		.loc 1 140 17 view .LVU142
 519 00b0 0899     		ldr	r1, [sp, #32]
 520 00b2 02FB0133 		mla	r3, r2, r1, r3
 521 00b6 1D44     		add	r5, r5, r3
 522              	.LVL77:
 141:Drivers/lvgl/src/draw/sw/blend/lv_draw_sw_blend.c ****         image_dsc.mask_stride = 0;
 523              		.loc 1 141 9 is_stmt 1 view .LVU143
 141:Drivers/lvgl/src/draw/sw/blend/lv_draw_sw_blend.c ****         image_dsc.mask_stride = 0;
 524              		.loc 1 141 27 is_stmt 0 view .LVU144
 525 00b8 0795     		str	r5, [sp, #28]
 142:Drivers/lvgl/src/draw/sw/blend/lv_draw_sw_blend.c **** 
 526              		.loc 1 142 9 is_stmt 1 view .LVU145
 142:Drivers/lvgl/src/draw/sw/blend/lv_draw_sw_blend.c **** 
 527              		.loc 1 142 31 is_stmt 0 view .LVU146
 528 00ba 0023     		movs	r3, #0
 529 00bc 0693     		str	r3, [sp, #24]
 144:Drivers/lvgl/src/draw/sw/blend/lv_draw_sw_blend.c ****         else if(blend_dsc->mask_res == LV_DRAW_SW_MASK_RES_FULL_COVER) image_dsc.mask_buf = NULL;
 530              		.loc 1 144 9 is_stmt 1 view .LVU147
 144:Drivers/lvgl/src/draw/sw/blend/lv_draw_sw_blend.c ****         else if(blend_dsc->mask_res == LV_DRAW_SW_MASK_RES_FULL_COVER) image_dsc.mask_buf = NULL;
 531              		.loc 1 144 21 is_stmt 0 view .LVU148
 532 00be A369     		ldr	r3, [r4, #24]
 144:Drivers/lvgl/src/draw/sw/blend/lv_draw_sw_blend.c ****         else if(blend_dsc->mask_res == LV_DRAW_SW_MASK_RES_FULL_COVER) image_dsc.mask_buf = NULL;
 533              		.loc 1 144 11 view .LVU149
 534 00c0 002B     		cmp	r3, #0
 535 00c2 00F09A80 		beq	.L56
 145:Drivers/lvgl/src/draw/sw/blend/lv_draw_sw_blend.c ****         else image_dsc.mask_buf = blend_dsc->mask_buf;
 536              		.loc 1 145 14 is_stmt 1 view .LVU150
 145:Drivers/lvgl/src/draw/sw/blend/lv_draw_sw_blend.c ****         else image_dsc.mask_buf = blend_dsc->mask_buf;
 537              		.loc 1 145 26 is_stmt 0 view .LVU151
 538 00c6 227F     		ldrb	r2, [r4, #28]	@ zero_extendqisi2
 145:Drivers/lvgl/src/draw/sw/blend/lv_draw_sw_blend.c ****         else image_dsc.mask_buf = blend_dsc->mask_buf;
 539              		.loc 1 145 16 view .LVU152
 540 00c8 012A     		cmp	r2, #1
 541 00ca 00F09980 		beq	.L57
 146:Drivers/lvgl/src/draw/sw/blend/lv_draw_sw_blend.c **** 
 542              		.loc 1 146 14 is_stmt 1 view .LVU153
 146:Drivers/lvgl/src/draw/sw/blend/lv_draw_sw_blend.c **** 
 543              		.loc 1 146 33 is_stmt 0 view .LVU154
 544 00ce 0593     		str	r3, [sp, #20]
 545              	.L43:
 148:Drivers/lvgl/src/draw/sw/blend/lv_draw_sw_blend.c ****             LV_ASSERT_NULL(blend_dsc->mask_area);
 546              		.loc 1 148 9 is_stmt 1 view .LVU155
 148:Drivers/lvgl/src/draw/sw/blend/lv_draw_sw_blend.c ****             LV_ASSERT_NULL(blend_dsc->mask_area);
 547              		.loc 1 148 21 is_stmt 0 view .LVU156
 548 00d0 059A     		ldr	r2, [sp, #20]
 148:Drivers/lvgl/src/draw/sw/blend/lv_draw_sw_blend.c ****             LV_ASSERT_NULL(blend_dsc->mask_area);
 549              		.loc 1 148 11 view .LVU157
 550 00d2 AAB1     		cbz	r2, .L45
 149:Drivers/lvgl/src/draw/sw/blend/lv_draw_sw_blend.c ****             image_dsc.mask_buf = blend_dsc->mask_buf;
ARM GAS  /var/folders/qx/2_175_4n2s19vhvtspjhb3qh0000gn/T//ccp3poHl.s 			page 18


 551              		.loc 1 149 13 is_stmt 1 view .LVU158
 149:Drivers/lvgl/src/draw/sw/blend/lv_draw_sw_blend.c ****             image_dsc.mask_buf = blend_dsc->mask_buf;
 552              		.loc 1 149 13 view .LVU159
 553 00d4 206A     		ldr	r0, [r4, #32]
 554              	.LVL78:
 149:Drivers/lvgl/src/draw/sw/blend/lv_draw_sw_blend.c ****             image_dsc.mask_buf = blend_dsc->mask_buf;
 555              		.loc 1 149 13 is_stmt 0 view .LVU160
 556 00d6 0028     		cmp	r0, #0
 557 00d8 00F09580 		beq	.L47
 149:Drivers/lvgl/src/draw/sw/blend/lv_draw_sw_blend.c ****             image_dsc.mask_buf = blend_dsc->mask_buf;
 558              		.loc 1 149 13 is_stmt 1 view .LVU161
 149:Drivers/lvgl/src/draw/sw/blend/lv_draw_sw_blend.c ****             image_dsc.mask_buf = blend_dsc->mask_buf;
 559              		.loc 1 149 49 view .LVU162
 150:Drivers/lvgl/src/draw/sw/blend/lv_draw_sw_blend.c ****             image_dsc.mask_stride = blend_dsc->mask_stride ? blend_dsc->mask_stride : lv_area_get_w
 560              		.loc 1 150 13 view .LVU163
 150:Drivers/lvgl/src/draw/sw/blend/lv_draw_sw_blend.c ****             image_dsc.mask_stride = blend_dsc->mask_stride ? blend_dsc->mask_stride : lv_area_get_w
 561              		.loc 1 150 32 is_stmt 0 view .LVU164
 562 00dc 0593     		str	r3, [sp, #20]
 151:Drivers/lvgl/src/draw/sw/blend/lv_draw_sw_blend.c ****             image_dsc.mask_buf += image_dsc.mask_stride * (blend_area.y1 - blend_dsc->mask_area->y1
 563              		.loc 1 151 13 is_stmt 1 view .LVU165
 151:Drivers/lvgl/src/draw/sw/blend/lv_draw_sw_blend.c ****             image_dsc.mask_buf += image_dsc.mask_stride * (blend_area.y1 - blend_dsc->mask_area->y1
 564              		.loc 1 151 46 is_stmt 0 view .LVU166
 565 00de 626A     		ldr	r2, [r4, #36]
 151:Drivers/lvgl/src/draw/sw/blend/lv_draw_sw_blend.c ****             image_dsc.mask_buf += image_dsc.mask_stride * (blend_area.y1 - blend_dsc->mask_area->y1
 566              		.loc 1 151 85 view .LVU167
 567 00e0 002A     		cmp	r2, #0
 568 00e2 00F09180 		beq	.L58
 569              	.L48:
 151:Drivers/lvgl/src/draw/sw/blend/lv_draw_sw_blend.c ****             image_dsc.mask_buf += image_dsc.mask_stride * (blend_area.y1 - blend_dsc->mask_area->y1
 570              		.loc 1 151 35 discriminator 4 view .LVU168
 571 00e6 0692     		str	r2, [sp, #24]
 152:Drivers/lvgl/src/draw/sw/blend/lv_draw_sw_blend.c ****                                   (blend_area.x1 - blend_dsc->mask_area->x1);
 572              		.loc 1 152 13 is_stmt 1 view .LVU169
 152:Drivers/lvgl/src/draw/sw/blend/lv_draw_sw_blend.c ****                                   (blend_area.x1 - blend_dsc->mask_area->x1);
 573              		.loc 1 152 85 is_stmt 0 view .LVU170
 574 00e8 206A     		ldr	r0, [r4, #32]
 152:Drivers/lvgl/src/draw/sw/blend/lv_draw_sw_blend.c ****                                   (blend_area.x1 - blend_dsc->mask_area->x1);
 575              		.loc 1 152 96 view .LVU171
 576 00ea 4168     		ldr	r1, [r0, #4]
 152:Drivers/lvgl/src/draw/sw/blend/lv_draw_sw_blend.c ****                                   (blend_area.x1 - blend_dsc->mask_area->x1);
 577              		.loc 1 152 74 view .LVU172
 578 00ec 139B     		ldr	r3, [sp, #76]
 579 00ee 591A     		subs	r1, r3, r1
 153:Drivers/lvgl/src/draw/sw/blend/lv_draw_sw_blend.c ****         }
 580              		.loc 1 153 72 view .LVU173
 581 00f0 0068     		ldr	r0, [r0]
 153:Drivers/lvgl/src/draw/sw/blend/lv_draw_sw_blend.c ****         }
 582              		.loc 1 153 50 view .LVU174
 583 00f2 129B     		ldr	r3, [sp, #72]
 584 00f4 1B1A     		subs	r3, r3, r0
 152:Drivers/lvgl/src/draw/sw/blend/lv_draw_sw_blend.c ****                                   (blend_area.x1 - blend_dsc->mask_area->x1);
 585              		.loc 1 152 102 view .LVU175
 586 00f6 02FB0133 		mla	r3, r2, r1, r3
 152:Drivers/lvgl/src/draw/sw/blend/lv_draw_sw_blend.c ****                                   (blend_area.x1 - blend_dsc->mask_area->x1);
 587              		.loc 1 152 32 view .LVU176
 588 00fa 059A     		ldr	r2, [sp, #20]
 589 00fc 1A44     		add	r2, r2, r3
ARM GAS  /var/folders/qx/2_175_4n2s19vhvtspjhb3qh0000gn/T//ccp3poHl.s 			page 19


 590 00fe 0592     		str	r2, [sp, #20]
 591              	.L45:
 156:Drivers/lvgl/src/draw/sw/blend/lv_draw_sw_blend.c ****         lv_area_move(&image_dsc.relative_area, -layer->buf_area.x1, -layer->buf_area.y1);
 592              		.loc 1 156 9 is_stmt 1 view .LVU177
 156:Drivers/lvgl/src/draw/sw/blend/lv_draw_sw_blend.c ****         lv_area_move(&image_dsc.relative_area, -layer->buf_area.x1, -layer->buf_area.y1);
 593              		.loc 1 156 34 is_stmt 0 view .LVU178
 594 0100 0AAD     		add	r5, sp, #40
 595              	.LVL79:
 156:Drivers/lvgl/src/draw/sw/blend/lv_draw_sw_blend.c ****         lv_area_move(&image_dsc.relative_area, -layer->buf_area.x1, -layer->buf_area.y1);
 596              		.loc 1 156 34 view .LVU179
 597 0102 16AB     		add	r3, sp, #88
 598 0104 13E90F00 		ldmdb	r3, {r0, r1, r2, r3}
 599 0108 85E80F00 		stm	r5, {r0, r1, r2, r3}
 157:Drivers/lvgl/src/draw/sw/blend/lv_draw_sw_blend.c **** 
 600              		.loc 1 157 9 is_stmt 1 view .LVU180
 157:Drivers/lvgl/src/draw/sw/blend/lv_draw_sw_blend.c **** 
 601              		.loc 1 157 64 is_stmt 0 view .LVU181
 602 010c 7169     		ldr	r1, [r6, #20]
 157:Drivers/lvgl/src/draw/sw/blend/lv_draw_sw_blend.c **** 
 603              		.loc 1 157 85 view .LVU182
 604 010e B269     		ldr	r2, [r6, #24]
 157:Drivers/lvgl/src/draw/sw/blend/lv_draw_sw_blend.c **** 
 605              		.loc 1 157 9 view .LVU183
 606 0110 5242     		rsbs	r2, r2, #0
 607 0112 4942     		rsbs	r1, r1, #0
 608 0114 2846     		mov	r0, r5
 609 0116 FFF7FEFF 		bl	lv_area_move
 610              	.LVL80:
 159:Drivers/lvgl/src/draw/sw/blend/lv_draw_sw_blend.c ****         lv_area_move(&image_dsc.src_area, -layer->buf_area.x1, -layer->buf_area.y1);
 611              		.loc 1 159 9 is_stmt 1 view .LVU184
 159:Drivers/lvgl/src/draw/sw/blend/lv_draw_sw_blend.c ****         lv_area_move(&image_dsc.src_area, -layer->buf_area.x1, -layer->buf_area.y1);
 612              		.loc 1 159 41 is_stmt 0 view .LVU185
 613 011a 2369     		ldr	r3, [r4, #16]
 159:Drivers/lvgl/src/draw/sw/blend/lv_draw_sw_blend.c ****         lv_area_move(&image_dsc.src_area, -layer->buf_area.x1, -layer->buf_area.y1);
 614              		.loc 1 159 29 view .LVU186
 615 011c 0EAC     		add	r4, sp, #56
 616              	.LVL81:
 159:Drivers/lvgl/src/draw/sw/blend/lv_draw_sw_blend.c ****         lv_area_move(&image_dsc.src_area, -layer->buf_area.x1, -layer->buf_area.y1);
 617              		.loc 1 159 29 view .LVU187
 618 011e 0FCB     		ldm	r3, {r0, r1, r2, r3}
 619 0120 84E80F00 		stm	r4, {r0, r1, r2, r3}
 160:Drivers/lvgl/src/draw/sw/blend/lv_draw_sw_blend.c **** 
 620              		.loc 1 160 9 is_stmt 1 view .LVU188
 160:Drivers/lvgl/src/draw/sw/blend/lv_draw_sw_blend.c **** 
 621              		.loc 1 160 59 is_stmt 0 view .LVU189
 622 0124 7169     		ldr	r1, [r6, #20]
 160:Drivers/lvgl/src/draw/sw/blend/lv_draw_sw_blend.c **** 
 623              		.loc 1 160 80 view .LVU190
 624 0126 B269     		ldr	r2, [r6, #24]
 160:Drivers/lvgl/src/draw/sw/blend/lv_draw_sw_blend.c **** 
 625              		.loc 1 160 9 view .LVU191
 626 0128 5242     		rsbs	r2, r2, #0
 627 012a 4942     		rsbs	r1, r1, #0
 628 012c 2046     		mov	r0, r4
 629 012e FFF7FEFF 		bl	lv_area_move
 630              	.LVL82:
 162:Drivers/lvgl/src/draw/sw/blend/lv_draw_sw_blend.c ****                                                     blend_area.y1 - layer->buf_area.y1);
ARM GAS  /var/folders/qx/2_175_4n2s19vhvtspjhb3qh0000gn/T//ccp3poHl.s 			page 20


 631              		.loc 1 162 9 is_stmt 1 view .LVU192
 162:Drivers/lvgl/src/draw/sw/blend/lv_draw_sw_blend.c ****                                                     blend_area.y1 - layer->buf_area.y1);
 632              		.loc 1 162 91 is_stmt 0 view .LVU193
 633 0132 7369     		ldr	r3, [r6, #20]
 163:Drivers/lvgl/src/draw/sw/blend/lv_draw_sw_blend.c **** 
 634              		.loc 1 163 84 view .LVU194
 635 0134 B269     		ldr	r2, [r6, #24]
 162:Drivers/lvgl/src/draw/sw/blend/lv_draw_sw_blend.c ****                                                     blend_area.y1 - layer->buf_area.y1);
 636              		.loc 1 162 30 view .LVU195
 637 0136 1399     		ldr	r1, [sp, #76]
 638 0138 8A1A     		subs	r2, r1, r2
 639 013a 1299     		ldr	r1, [sp, #72]
 640 013c C91A     		subs	r1, r1, r3
 641 013e 3046     		mov	r0, r6
 642 0140 FFF7FEFF 		bl	lv_draw_layer_go_to_xy
 643              	.LVL83:
 162:Drivers/lvgl/src/draw/sw/blend/lv_draw_sw_blend.c ****                                                     blend_area.y1 - layer->buf_area.y1);
 644              		.loc 1 162 28 discriminator 1 view .LVU196
 645 0144 0190     		str	r0, [sp, #4]
 165:Drivers/lvgl/src/draw/sw/blend/lv_draw_sw_blend.c ****     }
 646              		.loc 1 165 9 is_stmt 1 view .LVU197
 647 0146 01A9     		add	r1, sp, #4
 648 0148 96F84C00 		ldrb	r0, [r6, #76]	@ zero_extendqisi2
 649 014c FFF7FEFF 		bl	lv_draw_sw_blend_image
 650              	.LVL84:
 651 0150 69E7     		b	.L29
 652              	.LVL85:
 653              	.L55:
 165:Drivers/lvgl/src/draw/sw/blend/lv_draw_sw_blend.c ****     }
 654              		.loc 1 165 9 is_stmt 0 view .LVU198
 655              	.LBE2:
 656              	.LBB3:
  91:Drivers/lvgl/src/draw/sw/blend/lv_draw_sw_blend.c ****         fill_dsc.dest_w = lv_area_get_width(&blend_area);
 657              		.loc 1 91 9 is_stmt 1 view .LVU199
  92:Drivers/lvgl/src/draw/sw/blend/lv_draw_sw_blend.c ****         fill_dsc.dest_h = lv_area_get_height(&blend_area);
 658              		.loc 1 92 9 view .LVU200
  92:Drivers/lvgl/src/draw/sw/blend/lv_draw_sw_blend.c ****         fill_dsc.dest_h = lv_area_get_height(&blend_area);
 659              		.loc 1 92 27 is_stmt 0 view .LVU201
 660 0152 12AD     		add	r5, sp, #72
 661              	.LVL86:
  92:Drivers/lvgl/src/draw/sw/blend/lv_draw_sw_blend.c ****         fill_dsc.dest_h = lv_area_get_height(&blend_area);
 662              		.loc 1 92 27 view .LVU202
 663 0154 2846     		mov	r0, r5
 664              	.LVL87:
  92:Drivers/lvgl/src/draw/sw/blend/lv_draw_sw_blend.c ****         fill_dsc.dest_h = lv_area_get_height(&blend_area);
 665              		.loc 1 92 27 view .LVU203
 666 0156 FFF7FEFF 		bl	lv_area_get_width
 667              	.LVL88:
  92:Drivers/lvgl/src/draw/sw/blend/lv_draw_sw_blend.c ****         fill_dsc.dest_h = lv_area_get_height(&blend_area);
 668              		.loc 1 92 25 discriminator 1 view .LVU204
 669 015a 0290     		str	r0, [sp, #8]
  93:Drivers/lvgl/src/draw/sw/blend/lv_draw_sw_blend.c ****         fill_dsc.dest_stride = layer_stride_byte;
 670              		.loc 1 93 9 is_stmt 1 view .LVU205
  93:Drivers/lvgl/src/draw/sw/blend/lv_draw_sw_blend.c ****         fill_dsc.dest_stride = layer_stride_byte;
 671              		.loc 1 93 27 is_stmt 0 view .LVU206
 672 015c 2846     		mov	r0, r5
 673 015e FFF7FEFF 		bl	lv_area_get_height
ARM GAS  /var/folders/qx/2_175_4n2s19vhvtspjhb3qh0000gn/T//ccp3poHl.s 			page 21


 674              	.LVL89:
  93:Drivers/lvgl/src/draw/sw/blend/lv_draw_sw_blend.c ****         fill_dsc.dest_stride = layer_stride_byte;
 675              		.loc 1 93 25 discriminator 1 view .LVU207
 676 0162 0390     		str	r0, [sp, #12]
  94:Drivers/lvgl/src/draw/sw/blend/lv_draw_sw_blend.c ****         fill_dsc.opa = blend_dsc->opa;
 677              		.loc 1 94 9 is_stmt 1 view .LVU208
  94:Drivers/lvgl/src/draw/sw/blend/lv_draw_sw_blend.c ****         fill_dsc.opa = blend_dsc->opa;
 678              		.loc 1 94 30 is_stmt 0 view .LVU209
 679 0164 0497     		str	r7, [sp, #16]
  95:Drivers/lvgl/src/draw/sw/blend/lv_draw_sw_blend.c ****         fill_dsc.color = blend_dsc->color;
 680              		.loc 1 95 9 is_stmt 1 view .LVU210
  95:Drivers/lvgl/src/draw/sw/blend/lv_draw_sw_blend.c ****         fill_dsc.color = blend_dsc->color;
 681              		.loc 1 95 33 is_stmt 0 view .LVU211
 682 0166 237D     		ldrb	r3, [r4, #20]	@ zero_extendqisi2
  95:Drivers/lvgl/src/draw/sw/blend/lv_draw_sw_blend.c ****         fill_dsc.color = blend_dsc->color;
 683              		.loc 1 95 22 view .LVU212
 684 0168 8DF81F30 		strb	r3, [sp, #31]
  96:Drivers/lvgl/src/draw/sw/blend/lv_draw_sw_blend.c ****         fill_dsc.mask_stride = 0;
 685              		.loc 1 96 9 is_stmt 1 view .LVU213
  96:Drivers/lvgl/src/draw/sw/blend/lv_draw_sw_blend.c ****         fill_dsc.mask_stride = 0;
 686              		.loc 1 96 24 is_stmt 0 view .LVU214
 687 016c B4F81520 		ldrh	r2, [r4, #21]	@ unaligned
 688 0170 E37D     		ldrb	r3, [r4, #23]	@ zero_extendqisi2
 689 0172 ADF81C20 		strh	r2, [sp, #28]	@ unaligned
 690 0176 8DF81E30 		strb	r3, [sp, #30]
  97:Drivers/lvgl/src/draw/sw/blend/lv_draw_sw_blend.c **** 
 691              		.loc 1 97 9 is_stmt 1 view .LVU215
  97:Drivers/lvgl/src/draw/sw/blend/lv_draw_sw_blend.c **** 
 692              		.loc 1 97 30 is_stmt 0 view .LVU216
 693 017a 0023     		movs	r3, #0
 694 017c 0693     		str	r3, [sp, #24]
  99:Drivers/lvgl/src/draw/sw/blend/lv_draw_sw_blend.c ****         else if(blend_dsc->mask_res == LV_DRAW_SW_MASK_RES_FULL_COVER) fill_dsc.mask_buf = NULL;
 695              		.loc 1 99 9 is_stmt 1 view .LVU217
  99:Drivers/lvgl/src/draw/sw/blend/lv_draw_sw_blend.c ****         else if(blend_dsc->mask_res == LV_DRAW_SW_MASK_RES_FULL_COVER) fill_dsc.mask_buf = NULL;
 696              		.loc 1 99 21 is_stmt 0 view .LVU218
 697 017e A369     		ldr	r3, [r4, #24]
  99:Drivers/lvgl/src/draw/sw/blend/lv_draw_sw_blend.c ****         else if(blend_dsc->mask_res == LV_DRAW_SW_MASK_RES_FULL_COVER) fill_dsc.mask_buf = NULL;
 698              		.loc 1 99 11 view .LVU219
 699 0180 002B     		cmp	r3, #0
 700 0182 31D0     		beq	.L59
 100:Drivers/lvgl/src/draw/sw/blend/lv_draw_sw_blend.c ****         else fill_dsc.mask_buf = blend_dsc->mask_buf;
 701              		.loc 1 100 14 is_stmt 1 view .LVU220
 100:Drivers/lvgl/src/draw/sw/blend/lv_draw_sw_blend.c ****         else fill_dsc.mask_buf = blend_dsc->mask_buf;
 702              		.loc 1 100 26 is_stmt 0 view .LVU221
 703 0184 227F     		ldrb	r2, [r4, #28]	@ zero_extendqisi2
 100:Drivers/lvgl/src/draw/sw/blend/lv_draw_sw_blend.c ****         else fill_dsc.mask_buf = blend_dsc->mask_buf;
 704              		.loc 1 100 16 view .LVU222
 705 0186 012A     		cmp	r2, #1
 706 0188 30D0     		beq	.L60
 101:Drivers/lvgl/src/draw/sw/blend/lv_draw_sw_blend.c **** 
 707              		.loc 1 101 14 is_stmt 1 view .LVU223
 101:Drivers/lvgl/src/draw/sw/blend/lv_draw_sw_blend.c **** 
 708              		.loc 1 101 32 is_stmt 0 view .LVU224
 709 018a 0593     		str	r3, [sp, #20]
 710              	.L35:
 104:Drivers/lvgl/src/draw/sw/blend/lv_draw_sw_blend.c ****         lv_area_move(&fill_dsc.relative_area, -layer->buf_area.x1, -layer->buf_area.y1);
 711              		.loc 1 104 9 is_stmt 1 view .LVU225
ARM GAS  /var/folders/qx/2_175_4n2s19vhvtspjhb3qh0000gn/T//ccp3poHl.s 			page 22


 104:Drivers/lvgl/src/draw/sw/blend/lv_draw_sw_blend.c ****         lv_area_move(&fill_dsc.relative_area, -layer->buf_area.x1, -layer->buf_area.y1);
 712              		.loc 1 104 33 is_stmt 0 view .LVU226
 713 018c 08AD     		add	r5, sp, #32
 714 018e 16AB     		add	r3, sp, #88
 715 0190 13E90F00 		ldmdb	r3, {r0, r1, r2, r3}
 716 0194 85E80F00 		stm	r5, {r0, r1, r2, r3}
 105:Drivers/lvgl/src/draw/sw/blend/lv_draw_sw_blend.c ****         fill_dsc.dest_buf = lv_draw_layer_go_to_xy(layer, blend_area.x1 - layer->buf_area.x1,
 717              		.loc 1 105 9 is_stmt 1 view .LVU227
 105:Drivers/lvgl/src/draw/sw/blend/lv_draw_sw_blend.c ****         fill_dsc.dest_buf = lv_draw_layer_go_to_xy(layer, blend_area.x1 - layer->buf_area.x1,
 718              		.loc 1 105 63 is_stmt 0 view .LVU228
 719 0198 7169     		ldr	r1, [r6, #20]
 105:Drivers/lvgl/src/draw/sw/blend/lv_draw_sw_blend.c ****         fill_dsc.dest_buf = lv_draw_layer_go_to_xy(layer, blend_area.x1 - layer->buf_area.x1,
 720              		.loc 1 105 84 view .LVU229
 721 019a B269     		ldr	r2, [r6, #24]
 105:Drivers/lvgl/src/draw/sw/blend/lv_draw_sw_blend.c ****         fill_dsc.dest_buf = lv_draw_layer_go_to_xy(layer, blend_area.x1 - layer->buf_area.x1,
 722              		.loc 1 105 9 view .LVU230
 723 019c 5242     		rsbs	r2, r2, #0
 724 019e 4942     		rsbs	r1, r1, #0
 725 01a0 2846     		mov	r0, r5
 726 01a2 FFF7FEFF 		bl	lv_area_move
 727              	.LVL90:
 106:Drivers/lvgl/src/draw/sw/blend/lv_draw_sw_blend.c ****                                                    blend_area.y1 - layer->buf_area.y1);
 728              		.loc 1 106 9 is_stmt 1 view .LVU231
 106:Drivers/lvgl/src/draw/sw/blend/lv_draw_sw_blend.c ****                                                    blend_area.y1 - layer->buf_area.y1);
 729              		.loc 1 106 90 is_stmt 0 view .LVU232
 730 01a6 7369     		ldr	r3, [r6, #20]
 107:Drivers/lvgl/src/draw/sw/blend/lv_draw_sw_blend.c ****         if(fill_dsc.mask_buf) {
 731              		.loc 1 107 83 view .LVU233
 732 01a8 B269     		ldr	r2, [r6, #24]
 106:Drivers/lvgl/src/draw/sw/blend/lv_draw_sw_blend.c ****                                                    blend_area.y1 - layer->buf_area.y1);
 733              		.loc 1 106 29 view .LVU234
 734 01aa 1399     		ldr	r1, [sp, #76]
 735 01ac 8A1A     		subs	r2, r1, r2
 736 01ae 1299     		ldr	r1, [sp, #72]
 737 01b0 C91A     		subs	r1, r1, r3
 738 01b2 3046     		mov	r0, r6
 739 01b4 FFF7FEFF 		bl	lv_draw_layer_go_to_xy
 740              	.LVL91:
 106:Drivers/lvgl/src/draw/sw/blend/lv_draw_sw_blend.c ****                                                    blend_area.y1 - layer->buf_area.y1);
 741              		.loc 1 106 27 discriminator 1 view .LVU235
 742 01b8 0190     		str	r0, [sp, #4]
 108:Drivers/lvgl/src/draw/sw/blend/lv_draw_sw_blend.c ****             fill_dsc.mask_stride = blend_dsc->mask_stride == 0  ? lv_area_get_width(blend_dsc->mask
 743              		.loc 1 108 9 is_stmt 1 view .LVU236
 108:Drivers/lvgl/src/draw/sw/blend/lv_draw_sw_blend.c ****             fill_dsc.mask_stride = blend_dsc->mask_stride == 0  ? lv_area_get_width(blend_dsc->mask
 744              		.loc 1 108 20 is_stmt 0 view .LVU237
 745 01ba 059B     		ldr	r3, [sp, #20]
 108:Drivers/lvgl/src/draw/sw/blend/lv_draw_sw_blend.c ****             fill_dsc.mask_stride = blend_dsc->mask_stride == 0  ? lv_area_get_width(blend_dsc->mask
 746              		.loc 1 108 11 view .LVU238
 747 01bc 73B1     		cbz	r3, .L37
 109:Drivers/lvgl/src/draw/sw/blend/lv_draw_sw_blend.c ****             fill_dsc.mask_buf += fill_dsc.mask_stride * (blend_area.y1 - blend_dsc->mask_area->y1) 
 748              		.loc 1 109 13 is_stmt 1 view .LVU239
 109:Drivers/lvgl/src/draw/sw/blend/lv_draw_sw_blend.c ****             fill_dsc.mask_buf += fill_dsc.mask_stride * (blend_area.y1 - blend_dsc->mask_area->y1) 
 749              		.loc 1 109 45 is_stmt 0 view .LVU240
 750 01be 606A     		ldr	r0, [r4, #36]
 109:Drivers/lvgl/src/draw/sw/blend/lv_draw_sw_blend.c ****             fill_dsc.mask_buf += fill_dsc.mask_stride * (blend_area.y1 - blend_dsc->mask_area->y1) 
 751              		.loc 1 109 107 view .LVU241
 752 01c0 B8B1     		cbz	r0, .L61
ARM GAS  /var/folders/qx/2_175_4n2s19vhvtspjhb3qh0000gn/T//ccp3poHl.s 			page 23


 753              	.L38:
 109:Drivers/lvgl/src/draw/sw/blend/lv_draw_sw_blend.c ****             fill_dsc.mask_buf += fill_dsc.mask_stride * (blend_area.y1 - blend_dsc->mask_area->y1) 
 754              		.loc 1 109 34 discriminator 4 view .LVU242
 755 01c2 0690     		str	r0, [sp, #24]
 110:Drivers/lvgl/src/draw/sw/blend/lv_draw_sw_blend.c ****                                  (blend_area.x1 - blend_dsc->mask_area->x1);
 756              		.loc 1 110 13 is_stmt 1 view .LVU243
 110:Drivers/lvgl/src/draw/sw/blend/lv_draw_sw_blend.c ****                                  (blend_area.x1 - blend_dsc->mask_area->x1);
 757              		.loc 1 110 83 is_stmt 0 view .LVU244
 758 01c4 216A     		ldr	r1, [r4, #32]
 110:Drivers/lvgl/src/draw/sw/blend/lv_draw_sw_blend.c ****                                  (blend_area.x1 - blend_dsc->mask_area->x1);
 759              		.loc 1 110 94 view .LVU245
 760 01c6 4A68     		ldr	r2, [r1, #4]
 110:Drivers/lvgl/src/draw/sw/blend/lv_draw_sw_blend.c ****                                  (blend_area.x1 - blend_dsc->mask_area->x1);
 761              		.loc 1 110 72 view .LVU246
 762 01c8 139B     		ldr	r3, [sp, #76]
 763 01ca 9A1A     		subs	r2, r3, r2
 111:Drivers/lvgl/src/draw/sw/blend/lv_draw_sw_blend.c ****         }
 764              		.loc 1 111 71 view .LVU247
 765 01cc 0968     		ldr	r1, [r1]
 111:Drivers/lvgl/src/draw/sw/blend/lv_draw_sw_blend.c ****         }
 766              		.loc 1 111 49 view .LVU248
 767 01ce 129B     		ldr	r3, [sp, #72]
 768 01d0 5B1A     		subs	r3, r3, r1
 110:Drivers/lvgl/src/draw/sw/blend/lv_draw_sw_blend.c ****                                  (blend_area.x1 - blend_dsc->mask_area->x1);
 769              		.loc 1 110 100 view .LVU249
 770 01d2 00FB0233 		mla	r3, r0, r2, r3
 110:Drivers/lvgl/src/draw/sw/blend/lv_draw_sw_blend.c ****                                  (blend_area.x1 - blend_dsc->mask_area->x1);
 771              		.loc 1 110 31 view .LVU250
 772 01d6 059A     		ldr	r2, [sp, #20]
 773 01d8 1A44     		add	r2, r2, r3
 774 01da 0592     		str	r2, [sp, #20]
 775              	.L37:
 114:Drivers/lvgl/src/draw/sw/blend/lv_draw_sw_blend.c ****     }
 776              		.loc 1 114 9 is_stmt 1 view .LVU251
 777 01dc 01A9     		add	r1, sp, #4
 778 01de 96F84C00 		ldrb	r0, [r6, #76]	@ zero_extendqisi2
 779 01e2 FFF7FEFF 		bl	lv_draw_sw_blend_color
 780              	.LVL92:
 781              	.LBE3:
 782 01e6 1EE7     		b	.L29
 783              	.L59:
 784              	.LBB4:
  99:Drivers/lvgl/src/draw/sw/blend/lv_draw_sw_blend.c ****         else if(blend_dsc->mask_res == LV_DRAW_SW_MASK_RES_FULL_COVER) fill_dsc.mask_buf = NULL;
 785              		.loc 1 99 41 discriminator 1 view .LVU252
  99:Drivers/lvgl/src/draw/sw/blend/lv_draw_sw_blend.c ****         else if(blend_dsc->mask_res == LV_DRAW_SW_MASK_RES_FULL_COVER) fill_dsc.mask_buf = NULL;
 786              		.loc 1 99 59 is_stmt 0 discriminator 1 view .LVU253
 787 01e8 0593     		str	r3, [sp, #20]
 788 01ea CFE7     		b	.L35
 789              	.L60:
 100:Drivers/lvgl/src/draw/sw/blend/lv_draw_sw_blend.c ****         else fill_dsc.mask_buf = blend_dsc->mask_buf;
 790              		.loc 1 100 72 is_stmt 1 discriminator 1 view .LVU254
 100:Drivers/lvgl/src/draw/sw/blend/lv_draw_sw_blend.c ****         else fill_dsc.mask_buf = blend_dsc->mask_buf;
 791              		.loc 1 100 90 is_stmt 0 discriminator 1 view .LVU255
 792 01ec 0023     		movs	r3, #0
 793 01ee 0593     		str	r3, [sp, #20]
 794 01f0 CCE7     		b	.L35
 795              	.L61:
ARM GAS  /var/folders/qx/2_175_4n2s19vhvtspjhb3qh0000gn/T//ccp3poHl.s 			page 24


 109:Drivers/lvgl/src/draw/sw/blend/lv_draw_sw_blend.c ****             fill_dsc.mask_buf += fill_dsc.mask_stride * (blend_area.y1 - blend_dsc->mask_area->y1) 
 796              		.loc 1 109 67 discriminator 1 view .LVU256
 797 01f2 206A     		ldr	r0, [r4, #32]
 798 01f4 FFF7FEFF 		bl	lv_area_get_width
 799              	.LVL93:
 800 01f8 E3E7     		b	.L38
 801              	.LVL94:
 802              	.L56:
 109:Drivers/lvgl/src/draw/sw/blend/lv_draw_sw_blend.c ****             fill_dsc.mask_buf += fill_dsc.mask_stride * (blend_area.y1 - blend_dsc->mask_area->y1) 
 803              		.loc 1 109 67 discriminator 1 view .LVU257
 804              	.LBE4:
 805              	.LBB5:
 144:Drivers/lvgl/src/draw/sw/blend/lv_draw_sw_blend.c ****         else if(blend_dsc->mask_res == LV_DRAW_SW_MASK_RES_FULL_COVER) image_dsc.mask_buf = NULL;
 806              		.loc 1 144 41 is_stmt 1 discriminator 1 view .LVU258
 144:Drivers/lvgl/src/draw/sw/blend/lv_draw_sw_blend.c ****         else if(blend_dsc->mask_res == LV_DRAW_SW_MASK_RES_FULL_COVER) image_dsc.mask_buf = NULL;
 807              		.loc 1 144 60 is_stmt 0 discriminator 1 view .LVU259
 808 01fa 0022     		movs	r2, #0
 809 01fc 0592     		str	r2, [sp, #20]
 810 01fe 67E7     		b	.L43
 811              	.L57:
 145:Drivers/lvgl/src/draw/sw/blend/lv_draw_sw_blend.c ****         else image_dsc.mask_buf = blend_dsc->mask_buf;
 812              		.loc 1 145 72 is_stmt 1 discriminator 1 view .LVU260
 145:Drivers/lvgl/src/draw/sw/blend/lv_draw_sw_blend.c ****         else image_dsc.mask_buf = blend_dsc->mask_buf;
 813              		.loc 1 145 91 is_stmt 0 discriminator 1 view .LVU261
 814 0200 0022     		movs	r2, #0
 815 0202 0592     		str	r2, [sp, #20]
 816 0204 64E7     		b	.L43
 817              	.LVL95:
 818              	.L47:
 149:Drivers/lvgl/src/draw/sw/blend/lv_draw_sw_blend.c ****             image_dsc.mask_buf = blend_dsc->mask_buf;
 819              		.loc 1 149 13 is_stmt 1 view .LVU262
 149:Drivers/lvgl/src/draw/sw/blend/lv_draw_sw_blend.c ****             image_dsc.mask_buf = blend_dsc->mask_buf;
 820              		.loc 1 149 13 view .LVU263
 149:Drivers/lvgl/src/draw/sw/blend/lv_draw_sw_blend.c ****             image_dsc.mask_buf = blend_dsc->mask_buf;
 821              		.loc 1 149 13 view .LVU264
 149:Drivers/lvgl/src/draw/sw/blend/lv_draw_sw_blend.c ****             image_dsc.mask_buf = blend_dsc->mask_buf;
 822              		.loc 1 149 13 view .LVU265
 149:Drivers/lvgl/src/draw/sw/blend/lv_draw_sw_blend.c ****             image_dsc.mask_buf = blend_dsc->mask_buf;
 823              		.loc 1 149 13 view .LVU266
 824 0206 FEE7     		b	.L47
 825              	.L58:
 151:Drivers/lvgl/src/draw/sw/blend/lv_draw_sw_blend.c ****             image_dsc.mask_buf += image_dsc.mask_stride * (blend_area.y1 - blend_dsc->mask_area->y1
 826              		.loc 1 151 87 is_stmt 0 discriminator 2 view .LVU267
 827 0208 FFF7FEFF 		bl	lv_area_get_width
 828              	.LVL96:
 829 020c 0246     		mov	r2, r0
 830 020e 6AE7     		b	.L48
 831              	.LVL97:
 832              	.L51:
 833              	.LCFI6:
 834              		.cfi_def_cfa_offset 0
 835              		.cfi_restore 4
 836              		.cfi_restore 5
 837              		.cfi_restore 6
 838              		.cfi_restore 7
 839              		.cfi_restore 14
 151:Drivers/lvgl/src/draw/sw/blend/lv_draw_sw_blend.c ****             image_dsc.mask_buf += image_dsc.mask_stride * (blend_area.y1 - blend_dsc->mask_area->y1
ARM GAS  /var/folders/qx/2_175_4n2s19vhvtspjhb3qh0000gn/T//ccp3poHl.s 			page 25


 840              		.loc 1 151 87 discriminator 2 view .LVU268
 841 0210 7047     		bx	lr
 842              	.LBE5:
 843              		.cfi_endproc
 844              	.LFE43:
 846              		.text
 847              	.Letext0:
 848              		.file 2 "/Applications/ArmGNUToolchain/14.3.rel1/arm-none-eabi/arm-none-eabi/include/machine/_defa
 849              		.file 3 "/Applications/ArmGNUToolchain/14.3.rel1/arm-none-eabi/arm-none-eabi/include/sys/_stdint.h
 850              		.file 4 "Drivers/lvgl/src/draw/sw/blend/../../../misc/lv_types.h"
 851              		.file 5 "Drivers/lvgl/src/draw/sw/blend/../../lv_draw.h"
 852              		.file 6 "Drivers/lvgl/src/draw/sw/blend/../../lv_draw_private.h"
 853              		.file 7 "Drivers/lvgl/src/draw/sw/blend/lv_draw_sw_blend_private.h"
 854              		.file 8 "Drivers/lvgl/src/draw/sw/blend/../../../misc/../font/../draw/lv_draw_buf.h"
 855              		.file 9 "Drivers/lvgl/src/draw/sw/blend/../../../misc/lv_area.h"
 856              		.file 10 "Drivers/lvgl/src/draw/sw/blend/../../../misc/lv_color.h"
 857              		.file 11 "Drivers/lvgl/src/draw/sw/blend/../lv_draw_sw_mask.h"
 858              		.file 12 "Drivers/lvgl/src/draw/sw/blend/../../../misc/../font/../draw/lv_image_dsc.h"
 859              		.file 13 "Drivers/lvgl/src/draw/sw/blend/../../../misc/lv_style.h"
 860              		.file 14 "Drivers/lvgl/src/draw/sw/blend/lv_draw_sw_blend.h"
 861              		.file 15 "Drivers/lvgl/src/draw/sw/blend/lv_draw_sw_blend_to_i1.h"
 862              		.file 16 "Drivers/lvgl/src/draw/sw/blend/lv_draw_sw_blend_to_al88.h"
 863              		.file 17 "Drivers/lvgl/src/draw/sw/blend/lv_draw_sw_blend_to_l8.h"
 864              		.file 18 "Drivers/lvgl/src/draw/sw/blend/lv_draw_sw_blend_to_argb8888_premultiplied.h"
 865              		.file 19 "Drivers/lvgl/src/draw/sw/blend/lv_draw_sw_blend_to_rgb888.h"
 866              		.file 20 "Drivers/lvgl/src/draw/sw/blend/lv_draw_sw_blend_to_argb8888.h"
 867              		.file 21 "Drivers/lvgl/src/draw/sw/blend/lv_draw_sw_blend_to_rgb565_swapped.h"
 868              		.file 22 "Drivers/lvgl/src/draw/sw/blend/lv_draw_sw_blend_to_rgb565.h"
 869              		.file 23 "Drivers/lvgl/src/draw/sw/blend/../lv_draw_sw.h"
 870              		.file 24 "Drivers/lvgl/src/draw/sw/blend/../../../misc/lv_area_private.h"
ARM GAS  /var/folders/qx/2_175_4n2s19vhvtspjhb3qh0000gn/T//ccp3poHl.s 			page 26

