ARM GAS  /var/folders/qx/2_175_4n2s19vhvtspjhb3qh0000gn/T//cc7k2hqg.s 			page 1


   1              		.cpu cortex-m4
   2              		.arch armv7e-m
   3              		.fpu fpv4-sp-d16
   4              		.eabi_attribute 27, 1
   5              		.eabi_attribute 28, 1
   6              		.eabi_attribute 20, 1
   7              		.eabi_attribute 21, 1
   8              		.eabi_attribute 23, 3
   9              		.eabi_attribute 24, 1
  10              		.eabi_attribute 25, 1
  11              		.eabi_attribute 26, 1
  12              		.eabi_attribute 30, 1
  13              		.eabi_attribute 34, 1
  14              		.eabi_attribute 18, 4
  15              		.file	"lv_draw_sw_blend_to_al88.c"
  16              		.text
  17              	.Ltext0:
  18              		.cfi_sections	.debug_frame
  19              		.file 1 "Drivers/lvgl/src/draw/sw/blend/lv_draw_sw_blend_to_al88.c"
  20              		.section	.text.lv_color_16a_16a_mix,"ax",%progbits
  21              		.align	1
  22              		.syntax unified
  23              		.thumb
  24              		.thumb_func
  26              	lv_color_16a_16a_mix:
  27              	.LVL0:
  28              	.LFB191:
   1:Drivers/lvgl/src/draw/sw/blend/lv_draw_sw_blend_to_al88.c **** /**
   2:Drivers/lvgl/src/draw/sw/blend/lv_draw_sw_blend_to_al88.c ****  * @file lv_draw_sw_blend_to_al88.c
   3:Drivers/lvgl/src/draw/sw/blend/lv_draw_sw_blend_to_al88.c ****  *
   4:Drivers/lvgl/src/draw/sw/blend/lv_draw_sw_blend_to_al88.c ****  */
   5:Drivers/lvgl/src/draw/sw/blend/lv_draw_sw_blend_to_al88.c **** 
   6:Drivers/lvgl/src/draw/sw/blend/lv_draw_sw_blend_to_al88.c **** /*********************
   7:Drivers/lvgl/src/draw/sw/blend/lv_draw_sw_blend_to_al88.c ****  *      INCLUDES
   8:Drivers/lvgl/src/draw/sw/blend/lv_draw_sw_blend_to_al88.c ****  *********************/
   9:Drivers/lvgl/src/draw/sw/blend/lv_draw_sw_blend_to_al88.c **** #include "lv_draw_sw_blend_to_al88.h"
  10:Drivers/lvgl/src/draw/sw/blend/lv_draw_sw_blend_to_al88.c **** #if LV_USE_DRAW_SW
  11:Drivers/lvgl/src/draw/sw/blend/lv_draw_sw_blend_to_al88.c **** 
  12:Drivers/lvgl/src/draw/sw/blend/lv_draw_sw_blend_to_al88.c **** #if LV_DRAW_SW_SUPPORT_AL88
  13:Drivers/lvgl/src/draw/sw/blend/lv_draw_sw_blend_to_al88.c **** 
  14:Drivers/lvgl/src/draw/sw/blend/lv_draw_sw_blend_to_al88.c **** #include "lv_draw_sw_blend_private.h"
  15:Drivers/lvgl/src/draw/sw/blend/lv_draw_sw_blend_to_al88.c **** #include "../../../misc/lv_math.h"
  16:Drivers/lvgl/src/draw/sw/blend/lv_draw_sw_blend_to_al88.c **** #include "../../../display/lv_display.h"
  17:Drivers/lvgl/src/draw/sw/blend/lv_draw_sw_blend_to_al88.c **** #include "../../../core/lv_refr.h"
  18:Drivers/lvgl/src/draw/sw/blend/lv_draw_sw_blend_to_al88.c **** #include "../../../misc/lv_color.h"
  19:Drivers/lvgl/src/draw/sw/blend/lv_draw_sw_blend_to_al88.c **** #include "../../../stdlib/lv_string.h"
  20:Drivers/lvgl/src/draw/sw/blend/lv_draw_sw_blend_to_al88.c **** 
  21:Drivers/lvgl/src/draw/sw/blend/lv_draw_sw_blend_to_al88.c **** #if LV_USE_DRAW_SW_ASM == LV_DRAW_SW_ASM_NEON
  22:Drivers/lvgl/src/draw/sw/blend/lv_draw_sw_blend_to_al88.c ****     #include "neon/lv_blend_neon.h"
  23:Drivers/lvgl/src/draw/sw/blend/lv_draw_sw_blend_to_al88.c **** #elif LV_USE_DRAW_SW_ASM == LV_DRAW_SW_ASM_HELIUM
  24:Drivers/lvgl/src/draw/sw/blend/lv_draw_sw_blend_to_al88.c ****     #include "helium/lv_blend_helium.h"
  25:Drivers/lvgl/src/draw/sw/blend/lv_draw_sw_blend_to_al88.c **** #elif LV_USE_DRAW_SW_ASM == LV_DRAW_SW_ASM_CUSTOM
  26:Drivers/lvgl/src/draw/sw/blend/lv_draw_sw_blend_to_al88.c ****     #include LV_DRAW_SW_ASM_CUSTOM_INCLUDE
  27:Drivers/lvgl/src/draw/sw/blend/lv_draw_sw_blend_to_al88.c **** #endif
  28:Drivers/lvgl/src/draw/sw/blend/lv_draw_sw_blend_to_al88.c **** 
  29:Drivers/lvgl/src/draw/sw/blend/lv_draw_sw_blend_to_al88.c **** /*********************
  30:Drivers/lvgl/src/draw/sw/blend/lv_draw_sw_blend_to_al88.c ****  *      DEFINES
ARM GAS  /var/folders/qx/2_175_4n2s19vhvtspjhb3qh0000gn/T//cc7k2hqg.s 			page 2


  31:Drivers/lvgl/src/draw/sw/blend/lv_draw_sw_blend_to_al88.c ****  *********************/
  32:Drivers/lvgl/src/draw/sw/blend/lv_draw_sw_blend_to_al88.c **** 
  33:Drivers/lvgl/src/draw/sw/blend/lv_draw_sw_blend_to_al88.c **** /**********************
  34:Drivers/lvgl/src/draw/sw/blend/lv_draw_sw_blend_to_al88.c ****  *      TYPEDEFS
  35:Drivers/lvgl/src/draw/sw/blend/lv_draw_sw_blend_to_al88.c ****  **********************/
  36:Drivers/lvgl/src/draw/sw/blend/lv_draw_sw_blend_to_al88.c **** 
  37:Drivers/lvgl/src/draw/sw/blend/lv_draw_sw_blend_to_al88.c **** typedef struct {
  38:Drivers/lvgl/src/draw/sw/blend/lv_draw_sw_blend_to_al88.c ****     lv_color16a_t fg_saved;
  39:Drivers/lvgl/src/draw/sw/blend/lv_draw_sw_blend_to_al88.c ****     lv_color16a_t bg_saved;
  40:Drivers/lvgl/src/draw/sw/blend/lv_draw_sw_blend_to_al88.c ****     lv_color16a_t res_saved;
  41:Drivers/lvgl/src/draw/sw/blend/lv_draw_sw_blend_to_al88.c ****     lv_opa_t res_alpha_saved;
  42:Drivers/lvgl/src/draw/sw/blend/lv_draw_sw_blend_to_al88.c ****     lv_opa_t ratio_saved;
  43:Drivers/lvgl/src/draw/sw/blend/lv_draw_sw_blend_to_al88.c **** } lv_color_mix_alpha_cache_t;
  44:Drivers/lvgl/src/draw/sw/blend/lv_draw_sw_blend_to_al88.c **** 
  45:Drivers/lvgl/src/draw/sw/blend/lv_draw_sw_blend_to_al88.c **** /**********************
  46:Drivers/lvgl/src/draw/sw/blend/lv_draw_sw_blend_to_al88.c ****  *  STATIC PROTOTYPES
  47:Drivers/lvgl/src/draw/sw/blend/lv_draw_sw_blend_to_al88.c ****  **********************/
  48:Drivers/lvgl/src/draw/sw/blend/lv_draw_sw_blend_to_al88.c **** 
  49:Drivers/lvgl/src/draw/sw/blend/lv_draw_sw_blend_to_al88.c **** #if LV_DRAW_SW_SUPPORT_L8
  50:Drivers/lvgl/src/draw/sw/blend/lv_draw_sw_blend_to_al88.c ****     static void /* LV_ATTRIBUTE_FAST_MEM */ l8_image_blend(lv_draw_sw_blend_image_dsc_t * dsc);
  51:Drivers/lvgl/src/draw/sw/blend/lv_draw_sw_blend_to_al88.c **** #endif
  52:Drivers/lvgl/src/draw/sw/blend/lv_draw_sw_blend_to_al88.c **** 
  53:Drivers/lvgl/src/draw/sw/blend/lv_draw_sw_blend_to_al88.c **** #if LV_DRAW_SW_SUPPORT_I1
  54:Drivers/lvgl/src/draw/sw/blend/lv_draw_sw_blend_to_al88.c ****     static void /* LV_ATTRIBUTE_FAST_MEM */ i1_image_blend(lv_draw_sw_blend_image_dsc_t * dsc);
  55:Drivers/lvgl/src/draw/sw/blend/lv_draw_sw_blend_to_al88.c **** 
  56:Drivers/lvgl/src/draw/sw/blend/lv_draw_sw_blend_to_al88.c ****     static inline uint8_t /* LV_ATTRIBUTE_FAST_MEM */ get_bit(const uint8_t * buf, int32_t bit_idx)
  57:Drivers/lvgl/src/draw/sw/blend/lv_draw_sw_blend_to_al88.c **** #endif
  58:Drivers/lvgl/src/draw/sw/blend/lv_draw_sw_blend_to_al88.c **** 
  59:Drivers/lvgl/src/draw/sw/blend/lv_draw_sw_blend_to_al88.c **** static void /* LV_ATTRIBUTE_FAST_MEM */ al88_image_blend(lv_draw_sw_blend_image_dsc_t * dsc);
  60:Drivers/lvgl/src/draw/sw/blend/lv_draw_sw_blend_to_al88.c **** 
  61:Drivers/lvgl/src/draw/sw/blend/lv_draw_sw_blend_to_al88.c **** #if LV_DRAW_SW_SUPPORT_RGB565
  62:Drivers/lvgl/src/draw/sw/blend/lv_draw_sw_blend_to_al88.c ****     static void /* LV_ATTRIBUTE_FAST_MEM */ rgb565_image_blend(lv_draw_sw_blend_image_dsc_t * dsc);
  63:Drivers/lvgl/src/draw/sw/blend/lv_draw_sw_blend_to_al88.c **** #endif
  64:Drivers/lvgl/src/draw/sw/blend/lv_draw_sw_blend_to_al88.c **** 
  65:Drivers/lvgl/src/draw/sw/blend/lv_draw_sw_blend_to_al88.c **** #if LV_DRAW_SW_SUPPORT_RGB888 || LV_DRAW_SW_SUPPORT_XRGB8888
  66:Drivers/lvgl/src/draw/sw/blend/lv_draw_sw_blend_to_al88.c **** static void /* LV_ATTRIBUTE_FAST_MEM */ rgb888_image_blend(lv_draw_sw_blend_image_dsc_t * dsc,
  67:Drivers/lvgl/src/draw/sw/blend/lv_draw_sw_blend_to_al88.c ****                                                            const uint8_t src_px_size);
  68:Drivers/lvgl/src/draw/sw/blend/lv_draw_sw_blend_to_al88.c **** #endif
  69:Drivers/lvgl/src/draw/sw/blend/lv_draw_sw_blend_to_al88.c **** 
  70:Drivers/lvgl/src/draw/sw/blend/lv_draw_sw_blend_to_al88.c **** #if LV_DRAW_SW_SUPPORT_ARGB8888
  71:Drivers/lvgl/src/draw/sw/blend/lv_draw_sw_blend_to_al88.c ****     static void /* LV_ATTRIBUTE_FAST_MEM */ argb8888_image_blend(lv_draw_sw_blend_image_dsc_t * dsc
  72:Drivers/lvgl/src/draw/sw/blend/lv_draw_sw_blend_to_al88.c **** #endif
  73:Drivers/lvgl/src/draw/sw/blend/lv_draw_sw_blend_to_al88.c **** 
  74:Drivers/lvgl/src/draw/sw/blend/lv_draw_sw_blend_to_al88.c **** static void lv_color_mix_with_alpha_cache_init(lv_color_mix_alpha_cache_t * cache);
  75:Drivers/lvgl/src/draw/sw/blend/lv_draw_sw_blend_to_al88.c **** 
  76:Drivers/lvgl/src/draw/sw/blend/lv_draw_sw_blend_to_al88.c **** static inline void /* LV_ATTRIBUTE_FAST_MEM */ blend_non_normal_pixel(lv_color16a_t * dest, lv_colo
  77:Drivers/lvgl/src/draw/sw/blend/lv_draw_sw_blend_to_al88.c ****                                                                       lv_blend_mode_t mode, lv_colo
  78:Drivers/lvgl/src/draw/sw/blend/lv_draw_sw_blend_to_al88.c **** 
  79:Drivers/lvgl/src/draw/sw/blend/lv_draw_sw_blend_to_al88.c **** static inline void * /* LV_ATTRIBUTE_FAST_MEM */ drawbuf_next_row(const void * buf, uint32_t stride
  80:Drivers/lvgl/src/draw/sw/blend/lv_draw_sw_blend_to_al88.c **** 
  81:Drivers/lvgl/src/draw/sw/blend/lv_draw_sw_blend_to_al88.c **** static inline bool lv_color16a_eq(lv_color16a_t c1, lv_color16a_t c2);
  82:Drivers/lvgl/src/draw/sw/blend/lv_draw_sw_blend_to_al88.c **** 
  83:Drivers/lvgl/src/draw/sw/blend/lv_draw_sw_blend_to_al88.c **** static inline lv_color16a_t /* LV_ATTRIBUTE_FAST_MEM */ lv_color_mix16a(lv_color16a_t fg, lv_color1
  84:Drivers/lvgl/src/draw/sw/blend/lv_draw_sw_blend_to_al88.c **** 
  85:Drivers/lvgl/src/draw/sw/blend/lv_draw_sw_blend_to_al88.c **** static inline void /* LV_ATTRIBUTE_FAST_MEM */ lv_color_16a_16a_mix(lv_color16a_t src, lv_color16a_
  86:Drivers/lvgl/src/draw/sw/blend/lv_draw_sw_blend_to_al88.c ****                                                                     lv_color_mix_alpha_cache_t * ca
  87:Drivers/lvgl/src/draw/sw/blend/lv_draw_sw_blend_to_al88.c **** 
ARM GAS  /var/folders/qx/2_175_4n2s19vhvtspjhb3qh0000gn/T//cc7k2hqg.s 			page 3


  88:Drivers/lvgl/src/draw/sw/blend/lv_draw_sw_blend_to_al88.c **** /**********************
  89:Drivers/lvgl/src/draw/sw/blend/lv_draw_sw_blend_to_al88.c ****  *  STATIC VARIABLES
  90:Drivers/lvgl/src/draw/sw/blend/lv_draw_sw_blend_to_al88.c ****  **********************/
  91:Drivers/lvgl/src/draw/sw/blend/lv_draw_sw_blend_to_al88.c **** 
  92:Drivers/lvgl/src/draw/sw/blend/lv_draw_sw_blend_to_al88.c **** /**********************
  93:Drivers/lvgl/src/draw/sw/blend/lv_draw_sw_blend_to_al88.c ****  *      MACROS
  94:Drivers/lvgl/src/draw/sw/blend/lv_draw_sw_blend_to_al88.c ****  **********************/
  95:Drivers/lvgl/src/draw/sw/blend/lv_draw_sw_blend_to_al88.c **** 
  96:Drivers/lvgl/src/draw/sw/blend/lv_draw_sw_blend_to_al88.c **** #ifndef LV_DRAW_SW_COLOR_BLEND_TO_AL88
  97:Drivers/lvgl/src/draw/sw/blend/lv_draw_sw_blend_to_al88.c ****     #define LV_DRAW_SW_COLOR_BLEND_TO_AL88(...)                         LV_RESULT_INVALID
  98:Drivers/lvgl/src/draw/sw/blend/lv_draw_sw_blend_to_al88.c **** #endif
  99:Drivers/lvgl/src/draw/sw/blend/lv_draw_sw_blend_to_al88.c **** 
 100:Drivers/lvgl/src/draw/sw/blend/lv_draw_sw_blend_to_al88.c **** #ifndef LV_DRAW_SW_COLOR_BLEND_TO_AL88_WITH_OPA
 101:Drivers/lvgl/src/draw/sw/blend/lv_draw_sw_blend_to_al88.c ****     #define LV_DRAW_SW_COLOR_BLEND_TO_AL88_WITH_OPA(...)                LV_RESULT_INVALID
 102:Drivers/lvgl/src/draw/sw/blend/lv_draw_sw_blend_to_al88.c **** #endif
 103:Drivers/lvgl/src/draw/sw/blend/lv_draw_sw_blend_to_al88.c **** 
 104:Drivers/lvgl/src/draw/sw/blend/lv_draw_sw_blend_to_al88.c **** #ifndef LV_DRAW_SW_COLOR_BLEND_TO_AL88_WITH_MASK
 105:Drivers/lvgl/src/draw/sw/blend/lv_draw_sw_blend_to_al88.c ****     #define LV_DRAW_SW_COLOR_BLEND_TO_AL88_WITH_MASK(...)               LV_RESULT_INVALID
 106:Drivers/lvgl/src/draw/sw/blend/lv_draw_sw_blend_to_al88.c **** #endif
 107:Drivers/lvgl/src/draw/sw/blend/lv_draw_sw_blend_to_al88.c **** 
 108:Drivers/lvgl/src/draw/sw/blend/lv_draw_sw_blend_to_al88.c **** #ifndef LV_DRAW_SW_COLOR_BLEND_TO_AL88_MIX_MASK_OPA
 109:Drivers/lvgl/src/draw/sw/blend/lv_draw_sw_blend_to_al88.c ****     #define LV_DRAW_SW_COLOR_BLEND_TO_AL88_MIX_MASK_OPA(...)            LV_RESULT_INVALID
 110:Drivers/lvgl/src/draw/sw/blend/lv_draw_sw_blend_to_al88.c **** #endif
 111:Drivers/lvgl/src/draw/sw/blend/lv_draw_sw_blend_to_al88.c **** 
 112:Drivers/lvgl/src/draw/sw/blend/lv_draw_sw_blend_to_al88.c **** #ifndef LV_DRAW_SW_RGB565_BLEND_NORMAL_TO_AL88
 113:Drivers/lvgl/src/draw/sw/blend/lv_draw_sw_blend_to_al88.c ****     #define LV_DRAW_SW_RGB565_BLEND_NORMAL_TO_AL88(...)                 LV_RESULT_INVALID
 114:Drivers/lvgl/src/draw/sw/blend/lv_draw_sw_blend_to_al88.c **** #endif
 115:Drivers/lvgl/src/draw/sw/blend/lv_draw_sw_blend_to_al88.c **** 
 116:Drivers/lvgl/src/draw/sw/blend/lv_draw_sw_blend_to_al88.c **** #ifndef LV_DRAW_SW_RGB565_BLEND_NORMAL_TO_AL88_WITH_OPA
 117:Drivers/lvgl/src/draw/sw/blend/lv_draw_sw_blend_to_al88.c ****     #define LV_DRAW_SW_RGB565_BLEND_NORMAL_TO_AL88_WITH_OPA(...)        LV_RESULT_INVALID
 118:Drivers/lvgl/src/draw/sw/blend/lv_draw_sw_blend_to_al88.c **** #endif
 119:Drivers/lvgl/src/draw/sw/blend/lv_draw_sw_blend_to_al88.c **** 
 120:Drivers/lvgl/src/draw/sw/blend/lv_draw_sw_blend_to_al88.c **** #ifndef LV_DRAW_SW_RGB565_BLEND_NORMAL_TO_AL88_WITH_MASK
 121:Drivers/lvgl/src/draw/sw/blend/lv_draw_sw_blend_to_al88.c ****     #define LV_DRAW_SW_RGB565_BLEND_NORMAL_TO_AL88_WITH_MASK(...)       LV_RESULT_INVALID
 122:Drivers/lvgl/src/draw/sw/blend/lv_draw_sw_blend_to_al88.c **** #endif
 123:Drivers/lvgl/src/draw/sw/blend/lv_draw_sw_blend_to_al88.c **** 
 124:Drivers/lvgl/src/draw/sw/blend/lv_draw_sw_blend_to_al88.c **** #ifndef LV_DRAW_SW_RGB565_BLEND_NORMAL_TO_AL88_MIX_MASK_OPA
 125:Drivers/lvgl/src/draw/sw/blend/lv_draw_sw_blend_to_al88.c ****     #define LV_DRAW_SW_RGB565_BLEND_NORMAL_TO_AL88_MIX_MASK_OPA(...)    LV_RESULT_INVALID
 126:Drivers/lvgl/src/draw/sw/blend/lv_draw_sw_blend_to_al88.c **** #endif
 127:Drivers/lvgl/src/draw/sw/blend/lv_draw_sw_blend_to_al88.c **** 
 128:Drivers/lvgl/src/draw/sw/blend/lv_draw_sw_blend_to_al88.c **** #ifndef LV_DRAW_SW_RGB888_BLEND_NORMAL_TO_AL88
 129:Drivers/lvgl/src/draw/sw/blend/lv_draw_sw_blend_to_al88.c ****     #define LV_DRAW_SW_RGB888_BLEND_NORMAL_TO_AL88(...)                 LV_RESULT_INVALID
 130:Drivers/lvgl/src/draw/sw/blend/lv_draw_sw_blend_to_al88.c **** #endif
 131:Drivers/lvgl/src/draw/sw/blend/lv_draw_sw_blend_to_al88.c **** 
 132:Drivers/lvgl/src/draw/sw/blend/lv_draw_sw_blend_to_al88.c **** #ifndef LV_DRAW_SW_RGB888_BLEND_NORMAL_TO_AL88_WITH_OPA
 133:Drivers/lvgl/src/draw/sw/blend/lv_draw_sw_blend_to_al88.c ****     #define LV_DRAW_SW_RGB888_BLEND_NORMAL_TO_AL88_WITH_OPA(...)        LV_RESULT_INVALID
 134:Drivers/lvgl/src/draw/sw/blend/lv_draw_sw_blend_to_al88.c **** #endif
 135:Drivers/lvgl/src/draw/sw/blend/lv_draw_sw_blend_to_al88.c **** 
 136:Drivers/lvgl/src/draw/sw/blend/lv_draw_sw_blend_to_al88.c **** #ifndef LV_DRAW_SW_RGB888_BLEND_NORMAL_TO_AL88_WITH_MASK
 137:Drivers/lvgl/src/draw/sw/blend/lv_draw_sw_blend_to_al88.c ****     #define LV_DRAW_SW_RGB888_BLEND_NORMAL_TO_AL88_WITH_MASK(...)       LV_RESULT_INVALID
 138:Drivers/lvgl/src/draw/sw/blend/lv_draw_sw_blend_to_al88.c **** #endif
 139:Drivers/lvgl/src/draw/sw/blend/lv_draw_sw_blend_to_al88.c **** 
 140:Drivers/lvgl/src/draw/sw/blend/lv_draw_sw_blend_to_al88.c **** #ifndef LV_DRAW_SW_RGB888_BLEND_NORMAL_TO_AL88_MIX_MASK_OPA
 141:Drivers/lvgl/src/draw/sw/blend/lv_draw_sw_blend_to_al88.c ****     #define LV_DRAW_SW_RGB888_BLEND_NORMAL_TO_AL88_MIX_MASK_OPA(...)    LV_RESULT_INVALID
 142:Drivers/lvgl/src/draw/sw/blend/lv_draw_sw_blend_to_al88.c **** #endif
 143:Drivers/lvgl/src/draw/sw/blend/lv_draw_sw_blend_to_al88.c **** 
 144:Drivers/lvgl/src/draw/sw/blend/lv_draw_sw_blend_to_al88.c **** #ifndef LV_DRAW_SW_ARGB8888_BLEND_NORMAL_TO_AL88
ARM GAS  /var/folders/qx/2_175_4n2s19vhvtspjhb3qh0000gn/T//cc7k2hqg.s 			page 4


 145:Drivers/lvgl/src/draw/sw/blend/lv_draw_sw_blend_to_al88.c ****     #define LV_DRAW_SW_ARGB8888_BLEND_NORMAL_TO_AL88(...)                 LV_RESULT_INVALID
 146:Drivers/lvgl/src/draw/sw/blend/lv_draw_sw_blend_to_al88.c **** #endif
 147:Drivers/lvgl/src/draw/sw/blend/lv_draw_sw_blend_to_al88.c **** 
 148:Drivers/lvgl/src/draw/sw/blend/lv_draw_sw_blend_to_al88.c **** #ifndef LV_DRAW_SW_ARGB8888_BLEND_NORMAL_TO_AL88_WITH_OPA
 149:Drivers/lvgl/src/draw/sw/blend/lv_draw_sw_blend_to_al88.c ****     #define LV_DRAW_SW_ARGB8888_BLEND_NORMAL_TO_AL88_WITH_OPA(...)        LV_RESULT_INVALID
 150:Drivers/lvgl/src/draw/sw/blend/lv_draw_sw_blend_to_al88.c **** #endif
 151:Drivers/lvgl/src/draw/sw/blend/lv_draw_sw_blend_to_al88.c **** 
 152:Drivers/lvgl/src/draw/sw/blend/lv_draw_sw_blend_to_al88.c **** #ifndef LV_DRAW_SW_ARGB8888_BLEND_NORMAL_TO_AL88_WITH_MASK
 153:Drivers/lvgl/src/draw/sw/blend/lv_draw_sw_blend_to_al88.c ****     #define LV_DRAW_SW_ARGB8888_BLEND_NORMAL_TO_AL88_WITH_MASK(...)       LV_RESULT_INVALID
 154:Drivers/lvgl/src/draw/sw/blend/lv_draw_sw_blend_to_al88.c **** #endif
 155:Drivers/lvgl/src/draw/sw/blend/lv_draw_sw_blend_to_al88.c **** 
 156:Drivers/lvgl/src/draw/sw/blend/lv_draw_sw_blend_to_al88.c **** #ifndef LV_DRAW_SW_ARGB8888_BLEND_NORMAL_TO_AL88_MIX_MASK_OPA
 157:Drivers/lvgl/src/draw/sw/blend/lv_draw_sw_blend_to_al88.c ****     #define LV_DRAW_SW_ARGB8888_BLEND_NORMAL_TO_AL88_MIX_MASK_OPA(...)    LV_RESULT_INVALID
 158:Drivers/lvgl/src/draw/sw/blend/lv_draw_sw_blend_to_al88.c **** #endif
 159:Drivers/lvgl/src/draw/sw/blend/lv_draw_sw_blend_to_al88.c **** 
 160:Drivers/lvgl/src/draw/sw/blend/lv_draw_sw_blend_to_al88.c **** 
 161:Drivers/lvgl/src/draw/sw/blend/lv_draw_sw_blend_to_al88.c **** #ifndef LV_DRAW_SW_AL88_BLEND_NORMAL_TO_AL88
 162:Drivers/lvgl/src/draw/sw/blend/lv_draw_sw_blend_to_al88.c ****     #define LV_DRAW_SW_AL88_BLEND_NORMAL_TO_AL88(...)               LV_RESULT_INVALID
 163:Drivers/lvgl/src/draw/sw/blend/lv_draw_sw_blend_to_al88.c **** #endif
 164:Drivers/lvgl/src/draw/sw/blend/lv_draw_sw_blend_to_al88.c **** 
 165:Drivers/lvgl/src/draw/sw/blend/lv_draw_sw_blend_to_al88.c **** #ifndef LV_DRAW_SW_AL88_BLEND_NORMAL_TO_AL88_WITH_OPA
 166:Drivers/lvgl/src/draw/sw/blend/lv_draw_sw_blend_to_al88.c ****     #define LV_DRAW_SW_AL88_BLEND_NORMAL_TO_AL88_WITH_OPA(...)      LV_RESULT_INVALID
 167:Drivers/lvgl/src/draw/sw/blend/lv_draw_sw_blend_to_al88.c **** #endif
 168:Drivers/lvgl/src/draw/sw/blend/lv_draw_sw_blend_to_al88.c **** 
 169:Drivers/lvgl/src/draw/sw/blend/lv_draw_sw_blend_to_al88.c **** #ifndef LV_DRAW_SW_AL88_BLEND_NORMAL_TO_AL88_WITH_MASK
 170:Drivers/lvgl/src/draw/sw/blend/lv_draw_sw_blend_to_al88.c ****     #define LV_DRAW_SW_AL88_BLEND_NORMAL_TO_AL88_WITH_MASK(...)     LV_RESULT_INVALID
 171:Drivers/lvgl/src/draw/sw/blend/lv_draw_sw_blend_to_al88.c **** #endif
 172:Drivers/lvgl/src/draw/sw/blend/lv_draw_sw_blend_to_al88.c **** 
 173:Drivers/lvgl/src/draw/sw/blend/lv_draw_sw_blend_to_al88.c **** #ifndef LV_DRAW_SW_AL88_BLEND_NORMAL_TO_AL88_MIX_MASK_OPA
 174:Drivers/lvgl/src/draw/sw/blend/lv_draw_sw_blend_to_al88.c ****     #define LV_DRAW_SW_AL88_BLEND_NORMAL_TO_AL88_MIX_MASK_OPA(...)  LV_RESULT_INVALID
 175:Drivers/lvgl/src/draw/sw/blend/lv_draw_sw_blend_to_al88.c **** #endif
 176:Drivers/lvgl/src/draw/sw/blend/lv_draw_sw_blend_to_al88.c **** 
 177:Drivers/lvgl/src/draw/sw/blend/lv_draw_sw_blend_to_al88.c **** #ifndef LV_DRAW_SW_I1_BLEND_NORMAL_TO_AL88
 178:Drivers/lvgl/src/draw/sw/blend/lv_draw_sw_blend_to_al88.c ****     #define LV_DRAW_SW_I1_BLEND_NORMAL_TO_AL88(...)  LV_RESULT_INVALID
 179:Drivers/lvgl/src/draw/sw/blend/lv_draw_sw_blend_to_al88.c **** #endif
 180:Drivers/lvgl/src/draw/sw/blend/lv_draw_sw_blend_to_al88.c **** 
 181:Drivers/lvgl/src/draw/sw/blend/lv_draw_sw_blend_to_al88.c **** #ifndef LV_DRAW_SW_I1_BLEND_NORMAL_TO_AL88_WITH_OPA
 182:Drivers/lvgl/src/draw/sw/blend/lv_draw_sw_blend_to_al88.c ****     #define LV_DRAW_SW_I1_BLEND_NORMAL_TO_AL88_WITH_OPA(...)  LV_RESULT_INVALID
 183:Drivers/lvgl/src/draw/sw/blend/lv_draw_sw_blend_to_al88.c **** #endif
 184:Drivers/lvgl/src/draw/sw/blend/lv_draw_sw_blend_to_al88.c **** 
 185:Drivers/lvgl/src/draw/sw/blend/lv_draw_sw_blend_to_al88.c **** #ifndef LV_DRAW_SW_I1_BLEND_NORMAL_TO_AL88_WITH_MASK
 186:Drivers/lvgl/src/draw/sw/blend/lv_draw_sw_blend_to_al88.c ****     #define LV_DRAW_SW_I1_BLEND_NORMAL_TO_AL88_WITH_MASK(...)  LV_RESULT_INVALID
 187:Drivers/lvgl/src/draw/sw/blend/lv_draw_sw_blend_to_al88.c **** #endif
 188:Drivers/lvgl/src/draw/sw/blend/lv_draw_sw_blend_to_al88.c **** 
 189:Drivers/lvgl/src/draw/sw/blend/lv_draw_sw_blend_to_al88.c **** #ifndef LV_DRAW_SW_I1_BLEND_NORMAL_TO_AL88_MIX_MASK_OPA
 190:Drivers/lvgl/src/draw/sw/blend/lv_draw_sw_blend_to_al88.c ****     #define LV_DRAW_SW_I1_BLEND_NORMAL_TO_AL88_MIX_MASK_OPA(...)  LV_RESULT_INVALID
 191:Drivers/lvgl/src/draw/sw/blend/lv_draw_sw_blend_to_al88.c **** #endif
 192:Drivers/lvgl/src/draw/sw/blend/lv_draw_sw_blend_to_al88.c **** 
 193:Drivers/lvgl/src/draw/sw/blend/lv_draw_sw_blend_to_al88.c **** /**********************
 194:Drivers/lvgl/src/draw/sw/blend/lv_draw_sw_blend_to_al88.c ****  *   GLOBAL FUNCTIONS
 195:Drivers/lvgl/src/draw/sw/blend/lv_draw_sw_blend_to_al88.c ****  **********************/
 196:Drivers/lvgl/src/draw/sw/blend/lv_draw_sw_blend_to_al88.c **** 
 197:Drivers/lvgl/src/draw/sw/blend/lv_draw_sw_blend_to_al88.c **** void LV_ATTRIBUTE_FAST_MEM lv_draw_sw_blend_color_to_al88(lv_draw_sw_blend_fill_dsc_t * dsc)
 198:Drivers/lvgl/src/draw/sw/blend/lv_draw_sw_blend_to_al88.c **** {
 199:Drivers/lvgl/src/draw/sw/blend/lv_draw_sw_blend_to_al88.c ****     int32_t w = dsc->dest_w;
 200:Drivers/lvgl/src/draw/sw/blend/lv_draw_sw_blend_to_al88.c ****     int32_t h = dsc->dest_h;
 201:Drivers/lvgl/src/draw/sw/blend/lv_draw_sw_blend_to_al88.c ****     lv_opa_t opa = dsc->opa;
ARM GAS  /var/folders/qx/2_175_4n2s19vhvtspjhb3qh0000gn/T//cc7k2hqg.s 			page 5


 202:Drivers/lvgl/src/draw/sw/blend/lv_draw_sw_blend_to_al88.c ****     const lv_opa_t * mask = dsc->mask_buf;
 203:Drivers/lvgl/src/draw/sw/blend/lv_draw_sw_blend_to_al88.c ****     int32_t mask_stride = dsc->mask_stride;
 204:Drivers/lvgl/src/draw/sw/blend/lv_draw_sw_blend_to_al88.c ****     int32_t dest_stride = dsc->dest_stride;
 205:Drivers/lvgl/src/draw/sw/blend/lv_draw_sw_blend_to_al88.c **** 
 206:Drivers/lvgl/src/draw/sw/blend/lv_draw_sw_blend_to_al88.c ****     lv_color_mix_alpha_cache_t cache;
 207:Drivers/lvgl/src/draw/sw/blend/lv_draw_sw_blend_to_al88.c ****     lv_color_mix_with_alpha_cache_init(&cache);
 208:Drivers/lvgl/src/draw/sw/blend/lv_draw_sw_blend_to_al88.c **** 
 209:Drivers/lvgl/src/draw/sw/blend/lv_draw_sw_blend_to_al88.c ****     int32_t x;
 210:Drivers/lvgl/src/draw/sw/blend/lv_draw_sw_blend_to_al88.c ****     int32_t y;
 211:Drivers/lvgl/src/draw/sw/blend/lv_draw_sw_blend_to_al88.c **** 
 212:Drivers/lvgl/src/draw/sw/blend/lv_draw_sw_blend_to_al88.c ****     LV_UNUSED(w);
 213:Drivers/lvgl/src/draw/sw/blend/lv_draw_sw_blend_to_al88.c ****     LV_UNUSED(h);
 214:Drivers/lvgl/src/draw/sw/blend/lv_draw_sw_blend_to_al88.c ****     LV_UNUSED(x);
 215:Drivers/lvgl/src/draw/sw/blend/lv_draw_sw_blend_to_al88.c ****     LV_UNUSED(y);
 216:Drivers/lvgl/src/draw/sw/blend/lv_draw_sw_blend_to_al88.c ****     LV_UNUSED(opa);
 217:Drivers/lvgl/src/draw/sw/blend/lv_draw_sw_blend_to_al88.c ****     LV_UNUSED(mask);
 218:Drivers/lvgl/src/draw/sw/blend/lv_draw_sw_blend_to_al88.c ****     LV_UNUSED(mask_stride);
 219:Drivers/lvgl/src/draw/sw/blend/lv_draw_sw_blend_to_al88.c ****     LV_UNUSED(dest_stride);
 220:Drivers/lvgl/src/draw/sw/blend/lv_draw_sw_blend_to_al88.c **** 
 221:Drivers/lvgl/src/draw/sw/blend/lv_draw_sw_blend_to_al88.c ****     /*Simple fill*/
 222:Drivers/lvgl/src/draw/sw/blend/lv_draw_sw_blend_to_al88.c ****     if(mask == NULL && opa >= LV_OPA_MAX) {
 223:Drivers/lvgl/src/draw/sw/blend/lv_draw_sw_blend_to_al88.c ****         if(LV_RESULT_INVALID == LV_DRAW_SW_COLOR_BLEND_TO_AL88(dsc)) {
 224:Drivers/lvgl/src/draw/sw/blend/lv_draw_sw_blend_to_al88.c ****             lv_color16a_t color16a;
 225:Drivers/lvgl/src/draw/sw/blend/lv_draw_sw_blend_to_al88.c ****             color16a.lumi = lv_color_luminance(dsc->color);
 226:Drivers/lvgl/src/draw/sw/blend/lv_draw_sw_blend_to_al88.c ****             color16a.alpha = 255;
 227:Drivers/lvgl/src/draw/sw/blend/lv_draw_sw_blend_to_al88.c ****             lv_color16a_t * dest_buf = dsc->dest_buf;
 228:Drivers/lvgl/src/draw/sw/blend/lv_draw_sw_blend_to_al88.c ****             for(y = 0; y < h; y++) {
 229:Drivers/lvgl/src/draw/sw/blend/lv_draw_sw_blend_to_al88.c ****                 for(x = 0; x < w - 16; x += 16) {
 230:Drivers/lvgl/src/draw/sw/blend/lv_draw_sw_blend_to_al88.c ****                     dest_buf[x + 0] = color16a;
 231:Drivers/lvgl/src/draw/sw/blend/lv_draw_sw_blend_to_al88.c ****                     dest_buf[x + 1] = color16a;
 232:Drivers/lvgl/src/draw/sw/blend/lv_draw_sw_blend_to_al88.c ****                     dest_buf[x + 2] = color16a;
 233:Drivers/lvgl/src/draw/sw/blend/lv_draw_sw_blend_to_al88.c ****                     dest_buf[x + 3] = color16a;
 234:Drivers/lvgl/src/draw/sw/blend/lv_draw_sw_blend_to_al88.c **** 
 235:Drivers/lvgl/src/draw/sw/blend/lv_draw_sw_blend_to_al88.c ****                     dest_buf[x + 4] = color16a;
 236:Drivers/lvgl/src/draw/sw/blend/lv_draw_sw_blend_to_al88.c ****                     dest_buf[x + 5] = color16a;
 237:Drivers/lvgl/src/draw/sw/blend/lv_draw_sw_blend_to_al88.c ****                     dest_buf[x + 6] = color16a;
 238:Drivers/lvgl/src/draw/sw/blend/lv_draw_sw_blend_to_al88.c ****                     dest_buf[x + 7] = color16a;
 239:Drivers/lvgl/src/draw/sw/blend/lv_draw_sw_blend_to_al88.c **** 
 240:Drivers/lvgl/src/draw/sw/blend/lv_draw_sw_blend_to_al88.c ****                     dest_buf[x + 8] = color16a;
 241:Drivers/lvgl/src/draw/sw/blend/lv_draw_sw_blend_to_al88.c ****                     dest_buf[x + 9] = color16a;
 242:Drivers/lvgl/src/draw/sw/blend/lv_draw_sw_blend_to_al88.c ****                     dest_buf[x + 10] = color16a;
 243:Drivers/lvgl/src/draw/sw/blend/lv_draw_sw_blend_to_al88.c ****                     dest_buf[x + 11] = color16a;
 244:Drivers/lvgl/src/draw/sw/blend/lv_draw_sw_blend_to_al88.c **** 
 245:Drivers/lvgl/src/draw/sw/blend/lv_draw_sw_blend_to_al88.c ****                     dest_buf[x + 12] = color16a;
 246:Drivers/lvgl/src/draw/sw/blend/lv_draw_sw_blend_to_al88.c ****                     dest_buf[x + 13] = color16a;
 247:Drivers/lvgl/src/draw/sw/blend/lv_draw_sw_blend_to_al88.c ****                     dest_buf[x + 14] = color16a;
 248:Drivers/lvgl/src/draw/sw/blend/lv_draw_sw_blend_to_al88.c ****                     dest_buf[x + 15] = color16a;
 249:Drivers/lvgl/src/draw/sw/blend/lv_draw_sw_blend_to_al88.c ****                 }
 250:Drivers/lvgl/src/draw/sw/blend/lv_draw_sw_blend_to_al88.c ****                 for(; x < w; x ++) {
 251:Drivers/lvgl/src/draw/sw/blend/lv_draw_sw_blend_to_al88.c ****                     dest_buf[x] = color16a;
 252:Drivers/lvgl/src/draw/sw/blend/lv_draw_sw_blend_to_al88.c ****                 }
 253:Drivers/lvgl/src/draw/sw/blend/lv_draw_sw_blend_to_al88.c **** 
 254:Drivers/lvgl/src/draw/sw/blend/lv_draw_sw_blend_to_al88.c ****                 dest_buf = drawbuf_next_row(dest_buf, dest_stride);
 255:Drivers/lvgl/src/draw/sw/blend/lv_draw_sw_blend_to_al88.c ****             }
 256:Drivers/lvgl/src/draw/sw/blend/lv_draw_sw_blend_to_al88.c ****         }
 257:Drivers/lvgl/src/draw/sw/blend/lv_draw_sw_blend_to_al88.c ****     }
 258:Drivers/lvgl/src/draw/sw/blend/lv_draw_sw_blend_to_al88.c ****     /*Opacity only*/
ARM GAS  /var/folders/qx/2_175_4n2s19vhvtspjhb3qh0000gn/T//cc7k2hqg.s 			page 6


 259:Drivers/lvgl/src/draw/sw/blend/lv_draw_sw_blend_to_al88.c ****     else if(mask == NULL && opa < LV_OPA_MAX) {
 260:Drivers/lvgl/src/draw/sw/blend/lv_draw_sw_blend_to_al88.c ****         if(LV_RESULT_INVALID == LV_DRAW_SW_COLOR_BLEND_TO_AL88_WITH_OPA(dsc)) {
 261:Drivers/lvgl/src/draw/sw/blend/lv_draw_sw_blend_to_al88.c ****             lv_color16a_t color16a;
 262:Drivers/lvgl/src/draw/sw/blend/lv_draw_sw_blend_to_al88.c ****             color16a.lumi = lv_color_luminance(dsc->color);
 263:Drivers/lvgl/src/draw/sw/blend/lv_draw_sw_blend_to_al88.c ****             color16a.alpha = opa;
 264:Drivers/lvgl/src/draw/sw/blend/lv_draw_sw_blend_to_al88.c ****             lv_color16a_t * dest_buf = dsc->dest_buf;
 265:Drivers/lvgl/src/draw/sw/blend/lv_draw_sw_blend_to_al88.c ****             for(y = 0; y < h; y++) {
 266:Drivers/lvgl/src/draw/sw/blend/lv_draw_sw_blend_to_al88.c ****                 for(x = 0; x < w; x++) {
 267:Drivers/lvgl/src/draw/sw/blend/lv_draw_sw_blend_to_al88.c ****                     lv_color_16a_16a_mix(color16a, &dest_buf[x], &cache);
 268:Drivers/lvgl/src/draw/sw/blend/lv_draw_sw_blend_to_al88.c ****                 }
 269:Drivers/lvgl/src/draw/sw/blend/lv_draw_sw_blend_to_al88.c ****                 dest_buf = drawbuf_next_row(dest_buf, dest_stride);
 270:Drivers/lvgl/src/draw/sw/blend/lv_draw_sw_blend_to_al88.c ****             }
 271:Drivers/lvgl/src/draw/sw/blend/lv_draw_sw_blend_to_al88.c ****         }
 272:Drivers/lvgl/src/draw/sw/blend/lv_draw_sw_blend_to_al88.c **** 
 273:Drivers/lvgl/src/draw/sw/blend/lv_draw_sw_blend_to_al88.c ****     }
 274:Drivers/lvgl/src/draw/sw/blend/lv_draw_sw_blend_to_al88.c ****     /*Masked with full opacity*/
 275:Drivers/lvgl/src/draw/sw/blend/lv_draw_sw_blend_to_al88.c ****     else if(mask && opa >= LV_OPA_MAX) {
 276:Drivers/lvgl/src/draw/sw/blend/lv_draw_sw_blend_to_al88.c ****         if(LV_RESULT_INVALID == LV_DRAW_SW_COLOR_BLEND_TO_AL88_WITH_MASK(dsc)) {
 277:Drivers/lvgl/src/draw/sw/blend/lv_draw_sw_blend_to_al88.c ****             lv_color16a_t color16a;
 278:Drivers/lvgl/src/draw/sw/blend/lv_draw_sw_blend_to_al88.c ****             color16a.lumi = lv_color_luminance(dsc->color);
 279:Drivers/lvgl/src/draw/sw/blend/lv_draw_sw_blend_to_al88.c ****             lv_color16a_t * dest_buf = (lv_color16a_t *)dsc->dest_buf;
 280:Drivers/lvgl/src/draw/sw/blend/lv_draw_sw_blend_to_al88.c ****             for(y = 0; y < h; y++) {
 281:Drivers/lvgl/src/draw/sw/blend/lv_draw_sw_blend_to_al88.c ****                 for(x = 0; x < w; x++) {
 282:Drivers/lvgl/src/draw/sw/blend/lv_draw_sw_blend_to_al88.c ****                     color16a.alpha = mask[x];
 283:Drivers/lvgl/src/draw/sw/blend/lv_draw_sw_blend_to_al88.c ****                     lv_color_16a_16a_mix(color16a, &dest_buf[x], &cache);
 284:Drivers/lvgl/src/draw/sw/blend/lv_draw_sw_blend_to_al88.c ****                 }
 285:Drivers/lvgl/src/draw/sw/blend/lv_draw_sw_blend_to_al88.c ****                 dest_buf = drawbuf_next_row(dest_buf, dest_stride);
 286:Drivers/lvgl/src/draw/sw/blend/lv_draw_sw_blend_to_al88.c ****                 mask += mask_stride;
 287:Drivers/lvgl/src/draw/sw/blend/lv_draw_sw_blend_to_al88.c ****             }
 288:Drivers/lvgl/src/draw/sw/blend/lv_draw_sw_blend_to_al88.c ****         }
 289:Drivers/lvgl/src/draw/sw/blend/lv_draw_sw_blend_to_al88.c **** 
 290:Drivers/lvgl/src/draw/sw/blend/lv_draw_sw_blend_to_al88.c ****     }
 291:Drivers/lvgl/src/draw/sw/blend/lv_draw_sw_blend_to_al88.c ****     /*Masked with opacity*/
 292:Drivers/lvgl/src/draw/sw/blend/lv_draw_sw_blend_to_al88.c ****     else {
 293:Drivers/lvgl/src/draw/sw/blend/lv_draw_sw_blend_to_al88.c ****         if(LV_RESULT_INVALID == LV_DRAW_SW_COLOR_BLEND_TO_AL88_MIX_MASK_OPA(dsc)) {
 294:Drivers/lvgl/src/draw/sw/blend/lv_draw_sw_blend_to_al88.c ****             lv_color16a_t color16a;
 295:Drivers/lvgl/src/draw/sw/blend/lv_draw_sw_blend_to_al88.c ****             color16a.lumi = lv_color_luminance(dsc->color);
 296:Drivers/lvgl/src/draw/sw/blend/lv_draw_sw_blend_to_al88.c ****             lv_color16a_t * dest_buf = (lv_color16a_t *)dsc->dest_buf;
 297:Drivers/lvgl/src/draw/sw/blend/lv_draw_sw_blend_to_al88.c ****             for(y = 0; y < h; y++) {
 298:Drivers/lvgl/src/draw/sw/blend/lv_draw_sw_blend_to_al88.c ****                 for(x = 0; x < w; x++) {
 299:Drivers/lvgl/src/draw/sw/blend/lv_draw_sw_blend_to_al88.c ****                     color16a.alpha = LV_OPA_MIX2(mask[x], opa);
 300:Drivers/lvgl/src/draw/sw/blend/lv_draw_sw_blend_to_al88.c ****                     lv_color_16a_16a_mix(color16a, &dest_buf[x], &cache);
 301:Drivers/lvgl/src/draw/sw/blend/lv_draw_sw_blend_to_al88.c ****                 }
 302:Drivers/lvgl/src/draw/sw/blend/lv_draw_sw_blend_to_al88.c ****                 dest_buf = drawbuf_next_row(dest_buf, dest_stride);
 303:Drivers/lvgl/src/draw/sw/blend/lv_draw_sw_blend_to_al88.c ****                 mask += mask_stride;
 304:Drivers/lvgl/src/draw/sw/blend/lv_draw_sw_blend_to_al88.c ****             }
 305:Drivers/lvgl/src/draw/sw/blend/lv_draw_sw_blend_to_al88.c ****         }
 306:Drivers/lvgl/src/draw/sw/blend/lv_draw_sw_blend_to_al88.c ****     }
 307:Drivers/lvgl/src/draw/sw/blend/lv_draw_sw_blend_to_al88.c **** }
 308:Drivers/lvgl/src/draw/sw/blend/lv_draw_sw_blend_to_al88.c **** 
 309:Drivers/lvgl/src/draw/sw/blend/lv_draw_sw_blend_to_al88.c **** void LV_ATTRIBUTE_FAST_MEM lv_draw_sw_blend_image_to_al88(lv_draw_sw_blend_image_dsc_t * dsc)
 310:Drivers/lvgl/src/draw/sw/blend/lv_draw_sw_blend_to_al88.c **** {
 311:Drivers/lvgl/src/draw/sw/blend/lv_draw_sw_blend_to_al88.c ****     switch(dsc->src_color_format) {
 312:Drivers/lvgl/src/draw/sw/blend/lv_draw_sw_blend_to_al88.c **** #if LV_DRAW_SW_SUPPORT_RGB565
 313:Drivers/lvgl/src/draw/sw/blend/lv_draw_sw_blend_to_al88.c ****         case LV_COLOR_FORMAT_RGB565:
 314:Drivers/lvgl/src/draw/sw/blend/lv_draw_sw_blend_to_al88.c ****             rgb565_image_blend(dsc);
 315:Drivers/lvgl/src/draw/sw/blend/lv_draw_sw_blend_to_al88.c ****             break;
ARM GAS  /var/folders/qx/2_175_4n2s19vhvtspjhb3qh0000gn/T//cc7k2hqg.s 			page 7


 316:Drivers/lvgl/src/draw/sw/blend/lv_draw_sw_blend_to_al88.c **** #endif
 317:Drivers/lvgl/src/draw/sw/blend/lv_draw_sw_blend_to_al88.c **** #if LV_DRAW_SW_SUPPORT_RGB888
 318:Drivers/lvgl/src/draw/sw/blend/lv_draw_sw_blend_to_al88.c ****         case LV_COLOR_FORMAT_RGB888:
 319:Drivers/lvgl/src/draw/sw/blend/lv_draw_sw_blend_to_al88.c ****             rgb888_image_blend(dsc, 3);
 320:Drivers/lvgl/src/draw/sw/blend/lv_draw_sw_blend_to_al88.c ****             break;
 321:Drivers/lvgl/src/draw/sw/blend/lv_draw_sw_blend_to_al88.c **** #endif
 322:Drivers/lvgl/src/draw/sw/blend/lv_draw_sw_blend_to_al88.c **** #if LV_DRAW_SW_SUPPORT_XRGB8888
 323:Drivers/lvgl/src/draw/sw/blend/lv_draw_sw_blend_to_al88.c ****         case LV_COLOR_FORMAT_XRGB8888:
 324:Drivers/lvgl/src/draw/sw/blend/lv_draw_sw_blend_to_al88.c ****             rgb888_image_blend(dsc, 4);
 325:Drivers/lvgl/src/draw/sw/blend/lv_draw_sw_blend_to_al88.c ****             break;
 326:Drivers/lvgl/src/draw/sw/blend/lv_draw_sw_blend_to_al88.c **** #endif
 327:Drivers/lvgl/src/draw/sw/blend/lv_draw_sw_blend_to_al88.c **** #if LV_DRAW_SW_SUPPORT_ARGB8888
 328:Drivers/lvgl/src/draw/sw/blend/lv_draw_sw_blend_to_al88.c ****         case LV_COLOR_FORMAT_ARGB8888:
 329:Drivers/lvgl/src/draw/sw/blend/lv_draw_sw_blend_to_al88.c ****             argb8888_image_blend(dsc);
 330:Drivers/lvgl/src/draw/sw/blend/lv_draw_sw_blend_to_al88.c ****             break;
 331:Drivers/lvgl/src/draw/sw/blend/lv_draw_sw_blend_to_al88.c **** #endif
 332:Drivers/lvgl/src/draw/sw/blend/lv_draw_sw_blend_to_al88.c **** #if LV_DRAW_SW_SUPPORT_L8
 333:Drivers/lvgl/src/draw/sw/blend/lv_draw_sw_blend_to_al88.c ****         case LV_COLOR_FORMAT_L8:
 334:Drivers/lvgl/src/draw/sw/blend/lv_draw_sw_blend_to_al88.c ****             l8_image_blend(dsc);
 335:Drivers/lvgl/src/draw/sw/blend/lv_draw_sw_blend_to_al88.c ****             break;
 336:Drivers/lvgl/src/draw/sw/blend/lv_draw_sw_blend_to_al88.c **** #endif
 337:Drivers/lvgl/src/draw/sw/blend/lv_draw_sw_blend_to_al88.c ****         case LV_COLOR_FORMAT_AL88:
 338:Drivers/lvgl/src/draw/sw/blend/lv_draw_sw_blend_to_al88.c ****             al88_image_blend(dsc);
 339:Drivers/lvgl/src/draw/sw/blend/lv_draw_sw_blend_to_al88.c ****             break;
 340:Drivers/lvgl/src/draw/sw/blend/lv_draw_sw_blend_to_al88.c **** #if LV_DRAW_SW_SUPPORT_I1
 341:Drivers/lvgl/src/draw/sw/blend/lv_draw_sw_blend_to_al88.c ****         case LV_COLOR_FORMAT_I1:
 342:Drivers/lvgl/src/draw/sw/blend/lv_draw_sw_blend_to_al88.c ****             i1_image_blend(dsc);
 343:Drivers/lvgl/src/draw/sw/blend/lv_draw_sw_blend_to_al88.c ****             break;
 344:Drivers/lvgl/src/draw/sw/blend/lv_draw_sw_blend_to_al88.c **** #endif
 345:Drivers/lvgl/src/draw/sw/blend/lv_draw_sw_blend_to_al88.c ****         default:
 346:Drivers/lvgl/src/draw/sw/blend/lv_draw_sw_blend_to_al88.c ****             LV_LOG_WARN("Not supported source color format");
 347:Drivers/lvgl/src/draw/sw/blend/lv_draw_sw_blend_to_al88.c ****             break;
 348:Drivers/lvgl/src/draw/sw/blend/lv_draw_sw_blend_to_al88.c ****     }
 349:Drivers/lvgl/src/draw/sw/blend/lv_draw_sw_blend_to_al88.c **** }
 350:Drivers/lvgl/src/draw/sw/blend/lv_draw_sw_blend_to_al88.c **** 
 351:Drivers/lvgl/src/draw/sw/blend/lv_draw_sw_blend_to_al88.c **** /**********************
 352:Drivers/lvgl/src/draw/sw/blend/lv_draw_sw_blend_to_al88.c ****  *   STATIC FUNCTIONS
 353:Drivers/lvgl/src/draw/sw/blend/lv_draw_sw_blend_to_al88.c ****  **********************/
 354:Drivers/lvgl/src/draw/sw/blend/lv_draw_sw_blend_to_al88.c **** #if LV_DRAW_SW_SUPPORT_I1
 355:Drivers/lvgl/src/draw/sw/blend/lv_draw_sw_blend_to_al88.c **** static void LV_ATTRIBUTE_FAST_MEM i1_image_blend(lv_draw_sw_blend_image_dsc_t * dsc)
 356:Drivers/lvgl/src/draw/sw/blend/lv_draw_sw_blend_to_al88.c **** {
 357:Drivers/lvgl/src/draw/sw/blend/lv_draw_sw_blend_to_al88.c ****     int32_t w = dsc->dest_w;
 358:Drivers/lvgl/src/draw/sw/blend/lv_draw_sw_blend_to_al88.c ****     int32_t h = dsc->dest_h;
 359:Drivers/lvgl/src/draw/sw/blend/lv_draw_sw_blend_to_al88.c ****     lv_opa_t opa = dsc->opa;
 360:Drivers/lvgl/src/draw/sw/blend/lv_draw_sw_blend_to_al88.c ****     lv_color16a_t * dest_buf_al88 = dsc->dest_buf;
 361:Drivers/lvgl/src/draw/sw/blend/lv_draw_sw_blend_to_al88.c ****     int32_t dest_stride = dsc->dest_stride;
 362:Drivers/lvgl/src/draw/sw/blend/lv_draw_sw_blend_to_al88.c ****     const uint8_t * src_buf_i1 = dsc->src_buf;
 363:Drivers/lvgl/src/draw/sw/blend/lv_draw_sw_blend_to_al88.c ****     int32_t src_stride = dsc->src_stride;
 364:Drivers/lvgl/src/draw/sw/blend/lv_draw_sw_blend_to_al88.c ****     const lv_opa_t * mask_buf = dsc->mask_buf;
 365:Drivers/lvgl/src/draw/sw/blend/lv_draw_sw_blend_to_al88.c ****     int32_t mask_stride = dsc->mask_stride;
 366:Drivers/lvgl/src/draw/sw/blend/lv_draw_sw_blend_to_al88.c **** 
 367:Drivers/lvgl/src/draw/sw/blend/lv_draw_sw_blend_to_al88.c ****     lv_color_mix_alpha_cache_t cache;
 368:Drivers/lvgl/src/draw/sw/blend/lv_draw_sw_blend_to_al88.c ****     lv_color_mix_with_alpha_cache_init(&cache);
 369:Drivers/lvgl/src/draw/sw/blend/lv_draw_sw_blend_to_al88.c **** 
 370:Drivers/lvgl/src/draw/sw/blend/lv_draw_sw_blend_to_al88.c ****     int32_t x, y;
 371:Drivers/lvgl/src/draw/sw/blend/lv_draw_sw_blend_to_al88.c **** 
 372:Drivers/lvgl/src/draw/sw/blend/lv_draw_sw_blend_to_al88.c ****     if(dsc->blend_mode == LV_BLEND_MODE_NORMAL) {
ARM GAS  /var/folders/qx/2_175_4n2s19vhvtspjhb3qh0000gn/T//cc7k2hqg.s 			page 8


 373:Drivers/lvgl/src/draw/sw/blend/lv_draw_sw_blend_to_al88.c ****         if(mask_buf == NULL && opa >= LV_OPA_MAX) {
 374:Drivers/lvgl/src/draw/sw/blend/lv_draw_sw_blend_to_al88.c ****             if(LV_RESULT_INVALID == LV_DRAW_SW_I1_BLEND_NORMAL_TO_AL88(dsc)) {
 375:Drivers/lvgl/src/draw/sw/blend/lv_draw_sw_blend_to_al88.c ****                 for(y = 0; y < h; y++) {
 376:Drivers/lvgl/src/draw/sw/blend/lv_draw_sw_blend_to_al88.c ****                     for(x = 0; x < w; x++) {
 377:Drivers/lvgl/src/draw/sw/blend/lv_draw_sw_blend_to_al88.c ****                         dest_buf_al88[x].lumi = get_bit(src_buf_i1, x) * 255;
 378:Drivers/lvgl/src/draw/sw/blend/lv_draw_sw_blend_to_al88.c ****                         dest_buf_al88[x].alpha = 255;
 379:Drivers/lvgl/src/draw/sw/blend/lv_draw_sw_blend_to_al88.c ****                     }
 380:Drivers/lvgl/src/draw/sw/blend/lv_draw_sw_blend_to_al88.c ****                     dest_buf_al88 = drawbuf_next_row(dest_buf_al88, dest_stride);
 381:Drivers/lvgl/src/draw/sw/blend/lv_draw_sw_blend_to_al88.c ****                     src_buf_i1 = drawbuf_next_row(src_buf_i1, src_stride);
 382:Drivers/lvgl/src/draw/sw/blend/lv_draw_sw_blend_to_al88.c ****                 }
 383:Drivers/lvgl/src/draw/sw/blend/lv_draw_sw_blend_to_al88.c ****             }
 384:Drivers/lvgl/src/draw/sw/blend/lv_draw_sw_blend_to_al88.c ****         }
 385:Drivers/lvgl/src/draw/sw/blend/lv_draw_sw_blend_to_al88.c ****         else if(mask_buf == NULL && opa < LV_OPA_MAX) {
 386:Drivers/lvgl/src/draw/sw/blend/lv_draw_sw_blend_to_al88.c ****             if(LV_RESULT_INVALID == LV_DRAW_SW_I1_BLEND_NORMAL_TO_AL88_WITH_OPA(dsc)) {
 387:Drivers/lvgl/src/draw/sw/blend/lv_draw_sw_blend_to_al88.c ****                 for(y = 0; y < h; y++) {
 388:Drivers/lvgl/src/draw/sw/blend/lv_draw_sw_blend_to_al88.c ****                     for(x = 0; x < w; x++) {
 389:Drivers/lvgl/src/draw/sw/blend/lv_draw_sw_blend_to_al88.c ****                         lv_color16a_t src_color;
 390:Drivers/lvgl/src/draw/sw/blend/lv_draw_sw_blend_to_al88.c ****                         src_color.lumi = get_bit(src_buf_i1, x) * 255;
 391:Drivers/lvgl/src/draw/sw/blend/lv_draw_sw_blend_to_al88.c ****                         src_color.alpha = opa;
 392:Drivers/lvgl/src/draw/sw/blend/lv_draw_sw_blend_to_al88.c ****                         lv_color_16a_16a_mix(src_color, &dest_buf_al88[x], &cache);
 393:Drivers/lvgl/src/draw/sw/blend/lv_draw_sw_blend_to_al88.c ****                     }
 394:Drivers/lvgl/src/draw/sw/blend/lv_draw_sw_blend_to_al88.c ****                     dest_buf_al88 = drawbuf_next_row(dest_buf_al88, dest_stride);
 395:Drivers/lvgl/src/draw/sw/blend/lv_draw_sw_blend_to_al88.c ****                     src_buf_i1 = drawbuf_next_row(src_buf_i1, src_stride);
 396:Drivers/lvgl/src/draw/sw/blend/lv_draw_sw_blend_to_al88.c ****                 }
 397:Drivers/lvgl/src/draw/sw/blend/lv_draw_sw_blend_to_al88.c ****             }
 398:Drivers/lvgl/src/draw/sw/blend/lv_draw_sw_blend_to_al88.c ****         }
 399:Drivers/lvgl/src/draw/sw/blend/lv_draw_sw_blend_to_al88.c ****         else if(mask_buf && opa >= LV_OPA_MAX) {
 400:Drivers/lvgl/src/draw/sw/blend/lv_draw_sw_blend_to_al88.c ****             if(LV_RESULT_INVALID == LV_DRAW_SW_I1_BLEND_NORMAL_TO_AL88_WITH_MASK(dsc)) {
 401:Drivers/lvgl/src/draw/sw/blend/lv_draw_sw_blend_to_al88.c ****                 for(y = 0; y < h; y++) {
 402:Drivers/lvgl/src/draw/sw/blend/lv_draw_sw_blend_to_al88.c ****                     for(x = 0; x < w; x++) {
 403:Drivers/lvgl/src/draw/sw/blend/lv_draw_sw_blend_to_al88.c ****                         lv_color16a_t src_color;
 404:Drivers/lvgl/src/draw/sw/blend/lv_draw_sw_blend_to_al88.c ****                         src_color.lumi = get_bit(src_buf_i1, x) * 255;
 405:Drivers/lvgl/src/draw/sw/blend/lv_draw_sw_blend_to_al88.c ****                         src_color.alpha = mask_buf[x];
 406:Drivers/lvgl/src/draw/sw/blend/lv_draw_sw_blend_to_al88.c ****                         lv_color_16a_16a_mix(src_color, &dest_buf_al88[x], &cache);
 407:Drivers/lvgl/src/draw/sw/blend/lv_draw_sw_blend_to_al88.c ****                     }
 408:Drivers/lvgl/src/draw/sw/blend/lv_draw_sw_blend_to_al88.c ****                     dest_buf_al88 = drawbuf_next_row(dest_buf_al88, dest_stride);
 409:Drivers/lvgl/src/draw/sw/blend/lv_draw_sw_blend_to_al88.c ****                     src_buf_i1 = drawbuf_next_row(src_buf_i1, src_stride);
 410:Drivers/lvgl/src/draw/sw/blend/lv_draw_sw_blend_to_al88.c ****                     mask_buf += mask_stride;
 411:Drivers/lvgl/src/draw/sw/blend/lv_draw_sw_blend_to_al88.c ****                 }
 412:Drivers/lvgl/src/draw/sw/blend/lv_draw_sw_blend_to_al88.c ****             }
 413:Drivers/lvgl/src/draw/sw/blend/lv_draw_sw_blend_to_al88.c ****         }
 414:Drivers/lvgl/src/draw/sw/blend/lv_draw_sw_blend_to_al88.c ****         else if(mask_buf && opa < LV_OPA_MAX) {
 415:Drivers/lvgl/src/draw/sw/blend/lv_draw_sw_blend_to_al88.c ****             if(LV_RESULT_INVALID == LV_DRAW_SW_I1_BLEND_NORMAL_TO_AL88_MIX_MASK_OPA(dsc)) {
 416:Drivers/lvgl/src/draw/sw/blend/lv_draw_sw_blend_to_al88.c ****                 for(y = 0; y < h; y++) {
 417:Drivers/lvgl/src/draw/sw/blend/lv_draw_sw_blend_to_al88.c ****                     for(x = 0; x < w; x++) {
 418:Drivers/lvgl/src/draw/sw/blend/lv_draw_sw_blend_to_al88.c ****                         lv_color16a_t src_color;
 419:Drivers/lvgl/src/draw/sw/blend/lv_draw_sw_blend_to_al88.c ****                         src_color.lumi = get_bit(src_buf_i1, x) * 255;
 420:Drivers/lvgl/src/draw/sw/blend/lv_draw_sw_blend_to_al88.c ****                         src_color.alpha = LV_OPA_MIX2(mask_buf[x], opa);
 421:Drivers/lvgl/src/draw/sw/blend/lv_draw_sw_blend_to_al88.c ****                         lv_color_16a_16a_mix(src_color, &dest_buf_al88[x], &cache);
 422:Drivers/lvgl/src/draw/sw/blend/lv_draw_sw_blend_to_al88.c ****                     }
 423:Drivers/lvgl/src/draw/sw/blend/lv_draw_sw_blend_to_al88.c ****                     dest_buf_al88 = drawbuf_next_row(dest_buf_al88, dest_stride);
 424:Drivers/lvgl/src/draw/sw/blend/lv_draw_sw_blend_to_al88.c ****                     src_buf_i1 = drawbuf_next_row(src_buf_i1, src_stride);
 425:Drivers/lvgl/src/draw/sw/blend/lv_draw_sw_blend_to_al88.c ****                     mask_buf += mask_stride;
 426:Drivers/lvgl/src/draw/sw/blend/lv_draw_sw_blend_to_al88.c ****                 }
 427:Drivers/lvgl/src/draw/sw/blend/lv_draw_sw_blend_to_al88.c ****             }
 428:Drivers/lvgl/src/draw/sw/blend/lv_draw_sw_blend_to_al88.c ****         }
 429:Drivers/lvgl/src/draw/sw/blend/lv_draw_sw_blend_to_al88.c ****         else {
ARM GAS  /var/folders/qx/2_175_4n2s19vhvtspjhb3qh0000gn/T//cc7k2hqg.s 			page 9


 430:Drivers/lvgl/src/draw/sw/blend/lv_draw_sw_blend_to_al88.c ****             for(y = 0; y < h; y++) {
 431:Drivers/lvgl/src/draw/sw/blend/lv_draw_sw_blend_to_al88.c ****                 for(x = 0; x < w; x++) {
 432:Drivers/lvgl/src/draw/sw/blend/lv_draw_sw_blend_to_al88.c ****                     lv_color16a_t src_color;
 433:Drivers/lvgl/src/draw/sw/blend/lv_draw_sw_blend_to_al88.c ****                     src_color.lumi = get_bit(src_buf_i1, x) * 255;
 434:Drivers/lvgl/src/draw/sw/blend/lv_draw_sw_blend_to_al88.c ****                     if(mask_buf == NULL) src_color.alpha = opa;
 435:Drivers/lvgl/src/draw/sw/blend/lv_draw_sw_blend_to_al88.c ****                     else src_color.alpha = LV_OPA_MIX2(mask_buf[x], opa);
 436:Drivers/lvgl/src/draw/sw/blend/lv_draw_sw_blend_to_al88.c ****                     blend_non_normal_pixel(&dest_buf_al88[x], src_color, dsc->blend_mode, &cache);
 437:Drivers/lvgl/src/draw/sw/blend/lv_draw_sw_blend_to_al88.c ****                 }
 438:Drivers/lvgl/src/draw/sw/blend/lv_draw_sw_blend_to_al88.c ****                 if(mask_buf) mask_buf += mask_stride;
 439:Drivers/lvgl/src/draw/sw/blend/lv_draw_sw_blend_to_al88.c ****                 dest_buf_al88 = drawbuf_next_row(dest_buf_al88, dest_stride);
 440:Drivers/lvgl/src/draw/sw/blend/lv_draw_sw_blend_to_al88.c ****                 src_buf_i1 = drawbuf_next_row(src_buf_i1, src_stride);
 441:Drivers/lvgl/src/draw/sw/blend/lv_draw_sw_blend_to_al88.c ****             }
 442:Drivers/lvgl/src/draw/sw/blend/lv_draw_sw_blend_to_al88.c ****         }
 443:Drivers/lvgl/src/draw/sw/blend/lv_draw_sw_blend_to_al88.c ****     }
 444:Drivers/lvgl/src/draw/sw/blend/lv_draw_sw_blend_to_al88.c **** }
 445:Drivers/lvgl/src/draw/sw/blend/lv_draw_sw_blend_to_al88.c **** #endif
 446:Drivers/lvgl/src/draw/sw/blend/lv_draw_sw_blend_to_al88.c **** 
 447:Drivers/lvgl/src/draw/sw/blend/lv_draw_sw_blend_to_al88.c **** #if LV_DRAW_SW_SUPPORT_L8
 448:Drivers/lvgl/src/draw/sw/blend/lv_draw_sw_blend_to_al88.c **** static void LV_ATTRIBUTE_FAST_MEM l8_image_blend(lv_draw_sw_blend_image_dsc_t * dsc)
 449:Drivers/lvgl/src/draw/sw/blend/lv_draw_sw_blend_to_al88.c **** {
 450:Drivers/lvgl/src/draw/sw/blend/lv_draw_sw_blend_to_al88.c ****     int32_t w = dsc->dest_w;
 451:Drivers/lvgl/src/draw/sw/blend/lv_draw_sw_blend_to_al88.c ****     int32_t h = dsc->dest_h;
 452:Drivers/lvgl/src/draw/sw/blend/lv_draw_sw_blend_to_al88.c ****     lv_opa_t opa = dsc->opa;
 453:Drivers/lvgl/src/draw/sw/blend/lv_draw_sw_blend_to_al88.c ****     lv_color16a_t * dest_buf_al88 = dsc->dest_buf;
 454:Drivers/lvgl/src/draw/sw/blend/lv_draw_sw_blend_to_al88.c ****     int32_t dest_stride = dsc->dest_stride;
 455:Drivers/lvgl/src/draw/sw/blend/lv_draw_sw_blend_to_al88.c ****     const uint8_t * src_buf_l8 = dsc->src_buf;
 456:Drivers/lvgl/src/draw/sw/blend/lv_draw_sw_blend_to_al88.c ****     int32_t src_stride = dsc->src_stride;
 457:Drivers/lvgl/src/draw/sw/blend/lv_draw_sw_blend_to_al88.c ****     const lv_opa_t * mask_buf = dsc->mask_buf;
 458:Drivers/lvgl/src/draw/sw/blend/lv_draw_sw_blend_to_al88.c ****     int32_t mask_stride = dsc->mask_stride;
 459:Drivers/lvgl/src/draw/sw/blend/lv_draw_sw_blend_to_al88.c **** 
 460:Drivers/lvgl/src/draw/sw/blend/lv_draw_sw_blend_to_al88.c ****     lv_color_mix_alpha_cache_t cache;
 461:Drivers/lvgl/src/draw/sw/blend/lv_draw_sw_blend_to_al88.c ****     lv_color_mix_with_alpha_cache_init(&cache);
 462:Drivers/lvgl/src/draw/sw/blend/lv_draw_sw_blend_to_al88.c **** 
 463:Drivers/lvgl/src/draw/sw/blend/lv_draw_sw_blend_to_al88.c ****     int32_t x, y;
 464:Drivers/lvgl/src/draw/sw/blend/lv_draw_sw_blend_to_al88.c **** 
 465:Drivers/lvgl/src/draw/sw/blend/lv_draw_sw_blend_to_al88.c ****     if(dsc->blend_mode == LV_BLEND_MODE_NORMAL) {
 466:Drivers/lvgl/src/draw/sw/blend/lv_draw_sw_blend_to_al88.c ****         if(mask_buf == NULL && opa >= LV_OPA_MAX) {
 467:Drivers/lvgl/src/draw/sw/blend/lv_draw_sw_blend_to_al88.c ****             if(LV_RESULT_INVALID == LV_DRAW_SW_AL88_BLEND_NORMAL_TO_AL88(dsc)) {
 468:Drivers/lvgl/src/draw/sw/blend/lv_draw_sw_blend_to_al88.c ****                 for(y = 0; y < h; y++) {
 469:Drivers/lvgl/src/draw/sw/blend/lv_draw_sw_blend_to_al88.c ****                     for(x = 0; x < w; x++) {
 470:Drivers/lvgl/src/draw/sw/blend/lv_draw_sw_blend_to_al88.c ****                         dest_buf_al88[x].lumi = src_buf_l8[x];
 471:Drivers/lvgl/src/draw/sw/blend/lv_draw_sw_blend_to_al88.c ****                         dest_buf_al88[x].alpha = 255;
 472:Drivers/lvgl/src/draw/sw/blend/lv_draw_sw_blend_to_al88.c ****                     }
 473:Drivers/lvgl/src/draw/sw/blend/lv_draw_sw_blend_to_al88.c ****                     dest_buf_al88 = drawbuf_next_row(dest_buf_al88, dest_stride);
 474:Drivers/lvgl/src/draw/sw/blend/lv_draw_sw_blend_to_al88.c ****                     src_buf_l8 = drawbuf_next_row(src_buf_l8, src_stride);
 475:Drivers/lvgl/src/draw/sw/blend/lv_draw_sw_blend_to_al88.c ****                 }
 476:Drivers/lvgl/src/draw/sw/blend/lv_draw_sw_blend_to_al88.c ****             }
 477:Drivers/lvgl/src/draw/sw/blend/lv_draw_sw_blend_to_al88.c ****         }
 478:Drivers/lvgl/src/draw/sw/blend/lv_draw_sw_blend_to_al88.c ****         else if(mask_buf == NULL && opa < LV_OPA_MAX) {
 479:Drivers/lvgl/src/draw/sw/blend/lv_draw_sw_blend_to_al88.c ****             if(LV_RESULT_INVALID == LV_DRAW_SW_AL88_BLEND_NORMAL_TO_AL88_WITH_OPA(dsc)) {
 480:Drivers/lvgl/src/draw/sw/blend/lv_draw_sw_blend_to_al88.c ****                 for(y = 0; y < h; y++) {
 481:Drivers/lvgl/src/draw/sw/blend/lv_draw_sw_blend_to_al88.c ****                     for(x = 0; x < w; x++) {
 482:Drivers/lvgl/src/draw/sw/blend/lv_draw_sw_blend_to_al88.c ****                         lv_color16a_t src_color;
 483:Drivers/lvgl/src/draw/sw/blend/lv_draw_sw_blend_to_al88.c ****                         src_color.lumi = src_buf_l8[x];
 484:Drivers/lvgl/src/draw/sw/blend/lv_draw_sw_blend_to_al88.c ****                         src_color.alpha = opa;
 485:Drivers/lvgl/src/draw/sw/blend/lv_draw_sw_blend_to_al88.c ****                         lv_color_16a_16a_mix(src_color, &dest_buf_al88[x], &cache);
 486:Drivers/lvgl/src/draw/sw/blend/lv_draw_sw_blend_to_al88.c ****                     }
ARM GAS  /var/folders/qx/2_175_4n2s19vhvtspjhb3qh0000gn/T//cc7k2hqg.s 			page 10


 487:Drivers/lvgl/src/draw/sw/blend/lv_draw_sw_blend_to_al88.c ****                     dest_buf_al88 = drawbuf_next_row(dest_buf_al88, dest_stride);
 488:Drivers/lvgl/src/draw/sw/blend/lv_draw_sw_blend_to_al88.c ****                     src_buf_l8 = drawbuf_next_row(src_buf_l8, src_stride);
 489:Drivers/lvgl/src/draw/sw/blend/lv_draw_sw_blend_to_al88.c ****                 }
 490:Drivers/lvgl/src/draw/sw/blend/lv_draw_sw_blend_to_al88.c ****             }
 491:Drivers/lvgl/src/draw/sw/blend/lv_draw_sw_blend_to_al88.c ****         }
 492:Drivers/lvgl/src/draw/sw/blend/lv_draw_sw_blend_to_al88.c ****         else if(mask_buf && opa >= LV_OPA_MAX) {
 493:Drivers/lvgl/src/draw/sw/blend/lv_draw_sw_blend_to_al88.c ****             if(LV_RESULT_INVALID == LV_DRAW_SW_AL88_BLEND_NORMAL_TO_AL88_WITH_MASK(dsc)) {
 494:Drivers/lvgl/src/draw/sw/blend/lv_draw_sw_blend_to_al88.c ****                 for(y = 0; y < h; y++) {
 495:Drivers/lvgl/src/draw/sw/blend/lv_draw_sw_blend_to_al88.c ****                     for(x = 0; x < w; x++) {
 496:Drivers/lvgl/src/draw/sw/blend/lv_draw_sw_blend_to_al88.c ****                         lv_color16a_t src_color;
 497:Drivers/lvgl/src/draw/sw/blend/lv_draw_sw_blend_to_al88.c ****                         src_color.lumi = src_buf_l8[x];
 498:Drivers/lvgl/src/draw/sw/blend/lv_draw_sw_blend_to_al88.c ****                         src_color.alpha = mask_buf[x];
 499:Drivers/lvgl/src/draw/sw/blend/lv_draw_sw_blend_to_al88.c ****                         lv_color_16a_16a_mix(src_color, &dest_buf_al88[x], &cache);
 500:Drivers/lvgl/src/draw/sw/blend/lv_draw_sw_blend_to_al88.c ****                     }
 501:Drivers/lvgl/src/draw/sw/blend/lv_draw_sw_blend_to_al88.c ****                     dest_buf_al88 = drawbuf_next_row(dest_buf_al88, dest_stride);
 502:Drivers/lvgl/src/draw/sw/blend/lv_draw_sw_blend_to_al88.c ****                     src_buf_l8 = drawbuf_next_row(src_buf_l8, src_stride);
 503:Drivers/lvgl/src/draw/sw/blend/lv_draw_sw_blend_to_al88.c ****                     mask_buf += mask_stride;
 504:Drivers/lvgl/src/draw/sw/blend/lv_draw_sw_blend_to_al88.c ****                 }
 505:Drivers/lvgl/src/draw/sw/blend/lv_draw_sw_blend_to_al88.c ****             }
 506:Drivers/lvgl/src/draw/sw/blend/lv_draw_sw_blend_to_al88.c ****         }
 507:Drivers/lvgl/src/draw/sw/blend/lv_draw_sw_blend_to_al88.c ****         else if(mask_buf && opa < LV_OPA_MAX) {
 508:Drivers/lvgl/src/draw/sw/blend/lv_draw_sw_blend_to_al88.c ****             if(LV_RESULT_INVALID == LV_DRAW_SW_AL88_BLEND_NORMAL_TO_AL88_MIX_MASK_OPA(dsc)) {
 509:Drivers/lvgl/src/draw/sw/blend/lv_draw_sw_blend_to_al88.c ****                 for(y = 0; y < h; y++) {
 510:Drivers/lvgl/src/draw/sw/blend/lv_draw_sw_blend_to_al88.c ****                     for(x = 0; x < w; x++) {
 511:Drivers/lvgl/src/draw/sw/blend/lv_draw_sw_blend_to_al88.c ****                         lv_color16a_t src_color;
 512:Drivers/lvgl/src/draw/sw/blend/lv_draw_sw_blend_to_al88.c ****                         src_color.lumi = src_buf_l8[x];
 513:Drivers/lvgl/src/draw/sw/blend/lv_draw_sw_blend_to_al88.c ****                         src_color.alpha = LV_OPA_MIX2(mask_buf[x], opa);
 514:Drivers/lvgl/src/draw/sw/blend/lv_draw_sw_blend_to_al88.c ****                         lv_color_16a_16a_mix(src_color, &dest_buf_al88[x], &cache);
 515:Drivers/lvgl/src/draw/sw/blend/lv_draw_sw_blend_to_al88.c ****                     }
 516:Drivers/lvgl/src/draw/sw/blend/lv_draw_sw_blend_to_al88.c ****                     dest_buf_al88 = drawbuf_next_row(dest_buf_al88, dest_stride);
 517:Drivers/lvgl/src/draw/sw/blend/lv_draw_sw_blend_to_al88.c ****                     src_buf_l8 = drawbuf_next_row(src_buf_l8, src_stride);
 518:Drivers/lvgl/src/draw/sw/blend/lv_draw_sw_blend_to_al88.c ****                     mask_buf += mask_stride;
 519:Drivers/lvgl/src/draw/sw/blend/lv_draw_sw_blend_to_al88.c ****                 }
 520:Drivers/lvgl/src/draw/sw/blend/lv_draw_sw_blend_to_al88.c ****             }
 521:Drivers/lvgl/src/draw/sw/blend/lv_draw_sw_blend_to_al88.c ****         }
 522:Drivers/lvgl/src/draw/sw/blend/lv_draw_sw_blend_to_al88.c ****     }
 523:Drivers/lvgl/src/draw/sw/blend/lv_draw_sw_blend_to_al88.c ****     else {
 524:Drivers/lvgl/src/draw/sw/blend/lv_draw_sw_blend_to_al88.c ****         for(y = 0; y < h; y++) {
 525:Drivers/lvgl/src/draw/sw/blend/lv_draw_sw_blend_to_al88.c ****             for(x = 0; x < w; x++) {
 526:Drivers/lvgl/src/draw/sw/blend/lv_draw_sw_blend_to_al88.c ****                 lv_color16a_t src_color;
 527:Drivers/lvgl/src/draw/sw/blend/lv_draw_sw_blend_to_al88.c ****                 src_color.lumi = src_buf_l8[x];
 528:Drivers/lvgl/src/draw/sw/blend/lv_draw_sw_blend_to_al88.c ****                 if(mask_buf == NULL) src_color.alpha = opa;
 529:Drivers/lvgl/src/draw/sw/blend/lv_draw_sw_blend_to_al88.c ****                 else src_color.alpha = LV_OPA_MIX2(mask_buf[x], opa);
 530:Drivers/lvgl/src/draw/sw/blend/lv_draw_sw_blend_to_al88.c ****                 blend_non_normal_pixel(&dest_buf_al88[x], src_color, dsc->blend_mode, &cache);
 531:Drivers/lvgl/src/draw/sw/blend/lv_draw_sw_blend_to_al88.c ****             }
 532:Drivers/lvgl/src/draw/sw/blend/lv_draw_sw_blend_to_al88.c ****             if(mask_buf) mask_buf += mask_stride;
 533:Drivers/lvgl/src/draw/sw/blend/lv_draw_sw_blend_to_al88.c ****             dest_buf_al88 = drawbuf_next_row(dest_buf_al88, dest_stride);
 534:Drivers/lvgl/src/draw/sw/blend/lv_draw_sw_blend_to_al88.c ****             src_buf_l8 = drawbuf_next_row(src_buf_l8, src_stride);
 535:Drivers/lvgl/src/draw/sw/blend/lv_draw_sw_blend_to_al88.c ****         }
 536:Drivers/lvgl/src/draw/sw/blend/lv_draw_sw_blend_to_al88.c ****     }
 537:Drivers/lvgl/src/draw/sw/blend/lv_draw_sw_blend_to_al88.c **** }
 538:Drivers/lvgl/src/draw/sw/blend/lv_draw_sw_blend_to_al88.c **** 
 539:Drivers/lvgl/src/draw/sw/blend/lv_draw_sw_blend_to_al88.c **** #endif
 540:Drivers/lvgl/src/draw/sw/blend/lv_draw_sw_blend_to_al88.c **** 
 541:Drivers/lvgl/src/draw/sw/blend/lv_draw_sw_blend_to_al88.c **** static void LV_ATTRIBUTE_FAST_MEM al88_image_blend(lv_draw_sw_blend_image_dsc_t * dsc)
 542:Drivers/lvgl/src/draw/sw/blend/lv_draw_sw_blend_to_al88.c **** {
 543:Drivers/lvgl/src/draw/sw/blend/lv_draw_sw_blend_to_al88.c ****     int32_t w = dsc->dest_w;
ARM GAS  /var/folders/qx/2_175_4n2s19vhvtspjhb3qh0000gn/T//cc7k2hqg.s 			page 11


 544:Drivers/lvgl/src/draw/sw/blend/lv_draw_sw_blend_to_al88.c ****     int32_t h = dsc->dest_h;
 545:Drivers/lvgl/src/draw/sw/blend/lv_draw_sw_blend_to_al88.c ****     lv_opa_t opa = dsc->opa;
 546:Drivers/lvgl/src/draw/sw/blend/lv_draw_sw_blend_to_al88.c ****     lv_color16a_t * dest_buf_al88 = dsc->dest_buf;
 547:Drivers/lvgl/src/draw/sw/blend/lv_draw_sw_blend_to_al88.c ****     int32_t dest_stride = dsc->dest_stride;
 548:Drivers/lvgl/src/draw/sw/blend/lv_draw_sw_blend_to_al88.c ****     const lv_color16a_t * src_buf_al88 = dsc->src_buf;
 549:Drivers/lvgl/src/draw/sw/blend/lv_draw_sw_blend_to_al88.c ****     int32_t src_stride = dsc->src_stride;
 550:Drivers/lvgl/src/draw/sw/blend/lv_draw_sw_blend_to_al88.c ****     const lv_opa_t * mask_buf = dsc->mask_buf;
 551:Drivers/lvgl/src/draw/sw/blend/lv_draw_sw_blend_to_al88.c ****     int32_t mask_stride = dsc->mask_stride;
 552:Drivers/lvgl/src/draw/sw/blend/lv_draw_sw_blend_to_al88.c **** 
 553:Drivers/lvgl/src/draw/sw/blend/lv_draw_sw_blend_to_al88.c ****     lv_color_mix_alpha_cache_t cache;
 554:Drivers/lvgl/src/draw/sw/blend/lv_draw_sw_blend_to_al88.c ****     lv_color_mix_with_alpha_cache_init(&cache);
 555:Drivers/lvgl/src/draw/sw/blend/lv_draw_sw_blend_to_al88.c **** 
 556:Drivers/lvgl/src/draw/sw/blend/lv_draw_sw_blend_to_al88.c ****     int32_t x, y;
 557:Drivers/lvgl/src/draw/sw/blend/lv_draw_sw_blend_to_al88.c **** 
 558:Drivers/lvgl/src/draw/sw/blend/lv_draw_sw_blend_to_al88.c ****     if(dsc->blend_mode == LV_BLEND_MODE_NORMAL) {
 559:Drivers/lvgl/src/draw/sw/blend/lv_draw_sw_blend_to_al88.c ****         if(mask_buf == NULL && opa >= LV_OPA_MAX) {
 560:Drivers/lvgl/src/draw/sw/blend/lv_draw_sw_blend_to_al88.c ****             if(LV_RESULT_INVALID == LV_DRAW_SW_AL88_BLEND_NORMAL_TO_AL88(dsc)) {
 561:Drivers/lvgl/src/draw/sw/blend/lv_draw_sw_blend_to_al88.c ****                 for(y = 0; y < h; y++) {
 562:Drivers/lvgl/src/draw/sw/blend/lv_draw_sw_blend_to_al88.c ****                     for(x = 0; x < w; x++) {
 563:Drivers/lvgl/src/draw/sw/blend/lv_draw_sw_blend_to_al88.c ****                         lv_color_16a_16a_mix(src_buf_al88[x], &dest_buf_al88[x], &cache);
 564:Drivers/lvgl/src/draw/sw/blend/lv_draw_sw_blend_to_al88.c ****                     }
 565:Drivers/lvgl/src/draw/sw/blend/lv_draw_sw_blend_to_al88.c ****                     dest_buf_al88 = drawbuf_next_row(dest_buf_al88, dest_stride);
 566:Drivers/lvgl/src/draw/sw/blend/lv_draw_sw_blend_to_al88.c ****                     src_buf_al88 = drawbuf_next_row(src_buf_al88, src_stride);
 567:Drivers/lvgl/src/draw/sw/blend/lv_draw_sw_blend_to_al88.c ****                 }
 568:Drivers/lvgl/src/draw/sw/blend/lv_draw_sw_blend_to_al88.c ****             }
 569:Drivers/lvgl/src/draw/sw/blend/lv_draw_sw_blend_to_al88.c ****         }
 570:Drivers/lvgl/src/draw/sw/blend/lv_draw_sw_blend_to_al88.c ****         else if(mask_buf == NULL && opa < LV_OPA_MAX) {
 571:Drivers/lvgl/src/draw/sw/blend/lv_draw_sw_blend_to_al88.c ****             if(LV_RESULT_INVALID == LV_DRAW_SW_AL88_BLEND_NORMAL_TO_AL88_WITH_OPA(dsc)) {
 572:Drivers/lvgl/src/draw/sw/blend/lv_draw_sw_blend_to_al88.c ****                 for(y = 0; y < h; y++) {
 573:Drivers/lvgl/src/draw/sw/blend/lv_draw_sw_blend_to_al88.c ****                     for(x = 0; x < w; x++) {
 574:Drivers/lvgl/src/draw/sw/blend/lv_draw_sw_blend_to_al88.c ****                         lv_color16a_t src_color = src_buf_al88[x];
 575:Drivers/lvgl/src/draw/sw/blend/lv_draw_sw_blend_to_al88.c ****                         src_color.alpha = LV_OPA_MIX2(src_color.alpha, opa);
 576:Drivers/lvgl/src/draw/sw/blend/lv_draw_sw_blend_to_al88.c ****                         lv_color_16a_16a_mix(src_color, &dest_buf_al88[x], &cache);
 577:Drivers/lvgl/src/draw/sw/blend/lv_draw_sw_blend_to_al88.c ****                     }
 578:Drivers/lvgl/src/draw/sw/blend/lv_draw_sw_blend_to_al88.c ****                     dest_buf_al88 = drawbuf_next_row(dest_buf_al88, dest_stride);
 579:Drivers/lvgl/src/draw/sw/blend/lv_draw_sw_blend_to_al88.c ****                     src_buf_al88 = drawbuf_next_row(src_buf_al88, src_stride);
 580:Drivers/lvgl/src/draw/sw/blend/lv_draw_sw_blend_to_al88.c ****                 }
 581:Drivers/lvgl/src/draw/sw/blend/lv_draw_sw_blend_to_al88.c ****             }
 582:Drivers/lvgl/src/draw/sw/blend/lv_draw_sw_blend_to_al88.c ****         }
 583:Drivers/lvgl/src/draw/sw/blend/lv_draw_sw_blend_to_al88.c ****         else if(mask_buf && opa >= LV_OPA_MAX) {
 584:Drivers/lvgl/src/draw/sw/blend/lv_draw_sw_blend_to_al88.c ****             if(LV_RESULT_INVALID == LV_DRAW_SW_AL88_BLEND_NORMAL_TO_AL88_WITH_MASK(dsc)) {
 585:Drivers/lvgl/src/draw/sw/blend/lv_draw_sw_blend_to_al88.c ****                 for(y = 0; y < h; y++) {
 586:Drivers/lvgl/src/draw/sw/blend/lv_draw_sw_blend_to_al88.c ****                     for(x = 0; x < w; x++) {
 587:Drivers/lvgl/src/draw/sw/blend/lv_draw_sw_blend_to_al88.c ****                         lv_color16a_t src_color = src_buf_al88[x];
 588:Drivers/lvgl/src/draw/sw/blend/lv_draw_sw_blend_to_al88.c ****                         src_color.alpha = LV_OPA_MIX2(src_color.alpha, mask_buf[x]);
 589:Drivers/lvgl/src/draw/sw/blend/lv_draw_sw_blend_to_al88.c ****                         lv_color_16a_16a_mix(src_color, &dest_buf_al88[x], &cache);
 590:Drivers/lvgl/src/draw/sw/blend/lv_draw_sw_blend_to_al88.c ****                     }
 591:Drivers/lvgl/src/draw/sw/blend/lv_draw_sw_blend_to_al88.c ****                     dest_buf_al88 = drawbuf_next_row(dest_buf_al88, dest_stride);
 592:Drivers/lvgl/src/draw/sw/blend/lv_draw_sw_blend_to_al88.c ****                     src_buf_al88 = drawbuf_next_row(src_buf_al88, src_stride);
 593:Drivers/lvgl/src/draw/sw/blend/lv_draw_sw_blend_to_al88.c ****                     mask_buf += mask_stride;
 594:Drivers/lvgl/src/draw/sw/blend/lv_draw_sw_blend_to_al88.c ****                 }
 595:Drivers/lvgl/src/draw/sw/blend/lv_draw_sw_blend_to_al88.c ****             }
 596:Drivers/lvgl/src/draw/sw/blend/lv_draw_sw_blend_to_al88.c ****         }
 597:Drivers/lvgl/src/draw/sw/blend/lv_draw_sw_blend_to_al88.c ****         else if(mask_buf && opa < LV_OPA_MAX) {
 598:Drivers/lvgl/src/draw/sw/blend/lv_draw_sw_blend_to_al88.c ****             if(LV_RESULT_INVALID == LV_DRAW_SW_AL88_BLEND_NORMAL_TO_AL88_MIX_MASK_OPA(dsc)) {
 599:Drivers/lvgl/src/draw/sw/blend/lv_draw_sw_blend_to_al88.c ****                 for(y = 0; y < h; y++) {
 600:Drivers/lvgl/src/draw/sw/blend/lv_draw_sw_blend_to_al88.c ****                     for(x = 0; x < w; x++) {
ARM GAS  /var/folders/qx/2_175_4n2s19vhvtspjhb3qh0000gn/T//cc7k2hqg.s 			page 12


 601:Drivers/lvgl/src/draw/sw/blend/lv_draw_sw_blend_to_al88.c ****                         lv_color16a_t src_color = src_buf_al88[x];
 602:Drivers/lvgl/src/draw/sw/blend/lv_draw_sw_blend_to_al88.c ****                         src_color.alpha = LV_OPA_MIX3(src_color.alpha, mask_buf[x], opa);
 603:Drivers/lvgl/src/draw/sw/blend/lv_draw_sw_blend_to_al88.c ****                         lv_color_16a_16a_mix(src_color, &dest_buf_al88[x], &cache);
 604:Drivers/lvgl/src/draw/sw/blend/lv_draw_sw_blend_to_al88.c ****                     }
 605:Drivers/lvgl/src/draw/sw/blend/lv_draw_sw_blend_to_al88.c ****                     dest_buf_al88 = drawbuf_next_row(dest_buf_al88, dest_stride);
 606:Drivers/lvgl/src/draw/sw/blend/lv_draw_sw_blend_to_al88.c ****                     src_buf_al88 = drawbuf_next_row(src_buf_al88, src_stride);
 607:Drivers/lvgl/src/draw/sw/blend/lv_draw_sw_blend_to_al88.c ****                     mask_buf += mask_stride;
 608:Drivers/lvgl/src/draw/sw/blend/lv_draw_sw_blend_to_al88.c ****                 }
 609:Drivers/lvgl/src/draw/sw/blend/lv_draw_sw_blend_to_al88.c ****             }
 610:Drivers/lvgl/src/draw/sw/blend/lv_draw_sw_blend_to_al88.c ****         }
 611:Drivers/lvgl/src/draw/sw/blend/lv_draw_sw_blend_to_al88.c ****     }
 612:Drivers/lvgl/src/draw/sw/blend/lv_draw_sw_blend_to_al88.c ****     else {
 613:Drivers/lvgl/src/draw/sw/blend/lv_draw_sw_blend_to_al88.c ****         for(y = 0; y < h; y++) {
 614:Drivers/lvgl/src/draw/sw/blend/lv_draw_sw_blend_to_al88.c ****             for(x = 0; x < w; x++) {
 615:Drivers/lvgl/src/draw/sw/blend/lv_draw_sw_blend_to_al88.c ****                 lv_color16a_t src_color = src_buf_al88[x];
 616:Drivers/lvgl/src/draw/sw/blend/lv_draw_sw_blend_to_al88.c ****                 if(mask_buf == NULL) src_color.alpha = LV_OPA_MIX2(src_color.alpha, opa);
 617:Drivers/lvgl/src/draw/sw/blend/lv_draw_sw_blend_to_al88.c ****                 else src_color.alpha = LV_OPA_MIX3(src_color.alpha, mask_buf[x], opa);
 618:Drivers/lvgl/src/draw/sw/blend/lv_draw_sw_blend_to_al88.c ****                 blend_non_normal_pixel(&dest_buf_al88[x], src_color, dsc->blend_mode, &cache);
 619:Drivers/lvgl/src/draw/sw/blend/lv_draw_sw_blend_to_al88.c ****             }
 620:Drivers/lvgl/src/draw/sw/blend/lv_draw_sw_blend_to_al88.c ****             if(mask_buf) mask_buf += mask_stride;
 621:Drivers/lvgl/src/draw/sw/blend/lv_draw_sw_blend_to_al88.c ****             dest_buf_al88 = drawbuf_next_row(dest_buf_al88, dest_stride);
 622:Drivers/lvgl/src/draw/sw/blend/lv_draw_sw_blend_to_al88.c ****             src_buf_al88 = drawbuf_next_row(src_buf_al88, src_stride);
 623:Drivers/lvgl/src/draw/sw/blend/lv_draw_sw_blend_to_al88.c ****         }
 624:Drivers/lvgl/src/draw/sw/blend/lv_draw_sw_blend_to_al88.c ****     }
 625:Drivers/lvgl/src/draw/sw/blend/lv_draw_sw_blend_to_al88.c **** }
 626:Drivers/lvgl/src/draw/sw/blend/lv_draw_sw_blend_to_al88.c **** 
 627:Drivers/lvgl/src/draw/sw/blend/lv_draw_sw_blend_to_al88.c **** #if LV_DRAW_SW_SUPPORT_RGB565
 628:Drivers/lvgl/src/draw/sw/blend/lv_draw_sw_blend_to_al88.c **** 
 629:Drivers/lvgl/src/draw/sw/blend/lv_draw_sw_blend_to_al88.c **** static void LV_ATTRIBUTE_FAST_MEM rgb565_image_blend(lv_draw_sw_blend_image_dsc_t * dsc)
 630:Drivers/lvgl/src/draw/sw/blend/lv_draw_sw_blend_to_al88.c **** {
 631:Drivers/lvgl/src/draw/sw/blend/lv_draw_sw_blend_to_al88.c ****     int32_t w = dsc->dest_w;
 632:Drivers/lvgl/src/draw/sw/blend/lv_draw_sw_blend_to_al88.c ****     int32_t h = dsc->dest_h;
 633:Drivers/lvgl/src/draw/sw/blend/lv_draw_sw_blend_to_al88.c ****     lv_opa_t opa = dsc->opa;
 634:Drivers/lvgl/src/draw/sw/blend/lv_draw_sw_blend_to_al88.c ****     lv_color16a_t * dest_buf_al88 = dsc->dest_buf;
 635:Drivers/lvgl/src/draw/sw/blend/lv_draw_sw_blend_to_al88.c ****     int32_t dest_stride = dsc->dest_stride;
 636:Drivers/lvgl/src/draw/sw/blend/lv_draw_sw_blend_to_al88.c ****     const lv_color16_t * src_buf_c16 = (const lv_color16_t *)dsc->src_buf;
 637:Drivers/lvgl/src/draw/sw/blend/lv_draw_sw_blend_to_al88.c ****     int32_t src_stride = dsc->src_stride;
 638:Drivers/lvgl/src/draw/sw/blend/lv_draw_sw_blend_to_al88.c ****     const lv_opa_t * mask_buf = dsc->mask_buf;
 639:Drivers/lvgl/src/draw/sw/blend/lv_draw_sw_blend_to_al88.c ****     int32_t mask_stride = dsc->mask_stride;
 640:Drivers/lvgl/src/draw/sw/blend/lv_draw_sw_blend_to_al88.c **** 
 641:Drivers/lvgl/src/draw/sw/blend/lv_draw_sw_blend_to_al88.c ****     lv_color_mix_alpha_cache_t cache;
 642:Drivers/lvgl/src/draw/sw/blend/lv_draw_sw_blend_to_al88.c ****     lv_color_mix_with_alpha_cache_init(&cache);
 643:Drivers/lvgl/src/draw/sw/blend/lv_draw_sw_blend_to_al88.c **** 
 644:Drivers/lvgl/src/draw/sw/blend/lv_draw_sw_blend_to_al88.c ****     int32_t x, y;
 645:Drivers/lvgl/src/draw/sw/blend/lv_draw_sw_blend_to_al88.c **** 
 646:Drivers/lvgl/src/draw/sw/blend/lv_draw_sw_blend_to_al88.c ****     if(dsc->blend_mode == LV_BLEND_MODE_NORMAL) {
 647:Drivers/lvgl/src/draw/sw/blend/lv_draw_sw_blend_to_al88.c ****         if(mask_buf == NULL && opa >= LV_OPA_MAX) {
 648:Drivers/lvgl/src/draw/sw/blend/lv_draw_sw_blend_to_al88.c ****             if(LV_RESULT_INVALID == LV_DRAW_SW_RGB565_BLEND_NORMAL_TO_AL88(dsc)) {
 649:Drivers/lvgl/src/draw/sw/blend/lv_draw_sw_blend_to_al88.c ****                 for(y = 0; y < h; y++) {
 650:Drivers/lvgl/src/draw/sw/blend/lv_draw_sw_blend_to_al88.c **** 
 651:Drivers/lvgl/src/draw/sw/blend/lv_draw_sw_blend_to_al88.c ****                     for(x = 0; x < w; x++) {
 652:Drivers/lvgl/src/draw/sw/blend/lv_draw_sw_blend_to_al88.c ****                         dest_buf_al88[x].lumi = lv_color16_luminance(src_buf_c16[x]);
 653:Drivers/lvgl/src/draw/sw/blend/lv_draw_sw_blend_to_al88.c ****                         dest_buf_al88[x].alpha = 255;
 654:Drivers/lvgl/src/draw/sw/blend/lv_draw_sw_blend_to_al88.c ****                     }
 655:Drivers/lvgl/src/draw/sw/blend/lv_draw_sw_blend_to_al88.c ****                     dest_buf_al88 = drawbuf_next_row(dest_buf_al88, dest_stride);
 656:Drivers/lvgl/src/draw/sw/blend/lv_draw_sw_blend_to_al88.c ****                     src_buf_c16 = drawbuf_next_row(src_buf_c16, src_stride);
 657:Drivers/lvgl/src/draw/sw/blend/lv_draw_sw_blend_to_al88.c ****                 }
ARM GAS  /var/folders/qx/2_175_4n2s19vhvtspjhb3qh0000gn/T//cc7k2hqg.s 			page 13


 658:Drivers/lvgl/src/draw/sw/blend/lv_draw_sw_blend_to_al88.c ****             }
 659:Drivers/lvgl/src/draw/sw/blend/lv_draw_sw_blend_to_al88.c ****         }
 660:Drivers/lvgl/src/draw/sw/blend/lv_draw_sw_blend_to_al88.c ****         else if(mask_buf == NULL && opa < LV_OPA_MAX) {
 661:Drivers/lvgl/src/draw/sw/blend/lv_draw_sw_blend_to_al88.c ****             if(LV_RESULT_INVALID == LV_DRAW_SW_RGB565_BLEND_NORMAL_TO_AL88_WITH_OPA(dsc, dest_px_si
 662:Drivers/lvgl/src/draw/sw/blend/lv_draw_sw_blend_to_al88.c ****                 for(y = 0; y < h; y++) {
 663:Drivers/lvgl/src/draw/sw/blend/lv_draw_sw_blend_to_al88.c ****                     for(x = 0; x < w; x++) {
 664:Drivers/lvgl/src/draw/sw/blend/lv_draw_sw_blend_to_al88.c ****                         lv_color16a_t src_color;
 665:Drivers/lvgl/src/draw/sw/blend/lv_draw_sw_blend_to_al88.c ****                         src_color.lumi = lv_color16_luminance(src_buf_c16[x]);
 666:Drivers/lvgl/src/draw/sw/blend/lv_draw_sw_blend_to_al88.c ****                         src_color.alpha = opa;
 667:Drivers/lvgl/src/draw/sw/blend/lv_draw_sw_blend_to_al88.c ****                         lv_color_16a_16a_mix(src_color, &dest_buf_al88[x], &cache);
 668:Drivers/lvgl/src/draw/sw/blend/lv_draw_sw_blend_to_al88.c ****                     }
 669:Drivers/lvgl/src/draw/sw/blend/lv_draw_sw_blend_to_al88.c ****                     dest_buf_al88 = drawbuf_next_row(dest_buf_al88, dest_stride);
 670:Drivers/lvgl/src/draw/sw/blend/lv_draw_sw_blend_to_al88.c ****                     src_buf_c16 = drawbuf_next_row(src_buf_c16, src_stride);
 671:Drivers/lvgl/src/draw/sw/blend/lv_draw_sw_blend_to_al88.c ****                 }
 672:Drivers/lvgl/src/draw/sw/blend/lv_draw_sw_blend_to_al88.c ****             }
 673:Drivers/lvgl/src/draw/sw/blend/lv_draw_sw_blend_to_al88.c ****         }
 674:Drivers/lvgl/src/draw/sw/blend/lv_draw_sw_blend_to_al88.c ****         else if(mask_buf && opa >= LV_OPA_MAX) {
 675:Drivers/lvgl/src/draw/sw/blend/lv_draw_sw_blend_to_al88.c ****             if(LV_RESULT_INVALID == LV_DRAW_SW_RGB565_BLEND_NORMAL_TO_AL88_WITH_MASK(dsc, dest_px_s
 676:Drivers/lvgl/src/draw/sw/blend/lv_draw_sw_blend_to_al88.c ****                 for(y = 0; y < h; y++) {
 677:Drivers/lvgl/src/draw/sw/blend/lv_draw_sw_blend_to_al88.c ****                     for(x = 0; x < w; x++) {
 678:Drivers/lvgl/src/draw/sw/blend/lv_draw_sw_blend_to_al88.c ****                         lv_color16a_t src_color;
 679:Drivers/lvgl/src/draw/sw/blend/lv_draw_sw_blend_to_al88.c ****                         src_color.lumi = lv_color16_luminance(src_buf_c16[x]);
 680:Drivers/lvgl/src/draw/sw/blend/lv_draw_sw_blend_to_al88.c ****                         src_color.alpha = mask_buf[x];
 681:Drivers/lvgl/src/draw/sw/blend/lv_draw_sw_blend_to_al88.c ****                         lv_color_16a_16a_mix(src_color, &dest_buf_al88[x], &cache);
 682:Drivers/lvgl/src/draw/sw/blend/lv_draw_sw_blend_to_al88.c ****                     }
 683:Drivers/lvgl/src/draw/sw/blend/lv_draw_sw_blend_to_al88.c ****                     dest_buf_al88 = drawbuf_next_row(dest_buf_al88, dest_stride);
 684:Drivers/lvgl/src/draw/sw/blend/lv_draw_sw_blend_to_al88.c ****                     src_buf_c16 = drawbuf_next_row(src_buf_c16, src_stride);
 685:Drivers/lvgl/src/draw/sw/blend/lv_draw_sw_blend_to_al88.c ****                     mask_buf += mask_stride;
 686:Drivers/lvgl/src/draw/sw/blend/lv_draw_sw_blend_to_al88.c ****                 }
 687:Drivers/lvgl/src/draw/sw/blend/lv_draw_sw_blend_to_al88.c ****             }
 688:Drivers/lvgl/src/draw/sw/blend/lv_draw_sw_blend_to_al88.c ****         }
 689:Drivers/lvgl/src/draw/sw/blend/lv_draw_sw_blend_to_al88.c ****         else {
 690:Drivers/lvgl/src/draw/sw/blend/lv_draw_sw_blend_to_al88.c ****             if(LV_RESULT_INVALID == LV_DRAW_SW_RGB565_BLEND_NORMAL_TO_AL88_MIX_MASK_OPA(dsc, dest_p
 691:Drivers/lvgl/src/draw/sw/blend/lv_draw_sw_blend_to_al88.c ****                 for(y = 0; y < h; y++) {
 692:Drivers/lvgl/src/draw/sw/blend/lv_draw_sw_blend_to_al88.c ****                     for(x = 0; x < w; x++) {
 693:Drivers/lvgl/src/draw/sw/blend/lv_draw_sw_blend_to_al88.c ****                         lv_color16a_t src_color;
 694:Drivers/lvgl/src/draw/sw/blend/lv_draw_sw_blend_to_al88.c ****                         src_color.lumi = lv_color16_luminance(src_buf_c16[x]);
 695:Drivers/lvgl/src/draw/sw/blend/lv_draw_sw_blend_to_al88.c ****                         src_color.alpha = LV_OPA_MIX2(mask_buf[x], opa);
 696:Drivers/lvgl/src/draw/sw/blend/lv_draw_sw_blend_to_al88.c ****                         lv_color_16a_16a_mix(src_color, &dest_buf_al88[x], &cache);
 697:Drivers/lvgl/src/draw/sw/blend/lv_draw_sw_blend_to_al88.c ****                     }
 698:Drivers/lvgl/src/draw/sw/blend/lv_draw_sw_blend_to_al88.c ****                     dest_buf_al88 = drawbuf_next_row(dest_buf_al88, dest_stride);
 699:Drivers/lvgl/src/draw/sw/blend/lv_draw_sw_blend_to_al88.c ****                     src_buf_c16 = drawbuf_next_row(src_buf_c16, src_stride);
 700:Drivers/lvgl/src/draw/sw/blend/lv_draw_sw_blend_to_al88.c ****                     mask_buf += mask_stride;
 701:Drivers/lvgl/src/draw/sw/blend/lv_draw_sw_blend_to_al88.c ****                 }
 702:Drivers/lvgl/src/draw/sw/blend/lv_draw_sw_blend_to_al88.c ****             }
 703:Drivers/lvgl/src/draw/sw/blend/lv_draw_sw_blend_to_al88.c ****         }
 704:Drivers/lvgl/src/draw/sw/blend/lv_draw_sw_blend_to_al88.c ****     }
 705:Drivers/lvgl/src/draw/sw/blend/lv_draw_sw_blend_to_al88.c ****     else {
 706:Drivers/lvgl/src/draw/sw/blend/lv_draw_sw_blend_to_al88.c ****         for(y = 0; y < h; y++) {
 707:Drivers/lvgl/src/draw/sw/blend/lv_draw_sw_blend_to_al88.c ****             for(x = 0; x < w; x++) {
 708:Drivers/lvgl/src/draw/sw/blend/lv_draw_sw_blend_to_al88.c ****                 lv_color16a_t src_color;
 709:Drivers/lvgl/src/draw/sw/blend/lv_draw_sw_blend_to_al88.c ****                 src_color.lumi = lv_color16_luminance(src_buf_c16[x]);
 710:Drivers/lvgl/src/draw/sw/blend/lv_draw_sw_blend_to_al88.c ****                 if(mask_buf == NULL) src_color.alpha = opa;
 711:Drivers/lvgl/src/draw/sw/blend/lv_draw_sw_blend_to_al88.c ****                 else src_color.alpha = LV_OPA_MIX2(mask_buf[x], opa);
 712:Drivers/lvgl/src/draw/sw/blend/lv_draw_sw_blend_to_al88.c ****                 blend_non_normal_pixel(&dest_buf_al88[x], src_color, dsc->blend_mode, &cache);
 713:Drivers/lvgl/src/draw/sw/blend/lv_draw_sw_blend_to_al88.c ****             }
 714:Drivers/lvgl/src/draw/sw/blend/lv_draw_sw_blend_to_al88.c ****             if(mask_buf) mask_buf += mask_stride;
ARM GAS  /var/folders/qx/2_175_4n2s19vhvtspjhb3qh0000gn/T//cc7k2hqg.s 			page 14


 715:Drivers/lvgl/src/draw/sw/blend/lv_draw_sw_blend_to_al88.c ****             dest_buf_al88 = drawbuf_next_row(dest_buf_al88, dest_stride);
 716:Drivers/lvgl/src/draw/sw/blend/lv_draw_sw_blend_to_al88.c ****             src_buf_c16 = drawbuf_next_row(src_buf_c16, src_stride);
 717:Drivers/lvgl/src/draw/sw/blend/lv_draw_sw_blend_to_al88.c ****         }
 718:Drivers/lvgl/src/draw/sw/blend/lv_draw_sw_blend_to_al88.c ****     }
 719:Drivers/lvgl/src/draw/sw/blend/lv_draw_sw_blend_to_al88.c **** }
 720:Drivers/lvgl/src/draw/sw/blend/lv_draw_sw_blend_to_al88.c **** 
 721:Drivers/lvgl/src/draw/sw/blend/lv_draw_sw_blend_to_al88.c **** #endif
 722:Drivers/lvgl/src/draw/sw/blend/lv_draw_sw_blend_to_al88.c **** 
 723:Drivers/lvgl/src/draw/sw/blend/lv_draw_sw_blend_to_al88.c **** #if LV_DRAW_SW_SUPPORT_RGB888 || LV_DRAW_SW_SUPPORT_XRGB8888
 724:Drivers/lvgl/src/draw/sw/blend/lv_draw_sw_blend_to_al88.c **** 
 725:Drivers/lvgl/src/draw/sw/blend/lv_draw_sw_blend_to_al88.c **** static void LV_ATTRIBUTE_FAST_MEM rgb888_image_blend(lv_draw_sw_blend_image_dsc_t * dsc,
 726:Drivers/lvgl/src/draw/sw/blend/lv_draw_sw_blend_to_al88.c ****                                                      const uint8_t src_px_size)
 727:Drivers/lvgl/src/draw/sw/blend/lv_draw_sw_blend_to_al88.c **** {
 728:Drivers/lvgl/src/draw/sw/blend/lv_draw_sw_blend_to_al88.c ****     int32_t w = dsc->dest_w;
 729:Drivers/lvgl/src/draw/sw/blend/lv_draw_sw_blend_to_al88.c ****     int32_t h = dsc->dest_h;
 730:Drivers/lvgl/src/draw/sw/blend/lv_draw_sw_blend_to_al88.c ****     lv_opa_t opa = dsc->opa;
 731:Drivers/lvgl/src/draw/sw/blend/lv_draw_sw_blend_to_al88.c ****     lv_color16a_t * dest_buf_al88 = dsc->dest_buf;
 732:Drivers/lvgl/src/draw/sw/blend/lv_draw_sw_blend_to_al88.c ****     int32_t dest_stride = dsc->dest_stride;
 733:Drivers/lvgl/src/draw/sw/blend/lv_draw_sw_blend_to_al88.c ****     const uint8_t * src_buf_u8 = dsc->src_buf;
 734:Drivers/lvgl/src/draw/sw/blend/lv_draw_sw_blend_to_al88.c ****     int32_t src_stride = dsc->src_stride;
 735:Drivers/lvgl/src/draw/sw/blend/lv_draw_sw_blend_to_al88.c ****     const lv_opa_t * mask_buf = dsc->mask_buf;
 736:Drivers/lvgl/src/draw/sw/blend/lv_draw_sw_blend_to_al88.c ****     int32_t mask_stride = dsc->mask_stride;
 737:Drivers/lvgl/src/draw/sw/blend/lv_draw_sw_blend_to_al88.c **** 
 738:Drivers/lvgl/src/draw/sw/blend/lv_draw_sw_blend_to_al88.c ****     lv_color_mix_alpha_cache_t cache;
 739:Drivers/lvgl/src/draw/sw/blend/lv_draw_sw_blend_to_al88.c ****     lv_color_mix_with_alpha_cache_init(&cache);
 740:Drivers/lvgl/src/draw/sw/blend/lv_draw_sw_blend_to_al88.c **** 
 741:Drivers/lvgl/src/draw/sw/blend/lv_draw_sw_blend_to_al88.c ****     int32_t dest_x;
 742:Drivers/lvgl/src/draw/sw/blend/lv_draw_sw_blend_to_al88.c ****     int32_t src_x;
 743:Drivers/lvgl/src/draw/sw/blend/lv_draw_sw_blend_to_al88.c ****     int32_t y;
 744:Drivers/lvgl/src/draw/sw/blend/lv_draw_sw_blend_to_al88.c **** 
 745:Drivers/lvgl/src/draw/sw/blend/lv_draw_sw_blend_to_al88.c ****     if(dsc->blend_mode == LV_BLEND_MODE_NORMAL) {
 746:Drivers/lvgl/src/draw/sw/blend/lv_draw_sw_blend_to_al88.c ****         /*Special case*/
 747:Drivers/lvgl/src/draw/sw/blend/lv_draw_sw_blend_to_al88.c ****         if(mask_buf == NULL && opa >= LV_OPA_MAX) {
 748:Drivers/lvgl/src/draw/sw/blend/lv_draw_sw_blend_to_al88.c ****             if(LV_RESULT_INVALID == LV_DRAW_SW_RGB888_BLEND_NORMAL_TO_AL88(dsc, src_px_size)) {
 749:Drivers/lvgl/src/draw/sw/blend/lv_draw_sw_blend_to_al88.c ****                 for(y = 0; y < h; y++) {
 750:Drivers/lvgl/src/draw/sw/blend/lv_draw_sw_blend_to_al88.c ****                     for(dest_x = 0, src_x = 0; dest_x < w; dest_x++, src_x += src_px_size) {
 751:Drivers/lvgl/src/draw/sw/blend/lv_draw_sw_blend_to_al88.c ****                         dest_buf_al88[dest_x].lumi = lv_color24_luminance(&src_buf_u8[src_x]);
 752:Drivers/lvgl/src/draw/sw/blend/lv_draw_sw_blend_to_al88.c ****                         dest_buf_al88[dest_x].alpha = 255;
 753:Drivers/lvgl/src/draw/sw/blend/lv_draw_sw_blend_to_al88.c ****                     }
 754:Drivers/lvgl/src/draw/sw/blend/lv_draw_sw_blend_to_al88.c ****                     dest_buf_al88 = drawbuf_next_row(dest_buf_al88, dest_stride);
 755:Drivers/lvgl/src/draw/sw/blend/lv_draw_sw_blend_to_al88.c ****                     src_buf_u8 += src_stride;
 756:Drivers/lvgl/src/draw/sw/blend/lv_draw_sw_blend_to_al88.c ****                 }
 757:Drivers/lvgl/src/draw/sw/blend/lv_draw_sw_blend_to_al88.c ****             }
 758:Drivers/lvgl/src/draw/sw/blend/lv_draw_sw_blend_to_al88.c ****         }
 759:Drivers/lvgl/src/draw/sw/blend/lv_draw_sw_blend_to_al88.c ****         if(mask_buf == NULL && opa < LV_OPA_MAX) {
 760:Drivers/lvgl/src/draw/sw/blend/lv_draw_sw_blend_to_al88.c ****             if(LV_RESULT_INVALID == LV_DRAW_SW_RGB888_BLEND_NORMAL_TO_AL88_WITH_OPA(dsc, dest_px_si
 761:Drivers/lvgl/src/draw/sw/blend/lv_draw_sw_blend_to_al88.c ****                 for(y = 0; y < h; y++) {
 762:Drivers/lvgl/src/draw/sw/blend/lv_draw_sw_blend_to_al88.c ****                     for(dest_x = 0, src_x = 0; dest_x < w; dest_x++, src_x += src_px_size) {
 763:Drivers/lvgl/src/draw/sw/blend/lv_draw_sw_blend_to_al88.c ****                         lv_color16a_t src_color;
 764:Drivers/lvgl/src/draw/sw/blend/lv_draw_sw_blend_to_al88.c ****                         src_color.lumi = lv_color24_luminance(&src_buf_u8[src_x]);
 765:Drivers/lvgl/src/draw/sw/blend/lv_draw_sw_blend_to_al88.c ****                         src_color.alpha = opa;
 766:Drivers/lvgl/src/draw/sw/blend/lv_draw_sw_blend_to_al88.c ****                         lv_color_16a_16a_mix(src_color, &dest_buf_al88[dest_x], &cache);
 767:Drivers/lvgl/src/draw/sw/blend/lv_draw_sw_blend_to_al88.c ****                     }
 768:Drivers/lvgl/src/draw/sw/blend/lv_draw_sw_blend_to_al88.c ****                     dest_buf_al88 = drawbuf_next_row(dest_buf_al88, dest_stride);
 769:Drivers/lvgl/src/draw/sw/blend/lv_draw_sw_blend_to_al88.c ****                     src_buf_u8 += src_stride;
 770:Drivers/lvgl/src/draw/sw/blend/lv_draw_sw_blend_to_al88.c ****                 }
 771:Drivers/lvgl/src/draw/sw/blend/lv_draw_sw_blend_to_al88.c ****             }
ARM GAS  /var/folders/qx/2_175_4n2s19vhvtspjhb3qh0000gn/T//cc7k2hqg.s 			page 15


 772:Drivers/lvgl/src/draw/sw/blend/lv_draw_sw_blend_to_al88.c ****         }
 773:Drivers/lvgl/src/draw/sw/blend/lv_draw_sw_blend_to_al88.c ****         if(mask_buf && opa >= LV_OPA_MAX) {
 774:Drivers/lvgl/src/draw/sw/blend/lv_draw_sw_blend_to_al88.c ****             if(LV_RESULT_INVALID == LV_DRAW_SW_RGB888_BLEND_NORMAL_TO_AL88_WITH_MASK(dsc, dest_px_s
 775:Drivers/lvgl/src/draw/sw/blend/lv_draw_sw_blend_to_al88.c ****                 uint32_t mask_x;
 776:Drivers/lvgl/src/draw/sw/blend/lv_draw_sw_blend_to_al88.c ****                 for(y = 0; y < h; y++) {
 777:Drivers/lvgl/src/draw/sw/blend/lv_draw_sw_blend_to_al88.c ****                     for(mask_x = 0, dest_x = 0, src_x = 0; dest_x < w; mask_x++, dest_x++, src_x +=
 778:Drivers/lvgl/src/draw/sw/blend/lv_draw_sw_blend_to_al88.c ****                         lv_color16a_t src_color;
 779:Drivers/lvgl/src/draw/sw/blend/lv_draw_sw_blend_to_al88.c ****                         src_color.lumi = lv_color24_luminance(&src_buf_u8[src_x]);
 780:Drivers/lvgl/src/draw/sw/blend/lv_draw_sw_blend_to_al88.c ****                         src_color.alpha = mask_buf[mask_x];
 781:Drivers/lvgl/src/draw/sw/blend/lv_draw_sw_blend_to_al88.c ****                         lv_color_16a_16a_mix(src_color, &dest_buf_al88[dest_x], &cache);
 782:Drivers/lvgl/src/draw/sw/blend/lv_draw_sw_blend_to_al88.c ****                     }
 783:Drivers/lvgl/src/draw/sw/blend/lv_draw_sw_blend_to_al88.c ****                     dest_buf_al88 = drawbuf_next_row(dest_buf_al88, dest_stride);
 784:Drivers/lvgl/src/draw/sw/blend/lv_draw_sw_blend_to_al88.c ****                     src_buf_u8 += src_stride;
 785:Drivers/lvgl/src/draw/sw/blend/lv_draw_sw_blend_to_al88.c ****                     mask_buf += mask_stride;
 786:Drivers/lvgl/src/draw/sw/blend/lv_draw_sw_blend_to_al88.c ****                 }
 787:Drivers/lvgl/src/draw/sw/blend/lv_draw_sw_blend_to_al88.c ****             }
 788:Drivers/lvgl/src/draw/sw/blend/lv_draw_sw_blend_to_al88.c ****         }
 789:Drivers/lvgl/src/draw/sw/blend/lv_draw_sw_blend_to_al88.c ****         if(mask_buf && opa < LV_OPA_MAX) {
 790:Drivers/lvgl/src/draw/sw/blend/lv_draw_sw_blend_to_al88.c ****             if(LV_RESULT_INVALID == LV_DRAW_SW_RGB888_BLEND_NORMAL_TO_AL88_MIX_MASK_OPA(dsc, dest_p
 791:Drivers/lvgl/src/draw/sw/blend/lv_draw_sw_blend_to_al88.c ****                 uint32_t mask_x;
 792:Drivers/lvgl/src/draw/sw/blend/lv_draw_sw_blend_to_al88.c ****                 for(y = 0; y < h; y++) {
 793:Drivers/lvgl/src/draw/sw/blend/lv_draw_sw_blend_to_al88.c ****                     for(mask_x = 0, dest_x = 0, src_x = 0; dest_x < w; mask_x++, dest_x++, src_x +=
 794:Drivers/lvgl/src/draw/sw/blend/lv_draw_sw_blend_to_al88.c ****                         lv_color16a_t src_color;
 795:Drivers/lvgl/src/draw/sw/blend/lv_draw_sw_blend_to_al88.c ****                         src_color.lumi = lv_color24_luminance(&src_buf_u8[src_x]);
 796:Drivers/lvgl/src/draw/sw/blend/lv_draw_sw_blend_to_al88.c ****                         src_color.alpha = LV_OPA_MIX2(mask_buf[mask_x], opa);
 797:Drivers/lvgl/src/draw/sw/blend/lv_draw_sw_blend_to_al88.c ****                         lv_color_16a_16a_mix(src_color, &dest_buf_al88[dest_x], &cache);
 798:Drivers/lvgl/src/draw/sw/blend/lv_draw_sw_blend_to_al88.c ****                     }
 799:Drivers/lvgl/src/draw/sw/blend/lv_draw_sw_blend_to_al88.c ****                     dest_buf_al88 = drawbuf_next_row(dest_buf_al88, dest_stride);
 800:Drivers/lvgl/src/draw/sw/blend/lv_draw_sw_blend_to_al88.c ****                     src_buf_u8 += src_stride;
 801:Drivers/lvgl/src/draw/sw/blend/lv_draw_sw_blend_to_al88.c ****                     mask_buf += mask_stride;
 802:Drivers/lvgl/src/draw/sw/blend/lv_draw_sw_blend_to_al88.c ****                 }
 803:Drivers/lvgl/src/draw/sw/blend/lv_draw_sw_blend_to_al88.c ****             }
 804:Drivers/lvgl/src/draw/sw/blend/lv_draw_sw_blend_to_al88.c ****         }
 805:Drivers/lvgl/src/draw/sw/blend/lv_draw_sw_blend_to_al88.c ****     }
 806:Drivers/lvgl/src/draw/sw/blend/lv_draw_sw_blend_to_al88.c ****     else {
 807:Drivers/lvgl/src/draw/sw/blend/lv_draw_sw_blend_to_al88.c ****         for(y = 0; y < h; y++) {
 808:Drivers/lvgl/src/draw/sw/blend/lv_draw_sw_blend_to_al88.c ****             for(dest_x = 0, src_x = 0; dest_x < w; dest_x++, src_x += src_px_size) {
 809:Drivers/lvgl/src/draw/sw/blend/lv_draw_sw_blend_to_al88.c ****                 lv_color16a_t src_color;
 810:Drivers/lvgl/src/draw/sw/blend/lv_draw_sw_blend_to_al88.c ****                 src_color.lumi = lv_color24_luminance(&src_buf_u8[src_x]);
 811:Drivers/lvgl/src/draw/sw/blend/lv_draw_sw_blend_to_al88.c ****                 if(mask_buf == NULL) src_color.alpha = opa;
 812:Drivers/lvgl/src/draw/sw/blend/lv_draw_sw_blend_to_al88.c ****                 else src_color.alpha = LV_OPA_MIX2(mask_buf[dest_x], opa);
 813:Drivers/lvgl/src/draw/sw/blend/lv_draw_sw_blend_to_al88.c **** 
 814:Drivers/lvgl/src/draw/sw/blend/lv_draw_sw_blend_to_al88.c ****                 blend_non_normal_pixel(&dest_buf_al88[dest_x], src_color, dsc->blend_mode, &cache);
 815:Drivers/lvgl/src/draw/sw/blend/lv_draw_sw_blend_to_al88.c ****             }
 816:Drivers/lvgl/src/draw/sw/blend/lv_draw_sw_blend_to_al88.c ****             if(mask_buf) mask_buf += mask_stride;
 817:Drivers/lvgl/src/draw/sw/blend/lv_draw_sw_blend_to_al88.c ****             dest_buf_al88 = drawbuf_next_row(dest_buf_al88, dest_stride);
 818:Drivers/lvgl/src/draw/sw/blend/lv_draw_sw_blend_to_al88.c ****             src_buf_u8 += src_stride;
 819:Drivers/lvgl/src/draw/sw/blend/lv_draw_sw_blend_to_al88.c ****         }
 820:Drivers/lvgl/src/draw/sw/blend/lv_draw_sw_blend_to_al88.c ****     }
 821:Drivers/lvgl/src/draw/sw/blend/lv_draw_sw_blend_to_al88.c **** }
 822:Drivers/lvgl/src/draw/sw/blend/lv_draw_sw_blend_to_al88.c **** 
 823:Drivers/lvgl/src/draw/sw/blend/lv_draw_sw_blend_to_al88.c **** #endif
 824:Drivers/lvgl/src/draw/sw/blend/lv_draw_sw_blend_to_al88.c **** 
 825:Drivers/lvgl/src/draw/sw/blend/lv_draw_sw_blend_to_al88.c **** #if LV_DRAW_SW_SUPPORT_ARGB8888
 826:Drivers/lvgl/src/draw/sw/blend/lv_draw_sw_blend_to_al88.c **** 
 827:Drivers/lvgl/src/draw/sw/blend/lv_draw_sw_blend_to_al88.c **** static void LV_ATTRIBUTE_FAST_MEM argb8888_image_blend(lv_draw_sw_blend_image_dsc_t * dsc)
 828:Drivers/lvgl/src/draw/sw/blend/lv_draw_sw_blend_to_al88.c **** {
ARM GAS  /var/folders/qx/2_175_4n2s19vhvtspjhb3qh0000gn/T//cc7k2hqg.s 			page 16


 829:Drivers/lvgl/src/draw/sw/blend/lv_draw_sw_blend_to_al88.c ****     int32_t w = dsc->dest_w;
 830:Drivers/lvgl/src/draw/sw/blend/lv_draw_sw_blend_to_al88.c ****     int32_t h = dsc->dest_h;
 831:Drivers/lvgl/src/draw/sw/blend/lv_draw_sw_blend_to_al88.c ****     lv_opa_t opa = dsc->opa;
 832:Drivers/lvgl/src/draw/sw/blend/lv_draw_sw_blend_to_al88.c ****     lv_color16a_t * dest_buf_al88 = dsc->dest_buf;
 833:Drivers/lvgl/src/draw/sw/blend/lv_draw_sw_blend_to_al88.c ****     int32_t dest_stride = dsc->dest_stride;
 834:Drivers/lvgl/src/draw/sw/blend/lv_draw_sw_blend_to_al88.c ****     const lv_color32_t * src_buf_c32 = dsc->src_buf;
 835:Drivers/lvgl/src/draw/sw/blend/lv_draw_sw_blend_to_al88.c ****     int32_t src_stride = dsc->src_stride;
 836:Drivers/lvgl/src/draw/sw/blend/lv_draw_sw_blend_to_al88.c ****     const lv_opa_t * mask_buf = dsc->mask_buf;
 837:Drivers/lvgl/src/draw/sw/blend/lv_draw_sw_blend_to_al88.c ****     int32_t mask_stride = dsc->mask_stride;
 838:Drivers/lvgl/src/draw/sw/blend/lv_draw_sw_blend_to_al88.c **** 
 839:Drivers/lvgl/src/draw/sw/blend/lv_draw_sw_blend_to_al88.c ****     lv_color_mix_alpha_cache_t cache;
 840:Drivers/lvgl/src/draw/sw/blend/lv_draw_sw_blend_to_al88.c ****     lv_color_mix_with_alpha_cache_init(&cache);
 841:Drivers/lvgl/src/draw/sw/blend/lv_draw_sw_blend_to_al88.c **** 
 842:Drivers/lvgl/src/draw/sw/blend/lv_draw_sw_blend_to_al88.c ****     int32_t x;
 843:Drivers/lvgl/src/draw/sw/blend/lv_draw_sw_blend_to_al88.c ****     int32_t y;
 844:Drivers/lvgl/src/draw/sw/blend/lv_draw_sw_blend_to_al88.c **** 
 845:Drivers/lvgl/src/draw/sw/blend/lv_draw_sw_blend_to_al88.c ****     if(dsc->blend_mode == LV_BLEND_MODE_NORMAL) {
 846:Drivers/lvgl/src/draw/sw/blend/lv_draw_sw_blend_to_al88.c ****         if(mask_buf == NULL && opa >= LV_OPA_MAX) {
 847:Drivers/lvgl/src/draw/sw/blend/lv_draw_sw_blend_to_al88.c ****             if(LV_RESULT_INVALID == LV_DRAW_SW_ARGB8888_BLEND_NORMAL_TO_AL88(dsc)) {
 848:Drivers/lvgl/src/draw/sw/blend/lv_draw_sw_blend_to_al88.c ****                 for(y = 0; y < h; y++) {
 849:Drivers/lvgl/src/draw/sw/blend/lv_draw_sw_blend_to_al88.c ****                     for(x = 0; x < w; x++) {
 850:Drivers/lvgl/src/draw/sw/blend/lv_draw_sw_blend_to_al88.c ****                         lv_color16a_t src_color;
 851:Drivers/lvgl/src/draw/sw/blend/lv_draw_sw_blend_to_al88.c ****                         src_color.lumi = lv_color32_luminance(src_buf_c32[x]);
 852:Drivers/lvgl/src/draw/sw/blend/lv_draw_sw_blend_to_al88.c ****                         src_color.alpha = src_buf_c32[x].alpha;
 853:Drivers/lvgl/src/draw/sw/blend/lv_draw_sw_blend_to_al88.c ****                         lv_color_16a_16a_mix(src_color, &dest_buf_al88[x], &cache);
 854:Drivers/lvgl/src/draw/sw/blend/lv_draw_sw_blend_to_al88.c ****                     }
 855:Drivers/lvgl/src/draw/sw/blend/lv_draw_sw_blend_to_al88.c ****                     dest_buf_al88 = drawbuf_next_row(dest_buf_al88, dest_stride);
 856:Drivers/lvgl/src/draw/sw/blend/lv_draw_sw_blend_to_al88.c ****                     src_buf_c32 = drawbuf_next_row(src_buf_c32, src_stride);
 857:Drivers/lvgl/src/draw/sw/blend/lv_draw_sw_blend_to_al88.c ****                 }
 858:Drivers/lvgl/src/draw/sw/blend/lv_draw_sw_blend_to_al88.c ****             }
 859:Drivers/lvgl/src/draw/sw/blend/lv_draw_sw_blend_to_al88.c ****         }
 860:Drivers/lvgl/src/draw/sw/blend/lv_draw_sw_blend_to_al88.c ****         else if(mask_buf == NULL && opa < LV_OPA_MAX) {
 861:Drivers/lvgl/src/draw/sw/blend/lv_draw_sw_blend_to_al88.c ****             if(LV_RESULT_INVALID == LV_DRAW_SW_ARGB8888_BLEND_NORMAL_TO_AL88_WITH_OPA(dsc)) {
 862:Drivers/lvgl/src/draw/sw/blend/lv_draw_sw_blend_to_al88.c ****                 for(y = 0; y < h; y++) {
 863:Drivers/lvgl/src/draw/sw/blend/lv_draw_sw_blend_to_al88.c ****                     for(x = 0; x < w; x++) {
 864:Drivers/lvgl/src/draw/sw/blend/lv_draw_sw_blend_to_al88.c ****                         lv_color16a_t src_color;
 865:Drivers/lvgl/src/draw/sw/blend/lv_draw_sw_blend_to_al88.c ****                         src_color.lumi = lv_color32_luminance(src_buf_c32[x]);
 866:Drivers/lvgl/src/draw/sw/blend/lv_draw_sw_blend_to_al88.c ****                         src_color.alpha = LV_OPA_MIX2(src_buf_c32[x].alpha, opa);
 867:Drivers/lvgl/src/draw/sw/blend/lv_draw_sw_blend_to_al88.c ****                         lv_color_16a_16a_mix(src_color, &dest_buf_al88[x], &cache);
 868:Drivers/lvgl/src/draw/sw/blend/lv_draw_sw_blend_to_al88.c ****                     }
 869:Drivers/lvgl/src/draw/sw/blend/lv_draw_sw_blend_to_al88.c ****                     dest_buf_al88 = drawbuf_next_row(dest_buf_al88, dest_stride);
 870:Drivers/lvgl/src/draw/sw/blend/lv_draw_sw_blend_to_al88.c ****                     src_buf_c32 = drawbuf_next_row(src_buf_c32, src_stride);
 871:Drivers/lvgl/src/draw/sw/blend/lv_draw_sw_blend_to_al88.c ****                 }
 872:Drivers/lvgl/src/draw/sw/blend/lv_draw_sw_blend_to_al88.c ****             }
 873:Drivers/lvgl/src/draw/sw/blend/lv_draw_sw_blend_to_al88.c ****         }
 874:Drivers/lvgl/src/draw/sw/blend/lv_draw_sw_blend_to_al88.c ****         else if(mask_buf && opa >= LV_OPA_MAX) {
 875:Drivers/lvgl/src/draw/sw/blend/lv_draw_sw_blend_to_al88.c ****             if(LV_RESULT_INVALID == LV_DRAW_SW_ARGB8888_BLEND_NORMAL_TO_AL88_WITH_MASK(dsc)) {
 876:Drivers/lvgl/src/draw/sw/blend/lv_draw_sw_blend_to_al88.c ****                 for(y = 0; y < h; y++) {
 877:Drivers/lvgl/src/draw/sw/blend/lv_draw_sw_blend_to_al88.c ****                     for(x = 0; x < w; x++) {
 878:Drivers/lvgl/src/draw/sw/blend/lv_draw_sw_blend_to_al88.c ****                         lv_color16a_t src_color;
 879:Drivers/lvgl/src/draw/sw/blend/lv_draw_sw_blend_to_al88.c ****                         src_color.lumi = lv_color32_luminance(src_buf_c32[x]);
 880:Drivers/lvgl/src/draw/sw/blend/lv_draw_sw_blend_to_al88.c ****                         src_color.alpha = LV_OPA_MIX2(src_buf_c32[x].alpha, mask_buf[x]);
 881:Drivers/lvgl/src/draw/sw/blend/lv_draw_sw_blend_to_al88.c ****                         lv_color_16a_16a_mix(src_color, &dest_buf_al88[x], &cache);
 882:Drivers/lvgl/src/draw/sw/blend/lv_draw_sw_blend_to_al88.c ****                     }
 883:Drivers/lvgl/src/draw/sw/blend/lv_draw_sw_blend_to_al88.c ****                     dest_buf_al88 = drawbuf_next_row(dest_buf_al88, dest_stride);
 884:Drivers/lvgl/src/draw/sw/blend/lv_draw_sw_blend_to_al88.c ****                     src_buf_c32 = drawbuf_next_row(src_buf_c32, src_stride);
 885:Drivers/lvgl/src/draw/sw/blend/lv_draw_sw_blend_to_al88.c ****                     mask_buf += mask_stride;
ARM GAS  /var/folders/qx/2_175_4n2s19vhvtspjhb3qh0000gn/T//cc7k2hqg.s 			page 17


 886:Drivers/lvgl/src/draw/sw/blend/lv_draw_sw_blend_to_al88.c ****                 }
 887:Drivers/lvgl/src/draw/sw/blend/lv_draw_sw_blend_to_al88.c ****             }
 888:Drivers/lvgl/src/draw/sw/blend/lv_draw_sw_blend_to_al88.c ****         }
 889:Drivers/lvgl/src/draw/sw/blend/lv_draw_sw_blend_to_al88.c ****         else if(mask_buf && opa < LV_OPA_MAX) {
 890:Drivers/lvgl/src/draw/sw/blend/lv_draw_sw_blend_to_al88.c ****             if(LV_RESULT_INVALID == LV_DRAW_SW_ARGB8888_BLEND_NORMAL_TO_AL88_MIX_MASK_OPA(dsc)) {
 891:Drivers/lvgl/src/draw/sw/blend/lv_draw_sw_blend_to_al88.c ****                 for(y = 0; y < h; y++) {
 892:Drivers/lvgl/src/draw/sw/blend/lv_draw_sw_blend_to_al88.c ****                     for(x = 0; x < w; x++) {
 893:Drivers/lvgl/src/draw/sw/blend/lv_draw_sw_blend_to_al88.c ****                         lv_color16a_t src_color;
 894:Drivers/lvgl/src/draw/sw/blend/lv_draw_sw_blend_to_al88.c ****                         src_color.lumi = lv_color32_luminance(src_buf_c32[x]);
 895:Drivers/lvgl/src/draw/sw/blend/lv_draw_sw_blend_to_al88.c ****                         src_color.alpha = LV_OPA_MIX3(src_buf_c32[x].alpha, mask_buf[x], opa);
 896:Drivers/lvgl/src/draw/sw/blend/lv_draw_sw_blend_to_al88.c ****                         lv_color_16a_16a_mix(src_color, &dest_buf_al88[x], &cache);
 897:Drivers/lvgl/src/draw/sw/blend/lv_draw_sw_blend_to_al88.c ****                     }
 898:Drivers/lvgl/src/draw/sw/blend/lv_draw_sw_blend_to_al88.c ****                     dest_buf_al88 = drawbuf_next_row(dest_buf_al88, dest_stride);
 899:Drivers/lvgl/src/draw/sw/blend/lv_draw_sw_blend_to_al88.c ****                     src_buf_c32 = drawbuf_next_row(src_buf_c32, src_stride);
 900:Drivers/lvgl/src/draw/sw/blend/lv_draw_sw_blend_to_al88.c ****                     mask_buf += mask_stride;
 901:Drivers/lvgl/src/draw/sw/blend/lv_draw_sw_blend_to_al88.c ****                 }
 902:Drivers/lvgl/src/draw/sw/blend/lv_draw_sw_blend_to_al88.c ****             }
 903:Drivers/lvgl/src/draw/sw/blend/lv_draw_sw_blend_to_al88.c ****         }
 904:Drivers/lvgl/src/draw/sw/blend/lv_draw_sw_blend_to_al88.c ****     }
 905:Drivers/lvgl/src/draw/sw/blend/lv_draw_sw_blend_to_al88.c ****     else {
 906:Drivers/lvgl/src/draw/sw/blend/lv_draw_sw_blend_to_al88.c ****         for(y = 0; y < h; y++) {
 907:Drivers/lvgl/src/draw/sw/blend/lv_draw_sw_blend_to_al88.c ****             for(x = 0; x < w; x++) {
 908:Drivers/lvgl/src/draw/sw/blend/lv_draw_sw_blend_to_al88.c ****                 lv_color16a_t src_color;
 909:Drivers/lvgl/src/draw/sw/blend/lv_draw_sw_blend_to_al88.c ****                 src_color.lumi = lv_color32_luminance(src_buf_c32[x]);
 910:Drivers/lvgl/src/draw/sw/blend/lv_draw_sw_blend_to_al88.c ****                 src_color.alpha = src_buf_c32[x].alpha;
 911:Drivers/lvgl/src/draw/sw/blend/lv_draw_sw_blend_to_al88.c ****                 if(mask_buf == NULL) src_color.alpha = LV_OPA_MIX2(src_color.alpha, opa);
 912:Drivers/lvgl/src/draw/sw/blend/lv_draw_sw_blend_to_al88.c ****                 else src_color.alpha = LV_OPA_MIX3(src_color.alpha, mask_buf[x], opa);
 913:Drivers/lvgl/src/draw/sw/blend/lv_draw_sw_blend_to_al88.c ****                 blend_non_normal_pixel(&dest_buf_al88[x], src_color, dsc->blend_mode, &cache);
 914:Drivers/lvgl/src/draw/sw/blend/lv_draw_sw_blend_to_al88.c ****             }
 915:Drivers/lvgl/src/draw/sw/blend/lv_draw_sw_blend_to_al88.c ****             if(mask_buf) mask_buf += mask_stride;
 916:Drivers/lvgl/src/draw/sw/blend/lv_draw_sw_blend_to_al88.c ****             dest_buf_al88 = drawbuf_next_row(dest_buf_al88, dest_stride);
 917:Drivers/lvgl/src/draw/sw/blend/lv_draw_sw_blend_to_al88.c ****             src_buf_c32 = drawbuf_next_row(src_buf_c32, src_stride);
 918:Drivers/lvgl/src/draw/sw/blend/lv_draw_sw_blend_to_al88.c ****         }
 919:Drivers/lvgl/src/draw/sw/blend/lv_draw_sw_blend_to_al88.c ****     }
 920:Drivers/lvgl/src/draw/sw/blend/lv_draw_sw_blend_to_al88.c **** }
 921:Drivers/lvgl/src/draw/sw/blend/lv_draw_sw_blend_to_al88.c **** 
 922:Drivers/lvgl/src/draw/sw/blend/lv_draw_sw_blend_to_al88.c **** #endif
 923:Drivers/lvgl/src/draw/sw/blend/lv_draw_sw_blend_to_al88.c **** 
 924:Drivers/lvgl/src/draw/sw/blend/lv_draw_sw_blend_to_al88.c **** /**
 925:Drivers/lvgl/src/draw/sw/blend/lv_draw_sw_blend_to_al88.c ****  * Check if two AL88 colors are equal
 926:Drivers/lvgl/src/draw/sw/blend/lv_draw_sw_blend_to_al88.c ****  * @param c1    the first color
 927:Drivers/lvgl/src/draw/sw/blend/lv_draw_sw_blend_to_al88.c ****  * @param c2    the second color
 928:Drivers/lvgl/src/draw/sw/blend/lv_draw_sw_blend_to_al88.c ****  * @return      true: equal
 929:Drivers/lvgl/src/draw/sw/blend/lv_draw_sw_blend_to_al88.c ****  */
 930:Drivers/lvgl/src/draw/sw/blend/lv_draw_sw_blend_to_al88.c **** static inline bool lv_color16a_eq(lv_color16a_t c1, lv_color16a_t c2)
 931:Drivers/lvgl/src/draw/sw/blend/lv_draw_sw_blend_to_al88.c **** {
 932:Drivers/lvgl/src/draw/sw/blend/lv_draw_sw_blend_to_al88.c ****     return *((uint16_t *)&c1) == *((uint16_t *)&c2);
 933:Drivers/lvgl/src/draw/sw/blend/lv_draw_sw_blend_to_al88.c **** }
 934:Drivers/lvgl/src/draw/sw/blend/lv_draw_sw_blend_to_al88.c **** 
 935:Drivers/lvgl/src/draw/sw/blend/lv_draw_sw_blend_to_al88.c **** static inline lv_color16a_t LV_ATTRIBUTE_FAST_MEM lv_color_mix16a(lv_color16a_t fg, lv_color16a_t b
 936:Drivers/lvgl/src/draw/sw/blend/lv_draw_sw_blend_to_al88.c **** {
 937:Drivers/lvgl/src/draw/sw/blend/lv_draw_sw_blend_to_al88.c **** #if 0
 938:Drivers/lvgl/src/draw/sw/blend/lv_draw_sw_blend_to_al88.c ****     if(fg.alpha >= LV_OPA_MAX) {
 939:Drivers/lvgl/src/draw/sw/blend/lv_draw_sw_blend_to_al88.c ****         fg.alpha = bg.alpha;
 940:Drivers/lvgl/src/draw/sw/blend/lv_draw_sw_blend_to_al88.c ****         return fg;
 941:Drivers/lvgl/src/draw/sw/blend/lv_draw_sw_blend_to_al88.c ****     }
 942:Drivers/lvgl/src/draw/sw/blend/lv_draw_sw_blend_to_al88.c ****     if(fg.alpha <= LV_OPA_MIN) {
ARM GAS  /var/folders/qx/2_175_4n2s19vhvtspjhb3qh0000gn/T//cc7k2hqg.s 			page 18


 943:Drivers/lvgl/src/draw/sw/blend/lv_draw_sw_blend_to_al88.c ****         return bg;
 944:Drivers/lvgl/src/draw/sw/blend/lv_draw_sw_blend_to_al88.c ****     }
 945:Drivers/lvgl/src/draw/sw/blend/lv_draw_sw_blend_to_al88.c **** #endif
 946:Drivers/lvgl/src/draw/sw/blend/lv_draw_sw_blend_to_al88.c ****     bg.lumi = (uint32_t)((uint32_t)fg.lumi * fg.alpha + (uint32_t)bg.lumi * (255 - fg.alpha)) >> 8;
 947:Drivers/lvgl/src/draw/sw/blend/lv_draw_sw_blend_to_al88.c ****     return bg;
 948:Drivers/lvgl/src/draw/sw/blend/lv_draw_sw_blend_to_al88.c **** }
 949:Drivers/lvgl/src/draw/sw/blend/lv_draw_sw_blend_to_al88.c **** 
 950:Drivers/lvgl/src/draw/sw/blend/lv_draw_sw_blend_to_al88.c **** static inline void LV_ATTRIBUTE_FAST_MEM lv_color_16a_16a_mix(lv_color16a_t fg, lv_color16a_t * bg,
 951:Drivers/lvgl/src/draw/sw/blend/lv_draw_sw_blend_to_al88.c ****                                                               lv_color_mix_alpha_cache_t * cache)
 952:Drivers/lvgl/src/draw/sw/blend/lv_draw_sw_blend_to_al88.c **** {
  29              		.loc 1 952 1 view -0
  30              		.cfi_startproc
  31              		@ args = 0, pretend = 0, frame = 32
  32              		@ frame_needed = 0, uses_anonymous_args = 0
  33              		.loc 1 952 1 is_stmt 0 view .LVU1
  34 0000 00B5     		push	{lr}
  35              	.LCFI0:
  36              		.cfi_def_cfa_offset 4
  37              		.cfi_offset 14, -4
  38 0002 89B0     		sub	sp, sp, #36
  39              	.LCFI1:
  40              		.cfi_def_cfa_offset 40
  41 0004 ADF80400 		strh	r0, [sp, #4]	@ movhi
 953:Drivers/lvgl/src/draw/sw/blend/lv_draw_sw_blend_to_al88.c ****     /*Pick the foreground if it's fully opaque or the Background is fully transparent*/
 954:Drivers/lvgl/src/draw/sw/blend/lv_draw_sw_blend_to_al88.c ****     if(fg.alpha >= LV_OPA_MAX || bg->alpha <= LV_OPA_MIN) {
  42              		.loc 1 954 5 is_stmt 1 view .LVU2
  43              		.loc 1 954 10 is_stmt 0 view .LVU3
  44 0008 9DF80530 		ldrb	r3, [sp, #5]	@ zero_extendqisi2
  45              		.loc 1 954 7 view .LVU4
  46 000c FC2B     		cmp	r3, #252
  47 000e 02D8     		bhi	.L2
  48              		.loc 1 954 36 discriminator 1 view .LVU5
  49 0010 4878     		ldrb	r0, [r1, #1]	@ zero_extendqisi2
  50              		.loc 1 954 31 discriminator 1 view .LVU6
  51 0012 0228     		cmp	r0, #2
  52 0014 05D8     		bhi	.L3
  53              	.L2:
 955:Drivers/lvgl/src/draw/sw/blend/lv_draw_sw_blend_to_al88.c ****         *bg = fg;
  54              		.loc 1 955 9 is_stmt 1 view .LVU7
  55              		.loc 1 955 13 is_stmt 0 view .LVU8
  56 0016 BDF80430 		ldrh	r3, [sp, #4]	@ unaligned
  57 001a 0B80     		strh	r3, [r1]	@ unaligned
  58              	.LVL1:
  59              	.L1:
 956:Drivers/lvgl/src/draw/sw/blend/lv_draw_sw_blend_to_al88.c ****     }
 957:Drivers/lvgl/src/draw/sw/blend/lv_draw_sw_blend_to_al88.c ****     /*Transparent foreground: use the Background*/
 958:Drivers/lvgl/src/draw/sw/blend/lv_draw_sw_blend_to_al88.c ****     else if(fg.alpha <= LV_OPA_MIN) {
 959:Drivers/lvgl/src/draw/sw/blend/lv_draw_sw_blend_to_al88.c ****         /* no need to copy */
 960:Drivers/lvgl/src/draw/sw/blend/lv_draw_sw_blend_to_al88.c ****     }
 961:Drivers/lvgl/src/draw/sw/blend/lv_draw_sw_blend_to_al88.c ****     /*Opaque background: use simple mix*/
 962:Drivers/lvgl/src/draw/sw/blend/lv_draw_sw_blend_to_al88.c ****     else if(bg->alpha == 255) {
 963:Drivers/lvgl/src/draw/sw/blend/lv_draw_sw_blend_to_al88.c ****         *bg = lv_color_mix16a(fg, *bg);
 964:Drivers/lvgl/src/draw/sw/blend/lv_draw_sw_blend_to_al88.c ****     }
 965:Drivers/lvgl/src/draw/sw/blend/lv_draw_sw_blend_to_al88.c ****     /*Both colors have alpha. Expensive calculation needs to be applied*/
 966:Drivers/lvgl/src/draw/sw/blend/lv_draw_sw_blend_to_al88.c ****     else {
 967:Drivers/lvgl/src/draw/sw/blend/lv_draw_sw_blend_to_al88.c ****         /*Save the parameters and the result. If they will be asked again don't compute again*/
 968:Drivers/lvgl/src/draw/sw/blend/lv_draw_sw_blend_to_al88.c **** 
ARM GAS  /var/folders/qx/2_175_4n2s19vhvtspjhb3qh0000gn/T//cc7k2hqg.s 			page 19


 969:Drivers/lvgl/src/draw/sw/blend/lv_draw_sw_blend_to_al88.c ****         /*Update the ratio and the result alpha value if the input alpha values change*/
 970:Drivers/lvgl/src/draw/sw/blend/lv_draw_sw_blend_to_al88.c ****         if(bg->alpha != cache->bg_saved.alpha || fg.alpha != cache->fg_saved.alpha) {
 971:Drivers/lvgl/src/draw/sw/blend/lv_draw_sw_blend_to_al88.c ****             /*Info:
 972:Drivers/lvgl/src/draw/sw/blend/lv_draw_sw_blend_to_al88.c ****              * https://en.wikipedia.org/wiki/Alpha_compositing#Analytical_derivation_of_the_over_op
 973:Drivers/lvgl/src/draw/sw/blend/lv_draw_sw_blend_to_al88.c ****             cache->res_alpha_saved = 255 - LV_OPA_MIX2(255 - fg.alpha, 255 - bg->alpha);
 974:Drivers/lvgl/src/draw/sw/blend/lv_draw_sw_blend_to_al88.c ****             LV_ASSERT(cache->res_alpha_saved != 0);
 975:Drivers/lvgl/src/draw/sw/blend/lv_draw_sw_blend_to_al88.c ****             cache->ratio_saved = (uint32_t)((uint32_t)fg.alpha * 255) / cache->res_alpha_saved;
 976:Drivers/lvgl/src/draw/sw/blend/lv_draw_sw_blend_to_al88.c ****         }
 977:Drivers/lvgl/src/draw/sw/blend/lv_draw_sw_blend_to_al88.c **** 
 978:Drivers/lvgl/src/draw/sw/blend/lv_draw_sw_blend_to_al88.c ****         if(!lv_color16a_eq(*bg, cache->bg_saved) || !lv_color16a_eq(fg, cache->fg_saved)) {
 979:Drivers/lvgl/src/draw/sw/blend/lv_draw_sw_blend_to_al88.c ****             cache->fg_saved = fg;
 980:Drivers/lvgl/src/draw/sw/blend/lv_draw_sw_blend_to_al88.c ****             cache->bg_saved = *bg;
 981:Drivers/lvgl/src/draw/sw/blend/lv_draw_sw_blend_to_al88.c ****             fg.alpha = cache->ratio_saved;
 982:Drivers/lvgl/src/draw/sw/blend/lv_draw_sw_blend_to_al88.c ****             cache->res_saved = lv_color_mix16a(fg, *bg);
 983:Drivers/lvgl/src/draw/sw/blend/lv_draw_sw_blend_to_al88.c ****             cache->res_saved.alpha = cache->res_alpha_saved;
 984:Drivers/lvgl/src/draw/sw/blend/lv_draw_sw_blend_to_al88.c ****         }
 985:Drivers/lvgl/src/draw/sw/blend/lv_draw_sw_blend_to_al88.c **** 
 986:Drivers/lvgl/src/draw/sw/blend/lv_draw_sw_blend_to_al88.c ****         *bg = cache->res_saved;
 987:Drivers/lvgl/src/draw/sw/blend/lv_draw_sw_blend_to_al88.c ****     }
 988:Drivers/lvgl/src/draw/sw/blend/lv_draw_sw_blend_to_al88.c **** }
  60              		.loc 1 988 1 view .LVU9
  61 001c 09B0     		add	sp, sp, #36
  62              	.LCFI2:
  63              		.cfi_remember_state
  64              		.cfi_def_cfa_offset 4
  65              		@ sp needed
  66 001e 5DF804FB 		ldr	pc, [sp], #4
  67              	.LVL2:
  68              	.L3:
  69              	.LCFI3:
  70              		.cfi_restore_state
 958:Drivers/lvgl/src/draw/sw/blend/lv_draw_sw_blend_to_al88.c ****         /* no need to copy */
  71              		.loc 1 958 10 is_stmt 1 view .LVU10
 958:Drivers/lvgl/src/draw/sw/blend/lv_draw_sw_blend_to_al88.c ****         /* no need to copy */
  72              		.loc 1 958 12 is_stmt 0 view .LVU11
  73 0022 022B     		cmp	r3, #2
  74 0024 FAD9     		bls	.L1
 962:Drivers/lvgl/src/draw/sw/blend/lv_draw_sw_blend_to_al88.c ****         *bg = lv_color_mix16a(fg, *bg);
  75              		.loc 1 962 10 is_stmt 1 view .LVU12
 962:Drivers/lvgl/src/draw/sw/blend/lv_draw_sw_blend_to_al88.c ****         *bg = lv_color_mix16a(fg, *bg);
  76              		.loc 1 962 12 is_stmt 0 view .LVU13
  77 0026 FF28     		cmp	r0, #255
  78 0028 10D0     		beq	.L13
 970:Drivers/lvgl/src/draw/sw/blend/lv_draw_sw_blend_to_al88.c ****             /*Info:
  79              		.loc 1 970 9 is_stmt 1 view .LVU14
 970:Drivers/lvgl/src/draw/sw/blend/lv_draw_sw_blend_to_al88.c ****             /*Info:
  80              		.loc 1 970 40 is_stmt 0 view .LVU15
  81 002a 92F803C0 		ldrb	ip, [r2, #3]	@ zero_extendqisi2
 970:Drivers/lvgl/src/draw/sw/blend/lv_draw_sw_blend_to_al88.c ****             /*Info:
  82              		.loc 1 970 11 view .LVU16
  83 002e 6045     		cmp	r0, ip
  84 0030 2AD0     		beq	.L14
  85              	.L6:
 973:Drivers/lvgl/src/draw/sw/blend/lv_draw_sw_blend_to_al88.c ****             LV_ASSERT(cache->res_alpha_saved != 0);
  86              		.loc 1 973 13 is_stmt 1 view .LVU17
 973:Drivers/lvgl/src/draw/sw/blend/lv_draw_sw_blend_to_al88.c ****             LV_ASSERT(cache->res_alpha_saved != 0);
  87              		.loc 1 973 44 is_stmt 0 view .LVU18
ARM GAS  /var/folders/qx/2_175_4n2s19vhvtspjhb3qh0000gn/T//cc7k2hqg.s 			page 20


  88 0032 C3F1FF0C 		rsb	ip, r3, #255
  89 0036 C0F1FF00 		rsb	r0, r0, #255
  90 003a 00FB0CF0 		mul	r0, r0, ip
  91 003e C0F30720 		ubfx	r0, r0, #8, #8
 973:Drivers/lvgl/src/draw/sw/blend/lv_draw_sw_blend_to_al88.c ****             LV_ASSERT(cache->res_alpha_saved != 0);
  92              		.loc 1 973 42 view .LVU19
  93 0042 C043     		mvns	r0, r0
  94 0044 C0B2     		uxtb	r0, r0
 973:Drivers/lvgl/src/draw/sw/blend/lv_draw_sw_blend_to_al88.c ****             LV_ASSERT(cache->res_alpha_saved != 0);
  95              		.loc 1 973 36 view .LVU20
  96 0046 9071     		strb	r0, [r2, #6]
 974:Drivers/lvgl/src/draw/sw/blend/lv_draw_sw_blend_to_al88.c ****             cache->ratio_saved = (uint32_t)((uint32_t)fg.alpha * 255) / cache->res_alpha_saved;
  97              		.loc 1 974 13 is_stmt 1 view .LVU21
 974:Drivers/lvgl/src/draw/sw/blend/lv_draw_sw_blend_to_al88.c ****             cache->ratio_saved = (uint32_t)((uint32_t)fg.alpha * 255) / cache->res_alpha_saved;
  98              		.loc 1 974 13 view .LVU22
  99 0048 18BB     		cbnz	r0, .L8
 100              	.L9:
 974:Drivers/lvgl/src/draw/sw/blend/lv_draw_sw_blend_to_al88.c ****             cache->ratio_saved = (uint32_t)((uint32_t)fg.alpha * 255) / cache->res_alpha_saved;
 101              		.loc 1 974 13 view .LVU23
 974:Drivers/lvgl/src/draw/sw/blend/lv_draw_sw_blend_to_al88.c ****             cache->ratio_saved = (uint32_t)((uint32_t)fg.alpha * 255) / cache->res_alpha_saved;
 102              		.loc 1 974 13 view .LVU24
 974:Drivers/lvgl/src/draw/sw/blend/lv_draw_sw_blend_to_al88.c ****             cache->ratio_saved = (uint32_t)((uint32_t)fg.alpha * 255) / cache->res_alpha_saved;
 103              		.loc 1 974 13 view .LVU25
 974:Drivers/lvgl/src/draw/sw/blend/lv_draw_sw_blend_to_al88.c ****             cache->ratio_saved = (uint32_t)((uint32_t)fg.alpha * 255) / cache->res_alpha_saved;
 104              		.loc 1 974 13 view .LVU26
 974:Drivers/lvgl/src/draw/sw/blend/lv_draw_sw_blend_to_al88.c ****             cache->ratio_saved = (uint32_t)((uint32_t)fg.alpha * 255) / cache->res_alpha_saved;
 105              		.loc 1 974 13 view .LVU27
 106 004a FEE7     		b	.L9
 107              	.L13:
 963:Drivers/lvgl/src/draw/sw/blend/lv_draw_sw_blend_to_al88.c ****     }
 108              		.loc 1 963 9 view .LVU28
 109 004c BDF80420 		ldrh	r2, [sp, #4]
 110              	.LVL3:
 963:Drivers/lvgl/src/draw/sw/blend/lv_draw_sw_blend_to_al88.c ****     }
 111              		.loc 1 963 9 is_stmt 0 view .LVU29
 112 0050 ADF80820 		strh	r2, [sp, #8]	@ movhi
 113 0054 0A88     		ldrh	r2, [r1]	@ unaligned
 114 0056 ADF80C20 		strh	r2, [sp, #12]	@ unaligned
 115              	.LBB175:
 116              	.LBI175:
 935:Drivers/lvgl/src/draw/sw/blend/lv_draw_sw_blend_to_al88.c **** {
 117              		.loc 1 935 51 is_stmt 1 view .LVU30
 118              	.LBB176:
 946:Drivers/lvgl/src/draw/sw/blend/lv_draw_sw_blend_to_al88.c ****     return bg;
 119              		.loc 1 946 5 view .LVU31
 946:Drivers/lvgl/src/draw/sw/blend/lv_draw_sw_blend_to_al88.c ****     return bg;
 120              		.loc 1 946 38 is_stmt 0 view .LVU32
 121 005a 9DF80800 		ldrb	r0, [sp, #8]	@ zero_extendqisi2
 946:Drivers/lvgl/src/draw/sw/blend/lv_draw_sw_blend_to_al88.c ****     return bg;
 122              		.loc 1 946 69 view .LVU33
 123 005e 9DF80C20 		ldrb	r2, [sp, #12]	@ zero_extendqisi2
 946:Drivers/lvgl/src/draw/sw/blend/lv_draw_sw_blend_to_al88.c ****     return bg;
 124              		.loc 1 946 82 view .LVU34
 125 0062 C3F1FF0C 		rsb	ip, r3, #255
 946:Drivers/lvgl/src/draw/sw/blend/lv_draw_sw_blend_to_al88.c ****     return bg;
 126              		.loc 1 946 75 view .LVU35
 127 0066 0CFB02F2 		mul	r2, ip, r2
ARM GAS  /var/folders/qx/2_175_4n2s19vhvtspjhb3qh0000gn/T//cc7k2hqg.s 			page 21


 946:Drivers/lvgl/src/draw/sw/blend/lv_draw_sw_blend_to_al88.c ****     return bg;
 128              		.loc 1 946 15 view .LVU36
 129 006a 03FB0023 		mla	r3, r3, r0, r2
 946:Drivers/lvgl/src/draw/sw/blend/lv_draw_sw_blend_to_al88.c ****     return bg;
 130              		.loc 1 946 95 view .LVU37
 131 006e 1B0A     		lsrs	r3, r3, #8
 946:Drivers/lvgl/src/draw/sw/blend/lv_draw_sw_blend_to_al88.c ****     return bg;
 132              		.loc 1 946 13 view .LVU38
 133 0070 8DF80C30 		strb	r3, [sp, #12]
 947:Drivers/lvgl/src/draw/sw/blend/lv_draw_sw_blend_to_al88.c **** }
 134              		.loc 1 947 5 is_stmt 1 view .LVU39
 947:Drivers/lvgl/src/draw/sw/blend/lv_draw_sw_blend_to_al88.c **** }
 135              		.loc 1 947 12 is_stmt 0 view .LVU40
 136 0074 BDF80C30 		ldrh	r3, [sp, #12]
 137 0078 ADF81430 		strh	r3, [sp, #20]	@ movhi
 138 007c ADF81030 		strh	r3, [sp, #16]	@ movhi
 139              	.LBE176:
 140              	.LBE175:
 963:Drivers/lvgl/src/draw/sw/blend/lv_draw_sw_blend_to_al88.c ****     }
 141              		.loc 1 963 15 view .LVU41
 142 0080 BDF81030 		ldrh	r3, [sp, #16]	@ unaligned
 143 0084 0B80     		strh	r3, [r1]	@ unaligned
 144 0086 C9E7     		b	.L1
 145              	.LVL4:
 146              	.L14:
 970:Drivers/lvgl/src/draw/sw/blend/lv_draw_sw_blend_to_al88.c ****             /*Info:
 147              		.loc 1 970 77 discriminator 1 view .LVU42
 148 0088 92F801C0 		ldrb	ip, [r2, #1]	@ zero_extendqisi2
 970:Drivers/lvgl/src/draw/sw/blend/lv_draw_sw_blend_to_al88.c ****             /*Info:
 149              		.loc 1 970 47 discriminator 1 view .LVU43
 150 008c 6345     		cmp	r3, ip
 151 008e D0D1     		bne	.L6
 152 0090 04E0     		b	.L7
 153              	.L8:
 974:Drivers/lvgl/src/draw/sw/blend/lv_draw_sw_blend_to_al88.c ****             cache->ratio_saved = (uint32_t)((uint32_t)fg.alpha * 255) / cache->res_alpha_saved;
 154              		.loc 1 974 13 is_stmt 1 view .LVU44
 975:Drivers/lvgl/src/draw/sw/blend/lv_draw_sw_blend_to_al88.c ****         }
 155              		.loc 1 975 13 view .LVU45
 975:Drivers/lvgl/src/draw/sw/blend/lv_draw_sw_blend_to_al88.c ****         }
 156              		.loc 1 975 34 is_stmt 0 view .LVU46
 157 0092 C3EB0323 		rsb	r3, r3, r3, lsl #8
 975:Drivers/lvgl/src/draw/sw/blend/lv_draw_sw_blend_to_al88.c ****         }
 158              		.loc 1 975 71 view .LVU47
 159 0096 B3FBF0F3 		udiv	r3, r3, r0
 975:Drivers/lvgl/src/draw/sw/blend/lv_draw_sw_blend_to_al88.c ****         }
 160              		.loc 1 975 32 view .LVU48
 161 009a D371     		strb	r3, [r2, #7]
 162              	.L7:
 978:Drivers/lvgl/src/draw/sw/blend/lv_draw_sw_blend_to_al88.c ****             cache->fg_saved = fg;
 163              		.loc 1 978 9 is_stmt 1 view .LVU49
 164 009c 0B88     		ldrh	r3, [r1]	@ unaligned
 165 009e ADF80830 		strh	r3, [sp, #8]	@ unaligned
 166 00a2 5388     		ldrh	r3, [r2, #2]	@ unaligned
 167 00a4 ADF80C30 		strh	r3, [sp, #12]	@ unaligned
 168              	.LBB177:
 169              	.LBI177:
 930:Drivers/lvgl/src/draw/sw/blend/lv_draw_sw_blend_to_al88.c **** {
ARM GAS  /var/folders/qx/2_175_4n2s19vhvtspjhb3qh0000gn/T//cc7k2hqg.s 			page 22


 170              		.loc 1 930 20 view .LVU50
 171              	.LBB178:
 932:Drivers/lvgl/src/draw/sw/blend/lv_draw_sw_blend_to_al88.c **** }
 172              		.loc 1 932 5 view .LVU51
 932:Drivers/lvgl/src/draw/sw/blend/lv_draw_sw_blend_to_al88.c **** }
 173              		.loc 1 932 12 is_stmt 0 view .LVU52
 174 00a8 BDF80800 		ldrh	r0, [sp, #8]
 932:Drivers/lvgl/src/draw/sw/blend/lv_draw_sw_blend_to_al88.c **** }
 175              		.loc 1 932 34 view .LVU53
 176 00ac BDF80C30 		ldrh	r3, [sp, #12]
 177              	.LBE178:
 178              	.LBE177:
 978:Drivers/lvgl/src/draw/sw/blend/lv_draw_sw_blend_to_al88.c ****             cache->fg_saved = fg;
 179              		.loc 1 978 11 discriminator 1 view .LVU54
 180 00b0 9842     		cmp	r0, r3
 181 00b2 29D0     		beq	.L15
 182              	.L10:
 979:Drivers/lvgl/src/draw/sw/blend/lv_draw_sw_blend_to_al88.c ****             cache->bg_saved = *bg;
 183              		.loc 1 979 13 is_stmt 1 view .LVU55
 979:Drivers/lvgl/src/draw/sw/blend/lv_draw_sw_blend_to_al88.c ****             cache->bg_saved = *bg;
 184              		.loc 1 979 29 is_stmt 0 view .LVU56
 185 00b4 BDF80430 		ldrh	r3, [sp, #4]	@ unaligned
 186 00b8 1380     		strh	r3, [r2]	@ unaligned
 980:Drivers/lvgl/src/draw/sw/blend/lv_draw_sw_blend_to_al88.c ****             fg.alpha = cache->ratio_saved;
 187              		.loc 1 980 13 is_stmt 1 view .LVU57
 980:Drivers/lvgl/src/draw/sw/blend/lv_draw_sw_blend_to_al88.c ****             fg.alpha = cache->ratio_saved;
 188              		.loc 1 980 29 is_stmt 0 view .LVU58
 189 00ba 0B88     		ldrh	r3, [r1]	@ unaligned
 190 00bc 5380     		strh	r3, [r2, #2]	@ unaligned
 981:Drivers/lvgl/src/draw/sw/blend/lv_draw_sw_blend_to_al88.c ****             cache->res_saved = lv_color_mix16a(fg, *bg);
 191              		.loc 1 981 13 is_stmt 1 view .LVU59
 981:Drivers/lvgl/src/draw/sw/blend/lv_draw_sw_blend_to_al88.c ****             cache->res_saved = lv_color_mix16a(fg, *bg);
 192              		.loc 1 981 29 is_stmt 0 view .LVU60
 193 00be D079     		ldrb	r0, [r2, #7]	@ zero_extendqisi2
 981:Drivers/lvgl/src/draw/sw/blend/lv_draw_sw_blend_to_al88.c ****             cache->res_saved = lv_color_mix16a(fg, *bg);
 194              		.loc 1 981 22 view .LVU61
 195 00c0 8DF80500 		strb	r0, [sp, #5]
 982:Drivers/lvgl/src/draw/sw/blend/lv_draw_sw_blend_to_al88.c ****             cache->res_saved.alpha = cache->res_alpha_saved;
 196              		.loc 1 982 13 is_stmt 1 view .LVU62
 197 00c4 BDF80430 		ldrh	r3, [sp, #4]
 198 00c8 ADF80830 		strh	r3, [sp, #8]	@ movhi
 199 00cc 0B88     		ldrh	r3, [r1]	@ unaligned
 200 00ce ADF80C30 		strh	r3, [sp, #12]	@ unaligned
 201              	.LBB179:
 202              	.LBI179:
 935:Drivers/lvgl/src/draw/sw/blend/lv_draw_sw_blend_to_al88.c **** {
 203              		.loc 1 935 51 view .LVU63
 204              	.LBB180:
 946:Drivers/lvgl/src/draw/sw/blend/lv_draw_sw_blend_to_al88.c ****     return bg;
 205              		.loc 1 946 5 view .LVU64
 946:Drivers/lvgl/src/draw/sw/blend/lv_draw_sw_blend_to_al88.c ****     return bg;
 206              		.loc 1 946 38 is_stmt 0 view .LVU65
 207 00d2 9DF808C0 		ldrb	ip, [sp, #8]	@ zero_extendqisi2
 946:Drivers/lvgl/src/draw/sw/blend/lv_draw_sw_blend_to_al88.c ****     return bg;
 208              		.loc 1 946 69 view .LVU66
 209 00d6 9DF80C30 		ldrb	r3, [sp, #12]	@ zero_extendqisi2
 946:Drivers/lvgl/src/draw/sw/blend/lv_draw_sw_blend_to_al88.c ****     return bg;
ARM GAS  /var/folders/qx/2_175_4n2s19vhvtspjhb3qh0000gn/T//cc7k2hqg.s 			page 23


 210              		.loc 1 946 82 view .LVU67
 211 00da C0F1FF0E 		rsb	lr, r0, #255
 946:Drivers/lvgl/src/draw/sw/blend/lv_draw_sw_blend_to_al88.c ****     return bg;
 212              		.loc 1 946 75 view .LVU68
 213 00de 0EFB03F3 		mul	r3, lr, r3
 946:Drivers/lvgl/src/draw/sw/blend/lv_draw_sw_blend_to_al88.c ****     return bg;
 214              		.loc 1 946 15 view .LVU69
 215 00e2 00FB0C33 		mla	r3, r0, ip, r3
 946:Drivers/lvgl/src/draw/sw/blend/lv_draw_sw_blend_to_al88.c ****     return bg;
 216              		.loc 1 946 95 view .LVU70
 217 00e6 1B0A     		lsrs	r3, r3, #8
 946:Drivers/lvgl/src/draw/sw/blend/lv_draw_sw_blend_to_al88.c ****     return bg;
 218              		.loc 1 946 13 view .LVU71
 219 00e8 8DF80C30 		strb	r3, [sp, #12]
 947:Drivers/lvgl/src/draw/sw/blend/lv_draw_sw_blend_to_al88.c **** }
 220              		.loc 1 947 5 is_stmt 1 view .LVU72
 947:Drivers/lvgl/src/draw/sw/blend/lv_draw_sw_blend_to_al88.c **** }
 221              		.loc 1 947 12 is_stmt 0 view .LVU73
 222 00ec BDF80C30 		ldrh	r3, [sp, #12]
 223 00f0 ADF81C30 		strh	r3, [sp, #28]	@ movhi
 224 00f4 ADF81830 		strh	r3, [sp, #24]	@ movhi
 225              	.LBE180:
 226              	.LBE179:
 982:Drivers/lvgl/src/draw/sw/blend/lv_draw_sw_blend_to_al88.c ****             cache->res_saved.alpha = cache->res_alpha_saved;
 227              		.loc 1 982 32 view .LVU74
 228 00f8 BDF81830 		ldrh	r3, [sp, #24]	@ unaligned
 229 00fc 9380     		strh	r3, [r2, #4]	@ unaligned
 983:Drivers/lvgl/src/draw/sw/blend/lv_draw_sw_blend_to_al88.c ****         }
 230              		.loc 1 983 13 is_stmt 1 view .LVU75
 983:Drivers/lvgl/src/draw/sw/blend/lv_draw_sw_blend_to_al88.c ****         }
 231              		.loc 1 983 43 is_stmt 0 view .LVU76
 232 00fe 9379     		ldrb	r3, [r2, #6]	@ zero_extendqisi2
 983:Drivers/lvgl/src/draw/sw/blend/lv_draw_sw_blend_to_al88.c ****         }
 233              		.loc 1 983 36 view .LVU77
 234 0100 5371     		strb	r3, [r2, #5]
 235              	.L11:
 986:Drivers/lvgl/src/draw/sw/blend/lv_draw_sw_blend_to_al88.c ****     }
 236              		.loc 1 986 9 is_stmt 1 view .LVU78
 986:Drivers/lvgl/src/draw/sw/blend/lv_draw_sw_blend_to_al88.c ****     }
 237              		.loc 1 986 13 is_stmt 0 view .LVU79
 238 0102 9388     		ldrh	r3, [r2, #4]	@ unaligned
 239 0104 0B80     		strh	r3, [r1]	@ unaligned
 240              		.loc 1 988 1 view .LVU80
 241 0106 89E7     		b	.L1
 242              	.L15:
 243              		.loc 1 988 1 view .LVU81
 244 0108 BDF80430 		ldrh	r3, [sp, #4]
 245 010c ADF80830 		strh	r3, [sp, #8]	@ movhi
 246 0110 1388     		ldrh	r3, [r2]	@ unaligned
 247 0112 ADF80C30 		strh	r3, [sp, #12]	@ unaligned
 248              	.LBB181:
 249              	.LBI181:
 930:Drivers/lvgl/src/draw/sw/blend/lv_draw_sw_blend_to_al88.c **** {
 250              		.loc 1 930 20 is_stmt 1 view .LVU82
 251              	.LBB182:
 932:Drivers/lvgl/src/draw/sw/blend/lv_draw_sw_blend_to_al88.c **** }
 252              		.loc 1 932 5 view .LVU83
ARM GAS  /var/folders/qx/2_175_4n2s19vhvtspjhb3qh0000gn/T//cc7k2hqg.s 			page 24


 932:Drivers/lvgl/src/draw/sw/blend/lv_draw_sw_blend_to_al88.c **** }
 253              		.loc 1 932 12 is_stmt 0 view .LVU84
 254 0116 BDF80800 		ldrh	r0, [sp, #8]
 932:Drivers/lvgl/src/draw/sw/blend/lv_draw_sw_blend_to_al88.c **** }
 255              		.loc 1 932 34 view .LVU85
 256 011a BDF80C30 		ldrh	r3, [sp, #12]
 257              	.LBE182:
 258              	.LBE181:
 978:Drivers/lvgl/src/draw/sw/blend/lv_draw_sw_blend_to_al88.c ****             cache->fg_saved = fg;
 259              		.loc 1 978 50 discriminator 1 view .LVU86
 260 011e 9842     		cmp	r0, r3
 261 0120 C8D1     		bne	.L10
 262 0122 EEE7     		b	.L11
 263              		.cfi_endproc
 264              	.LFE191:
 266              		.section	.text.blend_non_normal_pixel,"ax",%progbits
 267              		.align	1
 268              		.syntax unified
 269              		.thumb
 270              		.thumb_func
 272              	blend_non_normal_pixel:
 273              	.LVL5:
 274              	.LFB194:
 989:Drivers/lvgl/src/draw/sw/blend/lv_draw_sw_blend_to_al88.c **** 
 990:Drivers/lvgl/src/draw/sw/blend/lv_draw_sw_blend_to_al88.c **** void lv_color_mix_with_alpha_cache_init(lv_color_mix_alpha_cache_t * cache)
 991:Drivers/lvgl/src/draw/sw/blend/lv_draw_sw_blend_to_al88.c **** {
 992:Drivers/lvgl/src/draw/sw/blend/lv_draw_sw_blend_to_al88.c ****     lv_memzero(&cache->fg_saved, sizeof(lv_color16a_t));
 993:Drivers/lvgl/src/draw/sw/blend/lv_draw_sw_blend_to_al88.c ****     lv_memzero(&cache->bg_saved, sizeof(lv_color16a_t));
 994:Drivers/lvgl/src/draw/sw/blend/lv_draw_sw_blend_to_al88.c ****     lv_memzero(&cache->res_saved, sizeof(lv_color16a_t));
 995:Drivers/lvgl/src/draw/sw/blend/lv_draw_sw_blend_to_al88.c ****     cache->res_alpha_saved = 255;
 996:Drivers/lvgl/src/draw/sw/blend/lv_draw_sw_blend_to_al88.c ****     cache->ratio_saved = 255;
 997:Drivers/lvgl/src/draw/sw/blend/lv_draw_sw_blend_to_al88.c **** }
 998:Drivers/lvgl/src/draw/sw/blend/lv_draw_sw_blend_to_al88.c **** 
 999:Drivers/lvgl/src/draw/sw/blend/lv_draw_sw_blend_to_al88.c **** #if LV_DRAW_SW_SUPPORT_I1
1000:Drivers/lvgl/src/draw/sw/blend/lv_draw_sw_blend_to_al88.c **** 
1001:Drivers/lvgl/src/draw/sw/blend/lv_draw_sw_blend_to_al88.c **** static inline uint8_t LV_ATTRIBUTE_FAST_MEM get_bit(const uint8_t * buf, int32_t bit_idx)
1002:Drivers/lvgl/src/draw/sw/blend/lv_draw_sw_blend_to_al88.c **** {
1003:Drivers/lvgl/src/draw/sw/blend/lv_draw_sw_blend_to_al88.c ****     return (buf[bit_idx / 8] >> (7 - (bit_idx % 8))) & 1;
1004:Drivers/lvgl/src/draw/sw/blend/lv_draw_sw_blend_to_al88.c **** }
1005:Drivers/lvgl/src/draw/sw/blend/lv_draw_sw_blend_to_al88.c **** 
1006:Drivers/lvgl/src/draw/sw/blend/lv_draw_sw_blend_to_al88.c **** #endif
1007:Drivers/lvgl/src/draw/sw/blend/lv_draw_sw_blend_to_al88.c **** 
1008:Drivers/lvgl/src/draw/sw/blend/lv_draw_sw_blend_to_al88.c **** static inline void LV_ATTRIBUTE_FAST_MEM blend_non_normal_pixel(lv_color16a_t * dest, lv_color16a_t
1009:Drivers/lvgl/src/draw/sw/blend/lv_draw_sw_blend_to_al88.c ****                                                                 lv_blend_mode_t mode, lv_color_mix_
1010:Drivers/lvgl/src/draw/sw/blend/lv_draw_sw_blend_to_al88.c **** {
 275              		.loc 1 1010 1 is_stmt 1 view -0
 276              		.cfi_startproc
 277              		@ args = 0, pretend = 0, frame = 16
 278              		@ frame_needed = 0, uses_anonymous_args = 0
 279              		.loc 1 1010 1 is_stmt 0 view .LVU88
 280 0000 00B5     		push	{lr}
 281              	.LCFI4:
 282              		.cfi_def_cfa_offset 4
 283              		.cfi_offset 14, -4
 284 0002 85B0     		sub	sp, sp, #20
 285              	.LCFI5:
 286              		.cfi_def_cfa_offset 24
ARM GAS  /var/folders/qx/2_175_4n2s19vhvtspjhb3qh0000gn/T//cc7k2hqg.s 			page 25


 287 0004 ADF80410 		strh	r1, [sp, #4]	@ movhi
 288 0008 1146     		mov	r1, r2
 289 000a 1A46     		mov	r2, r3
 290              	.LVL6:
1011:Drivers/lvgl/src/draw/sw/blend/lv_draw_sw_blend_to_al88.c ****     lv_color16a_t res;
 291              		.loc 1 1011 5 is_stmt 1 view .LVU89
1012:Drivers/lvgl/src/draw/sw/blend/lv_draw_sw_blend_to_al88.c ****     switch(mode) {
 292              		.loc 1 1012 5 view .LVU90
 293 000c 0139     		subs	r1, r1, #1
 294              	.LVL7:
 295              		.loc 1 1012 5 is_stmt 0 view .LVU91
 296 000e 0329     		cmp	r1, #3
 297 0010 14D8     		bhi	.L16
 298 0012 DFE801F0 		tbb	[pc, r1]
 299              	.LVL8:
 300              	.L19:
 301 0016 02       		.byte	(.L22-.L19)/2
 302 0017 16       		.byte	(.L21-.L19)/2
 303 0018 1F       		.byte	(.L20-.L19)/2
 304 0019 28       		.byte	(.L18-.L19)/2
 305              		.p2align 1
 306              	.L22:
1013:Drivers/lvgl/src/draw/sw/blend/lv_draw_sw_blend_to_al88.c ****         case LV_BLEND_MODE_ADDITIVE:
1014:Drivers/lvgl/src/draw/sw/blend/lv_draw_sw_blend_to_al88.c ****             res.lumi = LV_MIN(dest->lumi + src.lumi, 255);
 307              		.loc 1 1014 13 is_stmt 1 view .LVU92
 308              		.loc 1 1014 24 is_stmt 0 view .LVU93
 309 001a 0378     		ldrb	r3, [r0]	@ zero_extendqisi2
 310 001c 9DF80410 		ldrb	r1, [sp, #4]	@ zero_extendqisi2
 311              	.LVL9:
 312              		.loc 1 1014 24 view .LVU94
 313 0020 0B44     		add	r3, r3, r1
 314 0022 FF2B     		cmp	r3, #255
 315 0024 A8BF     		it	ge
 316 0026 FF23     		movge	r3, #255
 317              		.loc 1 1014 22 view .LVU95
 318 0028 8DF80C30 		strb	r3, [sp, #12]
1015:Drivers/lvgl/src/draw/sw/blend/lv_draw_sw_blend_to_al88.c ****             break;
 319              		.loc 1 1015 13 is_stmt 1 view .LVU96
 320              	.L23:
1016:Drivers/lvgl/src/draw/sw/blend/lv_draw_sw_blend_to_al88.c ****         case LV_BLEND_MODE_SUBTRACTIVE:
1017:Drivers/lvgl/src/draw/sw/blend/lv_draw_sw_blend_to_al88.c ****             res.lumi = LV_MAX(dest->lumi - src.lumi, 0);
1018:Drivers/lvgl/src/draw/sw/blend/lv_draw_sw_blend_to_al88.c ****             break;
1019:Drivers/lvgl/src/draw/sw/blend/lv_draw_sw_blend_to_al88.c ****         case LV_BLEND_MODE_MULTIPLY:
1020:Drivers/lvgl/src/draw/sw/blend/lv_draw_sw_blend_to_al88.c ****             res.lumi = (dest->lumi * src.lumi) >> 8;
1021:Drivers/lvgl/src/draw/sw/blend/lv_draw_sw_blend_to_al88.c ****             break;
1022:Drivers/lvgl/src/draw/sw/blend/lv_draw_sw_blend_to_al88.c ****         case LV_BLEND_MODE_DIFFERENCE:
1023:Drivers/lvgl/src/draw/sw/blend/lv_draw_sw_blend_to_al88.c ****             res.lumi = LV_ABS(dest->lumi - src.lumi);
1024:Drivers/lvgl/src/draw/sw/blend/lv_draw_sw_blend_to_al88.c ****             break;
1025:Drivers/lvgl/src/draw/sw/blend/lv_draw_sw_blend_to_al88.c ****         default:
1026:Drivers/lvgl/src/draw/sw/blend/lv_draw_sw_blend_to_al88.c ****             LV_LOG_WARN("Not supported blend mode: %d", mode);
1027:Drivers/lvgl/src/draw/sw/blend/lv_draw_sw_blend_to_al88.c ****             return;
1028:Drivers/lvgl/src/draw/sw/blend/lv_draw_sw_blend_to_al88.c ****     }
1029:Drivers/lvgl/src/draw/sw/blend/lv_draw_sw_blend_to_al88.c ****     res.alpha = src.alpha;
 321              		.loc 1 1029 5 view .LVU97
 322              		.loc 1 1029 20 is_stmt 0 view .LVU98
 323 002c 9DF80530 		ldrb	r3, [sp, #5]	@ zero_extendqisi2
 324              		.loc 1 1029 15 view .LVU99
ARM GAS  /var/folders/qx/2_175_4n2s19vhvtspjhb3qh0000gn/T//cc7k2hqg.s 			page 26


 325 0030 8DF80D30 		strb	r3, [sp, #13]
1030:Drivers/lvgl/src/draw/sw/blend/lv_draw_sw_blend_to_al88.c ****     lv_color_16a_16a_mix(res, dest, cache);
 326              		.loc 1 1030 5 is_stmt 1 view .LVU100
 327 0034 0146     		mov	r1, r0
 328 0036 0398     		ldr	r0, [sp, #12]
 329              	.LVL10:
 330              		.loc 1 1030 5 is_stmt 0 view .LVU101
 331 0038 FFF7FEFF 		bl	lv_color_16a_16a_mix
 332              	.LVL11:
 333              	.L16:
1031:Drivers/lvgl/src/draw/sw/blend/lv_draw_sw_blend_to_al88.c **** }
 334              		.loc 1 1031 1 view .LVU102
 335 003c 05B0     		add	sp, sp, #20
 336              	.LCFI6:
 337              		.cfi_remember_state
 338              		.cfi_def_cfa_offset 4
 339              		@ sp needed
 340 003e 5DF804FB 		ldr	pc, [sp], #4
 341              	.LVL12:
 342              	.L21:
 343              	.LCFI7:
 344              		.cfi_restore_state
1017:Drivers/lvgl/src/draw/sw/blend/lv_draw_sw_blend_to_al88.c ****             break;
 345              		.loc 1 1017 13 is_stmt 1 view .LVU103
1017:Drivers/lvgl/src/draw/sw/blend/lv_draw_sw_blend_to_al88.c ****             break;
 346              		.loc 1 1017 24 is_stmt 0 view .LVU104
 347 0042 0378     		ldrb	r3, [r0]	@ zero_extendqisi2
 348 0044 9DF80410 		ldrb	r1, [sp, #4]	@ zero_extendqisi2
 349 0048 5B1A     		subs	r3, r3, r1
 350 004a 23EAE373 		bic	r3, r3, r3, asr #31
1017:Drivers/lvgl/src/draw/sw/blend/lv_draw_sw_blend_to_al88.c ****             break;
 351              		.loc 1 1017 22 view .LVU105
 352 004e 8DF80C30 		strb	r3, [sp, #12]
1018:Drivers/lvgl/src/draw/sw/blend/lv_draw_sw_blend_to_al88.c ****         case LV_BLEND_MODE_MULTIPLY:
 353              		.loc 1 1018 13 is_stmt 1 view .LVU106
 354 0052 EBE7     		b	.L23
 355              	.L20:
1020:Drivers/lvgl/src/draw/sw/blend/lv_draw_sw_blend_to_al88.c ****             break;
 356              		.loc 1 1020 13 view .LVU107
1020:Drivers/lvgl/src/draw/sw/blend/lv_draw_sw_blend_to_al88.c ****             break;
 357              		.loc 1 1020 29 is_stmt 0 view .LVU108
 358 0054 0378     		ldrb	r3, [r0]	@ zero_extendqisi2
1020:Drivers/lvgl/src/draw/sw/blend/lv_draw_sw_blend_to_al88.c ****             break;
 359              		.loc 1 1020 41 view .LVU109
 360 0056 9DF80410 		ldrb	r1, [sp, #4]	@ zero_extendqisi2
1020:Drivers/lvgl/src/draw/sw/blend/lv_draw_sw_blend_to_al88.c ****             break;
 361              		.loc 1 1020 36 view .LVU110
 362 005a 01FB03F3 		mul	r3, r1, r3
1020:Drivers/lvgl/src/draw/sw/blend/lv_draw_sw_blend_to_al88.c ****             break;
 363              		.loc 1 1020 48 view .LVU111
 364 005e 1B12     		asrs	r3, r3, #8
1020:Drivers/lvgl/src/draw/sw/blend/lv_draw_sw_blend_to_al88.c ****             break;
 365              		.loc 1 1020 22 view .LVU112
 366 0060 8DF80C30 		strb	r3, [sp, #12]
1021:Drivers/lvgl/src/draw/sw/blend/lv_draw_sw_blend_to_al88.c ****         case LV_BLEND_MODE_DIFFERENCE:
 367              		.loc 1 1021 13 is_stmt 1 view .LVU113
 368 0064 E2E7     		b	.L23
ARM GAS  /var/folders/qx/2_175_4n2s19vhvtspjhb3qh0000gn/T//cc7k2hqg.s 			page 27


 369              	.L18:
1023:Drivers/lvgl/src/draw/sw/blend/lv_draw_sw_blend_to_al88.c ****             break;
 370              		.loc 1 1023 13 view .LVU114
1023:Drivers/lvgl/src/draw/sw/blend/lv_draw_sw_blend_to_al88.c ****             break;
 371              		.loc 1 1023 24 is_stmt 0 view .LVU115
 372 0066 0378     		ldrb	r3, [r0]	@ zero_extendqisi2
 373 0068 9DF80410 		ldrb	r1, [sp, #4]	@ zero_extendqisi2
 374 006c 5B1A     		subs	r3, r3, r1
 375 006e 002B     		cmp	r3, #0
 376 0070 B8BF     		it	lt
 377 0072 5B42     		rsblt	r3, r3, #0
1023:Drivers/lvgl/src/draw/sw/blend/lv_draw_sw_blend_to_al88.c ****             break;
 378              		.loc 1 1023 22 view .LVU116
 379 0074 8DF80C30 		strb	r3, [sp, #12]
1024:Drivers/lvgl/src/draw/sw/blend/lv_draw_sw_blend_to_al88.c ****         default:
 380              		.loc 1 1024 13 is_stmt 1 view .LVU117
 381 0078 D8E7     		b	.L23
 382              		.cfi_endproc
 383              	.LFE194:
 385              		.section	.text.lv_color_mix_with_alpha_cache_init,"ax",%progbits
 386              		.align	1
 387              		.syntax unified
 388              		.thumb
 389              		.thumb_func
 391              	lv_color_mix_with_alpha_cache_init:
 392              	.LVL13:
 393              	.LFB192:
 991:Drivers/lvgl/src/draw/sw/blend/lv_draw_sw_blend_to_al88.c ****     lv_memzero(&cache->fg_saved, sizeof(lv_color16a_t));
 394              		.loc 1 991 1 view -0
 395              		.cfi_startproc
 396              		@ args = 0, pretend = 0, frame = 0
 397              		@ frame_needed = 0, uses_anonymous_args = 0
 991:Drivers/lvgl/src/draw/sw/blend/lv_draw_sw_blend_to_al88.c ****     lv_memzero(&cache->fg_saved, sizeof(lv_color16a_t));
 398              		.loc 1 991 1 is_stmt 0 view .LVU119
 399 0000 10B5     		push	{r4, lr}
 400              	.LCFI8:
 401              		.cfi_def_cfa_offset 8
 402              		.cfi_offset 4, -8
 403              		.cfi_offset 14, -4
 404 0002 0446     		mov	r4, r0
 992:Drivers/lvgl/src/draw/sw/blend/lv_draw_sw_blend_to_al88.c ****     lv_memzero(&cache->bg_saved, sizeof(lv_color16a_t));
 405              		.loc 1 992 5 is_stmt 1 view .LVU120
 406              	.LVL14:
 407              	.LBB183:
 408              	.LBI183:
 409              		.file 2 "Drivers/lvgl/src/draw/sw/blend/../../../misc/../font/../draw/../misc/../stdlib/lv_string.
   1:Drivers/lvgl/src/draw/sw/blend/../../../misc/../font/../draw/../misc/../stdlib/lv_string.h **** /**
   2:Drivers/lvgl/src/draw/sw/blend/../../../misc/../font/../draw/../misc/../stdlib/lv_string.h ****  * @file lv_string.h
   3:Drivers/lvgl/src/draw/sw/blend/../../../misc/../font/../draw/../misc/../stdlib/lv_string.h ****  *
   4:Drivers/lvgl/src/draw/sw/blend/../../../misc/../font/../draw/../misc/../stdlib/lv_string.h ****  */
   5:Drivers/lvgl/src/draw/sw/blend/../../../misc/../font/../draw/../misc/../stdlib/lv_string.h **** 
   6:Drivers/lvgl/src/draw/sw/blend/../../../misc/../font/../draw/../misc/../stdlib/lv_string.h **** #ifndef LV_STRING_H
   7:Drivers/lvgl/src/draw/sw/blend/../../../misc/../font/../draw/../misc/../stdlib/lv_string.h **** #define LV_STRING_H
   8:Drivers/lvgl/src/draw/sw/blend/../../../misc/../font/../draw/../misc/../stdlib/lv_string.h **** 
   9:Drivers/lvgl/src/draw/sw/blend/../../../misc/../font/../draw/../misc/../stdlib/lv_string.h **** #ifdef __cplusplus
  10:Drivers/lvgl/src/draw/sw/blend/../../../misc/../font/../draw/../misc/../stdlib/lv_string.h **** extern "C" {
  11:Drivers/lvgl/src/draw/sw/blend/../../../misc/../font/../draw/../misc/../stdlib/lv_string.h **** #endif
ARM GAS  /var/folders/qx/2_175_4n2s19vhvtspjhb3qh0000gn/T//cc7k2hqg.s 			page 28


  12:Drivers/lvgl/src/draw/sw/blend/../../../misc/../font/../draw/../misc/../stdlib/lv_string.h **** 
  13:Drivers/lvgl/src/draw/sw/blend/../../../misc/../font/../draw/../misc/../stdlib/lv_string.h **** /*********************
  14:Drivers/lvgl/src/draw/sw/blend/../../../misc/../font/../draw/../misc/../stdlib/lv_string.h ****  *      INCLUDES
  15:Drivers/lvgl/src/draw/sw/blend/../../../misc/../font/../draw/../misc/../stdlib/lv_string.h ****  *********************/
  16:Drivers/lvgl/src/draw/sw/blend/../../../misc/../font/../draw/../misc/../stdlib/lv_string.h **** #include "../lv_conf_internal.h"
  17:Drivers/lvgl/src/draw/sw/blend/../../../misc/../font/../draw/../misc/../stdlib/lv_string.h **** #include "../misc/lv_types.h"
  18:Drivers/lvgl/src/draw/sw/blend/../../../misc/../font/../draw/../misc/../stdlib/lv_string.h **** 
  19:Drivers/lvgl/src/draw/sw/blend/../../../misc/../font/../draw/../misc/../stdlib/lv_string.h **** /*********************
  20:Drivers/lvgl/src/draw/sw/blend/../../../misc/../font/../draw/../misc/../stdlib/lv_string.h ****  *      DEFINES
  21:Drivers/lvgl/src/draw/sw/blend/../../../misc/../font/../draw/../misc/../stdlib/lv_string.h ****  *********************/
  22:Drivers/lvgl/src/draw/sw/blend/../../../misc/../font/../draw/../misc/../stdlib/lv_string.h **** 
  23:Drivers/lvgl/src/draw/sw/blend/../../../misc/../font/../draw/../misc/../stdlib/lv_string.h **** /**********************
  24:Drivers/lvgl/src/draw/sw/blend/../../../misc/../font/../draw/../misc/../stdlib/lv_string.h ****  *      TYPEDEFS
  25:Drivers/lvgl/src/draw/sw/blend/../../../misc/../font/../draw/../misc/../stdlib/lv_string.h ****  **********************/
  26:Drivers/lvgl/src/draw/sw/blend/../../../misc/../font/../draw/../misc/../stdlib/lv_string.h **** 
  27:Drivers/lvgl/src/draw/sw/blend/../../../misc/../font/../draw/../misc/../stdlib/lv_string.h **** /**********************
  28:Drivers/lvgl/src/draw/sw/blend/../../../misc/../font/../draw/../misc/../stdlib/lv_string.h ****  * GLOBAL PROTOTYPES
  29:Drivers/lvgl/src/draw/sw/blend/../../../misc/../font/../draw/../misc/../stdlib/lv_string.h ****  **********************/
  30:Drivers/lvgl/src/draw/sw/blend/../../../misc/../font/../draw/../misc/../stdlib/lv_string.h **** 
  31:Drivers/lvgl/src/draw/sw/blend/../../../misc/../font/../draw/../misc/../stdlib/lv_string.h **** /**
  32:Drivers/lvgl/src/draw/sw/blend/../../../misc/../font/../draw/../misc/../stdlib/lv_string.h ****  * @brief Copies a block of memory from a source address to a destination address.
  33:Drivers/lvgl/src/draw/sw/blend/../../../misc/../font/../draw/../misc/../stdlib/lv_string.h ****  * @param dst Pointer to the destination array where the content is to be copied.
  34:Drivers/lvgl/src/draw/sw/blend/../../../misc/../font/../draw/../misc/../stdlib/lv_string.h ****  * @param src Pointer to the source of data to be copied.
  35:Drivers/lvgl/src/draw/sw/blend/../../../misc/../font/../draw/../misc/../stdlib/lv_string.h ****  * @param len Number of bytes to copy.
  36:Drivers/lvgl/src/draw/sw/blend/../../../misc/../font/../draw/../misc/../stdlib/lv_string.h ****  * @return Pointer to the destination array.
  37:Drivers/lvgl/src/draw/sw/blend/../../../misc/../font/../draw/../misc/../stdlib/lv_string.h ****  * @note The function does not check for any overlapping of the source and destination memory block
  38:Drivers/lvgl/src/draw/sw/blend/../../../misc/../font/../draw/../misc/../stdlib/lv_string.h ****  */
  39:Drivers/lvgl/src/draw/sw/blend/../../../misc/../font/../draw/../misc/../stdlib/lv_string.h **** void * lv_memcpy(void * dst, const void * src, size_t len);
  40:Drivers/lvgl/src/draw/sw/blend/../../../misc/../font/../draw/../misc/../stdlib/lv_string.h **** 
  41:Drivers/lvgl/src/draw/sw/blend/../../../misc/../font/../draw/../misc/../stdlib/lv_string.h **** /**
  42:Drivers/lvgl/src/draw/sw/blend/../../../misc/../font/../draw/../misc/../stdlib/lv_string.h ****  * @brief Fills a block of memory with a specified value.
  43:Drivers/lvgl/src/draw/sw/blend/../../../misc/../font/../draw/../misc/../stdlib/lv_string.h ****  * @param dst Pointer to the destination array to fill with the specified value.
  44:Drivers/lvgl/src/draw/sw/blend/../../../misc/../font/../draw/../misc/../stdlib/lv_string.h ****  * @param v Value to be set. The value is passed as an int, but the function fills
  45:Drivers/lvgl/src/draw/sw/blend/../../../misc/../font/../draw/../misc/../stdlib/lv_string.h ****  *          the block of memory using the unsigned char conversion of this value.
  46:Drivers/lvgl/src/draw/sw/blend/../../../misc/../font/../draw/../misc/../stdlib/lv_string.h ****  * @param len Number of bytes to be set to the value.
  47:Drivers/lvgl/src/draw/sw/blend/../../../misc/../font/../draw/../misc/../stdlib/lv_string.h ****  */
  48:Drivers/lvgl/src/draw/sw/blend/../../../misc/../font/../draw/../misc/../stdlib/lv_string.h **** void lv_memset(void * dst, uint8_t v, size_t len);
  49:Drivers/lvgl/src/draw/sw/blend/../../../misc/../font/../draw/../misc/../stdlib/lv_string.h **** 
  50:Drivers/lvgl/src/draw/sw/blend/../../../misc/../font/../draw/../misc/../stdlib/lv_string.h **** /**
  51:Drivers/lvgl/src/draw/sw/blend/../../../misc/../font/../draw/../misc/../stdlib/lv_string.h ****  * @brief Move a block of memory from source to destination
  52:Drivers/lvgl/src/draw/sw/blend/../../../misc/../font/../draw/../misc/../stdlib/lv_string.h ****  * @param dst Pointer to the destination array where the content is to be copied.
  53:Drivers/lvgl/src/draw/sw/blend/../../../misc/../font/../draw/../misc/../stdlib/lv_string.h ****  * @param src Pointer to the source of data to be copied.
  54:Drivers/lvgl/src/draw/sw/blend/../../../misc/../font/../draw/../misc/../stdlib/lv_string.h ****  * @param len Number of bytes to copy
  55:Drivers/lvgl/src/draw/sw/blend/../../../misc/../font/../draw/../misc/../stdlib/lv_string.h ****  * @return Pointer to the destination array.
  56:Drivers/lvgl/src/draw/sw/blend/../../../misc/../font/../draw/../misc/../stdlib/lv_string.h ****  */
  57:Drivers/lvgl/src/draw/sw/blend/../../../misc/../font/../draw/../misc/../stdlib/lv_string.h **** void * lv_memmove(void * dst, const void * src, size_t len);
  58:Drivers/lvgl/src/draw/sw/blend/../../../misc/../font/../draw/../misc/../stdlib/lv_string.h **** 
  59:Drivers/lvgl/src/draw/sw/blend/../../../misc/../font/../draw/../misc/../stdlib/lv_string.h **** /**
  60:Drivers/lvgl/src/draw/sw/blend/../../../misc/../font/../draw/../misc/../stdlib/lv_string.h ****  * @brief This function will compare two memory blocks
  61:Drivers/lvgl/src/draw/sw/blend/../../../misc/../font/../draw/../misc/../stdlib/lv_string.h ****  * @param p1 Pointer to the first memory block
  62:Drivers/lvgl/src/draw/sw/blend/../../../misc/../font/../draw/../misc/../stdlib/lv_string.h ****  * @param p2 Pointer to the second memory block
  63:Drivers/lvgl/src/draw/sw/blend/../../../misc/../font/../draw/../misc/../stdlib/lv_string.h ****  * @param len Number of bytes to compare
  64:Drivers/lvgl/src/draw/sw/blend/../../../misc/../font/../draw/../misc/../stdlib/lv_string.h ****  * @return The difference between the value of the first unmatching byte.
  65:Drivers/lvgl/src/draw/sw/blend/../../../misc/../font/../draw/../misc/../stdlib/lv_string.h ****  */
  66:Drivers/lvgl/src/draw/sw/blend/../../../misc/../font/../draw/../misc/../stdlib/lv_string.h **** int lv_memcmp(const void * p1, const void * p2, size_t len);
  67:Drivers/lvgl/src/draw/sw/blend/../../../misc/../font/../draw/../misc/../stdlib/lv_string.h **** 
  68:Drivers/lvgl/src/draw/sw/blend/../../../misc/../font/../draw/../misc/../stdlib/lv_string.h **** /**
ARM GAS  /var/folders/qx/2_175_4n2s19vhvtspjhb3qh0000gn/T//cc7k2hqg.s 			page 29


  69:Drivers/lvgl/src/draw/sw/blend/../../../misc/../font/../draw/../misc/../stdlib/lv_string.h ****  * Same as `memset(dst, 0x00, len)`.
  70:Drivers/lvgl/src/draw/sw/blend/../../../misc/../font/../draw/../misc/../stdlib/lv_string.h ****  * @param dst pointer to the destination buffer
  71:Drivers/lvgl/src/draw/sw/blend/../../../misc/../font/../draw/../misc/../stdlib/lv_string.h ****  * @param len number of byte to set
  72:Drivers/lvgl/src/draw/sw/blend/../../../misc/../font/../draw/../misc/../stdlib/lv_string.h ****  */
  73:Drivers/lvgl/src/draw/sw/blend/../../../misc/../font/../draw/../misc/../stdlib/lv_string.h **** static inline void lv_memzero(void * dst, size_t len)
 410              		.loc 2 73 20 view .LVU121
 411              	.LBB184:
  74:Drivers/lvgl/src/draw/sw/blend/../../../misc/../font/../draw/../misc/../stdlib/lv_string.h **** {
  75:Drivers/lvgl/src/draw/sw/blend/../../../misc/../font/../draw/../misc/../stdlib/lv_string.h ****     lv_memset(dst, 0x00, len);
 412              		.loc 2 75 5 view .LVU122
 413 0004 0222     		movs	r2, #2
 414 0006 0021     		movs	r1, #0
 415 0008 FFF7FEFF 		bl	lv_memset
 416              	.LVL15:
 417              		.loc 2 75 5 is_stmt 0 view .LVU123
 418              	.LBE184:
 419              	.LBE183:
 993:Drivers/lvgl/src/draw/sw/blend/lv_draw_sw_blend_to_al88.c ****     lv_memzero(&cache->res_saved, sizeof(lv_color16a_t));
 420              		.loc 1 993 5 is_stmt 1 view .LVU124
 421              	.LBB185:
 422              	.LBI185:
  73:Drivers/lvgl/src/draw/sw/blend/../../../misc/../font/../draw/../misc/../stdlib/lv_string.h **** {
 423              		.loc 2 73 20 view .LVU125
 424              	.LBB186:
 425              		.loc 2 75 5 view .LVU126
 426 000c 0222     		movs	r2, #2
 427 000e 0021     		movs	r1, #0
 428 0010 A018     		adds	r0, r4, r2
 429              	.LVL16:
 430              		.loc 2 75 5 is_stmt 0 view .LVU127
 431 0012 FFF7FEFF 		bl	lv_memset
 432              	.LVL17:
 433              		.loc 2 75 5 view .LVU128
 434              	.LBE186:
 435              	.LBE185:
 994:Drivers/lvgl/src/draw/sw/blend/lv_draw_sw_blend_to_al88.c ****     cache->res_alpha_saved = 255;
 436              		.loc 1 994 5 is_stmt 1 view .LVU129
 437              	.LBB187:
 438              	.LBI187:
  73:Drivers/lvgl/src/draw/sw/blend/../../../misc/../font/../draw/../misc/../stdlib/lv_string.h **** {
 439              		.loc 2 73 20 view .LVU130
 440              	.LBB188:
 441              		.loc 2 75 5 view .LVU131
 442 0016 0222     		movs	r2, #2
 443 0018 0021     		movs	r1, #0
 444 001a 201D     		adds	r0, r4, #4
 445              	.LVL18:
 446              		.loc 2 75 5 is_stmt 0 view .LVU132
 447 001c FFF7FEFF 		bl	lv_memset
 448              	.LVL19:
 449              		.loc 2 75 5 view .LVU133
 450              	.LBE188:
 451              	.LBE187:
 995:Drivers/lvgl/src/draw/sw/blend/lv_draw_sw_blend_to_al88.c ****     cache->ratio_saved = 255;
 452              		.loc 1 995 5 is_stmt 1 view .LVU134
 995:Drivers/lvgl/src/draw/sw/blend/lv_draw_sw_blend_to_al88.c ****     cache->ratio_saved = 255;
 453              		.loc 1 995 28 is_stmt 0 view .LVU135
ARM GAS  /var/folders/qx/2_175_4n2s19vhvtspjhb3qh0000gn/T//cc7k2hqg.s 			page 30


 454 0020 FF23     		movs	r3, #255
 455 0022 A371     		strb	r3, [r4, #6]
 996:Drivers/lvgl/src/draw/sw/blend/lv_draw_sw_blend_to_al88.c **** }
 456              		.loc 1 996 5 is_stmt 1 view .LVU136
 996:Drivers/lvgl/src/draw/sw/blend/lv_draw_sw_blend_to_al88.c **** }
 457              		.loc 1 996 24 is_stmt 0 view .LVU137
 458 0024 E371     		strb	r3, [r4, #7]
 997:Drivers/lvgl/src/draw/sw/blend/lv_draw_sw_blend_to_al88.c **** 
 459              		.loc 1 997 1 view .LVU138
 460 0026 10BD     		pop	{r4, pc}
 997:Drivers/lvgl/src/draw/sw/blend/lv_draw_sw_blend_to_al88.c **** 
 461              		.loc 1 997 1 view .LVU139
 462              		.cfi_endproc
 463              	.LFE192:
 465              		.section	.text.l8_image_blend,"ax",%progbits
 466              		.align	1
 467              		.syntax unified
 468              		.thumb
 469              		.thumb_func
 471              	l8_image_blend:
 472              	.LVL20:
 473              	.LFB184:
 449:Drivers/lvgl/src/draw/sw/blend/lv_draw_sw_blend_to_al88.c ****     int32_t w = dsc->dest_w;
 474              		.loc 1 449 1 is_stmt 1 view -0
 475              		.cfi_startproc
 476              		@ args = 0, pretend = 0, frame = 32
 477              		@ frame_needed = 0, uses_anonymous_args = 0
 449:Drivers/lvgl/src/draw/sw/blend/lv_draw_sw_blend_to_al88.c ****     int32_t w = dsc->dest_w;
 478              		.loc 1 449 1 is_stmt 0 view .LVU141
 479 0000 2DE9F04F 		push	{r4, r5, r6, r7, r8, r9, r10, fp, lr}
 480              	.LCFI9:
 481              		.cfi_def_cfa_offset 36
 482              		.cfi_offset 4, -36
 483              		.cfi_offset 5, -32
 484              		.cfi_offset 6, -28
 485              		.cfi_offset 7, -24
 486              		.cfi_offset 8, -20
 487              		.cfi_offset 9, -16
 488              		.cfi_offset 10, -12
 489              		.cfi_offset 11, -8
 490              		.cfi_offset 14, -4
 491 0004 89B0     		sub	sp, sp, #36
 492              	.LCFI10:
 493              		.cfi_def_cfa_offset 72
 494 0006 8146     		mov	r9, r0
 450:Drivers/lvgl/src/draw/sw/blend/lv_draw_sw_blend_to_al88.c ****     int32_t h = dsc->dest_h;
 495              		.loc 1 450 5 is_stmt 1 view .LVU142
 450:Drivers/lvgl/src/draw/sw/blend/lv_draw_sw_blend_to_al88.c ****     int32_t h = dsc->dest_h;
 496              		.loc 1 450 13 is_stmt 0 view .LVU143
 497 0008 D0F80480 		ldr	r8, [r0, #4]
 498              	.LVL21:
 451:Drivers/lvgl/src/draw/sw/blend/lv_draw_sw_blend_to_al88.c ****     lv_opa_t opa = dsc->opa;
 499              		.loc 1 451 5 is_stmt 1 view .LVU144
 451:Drivers/lvgl/src/draw/sw/blend/lv_draw_sw_blend_to_al88.c ****     lv_opa_t opa = dsc->opa;
 500              		.loc 1 451 13 is_stmt 0 view .LVU145
 501 000c D0F808B0 		ldr	fp, [r0, #8]
 502              	.LVL22:
ARM GAS  /var/folders/qx/2_175_4n2s19vhvtspjhb3qh0000gn/T//cc7k2hqg.s 			page 31


 452:Drivers/lvgl/src/draw/sw/blend/lv_draw_sw_blend_to_al88.c ****     lv_color16a_t * dest_buf_al88 = dsc->dest_buf;
 503              		.loc 1 452 5 is_stmt 1 view .LVU146
 452:Drivers/lvgl/src/draw/sw/blend/lv_draw_sw_blend_to_al88.c ****     lv_color16a_t * dest_buf_al88 = dsc->dest_buf;
 504              		.loc 1 452 14 is_stmt 0 view .LVU147
 505 0010 90F821A0 		ldrb	r10, [r0, #33]	@ zero_extendqisi2
 506              	.LVL23:
 453:Drivers/lvgl/src/draw/sw/blend/lv_draw_sw_blend_to_al88.c ****     int32_t dest_stride = dsc->dest_stride;
 507              		.loc 1 453 5 is_stmt 1 view .LVU148
 453:Drivers/lvgl/src/draw/sw/blend/lv_draw_sw_blend_to_al88.c ****     int32_t dest_stride = dsc->dest_stride;
 508              		.loc 1 453 21 is_stmt 0 view .LVU149
 509 0014 0668     		ldr	r6, [r0]
 510              	.LVL24:
 454:Drivers/lvgl/src/draw/sw/blend/lv_draw_sw_blend_to_al88.c ****     const uint8_t * src_buf_l8 = dsc->src_buf;
 511              		.loc 1 454 5 is_stmt 1 view .LVU150
 454:Drivers/lvgl/src/draw/sw/blend/lv_draw_sw_blend_to_al88.c ****     const uint8_t * src_buf_l8 = dsc->src_buf;
 512              		.loc 1 454 13 is_stmt 0 view .LVU151
 513 0016 C368     		ldr	r3, [r0, #12]
 514 0018 0193     		str	r3, [sp, #4]
 515              	.LVL25:
 455:Drivers/lvgl/src/draw/sw/blend/lv_draw_sw_blend_to_al88.c ****     int32_t src_stride = dsc->src_stride;
 516              		.loc 1 455 5 is_stmt 1 view .LVU152
 455:Drivers/lvgl/src/draw/sw/blend/lv_draw_sw_blend_to_al88.c ****     int32_t src_stride = dsc->src_stride;
 517              		.loc 1 455 21 is_stmt 0 view .LVU153
 518 001a 8769     		ldr	r7, [r0, #24]
 519              	.LVL26:
 456:Drivers/lvgl/src/draw/sw/blend/lv_draw_sw_blend_to_al88.c ****     const lv_opa_t * mask_buf = dsc->mask_buf;
 520              		.loc 1 456 5 is_stmt 1 view .LVU154
 456:Drivers/lvgl/src/draw/sw/blend/lv_draw_sw_blend_to_al88.c ****     const lv_opa_t * mask_buf = dsc->mask_buf;
 521              		.loc 1 456 13 is_stmt 0 view .LVU155
 522 001c C369     		ldr	r3, [r0, #28]
 523              	.LVL27:
 456:Drivers/lvgl/src/draw/sw/blend/lv_draw_sw_blend_to_al88.c ****     const lv_opa_t * mask_buf = dsc->mask_buf;
 524              		.loc 1 456 13 view .LVU156
 525 001e 0093     		str	r3, [sp]
 526              	.LVL28:
 457:Drivers/lvgl/src/draw/sw/blend/lv_draw_sw_blend_to_al88.c ****     int32_t mask_stride = dsc->mask_stride;
 527              		.loc 1 457 5 is_stmt 1 view .LVU157
 457:Drivers/lvgl/src/draw/sw/blend/lv_draw_sw_blend_to_al88.c ****     int32_t mask_stride = dsc->mask_stride;
 528              		.loc 1 457 22 is_stmt 0 view .LVU158
 529 0020 0569     		ldr	r5, [r0, #16]
 530              	.LVL29:
 458:Drivers/lvgl/src/draw/sw/blend/lv_draw_sw_blend_to_al88.c **** 
 531              		.loc 1 458 5 is_stmt 1 view .LVU159
 458:Drivers/lvgl/src/draw/sw/blend/lv_draw_sw_blend_to_al88.c **** 
 532              		.loc 1 458 13 is_stmt 0 view .LVU160
 533 0022 4369     		ldr	r3, [r0, #20]
 534              	.LVL30:
 458:Drivers/lvgl/src/draw/sw/blend/lv_draw_sw_blend_to_al88.c **** 
 535              		.loc 1 458 13 view .LVU161
 536 0024 0293     		str	r3, [sp, #8]
 537              	.LVL31:
 460:Drivers/lvgl/src/draw/sw/blend/lv_draw_sw_blend_to_al88.c ****     lv_color_mix_with_alpha_cache_init(&cache);
 538              		.loc 1 460 5 is_stmt 1 view .LVU162
 461:Drivers/lvgl/src/draw/sw/blend/lv_draw_sw_blend_to_al88.c **** 
 539              		.loc 1 461 5 view .LVU163
 540 0026 06A8     		add	r0, sp, #24
 541              	.LVL32:
ARM GAS  /var/folders/qx/2_175_4n2s19vhvtspjhb3qh0000gn/T//cc7k2hqg.s 			page 32


 461:Drivers/lvgl/src/draw/sw/blend/lv_draw_sw_blend_to_al88.c **** 
 542              		.loc 1 461 5 is_stmt 0 view .LVU164
 543 0028 FFF7FEFF 		bl	lv_color_mix_with_alpha_cache_init
 544              	.LVL33:
 463:Drivers/lvgl/src/draw/sw/blend/lv_draw_sw_blend_to_al88.c **** 
 545              		.loc 1 463 5 is_stmt 1 view .LVU165
 465:Drivers/lvgl/src/draw/sw/blend/lv_draw_sw_blend_to_al88.c ****         if(mask_buf == NULL && opa >= LV_OPA_MAX) {
 546              		.loc 1 465 5 view .LVU166
 465:Drivers/lvgl/src/draw/sw/blend/lv_draw_sw_blend_to_al88.c ****         if(mask_buf == NULL && opa >= LV_OPA_MAX) {
 547              		.loc 1 465 11 is_stmt 0 view .LVU167
 548 002c 99F82230 		ldrb	r3, [r9, #34]	@ zero_extendqisi2
 465:Drivers/lvgl/src/draw/sw/blend/lv_draw_sw_blend_to_al88.c ****         if(mask_buf == NULL && opa >= LV_OPA_MAX) {
 549              		.loc 1 465 7 view .LVU168
 550 0030 002B     		cmp	r3, #0
 551 0032 40F0AC80 		bne	.L51
 466:Drivers/lvgl/src/draw/sw/blend/lv_draw_sw_blend_to_al88.c ****             if(LV_RESULT_INVALID == LV_DRAW_SW_AL88_BLEND_NORMAL_TO_AL88(dsc)) {
 552              		.loc 1 466 9 is_stmt 1 view .LVU169
 466:Drivers/lvgl/src/draw/sw/blend/lv_draw_sw_blend_to_al88.c ****             if(LV_RESULT_INVALID == LV_DRAW_SW_AL88_BLEND_NORMAL_TO_AL88(dsc)) {
 553              		.loc 1 466 11 is_stmt 0 view .LVU170
 554 0036 85B1     		cbz	r5, .L62
 492:Drivers/lvgl/src/draw/sw/blend/lv_draw_sw_blend_to_al88.c ****             if(LV_RESULT_INVALID == LV_DRAW_SW_AL88_BLEND_NORMAL_TO_AL88_WITH_MASK(dsc)) {
 555              		.loc 1 492 14 is_stmt 1 view .LVU171
 492:Drivers/lvgl/src/draw/sw/blend/lv_draw_sw_blend_to_al88.c ****             if(LV_RESULT_INVALID == LV_DRAW_SW_AL88_BLEND_NORMAL_TO_AL88_WITH_MASK(dsc)) {
 556              		.loc 1 492 16 is_stmt 0 view .LVU172
 557 0038 002D     		cmp	r5, #0
 558 003a 00F0B180 		beq	.L29
 492:Drivers/lvgl/src/draw/sw/blend/lv_draw_sw_blend_to_al88.c ****             if(LV_RESULT_INVALID == LV_DRAW_SW_AL88_BLEND_NORMAL_TO_AL88_WITH_MASK(dsc)) {
 559              		.loc 1 492 26 discriminator 1 view .LVU173
 560 003e BAF1FC0F 		cmp	r10, #252
 561 0042 56D8     		bhi	.L55
 507:Drivers/lvgl/src/draw/sw/blend/lv_draw_sw_blend_to_al88.c ****             if(LV_RESULT_INVALID == LV_DRAW_SW_AL88_BLEND_NORMAL_TO_AL88_MIX_MASK_OPA(dsc)) {
 562              		.loc 1 507 14 is_stmt 1 view .LVU174
 507:Drivers/lvgl/src/draw/sw/blend/lv_draw_sw_blend_to_al88.c ****             if(LV_RESULT_INVALID == LV_DRAW_SW_AL88_BLEND_NORMAL_TO_AL88_MIX_MASK_OPA(dsc)) {
 563              		.loc 1 507 16 is_stmt 0 view .LVU175
 564 0044 002D     		cmp	r5, #0
 565 0046 00F0AB80 		beq	.L29
 509:Drivers/lvgl/src/draw/sw/blend/lv_draw_sw_blend_to_al88.c ****                     for(x = 0; x < w; x++) {
 566              		.loc 1 509 23 view .LVU176
 567 004a 4FF00009 		mov	r9, #0
 568              	.LVL34:
 509:Drivers/lvgl/src/draw/sw/blend/lv_draw_sw_blend_to_al88.c ****                     for(x = 0; x < w; x++) {
 569              		.loc 1 509 23 view .LVU177
 570 004e 4B46     		mov	r3, r9
 571 0050 B146     		mov	r9, r6
 572 0052 2E46     		mov	r6, r5
 573              	.LVL35:
 509:Drivers/lvgl/src/draw/sw/blend/lv_draw_sw_blend_to_al88.c ****                     for(x = 0; x < w; x++) {
 574              		.loc 1 509 23 view .LVU178
 575 0054 3D46     		mov	r5, r7
 576              	.LVL36:
 509:Drivers/lvgl/src/draw/sw/blend/lv_draw_sw_blend_to_al88.c ****                     for(x = 0; x < w; x++) {
 577              		.loc 1 509 23 view .LVU179
 578 0056 1F46     		mov	r7, r3
 579              	.LVL37:
 509:Drivers/lvgl/src/draw/sw/blend/lv_draw_sw_blend_to_al88.c ****                     for(x = 0; x < w; x++) {
 580              		.loc 1 509 23 view .LVU180
 581 0058 6DE0     		b	.L43
ARM GAS  /var/folders/qx/2_175_4n2s19vhvtspjhb3qh0000gn/T//cc7k2hqg.s 			page 33


 582              	.LVL38:
 583              	.L62:
 466:Drivers/lvgl/src/draw/sw/blend/lv_draw_sw_blend_to_al88.c ****             if(LV_RESULT_INVALID == LV_DRAW_SW_AL88_BLEND_NORMAL_TO_AL88(dsc)) {
 584              		.loc 1 466 29 discriminator 1 view .LVU181
 585 005a BAF1FC0F 		cmp	r10, #252
 586 005e 14D8     		bhi	.L52
 587 0060 DDF80090 		ldr	r9, [sp]
 588              	.LVL39:
 466:Drivers/lvgl/src/draw/sw/blend/lv_draw_sw_blend_to_al88.c ****             if(LV_RESULT_INVALID == LV_DRAW_SW_AL88_BLEND_NORMAL_TO_AL88(dsc)) {
 589              		.loc 1 466 29 discriminator 1 view .LVU182
 590 0064 27E0     		b	.L33
 591              	.LVL40:
 592              	.L34:
 470:Drivers/lvgl/src/draw/sw/blend/lv_draw_sw_blend_to_al88.c ****                         dest_buf_al88[x].alpha = 255;
 593              		.loc 1 470 25 is_stmt 1 view .LVU183
 470:Drivers/lvgl/src/draw/sw/blend/lv_draw_sw_blend_to_al88.c ****                         dest_buf_al88[x].alpha = 255;
 594              		.loc 1 470 38 is_stmt 0 view .LVU184
 595 0066 06EB4302 		add	r2, r6, r3, lsl #1
 470:Drivers/lvgl/src/draw/sw/blend/lv_draw_sw_blend_to_al88.c ****                         dest_buf_al88[x].alpha = 255;
 596              		.loc 1 470 59 view .LVU185
 597 006a F95C     		ldrb	r1, [r7, r3]	@ zero_extendqisi2
 470:Drivers/lvgl/src/draw/sw/blend/lv_draw_sw_blend_to_al88.c ****                         dest_buf_al88[x].alpha = 255;
 598              		.loc 1 470 47 view .LVU186
 599 006c 06F81310 		strb	r1, [r6, r3, lsl #1]
 471:Drivers/lvgl/src/draw/sw/blend/lv_draw_sw_blend_to_al88.c ****                     }
 600              		.loc 1 471 25 is_stmt 1 view .LVU187
 471:Drivers/lvgl/src/draw/sw/blend/lv_draw_sw_blend_to_al88.c ****                     }
 601              		.loc 1 471 48 is_stmt 0 view .LVU188
 602 0070 FF21     		movs	r1, #255
 603 0072 5170     		strb	r1, [r2, #1]
 469:Drivers/lvgl/src/draw/sw/blend/lv_draw_sw_blend_to_al88.c ****                         dest_buf_al88[x].lumi = src_buf_l8[x];
 604              		.loc 1 469 40 is_stmt 1 discriminator 3 view .LVU189
 605 0074 0133     		adds	r3, r3, #1
 606              	.LVL41:
 607              	.L35:
 469:Drivers/lvgl/src/draw/sw/blend/lv_draw_sw_blend_to_al88.c ****                         dest_buf_al88[x].lumi = src_buf_l8[x];
 608              		.loc 1 469 34 discriminator 1 view .LVU190
 609 0076 4345     		cmp	r3, r8
 610 0078 F5DB     		blt	.L34
 473:Drivers/lvgl/src/draw/sw/blend/lv_draw_sw_blend_to_al88.c ****                     src_buf_l8 = drawbuf_next_row(src_buf_l8, src_stride);
 611              		.loc 1 473 21 view .LVU191
 612              	.LVL42:
 613              	.LBB189:
 614              	.LBI189:
1032:Drivers/lvgl/src/draw/sw/blend/lv_draw_sw_blend_to_al88.c **** 
1033:Drivers/lvgl/src/draw/sw/blend/lv_draw_sw_blend_to_al88.c **** static inline void * LV_ATTRIBUTE_FAST_MEM drawbuf_next_row(const void * buf, uint32_t stride)
 615              		.loc 1 1033 44 view .LVU192
 616              	.LBB190:
1034:Drivers/lvgl/src/draw/sw/blend/lv_draw_sw_blend_to_al88.c **** {
1035:Drivers/lvgl/src/draw/sw/blend/lv_draw_sw_blend_to_al88.c ****     return (void *)((uint8_t *)buf + stride);
 617              		.loc 1 1035 5 view .LVU193
 618              		.loc 1 1035 12 is_stmt 0 view .LVU194
 619 007a 2644     		add	r6, r6, r4
 620              	.LVL43:
 621              		.loc 1 1035 12 view .LVU195
 622              	.LBE190:
 623              	.LBE189:
ARM GAS  /var/folders/qx/2_175_4n2s19vhvtspjhb3qh0000gn/T//cc7k2hqg.s 			page 34


 474:Drivers/lvgl/src/draw/sw/blend/lv_draw_sw_blend_to_al88.c ****                 }
 624              		.loc 1 474 21 is_stmt 1 view .LVU196
 625              	.LBB191:
 626              	.LBI191:
1033:Drivers/lvgl/src/draw/sw/blend/lv_draw_sw_blend_to_al88.c **** {
 627              		.loc 1 1033 44 view .LVU197
 628              	.LBB192:
 629              		.loc 1 1035 5 view .LVU198
 630              		.loc 1 1035 12 is_stmt 0 view .LVU199
 631 007c 2F44     		add	r7, r7, r5
 632              	.LVL44:
 633              		.loc 1 1035 12 view .LVU200
 634              	.LBE192:
 635              	.LBE191:
 468:Drivers/lvgl/src/draw/sw/blend/lv_draw_sw_blend_to_al88.c ****                     for(x = 0; x < w; x++) {
 636              		.loc 1 468 36 is_stmt 1 discriminator 2 view .LVU201
 637 007e 0130     		adds	r0, r0, #1
 638              	.LVL45:
 639              	.L32:
 468:Drivers/lvgl/src/draw/sw/blend/lv_draw_sw_blend_to_al88.c ****                     for(x = 0; x < w; x++) {
 640              		.loc 1 468 30 discriminator 1 view .LVU202
 641 0080 5845     		cmp	r0, fp
 642 0082 80F28D80 		bge	.L29
 469:Drivers/lvgl/src/draw/sw/blend/lv_draw_sw_blend_to_al88.c ****                         dest_buf_al88[x].lumi = src_buf_l8[x];
 643              		.loc 1 469 27 is_stmt 0 view .LVU203
 644 0086 0023     		movs	r3, #0
 645 0088 F5E7     		b	.L35
 646              	.LVL46:
 647              	.L52:
 468:Drivers/lvgl/src/draw/sw/blend/lv_draw_sw_blend_to_al88.c ****                     for(x = 0; x < w; x++) {
 648              		.loc 1 468 23 view .LVU204
 649 008a 0020     		movs	r0, #0
 650 008c 019C     		ldr	r4, [sp, #4]
 651 008e 009D     		ldr	r5, [sp]
 652              	.LVL47:
 468:Drivers/lvgl/src/draw/sw/blend/lv_draw_sw_blend_to_al88.c ****                     for(x = 0; x < w; x++) {
 653              		.loc 1 468 23 view .LVU205
 654 0090 F6E7     		b	.L32
 655              	.LVL48:
 656              	.L37:
 657              	.LBB193:
 482:Drivers/lvgl/src/draw/sw/blend/lv_draw_sw_blend_to_al88.c ****                         src_color.lumi = src_buf_l8[x];
 658              		.loc 1 482 25 is_stmt 1 view .LVU206
 483:Drivers/lvgl/src/draw/sw/blend/lv_draw_sw_blend_to_al88.c ****                         src_color.alpha = opa;
 659              		.loc 1 483 25 view .LVU207
 483:Drivers/lvgl/src/draw/sw/blend/lv_draw_sw_blend_to_al88.c ****                         src_color.alpha = opa;
 660              		.loc 1 483 52 is_stmt 0 view .LVU208
 661 0092 3B5D     		ldrb	r3, [r7, r4]	@ zero_extendqisi2
 483:Drivers/lvgl/src/draw/sw/blend/lv_draw_sw_blend_to_al88.c ****                         src_color.alpha = opa;
 662              		.loc 1 483 40 view .LVU209
 663 0094 8DF81430 		strb	r3, [sp, #20]
 484:Drivers/lvgl/src/draw/sw/blend/lv_draw_sw_blend_to_al88.c ****                         lv_color_16a_16a_mix(src_color, &dest_buf_al88[x], &cache);
 664              		.loc 1 484 25 is_stmt 1 view .LVU210
 484:Drivers/lvgl/src/draw/sw/blend/lv_draw_sw_blend_to_al88.c ****                         lv_color_16a_16a_mix(src_color, &dest_buf_al88[x], &cache);
 665              		.loc 1 484 41 is_stmt 0 view .LVU211
 666 0098 8DF815A0 		strb	r10, [sp, #21]
 485:Drivers/lvgl/src/draw/sw/blend/lv_draw_sw_blend_to_al88.c ****                     }
ARM GAS  /var/folders/qx/2_175_4n2s19vhvtspjhb3qh0000gn/T//cc7k2hqg.s 			page 35


 667              		.loc 1 485 25 is_stmt 1 view .LVU212
 668 009c 06AA     		add	r2, sp, #24
 669 009e 06EB4401 		add	r1, r6, r4, lsl #1
 670 00a2 0598     		ldr	r0, [sp, #20]
 671 00a4 FFF7FEFF 		bl	lv_color_16a_16a_mix
 672              	.LVL49:
 673              	.LBE193:
 481:Drivers/lvgl/src/draw/sw/blend/lv_draw_sw_blend_to_al88.c ****                         lv_color16a_t src_color;
 674              		.loc 1 481 40 discriminator 3 view .LVU213
 675 00a8 0134     		adds	r4, r4, #1
 676              	.LVL50:
 677              	.L38:
 481:Drivers/lvgl/src/draw/sw/blend/lv_draw_sw_blend_to_al88.c ****                         lv_color16a_t src_color;
 678              		.loc 1 481 34 discriminator 1 view .LVU214
 679 00aa 4445     		cmp	r4, r8
 680 00ac F1DB     		blt	.L37
 487:Drivers/lvgl/src/draw/sw/blend/lv_draw_sw_blend_to_al88.c ****                     src_buf_l8 = drawbuf_next_row(src_buf_l8, src_stride);
 681              		.loc 1 487 21 view .LVU215
 682              	.LVL51:
 683              	.LBB194:
 684              	.LBI194:
1033:Drivers/lvgl/src/draw/sw/blend/lv_draw_sw_blend_to_al88.c **** {
 685              		.loc 1 1033 44 view .LVU216
 686              	.LBB195:
 687              		.loc 1 1035 5 view .LVU217
 688              		.loc 1 1035 12 is_stmt 0 view .LVU218
 689 00ae 019B     		ldr	r3, [sp, #4]
 690 00b0 1E44     		add	r6, r6, r3
 691              	.LVL52:
 692              		.loc 1 1035 12 view .LVU219
 693              	.LBE195:
 694              	.LBE194:
 488:Drivers/lvgl/src/draw/sw/blend/lv_draw_sw_blend_to_al88.c ****                 }
 695              		.loc 1 488 21 is_stmt 1 view .LVU220
 696              	.LBB196:
 697              	.LBI196:
1033:Drivers/lvgl/src/draw/sw/blend/lv_draw_sw_blend_to_al88.c **** {
 698              		.loc 1 1033 44 view .LVU221
 699              	.LBB197:
 700              		.loc 1 1035 5 view .LVU222
 701              		.loc 1 1035 12 is_stmt 0 view .LVU223
 702 00b2 4F44     		add	r7, r7, r9
 703              	.LVL53:
 704              		.loc 1 1035 12 view .LVU224
 705              	.LBE197:
 706              	.LBE196:
 480:Drivers/lvgl/src/draw/sw/blend/lv_draw_sw_blend_to_al88.c ****                     for(x = 0; x < w; x++) {
 707              		.loc 1 480 36 is_stmt 1 discriminator 2 view .LVU225
 708 00b4 0135     		adds	r5, r5, #1
 709              	.LVL54:
 710              	.L33:
 480:Drivers/lvgl/src/draw/sw/blend/lv_draw_sw_blend_to_al88.c ****                     for(x = 0; x < w; x++) {
 711              		.loc 1 480 30 discriminator 1 view .LVU226
 712 00b6 5D45     		cmp	r5, fp
 713 00b8 72DA     		bge	.L29
 481:Drivers/lvgl/src/draw/sw/blend/lv_draw_sw_blend_to_al88.c ****                         lv_color16a_t src_color;
 714              		.loc 1 481 27 is_stmt 0 view .LVU227
ARM GAS  /var/folders/qx/2_175_4n2s19vhvtspjhb3qh0000gn/T//cc7k2hqg.s 			page 36


 715 00ba 0024     		movs	r4, #0
 716 00bc F5E7     		b	.L38
 717              	.LVL55:
 718              	.L41:
 719              	.LBB198:
 496:Drivers/lvgl/src/draw/sw/blend/lv_draw_sw_blend_to_al88.c ****                         src_color.lumi = src_buf_l8[x];
 720              		.loc 1 496 25 is_stmt 1 view .LVU228
 497:Drivers/lvgl/src/draw/sw/blend/lv_draw_sw_blend_to_al88.c ****                         src_color.alpha = mask_buf[x];
 721              		.loc 1 497 25 view .LVU229
 497:Drivers/lvgl/src/draw/sw/blend/lv_draw_sw_blend_to_al88.c ****                         src_color.alpha = mask_buf[x];
 722              		.loc 1 497 52 is_stmt 0 view .LVU230
 723 00be 19F80430 		ldrb	r3, [r9, r4]	@ zero_extendqisi2
 497:Drivers/lvgl/src/draw/sw/blend/lv_draw_sw_blend_to_al88.c ****                         src_color.alpha = mask_buf[x];
 724              		.loc 1 497 40 view .LVU231
 725 00c2 8DF81430 		strb	r3, [sp, #20]
 498:Drivers/lvgl/src/draw/sw/blend/lv_draw_sw_blend_to_al88.c ****                         lv_color_16a_16a_mix(src_color, &dest_buf_al88[x], &cache);
 726              		.loc 1 498 25 is_stmt 1 view .LVU232
 498:Drivers/lvgl/src/draw/sw/blend/lv_draw_sw_blend_to_al88.c ****                         lv_color_16a_16a_mix(src_color, &dest_buf_al88[x], &cache);
 727              		.loc 1 498 51 is_stmt 0 view .LVU233
 728 00c6 2B5D     		ldrb	r3, [r5, r4]	@ zero_extendqisi2
 498:Drivers/lvgl/src/draw/sw/blend/lv_draw_sw_blend_to_al88.c ****                         lv_color_16a_16a_mix(src_color, &dest_buf_al88[x], &cache);
 729              		.loc 1 498 41 view .LVU234
 730 00c8 8DF81530 		strb	r3, [sp, #21]
 499:Drivers/lvgl/src/draw/sw/blend/lv_draw_sw_blend_to_al88.c ****                     }
 731              		.loc 1 499 25 is_stmt 1 view .LVU235
 732 00cc 06AA     		add	r2, sp, #24
 733 00ce 07EB4401 		add	r1, r7, r4, lsl #1
 734 00d2 0598     		ldr	r0, [sp, #20]
 735 00d4 FFF7FEFF 		bl	lv_color_16a_16a_mix
 736              	.LVL56:
 737              	.LBE198:
 495:Drivers/lvgl/src/draw/sw/blend/lv_draw_sw_blend_to_al88.c ****                         lv_color16a_t src_color;
 738              		.loc 1 495 40 discriminator 3 view .LVU236
 739 00d8 0134     		adds	r4, r4, #1
 740              	.LVL57:
 741              	.L42:
 495:Drivers/lvgl/src/draw/sw/blend/lv_draw_sw_blend_to_al88.c ****                         lv_color16a_t src_color;
 742              		.loc 1 495 34 discriminator 1 view .LVU237
 743 00da 4445     		cmp	r4, r8
 744 00dc EFDB     		blt	.L41
 501:Drivers/lvgl/src/draw/sw/blend/lv_draw_sw_blend_to_al88.c ****                     src_buf_l8 = drawbuf_next_row(src_buf_l8, src_stride);
 745              		.loc 1 501 21 view .LVU238
 746              	.LVL58:
 747              	.LBB199:
 748              	.LBI199:
1033:Drivers/lvgl/src/draw/sw/blend/lv_draw_sw_blend_to_al88.c **** {
 749              		.loc 1 1033 44 view .LVU239
 750              	.LBB200:
 751              		.loc 1 1035 5 view .LVU240
 752              		.loc 1 1035 12 is_stmt 0 view .LVU241
 753 00de 5744     		add	r7, r7, r10
 754              	.LVL59:
 755              		.loc 1 1035 12 view .LVU242
 756              	.LBE200:
 757              	.LBE199:
 502:Drivers/lvgl/src/draw/sw/blend/lv_draw_sw_blend_to_al88.c ****                     mask_buf += mask_stride;
 758              		.loc 1 502 21 is_stmt 1 view .LVU243
ARM GAS  /var/folders/qx/2_175_4n2s19vhvtspjhb3qh0000gn/T//cc7k2hqg.s 			page 37


 759              	.LBB201:
 760              	.LBI201:
1033:Drivers/lvgl/src/draw/sw/blend/lv_draw_sw_blend_to_al88.c **** {
 761              		.loc 1 1033 44 view .LVU244
 762              	.LBB202:
 763              		.loc 1 1035 5 view .LVU245
 764              		.loc 1 1035 12 is_stmt 0 view .LVU246
 765 00e0 009B     		ldr	r3, [sp]
 766 00e2 9944     		add	r9, r9, r3
 767              	.LVL60:
 768              		.loc 1 1035 12 view .LVU247
 769              	.LBE202:
 770              	.LBE201:
 503:Drivers/lvgl/src/draw/sw/blend/lv_draw_sw_blend_to_al88.c ****                 }
 771              		.loc 1 503 21 is_stmt 1 view .LVU248
 503:Drivers/lvgl/src/draw/sw/blend/lv_draw_sw_blend_to_al88.c ****                 }
 772              		.loc 1 503 30 is_stmt 0 view .LVU249
 773 00e4 029B     		ldr	r3, [sp, #8]
 774 00e6 1D44     		add	r5, r5, r3
 775              	.LVL61:
 494:Drivers/lvgl/src/draw/sw/blend/lv_draw_sw_blend_to_al88.c ****                     for(x = 0; x < w; x++) {
 776              		.loc 1 494 36 is_stmt 1 discriminator 2 view .LVU250
 777 00e8 0136     		adds	r6, r6, #1
 778              	.LVL62:
 779              	.L39:
 494:Drivers/lvgl/src/draw/sw/blend/lv_draw_sw_blend_to_al88.c ****                     for(x = 0; x < w; x++) {
 780              		.loc 1 494 30 discriminator 1 view .LVU251
 781 00ea 5E45     		cmp	r6, fp
 782 00ec 58DA     		bge	.L29
 495:Drivers/lvgl/src/draw/sw/blend/lv_draw_sw_blend_to_al88.c ****                         lv_color16a_t src_color;
 783              		.loc 1 495 27 is_stmt 0 view .LVU252
 784 00ee 0024     		movs	r4, #0
 785 00f0 F3E7     		b	.L42
 786              	.LVL63:
 787              	.L55:
 494:Drivers/lvgl/src/draw/sw/blend/lv_draw_sw_blend_to_al88.c ****                     for(x = 0; x < w; x++) {
 788              		.loc 1 494 23 view .LVU253
 789 00f2 4FF00009 		mov	r9, #0
 790              	.LVL64:
 494:Drivers/lvgl/src/draw/sw/blend/lv_draw_sw_blend_to_al88.c ****                     for(x = 0; x < w; x++) {
 791              		.loc 1 494 23 view .LVU254
 792 00f6 4B46     		mov	r3, r9
 793 00f8 B946     		mov	r9, r7
 794 00fa 3746     		mov	r7, r6
 795              	.LVL65:
 494:Drivers/lvgl/src/draw/sw/blend/lv_draw_sw_blend_to_al88.c ****                     for(x = 0; x < w; x++) {
 796              		.loc 1 494 23 view .LVU255
 797 00fc DDF804A0 		ldr	r10, [sp, #4]
 798              	.LVL66:
 494:Drivers/lvgl/src/draw/sw/blend/lv_draw_sw_blend_to_al88.c ****                     for(x = 0; x < w; x++) {
 799              		.loc 1 494 23 view .LVU256
 800 0100 1E46     		mov	r6, r3
 801              	.LVL67:
 494:Drivers/lvgl/src/draw/sw/blend/lv_draw_sw_blend_to_al88.c ****                     for(x = 0; x < w; x++) {
 802              		.loc 1 494 23 view .LVU257
 803 0102 F2E7     		b	.L39
 804              	.LVL68:
ARM GAS  /var/folders/qx/2_175_4n2s19vhvtspjhb3qh0000gn/T//cc7k2hqg.s 			page 38


 805              	.L44:
 806              	.LBB203:
 511:Drivers/lvgl/src/draw/sw/blend/lv_draw_sw_blend_to_al88.c ****                         src_color.lumi = src_buf_l8[x];
 807              		.loc 1 511 25 is_stmt 1 view .LVU258
 512:Drivers/lvgl/src/draw/sw/blend/lv_draw_sw_blend_to_al88.c ****                         src_color.alpha = LV_OPA_MIX2(mask_buf[x], opa);
 808              		.loc 1 512 25 view .LVU259
 512:Drivers/lvgl/src/draw/sw/blend/lv_draw_sw_blend_to_al88.c ****                         src_color.alpha = LV_OPA_MIX2(mask_buf[x], opa);
 809              		.loc 1 512 52 is_stmt 0 view .LVU260
 810 0104 2B5D     		ldrb	r3, [r5, r4]	@ zero_extendqisi2
 512:Drivers/lvgl/src/draw/sw/blend/lv_draw_sw_blend_to_al88.c ****                         src_color.alpha = LV_OPA_MIX2(mask_buf[x], opa);
 811              		.loc 1 512 40 view .LVU261
 812 0106 8DF81430 		strb	r3, [sp, #20]
 513:Drivers/lvgl/src/draw/sw/blend/lv_draw_sw_blend_to_al88.c ****                         lv_color_16a_16a_mix(src_color, &dest_buf_al88[x], &cache);
 813              		.loc 1 513 25 is_stmt 1 view .LVU262
 513:Drivers/lvgl/src/draw/sw/blend/lv_draw_sw_blend_to_al88.c ****                         lv_color_16a_16a_mix(src_color, &dest_buf_al88[x], &cache);
 814              		.loc 1 513 43 is_stmt 0 view .LVU263
 815 010a 335D     		ldrb	r3, [r6, r4]	@ zero_extendqisi2
 816 010c 03FB0AF3 		mul	r3, r3, r10
 817 0110 1B0A     		lsrs	r3, r3, #8
 513:Drivers/lvgl/src/draw/sw/blend/lv_draw_sw_blend_to_al88.c ****                         lv_color_16a_16a_mix(src_color, &dest_buf_al88[x], &cache);
 818              		.loc 1 513 41 view .LVU264
 819 0112 8DF81530 		strb	r3, [sp, #21]
 514:Drivers/lvgl/src/draw/sw/blend/lv_draw_sw_blend_to_al88.c ****                     }
 820              		.loc 1 514 25 is_stmt 1 view .LVU265
 821 0116 06AA     		add	r2, sp, #24
 822 0118 09EB4401 		add	r1, r9, r4, lsl #1
 823 011c 0598     		ldr	r0, [sp, #20]
 824 011e FFF7FEFF 		bl	lv_color_16a_16a_mix
 825              	.LVL69:
 826              	.LBE203:
 510:Drivers/lvgl/src/draw/sw/blend/lv_draw_sw_blend_to_al88.c ****                         lv_color16a_t src_color;
 827              		.loc 1 510 40 discriminator 3 view .LVU266
 828 0122 0134     		adds	r4, r4, #1
 829              	.LVL70:
 830              	.L45:
 510:Drivers/lvgl/src/draw/sw/blend/lv_draw_sw_blend_to_al88.c ****                         lv_color16a_t src_color;
 831              		.loc 1 510 34 discriminator 1 view .LVU267
 832 0124 4445     		cmp	r4, r8
 833 0126 EDDB     		blt	.L44
 516:Drivers/lvgl/src/draw/sw/blend/lv_draw_sw_blend_to_al88.c ****                     src_buf_l8 = drawbuf_next_row(src_buf_l8, src_stride);
 834              		.loc 1 516 21 view .LVU268
 835              	.LVL71:
 836              	.LBB204:
 837              	.LBI204:
1033:Drivers/lvgl/src/draw/sw/blend/lv_draw_sw_blend_to_al88.c **** {
 838              		.loc 1 1033 44 view .LVU269
 839              	.LBB205:
 840              		.loc 1 1035 5 view .LVU270
 841              		.loc 1 1035 12 is_stmt 0 view .LVU271
 842 0128 019B     		ldr	r3, [sp, #4]
 843 012a 9944     		add	r9, r9, r3
 844              	.LVL72:
 845              		.loc 1 1035 12 view .LVU272
 846              	.LBE205:
 847              	.LBE204:
 517:Drivers/lvgl/src/draw/sw/blend/lv_draw_sw_blend_to_al88.c ****                     mask_buf += mask_stride;
 848              		.loc 1 517 21 is_stmt 1 view .LVU273
ARM GAS  /var/folders/qx/2_175_4n2s19vhvtspjhb3qh0000gn/T//cc7k2hqg.s 			page 39


 849              	.LBB206:
 850              	.LBI206:
1033:Drivers/lvgl/src/draw/sw/blend/lv_draw_sw_blend_to_al88.c **** {
 851              		.loc 1 1033 44 view .LVU274
 852              	.LBB207:
 853              		.loc 1 1035 5 view .LVU275
 854              		.loc 1 1035 12 is_stmt 0 view .LVU276
 855 012c 009B     		ldr	r3, [sp]
 856 012e 1D44     		add	r5, r5, r3
 857              	.LVL73:
 858              		.loc 1 1035 12 view .LVU277
 859              	.LBE207:
 860              	.LBE206:
 518:Drivers/lvgl/src/draw/sw/blend/lv_draw_sw_blend_to_al88.c ****                 }
 861              		.loc 1 518 21 is_stmt 1 view .LVU278
 518:Drivers/lvgl/src/draw/sw/blend/lv_draw_sw_blend_to_al88.c ****                 }
 862              		.loc 1 518 30 is_stmt 0 view .LVU279
 863 0130 029B     		ldr	r3, [sp, #8]
 864 0132 1E44     		add	r6, r6, r3
 865              	.LVL74:
 509:Drivers/lvgl/src/draw/sw/blend/lv_draw_sw_blend_to_al88.c ****                     for(x = 0; x < w; x++) {
 866              		.loc 1 509 36 is_stmt 1 discriminator 2 view .LVU280
 867 0134 0137     		adds	r7, r7, #1
 868              	.LVL75:
 869              	.L43:
 509:Drivers/lvgl/src/draw/sw/blend/lv_draw_sw_blend_to_al88.c ****                     for(x = 0; x < w; x++) {
 870              		.loc 1 509 30 discriminator 1 view .LVU281
 871 0136 5F45     		cmp	r7, fp
 872 0138 32DA     		bge	.L29
 510:Drivers/lvgl/src/draw/sw/blend/lv_draw_sw_blend_to_al88.c ****                         lv_color16a_t src_color;
 873              		.loc 1 510 27 is_stmt 0 view .LVU282
 874 013a 0024     		movs	r4, #0
 875 013c F2E7     		b	.L45
 876              	.LVL76:
 877              	.L46:
 878              	.LBB208:
 529:Drivers/lvgl/src/draw/sw/blend/lv_draw_sw_blend_to_al88.c ****                 blend_non_normal_pixel(&dest_buf_al88[x], src_color, dsc->blend_mode, &cache);
 879              		.loc 1 529 22 is_stmt 1 view .LVU283
 529:Drivers/lvgl/src/draw/sw/blend/lv_draw_sw_blend_to_al88.c ****                 blend_non_normal_pixel(&dest_buf_al88[x], src_color, dsc->blend_mode, &cache);
 880              		.loc 1 529 40 is_stmt 0 view .LVU284
 881 013e 335D     		ldrb	r3, [r6, r4]	@ zero_extendqisi2
 882 0140 03FB0AF3 		mul	r3, r3, r10
 883 0144 1B0A     		lsrs	r3, r3, #8
 529:Drivers/lvgl/src/draw/sw/blend/lv_draw_sw_blend_to_al88.c ****                 blend_non_normal_pixel(&dest_buf_al88[x], src_color, dsc->blend_mode, &cache);
 884              		.loc 1 529 38 view .LVU285
 885 0146 8DF81530 		strb	r3, [sp, #21]
 886              	.L47:
 530:Drivers/lvgl/src/draw/sw/blend/lv_draw_sw_blend_to_al88.c ****             }
 887              		.loc 1 530 17 is_stmt 1 view .LVU286
 888 014a 06AB     		add	r3, sp, #24
 889 014c 99F82220 		ldrb	r2, [r9, #34]	@ zero_extendqisi2
 890 0150 0599     		ldr	r1, [sp, #20]
 891 0152 07EB4000 		add	r0, r7, r0, lsl #1
 892              	.LVL77:
 530:Drivers/lvgl/src/draw/sw/blend/lv_draw_sw_blend_to_al88.c ****             }
 893              		.loc 1 530 17 is_stmt 0 view .LVU287
 894 0156 FFF7FEFF 		bl	blend_non_normal_pixel
ARM GAS  /var/folders/qx/2_175_4n2s19vhvtspjhb3qh0000gn/T//cc7k2hqg.s 			page 40


 895              	.LVL78:
 896              	.LBE208:
 525:Drivers/lvgl/src/draw/sw/blend/lv_draw_sw_blend_to_al88.c ****                 lv_color16a_t src_color;
 897              		.loc 1 525 32 is_stmt 1 discriminator 2 view .LVU288
 898 015a 0134     		adds	r4, r4, #1
 899              	.LVL79:
 900              	.L50:
 525:Drivers/lvgl/src/draw/sw/blend/lv_draw_sw_blend_to_al88.c ****                 lv_color16a_t src_color;
 901              		.loc 1 525 26 discriminator 1 view .LVU289
 902 015c 4445     		cmp	r4, r8
 903 015e 08DA     		bge	.L63
 904              	.LBB209:
 526:Drivers/lvgl/src/draw/sw/blend/lv_draw_sw_blend_to_al88.c ****                 src_color.lumi = src_buf_l8[x];
 905              		.loc 1 526 17 view .LVU290
 527:Drivers/lvgl/src/draw/sw/blend/lv_draw_sw_blend_to_al88.c ****                 if(mask_buf == NULL) src_color.alpha = opa;
 906              		.loc 1 527 17 view .LVU291
 527:Drivers/lvgl/src/draw/sw/blend/lv_draw_sw_blend_to_al88.c ****                 if(mask_buf == NULL) src_color.alpha = opa;
 907              		.loc 1 527 44 is_stmt 0 view .LVU292
 908 0160 2046     		mov	r0, r4
 909 0162 2B5D     		ldrb	r3, [r5, r4]	@ zero_extendqisi2
 527:Drivers/lvgl/src/draw/sw/blend/lv_draw_sw_blend_to_al88.c ****                 if(mask_buf == NULL) src_color.alpha = opa;
 910              		.loc 1 527 32 view .LVU293
 911 0164 8DF81430 		strb	r3, [sp, #20]
 528:Drivers/lvgl/src/draw/sw/blend/lv_draw_sw_blend_to_al88.c ****                 else src_color.alpha = LV_OPA_MIX2(mask_buf[x], opa);
 912              		.loc 1 528 17 is_stmt 1 view .LVU294
 528:Drivers/lvgl/src/draw/sw/blend/lv_draw_sw_blend_to_al88.c ****                 else src_color.alpha = LV_OPA_MIX2(mask_buf[x], opa);
 913              		.loc 1 528 19 is_stmt 0 view .LVU295
 914 0168 002E     		cmp	r6, #0
 915 016a E8D1     		bne	.L46
 528:Drivers/lvgl/src/draw/sw/blend/lv_draw_sw_blend_to_al88.c ****                 else src_color.alpha = LV_OPA_MIX2(mask_buf[x], opa);
 916              		.loc 1 528 38 is_stmt 1 discriminator 1 view .LVU296
 528:Drivers/lvgl/src/draw/sw/blend/lv_draw_sw_blend_to_al88.c ****                 else src_color.alpha = LV_OPA_MIX2(mask_buf[x], opa);
 917              		.loc 1 528 54 is_stmt 0 discriminator 1 view .LVU297
 918 016c 8DF815A0 		strb	r10, [sp, #21]
 919 0170 EBE7     		b	.L47
 920              	.L63:
 528:Drivers/lvgl/src/draw/sw/blend/lv_draw_sw_blend_to_al88.c ****                 else src_color.alpha = LV_OPA_MIX2(mask_buf[x], opa);
 921              		.loc 1 528 54 discriminator 1 view .LVU298
 922              	.LBE209:
 532:Drivers/lvgl/src/draw/sw/blend/lv_draw_sw_blend_to_al88.c ****             dest_buf_al88 = drawbuf_next_row(dest_buf_al88, dest_stride);
 923              		.loc 1 532 13 is_stmt 1 view .LVU299
 532:Drivers/lvgl/src/draw/sw/blend/lv_draw_sw_blend_to_al88.c ****             dest_buf_al88 = drawbuf_next_row(dest_buf_al88, dest_stride);
 924              		.loc 1 532 15 is_stmt 0 view .LVU300
 925 0172 0EB1     		cbz	r6, .L49
 532:Drivers/lvgl/src/draw/sw/blend/lv_draw_sw_blend_to_al88.c ****             dest_buf_al88 = drawbuf_next_row(dest_buf_al88, dest_stride);
 926              		.loc 1 532 26 is_stmt 1 discriminator 1 view .LVU301
 532:Drivers/lvgl/src/draw/sw/blend/lv_draw_sw_blend_to_al88.c ****             dest_buf_al88 = drawbuf_next_row(dest_buf_al88, dest_stride);
 927              		.loc 1 532 35 is_stmt 0 discriminator 1 view .LVU302
 928 0174 029B     		ldr	r3, [sp, #8]
 929 0176 1E44     		add	r6, r6, r3
 930              	.LVL80:
 931              	.L49:
 533:Drivers/lvgl/src/draw/sw/blend/lv_draw_sw_blend_to_al88.c ****             src_buf_l8 = drawbuf_next_row(src_buf_l8, src_stride);
 932              		.loc 1 533 13 is_stmt 1 view .LVU303
 933              	.LBB210:
 934              	.LBI210:
1033:Drivers/lvgl/src/draw/sw/blend/lv_draw_sw_blend_to_al88.c **** {
ARM GAS  /var/folders/qx/2_175_4n2s19vhvtspjhb3qh0000gn/T//cc7k2hqg.s 			page 41


 935              		.loc 1 1033 44 view .LVU304
 936              	.LBB211:
 937              		.loc 1 1035 5 view .LVU305
 938              		.loc 1 1035 12 is_stmt 0 view .LVU306
 939 0178 019B     		ldr	r3, [sp, #4]
 940 017a 1F44     		add	r7, r7, r3
 941              	.LVL81:
 942              		.loc 1 1035 12 view .LVU307
 943              	.LBE211:
 944              	.LBE210:
 534:Drivers/lvgl/src/draw/sw/blend/lv_draw_sw_blend_to_al88.c ****         }
 945              		.loc 1 534 13 is_stmt 1 view .LVU308
 946              	.LBB212:
 947              	.LBI212:
1033:Drivers/lvgl/src/draw/sw/blend/lv_draw_sw_blend_to_al88.c **** {
 948              		.loc 1 1033 44 view .LVU309
 949              	.LBB213:
 950              		.loc 1 1035 5 view .LVU310
 951              		.loc 1 1035 12 is_stmt 0 view .LVU311
 952 017c 009B     		ldr	r3, [sp]
 953 017e 1D44     		add	r5, r5, r3
 954              	.LVL82:
 955              		.loc 1 1035 12 view .LVU312
 956              	.LBE213:
 957              	.LBE212:
 524:Drivers/lvgl/src/draw/sw/blend/lv_draw_sw_blend_to_al88.c ****             for(x = 0; x < w; x++) {
 958              		.loc 1 524 28 is_stmt 1 discriminator 2 view .LVU313
 959 0180 0BF1010B 		add	fp, fp, #1
 960              	.LVL83:
 961              	.L30:
 524:Drivers/lvgl/src/draw/sw/blend/lv_draw_sw_blend_to_al88.c ****             for(x = 0; x < w; x++) {
 962              		.loc 1 524 22 discriminator 1 view .LVU314
 963 0184 039B     		ldr	r3, [sp, #12]
 964 0186 9B45     		cmp	fp, r3
 965 0188 0ADA     		bge	.L29
 525:Drivers/lvgl/src/draw/sw/blend/lv_draw_sw_blend_to_al88.c ****                 lv_color16a_t src_color;
 966              		.loc 1 525 19 is_stmt 0 view .LVU315
 967 018a 0024     		movs	r4, #0
 968 018c E6E7     		b	.L50
 969              	.LVL84:
 970              	.L51:
 524:Drivers/lvgl/src/draw/sw/blend/lv_draw_sw_blend_to_al88.c ****             for(x = 0; x < w; x++) {
 971              		.loc 1 524 15 view .LVU316
 972 018e 0022     		movs	r2, #0
 973 0190 2B46     		mov	r3, r5
 974 0192 3D46     		mov	r5, r7
 975              	.LVL85:
 524:Drivers/lvgl/src/draw/sw/blend/lv_draw_sw_blend_to_al88.c ****             for(x = 0; x < w; x++) {
 976              		.loc 1 524 15 view .LVU317
 977 0194 3746     		mov	r7, r6
 978              	.LVL86:
 524:Drivers/lvgl/src/draw/sw/blend/lv_draw_sw_blend_to_al88.c ****             for(x = 0; x < w; x++) {
 979              		.loc 1 524 15 view .LVU318
 980 0196 CDF80CB0 		str	fp, [sp, #12]
 981 019a 9346     		mov	fp, r2
 982              	.LVL87:
 524:Drivers/lvgl/src/draw/sw/blend/lv_draw_sw_blend_to_al88.c ****             for(x = 0; x < w; x++) {
ARM GAS  /var/folders/qx/2_175_4n2s19vhvtspjhb3qh0000gn/T//cc7k2hqg.s 			page 42


 983              		.loc 1 524 15 view .LVU319
 984 019c 1E46     		mov	r6, r3
 985              	.LVL88:
 524:Drivers/lvgl/src/draw/sw/blend/lv_draw_sw_blend_to_al88.c ****             for(x = 0; x < w; x++) {
 986              		.loc 1 524 15 view .LVU320
 987 019e F1E7     		b	.L30
 988              	.LVL89:
 989              	.L29:
 537:Drivers/lvgl/src/draw/sw/blend/lv_draw_sw_blend_to_al88.c **** 
 990              		.loc 1 537 1 view .LVU321
 991 01a0 09B0     		add	sp, sp, #36
 992              	.LCFI11:
 993              		.cfi_def_cfa_offset 36
 994              	.LVL90:
 537:Drivers/lvgl/src/draw/sw/blend/lv_draw_sw_blend_to_al88.c **** 
 995              		.loc 1 537 1 view .LVU322
 996              		@ sp needed
 997 01a2 BDE8F08F 		pop	{r4, r5, r6, r7, r8, r9, r10, fp, pc}
 537:Drivers/lvgl/src/draw/sw/blend/lv_draw_sw_blend_to_al88.c **** 
 998              		.loc 1 537 1 view .LVU323
 999              		.cfi_endproc
 1000              	.LFE184:
 1002              		.section	.text.al88_image_blend,"ax",%progbits
 1003              		.align	1
 1004              		.syntax unified
 1005              		.thumb
 1006              		.thumb_func
 1008              	al88_image_blend:
 1009              	.LVL91:
 1010              	.LFB185:
 542:Drivers/lvgl/src/draw/sw/blend/lv_draw_sw_blend_to_al88.c ****     int32_t w = dsc->dest_w;
 1011              		.loc 1 542 1 is_stmt 1 view -0
 1012              		.cfi_startproc
 1013              		@ args = 0, pretend = 0, frame = 32
 1014              		@ frame_needed = 0, uses_anonymous_args = 0
 542:Drivers/lvgl/src/draw/sw/blend/lv_draw_sw_blend_to_al88.c ****     int32_t w = dsc->dest_w;
 1015              		.loc 1 542 1 is_stmt 0 view .LVU325
 1016 0000 2DE9F04F 		push	{r4, r5, r6, r7, r8, r9, r10, fp, lr}
 1017              	.LCFI12:
 1018              		.cfi_def_cfa_offset 36
 1019              		.cfi_offset 4, -36
 1020              		.cfi_offset 5, -32
 1021              		.cfi_offset 6, -28
 1022              		.cfi_offset 7, -24
 1023              		.cfi_offset 8, -20
 1024              		.cfi_offset 9, -16
 1025              		.cfi_offset 10, -12
 1026              		.cfi_offset 11, -8
 1027              		.cfi_offset 14, -4
 1028 0004 89B0     		sub	sp, sp, #36
 1029              	.LCFI13:
 1030              		.cfi_def_cfa_offset 72
 1031 0006 8146     		mov	r9, r0
 543:Drivers/lvgl/src/draw/sw/blend/lv_draw_sw_blend_to_al88.c ****     int32_t h = dsc->dest_h;
 1032              		.loc 1 543 5 is_stmt 1 view .LVU326
 543:Drivers/lvgl/src/draw/sw/blend/lv_draw_sw_blend_to_al88.c ****     int32_t h = dsc->dest_h;
 1033              		.loc 1 543 13 is_stmt 0 view .LVU327
ARM GAS  /var/folders/qx/2_175_4n2s19vhvtspjhb3qh0000gn/T//cc7k2hqg.s 			page 43


 1034 0008 D0F80480 		ldr	r8, [r0, #4]
 1035              	.LVL92:
 544:Drivers/lvgl/src/draw/sw/blend/lv_draw_sw_blend_to_al88.c ****     lv_opa_t opa = dsc->opa;
 1036              		.loc 1 544 5 is_stmt 1 view .LVU328
 544:Drivers/lvgl/src/draw/sw/blend/lv_draw_sw_blend_to_al88.c ****     lv_opa_t opa = dsc->opa;
 1037              		.loc 1 544 13 is_stmt 0 view .LVU329
 1038 000c D0F808B0 		ldr	fp, [r0, #8]
 1039              	.LVL93:
 545:Drivers/lvgl/src/draw/sw/blend/lv_draw_sw_blend_to_al88.c ****     lv_color16a_t * dest_buf_al88 = dsc->dest_buf;
 1040              		.loc 1 545 5 is_stmt 1 view .LVU330
 545:Drivers/lvgl/src/draw/sw/blend/lv_draw_sw_blend_to_al88.c ****     lv_color16a_t * dest_buf_al88 = dsc->dest_buf;
 1041              		.loc 1 545 14 is_stmt 0 view .LVU331
 1042 0010 90F821A0 		ldrb	r10, [r0, #33]	@ zero_extendqisi2
 1043              	.LVL94:
 546:Drivers/lvgl/src/draw/sw/blend/lv_draw_sw_blend_to_al88.c ****     int32_t dest_stride = dsc->dest_stride;
 1044              		.loc 1 546 5 is_stmt 1 view .LVU332
 546:Drivers/lvgl/src/draw/sw/blend/lv_draw_sw_blend_to_al88.c ****     int32_t dest_stride = dsc->dest_stride;
 1045              		.loc 1 546 21 is_stmt 0 view .LVU333
 1046 0014 0768     		ldr	r7, [r0]
 1047              	.LVL95:
 547:Drivers/lvgl/src/draw/sw/blend/lv_draw_sw_blend_to_al88.c ****     const lv_color16a_t * src_buf_al88 = dsc->src_buf;
 1048              		.loc 1 547 5 is_stmt 1 view .LVU334
 547:Drivers/lvgl/src/draw/sw/blend/lv_draw_sw_blend_to_al88.c ****     const lv_color16a_t * src_buf_al88 = dsc->src_buf;
 1049              		.loc 1 547 13 is_stmt 0 view .LVU335
 1050 0016 C368     		ldr	r3, [r0, #12]
 1051 0018 0193     		str	r3, [sp, #4]
 1052              	.LVL96:
 548:Drivers/lvgl/src/draw/sw/blend/lv_draw_sw_blend_to_al88.c ****     int32_t src_stride = dsc->src_stride;
 1053              		.loc 1 548 5 is_stmt 1 view .LVU336
 548:Drivers/lvgl/src/draw/sw/blend/lv_draw_sw_blend_to_al88.c ****     int32_t src_stride = dsc->src_stride;
 1054              		.loc 1 548 27 is_stmt 0 view .LVU337
 1055 001a 8669     		ldr	r6, [r0, #24]
 1056              	.LVL97:
 549:Drivers/lvgl/src/draw/sw/blend/lv_draw_sw_blend_to_al88.c ****     const lv_opa_t * mask_buf = dsc->mask_buf;
 1057              		.loc 1 549 5 is_stmt 1 view .LVU338
 549:Drivers/lvgl/src/draw/sw/blend/lv_draw_sw_blend_to_al88.c ****     const lv_opa_t * mask_buf = dsc->mask_buf;
 1058              		.loc 1 549 13 is_stmt 0 view .LVU339
 1059 001c C369     		ldr	r3, [r0, #28]
 1060              	.LVL98:
 549:Drivers/lvgl/src/draw/sw/blend/lv_draw_sw_blend_to_al88.c ****     const lv_opa_t * mask_buf = dsc->mask_buf;
 1061              		.loc 1 549 13 view .LVU340
 1062 001e 0093     		str	r3, [sp]
 1063              	.LVL99:
 550:Drivers/lvgl/src/draw/sw/blend/lv_draw_sw_blend_to_al88.c ****     int32_t mask_stride = dsc->mask_stride;
 1064              		.loc 1 550 5 is_stmt 1 view .LVU341
 550:Drivers/lvgl/src/draw/sw/blend/lv_draw_sw_blend_to_al88.c ****     int32_t mask_stride = dsc->mask_stride;
 1065              		.loc 1 550 22 is_stmt 0 view .LVU342
 1066 0020 0569     		ldr	r5, [r0, #16]
 1067              	.LVL100:
 551:Drivers/lvgl/src/draw/sw/blend/lv_draw_sw_blend_to_al88.c **** 
 1068              		.loc 1 551 5 is_stmt 1 view .LVU343
 551:Drivers/lvgl/src/draw/sw/blend/lv_draw_sw_blend_to_al88.c **** 
 1069              		.loc 1 551 13 is_stmt 0 view .LVU344
 1070 0022 4369     		ldr	r3, [r0, #20]
 1071              	.LVL101:
 551:Drivers/lvgl/src/draw/sw/blend/lv_draw_sw_blend_to_al88.c **** 
 1072              		.loc 1 551 13 view .LVU345
ARM GAS  /var/folders/qx/2_175_4n2s19vhvtspjhb3qh0000gn/T//cc7k2hqg.s 			page 44


 1073 0024 0293     		str	r3, [sp, #8]
 1074              	.LVL102:
 553:Drivers/lvgl/src/draw/sw/blend/lv_draw_sw_blend_to_al88.c ****     lv_color_mix_with_alpha_cache_init(&cache);
 1075              		.loc 1 553 5 is_stmt 1 view .LVU346
 554:Drivers/lvgl/src/draw/sw/blend/lv_draw_sw_blend_to_al88.c **** 
 1076              		.loc 1 554 5 view .LVU347
 1077 0026 06A8     		add	r0, sp, #24
 1078              	.LVL103:
 554:Drivers/lvgl/src/draw/sw/blend/lv_draw_sw_blend_to_al88.c **** 
 1079              		.loc 1 554 5 is_stmt 0 view .LVU348
 1080 0028 FFF7FEFF 		bl	lv_color_mix_with_alpha_cache_init
 1081              	.LVL104:
 556:Drivers/lvgl/src/draw/sw/blend/lv_draw_sw_blend_to_al88.c **** 
 1082              		.loc 1 556 5 is_stmt 1 view .LVU349
 558:Drivers/lvgl/src/draw/sw/blend/lv_draw_sw_blend_to_al88.c ****         if(mask_buf == NULL && opa >= LV_OPA_MAX) {
 1083              		.loc 1 558 5 view .LVU350
 558:Drivers/lvgl/src/draw/sw/blend/lv_draw_sw_blend_to_al88.c ****         if(mask_buf == NULL && opa >= LV_OPA_MAX) {
 1084              		.loc 1 558 11 is_stmt 0 view .LVU351
 1085 002c 99F82230 		ldrb	r3, [r9, #34]	@ zero_extendqisi2
 558:Drivers/lvgl/src/draw/sw/blend/lv_draw_sw_blend_to_al88.c ****         if(mask_buf == NULL && opa >= LV_OPA_MAX) {
 1086              		.loc 1 558 7 view .LVU352
 1087 0030 002B     		cmp	r3, #0
 1088 0032 40F0CD80 		bne	.L86
 559:Drivers/lvgl/src/draw/sw/blend/lv_draw_sw_blend_to_al88.c ****             if(LV_RESULT_INVALID == LV_DRAW_SW_AL88_BLEND_NORMAL_TO_AL88(dsc)) {
 1089              		.loc 1 559 9 is_stmt 1 view .LVU353
 559:Drivers/lvgl/src/draw/sw/blend/lv_draw_sw_blend_to_al88.c ****             if(LV_RESULT_INVALID == LV_DRAW_SW_AL88_BLEND_NORMAL_TO_AL88(dsc)) {
 1090              		.loc 1 559 11 is_stmt 0 view .LVU354
 1091 0036 8DB1     		cbz	r5, .L97
 583:Drivers/lvgl/src/draw/sw/blend/lv_draw_sw_blend_to_al88.c ****             if(LV_RESULT_INVALID == LV_DRAW_SW_AL88_BLEND_NORMAL_TO_AL88_WITH_MASK(dsc)) {
 1092              		.loc 1 583 14 is_stmt 1 view .LVU355
 583:Drivers/lvgl/src/draw/sw/blend/lv_draw_sw_blend_to_al88.c ****             if(LV_RESULT_INVALID == LV_DRAW_SW_AL88_BLEND_NORMAL_TO_AL88_WITH_MASK(dsc)) {
 1093              		.loc 1 583 16 is_stmt 0 view .LVU356
 1094 0038 002D     		cmp	r5, #0
 1095 003a 00F0D180 		beq	.L64
 583:Drivers/lvgl/src/draw/sw/blend/lv_draw_sw_blend_to_al88.c ****             if(LV_RESULT_INVALID == LV_DRAW_SW_AL88_BLEND_NORMAL_TO_AL88_WITH_MASK(dsc)) {
 1096              		.loc 1 583 26 discriminator 1 view .LVU357
 1097 003e BAF1FC0F 		cmp	r10, #252
 1098 0042 6AD8     		bhi	.L90
 597:Drivers/lvgl/src/draw/sw/blend/lv_draw_sw_blend_to_al88.c ****             if(LV_RESULT_INVALID == LV_DRAW_SW_AL88_BLEND_NORMAL_TO_AL88_MIX_MASK_OPA(dsc)) {
 1099              		.loc 1 597 14 is_stmt 1 view .LVU358
 597:Drivers/lvgl/src/draw/sw/blend/lv_draw_sw_blend_to_al88.c ****             if(LV_RESULT_INVALID == LV_DRAW_SW_AL88_BLEND_NORMAL_TO_AL88_MIX_MASK_OPA(dsc)) {
 1100              		.loc 1 597 16 is_stmt 0 view .LVU359
 1101 0044 002D     		cmp	r5, #0
 1102 0046 00F0CB80 		beq	.L64
 599:Drivers/lvgl/src/draw/sw/blend/lv_draw_sw_blend_to_al88.c ****                     for(x = 0; x < w; x++) {
 1103              		.loc 1 599 23 view .LVU360
 1104 004a 4FF00009 		mov	r9, #0
 1105              	.LVL105:
 599:Drivers/lvgl/src/draw/sw/blend/lv_draw_sw_blend_to_al88.c ****                     for(x = 0; x < w; x++) {
 1106              		.loc 1 599 23 view .LVU361
 1107 004e 2A46     		mov	r2, r5
 1108 0050 3546     		mov	r5, r6
 1109              	.LVL106:
 599:Drivers/lvgl/src/draw/sw/blend/lv_draw_sw_blend_to_al88.c ****                     for(x = 0; x < w; x++) {
 1110              		.loc 1 599 23 view .LVU362
 1111 0052 4B46     		mov	r3, r9
 1112 0054 B946     		mov	r9, r7
ARM GAS  /var/folders/qx/2_175_4n2s19vhvtspjhb3qh0000gn/T//cc7k2hqg.s 			page 45


 1113 0056 1F46     		mov	r7, r3
 1114              	.LVL107:
 599:Drivers/lvgl/src/draw/sw/blend/lv_draw_sw_blend_to_al88.c ****                     for(x = 0; x < w; x++) {
 1115              		.loc 1 599 23 view .LVU363
 1116 0058 1646     		mov	r6, r2
 1117              	.LVL108:
 599:Drivers/lvgl/src/draw/sw/blend/lv_draw_sw_blend_to_al88.c ****                     for(x = 0; x < w; x++) {
 1118              		.loc 1 599 23 view .LVU364
 1119 005a 84E0     		b	.L78
 1120              	.LVL109:
 1121              	.L97:
 559:Drivers/lvgl/src/draw/sw/blend/lv_draw_sw_blend_to_al88.c ****             if(LV_RESULT_INVALID == LV_DRAW_SW_AL88_BLEND_NORMAL_TO_AL88(dsc)) {
 1122              		.loc 1 559 29 discriminator 1 view .LVU365
 1123 005c BAF1FC0F 		cmp	r10, #252
 1124 0060 19D8     		bhi	.L87
 1125 0062 DDF80090 		ldr	r9, [sp]
 1126              	.LVL110:
 559:Drivers/lvgl/src/draw/sw/blend/lv_draw_sw_blend_to_al88.c ****             if(LV_RESULT_INVALID == LV_DRAW_SW_AL88_BLEND_NORMAL_TO_AL88(dsc)) {
 1127              		.loc 1 559 29 discriminator 1 view .LVU366
 1128 0066 34E0     		b	.L68
 1129              	.LVL111:
 1130              	.L69:
 563:Drivers/lvgl/src/draw/sw/blend/lv_draw_sw_blend_to_al88.c ****                     }
 1131              		.loc 1 563 25 is_stmt 1 view .LVU367
 563:Drivers/lvgl/src/draw/sw/blend/lv_draw_sw_blend_to_al88.c ****                     }
 1132              		.loc 1 563 58 is_stmt 0 view .LVU368
 1133 0068 06EB4402 		add	r2, r6, r4, lsl #1
 563:Drivers/lvgl/src/draw/sw/blend/lv_draw_sw_blend_to_al88.c ****                     }
 1134              		.loc 1 563 25 view .LVU369
 1135 006c 16F81430 		ldrb	r3, [r6, r4, lsl #1]	@ zero_extendqisi2
 1136 0070 5078     		ldrb	r0, [r2, #1]	@ zero_extendqisi2
 1137 0072 06AA     		add	r2, sp, #24
 1138 0074 07EB4401 		add	r1, r7, r4, lsl #1
 1139 0078 43EA0020 		orr	r0, r3, r0, lsl #8
 1140 007c FFF7FEFF 		bl	lv_color_16a_16a_mix
 1141              	.LVL112:
 562:Drivers/lvgl/src/draw/sw/blend/lv_draw_sw_blend_to_al88.c ****                         lv_color_16a_16a_mix(src_buf_al88[x], &dest_buf_al88[x], &cache);
 1142              		.loc 1 562 40 is_stmt 1 discriminator 3 view .LVU370
 1143 0080 0134     		adds	r4, r4, #1
 1144              	.LVL113:
 1145              	.L70:
 562:Drivers/lvgl/src/draw/sw/blend/lv_draw_sw_blend_to_al88.c ****                         lv_color_16a_16a_mix(src_buf_al88[x], &dest_buf_al88[x], &cache);
 1146              		.loc 1 562 34 discriminator 1 view .LVU371
 1147 0082 4445     		cmp	r4, r8
 1148 0084 F0DB     		blt	.L69
 565:Drivers/lvgl/src/draw/sw/blend/lv_draw_sw_blend_to_al88.c ****                     src_buf_al88 = drawbuf_next_row(src_buf_al88, src_stride);
 1149              		.loc 1 565 21 view .LVU372
 1150              	.LVL114:
 1151              	.LBB214:
 1152              	.LBI214:
1033:Drivers/lvgl/src/draw/sw/blend/lv_draw_sw_blend_to_al88.c **** {
 1153              		.loc 1 1033 44 view .LVU373
 1154              	.LBB215:
 1155              		.loc 1 1035 5 view .LVU374
 1156              		.loc 1 1035 12 is_stmt 0 view .LVU375
 1157 0086 4F44     		add	r7, r7, r9
 1158              	.LVL115:
ARM GAS  /var/folders/qx/2_175_4n2s19vhvtspjhb3qh0000gn/T//cc7k2hqg.s 			page 46


 1159              		.loc 1 1035 12 view .LVU376
 1160              	.LBE215:
 1161              	.LBE214:
 566:Drivers/lvgl/src/draw/sw/blend/lv_draw_sw_blend_to_al88.c ****                 }
 1162              		.loc 1 566 21 is_stmt 1 view .LVU377
 1163              	.LBB216:
 1164              	.LBI216:
1033:Drivers/lvgl/src/draw/sw/blend/lv_draw_sw_blend_to_al88.c **** {
 1165              		.loc 1 1033 44 view .LVU378
 1166              	.LBB217:
 1167              		.loc 1 1035 5 view .LVU379
 1168              		.loc 1 1035 12 is_stmt 0 view .LVU380
 1169 0088 5644     		add	r6, r6, r10
 1170              	.LVL116:
 1171              		.loc 1 1035 12 view .LVU381
 1172              	.LBE217:
 1173              	.LBE216:
 561:Drivers/lvgl/src/draw/sw/blend/lv_draw_sw_blend_to_al88.c ****                     for(x = 0; x < w; x++) {
 1174              		.loc 1 561 36 is_stmt 1 discriminator 2 view .LVU382
 1175 008a 0135     		adds	r5, r5, #1
 1176              	.LVL117:
 1177              	.L67:
 561:Drivers/lvgl/src/draw/sw/blend/lv_draw_sw_blend_to_al88.c ****                     for(x = 0; x < w; x++) {
 1178              		.loc 1 561 30 discriminator 1 view .LVU383
 1179 008c 5D45     		cmp	r5, fp
 1180 008e 80F2A780 		bge	.L64
 562:Drivers/lvgl/src/draw/sw/blend/lv_draw_sw_blend_to_al88.c ****                         lv_color_16a_16a_mix(src_buf_al88[x], &dest_buf_al88[x], &cache);
 1181              		.loc 1 562 27 is_stmt 0 view .LVU384
 1182 0092 0024     		movs	r4, #0
 1183 0094 F5E7     		b	.L70
 1184              	.LVL118:
 1185              	.L87:
 561:Drivers/lvgl/src/draw/sw/blend/lv_draw_sw_blend_to_al88.c ****                     for(x = 0; x < w; x++) {
 1186              		.loc 1 561 23 view .LVU385
 1187 0096 0025     		movs	r5, #0
 1188              	.LVL119:
 561:Drivers/lvgl/src/draw/sw/blend/lv_draw_sw_blend_to_al88.c ****                     for(x = 0; x < w; x++) {
 1189              		.loc 1 561 23 view .LVU386
 1190 0098 DDF80490 		ldr	r9, [sp, #4]
 1191              	.LVL120:
 561:Drivers/lvgl/src/draw/sw/blend/lv_draw_sw_blend_to_al88.c ****                     for(x = 0; x < w; x++) {
 1192              		.loc 1 561 23 view .LVU387
 1193 009c DDF800A0 		ldr	r10, [sp]
 1194              	.LVL121:
 561:Drivers/lvgl/src/draw/sw/blend/lv_draw_sw_blend_to_al88.c ****                     for(x = 0; x < w; x++) {
 1195              		.loc 1 561 23 view .LVU388
 1196 00a0 F4E7     		b	.L67
 1197              	.LVL122:
 1198              	.L72:
 1199              	.LBB218:
 574:Drivers/lvgl/src/draw/sw/blend/lv_draw_sw_blend_to_al88.c ****                         src_color.alpha = LV_OPA_MIX2(src_color.alpha, opa);
 1200              		.loc 1 574 25 is_stmt 1 view .LVU389
 574:Drivers/lvgl/src/draw/sw/blend/lv_draw_sw_blend_to_al88.c ****                         src_color.alpha = LV_OPA_MIX2(src_color.alpha, opa);
 1201              		.loc 1 574 39 is_stmt 0 view .LVU390
 1202 00a2 36F81430 		ldrh	r3, [r6, r4, lsl #1]	@ unaligned
 1203 00a6 ADF81430 		strh	r3, [sp, #20]	@ unaligned
 575:Drivers/lvgl/src/draw/sw/blend/lv_draw_sw_blend_to_al88.c ****                         lv_color_16a_16a_mix(src_color, &dest_buf_al88[x], &cache);
ARM GAS  /var/folders/qx/2_175_4n2s19vhvtspjhb3qh0000gn/T//cc7k2hqg.s 			page 47


 1204              		.loc 1 575 25 is_stmt 1 view .LVU391
 575:Drivers/lvgl/src/draw/sw/blend/lv_draw_sw_blend_to_al88.c ****                         lv_color_16a_16a_mix(src_color, &dest_buf_al88[x], &cache);
 1205              		.loc 1 575 43 is_stmt 0 view .LVU392
 1206 00aa 9DF81530 		ldrb	r3, [sp, #21]	@ zero_extendqisi2
 1207 00ae 03FB0AF3 		mul	r3, r3, r10
 1208 00b2 1B0A     		lsrs	r3, r3, #8
 575:Drivers/lvgl/src/draw/sw/blend/lv_draw_sw_blend_to_al88.c ****                         lv_color_16a_16a_mix(src_color, &dest_buf_al88[x], &cache);
 1209              		.loc 1 575 41 view .LVU393
 1210 00b4 8DF81530 		strb	r3, [sp, #21]
 576:Drivers/lvgl/src/draw/sw/blend/lv_draw_sw_blend_to_al88.c ****                     }
 1211              		.loc 1 576 25 is_stmt 1 view .LVU394
 1212 00b8 06AA     		add	r2, sp, #24
 1213 00ba 07EB4401 		add	r1, r7, r4, lsl #1
 1214 00be 0598     		ldr	r0, [sp, #20]
 1215 00c0 FFF7FEFF 		bl	lv_color_16a_16a_mix
 1216              	.LVL123:
 1217              	.LBE218:
 573:Drivers/lvgl/src/draw/sw/blend/lv_draw_sw_blend_to_al88.c ****                         lv_color16a_t src_color = src_buf_al88[x];
 1218              		.loc 1 573 40 discriminator 3 view .LVU395
 1219 00c4 0134     		adds	r4, r4, #1
 1220              	.LVL124:
 1221              	.L73:
 573:Drivers/lvgl/src/draw/sw/blend/lv_draw_sw_blend_to_al88.c ****                         lv_color16a_t src_color = src_buf_al88[x];
 1222              		.loc 1 573 34 discriminator 1 view .LVU396
 1223 00c6 4445     		cmp	r4, r8
 1224 00c8 EBDB     		blt	.L72
 578:Drivers/lvgl/src/draw/sw/blend/lv_draw_sw_blend_to_al88.c ****                     src_buf_al88 = drawbuf_next_row(src_buf_al88, src_stride);
 1225              		.loc 1 578 21 view .LVU397
 1226              	.LVL125:
 1227              	.LBB219:
 1228              	.LBI219:
1033:Drivers/lvgl/src/draw/sw/blend/lv_draw_sw_blend_to_al88.c **** {
 1229              		.loc 1 1033 44 view .LVU398
 1230              	.LBB220:
 1231              		.loc 1 1035 5 view .LVU399
 1232              		.loc 1 1035 12 is_stmt 0 view .LVU400
 1233 00ca 019B     		ldr	r3, [sp, #4]
 1234 00cc 1F44     		add	r7, r7, r3
 1235              	.LVL126:
 1236              		.loc 1 1035 12 view .LVU401
 1237              	.LBE220:
 1238              	.LBE219:
 579:Drivers/lvgl/src/draw/sw/blend/lv_draw_sw_blend_to_al88.c ****                 }
 1239              		.loc 1 579 21 is_stmt 1 view .LVU402
 1240              	.LBB221:
 1241              	.LBI221:
1033:Drivers/lvgl/src/draw/sw/blend/lv_draw_sw_blend_to_al88.c **** {
 1242              		.loc 1 1033 44 view .LVU403
 1243              	.LBB222:
 1244              		.loc 1 1035 5 view .LVU404
 1245              		.loc 1 1035 12 is_stmt 0 view .LVU405
 1246 00ce 4E44     		add	r6, r6, r9
 1247              	.LVL127:
 1248              		.loc 1 1035 12 view .LVU406
 1249              	.LBE222:
 1250              	.LBE221:
 572:Drivers/lvgl/src/draw/sw/blend/lv_draw_sw_blend_to_al88.c ****                     for(x = 0; x < w; x++) {
ARM GAS  /var/folders/qx/2_175_4n2s19vhvtspjhb3qh0000gn/T//cc7k2hqg.s 			page 48


 1251              		.loc 1 572 36 is_stmt 1 discriminator 2 view .LVU407
 1252 00d0 0135     		adds	r5, r5, #1
 1253              	.LVL128:
 1254              	.L68:
 572:Drivers/lvgl/src/draw/sw/blend/lv_draw_sw_blend_to_al88.c ****                     for(x = 0; x < w; x++) {
 1255              		.loc 1 572 30 discriminator 1 view .LVU408
 1256 00d2 5D45     		cmp	r5, fp
 1257 00d4 80F28480 		bge	.L64
 573:Drivers/lvgl/src/draw/sw/blend/lv_draw_sw_blend_to_al88.c ****                         lv_color16a_t src_color = src_buf_al88[x];
 1258              		.loc 1 573 27 is_stmt 0 view .LVU409
 1259 00d8 0024     		movs	r4, #0
 1260 00da F4E7     		b	.L73
 1261              	.LVL129:
 1262              	.L76:
 1263              	.LBB223:
 587:Drivers/lvgl/src/draw/sw/blend/lv_draw_sw_blend_to_al88.c ****                         src_color.alpha = LV_OPA_MIX2(src_color.alpha, mask_buf[x]);
 1264              		.loc 1 587 25 is_stmt 1 view .LVU410
 587:Drivers/lvgl/src/draw/sw/blend/lv_draw_sw_blend_to_al88.c ****                         src_color.alpha = LV_OPA_MIX2(src_color.alpha, mask_buf[x]);
 1265              		.loc 1 587 39 is_stmt 0 view .LVU411
 1266 00dc 39F81430 		ldrh	r3, [r9, r4, lsl #1]	@ unaligned
 1267 00e0 ADF81430 		strh	r3, [sp, #20]	@ unaligned
 588:Drivers/lvgl/src/draw/sw/blend/lv_draw_sw_blend_to_al88.c ****                         lv_color_16a_16a_mix(src_color, &dest_buf_al88[x], &cache);
 1268              		.loc 1 588 25 is_stmt 1 view .LVU412
 588:Drivers/lvgl/src/draw/sw/blend/lv_draw_sw_blend_to_al88.c ****                         lv_color_16a_16a_mix(src_color, &dest_buf_al88[x], &cache);
 1269              		.loc 1 588 43 is_stmt 0 view .LVU413
 1270 00e4 9DF81530 		ldrb	r3, [sp, #21]	@ zero_extendqisi2
 1271 00e8 2A5D     		ldrb	r2, [r5, r4]	@ zero_extendqisi2
 1272 00ea 02FB03F3 		mul	r3, r2, r3
 1273 00ee 1B0A     		lsrs	r3, r3, #8
 588:Drivers/lvgl/src/draw/sw/blend/lv_draw_sw_blend_to_al88.c ****                         lv_color_16a_16a_mix(src_color, &dest_buf_al88[x], &cache);
 1274              		.loc 1 588 41 view .LVU414
 1275 00f0 8DF81530 		strb	r3, [sp, #21]
 589:Drivers/lvgl/src/draw/sw/blend/lv_draw_sw_blend_to_al88.c ****                     }
 1276              		.loc 1 589 25 is_stmt 1 view .LVU415
 1277 00f4 06AA     		add	r2, sp, #24
 1278 00f6 07EB4401 		add	r1, r7, r4, lsl #1
 1279 00fa 0598     		ldr	r0, [sp, #20]
 1280 00fc FFF7FEFF 		bl	lv_color_16a_16a_mix
 1281              	.LVL130:
 1282              	.LBE223:
 586:Drivers/lvgl/src/draw/sw/blend/lv_draw_sw_blend_to_al88.c ****                         lv_color16a_t src_color = src_buf_al88[x];
 1283              		.loc 1 586 40 discriminator 3 view .LVU416
 1284 0100 0134     		adds	r4, r4, #1
 1285              	.LVL131:
 1286              	.L77:
 586:Drivers/lvgl/src/draw/sw/blend/lv_draw_sw_blend_to_al88.c ****                         lv_color16a_t src_color = src_buf_al88[x];
 1287              		.loc 1 586 34 discriminator 1 view .LVU417
 1288 0102 4445     		cmp	r4, r8
 1289 0104 EADB     		blt	.L76
 591:Drivers/lvgl/src/draw/sw/blend/lv_draw_sw_blend_to_al88.c ****                     src_buf_al88 = drawbuf_next_row(src_buf_al88, src_stride);
 1290              		.loc 1 591 21 view .LVU418
 1291              	.LVL132:
 1292              	.LBB224:
 1293              	.LBI224:
1033:Drivers/lvgl/src/draw/sw/blend/lv_draw_sw_blend_to_al88.c **** {
 1294              		.loc 1 1033 44 view .LVU419
 1295              	.LBB225:
ARM GAS  /var/folders/qx/2_175_4n2s19vhvtspjhb3qh0000gn/T//cc7k2hqg.s 			page 49


 1296              		.loc 1 1035 5 view .LVU420
 1297              		.loc 1 1035 12 is_stmt 0 view .LVU421
 1298 0106 5744     		add	r7, r7, r10
 1299              	.LVL133:
 1300              		.loc 1 1035 12 view .LVU422
 1301              	.LBE225:
 1302              	.LBE224:
 592:Drivers/lvgl/src/draw/sw/blend/lv_draw_sw_blend_to_al88.c ****                     mask_buf += mask_stride;
 1303              		.loc 1 592 21 is_stmt 1 view .LVU423
 1304              	.LBB226:
 1305              	.LBI226:
1033:Drivers/lvgl/src/draw/sw/blend/lv_draw_sw_blend_to_al88.c **** {
 1306              		.loc 1 1033 44 view .LVU424
 1307              	.LBB227:
 1308              		.loc 1 1035 5 view .LVU425
 1309              		.loc 1 1035 12 is_stmt 0 view .LVU426
 1310 0108 009B     		ldr	r3, [sp]
 1311 010a 9944     		add	r9, r9, r3
 1312              	.LVL134:
 1313              		.loc 1 1035 12 view .LVU427
 1314              	.LBE227:
 1315              	.LBE226:
 593:Drivers/lvgl/src/draw/sw/blend/lv_draw_sw_blend_to_al88.c ****                 }
 1316              		.loc 1 593 21 is_stmt 1 view .LVU428
 593:Drivers/lvgl/src/draw/sw/blend/lv_draw_sw_blend_to_al88.c ****                 }
 1317              		.loc 1 593 30 is_stmt 0 view .LVU429
 1318 010c 029B     		ldr	r3, [sp, #8]
 1319 010e 1D44     		add	r5, r5, r3
 1320              	.LVL135:
 585:Drivers/lvgl/src/draw/sw/blend/lv_draw_sw_blend_to_al88.c ****                     for(x = 0; x < w; x++) {
 1321              		.loc 1 585 36 is_stmt 1 discriminator 2 view .LVU430
 1322 0110 0136     		adds	r6, r6, #1
 1323              	.LVL136:
 1324              	.L74:
 585:Drivers/lvgl/src/draw/sw/blend/lv_draw_sw_blend_to_al88.c ****                     for(x = 0; x < w; x++) {
 1325              		.loc 1 585 30 discriminator 1 view .LVU431
 1326 0112 5E45     		cmp	r6, fp
 1327 0114 64DA     		bge	.L64
 586:Drivers/lvgl/src/draw/sw/blend/lv_draw_sw_blend_to_al88.c ****                         lv_color16a_t src_color = src_buf_al88[x];
 1328              		.loc 1 586 27 is_stmt 0 view .LVU432
 1329 0116 0024     		movs	r4, #0
 1330 0118 F3E7     		b	.L77
 1331              	.LVL137:
 1332              	.L90:
 585:Drivers/lvgl/src/draw/sw/blend/lv_draw_sw_blend_to_al88.c ****                     for(x = 0; x < w; x++) {
 1333              		.loc 1 585 23 view .LVU433
 1334 011a 4FF00009 		mov	r9, #0
 1335              	.LVL138:
 585:Drivers/lvgl/src/draw/sw/blend/lv_draw_sw_blend_to_al88.c ****                     for(x = 0; x < w; x++) {
 1336              		.loc 1 585 23 view .LVU434
 1337 011e 4B46     		mov	r3, r9
 1338 0120 B146     		mov	r9, r6
 1339 0122 DDF804A0 		ldr	r10, [sp, #4]
 1340              	.LVL139:
 585:Drivers/lvgl/src/draw/sw/blend/lv_draw_sw_blend_to_al88.c ****                     for(x = 0; x < w; x++) {
 1341              		.loc 1 585 23 view .LVU435
 1342 0126 1E46     		mov	r6, r3
ARM GAS  /var/folders/qx/2_175_4n2s19vhvtspjhb3qh0000gn/T//cc7k2hqg.s 			page 50


 1343              	.LVL140:
 585:Drivers/lvgl/src/draw/sw/blend/lv_draw_sw_blend_to_al88.c ****                     for(x = 0; x < w; x++) {
 1344              		.loc 1 585 23 view .LVU436
 1345 0128 F3E7     		b	.L74
 1346              	.LVL141:
 1347              	.L79:
 1348              	.LBB228:
 601:Drivers/lvgl/src/draw/sw/blend/lv_draw_sw_blend_to_al88.c ****                         src_color.alpha = LV_OPA_MIX3(src_color.alpha, mask_buf[x], opa);
 1349              		.loc 1 601 25 is_stmt 1 view .LVU437
 601:Drivers/lvgl/src/draw/sw/blend/lv_draw_sw_blend_to_al88.c ****                         src_color.alpha = LV_OPA_MIX3(src_color.alpha, mask_buf[x], opa);
 1350              		.loc 1 601 39 is_stmt 0 view .LVU438
 1351 012a 35F81430 		ldrh	r3, [r5, r4, lsl #1]	@ unaligned
 1352 012e ADF81430 		strh	r3, [sp, #20]	@ unaligned
 602:Drivers/lvgl/src/draw/sw/blend/lv_draw_sw_blend_to_al88.c ****                         lv_color_16a_16a_mix(src_color, &dest_buf_al88[x], &cache);
 1353              		.loc 1 602 25 is_stmt 1 view .LVU439
 602:Drivers/lvgl/src/draw/sw/blend/lv_draw_sw_blend_to_al88.c ****                         lv_color_16a_16a_mix(src_color, &dest_buf_al88[x], &cache);
 1354              		.loc 1 602 43 is_stmt 0 view .LVU440
 1355 0132 9DF81530 		ldrb	r3, [sp, #21]	@ zero_extendqisi2
 1356 0136 325D     		ldrb	r2, [r6, r4]	@ zero_extendqisi2
 1357 0138 02FB03F3 		mul	r3, r2, r3
 1358 013c 03FB0AF3 		mul	r3, r3, r10
 1359 0140 1B0C     		lsrs	r3, r3, #16
 602:Drivers/lvgl/src/draw/sw/blend/lv_draw_sw_blend_to_al88.c ****                         lv_color_16a_16a_mix(src_color, &dest_buf_al88[x], &cache);
 1360              		.loc 1 602 41 view .LVU441
 1361 0142 8DF81530 		strb	r3, [sp, #21]
 603:Drivers/lvgl/src/draw/sw/blend/lv_draw_sw_blend_to_al88.c ****                     }
 1362              		.loc 1 603 25 is_stmt 1 view .LVU442
 1363 0146 06AA     		add	r2, sp, #24
 1364 0148 09EB4401 		add	r1, r9, r4, lsl #1
 1365 014c 0598     		ldr	r0, [sp, #20]
 1366 014e FFF7FEFF 		bl	lv_color_16a_16a_mix
 1367              	.LVL142:
 1368              	.LBE228:
 600:Drivers/lvgl/src/draw/sw/blend/lv_draw_sw_blend_to_al88.c ****                         lv_color16a_t src_color = src_buf_al88[x];
 1369              		.loc 1 600 40 discriminator 3 view .LVU443
 1370 0152 0134     		adds	r4, r4, #1
 1371              	.LVL143:
 1372              	.L80:
 600:Drivers/lvgl/src/draw/sw/blend/lv_draw_sw_blend_to_al88.c ****                         lv_color16a_t src_color = src_buf_al88[x];
 1373              		.loc 1 600 34 discriminator 1 view .LVU444
 1374 0154 4445     		cmp	r4, r8
 1375 0156 E8DB     		blt	.L79
 605:Drivers/lvgl/src/draw/sw/blend/lv_draw_sw_blend_to_al88.c ****                     src_buf_al88 = drawbuf_next_row(src_buf_al88, src_stride);
 1376              		.loc 1 605 21 view .LVU445
 1377              	.LVL144:
 1378              	.LBB229:
 1379              	.LBI229:
1033:Drivers/lvgl/src/draw/sw/blend/lv_draw_sw_blend_to_al88.c **** {
 1380              		.loc 1 1033 44 view .LVU446
 1381              	.LBB230:
 1382              		.loc 1 1035 5 view .LVU447
 1383              		.loc 1 1035 12 is_stmt 0 view .LVU448
 1384 0158 019B     		ldr	r3, [sp, #4]
 1385 015a 9944     		add	r9, r9, r3
 1386              	.LVL145:
 1387              		.loc 1 1035 12 view .LVU449
 1388              	.LBE230:
ARM GAS  /var/folders/qx/2_175_4n2s19vhvtspjhb3qh0000gn/T//cc7k2hqg.s 			page 51


 1389              	.LBE229:
 606:Drivers/lvgl/src/draw/sw/blend/lv_draw_sw_blend_to_al88.c ****                     mask_buf += mask_stride;
 1390              		.loc 1 606 21 is_stmt 1 view .LVU450
 1391              	.LBB231:
 1392              	.LBI231:
1033:Drivers/lvgl/src/draw/sw/blend/lv_draw_sw_blend_to_al88.c **** {
 1393              		.loc 1 1033 44 view .LVU451
 1394              	.LBB232:
 1395              		.loc 1 1035 5 view .LVU452
 1396              		.loc 1 1035 12 is_stmt 0 view .LVU453
 1397 015c 009B     		ldr	r3, [sp]
 1398 015e 1D44     		add	r5, r5, r3
 1399              	.LVL146:
 1400              		.loc 1 1035 12 view .LVU454
 1401              	.LBE232:
 1402              	.LBE231:
 607:Drivers/lvgl/src/draw/sw/blend/lv_draw_sw_blend_to_al88.c ****                 }
 1403              		.loc 1 607 21 is_stmt 1 view .LVU455
 607:Drivers/lvgl/src/draw/sw/blend/lv_draw_sw_blend_to_al88.c ****                 }
 1404              		.loc 1 607 30 is_stmt 0 view .LVU456
 1405 0160 029B     		ldr	r3, [sp, #8]
 1406 0162 1E44     		add	r6, r6, r3
 1407              	.LVL147:
 599:Drivers/lvgl/src/draw/sw/blend/lv_draw_sw_blend_to_al88.c ****                     for(x = 0; x < w; x++) {
 1408              		.loc 1 599 36 is_stmt 1 discriminator 2 view .LVU457
 1409 0164 0137     		adds	r7, r7, #1
 1410              	.LVL148:
 1411              	.L78:
 599:Drivers/lvgl/src/draw/sw/blend/lv_draw_sw_blend_to_al88.c ****                     for(x = 0; x < w; x++) {
 1412              		.loc 1 599 30 discriminator 1 view .LVU458
 1413 0166 5F45     		cmp	r7, fp
 1414 0168 3ADA     		bge	.L64
 600:Drivers/lvgl/src/draw/sw/blend/lv_draw_sw_blend_to_al88.c ****                         lv_color16a_t src_color = src_buf_al88[x];
 1415              		.loc 1 600 27 is_stmt 0 view .LVU459
 1416 016a 0024     		movs	r4, #0
 1417 016c F2E7     		b	.L80
 1418              	.LVL149:
 1419              	.L81:
 1420              	.LBB233:
 617:Drivers/lvgl/src/draw/sw/blend/lv_draw_sw_blend_to_al88.c ****                 blend_non_normal_pixel(&dest_buf_al88[x], src_color, dsc->blend_mode, &cache);
 1421              		.loc 1 617 22 is_stmt 1 view .LVU460
 617:Drivers/lvgl/src/draw/sw/blend/lv_draw_sw_blend_to_al88.c ****                 blend_non_normal_pixel(&dest_buf_al88[x], src_color, dsc->blend_mode, &cache);
 1422              		.loc 1 617 40 is_stmt 0 view .LVU461
 1423 016e 9DF81530 		ldrb	r3, [sp, #21]	@ zero_extendqisi2
 1424 0172 3A5D     		ldrb	r2, [r7, r4]	@ zero_extendqisi2
 1425 0174 02FB03F3 		mul	r3, r2, r3
 1426 0178 03FB0AF3 		mul	r3, r3, r10
 1427 017c 1B0C     		lsrs	r3, r3, #16
 617:Drivers/lvgl/src/draw/sw/blend/lv_draw_sw_blend_to_al88.c ****                 blend_non_normal_pixel(&dest_buf_al88[x], src_color, dsc->blend_mode, &cache);
 1428              		.loc 1 617 38 view .LVU462
 1429 017e 8DF81530 		strb	r3, [sp, #21]
 1430              	.L82:
 618:Drivers/lvgl/src/draw/sw/blend/lv_draw_sw_blend_to_al88.c ****             }
 1431              		.loc 1 618 17 is_stmt 1 view .LVU463
 1432 0182 06AB     		add	r3, sp, #24
 1433 0184 99F82220 		ldrb	r2, [r9, #34]	@ zero_extendqisi2
 1434 0188 0599     		ldr	r1, [sp, #20]
ARM GAS  /var/folders/qx/2_175_4n2s19vhvtspjhb3qh0000gn/T//cc7k2hqg.s 			page 52


 1435 018a 2844     		add	r0, r0, r5
 1436 018c FFF7FEFF 		bl	blend_non_normal_pixel
 1437              	.LVL150:
 1438              	.LBE233:
 614:Drivers/lvgl/src/draw/sw/blend/lv_draw_sw_blend_to_al88.c ****                 lv_color16a_t src_color = src_buf_al88[x];
 1439              		.loc 1 614 32 discriminator 2 view .LVU464
 1440 0190 0134     		adds	r4, r4, #1
 1441              	.LVL151:
 1442              	.L85:
 614:Drivers/lvgl/src/draw/sw/blend/lv_draw_sw_blend_to_al88.c ****                 lv_color16a_t src_color = src_buf_al88[x];
 1443              		.loc 1 614 26 discriminator 1 view .LVU465
 1444 0192 4445     		cmp	r4, r8
 1445 0194 0EDA     		bge	.L98
 1446              	.LBB234:
 615:Drivers/lvgl/src/draw/sw/blend/lv_draw_sw_blend_to_al88.c ****                 if(mask_buf == NULL) src_color.alpha = LV_OPA_MIX2(src_color.alpha, opa);
 1447              		.loc 1 615 17 view .LVU466
 615:Drivers/lvgl/src/draw/sw/blend/lv_draw_sw_blend_to_al88.c ****                 if(mask_buf == NULL) src_color.alpha = LV_OPA_MIX2(src_color.alpha, opa);
 1448              		.loc 1 615 55 is_stmt 0 view .LVU467
 1449 0196 6000     		lsls	r0, r4, #1
 615:Drivers/lvgl/src/draw/sw/blend/lv_draw_sw_blend_to_al88.c ****                 if(mask_buf == NULL) src_color.alpha = LV_OPA_MIX2(src_color.alpha, opa);
 1450              		.loc 1 615 31 view .LVU468
 1451 0198 36F81430 		ldrh	r3, [r6, r4, lsl #1]	@ unaligned
 1452 019c ADF81430 		strh	r3, [sp, #20]	@ unaligned
 616:Drivers/lvgl/src/draw/sw/blend/lv_draw_sw_blend_to_al88.c ****                 else src_color.alpha = LV_OPA_MIX3(src_color.alpha, mask_buf[x], opa);
 1453              		.loc 1 616 17 is_stmt 1 view .LVU469
 616:Drivers/lvgl/src/draw/sw/blend/lv_draw_sw_blend_to_al88.c ****                 else src_color.alpha = LV_OPA_MIX3(src_color.alpha, mask_buf[x], opa);
 1454              		.loc 1 616 19 is_stmt 0 view .LVU470
 1455 01a0 002F     		cmp	r7, #0
 1456 01a2 E4D1     		bne	.L81
 616:Drivers/lvgl/src/draw/sw/blend/lv_draw_sw_blend_to_al88.c ****                 else src_color.alpha = LV_OPA_MIX3(src_color.alpha, mask_buf[x], opa);
 1457              		.loc 1 616 38 is_stmt 1 discriminator 1 view .LVU471
 616:Drivers/lvgl/src/draw/sw/blend/lv_draw_sw_blend_to_al88.c ****                 else src_color.alpha = LV_OPA_MIX3(src_color.alpha, mask_buf[x], opa);
 1458              		.loc 1 616 56 is_stmt 0 discriminator 1 view .LVU472
 1459 01a4 9DF81530 		ldrb	r3, [sp, #21]	@ zero_extendqisi2
 1460 01a8 03FB0AF3 		mul	r3, r3, r10
 1461 01ac 1B0A     		lsrs	r3, r3, #8
 616:Drivers/lvgl/src/draw/sw/blend/lv_draw_sw_blend_to_al88.c ****                 else src_color.alpha = LV_OPA_MIX3(src_color.alpha, mask_buf[x], opa);
 1462              		.loc 1 616 54 discriminator 1 view .LVU473
 1463 01ae 8DF81530 		strb	r3, [sp, #21]
 1464 01b2 E6E7     		b	.L82
 1465              	.L98:
 616:Drivers/lvgl/src/draw/sw/blend/lv_draw_sw_blend_to_al88.c ****                 else src_color.alpha = LV_OPA_MIX3(src_color.alpha, mask_buf[x], opa);
 1466              		.loc 1 616 54 discriminator 1 view .LVU474
 1467              	.LBE234:
 620:Drivers/lvgl/src/draw/sw/blend/lv_draw_sw_blend_to_al88.c ****             dest_buf_al88 = drawbuf_next_row(dest_buf_al88, dest_stride);
 1468              		.loc 1 620 13 is_stmt 1 view .LVU475
 620:Drivers/lvgl/src/draw/sw/blend/lv_draw_sw_blend_to_al88.c ****             dest_buf_al88 = drawbuf_next_row(dest_buf_al88, dest_stride);
 1469              		.loc 1 620 15 is_stmt 0 view .LVU476
 1470 01b4 0FB1     		cbz	r7, .L84
 620:Drivers/lvgl/src/draw/sw/blend/lv_draw_sw_blend_to_al88.c ****             dest_buf_al88 = drawbuf_next_row(dest_buf_al88, dest_stride);
 1471              		.loc 1 620 26 is_stmt 1 discriminator 1 view .LVU477
 620:Drivers/lvgl/src/draw/sw/blend/lv_draw_sw_blend_to_al88.c ****             dest_buf_al88 = drawbuf_next_row(dest_buf_al88, dest_stride);
 1472              		.loc 1 620 35 is_stmt 0 discriminator 1 view .LVU478
 1473 01b6 029B     		ldr	r3, [sp, #8]
 1474 01b8 1F44     		add	r7, r7, r3
 1475              	.LVL152:
 1476              	.L84:
ARM GAS  /var/folders/qx/2_175_4n2s19vhvtspjhb3qh0000gn/T//cc7k2hqg.s 			page 53


 621:Drivers/lvgl/src/draw/sw/blend/lv_draw_sw_blend_to_al88.c ****             src_buf_al88 = drawbuf_next_row(src_buf_al88, src_stride);
 1477              		.loc 1 621 13 is_stmt 1 view .LVU479
 1478              	.LBB235:
 1479              	.LBI235:
1033:Drivers/lvgl/src/draw/sw/blend/lv_draw_sw_blend_to_al88.c **** {
 1480              		.loc 1 1033 44 view .LVU480
 1481              	.LBB236:
 1482              		.loc 1 1035 5 view .LVU481
 1483              		.loc 1 1035 12 is_stmt 0 view .LVU482
 1484 01ba 019B     		ldr	r3, [sp, #4]
 1485 01bc 1D44     		add	r5, r5, r3
 1486              	.LVL153:
 1487              		.loc 1 1035 12 view .LVU483
 1488              	.LBE236:
 1489              	.LBE235:
 622:Drivers/lvgl/src/draw/sw/blend/lv_draw_sw_blend_to_al88.c ****         }
 1490              		.loc 1 622 13 is_stmt 1 view .LVU484
 1491              	.LBB237:
 1492              	.LBI237:
1033:Drivers/lvgl/src/draw/sw/blend/lv_draw_sw_blend_to_al88.c **** {
 1493              		.loc 1 1033 44 view .LVU485
 1494              	.LBB238:
 1495              		.loc 1 1035 5 view .LVU486
 1496              		.loc 1 1035 12 is_stmt 0 view .LVU487
 1497 01be 009B     		ldr	r3, [sp]
 1498 01c0 1E44     		add	r6, r6, r3
 1499              	.LVL154:
 1500              		.loc 1 1035 12 view .LVU488
 1501              	.LBE238:
 1502              	.LBE237:
 613:Drivers/lvgl/src/draw/sw/blend/lv_draw_sw_blend_to_al88.c ****             for(x = 0; x < w; x++) {
 1503              		.loc 1 613 28 is_stmt 1 discriminator 2 view .LVU489
 1504 01c2 0BF1010B 		add	fp, fp, #1
 1505              	.LVL155:
 1506              	.L65:
 613:Drivers/lvgl/src/draw/sw/blend/lv_draw_sw_blend_to_al88.c ****             for(x = 0; x < w; x++) {
 1507              		.loc 1 613 22 discriminator 1 view .LVU490
 1508 01c6 039B     		ldr	r3, [sp, #12]
 1509 01c8 9B45     		cmp	fp, r3
 1510 01ca 09DA     		bge	.L64
 614:Drivers/lvgl/src/draw/sw/blend/lv_draw_sw_blend_to_al88.c ****                 lv_color16a_t src_color = src_buf_al88[x];
 1511              		.loc 1 614 19 is_stmt 0 view .LVU491
 1512 01cc 0024     		movs	r4, #0
 1513 01ce E0E7     		b	.L85
 1514              	.LVL156:
 1515              	.L86:
 613:Drivers/lvgl/src/draw/sw/blend/lv_draw_sw_blend_to_al88.c ****             for(x = 0; x < w; x++) {
 1516              		.loc 1 613 15 view .LVU492
 1517 01d0 0023     		movs	r3, #0
 1518 01d2 2A46     		mov	r2, r5
 1519 01d4 3D46     		mov	r5, r7
 1520              	.LVL157:
 613:Drivers/lvgl/src/draw/sw/blend/lv_draw_sw_blend_to_al88.c ****             for(x = 0; x < w; x++) {
 1521              		.loc 1 613 15 view .LVU493
 1522 01d6 CDF80CB0 		str	fp, [sp, #12]
 1523 01da 9B46     		mov	fp, r3
 1524              	.LVL158:
ARM GAS  /var/folders/qx/2_175_4n2s19vhvtspjhb3qh0000gn/T//cc7k2hqg.s 			page 54


 613:Drivers/lvgl/src/draw/sw/blend/lv_draw_sw_blend_to_al88.c ****             for(x = 0; x < w; x++) {
 1525              		.loc 1 613 15 view .LVU494
 1526 01dc 1746     		mov	r7, r2
 1527              	.LVL159:
 613:Drivers/lvgl/src/draw/sw/blend/lv_draw_sw_blend_to_al88.c ****             for(x = 0; x < w; x++) {
 1528              		.loc 1 613 15 view .LVU495
 1529 01de F2E7     		b	.L65
 1530              	.LVL160:
 1531              	.L64:
 625:Drivers/lvgl/src/draw/sw/blend/lv_draw_sw_blend_to_al88.c **** 
 1532              		.loc 1 625 1 view .LVU496
 1533 01e0 09B0     		add	sp, sp, #36
 1534              	.LCFI14:
 1535              		.cfi_def_cfa_offset 36
 1536              	.LVL161:
 625:Drivers/lvgl/src/draw/sw/blend/lv_draw_sw_blend_to_al88.c **** 
 1537              		.loc 1 625 1 view .LVU497
 1538              		@ sp needed
 1539 01e2 BDE8F08F 		pop	{r4, r5, r6, r7, r8, r9, r10, fp, pc}
 625:Drivers/lvgl/src/draw/sw/blend/lv_draw_sw_blend_to_al88.c **** 
 1540              		.loc 1 625 1 view .LVU498
 1541              		.cfi_endproc
 1542              	.LFE185:
 1544              		.section	.text.i1_image_blend,"ax",%progbits
 1545              		.align	1
 1546              		.syntax unified
 1547              		.thumb
 1548              		.thumb_func
 1550              	i1_image_blend:
 1551              	.LVL162:
 1552              	.LFB183:
 356:Drivers/lvgl/src/draw/sw/blend/lv_draw_sw_blend_to_al88.c ****     int32_t w = dsc->dest_w;
 1553              		.loc 1 356 1 is_stmt 1 view -0
 1554              		.cfi_startproc
 1555              		@ args = 0, pretend = 0, frame = 32
 1556              		@ frame_needed = 0, uses_anonymous_args = 0
 356:Drivers/lvgl/src/draw/sw/blend/lv_draw_sw_blend_to_al88.c ****     int32_t w = dsc->dest_w;
 1557              		.loc 1 356 1 is_stmt 0 view .LVU500
 1558 0000 2DE9F04F 		push	{r4, r5, r6, r7, r8, r9, r10, fp, lr}
 1559              	.LCFI15:
 1560              		.cfi_def_cfa_offset 36
 1561              		.cfi_offset 4, -36
 1562              		.cfi_offset 5, -32
 1563              		.cfi_offset 6, -28
 1564              		.cfi_offset 7, -24
 1565              		.cfi_offset 8, -20
 1566              		.cfi_offset 9, -16
 1567              		.cfi_offset 10, -12
 1568              		.cfi_offset 11, -8
 1569              		.cfi_offset 14, -4
 1570 0004 89B0     		sub	sp, sp, #36
 1571              	.LCFI16:
 1572              		.cfi_def_cfa_offset 72
 1573 0006 8146     		mov	r9, r0
 357:Drivers/lvgl/src/draw/sw/blend/lv_draw_sw_blend_to_al88.c ****     int32_t h = dsc->dest_h;
 1574              		.loc 1 357 5 is_stmt 1 view .LVU501
 357:Drivers/lvgl/src/draw/sw/blend/lv_draw_sw_blend_to_al88.c ****     int32_t h = dsc->dest_h;
ARM GAS  /var/folders/qx/2_175_4n2s19vhvtspjhb3qh0000gn/T//cc7k2hqg.s 			page 55


 1575              		.loc 1 357 13 is_stmt 0 view .LVU502
 1576 0008 D0F80480 		ldr	r8, [r0, #4]
 1577              	.LVL163:
 358:Drivers/lvgl/src/draw/sw/blend/lv_draw_sw_blend_to_al88.c ****     lv_opa_t opa = dsc->opa;
 1578              		.loc 1 358 5 is_stmt 1 view .LVU503
 358:Drivers/lvgl/src/draw/sw/blend/lv_draw_sw_blend_to_al88.c ****     lv_opa_t opa = dsc->opa;
 1579              		.loc 1 358 13 is_stmt 0 view .LVU504
 1580 000c D0F808B0 		ldr	fp, [r0, #8]
 1581              	.LVL164:
 359:Drivers/lvgl/src/draw/sw/blend/lv_draw_sw_blend_to_al88.c ****     lv_color16a_t * dest_buf_al88 = dsc->dest_buf;
 1582              		.loc 1 359 5 is_stmt 1 view .LVU505
 359:Drivers/lvgl/src/draw/sw/blend/lv_draw_sw_blend_to_al88.c ****     lv_color16a_t * dest_buf_al88 = dsc->dest_buf;
 1583              		.loc 1 359 14 is_stmt 0 view .LVU506
 1584 0010 90F821A0 		ldrb	r10, [r0, #33]	@ zero_extendqisi2
 1585              	.LVL165:
 360:Drivers/lvgl/src/draw/sw/blend/lv_draw_sw_blend_to_al88.c ****     int32_t dest_stride = dsc->dest_stride;
 1586              		.loc 1 360 5 is_stmt 1 view .LVU507
 360:Drivers/lvgl/src/draw/sw/blend/lv_draw_sw_blend_to_al88.c ****     int32_t dest_stride = dsc->dest_stride;
 1587              		.loc 1 360 21 is_stmt 0 view .LVU508
 1588 0014 0568     		ldr	r5, [r0]
 1589              	.LVL166:
 361:Drivers/lvgl/src/draw/sw/blend/lv_draw_sw_blend_to_al88.c ****     const uint8_t * src_buf_i1 = dsc->src_buf;
 1590              		.loc 1 361 5 is_stmt 1 view .LVU509
 361:Drivers/lvgl/src/draw/sw/blend/lv_draw_sw_blend_to_al88.c ****     const uint8_t * src_buf_i1 = dsc->src_buf;
 1591              		.loc 1 361 13 is_stmt 0 view .LVU510
 1592 0016 C368     		ldr	r3, [r0, #12]
 1593 0018 0193     		str	r3, [sp, #4]
 1594              	.LVL167:
 362:Drivers/lvgl/src/draw/sw/blend/lv_draw_sw_blend_to_al88.c ****     int32_t src_stride = dsc->src_stride;
 1595              		.loc 1 362 5 is_stmt 1 view .LVU511
 362:Drivers/lvgl/src/draw/sw/blend/lv_draw_sw_blend_to_al88.c ****     int32_t src_stride = dsc->src_stride;
 1596              		.loc 1 362 21 is_stmt 0 view .LVU512
 1597 001a 8669     		ldr	r6, [r0, #24]
 1598              	.LVL168:
 363:Drivers/lvgl/src/draw/sw/blend/lv_draw_sw_blend_to_al88.c ****     const lv_opa_t * mask_buf = dsc->mask_buf;
 1599              		.loc 1 363 5 is_stmt 1 view .LVU513
 363:Drivers/lvgl/src/draw/sw/blend/lv_draw_sw_blend_to_al88.c ****     const lv_opa_t * mask_buf = dsc->mask_buf;
 1600              		.loc 1 363 13 is_stmt 0 view .LVU514
 1601 001c C369     		ldr	r3, [r0, #28]
 1602              	.LVL169:
 363:Drivers/lvgl/src/draw/sw/blend/lv_draw_sw_blend_to_al88.c ****     const lv_opa_t * mask_buf = dsc->mask_buf;
 1603              		.loc 1 363 13 view .LVU515
 1604 001e 0093     		str	r3, [sp]
 1605              	.LVL170:
 364:Drivers/lvgl/src/draw/sw/blend/lv_draw_sw_blend_to_al88.c ****     int32_t mask_stride = dsc->mask_stride;
 1606              		.loc 1 364 5 is_stmt 1 view .LVU516
 364:Drivers/lvgl/src/draw/sw/blend/lv_draw_sw_blend_to_al88.c ****     int32_t mask_stride = dsc->mask_stride;
 1607              		.loc 1 364 22 is_stmt 0 view .LVU517
 1608 0020 0769     		ldr	r7, [r0, #16]
 1609              	.LVL171:
 365:Drivers/lvgl/src/draw/sw/blend/lv_draw_sw_blend_to_al88.c **** 
 1610              		.loc 1 365 5 is_stmt 1 view .LVU518
 365:Drivers/lvgl/src/draw/sw/blend/lv_draw_sw_blend_to_al88.c **** 
 1611              		.loc 1 365 13 is_stmt 0 view .LVU519
 1612 0022 4369     		ldr	r3, [r0, #20]
 1613              	.LVL172:
 365:Drivers/lvgl/src/draw/sw/blend/lv_draw_sw_blend_to_al88.c **** 
ARM GAS  /var/folders/qx/2_175_4n2s19vhvtspjhb3qh0000gn/T//cc7k2hqg.s 			page 56


 1614              		.loc 1 365 13 view .LVU520
 1615 0024 0293     		str	r3, [sp, #8]
 1616              	.LVL173:
 367:Drivers/lvgl/src/draw/sw/blend/lv_draw_sw_blend_to_al88.c ****     lv_color_mix_with_alpha_cache_init(&cache);
 1617              		.loc 1 367 5 is_stmt 1 view .LVU521
 368:Drivers/lvgl/src/draw/sw/blend/lv_draw_sw_blend_to_al88.c **** 
 1618              		.loc 1 368 5 view .LVU522
 1619 0026 06A8     		add	r0, sp, #24
 1620              	.LVL174:
 368:Drivers/lvgl/src/draw/sw/blend/lv_draw_sw_blend_to_al88.c **** 
 1621              		.loc 1 368 5 is_stmt 0 view .LVU523
 1622 0028 FFF7FEFF 		bl	lv_color_mix_with_alpha_cache_init
 1623              	.LVL175:
 370:Drivers/lvgl/src/draw/sw/blend/lv_draw_sw_blend_to_al88.c **** 
 1624              		.loc 1 370 5 is_stmt 1 view .LVU524
 372:Drivers/lvgl/src/draw/sw/blend/lv_draw_sw_blend_to_al88.c ****         if(mask_buf == NULL && opa >= LV_OPA_MAX) {
 1625              		.loc 1 372 5 view .LVU525
 372:Drivers/lvgl/src/draw/sw/blend/lv_draw_sw_blend_to_al88.c ****         if(mask_buf == NULL && opa >= LV_OPA_MAX) {
 1626              		.loc 1 372 11 is_stmt 0 view .LVU526
 1627 002c 99F82230 		ldrb	r3, [r9, #34]	@ zero_extendqisi2
 372:Drivers/lvgl/src/draw/sw/blend/lv_draw_sw_blend_to_al88.c ****         if(mask_buf == NULL && opa >= LV_OPA_MAX) {
 1628              		.loc 1 372 7 view .LVU527
 1629 0030 002B     		cmp	r3, #0
 1630 0032 40F01781 		bne	.L99
 373:Drivers/lvgl/src/draw/sw/blend/lv_draw_sw_blend_to_al88.c ****             if(LV_RESULT_INVALID == LV_DRAW_SW_I1_BLEND_NORMAL_TO_AL88(dsc)) {
 1631              		.loc 1 373 9 is_stmt 1 view .LVU528
 373:Drivers/lvgl/src/draw/sw/blend/lv_draw_sw_blend_to_al88.c ****             if(LV_RESULT_INVALID == LV_DRAW_SW_I1_BLEND_NORMAL_TO_AL88(dsc)) {
 1632              		.loc 1 373 11 is_stmt 0 view .LVU529
 1633 0036 87B1     		cbz	r7, .L137
 399:Drivers/lvgl/src/draw/sw/blend/lv_draw_sw_blend_to_al88.c ****             if(LV_RESULT_INVALID == LV_DRAW_SW_I1_BLEND_NORMAL_TO_AL88_WITH_MASK(dsc)) {
 1634              		.loc 1 399 14 is_stmt 1 view .LVU530
 399:Drivers/lvgl/src/draw/sw/blend/lv_draw_sw_blend_to_al88.c ****             if(LV_RESULT_INVALID == LV_DRAW_SW_I1_BLEND_NORMAL_TO_AL88_WITH_MASK(dsc)) {
 1635              		.loc 1 399 16 is_stmt 0 view .LVU531
 1636 0038 1FB1     		cbz	r7, .L110
 399:Drivers/lvgl/src/draw/sw/blend/lv_draw_sw_blend_to_al88.c ****             if(LV_RESULT_INVALID == LV_DRAW_SW_I1_BLEND_NORMAL_TO_AL88_WITH_MASK(dsc)) {
 1637              		.loc 1 399 26 discriminator 1 view .LVU532
 1638 003a BAF1FC0F 		cmp	r10, #252
 1639 003e 00F29280 		bhi	.L130
 1640              	.L110:
 414:Drivers/lvgl/src/draw/sw/blend/lv_draw_sw_blend_to_al88.c ****             if(LV_RESULT_INVALID == LV_DRAW_SW_I1_BLEND_NORMAL_TO_AL88_MIX_MASK_OPA(dsc)) {
 1641              		.loc 1 414 14 is_stmt 1 view .LVU533
 414:Drivers/lvgl/src/draw/sw/blend/lv_draw_sw_blend_to_al88.c ****             if(LV_RESULT_INVALID == LV_DRAW_SW_I1_BLEND_NORMAL_TO_AL88_MIX_MASK_OPA(dsc)) {
 1642              		.loc 1 414 16 is_stmt 0 view .LVU534
 1643 0042 002F     		cmp	r7, #0
 1644 0044 00F00981 		beq	.L132
 414:Drivers/lvgl/src/draw/sw/blend/lv_draw_sw_blend_to_al88.c ****             if(LV_RESULT_INVALID == LV_DRAW_SW_I1_BLEND_NORMAL_TO_AL88_MIX_MASK_OPA(dsc)) {
 1645              		.loc 1 414 26 discriminator 1 view .LVU535
 1646 0048 BAF1FC0F 		cmp	r10, #252
 1647 004c 40F2C580 		bls	.L133
 1648 0050 0022     		movs	r2, #0
 1649 0052 CDF80CB0 		str	fp, [sp, #12]
 1650 0056 9346     		mov	fp, r2
 1651              	.LVL176:
 414:Drivers/lvgl/src/draw/sw/blend/lv_draw_sw_blend_to_al88.c ****             if(LV_RESULT_INVALID == LV_DRAW_SW_I1_BLEND_NORMAL_TO_AL88_MIX_MASK_OPA(dsc)) {
 1652              		.loc 1 414 26 discriminator 1 view .LVU536
 1653 0058 FAE0     		b	.L125
 1654              	.LVL177:
ARM GAS  /var/folders/qx/2_175_4n2s19vhvtspjhb3qh0000gn/T//cc7k2hqg.s 			page 57


 1655              	.L137:
 373:Drivers/lvgl/src/draw/sw/blend/lv_draw_sw_blend_to_al88.c ****             if(LV_RESULT_INVALID == LV_DRAW_SW_I1_BLEND_NORMAL_TO_AL88(dsc)) {
 1656              		.loc 1 373 29 discriminator 1 view .LVU537
 1657 005a BAF1FC0F 		cmp	r10, #252
 1658 005e 28D8     		bhi	.L127
 1659 0060 DDF80090 		ldr	r9, [sp]
 1660              	.LVL178:
 373:Drivers/lvgl/src/draw/sw/blend/lv_draw_sw_blend_to_al88.c ****             if(LV_RESULT_INVALID == LV_DRAW_SW_I1_BLEND_NORMAL_TO_AL88(dsc)) {
 1661              		.loc 1 373 29 discriminator 1 view .LVU538
 1662 0064 4DE0     		b	.L103
 1663              	.LVL179:
 1664              	.L104:
 1665              	.LBB239:
 1666              	.LBB240:
1003:Drivers/lvgl/src/draw/sw/blend/lv_draw_sw_blend_to_al88.c **** }
 1667              		.loc 1 1003 25 view .LVU539
 1668 0066 D210     		asrs	r2, r2, #3
1003:Drivers/lvgl/src/draw/sw/blend/lv_draw_sw_blend_to_al88.c **** }
 1669              		.loc 1 1003 16 view .LVU540
 1670 0068 B25C     		ldrb	r2, [r6, r2]	@ zero_extendqisi2
1003:Drivers/lvgl/src/draw/sw/blend/lv_draw_sw_blend_to_al88.c **** }
 1671              		.loc 1 1003 47 view .LVU541
 1672 006a D3F1000C 		rsbs	ip, r3, #0
 1673 006e 03F00701 		and	r1, r3, #7
 1674 0072 0CF0070C 		and	ip, ip, #7
 1675 0076 58BF     		it	pl
 1676 0078 CCF10001 		rsbpl	r1, ip, #0
1003:Drivers/lvgl/src/draw/sw/blend/lv_draw_sw_blend_to_al88.c **** }
 1677              		.loc 1 1003 36 view .LVU542
 1678 007c C1F10701 		rsb	r1, r1, #7
1003:Drivers/lvgl/src/draw/sw/blend/lv_draw_sw_blend_to_al88.c **** }
 1679              		.loc 1 1003 30 view .LVU543
 1680 0080 0A41     		asrs	r2, r2, r1
 1681              	.LVL180:
1003:Drivers/lvgl/src/draw/sw/blend/lv_draw_sw_blend_to_al88.c **** }
 1682              		.loc 1 1003 30 view .LVU544
 1683              	.LBE240:
 1684              	.LBE239:
 377:Drivers/lvgl/src/draw/sw/blend/lv_draw_sw_blend_to_al88.c ****                         dest_buf_al88[x].alpha = 255;
 1685              		.loc 1 377 38 discriminator 1 view .LVU545
 1686 0082 05EB4301 		add	r1, r5, r3, lsl #1
 377:Drivers/lvgl/src/draw/sw/blend/lv_draw_sw_blend_to_al88.c ****                         dest_buf_al88[x].alpha = 255;
 1687              		.loc 1 377 47 discriminator 1 view .LVU546
 1688 0086 42F30002 		sbfx	r2, r2, #0, #1
 1689 008a 05F81320 		strb	r2, [r5, r3, lsl #1]
 378:Drivers/lvgl/src/draw/sw/blend/lv_draw_sw_blend_to_al88.c ****                     }
 1690              		.loc 1 378 25 is_stmt 1 view .LVU547
 378:Drivers/lvgl/src/draw/sw/blend/lv_draw_sw_blend_to_al88.c ****                     }
 1691              		.loc 1 378 48 is_stmt 0 view .LVU548
 1692 008e FF22     		movs	r2, #255
 1693 0090 4A70     		strb	r2, [r1, #1]
 376:Drivers/lvgl/src/draw/sw/blend/lv_draw_sw_blend_to_al88.c ****                         dest_buf_al88[x].lumi = get_bit(src_buf_i1, x) * 255;
 1694              		.loc 1 376 40 is_stmt 1 discriminator 3 view .LVU549
 1695 0092 0133     		adds	r3, r3, #1
 1696              	.LVL181:
 1697              	.L106:
 376:Drivers/lvgl/src/draw/sw/blend/lv_draw_sw_blend_to_al88.c ****                         dest_buf_al88[x].lumi = get_bit(src_buf_i1, x) * 255;
ARM GAS  /var/folders/qx/2_175_4n2s19vhvtspjhb3qh0000gn/T//cc7k2hqg.s 			page 58


 1698              		.loc 1 376 34 discriminator 1 view .LVU550
 1699 0094 4345     		cmp	r3, r8
 1700 0096 04DA     		bge	.L138
 377:Drivers/lvgl/src/draw/sw/blend/lv_draw_sw_blend_to_al88.c ****                         dest_buf_al88[x].alpha = 255;
 1701              		.loc 1 377 25 view .LVU551
 1702              	.LVL182:
 1703              	.LBB242:
 1704              	.LBI239:
1001:Drivers/lvgl/src/draw/sw/blend/lv_draw_sw_blend_to_al88.c **** {
 1705              		.loc 1 1001 45 view .LVU552
 1706              	.LBB241:
1003:Drivers/lvgl/src/draw/sw/blend/lv_draw_sw_blend_to_al88.c **** }
 1707              		.loc 1 1003 5 view .LVU553
1003:Drivers/lvgl/src/draw/sw/blend/lv_draw_sw_blend_to_al88.c **** }
 1708              		.loc 1 1003 25 is_stmt 0 view .LVU554
 1709 0098 1A46     		mov	r2, r3
 1710 009a 002B     		cmp	r3, #0
 1711 009c E3DA     		bge	.L104
1003:Drivers/lvgl/src/draw/sw/blend/lv_draw_sw_blend_to_al88.c **** }
 1712              		.loc 1 1003 25 view .LVU555
 1713 009e DA1D     		adds	r2, r3, #7
 1714 00a0 E1E7     		b	.L104
 1715              	.LVL183:
 1716              	.L138:
1003:Drivers/lvgl/src/draw/sw/blend/lv_draw_sw_blend_to_al88.c **** }
 1717              		.loc 1 1003 25 view .LVU556
 1718              	.LBE241:
 1719              	.LBE242:
 380:Drivers/lvgl/src/draw/sw/blend/lv_draw_sw_blend_to_al88.c ****                     src_buf_i1 = drawbuf_next_row(src_buf_i1, src_stride);
 1720              		.loc 1 380 21 is_stmt 1 view .LVU557
 1721              	.LBB243:
 1722              	.LBI243:
1033:Drivers/lvgl/src/draw/sw/blend/lv_draw_sw_blend_to_al88.c **** {
 1723              		.loc 1 1033 44 view .LVU558
 1724              	.LBB244:
 1725              		.loc 1 1035 5 view .LVU559
 1726              		.loc 1 1035 12 is_stmt 0 view .LVU560
 1727 00a2 2544     		add	r5, r5, r4
 1728              	.LVL184:
 1729              		.loc 1 1035 12 view .LVU561
 1730              	.LBE244:
 1731              	.LBE243:
 381:Drivers/lvgl/src/draw/sw/blend/lv_draw_sw_blend_to_al88.c ****                 }
 1732              		.loc 1 381 21 is_stmt 1 view .LVU562
 1733              	.LBB245:
 1734              	.LBI245:
1033:Drivers/lvgl/src/draw/sw/blend/lv_draw_sw_blend_to_al88.c **** {
 1735              		.loc 1 1033 44 view .LVU563
 1736              	.LBB246:
 1737              		.loc 1 1035 5 view .LVU564
 1738              		.loc 1 1035 12 is_stmt 0 view .LVU565
 1739 00a4 3E44     		add	r6, r6, r7
 1740              	.LVL185:
 1741              		.loc 1 1035 12 view .LVU566
 1742              	.LBE246:
 1743              	.LBE245:
 375:Drivers/lvgl/src/draw/sw/blend/lv_draw_sw_blend_to_al88.c ****                     for(x = 0; x < w; x++) {
ARM GAS  /var/folders/qx/2_175_4n2s19vhvtspjhb3qh0000gn/T//cc7k2hqg.s 			page 59


 1744              		.loc 1 375 36 is_stmt 1 discriminator 2 view .LVU567
 1745 00a6 0130     		adds	r0, r0, #1
 1746              	.LVL186:
 1747              	.L102:
 375:Drivers/lvgl/src/draw/sw/blend/lv_draw_sw_blend_to_al88.c ****                     for(x = 0; x < w; x++) {
 1748              		.loc 1 375 30 discriminator 1 view .LVU568
 1749 00a8 5845     		cmp	r0, fp
 1750 00aa 80F2DB80 		bge	.L99
 376:Drivers/lvgl/src/draw/sw/blend/lv_draw_sw_blend_to_al88.c ****                         dest_buf_al88[x].lumi = get_bit(src_buf_i1, x) * 255;
 1751              		.loc 1 376 27 is_stmt 0 view .LVU569
 1752 00ae 0023     		movs	r3, #0
 1753 00b0 F0E7     		b	.L106
 1754              	.LVL187:
 1755              	.L127:
 375:Drivers/lvgl/src/draw/sw/blend/lv_draw_sw_blend_to_al88.c ****                     for(x = 0; x < w; x++) {
 1756              		.loc 1 375 23 view .LVU570
 1757 00b2 0020     		movs	r0, #0
 1758 00b4 019C     		ldr	r4, [sp, #4]
 1759 00b6 009F     		ldr	r7, [sp]
 1760              	.LVL188:
 375:Drivers/lvgl/src/draw/sw/blend/lv_draw_sw_blend_to_al88.c ****                     for(x = 0; x < w; x++) {
 1761              		.loc 1 375 23 view .LVU571
 1762 00b8 F6E7     		b	.L102
 1763              	.LVL189:
 1764              	.L107:
 1765              	.LBB247:
 1766              	.LBB248:
 1767              	.LBB249:
1003:Drivers/lvgl/src/draw/sw/blend/lv_draw_sw_blend_to_al88.c **** }
 1768              		.loc 1 1003 25 view .LVU572
 1769 00ba DB10     		asrs	r3, r3, #3
1003:Drivers/lvgl/src/draw/sw/blend/lv_draw_sw_blend_to_al88.c **** }
 1770              		.loc 1 1003 16 view .LVU573
 1771 00bc F35C     		ldrb	r3, [r6, r3]	@ zero_extendqisi2
1003:Drivers/lvgl/src/draw/sw/blend/lv_draw_sw_blend_to_al88.c **** }
 1772              		.loc 1 1003 47 view .LVU574
 1773 00be 6142     		rsbs	r1, r4, #0
 1774 00c0 04F00702 		and	r2, r4, #7
 1775 00c4 01F00701 		and	r1, r1, #7
 1776 00c8 58BF     		it	pl
 1777 00ca 4A42     		rsbpl	r2, r1, #0
1003:Drivers/lvgl/src/draw/sw/blend/lv_draw_sw_blend_to_al88.c **** }
 1778              		.loc 1 1003 36 view .LVU575
 1779 00cc C2F10702 		rsb	r2, r2, #7
1003:Drivers/lvgl/src/draw/sw/blend/lv_draw_sw_blend_to_al88.c **** }
 1780              		.loc 1 1003 30 view .LVU576
 1781 00d0 1341     		asrs	r3, r3, r2
 1782              	.LVL190:
1003:Drivers/lvgl/src/draw/sw/blend/lv_draw_sw_blend_to_al88.c **** }
 1783              		.loc 1 1003 30 view .LVU577
 1784              	.LBE249:
 1785              	.LBE248:
 390:Drivers/lvgl/src/draw/sw/blend/lv_draw_sw_blend_to_al88.c ****                         src_color.alpha = opa;
 1786              		.loc 1 390 40 discriminator 1 view .LVU578
 1787 00d2 43F30003 		sbfx	r3, r3, #0, #1
 1788 00d6 8DF81430 		strb	r3, [sp, #20]
 391:Drivers/lvgl/src/draw/sw/blend/lv_draw_sw_blend_to_al88.c ****                         lv_color_16a_16a_mix(src_color, &dest_buf_al88[x], &cache);
ARM GAS  /var/folders/qx/2_175_4n2s19vhvtspjhb3qh0000gn/T//cc7k2hqg.s 			page 60


 1789              		.loc 1 391 25 is_stmt 1 view .LVU579
 391:Drivers/lvgl/src/draw/sw/blend/lv_draw_sw_blend_to_al88.c ****                         lv_color_16a_16a_mix(src_color, &dest_buf_al88[x], &cache);
 1790              		.loc 1 391 41 is_stmt 0 view .LVU580
 1791 00da 8DF815A0 		strb	r10, [sp, #21]
 392:Drivers/lvgl/src/draw/sw/blend/lv_draw_sw_blend_to_al88.c ****                     }
 1792              		.loc 1 392 25 is_stmt 1 view .LVU581
 1793 00de 06AA     		add	r2, sp, #24
 1794 00e0 05EB4401 		add	r1, r5, r4, lsl #1
 1795 00e4 0598     		ldr	r0, [sp, #20]
 1796 00e6 FFF7FEFF 		bl	lv_color_16a_16a_mix
 1797              	.LVL191:
 1798              	.LBE247:
 388:Drivers/lvgl/src/draw/sw/blend/lv_draw_sw_blend_to_al88.c ****                         lv_color16a_t src_color;
 1799              		.loc 1 388 40 discriminator 3 view .LVU582
 1800 00ea 0134     		adds	r4, r4, #1
 1801              	.LVL192:
 1802              	.L109:
 388:Drivers/lvgl/src/draw/sw/blend/lv_draw_sw_blend_to_al88.c ****                         lv_color16a_t src_color;
 1803              		.loc 1 388 34 discriminator 1 view .LVU583
 1804 00ec 4445     		cmp	r4, r8
 1805 00ee 04DA     		bge	.L139
 1806              	.LBB252:
 389:Drivers/lvgl/src/draw/sw/blend/lv_draw_sw_blend_to_al88.c ****                         src_color.lumi = get_bit(src_buf_i1, x) * 255;
 1807              		.loc 1 389 25 view .LVU584
 390:Drivers/lvgl/src/draw/sw/blend/lv_draw_sw_blend_to_al88.c ****                         src_color.alpha = opa;
 1808              		.loc 1 390 25 view .LVU585
 1809              	.LVL193:
 1810              	.LBB251:
 1811              	.LBI248:
1001:Drivers/lvgl/src/draw/sw/blend/lv_draw_sw_blend_to_al88.c **** {
 1812              		.loc 1 1001 45 view .LVU586
 1813              	.LBB250:
1003:Drivers/lvgl/src/draw/sw/blend/lv_draw_sw_blend_to_al88.c **** }
 1814              		.loc 1 1003 5 view .LVU587
1003:Drivers/lvgl/src/draw/sw/blend/lv_draw_sw_blend_to_al88.c **** }
 1815              		.loc 1 1003 25 is_stmt 0 view .LVU588
 1816 00f0 2346     		mov	r3, r4
 1817 00f2 002C     		cmp	r4, #0
 1818 00f4 E1DA     		bge	.L107
1003:Drivers/lvgl/src/draw/sw/blend/lv_draw_sw_blend_to_al88.c **** }
 1819              		.loc 1 1003 25 view .LVU589
 1820 00f6 E31D     		adds	r3, r4, #7
 1821 00f8 DFE7     		b	.L107
 1822              	.LVL194:
 1823              	.L139:
1003:Drivers/lvgl/src/draw/sw/blend/lv_draw_sw_blend_to_al88.c **** }
 1824              		.loc 1 1003 25 view .LVU590
 1825              	.LBE250:
 1826              	.LBE251:
 1827              	.LBE252:
 394:Drivers/lvgl/src/draw/sw/blend/lv_draw_sw_blend_to_al88.c ****                     src_buf_i1 = drawbuf_next_row(src_buf_i1, src_stride);
 1828              		.loc 1 394 21 is_stmt 1 view .LVU591
 1829              	.LBB253:
 1830              	.LBI253:
1033:Drivers/lvgl/src/draw/sw/blend/lv_draw_sw_blend_to_al88.c **** {
 1831              		.loc 1 1033 44 view .LVU592
 1832              	.LBB254:
ARM GAS  /var/folders/qx/2_175_4n2s19vhvtspjhb3qh0000gn/T//cc7k2hqg.s 			page 61


 1833              		.loc 1 1035 5 view .LVU593
 1834              		.loc 1 1035 12 is_stmt 0 view .LVU594
 1835 00fa 019B     		ldr	r3, [sp, #4]
 1836 00fc 1D44     		add	r5, r5, r3
 1837              	.LVL195:
 1838              		.loc 1 1035 12 view .LVU595
 1839              	.LBE254:
 1840              	.LBE253:
 395:Drivers/lvgl/src/draw/sw/blend/lv_draw_sw_blend_to_al88.c ****                 }
 1841              		.loc 1 395 21 is_stmt 1 view .LVU596
 1842              	.LBB255:
 1843              	.LBI255:
1033:Drivers/lvgl/src/draw/sw/blend/lv_draw_sw_blend_to_al88.c **** {
 1844              		.loc 1 1033 44 view .LVU597
 1845              	.LBB256:
 1846              		.loc 1 1035 5 view .LVU598
 1847              		.loc 1 1035 12 is_stmt 0 view .LVU599
 1848 00fe 4E44     		add	r6, r6, r9
 1849              	.LVL196:
 1850              		.loc 1 1035 12 view .LVU600
 1851              	.LBE256:
 1852              	.LBE255:
 387:Drivers/lvgl/src/draw/sw/blend/lv_draw_sw_blend_to_al88.c ****                     for(x = 0; x < w; x++) {
 1853              		.loc 1 387 36 is_stmt 1 discriminator 2 view .LVU601
 1854 0100 0137     		adds	r7, r7, #1
 1855              	.LVL197:
 1856              	.L103:
 387:Drivers/lvgl/src/draw/sw/blend/lv_draw_sw_blend_to_al88.c ****                     for(x = 0; x < w; x++) {
 1857              		.loc 1 387 30 discriminator 1 view .LVU602
 1858 0102 5F45     		cmp	r7, fp
 1859 0104 80F2AE80 		bge	.L99
 388:Drivers/lvgl/src/draw/sw/blend/lv_draw_sw_blend_to_al88.c ****                         lv_color16a_t src_color;
 1860              		.loc 1 388 27 is_stmt 0 view .LVU603
 1861 0108 0024     		movs	r4, #0
 1862 010a EFE7     		b	.L109
 1863              	.LVL198:
 1864              	.L112:
 1865              	.LBB257:
 1866              	.LBB258:
 1867              	.LBB259:
1003:Drivers/lvgl/src/draw/sw/blend/lv_draw_sw_blend_to_al88.c **** }
 1868              		.loc 1 1003 25 view .LVU604
 1869 010c DB10     		asrs	r3, r3, #3
1003:Drivers/lvgl/src/draw/sw/blend/lv_draw_sw_blend_to_al88.c **** }
 1870              		.loc 1 1003 16 view .LVU605
 1871 010e 19F80330 		ldrb	r3, [r9, r3]	@ zero_extendqisi2
1003:Drivers/lvgl/src/draw/sw/blend/lv_draw_sw_blend_to_al88.c **** }
 1872              		.loc 1 1003 47 view .LVU606
 1873 0112 6142     		rsbs	r1, r4, #0
 1874 0114 04F00702 		and	r2, r4, #7
 1875 0118 01F00701 		and	r1, r1, #7
 1876 011c 58BF     		it	pl
 1877 011e 4A42     		rsbpl	r2, r1, #0
1003:Drivers/lvgl/src/draw/sw/blend/lv_draw_sw_blend_to_al88.c **** }
 1878              		.loc 1 1003 36 view .LVU607
 1879 0120 C2F10702 		rsb	r2, r2, #7
1003:Drivers/lvgl/src/draw/sw/blend/lv_draw_sw_blend_to_al88.c **** }
ARM GAS  /var/folders/qx/2_175_4n2s19vhvtspjhb3qh0000gn/T//cc7k2hqg.s 			page 62


 1880              		.loc 1 1003 30 view .LVU608
 1881 0124 1341     		asrs	r3, r3, r2
 1882              	.LVL199:
1003:Drivers/lvgl/src/draw/sw/blend/lv_draw_sw_blend_to_al88.c **** }
 1883              		.loc 1 1003 30 view .LVU609
 1884              	.LBE259:
 1885              	.LBE258:
 404:Drivers/lvgl/src/draw/sw/blend/lv_draw_sw_blend_to_al88.c ****                         src_color.alpha = mask_buf[x];
 1886              		.loc 1 404 40 discriminator 1 view .LVU610
 1887 0126 43F30003 		sbfx	r3, r3, #0, #1
 1888 012a 8DF81430 		strb	r3, [sp, #20]
 405:Drivers/lvgl/src/draw/sw/blend/lv_draw_sw_blend_to_al88.c ****                         lv_color_16a_16a_mix(src_color, &dest_buf_al88[x], &cache);
 1889              		.loc 1 405 25 is_stmt 1 view .LVU611
 405:Drivers/lvgl/src/draw/sw/blend/lv_draw_sw_blend_to_al88.c ****                         lv_color_16a_16a_mix(src_color, &dest_buf_al88[x], &cache);
 1890              		.loc 1 405 51 is_stmt 0 view .LVU612
 1891 012e 2B5D     		ldrb	r3, [r5, r4]	@ zero_extendqisi2
 405:Drivers/lvgl/src/draw/sw/blend/lv_draw_sw_blend_to_al88.c ****                         lv_color_16a_16a_mix(src_color, &dest_buf_al88[x], &cache);
 1892              		.loc 1 405 41 view .LVU613
 1893 0130 8DF81530 		strb	r3, [sp, #21]
 406:Drivers/lvgl/src/draw/sw/blend/lv_draw_sw_blend_to_al88.c ****                     }
 1894              		.loc 1 406 25 is_stmt 1 view .LVU614
 1895 0134 06AA     		add	r2, sp, #24
 1896 0136 07EB4401 		add	r1, r7, r4, lsl #1
 1897 013a 0598     		ldr	r0, [sp, #20]
 1898 013c FFF7FEFF 		bl	lv_color_16a_16a_mix
 1899              	.LVL200:
 1900              	.LBE257:
 402:Drivers/lvgl/src/draw/sw/blend/lv_draw_sw_blend_to_al88.c ****                         lv_color16a_t src_color;
 1901              		.loc 1 402 40 discriminator 3 view .LVU615
 1902 0140 0134     		adds	r4, r4, #1
 1903              	.LVL201:
 1904              	.L114:
 402:Drivers/lvgl/src/draw/sw/blend/lv_draw_sw_blend_to_al88.c ****                         lv_color16a_t src_color;
 1905              		.loc 1 402 34 discriminator 1 view .LVU616
 1906 0142 4445     		cmp	r4, r8
 1907 0144 04DA     		bge	.L140
 1908              	.LBB262:
 403:Drivers/lvgl/src/draw/sw/blend/lv_draw_sw_blend_to_al88.c ****                         src_color.lumi = get_bit(src_buf_i1, x) * 255;
 1909              		.loc 1 403 25 view .LVU617
 404:Drivers/lvgl/src/draw/sw/blend/lv_draw_sw_blend_to_al88.c ****                         src_color.alpha = mask_buf[x];
 1910              		.loc 1 404 25 view .LVU618
 1911              	.LVL202:
 1912              	.LBB261:
 1913              	.LBI258:
1001:Drivers/lvgl/src/draw/sw/blend/lv_draw_sw_blend_to_al88.c **** {
 1914              		.loc 1 1001 45 view .LVU619
 1915              	.LBB260:
1003:Drivers/lvgl/src/draw/sw/blend/lv_draw_sw_blend_to_al88.c **** }
 1916              		.loc 1 1003 5 view .LVU620
1003:Drivers/lvgl/src/draw/sw/blend/lv_draw_sw_blend_to_al88.c **** }
 1917              		.loc 1 1003 25 is_stmt 0 view .LVU621
 1918 0146 2346     		mov	r3, r4
 1919 0148 002C     		cmp	r4, #0
 1920 014a DFDA     		bge	.L112
1003:Drivers/lvgl/src/draw/sw/blend/lv_draw_sw_blend_to_al88.c **** }
 1921              		.loc 1 1003 25 view .LVU622
 1922 014c E31D     		adds	r3, r4, #7
ARM GAS  /var/folders/qx/2_175_4n2s19vhvtspjhb3qh0000gn/T//cc7k2hqg.s 			page 63


 1923 014e DDE7     		b	.L112
 1924              	.LVL203:
 1925              	.L140:
1003:Drivers/lvgl/src/draw/sw/blend/lv_draw_sw_blend_to_al88.c **** }
 1926              		.loc 1 1003 25 view .LVU623
 1927              	.LBE260:
 1928              	.LBE261:
 1929              	.LBE262:
 408:Drivers/lvgl/src/draw/sw/blend/lv_draw_sw_blend_to_al88.c ****                     src_buf_i1 = drawbuf_next_row(src_buf_i1, src_stride);
 1930              		.loc 1 408 21 is_stmt 1 view .LVU624
 1931              	.LBB263:
 1932              	.LBI263:
1033:Drivers/lvgl/src/draw/sw/blend/lv_draw_sw_blend_to_al88.c **** {
 1933              		.loc 1 1033 44 view .LVU625
 1934              	.LBB264:
 1935              		.loc 1 1035 5 view .LVU626
 1936              		.loc 1 1035 12 is_stmt 0 view .LVU627
 1937 0150 5744     		add	r7, r7, r10
 1938              	.LVL204:
 1939              		.loc 1 1035 12 view .LVU628
 1940              	.LBE264:
 1941              	.LBE263:
 409:Drivers/lvgl/src/draw/sw/blend/lv_draw_sw_blend_to_al88.c ****                     mask_buf += mask_stride;
 1942              		.loc 1 409 21 is_stmt 1 view .LVU629
 1943              	.LBB265:
 1944              	.LBI265:
1033:Drivers/lvgl/src/draw/sw/blend/lv_draw_sw_blend_to_al88.c **** {
 1945              		.loc 1 1033 44 view .LVU630
 1946              	.LBB266:
 1947              		.loc 1 1035 5 view .LVU631
 1948              		.loc 1 1035 12 is_stmt 0 view .LVU632
 1949 0152 009B     		ldr	r3, [sp]
 1950 0154 9944     		add	r9, r9, r3
 1951              	.LVL205:
 1952              		.loc 1 1035 12 view .LVU633
 1953              	.LBE266:
 1954              	.LBE265:
 410:Drivers/lvgl/src/draw/sw/blend/lv_draw_sw_blend_to_al88.c ****                 }
 1955              		.loc 1 410 21 is_stmt 1 view .LVU634
 410:Drivers/lvgl/src/draw/sw/blend/lv_draw_sw_blend_to_al88.c ****                 }
 1956              		.loc 1 410 30 is_stmt 0 view .LVU635
 1957 0156 029B     		ldr	r3, [sp, #8]
 1958 0158 1D44     		add	r5, r5, r3
 1959              	.LVL206:
 401:Drivers/lvgl/src/draw/sw/blend/lv_draw_sw_blend_to_al88.c ****                     for(x = 0; x < w; x++) {
 1960              		.loc 1 401 36 is_stmt 1 discriminator 2 view .LVU636
 1961 015a 0136     		adds	r6, r6, #1
 1962              	.LVL207:
 1963              	.L111:
 401:Drivers/lvgl/src/draw/sw/blend/lv_draw_sw_blend_to_al88.c ****                     for(x = 0; x < w; x++) {
 1964              		.loc 1 401 30 discriminator 1 view .LVU637
 1965 015c 5E45     		cmp	r6, fp
 1966 015e 80F28180 		bge	.L99
 402:Drivers/lvgl/src/draw/sw/blend/lv_draw_sw_blend_to_al88.c ****                         lv_color16a_t src_color;
 1967              		.loc 1 402 27 is_stmt 0 view .LVU638
 1968 0162 0024     		movs	r4, #0
 1969 0164 EDE7     		b	.L114
ARM GAS  /var/folders/qx/2_175_4n2s19vhvtspjhb3qh0000gn/T//cc7k2hqg.s 			page 64


 1970              	.LVL208:
 1971              	.L130:
 401:Drivers/lvgl/src/draw/sw/blend/lv_draw_sw_blend_to_al88.c ****                     for(x = 0; x < w; x++) {
 1972              		.loc 1 401 23 view .LVU639
 1973 0166 4FF00009 		mov	r9, #0
 1974              	.LVL209:
 401:Drivers/lvgl/src/draw/sw/blend/lv_draw_sw_blend_to_al88.c ****                     for(x = 0; x < w; x++) {
 1975              		.loc 1 401 23 view .LVU640
 1976 016a 3A46     		mov	r2, r7
 1977 016c 2F46     		mov	r7, r5
 1978              	.LVL210:
 401:Drivers/lvgl/src/draw/sw/blend/lv_draw_sw_blend_to_al88.c ****                     for(x = 0; x < w; x++) {
 1979              		.loc 1 401 23 view .LVU641
 1980 016e 4B46     		mov	r3, r9
 1981 0170 B146     		mov	r9, r6
 1982 0172 DDF804A0 		ldr	r10, [sp, #4]
 1983              	.LVL211:
 401:Drivers/lvgl/src/draw/sw/blend/lv_draw_sw_blend_to_al88.c ****                     for(x = 0; x < w; x++) {
 1984              		.loc 1 401 23 view .LVU642
 1985 0176 1E46     		mov	r6, r3
 1986              	.LVL212:
 401:Drivers/lvgl/src/draw/sw/blend/lv_draw_sw_blend_to_al88.c ****                     for(x = 0; x < w; x++) {
 1987              		.loc 1 401 23 view .LVU643
 1988 0178 1546     		mov	r5, r2
 1989              	.LVL213:
 401:Drivers/lvgl/src/draw/sw/blend/lv_draw_sw_blend_to_al88.c ****                     for(x = 0; x < w; x++) {
 1990              		.loc 1 401 23 view .LVU644
 1991 017a EFE7     		b	.L111
 1992              	.LVL214:
 1993              	.L117:
 1994              	.LBB267:
 1995              	.LBB268:
 1996              	.LBB269:
1003:Drivers/lvgl/src/draw/sw/blend/lv_draw_sw_blend_to_al88.c **** }
 1997              		.loc 1 1003 25 view .LVU645
 1998 017c DB10     		asrs	r3, r3, #3
1003:Drivers/lvgl/src/draw/sw/blend/lv_draw_sw_blend_to_al88.c **** }
 1999              		.loc 1 1003 16 view .LVU646
 2000 017e EB5C     		ldrb	r3, [r5, r3]	@ zero_extendqisi2
1003:Drivers/lvgl/src/draw/sw/blend/lv_draw_sw_blend_to_al88.c **** }
 2001              		.loc 1 1003 47 view .LVU647
 2002 0180 6142     		rsbs	r1, r4, #0
 2003 0182 04F00702 		and	r2, r4, #7
 2004 0186 01F00701 		and	r1, r1, #7
 2005 018a 58BF     		it	pl
 2006 018c 4A42     		rsbpl	r2, r1, #0
1003:Drivers/lvgl/src/draw/sw/blend/lv_draw_sw_blend_to_al88.c **** }
 2007              		.loc 1 1003 36 view .LVU648
 2008 018e C2F10702 		rsb	r2, r2, #7
1003:Drivers/lvgl/src/draw/sw/blend/lv_draw_sw_blend_to_al88.c **** }
 2009              		.loc 1 1003 30 view .LVU649
 2010 0192 1341     		asrs	r3, r3, r2
 2011              	.LVL215:
1003:Drivers/lvgl/src/draw/sw/blend/lv_draw_sw_blend_to_al88.c **** }
 2012              		.loc 1 1003 30 view .LVU650
 2013              	.LBE269:
 2014              	.LBE268:
ARM GAS  /var/folders/qx/2_175_4n2s19vhvtspjhb3qh0000gn/T//cc7k2hqg.s 			page 65


 419:Drivers/lvgl/src/draw/sw/blend/lv_draw_sw_blend_to_al88.c ****                         src_color.alpha = LV_OPA_MIX2(mask_buf[x], opa);
 2015              		.loc 1 419 40 discriminator 1 view .LVU651
 2016 0194 43F30003 		sbfx	r3, r3, #0, #1
 2017 0198 8DF81430 		strb	r3, [sp, #20]
 420:Drivers/lvgl/src/draw/sw/blend/lv_draw_sw_blend_to_al88.c ****                         lv_color_16a_16a_mix(src_color, &dest_buf_al88[x], &cache);
 2018              		.loc 1 420 25 is_stmt 1 view .LVU652
 420:Drivers/lvgl/src/draw/sw/blend/lv_draw_sw_blend_to_al88.c ****                         lv_color_16a_16a_mix(src_color, &dest_buf_al88[x], &cache);
 2019              		.loc 1 420 43 is_stmt 0 view .LVU653
 2020 019c 335D     		ldrb	r3, [r6, r4]	@ zero_extendqisi2
 2021 019e 03FB0AF3 		mul	r3, r3, r10
 2022 01a2 1B0A     		lsrs	r3, r3, #8
 420:Drivers/lvgl/src/draw/sw/blend/lv_draw_sw_blend_to_al88.c ****                         lv_color_16a_16a_mix(src_color, &dest_buf_al88[x], &cache);
 2023              		.loc 1 420 41 view .LVU654
 2024 01a4 8DF81530 		strb	r3, [sp, #21]
 421:Drivers/lvgl/src/draw/sw/blend/lv_draw_sw_blend_to_al88.c ****                     }
 2025              		.loc 1 421 25 is_stmt 1 view .LVU655
 2026 01a8 06AA     		add	r2, sp, #24
 2027 01aa 09EB4401 		add	r1, r9, r4, lsl #1
 2028 01ae 0598     		ldr	r0, [sp, #20]
 2029 01b0 FFF7FEFF 		bl	lv_color_16a_16a_mix
 2030              	.LVL216:
 2031              	.LBE267:
 417:Drivers/lvgl/src/draw/sw/blend/lv_draw_sw_blend_to_al88.c ****                         lv_color16a_t src_color;
 2032              		.loc 1 417 40 discriminator 3 view .LVU656
 2033 01b4 0134     		adds	r4, r4, #1
 2034              	.LVL217:
 2035              	.L119:
 417:Drivers/lvgl/src/draw/sw/blend/lv_draw_sw_blend_to_al88.c ****                         lv_color16a_t src_color;
 2036              		.loc 1 417 34 discriminator 1 view .LVU657
 2037 01b6 4445     		cmp	r4, r8
 2038 01b8 04DA     		bge	.L141
 2039              	.LBB272:
 418:Drivers/lvgl/src/draw/sw/blend/lv_draw_sw_blend_to_al88.c ****                         src_color.lumi = get_bit(src_buf_i1, x) * 255;
 2040              		.loc 1 418 25 view .LVU658
 419:Drivers/lvgl/src/draw/sw/blend/lv_draw_sw_blend_to_al88.c ****                         src_color.alpha = LV_OPA_MIX2(mask_buf[x], opa);
 2041              		.loc 1 419 25 view .LVU659
 2042              	.LVL218:
 2043              	.LBB271:
 2044              	.LBI268:
1001:Drivers/lvgl/src/draw/sw/blend/lv_draw_sw_blend_to_al88.c **** {
 2045              		.loc 1 1001 45 view .LVU660
 2046              	.LBB270:
1003:Drivers/lvgl/src/draw/sw/blend/lv_draw_sw_blend_to_al88.c **** }
 2047              		.loc 1 1003 5 view .LVU661
1003:Drivers/lvgl/src/draw/sw/blend/lv_draw_sw_blend_to_al88.c **** }
 2048              		.loc 1 1003 25 is_stmt 0 view .LVU662
 2049 01ba 2346     		mov	r3, r4
 2050 01bc 002C     		cmp	r4, #0
 2051 01be DDDA     		bge	.L117
1003:Drivers/lvgl/src/draw/sw/blend/lv_draw_sw_blend_to_al88.c **** }
 2052              		.loc 1 1003 25 view .LVU663
 2053 01c0 E31D     		adds	r3, r4, #7
 2054 01c2 DBE7     		b	.L117
 2055              	.LVL219:
 2056              	.L141:
1003:Drivers/lvgl/src/draw/sw/blend/lv_draw_sw_blend_to_al88.c **** }
 2057              		.loc 1 1003 25 view .LVU664
ARM GAS  /var/folders/qx/2_175_4n2s19vhvtspjhb3qh0000gn/T//cc7k2hqg.s 			page 66


 2058              	.LBE270:
 2059              	.LBE271:
 2060              	.LBE272:
 423:Drivers/lvgl/src/draw/sw/blend/lv_draw_sw_blend_to_al88.c ****                     src_buf_i1 = drawbuf_next_row(src_buf_i1, src_stride);
 2061              		.loc 1 423 21 is_stmt 1 view .LVU665
 2062              	.LBB273:
 2063              	.LBI273:
1033:Drivers/lvgl/src/draw/sw/blend/lv_draw_sw_blend_to_al88.c **** {
 2064              		.loc 1 1033 44 view .LVU666
 2065              	.LBB274:
 2066              		.loc 1 1035 5 view .LVU667
 2067              		.loc 1 1035 12 is_stmt 0 view .LVU668
 2068 01c4 019B     		ldr	r3, [sp, #4]
 2069 01c6 9944     		add	r9, r9, r3
 2070              	.LVL220:
 2071              		.loc 1 1035 12 view .LVU669
 2072              	.LBE274:
 2073              	.LBE273:
 424:Drivers/lvgl/src/draw/sw/blend/lv_draw_sw_blend_to_al88.c ****                     mask_buf += mask_stride;
 2074              		.loc 1 424 21 is_stmt 1 view .LVU670
 2075              	.LBB275:
 2076              	.LBI275:
1033:Drivers/lvgl/src/draw/sw/blend/lv_draw_sw_blend_to_al88.c **** {
 2077              		.loc 1 1033 44 view .LVU671
 2078              	.LBB276:
 2079              		.loc 1 1035 5 view .LVU672
 2080              		.loc 1 1035 12 is_stmt 0 view .LVU673
 2081 01c8 009B     		ldr	r3, [sp]
 2082 01ca 1D44     		add	r5, r5, r3
 2083              	.LVL221:
 2084              		.loc 1 1035 12 view .LVU674
 2085              	.LBE276:
 2086              	.LBE275:
 425:Drivers/lvgl/src/draw/sw/blend/lv_draw_sw_blend_to_al88.c ****                 }
 2087              		.loc 1 425 21 is_stmt 1 view .LVU675
 425:Drivers/lvgl/src/draw/sw/blend/lv_draw_sw_blend_to_al88.c ****                 }
 2088              		.loc 1 425 30 is_stmt 0 view .LVU676
 2089 01cc 029B     		ldr	r3, [sp, #8]
 2090 01ce 1E44     		add	r6, r6, r3
 2091              	.LVL222:
 416:Drivers/lvgl/src/draw/sw/blend/lv_draw_sw_blend_to_al88.c ****                     for(x = 0; x < w; x++) {
 2092              		.loc 1 416 36 is_stmt 1 discriminator 2 view .LVU677
 2093 01d0 0137     		adds	r7, r7, #1
 2094              	.LVL223:
 2095              	.L116:
 416:Drivers/lvgl/src/draw/sw/blend/lv_draw_sw_blend_to_al88.c ****                     for(x = 0; x < w; x++) {
 2096              		.loc 1 416 30 discriminator 1 view .LVU678
 2097 01d2 5F45     		cmp	r7, fp
 2098 01d4 46DA     		bge	.L99
 417:Drivers/lvgl/src/draw/sw/blend/lv_draw_sw_blend_to_al88.c ****                         lv_color16a_t src_color;
 2099              		.loc 1 417 27 is_stmt 0 view .LVU679
 2100 01d6 0024     		movs	r4, #0
 2101 01d8 EDE7     		b	.L119
 2102              	.LVL224:
 2103              	.L133:
 416:Drivers/lvgl/src/draw/sw/blend/lv_draw_sw_blend_to_al88.c ****                     for(x = 0; x < w; x++) {
 2104              		.loc 1 416 23 view .LVU680
ARM GAS  /var/folders/qx/2_175_4n2s19vhvtspjhb3qh0000gn/T//cc7k2hqg.s 			page 67


 2105 01da 4FF00009 		mov	r9, #0
 2106              	.LVL225:
 416:Drivers/lvgl/src/draw/sw/blend/lv_draw_sw_blend_to_al88.c ****                     for(x = 0; x < w; x++) {
 2107              		.loc 1 416 23 view .LVU681
 2108 01de 4B46     		mov	r3, r9
 2109 01e0 A946     		mov	r9, r5
 2110 01e2 3546     		mov	r5, r6
 2111              	.LVL226:
 416:Drivers/lvgl/src/draw/sw/blend/lv_draw_sw_blend_to_al88.c ****                     for(x = 0; x < w; x++) {
 2112              		.loc 1 416 23 view .LVU682
 2113 01e4 3E46     		mov	r6, r7
 2114              	.LVL227:
 416:Drivers/lvgl/src/draw/sw/blend/lv_draw_sw_blend_to_al88.c ****                     for(x = 0; x < w; x++) {
 2115              		.loc 1 416 23 view .LVU683
 2116 01e6 1F46     		mov	r7, r3
 2117              	.LVL228:
 416:Drivers/lvgl/src/draw/sw/blend/lv_draw_sw_blend_to_al88.c ****                     for(x = 0; x < w; x++) {
 2118              		.loc 1 416 23 view .LVU684
 2119 01e8 F3E7     		b	.L116
 2120              	.LVL229:
 2121              	.L120:
 2122              	.LBB277:
 2123              	.LBB278:
 2124              	.LBB279:
1003:Drivers/lvgl/src/draw/sw/blend/lv_draw_sw_blend_to_al88.c **** }
 2125              		.loc 1 1003 25 view .LVU685
 2126 01ea DB10     		asrs	r3, r3, #3
1003:Drivers/lvgl/src/draw/sw/blend/lv_draw_sw_blend_to_al88.c **** }
 2127              		.loc 1 1003 16 view .LVU686
 2128 01ec F35C     		ldrb	r3, [r6, r3]	@ zero_extendqisi2
1003:Drivers/lvgl/src/draw/sw/blend/lv_draw_sw_blend_to_al88.c **** }
 2129              		.loc 1 1003 47 view .LVU687
 2130 01ee 6142     		rsbs	r1, r4, #0
 2131 01f0 04F00702 		and	r2, r4, #7
 2132 01f4 01F00701 		and	r1, r1, #7
 2133 01f8 58BF     		it	pl
 2134 01fa 4A42     		rsbpl	r2, r1, #0
1003:Drivers/lvgl/src/draw/sw/blend/lv_draw_sw_blend_to_al88.c **** }
 2135              		.loc 1 1003 36 view .LVU688
 2136 01fc C2F10702 		rsb	r2, r2, #7
1003:Drivers/lvgl/src/draw/sw/blend/lv_draw_sw_blend_to_al88.c **** }
 2137              		.loc 1 1003 30 view .LVU689
 2138 0200 1341     		asrs	r3, r3, r2
 2139              	.LVL230:
1003:Drivers/lvgl/src/draw/sw/blend/lv_draw_sw_blend_to_al88.c **** }
 2140              		.loc 1 1003 30 view .LVU690
 2141              	.LBE279:
 2142              	.LBE278:
 433:Drivers/lvgl/src/draw/sw/blend/lv_draw_sw_blend_to_al88.c ****                     if(mask_buf == NULL) src_color.alpha = opa;
 2143              		.loc 1 433 36 discriminator 1 view .LVU691
 2144 0202 43F30003 		sbfx	r3, r3, #0, #1
 2145 0206 8DF81430 		strb	r3, [sp, #20]
 434:Drivers/lvgl/src/draw/sw/blend/lv_draw_sw_blend_to_al88.c ****                     else src_color.alpha = LV_OPA_MIX2(mask_buf[x], opa);
 2146              		.loc 1 434 21 is_stmt 1 view .LVU692
 434:Drivers/lvgl/src/draw/sw/blend/lv_draw_sw_blend_to_al88.c ****                     else src_color.alpha = LV_OPA_MIX2(mask_buf[x], opa);
 2147              		.loc 1 434 23 is_stmt 0 view .LVU693
 2148 020a AFB1     		cbz	r7, .L142
ARM GAS  /var/folders/qx/2_175_4n2s19vhvtspjhb3qh0000gn/T//cc7k2hqg.s 			page 68


 435:Drivers/lvgl/src/draw/sw/blend/lv_draw_sw_blend_to_al88.c ****                     blend_non_normal_pixel(&dest_buf_al88[x], src_color, dsc->blend_mode, &cache);
 2149              		.loc 1 435 26 is_stmt 1 view .LVU694
 435:Drivers/lvgl/src/draw/sw/blend/lv_draw_sw_blend_to_al88.c ****                     blend_non_normal_pixel(&dest_buf_al88[x], src_color, dsc->blend_mode, &cache);
 2150              		.loc 1 435 44 is_stmt 0 view .LVU695
 2151 020c 3B5D     		ldrb	r3, [r7, r4]	@ zero_extendqisi2
 2152 020e 03FB0AF3 		mul	r3, r3, r10
 2153 0212 1B0A     		lsrs	r3, r3, #8
 435:Drivers/lvgl/src/draw/sw/blend/lv_draw_sw_blend_to_al88.c ****                     blend_non_normal_pixel(&dest_buf_al88[x], src_color, dsc->blend_mode, &cache);
 2154              		.loc 1 435 42 view .LVU696
 2155 0214 8DF81530 		strb	r3, [sp, #21]
 2156              	.L122:
 436:Drivers/lvgl/src/draw/sw/blend/lv_draw_sw_blend_to_al88.c ****                 }
 2157              		.loc 1 436 21 is_stmt 1 view .LVU697
 2158 0218 06AB     		add	r3, sp, #24
 2159 021a 99F82220 		ldrb	r2, [r9, #34]	@ zero_extendqisi2
 2160 021e 0599     		ldr	r1, [sp, #20]
 2161 0220 05EB4400 		add	r0, r5, r4, lsl #1
 2162 0224 FFF7FEFF 		bl	blend_non_normal_pixel
 2163              	.LVL231:
 2164              	.LBE277:
 431:Drivers/lvgl/src/draw/sw/blend/lv_draw_sw_blend_to_al88.c ****                     lv_color16a_t src_color;
 2165              		.loc 1 431 36 discriminator 2 view .LVU698
 2166 0228 0134     		adds	r4, r4, #1
 2167              	.LVL232:
 2168              	.L126:
 431:Drivers/lvgl/src/draw/sw/blend/lv_draw_sw_blend_to_al88.c ****                     lv_color16a_t src_color;
 2169              		.loc 1 431 30 discriminator 1 view .LVU699
 2170 022a 4445     		cmp	r4, r8
 2171 022c 07DA     		bge	.L143
 2172              	.LBB282:
 432:Drivers/lvgl/src/draw/sw/blend/lv_draw_sw_blend_to_al88.c ****                     src_color.lumi = get_bit(src_buf_i1, x) * 255;
 2173              		.loc 1 432 21 view .LVU700
 433:Drivers/lvgl/src/draw/sw/blend/lv_draw_sw_blend_to_al88.c ****                     if(mask_buf == NULL) src_color.alpha = opa;
 2174              		.loc 1 433 21 view .LVU701
 2175              	.LVL233:
 2176              	.LBB281:
 2177              	.LBI278:
1001:Drivers/lvgl/src/draw/sw/blend/lv_draw_sw_blend_to_al88.c **** {
 2178              		.loc 1 1001 45 view .LVU702
 2179              	.LBB280:
1003:Drivers/lvgl/src/draw/sw/blend/lv_draw_sw_blend_to_al88.c **** }
 2180              		.loc 1 1003 5 view .LVU703
1003:Drivers/lvgl/src/draw/sw/blend/lv_draw_sw_blend_to_al88.c **** }
 2181              		.loc 1 1003 25 is_stmt 0 view .LVU704
 2182 022e 2346     		mov	r3, r4
 2183 0230 002C     		cmp	r4, #0
 2184 0232 DADA     		bge	.L120
1003:Drivers/lvgl/src/draw/sw/blend/lv_draw_sw_blend_to_al88.c **** }
 2185              		.loc 1 1003 25 view .LVU705
 2186 0234 E31D     		adds	r3, r4, #7
 2187 0236 D8E7     		b	.L120
 2188              	.LVL234:
 2189              	.L142:
1003:Drivers/lvgl/src/draw/sw/blend/lv_draw_sw_blend_to_al88.c **** }
 2190              		.loc 1 1003 25 view .LVU706
 2191              	.LBE280:
 2192              	.LBE281:
ARM GAS  /var/folders/qx/2_175_4n2s19vhvtspjhb3qh0000gn/T//cc7k2hqg.s 			page 69


 434:Drivers/lvgl/src/draw/sw/blend/lv_draw_sw_blend_to_al88.c ****                     else src_color.alpha = LV_OPA_MIX2(mask_buf[x], opa);
 2193              		.loc 1 434 42 is_stmt 1 discriminator 1 view .LVU707
 434:Drivers/lvgl/src/draw/sw/blend/lv_draw_sw_blend_to_al88.c ****                     else src_color.alpha = LV_OPA_MIX2(mask_buf[x], opa);
 2194              		.loc 1 434 58 is_stmt 0 discriminator 1 view .LVU708
 2195 0238 8DF815A0 		strb	r10, [sp, #21]
 2196 023c ECE7     		b	.L122
 2197              	.L143:
 434:Drivers/lvgl/src/draw/sw/blend/lv_draw_sw_blend_to_al88.c ****                     else src_color.alpha = LV_OPA_MIX2(mask_buf[x], opa);
 2198              		.loc 1 434 58 discriminator 1 view .LVU709
 2199              	.LBE282:
 438:Drivers/lvgl/src/draw/sw/blend/lv_draw_sw_blend_to_al88.c ****                 dest_buf_al88 = drawbuf_next_row(dest_buf_al88, dest_stride);
 2200              		.loc 1 438 17 is_stmt 1 view .LVU710
 438:Drivers/lvgl/src/draw/sw/blend/lv_draw_sw_blend_to_al88.c ****                 dest_buf_al88 = drawbuf_next_row(dest_buf_al88, dest_stride);
 2201              		.loc 1 438 19 is_stmt 0 view .LVU711
 2202 023e 0FB1     		cbz	r7, .L124
 438:Drivers/lvgl/src/draw/sw/blend/lv_draw_sw_blend_to_al88.c ****                 dest_buf_al88 = drawbuf_next_row(dest_buf_al88, dest_stride);
 2203              		.loc 1 438 30 is_stmt 1 discriminator 1 view .LVU712
 438:Drivers/lvgl/src/draw/sw/blend/lv_draw_sw_blend_to_al88.c ****                 dest_buf_al88 = drawbuf_next_row(dest_buf_al88, dest_stride);
 2204              		.loc 1 438 39 is_stmt 0 discriminator 1 view .LVU713
 2205 0240 029B     		ldr	r3, [sp, #8]
 2206 0242 1F44     		add	r7, r7, r3
 2207              	.LVL235:
 2208              	.L124:
 439:Drivers/lvgl/src/draw/sw/blend/lv_draw_sw_blend_to_al88.c ****                 src_buf_i1 = drawbuf_next_row(src_buf_i1, src_stride);
 2209              		.loc 1 439 17 is_stmt 1 view .LVU714
 2210              	.LBB283:
 2211              	.LBI283:
1033:Drivers/lvgl/src/draw/sw/blend/lv_draw_sw_blend_to_al88.c **** {
 2212              		.loc 1 1033 44 view .LVU715
 2213              	.LBB284:
 2214              		.loc 1 1035 5 view .LVU716
 2215              		.loc 1 1035 12 is_stmt 0 view .LVU717
 2216 0244 019B     		ldr	r3, [sp, #4]
 2217 0246 1D44     		add	r5, r5, r3
 2218              	.LVL236:
 2219              		.loc 1 1035 12 view .LVU718
 2220              	.LBE284:
 2221              	.LBE283:
 440:Drivers/lvgl/src/draw/sw/blend/lv_draw_sw_blend_to_al88.c ****             }
 2222              		.loc 1 440 17 is_stmt 1 view .LVU719
 2223              	.LBB285:
 2224              	.LBI285:
1033:Drivers/lvgl/src/draw/sw/blend/lv_draw_sw_blend_to_al88.c **** {
 2225              		.loc 1 1033 44 view .LVU720
 2226              	.LBB286:
 2227              		.loc 1 1035 5 view .LVU721
 2228              		.loc 1 1035 12 is_stmt 0 view .LVU722
 2229 0248 009B     		ldr	r3, [sp]
 2230 024a 1E44     		add	r6, r6, r3
 2231              	.LVL237:
 2232              		.loc 1 1035 12 view .LVU723
 2233              	.LBE286:
 2234              	.LBE285:
 430:Drivers/lvgl/src/draw/sw/blend/lv_draw_sw_blend_to_al88.c ****                 for(x = 0; x < w; x++) {
 2235              		.loc 1 430 32 is_stmt 1 discriminator 2 view .LVU724
 2236 024c 0BF1010B 		add	fp, fp, #1
 2237              	.LVL238:
ARM GAS  /var/folders/qx/2_175_4n2s19vhvtspjhb3qh0000gn/T//cc7k2hqg.s 			page 70


 2238              	.L125:
 430:Drivers/lvgl/src/draw/sw/blend/lv_draw_sw_blend_to_al88.c ****                 for(x = 0; x < w; x++) {
 2239              		.loc 1 430 26 discriminator 1 view .LVU725
 2240 0250 039B     		ldr	r3, [sp, #12]
 2241 0252 9B45     		cmp	fp, r3
 2242 0254 06DA     		bge	.L99
 431:Drivers/lvgl/src/draw/sw/blend/lv_draw_sw_blend_to_al88.c ****                     lv_color16a_t src_color;
 2243              		.loc 1 431 23 is_stmt 0 view .LVU726
 2244 0256 0024     		movs	r4, #0
 2245 0258 E7E7     		b	.L126
 2246              	.LVL239:
 2247              	.L132:
 431:Drivers/lvgl/src/draw/sw/blend/lv_draw_sw_blend_to_al88.c ****                     lv_color16a_t src_color;
 2248              		.loc 1 431 23 view .LVU727
 2249 025a 0022     		movs	r2, #0
 2250 025c CDF80CB0 		str	fp, [sp, #12]
 2251 0260 9346     		mov	fp, r2
 2252              	.LVL240:
 431:Drivers/lvgl/src/draw/sw/blend/lv_draw_sw_blend_to_al88.c ****                     lv_color16a_t src_color;
 2253              		.loc 1 431 23 view .LVU728
 2254 0262 F5E7     		b	.L125
 2255              	.LVL241:
 2256              	.L99:
 444:Drivers/lvgl/src/draw/sw/blend/lv_draw_sw_blend_to_al88.c **** #endif
 2257              		.loc 1 444 1 view .LVU729
 2258 0264 09B0     		add	sp, sp, #36
 2259              	.LCFI17:
 2260              		.cfi_def_cfa_offset 36
 2261              	.LVL242:
 444:Drivers/lvgl/src/draw/sw/blend/lv_draw_sw_blend_to_al88.c **** #endif
 2262              		.loc 1 444 1 view .LVU730
 2263              		@ sp needed
 2264 0266 BDE8F08F 		pop	{r4, r5, r6, r7, r8, r9, r10, fp, pc}
 444:Drivers/lvgl/src/draw/sw/blend/lv_draw_sw_blend_to_al88.c **** #endif
 2265              		.loc 1 444 1 view .LVU731
 2266              		.cfi_endproc
 2267              	.LFE183:
 2269              		.section	.text.rgb565_image_blend,"ax",%progbits
 2270              		.align	1
 2271              		.syntax unified
 2272              		.thumb
 2273              		.thumb_func
 2275              	rgb565_image_blend:
 2276              	.LVL243:
 2277              	.LFB186:
 630:Drivers/lvgl/src/draw/sw/blend/lv_draw_sw_blend_to_al88.c ****     int32_t w = dsc->dest_w;
 2278              		.loc 1 630 1 is_stmt 1 view -0
 2279              		.cfi_startproc
 2280              		@ args = 0, pretend = 0, frame = 40
 2281              		@ frame_needed = 0, uses_anonymous_args = 0
 630:Drivers/lvgl/src/draw/sw/blend/lv_draw_sw_blend_to_al88.c ****     int32_t w = dsc->dest_w;
 2282              		.loc 1 630 1 is_stmt 0 view .LVU733
 2283 0000 2DE9F04F 		push	{r4, r5, r6, r7, r8, r9, r10, fp, lr}
 2284              	.LCFI18:
 2285              		.cfi_def_cfa_offset 36
 2286              		.cfi_offset 4, -36
 2287              		.cfi_offset 5, -32
ARM GAS  /var/folders/qx/2_175_4n2s19vhvtspjhb3qh0000gn/T//cc7k2hqg.s 			page 71


 2288              		.cfi_offset 6, -28
 2289              		.cfi_offset 7, -24
 2290              		.cfi_offset 8, -20
 2291              		.cfi_offset 9, -16
 2292              		.cfi_offset 10, -12
 2293              		.cfi_offset 11, -8
 2294              		.cfi_offset 14, -4
 2295 0004 8BB0     		sub	sp, sp, #44
 2296              	.LCFI19:
 2297              		.cfi_def_cfa_offset 80
 2298 0006 8346     		mov	fp, r0
 631:Drivers/lvgl/src/draw/sw/blend/lv_draw_sw_blend_to_al88.c ****     int32_t h = dsc->dest_h;
 2299              		.loc 1 631 5 is_stmt 1 view .LVU734
 631:Drivers/lvgl/src/draw/sw/blend/lv_draw_sw_blend_to_al88.c ****     int32_t h = dsc->dest_h;
 2300              		.loc 1 631 13 is_stmt 0 view .LVU735
 2301 0008 D0F80480 		ldr	r8, [r0, #4]
 2302              	.LVL244:
 632:Drivers/lvgl/src/draw/sw/blend/lv_draw_sw_blend_to_al88.c ****     lv_opa_t opa = dsc->opa;
 2303              		.loc 1 632 5 is_stmt 1 view .LVU736
 632:Drivers/lvgl/src/draw/sw/blend/lv_draw_sw_blend_to_al88.c ****     lv_opa_t opa = dsc->opa;
 2304              		.loc 1 632 13 is_stmt 0 view .LVU737
 2305 000c D0F80890 		ldr	r9, [r0, #8]
 2306              	.LVL245:
 633:Drivers/lvgl/src/draw/sw/blend/lv_draw_sw_blend_to_al88.c ****     lv_color16a_t * dest_buf_al88 = dsc->dest_buf;
 2307              		.loc 1 633 5 is_stmt 1 view .LVU738
 633:Drivers/lvgl/src/draw/sw/blend/lv_draw_sw_blend_to_al88.c ****     lv_color16a_t * dest_buf_al88 = dsc->dest_buf;
 2308              		.loc 1 633 14 is_stmt 0 view .LVU739
 2309 0010 90F821A0 		ldrb	r10, [r0, #33]	@ zero_extendqisi2
 2310              	.LVL246:
 634:Drivers/lvgl/src/draw/sw/blend/lv_draw_sw_blend_to_al88.c ****     int32_t dest_stride = dsc->dest_stride;
 2311              		.loc 1 634 5 is_stmt 1 view .LVU740
 634:Drivers/lvgl/src/draw/sw/blend/lv_draw_sw_blend_to_al88.c ****     int32_t dest_stride = dsc->dest_stride;
 2312              		.loc 1 634 21 is_stmt 0 view .LVU741
 2313 0014 0668     		ldr	r6, [r0]
 2314              	.LVL247:
 635:Drivers/lvgl/src/draw/sw/blend/lv_draw_sw_blend_to_al88.c ****     const lv_color16_t * src_buf_c16 = (const lv_color16_t *)dsc->src_buf;
 2315              		.loc 1 635 5 is_stmt 1 view .LVU742
 635:Drivers/lvgl/src/draw/sw/blend/lv_draw_sw_blend_to_al88.c ****     const lv_color16_t * src_buf_c16 = (const lv_color16_t *)dsc->src_buf;
 2316              		.loc 1 635 13 is_stmt 0 view .LVU743
 2317 0016 C368     		ldr	r3, [r0, #12]
 2318 0018 0293     		str	r3, [sp, #8]
 2319              	.LVL248:
 636:Drivers/lvgl/src/draw/sw/blend/lv_draw_sw_blend_to_al88.c ****     int32_t src_stride = dsc->src_stride;
 2320              		.loc 1 636 5 is_stmt 1 view .LVU744
 636:Drivers/lvgl/src/draw/sw/blend/lv_draw_sw_blend_to_al88.c ****     int32_t src_stride = dsc->src_stride;
 2321              		.loc 1 636 26 is_stmt 0 view .LVU745
 2322 001a 8769     		ldr	r7, [r0, #24]
 2323              	.LVL249:
 637:Drivers/lvgl/src/draw/sw/blend/lv_draw_sw_blend_to_al88.c ****     const lv_opa_t * mask_buf = dsc->mask_buf;
 2324              		.loc 1 637 5 is_stmt 1 view .LVU746
 637:Drivers/lvgl/src/draw/sw/blend/lv_draw_sw_blend_to_al88.c ****     const lv_opa_t * mask_buf = dsc->mask_buf;
 2325              		.loc 1 637 13 is_stmt 0 view .LVU747
 2326 001c C369     		ldr	r3, [r0, #28]
 2327              	.LVL250:
 637:Drivers/lvgl/src/draw/sw/blend/lv_draw_sw_blend_to_al88.c ****     const lv_opa_t * mask_buf = dsc->mask_buf;
 2328              		.loc 1 637 13 view .LVU748
 2329 001e 0193     		str	r3, [sp, #4]
ARM GAS  /var/folders/qx/2_175_4n2s19vhvtspjhb3qh0000gn/T//cc7k2hqg.s 			page 72


 2330              	.LVL251:
 638:Drivers/lvgl/src/draw/sw/blend/lv_draw_sw_blend_to_al88.c ****     int32_t mask_stride = dsc->mask_stride;
 2331              		.loc 1 638 5 is_stmt 1 view .LVU749
 638:Drivers/lvgl/src/draw/sw/blend/lv_draw_sw_blend_to_al88.c ****     int32_t mask_stride = dsc->mask_stride;
 2332              		.loc 1 638 22 is_stmt 0 view .LVU750
 2333 0020 0569     		ldr	r5, [r0, #16]
 2334              	.LVL252:
 639:Drivers/lvgl/src/draw/sw/blend/lv_draw_sw_blend_to_al88.c **** 
 2335              		.loc 1 639 5 is_stmt 1 view .LVU751
 639:Drivers/lvgl/src/draw/sw/blend/lv_draw_sw_blend_to_al88.c **** 
 2336              		.loc 1 639 13 is_stmt 0 view .LVU752
 2337 0022 4369     		ldr	r3, [r0, #20]
 2338              	.LVL253:
 639:Drivers/lvgl/src/draw/sw/blend/lv_draw_sw_blend_to_al88.c **** 
 2339              		.loc 1 639 13 view .LVU753
 2340 0024 0493     		str	r3, [sp, #16]
 2341              	.LVL254:
 641:Drivers/lvgl/src/draw/sw/blend/lv_draw_sw_blend_to_al88.c ****     lv_color_mix_with_alpha_cache_init(&cache);
 2342              		.loc 1 641 5 is_stmt 1 view .LVU754
 642:Drivers/lvgl/src/draw/sw/blend/lv_draw_sw_blend_to_al88.c **** 
 2343              		.loc 1 642 5 view .LVU755
 2344 0026 08A8     		add	r0, sp, #32
 2345              	.LVL255:
 642:Drivers/lvgl/src/draw/sw/blend/lv_draw_sw_blend_to_al88.c **** 
 2346              		.loc 1 642 5 is_stmt 0 view .LVU756
 2347 0028 FFF7FEFF 		bl	lv_color_mix_with_alpha_cache_init
 2348              	.LVL256:
 644:Drivers/lvgl/src/draw/sw/blend/lv_draw_sw_blend_to_al88.c **** 
 2349              		.loc 1 644 5 is_stmt 1 view .LVU757
 646:Drivers/lvgl/src/draw/sw/blend/lv_draw_sw_blend_to_al88.c ****         if(mask_buf == NULL && opa >= LV_OPA_MAX) {
 2350              		.loc 1 646 5 view .LVU758
 646:Drivers/lvgl/src/draw/sw/blend/lv_draw_sw_blend_to_al88.c ****         if(mask_buf == NULL && opa >= LV_OPA_MAX) {
 2351              		.loc 1 646 11 is_stmt 0 view .LVU759
 2352 002c 9BF82230 		ldrb	r3, [fp, #34]	@ zero_extendqisi2
 646:Drivers/lvgl/src/draw/sw/blend/lv_draw_sw_blend_to_al88.c ****         if(mask_buf == NULL && opa >= LV_OPA_MAX) {
 2353              		.loc 1 646 7 view .LVU760
 2354 0030 002B     		cmp	r3, #0
 2355 0032 40F0CD80 		bne	.L166
 647:Drivers/lvgl/src/draw/sw/blend/lv_draw_sw_blend_to_al88.c ****             if(LV_RESULT_INVALID == LV_DRAW_SW_RGB565_BLEND_NORMAL_TO_AL88(dsc)) {
 2356              		.loc 1 647 9 is_stmt 1 view .LVU761
 647:Drivers/lvgl/src/draw/sw/blend/lv_draw_sw_blend_to_al88.c ****             if(LV_RESULT_INVALID == LV_DRAW_SW_RGB565_BLEND_NORMAL_TO_AL88(dsc)) {
 2357              		.loc 1 647 11 is_stmt 0 view .LVU762
 2358 0036 5DB1     		cbz	r5, .L176
 674:Drivers/lvgl/src/draw/sw/blend/lv_draw_sw_blend_to_al88.c ****             if(LV_RESULT_INVALID == LV_DRAW_SW_RGB565_BLEND_NORMAL_TO_AL88_WITH_MASK(dsc, dest_px_s
 2359              		.loc 1 674 14 is_stmt 1 view .LVU763
 674:Drivers/lvgl/src/draw/sw/blend/lv_draw_sw_blend_to_al88.c ****             if(LV_RESULT_INVALID == LV_DRAW_SW_RGB565_BLEND_NORMAL_TO_AL88_WITH_MASK(dsc, dest_px_s
 2360              		.loc 1 674 16 is_stmt 0 view .LVU764
 2361 0038 002D     		cmp	r5, #0
 2362 003a 00F09180 		beq	.L170
 674:Drivers/lvgl/src/draw/sw/blend/lv_draw_sw_blend_to_al88.c ****             if(LV_RESULT_INVALID == LV_DRAW_SW_RGB565_BLEND_NORMAL_TO_AL88_WITH_MASK(dsc, dest_px_s
 2363              		.loc 1 674 26 discriminator 1 view .LVU765
 2364 003e BAF1FC0F 		cmp	r10, #252
 2365 0042 61D8     		bhi	.L171
 2366 0044 4FF0000B 		mov	fp, #0
 2367              	.LVL257:
 674:Drivers/lvgl/src/draw/sw/blend/lv_draw_sw_blend_to_al88.c ****             if(LV_RESULT_INVALID == LV_DRAW_SW_RGB565_BLEND_NORMAL_TO_AL88_WITH_MASK(dsc, dest_px_s
 2368              		.loc 1 674 26 discriminator 1 view .LVU766
ARM GAS  /var/folders/qx/2_175_4n2s19vhvtspjhb3qh0000gn/T//cc7k2hqg.s 			page 73


 2369 0048 5B46     		mov	r3, fp
 2370 004a AB46     		mov	fp, r5
 2371 004c 1D46     		mov	r5, r3
 2372              	.LVL258:
 674:Drivers/lvgl/src/draw/sw/blend/lv_draw_sw_blend_to_al88.c ****             if(LV_RESULT_INVALID == LV_DRAW_SW_RGB565_BLEND_NORMAL_TO_AL88_WITH_MASK(dsc, dest_px_s
 2373              		.loc 1 674 26 discriminator 1 view .LVU767
 2374 004e 82E0     		b	.L159
 2375              	.LVL259:
 2376              	.L176:
 647:Drivers/lvgl/src/draw/sw/blend/lv_draw_sw_blend_to_al88.c ****             if(LV_RESULT_INVALID == LV_DRAW_SW_RGB565_BLEND_NORMAL_TO_AL88(dsc)) {
 2377              		.loc 1 647 29 discriminator 1 view .LVU768
 2378 0050 BAF1FC0F 		cmp	r10, #252
 2379 0054 19D8     		bhi	.L167
 662:Drivers/lvgl/src/draw/sw/blend/lv_draw_sw_blend_to_al88.c ****                     for(x = 0; x < w; x++) {
 2380              		.loc 1 662 23 view .LVU769
 2381 0056 4FF0000B 		mov	fp, #0
 2382              	.LVL260:
 662:Drivers/lvgl/src/draw/sw/blend/lv_draw_sw_blend_to_al88.c ****                     for(x = 0; x < w; x++) {
 2383              		.loc 1 662 23 view .LVU770
 2384 005a 32E0     		b	.L148
 2385              	.LVL261:
 2386              	.L149:
 652:Drivers/lvgl/src/draw/sw/blend/lv_draw_sw_blend_to_al88.c ****                         dest_buf_al88[x].alpha = 255;
 2387              		.loc 1 652 25 is_stmt 1 view .LVU771
 652:Drivers/lvgl/src/draw/sw/blend/lv_draw_sw_blend_to_al88.c ****                         dest_buf_al88[x].alpha = 255;
 2388              		.loc 1 652 38 is_stmt 0 view .LVU772
 2389 005c 06EB4405 		add	r5, r6, r4, lsl #1
 652:Drivers/lvgl/src/draw/sw/blend/lv_draw_sw_blend_to_al88.c ****                         dest_buf_al88[x].alpha = 255;
 2390              		.loc 1 652 49 view .LVU773
 2391 0060 37F81400 		ldrh	r0, [r7, r4, lsl #1]
 2392 0064 FFF7FEFF 		bl	lv_color16_luminance
 2393              	.LVL262:
 652:Drivers/lvgl/src/draw/sw/blend/lv_draw_sw_blend_to_al88.c ****                         dest_buf_al88[x].alpha = 255;
 2394              		.loc 1 652 47 discriminator 1 view .LVU774
 2395 0068 06F81400 		strb	r0, [r6, r4, lsl #1]
 653:Drivers/lvgl/src/draw/sw/blend/lv_draw_sw_blend_to_al88.c ****                     }
 2396              		.loc 1 653 25 is_stmt 1 view .LVU775
 653:Drivers/lvgl/src/draw/sw/blend/lv_draw_sw_blend_to_al88.c ****                     }
 2397              		.loc 1 653 48 is_stmt 0 view .LVU776
 2398 006c FF23     		movs	r3, #255
 2399 006e 6B70     		strb	r3, [r5, #1]
 651:Drivers/lvgl/src/draw/sw/blend/lv_draw_sw_blend_to_al88.c ****                         dest_buf_al88[x].lumi = lv_color16_luminance(src_buf_c16[x]);
 2400              		.loc 1 651 40 is_stmt 1 discriminator 3 view .LVU777
 2401 0070 0134     		adds	r4, r4, #1
 2402              	.LVL263:
 2403              	.L150:
 651:Drivers/lvgl/src/draw/sw/blend/lv_draw_sw_blend_to_al88.c ****                         dest_buf_al88[x].lumi = lv_color16_luminance(src_buf_c16[x]);
 2404              		.loc 1 651 34 discriminator 1 view .LVU778
 2405 0072 4445     		cmp	r4, r8
 2406 0074 F2DB     		blt	.L149
 655:Drivers/lvgl/src/draw/sw/blend/lv_draw_sw_blend_to_al88.c ****                     src_buf_c16 = drawbuf_next_row(src_buf_c16, src_stride);
 2407              		.loc 1 655 21 view .LVU779
 2408              	.LVL264:
 2409              	.LBB287:
 2410              	.LBI287:
1033:Drivers/lvgl/src/draw/sw/blend/lv_draw_sw_blend_to_al88.c **** {
 2411              		.loc 1 1033 44 view .LVU780
ARM GAS  /var/folders/qx/2_175_4n2s19vhvtspjhb3qh0000gn/T//cc7k2hqg.s 			page 74


 2412              	.LBB288:
 2413              		.loc 1 1035 5 view .LVU781
 2414              		.loc 1 1035 12 is_stmt 0 view .LVU782
 2415 0076 029B     		ldr	r3, [sp, #8]
 2416 0078 1E44     		add	r6, r6, r3
 2417              	.LVL265:
 2418              		.loc 1 1035 12 view .LVU783
 2419              	.LBE288:
 2420              	.LBE287:
 656:Drivers/lvgl/src/draw/sw/blend/lv_draw_sw_blend_to_al88.c ****                 }
 2421              		.loc 1 656 21 is_stmt 1 view .LVU784
 2422              	.LBB289:
 2423              	.LBI289:
1033:Drivers/lvgl/src/draw/sw/blend/lv_draw_sw_blend_to_al88.c **** {
 2424              		.loc 1 1033 44 view .LVU785
 2425              	.LBB290:
 2426              		.loc 1 1035 5 view .LVU786
 2427              		.loc 1 1035 12 is_stmt 0 view .LVU787
 2428 007a 5F44     		add	r7, r7, fp
 2429              	.LVL266:
 2430              		.loc 1 1035 12 view .LVU788
 2431              	.LBE290:
 2432              	.LBE289:
 649:Drivers/lvgl/src/draw/sw/blend/lv_draw_sw_blend_to_al88.c **** 
 2433              		.loc 1 649 36 is_stmt 1 discriminator 2 view .LVU789
 2434 007c 0AF1010A 		add	r10, r10, #1
 2435              	.LVL267:
 2436              	.L147:
 649:Drivers/lvgl/src/draw/sw/blend/lv_draw_sw_blend_to_al88.c **** 
 2437              		.loc 1 649 30 discriminator 1 view .LVU790
 2438 0080 CA45     		cmp	r10, r9
 2439 0082 80F2AA80 		bge	.L144
 651:Drivers/lvgl/src/draw/sw/blend/lv_draw_sw_blend_to_al88.c ****                         dest_buf_al88[x].lumi = lv_color16_luminance(src_buf_c16[x]);
 2440              		.loc 1 651 27 is_stmt 0 view .LVU791
 2441 0086 0024     		movs	r4, #0
 2442 0088 F3E7     		b	.L150
 2443              	.LVL268:
 2444              	.L167:
 649:Drivers/lvgl/src/draw/sw/blend/lv_draw_sw_blend_to_al88.c **** 
 2445              		.loc 1 649 23 view .LVU792
 2446 008a 4FF0000A 		mov	r10, #0
 2447              	.LVL269:
 649:Drivers/lvgl/src/draw/sw/blend/lv_draw_sw_blend_to_al88.c **** 
 2448              		.loc 1 649 23 view .LVU793
 2449 008e DDF804B0 		ldr	fp, [sp, #4]
 2450              	.LVL270:
 649:Drivers/lvgl/src/draw/sw/blend/lv_draw_sw_blend_to_al88.c **** 
 2451              		.loc 1 649 23 view .LVU794
 2452 0092 F5E7     		b	.L147
 2453              	.LVL271:
 2454              	.L152:
 2455              	.LBB291:
 664:Drivers/lvgl/src/draw/sw/blend/lv_draw_sw_blend_to_al88.c ****                         src_color.lumi = lv_color16_luminance(src_buf_c16[x]);
 2456              		.loc 1 664 25 is_stmt 1 view .LVU795
 665:Drivers/lvgl/src/draw/sw/blend/lv_draw_sw_blend_to_al88.c ****                         src_color.alpha = opa;
 2457              		.loc 1 665 25 view .LVU796
 665:Drivers/lvgl/src/draw/sw/blend/lv_draw_sw_blend_to_al88.c ****                         src_color.alpha = opa;
ARM GAS  /var/folders/qx/2_175_4n2s19vhvtspjhb3qh0000gn/T//cc7k2hqg.s 			page 75


 2458              		.loc 1 665 74 is_stmt 0 view .LVU797
 2459 0094 6500     		lsls	r5, r4, #1
 665:Drivers/lvgl/src/draw/sw/blend/lv_draw_sw_blend_to_al88.c ****                         src_color.alpha = opa;
 2460              		.loc 1 665 42 view .LVU798
 2461 0096 37F81400 		ldrh	r0, [r7, r4, lsl #1]
 2462 009a FFF7FEFF 		bl	lv_color16_luminance
 2463              	.LVL272:
 665:Drivers/lvgl/src/draw/sw/blend/lv_draw_sw_blend_to_al88.c ****                         src_color.alpha = opa;
 2464              		.loc 1 665 40 discriminator 1 view .LVU799
 2465 009e 8DF81C00 		strb	r0, [sp, #28]
 666:Drivers/lvgl/src/draw/sw/blend/lv_draw_sw_blend_to_al88.c ****                         lv_color_16a_16a_mix(src_color, &dest_buf_al88[x], &cache);
 2466              		.loc 1 666 25 is_stmt 1 view .LVU800
 666:Drivers/lvgl/src/draw/sw/blend/lv_draw_sw_blend_to_al88.c ****                         lv_color_16a_16a_mix(src_color, &dest_buf_al88[x], &cache);
 2467              		.loc 1 666 41 is_stmt 0 view .LVU801
 2468 00a2 8DF81DA0 		strb	r10, [sp, #29]
 667:Drivers/lvgl/src/draw/sw/blend/lv_draw_sw_blend_to_al88.c ****                     }
 2469              		.loc 1 667 25 is_stmt 1 view .LVU802
 2470 00a6 08AA     		add	r2, sp, #32
 2471 00a8 7119     		adds	r1, r6, r5
 2472 00aa 0798     		ldr	r0, [sp, #28]
 2473 00ac FFF7FEFF 		bl	lv_color_16a_16a_mix
 2474              	.LVL273:
 2475              	.LBE291:
 663:Drivers/lvgl/src/draw/sw/blend/lv_draw_sw_blend_to_al88.c ****                         lv_color16a_t src_color;
 2476              		.loc 1 663 40 discriminator 3 view .LVU803
 2477 00b0 0134     		adds	r4, r4, #1
 2478              	.LVL274:
 2479              	.L153:
 663:Drivers/lvgl/src/draw/sw/blend/lv_draw_sw_blend_to_al88.c ****                         lv_color16a_t src_color;
 2480              		.loc 1 663 34 discriminator 1 view .LVU804
 2481 00b2 4445     		cmp	r4, r8
 2482 00b4 EEDB     		blt	.L152
 669:Drivers/lvgl/src/draw/sw/blend/lv_draw_sw_blend_to_al88.c ****                     src_buf_c16 = drawbuf_next_row(src_buf_c16, src_stride);
 2483              		.loc 1 669 21 view .LVU805
 2484              	.LVL275:
 2485              	.LBB292:
 2486              	.LBI292:
1033:Drivers/lvgl/src/draw/sw/blend/lv_draw_sw_blend_to_al88.c **** {
 2487              		.loc 1 1033 44 view .LVU806
 2488              	.LBB293:
 2489              		.loc 1 1035 5 view .LVU807
 2490              		.loc 1 1035 12 is_stmt 0 view .LVU808
 2491 00b6 029B     		ldr	r3, [sp, #8]
 2492 00b8 1E44     		add	r6, r6, r3
 2493              	.LVL276:
 2494              		.loc 1 1035 12 view .LVU809
 2495              	.LBE293:
 2496              	.LBE292:
 670:Drivers/lvgl/src/draw/sw/blend/lv_draw_sw_blend_to_al88.c ****                 }
 2497              		.loc 1 670 21 is_stmt 1 view .LVU810
 2498              	.LBB294:
 2499              	.LBI294:
1033:Drivers/lvgl/src/draw/sw/blend/lv_draw_sw_blend_to_al88.c **** {
 2500              		.loc 1 1033 44 view .LVU811
 2501              	.LBB295:
 2502              		.loc 1 1035 5 view .LVU812
 2503              		.loc 1 1035 12 is_stmt 0 view .LVU813
ARM GAS  /var/folders/qx/2_175_4n2s19vhvtspjhb3qh0000gn/T//cc7k2hqg.s 			page 76


 2504 00ba 019B     		ldr	r3, [sp, #4]
 2505 00bc 1F44     		add	r7, r7, r3
 2506              	.LVL277:
 2507              		.loc 1 1035 12 view .LVU814
 2508              	.LBE295:
 2509              	.LBE294:
 662:Drivers/lvgl/src/draw/sw/blend/lv_draw_sw_blend_to_al88.c ****                     for(x = 0; x < w; x++) {
 2510              		.loc 1 662 36 is_stmt 1 discriminator 2 view .LVU815
 2511 00be 0BF1010B 		add	fp, fp, #1
 2512              	.LVL278:
 2513              	.L148:
 662:Drivers/lvgl/src/draw/sw/blend/lv_draw_sw_blend_to_al88.c ****                     for(x = 0; x < w; x++) {
 2514              		.loc 1 662 30 discriminator 1 view .LVU816
 2515 00c2 CB45     		cmp	fp, r9
 2516 00c4 80F28980 		bge	.L144
 663:Drivers/lvgl/src/draw/sw/blend/lv_draw_sw_blend_to_al88.c ****                         lv_color16a_t src_color;
 2517              		.loc 1 663 27 is_stmt 0 view .LVU817
 2518 00c8 0024     		movs	r4, #0
 2519 00ca F2E7     		b	.L153
 2520              	.LVL279:
 2521              	.L156:
 2522              	.LBB296:
 678:Drivers/lvgl/src/draw/sw/blend/lv_draw_sw_blend_to_al88.c ****                         src_color.lumi = lv_color16_luminance(src_buf_c16[x]);
 2523              		.loc 1 678 25 is_stmt 1 view .LVU818
 679:Drivers/lvgl/src/draw/sw/blend/lv_draw_sw_blend_to_al88.c ****                         src_color.alpha = mask_buf[x];
 2524              		.loc 1 679 25 view .LVU819
 679:Drivers/lvgl/src/draw/sw/blend/lv_draw_sw_blend_to_al88.c ****                         src_color.alpha = mask_buf[x];
 2525              		.loc 1 679 74 is_stmt 0 view .LVU820
 2526 00cc 6600     		lsls	r6, r4, #1
 679:Drivers/lvgl/src/draw/sw/blend/lv_draw_sw_blend_to_al88.c ****                         src_color.alpha = mask_buf[x];
 2527              		.loc 1 679 42 view .LVU821
 2528 00ce 3AF81400 		ldrh	r0, [r10, r4, lsl #1]
 2529 00d2 FFF7FEFF 		bl	lv_color16_luminance
 2530              	.LVL280:
 679:Drivers/lvgl/src/draw/sw/blend/lv_draw_sw_blend_to_al88.c ****                         src_color.alpha = mask_buf[x];
 2531              		.loc 1 679 40 discriminator 1 view .LVU822
 2532 00d6 8DF81C00 		strb	r0, [sp, #28]
 680:Drivers/lvgl/src/draw/sw/blend/lv_draw_sw_blend_to_al88.c ****                         lv_color_16a_16a_mix(src_color, &dest_buf_al88[x], &cache);
 2533              		.loc 1 680 25 is_stmt 1 view .LVU823
 680:Drivers/lvgl/src/draw/sw/blend/lv_draw_sw_blend_to_al88.c ****                         lv_color_16a_16a_mix(src_color, &dest_buf_al88[x], &cache);
 2534              		.loc 1 680 51 is_stmt 0 view .LVU824
 2535 00da 2B5D     		ldrb	r3, [r5, r4]	@ zero_extendqisi2
 680:Drivers/lvgl/src/draw/sw/blend/lv_draw_sw_blend_to_al88.c ****                         lv_color_16a_16a_mix(src_color, &dest_buf_al88[x], &cache);
 2536              		.loc 1 680 41 view .LVU825
 2537 00dc 8DF81D30 		strb	r3, [sp, #29]
 681:Drivers/lvgl/src/draw/sw/blend/lv_draw_sw_blend_to_al88.c ****                     }
 2538              		.loc 1 681 25 is_stmt 1 view .LVU826
 2539 00e0 08AA     		add	r2, sp, #32
 2540 00e2 B919     		adds	r1, r7, r6
 2541 00e4 0798     		ldr	r0, [sp, #28]
 2542 00e6 FFF7FEFF 		bl	lv_color_16a_16a_mix
 2543              	.LVL281:
 2544              	.LBE296:
 677:Drivers/lvgl/src/draw/sw/blend/lv_draw_sw_blend_to_al88.c ****                         lv_color16a_t src_color;
 2545              		.loc 1 677 40 discriminator 3 view .LVU827
 2546 00ea 0134     		adds	r4, r4, #1
 2547              	.LVL282:
ARM GAS  /var/folders/qx/2_175_4n2s19vhvtspjhb3qh0000gn/T//cc7k2hqg.s 			page 77


 2548              	.L157:
 677:Drivers/lvgl/src/draw/sw/blend/lv_draw_sw_blend_to_al88.c ****                         lv_color16a_t src_color;
 2549              		.loc 1 677 34 discriminator 1 view .LVU828
 2550 00ec 4445     		cmp	r4, r8
 2551 00ee EDDB     		blt	.L156
 2552              	.LBB297:
 2553              	.LBB298:
 2554              		.loc 1 1035 12 is_stmt 0 view .LVU829
 2555 00f0 029E     		ldr	r6, [sp, #8]
 2556              	.LBE298:
 2557              	.LBE297:
 683:Drivers/lvgl/src/draw/sw/blend/lv_draw_sw_blend_to_al88.c ****                     src_buf_c16 = drawbuf_next_row(src_buf_c16, src_stride);
 2558              		.loc 1 683 21 is_stmt 1 view .LVU830
 2559              	.LVL283:
 2560              	.LBB300:
 2561              	.LBI297:
1033:Drivers/lvgl/src/draw/sw/blend/lv_draw_sw_blend_to_al88.c **** {
 2562              		.loc 1 1033 44 view .LVU831
 2563              	.LBB299:
 2564              		.loc 1 1035 5 view .LVU832
 2565              		.loc 1 1035 12 is_stmt 0 view .LVU833
 2566 00f2 5F44     		add	r7, r7, fp
 2567              	.LVL284:
 2568              		.loc 1 1035 12 view .LVU834
 2569              	.LBE299:
 2570              	.LBE300:
 684:Drivers/lvgl/src/draw/sw/blend/lv_draw_sw_blend_to_al88.c ****                     mask_buf += mask_stride;
 2571              		.loc 1 684 21 is_stmt 1 view .LVU835
 2572              	.LBB301:
 2573              	.LBI301:
1033:Drivers/lvgl/src/draw/sw/blend/lv_draw_sw_blend_to_al88.c **** {
 2574              		.loc 1 1033 44 view .LVU836
 2575              	.LBB302:
 2576              		.loc 1 1035 5 view .LVU837
 2577              		.loc 1 1035 12 is_stmt 0 view .LVU838
 2578 00f4 019B     		ldr	r3, [sp, #4]
 2579 00f6 9A44     		add	r10, r10, r3
 2580              	.LVL285:
 2581              		.loc 1 1035 12 view .LVU839
 2582              	.LBE302:
 2583              	.LBE301:
 685:Drivers/lvgl/src/draw/sw/blend/lv_draw_sw_blend_to_al88.c ****                 }
 2584              		.loc 1 685 21 is_stmt 1 view .LVU840
 685:Drivers/lvgl/src/draw/sw/blend/lv_draw_sw_blend_to_al88.c ****                 }
 2585              		.loc 1 685 30 is_stmt 0 view .LVU841
 2586 00f8 049B     		ldr	r3, [sp, #16]
 2587 00fa 1D44     		add	r5, r5, r3
 2588              	.LVL286:
 676:Drivers/lvgl/src/draw/sw/blend/lv_draw_sw_blend_to_al88.c ****                     for(x = 0; x < w; x++) {
 2589              		.loc 1 676 36 is_stmt 1 discriminator 2 view .LVU842
 2590 00fc 0136     		adds	r6, r6, #1
 2591              	.LVL287:
 2592              	.L155:
 676:Drivers/lvgl/src/draw/sw/blend/lv_draw_sw_blend_to_al88.c ****                     for(x = 0; x < w; x++) {
 2593              		.loc 1 676 30 discriminator 1 view .LVU843
 2594 00fe 4E45     		cmp	r6, r9
 2595 0100 6BDA     		bge	.L144
ARM GAS  /var/folders/qx/2_175_4n2s19vhvtspjhb3qh0000gn/T//cc7k2hqg.s 			page 78


 677:Drivers/lvgl/src/draw/sw/blend/lv_draw_sw_blend_to_al88.c ****                         lv_color16a_t src_color;
 2596              		.loc 1 677 27 is_stmt 0 view .LVU844
 2597 0102 0024     		movs	r4, #0
 2598 0104 0296     		str	r6, [sp, #8]
 2599 0106 F1E7     		b	.L157
 2600              	.LVL288:
 2601              	.L171:
 676:Drivers/lvgl/src/draw/sw/blend/lv_draw_sw_blend_to_al88.c ****                     for(x = 0; x < w; x++) {
 2602              		.loc 1 676 23 view .LVU845
 2603 0108 4FF0000A 		mov	r10, #0
 2604              	.LVL289:
 676:Drivers/lvgl/src/draw/sw/blend/lv_draw_sw_blend_to_al88.c ****                     for(x = 0; x < w; x++) {
 2605              		.loc 1 676 23 view .LVU846
 2606 010c 5346     		mov	r3, r10
 2607 010e BA46     		mov	r10, r7
 2608 0110 3746     		mov	r7, r6
 2609              	.LVL290:
 676:Drivers/lvgl/src/draw/sw/blend/lv_draw_sw_blend_to_al88.c ****                     for(x = 0; x < w; x++) {
 2610              		.loc 1 676 23 view .LVU847
 2611 0112 DDF808B0 		ldr	fp, [sp, #8]
 2612              	.LVL291:
 676:Drivers/lvgl/src/draw/sw/blend/lv_draw_sw_blend_to_al88.c ****                     for(x = 0; x < w; x++) {
 2613              		.loc 1 676 23 view .LVU848
 2614 0116 1E46     		mov	r6, r3
 2615              	.LVL292:
 676:Drivers/lvgl/src/draw/sw/blend/lv_draw_sw_blend_to_al88.c ****                     for(x = 0; x < w; x++) {
 2616              		.loc 1 676 23 view .LVU849
 2617 0118 F1E7     		b	.L155
 2618              	.LVL293:
 2619              	.L158:
 2620              	.LBB303:
 693:Drivers/lvgl/src/draw/sw/blend/lv_draw_sw_blend_to_al88.c ****                         src_color.lumi = lv_color16_luminance(src_buf_c16[x]);
 2621              		.loc 1 693 25 is_stmt 1 view .LVU850
 694:Drivers/lvgl/src/draw/sw/blend/lv_draw_sw_blend_to_al88.c ****                         src_color.alpha = LV_OPA_MIX2(mask_buf[x], opa);
 2622              		.loc 1 694 25 view .LVU851
 694:Drivers/lvgl/src/draw/sw/blend/lv_draw_sw_blend_to_al88.c ****                         src_color.alpha = LV_OPA_MIX2(mask_buf[x], opa);
 2623              		.loc 1 694 74 is_stmt 0 view .LVU852
 2624 011a 6500     		lsls	r5, r4, #1
 694:Drivers/lvgl/src/draw/sw/blend/lv_draw_sw_blend_to_al88.c ****                         src_color.alpha = LV_OPA_MIX2(mask_buf[x], opa);
 2625              		.loc 1 694 42 view .LVU853
 2626 011c 37F81400 		ldrh	r0, [r7, r4, lsl #1]
 2627 0120 FFF7FEFF 		bl	lv_color16_luminance
 2628              	.LVL294:
 694:Drivers/lvgl/src/draw/sw/blend/lv_draw_sw_blend_to_al88.c ****                         src_color.alpha = LV_OPA_MIX2(mask_buf[x], opa);
 2629              		.loc 1 694 40 discriminator 1 view .LVU854
 2630 0124 8DF81C00 		strb	r0, [sp, #28]
 695:Drivers/lvgl/src/draw/sw/blend/lv_draw_sw_blend_to_al88.c ****                         lv_color_16a_16a_mix(src_color, &dest_buf_al88[x], &cache);
 2631              		.loc 1 695 25 is_stmt 1 view .LVU855
 695:Drivers/lvgl/src/draw/sw/blend/lv_draw_sw_blend_to_al88.c ****                         lv_color_16a_16a_mix(src_color, &dest_buf_al88[x], &cache);
 2632              		.loc 1 695 43 is_stmt 0 view .LVU856
 2633 0128 1BF80430 		ldrb	r3, [fp, r4]	@ zero_extendqisi2
 2634 012c 03FB0AF3 		mul	r3, r3, r10
 2635 0130 1B0A     		lsrs	r3, r3, #8
 695:Drivers/lvgl/src/draw/sw/blend/lv_draw_sw_blend_to_al88.c ****                         lv_color_16a_16a_mix(src_color, &dest_buf_al88[x], &cache);
 2636              		.loc 1 695 41 view .LVU857
 2637 0132 8DF81D30 		strb	r3, [sp, #29]
 696:Drivers/lvgl/src/draw/sw/blend/lv_draw_sw_blend_to_al88.c ****                     }
ARM GAS  /var/folders/qx/2_175_4n2s19vhvtspjhb3qh0000gn/T//cc7k2hqg.s 			page 79


 2638              		.loc 1 696 25 is_stmt 1 view .LVU858
 2639 0136 08AA     		add	r2, sp, #32
 2640 0138 7119     		adds	r1, r6, r5
 2641 013a 0798     		ldr	r0, [sp, #28]
 2642 013c FFF7FEFF 		bl	lv_color_16a_16a_mix
 2643              	.LVL295:
 2644              	.LBE303:
 692:Drivers/lvgl/src/draw/sw/blend/lv_draw_sw_blend_to_al88.c ****                         lv_color16a_t src_color;
 2645              		.loc 1 692 40 discriminator 3 view .LVU859
 2646 0140 0134     		adds	r4, r4, #1
 2647              	.LVL296:
 2648              	.L160:
 692:Drivers/lvgl/src/draw/sw/blend/lv_draw_sw_blend_to_al88.c ****                         lv_color16a_t src_color;
 2649              		.loc 1 692 34 discriminator 1 view .LVU860
 2650 0142 4445     		cmp	r4, r8
 2651 0144 E9DB     		blt	.L158
 2652              	.LBB304:
 2653              	.LBB305:
 2654              		.loc 1 1035 12 is_stmt 0 view .LVU861
 2655 0146 039D     		ldr	r5, [sp, #12]
 2656              	.LBE305:
 2657              	.LBE304:
 698:Drivers/lvgl/src/draw/sw/blend/lv_draw_sw_blend_to_al88.c ****                     src_buf_c16 = drawbuf_next_row(src_buf_c16, src_stride);
 2658              		.loc 1 698 21 is_stmt 1 view .LVU862
 2659              	.LVL297:
 2660              	.LBB307:
 2661              	.LBI304:
1033:Drivers/lvgl/src/draw/sw/blend/lv_draw_sw_blend_to_al88.c **** {
 2662              		.loc 1 1033 44 view .LVU863
 2663              	.LBB306:
 2664              		.loc 1 1035 5 view .LVU864
 2665              		.loc 1 1035 12 is_stmt 0 view .LVU865
 2666 0148 029B     		ldr	r3, [sp, #8]
 2667 014a 1E44     		add	r6, r6, r3
 2668              	.LVL298:
 2669              		.loc 1 1035 12 view .LVU866
 2670              	.LBE306:
 2671              	.LBE307:
 699:Drivers/lvgl/src/draw/sw/blend/lv_draw_sw_blend_to_al88.c ****                     mask_buf += mask_stride;
 2672              		.loc 1 699 21 is_stmt 1 view .LVU867
 2673              	.LBB308:
 2674              	.LBI308:
1033:Drivers/lvgl/src/draw/sw/blend/lv_draw_sw_blend_to_al88.c **** {
 2675              		.loc 1 1033 44 view .LVU868
 2676              	.LBB309:
 2677              		.loc 1 1035 5 view .LVU869
 2678              		.loc 1 1035 12 is_stmt 0 view .LVU870
 2679 014c 019B     		ldr	r3, [sp, #4]
 2680 014e 1F44     		add	r7, r7, r3
 2681              	.LVL299:
 2682              		.loc 1 1035 12 view .LVU871
 2683              	.LBE309:
 2684              	.LBE308:
 700:Drivers/lvgl/src/draw/sw/blend/lv_draw_sw_blend_to_al88.c ****                 }
 2685              		.loc 1 700 21 is_stmt 1 view .LVU872
 700:Drivers/lvgl/src/draw/sw/blend/lv_draw_sw_blend_to_al88.c ****                 }
 2686              		.loc 1 700 30 is_stmt 0 view .LVU873
ARM GAS  /var/folders/qx/2_175_4n2s19vhvtspjhb3qh0000gn/T//cc7k2hqg.s 			page 80


 2687 0150 049B     		ldr	r3, [sp, #16]
 2688 0152 9B44     		add	fp, fp, r3
 2689              	.LVL300:
 691:Drivers/lvgl/src/draw/sw/blend/lv_draw_sw_blend_to_al88.c ****                     for(x = 0; x < w; x++) {
 2690              		.loc 1 691 36 is_stmt 1 discriminator 2 view .LVU874
 2691 0154 0135     		adds	r5, r5, #1
 2692              	.LVL301:
 2693              	.L159:
 691:Drivers/lvgl/src/draw/sw/blend/lv_draw_sw_blend_to_al88.c ****                     for(x = 0; x < w; x++) {
 2694              		.loc 1 691 30 discriminator 1 view .LVU875
 2695 0156 4D45     		cmp	r5, r9
 2696 0158 3FDA     		bge	.L144
 692:Drivers/lvgl/src/draw/sw/blend/lv_draw_sw_blend_to_al88.c ****                         lv_color16a_t src_color;
 2697              		.loc 1 692 27 is_stmt 0 view .LVU876
 2698 015a 0024     		movs	r4, #0
 2699 015c 0395     		str	r5, [sp, #12]
 2700 015e F0E7     		b	.L160
 2701              	.LVL302:
 2702              	.L170:
 692:Drivers/lvgl/src/draw/sw/blend/lv_draw_sw_blend_to_al88.c ****                         lv_color16a_t src_color;
 2703              		.loc 1 692 27 view .LVU877
 2704 0160 4FF0000B 		mov	fp, #0
 2705              	.LVL303:
 692:Drivers/lvgl/src/draw/sw/blend/lv_draw_sw_blend_to_al88.c ****                         lv_color16a_t src_color;
 2706              		.loc 1 692 27 view .LVU878
 2707 0164 5B46     		mov	r3, fp
 2708 0166 AB46     		mov	fp, r5
 2709 0168 1D46     		mov	r5, r3
 2710              	.LVL304:
 692:Drivers/lvgl/src/draw/sw/blend/lv_draw_sw_blend_to_al88.c ****                         lv_color16a_t src_color;
 2711              		.loc 1 692 27 view .LVU879
 2712 016a F4E7     		b	.L159
 2713              	.LVL305:
 2714              	.L161:
 2715              	.LBB310:
 711:Drivers/lvgl/src/draw/sw/blend/lv_draw_sw_blend_to_al88.c ****                 blend_non_normal_pixel(&dest_buf_al88[x], src_color, dsc->blend_mode, &cache);
 2716              		.loc 1 711 22 is_stmt 1 view .LVU880
 711:Drivers/lvgl/src/draw/sw/blend/lv_draw_sw_blend_to_al88.c ****                 blend_non_normal_pixel(&dest_buf_al88[x], src_color, dsc->blend_mode, &cache);
 2717              		.loc 1 711 40 is_stmt 0 view .LVU881
 2718 016c 335D     		ldrb	r3, [r6, r4]	@ zero_extendqisi2
 2719 016e 03FB0AF3 		mul	r3, r3, r10
 2720 0172 1B0A     		lsrs	r3, r3, #8
 711:Drivers/lvgl/src/draw/sw/blend/lv_draw_sw_blend_to_al88.c ****                 blend_non_normal_pixel(&dest_buf_al88[x], src_color, dsc->blend_mode, &cache);
 2721              		.loc 1 711 38 view .LVU882
 2722 0174 8DF81D30 		strb	r3, [sp, #29]
 2723              	.L162:
 712:Drivers/lvgl/src/draw/sw/blend/lv_draw_sw_blend_to_al88.c ****             }
 2724              		.loc 1 712 17 is_stmt 1 view .LVU883
 2725 0178 08AB     		add	r3, sp, #32
 2726 017a 9BF82220 		ldrb	r2, [fp, #34]	@ zero_extendqisi2
 2727 017e 0799     		ldr	r1, [sp, #28]
 2728 0180 09EB0500 		add	r0, r9, r5
 2729 0184 FFF7FEFF 		bl	blend_non_normal_pixel
 2730              	.LVL306:
 2731              	.LBE310:
 707:Drivers/lvgl/src/draw/sw/blend/lv_draw_sw_blend_to_al88.c ****                 lv_color16a_t src_color;
 2732              		.loc 1 707 32 discriminator 2 view .LVU884
ARM GAS  /var/folders/qx/2_175_4n2s19vhvtspjhb3qh0000gn/T//cc7k2hqg.s 			page 81


 2733 0188 0134     		adds	r4, r4, #1
 2734              	.LVL307:
 2735              	.L165:
 707:Drivers/lvgl/src/draw/sw/blend/lv_draw_sw_blend_to_al88.c ****                 lv_color16a_t src_color;
 2736              		.loc 1 707 26 discriminator 1 view .LVU885
 2737 018a 4445     		cmp	r4, r8
 2738 018c 0BDA     		bge	.L177
 2739              	.LBB311:
 708:Drivers/lvgl/src/draw/sw/blend/lv_draw_sw_blend_to_al88.c ****                 src_color.lumi = lv_color16_luminance(src_buf_c16[x]);
 2740              		.loc 1 708 17 view .LVU886
 709:Drivers/lvgl/src/draw/sw/blend/lv_draw_sw_blend_to_al88.c ****                 if(mask_buf == NULL) src_color.alpha = opa;
 2741              		.loc 1 709 17 view .LVU887
 709:Drivers/lvgl/src/draw/sw/blend/lv_draw_sw_blend_to_al88.c ****                 if(mask_buf == NULL) src_color.alpha = opa;
 2742              		.loc 1 709 66 is_stmt 0 view .LVU888
 2743 018e 6500     		lsls	r5, r4, #1
 709:Drivers/lvgl/src/draw/sw/blend/lv_draw_sw_blend_to_al88.c ****                 if(mask_buf == NULL) src_color.alpha = opa;
 2744              		.loc 1 709 34 view .LVU889
 2745 0190 37F81400 		ldrh	r0, [r7, r4, lsl #1]
 2746 0194 FFF7FEFF 		bl	lv_color16_luminance
 2747              	.LVL308:
 709:Drivers/lvgl/src/draw/sw/blend/lv_draw_sw_blend_to_al88.c ****                 if(mask_buf == NULL) src_color.alpha = opa;
 2748              		.loc 1 709 32 discriminator 1 view .LVU890
 2749 0198 8DF81C00 		strb	r0, [sp, #28]
 710:Drivers/lvgl/src/draw/sw/blend/lv_draw_sw_blend_to_al88.c ****                 else src_color.alpha = LV_OPA_MIX2(mask_buf[x], opa);
 2750              		.loc 1 710 17 is_stmt 1 view .LVU891
 710:Drivers/lvgl/src/draw/sw/blend/lv_draw_sw_blend_to_al88.c ****                 else src_color.alpha = LV_OPA_MIX2(mask_buf[x], opa);
 2751              		.loc 1 710 19 is_stmt 0 view .LVU892
 2752 019c 002E     		cmp	r6, #0
 2753 019e E5D1     		bne	.L161
 710:Drivers/lvgl/src/draw/sw/blend/lv_draw_sw_blend_to_al88.c ****                 else src_color.alpha = LV_OPA_MIX2(mask_buf[x], opa);
 2754              		.loc 1 710 38 is_stmt 1 discriminator 1 view .LVU893
 710:Drivers/lvgl/src/draw/sw/blend/lv_draw_sw_blend_to_al88.c ****                 else src_color.alpha = LV_OPA_MIX2(mask_buf[x], opa);
 2755              		.loc 1 710 54 is_stmt 0 discriminator 1 view .LVU894
 2756 01a0 8DF81DA0 		strb	r10, [sp, #29]
 2757 01a4 E8E7     		b	.L162
 2758              	.L177:
 710:Drivers/lvgl/src/draw/sw/blend/lv_draw_sw_blend_to_al88.c ****                 else src_color.alpha = LV_OPA_MIX2(mask_buf[x], opa);
 2759              		.loc 1 710 54 discriminator 1 view .LVU895
 2760              	.LBE311:
 714:Drivers/lvgl/src/draw/sw/blend/lv_draw_sw_blend_to_al88.c ****             dest_buf_al88 = drawbuf_next_row(dest_buf_al88, dest_stride);
 2761              		.loc 1 714 15 view .LVU896
 2762 01a6 3246     		mov	r2, r6
 2763 01a8 4E46     		mov	r6, r9
 2764              	.LVL309:
 714:Drivers/lvgl/src/draw/sw/blend/lv_draw_sw_blend_to_al88.c ****             dest_buf_al88 = drawbuf_next_row(dest_buf_al88, dest_stride);
 2765              		.loc 1 714 15 view .LVU897
 2766 01aa 039B     		ldr	r3, [sp, #12]
 2767 01ac 9146     		mov	r9, r2
 2768              	.LVL310:
 714:Drivers/lvgl/src/draw/sw/blend/lv_draw_sw_blend_to_al88.c ****             dest_buf_al88 = drawbuf_next_row(dest_buf_al88, dest_stride);
 2769              		.loc 1 714 13 is_stmt 1 view .LVU898
 714:Drivers/lvgl/src/draw/sw/blend/lv_draw_sw_blend_to_al88.c ****             dest_buf_al88 = drawbuf_next_row(dest_buf_al88, dest_stride);
 2770              		.loc 1 714 15 is_stmt 0 view .LVU899
 2771 01ae 0AB1     		cbz	r2, .L164
 714:Drivers/lvgl/src/draw/sw/blend/lv_draw_sw_blend_to_al88.c ****             dest_buf_al88 = drawbuf_next_row(dest_buf_al88, dest_stride);
 2772              		.loc 1 714 26 is_stmt 1 discriminator 1 view .LVU900
 714:Drivers/lvgl/src/draw/sw/blend/lv_draw_sw_blend_to_al88.c ****             dest_buf_al88 = drawbuf_next_row(dest_buf_al88, dest_stride);
ARM GAS  /var/folders/qx/2_175_4n2s19vhvtspjhb3qh0000gn/T//cc7k2hqg.s 			page 82


 2773              		.loc 1 714 35 is_stmt 0 discriminator 1 view .LVU901
 2774 01b0 049A     		ldr	r2, [sp, #16]
 2775              	.LVL311:
 714:Drivers/lvgl/src/draw/sw/blend/lv_draw_sw_blend_to_al88.c ****             dest_buf_al88 = drawbuf_next_row(dest_buf_al88, dest_stride);
 2776              		.loc 1 714 35 discriminator 1 view .LVU902
 2777 01b2 9144     		add	r9, r9, r2
 2778              	.LVL312:
 2779              	.L164:
 715:Drivers/lvgl/src/draw/sw/blend/lv_draw_sw_blend_to_al88.c ****             src_buf_c16 = drawbuf_next_row(src_buf_c16, src_stride);
 2780              		.loc 1 715 13 is_stmt 1 view .LVU903
 2781              	.LBB312:
 2782              	.LBI312:
1033:Drivers/lvgl/src/draw/sw/blend/lv_draw_sw_blend_to_al88.c **** {
 2783              		.loc 1 1033 44 view .LVU904
 2784              	.LBB313:
 2785              		.loc 1 1035 5 view .LVU905
 2786              		.loc 1 1035 12 is_stmt 0 view .LVU906
 2787 01b4 029A     		ldr	r2, [sp, #8]
 2788 01b6 1644     		add	r6, r6, r2
 2789              	.LVL313:
 2790              		.loc 1 1035 12 view .LVU907
 2791              	.LBE313:
 2792              	.LBE312:
 716:Drivers/lvgl/src/draw/sw/blend/lv_draw_sw_blend_to_al88.c ****         }
 2793              		.loc 1 716 13 is_stmt 1 view .LVU908
 2794              	.LBB314:
 2795              	.LBI314:
1033:Drivers/lvgl/src/draw/sw/blend/lv_draw_sw_blend_to_al88.c **** {
 2796              		.loc 1 1033 44 view .LVU909
 2797              	.LBB315:
 2798              		.loc 1 1035 5 view .LVU910
 2799              		.loc 1 1035 12 is_stmt 0 view .LVU911
 2800 01b8 019A     		ldr	r2, [sp, #4]
 2801 01ba 1744     		add	r7, r7, r2
 2802              	.LVL314:
 2803              		.loc 1 1035 12 view .LVU912
 2804              	.LBE315:
 2805              	.LBE314:
 706:Drivers/lvgl/src/draw/sw/blend/lv_draw_sw_blend_to_al88.c ****             for(x = 0; x < w; x++) {
 2806              		.loc 1 706 28 is_stmt 1 discriminator 2 view .LVU913
 2807 01bc 0133     		adds	r3, r3, #1
 2808              	.LVL315:
 2809              	.L145:
 706:Drivers/lvgl/src/draw/sw/blend/lv_draw_sw_blend_to_al88.c ****             for(x = 0; x < w; x++) {
 2810              		.loc 1 706 22 discriminator 1 view .LVU914
 2811 01be 059A     		ldr	r2, [sp, #20]
 2812 01c0 9342     		cmp	r3, r2
 2813 01c2 0ADA     		bge	.L144
 707:Drivers/lvgl/src/draw/sw/blend/lv_draw_sw_blend_to_al88.c ****                 lv_color16a_t src_color;
 2814              		.loc 1 707 19 is_stmt 0 view .LVU915
 2815 01c4 0024     		movs	r4, #0
 2816 01c6 4A46     		mov	r2, r9
 2817 01c8 B146     		mov	r9, r6
 2818              	.LVL316:
 707:Drivers/lvgl/src/draw/sw/blend/lv_draw_sw_blend_to_al88.c ****                 lv_color16a_t src_color;
 2819              		.loc 1 707 19 view .LVU916
 2820 01ca 0393     		str	r3, [sp, #12]
ARM GAS  /var/folders/qx/2_175_4n2s19vhvtspjhb3qh0000gn/T//cc7k2hqg.s 			page 83


 2821 01cc 1646     		mov	r6, r2
 2822              	.LVL317:
 707:Drivers/lvgl/src/draw/sw/blend/lv_draw_sw_blend_to_al88.c ****                 lv_color16a_t src_color;
 2823              		.loc 1 707 19 view .LVU917
 2824 01ce DCE7     		b	.L165
 2825              	.LVL318:
 2826              	.L166:
 706:Drivers/lvgl/src/draw/sw/blend/lv_draw_sw_blend_to_al88.c ****             for(x = 0; x < w; x++) {
 2827              		.loc 1 706 15 view .LVU918
 2828 01d0 0023     		movs	r3, #0
 2829 01d2 CDF81490 		str	r9, [sp, #20]
 2830 01d6 A946     		mov	r9, r5
 2831              	.LVL319:
 706:Drivers/lvgl/src/draw/sw/blend/lv_draw_sw_blend_to_al88.c ****             for(x = 0; x < w; x++) {
 2832              		.loc 1 706 15 view .LVU919
 2833 01d8 F1E7     		b	.L145
 2834              	.LVL320:
 2835              	.L144:
 719:Drivers/lvgl/src/draw/sw/blend/lv_draw_sw_blend_to_al88.c **** 
 2836              		.loc 1 719 1 view .LVU920
 2837 01da 0BB0     		add	sp, sp, #44
 2838              	.LCFI20:
 2839              		.cfi_def_cfa_offset 36
 2840              		@ sp needed
 2841 01dc BDE8F08F 		pop	{r4, r5, r6, r7, r8, r9, r10, fp, pc}
 719:Drivers/lvgl/src/draw/sw/blend/lv_draw_sw_blend_to_al88.c **** 
 2842              		.loc 1 719 1 view .LVU921
 2843              		.cfi_endproc
 2844              	.LFE186:
 2846              		.section	.text.rgb888_image_blend,"ax",%progbits
 2847              		.align	1
 2848              		.syntax unified
 2849              		.thumb
 2850              		.thumb_func
 2852              	rgb888_image_blend:
 2853              	.LVL321:
 2854              	.LFB187:
 727:Drivers/lvgl/src/draw/sw/blend/lv_draw_sw_blend_to_al88.c ****     int32_t w = dsc->dest_w;
 2855              		.loc 1 727 1 is_stmt 1 view -0
 2856              		.cfi_startproc
 2857              		@ args = 0, pretend = 0, frame = 48
 2858              		@ frame_needed = 0, uses_anonymous_args = 0
 727:Drivers/lvgl/src/draw/sw/blend/lv_draw_sw_blend_to_al88.c ****     int32_t w = dsc->dest_w;
 2859              		.loc 1 727 1 is_stmt 0 view .LVU923
 2860 0000 2DE9F04F 		push	{r4, r5, r6, r7, r8, r9, r10, fp, lr}
 2861              	.LCFI21:
 2862              		.cfi_def_cfa_offset 36
 2863              		.cfi_offset 4, -36
 2864              		.cfi_offset 5, -32
 2865              		.cfi_offset 6, -28
 2866              		.cfi_offset 7, -24
 2867              		.cfi_offset 8, -20
 2868              		.cfi_offset 9, -16
 2869              		.cfi_offset 10, -12
 2870              		.cfi_offset 11, -8
 2871              		.cfi_offset 14, -4
 2872 0004 8DB0     		sub	sp, sp, #52
ARM GAS  /var/folders/qx/2_175_4n2s19vhvtspjhb3qh0000gn/T//cc7k2hqg.s 			page 84


 2873              	.LCFI22:
 2874              		.cfi_def_cfa_offset 88
 2875 0006 8346     		mov	fp, r0
 2876 0008 8A46     		mov	r10, r1
 728:Drivers/lvgl/src/draw/sw/blend/lv_draw_sw_blend_to_al88.c ****     int32_t h = dsc->dest_h;
 2877              		.loc 1 728 5 is_stmt 1 view .LVU924
 728:Drivers/lvgl/src/draw/sw/blend/lv_draw_sw_blend_to_al88.c ****     int32_t h = dsc->dest_h;
 2878              		.loc 1 728 13 is_stmt 0 view .LVU925
 2879 000a D0F80490 		ldr	r9, [r0, #4]
 2880              	.LVL322:
 729:Drivers/lvgl/src/draw/sw/blend/lv_draw_sw_blend_to_al88.c ****     lv_opa_t opa = dsc->opa;
 2881              		.loc 1 729 5 is_stmt 1 view .LVU926
 729:Drivers/lvgl/src/draw/sw/blend/lv_draw_sw_blend_to_al88.c ****     lv_opa_t opa = dsc->opa;
 2882              		.loc 1 729 13 is_stmt 0 view .LVU927
 2883 000e 8368     		ldr	r3, [r0, #8]
 2884 0010 0293     		str	r3, [sp, #8]
 2885              	.LVL323:
 730:Drivers/lvgl/src/draw/sw/blend/lv_draw_sw_blend_to_al88.c ****     lv_color16a_t * dest_buf_al88 = dsc->dest_buf;
 2886              		.loc 1 730 5 is_stmt 1 view .LVU928
 730:Drivers/lvgl/src/draw/sw/blend/lv_draw_sw_blend_to_al88.c ****     lv_color16a_t * dest_buf_al88 = dsc->dest_buf;
 2887              		.loc 1 730 14 is_stmt 0 view .LVU929
 2888 0012 90F82130 		ldrb	r3, [r0, #33]	@ zero_extendqisi2
 2889              	.LVL324:
 730:Drivers/lvgl/src/draw/sw/blend/lv_draw_sw_blend_to_al88.c ****     lv_color16a_t * dest_buf_al88 = dsc->dest_buf;
 2890              		.loc 1 730 14 view .LVU930
 2891 0016 0193     		str	r3, [sp, #4]
 2892              	.LVL325:
 731:Drivers/lvgl/src/draw/sw/blend/lv_draw_sw_blend_to_al88.c ****     int32_t dest_stride = dsc->dest_stride;
 2893              		.loc 1 731 5 is_stmt 1 view .LVU931
 731:Drivers/lvgl/src/draw/sw/blend/lv_draw_sw_blend_to_al88.c ****     int32_t dest_stride = dsc->dest_stride;
 2894              		.loc 1 731 21 is_stmt 0 view .LVU932
 2895 0018 0768     		ldr	r7, [r0]
 2896              	.LVL326:
 732:Drivers/lvgl/src/draw/sw/blend/lv_draw_sw_blend_to_al88.c ****     const uint8_t * src_buf_u8 = dsc->src_buf;
 2897              		.loc 1 732 5 is_stmt 1 view .LVU933
 732:Drivers/lvgl/src/draw/sw/blend/lv_draw_sw_blend_to_al88.c ****     const uint8_t * src_buf_u8 = dsc->src_buf;
 2898              		.loc 1 732 13 is_stmt 0 view .LVU934
 2899 001a C368     		ldr	r3, [r0, #12]
 2900 001c 0393     		str	r3, [sp, #12]
 2901              	.LVL327:
 733:Drivers/lvgl/src/draw/sw/blend/lv_draw_sw_blend_to_al88.c ****     int32_t src_stride = dsc->src_stride;
 2902              		.loc 1 733 5 is_stmt 1 view .LVU935
 733:Drivers/lvgl/src/draw/sw/blend/lv_draw_sw_blend_to_al88.c ****     int32_t src_stride = dsc->src_stride;
 2903              		.loc 1 733 21 is_stmt 0 view .LVU936
 2904 001e D0F81880 		ldr	r8, [r0, #24]
 2905              	.LVL328:
 734:Drivers/lvgl/src/draw/sw/blend/lv_draw_sw_blend_to_al88.c ****     const lv_opa_t * mask_buf = dsc->mask_buf;
 2906              		.loc 1 734 5 is_stmt 1 view .LVU937
 734:Drivers/lvgl/src/draw/sw/blend/lv_draw_sw_blend_to_al88.c ****     const lv_opa_t * mask_buf = dsc->mask_buf;
 2907              		.loc 1 734 13 is_stmt 0 view .LVU938
 2908 0022 C369     		ldr	r3, [r0, #28]
 2909              	.LVL329:
 734:Drivers/lvgl/src/draw/sw/blend/lv_draw_sw_blend_to_al88.c ****     const lv_opa_t * mask_buf = dsc->mask_buf;
 2910              		.loc 1 734 13 view .LVU939
 2911 0024 0493     		str	r3, [sp, #16]
 2912              	.LVL330:
 735:Drivers/lvgl/src/draw/sw/blend/lv_draw_sw_blend_to_al88.c ****     int32_t mask_stride = dsc->mask_stride;
ARM GAS  /var/folders/qx/2_175_4n2s19vhvtspjhb3qh0000gn/T//cc7k2hqg.s 			page 85


 2913              		.loc 1 735 5 is_stmt 1 view .LVU940
 735:Drivers/lvgl/src/draw/sw/blend/lv_draw_sw_blend_to_al88.c ****     int32_t mask_stride = dsc->mask_stride;
 2914              		.loc 1 735 22 is_stmt 0 view .LVU941
 2915 0026 0669     		ldr	r6, [r0, #16]
 2916              	.LVL331:
 736:Drivers/lvgl/src/draw/sw/blend/lv_draw_sw_blend_to_al88.c **** 
 2917              		.loc 1 736 5 is_stmt 1 view .LVU942
 736:Drivers/lvgl/src/draw/sw/blend/lv_draw_sw_blend_to_al88.c **** 
 2918              		.loc 1 736 13 is_stmt 0 view .LVU943
 2919 0028 4369     		ldr	r3, [r0, #20]
 2920              	.LVL332:
 736:Drivers/lvgl/src/draw/sw/blend/lv_draw_sw_blend_to_al88.c **** 
 2921              		.loc 1 736 13 view .LVU944
 2922 002a 0693     		str	r3, [sp, #24]
 2923              	.LVL333:
 738:Drivers/lvgl/src/draw/sw/blend/lv_draw_sw_blend_to_al88.c ****     lv_color_mix_with_alpha_cache_init(&cache);
 2924              		.loc 1 738 5 is_stmt 1 view .LVU945
 739:Drivers/lvgl/src/draw/sw/blend/lv_draw_sw_blend_to_al88.c **** 
 2925              		.loc 1 739 5 view .LVU946
 2926 002c 0AA8     		add	r0, sp, #40
 2927              	.LVL334:
 739:Drivers/lvgl/src/draw/sw/blend/lv_draw_sw_blend_to_al88.c **** 
 2928              		.loc 1 739 5 is_stmt 0 view .LVU947
 2929 002e FFF7FEFF 		bl	lv_color_mix_with_alpha_cache_init
 2930              	.LVL335:
 741:Drivers/lvgl/src/draw/sw/blend/lv_draw_sw_blend_to_al88.c ****     int32_t src_x;
 2931              		.loc 1 741 5 is_stmt 1 view .LVU948
 742:Drivers/lvgl/src/draw/sw/blend/lv_draw_sw_blend_to_al88.c ****     int32_t y;
 2932              		.loc 1 742 5 view .LVU949
 743:Drivers/lvgl/src/draw/sw/blend/lv_draw_sw_blend_to_al88.c **** 
 2933              		.loc 1 743 5 view .LVU950
 745:Drivers/lvgl/src/draw/sw/blend/lv_draw_sw_blend_to_al88.c ****         /*Special case*/
 2934              		.loc 1 745 5 view .LVU951
 745:Drivers/lvgl/src/draw/sw/blend/lv_draw_sw_blend_to_al88.c ****         /*Special case*/
 2935              		.loc 1 745 11 is_stmt 0 view .LVU952
 2936 0032 9BF82230 		ldrb	r3, [fp, #34]	@ zero_extendqisi2
 745:Drivers/lvgl/src/draw/sw/blend/lv_draw_sw_blend_to_al88.c ****         /*Special case*/
 2937              		.loc 1 745 7 view .LVU953
 2938 0036 002B     		cmp	r3, #0
 2939 0038 40F0DE80 		bne	.L201
 747:Drivers/lvgl/src/draw/sw/blend/lv_draw_sw_blend_to_al88.c ****             if(LV_RESULT_INVALID == LV_DRAW_SW_RGB888_BLEND_NORMAL_TO_AL88(dsc, src_px_size)) {
 2940              		.loc 1 747 9 is_stmt 1 view .LVU954
 747:Drivers/lvgl/src/draw/sw/blend/lv_draw_sw_blend_to_al88.c ****             if(LV_RESULT_INVALID == LV_DRAW_SW_RGB888_BLEND_NORMAL_TO_AL88(dsc, src_px_size)) {
 2941              		.loc 1 747 11 is_stmt 0 view .LVU955
 2942 003c 5EB1     		cbz	r6, .L212
 2943              	.LVL336:
 2944              	.L180:
 773:Drivers/lvgl/src/draw/sw/blend/lv_draw_sw_blend_to_al88.c ****             if(LV_RESULT_INVALID == LV_DRAW_SW_RGB888_BLEND_NORMAL_TO_AL88_WITH_MASK(dsc, dest_px_s
 2945              		.loc 1 773 9 is_stmt 1 view .LVU956
 773:Drivers/lvgl/src/draw/sw/blend/lv_draw_sw_blend_to_al88.c ****             if(LV_RESULT_INVALID == LV_DRAW_SW_RGB888_BLEND_NORMAL_TO_AL88_WITH_MASK(dsc, dest_px_s
 2946              		.loc 1 773 11 is_stmt 0 view .LVU957
 2947 003e 3EB1     		cbz	r6, .L178
 773:Drivers/lvgl/src/draw/sw/blend/lv_draw_sw_blend_to_al88.c ****             if(LV_RESULT_INVALID == LV_DRAW_SW_RGB888_BLEND_NORMAL_TO_AL88_WITH_MASK(dsc, dest_px_s
 2948              		.loc 1 773 21 discriminator 1 view .LVU958
 2949 0040 019B     		ldr	r3, [sp, #4]
 2950 0042 FC2B     		cmp	r3, #252
 2951 0044 79D8     		bhi	.L206
ARM GAS  /var/folders/qx/2_175_4n2s19vhvtspjhb3qh0000gn/T//cc7k2hqg.s 			page 86


 2952              	.LVL337:
 2953              	.L190:
 789:Drivers/lvgl/src/draw/sw/blend/lv_draw_sw_blend_to_al88.c ****             if(LV_RESULT_INVALID == LV_DRAW_SW_RGB888_BLEND_NORMAL_TO_AL88_MIX_MASK_OPA(dsc, dest_p
 2954              		.loc 1 789 9 is_stmt 1 view .LVU959
 789:Drivers/lvgl/src/draw/sw/blend/lv_draw_sw_blend_to_al88.c ****             if(LV_RESULT_INVALID == LV_DRAW_SW_RGB888_BLEND_NORMAL_TO_AL88_MIX_MASK_OPA(dsc, dest_p
 2955              		.loc 1 789 11 is_stmt 0 view .LVU960
 2956 0046 1EB1     		cbz	r6, .L178
 789:Drivers/lvgl/src/draw/sw/blend/lv_draw_sw_blend_to_al88.c ****             if(LV_RESULT_INVALID == LV_DRAW_SW_RGB888_BLEND_NORMAL_TO_AL88_MIX_MASK_OPA(dsc, dest_p
 2957              		.loc 1 789 21 discriminator 1 view .LVU961
 2958 0048 019B     		ldr	r3, [sp, #4]
 2959 004a FC2B     		cmp	r3, #252
 2960 004c 40F2A080 		bls	.L208
 2961              	.LVL338:
 2962              	.L178:
 821:Drivers/lvgl/src/draw/sw/blend/lv_draw_sw_blend_to_al88.c **** 
 2963              		.loc 1 821 1 view .LVU962
 2964 0050 0DB0     		add	sp, sp, #52
 2965              	.LCFI23:
 2966              		.cfi_remember_state
 2967              		.cfi_def_cfa_offset 36
 2968              		@ sp needed
 2969 0052 BDE8F08F 		pop	{r4, r5, r6, r7, r8, r9, r10, fp, pc}
 2970              	.LVL339:
 2971              	.L212:
 2972              	.LCFI24:
 2973              		.cfi_restore_state
 747:Drivers/lvgl/src/draw/sw/blend/lv_draw_sw_blend_to_al88.c ****             if(LV_RESULT_INVALID == LV_DRAW_SW_RGB888_BLEND_NORMAL_TO_AL88(dsc, src_px_size)) {
 2974              		.loc 1 747 29 discriminator 1 view .LVU963
 2975 0056 019B     		ldr	r3, [sp, #4]
 2976 0058 FC2B     		cmp	r3, #252
 2977 005a 21D8     		bhi	.L202
 2978              	.LVL340:
 2979              	.L182:
 759:Drivers/lvgl/src/draw/sw/blend/lv_draw_sw_blend_to_al88.c ****             if(LV_RESULT_INVALID == LV_DRAW_SW_RGB888_BLEND_NORMAL_TO_AL88_WITH_OPA(dsc, dest_px_si
 2980              		.loc 1 759 9 is_stmt 1 view .LVU964
 759:Drivers/lvgl/src/draw/sw/blend/lv_draw_sw_blend_to_al88.c ****             if(LV_RESULT_INVALID == LV_DRAW_SW_RGB888_BLEND_NORMAL_TO_AL88_WITH_OPA(dsc, dest_px_si
 2981              		.loc 1 759 29 is_stmt 0 discriminator 1 view .LVU965
 2982 005c 019B     		ldr	r3, [sp, #4]
 2983 005e FC2B     		cmp	r3, #252
 2984 0060 EDD8     		bhi	.L180
 761:Drivers/lvgl/src/draw/sw/blend/lv_draw_sw_blend_to_al88.c ****                     for(dest_x = 0, src_x = 0; dest_x < w; dest_x++, src_x += src_px_size) {
 2985              		.loc 1 761 23 view .LVU966
 2986 0062 4FF0000B 		mov	fp, #0
 2987 0066 0596     		str	r6, [sp, #20]
 2988 0068 019E     		ldr	r6, [sp, #4]
 2989 006a 3AE0     		b	.L185
 2990              	.LVL341:
 2991              	.L183:
 751:Drivers/lvgl/src/draw/sw/blend/lv_draw_sw_blend_to_al88.c ****                         dest_buf_al88[dest_x].alpha = 255;
 2992              		.loc 1 751 25 is_stmt 1 view .LVU967
 751:Drivers/lvgl/src/draw/sw/blend/lv_draw_sw_blend_to_al88.c ****                         dest_buf_al88[dest_x].alpha = 255;
 2993              		.loc 1 751 38 is_stmt 0 view .LVU968
 2994 006c 07EB4406 		add	r6, r7, r4, lsl #1
 751:Drivers/lvgl/src/draw/sw/blend/lv_draw_sw_blend_to_al88.c ****                         dest_buf_al88[dest_x].alpha = 255;
 2995              		.loc 1 751 54 view .LVU969
 2996 0070 08EB0500 		add	r0, r8, r5
 2997 0074 FFF7FEFF 		bl	lv_color24_luminance
ARM GAS  /var/folders/qx/2_175_4n2s19vhvtspjhb3qh0000gn/T//cc7k2hqg.s 			page 87


 2998              	.LVL342:
 751:Drivers/lvgl/src/draw/sw/blend/lv_draw_sw_blend_to_al88.c ****                         dest_buf_al88[dest_x].alpha = 255;
 2999              		.loc 1 751 52 discriminator 1 view .LVU970
 3000 0078 07F81400 		strb	r0, [r7, r4, lsl #1]
 752:Drivers/lvgl/src/draw/sw/blend/lv_draw_sw_blend_to_al88.c ****                     }
 3001              		.loc 1 752 25 is_stmt 1 view .LVU971
 752:Drivers/lvgl/src/draw/sw/blend/lv_draw_sw_blend_to_al88.c ****                     }
 3002              		.loc 1 752 53 is_stmt 0 view .LVU972
 3003 007c FF23     		movs	r3, #255
 3004 007e 7370     		strb	r3, [r6, #1]
 750:Drivers/lvgl/src/draw/sw/blend/lv_draw_sw_blend_to_al88.c ****                         dest_buf_al88[dest_x].lumi = lv_color24_luminance(&src_buf_u8[src_x]);
 3005              		.loc 1 750 68 is_stmt 1 discriminator 3 view .LVU973
 750:Drivers/lvgl/src/draw/sw/blend/lv_draw_sw_blend_to_al88.c ****                         dest_buf_al88[dest_x].lumi = lv_color24_luminance(&src_buf_u8[src_x]);
 3006              		.loc 1 750 66 is_stmt 0 discriminator 3 view .LVU974
 3007 0080 0134     		adds	r4, r4, #1
 3008              	.LVL343:
 750:Drivers/lvgl/src/draw/sw/blend/lv_draw_sw_blend_to_al88.c ****                         dest_buf_al88[dest_x].lumi = lv_color24_luminance(&src_buf_u8[src_x]);
 3009              		.loc 1 750 76 discriminator 3 view .LVU975
 3010 0082 5544     		add	r5, r5, r10
 3011              	.LVL344:
 3012              	.L184:
 750:Drivers/lvgl/src/draw/sw/blend/lv_draw_sw_blend_to_al88.c ****                         dest_buf_al88[dest_x].lumi = lv_color24_luminance(&src_buf_u8[src_x]);
 3013              		.loc 1 750 55 is_stmt 1 discriminator 1 view .LVU976
 3014 0084 4C45     		cmp	r4, r9
 3015 0086 F1DB     		blt	.L183
 3016              	.LBB316:
 3017              	.LBB317:
 3018              		.loc 1 1035 12 is_stmt 0 view .LVU977
 3019 0088 059E     		ldr	r6, [sp, #20]
 3020              	.LBE317:
 3021              	.LBE316:
 754:Drivers/lvgl/src/draw/sw/blend/lv_draw_sw_blend_to_al88.c ****                     src_buf_u8 += src_stride;
 3022              		.loc 1 754 21 is_stmt 1 view .LVU978
 3023              	.LVL345:
 3024              	.LBB319:
 3025              	.LBI316:
1033:Drivers/lvgl/src/draw/sw/blend/lv_draw_sw_blend_to_al88.c **** {
 3026              		.loc 1 1033 44 view .LVU979
 3027              	.LBB318:
 3028              		.loc 1 1035 5 view .LVU980
 3029              		.loc 1 1035 12 is_stmt 0 view .LVU981
 3030 008a 039B     		ldr	r3, [sp, #12]
 3031 008c 1F44     		add	r7, r7, r3
 3032              	.LVL346:
 3033              		.loc 1 1035 12 view .LVU982
 3034              	.LBE318:
 3035              	.LBE319:
 755:Drivers/lvgl/src/draw/sw/blend/lv_draw_sw_blend_to_al88.c ****                 }
 3036              		.loc 1 755 21 is_stmt 1 view .LVU983
 755:Drivers/lvgl/src/draw/sw/blend/lv_draw_sw_blend_to_al88.c ****                 }
 3037              		.loc 1 755 32 is_stmt 0 view .LVU984
 3038 008e 049B     		ldr	r3, [sp, #16]
 3039 0090 9844     		add	r8, r8, r3
 3040              	.LVL347:
 749:Drivers/lvgl/src/draw/sw/blend/lv_draw_sw_blend_to_al88.c ****                     for(dest_x = 0, src_x = 0; dest_x < w; dest_x++, src_x += src_px_size) {
 3041              		.loc 1 749 36 is_stmt 1 discriminator 2 view .LVU985
 3042 0092 0136     		adds	r6, r6, #1
ARM GAS  /var/folders/qx/2_175_4n2s19vhvtspjhb3qh0000gn/T//cc7k2hqg.s 			page 88


 3043              	.LVL348:
 3044              	.L181:
 749:Drivers/lvgl/src/draw/sw/blend/lv_draw_sw_blend_to_al88.c ****                     for(dest_x = 0, src_x = 0; dest_x < w; dest_x++, src_x += src_px_size) {
 3045              		.loc 1 749 30 discriminator 1 view .LVU986
 3046 0094 5E45     		cmp	r6, fp
 3047 0096 0ADA     		bge	.L213
 750:Drivers/lvgl/src/draw/sw/blend/lv_draw_sw_blend_to_al88.c ****                         dest_buf_al88[dest_x].lumi = lv_color24_luminance(&src_buf_u8[src_x]);
 3048              		.loc 1 750 43 is_stmt 0 view .LVU987
 3049 0098 0025     		movs	r5, #0
 750:Drivers/lvgl/src/draw/sw/blend/lv_draw_sw_blend_to_al88.c ****                         dest_buf_al88[dest_x].lumi = lv_color24_luminance(&src_buf_u8[src_x]);
 3050              		.loc 1 750 32 view .LVU988
 3051 009a 2C46     		mov	r4, r5
 3052 009c 0596     		str	r6, [sp, #20]
 3053 009e F1E7     		b	.L184
 3054              	.LVL349:
 3055              	.L202:
 749:Drivers/lvgl/src/draw/sw/blend/lv_draw_sw_blend_to_al88.c ****                     for(dest_x = 0, src_x = 0; dest_x < w; dest_x++, src_x += src_px_size) {
 3056              		.loc 1 749 23 view .LVU989
 3057 00a0 4FF0000B 		mov	fp, #0
 3058              	.LVL350:
 749:Drivers/lvgl/src/draw/sw/blend/lv_draw_sw_blend_to_al88.c ****                     for(dest_x = 0, src_x = 0; dest_x < w; dest_x++, src_x += src_px_size) {
 3059              		.loc 1 749 23 view .LVU990
 3060 00a4 0796     		str	r6, [sp, #28]
 3061 00a6 5E46     		mov	r6, fp
 3062              	.LVL351:
 749:Drivers/lvgl/src/draw/sw/blend/lv_draw_sw_blend_to_al88.c ****                     for(dest_x = 0, src_x = 0; dest_x < w; dest_x++, src_x += src_px_size) {
 3063              		.loc 1 749 23 view .LVU991
 3064 00a8 DDF808B0 		ldr	fp, [sp, #8]
 3065 00ac F2E7     		b	.L181
 3066              	.LVL352:
 3067              	.L213:
 749:Drivers/lvgl/src/draw/sw/blend/lv_draw_sw_blend_to_al88.c ****                     for(dest_x = 0, src_x = 0; dest_x < w; dest_x++, src_x += src_px_size) {
 3068              		.loc 1 749 23 view .LVU992
 3069 00ae 079E     		ldr	r6, [sp, #28]
 3070              	.LVL353:
 749:Drivers/lvgl/src/draw/sw/blend/lv_draw_sw_blend_to_al88.c ****                     for(dest_x = 0, src_x = 0; dest_x < w; dest_x++, src_x += src_px_size) {
 3071              		.loc 1 749 23 view .LVU993
 3072 00b0 D4E7     		b	.L182
 3073              	.LVL354:
 3074              	.L186:
 3075              	.LBB320:
 763:Drivers/lvgl/src/draw/sw/blend/lv_draw_sw_blend_to_al88.c ****                         src_color.lumi = lv_color24_luminance(&src_buf_u8[src_x]);
 3076              		.loc 1 763 25 is_stmt 1 view .LVU994
 764:Drivers/lvgl/src/draw/sw/blend/lv_draw_sw_blend_to_al88.c ****                         src_color.alpha = opa;
 3077              		.loc 1 764 25 view .LVU995
 764:Drivers/lvgl/src/draw/sw/blend/lv_draw_sw_blend_to_al88.c ****                         src_color.alpha = opa;
 3078              		.loc 1 764 42 is_stmt 0 view .LVU996
 3079 00b2 08EB0500 		add	r0, r8, r5
 3080 00b6 FFF7FEFF 		bl	lv_color24_luminance
 3081              	.LVL355:
 764:Drivers/lvgl/src/draw/sw/blend/lv_draw_sw_blend_to_al88.c ****                         src_color.alpha = opa;
 3082              		.loc 1 764 40 discriminator 1 view .LVU997
 3083 00ba 8DF82400 		strb	r0, [sp, #36]
 765:Drivers/lvgl/src/draw/sw/blend/lv_draw_sw_blend_to_al88.c ****                         lv_color_16a_16a_mix(src_color, &dest_buf_al88[dest_x], &cache);
 3084              		.loc 1 765 25 is_stmt 1 view .LVU998
 765:Drivers/lvgl/src/draw/sw/blend/lv_draw_sw_blend_to_al88.c ****                         lv_color_16a_16a_mix(src_color, &dest_buf_al88[dest_x], &cache);
 3085              		.loc 1 765 41 is_stmt 0 view .LVU999
ARM GAS  /var/folders/qx/2_175_4n2s19vhvtspjhb3qh0000gn/T//cc7k2hqg.s 			page 89


 3086 00be 8DF82560 		strb	r6, [sp, #37]
 766:Drivers/lvgl/src/draw/sw/blend/lv_draw_sw_blend_to_al88.c ****                     }
 3087              		.loc 1 766 25 is_stmt 1 view .LVU1000
 3088 00c2 0AAA     		add	r2, sp, #40
 3089 00c4 07EB4401 		add	r1, r7, r4, lsl #1
 3090 00c8 0998     		ldr	r0, [sp, #36]
 3091 00ca FFF7FEFF 		bl	lv_color_16a_16a_mix
 3092              	.LVL356:
 3093              	.LBE320:
 762:Drivers/lvgl/src/draw/sw/blend/lv_draw_sw_blend_to_al88.c ****                         lv_color16a_t src_color;
 3094              		.loc 1 762 68 discriminator 3 view .LVU1001
 762:Drivers/lvgl/src/draw/sw/blend/lv_draw_sw_blend_to_al88.c ****                         lv_color16a_t src_color;
 3095              		.loc 1 762 66 is_stmt 0 discriminator 3 view .LVU1002
 3096 00ce 0134     		adds	r4, r4, #1
 3097              	.LVL357:
 762:Drivers/lvgl/src/draw/sw/blend/lv_draw_sw_blend_to_al88.c ****                         lv_color16a_t src_color;
 3098              		.loc 1 762 76 discriminator 3 view .LVU1003
 3099 00d0 5544     		add	r5, r5, r10
 3100              	.LVL358:
 3101              	.L187:
 762:Drivers/lvgl/src/draw/sw/blend/lv_draw_sw_blend_to_al88.c ****                         lv_color16a_t src_color;
 3102              		.loc 1 762 55 is_stmt 1 discriminator 1 view .LVU1004
 3103 00d2 4C45     		cmp	r4, r9
 3104 00d4 EDDB     		blt	.L186
 768:Drivers/lvgl/src/draw/sw/blend/lv_draw_sw_blend_to_al88.c ****                     src_buf_u8 += src_stride;
 3105              		.loc 1 768 21 view .LVU1005
 3106              	.LVL359:
 3107              	.LBB321:
 3108              	.LBI321:
1033:Drivers/lvgl/src/draw/sw/blend/lv_draw_sw_blend_to_al88.c **** {
 3109              		.loc 1 1033 44 view .LVU1006
 3110              	.LBB322:
 3111              		.loc 1 1035 5 view .LVU1007
 3112              		.loc 1 1035 12 is_stmt 0 view .LVU1008
 3113 00d6 039B     		ldr	r3, [sp, #12]
 3114 00d8 1F44     		add	r7, r7, r3
 3115              	.LVL360:
 3116              		.loc 1 1035 12 view .LVU1009
 3117              	.LBE322:
 3118              	.LBE321:
 769:Drivers/lvgl/src/draw/sw/blend/lv_draw_sw_blend_to_al88.c ****                 }
 3119              		.loc 1 769 21 is_stmt 1 view .LVU1010
 769:Drivers/lvgl/src/draw/sw/blend/lv_draw_sw_blend_to_al88.c ****                 }
 3120              		.loc 1 769 32 is_stmt 0 view .LVU1011
 3121 00da 049B     		ldr	r3, [sp, #16]
 3122 00dc 9844     		add	r8, r8, r3
 3123              	.LVL361:
 761:Drivers/lvgl/src/draw/sw/blend/lv_draw_sw_blend_to_al88.c ****                     for(dest_x = 0, src_x = 0; dest_x < w; dest_x++, src_x += src_px_size) {
 3124              		.loc 1 761 36 is_stmt 1 discriminator 2 view .LVU1012
 3125 00de 0BF1010B 		add	fp, fp, #1
 3126              	.LVL362:
 3127              	.L185:
 761:Drivers/lvgl/src/draw/sw/blend/lv_draw_sw_blend_to_al88.c ****                     for(dest_x = 0, src_x = 0; dest_x < w; dest_x++, src_x += src_px_size) {
 3128              		.loc 1 761 30 discriminator 1 view .LVU1013
 3129 00e2 029B     		ldr	r3, [sp, #8]
 3130 00e4 9B45     		cmp	fp, r3
 3131 00e6 02DA     		bge	.L214
ARM GAS  /var/folders/qx/2_175_4n2s19vhvtspjhb3qh0000gn/T//cc7k2hqg.s 			page 90


 762:Drivers/lvgl/src/draw/sw/blend/lv_draw_sw_blend_to_al88.c ****                         lv_color16a_t src_color;
 3132              		.loc 1 762 43 is_stmt 0 view .LVU1014
 3133 00e8 0025     		movs	r5, #0
 762:Drivers/lvgl/src/draw/sw/blend/lv_draw_sw_blend_to_al88.c ****                         lv_color16a_t src_color;
 3134              		.loc 1 762 32 view .LVU1015
 3135 00ea 2C46     		mov	r4, r5
 3136 00ec F1E7     		b	.L187
 3137              	.L214:
 3138 00ee 059E     		ldr	r6, [sp, #20]
 3139 00f0 A5E7     		b	.L180
 3140              	.LVL363:
 3141              	.L191:
 3142              	.LBB323:
 3143              	.LBB324:
 778:Drivers/lvgl/src/draw/sw/blend/lv_draw_sw_blend_to_al88.c ****                         src_color.lumi = lv_color24_luminance(&src_buf_u8[src_x]);
 3144              		.loc 1 778 25 is_stmt 1 view .LVU1016
 779:Drivers/lvgl/src/draw/sw/blend/lv_draw_sw_blend_to_al88.c ****                         src_color.alpha = mask_buf[mask_x];
 3145              		.loc 1 779 25 view .LVU1017
 779:Drivers/lvgl/src/draw/sw/blend/lv_draw_sw_blend_to_al88.c ****                         src_color.alpha = mask_buf[mask_x];
 3146              		.loc 1 779 42 is_stmt 0 view .LVU1018
 3147 00f2 08EB0B00 		add	r0, r8, fp
 3148 00f6 FFF7FEFF 		bl	lv_color24_luminance
 3149              	.LVL364:
 779:Drivers/lvgl/src/draw/sw/blend/lv_draw_sw_blend_to_al88.c ****                         src_color.alpha = mask_buf[mask_x];
 3150              		.loc 1 779 40 discriminator 1 view .LVU1019
 3151 00fa 8DF82400 		strb	r0, [sp, #36]
 780:Drivers/lvgl/src/draw/sw/blend/lv_draw_sw_blend_to_al88.c ****                         lv_color_16a_16a_mix(src_color, &dest_buf_al88[dest_x], &cache);
 3152              		.loc 1 780 25 is_stmt 1 view .LVU1020
 780:Drivers/lvgl/src/draw/sw/blend/lv_draw_sw_blend_to_al88.c ****                         lv_color_16a_16a_mix(src_color, &dest_buf_al88[dest_x], &cache);
 3153              		.loc 1 780 51 is_stmt 0 view .LVU1021
 3154 00fe 735D     		ldrb	r3, [r6, r5]	@ zero_extendqisi2
 780:Drivers/lvgl/src/draw/sw/blend/lv_draw_sw_blend_to_al88.c ****                         lv_color_16a_16a_mix(src_color, &dest_buf_al88[dest_x], &cache);
 3155              		.loc 1 780 41 view .LVU1022
 3156 0100 8DF82530 		strb	r3, [sp, #37]
 781:Drivers/lvgl/src/draw/sw/blend/lv_draw_sw_blend_to_al88.c ****                     }
 3157              		.loc 1 781 25 is_stmt 1 view .LVU1023
 3158 0104 0AAA     		add	r2, sp, #40
 3159 0106 07EB4401 		add	r1, r7, r4, lsl #1
 3160 010a 0998     		ldr	r0, [sp, #36]
 3161 010c FFF7FEFF 		bl	lv_color_16a_16a_mix
 3162              	.LVL365:
 3163              	.LBE324:
 777:Drivers/lvgl/src/draw/sw/blend/lv_draw_sw_blend_to_al88.c ****                         lv_color16a_t src_color;
 3164              		.loc 1 777 90 discriminator 3 view .LVU1024
 777:Drivers/lvgl/src/draw/sw/blend/lv_draw_sw_blend_to_al88.c ****                         lv_color16a_t src_color;
 3165              		.loc 1 777 78 is_stmt 0 discriminator 3 view .LVU1025
 3166 0110 0135     		adds	r5, r5, #1
 3167              	.LVL366:
 777:Drivers/lvgl/src/draw/sw/blend/lv_draw_sw_blend_to_al88.c ****                         lv_color16a_t src_color;
 3168              		.loc 1 777 88 discriminator 3 view .LVU1026
 3169 0112 0134     		adds	r4, r4, #1
 3170              	.LVL367:
 777:Drivers/lvgl/src/draw/sw/blend/lv_draw_sw_blend_to_al88.c ****                         lv_color16a_t src_color;
 3171              		.loc 1 777 98 discriminator 3 view .LVU1027
 3172 0114 D344     		add	fp, fp, r10
 3173              	.LVL368:
 3174              	.L192:
ARM GAS  /var/folders/qx/2_175_4n2s19vhvtspjhb3qh0000gn/T//cc7k2hqg.s 			page 91


 777:Drivers/lvgl/src/draw/sw/blend/lv_draw_sw_blend_to_al88.c ****                         lv_color16a_t src_color;
 3175              		.loc 1 777 67 is_stmt 1 discriminator 1 view .LVU1028
 3176 0116 4C45     		cmp	r4, r9
 3177 0118 EBDB     		blt	.L191
 3178              	.LBB325:
 3179              	.LBB326:
 3180              		.loc 1 1035 12 is_stmt 0 view .LVU1029
 3181 011a 059A     		ldr	r2, [sp, #20]
 3182              	.LBE326:
 3183              	.LBE325:
 783:Drivers/lvgl/src/draw/sw/blend/lv_draw_sw_blend_to_al88.c ****                     src_buf_u8 += src_stride;
 3184              		.loc 1 783 21 is_stmt 1 view .LVU1030
 3185              	.LVL369:
 3186              	.LBB328:
 3187              	.LBI325:
1033:Drivers/lvgl/src/draw/sw/blend/lv_draw_sw_blend_to_al88.c **** {
 3188              		.loc 1 1033 44 view .LVU1031
 3189              	.LBB327:
 3190              		.loc 1 1035 5 view .LVU1032
 3191              		.loc 1 1035 12 is_stmt 0 view .LVU1033
 3192 011c 039B     		ldr	r3, [sp, #12]
 3193 011e 1F44     		add	r7, r7, r3
 3194              	.LVL370:
 3195              		.loc 1 1035 12 view .LVU1034
 3196              	.LBE327:
 3197              	.LBE328:
 784:Drivers/lvgl/src/draw/sw/blend/lv_draw_sw_blend_to_al88.c ****                     mask_buf += mask_stride;
 3198              		.loc 1 784 21 is_stmt 1 view .LVU1035
 784:Drivers/lvgl/src/draw/sw/blend/lv_draw_sw_blend_to_al88.c ****                     mask_buf += mask_stride;
 3199              		.loc 1 784 32 is_stmt 0 view .LVU1036
 3200 0120 049B     		ldr	r3, [sp, #16]
 3201 0122 9844     		add	r8, r8, r3
 3202              	.LVL371:
 785:Drivers/lvgl/src/draw/sw/blend/lv_draw_sw_blend_to_al88.c ****                 }
 3203              		.loc 1 785 21 is_stmt 1 view .LVU1037
 785:Drivers/lvgl/src/draw/sw/blend/lv_draw_sw_blend_to_al88.c ****                 }
 3204              		.loc 1 785 30 is_stmt 0 view .LVU1038
 3205 0124 069B     		ldr	r3, [sp, #24]
 3206 0126 1E44     		add	r6, r6, r3
 3207              	.LVL372:
 776:Drivers/lvgl/src/draw/sw/blend/lv_draw_sw_blend_to_al88.c ****                     for(mask_x = 0, dest_x = 0, src_x = 0; dest_x < w; mask_x++, dest_x++, src_x +=
 3208              		.loc 1 776 36 is_stmt 1 discriminator 2 view .LVU1039
 3209 0128 0132     		adds	r2, r2, #1
 3210              	.LVL373:
 3211              	.L189:
 776:Drivers/lvgl/src/draw/sw/blend/lv_draw_sw_blend_to_al88.c ****                     for(mask_x = 0, dest_x = 0, src_x = 0; dest_x < w; mask_x++, dest_x++, src_x +=
 3212              		.loc 1 776 30 discriminator 1 view .LVU1040
 3213 012a 029B     		ldr	r3, [sp, #8]
 3214 012c 9A42     		cmp	r2, r3
 3215 012e 8ADA     		bge	.L190
 777:Drivers/lvgl/src/draw/sw/blend/lv_draw_sw_blend_to_al88.c ****                         lv_color16a_t src_color;
 3216              		.loc 1 777 32 is_stmt 0 view .LVU1041
 3217 0130 0025     		movs	r5, #0
 777:Drivers/lvgl/src/draw/sw/blend/lv_draw_sw_blend_to_al88.c ****                         lv_color16a_t src_color;
 3218              		.loc 1 777 55 view .LVU1042
 3219 0132 AB46     		mov	fp, r5
 777:Drivers/lvgl/src/draw/sw/blend/lv_draw_sw_blend_to_al88.c ****                         lv_color16a_t src_color;
ARM GAS  /var/folders/qx/2_175_4n2s19vhvtspjhb3qh0000gn/T//cc7k2hqg.s 			page 92


 3220              		.loc 1 777 44 view .LVU1043
 3221 0134 2C46     		mov	r4, r5
 3222 0136 0592     		str	r2, [sp, #20]
 3223 0138 EDE7     		b	.L192
 3224              	.LVL374:
 3225              	.L206:
 776:Drivers/lvgl/src/draw/sw/blend/lv_draw_sw_blend_to_al88.c ****                     for(mask_x = 0, dest_x = 0, src_x = 0; dest_x < w; mask_x++, dest_x++, src_x +=
 3226              		.loc 1 776 23 view .LVU1044
 3227 013a 0022     		movs	r2, #0
 3228 013c F5E7     		b	.L189
 3229              	.LVL375:
 3230              	.L194:
 776:Drivers/lvgl/src/draw/sw/blend/lv_draw_sw_blend_to_al88.c ****                     for(mask_x = 0, dest_x = 0, src_x = 0; dest_x < w; mask_x++, dest_x++, src_x +=
 3231              		.loc 1 776 23 view .LVU1045
 3232              	.LBE323:
 3233              	.LBB329:
 3234              	.LBB330:
 794:Drivers/lvgl/src/draw/sw/blend/lv_draw_sw_blend_to_al88.c ****                         src_color.lumi = lv_color24_luminance(&src_buf_u8[src_x]);
 3235              		.loc 1 794 25 is_stmt 1 view .LVU1046
 795:Drivers/lvgl/src/draw/sw/blend/lv_draw_sw_blend_to_al88.c ****                         src_color.alpha = LV_OPA_MIX2(mask_buf[mask_x], opa);
 3236              		.loc 1 795 25 view .LVU1047
 795:Drivers/lvgl/src/draw/sw/blend/lv_draw_sw_blend_to_al88.c ****                         src_color.alpha = LV_OPA_MIX2(mask_buf[mask_x], opa);
 3237              		.loc 1 795 42 is_stmt 0 view .LVU1048
 3238 013e 07EB0B00 		add	r0, r7, fp
 3239 0142 FFF7FEFF 		bl	lv_color24_luminance
 3240              	.LVL376:
 795:Drivers/lvgl/src/draw/sw/blend/lv_draw_sw_blend_to_al88.c ****                         src_color.alpha = LV_OPA_MIX2(mask_buf[mask_x], opa);
 3241              		.loc 1 795 40 discriminator 1 view .LVU1049
 3242 0146 8DF82400 		strb	r0, [sp, #36]
 796:Drivers/lvgl/src/draw/sw/blend/lv_draw_sw_blend_to_al88.c ****                         lv_color_16a_16a_mix(src_color, &dest_buf_al88[dest_x], &cache);
 3243              		.loc 1 796 25 is_stmt 1 view .LVU1050
 796:Drivers/lvgl/src/draw/sw/blend/lv_draw_sw_blend_to_al88.c ****                         lv_color_16a_16a_mix(src_color, &dest_buf_al88[dest_x], &cache);
 3244              		.loc 1 796 43 is_stmt 0 view .LVU1051
 3245 014a 735D     		ldrb	r3, [r6, r5]	@ zero_extendqisi2
 3246 014c 019A     		ldr	r2, [sp, #4]
 3247 014e 02FB03F3 		mul	r3, r2, r3
 3248 0152 1B0A     		lsrs	r3, r3, #8
 796:Drivers/lvgl/src/draw/sw/blend/lv_draw_sw_blend_to_al88.c ****                         lv_color_16a_16a_mix(src_color, &dest_buf_al88[dest_x], &cache);
 3249              		.loc 1 796 41 view .LVU1052
 3250 0154 8DF82530 		strb	r3, [sp, #37]
 797:Drivers/lvgl/src/draw/sw/blend/lv_draw_sw_blend_to_al88.c ****                     }
 3251              		.loc 1 797 25 is_stmt 1 view .LVU1053
 3252 0158 0AAA     		add	r2, sp, #40
 3253 015a 08EB4401 		add	r1, r8, r4, lsl #1
 3254 015e 0998     		ldr	r0, [sp, #36]
 3255 0160 FFF7FEFF 		bl	lv_color_16a_16a_mix
 3256              	.LVL377:
 3257              	.LBE330:
 793:Drivers/lvgl/src/draw/sw/blend/lv_draw_sw_blend_to_al88.c ****                         lv_color16a_t src_color;
 3258              		.loc 1 793 90 discriminator 3 view .LVU1054
 793:Drivers/lvgl/src/draw/sw/blend/lv_draw_sw_blend_to_al88.c ****                         lv_color16a_t src_color;
 3259              		.loc 1 793 78 is_stmt 0 discriminator 3 view .LVU1055
 3260 0164 0135     		adds	r5, r5, #1
 3261              	.LVL378:
 793:Drivers/lvgl/src/draw/sw/blend/lv_draw_sw_blend_to_al88.c ****                         lv_color16a_t src_color;
 3262              		.loc 1 793 88 discriminator 3 view .LVU1056
 3263 0166 0134     		adds	r4, r4, #1
ARM GAS  /var/folders/qx/2_175_4n2s19vhvtspjhb3qh0000gn/T//cc7k2hqg.s 			page 93


 3264              	.LVL379:
 793:Drivers/lvgl/src/draw/sw/blend/lv_draw_sw_blend_to_al88.c ****                         lv_color16a_t src_color;
 3265              		.loc 1 793 98 discriminator 3 view .LVU1057
 3266 0168 D344     		add	fp, fp, r10
 3267              	.LVL380:
 3268              	.L195:
 793:Drivers/lvgl/src/draw/sw/blend/lv_draw_sw_blend_to_al88.c ****                         lv_color16a_t src_color;
 3269              		.loc 1 793 67 is_stmt 1 discriminator 1 view .LVU1058
 3270 016a 4C45     		cmp	r4, r9
 3271 016c E7DB     		blt	.L194
 3272              	.LBB331:
 3273              	.LBB332:
 3274              		.loc 1 1035 12 is_stmt 0 view .LVU1059
 3275 016e 059A     		ldr	r2, [sp, #20]
 3276              	.LBE332:
 3277              	.LBE331:
 799:Drivers/lvgl/src/draw/sw/blend/lv_draw_sw_blend_to_al88.c ****                     src_buf_u8 += src_stride;
 3278              		.loc 1 799 21 is_stmt 1 view .LVU1060
 3279              	.LVL381:
 3280              	.LBB334:
 3281              	.LBI331:
1033:Drivers/lvgl/src/draw/sw/blend/lv_draw_sw_blend_to_al88.c **** {
 3282              		.loc 1 1033 44 view .LVU1061
 3283              	.LBB333:
 3284              		.loc 1 1035 5 view .LVU1062
 3285              		.loc 1 1035 12 is_stmt 0 view .LVU1063
 3286 0170 039B     		ldr	r3, [sp, #12]
 3287 0172 9844     		add	r8, r8, r3
 3288              	.LVL382:
 3289              		.loc 1 1035 12 view .LVU1064
 3290              	.LBE333:
 3291              	.LBE334:
 800:Drivers/lvgl/src/draw/sw/blend/lv_draw_sw_blend_to_al88.c ****                     mask_buf += mask_stride;
 3292              		.loc 1 800 21 is_stmt 1 view .LVU1065
 800:Drivers/lvgl/src/draw/sw/blend/lv_draw_sw_blend_to_al88.c ****                     mask_buf += mask_stride;
 3293              		.loc 1 800 32 is_stmt 0 view .LVU1066
 3294 0174 049B     		ldr	r3, [sp, #16]
 3295 0176 1F44     		add	r7, r7, r3
 3296              	.LVL383:
 801:Drivers/lvgl/src/draw/sw/blend/lv_draw_sw_blend_to_al88.c ****                 }
 3297              		.loc 1 801 21 is_stmt 1 view .LVU1067
 801:Drivers/lvgl/src/draw/sw/blend/lv_draw_sw_blend_to_al88.c ****                 }
 3298              		.loc 1 801 30 is_stmt 0 view .LVU1068
 3299 0178 069B     		ldr	r3, [sp, #24]
 3300 017a 1E44     		add	r6, r6, r3
 3301              	.LVL384:
 792:Drivers/lvgl/src/draw/sw/blend/lv_draw_sw_blend_to_al88.c ****                     for(mask_x = 0, dest_x = 0, src_x = 0; dest_x < w; mask_x++, dest_x++, src_x +=
 3302              		.loc 1 792 36 is_stmt 1 discriminator 2 view .LVU1069
 3303 017c 0132     		adds	r2, r2, #1
 3304              	.LVL385:
 3305              	.L193:
 792:Drivers/lvgl/src/draw/sw/blend/lv_draw_sw_blend_to_al88.c ****                     for(mask_x = 0, dest_x = 0, src_x = 0; dest_x < w; mask_x++, dest_x++, src_x +=
 3306              		.loc 1 792 30 discriminator 1 view .LVU1070
 3307 017e 029B     		ldr	r3, [sp, #8]
 3308 0180 9A42     		cmp	r2, r3
 3309 0182 BFF665AF 		bge	.L178
 793:Drivers/lvgl/src/draw/sw/blend/lv_draw_sw_blend_to_al88.c ****                         lv_color16a_t src_color;
ARM GAS  /var/folders/qx/2_175_4n2s19vhvtspjhb3qh0000gn/T//cc7k2hqg.s 			page 94


 3310              		.loc 1 793 32 is_stmt 0 view .LVU1071
 3311 0186 0025     		movs	r5, #0
 793:Drivers/lvgl/src/draw/sw/blend/lv_draw_sw_blend_to_al88.c ****                         lv_color16a_t src_color;
 3312              		.loc 1 793 55 view .LVU1072
 3313 0188 AB46     		mov	fp, r5
 793:Drivers/lvgl/src/draw/sw/blend/lv_draw_sw_blend_to_al88.c ****                         lv_color16a_t src_color;
 3314              		.loc 1 793 44 view .LVU1073
 3315 018a 2C46     		mov	r4, r5
 3316 018c 0592     		str	r2, [sp, #20]
 3317 018e ECE7     		b	.L195
 3318              	.LVL386:
 3319              	.L208:
 792:Drivers/lvgl/src/draw/sw/blend/lv_draw_sw_blend_to_al88.c ****                     for(mask_x = 0, dest_x = 0, src_x = 0; dest_x < w; mask_x++, dest_x++, src_x +=
 3320              		.loc 1 792 23 view .LVU1074
 3321 0190 0022     		movs	r2, #0
 3322 0192 4346     		mov	r3, r8
 3323 0194 B846     		mov	r8, r7
 3324              	.LVL387:
 792:Drivers/lvgl/src/draw/sw/blend/lv_draw_sw_blend_to_al88.c ****                     for(mask_x = 0, dest_x = 0, src_x = 0; dest_x < w; mask_x++, dest_x++, src_x +=
 3325              		.loc 1 792 23 view .LVU1075
 3326 0196 1F46     		mov	r7, r3
 3327              	.LVL388:
 792:Drivers/lvgl/src/draw/sw/blend/lv_draw_sw_blend_to_al88.c ****                     for(mask_x = 0, dest_x = 0, src_x = 0; dest_x < w; mask_x++, dest_x++, src_x +=
 3328              		.loc 1 792 23 view .LVU1076
 3329 0198 F1E7     		b	.L193
 3330              	.LVL389:
 3331              	.L196:
 792:Drivers/lvgl/src/draw/sw/blend/lv_draw_sw_blend_to_al88.c ****                     for(mask_x = 0, dest_x = 0, src_x = 0; dest_x < w; mask_x++, dest_x++, src_x +=
 3332              		.loc 1 792 23 view .LVU1077
 3333              	.LBE329:
 3334              	.LBB335:
 812:Drivers/lvgl/src/draw/sw/blend/lv_draw_sw_blend_to_al88.c **** 
 3335              		.loc 1 812 22 is_stmt 1 view .LVU1078
 812:Drivers/lvgl/src/draw/sw/blend/lv_draw_sw_blend_to_al88.c **** 
 3336              		.loc 1 812 40 is_stmt 0 view .LVU1079
 3337 019a 335D     		ldrb	r3, [r6, r4]	@ zero_extendqisi2
 3338 019c 019A     		ldr	r2, [sp, #4]
 3339 019e 02FB03F3 		mul	r3, r2, r3
 3340 01a2 1B0A     		lsrs	r3, r3, #8
 812:Drivers/lvgl/src/draw/sw/blend/lv_draw_sw_blend_to_al88.c **** 
 3341              		.loc 1 812 38 view .LVU1080
 3342 01a4 8DF82530 		strb	r3, [sp, #37]
 3343              	.L197:
 814:Drivers/lvgl/src/draw/sw/blend/lv_draw_sw_blend_to_al88.c ****             }
 3344              		.loc 1 814 17 is_stmt 1 view .LVU1081
 3345 01a8 0AAB     		add	r3, sp, #40
 3346 01aa 9BF82220 		ldrb	r2, [fp, #34]	@ zero_extendqisi2
 3347 01ae 0999     		ldr	r1, [sp, #36]
 3348 01b0 08EB4400 		add	r0, r8, r4, lsl #1
 3349 01b4 FFF7FEFF 		bl	blend_non_normal_pixel
 3350              	.LVL390:
 3351              	.LBE335:
 808:Drivers/lvgl/src/draw/sw/blend/lv_draw_sw_blend_to_al88.c ****                 lv_color16a_t src_color;
 3352              		.loc 1 808 60 discriminator 2 view .LVU1082
 808:Drivers/lvgl/src/draw/sw/blend/lv_draw_sw_blend_to_al88.c ****                 lv_color16a_t src_color;
 3353              		.loc 1 808 58 is_stmt 0 discriminator 2 view .LVU1083
 3354 01b8 0134     		adds	r4, r4, #1
ARM GAS  /var/folders/qx/2_175_4n2s19vhvtspjhb3qh0000gn/T//cc7k2hqg.s 			page 95


 3355              	.LVL391:
 808:Drivers/lvgl/src/draw/sw/blend/lv_draw_sw_blend_to_al88.c ****                 lv_color16a_t src_color;
 3356              		.loc 1 808 68 discriminator 2 view .LVU1084
 3357 01ba 5544     		add	r5, r5, r10
 3358              	.LVL392:
 3359              	.L200:
 808:Drivers/lvgl/src/draw/sw/blend/lv_draw_sw_blend_to_al88.c ****                 lv_color16a_t src_color;
 3360              		.loc 1 808 47 is_stmt 1 discriminator 1 view .LVU1085
 3361 01bc 4C45     		cmp	r4, r9
 3362 01be 0ADA     		bge	.L215
 3363              	.LBB336:
 809:Drivers/lvgl/src/draw/sw/blend/lv_draw_sw_blend_to_al88.c ****                 src_color.lumi = lv_color24_luminance(&src_buf_u8[src_x]);
 3364              		.loc 1 809 17 view .LVU1086
 810:Drivers/lvgl/src/draw/sw/blend/lv_draw_sw_blend_to_al88.c ****                 if(mask_buf == NULL) src_color.alpha = opa;
 3365              		.loc 1 810 17 view .LVU1087
 810:Drivers/lvgl/src/draw/sw/blend/lv_draw_sw_blend_to_al88.c ****                 if(mask_buf == NULL) src_color.alpha = opa;
 3366              		.loc 1 810 34 is_stmt 0 view .LVU1088
 3367 01c0 7819     		adds	r0, r7, r5
 3368 01c2 FFF7FEFF 		bl	lv_color24_luminance
 3369              	.LVL393:
 810:Drivers/lvgl/src/draw/sw/blend/lv_draw_sw_blend_to_al88.c ****                 if(mask_buf == NULL) src_color.alpha = opa;
 3370              		.loc 1 810 32 discriminator 1 view .LVU1089
 3371 01c6 8DF82400 		strb	r0, [sp, #36]
 811:Drivers/lvgl/src/draw/sw/blend/lv_draw_sw_blend_to_al88.c ****                 else src_color.alpha = LV_OPA_MIX2(mask_buf[dest_x], opa);
 3372              		.loc 1 811 17 is_stmt 1 view .LVU1090
 811:Drivers/lvgl/src/draw/sw/blend/lv_draw_sw_blend_to_al88.c ****                 else src_color.alpha = LV_OPA_MIX2(mask_buf[dest_x], opa);
 3373              		.loc 1 811 19 is_stmt 0 view .LVU1091
 3374 01ca 002E     		cmp	r6, #0
 3375 01cc E5D1     		bne	.L196
 811:Drivers/lvgl/src/draw/sw/blend/lv_draw_sw_blend_to_al88.c ****                 else src_color.alpha = LV_OPA_MIX2(mask_buf[dest_x], opa);
 3376              		.loc 1 811 38 is_stmt 1 discriminator 1 view .LVU1092
 811:Drivers/lvgl/src/draw/sw/blend/lv_draw_sw_blend_to_al88.c ****                 else src_color.alpha = LV_OPA_MIX2(mask_buf[dest_x], opa);
 3377              		.loc 1 811 54 is_stmt 0 discriminator 1 view .LVU1093
 3378 01ce 019B     		ldr	r3, [sp, #4]
 3379 01d0 8DF82530 		strb	r3, [sp, #37]
 3380 01d4 E8E7     		b	.L197
 3381              	.L215:
 811:Drivers/lvgl/src/draw/sw/blend/lv_draw_sw_blend_to_al88.c ****                 else src_color.alpha = LV_OPA_MIX2(mask_buf[dest_x], opa);
 3382              		.loc 1 811 54 discriminator 1 view .LVU1094
 3383              	.LBE336:
 816:Drivers/lvgl/src/draw/sw/blend/lv_draw_sw_blend_to_al88.c ****             dest_buf_al88 = drawbuf_next_row(dest_buf_al88, dest_stride);
 3384              		.loc 1 816 15 view .LVU1095
 3385 01d6 059B     		ldr	r3, [sp, #20]
 816:Drivers/lvgl/src/draw/sw/blend/lv_draw_sw_blend_to_al88.c ****             dest_buf_al88 = drawbuf_next_row(dest_buf_al88, dest_stride);
 3386              		.loc 1 816 13 is_stmt 1 view .LVU1096
 816:Drivers/lvgl/src/draw/sw/blend/lv_draw_sw_blend_to_al88.c ****             dest_buf_al88 = drawbuf_next_row(dest_buf_al88, dest_stride);
 3387              		.loc 1 816 15 is_stmt 0 view .LVU1097
 3388 01d8 0EB1     		cbz	r6, .L199
 816:Drivers/lvgl/src/draw/sw/blend/lv_draw_sw_blend_to_al88.c ****             dest_buf_al88 = drawbuf_next_row(dest_buf_al88, dest_stride);
 3389              		.loc 1 816 26 is_stmt 1 discriminator 1 view .LVU1098
 816:Drivers/lvgl/src/draw/sw/blend/lv_draw_sw_blend_to_al88.c ****             dest_buf_al88 = drawbuf_next_row(dest_buf_al88, dest_stride);
 3390              		.loc 1 816 35 is_stmt 0 discriminator 1 view .LVU1099
 3391 01da 069A     		ldr	r2, [sp, #24]
 3392 01dc 1644     		add	r6, r6, r2
 3393              	.LVL394:
 3394              	.L199:
 817:Drivers/lvgl/src/draw/sw/blend/lv_draw_sw_blend_to_al88.c ****             src_buf_u8 += src_stride;
ARM GAS  /var/folders/qx/2_175_4n2s19vhvtspjhb3qh0000gn/T//cc7k2hqg.s 			page 96


 3395              		.loc 1 817 13 is_stmt 1 view .LVU1100
 3396              	.LBB337:
 3397              	.LBI337:
1033:Drivers/lvgl/src/draw/sw/blend/lv_draw_sw_blend_to_al88.c **** {
 3398              		.loc 1 1033 44 view .LVU1101
 3399              	.LBB338:
 3400              		.loc 1 1035 5 view .LVU1102
 3401              		.loc 1 1035 12 is_stmt 0 view .LVU1103
 3402 01de 039A     		ldr	r2, [sp, #12]
 3403 01e0 9044     		add	r8, r8, r2
 3404              	.LVL395:
 3405              		.loc 1 1035 12 view .LVU1104
 3406              	.LBE338:
 3407              	.LBE337:
 818:Drivers/lvgl/src/draw/sw/blend/lv_draw_sw_blend_to_al88.c ****         }
 3408              		.loc 1 818 13 is_stmt 1 view .LVU1105
 818:Drivers/lvgl/src/draw/sw/blend/lv_draw_sw_blend_to_al88.c ****         }
 3409              		.loc 1 818 24 is_stmt 0 view .LVU1106
 3410 01e2 049A     		ldr	r2, [sp, #16]
 3411 01e4 1744     		add	r7, r7, r2
 3412              	.LVL396:
 807:Drivers/lvgl/src/draw/sw/blend/lv_draw_sw_blend_to_al88.c ****             for(dest_x = 0, src_x = 0; dest_x < w; dest_x++, src_x += src_px_size) {
 3413              		.loc 1 807 28 is_stmt 1 discriminator 2 view .LVU1107
 3414 01e6 0133     		adds	r3, r3, #1
 3415              	.LVL397:
 3416              	.L179:
 807:Drivers/lvgl/src/draw/sw/blend/lv_draw_sw_blend_to_al88.c ****             for(dest_x = 0, src_x = 0; dest_x < w; dest_x++, src_x += src_px_size) {
 3417              		.loc 1 807 22 discriminator 1 view .LVU1108
 3418 01e8 029A     		ldr	r2, [sp, #8]
 3419 01ea 9342     		cmp	r3, r2
 3420 01ec BFF630AF 		bge	.L178
 808:Drivers/lvgl/src/draw/sw/blend/lv_draw_sw_blend_to_al88.c ****                 lv_color16a_t src_color;
 3421              		.loc 1 808 35 is_stmt 0 view .LVU1109
 3422 01f0 0025     		movs	r5, #0
 808:Drivers/lvgl/src/draw/sw/blend/lv_draw_sw_blend_to_al88.c ****                 lv_color16a_t src_color;
 3423              		.loc 1 808 24 view .LVU1110
 3424 01f2 2C46     		mov	r4, r5
 3425 01f4 0593     		str	r3, [sp, #20]
 3426 01f6 E1E7     		b	.L200
 3427              	.LVL398:
 3428              	.L201:
 807:Drivers/lvgl/src/draw/sw/blend/lv_draw_sw_blend_to_al88.c ****             for(dest_x = 0, src_x = 0; dest_x < w; dest_x++, src_x += src_px_size) {
 3429              		.loc 1 807 15 view .LVU1111
 3430 01f8 0023     		movs	r3, #0
 3431 01fa 4246     		mov	r2, r8
 3432 01fc B846     		mov	r8, r7
 3433              	.LVL399:
 807:Drivers/lvgl/src/draw/sw/blend/lv_draw_sw_blend_to_al88.c ****             for(dest_x = 0, src_x = 0; dest_x < w; dest_x++, src_x += src_px_size) {
 3434              		.loc 1 807 15 view .LVU1112
 3435 01fe 1746     		mov	r7, r2
 3436              	.LVL400:
 807:Drivers/lvgl/src/draw/sw/blend/lv_draw_sw_blend_to_al88.c ****             for(dest_x = 0, src_x = 0; dest_x < w; dest_x++, src_x += src_px_size) {
 3437              		.loc 1 807 15 view .LVU1113
 3438 0200 F2E7     		b	.L179
 3439              		.cfi_endproc
 3440              	.LFE187:
 3442              		.section	.text.argb8888_image_blend,"ax",%progbits
ARM GAS  /var/folders/qx/2_175_4n2s19vhvtspjhb3qh0000gn/T//cc7k2hqg.s 			page 97


 3443              		.align	1
 3444              		.syntax unified
 3445              		.thumb
 3446              		.thumb_func
 3448              	argb8888_image_blend:
 3449              	.LVL401:
 3450              	.LFB188:
 828:Drivers/lvgl/src/draw/sw/blend/lv_draw_sw_blend_to_al88.c ****     int32_t w = dsc->dest_w;
 3451              		.loc 1 828 1 is_stmt 1 view -0
 3452              		.cfi_startproc
 3453              		@ args = 0, pretend = 0, frame = 40
 3454              		@ frame_needed = 0, uses_anonymous_args = 0
 828:Drivers/lvgl/src/draw/sw/blend/lv_draw_sw_blend_to_al88.c ****     int32_t w = dsc->dest_w;
 3455              		.loc 1 828 1 is_stmt 0 view .LVU1115
 3456 0000 2DE9F04F 		push	{r4, r5, r6, r7, r8, r9, r10, fp, lr}
 3457              	.LCFI25:
 3458              		.cfi_def_cfa_offset 36
 3459              		.cfi_offset 4, -36
 3460              		.cfi_offset 5, -32
 3461              		.cfi_offset 6, -28
 3462              		.cfi_offset 7, -24
 3463              		.cfi_offset 8, -20
 3464              		.cfi_offset 9, -16
 3465              		.cfi_offset 10, -12
 3466              		.cfi_offset 11, -8
 3467              		.cfi_offset 14, -4
 3468 0004 8BB0     		sub	sp, sp, #44
 3469              	.LCFI26:
 3470              		.cfi_def_cfa_offset 80
 3471 0006 8146     		mov	r9, r0
 829:Drivers/lvgl/src/draw/sw/blend/lv_draw_sw_blend_to_al88.c ****     int32_t h = dsc->dest_h;
 3472              		.loc 1 829 5 is_stmt 1 view .LVU1116
 829:Drivers/lvgl/src/draw/sw/blend/lv_draw_sw_blend_to_al88.c ****     int32_t h = dsc->dest_h;
 3473              		.loc 1 829 13 is_stmt 0 view .LVU1117
 3474 0008 D0F804A0 		ldr	r10, [r0, #4]
 3475              	.LVL402:
 830:Drivers/lvgl/src/draw/sw/blend/lv_draw_sw_blend_to_al88.c ****     lv_opa_t opa = dsc->opa;
 3476              		.loc 1 830 5 is_stmt 1 view .LVU1118
 830:Drivers/lvgl/src/draw/sw/blend/lv_draw_sw_blend_to_al88.c ****     lv_opa_t opa = dsc->opa;
 3477              		.loc 1 830 13 is_stmt 0 view .LVU1119
 3478 000c 8568     		ldr	r5, [r0, #8]
 3479              	.LVL403:
 831:Drivers/lvgl/src/draw/sw/blend/lv_draw_sw_blend_to_al88.c ****     lv_color16a_t * dest_buf_al88 = dsc->dest_buf;
 3480              		.loc 1 831 5 is_stmt 1 view .LVU1120
 831:Drivers/lvgl/src/draw/sw/blend/lv_draw_sw_blend_to_al88.c ****     lv_color16a_t * dest_buf_al88 = dsc->dest_buf;
 3481              		.loc 1 831 14 is_stmt 0 view .LVU1121
 3482 000e 90F821B0 		ldrb	fp, [r0, #33]	@ zero_extendqisi2
 3483              	.LVL404:
 832:Drivers/lvgl/src/draw/sw/blend/lv_draw_sw_blend_to_al88.c ****     int32_t dest_stride = dsc->dest_stride;
 3484              		.loc 1 832 5 is_stmt 1 view .LVU1122
 832:Drivers/lvgl/src/draw/sw/blend/lv_draw_sw_blend_to_al88.c ****     int32_t dest_stride = dsc->dest_stride;
 3485              		.loc 1 832 21 is_stmt 0 view .LVU1123
 3486 0012 D0F80080 		ldr	r8, [r0]
 3487              	.LVL405:
 833:Drivers/lvgl/src/draw/sw/blend/lv_draw_sw_blend_to_al88.c ****     const lv_color32_t * src_buf_c32 = dsc->src_buf;
 3488              		.loc 1 833 5 is_stmt 1 view .LVU1124
 833:Drivers/lvgl/src/draw/sw/blend/lv_draw_sw_blend_to_al88.c ****     const lv_color32_t * src_buf_c32 = dsc->src_buf;
ARM GAS  /var/folders/qx/2_175_4n2s19vhvtspjhb3qh0000gn/T//cc7k2hqg.s 			page 98


 3489              		.loc 1 833 13 is_stmt 0 view .LVU1125
 3490 0016 C368     		ldr	r3, [r0, #12]
 3491 0018 0393     		str	r3, [sp, #12]
 3492              	.LVL406:
 834:Drivers/lvgl/src/draw/sw/blend/lv_draw_sw_blend_to_al88.c ****     int32_t src_stride = dsc->src_stride;
 3493              		.loc 1 834 5 is_stmt 1 view .LVU1126
 834:Drivers/lvgl/src/draw/sw/blend/lv_draw_sw_blend_to_al88.c ****     int32_t src_stride = dsc->src_stride;
 3494              		.loc 1 834 26 is_stmt 0 view .LVU1127
 3495 001a 8669     		ldr	r6, [r0, #24]
 3496              	.LVL407:
 835:Drivers/lvgl/src/draw/sw/blend/lv_draw_sw_blend_to_al88.c ****     const lv_opa_t * mask_buf = dsc->mask_buf;
 3497              		.loc 1 835 5 is_stmt 1 view .LVU1128
 835:Drivers/lvgl/src/draw/sw/blend/lv_draw_sw_blend_to_al88.c ****     const lv_opa_t * mask_buf = dsc->mask_buf;
 3498              		.loc 1 835 13 is_stmt 0 view .LVU1129
 3499 001c C369     		ldr	r3, [r0, #28]
 3500              	.LVL408:
 835:Drivers/lvgl/src/draw/sw/blend/lv_draw_sw_blend_to_al88.c ****     const lv_opa_t * mask_buf = dsc->mask_buf;
 3501              		.loc 1 835 13 view .LVU1130
 3502 001e 0293     		str	r3, [sp, #8]
 3503              	.LVL409:
 836:Drivers/lvgl/src/draw/sw/blend/lv_draw_sw_blend_to_al88.c ****     int32_t mask_stride = dsc->mask_stride;
 3504              		.loc 1 836 5 is_stmt 1 view .LVU1131
 836:Drivers/lvgl/src/draw/sw/blend/lv_draw_sw_blend_to_al88.c ****     int32_t mask_stride = dsc->mask_stride;
 3505              		.loc 1 836 22 is_stmt 0 view .LVU1132
 3506 0020 0769     		ldr	r7, [r0, #16]
 3507              	.LVL410:
 837:Drivers/lvgl/src/draw/sw/blend/lv_draw_sw_blend_to_al88.c **** 
 3508              		.loc 1 837 5 is_stmt 1 view .LVU1133
 837:Drivers/lvgl/src/draw/sw/blend/lv_draw_sw_blend_to_al88.c **** 
 3509              		.loc 1 837 13 is_stmt 0 view .LVU1134
 3510 0022 4369     		ldr	r3, [r0, #20]
 3511              	.LVL411:
 837:Drivers/lvgl/src/draw/sw/blend/lv_draw_sw_blend_to_al88.c **** 
 3512              		.loc 1 837 13 view .LVU1135
 3513 0024 0493     		str	r3, [sp, #16]
 3514              	.LVL412:
 839:Drivers/lvgl/src/draw/sw/blend/lv_draw_sw_blend_to_al88.c ****     lv_color_mix_with_alpha_cache_init(&cache);
 3515              		.loc 1 839 5 is_stmt 1 view .LVU1136
 840:Drivers/lvgl/src/draw/sw/blend/lv_draw_sw_blend_to_al88.c **** 
 3516              		.loc 1 840 5 view .LVU1137
 3517 0026 08A8     		add	r0, sp, #32
 3518              	.LVL413:
 840:Drivers/lvgl/src/draw/sw/blend/lv_draw_sw_blend_to_al88.c **** 
 3519              		.loc 1 840 5 is_stmt 0 view .LVU1138
 3520 0028 FFF7FEFF 		bl	lv_color_mix_with_alpha_cache_init
 3521              	.LVL414:
 842:Drivers/lvgl/src/draw/sw/blend/lv_draw_sw_blend_to_al88.c ****     int32_t y;
 3522              		.loc 1 842 5 is_stmt 1 view .LVU1139
 843:Drivers/lvgl/src/draw/sw/blend/lv_draw_sw_blend_to_al88.c **** 
 3523              		.loc 1 843 5 view .LVU1140
 845:Drivers/lvgl/src/draw/sw/blend/lv_draw_sw_blend_to_al88.c ****         if(mask_buf == NULL && opa >= LV_OPA_MAX) {
 3524              		.loc 1 845 5 view .LVU1141
 845:Drivers/lvgl/src/draw/sw/blend/lv_draw_sw_blend_to_al88.c ****         if(mask_buf == NULL && opa >= LV_OPA_MAX) {
 3525              		.loc 1 845 11 is_stmt 0 view .LVU1142
 3526 002c 99F82230 		ldrb	r3, [r9, #34]	@ zero_extendqisi2
 845:Drivers/lvgl/src/draw/sw/blend/lv_draw_sw_blend_to_al88.c ****         if(mask_buf == NULL && opa >= LV_OPA_MAX) {
 3527              		.loc 1 845 7 view .LVU1143
ARM GAS  /var/folders/qx/2_175_4n2s19vhvtspjhb3qh0000gn/T//cc7k2hqg.s 			page 99


 3528 0030 002B     		cmp	r3, #0
 3529 0032 40F0EC80 		bne	.L238
 846:Drivers/lvgl/src/draw/sw/blend/lv_draw_sw_blend_to_al88.c ****             if(LV_RESULT_INVALID == LV_DRAW_SW_ARGB8888_BLEND_NORMAL_TO_AL88(dsc)) {
 3530              		.loc 1 846 9 is_stmt 1 view .LVU1144
 846:Drivers/lvgl/src/draw/sw/blend/lv_draw_sw_blend_to_al88.c ****             if(LV_RESULT_INVALID == LV_DRAW_SW_ARGB8888_BLEND_NORMAL_TO_AL88(dsc)) {
 3531              		.loc 1 846 11 is_stmt 0 view .LVU1145
 3532 0036 7FB1     		cbz	r7, .L249
 874:Drivers/lvgl/src/draw/sw/blend/lv_draw_sw_blend_to_al88.c ****             if(LV_RESULT_INVALID == LV_DRAW_SW_ARGB8888_BLEND_NORMAL_TO_AL88_WITH_MASK(dsc)) {
 3533              		.loc 1 874 14 is_stmt 1 view .LVU1146
 874:Drivers/lvgl/src/draw/sw/blend/lv_draw_sw_blend_to_al88.c ****             if(LV_RESULT_INVALID == LV_DRAW_SW_ARGB8888_BLEND_NORMAL_TO_AL88_WITH_MASK(dsc)) {
 3534              		.loc 1 874 16 is_stmt 0 view .LVU1147
 3535 0038 002F     		cmp	r7, #0
 3536 003a 00F0F180 		beq	.L216
 874:Drivers/lvgl/src/draw/sw/blend/lv_draw_sw_blend_to_al88.c ****             if(LV_RESULT_INVALID == LV_DRAW_SW_ARGB8888_BLEND_NORMAL_TO_AL88_WITH_MASK(dsc)) {
 3537              		.loc 1 874 26 discriminator 1 view .LVU1148
 3538 003e BBF1FC0F 		cmp	fp, #252
 3539 0042 7DD8     		bhi	.L242
 889:Drivers/lvgl/src/draw/sw/blend/lv_draw_sw_blend_to_al88.c ****             if(LV_RESULT_INVALID == LV_DRAW_SW_ARGB8888_BLEND_NORMAL_TO_AL88_MIX_MASK_OPA(dsc)) {
 3540              		.loc 1 889 14 is_stmt 1 view .LVU1149
 889:Drivers/lvgl/src/draw/sw/blend/lv_draw_sw_blend_to_al88.c ****             if(LV_RESULT_INVALID == LV_DRAW_SW_ARGB8888_BLEND_NORMAL_TO_AL88_MIX_MASK_OPA(dsc)) {
 3541              		.loc 1 889 16 is_stmt 0 view .LVU1150
 3542 0044 002F     		cmp	r7, #0
 3543 0046 00F0EB80 		beq	.L216
 891:Drivers/lvgl/src/draw/sw/blend/lv_draw_sw_blend_to_al88.c ****                     for(x = 0; x < w; x++) {
 3544              		.loc 1 891 23 view .LVU1151
 3545 004a 4FF00009 		mov	r9, #0
 3546              	.LVL415:
 891:Drivers/lvgl/src/draw/sw/blend/lv_draw_sw_blend_to_al88.c ****                     for(x = 0; x < w; x++) {
 3547              		.loc 1 891 23 view .LVU1152
 3548 004e 2B46     		mov	r3, r5
 3549 0050 4D46     		mov	r5, r9
 3550              	.LVL416:
 891:Drivers/lvgl/src/draw/sw/blend/lv_draw_sw_blend_to_al88.c ****                     for(x = 0; x < w; x++) {
 3551              		.loc 1 891 23 view .LVU1153
 3552 0052 B946     		mov	r9, r7
 3553 0054 1F46     		mov	r7, r3
 3554              	.LVL417:
 891:Drivers/lvgl/src/draw/sw/blend/lv_draw_sw_blend_to_al88.c ****                     for(x = 0; x < w; x++) {
 3555              		.loc 1 891 23 view .LVU1154
 3556 0056 9EE0     		b	.L230
 3557              	.LVL418:
 3558              	.L249:
 846:Drivers/lvgl/src/draw/sw/blend/lv_draw_sw_blend_to_al88.c ****             if(LV_RESULT_INVALID == LV_DRAW_SW_ARGB8888_BLEND_NORMAL_TO_AL88(dsc)) {
 3559              		.loc 1 846 29 discriminator 1 view .LVU1155
 3560 0058 BBF1FC0F 		cmp	fp, #252
 3561 005c 20D8     		bhi	.L239
 862:Drivers/lvgl/src/draw/sw/blend/lv_draw_sw_blend_to_al88.c ****                     for(x = 0; x < w; x++) {
 3562              		.loc 1 862 23 view .LVU1156
 3563 005e 4FF00009 		mov	r9, #0
 3564              	.LVL419:
 862:Drivers/lvgl/src/draw/sw/blend/lv_draw_sw_blend_to_al88.c ****                     for(x = 0; x < w; x++) {
 3565              		.loc 1 862 23 view .LVU1157
 3566 0062 3FE0     		b	.L220
 3567              	.LVL420:
 3568              	.L221:
 3569              	.LBB339:
 850:Drivers/lvgl/src/draw/sw/blend/lv_draw_sw_blend_to_al88.c ****                         src_color.lumi = lv_color32_luminance(src_buf_c32[x]);
ARM GAS  /var/folders/qx/2_175_4n2s19vhvtspjhb3qh0000gn/T//cc7k2hqg.s 			page 100


 3570              		.loc 1 850 25 is_stmt 1 view .LVU1158
 851:Drivers/lvgl/src/draw/sw/blend/lv_draw_sw_blend_to_al88.c ****                         src_color.alpha = src_buf_c32[x].alpha;
 3571              		.loc 1 851 25 view .LVU1159
 851:Drivers/lvgl/src/draw/sw/blend/lv_draw_sw_blend_to_al88.c ****                         src_color.alpha = src_buf_c32[x].alpha;
 3572              		.loc 1 851 74 is_stmt 0 view .LVU1160
 3573 0064 06EB8407 		add	r7, r6, r4, lsl #2
 851:Drivers/lvgl/src/draw/sw/blend/lv_draw_sw_blend_to_al88.c ****                         src_color.alpha = src_buf_c32[x].alpha;
 3574              		.loc 1 851 42 view .LVU1161
 3575 0068 56F82400 		ldr	r0, [r6, r4, lsl #2]	@ unaligned
 3576 006c FFF7FEFF 		bl	lv_color32_luminance
 3577              	.LVL421:
 851:Drivers/lvgl/src/draw/sw/blend/lv_draw_sw_blend_to_al88.c ****                         src_color.alpha = src_buf_c32[x].alpha;
 3578              		.loc 1 851 40 discriminator 1 view .LVU1162
 3579 0070 8DF81C00 		strb	r0, [sp, #28]
 852:Drivers/lvgl/src/draw/sw/blend/lv_draw_sw_blend_to_al88.c ****                         lv_color_16a_16a_mix(src_color, &dest_buf_al88[x], &cache);
 3580              		.loc 1 852 25 is_stmt 1 view .LVU1163
 852:Drivers/lvgl/src/draw/sw/blend/lv_draw_sw_blend_to_al88.c ****                         lv_color_16a_16a_mix(src_color, &dest_buf_al88[x], &cache);
 3581              		.loc 1 852 57 is_stmt 0 view .LVU1164
 3582 0074 FB78     		ldrb	r3, [r7, #3]	@ zero_extendqisi2
 852:Drivers/lvgl/src/draw/sw/blend/lv_draw_sw_blend_to_al88.c ****                         lv_color_16a_16a_mix(src_color, &dest_buf_al88[x], &cache);
 3583              		.loc 1 852 41 view .LVU1165
 3584 0076 8DF81D30 		strb	r3, [sp, #29]
 853:Drivers/lvgl/src/draw/sw/blend/lv_draw_sw_blend_to_al88.c ****                     }
 3585              		.loc 1 853 25 is_stmt 1 view .LVU1166
 3586 007a 08AA     		add	r2, sp, #32
 3587 007c 08EB4401 		add	r1, r8, r4, lsl #1
 3588 0080 0798     		ldr	r0, [sp, #28]
 3589 0082 FFF7FEFF 		bl	lv_color_16a_16a_mix
 3590              	.LVL422:
 3591              	.LBE339:
 849:Drivers/lvgl/src/draw/sw/blend/lv_draw_sw_blend_to_al88.c ****                         lv_color16a_t src_color;
 3592              		.loc 1 849 40 discriminator 3 view .LVU1167
 3593 0086 0134     		adds	r4, r4, #1
 3594              	.LVL423:
 3595              	.L222:
 849:Drivers/lvgl/src/draw/sw/blend/lv_draw_sw_blend_to_al88.c ****                         lv_color16a_t src_color;
 3596              		.loc 1 849 34 discriminator 1 view .LVU1168
 3597 0088 5445     		cmp	r4, r10
 3598 008a EBDB     		blt	.L221
 855:Drivers/lvgl/src/draw/sw/blend/lv_draw_sw_blend_to_al88.c ****                     src_buf_c32 = drawbuf_next_row(src_buf_c32, src_stride);
 3599              		.loc 1 855 21 view .LVU1169
 3600              	.LVL424:
 3601              	.LBB340:
 3602              	.LBI340:
1033:Drivers/lvgl/src/draw/sw/blend/lv_draw_sw_blend_to_al88.c **** {
 3603              		.loc 1 1033 44 view .LVU1170
 3604              	.LBB341:
 3605              		.loc 1 1035 5 view .LVU1171
 3606              		.loc 1 1035 12 is_stmt 0 view .LVU1172
 3607 008c 039B     		ldr	r3, [sp, #12]
 3608 008e 9844     		add	r8, r8, r3
 3609              	.LVL425:
 3610              		.loc 1 1035 12 view .LVU1173
 3611              	.LBE341:
 3612              	.LBE340:
 856:Drivers/lvgl/src/draw/sw/blend/lv_draw_sw_blend_to_al88.c ****                 }
 3613              		.loc 1 856 21 is_stmt 1 view .LVU1174
ARM GAS  /var/folders/qx/2_175_4n2s19vhvtspjhb3qh0000gn/T//cc7k2hqg.s 			page 101


 3614              	.LBB342:
 3615              	.LBI342:
1033:Drivers/lvgl/src/draw/sw/blend/lv_draw_sw_blend_to_al88.c **** {
 3616              		.loc 1 1033 44 view .LVU1175
 3617              	.LBB343:
 3618              		.loc 1 1035 5 view .LVU1176
 3619              		.loc 1 1035 12 is_stmt 0 view .LVU1177
 3620 0090 5E44     		add	r6, r6, fp
 3621              	.LVL426:
 3622              		.loc 1 1035 12 view .LVU1178
 3623              	.LBE343:
 3624              	.LBE342:
 848:Drivers/lvgl/src/draw/sw/blend/lv_draw_sw_blend_to_al88.c ****                     for(x = 0; x < w; x++) {
 3625              		.loc 1 848 36 is_stmt 1 discriminator 2 view .LVU1179
 3626 0092 09F10109 		add	r9, r9, #1
 3627              	.LVL427:
 3628              	.L219:
 848:Drivers/lvgl/src/draw/sw/blend/lv_draw_sw_blend_to_al88.c ****                     for(x = 0; x < w; x++) {
 3629              		.loc 1 848 30 discriminator 1 view .LVU1180
 3630 0096 A945     		cmp	r9, r5
 3631 0098 80F2C280 		bge	.L216
 849:Drivers/lvgl/src/draw/sw/blend/lv_draw_sw_blend_to_al88.c ****                         lv_color16a_t src_color;
 3632              		.loc 1 849 27 is_stmt 0 view .LVU1181
 3633 009c 0024     		movs	r4, #0
 3634 009e F3E7     		b	.L222
 3635              	.LVL428:
 3636              	.L239:
 848:Drivers/lvgl/src/draw/sw/blend/lv_draw_sw_blend_to_al88.c ****                     for(x = 0; x < w; x++) {
 3637              		.loc 1 848 23 view .LVU1182
 3638 00a0 4FF00009 		mov	r9, #0
 3639              	.LVL429:
 848:Drivers/lvgl/src/draw/sw/blend/lv_draw_sw_blend_to_al88.c ****                     for(x = 0; x < w; x++) {
 3640              		.loc 1 848 23 view .LVU1183
 3641 00a4 DDF808B0 		ldr	fp, [sp, #8]
 3642              	.LVL430:
 848:Drivers/lvgl/src/draw/sw/blend/lv_draw_sw_blend_to_al88.c ****                     for(x = 0; x < w; x++) {
 3643              		.loc 1 848 23 view .LVU1184
 3644 00a8 F5E7     		b	.L219
 3645              	.LVL431:
 3646              	.L224:
 3647              	.LBB344:
 864:Drivers/lvgl/src/draw/sw/blend/lv_draw_sw_blend_to_al88.c ****                         src_color.lumi = lv_color32_luminance(src_buf_c32[x]);
 3648              		.loc 1 864 25 is_stmt 1 view .LVU1185
 865:Drivers/lvgl/src/draw/sw/blend/lv_draw_sw_blend_to_al88.c ****                         src_color.alpha = LV_OPA_MIX2(src_buf_c32[x].alpha, opa);
 3649              		.loc 1 865 25 view .LVU1186
 865:Drivers/lvgl/src/draw/sw/blend/lv_draw_sw_blend_to_al88.c ****                         src_color.alpha = LV_OPA_MIX2(src_buf_c32[x].alpha, opa);
 3650              		.loc 1 865 74 is_stmt 0 view .LVU1187
 3651 00aa 06EB8407 		add	r7, r6, r4, lsl #2
 865:Drivers/lvgl/src/draw/sw/blend/lv_draw_sw_blend_to_al88.c ****                         src_color.alpha = LV_OPA_MIX2(src_buf_c32[x].alpha, opa);
 3652              		.loc 1 865 42 view .LVU1188
 3653 00ae 56F82400 		ldr	r0, [r6, r4, lsl #2]	@ unaligned
 3654 00b2 FFF7FEFF 		bl	lv_color32_luminance
 3655              	.LVL432:
 865:Drivers/lvgl/src/draw/sw/blend/lv_draw_sw_blend_to_al88.c ****                         src_color.alpha = LV_OPA_MIX2(src_buf_c32[x].alpha, opa);
 3656              		.loc 1 865 40 discriminator 1 view .LVU1189
 3657 00b6 8DF81C00 		strb	r0, [sp, #28]
 866:Drivers/lvgl/src/draw/sw/blend/lv_draw_sw_blend_to_al88.c ****                         lv_color_16a_16a_mix(src_color, &dest_buf_al88[x], &cache);
ARM GAS  /var/folders/qx/2_175_4n2s19vhvtspjhb3qh0000gn/T//cc7k2hqg.s 			page 102


 3658              		.loc 1 866 25 is_stmt 1 view .LVU1190
 866:Drivers/lvgl/src/draw/sw/blend/lv_draw_sw_blend_to_al88.c ****                         lv_color_16a_16a_mix(src_color, &dest_buf_al88[x], &cache);
 3659              		.loc 1 866 43 is_stmt 0 view .LVU1191
 3660 00ba FB78     		ldrb	r3, [r7, #3]	@ zero_extendqisi2
 3661 00bc 03FB0BF3 		mul	r3, r3, fp
 3662 00c0 1B0A     		lsrs	r3, r3, #8
 866:Drivers/lvgl/src/draw/sw/blend/lv_draw_sw_blend_to_al88.c ****                         lv_color_16a_16a_mix(src_color, &dest_buf_al88[x], &cache);
 3663              		.loc 1 866 41 view .LVU1192
 3664 00c2 8DF81D30 		strb	r3, [sp, #29]
 867:Drivers/lvgl/src/draw/sw/blend/lv_draw_sw_blend_to_al88.c ****                     }
 3665              		.loc 1 867 25 is_stmt 1 view .LVU1193
 3666 00c6 08AA     		add	r2, sp, #32
 3667 00c8 08EB4401 		add	r1, r8, r4, lsl #1
 3668 00cc 0798     		ldr	r0, [sp, #28]
 3669 00ce FFF7FEFF 		bl	lv_color_16a_16a_mix
 3670              	.LVL433:
 3671              	.LBE344:
 863:Drivers/lvgl/src/draw/sw/blend/lv_draw_sw_blend_to_al88.c ****                         lv_color16a_t src_color;
 3672              		.loc 1 863 40 discriminator 3 view .LVU1194
 3673 00d2 0134     		adds	r4, r4, #1
 3674              	.LVL434:
 3675              	.L225:
 863:Drivers/lvgl/src/draw/sw/blend/lv_draw_sw_blend_to_al88.c ****                         lv_color16a_t src_color;
 3676              		.loc 1 863 34 discriminator 1 view .LVU1195
 3677 00d4 5445     		cmp	r4, r10
 3678 00d6 E8DB     		blt	.L224
 869:Drivers/lvgl/src/draw/sw/blend/lv_draw_sw_blend_to_al88.c ****                     src_buf_c32 = drawbuf_next_row(src_buf_c32, src_stride);
 3679              		.loc 1 869 21 view .LVU1196
 3680              	.LVL435:
 3681              	.LBB345:
 3682              	.LBI345:
1033:Drivers/lvgl/src/draw/sw/blend/lv_draw_sw_blend_to_al88.c **** {
 3683              		.loc 1 1033 44 view .LVU1197
 3684              	.LBB346:
 3685              		.loc 1 1035 5 view .LVU1198
 3686              		.loc 1 1035 12 is_stmt 0 view .LVU1199
 3687 00d8 039B     		ldr	r3, [sp, #12]
 3688 00da 9844     		add	r8, r8, r3
 3689              	.LVL436:
 3690              		.loc 1 1035 12 view .LVU1200
 3691              	.LBE346:
 3692              	.LBE345:
 870:Drivers/lvgl/src/draw/sw/blend/lv_draw_sw_blend_to_al88.c ****                 }
 3693              		.loc 1 870 21 is_stmt 1 view .LVU1201
 3694              	.LBB347:
 3695              	.LBI347:
1033:Drivers/lvgl/src/draw/sw/blend/lv_draw_sw_blend_to_al88.c **** {
 3696              		.loc 1 1033 44 view .LVU1202
 3697              	.LBB348:
 3698              		.loc 1 1035 5 view .LVU1203
 3699              		.loc 1 1035 12 is_stmt 0 view .LVU1204
 3700 00dc 029B     		ldr	r3, [sp, #8]
 3701 00de 1E44     		add	r6, r6, r3
 3702              	.LVL437:
 3703              		.loc 1 1035 12 view .LVU1205
 3704              	.LBE348:
 3705              	.LBE347:
ARM GAS  /var/folders/qx/2_175_4n2s19vhvtspjhb3qh0000gn/T//cc7k2hqg.s 			page 103


 862:Drivers/lvgl/src/draw/sw/blend/lv_draw_sw_blend_to_al88.c ****                     for(x = 0; x < w; x++) {
 3706              		.loc 1 862 36 is_stmt 1 discriminator 2 view .LVU1206
 3707 00e0 09F10109 		add	r9, r9, #1
 3708              	.LVL438:
 3709              	.L220:
 862:Drivers/lvgl/src/draw/sw/blend/lv_draw_sw_blend_to_al88.c ****                     for(x = 0; x < w; x++) {
 3710              		.loc 1 862 30 discriminator 1 view .LVU1207
 3711 00e4 A945     		cmp	r9, r5
 3712 00e6 80F29B80 		bge	.L216
 863:Drivers/lvgl/src/draw/sw/blend/lv_draw_sw_blend_to_al88.c ****                         lv_color16a_t src_color;
 3713              		.loc 1 863 27 is_stmt 0 view .LVU1208
 3714 00ea 0024     		movs	r4, #0
 3715 00ec F2E7     		b	.L225
 3716              	.LVL439:
 3717              	.L228:
 3718              	.LBB349:
 878:Drivers/lvgl/src/draw/sw/blend/lv_draw_sw_blend_to_al88.c ****                         src_color.lumi = lv_color32_luminance(src_buf_c32[x]);
 3719              		.loc 1 878 25 is_stmt 1 view .LVU1209
 879:Drivers/lvgl/src/draw/sw/blend/lv_draw_sw_blend_to_al88.c ****                         src_color.alpha = LV_OPA_MIX2(src_buf_c32[x].alpha, mask_buf[x]);
 3720              		.loc 1 879 25 view .LVU1210
 879:Drivers/lvgl/src/draw/sw/blend/lv_draw_sw_blend_to_al88.c ****                         src_color.alpha = LV_OPA_MIX2(src_buf_c32[x].alpha, mask_buf[x]);
 3721              		.loc 1 879 74 is_stmt 0 view .LVU1211
 3722 00ee 06EB8409 		add	r9, r6, r4, lsl #2
 879:Drivers/lvgl/src/draw/sw/blend/lv_draw_sw_blend_to_al88.c ****                         src_color.alpha = LV_OPA_MIX2(src_buf_c32[x].alpha, mask_buf[x]);
 3723              		.loc 1 879 42 view .LVU1212
 3724 00f2 56F82400 		ldr	r0, [r6, r4, lsl #2]	@ unaligned
 3725 00f6 FFF7FEFF 		bl	lv_color32_luminance
 3726              	.LVL440:
 879:Drivers/lvgl/src/draw/sw/blend/lv_draw_sw_blend_to_al88.c ****                         src_color.alpha = LV_OPA_MIX2(src_buf_c32[x].alpha, mask_buf[x]);
 3727              		.loc 1 879 40 discriminator 1 view .LVU1213
 3728 00fa 8DF81C00 		strb	r0, [sp, #28]
 880:Drivers/lvgl/src/draw/sw/blend/lv_draw_sw_blend_to_al88.c ****                         lv_color_16a_16a_mix(src_color, &dest_buf_al88[x], &cache);
 3729              		.loc 1 880 25 is_stmt 1 view .LVU1214
 880:Drivers/lvgl/src/draw/sw/blend/lv_draw_sw_blend_to_al88.c ****                         lv_color_16a_16a_mix(src_color, &dest_buf_al88[x], &cache);
 3730              		.loc 1 880 43 is_stmt 0 view .LVU1215
 3731 00fe 99F80330 		ldrb	r3, [r9, #3]	@ zero_extendqisi2
 3732 0102 18F80420 		ldrb	r2, [r8, r4]	@ zero_extendqisi2
 3733 0106 02FB03F3 		mul	r3, r2, r3
 3734 010a 1B0A     		lsrs	r3, r3, #8
 880:Drivers/lvgl/src/draw/sw/blend/lv_draw_sw_blend_to_al88.c ****                         lv_color_16a_16a_mix(src_color, &dest_buf_al88[x], &cache);
 3735              		.loc 1 880 41 view .LVU1216
 3736 010c 8DF81D30 		strb	r3, [sp, #29]
 881:Drivers/lvgl/src/draw/sw/blend/lv_draw_sw_blend_to_al88.c ****                     }
 3737              		.loc 1 881 25 is_stmt 1 view .LVU1217
 3738 0110 08AA     		add	r2, sp, #32
 3739 0112 07EB4401 		add	r1, r7, r4, lsl #1
 3740 0116 0798     		ldr	r0, [sp, #28]
 3741 0118 FFF7FEFF 		bl	lv_color_16a_16a_mix
 3742              	.LVL441:
 3743              	.LBE349:
 877:Drivers/lvgl/src/draw/sw/blend/lv_draw_sw_blend_to_al88.c ****                         lv_color16a_t src_color;
 3744              		.loc 1 877 40 discriminator 3 view .LVU1218
 3745 011c 0134     		adds	r4, r4, #1
 3746              	.LVL442:
 3747              	.L229:
 877:Drivers/lvgl/src/draw/sw/blend/lv_draw_sw_blend_to_al88.c ****                         lv_color16a_t src_color;
 3748              		.loc 1 877 34 discriminator 1 view .LVU1219
ARM GAS  /var/folders/qx/2_175_4n2s19vhvtspjhb3qh0000gn/T//cc7k2hqg.s 			page 104


 3749 011e 5445     		cmp	r4, r10
 3750 0120 E5DB     		blt	.L228
 3751              	.LBB350:
 3752              	.LBB351:
 3753              		.loc 1 1035 12 is_stmt 0 view .LVU1220
 3754 0122 DDF80090 		ldr	r9, [sp]
 3755              	.LBE351:
 3756              	.LBE350:
 883:Drivers/lvgl/src/draw/sw/blend/lv_draw_sw_blend_to_al88.c ****                     src_buf_c32 = drawbuf_next_row(src_buf_c32, src_stride);
 3757              		.loc 1 883 21 is_stmt 1 view .LVU1221
 3758              	.LVL443:
 3759              	.LBB353:
 3760              	.LBI350:
1033:Drivers/lvgl/src/draw/sw/blend/lv_draw_sw_blend_to_al88.c **** {
 3761              		.loc 1 1033 44 view .LVU1222
 3762              	.LBB352:
 3763              		.loc 1 1035 5 view .LVU1223
 3764              		.loc 1 1035 12 is_stmt 0 view .LVU1224
 3765 0126 5F44     		add	r7, r7, fp
 3766              	.LVL444:
 3767              		.loc 1 1035 12 view .LVU1225
 3768              	.LBE352:
 3769              	.LBE353:
 884:Drivers/lvgl/src/draw/sw/blend/lv_draw_sw_blend_to_al88.c ****                     mask_buf += mask_stride;
 3770              		.loc 1 884 21 is_stmt 1 view .LVU1226
 3771              	.LBB354:
 3772              	.LBI354:
1033:Drivers/lvgl/src/draw/sw/blend/lv_draw_sw_blend_to_al88.c **** {
 3773              		.loc 1 1033 44 view .LVU1227
 3774              	.LBB355:
 3775              		.loc 1 1035 5 view .LVU1228
 3776              		.loc 1 1035 12 is_stmt 0 view .LVU1229
 3777 0128 029B     		ldr	r3, [sp, #8]
 3778 012a 1E44     		add	r6, r6, r3
 3779              	.LVL445:
 3780              		.loc 1 1035 12 view .LVU1230
 3781              	.LBE355:
 3782              	.LBE354:
 885:Drivers/lvgl/src/draw/sw/blend/lv_draw_sw_blend_to_al88.c ****                 }
 3783              		.loc 1 885 21 is_stmt 1 view .LVU1231
 885:Drivers/lvgl/src/draw/sw/blend/lv_draw_sw_blend_to_al88.c ****                 }
 3784              		.loc 1 885 30 is_stmt 0 view .LVU1232
 3785 012c 049B     		ldr	r3, [sp, #16]
 3786 012e 9844     		add	r8, r8, r3
 3787              	.LVL446:
 876:Drivers/lvgl/src/draw/sw/blend/lv_draw_sw_blend_to_al88.c ****                     for(x = 0; x < w; x++) {
 3788              		.loc 1 876 36 is_stmt 1 discriminator 2 view .LVU1233
 3789 0130 09F10109 		add	r9, r9, #1
 3790              	.LVL447:
 3791              	.L226:
 876:Drivers/lvgl/src/draw/sw/blend/lv_draw_sw_blend_to_al88.c ****                     for(x = 0; x < w; x++) {
 3792              		.loc 1 876 30 discriminator 1 view .LVU1234
 3793 0134 A945     		cmp	r9, r5
 3794 0136 73DA     		bge	.L216
 877:Drivers/lvgl/src/draw/sw/blend/lv_draw_sw_blend_to_al88.c ****                         lv_color16a_t src_color;
 3795              		.loc 1 877 27 is_stmt 0 view .LVU1235
 3796 0138 0024     		movs	r4, #0
ARM GAS  /var/folders/qx/2_175_4n2s19vhvtspjhb3qh0000gn/T//cc7k2hqg.s 			page 105


 3797 013a CDF80090 		str	r9, [sp]
 3798 013e EEE7     		b	.L229
 3799              	.LVL448:
 3800              	.L242:
 876:Drivers/lvgl/src/draw/sw/blend/lv_draw_sw_blend_to_al88.c ****                     for(x = 0; x < w; x++) {
 3801              		.loc 1 876 23 view .LVU1236
 3802 0140 4FF00009 		mov	r9, #0
 3803              	.LVL449:
 876:Drivers/lvgl/src/draw/sw/blend/lv_draw_sw_blend_to_al88.c ****                     for(x = 0; x < w; x++) {
 3804              		.loc 1 876 23 view .LVU1237
 3805 0144 3B46     		mov	r3, r7
 3806 0146 4746     		mov	r7, r8
 3807              	.LVL450:
 876:Drivers/lvgl/src/draw/sw/blend/lv_draw_sw_blend_to_al88.c ****                     for(x = 0; x < w; x++) {
 3808              		.loc 1 876 23 view .LVU1238
 3809 0148 DDF80CB0 		ldr	fp, [sp, #12]
 3810              	.LVL451:
 876:Drivers/lvgl/src/draw/sw/blend/lv_draw_sw_blend_to_al88.c ****                     for(x = 0; x < w; x++) {
 3811              		.loc 1 876 23 view .LVU1239
 3812 014c 9846     		mov	r8, r3
 3813              	.LVL452:
 876:Drivers/lvgl/src/draw/sw/blend/lv_draw_sw_blend_to_al88.c ****                     for(x = 0; x < w; x++) {
 3814              		.loc 1 876 23 view .LVU1240
 3815 014e F1E7     		b	.L226
 3816              	.LVL453:
 3817              	.L231:
 3818              	.LBB356:
 893:Drivers/lvgl/src/draw/sw/blend/lv_draw_sw_blend_to_al88.c ****                         src_color.lumi = lv_color32_luminance(src_buf_c32[x]);
 3819              		.loc 1 893 25 is_stmt 1 view .LVU1241
 894:Drivers/lvgl/src/draw/sw/blend/lv_draw_sw_blend_to_al88.c ****                         src_color.alpha = LV_OPA_MIX3(src_buf_c32[x].alpha, mask_buf[x], opa);
 3820              		.loc 1 894 25 view .LVU1242
 894:Drivers/lvgl/src/draw/sw/blend/lv_draw_sw_blend_to_al88.c ****                         src_color.alpha = LV_OPA_MIX3(src_buf_c32[x].alpha, mask_buf[x], opa);
 3821              		.loc 1 894 74 is_stmt 0 view .LVU1243
 3822 0150 06EB8405 		add	r5, r6, r4, lsl #2
 894:Drivers/lvgl/src/draw/sw/blend/lv_draw_sw_blend_to_al88.c ****                         src_color.alpha = LV_OPA_MIX3(src_buf_c32[x].alpha, mask_buf[x], opa);
 3823              		.loc 1 894 42 view .LVU1244
 3824 0154 56F82400 		ldr	r0, [r6, r4, lsl #2]	@ unaligned
 3825 0158 FFF7FEFF 		bl	lv_color32_luminance
 3826              	.LVL454:
 894:Drivers/lvgl/src/draw/sw/blend/lv_draw_sw_blend_to_al88.c ****                         src_color.alpha = LV_OPA_MIX3(src_buf_c32[x].alpha, mask_buf[x], opa);
 3827              		.loc 1 894 40 discriminator 1 view .LVU1245
 3828 015c 8DF81C00 		strb	r0, [sp, #28]
 895:Drivers/lvgl/src/draw/sw/blend/lv_draw_sw_blend_to_al88.c ****                         lv_color_16a_16a_mix(src_color, &dest_buf_al88[x], &cache);
 3829              		.loc 1 895 25 is_stmt 1 view .LVU1246
 895:Drivers/lvgl/src/draw/sw/blend/lv_draw_sw_blend_to_al88.c ****                         lv_color_16a_16a_mix(src_color, &dest_buf_al88[x], &cache);
 3830              		.loc 1 895 43 is_stmt 0 view .LVU1247
 3831 0160 EB78     		ldrb	r3, [r5, #3]	@ zero_extendqisi2
 3832 0162 19F80420 		ldrb	r2, [r9, r4]	@ zero_extendqisi2
 3833 0166 02FB03F3 		mul	r3, r2, r3
 3834 016a 03FB0BF3 		mul	r3, r3, fp
 3835 016e 1B0C     		lsrs	r3, r3, #16
 895:Drivers/lvgl/src/draw/sw/blend/lv_draw_sw_blend_to_al88.c ****                         lv_color_16a_16a_mix(src_color, &dest_buf_al88[x], &cache);
 3836              		.loc 1 895 41 view .LVU1248
 3837 0170 8DF81D30 		strb	r3, [sp, #29]
 896:Drivers/lvgl/src/draw/sw/blend/lv_draw_sw_blend_to_al88.c ****                     }
 3838              		.loc 1 896 25 is_stmt 1 view .LVU1249
 3839 0174 08AA     		add	r2, sp, #32
ARM GAS  /var/folders/qx/2_175_4n2s19vhvtspjhb3qh0000gn/T//cc7k2hqg.s 			page 106


 3840 0176 08EB4401 		add	r1, r8, r4, lsl #1
 3841 017a 0798     		ldr	r0, [sp, #28]
 3842 017c FFF7FEFF 		bl	lv_color_16a_16a_mix
 3843              	.LVL455:
 3844              	.LBE356:
 892:Drivers/lvgl/src/draw/sw/blend/lv_draw_sw_blend_to_al88.c ****                         lv_color16a_t src_color;
 3845              		.loc 1 892 40 discriminator 3 view .LVU1250
 3846 0180 0134     		adds	r4, r4, #1
 3847              	.LVL456:
 3848              	.L232:
 892:Drivers/lvgl/src/draw/sw/blend/lv_draw_sw_blend_to_al88.c ****                         lv_color16a_t src_color;
 3849              		.loc 1 892 34 discriminator 1 view .LVU1251
 3850 0182 5445     		cmp	r4, r10
 3851 0184 E4DB     		blt	.L231
 3852              	.LBB357:
 3853              	.LBB358:
 3854              		.loc 1 1035 12 is_stmt 0 view .LVU1252
 3855 0186 009D     		ldr	r5, [sp]
 3856              	.LBE358:
 3857              	.LBE357:
 898:Drivers/lvgl/src/draw/sw/blend/lv_draw_sw_blend_to_al88.c ****                     src_buf_c32 = drawbuf_next_row(src_buf_c32, src_stride);
 3858              		.loc 1 898 21 is_stmt 1 view .LVU1253
 3859              	.LVL457:
 3860              	.LBB360:
 3861              	.LBI357:
1033:Drivers/lvgl/src/draw/sw/blend/lv_draw_sw_blend_to_al88.c **** {
 3862              		.loc 1 1033 44 view .LVU1254
 3863              	.LBB359:
 3864              		.loc 1 1035 5 view .LVU1255
 3865              		.loc 1 1035 12 is_stmt 0 view .LVU1256
 3866 0188 039B     		ldr	r3, [sp, #12]
 3867 018a 9844     		add	r8, r8, r3
 3868              	.LVL458:
 3869              		.loc 1 1035 12 view .LVU1257
 3870              	.LBE359:
 3871              	.LBE360:
 899:Drivers/lvgl/src/draw/sw/blend/lv_draw_sw_blend_to_al88.c ****                     mask_buf += mask_stride;
 3872              		.loc 1 899 21 is_stmt 1 view .LVU1258
 3873              	.LBB361:
 3874              	.LBI361:
1033:Drivers/lvgl/src/draw/sw/blend/lv_draw_sw_blend_to_al88.c **** {
 3875              		.loc 1 1033 44 view .LVU1259
 3876              	.LBB362:
 3877              		.loc 1 1035 5 view .LVU1260
 3878              		.loc 1 1035 12 is_stmt 0 view .LVU1261
 3879 018c 029B     		ldr	r3, [sp, #8]
 3880 018e 1E44     		add	r6, r6, r3
 3881              	.LVL459:
 3882              		.loc 1 1035 12 view .LVU1262
 3883              	.LBE362:
 3884              	.LBE361:
 900:Drivers/lvgl/src/draw/sw/blend/lv_draw_sw_blend_to_al88.c ****                 }
 3885              		.loc 1 900 21 is_stmt 1 view .LVU1263
 900:Drivers/lvgl/src/draw/sw/blend/lv_draw_sw_blend_to_al88.c ****                 }
 3886              		.loc 1 900 30 is_stmt 0 view .LVU1264
 3887 0190 049B     		ldr	r3, [sp, #16]
 3888 0192 9944     		add	r9, r9, r3
ARM GAS  /var/folders/qx/2_175_4n2s19vhvtspjhb3qh0000gn/T//cc7k2hqg.s 			page 107


 3889              	.LVL460:
 891:Drivers/lvgl/src/draw/sw/blend/lv_draw_sw_blend_to_al88.c ****                     for(x = 0; x < w; x++) {
 3890              		.loc 1 891 36 is_stmt 1 discriminator 2 view .LVU1265
 3891 0194 0135     		adds	r5, r5, #1
 3892              	.LVL461:
 3893              	.L230:
 891:Drivers/lvgl/src/draw/sw/blend/lv_draw_sw_blend_to_al88.c ****                     for(x = 0; x < w; x++) {
 3894              		.loc 1 891 30 discriminator 1 view .LVU1266
 3895 0196 BD42     		cmp	r5, r7
 3896 0198 42DA     		bge	.L216
 892:Drivers/lvgl/src/draw/sw/blend/lv_draw_sw_blend_to_al88.c ****                         lv_color16a_t src_color;
 3897              		.loc 1 892 27 is_stmt 0 view .LVU1267
 3898 019a 0024     		movs	r4, #0
 3899 019c 0095     		str	r5, [sp]
 3900 019e F0E7     		b	.L232
 3901              	.LVL462:
 3902              	.L233:
 3903              	.LBB363:
 912:Drivers/lvgl/src/draw/sw/blend/lv_draw_sw_blend_to_al88.c ****                 blend_non_normal_pixel(&dest_buf_al88[x], src_color, dsc->blend_mode, &cache);
 3904              		.loc 1 912 22 is_stmt 1 view .LVU1268
 912:Drivers/lvgl/src/draw/sw/blend/lv_draw_sw_blend_to_al88.c ****                 blend_non_normal_pixel(&dest_buf_al88[x], src_color, dsc->blend_mode, &cache);
 3905              		.loc 1 912 40 is_stmt 0 view .LVU1269
 3906 01a0 325D     		ldrb	r2, [r6, r4]	@ zero_extendqisi2
 3907 01a2 02FB03F3 		mul	r3, r2, r3
 3908 01a6 03FB0BF3 		mul	r3, r3, fp
 3909 01aa 1B0C     		lsrs	r3, r3, #16
 912:Drivers/lvgl/src/draw/sw/blend/lv_draw_sw_blend_to_al88.c ****                 blend_non_normal_pixel(&dest_buf_al88[x], src_color, dsc->blend_mode, &cache);
 3910              		.loc 1 912 38 view .LVU1270
 3911 01ac 8DF81D30 		strb	r3, [sp, #29]
 3912              	.L234:
 913:Drivers/lvgl/src/draw/sw/blend/lv_draw_sw_blend_to_al88.c ****             }
 3913              		.loc 1 913 17 is_stmt 1 view .LVU1271
 3914 01b0 08AB     		add	r3, sp, #32
 3915 01b2 009A     		ldr	r2, [sp]
 3916 01b4 92F82220 		ldrb	r2, [r2, #34]	@ zero_extendqisi2
 3917 01b8 0799     		ldr	r1, [sp, #28]
 3918 01ba 08EB4900 		add	r0, r8, r9, lsl #1
 3919 01be FFF7FEFF 		bl	blend_non_normal_pixel
 3920              	.LVL463:
 3921              	.LBE363:
 907:Drivers/lvgl/src/draw/sw/blend/lv_draw_sw_blend_to_al88.c ****                 lv_color16a_t src_color;
 3922              		.loc 1 907 32 discriminator 2 view .LVU1272
 3923 01c2 0134     		adds	r4, r4, #1
 3924              	.LVL464:
 3925              	.L237:
 907:Drivers/lvgl/src/draw/sw/blend/lv_draw_sw_blend_to_al88.c ****                 lv_color16a_t src_color;
 3926              		.loc 1 907 26 discriminator 1 view .LVU1273
 3927 01c4 5445     		cmp	r4, r10
 3928 01c6 13DA     		bge	.L250
 3929              	.LBB364:
 908:Drivers/lvgl/src/draw/sw/blend/lv_draw_sw_blend_to_al88.c ****                 src_color.lumi = lv_color32_luminance(src_buf_c32[x]);
 3930              		.loc 1 908 17 view .LVU1274
 909:Drivers/lvgl/src/draw/sw/blend/lv_draw_sw_blend_to_al88.c ****                 src_color.alpha = src_buf_c32[x].alpha;
 3931              		.loc 1 909 17 view .LVU1275
 909:Drivers/lvgl/src/draw/sw/blend/lv_draw_sw_blend_to_al88.c ****                 src_color.alpha = src_buf_c32[x].alpha;
 3932              		.loc 1 909 66 is_stmt 0 view .LVU1276
 3933 01c8 A146     		mov	r9, r4
ARM GAS  /var/folders/qx/2_175_4n2s19vhvtspjhb3qh0000gn/T//cc7k2hqg.s 			page 108


 3934 01ca 07EB8405 		add	r5, r7, r4, lsl #2
 909:Drivers/lvgl/src/draw/sw/blend/lv_draw_sw_blend_to_al88.c ****                 src_color.alpha = src_buf_c32[x].alpha;
 3935              		.loc 1 909 34 view .LVU1277
 3936 01ce 57F82400 		ldr	r0, [r7, r4, lsl #2]	@ unaligned
 3937 01d2 FFF7FEFF 		bl	lv_color32_luminance
 3938              	.LVL465:
 909:Drivers/lvgl/src/draw/sw/blend/lv_draw_sw_blend_to_al88.c ****                 src_color.alpha = src_buf_c32[x].alpha;
 3939              		.loc 1 909 32 discriminator 1 view .LVU1278
 3940 01d6 8DF81C00 		strb	r0, [sp, #28]
 910:Drivers/lvgl/src/draw/sw/blend/lv_draw_sw_blend_to_al88.c ****                 if(mask_buf == NULL) src_color.alpha = LV_OPA_MIX2(src_color.alpha, opa);
 3941              		.loc 1 910 17 is_stmt 1 view .LVU1279
 910:Drivers/lvgl/src/draw/sw/blend/lv_draw_sw_blend_to_al88.c ****                 if(mask_buf == NULL) src_color.alpha = LV_OPA_MIX2(src_color.alpha, opa);
 3942              		.loc 1 910 49 is_stmt 0 view .LVU1280
 3943 01da EB78     		ldrb	r3, [r5, #3]	@ zero_extendqisi2
 910:Drivers/lvgl/src/draw/sw/blend/lv_draw_sw_blend_to_al88.c ****                 if(mask_buf == NULL) src_color.alpha = LV_OPA_MIX2(src_color.alpha, opa);
 3944              		.loc 1 910 33 view .LVU1281
 3945 01dc 8DF81D30 		strb	r3, [sp, #29]
 911:Drivers/lvgl/src/draw/sw/blend/lv_draw_sw_blend_to_al88.c ****                 else src_color.alpha = LV_OPA_MIX3(src_color.alpha, mask_buf[x], opa);
 3946              		.loc 1 911 17 is_stmt 1 view .LVU1282
 911:Drivers/lvgl/src/draw/sw/blend/lv_draw_sw_blend_to_al88.c ****                 else src_color.alpha = LV_OPA_MIX3(src_color.alpha, mask_buf[x], opa);
 3947              		.loc 1 911 19 is_stmt 0 view .LVU1283
 3948 01e0 002E     		cmp	r6, #0
 3949 01e2 DDD1     		bne	.L233
 911:Drivers/lvgl/src/draw/sw/blend/lv_draw_sw_blend_to_al88.c ****                 else src_color.alpha = LV_OPA_MIX3(src_color.alpha, mask_buf[x], opa);
 3950              		.loc 1 911 38 is_stmt 1 discriminator 1 view .LVU1284
 911:Drivers/lvgl/src/draw/sw/blend/lv_draw_sw_blend_to_al88.c ****                 else src_color.alpha = LV_OPA_MIX3(src_color.alpha, mask_buf[x], opa);
 3951              		.loc 1 911 56 is_stmt 0 discriminator 1 view .LVU1285
 3952 01e4 03FB0BF3 		mul	r3, r3, fp
 3953 01e8 1B0A     		lsrs	r3, r3, #8
 911:Drivers/lvgl/src/draw/sw/blend/lv_draw_sw_blend_to_al88.c ****                 else src_color.alpha = LV_OPA_MIX3(src_color.alpha, mask_buf[x], opa);
 3954              		.loc 1 911 54 discriminator 1 view .LVU1286
 3955 01ea 8DF81D30 		strb	r3, [sp, #29]
 3956 01ee DFE7     		b	.L234
 3957              	.L250:
 911:Drivers/lvgl/src/draw/sw/blend/lv_draw_sw_blend_to_al88.c ****                 else src_color.alpha = LV_OPA_MIX3(src_color.alpha, mask_buf[x], opa);
 3958              		.loc 1 911 54 discriminator 1 view .LVU1287
 3959              	.LBE364:
 915:Drivers/lvgl/src/draw/sw/blend/lv_draw_sw_blend_to_al88.c ****             dest_buf_al88 = drawbuf_next_row(dest_buf_al88, dest_stride);
 3960              		.loc 1 915 15 view .LVU1288
 3961 01f0 019D     		ldr	r5, [sp, #4]
 915:Drivers/lvgl/src/draw/sw/blend/lv_draw_sw_blend_to_al88.c ****             dest_buf_al88 = drawbuf_next_row(dest_buf_al88, dest_stride);
 3962              		.loc 1 915 13 is_stmt 1 view .LVU1289
 915:Drivers/lvgl/src/draw/sw/blend/lv_draw_sw_blend_to_al88.c ****             dest_buf_al88 = drawbuf_next_row(dest_buf_al88, dest_stride);
 3963              		.loc 1 915 15 is_stmt 0 view .LVU1290
 3964 01f2 0EB1     		cbz	r6, .L236
 915:Drivers/lvgl/src/draw/sw/blend/lv_draw_sw_blend_to_al88.c ****             dest_buf_al88 = drawbuf_next_row(dest_buf_al88, dest_stride);
 3965              		.loc 1 915 26 is_stmt 1 discriminator 1 view .LVU1291
 915:Drivers/lvgl/src/draw/sw/blend/lv_draw_sw_blend_to_al88.c ****             dest_buf_al88 = drawbuf_next_row(dest_buf_al88, dest_stride);
 3966              		.loc 1 915 35 is_stmt 0 discriminator 1 view .LVU1292
 3967 01f4 049B     		ldr	r3, [sp, #16]
 3968 01f6 1E44     		add	r6, r6, r3
 3969              	.LVL466:
 3970              	.L236:
 916:Drivers/lvgl/src/draw/sw/blend/lv_draw_sw_blend_to_al88.c ****             src_buf_c32 = drawbuf_next_row(src_buf_c32, src_stride);
 3971              		.loc 1 916 13 is_stmt 1 view .LVU1293
 3972              	.LBB365:
 3973              	.LBI365:
ARM GAS  /var/folders/qx/2_175_4n2s19vhvtspjhb3qh0000gn/T//cc7k2hqg.s 			page 109


1033:Drivers/lvgl/src/draw/sw/blend/lv_draw_sw_blend_to_al88.c **** {
 3974              		.loc 1 1033 44 view .LVU1294
 3975              	.LBB366:
 3976              		.loc 1 1035 5 view .LVU1295
 3977              		.loc 1 1035 12 is_stmt 0 view .LVU1296
 3978 01f8 039B     		ldr	r3, [sp, #12]
 3979 01fa 9844     		add	r8, r8, r3
 3980              	.LVL467:
 3981              		.loc 1 1035 12 view .LVU1297
 3982              	.LBE366:
 3983              	.LBE365:
 917:Drivers/lvgl/src/draw/sw/blend/lv_draw_sw_blend_to_al88.c ****         }
 3984              		.loc 1 917 13 is_stmt 1 view .LVU1298
 3985              	.LBB367:
 3986              	.LBI367:
1033:Drivers/lvgl/src/draw/sw/blend/lv_draw_sw_blend_to_al88.c **** {
 3987              		.loc 1 1033 44 view .LVU1299
 3988              	.LBB368:
 3989              		.loc 1 1035 5 view .LVU1300
 3990              		.loc 1 1035 12 is_stmt 0 view .LVU1301
 3991 01fc 029B     		ldr	r3, [sp, #8]
 3992 01fe 1F44     		add	r7, r7, r3
 3993              	.LVL468:
 3994              		.loc 1 1035 12 view .LVU1302
 3995              	.LBE368:
 3996              	.LBE367:
 906:Drivers/lvgl/src/draw/sw/blend/lv_draw_sw_blend_to_al88.c ****             for(x = 0; x < w; x++) {
 3997              		.loc 1 906 28 is_stmt 1 discriminator 2 view .LVU1303
 3998 0200 0135     		adds	r5, r5, #1
 3999              	.LVL469:
 4000              	.L217:
 906:Drivers/lvgl/src/draw/sw/blend/lv_draw_sw_blend_to_al88.c ****             for(x = 0; x < w; x++) {
 4001              		.loc 1 906 22 discriminator 1 view .LVU1304
 4002 0202 059B     		ldr	r3, [sp, #20]
 4003 0204 9D42     		cmp	r5, r3
 4004 0206 0BDA     		bge	.L216
 907:Drivers/lvgl/src/draw/sw/blend/lv_draw_sw_blend_to_al88.c ****                 lv_color16a_t src_color;
 4005              		.loc 1 907 19 is_stmt 0 view .LVU1305
 4006 0208 0024     		movs	r4, #0
 4007 020a 0195     		str	r5, [sp, #4]
 4008 020c DAE7     		b	.L237
 4009              	.LVL470:
 4010              	.L238:
 906:Drivers/lvgl/src/draw/sw/blend/lv_draw_sw_blend_to_al88.c ****             for(x = 0; x < w; x++) {
 4011              		.loc 1 906 15 view .LVU1306
 4012 020e 0022     		movs	r2, #0
 4013 0210 3B46     		mov	r3, r7
 4014 0212 3746     		mov	r7, r6
 4015              	.LVL471:
 906:Drivers/lvgl/src/draw/sw/blend/lv_draw_sw_blend_to_al88.c ****             for(x = 0; x < w; x++) {
 4016              		.loc 1 906 15 view .LVU1307
 4017 0214 0595     		str	r5, [sp, #20]
 4018 0216 1546     		mov	r5, r2
 4019              	.LVL472:
 906:Drivers/lvgl/src/draw/sw/blend/lv_draw_sw_blend_to_al88.c ****             for(x = 0; x < w; x++) {
 4020              		.loc 1 906 15 view .LVU1308
 4021 0218 CDF80090 		str	r9, [sp]
ARM GAS  /var/folders/qx/2_175_4n2s19vhvtspjhb3qh0000gn/T//cc7k2hqg.s 			page 110


 4022 021c 1E46     		mov	r6, r3
 4023              	.LVL473:
 906:Drivers/lvgl/src/draw/sw/blend/lv_draw_sw_blend_to_al88.c ****             for(x = 0; x < w; x++) {
 4024              		.loc 1 906 15 view .LVU1309
 4025 021e F0E7     		b	.L217
 4026              	.LVL474:
 4027              	.L216:
 920:Drivers/lvgl/src/draw/sw/blend/lv_draw_sw_blend_to_al88.c **** 
 4028              		.loc 1 920 1 view .LVU1310
 4029 0220 0BB0     		add	sp, sp, #44
 4030              	.LCFI27:
 4031              		.cfi_def_cfa_offset 36
 4032              		@ sp needed
 4033 0222 BDE8F08F 		pop	{r4, r5, r6, r7, r8, r9, r10, fp, pc}
 920:Drivers/lvgl/src/draw/sw/blend/lv_draw_sw_blend_to_al88.c **** 
 4034              		.loc 1 920 1 view .LVU1311
 4035              		.cfi_endproc
 4036              	.LFE188:
 4038              		.section	.text.lv_draw_sw_blend_color_to_al88,"ax",%progbits
 4039              		.align	1
 4040              		.global	lv_draw_sw_blend_color_to_al88
 4041              		.syntax unified
 4042              		.thumb
 4043              		.thumb_func
 4045              	lv_draw_sw_blend_color_to_al88:
 4046              	.LVL475:
 4047              	.LFB181:
 198:Drivers/lvgl/src/draw/sw/blend/lv_draw_sw_blend_to_al88.c ****     int32_t w = dsc->dest_w;
 4048              		.loc 1 198 1 is_stmt 1 view -0
 4049              		.cfi_startproc
 4050              		@ args = 0, pretend = 0, frame = 24
 4051              		@ frame_needed = 0, uses_anonymous_args = 0
 198:Drivers/lvgl/src/draw/sw/blend/lv_draw_sw_blend_to_al88.c ****     int32_t w = dsc->dest_w;
 4052              		.loc 1 198 1 is_stmt 0 view .LVU1313
 4053 0000 2DE9F04F 		push	{r4, r5, r6, r7, r8, r9, r10, fp, lr}
 4054              	.LCFI28:
 4055              		.cfi_def_cfa_offset 36
 4056              		.cfi_offset 4, -36
 4057              		.cfi_offset 5, -32
 4058              		.cfi_offset 6, -28
 4059              		.cfi_offset 7, -24
 4060              		.cfi_offset 8, -20
 4061              		.cfi_offset 9, -16
 4062              		.cfi_offset 10, -12
 4063              		.cfi_offset 11, -8
 4064              		.cfi_offset 14, -4
 4065 0004 87B0     		sub	sp, sp, #28
 4066              	.LCFI29:
 4067              		.cfi_def_cfa_offset 64
 4068 0006 0446     		mov	r4, r0
 199:Drivers/lvgl/src/draw/sw/blend/lv_draw_sw_blend_to_al88.c ****     int32_t h = dsc->dest_h;
 4069              		.loc 1 199 5 is_stmt 1 view .LVU1314
 199:Drivers/lvgl/src/draw/sw/blend/lv_draw_sw_blend_to_al88.c ****     int32_t h = dsc->dest_h;
 4070              		.loc 1 199 13 is_stmt 0 view .LVU1315
 4071 0008 4568     		ldr	r5, [r0, #4]
 4072              	.LVL476:
 200:Drivers/lvgl/src/draw/sw/blend/lv_draw_sw_blend_to_al88.c ****     lv_opa_t opa = dsc->opa;
ARM GAS  /var/folders/qx/2_175_4n2s19vhvtspjhb3qh0000gn/T//cc7k2hqg.s 			page 111


 4073              		.loc 1 200 5 is_stmt 1 view .LVU1316
 200:Drivers/lvgl/src/draw/sw/blend/lv_draw_sw_blend_to_al88.c ****     lv_opa_t opa = dsc->opa;
 4074              		.loc 1 200 13 is_stmt 0 view .LVU1317
 4075 000a D0F808A0 		ldr	r10, [r0, #8]
 4076              	.LVL477:
 201:Drivers/lvgl/src/draw/sw/blend/lv_draw_sw_blend_to_al88.c ****     const lv_opa_t * mask = dsc->mask_buf;
 4077              		.loc 1 201 5 is_stmt 1 view .LVU1318
 201:Drivers/lvgl/src/draw/sw/blend/lv_draw_sw_blend_to_al88.c ****     const lv_opa_t * mask = dsc->mask_buf;
 4078              		.loc 1 201 14 is_stmt 0 view .LVU1319
 4079 000e 90F81B80 		ldrb	r8, [r0, #27]	@ zero_extendqisi2
 4080              	.LVL478:
 202:Drivers/lvgl/src/draw/sw/blend/lv_draw_sw_blend_to_al88.c ****     int32_t mask_stride = dsc->mask_stride;
 4081              		.loc 1 202 5 is_stmt 1 view .LVU1320
 202:Drivers/lvgl/src/draw/sw/blend/lv_draw_sw_blend_to_al88.c ****     int32_t mask_stride = dsc->mask_stride;
 4082              		.loc 1 202 22 is_stmt 0 view .LVU1321
 4083 0012 0669     		ldr	r6, [r0, #16]
 4084              	.LVL479:
 203:Drivers/lvgl/src/draw/sw/blend/lv_draw_sw_blend_to_al88.c ****     int32_t dest_stride = dsc->dest_stride;
 4085              		.loc 1 203 5 is_stmt 1 view .LVU1322
 203:Drivers/lvgl/src/draw/sw/blend/lv_draw_sw_blend_to_al88.c ****     int32_t dest_stride = dsc->dest_stride;
 4086              		.loc 1 203 13 is_stmt 0 view .LVU1323
 4087 0014 4369     		ldr	r3, [r0, #20]
 4088 0016 0193     		str	r3, [sp, #4]
 4089              	.LVL480:
 204:Drivers/lvgl/src/draw/sw/blend/lv_draw_sw_blend_to_al88.c **** 
 4090              		.loc 1 204 5 is_stmt 1 view .LVU1324
 204:Drivers/lvgl/src/draw/sw/blend/lv_draw_sw_blend_to_al88.c **** 
 4091              		.loc 1 204 13 is_stmt 0 view .LVU1325
 4092 0018 D0F80CB0 		ldr	fp, [r0, #12]
 4093              	.LVL481:
 206:Drivers/lvgl/src/draw/sw/blend/lv_draw_sw_blend_to_al88.c ****     lv_color_mix_with_alpha_cache_init(&cache);
 4094              		.loc 1 206 5 is_stmt 1 view .LVU1326
 207:Drivers/lvgl/src/draw/sw/blend/lv_draw_sw_blend_to_al88.c **** 
 4095              		.loc 1 207 5 view .LVU1327
 4096 001c 04A8     		add	r0, sp, #16
 4097              	.LVL482:
 207:Drivers/lvgl/src/draw/sw/blend/lv_draw_sw_blend_to_al88.c **** 
 4098              		.loc 1 207 5 is_stmt 0 view .LVU1328
 4099 001e FFF7FEFF 		bl	lv_color_mix_with_alpha_cache_init
 4100              	.LVL483:
 209:Drivers/lvgl/src/draw/sw/blend/lv_draw_sw_blend_to_al88.c ****     int32_t y;
 4101              		.loc 1 209 5 is_stmt 1 view .LVU1329
 210:Drivers/lvgl/src/draw/sw/blend/lv_draw_sw_blend_to_al88.c **** 
 4102              		.loc 1 210 5 view .LVU1330
 212:Drivers/lvgl/src/draw/sw/blend/lv_draw_sw_blend_to_al88.c ****     LV_UNUSED(h);
 4103              		.loc 1 212 5 view .LVU1331
 213:Drivers/lvgl/src/draw/sw/blend/lv_draw_sw_blend_to_al88.c ****     LV_UNUSED(x);
 4104              		.loc 1 213 5 view .LVU1332
 214:Drivers/lvgl/src/draw/sw/blend/lv_draw_sw_blend_to_al88.c ****     LV_UNUSED(y);
 4105              		.loc 1 214 5 view .LVU1333
 215:Drivers/lvgl/src/draw/sw/blend/lv_draw_sw_blend_to_al88.c ****     LV_UNUSED(opa);
 4106              		.loc 1 215 5 view .LVU1334
 216:Drivers/lvgl/src/draw/sw/blend/lv_draw_sw_blend_to_al88.c ****     LV_UNUSED(mask);
 4107              		.loc 1 216 5 view .LVU1335
 217:Drivers/lvgl/src/draw/sw/blend/lv_draw_sw_blend_to_al88.c ****     LV_UNUSED(mask_stride);
 4108              		.loc 1 217 5 view .LVU1336
 218:Drivers/lvgl/src/draw/sw/blend/lv_draw_sw_blend_to_al88.c ****     LV_UNUSED(dest_stride);
ARM GAS  /var/folders/qx/2_175_4n2s19vhvtspjhb3qh0000gn/T//cc7k2hqg.s 			page 112


 4109              		.loc 1 218 5 view .LVU1337
 219:Drivers/lvgl/src/draw/sw/blend/lv_draw_sw_blend_to_al88.c **** 
 4110              		.loc 1 219 5 view .LVU1338
 222:Drivers/lvgl/src/draw/sw/blend/lv_draw_sw_blend_to_al88.c ****         if(LV_RESULT_INVALID == LV_DRAW_SW_COLOR_BLEND_TO_AL88(dsc)) {
 4111              		.loc 1 222 5 view .LVU1339
 222:Drivers/lvgl/src/draw/sw/blend/lv_draw_sw_blend_to_al88.c ****         if(LV_RESULT_INVALID == LV_DRAW_SW_COLOR_BLEND_TO_AL88(dsc)) {
 4112              		.loc 1 222 7 is_stmt 0 view .LVU1340
 4113 0022 6EB1     		cbz	r6, .L275
 275:Drivers/lvgl/src/draw/sw/blend/lv_draw_sw_blend_to_al88.c ****         if(LV_RESULT_INVALID == LV_DRAW_SW_COLOR_BLEND_TO_AL88_WITH_MASK(dsc)) {
 4114              		.loc 1 275 10 is_stmt 1 view .LVU1341
 275:Drivers/lvgl/src/draw/sw/blend/lv_draw_sw_blend_to_al88.c ****         if(LV_RESULT_INVALID == LV_DRAW_SW_COLOR_BLEND_TO_AL88_WITH_MASK(dsc)) {
 4115              		.loc 1 275 12 is_stmt 0 view .LVU1342
 4116 0024 1EB1     		cbz	r6, .L263
 275:Drivers/lvgl/src/draw/sw/blend/lv_draw_sw_blend_to_al88.c ****         if(LV_RESULT_INVALID == LV_DRAW_SW_COLOR_BLEND_TO_AL88_WITH_MASK(dsc)) {
 4117              		.loc 1 275 18 discriminator 1 view .LVU1343
 4118 0026 B8F1FC0F 		cmp	r8, #252
 4119 002a 00F29A80 		bhi	.L276
 4120              	.L263:
 293:Drivers/lvgl/src/draw/sw/blend/lv_draw_sw_blend_to_al88.c ****             lv_color16a_t color16a;
 4121              		.loc 1 293 9 is_stmt 1 view .LVU1344
 4122              	.LBB369:
 294:Drivers/lvgl/src/draw/sw/blend/lv_draw_sw_blend_to_al88.c ****             color16a.lumi = lv_color_luminance(dsc->color);
 4123              		.loc 1 294 13 view .LVU1345
 295:Drivers/lvgl/src/draw/sw/blend/lv_draw_sw_blend_to_al88.c ****             lv_color16a_t * dest_buf = (lv_color16a_t *)dsc->dest_buf;
 4124              		.loc 1 295 13 view .LVU1346
 295:Drivers/lvgl/src/draw/sw/blend/lv_draw_sw_blend_to_al88.c ****             lv_color16a_t * dest_buf = (lv_color16a_t *)dsc->dest_buf;
 4125              		.loc 1 295 29 is_stmt 0 view .LVU1347
 4126 002e A069     		ldr	r0, [r4, #24]
 4127 0030 FFF7FEFF 		bl	lv_color_luminance
 4128              	.LVL484:
 295:Drivers/lvgl/src/draw/sw/blend/lv_draw_sw_blend_to_al88.c ****             lv_color16a_t * dest_buf = (lv_color16a_t *)dsc->dest_buf;
 4129              		.loc 1 295 27 discriminator 1 view .LVU1348
 4130 0034 8DF80C00 		strb	r0, [sp, #12]
 296:Drivers/lvgl/src/draw/sw/blend/lv_draw_sw_blend_to_al88.c ****             for(y = 0; y < h; y++) {
 4131              		.loc 1 296 13 is_stmt 1 view .LVU1349
 296:Drivers/lvgl/src/draw/sw/blend/lv_draw_sw_blend_to_al88.c ****             for(y = 0; y < h; y++) {
 4132              		.loc 1 296 29 is_stmt 0 view .LVU1350
 4133 0038 2768     		ldr	r7, [r4]
 4134              	.LVL485:
 297:Drivers/lvgl/src/draw/sw/blend/lv_draw_sw_blend_to_al88.c ****                 for(x = 0; x < w; x++) {
 4135              		.loc 1 297 13 is_stmt 1 view .LVU1351
 297:Drivers/lvgl/src/draw/sw/blend/lv_draw_sw_blend_to_al88.c ****                 for(x = 0; x < w; x++) {
 4136              		.loc 1 297 19 is_stmt 0 view .LVU1352
 4137 003a 4FF00009 		mov	r9, #0
 297:Drivers/lvgl/src/draw/sw/blend/lv_draw_sw_blend_to_al88.c ****                 for(x = 0; x < w; x++) {
 4138              		.loc 1 297 13 view .LVU1353
 4139 003e C2E0     		b	.L267
 4140              	.LVL486:
 4141              	.L275:
 297:Drivers/lvgl/src/draw/sw/blend/lv_draw_sw_blend_to_al88.c ****                 for(x = 0; x < w; x++) {
 4142              		.loc 1 297 13 view .LVU1354
 4143              	.LBE369:
 222:Drivers/lvgl/src/draw/sw/blend/lv_draw_sw_blend_to_al88.c ****         if(LV_RESULT_INVALID == LV_DRAW_SW_COLOR_BLEND_TO_AL88(dsc)) {
 4144              		.loc 1 222 21 discriminator 1 view .LVU1355
 4145 0040 B8F1FC0F 		cmp	r8, #252
 4146 0044 74D9     		bls	.L253
 223:Drivers/lvgl/src/draw/sw/blend/lv_draw_sw_blend_to_al88.c ****             lv_color16a_t color16a;
ARM GAS  /var/folders/qx/2_175_4n2s19vhvtspjhb3qh0000gn/T//cc7k2hqg.s 			page 113


 4147              		.loc 1 223 9 is_stmt 1 view .LVU1356
 4148              	.LBB372:
 224:Drivers/lvgl/src/draw/sw/blend/lv_draw_sw_blend_to_al88.c ****             color16a.lumi = lv_color_luminance(dsc->color);
 4149              		.loc 1 224 13 view .LVU1357
 225:Drivers/lvgl/src/draw/sw/blend/lv_draw_sw_blend_to_al88.c ****             color16a.alpha = 255;
 4150              		.loc 1 225 13 view .LVU1358
 225:Drivers/lvgl/src/draw/sw/blend/lv_draw_sw_blend_to_al88.c ****             color16a.alpha = 255;
 4151              		.loc 1 225 29 is_stmt 0 view .LVU1359
 4152 0046 A069     		ldr	r0, [r4, #24]
 4153 0048 FFF7FEFF 		bl	lv_color_luminance
 4154              	.LVL487:
 225:Drivers/lvgl/src/draw/sw/blend/lv_draw_sw_blend_to_al88.c ****             color16a.alpha = 255;
 4155              		.loc 1 225 27 discriminator 1 view .LVU1360
 4156 004c 8DF80C00 		strb	r0, [sp, #12]
 226:Drivers/lvgl/src/draw/sw/blend/lv_draw_sw_blend_to_al88.c ****             lv_color16a_t * dest_buf = dsc->dest_buf;
 4157              		.loc 1 226 13 is_stmt 1 view .LVU1361
 226:Drivers/lvgl/src/draw/sw/blend/lv_draw_sw_blend_to_al88.c ****             lv_color16a_t * dest_buf = dsc->dest_buf;
 4158              		.loc 1 226 28 is_stmt 0 view .LVU1362
 4159 0050 FF23     		movs	r3, #255
 4160 0052 8DF80D30 		strb	r3, [sp, #13]
 227:Drivers/lvgl/src/draw/sw/blend/lv_draw_sw_blend_to_al88.c ****             for(y = 0; y < h; y++) {
 4161              		.loc 1 227 13 is_stmt 1 view .LVU1363
 227:Drivers/lvgl/src/draw/sw/blend/lv_draw_sw_blend_to_al88.c ****             for(y = 0; y < h; y++) {
 4162              		.loc 1 227 29 is_stmt 0 view .LVU1364
 4163 0056 2268     		ldr	r2, [r4]
 4164              	.LVL488:
 228:Drivers/lvgl/src/draw/sw/blend/lv_draw_sw_blend_to_al88.c ****                 for(x = 0; x < w - 16; x += 16) {
 4165              		.loc 1 228 13 is_stmt 1 view .LVU1365
 228:Drivers/lvgl/src/draw/sw/blend/lv_draw_sw_blend_to_al88.c ****                 for(x = 0; x < w - 16; x += 16) {
 4166              		.loc 1 228 19 is_stmt 0 view .LVU1366
 4167 0058 0024     		movs	r4, #0
 4168              	.LVL489:
 228:Drivers/lvgl/src/draw/sw/blend/lv_draw_sw_blend_to_al88.c ****                 for(x = 0; x < w - 16; x += 16) {
 4169              		.loc 1 228 13 view .LVU1367
 4170 005a 65E0     		b	.L254
 4171              	.LVL490:
 4172              	.L255:
 230:Drivers/lvgl/src/draw/sw/blend/lv_draw_sw_blend_to_al88.c ****                     dest_buf[x + 1] = color16a;
 4173              		.loc 1 230 21 is_stmt 1 view .LVU1368
 230:Drivers/lvgl/src/draw/sw/blend/lv_draw_sw_blend_to_al88.c ****                     dest_buf[x + 1] = color16a;
 4174              		.loc 1 230 37 is_stmt 0 view .LVU1369
 4175 005c BDF80C10 		ldrh	r1, [sp, #12]	@ unaligned
 4176 0060 22F81310 		strh	r1, [r2, r3, lsl #1]	@ unaligned
 231:Drivers/lvgl/src/draw/sw/blend/lv_draw_sw_blend_to_al88.c ****                     dest_buf[x + 2] = color16a;
 4177              		.loc 1 231 21 is_stmt 1 view .LVU1370
 231:Drivers/lvgl/src/draw/sw/blend/lv_draw_sw_blend_to_al88.c ****                     dest_buf[x + 2] = color16a;
 4178              		.loc 1 231 29 is_stmt 0 view .LVU1371
 4179 0064 591C     		adds	r1, r3, #1
 231:Drivers/lvgl/src/draw/sw/blend/lv_draw_sw_blend_to_al88.c ****                     dest_buf[x + 2] = color16a;
 4180              		.loc 1 231 37 view .LVU1372
 4181 0066 BDF80C00 		ldrh	r0, [sp, #12]	@ unaligned
 4182 006a 22F81100 		strh	r0, [r2, r1, lsl #1]	@ unaligned
 232:Drivers/lvgl/src/draw/sw/blend/lv_draw_sw_blend_to_al88.c ****                     dest_buf[x + 3] = color16a;
 4183              		.loc 1 232 21 is_stmt 1 view .LVU1373
 232:Drivers/lvgl/src/draw/sw/blend/lv_draw_sw_blend_to_al88.c ****                     dest_buf[x + 3] = color16a;
 4184              		.loc 1 232 29 is_stmt 0 view .LVU1374
 4185 006e 991C     		adds	r1, r3, #2
ARM GAS  /var/folders/qx/2_175_4n2s19vhvtspjhb3qh0000gn/T//cc7k2hqg.s 			page 114


 232:Drivers/lvgl/src/draw/sw/blend/lv_draw_sw_blend_to_al88.c ****                     dest_buf[x + 3] = color16a;
 4186              		.loc 1 232 37 view .LVU1375
 4187 0070 BDF80C00 		ldrh	r0, [sp, #12]	@ unaligned
 4188 0074 22F81100 		strh	r0, [r2, r1, lsl #1]	@ unaligned
 233:Drivers/lvgl/src/draw/sw/blend/lv_draw_sw_blend_to_al88.c **** 
 4189              		.loc 1 233 21 is_stmt 1 view .LVU1376
 233:Drivers/lvgl/src/draw/sw/blend/lv_draw_sw_blend_to_al88.c **** 
 4190              		.loc 1 233 29 is_stmt 0 view .LVU1377
 4191 0078 D91C     		adds	r1, r3, #3
 233:Drivers/lvgl/src/draw/sw/blend/lv_draw_sw_blend_to_al88.c **** 
 4192              		.loc 1 233 37 view .LVU1378
 4193 007a BDF80C00 		ldrh	r0, [sp, #12]	@ unaligned
 4194 007e 22F81100 		strh	r0, [r2, r1, lsl #1]	@ unaligned
 235:Drivers/lvgl/src/draw/sw/blend/lv_draw_sw_blend_to_al88.c ****                     dest_buf[x + 5] = color16a;
 4195              		.loc 1 235 21 is_stmt 1 view .LVU1379
 235:Drivers/lvgl/src/draw/sw/blend/lv_draw_sw_blend_to_al88.c ****                     dest_buf[x + 5] = color16a;
 4196              		.loc 1 235 29 is_stmt 0 view .LVU1380
 4197 0082 191D     		adds	r1, r3, #4
 235:Drivers/lvgl/src/draw/sw/blend/lv_draw_sw_blend_to_al88.c ****                     dest_buf[x + 5] = color16a;
 4198              		.loc 1 235 37 view .LVU1381
 4199 0084 BDF80C00 		ldrh	r0, [sp, #12]	@ unaligned
 4200 0088 22F81100 		strh	r0, [r2, r1, lsl #1]	@ unaligned
 236:Drivers/lvgl/src/draw/sw/blend/lv_draw_sw_blend_to_al88.c ****                     dest_buf[x + 6] = color16a;
 4201              		.loc 1 236 21 is_stmt 1 view .LVU1382
 236:Drivers/lvgl/src/draw/sw/blend/lv_draw_sw_blend_to_al88.c ****                     dest_buf[x + 6] = color16a;
 4202              		.loc 1 236 29 is_stmt 0 view .LVU1383
 4203 008c 591D     		adds	r1, r3, #5
 236:Drivers/lvgl/src/draw/sw/blend/lv_draw_sw_blend_to_al88.c ****                     dest_buf[x + 6] = color16a;
 4204              		.loc 1 236 37 view .LVU1384
 4205 008e BDF80C00 		ldrh	r0, [sp, #12]	@ unaligned
 4206 0092 22F81100 		strh	r0, [r2, r1, lsl #1]	@ unaligned
 237:Drivers/lvgl/src/draw/sw/blend/lv_draw_sw_blend_to_al88.c ****                     dest_buf[x + 7] = color16a;
 4207              		.loc 1 237 21 is_stmt 1 view .LVU1385
 237:Drivers/lvgl/src/draw/sw/blend/lv_draw_sw_blend_to_al88.c ****                     dest_buf[x + 7] = color16a;
 4208              		.loc 1 237 29 is_stmt 0 view .LVU1386
 4209 0096 991D     		adds	r1, r3, #6
 237:Drivers/lvgl/src/draw/sw/blend/lv_draw_sw_blend_to_al88.c ****                     dest_buf[x + 7] = color16a;
 4210              		.loc 1 237 37 view .LVU1387
 4211 0098 BDF80C00 		ldrh	r0, [sp, #12]	@ unaligned
 4212 009c 22F81100 		strh	r0, [r2, r1, lsl #1]	@ unaligned
 238:Drivers/lvgl/src/draw/sw/blend/lv_draw_sw_blend_to_al88.c **** 
 4213              		.loc 1 238 21 is_stmt 1 view .LVU1388
 238:Drivers/lvgl/src/draw/sw/blend/lv_draw_sw_blend_to_al88.c **** 
 4214              		.loc 1 238 29 is_stmt 0 view .LVU1389
 4215 00a0 D91D     		adds	r1, r3, #7
 238:Drivers/lvgl/src/draw/sw/blend/lv_draw_sw_blend_to_al88.c **** 
 4216              		.loc 1 238 37 view .LVU1390
 4217 00a2 BDF80C00 		ldrh	r0, [sp, #12]	@ unaligned
 4218 00a6 22F81100 		strh	r0, [r2, r1, lsl #1]	@ unaligned
 240:Drivers/lvgl/src/draw/sw/blend/lv_draw_sw_blend_to_al88.c ****                     dest_buf[x + 9] = color16a;
 4219              		.loc 1 240 21 is_stmt 1 view .LVU1391
 240:Drivers/lvgl/src/draw/sw/blend/lv_draw_sw_blend_to_al88.c ****                     dest_buf[x + 9] = color16a;
 4220              		.loc 1 240 29 is_stmt 0 view .LVU1392
 4221 00aa 03F10801 		add	r1, r3, #8
 240:Drivers/lvgl/src/draw/sw/blend/lv_draw_sw_blend_to_al88.c ****                     dest_buf[x + 9] = color16a;
 4222              		.loc 1 240 37 view .LVU1393
 4223 00ae BDF80C00 		ldrh	r0, [sp, #12]	@ unaligned
ARM GAS  /var/folders/qx/2_175_4n2s19vhvtspjhb3qh0000gn/T//cc7k2hqg.s 			page 115


 4224 00b2 22F81100 		strh	r0, [r2, r1, lsl #1]	@ unaligned
 241:Drivers/lvgl/src/draw/sw/blend/lv_draw_sw_blend_to_al88.c ****                     dest_buf[x + 10] = color16a;
 4225              		.loc 1 241 21 is_stmt 1 view .LVU1394
 241:Drivers/lvgl/src/draw/sw/blend/lv_draw_sw_blend_to_al88.c ****                     dest_buf[x + 10] = color16a;
 4226              		.loc 1 241 29 is_stmt 0 view .LVU1395
 4227 00b6 03F10901 		add	r1, r3, #9
 241:Drivers/lvgl/src/draw/sw/blend/lv_draw_sw_blend_to_al88.c ****                     dest_buf[x + 10] = color16a;
 4228              		.loc 1 241 37 view .LVU1396
 4229 00ba BDF80C00 		ldrh	r0, [sp, #12]	@ unaligned
 4230 00be 22F81100 		strh	r0, [r2, r1, lsl #1]	@ unaligned
 242:Drivers/lvgl/src/draw/sw/blend/lv_draw_sw_blend_to_al88.c ****                     dest_buf[x + 11] = color16a;
 4231              		.loc 1 242 21 is_stmt 1 view .LVU1397
 242:Drivers/lvgl/src/draw/sw/blend/lv_draw_sw_blend_to_al88.c ****                     dest_buf[x + 11] = color16a;
 4232              		.loc 1 242 29 is_stmt 0 view .LVU1398
 4233 00c2 03F10A01 		add	r1, r3, #10
 242:Drivers/lvgl/src/draw/sw/blend/lv_draw_sw_blend_to_al88.c ****                     dest_buf[x + 11] = color16a;
 4234              		.loc 1 242 38 view .LVU1399
 4235 00c6 BDF80C00 		ldrh	r0, [sp, #12]	@ unaligned
 4236 00ca 22F81100 		strh	r0, [r2, r1, lsl #1]	@ unaligned
 243:Drivers/lvgl/src/draw/sw/blend/lv_draw_sw_blend_to_al88.c **** 
 4237              		.loc 1 243 21 is_stmt 1 view .LVU1400
 243:Drivers/lvgl/src/draw/sw/blend/lv_draw_sw_blend_to_al88.c **** 
 4238              		.loc 1 243 29 is_stmt 0 view .LVU1401
 4239 00ce 03F10B01 		add	r1, r3, #11
 243:Drivers/lvgl/src/draw/sw/blend/lv_draw_sw_blend_to_al88.c **** 
 4240              		.loc 1 243 38 view .LVU1402
 4241 00d2 BDF80C00 		ldrh	r0, [sp, #12]	@ unaligned
 4242 00d6 22F81100 		strh	r0, [r2, r1, lsl #1]	@ unaligned
 245:Drivers/lvgl/src/draw/sw/blend/lv_draw_sw_blend_to_al88.c ****                     dest_buf[x + 13] = color16a;
 4243              		.loc 1 245 21 is_stmt 1 view .LVU1403
 245:Drivers/lvgl/src/draw/sw/blend/lv_draw_sw_blend_to_al88.c ****                     dest_buf[x + 13] = color16a;
 4244              		.loc 1 245 29 is_stmt 0 view .LVU1404
 4245 00da 03F10C01 		add	r1, r3, #12
 245:Drivers/lvgl/src/draw/sw/blend/lv_draw_sw_blend_to_al88.c ****                     dest_buf[x + 13] = color16a;
 4246              		.loc 1 245 38 view .LVU1405
 4247 00de BDF80C00 		ldrh	r0, [sp, #12]	@ unaligned
 4248 00e2 22F81100 		strh	r0, [r2, r1, lsl #1]	@ unaligned
 246:Drivers/lvgl/src/draw/sw/blend/lv_draw_sw_blend_to_al88.c ****                     dest_buf[x + 14] = color16a;
 4249              		.loc 1 246 21 is_stmt 1 view .LVU1406
 246:Drivers/lvgl/src/draw/sw/blend/lv_draw_sw_blend_to_al88.c ****                     dest_buf[x + 14] = color16a;
 4250              		.loc 1 246 29 is_stmt 0 view .LVU1407
 4251 00e6 03F10D01 		add	r1, r3, #13
 246:Drivers/lvgl/src/draw/sw/blend/lv_draw_sw_blend_to_al88.c ****                     dest_buf[x + 14] = color16a;
 4252              		.loc 1 246 38 view .LVU1408
 4253 00ea BDF80C00 		ldrh	r0, [sp, #12]	@ unaligned
 4254 00ee 22F81100 		strh	r0, [r2, r1, lsl #1]	@ unaligned
 247:Drivers/lvgl/src/draw/sw/blend/lv_draw_sw_blend_to_al88.c ****                     dest_buf[x + 15] = color16a;
 4255              		.loc 1 247 21 is_stmt 1 view .LVU1409
 247:Drivers/lvgl/src/draw/sw/blend/lv_draw_sw_blend_to_al88.c ****                     dest_buf[x + 15] = color16a;
 4256              		.loc 1 247 29 is_stmt 0 view .LVU1410
 4257 00f2 03F10E01 		add	r1, r3, #14
 247:Drivers/lvgl/src/draw/sw/blend/lv_draw_sw_blend_to_al88.c ****                     dest_buf[x + 15] = color16a;
 4258              		.loc 1 247 38 view .LVU1411
 4259 00f6 BDF80C00 		ldrh	r0, [sp, #12]	@ unaligned
 4260 00fa 22F81100 		strh	r0, [r2, r1, lsl #1]	@ unaligned
 248:Drivers/lvgl/src/draw/sw/blend/lv_draw_sw_blend_to_al88.c ****                 }
 4261              		.loc 1 248 21 is_stmt 1 view .LVU1412
ARM GAS  /var/folders/qx/2_175_4n2s19vhvtspjhb3qh0000gn/T//cc7k2hqg.s 			page 116


 248:Drivers/lvgl/src/draw/sw/blend/lv_draw_sw_blend_to_al88.c ****                 }
 4262              		.loc 1 248 29 is_stmt 0 view .LVU1413
 4263 00fe 03F10F01 		add	r1, r3, #15
 248:Drivers/lvgl/src/draw/sw/blend/lv_draw_sw_blend_to_al88.c ****                 }
 4264              		.loc 1 248 38 view .LVU1414
 4265 0102 BDF80C00 		ldrh	r0, [sp, #12]	@ unaligned
 4266 0106 22F81100 		strh	r0, [r2, r1, lsl #1]	@ unaligned
 229:Drivers/lvgl/src/draw/sw/blend/lv_draw_sw_blend_to_al88.c ****                     dest_buf[x + 0] = color16a;
 4267              		.loc 1 229 42 is_stmt 1 discriminator 3 view .LVU1415
 4268 010a 1033     		adds	r3, r3, #16
 4269              	.LVL491:
 4270              	.L258:
 229:Drivers/lvgl/src/draw/sw/blend/lv_draw_sw_blend_to_al88.c ****                     dest_buf[x + 0] = color16a;
 4271              		.loc 1 229 30 discriminator 1 view .LVU1416
 229:Drivers/lvgl/src/draw/sw/blend/lv_draw_sw_blend_to_al88.c ****                     dest_buf[x + 0] = color16a;
 4272              		.loc 1 229 34 is_stmt 0 discriminator 1 view .LVU1417
 4273 010c A5F11001 		sub	r1, r5, #16
 229:Drivers/lvgl/src/draw/sw/blend/lv_draw_sw_blend_to_al88.c ****                     dest_buf[x + 0] = color16a;
 4274              		.loc 1 229 30 discriminator 1 view .LVU1418
 4275 0110 9942     		cmp	r1, r3
 4276 0112 A3DC     		bgt	.L255
 4277 0114 04E0     		b	.L256
 4278              	.L257:
 251:Drivers/lvgl/src/draw/sw/blend/lv_draw_sw_blend_to_al88.c ****                 }
 4279              		.loc 1 251 21 is_stmt 1 view .LVU1419
 251:Drivers/lvgl/src/draw/sw/blend/lv_draw_sw_blend_to_al88.c ****                 }
 4280              		.loc 1 251 33 is_stmt 0 view .LVU1420
 4281 0116 BDF80C10 		ldrh	r1, [sp, #12]	@ unaligned
 4282 011a 22F81310 		strh	r1, [r2, r3, lsl #1]	@ unaligned
 250:Drivers/lvgl/src/draw/sw/blend/lv_draw_sw_blend_to_al88.c ****                     dest_buf[x] = color16a;
 4283              		.loc 1 250 32 is_stmt 1 discriminator 2 view .LVU1421
 4284 011e 0133     		adds	r3, r3, #1
 4285              	.LVL492:
 4286              	.L256:
 250:Drivers/lvgl/src/draw/sw/blend/lv_draw_sw_blend_to_al88.c ****                     dest_buf[x] = color16a;
 4287              		.loc 1 250 25 discriminator 1 view .LVU1422
 4288 0120 AB42     		cmp	r3, r5
 4289 0122 F8DB     		blt	.L257
 254:Drivers/lvgl/src/draw/sw/blend/lv_draw_sw_blend_to_al88.c ****             }
 4290              		.loc 1 254 17 view .LVU1423
 4291              	.LVL493:
 4292              	.LBB373:
 4293              	.LBI373:
1033:Drivers/lvgl/src/draw/sw/blend/lv_draw_sw_blend_to_al88.c **** {
 4294              		.loc 1 1033 44 view .LVU1424
 4295              	.LBB374:
 4296              		.loc 1 1035 5 view .LVU1425
 4297              		.loc 1 1035 12 is_stmt 0 view .LVU1426
 4298 0124 5A44     		add	r2, r2, fp
 4299              	.LVL494:
 4300              		.loc 1 1035 12 view .LVU1427
 4301              	.LBE374:
 4302              	.LBE373:
 228:Drivers/lvgl/src/draw/sw/blend/lv_draw_sw_blend_to_al88.c ****                 for(x = 0; x < w - 16; x += 16) {
 4303              		.loc 1 228 32 is_stmt 1 discriminator 2 view .LVU1428
 4304 0126 0134     		adds	r4, r4, #1
 4305              	.LVL495:
ARM GAS  /var/folders/qx/2_175_4n2s19vhvtspjhb3qh0000gn/T//cc7k2hqg.s 			page 117


 4306              	.L254:
 228:Drivers/lvgl/src/draw/sw/blend/lv_draw_sw_blend_to_al88.c ****                 for(x = 0; x < w - 16; x += 16) {
 4307              		.loc 1 228 26 discriminator 1 view .LVU1429
 4308 0128 5445     		cmp	r4, r10
 4309 012a 50DA     		bge	.L251
 229:Drivers/lvgl/src/draw/sw/blend/lv_draw_sw_blend_to_al88.c ****                     dest_buf[x + 0] = color16a;
 4310              		.loc 1 229 23 is_stmt 0 view .LVU1430
 4311 012c 0023     		movs	r3, #0
 4312 012e EDE7     		b	.L258
 4313              	.LVL496:
 4314              	.L253:
 229:Drivers/lvgl/src/draw/sw/blend/lv_draw_sw_blend_to_al88.c ****                     dest_buf[x + 0] = color16a;
 4315              		.loc 1 229 23 view .LVU1431
 4316              	.LBE372:
 259:Drivers/lvgl/src/draw/sw/blend/lv_draw_sw_blend_to_al88.c ****         if(LV_RESULT_INVALID == LV_DRAW_SW_COLOR_BLEND_TO_AL88_WITH_OPA(dsc)) {
 4317              		.loc 1 259 10 is_stmt 1 view .LVU1432
 260:Drivers/lvgl/src/draw/sw/blend/lv_draw_sw_blend_to_al88.c ****             lv_color16a_t color16a;
 4318              		.loc 1 260 9 view .LVU1433
 4319              	.LBB375:
 261:Drivers/lvgl/src/draw/sw/blend/lv_draw_sw_blend_to_al88.c ****             color16a.lumi = lv_color_luminance(dsc->color);
 4320              		.loc 1 261 13 view .LVU1434
 262:Drivers/lvgl/src/draw/sw/blend/lv_draw_sw_blend_to_al88.c ****             color16a.alpha = opa;
 4321              		.loc 1 262 13 view .LVU1435
 262:Drivers/lvgl/src/draw/sw/blend/lv_draw_sw_blend_to_al88.c ****             color16a.alpha = opa;
 4322              		.loc 1 262 29 is_stmt 0 view .LVU1436
 4323 0130 A069     		ldr	r0, [r4, #24]
 4324 0132 FFF7FEFF 		bl	lv_color_luminance
 4325              	.LVL497:
 262:Drivers/lvgl/src/draw/sw/blend/lv_draw_sw_blend_to_al88.c ****             color16a.alpha = opa;
 4326              		.loc 1 262 27 discriminator 1 view .LVU1437
 4327 0136 8DF80C00 		strb	r0, [sp, #12]
 263:Drivers/lvgl/src/draw/sw/blend/lv_draw_sw_blend_to_al88.c ****             lv_color16a_t * dest_buf = dsc->dest_buf;
 4328              		.loc 1 263 13 is_stmt 1 view .LVU1438
 263:Drivers/lvgl/src/draw/sw/blend/lv_draw_sw_blend_to_al88.c ****             lv_color16a_t * dest_buf = dsc->dest_buf;
 4329              		.loc 1 263 28 is_stmt 0 view .LVU1439
 4330 013a 8DF80D80 		strb	r8, [sp, #13]
 264:Drivers/lvgl/src/draw/sw/blend/lv_draw_sw_blend_to_al88.c ****             for(y = 0; y < h; y++) {
 4331              		.loc 1 264 13 is_stmt 1 view .LVU1440
 264:Drivers/lvgl/src/draw/sw/blend/lv_draw_sw_blend_to_al88.c ****             for(y = 0; y < h; y++) {
 4332              		.loc 1 264 29 is_stmt 0 view .LVU1441
 4333 013e 2668     		ldr	r6, [r4]
 4334              	.LVL498:
 265:Drivers/lvgl/src/draw/sw/blend/lv_draw_sw_blend_to_al88.c ****                 for(x = 0; x < w; x++) {
 4335              		.loc 1 265 13 is_stmt 1 view .LVU1442
 265:Drivers/lvgl/src/draw/sw/blend/lv_draw_sw_blend_to_al88.c ****                 for(x = 0; x < w; x++) {
 4336              		.loc 1 265 19 is_stmt 0 view .LVU1443
 4337 0140 0027     		movs	r7, #0
 265:Drivers/lvgl/src/draw/sw/blend/lv_draw_sw_blend_to_al88.c ****                 for(x = 0; x < w; x++) {
 4338              		.loc 1 265 13 view .LVU1444
 4339 0142 0AE0     		b	.L260
 4340              	.LVL499:
 4341              	.L261:
 267:Drivers/lvgl/src/draw/sw/blend/lv_draw_sw_blend_to_al88.c ****                 }
 4342              		.loc 1 267 21 is_stmt 1 view .LVU1445
 4343 0144 04AA     		add	r2, sp, #16
 4344 0146 06EB4401 		add	r1, r6, r4, lsl #1
 4345 014a 0398     		ldr	r0, [sp, #12]
ARM GAS  /var/folders/qx/2_175_4n2s19vhvtspjhb3qh0000gn/T//cc7k2hqg.s 			page 118


 4346 014c FFF7FEFF 		bl	lv_color_16a_16a_mix
 4347              	.LVL500:
 266:Drivers/lvgl/src/draw/sw/blend/lv_draw_sw_blend_to_al88.c ****                     lv_color_16a_16a_mix(color16a, &dest_buf[x], &cache);
 4348              		.loc 1 266 36 discriminator 3 view .LVU1446
 4349 0150 0134     		adds	r4, r4, #1
 4350              	.LVL501:
 4351              	.L262:
 266:Drivers/lvgl/src/draw/sw/blend/lv_draw_sw_blend_to_al88.c ****                     lv_color_16a_16a_mix(color16a, &dest_buf[x], &cache);
 4352              		.loc 1 266 30 discriminator 1 view .LVU1447
 4353 0152 AC42     		cmp	r4, r5
 4354 0154 F6DB     		blt	.L261
 269:Drivers/lvgl/src/draw/sw/blend/lv_draw_sw_blend_to_al88.c ****             }
 4355              		.loc 1 269 17 view .LVU1448
 4356              	.LVL502:
 4357              	.LBB376:
 4358              	.LBI376:
1033:Drivers/lvgl/src/draw/sw/blend/lv_draw_sw_blend_to_al88.c **** {
 4359              		.loc 1 1033 44 view .LVU1449
 4360              	.LBB377:
 4361              		.loc 1 1035 5 view .LVU1450
 4362              		.loc 1 1035 12 is_stmt 0 view .LVU1451
 4363 0156 5E44     		add	r6, r6, fp
 4364              	.LVL503:
 4365              		.loc 1 1035 12 view .LVU1452
 4366              	.LBE377:
 4367              	.LBE376:
 265:Drivers/lvgl/src/draw/sw/blend/lv_draw_sw_blend_to_al88.c ****                 for(x = 0; x < w; x++) {
 4368              		.loc 1 265 32 is_stmt 1 discriminator 2 view .LVU1453
 4369 0158 0137     		adds	r7, r7, #1
 4370              	.LVL504:
 4371              	.L260:
 265:Drivers/lvgl/src/draw/sw/blend/lv_draw_sw_blend_to_al88.c ****                 for(x = 0; x < w; x++) {
 4372              		.loc 1 265 26 discriminator 1 view .LVU1454
 4373 015a 5745     		cmp	r7, r10
 4374 015c 37DA     		bge	.L251
 266:Drivers/lvgl/src/draw/sw/blend/lv_draw_sw_blend_to_al88.c ****                     lv_color_16a_16a_mix(color16a, &dest_buf[x], &cache);
 4375              		.loc 1 266 23 is_stmt 0 view .LVU1455
 4376 015e 0024     		movs	r4, #0
 4377 0160 F7E7     		b	.L262
 4378              	.LVL505:
 4379              	.L276:
 266:Drivers/lvgl/src/draw/sw/blend/lv_draw_sw_blend_to_al88.c ****                     lv_color_16a_16a_mix(color16a, &dest_buf[x], &cache);
 4380              		.loc 1 266 23 view .LVU1456
 4381              	.LBE375:
 276:Drivers/lvgl/src/draw/sw/blend/lv_draw_sw_blend_to_al88.c ****             lv_color16a_t color16a;
 4382              		.loc 1 276 9 is_stmt 1 view .LVU1457
 4383              	.LBB378:
 277:Drivers/lvgl/src/draw/sw/blend/lv_draw_sw_blend_to_al88.c ****             color16a.lumi = lv_color_luminance(dsc->color);
 4384              		.loc 1 277 13 view .LVU1458
 278:Drivers/lvgl/src/draw/sw/blend/lv_draw_sw_blend_to_al88.c ****             lv_color16a_t * dest_buf = (lv_color16a_t *)dsc->dest_buf;
 4385              		.loc 1 278 13 view .LVU1459
 278:Drivers/lvgl/src/draw/sw/blend/lv_draw_sw_blend_to_al88.c ****             lv_color16a_t * dest_buf = (lv_color16a_t *)dsc->dest_buf;
 4386              		.loc 1 278 29 is_stmt 0 view .LVU1460
 4387 0162 A069     		ldr	r0, [r4, #24]
 4388 0164 FFF7FEFF 		bl	lv_color_luminance
 4389              	.LVL506:
 278:Drivers/lvgl/src/draw/sw/blend/lv_draw_sw_blend_to_al88.c ****             lv_color16a_t * dest_buf = (lv_color16a_t *)dsc->dest_buf;
ARM GAS  /var/folders/qx/2_175_4n2s19vhvtspjhb3qh0000gn/T//cc7k2hqg.s 			page 119


 4390              		.loc 1 278 27 discriminator 1 view .LVU1461
 4391 0168 8DF80C00 		strb	r0, [sp, #12]
 279:Drivers/lvgl/src/draw/sw/blend/lv_draw_sw_blend_to_al88.c ****             for(y = 0; y < h; y++) {
 4392              		.loc 1 279 13 is_stmt 1 view .LVU1462
 279:Drivers/lvgl/src/draw/sw/blend/lv_draw_sw_blend_to_al88.c ****             for(y = 0; y < h; y++) {
 4393              		.loc 1 279 29 is_stmt 0 view .LVU1463
 4394 016c 2768     		ldr	r7, [r4]
 4395              	.LVL507:
 280:Drivers/lvgl/src/draw/sw/blend/lv_draw_sw_blend_to_al88.c ****                 for(x = 0; x < w; x++) {
 4396              		.loc 1 280 13 is_stmt 1 view .LVU1464
 280:Drivers/lvgl/src/draw/sw/blend/lv_draw_sw_blend_to_al88.c ****                 for(x = 0; x < w; x++) {
 4397              		.loc 1 280 19 is_stmt 0 view .LVU1465
 4398 016e 4FF00008 		mov	r8, #0
 4399              	.LVL508:
 280:Drivers/lvgl/src/draw/sw/blend/lv_draw_sw_blend_to_al88.c ****                 for(x = 0; x < w; x++) {
 4400              		.loc 1 280 13 view .LVU1466
 4401 0172 10E0     		b	.L264
 4402              	.LVL509:
 4403              	.L265:
 282:Drivers/lvgl/src/draw/sw/blend/lv_draw_sw_blend_to_al88.c ****                     lv_color_16a_16a_mix(color16a, &dest_buf[x], &cache);
 4404              		.loc 1 282 21 is_stmt 1 view .LVU1467
 282:Drivers/lvgl/src/draw/sw/blend/lv_draw_sw_blend_to_al88.c ****                     lv_color_16a_16a_mix(color16a, &dest_buf[x], &cache);
 4405              		.loc 1 282 42 is_stmt 0 view .LVU1468
 4406 0174 335D     		ldrb	r3, [r6, r4]	@ zero_extendqisi2
 282:Drivers/lvgl/src/draw/sw/blend/lv_draw_sw_blend_to_al88.c ****                     lv_color_16a_16a_mix(color16a, &dest_buf[x], &cache);
 4407              		.loc 1 282 36 view .LVU1469
 4408 0176 8DF80D30 		strb	r3, [sp, #13]
 283:Drivers/lvgl/src/draw/sw/blend/lv_draw_sw_blend_to_al88.c ****                 }
 4409              		.loc 1 283 21 is_stmt 1 view .LVU1470
 4410 017a 04AA     		add	r2, sp, #16
 4411 017c 07EB4401 		add	r1, r7, r4, lsl #1
 4412 0180 0398     		ldr	r0, [sp, #12]
 4413 0182 FFF7FEFF 		bl	lv_color_16a_16a_mix
 4414              	.LVL510:
 281:Drivers/lvgl/src/draw/sw/blend/lv_draw_sw_blend_to_al88.c ****                     color16a.alpha = mask[x];
 4415              		.loc 1 281 36 discriminator 3 view .LVU1471
 4416 0186 0134     		adds	r4, r4, #1
 4417              	.LVL511:
 4418              	.L266:
 281:Drivers/lvgl/src/draw/sw/blend/lv_draw_sw_blend_to_al88.c ****                     color16a.alpha = mask[x];
 4419              		.loc 1 281 30 discriminator 1 view .LVU1472
 4420 0188 AC42     		cmp	r4, r5
 4421 018a F3DB     		blt	.L265
 285:Drivers/lvgl/src/draw/sw/blend/lv_draw_sw_blend_to_al88.c ****                 mask += mask_stride;
 4422              		.loc 1 285 17 view .LVU1473
 4423              	.LVL512:
 4424              	.LBB379:
 4425              	.LBI379:
1033:Drivers/lvgl/src/draw/sw/blend/lv_draw_sw_blend_to_al88.c **** {
 4426              		.loc 1 1033 44 view .LVU1474
 4427              	.LBB380:
 4428              		.loc 1 1035 5 view .LVU1475
 4429              		.loc 1 1035 12 is_stmt 0 view .LVU1476
 4430 018c 5F44     		add	r7, r7, fp
 4431              	.LVL513:
 4432              		.loc 1 1035 12 view .LVU1477
 4433              	.LBE380:
ARM GAS  /var/folders/qx/2_175_4n2s19vhvtspjhb3qh0000gn/T//cc7k2hqg.s 			page 120


 4434              	.LBE379:
 286:Drivers/lvgl/src/draw/sw/blend/lv_draw_sw_blend_to_al88.c ****             }
 4435              		.loc 1 286 17 is_stmt 1 view .LVU1478
 286:Drivers/lvgl/src/draw/sw/blend/lv_draw_sw_blend_to_al88.c ****             }
 4436              		.loc 1 286 22 is_stmt 0 view .LVU1479
 4437 018e 019B     		ldr	r3, [sp, #4]
 4438 0190 1E44     		add	r6, r6, r3
 4439              	.LVL514:
 280:Drivers/lvgl/src/draw/sw/blend/lv_draw_sw_blend_to_al88.c ****                 for(x = 0; x < w; x++) {
 4440              		.loc 1 280 32 is_stmt 1 discriminator 2 view .LVU1480
 4441 0192 08F10108 		add	r8, r8, #1
 4442              	.LVL515:
 4443              	.L264:
 280:Drivers/lvgl/src/draw/sw/blend/lv_draw_sw_blend_to_al88.c ****                 for(x = 0; x < w; x++) {
 4444              		.loc 1 280 26 discriminator 1 view .LVU1481
 4445 0196 D045     		cmp	r8, r10
 4446 0198 19DA     		bge	.L251
 281:Drivers/lvgl/src/draw/sw/blend/lv_draw_sw_blend_to_al88.c ****                     color16a.alpha = mask[x];
 4447              		.loc 1 281 23 is_stmt 0 view .LVU1482
 4448 019a 0024     		movs	r4, #0
 4449 019c F4E7     		b	.L266
 4450              	.LVL516:
 4451              	.L268:
 281:Drivers/lvgl/src/draw/sw/blend/lv_draw_sw_blend_to_al88.c ****                     color16a.alpha = mask[x];
 4452              		.loc 1 281 23 view .LVU1483
 4453              	.LBE378:
 4454              	.LBB381:
 299:Drivers/lvgl/src/draw/sw/blend/lv_draw_sw_blend_to_al88.c ****                     lv_color_16a_16a_mix(color16a, &dest_buf[x], &cache);
 4455              		.loc 1 299 21 is_stmt 1 view .LVU1484
 299:Drivers/lvgl/src/draw/sw/blend/lv_draw_sw_blend_to_al88.c ****                     lv_color_16a_16a_mix(color16a, &dest_buf[x], &cache);
 4456              		.loc 1 299 38 is_stmt 0 view .LVU1485
 4457 019e 335D     		ldrb	r3, [r6, r4]	@ zero_extendqisi2
 4458 01a0 03FB08F3 		mul	r3, r3, r8
 4459 01a4 1B0A     		lsrs	r3, r3, #8
 299:Drivers/lvgl/src/draw/sw/blend/lv_draw_sw_blend_to_al88.c ****                     lv_color_16a_16a_mix(color16a, &dest_buf[x], &cache);
 4460              		.loc 1 299 36 view .LVU1486
 4461 01a6 8DF80D30 		strb	r3, [sp, #13]
 300:Drivers/lvgl/src/draw/sw/blend/lv_draw_sw_blend_to_al88.c ****                 }
 4462              		.loc 1 300 21 is_stmt 1 view .LVU1487
 4463 01aa 04AA     		add	r2, sp, #16
 4464 01ac 07EB4401 		add	r1, r7, r4, lsl #1
 4465 01b0 0398     		ldr	r0, [sp, #12]
 4466 01b2 FFF7FEFF 		bl	lv_color_16a_16a_mix
 4467              	.LVL517:
 298:Drivers/lvgl/src/draw/sw/blend/lv_draw_sw_blend_to_al88.c ****                     color16a.alpha = LV_OPA_MIX2(mask[x], opa);
 4468              		.loc 1 298 36 discriminator 3 view .LVU1488
 4469 01b6 0134     		adds	r4, r4, #1
 4470              	.LVL518:
 4471              	.L269:
 298:Drivers/lvgl/src/draw/sw/blend/lv_draw_sw_blend_to_al88.c ****                     color16a.alpha = LV_OPA_MIX2(mask[x], opa);
 4472              		.loc 1 298 30 discriminator 1 view .LVU1489
 4473 01b8 AC42     		cmp	r4, r5
 4474 01ba F0DB     		blt	.L268
 302:Drivers/lvgl/src/draw/sw/blend/lv_draw_sw_blend_to_al88.c ****                 mask += mask_stride;
 4475              		.loc 1 302 17 view .LVU1490
 4476              	.LVL519:
 4477              	.LBB370:
ARM GAS  /var/folders/qx/2_175_4n2s19vhvtspjhb3qh0000gn/T//cc7k2hqg.s 			page 121


 4478              	.LBI370:
1033:Drivers/lvgl/src/draw/sw/blend/lv_draw_sw_blend_to_al88.c **** {
 4479              		.loc 1 1033 44 view .LVU1491
 4480              	.LBB371:
 4481              		.loc 1 1035 5 view .LVU1492
 4482              		.loc 1 1035 12 is_stmt 0 view .LVU1493
 4483 01bc 5F44     		add	r7, r7, fp
 4484              	.LVL520:
 4485              		.loc 1 1035 12 view .LVU1494
 4486              	.LBE371:
 4487              	.LBE370:
 303:Drivers/lvgl/src/draw/sw/blend/lv_draw_sw_blend_to_al88.c ****             }
 4488              		.loc 1 303 17 is_stmt 1 view .LVU1495
 303:Drivers/lvgl/src/draw/sw/blend/lv_draw_sw_blend_to_al88.c ****             }
 4489              		.loc 1 303 22 is_stmt 0 view .LVU1496
 4490 01be 019B     		ldr	r3, [sp, #4]
 4491 01c0 1E44     		add	r6, r6, r3
 4492              	.LVL521:
 297:Drivers/lvgl/src/draw/sw/blend/lv_draw_sw_blend_to_al88.c ****                 for(x = 0; x < w; x++) {
 4493              		.loc 1 297 32 is_stmt 1 discriminator 2 view .LVU1497
 4494 01c2 09F10109 		add	r9, r9, #1
 4495              	.LVL522:
 4496              	.L267:
 297:Drivers/lvgl/src/draw/sw/blend/lv_draw_sw_blend_to_al88.c ****                 for(x = 0; x < w; x++) {
 4497              		.loc 1 297 26 discriminator 1 view .LVU1498
 4498 01c6 D145     		cmp	r9, r10
 4499 01c8 01DA     		bge	.L251
 298:Drivers/lvgl/src/draw/sw/blend/lv_draw_sw_blend_to_al88.c ****                     color16a.alpha = LV_OPA_MIX2(mask[x], opa);
 4500              		.loc 1 298 23 is_stmt 0 view .LVU1499
 4501 01ca 0024     		movs	r4, #0
 4502 01cc F4E7     		b	.L269
 4503              	.LVL523:
 4504              	.L251:
 298:Drivers/lvgl/src/draw/sw/blend/lv_draw_sw_blend_to_al88.c ****                     color16a.alpha = LV_OPA_MIX2(mask[x], opa);
 4505              		.loc 1 298 23 view .LVU1500
 4506              	.LBE381:
 307:Drivers/lvgl/src/draw/sw/blend/lv_draw_sw_blend_to_al88.c **** 
 4507              		.loc 1 307 1 view .LVU1501
 4508 01ce 07B0     		add	sp, sp, #28
 4509              	.LCFI30:
 4510              		.cfi_def_cfa_offset 36
 4511              		@ sp needed
 4512 01d0 BDE8F08F 		pop	{r4, r5, r6, r7, r8, r9, r10, fp, pc}
 307:Drivers/lvgl/src/draw/sw/blend/lv_draw_sw_blend_to_al88.c **** 
 4513              		.loc 1 307 1 view .LVU1502
 4514              		.cfi_endproc
 4515              	.LFE181:
 4517              		.section	.text.lv_draw_sw_blend_image_to_al88,"ax",%progbits
 4518              		.align	1
 4519              		.global	lv_draw_sw_blend_image_to_al88
 4520              		.syntax unified
 4521              		.thumb
 4522              		.thumb_func
 4524              	lv_draw_sw_blend_image_to_al88:
 4525              	.LVL524:
 4526              	.LFB182:
 310:Drivers/lvgl/src/draw/sw/blend/lv_draw_sw_blend_to_al88.c ****     switch(dsc->src_color_format) {
ARM GAS  /var/folders/qx/2_175_4n2s19vhvtspjhb3qh0000gn/T//cc7k2hqg.s 			page 122


 4527              		.loc 1 310 1 is_stmt 1 view -0
 4528              		.cfi_startproc
 4529              		@ args = 0, pretend = 0, frame = 0
 4530              		@ frame_needed = 0, uses_anonymous_args = 0
 310:Drivers/lvgl/src/draw/sw/blend/lv_draw_sw_blend_to_al88.c ****     switch(dsc->src_color_format) {
 4531              		.loc 1 310 1 is_stmt 0 view .LVU1504
 4532 0000 08B5     		push	{r3, lr}
 4533              	.LCFI31:
 4534              		.cfi_def_cfa_offset 8
 4535              		.cfi_offset 3, -8
 4536              		.cfi_offset 14, -4
 311:Drivers/lvgl/src/draw/sw/blend/lv_draw_sw_blend_to_al88.c **** #if LV_DRAW_SW_SUPPORT_RGB565
 4537              		.loc 1 311 5 is_stmt 1 view .LVU1505
 311:Drivers/lvgl/src/draw/sw/blend/lv_draw_sw_blend_to_al88.c **** #if LV_DRAW_SW_SUPPORT_RGB565
 4538              		.loc 1 311 15 is_stmt 0 view .LVU1506
 4539 0002 90F82030 		ldrb	r3, [r0, #32]	@ zero_extendqisi2
 311:Drivers/lvgl/src/draw/sw/blend/lv_draw_sw_blend_to_al88.c **** #if LV_DRAW_SW_SUPPORT_RGB565
 4540              		.loc 1 311 5 view .LVU1507
 4541 0006 063B     		subs	r3, r3, #6
 4542 0008 0F2B     		cmp	r3, #15
 4543 000a 0BD8     		bhi	.L277
 4544 000c DFE803F0 		tbb	[pc, r3]
 4545              	.L280:
 4546 0010 16       		.byte	(.L286-.L280)/2
 4547 0011 1C       		.byte	(.L285-.L280)/2
 4548 0012 0A       		.byte	(.L277-.L280)/2
 4549 0013 0A       		.byte	(.L277-.L280)/2
 4550 0014 0A       		.byte	(.L277-.L280)/2
 4551 0015 0A       		.byte	(.L277-.L280)/2
 4552 0016 0A       		.byte	(.L277-.L280)/2
 4553 0017 0A       		.byte	(.L277-.L280)/2
 4554 0018 0A       		.byte	(.L277-.L280)/2
 4555 0019 0B       		.byte	(.L284-.L280)/2
 4556 001a 13       		.byte	(.L283-.L280)/2
 4557 001b 0F       		.byte	(.L282-.L280)/2
 4558 001c 08       		.byte	(.L281-.L280)/2
 4559 001d 0A       		.byte	(.L277-.L280)/2
 4560 001e 0A       		.byte	(.L277-.L280)/2
 4561 001f 19       		.byte	(.L279-.L280)/2
 4562              		.p2align 1
 4563              	.L281:
 314:Drivers/lvgl/src/draw/sw/blend/lv_draw_sw_blend_to_al88.c ****             break;
 4564              		.loc 1 314 13 is_stmt 1 view .LVU1508
 4565 0020 FFF7FEFF 		bl	rgb565_image_blend
 4566              	.LVL525:
 315:Drivers/lvgl/src/draw/sw/blend/lv_draw_sw_blend_to_al88.c **** #endif
 4567              		.loc 1 315 13 view .LVU1509
 4568              	.L277:
 349:Drivers/lvgl/src/draw/sw/blend/lv_draw_sw_blend_to_al88.c **** 
 4569              		.loc 1 349 1 is_stmt 0 view .LVU1510
 4570 0024 08BD     		pop	{r3, pc}
 4571              	.LVL526:
 4572              	.L284:
 319:Drivers/lvgl/src/draw/sw/blend/lv_draw_sw_blend_to_al88.c ****             break;
 4573              		.loc 1 319 13 is_stmt 1 view .LVU1511
 4574 0026 0321     		movs	r1, #3
 4575 0028 FFF7FEFF 		bl	rgb888_image_blend
ARM GAS  /var/folders/qx/2_175_4n2s19vhvtspjhb3qh0000gn/T//cc7k2hqg.s 			page 123


 4576              	.LVL527:
 320:Drivers/lvgl/src/draw/sw/blend/lv_draw_sw_blend_to_al88.c **** #endif
 4577              		.loc 1 320 13 view .LVU1512
 4578 002c FAE7     		b	.L277
 4579              	.LVL528:
 4580              	.L282:
 324:Drivers/lvgl/src/draw/sw/blend/lv_draw_sw_blend_to_al88.c ****             break;
 4581              		.loc 1 324 13 view .LVU1513
 4582 002e 0421     		movs	r1, #4
 4583 0030 FFF7FEFF 		bl	rgb888_image_blend
 4584              	.LVL529:
 325:Drivers/lvgl/src/draw/sw/blend/lv_draw_sw_blend_to_al88.c **** #endif
 4585              		.loc 1 325 13 view .LVU1514
 4586 0034 F6E7     		b	.L277
 4587              	.LVL530:
 4588              	.L283:
 329:Drivers/lvgl/src/draw/sw/blend/lv_draw_sw_blend_to_al88.c ****             break;
 4589              		.loc 1 329 13 view .LVU1515
 4590 0036 FFF7FEFF 		bl	argb8888_image_blend
 4591              	.LVL531:
 330:Drivers/lvgl/src/draw/sw/blend/lv_draw_sw_blend_to_al88.c **** #endif
 4592              		.loc 1 330 13 view .LVU1516
 4593 003a F3E7     		b	.L277
 4594              	.LVL532:
 4595              	.L286:
 334:Drivers/lvgl/src/draw/sw/blend/lv_draw_sw_blend_to_al88.c ****             break;
 4596              		.loc 1 334 13 view .LVU1517
 4597 003c FFF7FEFF 		bl	l8_image_blend
 4598              	.LVL533:
 335:Drivers/lvgl/src/draw/sw/blend/lv_draw_sw_blend_to_al88.c **** #endif
 4599              		.loc 1 335 13 view .LVU1518
 4600 0040 F0E7     		b	.L277
 4601              	.LVL534:
 4602              	.L279:
 338:Drivers/lvgl/src/draw/sw/blend/lv_draw_sw_blend_to_al88.c ****             break;
 4603              		.loc 1 338 13 view .LVU1519
 4604 0042 FFF7FEFF 		bl	al88_image_blend
 4605              	.LVL535:
 339:Drivers/lvgl/src/draw/sw/blend/lv_draw_sw_blend_to_al88.c **** #if LV_DRAW_SW_SUPPORT_I1
 4606              		.loc 1 339 13 view .LVU1520
 4607 0046 EDE7     		b	.L277
 4608              	.LVL536:
 4609              	.L285:
 342:Drivers/lvgl/src/draw/sw/blend/lv_draw_sw_blend_to_al88.c ****             break;
 4610              		.loc 1 342 13 view .LVU1521
 4611 0048 FFF7FEFF 		bl	i1_image_blend
 4612              	.LVL537:
 343:Drivers/lvgl/src/draw/sw/blend/lv_draw_sw_blend_to_al88.c **** #endif
 4613              		.loc 1 343 13 view .LVU1522
 349:Drivers/lvgl/src/draw/sw/blend/lv_draw_sw_blend_to_al88.c **** 
 4614              		.loc 1 349 1 is_stmt 0 view .LVU1523
 4615 004c EAE7     		b	.L277
 4616              		.cfi_endproc
 4617              	.LFE182:
 4619              		.text
 4620              	.Letext0:
 4621              		.file 3 "/Applications/ArmGNUToolchain/14.3.rel1/arm-none-eabi/arm-none-eabi/include/machine/_defa
ARM GAS  /var/folders/qx/2_175_4n2s19vhvtspjhb3qh0000gn/T//cc7k2hqg.s 			page 124


 4622              		.file 4 "/Applications/ArmGNUToolchain/14.3.rel1/arm-none-eabi/arm-none-eabi/include/sys/_stdint.h
 4623              		.file 5 "/Applications/ArmGNUToolchain/14.3.rel1/arm-none-eabi/lib/gcc/arm-none-eabi/14.3.1/includ
 4624              		.file 6 "Drivers/lvgl/src/draw/sw/blend/../../../misc/lv_types.h"
 4625              		.file 7 "Drivers/lvgl/src/draw/sw/blend/lv_draw_sw_blend_private.h"
 4626              		.file 8 "Drivers/lvgl/src/draw/sw/blend/../../../misc/../font/../draw/../misc/lv_area.h"
 4627              		.file 9 "Drivers/lvgl/src/draw/sw/blend/../../../misc/../font/../draw/../misc/lv_color.h"
 4628              		.file 10 "Drivers/lvgl/src/draw/sw/blend/../../../misc/lv_style.h"
ARM GAS  /var/folders/qx/2_175_4n2s19vhvtspjhb3qh0000gn/T//cc7k2hqg.s 			page 125


DEFINED SYMBOLS
                            *ABS*:00000000 lv_draw_sw_blend_to_al88.c
/var/folders/qx/2_175_4n2s19vhvtspjhb3qh0000gn/T//cc7k2hqg.s:21     .text.lv_color_16a_16a_mix:00000000 $t
/var/folders/qx/2_175_4n2s19vhvtspjhb3qh0000gn/T//cc7k2hqg.s:26     .text.lv_color_16a_16a_mix:00000000 lv_color_16a_16a_mix
/var/folders/qx/2_175_4n2s19vhvtspjhb3qh0000gn/T//cc7k2hqg.s:267    .text.blend_non_normal_pixel:00000000 $t
/var/folders/qx/2_175_4n2s19vhvtspjhb3qh0000gn/T//cc7k2hqg.s:272    .text.blend_non_normal_pixel:00000000 blend_non_normal_pixel
/var/folders/qx/2_175_4n2s19vhvtspjhb3qh0000gn/T//cc7k2hqg.s:301    .text.blend_non_normal_pixel:00000016 $d
/var/folders/qx/2_175_4n2s19vhvtspjhb3qh0000gn/T//cc7k2hqg.s:305    .text.blend_non_normal_pixel:0000001a $t
/var/folders/qx/2_175_4n2s19vhvtspjhb3qh0000gn/T//cc7k2hqg.s:386    .text.lv_color_mix_with_alpha_cache_init:00000000 $t
/var/folders/qx/2_175_4n2s19vhvtspjhb3qh0000gn/T//cc7k2hqg.s:391    .text.lv_color_mix_with_alpha_cache_init:00000000 lv_color_mix_with_alpha_cache_init
/var/folders/qx/2_175_4n2s19vhvtspjhb3qh0000gn/T//cc7k2hqg.s:466    .text.l8_image_blend:00000000 $t
/var/folders/qx/2_175_4n2s19vhvtspjhb3qh0000gn/T//cc7k2hqg.s:471    .text.l8_image_blend:00000000 l8_image_blend
/var/folders/qx/2_175_4n2s19vhvtspjhb3qh0000gn/T//cc7k2hqg.s:1003   .text.al88_image_blend:00000000 $t
/var/folders/qx/2_175_4n2s19vhvtspjhb3qh0000gn/T//cc7k2hqg.s:1008   .text.al88_image_blend:00000000 al88_image_blend
/var/folders/qx/2_175_4n2s19vhvtspjhb3qh0000gn/T//cc7k2hqg.s:1545   .text.i1_image_blend:00000000 $t
/var/folders/qx/2_175_4n2s19vhvtspjhb3qh0000gn/T//cc7k2hqg.s:1550   .text.i1_image_blend:00000000 i1_image_blend
/var/folders/qx/2_175_4n2s19vhvtspjhb3qh0000gn/T//cc7k2hqg.s:2270   .text.rgb565_image_blend:00000000 $t
/var/folders/qx/2_175_4n2s19vhvtspjhb3qh0000gn/T//cc7k2hqg.s:2275   .text.rgb565_image_blend:00000000 rgb565_image_blend
/var/folders/qx/2_175_4n2s19vhvtspjhb3qh0000gn/T//cc7k2hqg.s:2847   .text.rgb888_image_blend:00000000 $t
/var/folders/qx/2_175_4n2s19vhvtspjhb3qh0000gn/T//cc7k2hqg.s:2852   .text.rgb888_image_blend:00000000 rgb888_image_blend
/var/folders/qx/2_175_4n2s19vhvtspjhb3qh0000gn/T//cc7k2hqg.s:3443   .text.argb8888_image_blend:00000000 $t
/var/folders/qx/2_175_4n2s19vhvtspjhb3qh0000gn/T//cc7k2hqg.s:3448   .text.argb8888_image_blend:00000000 argb8888_image_blend
/var/folders/qx/2_175_4n2s19vhvtspjhb3qh0000gn/T//cc7k2hqg.s:4039   .text.lv_draw_sw_blend_color_to_al88:00000000 $t
/var/folders/qx/2_175_4n2s19vhvtspjhb3qh0000gn/T//cc7k2hqg.s:4045   .text.lv_draw_sw_blend_color_to_al88:00000000 lv_draw_sw_blend_color_to_al88
/var/folders/qx/2_175_4n2s19vhvtspjhb3qh0000gn/T//cc7k2hqg.s:4518   .text.lv_draw_sw_blend_image_to_al88:00000000 $t
/var/folders/qx/2_175_4n2s19vhvtspjhb3qh0000gn/T//cc7k2hqg.s:4524   .text.lv_draw_sw_blend_image_to_al88:00000000 lv_draw_sw_blend_image_to_al88
/var/folders/qx/2_175_4n2s19vhvtspjhb3qh0000gn/T//cc7k2hqg.s:4546   .text.lv_draw_sw_blend_image_to_al88:00000010 $d
/var/folders/qx/2_175_4n2s19vhvtspjhb3qh0000gn/T//cc7k2hqg.s:4562   .text.lv_draw_sw_blend_image_to_al88:00000020 $t

UNDEFINED SYMBOLS
lv_memset
lv_color16_luminance
lv_color24_luminance
lv_color32_luminance
lv_color_luminance
