ARM GAS  /var/folders/qx/2_175_4n2s19vhvtspjhb3qh0000gn/T//ccaVas4T.s 			page 1


   1              		.cpu cortex-m4
   2              		.arch armv7e-m
   3              		.fpu fpv4-sp-d16
   4              		.eabi_attribute 27, 1
   5              		.eabi_attribute 28, 1
   6              		.eabi_attribute 20, 1
   7              		.eabi_attribute 21, 1
   8              		.eabi_attribute 23, 3
   9              		.eabi_attribute 24, 1
  10              		.eabi_attribute 25, 1
  11              		.eabi_attribute 26, 1
  12              		.eabi_attribute 30, 1
  13              		.eabi_attribute 34, 1
  14              		.eabi_attribute 18, 4
  15              		.file	"lv_draw_sw_blend_to_i1.c"
  16              		.text
  17              	.Ltext0:
  18              		.cfi_sections	.debug_frame
  19              		.file 1 "Drivers/lvgl/src/draw/sw/blend/lv_draw_sw_blend_to_i1.c"
  20              		.section	.text.lv_color_8_8_mix,"ax",%progbits
  21              		.align	1
  22              		.syntax unified
  23              		.thumb
  24              		.thumb_func
  26              	lv_color_8_8_mix:
  27              	.LVL0:
  28              	.LFB191:
   1:Drivers/lvgl/src/draw/sw/blend/lv_draw_sw_blend_to_i1.c **** /**
   2:Drivers/lvgl/src/draw/sw/blend/lv_draw_sw_blend_to_i1.c ****  * @file lv_draw_sw_blend_to_i1.c
   3:Drivers/lvgl/src/draw/sw/blend/lv_draw_sw_blend_to_i1.c ****  *
   4:Drivers/lvgl/src/draw/sw/blend/lv_draw_sw_blend_to_i1.c ****  */
   5:Drivers/lvgl/src/draw/sw/blend/lv_draw_sw_blend_to_i1.c **** 
   6:Drivers/lvgl/src/draw/sw/blend/lv_draw_sw_blend_to_i1.c **** /*********************
   7:Drivers/lvgl/src/draw/sw/blend/lv_draw_sw_blend_to_i1.c ****  *      INCLUDES
   8:Drivers/lvgl/src/draw/sw/blend/lv_draw_sw_blend_to_i1.c ****  *********************/
   9:Drivers/lvgl/src/draw/sw/blend/lv_draw_sw_blend_to_i1.c **** #include "lv_draw_sw_blend_to_i1.h"
  10:Drivers/lvgl/src/draw/sw/blend/lv_draw_sw_blend_to_i1.c **** #if LV_USE_DRAW_SW
  11:Drivers/lvgl/src/draw/sw/blend/lv_draw_sw_blend_to_i1.c **** 
  12:Drivers/lvgl/src/draw/sw/blend/lv_draw_sw_blend_to_i1.c **** #include "lv_draw_sw_blend_private.h"
  13:Drivers/lvgl/src/draw/sw/blend/lv_draw_sw_blend_to_i1.c **** #include "../../../misc/lv_math.h"
  14:Drivers/lvgl/src/draw/sw/blend/lv_draw_sw_blend_to_i1.c **** #include "../../../display/lv_display.h"
  15:Drivers/lvgl/src/draw/sw/blend/lv_draw_sw_blend_to_i1.c **** #include "../../../core/lv_refr.h"
  16:Drivers/lvgl/src/draw/sw/blend/lv_draw_sw_blend_to_i1.c **** #include "../../../misc/lv_color.h"
  17:Drivers/lvgl/src/draw/sw/blend/lv_draw_sw_blend_to_i1.c **** #include "../../../stdlib/lv_string.h"
  18:Drivers/lvgl/src/draw/sw/blend/lv_draw_sw_blend_to_i1.c **** 
  19:Drivers/lvgl/src/draw/sw/blend/lv_draw_sw_blend_to_i1.c **** #if LV_USE_DRAW_SW_ASM == LV_DRAW_SW_ASM_NEON
  20:Drivers/lvgl/src/draw/sw/blend/lv_draw_sw_blend_to_i1.c ****     #include "neon/lv_blend_neon.h"
  21:Drivers/lvgl/src/draw/sw/blend/lv_draw_sw_blend_to_i1.c **** #elif LV_USE_DRAW_SW_ASM == LV_DRAW_SW_ASM_HELIUM
  22:Drivers/lvgl/src/draw/sw/blend/lv_draw_sw_blend_to_i1.c ****     #include "helium/lv_blend_helium.h"
  23:Drivers/lvgl/src/draw/sw/blend/lv_draw_sw_blend_to_i1.c **** #elif LV_USE_DRAW_SW_ASM == LV_DRAW_SW_ASM_CUSTOM
  24:Drivers/lvgl/src/draw/sw/blend/lv_draw_sw_blend_to_i1.c ****     #include LV_DRAW_SW_ASM_CUSTOM_INCLUDE
  25:Drivers/lvgl/src/draw/sw/blend/lv_draw_sw_blend_to_i1.c **** #endif
  26:Drivers/lvgl/src/draw/sw/blend/lv_draw_sw_blend_to_i1.c **** 
  27:Drivers/lvgl/src/draw/sw/blend/lv_draw_sw_blend_to_i1.c **** /*********************
  28:Drivers/lvgl/src/draw/sw/blend/lv_draw_sw_blend_to_i1.c ****  *      DEFINES
  29:Drivers/lvgl/src/draw/sw/blend/lv_draw_sw_blend_to_i1.c ****  *********************/
  30:Drivers/lvgl/src/draw/sw/blend/lv_draw_sw_blend_to_i1.c **** 
ARM GAS  /var/folders/qx/2_175_4n2s19vhvtspjhb3qh0000gn/T//ccaVas4T.s 			page 2


  31:Drivers/lvgl/src/draw/sw/blend/lv_draw_sw_blend_to_i1.c **** /**********************
  32:Drivers/lvgl/src/draw/sw/blend/lv_draw_sw_blend_to_i1.c ****  *      TYPEDEFS
  33:Drivers/lvgl/src/draw/sw/blend/lv_draw_sw_blend_to_i1.c ****  **********************/
  34:Drivers/lvgl/src/draw/sw/blend/lv_draw_sw_blend_to_i1.c **** 
  35:Drivers/lvgl/src/draw/sw/blend/lv_draw_sw_blend_to_i1.c **** /**********************
  36:Drivers/lvgl/src/draw/sw/blend/lv_draw_sw_blend_to_i1.c ****  *  STATIC PROTOTYPES
  37:Drivers/lvgl/src/draw/sw/blend/lv_draw_sw_blend_to_i1.c ****  **********************/
  38:Drivers/lvgl/src/draw/sw/blend/lv_draw_sw_blend_to_i1.c **** 
  39:Drivers/lvgl/src/draw/sw/blend/lv_draw_sw_blend_to_i1.c **** static void /* LV_ATTRIBUTE_FAST_MEM */ i1_image_blend(lv_draw_sw_blend_image_dsc_t * dsc);
  40:Drivers/lvgl/src/draw/sw/blend/lv_draw_sw_blend_to_i1.c **** 
  41:Drivers/lvgl/src/draw/sw/blend/lv_draw_sw_blend_to_i1.c **** #if LV_DRAW_SW_SUPPORT_L8
  42:Drivers/lvgl/src/draw/sw/blend/lv_draw_sw_blend_to_i1.c ****     static void /* LV_ATTRIBUTE_FAST_MEM */ l8_image_blend(lv_draw_sw_blend_image_dsc_t * dsc);
  43:Drivers/lvgl/src/draw/sw/blend/lv_draw_sw_blend_to_i1.c **** #endif
  44:Drivers/lvgl/src/draw/sw/blend/lv_draw_sw_blend_to_i1.c **** 
  45:Drivers/lvgl/src/draw/sw/blend/lv_draw_sw_blend_to_i1.c **** #if LV_DRAW_SW_SUPPORT_AL88
  46:Drivers/lvgl/src/draw/sw/blend/lv_draw_sw_blend_to_i1.c ****     static void /* LV_ATTRIBUTE_FAST_MEM */ al88_image_blend(lv_draw_sw_blend_image_dsc_t * dsc);
  47:Drivers/lvgl/src/draw/sw/blend/lv_draw_sw_blend_to_i1.c **** #endif
  48:Drivers/lvgl/src/draw/sw/blend/lv_draw_sw_blend_to_i1.c **** 
  49:Drivers/lvgl/src/draw/sw/blend/lv_draw_sw_blend_to_i1.c **** #if LV_DRAW_SW_SUPPORT_RGB565
  50:Drivers/lvgl/src/draw/sw/blend/lv_draw_sw_blend_to_i1.c ****     static void /* LV_ATTRIBUTE_FAST_MEM */ rgb565_image_blend(lv_draw_sw_blend_image_dsc_t * dsc);
  51:Drivers/lvgl/src/draw/sw/blend/lv_draw_sw_blend_to_i1.c **** #endif
  52:Drivers/lvgl/src/draw/sw/blend/lv_draw_sw_blend_to_i1.c **** 
  53:Drivers/lvgl/src/draw/sw/blend/lv_draw_sw_blend_to_i1.c **** #if LV_DRAW_SW_SUPPORT_RGB565_SWAPPED
  54:Drivers/lvgl/src/draw/sw/blend/lv_draw_sw_blend_to_i1.c ****     static void /* LV_ATTRIBUTE_FAST_MEM */ rgb565_swapped_image_blend(lv_draw_sw_blend_image_dsc_t
  55:Drivers/lvgl/src/draw/sw/blend/lv_draw_sw_blend_to_i1.c **** #endif
  56:Drivers/lvgl/src/draw/sw/blend/lv_draw_sw_blend_to_i1.c **** 
  57:Drivers/lvgl/src/draw/sw/blend/lv_draw_sw_blend_to_i1.c **** #if LV_DRAW_SW_SUPPORT_RGB888 || LV_DRAW_SW_SUPPORT_XRGB8888
  58:Drivers/lvgl/src/draw/sw/blend/lv_draw_sw_blend_to_i1.c **** static void /* LV_ATTRIBUTE_FAST_MEM */ rgb888_image_blend(lv_draw_sw_blend_image_dsc_t * dsc,
  59:Drivers/lvgl/src/draw/sw/blend/lv_draw_sw_blend_to_i1.c ****                                                            const uint8_t src_px_size);
  60:Drivers/lvgl/src/draw/sw/blend/lv_draw_sw_blend_to_i1.c **** #endif
  61:Drivers/lvgl/src/draw/sw/blend/lv_draw_sw_blend_to_i1.c **** 
  62:Drivers/lvgl/src/draw/sw/blend/lv_draw_sw_blend_to_i1.c **** #if LV_DRAW_SW_SUPPORT_ARGB8888
  63:Drivers/lvgl/src/draw/sw/blend/lv_draw_sw_blend_to_i1.c ****     static void /* LV_ATTRIBUTE_FAST_MEM */ argb8888_image_blend(lv_draw_sw_blend_image_dsc_t * dsc
  64:Drivers/lvgl/src/draw/sw/blend/lv_draw_sw_blend_to_i1.c **** #endif
  65:Drivers/lvgl/src/draw/sw/blend/lv_draw_sw_blend_to_i1.c **** 
  66:Drivers/lvgl/src/draw/sw/blend/lv_draw_sw_blend_to_i1.c **** static inline void /* LV_ATTRIBUTE_FAST_MEM */ lv_color_8_8_mix(const uint8_t src, uint8_t * dest, 
  67:Drivers/lvgl/src/draw/sw/blend/lv_draw_sw_blend_to_i1.c **** 
  68:Drivers/lvgl/src/draw/sw/blend/lv_draw_sw_blend_to_i1.c **** static inline void /* LV_ATTRIBUTE_FAST_MEM */ blend_non_normal_pixel(uint8_t * dest_buf, int32_t d
  69:Drivers/lvgl/src/draw/sw/blend/lv_draw_sw_blend_to_i1.c ****                                                                       lv_color32_t src,
  70:Drivers/lvgl/src/draw/sw/blend/lv_draw_sw_blend_to_i1.c ****                                                                       lv_blend_mode_t mode);
  71:Drivers/lvgl/src/draw/sw/blend/lv_draw_sw_blend_to_i1.c **** 
  72:Drivers/lvgl/src/draw/sw/blend/lv_draw_sw_blend_to_i1.c **** 
  73:Drivers/lvgl/src/draw/sw/blend/lv_draw_sw_blend_to_i1.c **** static inline void /* LV_ATTRIBUTE_FAST_MEM */ set_bit(uint8_t * buf, int32_t bit_idx);
  74:Drivers/lvgl/src/draw/sw/blend/lv_draw_sw_blend_to_i1.c **** 
  75:Drivers/lvgl/src/draw/sw/blend/lv_draw_sw_blend_to_i1.c **** static inline void /* LV_ATTRIBUTE_FAST_MEM */ clear_bit(uint8_t * buf, int32_t bit_idx);
  76:Drivers/lvgl/src/draw/sw/blend/lv_draw_sw_blend_to_i1.c **** 
  77:Drivers/lvgl/src/draw/sw/blend/lv_draw_sw_blend_to_i1.c **** static inline uint8_t /* LV_ATTRIBUTE_FAST_MEM */ get_bit(const uint8_t * buf, int32_t bit_idx);
  78:Drivers/lvgl/src/draw/sw/blend/lv_draw_sw_blend_to_i1.c **** 
  79:Drivers/lvgl/src/draw/sw/blend/lv_draw_sw_blend_to_i1.c **** static inline void * /* LV_ATTRIBUTE_FAST_MEM */ drawbuf_next_row(const void * buf, uint32_t stride
  80:Drivers/lvgl/src/draw/sw/blend/lv_draw_sw_blend_to_i1.c **** 
  81:Drivers/lvgl/src/draw/sw/blend/lv_draw_sw_blend_to_i1.c **** #if LV_DRAW_SW_SUPPORT_RGB565_SWAPPED
  82:Drivers/lvgl/src/draw/sw/blend/lv_draw_sw_blend_to_i1.c ****     static inline lv_color16_t /* LV_ATTRIBUTE_FAST_MEM */ lv_color16_from_u16(uint16_t raw);
  83:Drivers/lvgl/src/draw/sw/blend/lv_draw_sw_blend_to_i1.c **** #endif
  84:Drivers/lvgl/src/draw/sw/blend/lv_draw_sw_blend_to_i1.c **** 
  85:Drivers/lvgl/src/draw/sw/blend/lv_draw_sw_blend_to_i1.c **** /**********************
  86:Drivers/lvgl/src/draw/sw/blend/lv_draw_sw_blend_to_i1.c ****  *  STATIC VARIABLES
  87:Drivers/lvgl/src/draw/sw/blend/lv_draw_sw_blend_to_i1.c ****  **********************/
ARM GAS  /var/folders/qx/2_175_4n2s19vhvtspjhb3qh0000gn/T//ccaVas4T.s 			page 3


  88:Drivers/lvgl/src/draw/sw/blend/lv_draw_sw_blend_to_i1.c **** 
  89:Drivers/lvgl/src/draw/sw/blend/lv_draw_sw_blend_to_i1.c **** /**********************
  90:Drivers/lvgl/src/draw/sw/blend/lv_draw_sw_blend_to_i1.c ****  *      MACROS
  91:Drivers/lvgl/src/draw/sw/blend/lv_draw_sw_blend_to_i1.c ****  **********************/
  92:Drivers/lvgl/src/draw/sw/blend/lv_draw_sw_blend_to_i1.c **** 
  93:Drivers/lvgl/src/draw/sw/blend/lv_draw_sw_blend_to_i1.c **** #define I1_LUM_THRESHOLD LV_DRAW_SW_I1_LUM_THRESHOLD
  94:Drivers/lvgl/src/draw/sw/blend/lv_draw_sw_blend_to_i1.c **** 
  95:Drivers/lvgl/src/draw/sw/blend/lv_draw_sw_blend_to_i1.c **** #ifndef LV_DRAW_SW_I1_BLEND_NORMAL_TO_I1
  96:Drivers/lvgl/src/draw/sw/blend/lv_draw_sw_blend_to_i1.c ****     #define LV_DRAW_SW_I1_BLEND_NORMAL_TO_I1(...)                    LV_RESULT_INVALID
  97:Drivers/lvgl/src/draw/sw/blend/lv_draw_sw_blend_to_i1.c **** #endif
  98:Drivers/lvgl/src/draw/sw/blend/lv_draw_sw_blend_to_i1.c **** 
  99:Drivers/lvgl/src/draw/sw/blend/lv_draw_sw_blend_to_i1.c **** #ifndef LV_DRAW_SW_I1_BLEND_NORMAL_TO_I1_WITH_OPA
 100:Drivers/lvgl/src/draw/sw/blend/lv_draw_sw_blend_to_i1.c ****     #define LV_DRAW_SW_I1_BLEND_NORMAL_TO_I1_WITH_OPA(...)           LV_RESULT_INVALID
 101:Drivers/lvgl/src/draw/sw/blend/lv_draw_sw_blend_to_i1.c **** #endif
 102:Drivers/lvgl/src/draw/sw/blend/lv_draw_sw_blend_to_i1.c **** 
 103:Drivers/lvgl/src/draw/sw/blend/lv_draw_sw_blend_to_i1.c **** #ifndef LV_DRAW_SW_I1_BLEND_NORMAL_TO_I1_WITH_MASK
 104:Drivers/lvgl/src/draw/sw/blend/lv_draw_sw_blend_to_i1.c ****     #define LV_DRAW_SW_I1_BLEND_NORMAL_TO_I1_WITH_MASK(...)          LV_RESULT_INVALID
 105:Drivers/lvgl/src/draw/sw/blend/lv_draw_sw_blend_to_i1.c **** #endif
 106:Drivers/lvgl/src/draw/sw/blend/lv_draw_sw_blend_to_i1.c **** 
 107:Drivers/lvgl/src/draw/sw/blend/lv_draw_sw_blend_to_i1.c **** #ifndef LV_DRAW_SW_I1_BLEND_NORMAL_TO_I1_MIX_MASK_OPA
 108:Drivers/lvgl/src/draw/sw/blend/lv_draw_sw_blend_to_i1.c ****     #define LV_DRAW_SW_I1_BLEND_NORMAL_TO_I1_MIX_MASK_OPA(...)       LV_RESULT_INVALID
 109:Drivers/lvgl/src/draw/sw/blend/lv_draw_sw_blend_to_i1.c **** #endif
 110:Drivers/lvgl/src/draw/sw/blend/lv_draw_sw_blend_to_i1.c **** 
 111:Drivers/lvgl/src/draw/sw/blend/lv_draw_sw_blend_to_i1.c **** #ifndef LV_DRAW_SW_COLOR_BLEND_TO_I1
 112:Drivers/lvgl/src/draw/sw/blend/lv_draw_sw_blend_to_i1.c ****     #define LV_DRAW_SW_COLOR_BLEND_TO_I1(...)                         LV_RESULT_INVALID
 113:Drivers/lvgl/src/draw/sw/blend/lv_draw_sw_blend_to_i1.c **** #endif
 114:Drivers/lvgl/src/draw/sw/blend/lv_draw_sw_blend_to_i1.c **** 
 115:Drivers/lvgl/src/draw/sw/blend/lv_draw_sw_blend_to_i1.c **** #ifndef LV_DRAW_SW_COLOR_BLEND_TO_I1_WITH_OPA
 116:Drivers/lvgl/src/draw/sw/blend/lv_draw_sw_blend_to_i1.c ****     #define LV_DRAW_SW_COLOR_BLEND_TO_I1_WITH_OPA(...)                LV_RESULT_INVALID
 117:Drivers/lvgl/src/draw/sw/blend/lv_draw_sw_blend_to_i1.c **** #endif
 118:Drivers/lvgl/src/draw/sw/blend/lv_draw_sw_blend_to_i1.c **** 
 119:Drivers/lvgl/src/draw/sw/blend/lv_draw_sw_blend_to_i1.c **** #ifndef LV_DRAW_SW_COLOR_BLEND_TO_I1_WITH_MASK
 120:Drivers/lvgl/src/draw/sw/blend/lv_draw_sw_blend_to_i1.c ****     #define LV_DRAW_SW_COLOR_BLEND_TO_I1_WITH_MASK(...)               LV_RESULT_INVALID
 121:Drivers/lvgl/src/draw/sw/blend/lv_draw_sw_blend_to_i1.c **** #endif
 122:Drivers/lvgl/src/draw/sw/blend/lv_draw_sw_blend_to_i1.c **** 
 123:Drivers/lvgl/src/draw/sw/blend/lv_draw_sw_blend_to_i1.c **** #ifndef LV_DRAW_SW_COLOR_BLEND_TO_I1_MIX_MASK_OPA
 124:Drivers/lvgl/src/draw/sw/blend/lv_draw_sw_blend_to_i1.c ****     #define LV_DRAW_SW_COLOR_BLEND_TO_I1_MIX_MASK_OPA(...)            LV_RESULT_INVALID
 125:Drivers/lvgl/src/draw/sw/blend/lv_draw_sw_blend_to_i1.c **** #endif
 126:Drivers/lvgl/src/draw/sw/blend/lv_draw_sw_blend_to_i1.c **** 
 127:Drivers/lvgl/src/draw/sw/blend/lv_draw_sw_blend_to_i1.c **** #ifndef LV_DRAW_SW_RGB565_BLEND_NORMAL_TO_I1
 128:Drivers/lvgl/src/draw/sw/blend/lv_draw_sw_blend_to_i1.c ****     #define LV_DRAW_SW_RGB565_BLEND_NORMAL_TO_I1(...)                 LV_RESULT_INVALID
 129:Drivers/lvgl/src/draw/sw/blend/lv_draw_sw_blend_to_i1.c **** #endif
 130:Drivers/lvgl/src/draw/sw/blend/lv_draw_sw_blend_to_i1.c **** 
 131:Drivers/lvgl/src/draw/sw/blend/lv_draw_sw_blend_to_i1.c **** #ifndef LV_DRAW_SW_RGB565_BLEND_NORMAL_TO_I1_WITH_OPA
 132:Drivers/lvgl/src/draw/sw/blend/lv_draw_sw_blend_to_i1.c ****     #define LV_DRAW_SW_RGB565_BLEND_NORMAL_TO_I1_WITH_OPA(...)        LV_RESULT_INVALID
 133:Drivers/lvgl/src/draw/sw/blend/lv_draw_sw_blend_to_i1.c **** #endif
 134:Drivers/lvgl/src/draw/sw/blend/lv_draw_sw_blend_to_i1.c **** 
 135:Drivers/lvgl/src/draw/sw/blend/lv_draw_sw_blend_to_i1.c **** #ifndef LV_DRAW_SW_RGB565_BLEND_NORMAL_TO_I1_WITH_MASK
 136:Drivers/lvgl/src/draw/sw/blend/lv_draw_sw_blend_to_i1.c ****     #define LV_DRAW_SW_RGB565_BLEND_NORMAL_TO_I1_WITH_MASK(...)       LV_RESULT_INVALID
 137:Drivers/lvgl/src/draw/sw/blend/lv_draw_sw_blend_to_i1.c **** #endif
 138:Drivers/lvgl/src/draw/sw/blend/lv_draw_sw_blend_to_i1.c **** 
 139:Drivers/lvgl/src/draw/sw/blend/lv_draw_sw_blend_to_i1.c **** #ifndef LV_DRAW_SW_RGB565_BLEND_NORMAL_TO_I1_MIX_MASK_OPA
 140:Drivers/lvgl/src/draw/sw/blend/lv_draw_sw_blend_to_i1.c ****     #define LV_DRAW_SW_RGB565_BLEND_NORMAL_TO_I1_MIX_MASK_OPA(...)    LV_RESULT_INVALID
 141:Drivers/lvgl/src/draw/sw/blend/lv_draw_sw_blend_to_i1.c **** #endif
 142:Drivers/lvgl/src/draw/sw/blend/lv_draw_sw_blend_to_i1.c **** 
 143:Drivers/lvgl/src/draw/sw/blend/lv_draw_sw_blend_to_i1.c **** #ifndef LV_DRAW_SW_RGB565_SWAPPED_BLEND_NORMAL_TO_I1
 144:Drivers/lvgl/src/draw/sw/blend/lv_draw_sw_blend_to_i1.c ****     #define LV_DRAW_SW_RGB565_SWAPPED_BLEND_NORMAL_TO_I1(...)                 LV_RESULT_INVALID
ARM GAS  /var/folders/qx/2_175_4n2s19vhvtspjhb3qh0000gn/T//ccaVas4T.s 			page 4


 145:Drivers/lvgl/src/draw/sw/blend/lv_draw_sw_blend_to_i1.c **** #endif
 146:Drivers/lvgl/src/draw/sw/blend/lv_draw_sw_blend_to_i1.c **** 
 147:Drivers/lvgl/src/draw/sw/blend/lv_draw_sw_blend_to_i1.c **** #ifndef LV_DRAW_SW_RGB565_SWAPPED_BLEND_NORMAL_TO_I1_WITH_OPA
 148:Drivers/lvgl/src/draw/sw/blend/lv_draw_sw_blend_to_i1.c ****     #define LV_DRAW_SW_RGB565_SWAPPED_BLEND_NORMAL_TO_I1_WITH_OPA(...)        LV_RESULT_INVALID
 149:Drivers/lvgl/src/draw/sw/blend/lv_draw_sw_blend_to_i1.c **** #endif
 150:Drivers/lvgl/src/draw/sw/blend/lv_draw_sw_blend_to_i1.c **** 
 151:Drivers/lvgl/src/draw/sw/blend/lv_draw_sw_blend_to_i1.c **** #ifndef LV_DRAW_SW_RGB565_SWAPPED_BLEND_NORMAL_TO_I1_WITH_MASK
 152:Drivers/lvgl/src/draw/sw/blend/lv_draw_sw_blend_to_i1.c ****     #define LV_DRAW_SW_RGB565_SWAPPED_BLEND_NORMAL_TO_I1_WITH_MASK(...)       LV_RESULT_INVALID
 153:Drivers/lvgl/src/draw/sw/blend/lv_draw_sw_blend_to_i1.c **** #endif
 154:Drivers/lvgl/src/draw/sw/blend/lv_draw_sw_blend_to_i1.c **** 
 155:Drivers/lvgl/src/draw/sw/blend/lv_draw_sw_blend_to_i1.c **** #ifndef LV_DRAW_SW_RGB565_SWAPPED_BLEND_NORMAL_TO_I1_MIX_MASK_OPA
 156:Drivers/lvgl/src/draw/sw/blend/lv_draw_sw_blend_to_i1.c ****     #define LV_DRAW_SW_RGB565_SWAPPED_BLEND_NORMAL_TO_I1_MIX_MASK_OPA(...)    LV_RESULT_INVALID
 157:Drivers/lvgl/src/draw/sw/blend/lv_draw_sw_blend_to_i1.c **** #endif
 158:Drivers/lvgl/src/draw/sw/blend/lv_draw_sw_blend_to_i1.c **** 
 159:Drivers/lvgl/src/draw/sw/blend/lv_draw_sw_blend_to_i1.c **** #ifndef LV_DRAW_SW_RGB888_BLEND_NORMAL_TO_I1
 160:Drivers/lvgl/src/draw/sw/blend/lv_draw_sw_blend_to_i1.c ****     #define LV_DRAW_SW_RGB888_BLEND_NORMAL_TO_I1(...)                 LV_RESULT_INVALID
 161:Drivers/lvgl/src/draw/sw/blend/lv_draw_sw_blend_to_i1.c **** #endif
 162:Drivers/lvgl/src/draw/sw/blend/lv_draw_sw_blend_to_i1.c **** 
 163:Drivers/lvgl/src/draw/sw/blend/lv_draw_sw_blend_to_i1.c **** #ifndef LV_DRAW_SW_RGB888_BLEND_NORMAL_TO_I1_WITH_OPA
 164:Drivers/lvgl/src/draw/sw/blend/lv_draw_sw_blend_to_i1.c ****     #define LV_DRAW_SW_RGB888_BLEND_NORMAL_TO_I1_WITH_OPA(...)        LV_RESULT_INVALID
 165:Drivers/lvgl/src/draw/sw/blend/lv_draw_sw_blend_to_i1.c **** #endif
 166:Drivers/lvgl/src/draw/sw/blend/lv_draw_sw_blend_to_i1.c **** 
 167:Drivers/lvgl/src/draw/sw/blend/lv_draw_sw_blend_to_i1.c **** #ifndef LV_DRAW_SW_RGB888_BLEND_NORMAL_TO_I1_WITH_MASK
 168:Drivers/lvgl/src/draw/sw/blend/lv_draw_sw_blend_to_i1.c ****     #define LV_DRAW_SW_RGB888_BLEND_NORMAL_TO_I1_WITH_MASK(...)       LV_RESULT_INVALID
 169:Drivers/lvgl/src/draw/sw/blend/lv_draw_sw_blend_to_i1.c **** #endif
 170:Drivers/lvgl/src/draw/sw/blend/lv_draw_sw_blend_to_i1.c **** 
 171:Drivers/lvgl/src/draw/sw/blend/lv_draw_sw_blend_to_i1.c **** #ifndef LV_DRAW_SW_RGB888_BLEND_NORMAL_TO_I1_MIX_MASK_OPA
 172:Drivers/lvgl/src/draw/sw/blend/lv_draw_sw_blend_to_i1.c ****     #define LV_DRAW_SW_RGB888_BLEND_NORMAL_TO_I1_MIX_MASK_OPA(...)    LV_RESULT_INVALID
 173:Drivers/lvgl/src/draw/sw/blend/lv_draw_sw_blend_to_i1.c **** #endif
 174:Drivers/lvgl/src/draw/sw/blend/lv_draw_sw_blend_to_i1.c **** 
 175:Drivers/lvgl/src/draw/sw/blend/lv_draw_sw_blend_to_i1.c **** #ifndef LV_DRAW_SW_L8_BLEND_NORMAL_TO_I1
 176:Drivers/lvgl/src/draw/sw/blend/lv_draw_sw_blend_to_i1.c ****     #define LV_DRAW_SW_L8_BLEND_NORMAL_TO_I1(...)               LV_RESULT_INVALID
 177:Drivers/lvgl/src/draw/sw/blend/lv_draw_sw_blend_to_i1.c **** #endif
 178:Drivers/lvgl/src/draw/sw/blend/lv_draw_sw_blend_to_i1.c **** 
 179:Drivers/lvgl/src/draw/sw/blend/lv_draw_sw_blend_to_i1.c **** #ifndef LV_DRAW_SW_L8_BLEND_NORMAL_TO_I1_WITH_OPA
 180:Drivers/lvgl/src/draw/sw/blend/lv_draw_sw_blend_to_i1.c ****     #define LV_DRAW_SW_L8_BLEND_NORMAL_TO_I1_WITH_OPA(...)      LV_RESULT_INVALID
 181:Drivers/lvgl/src/draw/sw/blend/lv_draw_sw_blend_to_i1.c **** #endif
 182:Drivers/lvgl/src/draw/sw/blend/lv_draw_sw_blend_to_i1.c **** 
 183:Drivers/lvgl/src/draw/sw/blend/lv_draw_sw_blend_to_i1.c **** #ifndef LV_DRAW_SW_L8_BLEND_NORMAL_TO_I1_WITH_MASK
 184:Drivers/lvgl/src/draw/sw/blend/lv_draw_sw_blend_to_i1.c ****     #define LV_DRAW_SW_L8_BLEND_NORMAL_TO_I1_WITH_MASK(...)     LV_RESULT_INVALID
 185:Drivers/lvgl/src/draw/sw/blend/lv_draw_sw_blend_to_i1.c **** #endif
 186:Drivers/lvgl/src/draw/sw/blend/lv_draw_sw_blend_to_i1.c **** 
 187:Drivers/lvgl/src/draw/sw/blend/lv_draw_sw_blend_to_i1.c **** #ifndef LV_DRAW_SW_L8_BLEND_NORMAL_TO_I1_MIX_MASK_OPA
 188:Drivers/lvgl/src/draw/sw/blend/lv_draw_sw_blend_to_i1.c ****     #define LV_DRAW_SW_L8_BLEND_NORMAL_TO_I1_MIX_MASK_OPA(...)  LV_RESULT_INVALID
 189:Drivers/lvgl/src/draw/sw/blend/lv_draw_sw_blend_to_i1.c **** #endif
 190:Drivers/lvgl/src/draw/sw/blend/lv_draw_sw_blend_to_i1.c **** 
 191:Drivers/lvgl/src/draw/sw/blend/lv_draw_sw_blend_to_i1.c **** #ifndef LV_DRAW_SW_AL88_BLEND_NORMAL_TO_I1
 192:Drivers/lvgl/src/draw/sw/blend/lv_draw_sw_blend_to_i1.c ****     #define LV_DRAW_SW_AL88_BLEND_NORMAL_TO_I1(...)               LV_RESULT_INVALID
 193:Drivers/lvgl/src/draw/sw/blend/lv_draw_sw_blend_to_i1.c **** #endif
 194:Drivers/lvgl/src/draw/sw/blend/lv_draw_sw_blend_to_i1.c **** 
 195:Drivers/lvgl/src/draw/sw/blend/lv_draw_sw_blend_to_i1.c **** #ifndef LV_DRAW_SW_AL88_BLEND_NORMAL_TO_I1_WITH_OPA
 196:Drivers/lvgl/src/draw/sw/blend/lv_draw_sw_blend_to_i1.c ****     #define LV_DRAW_SW_AL88_BLEND_NORMAL_TO_I1_WITH_OPA(...)      LV_RESULT_INVALID
 197:Drivers/lvgl/src/draw/sw/blend/lv_draw_sw_blend_to_i1.c **** #endif
 198:Drivers/lvgl/src/draw/sw/blend/lv_draw_sw_blend_to_i1.c **** 
 199:Drivers/lvgl/src/draw/sw/blend/lv_draw_sw_blend_to_i1.c **** #ifndef LV_DRAW_SW_AL88_BLEND_NORMAL_TO_I1_WITH_MASK
 200:Drivers/lvgl/src/draw/sw/blend/lv_draw_sw_blend_to_i1.c ****     #define LV_DRAW_SW_AL88_BLEND_NORMAL_TO_I1_WITH_MASK(...)     LV_RESULT_INVALID
 201:Drivers/lvgl/src/draw/sw/blend/lv_draw_sw_blend_to_i1.c **** #endif
ARM GAS  /var/folders/qx/2_175_4n2s19vhvtspjhb3qh0000gn/T//ccaVas4T.s 			page 5


 202:Drivers/lvgl/src/draw/sw/blend/lv_draw_sw_blend_to_i1.c **** 
 203:Drivers/lvgl/src/draw/sw/blend/lv_draw_sw_blend_to_i1.c **** #ifndef LV_DRAW_SW_AL88_BLEND_NORMAL_TO_I1_MIX_MASK_OPA
 204:Drivers/lvgl/src/draw/sw/blend/lv_draw_sw_blend_to_i1.c ****     #define LV_DRAW_SW_AL88_BLEND_NORMAL_TO_I1_MIX_MASK_OPA(...)  LV_RESULT_INVALID
 205:Drivers/lvgl/src/draw/sw/blend/lv_draw_sw_blend_to_i1.c **** #endif
 206:Drivers/lvgl/src/draw/sw/blend/lv_draw_sw_blend_to_i1.c **** 
 207:Drivers/lvgl/src/draw/sw/blend/lv_draw_sw_blend_to_i1.c **** #ifndef LV_DRAW_SW_ARGB8888_BLEND_NORMAL_TO_I1
 208:Drivers/lvgl/src/draw/sw/blend/lv_draw_sw_blend_to_i1.c ****     #define LV_DRAW_SW_ARGB8888_BLEND_NORMAL_TO_I1(...)               LV_RESULT_INVALID
 209:Drivers/lvgl/src/draw/sw/blend/lv_draw_sw_blend_to_i1.c **** #endif
 210:Drivers/lvgl/src/draw/sw/blend/lv_draw_sw_blend_to_i1.c **** 
 211:Drivers/lvgl/src/draw/sw/blend/lv_draw_sw_blend_to_i1.c **** #ifndef LV_DRAW_SW_ARGB8888_BLEND_NORMAL_TO_I1_WITH_OPA
 212:Drivers/lvgl/src/draw/sw/blend/lv_draw_sw_blend_to_i1.c ****     #define LV_DRAW_SW_ARGB8888_BLEND_NORMAL_TO_I1_WITH_OPA(...)      LV_RESULT_INVALID
 213:Drivers/lvgl/src/draw/sw/blend/lv_draw_sw_blend_to_i1.c **** #endif
 214:Drivers/lvgl/src/draw/sw/blend/lv_draw_sw_blend_to_i1.c **** 
 215:Drivers/lvgl/src/draw/sw/blend/lv_draw_sw_blend_to_i1.c **** #ifndef LV_DRAW_SW_ARGB8888_BLEND_NORMAL_TO_I1_WITH_MASK
 216:Drivers/lvgl/src/draw/sw/blend/lv_draw_sw_blend_to_i1.c ****     #define LV_DRAW_SW_ARGB8888_BLEND_NORMAL_TO_I1_WITH_MASK(...)     LV_RESULT_INVALID
 217:Drivers/lvgl/src/draw/sw/blend/lv_draw_sw_blend_to_i1.c **** #endif
 218:Drivers/lvgl/src/draw/sw/blend/lv_draw_sw_blend_to_i1.c **** 
 219:Drivers/lvgl/src/draw/sw/blend/lv_draw_sw_blend_to_i1.c **** #ifndef LV_DRAW_SW_ARGB8888_BLEND_NORMAL_TO_I1_MIX_MASK_OPA
 220:Drivers/lvgl/src/draw/sw/blend/lv_draw_sw_blend_to_i1.c ****     #define LV_DRAW_SW_ARGB8888_BLEND_NORMAL_TO_I1_MIX_MASK_OPA(...)  LV_RESULT_INVALID
 221:Drivers/lvgl/src/draw/sw/blend/lv_draw_sw_blend_to_i1.c **** #endif
 222:Drivers/lvgl/src/draw/sw/blend/lv_draw_sw_blend_to_i1.c **** 
 223:Drivers/lvgl/src/draw/sw/blend/lv_draw_sw_blend_to_i1.c **** /**********************
 224:Drivers/lvgl/src/draw/sw/blend/lv_draw_sw_blend_to_i1.c ****  *   GLOBAL FUNCTIONS
 225:Drivers/lvgl/src/draw/sw/blend/lv_draw_sw_blend_to_i1.c ****  **********************/
 226:Drivers/lvgl/src/draw/sw/blend/lv_draw_sw_blend_to_i1.c **** 
 227:Drivers/lvgl/src/draw/sw/blend/lv_draw_sw_blend_to_i1.c **** void LV_ATTRIBUTE_FAST_MEM lv_draw_sw_blend_color_to_i1(lv_draw_sw_blend_fill_dsc_t * dsc)
 228:Drivers/lvgl/src/draw/sw/blend/lv_draw_sw_blend_to_i1.c **** {
 229:Drivers/lvgl/src/draw/sw/blend/lv_draw_sw_blend_to_i1.c ****     int32_t w = dsc->dest_w;
 230:Drivers/lvgl/src/draw/sw/blend/lv_draw_sw_blend_to_i1.c ****     int32_t h = dsc->dest_h;
 231:Drivers/lvgl/src/draw/sw/blend/lv_draw_sw_blend_to_i1.c ****     lv_opa_t opa = dsc->opa;
 232:Drivers/lvgl/src/draw/sw/blend/lv_draw_sw_blend_to_i1.c ****     const lv_opa_t * mask = dsc->mask_buf;
 233:Drivers/lvgl/src/draw/sw/blend/lv_draw_sw_blend_to_i1.c ****     int32_t mask_stride = dsc->mask_stride;
 234:Drivers/lvgl/src/draw/sw/blend/lv_draw_sw_blend_to_i1.c ****     int32_t dest_stride = dsc->dest_stride;
 235:Drivers/lvgl/src/draw/sw/blend/lv_draw_sw_blend_to_i1.c **** 
 236:Drivers/lvgl/src/draw/sw/blend/lv_draw_sw_blend_to_i1.c ****     uint8_t src_color = lv_color_luminance(dsc->color) / (I1_LUM_THRESHOLD + 1);
 237:Drivers/lvgl/src/draw/sw/blend/lv_draw_sw_blend_to_i1.c ****     uint8_t * dest_buf = dsc->dest_buf;
 238:Drivers/lvgl/src/draw/sw/blend/lv_draw_sw_blend_to_i1.c **** 
 239:Drivers/lvgl/src/draw/sw/blend/lv_draw_sw_blend_to_i1.c ****     int32_t bit_ofs = dsc->relative_area.x1 % 8;
 240:Drivers/lvgl/src/draw/sw/blend/lv_draw_sw_blend_to_i1.c **** 
 241:Drivers/lvgl/src/draw/sw/blend/lv_draw_sw_blend_to_i1.c ****     /* Simple fill */
 242:Drivers/lvgl/src/draw/sw/blend/lv_draw_sw_blend_to_i1.c ****     if(mask == NULL && opa >= LV_OPA_MAX) {
 243:Drivers/lvgl/src/draw/sw/blend/lv_draw_sw_blend_to_i1.c ****         if(LV_RESULT_INVALID == LV_DRAW_SW_COLOR_BLEND_TO_I1(dsc)) {
 244:Drivers/lvgl/src/draw/sw/blend/lv_draw_sw_blend_to_i1.c ****             for(int32_t y = 0; y < h; y++) {
 245:Drivers/lvgl/src/draw/sw/blend/lv_draw_sw_blend_to_i1.c ****                 for(int32_t x = 0; x < w; x++) {
 246:Drivers/lvgl/src/draw/sw/blend/lv_draw_sw_blend_to_i1.c ****                     if(src_color) {
 247:Drivers/lvgl/src/draw/sw/blend/lv_draw_sw_blend_to_i1.c ****                         set_bit(dest_buf, x + bit_ofs);
 248:Drivers/lvgl/src/draw/sw/blend/lv_draw_sw_blend_to_i1.c ****                     }
 249:Drivers/lvgl/src/draw/sw/blend/lv_draw_sw_blend_to_i1.c ****                     else {
 250:Drivers/lvgl/src/draw/sw/blend/lv_draw_sw_blend_to_i1.c ****                         clear_bit(dest_buf, x + bit_ofs);
 251:Drivers/lvgl/src/draw/sw/blend/lv_draw_sw_blend_to_i1.c ****                     }
 252:Drivers/lvgl/src/draw/sw/blend/lv_draw_sw_blend_to_i1.c ****                 }
 253:Drivers/lvgl/src/draw/sw/blend/lv_draw_sw_blend_to_i1.c ****                 dest_buf = drawbuf_next_row(dest_buf, dest_stride);
 254:Drivers/lvgl/src/draw/sw/blend/lv_draw_sw_blend_to_i1.c ****             }
 255:Drivers/lvgl/src/draw/sw/blend/lv_draw_sw_blend_to_i1.c ****         }
 256:Drivers/lvgl/src/draw/sw/blend/lv_draw_sw_blend_to_i1.c ****     }
 257:Drivers/lvgl/src/draw/sw/blend/lv_draw_sw_blend_to_i1.c ****     /* Opacity only */
 258:Drivers/lvgl/src/draw/sw/blend/lv_draw_sw_blend_to_i1.c ****     else if(mask == NULL && opa < LV_OPA_MAX) {
ARM GAS  /var/folders/qx/2_175_4n2s19vhvtspjhb3qh0000gn/T//ccaVas4T.s 			page 6


 259:Drivers/lvgl/src/draw/sw/blend/lv_draw_sw_blend_to_i1.c ****         if(LV_RESULT_INVALID == LV_DRAW_SW_COLOR_BLEND_TO_I1_WITH_OPA(dsc)) {
 260:Drivers/lvgl/src/draw/sw/blend/lv_draw_sw_blend_to_i1.c ****             for(int32_t y = 0; y < h; y++) {
 261:Drivers/lvgl/src/draw/sw/blend/lv_draw_sw_blend_to_i1.c ****                 for(int32_t x = 0; x < w; x++) {
 262:Drivers/lvgl/src/draw/sw/blend/lv_draw_sw_blend_to_i1.c ****                     uint8_t * dest_bit = &dest_buf[(x + bit_ofs) / 8];
 263:Drivers/lvgl/src/draw/sw/blend/lv_draw_sw_blend_to_i1.c ****                     uint8_t current_bit = (*dest_bit >> (7 - ((x + bit_ofs) % 8))) & 0x01;
 264:Drivers/lvgl/src/draw/sw/blend/lv_draw_sw_blend_to_i1.c ****                     uint8_t new_bit = (opa * src_color + (255 - opa) * current_bit) / 255;
 265:Drivers/lvgl/src/draw/sw/blend/lv_draw_sw_blend_to_i1.c ****                     if(new_bit) {
 266:Drivers/lvgl/src/draw/sw/blend/lv_draw_sw_blend_to_i1.c ****                         set_bit(dest_buf, x + bit_ofs);
 267:Drivers/lvgl/src/draw/sw/blend/lv_draw_sw_blend_to_i1.c ****                     }
 268:Drivers/lvgl/src/draw/sw/blend/lv_draw_sw_blend_to_i1.c ****                     else {
 269:Drivers/lvgl/src/draw/sw/blend/lv_draw_sw_blend_to_i1.c ****                         clear_bit(dest_buf, x + bit_ofs);
 270:Drivers/lvgl/src/draw/sw/blend/lv_draw_sw_blend_to_i1.c ****                     }
 271:Drivers/lvgl/src/draw/sw/blend/lv_draw_sw_blend_to_i1.c ****                 }
 272:Drivers/lvgl/src/draw/sw/blend/lv_draw_sw_blend_to_i1.c ****                 dest_buf = drawbuf_next_row(dest_buf, dest_stride);
 273:Drivers/lvgl/src/draw/sw/blend/lv_draw_sw_blend_to_i1.c ****             }
 274:Drivers/lvgl/src/draw/sw/blend/lv_draw_sw_blend_to_i1.c ****         }
 275:Drivers/lvgl/src/draw/sw/blend/lv_draw_sw_blend_to_i1.c ****     }
 276:Drivers/lvgl/src/draw/sw/blend/lv_draw_sw_blend_to_i1.c ****     /* Masked with full opacity */
 277:Drivers/lvgl/src/draw/sw/blend/lv_draw_sw_blend_to_i1.c ****     else if(mask && opa >= LV_OPA_MAX) {
 278:Drivers/lvgl/src/draw/sw/blend/lv_draw_sw_blend_to_i1.c ****         if(LV_RESULT_INVALID == LV_DRAW_SW_COLOR_BLEND_TO_I1_WITH_MASK(dsc)) {
 279:Drivers/lvgl/src/draw/sw/blend/lv_draw_sw_blend_to_i1.c ****             for(int32_t y = 0; y < h; y++) {
 280:Drivers/lvgl/src/draw/sw/blend/lv_draw_sw_blend_to_i1.c ****                 for(int32_t x = 0; x < w; x++) {
 281:Drivers/lvgl/src/draw/sw/blend/lv_draw_sw_blend_to_i1.c ****                     uint8_t mask_val = mask[x];
 282:Drivers/lvgl/src/draw/sw/blend/lv_draw_sw_blend_to_i1.c ****                     if(mask_val == LV_OPA_TRANSP) continue;
 283:Drivers/lvgl/src/draw/sw/blend/lv_draw_sw_blend_to_i1.c ****                     if(mask_val == LV_OPA_COVER) {
 284:Drivers/lvgl/src/draw/sw/blend/lv_draw_sw_blend_to_i1.c ****                         if(src_color) {
 285:Drivers/lvgl/src/draw/sw/blend/lv_draw_sw_blend_to_i1.c ****                             set_bit(dest_buf, x + bit_ofs);
 286:Drivers/lvgl/src/draw/sw/blend/lv_draw_sw_blend_to_i1.c ****                         }
 287:Drivers/lvgl/src/draw/sw/blend/lv_draw_sw_blend_to_i1.c ****                         else {
 288:Drivers/lvgl/src/draw/sw/blend/lv_draw_sw_blend_to_i1.c ****                             clear_bit(dest_buf, x + bit_ofs);
 289:Drivers/lvgl/src/draw/sw/blend/lv_draw_sw_blend_to_i1.c ****                         }
 290:Drivers/lvgl/src/draw/sw/blend/lv_draw_sw_blend_to_i1.c ****                     }
 291:Drivers/lvgl/src/draw/sw/blend/lv_draw_sw_blend_to_i1.c ****                     else {
 292:Drivers/lvgl/src/draw/sw/blend/lv_draw_sw_blend_to_i1.c ****                         uint8_t * dest_bit = &dest_buf[(x + bit_ofs) / 8];
 293:Drivers/lvgl/src/draw/sw/blend/lv_draw_sw_blend_to_i1.c ****                         uint8_t current_bit = (*dest_bit >> (7 - ((x + bit_ofs) % 8))) & 0x01;
 294:Drivers/lvgl/src/draw/sw/blend/lv_draw_sw_blend_to_i1.c ****                         uint8_t new_bit = (mask_val * src_color + (255 - mask_val) * current_bit) /
 295:Drivers/lvgl/src/draw/sw/blend/lv_draw_sw_blend_to_i1.c ****                         if(new_bit) {
 296:Drivers/lvgl/src/draw/sw/blend/lv_draw_sw_blend_to_i1.c ****                             set_bit(dest_buf, x + bit_ofs);
 297:Drivers/lvgl/src/draw/sw/blend/lv_draw_sw_blend_to_i1.c ****                         }
 298:Drivers/lvgl/src/draw/sw/blend/lv_draw_sw_blend_to_i1.c ****                         else {
 299:Drivers/lvgl/src/draw/sw/blend/lv_draw_sw_blend_to_i1.c ****                             clear_bit(dest_buf, x + bit_ofs);
 300:Drivers/lvgl/src/draw/sw/blend/lv_draw_sw_blend_to_i1.c ****                         }
 301:Drivers/lvgl/src/draw/sw/blend/lv_draw_sw_blend_to_i1.c ****                     }
 302:Drivers/lvgl/src/draw/sw/blend/lv_draw_sw_blend_to_i1.c ****                 }
 303:Drivers/lvgl/src/draw/sw/blend/lv_draw_sw_blend_to_i1.c ****                 dest_buf = drawbuf_next_row(dest_buf, dest_stride);
 304:Drivers/lvgl/src/draw/sw/blend/lv_draw_sw_blend_to_i1.c ****                 mask += mask_stride;
 305:Drivers/lvgl/src/draw/sw/blend/lv_draw_sw_blend_to_i1.c ****             }
 306:Drivers/lvgl/src/draw/sw/blend/lv_draw_sw_blend_to_i1.c ****         }
 307:Drivers/lvgl/src/draw/sw/blend/lv_draw_sw_blend_to_i1.c ****     }
 308:Drivers/lvgl/src/draw/sw/blend/lv_draw_sw_blend_to_i1.c ****     /* Masked with opacity */
 309:Drivers/lvgl/src/draw/sw/blend/lv_draw_sw_blend_to_i1.c ****     else {
 310:Drivers/lvgl/src/draw/sw/blend/lv_draw_sw_blend_to_i1.c ****         if(LV_RESULT_INVALID == LV_DRAW_SW_COLOR_BLEND_TO_I1_MIX_MASK_OPA(dsc)) {
 311:Drivers/lvgl/src/draw/sw/blend/lv_draw_sw_blend_to_i1.c ****             for(int32_t y = 0; y < h; y++) {
 312:Drivers/lvgl/src/draw/sw/blend/lv_draw_sw_blend_to_i1.c ****                 for(int32_t x = 0; x < w; x++) {
 313:Drivers/lvgl/src/draw/sw/blend/lv_draw_sw_blend_to_i1.c ****                     uint8_t mask_val = mask[x];
 314:Drivers/lvgl/src/draw/sw/blend/lv_draw_sw_blend_to_i1.c ****                     if(mask_val == LV_OPA_TRANSP) continue;
 315:Drivers/lvgl/src/draw/sw/blend/lv_draw_sw_blend_to_i1.c ****                     uint8_t * dest_bit = &dest_buf[(x + bit_ofs) / 8];
ARM GAS  /var/folders/qx/2_175_4n2s19vhvtspjhb3qh0000gn/T//ccaVas4T.s 			page 7


 316:Drivers/lvgl/src/draw/sw/blend/lv_draw_sw_blend_to_i1.c ****                     uint8_t current_bit = (*dest_bit >> (7 - ((x  + bit_ofs) % 8))) & 0x01;
 317:Drivers/lvgl/src/draw/sw/blend/lv_draw_sw_blend_to_i1.c ****                     uint8_t blended_opa = (mask_val * opa) / 255;
 318:Drivers/lvgl/src/draw/sw/blend/lv_draw_sw_blend_to_i1.c ****                     uint8_t new_bit = (blended_opa * src_color + (255 - blended_opa) * current_bit)
 319:Drivers/lvgl/src/draw/sw/blend/lv_draw_sw_blend_to_i1.c ****                     if(new_bit) {
 320:Drivers/lvgl/src/draw/sw/blend/lv_draw_sw_blend_to_i1.c ****                         set_bit(dest_buf, x + bit_ofs);
 321:Drivers/lvgl/src/draw/sw/blend/lv_draw_sw_blend_to_i1.c ****                     }
 322:Drivers/lvgl/src/draw/sw/blend/lv_draw_sw_blend_to_i1.c ****                     else {
 323:Drivers/lvgl/src/draw/sw/blend/lv_draw_sw_blend_to_i1.c ****                         clear_bit(dest_buf, x + bit_ofs);
 324:Drivers/lvgl/src/draw/sw/blend/lv_draw_sw_blend_to_i1.c ****                     }
 325:Drivers/lvgl/src/draw/sw/blend/lv_draw_sw_blend_to_i1.c ****                 }
 326:Drivers/lvgl/src/draw/sw/blend/lv_draw_sw_blend_to_i1.c ****                 dest_buf = drawbuf_next_row(dest_buf, dest_stride);
 327:Drivers/lvgl/src/draw/sw/blend/lv_draw_sw_blend_to_i1.c ****                 mask += mask_stride;
 328:Drivers/lvgl/src/draw/sw/blend/lv_draw_sw_blend_to_i1.c ****             }
 329:Drivers/lvgl/src/draw/sw/blend/lv_draw_sw_blend_to_i1.c ****         }
 330:Drivers/lvgl/src/draw/sw/blend/lv_draw_sw_blend_to_i1.c ****     }
 331:Drivers/lvgl/src/draw/sw/blend/lv_draw_sw_blend_to_i1.c **** }
 332:Drivers/lvgl/src/draw/sw/blend/lv_draw_sw_blend_to_i1.c **** 
 333:Drivers/lvgl/src/draw/sw/blend/lv_draw_sw_blend_to_i1.c **** void LV_ATTRIBUTE_FAST_MEM lv_draw_sw_blend_image_to_i1(lv_draw_sw_blend_image_dsc_t * dsc)
 334:Drivers/lvgl/src/draw/sw/blend/lv_draw_sw_blend_to_i1.c **** {
 335:Drivers/lvgl/src/draw/sw/blend/lv_draw_sw_blend_to_i1.c ****     switch(dsc->src_color_format) {
 336:Drivers/lvgl/src/draw/sw/blend/lv_draw_sw_blend_to_i1.c **** #if LV_DRAW_SW_SUPPORT_RGB565
 337:Drivers/lvgl/src/draw/sw/blend/lv_draw_sw_blend_to_i1.c ****         case LV_COLOR_FORMAT_RGB565:
 338:Drivers/lvgl/src/draw/sw/blend/lv_draw_sw_blend_to_i1.c ****             rgb565_image_blend(dsc);
 339:Drivers/lvgl/src/draw/sw/blend/lv_draw_sw_blend_to_i1.c ****             break;
 340:Drivers/lvgl/src/draw/sw/blend/lv_draw_sw_blend_to_i1.c **** #endif
 341:Drivers/lvgl/src/draw/sw/blend/lv_draw_sw_blend_to_i1.c **** #if LV_DRAW_SW_SUPPORT_RGB565_SWAPPED
 342:Drivers/lvgl/src/draw/sw/blend/lv_draw_sw_blend_to_i1.c ****         case LV_COLOR_FORMAT_RGB565_SWAPPED:
 343:Drivers/lvgl/src/draw/sw/blend/lv_draw_sw_blend_to_i1.c ****             rgb565_swapped_image_blend(dsc);
 344:Drivers/lvgl/src/draw/sw/blend/lv_draw_sw_blend_to_i1.c ****             break;
 345:Drivers/lvgl/src/draw/sw/blend/lv_draw_sw_blend_to_i1.c **** #endif
 346:Drivers/lvgl/src/draw/sw/blend/lv_draw_sw_blend_to_i1.c **** #if LV_DRAW_SW_SUPPORT_RGB888
 347:Drivers/lvgl/src/draw/sw/blend/lv_draw_sw_blend_to_i1.c ****         case LV_COLOR_FORMAT_RGB888:
 348:Drivers/lvgl/src/draw/sw/blend/lv_draw_sw_blend_to_i1.c ****             rgb888_image_blend(dsc, 3);
 349:Drivers/lvgl/src/draw/sw/blend/lv_draw_sw_blend_to_i1.c ****             break;
 350:Drivers/lvgl/src/draw/sw/blend/lv_draw_sw_blend_to_i1.c **** #endif
 351:Drivers/lvgl/src/draw/sw/blend/lv_draw_sw_blend_to_i1.c **** #if LV_DRAW_SW_SUPPORT_XRGB8888
 352:Drivers/lvgl/src/draw/sw/blend/lv_draw_sw_blend_to_i1.c ****         case LV_COLOR_FORMAT_XRGB8888:
 353:Drivers/lvgl/src/draw/sw/blend/lv_draw_sw_blend_to_i1.c ****             rgb888_image_blend(dsc, 4);
 354:Drivers/lvgl/src/draw/sw/blend/lv_draw_sw_blend_to_i1.c ****             break;
 355:Drivers/lvgl/src/draw/sw/blend/lv_draw_sw_blend_to_i1.c **** #endif
 356:Drivers/lvgl/src/draw/sw/blend/lv_draw_sw_blend_to_i1.c **** #if LV_DRAW_SW_SUPPORT_ARGB8888
 357:Drivers/lvgl/src/draw/sw/blend/lv_draw_sw_blend_to_i1.c ****         case LV_COLOR_FORMAT_ARGB8888:
 358:Drivers/lvgl/src/draw/sw/blend/lv_draw_sw_blend_to_i1.c ****             argb8888_image_blend(dsc);
 359:Drivers/lvgl/src/draw/sw/blend/lv_draw_sw_blend_to_i1.c ****             break;
 360:Drivers/lvgl/src/draw/sw/blend/lv_draw_sw_blend_to_i1.c **** #endif
 361:Drivers/lvgl/src/draw/sw/blend/lv_draw_sw_blend_to_i1.c **** #if LV_DRAW_SW_SUPPORT_L8
 362:Drivers/lvgl/src/draw/sw/blend/lv_draw_sw_blend_to_i1.c ****         case LV_COLOR_FORMAT_L8:
 363:Drivers/lvgl/src/draw/sw/blend/lv_draw_sw_blend_to_i1.c ****             l8_image_blend(dsc);
 364:Drivers/lvgl/src/draw/sw/blend/lv_draw_sw_blend_to_i1.c ****             break;
 365:Drivers/lvgl/src/draw/sw/blend/lv_draw_sw_blend_to_i1.c **** #endif
 366:Drivers/lvgl/src/draw/sw/blend/lv_draw_sw_blend_to_i1.c **** #if LV_DRAW_SW_SUPPORT_AL88
 367:Drivers/lvgl/src/draw/sw/blend/lv_draw_sw_blend_to_i1.c ****         case LV_COLOR_FORMAT_AL88:
 368:Drivers/lvgl/src/draw/sw/blend/lv_draw_sw_blend_to_i1.c ****             al88_image_blend(dsc);
 369:Drivers/lvgl/src/draw/sw/blend/lv_draw_sw_blend_to_i1.c ****             break;
 370:Drivers/lvgl/src/draw/sw/blend/lv_draw_sw_blend_to_i1.c **** #endif
 371:Drivers/lvgl/src/draw/sw/blend/lv_draw_sw_blend_to_i1.c ****         case LV_COLOR_FORMAT_I1:
 372:Drivers/lvgl/src/draw/sw/blend/lv_draw_sw_blend_to_i1.c ****             i1_image_blend(dsc);
ARM GAS  /var/folders/qx/2_175_4n2s19vhvtspjhb3qh0000gn/T//ccaVas4T.s 			page 8


 373:Drivers/lvgl/src/draw/sw/blend/lv_draw_sw_blend_to_i1.c ****             break;
 374:Drivers/lvgl/src/draw/sw/blend/lv_draw_sw_blend_to_i1.c ****         default:
 375:Drivers/lvgl/src/draw/sw/blend/lv_draw_sw_blend_to_i1.c ****             LV_LOG_WARN("Not supported source color format");
 376:Drivers/lvgl/src/draw/sw/blend/lv_draw_sw_blend_to_i1.c ****             break;
 377:Drivers/lvgl/src/draw/sw/blend/lv_draw_sw_blend_to_i1.c ****     }
 378:Drivers/lvgl/src/draw/sw/blend/lv_draw_sw_blend_to_i1.c **** }
 379:Drivers/lvgl/src/draw/sw/blend/lv_draw_sw_blend_to_i1.c **** 
 380:Drivers/lvgl/src/draw/sw/blend/lv_draw_sw_blend_to_i1.c **** /**********************
 381:Drivers/lvgl/src/draw/sw/blend/lv_draw_sw_blend_to_i1.c ****  *   STATIC FUNCTIONS
 382:Drivers/lvgl/src/draw/sw/blend/lv_draw_sw_blend_to_i1.c ****  **********************/
 383:Drivers/lvgl/src/draw/sw/blend/lv_draw_sw_blend_to_i1.c **** 
 384:Drivers/lvgl/src/draw/sw/blend/lv_draw_sw_blend_to_i1.c **** static void LV_ATTRIBUTE_FAST_MEM i1_image_blend(lv_draw_sw_blend_image_dsc_t * dsc)
 385:Drivers/lvgl/src/draw/sw/blend/lv_draw_sw_blend_to_i1.c **** {
 386:Drivers/lvgl/src/draw/sw/blend/lv_draw_sw_blend_to_i1.c ****     int32_t w = dsc->dest_w;
 387:Drivers/lvgl/src/draw/sw/blend/lv_draw_sw_blend_to_i1.c ****     int32_t h = dsc->dest_h;
 388:Drivers/lvgl/src/draw/sw/blend/lv_draw_sw_blend_to_i1.c ****     lv_opa_t opa = dsc->opa;
 389:Drivers/lvgl/src/draw/sw/blend/lv_draw_sw_blend_to_i1.c ****     uint8_t * dest_buf_i1 = dsc->dest_buf;
 390:Drivers/lvgl/src/draw/sw/blend/lv_draw_sw_blend_to_i1.c ****     int32_t dest_stride = dsc->dest_stride;
 391:Drivers/lvgl/src/draw/sw/blend/lv_draw_sw_blend_to_i1.c ****     const uint8_t * src_buf_i1 = dsc->src_buf;
 392:Drivers/lvgl/src/draw/sw/blend/lv_draw_sw_blend_to_i1.c ****     int32_t src_stride = dsc->src_stride;
 393:Drivers/lvgl/src/draw/sw/blend/lv_draw_sw_blend_to_i1.c ****     const lv_opa_t * mask_buf = dsc->mask_buf;
 394:Drivers/lvgl/src/draw/sw/blend/lv_draw_sw_blend_to_i1.c ****     int32_t mask_stride = dsc->mask_stride;
 395:Drivers/lvgl/src/draw/sw/blend/lv_draw_sw_blend_to_i1.c **** 
 396:Drivers/lvgl/src/draw/sw/blend/lv_draw_sw_blend_to_i1.c ****     int32_t dest_x;
 397:Drivers/lvgl/src/draw/sw/blend/lv_draw_sw_blend_to_i1.c ****     int32_t src_x;
 398:Drivers/lvgl/src/draw/sw/blend/lv_draw_sw_blend_to_i1.c ****     int32_t y;
 399:Drivers/lvgl/src/draw/sw/blend/lv_draw_sw_blend_to_i1.c **** 
 400:Drivers/lvgl/src/draw/sw/blend/lv_draw_sw_blend_to_i1.c ****     int32_t bit_ofs = dsc->relative_area.x1 % 8;
 401:Drivers/lvgl/src/draw/sw/blend/lv_draw_sw_blend_to_i1.c **** 
 402:Drivers/lvgl/src/draw/sw/blend/lv_draw_sw_blend_to_i1.c ****     if(dsc->blend_mode == LV_BLEND_MODE_NORMAL) {
 403:Drivers/lvgl/src/draw/sw/blend/lv_draw_sw_blend_to_i1.c ****         if(mask_buf == NULL && opa >= LV_OPA_MAX) {
 404:Drivers/lvgl/src/draw/sw/blend/lv_draw_sw_blend_to_i1.c ****             if(LV_RESULT_INVALID == LV_DRAW_SW_I1_BLEND_NORMAL_TO_I1(dsc)) {
 405:Drivers/lvgl/src/draw/sw/blend/lv_draw_sw_blend_to_i1.c ****                 for(y = 0; y < h; y++) {
 406:Drivers/lvgl/src/draw/sw/blend/lv_draw_sw_blend_to_i1.c ****                     for(dest_x = 0, src_x = 0; src_x < w; dest_x++, src_x++) {
 407:Drivers/lvgl/src/draw/sw/blend/lv_draw_sw_blend_to_i1.c ****                         if(get_bit(src_buf_i1, src_x)) {
 408:Drivers/lvgl/src/draw/sw/blend/lv_draw_sw_blend_to_i1.c ****                             set_bit(dest_buf_i1, dest_x + bit_ofs);
 409:Drivers/lvgl/src/draw/sw/blend/lv_draw_sw_blend_to_i1.c ****                         }
 410:Drivers/lvgl/src/draw/sw/blend/lv_draw_sw_blend_to_i1.c ****                         else {
 411:Drivers/lvgl/src/draw/sw/blend/lv_draw_sw_blend_to_i1.c ****                             clear_bit(dest_buf_i1, dest_x + bit_ofs);
 412:Drivers/lvgl/src/draw/sw/blend/lv_draw_sw_blend_to_i1.c ****                         }
 413:Drivers/lvgl/src/draw/sw/blend/lv_draw_sw_blend_to_i1.c ****                     }
 414:Drivers/lvgl/src/draw/sw/blend/lv_draw_sw_blend_to_i1.c ****                     dest_buf_i1 = drawbuf_next_row(dest_buf_i1, dest_stride);
 415:Drivers/lvgl/src/draw/sw/blend/lv_draw_sw_blend_to_i1.c ****                     src_buf_i1 = drawbuf_next_row(src_buf_i1, src_stride);
 416:Drivers/lvgl/src/draw/sw/blend/lv_draw_sw_blend_to_i1.c ****                 }
 417:Drivers/lvgl/src/draw/sw/blend/lv_draw_sw_blend_to_i1.c ****             }
 418:Drivers/lvgl/src/draw/sw/blend/lv_draw_sw_blend_to_i1.c ****         }
 419:Drivers/lvgl/src/draw/sw/blend/lv_draw_sw_blend_to_i1.c ****         else if(mask_buf == NULL && opa < LV_OPA_MAX) {
 420:Drivers/lvgl/src/draw/sw/blend/lv_draw_sw_blend_to_i1.c ****             if(LV_RESULT_INVALID == LV_DRAW_SW_I1_BLEND_NORMAL_TO_I1_WITH_OPA(dsc)) {
 421:Drivers/lvgl/src/draw/sw/blend/lv_draw_sw_blend_to_i1.c ****                 for(y = 0; y < h; y++) {
 422:Drivers/lvgl/src/draw/sw/blend/lv_draw_sw_blend_to_i1.c ****                     for(dest_x = 0, src_x = 0; src_x < w; dest_x++, src_x++) {
 423:Drivers/lvgl/src/draw/sw/blend/lv_draw_sw_blend_to_i1.c ****                         uint8_t src = get_bit(src_buf_i1, src_x);
 424:Drivers/lvgl/src/draw/sw/blend/lv_draw_sw_blend_to_i1.c ****                         uint8_t dest = get_bit(dest_buf_i1, dest_x + bit_ofs);
 425:Drivers/lvgl/src/draw/sw/blend/lv_draw_sw_blend_to_i1.c ****                         uint8_t blended = (src * opa + dest * (255 - opa));
 426:Drivers/lvgl/src/draw/sw/blend/lv_draw_sw_blend_to_i1.c ****                         if(blended > I1_LUM_THRESHOLD) {
 427:Drivers/lvgl/src/draw/sw/blend/lv_draw_sw_blend_to_i1.c ****                             set_bit(dest_buf_i1, dest_x + bit_ofs);
 428:Drivers/lvgl/src/draw/sw/blend/lv_draw_sw_blend_to_i1.c ****                         }
 429:Drivers/lvgl/src/draw/sw/blend/lv_draw_sw_blend_to_i1.c ****                         else  {
ARM GAS  /var/folders/qx/2_175_4n2s19vhvtspjhb3qh0000gn/T//ccaVas4T.s 			page 9


 430:Drivers/lvgl/src/draw/sw/blend/lv_draw_sw_blend_to_i1.c ****                             clear_bit(dest_buf_i1, dest_x + bit_ofs);
 431:Drivers/lvgl/src/draw/sw/blend/lv_draw_sw_blend_to_i1.c ****                         }
 432:Drivers/lvgl/src/draw/sw/blend/lv_draw_sw_blend_to_i1.c ****                     }
 433:Drivers/lvgl/src/draw/sw/blend/lv_draw_sw_blend_to_i1.c ****                     dest_buf_i1 = drawbuf_next_row(dest_buf_i1, dest_stride);
 434:Drivers/lvgl/src/draw/sw/blend/lv_draw_sw_blend_to_i1.c ****                     src_buf_i1 = drawbuf_next_row(src_buf_i1, src_stride);
 435:Drivers/lvgl/src/draw/sw/blend/lv_draw_sw_blend_to_i1.c ****                 }
 436:Drivers/lvgl/src/draw/sw/blend/lv_draw_sw_blend_to_i1.c ****             }
 437:Drivers/lvgl/src/draw/sw/blend/lv_draw_sw_blend_to_i1.c ****         }
 438:Drivers/lvgl/src/draw/sw/blend/lv_draw_sw_blend_to_i1.c ****         else if(mask_buf && opa >= LV_OPA_MAX) {
 439:Drivers/lvgl/src/draw/sw/blend/lv_draw_sw_blend_to_i1.c ****             if(LV_RESULT_INVALID == LV_DRAW_SW_I1_BLEND_NORMAL_TO_I1_WITH_MASK(dsc)) {
 440:Drivers/lvgl/src/draw/sw/blend/lv_draw_sw_blend_to_i1.c ****                 for(y = 0; y < h; y++) {
 441:Drivers/lvgl/src/draw/sw/blend/lv_draw_sw_blend_to_i1.c ****                     for(dest_x = 0, src_x = 0; src_x < w; dest_x++, src_x++) {
 442:Drivers/lvgl/src/draw/sw/blend/lv_draw_sw_blend_to_i1.c ****                         uint8_t mask_val = mask_buf[src_x];
 443:Drivers/lvgl/src/draw/sw/blend/lv_draw_sw_blend_to_i1.c ****                         uint8_t src = get_bit(src_buf_i1, src_x);
 444:Drivers/lvgl/src/draw/sw/blend/lv_draw_sw_blend_to_i1.c ****                         uint8_t dest = get_bit(dest_buf_i1, dest_x + bit_ofs);
 445:Drivers/lvgl/src/draw/sw/blend/lv_draw_sw_blend_to_i1.c ****                         uint8_t blended = (src * mask_val + dest * (255 - mask_val));
 446:Drivers/lvgl/src/draw/sw/blend/lv_draw_sw_blend_to_i1.c ****                         if(blended > I1_LUM_THRESHOLD) {
 447:Drivers/lvgl/src/draw/sw/blend/lv_draw_sw_blend_to_i1.c ****                             set_bit(dest_buf_i1, dest_x + bit_ofs);
 448:Drivers/lvgl/src/draw/sw/blend/lv_draw_sw_blend_to_i1.c ****                         }
 449:Drivers/lvgl/src/draw/sw/blend/lv_draw_sw_blend_to_i1.c ****                         else  {
 450:Drivers/lvgl/src/draw/sw/blend/lv_draw_sw_blend_to_i1.c ****                             clear_bit(dest_buf_i1, dest_x + bit_ofs);
 451:Drivers/lvgl/src/draw/sw/blend/lv_draw_sw_blend_to_i1.c ****                         }
 452:Drivers/lvgl/src/draw/sw/blend/lv_draw_sw_blend_to_i1.c ****                     }
 453:Drivers/lvgl/src/draw/sw/blend/lv_draw_sw_blend_to_i1.c ****                     dest_buf_i1 = drawbuf_next_row(dest_buf_i1, dest_stride);
 454:Drivers/lvgl/src/draw/sw/blend/lv_draw_sw_blend_to_i1.c ****                     src_buf_i1 = drawbuf_next_row(src_buf_i1, src_stride);
 455:Drivers/lvgl/src/draw/sw/blend/lv_draw_sw_blend_to_i1.c ****                     mask_buf += mask_stride;
 456:Drivers/lvgl/src/draw/sw/blend/lv_draw_sw_blend_to_i1.c ****                 }
 457:Drivers/lvgl/src/draw/sw/blend/lv_draw_sw_blend_to_i1.c ****             }
 458:Drivers/lvgl/src/draw/sw/blend/lv_draw_sw_blend_to_i1.c ****         }
 459:Drivers/lvgl/src/draw/sw/blend/lv_draw_sw_blend_to_i1.c ****         else if(mask_buf && opa < LV_OPA_MAX) {
 460:Drivers/lvgl/src/draw/sw/blend/lv_draw_sw_blend_to_i1.c ****             if(LV_RESULT_INVALID == LV_DRAW_SW_I1_BLEND_NORMAL_TO_I1_MIX_MASK_OPA(dsc)) {
 461:Drivers/lvgl/src/draw/sw/blend/lv_draw_sw_blend_to_i1.c ****                 for(y = 0; y < h; y++) {
 462:Drivers/lvgl/src/draw/sw/blend/lv_draw_sw_blend_to_i1.c ****                     for(dest_x = 0, src_x = 0; src_x < w; dest_x++, src_x++) {
 463:Drivers/lvgl/src/draw/sw/blend/lv_draw_sw_blend_to_i1.c ****                         uint8_t mask_val = mask_buf[src_x];
 464:Drivers/lvgl/src/draw/sw/blend/lv_draw_sw_blend_to_i1.c ****                         if(mask_val == LV_OPA_TRANSP) continue;
 465:Drivers/lvgl/src/draw/sw/blend/lv_draw_sw_blend_to_i1.c ****                         uint8_t src = get_bit(src_buf_i1, src_x);
 466:Drivers/lvgl/src/draw/sw/blend/lv_draw_sw_blend_to_i1.c ****                         uint8_t dest = get_bit(dest_buf_i1, dest_x + bit_ofs);
 467:Drivers/lvgl/src/draw/sw/blend/lv_draw_sw_blend_to_i1.c ****                         uint8_t blend_opa = LV_OPA_MIX2(mask_val, opa);
 468:Drivers/lvgl/src/draw/sw/blend/lv_draw_sw_blend_to_i1.c ****                         uint8_t blended = (src * blend_opa + dest * (255 - blend_opa));
 469:Drivers/lvgl/src/draw/sw/blend/lv_draw_sw_blend_to_i1.c ****                         if(blended > I1_LUM_THRESHOLD) {
 470:Drivers/lvgl/src/draw/sw/blend/lv_draw_sw_blend_to_i1.c ****                             set_bit(dest_buf_i1, dest_x + bit_ofs);
 471:Drivers/lvgl/src/draw/sw/blend/lv_draw_sw_blend_to_i1.c ****                         }
 472:Drivers/lvgl/src/draw/sw/blend/lv_draw_sw_blend_to_i1.c ****                         else  {
 473:Drivers/lvgl/src/draw/sw/blend/lv_draw_sw_blend_to_i1.c ****                             clear_bit(dest_buf_i1, dest_x + bit_ofs);
 474:Drivers/lvgl/src/draw/sw/blend/lv_draw_sw_blend_to_i1.c ****                         }
 475:Drivers/lvgl/src/draw/sw/blend/lv_draw_sw_blend_to_i1.c ****                     }
 476:Drivers/lvgl/src/draw/sw/blend/lv_draw_sw_blend_to_i1.c ****                     dest_buf_i1 = drawbuf_next_row(dest_buf_i1, dest_stride);
 477:Drivers/lvgl/src/draw/sw/blend/lv_draw_sw_blend_to_i1.c ****                     src_buf_i1 = drawbuf_next_row(src_buf_i1, src_stride);
 478:Drivers/lvgl/src/draw/sw/blend/lv_draw_sw_blend_to_i1.c ****                     mask_buf += mask_stride;
 479:Drivers/lvgl/src/draw/sw/blend/lv_draw_sw_blend_to_i1.c ****                 }
 480:Drivers/lvgl/src/draw/sw/blend/lv_draw_sw_blend_to_i1.c ****             }
 481:Drivers/lvgl/src/draw/sw/blend/lv_draw_sw_blend_to_i1.c ****         }
 482:Drivers/lvgl/src/draw/sw/blend/lv_draw_sw_blend_to_i1.c ****     }
 483:Drivers/lvgl/src/draw/sw/blend/lv_draw_sw_blend_to_i1.c ****     else {
 484:Drivers/lvgl/src/draw/sw/blend/lv_draw_sw_blend_to_i1.c ****         lv_color32_t src_argb;
 485:Drivers/lvgl/src/draw/sw/blend/lv_draw_sw_blend_to_i1.c ****         for(y = 0; y < h; y++) {
 486:Drivers/lvgl/src/draw/sw/blend/lv_draw_sw_blend_to_i1.c ****             for(dest_x = 0, src_x = 0; src_x < w; dest_x++, src_x++) {
ARM GAS  /var/folders/qx/2_175_4n2s19vhvtspjhb3qh0000gn/T//ccaVas4T.s 			page 10


 487:Drivers/lvgl/src/draw/sw/blend/lv_draw_sw_blend_to_i1.c ****                 src_argb.red = get_bit(src_buf_i1, src_x) * 255;
 488:Drivers/lvgl/src/draw/sw/blend/lv_draw_sw_blend_to_i1.c ****                 src_argb.green = src_argb.red;
 489:Drivers/lvgl/src/draw/sw/blend/lv_draw_sw_blend_to_i1.c ****                 src_argb.blue = src_argb.red;
 490:Drivers/lvgl/src/draw/sw/blend/lv_draw_sw_blend_to_i1.c ****                 if(mask_buf == NULL) src_argb.alpha = opa;
 491:Drivers/lvgl/src/draw/sw/blend/lv_draw_sw_blend_to_i1.c ****                 else src_argb.alpha = LV_OPA_MIX2(mask_buf[dest_x], opa);
 492:Drivers/lvgl/src/draw/sw/blend/lv_draw_sw_blend_to_i1.c ****                 blend_non_normal_pixel(dest_buf_i1, dest_x + bit_ofs, src_argb, dsc->blend_mode);
 493:Drivers/lvgl/src/draw/sw/blend/lv_draw_sw_blend_to_i1.c ****             }
 494:Drivers/lvgl/src/draw/sw/blend/lv_draw_sw_blend_to_i1.c ****             if(mask_buf) mask_buf += mask_stride;
 495:Drivers/lvgl/src/draw/sw/blend/lv_draw_sw_blend_to_i1.c ****             dest_buf_i1 = drawbuf_next_row(dest_buf_i1, dest_stride);
 496:Drivers/lvgl/src/draw/sw/blend/lv_draw_sw_blend_to_i1.c ****             src_buf_i1 = drawbuf_next_row(src_buf_i1, src_stride);
 497:Drivers/lvgl/src/draw/sw/blend/lv_draw_sw_blend_to_i1.c ****         }
 498:Drivers/lvgl/src/draw/sw/blend/lv_draw_sw_blend_to_i1.c ****     }
 499:Drivers/lvgl/src/draw/sw/blend/lv_draw_sw_blend_to_i1.c **** }
 500:Drivers/lvgl/src/draw/sw/blend/lv_draw_sw_blend_to_i1.c **** 
 501:Drivers/lvgl/src/draw/sw/blend/lv_draw_sw_blend_to_i1.c **** #if LV_DRAW_SW_SUPPORT_L8
 502:Drivers/lvgl/src/draw/sw/blend/lv_draw_sw_blend_to_i1.c **** static void LV_ATTRIBUTE_FAST_MEM l8_image_blend(lv_draw_sw_blend_image_dsc_t * dsc)
 503:Drivers/lvgl/src/draw/sw/blend/lv_draw_sw_blend_to_i1.c **** {
 504:Drivers/lvgl/src/draw/sw/blend/lv_draw_sw_blend_to_i1.c ****     int32_t w = dsc->dest_w;
 505:Drivers/lvgl/src/draw/sw/blend/lv_draw_sw_blend_to_i1.c ****     int32_t h = dsc->dest_h;
 506:Drivers/lvgl/src/draw/sw/blend/lv_draw_sw_blend_to_i1.c ****     lv_opa_t opa = dsc->opa;
 507:Drivers/lvgl/src/draw/sw/blend/lv_draw_sw_blend_to_i1.c ****     uint8_t * dest_buf_i1 = dsc->dest_buf;
 508:Drivers/lvgl/src/draw/sw/blend/lv_draw_sw_blend_to_i1.c ****     int32_t dest_stride = dsc->dest_stride;
 509:Drivers/lvgl/src/draw/sw/blend/lv_draw_sw_blend_to_i1.c ****     const uint8_t * src_buf_l8 = dsc->src_buf;
 510:Drivers/lvgl/src/draw/sw/blend/lv_draw_sw_blend_to_i1.c ****     int32_t src_stride = dsc->src_stride;
 511:Drivers/lvgl/src/draw/sw/blend/lv_draw_sw_blend_to_i1.c ****     const lv_opa_t * mask_buf = dsc->mask_buf;
 512:Drivers/lvgl/src/draw/sw/blend/lv_draw_sw_blend_to_i1.c ****     int32_t mask_stride = dsc->mask_stride;
 513:Drivers/lvgl/src/draw/sw/blend/lv_draw_sw_blend_to_i1.c **** 
 514:Drivers/lvgl/src/draw/sw/blend/lv_draw_sw_blend_to_i1.c ****     int32_t src_x, dest_x;
 515:Drivers/lvgl/src/draw/sw/blend/lv_draw_sw_blend_to_i1.c ****     int32_t y;
 516:Drivers/lvgl/src/draw/sw/blend/lv_draw_sw_blend_to_i1.c **** 
 517:Drivers/lvgl/src/draw/sw/blend/lv_draw_sw_blend_to_i1.c ****     int32_t bit_ofs = dsc->relative_area.x1 % 8;
 518:Drivers/lvgl/src/draw/sw/blend/lv_draw_sw_blend_to_i1.c **** 
 519:Drivers/lvgl/src/draw/sw/blend/lv_draw_sw_blend_to_i1.c ****     if(dsc->blend_mode == LV_BLEND_MODE_NORMAL) {
 520:Drivers/lvgl/src/draw/sw/blend/lv_draw_sw_blend_to_i1.c ****         if(mask_buf == NULL && opa >= LV_OPA_MAX) {
 521:Drivers/lvgl/src/draw/sw/blend/lv_draw_sw_blend_to_i1.c ****             if(LV_RESULT_INVALID == LV_DRAW_SW_L8_BLEND_NORMAL_TO_I1(dsc)) {
 522:Drivers/lvgl/src/draw/sw/blend/lv_draw_sw_blend_to_i1.c ****                 for(y = 0; y < h; y++) {
 523:Drivers/lvgl/src/draw/sw/blend/lv_draw_sw_blend_to_i1.c ****                     for(dest_x = 0, src_x = 0; src_x < w; dest_x++, src_x++) {
 524:Drivers/lvgl/src/draw/sw/blend/lv_draw_sw_blend_to_i1.c ****                         if(src_buf_l8[src_x] > I1_LUM_THRESHOLD) {
 525:Drivers/lvgl/src/draw/sw/blend/lv_draw_sw_blend_to_i1.c ****                             set_bit(dest_buf_i1, dest_x + bit_ofs);
 526:Drivers/lvgl/src/draw/sw/blend/lv_draw_sw_blend_to_i1.c ****                         }
 527:Drivers/lvgl/src/draw/sw/blend/lv_draw_sw_blend_to_i1.c ****                         else {
 528:Drivers/lvgl/src/draw/sw/blend/lv_draw_sw_blend_to_i1.c ****                             clear_bit(dest_buf_i1, dest_x + bit_ofs);
 529:Drivers/lvgl/src/draw/sw/blend/lv_draw_sw_blend_to_i1.c ****                         }
 530:Drivers/lvgl/src/draw/sw/blend/lv_draw_sw_blend_to_i1.c ****                     }
 531:Drivers/lvgl/src/draw/sw/blend/lv_draw_sw_blend_to_i1.c ****                     dest_buf_i1 = drawbuf_next_row(dest_buf_i1, dest_stride);
 532:Drivers/lvgl/src/draw/sw/blend/lv_draw_sw_blend_to_i1.c ****                     src_buf_l8 = drawbuf_next_row(src_buf_l8, src_stride);
 533:Drivers/lvgl/src/draw/sw/blend/lv_draw_sw_blend_to_i1.c ****                 }
 534:Drivers/lvgl/src/draw/sw/blend/lv_draw_sw_blend_to_i1.c ****             }
 535:Drivers/lvgl/src/draw/sw/blend/lv_draw_sw_blend_to_i1.c ****         }
 536:Drivers/lvgl/src/draw/sw/blend/lv_draw_sw_blend_to_i1.c ****         else if(mask_buf == NULL && opa < LV_OPA_MAX) {
 537:Drivers/lvgl/src/draw/sw/blend/lv_draw_sw_blend_to_i1.c ****             if(LV_RESULT_INVALID == LV_DRAW_SW_L8_BLEND_NORMAL_TO_I1_WITH_OPA(dsc)) {
 538:Drivers/lvgl/src/draw/sw/blend/lv_draw_sw_blend_to_i1.c ****                 for(y = 0; y < h; y++) {
 539:Drivers/lvgl/src/draw/sw/blend/lv_draw_sw_blend_to_i1.c ****                     for(dest_x = 0, src_x = 0; src_x < w; dest_x++, src_x++) {
 540:Drivers/lvgl/src/draw/sw/blend/lv_draw_sw_blend_to_i1.c ****                         uint8_t dest_val = get_bit(dest_buf_i1, dest_x + bit_ofs) * 255;
 541:Drivers/lvgl/src/draw/sw/blend/lv_draw_sw_blend_to_i1.c ****                         lv_color_8_8_mix(src_buf_l8[src_x], &dest_val, opa);
 542:Drivers/lvgl/src/draw/sw/blend/lv_draw_sw_blend_to_i1.c ****                         if(dest_val > I1_LUM_THRESHOLD) {
 543:Drivers/lvgl/src/draw/sw/blend/lv_draw_sw_blend_to_i1.c ****                             set_bit(dest_buf_i1, dest_x + bit_ofs);
ARM GAS  /var/folders/qx/2_175_4n2s19vhvtspjhb3qh0000gn/T//ccaVas4T.s 			page 11


 544:Drivers/lvgl/src/draw/sw/blend/lv_draw_sw_blend_to_i1.c ****                         }
 545:Drivers/lvgl/src/draw/sw/blend/lv_draw_sw_blend_to_i1.c ****                         else {
 546:Drivers/lvgl/src/draw/sw/blend/lv_draw_sw_blend_to_i1.c ****                             clear_bit(dest_buf_i1, dest_x + bit_ofs);
 547:Drivers/lvgl/src/draw/sw/blend/lv_draw_sw_blend_to_i1.c ****                         }
 548:Drivers/lvgl/src/draw/sw/blend/lv_draw_sw_blend_to_i1.c ****                     }
 549:Drivers/lvgl/src/draw/sw/blend/lv_draw_sw_blend_to_i1.c ****                     dest_buf_i1 = drawbuf_next_row(dest_buf_i1, dest_stride);
 550:Drivers/lvgl/src/draw/sw/blend/lv_draw_sw_blend_to_i1.c ****                     src_buf_l8 = drawbuf_next_row(src_buf_l8, src_stride);
 551:Drivers/lvgl/src/draw/sw/blend/lv_draw_sw_blend_to_i1.c ****                 }
 552:Drivers/lvgl/src/draw/sw/blend/lv_draw_sw_blend_to_i1.c ****             }
 553:Drivers/lvgl/src/draw/sw/blend/lv_draw_sw_blend_to_i1.c ****         }
 554:Drivers/lvgl/src/draw/sw/blend/lv_draw_sw_blend_to_i1.c ****         else if(mask_buf && opa >= LV_OPA_MAX) {
 555:Drivers/lvgl/src/draw/sw/blend/lv_draw_sw_blend_to_i1.c ****             if(LV_RESULT_INVALID == LV_DRAW_SW_L8_BLEND_NORMAL_TO_I1_WITH_MASK(dsc)) {
 556:Drivers/lvgl/src/draw/sw/blend/lv_draw_sw_blend_to_i1.c ****                 for(y = 0; y < h; y++) {
 557:Drivers/lvgl/src/draw/sw/blend/lv_draw_sw_blend_to_i1.c ****                     for(dest_x = 0, src_x = 0; src_x < w; dest_x++, src_x++) {
 558:Drivers/lvgl/src/draw/sw/blend/lv_draw_sw_blend_to_i1.c ****                         uint8_t src_luminance = src_buf_l8[src_x];
 559:Drivers/lvgl/src/draw/sw/blend/lv_draw_sw_blend_to_i1.c ****                         uint8_t dest_val = get_bit(dest_buf_i1, dest_x + bit_ofs) * 255;
 560:Drivers/lvgl/src/draw/sw/blend/lv_draw_sw_blend_to_i1.c ****                         lv_color_8_8_mix(src_luminance, &dest_val, mask_buf[src_x]);
 561:Drivers/lvgl/src/draw/sw/blend/lv_draw_sw_blend_to_i1.c ****                         if(dest_val > I1_LUM_THRESHOLD) {
 562:Drivers/lvgl/src/draw/sw/blend/lv_draw_sw_blend_to_i1.c ****                             set_bit(dest_buf_i1, dest_x + bit_ofs);
 563:Drivers/lvgl/src/draw/sw/blend/lv_draw_sw_blend_to_i1.c ****                         }
 564:Drivers/lvgl/src/draw/sw/blend/lv_draw_sw_blend_to_i1.c ****                         else {
 565:Drivers/lvgl/src/draw/sw/blend/lv_draw_sw_blend_to_i1.c ****                             clear_bit(dest_buf_i1, dest_x + bit_ofs);
 566:Drivers/lvgl/src/draw/sw/blend/lv_draw_sw_blend_to_i1.c ****                         }
 567:Drivers/lvgl/src/draw/sw/blend/lv_draw_sw_blend_to_i1.c ****                     }
 568:Drivers/lvgl/src/draw/sw/blend/lv_draw_sw_blend_to_i1.c ****                     dest_buf_i1 = drawbuf_next_row(dest_buf_i1, dest_stride);
 569:Drivers/lvgl/src/draw/sw/blend/lv_draw_sw_blend_to_i1.c ****                     src_buf_l8 = drawbuf_next_row(src_buf_l8, src_stride);
 570:Drivers/lvgl/src/draw/sw/blend/lv_draw_sw_blend_to_i1.c ****                     mask_buf += mask_stride;
 571:Drivers/lvgl/src/draw/sw/blend/lv_draw_sw_blend_to_i1.c ****                 }
 572:Drivers/lvgl/src/draw/sw/blend/lv_draw_sw_blend_to_i1.c ****             }
 573:Drivers/lvgl/src/draw/sw/blend/lv_draw_sw_blend_to_i1.c ****         }
 574:Drivers/lvgl/src/draw/sw/blend/lv_draw_sw_blend_to_i1.c ****         else if(mask_buf && opa < LV_OPA_MAX) {
 575:Drivers/lvgl/src/draw/sw/blend/lv_draw_sw_blend_to_i1.c ****             if(LV_RESULT_INVALID == LV_DRAW_SW_L8_BLEND_NORMAL_TO_I1_MIX_MASK_OPA(dsc)) {
 576:Drivers/lvgl/src/draw/sw/blend/lv_draw_sw_blend_to_i1.c ****                 for(y = 0; y < h; y++) {
 577:Drivers/lvgl/src/draw/sw/blend/lv_draw_sw_blend_to_i1.c ****                     for(dest_x = 0, src_x = 0; src_x < w; dest_x++, src_x++) {
 578:Drivers/lvgl/src/draw/sw/blend/lv_draw_sw_blend_to_i1.c ****                         uint8_t src_luminance = src_buf_l8[src_x];
 579:Drivers/lvgl/src/draw/sw/blend/lv_draw_sw_blend_to_i1.c ****                         uint8_t dest_val = get_bit(dest_buf_i1, dest_x + bit_ofs) * 255;
 580:Drivers/lvgl/src/draw/sw/blend/lv_draw_sw_blend_to_i1.c ****                         lv_color_8_8_mix(src_luminance, &dest_val, LV_OPA_MIX2(mask_buf[src_x], opa
 581:Drivers/lvgl/src/draw/sw/blend/lv_draw_sw_blend_to_i1.c ****                         if(dest_val > I1_LUM_THRESHOLD) {
 582:Drivers/lvgl/src/draw/sw/blend/lv_draw_sw_blend_to_i1.c ****                             set_bit(dest_buf_i1, dest_x + bit_ofs);
 583:Drivers/lvgl/src/draw/sw/blend/lv_draw_sw_blend_to_i1.c ****                         }
 584:Drivers/lvgl/src/draw/sw/blend/lv_draw_sw_blend_to_i1.c ****                         else {
 585:Drivers/lvgl/src/draw/sw/blend/lv_draw_sw_blend_to_i1.c ****                             clear_bit(dest_buf_i1, dest_x + bit_ofs);
 586:Drivers/lvgl/src/draw/sw/blend/lv_draw_sw_blend_to_i1.c ****                         }
 587:Drivers/lvgl/src/draw/sw/blend/lv_draw_sw_blend_to_i1.c ****                     }
 588:Drivers/lvgl/src/draw/sw/blend/lv_draw_sw_blend_to_i1.c ****                     dest_buf_i1 = drawbuf_next_row(dest_buf_i1, dest_stride);
 589:Drivers/lvgl/src/draw/sw/blend/lv_draw_sw_blend_to_i1.c ****                     src_buf_l8 = drawbuf_next_row(src_buf_l8, src_stride);
 590:Drivers/lvgl/src/draw/sw/blend/lv_draw_sw_blend_to_i1.c ****                     mask_buf += mask_stride;
 591:Drivers/lvgl/src/draw/sw/blend/lv_draw_sw_blend_to_i1.c ****                 }
 592:Drivers/lvgl/src/draw/sw/blend/lv_draw_sw_blend_to_i1.c ****             }
 593:Drivers/lvgl/src/draw/sw/blend/lv_draw_sw_blend_to_i1.c ****         }
 594:Drivers/lvgl/src/draw/sw/blend/lv_draw_sw_blend_to_i1.c ****     }
 595:Drivers/lvgl/src/draw/sw/blend/lv_draw_sw_blend_to_i1.c ****     else {
 596:Drivers/lvgl/src/draw/sw/blend/lv_draw_sw_blend_to_i1.c ****         lv_color32_t src_argb;
 597:Drivers/lvgl/src/draw/sw/blend/lv_draw_sw_blend_to_i1.c ****         for(y = 0; y < h; y++) {
 598:Drivers/lvgl/src/draw/sw/blend/lv_draw_sw_blend_to_i1.c ****             for(src_x = 0; src_x < w; src_x++) {
 599:Drivers/lvgl/src/draw/sw/blend/lv_draw_sw_blend_to_i1.c ****                 src_argb.red = src_buf_l8[src_x];
 600:Drivers/lvgl/src/draw/sw/blend/lv_draw_sw_blend_to_i1.c ****                 src_argb.green = src_buf_l8[src_x];
ARM GAS  /var/folders/qx/2_175_4n2s19vhvtspjhb3qh0000gn/T//ccaVas4T.s 			page 12


 601:Drivers/lvgl/src/draw/sw/blend/lv_draw_sw_blend_to_i1.c ****                 src_argb.blue = src_buf_l8[src_x];
 602:Drivers/lvgl/src/draw/sw/blend/lv_draw_sw_blend_to_i1.c ****                 if(mask_buf == NULL) src_argb.alpha = opa;
 603:Drivers/lvgl/src/draw/sw/blend/lv_draw_sw_blend_to_i1.c ****                 else src_argb.alpha = LV_OPA_MIX2(mask_buf[src_x], opa);
 604:Drivers/lvgl/src/draw/sw/blend/lv_draw_sw_blend_to_i1.c ****                 blend_non_normal_pixel(dest_buf_i1, src_x + bit_ofs, src_argb, dsc->blend_mode);
 605:Drivers/lvgl/src/draw/sw/blend/lv_draw_sw_blend_to_i1.c ****             }
 606:Drivers/lvgl/src/draw/sw/blend/lv_draw_sw_blend_to_i1.c ****             if(mask_buf) mask_buf += mask_stride;
 607:Drivers/lvgl/src/draw/sw/blend/lv_draw_sw_blend_to_i1.c ****             dest_buf_i1 = drawbuf_next_row(dest_buf_i1, dest_stride);
 608:Drivers/lvgl/src/draw/sw/blend/lv_draw_sw_blend_to_i1.c ****             src_buf_l8 = drawbuf_next_row(src_buf_l8, src_stride);
 609:Drivers/lvgl/src/draw/sw/blend/lv_draw_sw_blend_to_i1.c ****         }
 610:Drivers/lvgl/src/draw/sw/blend/lv_draw_sw_blend_to_i1.c ****     }
 611:Drivers/lvgl/src/draw/sw/blend/lv_draw_sw_blend_to_i1.c **** }
 612:Drivers/lvgl/src/draw/sw/blend/lv_draw_sw_blend_to_i1.c **** #endif
 613:Drivers/lvgl/src/draw/sw/blend/lv_draw_sw_blend_to_i1.c **** 
 614:Drivers/lvgl/src/draw/sw/blend/lv_draw_sw_blend_to_i1.c **** #if LV_DRAW_SW_SUPPORT_AL88
 615:Drivers/lvgl/src/draw/sw/blend/lv_draw_sw_blend_to_i1.c **** static void LV_ATTRIBUTE_FAST_MEM al88_image_blend(lv_draw_sw_blend_image_dsc_t * dsc)
 616:Drivers/lvgl/src/draw/sw/blend/lv_draw_sw_blend_to_i1.c **** {
 617:Drivers/lvgl/src/draw/sw/blend/lv_draw_sw_blend_to_i1.c ****     int32_t w = dsc->dest_w;
 618:Drivers/lvgl/src/draw/sw/blend/lv_draw_sw_blend_to_i1.c ****     int32_t h = dsc->dest_h;
 619:Drivers/lvgl/src/draw/sw/blend/lv_draw_sw_blend_to_i1.c ****     lv_opa_t opa = dsc->opa;
 620:Drivers/lvgl/src/draw/sw/blend/lv_draw_sw_blend_to_i1.c ****     uint8_t * dest_buf_i1 = dsc->dest_buf;
 621:Drivers/lvgl/src/draw/sw/blend/lv_draw_sw_blend_to_i1.c ****     int32_t dest_stride = dsc->dest_stride;
 622:Drivers/lvgl/src/draw/sw/blend/lv_draw_sw_blend_to_i1.c ****     const lv_color16a_t * src_buf_al88 = dsc->src_buf;
 623:Drivers/lvgl/src/draw/sw/blend/lv_draw_sw_blend_to_i1.c ****     int32_t src_stride = dsc->src_stride;
 624:Drivers/lvgl/src/draw/sw/blend/lv_draw_sw_blend_to_i1.c ****     const lv_opa_t * mask_buf = dsc->mask_buf;
 625:Drivers/lvgl/src/draw/sw/blend/lv_draw_sw_blend_to_i1.c ****     int32_t mask_stride = dsc->mask_stride;
 626:Drivers/lvgl/src/draw/sw/blend/lv_draw_sw_blend_to_i1.c **** 
 627:Drivers/lvgl/src/draw/sw/blend/lv_draw_sw_blend_to_i1.c ****     int32_t dest_x;
 628:Drivers/lvgl/src/draw/sw/blend/lv_draw_sw_blend_to_i1.c ****     int32_t src_x;
 629:Drivers/lvgl/src/draw/sw/blend/lv_draw_sw_blend_to_i1.c ****     int32_t y;
 630:Drivers/lvgl/src/draw/sw/blend/lv_draw_sw_blend_to_i1.c **** 
 631:Drivers/lvgl/src/draw/sw/blend/lv_draw_sw_blend_to_i1.c ****     int32_t bit_ofs = dsc->relative_area.x1 % 8;
 632:Drivers/lvgl/src/draw/sw/blend/lv_draw_sw_blend_to_i1.c **** 
 633:Drivers/lvgl/src/draw/sw/blend/lv_draw_sw_blend_to_i1.c ****     if(dsc->blend_mode == LV_BLEND_MODE_NORMAL) {
 634:Drivers/lvgl/src/draw/sw/blend/lv_draw_sw_blend_to_i1.c ****         if(mask_buf == NULL && opa >= LV_OPA_MAX) {
 635:Drivers/lvgl/src/draw/sw/blend/lv_draw_sw_blend_to_i1.c ****             if(LV_RESULT_INVALID == LV_DRAW_SW_AL88_BLEND_NORMAL_TO_I1(dsc)) {
 636:Drivers/lvgl/src/draw/sw/blend/lv_draw_sw_blend_to_i1.c ****                 for(y = 0; y < h; y++) {
 637:Drivers/lvgl/src/draw/sw/blend/lv_draw_sw_blend_to_i1.c ****                     for(dest_x = 0, src_x = 0; src_x < w; dest_x++, src_x++) {
 638:Drivers/lvgl/src/draw/sw/blend/lv_draw_sw_blend_to_i1.c ****                         uint8_t dest_val = get_bit(dest_buf_i1, dest_x + bit_ofs) * 255;
 639:Drivers/lvgl/src/draw/sw/blend/lv_draw_sw_blend_to_i1.c ****                         lv_color_8_8_mix(src_buf_al88[src_x].lumi, &dest_val, src_buf_al88[src_x].a
 640:Drivers/lvgl/src/draw/sw/blend/lv_draw_sw_blend_to_i1.c ****                         if(dest_val > I1_LUM_THRESHOLD) {
 641:Drivers/lvgl/src/draw/sw/blend/lv_draw_sw_blend_to_i1.c ****                             set_bit(dest_buf_i1, dest_x + bit_ofs);
 642:Drivers/lvgl/src/draw/sw/blend/lv_draw_sw_blend_to_i1.c ****                         }
 643:Drivers/lvgl/src/draw/sw/blend/lv_draw_sw_blend_to_i1.c ****                         else {
 644:Drivers/lvgl/src/draw/sw/blend/lv_draw_sw_blend_to_i1.c ****                             clear_bit(dest_buf_i1, dest_x + bit_ofs);
 645:Drivers/lvgl/src/draw/sw/blend/lv_draw_sw_blend_to_i1.c ****                         }
 646:Drivers/lvgl/src/draw/sw/blend/lv_draw_sw_blend_to_i1.c ****                     }
 647:Drivers/lvgl/src/draw/sw/blend/lv_draw_sw_blend_to_i1.c ****                     dest_buf_i1 = drawbuf_next_row(dest_buf_i1, dest_stride);
 648:Drivers/lvgl/src/draw/sw/blend/lv_draw_sw_blend_to_i1.c ****                     src_buf_al88 = drawbuf_next_row(src_buf_al88, src_stride);
 649:Drivers/lvgl/src/draw/sw/blend/lv_draw_sw_blend_to_i1.c ****                 }
 650:Drivers/lvgl/src/draw/sw/blend/lv_draw_sw_blend_to_i1.c ****             }
 651:Drivers/lvgl/src/draw/sw/blend/lv_draw_sw_blend_to_i1.c ****         }
 652:Drivers/lvgl/src/draw/sw/blend/lv_draw_sw_blend_to_i1.c ****         else if(mask_buf == NULL && opa < LV_OPA_MAX) {
 653:Drivers/lvgl/src/draw/sw/blend/lv_draw_sw_blend_to_i1.c ****             if(LV_RESULT_INVALID == LV_DRAW_SW_AL88_BLEND_NORMAL_TO_I1_WITH_OPA(dsc)) {
 654:Drivers/lvgl/src/draw/sw/blend/lv_draw_sw_blend_to_i1.c ****                 for(y = 0; y < h; y++) {
 655:Drivers/lvgl/src/draw/sw/blend/lv_draw_sw_blend_to_i1.c ****                     for(dest_x = 0, src_x = 0; src_x < w; dest_x++, src_x++) {
 656:Drivers/lvgl/src/draw/sw/blend/lv_draw_sw_blend_to_i1.c ****                         uint8_t dest_val = get_bit(dest_buf_i1, dest_x + bit_ofs) * 255;
 657:Drivers/lvgl/src/draw/sw/blend/lv_draw_sw_blend_to_i1.c ****                         lv_color_8_8_mix(src_buf_al88[src_x].lumi, &dest_val, LV_OPA_MIX2(src_buf_a
ARM GAS  /var/folders/qx/2_175_4n2s19vhvtspjhb3qh0000gn/T//ccaVas4T.s 			page 13


 658:Drivers/lvgl/src/draw/sw/blend/lv_draw_sw_blend_to_i1.c ****                         if(dest_val > I1_LUM_THRESHOLD) {
 659:Drivers/lvgl/src/draw/sw/blend/lv_draw_sw_blend_to_i1.c ****                             set_bit(dest_buf_i1, dest_x + bit_ofs);
 660:Drivers/lvgl/src/draw/sw/blend/lv_draw_sw_blend_to_i1.c ****                         }
 661:Drivers/lvgl/src/draw/sw/blend/lv_draw_sw_blend_to_i1.c ****                         else {
 662:Drivers/lvgl/src/draw/sw/blend/lv_draw_sw_blend_to_i1.c ****                             clear_bit(dest_buf_i1, dest_x + bit_ofs);
 663:Drivers/lvgl/src/draw/sw/blend/lv_draw_sw_blend_to_i1.c ****                         }
 664:Drivers/lvgl/src/draw/sw/blend/lv_draw_sw_blend_to_i1.c ****                     }
 665:Drivers/lvgl/src/draw/sw/blend/lv_draw_sw_blend_to_i1.c ****                     dest_buf_i1 = drawbuf_next_row(dest_buf_i1, dest_stride);
 666:Drivers/lvgl/src/draw/sw/blend/lv_draw_sw_blend_to_i1.c ****                     src_buf_al88 = drawbuf_next_row(src_buf_al88, src_stride);
 667:Drivers/lvgl/src/draw/sw/blend/lv_draw_sw_blend_to_i1.c ****                 }
 668:Drivers/lvgl/src/draw/sw/blend/lv_draw_sw_blend_to_i1.c ****             }
 669:Drivers/lvgl/src/draw/sw/blend/lv_draw_sw_blend_to_i1.c ****         }
 670:Drivers/lvgl/src/draw/sw/blend/lv_draw_sw_blend_to_i1.c ****         else if(mask_buf && opa >= LV_OPA_MAX) {
 671:Drivers/lvgl/src/draw/sw/blend/lv_draw_sw_blend_to_i1.c ****             if(LV_RESULT_INVALID == LV_DRAW_SW_AL88_BLEND_NORMAL_TO_I1_WITH_MASK(dsc)) {
 672:Drivers/lvgl/src/draw/sw/blend/lv_draw_sw_blend_to_i1.c ****                 for(y = 0; y < h; y++) {
 673:Drivers/lvgl/src/draw/sw/blend/lv_draw_sw_blend_to_i1.c ****                     for(dest_x = 0, src_x = 0; src_x < w; dest_x++, src_x++) {
 674:Drivers/lvgl/src/draw/sw/blend/lv_draw_sw_blend_to_i1.c ****                         uint8_t dest_val = get_bit(dest_buf_i1, dest_x + bit_ofs) * 255;
 675:Drivers/lvgl/src/draw/sw/blend/lv_draw_sw_blend_to_i1.c ****                         lv_color_8_8_mix(src_buf_al88[src_x].lumi, &dest_val,  LV_OPA_MIX2(src_buf_
 676:Drivers/lvgl/src/draw/sw/blend/lv_draw_sw_blend_to_i1.c ****                         if(dest_val > I1_LUM_THRESHOLD) {
 677:Drivers/lvgl/src/draw/sw/blend/lv_draw_sw_blend_to_i1.c ****                             set_bit(dest_buf_i1, dest_x + bit_ofs);
 678:Drivers/lvgl/src/draw/sw/blend/lv_draw_sw_blend_to_i1.c ****                         }
 679:Drivers/lvgl/src/draw/sw/blend/lv_draw_sw_blend_to_i1.c ****                         else {
 680:Drivers/lvgl/src/draw/sw/blend/lv_draw_sw_blend_to_i1.c ****                             clear_bit(dest_buf_i1, dest_x + bit_ofs);
 681:Drivers/lvgl/src/draw/sw/blend/lv_draw_sw_blend_to_i1.c ****                         }
 682:Drivers/lvgl/src/draw/sw/blend/lv_draw_sw_blend_to_i1.c ****                     }
 683:Drivers/lvgl/src/draw/sw/blend/lv_draw_sw_blend_to_i1.c ****                     dest_buf_i1 = drawbuf_next_row(dest_buf_i1, dest_stride);
 684:Drivers/lvgl/src/draw/sw/blend/lv_draw_sw_blend_to_i1.c ****                     src_buf_al88 = drawbuf_next_row(src_buf_al88, src_stride);
 685:Drivers/lvgl/src/draw/sw/blend/lv_draw_sw_blend_to_i1.c ****                     mask_buf += mask_stride;
 686:Drivers/lvgl/src/draw/sw/blend/lv_draw_sw_blend_to_i1.c ****                 }
 687:Drivers/lvgl/src/draw/sw/blend/lv_draw_sw_blend_to_i1.c ****             }
 688:Drivers/lvgl/src/draw/sw/blend/lv_draw_sw_blend_to_i1.c ****         }
 689:Drivers/lvgl/src/draw/sw/blend/lv_draw_sw_blend_to_i1.c ****         else if(mask_buf && opa < LV_OPA_MAX) {
 690:Drivers/lvgl/src/draw/sw/blend/lv_draw_sw_blend_to_i1.c ****             if(LV_RESULT_INVALID == LV_DRAW_SW_AL88_BLEND_NORMAL_TO_I1_MIX_MASK_OPA(dsc)) {
 691:Drivers/lvgl/src/draw/sw/blend/lv_draw_sw_blend_to_i1.c ****                 for(y = 0; y < h; y++) {
 692:Drivers/lvgl/src/draw/sw/blend/lv_draw_sw_blend_to_i1.c ****                     for(dest_x = 0, src_x = 0; src_x < w; dest_x++, src_x++) {
 693:Drivers/lvgl/src/draw/sw/blend/lv_draw_sw_blend_to_i1.c ****                         uint8_t dest_val = get_bit(dest_buf_i1, dest_x + bit_ofs) * 255;
 694:Drivers/lvgl/src/draw/sw/blend/lv_draw_sw_blend_to_i1.c ****                         lv_color_8_8_mix(src_buf_al88[src_x].lumi, &dest_val, LV_OPA_MIX3(src_buf_a
 695:Drivers/lvgl/src/draw/sw/blend/lv_draw_sw_blend_to_i1.c ****                         if(dest_val > I1_LUM_THRESHOLD) {
 696:Drivers/lvgl/src/draw/sw/blend/lv_draw_sw_blend_to_i1.c ****                             set_bit(dest_buf_i1, dest_x + bit_ofs);
 697:Drivers/lvgl/src/draw/sw/blend/lv_draw_sw_blend_to_i1.c ****                         }
 698:Drivers/lvgl/src/draw/sw/blend/lv_draw_sw_blend_to_i1.c ****                         else {
 699:Drivers/lvgl/src/draw/sw/blend/lv_draw_sw_blend_to_i1.c ****                             clear_bit(dest_buf_i1, dest_x + bit_ofs);
 700:Drivers/lvgl/src/draw/sw/blend/lv_draw_sw_blend_to_i1.c ****                         }
 701:Drivers/lvgl/src/draw/sw/blend/lv_draw_sw_blend_to_i1.c ****                     }
 702:Drivers/lvgl/src/draw/sw/blend/lv_draw_sw_blend_to_i1.c ****                     dest_buf_i1 = drawbuf_next_row(dest_buf_i1, dest_stride);
 703:Drivers/lvgl/src/draw/sw/blend/lv_draw_sw_blend_to_i1.c ****                     src_buf_al88 = drawbuf_next_row(src_buf_al88, src_stride);
 704:Drivers/lvgl/src/draw/sw/blend/lv_draw_sw_blend_to_i1.c ****                     mask_buf += mask_stride;
 705:Drivers/lvgl/src/draw/sw/blend/lv_draw_sw_blend_to_i1.c ****                 }
 706:Drivers/lvgl/src/draw/sw/blend/lv_draw_sw_blend_to_i1.c ****             }
 707:Drivers/lvgl/src/draw/sw/blend/lv_draw_sw_blend_to_i1.c ****         }
 708:Drivers/lvgl/src/draw/sw/blend/lv_draw_sw_blend_to_i1.c ****     }
 709:Drivers/lvgl/src/draw/sw/blend/lv_draw_sw_blend_to_i1.c ****     else {
 710:Drivers/lvgl/src/draw/sw/blend/lv_draw_sw_blend_to_i1.c ****         lv_color32_t src_argb;
 711:Drivers/lvgl/src/draw/sw/blend/lv_draw_sw_blend_to_i1.c ****         for(y = 0; y < h; y++) {
 712:Drivers/lvgl/src/draw/sw/blend/lv_draw_sw_blend_to_i1.c ****             for(dest_x = 0, src_x = 0; src_x < w; dest_x++, src_x++) {
 713:Drivers/lvgl/src/draw/sw/blend/lv_draw_sw_blend_to_i1.c ****                 src_argb.red = src_buf_al88[src_x].lumi;
 714:Drivers/lvgl/src/draw/sw/blend/lv_draw_sw_blend_to_i1.c ****                 src_argb.green = src_buf_al88[src_x].lumi;
ARM GAS  /var/folders/qx/2_175_4n2s19vhvtspjhb3qh0000gn/T//ccaVas4T.s 			page 14


 715:Drivers/lvgl/src/draw/sw/blend/lv_draw_sw_blend_to_i1.c ****                 src_argb.blue = src_buf_al88[src_x].lumi;
 716:Drivers/lvgl/src/draw/sw/blend/lv_draw_sw_blend_to_i1.c ****                 if(mask_buf == NULL) src_argb.alpha = LV_OPA_MIX2(src_buf_al88[src_x].alpha, opa);
 717:Drivers/lvgl/src/draw/sw/blend/lv_draw_sw_blend_to_i1.c ****                 else src_argb.alpha = LV_OPA_MIX3(src_buf_al88[src_x].alpha, mask_buf[src_x], opa);
 718:Drivers/lvgl/src/draw/sw/blend/lv_draw_sw_blend_to_i1.c ****                 blend_non_normal_pixel(dest_buf_i1, dest_x + bit_ofs, src_argb, dsc->blend_mode);
 719:Drivers/lvgl/src/draw/sw/blend/lv_draw_sw_blend_to_i1.c ****             }
 720:Drivers/lvgl/src/draw/sw/blend/lv_draw_sw_blend_to_i1.c ****             if(mask_buf) mask_buf += mask_stride;
 721:Drivers/lvgl/src/draw/sw/blend/lv_draw_sw_blend_to_i1.c ****             dest_buf_i1 = drawbuf_next_row(dest_buf_i1, dest_stride);
 722:Drivers/lvgl/src/draw/sw/blend/lv_draw_sw_blend_to_i1.c ****             src_buf_al88 = drawbuf_next_row(src_buf_al88, src_stride);
 723:Drivers/lvgl/src/draw/sw/blend/lv_draw_sw_blend_to_i1.c ****         }
 724:Drivers/lvgl/src/draw/sw/blend/lv_draw_sw_blend_to_i1.c ****     }
 725:Drivers/lvgl/src/draw/sw/blend/lv_draw_sw_blend_to_i1.c **** }
 726:Drivers/lvgl/src/draw/sw/blend/lv_draw_sw_blend_to_i1.c **** #endif
 727:Drivers/lvgl/src/draw/sw/blend/lv_draw_sw_blend_to_i1.c **** 
 728:Drivers/lvgl/src/draw/sw/blend/lv_draw_sw_blend_to_i1.c **** #if LV_DRAW_SW_SUPPORT_ARGB8888
 729:Drivers/lvgl/src/draw/sw/blend/lv_draw_sw_blend_to_i1.c **** static void LV_ATTRIBUTE_FAST_MEM argb8888_image_blend(lv_draw_sw_blend_image_dsc_t * dsc)
 730:Drivers/lvgl/src/draw/sw/blend/lv_draw_sw_blend_to_i1.c **** {
 731:Drivers/lvgl/src/draw/sw/blend/lv_draw_sw_blend_to_i1.c ****     int32_t w = dsc->dest_w;
 732:Drivers/lvgl/src/draw/sw/blend/lv_draw_sw_blend_to_i1.c ****     int32_t h = dsc->dest_h;
 733:Drivers/lvgl/src/draw/sw/blend/lv_draw_sw_blend_to_i1.c ****     lv_opa_t opa = dsc->opa;
 734:Drivers/lvgl/src/draw/sw/blend/lv_draw_sw_blend_to_i1.c ****     uint8_t * dest_buf_i1 = dsc->dest_buf;
 735:Drivers/lvgl/src/draw/sw/blend/lv_draw_sw_blend_to_i1.c ****     int32_t dest_stride = dsc->dest_stride;
 736:Drivers/lvgl/src/draw/sw/blend/lv_draw_sw_blend_to_i1.c ****     const lv_color32_t * src_buf_c32 = dsc->src_buf;
 737:Drivers/lvgl/src/draw/sw/blend/lv_draw_sw_blend_to_i1.c ****     int32_t src_stride = dsc->src_stride;
 738:Drivers/lvgl/src/draw/sw/blend/lv_draw_sw_blend_to_i1.c ****     const lv_opa_t * mask_buf = dsc->mask_buf;
 739:Drivers/lvgl/src/draw/sw/blend/lv_draw_sw_blend_to_i1.c ****     int32_t mask_stride = dsc->mask_stride;
 740:Drivers/lvgl/src/draw/sw/blend/lv_draw_sw_blend_to_i1.c **** 
 741:Drivers/lvgl/src/draw/sw/blend/lv_draw_sw_blend_to_i1.c ****     int32_t x;
 742:Drivers/lvgl/src/draw/sw/blend/lv_draw_sw_blend_to_i1.c ****     int32_t y;
 743:Drivers/lvgl/src/draw/sw/blend/lv_draw_sw_blend_to_i1.c **** 
 744:Drivers/lvgl/src/draw/sw/blend/lv_draw_sw_blend_to_i1.c ****     int32_t bit_ofs = dsc->relative_area.x1 % 8;
 745:Drivers/lvgl/src/draw/sw/blend/lv_draw_sw_blend_to_i1.c **** 
 746:Drivers/lvgl/src/draw/sw/blend/lv_draw_sw_blend_to_i1.c ****     if(dsc->blend_mode == LV_BLEND_MODE_NORMAL) {
 747:Drivers/lvgl/src/draw/sw/blend/lv_draw_sw_blend_to_i1.c ****         if(mask_buf == NULL && opa >= LV_OPA_MAX) {
 748:Drivers/lvgl/src/draw/sw/blend/lv_draw_sw_blend_to_i1.c ****             if(LV_RESULT_INVALID == LV_DRAW_SW_ARGB8888_BLEND_NORMAL_TO_I1(dsc)) {
 749:Drivers/lvgl/src/draw/sw/blend/lv_draw_sw_blend_to_i1.c ****                 for(y = 0; y < h; y++) {
 750:Drivers/lvgl/src/draw/sw/blend/lv_draw_sw_blend_to_i1.c ****                     for(x = 0; x < w; x++) {
 751:Drivers/lvgl/src/draw/sw/blend/lv_draw_sw_blend_to_i1.c ****                         uint8_t src = lv_color32_luminance(src_buf_c32[x]);
 752:Drivers/lvgl/src/draw/sw/blend/lv_draw_sw_blend_to_i1.c ****                         uint8_t dest = get_bit(dest_buf_i1, x + bit_ofs) * 255;
 753:Drivers/lvgl/src/draw/sw/blend/lv_draw_sw_blend_to_i1.c ****                         lv_color_8_8_mix(src, &dest, src_buf_c32[x].alpha);
 754:Drivers/lvgl/src/draw/sw/blend/lv_draw_sw_blend_to_i1.c ****                         if(dest > I1_LUM_THRESHOLD) {
 755:Drivers/lvgl/src/draw/sw/blend/lv_draw_sw_blend_to_i1.c ****                             set_bit(dest_buf_i1, x + bit_ofs);
 756:Drivers/lvgl/src/draw/sw/blend/lv_draw_sw_blend_to_i1.c ****                         }
 757:Drivers/lvgl/src/draw/sw/blend/lv_draw_sw_blend_to_i1.c ****                         else {
 758:Drivers/lvgl/src/draw/sw/blend/lv_draw_sw_blend_to_i1.c ****                             clear_bit(dest_buf_i1, x + bit_ofs);
 759:Drivers/lvgl/src/draw/sw/blend/lv_draw_sw_blend_to_i1.c ****                         }
 760:Drivers/lvgl/src/draw/sw/blend/lv_draw_sw_blend_to_i1.c ****                     }
 761:Drivers/lvgl/src/draw/sw/blend/lv_draw_sw_blend_to_i1.c ****                     dest_buf_i1 = drawbuf_next_row(dest_buf_i1, dest_stride);
 762:Drivers/lvgl/src/draw/sw/blend/lv_draw_sw_blend_to_i1.c ****                     src_buf_c32 = drawbuf_next_row(src_buf_c32, src_stride);
 763:Drivers/lvgl/src/draw/sw/blend/lv_draw_sw_blend_to_i1.c ****                 }
 764:Drivers/lvgl/src/draw/sw/blend/lv_draw_sw_blend_to_i1.c ****             }
 765:Drivers/lvgl/src/draw/sw/blend/lv_draw_sw_blend_to_i1.c ****         }
 766:Drivers/lvgl/src/draw/sw/blend/lv_draw_sw_blend_to_i1.c ****         else if(mask_buf == NULL && opa < LV_OPA_MAX) {
 767:Drivers/lvgl/src/draw/sw/blend/lv_draw_sw_blend_to_i1.c ****             if(LV_RESULT_INVALID == LV_DRAW_SW_ARGB8888_BLEND_NORMAL_TO_I1_WITH_OPA(dsc)) {
 768:Drivers/lvgl/src/draw/sw/blend/lv_draw_sw_blend_to_i1.c ****                 for(y = 0; y < h; y++) {
 769:Drivers/lvgl/src/draw/sw/blend/lv_draw_sw_blend_to_i1.c ****                     for(x = 0; x < w; x++) {
 770:Drivers/lvgl/src/draw/sw/blend/lv_draw_sw_blend_to_i1.c ****                         uint8_t src = lv_color32_luminance(src_buf_c32[x]);
 771:Drivers/lvgl/src/draw/sw/blend/lv_draw_sw_blend_to_i1.c ****                         uint8_t dest = get_bit(dest_buf_i1, x + bit_ofs) * 255;
ARM GAS  /var/folders/qx/2_175_4n2s19vhvtspjhb3qh0000gn/T//ccaVas4T.s 			page 15


 772:Drivers/lvgl/src/draw/sw/blend/lv_draw_sw_blend_to_i1.c ****                         lv_color_8_8_mix(src, &dest, LV_OPA_MIX2(opa, src_buf_c32[x].alpha));
 773:Drivers/lvgl/src/draw/sw/blend/lv_draw_sw_blend_to_i1.c ****                         if(dest > I1_LUM_THRESHOLD) {
 774:Drivers/lvgl/src/draw/sw/blend/lv_draw_sw_blend_to_i1.c ****                             set_bit(dest_buf_i1, x + bit_ofs);
 775:Drivers/lvgl/src/draw/sw/blend/lv_draw_sw_blend_to_i1.c ****                         }
 776:Drivers/lvgl/src/draw/sw/blend/lv_draw_sw_blend_to_i1.c ****                         else {
 777:Drivers/lvgl/src/draw/sw/blend/lv_draw_sw_blend_to_i1.c ****                             clear_bit(dest_buf_i1, x + bit_ofs);
 778:Drivers/lvgl/src/draw/sw/blend/lv_draw_sw_blend_to_i1.c ****                         }
 779:Drivers/lvgl/src/draw/sw/blend/lv_draw_sw_blend_to_i1.c ****                     }
 780:Drivers/lvgl/src/draw/sw/blend/lv_draw_sw_blend_to_i1.c ****                     dest_buf_i1 = drawbuf_next_row(dest_buf_i1, dest_stride);
 781:Drivers/lvgl/src/draw/sw/blend/lv_draw_sw_blend_to_i1.c ****                     src_buf_c32 = drawbuf_next_row(src_buf_c32, src_stride);
 782:Drivers/lvgl/src/draw/sw/blend/lv_draw_sw_blend_to_i1.c ****                 }
 783:Drivers/lvgl/src/draw/sw/blend/lv_draw_sw_blend_to_i1.c ****             }
 784:Drivers/lvgl/src/draw/sw/blend/lv_draw_sw_blend_to_i1.c ****         }
 785:Drivers/lvgl/src/draw/sw/blend/lv_draw_sw_blend_to_i1.c ****         else if(mask_buf && opa >= LV_OPA_MAX) {
 786:Drivers/lvgl/src/draw/sw/blend/lv_draw_sw_blend_to_i1.c ****             if(LV_RESULT_INVALID == LV_DRAW_SW_ARGB8888_BLEND_NORMAL_TO_I1_WITH_MASK(dsc)) {
 787:Drivers/lvgl/src/draw/sw/blend/lv_draw_sw_blend_to_i1.c ****                 for(y = 0; y < h; y++) {
 788:Drivers/lvgl/src/draw/sw/blend/lv_draw_sw_blend_to_i1.c ****                     for(x = 0; x < w; x++) {
 789:Drivers/lvgl/src/draw/sw/blend/lv_draw_sw_blend_to_i1.c ****                         uint8_t src = lv_color32_luminance(src_buf_c32[x]);
 790:Drivers/lvgl/src/draw/sw/blend/lv_draw_sw_blend_to_i1.c ****                         uint8_t dest = get_bit(dest_buf_i1, x + bit_ofs) * 255;
 791:Drivers/lvgl/src/draw/sw/blend/lv_draw_sw_blend_to_i1.c ****                         lv_color_8_8_mix(src, &dest, LV_OPA_MIX2(mask_buf[x], src_buf_c32[x].alpha)
 792:Drivers/lvgl/src/draw/sw/blend/lv_draw_sw_blend_to_i1.c ****                         if(dest > I1_LUM_THRESHOLD) {
 793:Drivers/lvgl/src/draw/sw/blend/lv_draw_sw_blend_to_i1.c ****                             set_bit(dest_buf_i1, x + bit_ofs);
 794:Drivers/lvgl/src/draw/sw/blend/lv_draw_sw_blend_to_i1.c ****                         }
 795:Drivers/lvgl/src/draw/sw/blend/lv_draw_sw_blend_to_i1.c ****                         else {
 796:Drivers/lvgl/src/draw/sw/blend/lv_draw_sw_blend_to_i1.c ****                             clear_bit(dest_buf_i1, x + bit_ofs);
 797:Drivers/lvgl/src/draw/sw/blend/lv_draw_sw_blend_to_i1.c ****                         }
 798:Drivers/lvgl/src/draw/sw/blend/lv_draw_sw_blend_to_i1.c ****                     }
 799:Drivers/lvgl/src/draw/sw/blend/lv_draw_sw_blend_to_i1.c ****                     dest_buf_i1 = drawbuf_next_row(dest_buf_i1, dest_stride);
 800:Drivers/lvgl/src/draw/sw/blend/lv_draw_sw_blend_to_i1.c ****                     src_buf_c32 = drawbuf_next_row(src_buf_c32, src_stride);
 801:Drivers/lvgl/src/draw/sw/blend/lv_draw_sw_blend_to_i1.c ****                     mask_buf += mask_stride;
 802:Drivers/lvgl/src/draw/sw/blend/lv_draw_sw_blend_to_i1.c ****                 }
 803:Drivers/lvgl/src/draw/sw/blend/lv_draw_sw_blend_to_i1.c ****             }
 804:Drivers/lvgl/src/draw/sw/blend/lv_draw_sw_blend_to_i1.c ****         }
 805:Drivers/lvgl/src/draw/sw/blend/lv_draw_sw_blend_to_i1.c ****         else if(mask_buf && opa < LV_OPA_MAX) {
 806:Drivers/lvgl/src/draw/sw/blend/lv_draw_sw_blend_to_i1.c ****             if(LV_RESULT_INVALID == LV_DRAW_SW_ARGB8888_BLEND_NORMAL_TO_I1_MIX_MASK_OPA(dsc)) {
 807:Drivers/lvgl/src/draw/sw/blend/lv_draw_sw_blend_to_i1.c ****                 for(y = 0; y < h; y++) {
 808:Drivers/lvgl/src/draw/sw/blend/lv_draw_sw_blend_to_i1.c ****                     for(x = 0; x < w; x++) {
 809:Drivers/lvgl/src/draw/sw/blend/lv_draw_sw_blend_to_i1.c ****                         uint8_t src = lv_color32_luminance(src_buf_c32[x]);
 810:Drivers/lvgl/src/draw/sw/blend/lv_draw_sw_blend_to_i1.c ****                         uint8_t dest = get_bit(dest_buf_i1, x + bit_ofs) * 255;
 811:Drivers/lvgl/src/draw/sw/blend/lv_draw_sw_blend_to_i1.c ****                         lv_color_8_8_mix(src, &dest, LV_OPA_MIX3(opa, mask_buf[x], src_buf_c32[x].a
 812:Drivers/lvgl/src/draw/sw/blend/lv_draw_sw_blend_to_i1.c ****                         if(dest > I1_LUM_THRESHOLD) {
 813:Drivers/lvgl/src/draw/sw/blend/lv_draw_sw_blend_to_i1.c ****                             set_bit(dest_buf_i1, x + bit_ofs);
 814:Drivers/lvgl/src/draw/sw/blend/lv_draw_sw_blend_to_i1.c ****                         }
 815:Drivers/lvgl/src/draw/sw/blend/lv_draw_sw_blend_to_i1.c ****                         else {
 816:Drivers/lvgl/src/draw/sw/blend/lv_draw_sw_blend_to_i1.c ****                             clear_bit(dest_buf_i1, x + bit_ofs);
 817:Drivers/lvgl/src/draw/sw/blend/lv_draw_sw_blend_to_i1.c ****                         }
 818:Drivers/lvgl/src/draw/sw/blend/lv_draw_sw_blend_to_i1.c ****                     }
 819:Drivers/lvgl/src/draw/sw/blend/lv_draw_sw_blend_to_i1.c ****                     dest_buf_i1 = drawbuf_next_row(dest_buf_i1, dest_stride);
 820:Drivers/lvgl/src/draw/sw/blend/lv_draw_sw_blend_to_i1.c ****                     src_buf_c32 = drawbuf_next_row(src_buf_c32, src_stride);
 821:Drivers/lvgl/src/draw/sw/blend/lv_draw_sw_blend_to_i1.c ****                     mask_buf += mask_stride;
 822:Drivers/lvgl/src/draw/sw/blend/lv_draw_sw_blend_to_i1.c ****                 }
 823:Drivers/lvgl/src/draw/sw/blend/lv_draw_sw_blend_to_i1.c ****             }
 824:Drivers/lvgl/src/draw/sw/blend/lv_draw_sw_blend_to_i1.c ****         }
 825:Drivers/lvgl/src/draw/sw/blend/lv_draw_sw_blend_to_i1.c ****     }
 826:Drivers/lvgl/src/draw/sw/blend/lv_draw_sw_blend_to_i1.c ****     else {
 827:Drivers/lvgl/src/draw/sw/blend/lv_draw_sw_blend_to_i1.c ****         for(y = 0; y < h; y++) {
 828:Drivers/lvgl/src/draw/sw/blend/lv_draw_sw_blend_to_i1.c ****             for(x = 0; x < w; x++) {
ARM GAS  /var/folders/qx/2_175_4n2s19vhvtspjhb3qh0000gn/T//ccaVas4T.s 			page 16


 829:Drivers/lvgl/src/draw/sw/blend/lv_draw_sw_blend_to_i1.c ****                 lv_color32_t color_argb = src_buf_c32[x];
 830:Drivers/lvgl/src/draw/sw/blend/lv_draw_sw_blend_to_i1.c ****                 if(mask_buf == NULL) color_argb.alpha = LV_OPA_MIX2(color_argb.alpha, opa);
 831:Drivers/lvgl/src/draw/sw/blend/lv_draw_sw_blend_to_i1.c ****                 else color_argb.alpha = LV_OPA_MIX3(color_argb.alpha, mask_buf[x], opa);
 832:Drivers/lvgl/src/draw/sw/blend/lv_draw_sw_blend_to_i1.c ****                 blend_non_normal_pixel(dest_buf_i1, x + bit_ofs, color_argb, dsc->blend_mode);
 833:Drivers/lvgl/src/draw/sw/blend/lv_draw_sw_blend_to_i1.c ****             }
 834:Drivers/lvgl/src/draw/sw/blend/lv_draw_sw_blend_to_i1.c ****             if(mask_buf) mask_buf += mask_stride;
 835:Drivers/lvgl/src/draw/sw/blend/lv_draw_sw_blend_to_i1.c ****             dest_buf_i1 = drawbuf_next_row(dest_buf_i1, dest_stride);
 836:Drivers/lvgl/src/draw/sw/blend/lv_draw_sw_blend_to_i1.c ****             src_buf_c32 = drawbuf_next_row(src_buf_c32, src_stride);
 837:Drivers/lvgl/src/draw/sw/blend/lv_draw_sw_blend_to_i1.c ****         }
 838:Drivers/lvgl/src/draw/sw/blend/lv_draw_sw_blend_to_i1.c ****     }
 839:Drivers/lvgl/src/draw/sw/blend/lv_draw_sw_blend_to_i1.c **** }
 840:Drivers/lvgl/src/draw/sw/blend/lv_draw_sw_blend_to_i1.c **** #endif
 841:Drivers/lvgl/src/draw/sw/blend/lv_draw_sw_blend_to_i1.c **** 
 842:Drivers/lvgl/src/draw/sw/blend/lv_draw_sw_blend_to_i1.c **** #if LV_DRAW_SW_SUPPORT_RGB888 || LV_DRAW_SW_SUPPORT_XRGB8888
 843:Drivers/lvgl/src/draw/sw/blend/lv_draw_sw_blend_to_i1.c **** static void LV_ATTRIBUTE_FAST_MEM rgb888_image_blend(lv_draw_sw_blend_image_dsc_t * dsc,
 844:Drivers/lvgl/src/draw/sw/blend/lv_draw_sw_blend_to_i1.c ****                                                      const uint8_t src_px_size)
 845:Drivers/lvgl/src/draw/sw/blend/lv_draw_sw_blend_to_i1.c **** {
 846:Drivers/lvgl/src/draw/sw/blend/lv_draw_sw_blend_to_i1.c ****     int32_t w = dsc->dest_w;
 847:Drivers/lvgl/src/draw/sw/blend/lv_draw_sw_blend_to_i1.c ****     int32_t h = dsc->dest_h;
 848:Drivers/lvgl/src/draw/sw/blend/lv_draw_sw_blend_to_i1.c ****     lv_opa_t opa = dsc->opa;
 849:Drivers/lvgl/src/draw/sw/blend/lv_draw_sw_blend_to_i1.c ****     uint8_t * dest_buf_i1 = dsc->dest_buf;
 850:Drivers/lvgl/src/draw/sw/blend/lv_draw_sw_blend_to_i1.c ****     int32_t dest_stride = dsc->dest_stride;
 851:Drivers/lvgl/src/draw/sw/blend/lv_draw_sw_blend_to_i1.c ****     const uint8_t * src_buf_rgb888 = dsc->src_buf;
 852:Drivers/lvgl/src/draw/sw/blend/lv_draw_sw_blend_to_i1.c ****     int32_t src_stride = dsc->src_stride;
 853:Drivers/lvgl/src/draw/sw/blend/lv_draw_sw_blend_to_i1.c ****     const lv_opa_t * mask_buf = dsc->mask_buf;
 854:Drivers/lvgl/src/draw/sw/blend/lv_draw_sw_blend_to_i1.c ****     int32_t mask_stride = dsc->mask_stride;
 855:Drivers/lvgl/src/draw/sw/blend/lv_draw_sw_blend_to_i1.c **** 
 856:Drivers/lvgl/src/draw/sw/blend/lv_draw_sw_blend_to_i1.c ****     int32_t dest_x;
 857:Drivers/lvgl/src/draw/sw/blend/lv_draw_sw_blend_to_i1.c ****     int32_t src_x;
 858:Drivers/lvgl/src/draw/sw/blend/lv_draw_sw_blend_to_i1.c ****     int32_t y;
 859:Drivers/lvgl/src/draw/sw/blend/lv_draw_sw_blend_to_i1.c **** 
 860:Drivers/lvgl/src/draw/sw/blend/lv_draw_sw_blend_to_i1.c ****     int32_t bit_ofs = dsc->relative_area.x1 % 8;
 861:Drivers/lvgl/src/draw/sw/blend/lv_draw_sw_blend_to_i1.c **** 
 862:Drivers/lvgl/src/draw/sw/blend/lv_draw_sw_blend_to_i1.c **** 
 863:Drivers/lvgl/src/draw/sw/blend/lv_draw_sw_blend_to_i1.c ****     if(dsc->blend_mode == LV_BLEND_MODE_NORMAL) {
 864:Drivers/lvgl/src/draw/sw/blend/lv_draw_sw_blend_to_i1.c ****         /*Special case*/
 865:Drivers/lvgl/src/draw/sw/blend/lv_draw_sw_blend_to_i1.c ****         if(mask_buf == NULL && opa >= LV_OPA_MAX) {
 866:Drivers/lvgl/src/draw/sw/blend/lv_draw_sw_blend_to_i1.c ****             if(LV_RESULT_INVALID == LV_DRAW_SW_RGB888_BLEND_NORMAL_TO_I1(dsc)) {
 867:Drivers/lvgl/src/draw/sw/blend/lv_draw_sw_blend_to_i1.c ****                 for(y = 0; y < h; y++) {
 868:Drivers/lvgl/src/draw/sw/blend/lv_draw_sw_blend_to_i1.c ****                     for(dest_x = 0, src_x = 0; dest_x < w; dest_x++, src_x += src_px_size) {
 869:Drivers/lvgl/src/draw/sw/blend/lv_draw_sw_blend_to_i1.c ****                         uint8_t src = lv_color24_luminance(&src_buf_rgb888[src_x]);
 870:Drivers/lvgl/src/draw/sw/blend/lv_draw_sw_blend_to_i1.c ****                         if(src > I1_LUM_THRESHOLD) {
 871:Drivers/lvgl/src/draw/sw/blend/lv_draw_sw_blend_to_i1.c ****                             set_bit(dest_buf_i1, dest_x + bit_ofs);
 872:Drivers/lvgl/src/draw/sw/blend/lv_draw_sw_blend_to_i1.c ****                         }
 873:Drivers/lvgl/src/draw/sw/blend/lv_draw_sw_blend_to_i1.c ****                         else {
 874:Drivers/lvgl/src/draw/sw/blend/lv_draw_sw_blend_to_i1.c ****                             clear_bit(dest_buf_i1, dest_x + bit_ofs);
 875:Drivers/lvgl/src/draw/sw/blend/lv_draw_sw_blend_to_i1.c ****                         }
 876:Drivers/lvgl/src/draw/sw/blend/lv_draw_sw_blend_to_i1.c ****                     }
 877:Drivers/lvgl/src/draw/sw/blend/lv_draw_sw_blend_to_i1.c ****                     dest_buf_i1 = drawbuf_next_row(dest_buf_i1, dest_stride);
 878:Drivers/lvgl/src/draw/sw/blend/lv_draw_sw_blend_to_i1.c ****                     src_buf_rgb888 = drawbuf_next_row(src_buf_rgb888, src_stride);
 879:Drivers/lvgl/src/draw/sw/blend/lv_draw_sw_blend_to_i1.c ****                 }
 880:Drivers/lvgl/src/draw/sw/blend/lv_draw_sw_blend_to_i1.c ****             }
 881:Drivers/lvgl/src/draw/sw/blend/lv_draw_sw_blend_to_i1.c ****         }
 882:Drivers/lvgl/src/draw/sw/blend/lv_draw_sw_blend_to_i1.c ****         else if(mask_buf == NULL && opa < LV_OPA_MAX) {
 883:Drivers/lvgl/src/draw/sw/blend/lv_draw_sw_blend_to_i1.c ****             if(LV_RESULT_INVALID == LV_DRAW_SW_RGB888_BLEND_NORMAL_TO_I1_WITH_OPA(dsc)) {
 884:Drivers/lvgl/src/draw/sw/blend/lv_draw_sw_blend_to_i1.c ****                 for(y = 0; y < h; y++) {
 885:Drivers/lvgl/src/draw/sw/blend/lv_draw_sw_blend_to_i1.c ****                     for(dest_x = 0, src_x = 0; dest_x < w; dest_x++, src_x += src_px_size) {
ARM GAS  /var/folders/qx/2_175_4n2s19vhvtspjhb3qh0000gn/T//ccaVas4T.s 			page 17


 886:Drivers/lvgl/src/draw/sw/blend/lv_draw_sw_blend_to_i1.c ****                         uint8_t src = lv_color24_luminance(&src_buf_rgb888[src_x]);
 887:Drivers/lvgl/src/draw/sw/blend/lv_draw_sw_blend_to_i1.c ****                         uint8_t dest = get_bit(dest_buf_i1, dest_x + bit_ofs) * 255;
 888:Drivers/lvgl/src/draw/sw/blend/lv_draw_sw_blend_to_i1.c ****                         lv_color_8_8_mix(src, &dest, opa);
 889:Drivers/lvgl/src/draw/sw/blend/lv_draw_sw_blend_to_i1.c ****                         if(dest > I1_LUM_THRESHOLD) {
 890:Drivers/lvgl/src/draw/sw/blend/lv_draw_sw_blend_to_i1.c ****                             set_bit(dest_buf_i1, dest_x + bit_ofs);
 891:Drivers/lvgl/src/draw/sw/blend/lv_draw_sw_blend_to_i1.c ****                         }
 892:Drivers/lvgl/src/draw/sw/blend/lv_draw_sw_blend_to_i1.c ****                         else {
 893:Drivers/lvgl/src/draw/sw/blend/lv_draw_sw_blend_to_i1.c ****                             clear_bit(dest_buf_i1, dest_x + bit_ofs);
 894:Drivers/lvgl/src/draw/sw/blend/lv_draw_sw_blend_to_i1.c ****                         }
 895:Drivers/lvgl/src/draw/sw/blend/lv_draw_sw_blend_to_i1.c ****                     }
 896:Drivers/lvgl/src/draw/sw/blend/lv_draw_sw_blend_to_i1.c ****                     dest_buf_i1 = drawbuf_next_row(dest_buf_i1, dest_stride);
 897:Drivers/lvgl/src/draw/sw/blend/lv_draw_sw_blend_to_i1.c ****                     src_buf_rgb888 = drawbuf_next_row(src_buf_rgb888, src_stride);
 898:Drivers/lvgl/src/draw/sw/blend/lv_draw_sw_blend_to_i1.c ****                 }
 899:Drivers/lvgl/src/draw/sw/blend/lv_draw_sw_blend_to_i1.c ****             }
 900:Drivers/lvgl/src/draw/sw/blend/lv_draw_sw_blend_to_i1.c ****         }
 901:Drivers/lvgl/src/draw/sw/blend/lv_draw_sw_blend_to_i1.c ****         else if(mask_buf && opa >= LV_OPA_MAX) {
 902:Drivers/lvgl/src/draw/sw/blend/lv_draw_sw_blend_to_i1.c ****             if(LV_RESULT_INVALID == LV_DRAW_SW_RGB888_BLEND_NORMAL_TO_I1_WITH_MASK(dsc)) {
 903:Drivers/lvgl/src/draw/sw/blend/lv_draw_sw_blend_to_i1.c ****                 uint32_t mask_x;
 904:Drivers/lvgl/src/draw/sw/blend/lv_draw_sw_blend_to_i1.c ****                 for(y = 0; y < h; y++) {
 905:Drivers/lvgl/src/draw/sw/blend/lv_draw_sw_blend_to_i1.c ****                     for(mask_x = 0, dest_x = 0, src_x = 0; dest_x < w; mask_x++, dest_x++, src_x +=
 906:Drivers/lvgl/src/draw/sw/blend/lv_draw_sw_blend_to_i1.c ****                         uint8_t src = lv_color24_luminance(&src_buf_rgb888[src_x]);
 907:Drivers/lvgl/src/draw/sw/blend/lv_draw_sw_blend_to_i1.c ****                         uint8_t dest = get_bit(dest_buf_i1, dest_x + bit_ofs) * 255;
 908:Drivers/lvgl/src/draw/sw/blend/lv_draw_sw_blend_to_i1.c ****                         lv_color_8_8_mix(src, &dest, mask_buf[mask_x]);
 909:Drivers/lvgl/src/draw/sw/blend/lv_draw_sw_blend_to_i1.c ****                         if(dest > I1_LUM_THRESHOLD) {
 910:Drivers/lvgl/src/draw/sw/blend/lv_draw_sw_blend_to_i1.c ****                             set_bit(dest_buf_i1, dest_x + bit_ofs);
 911:Drivers/lvgl/src/draw/sw/blend/lv_draw_sw_blend_to_i1.c ****                         }
 912:Drivers/lvgl/src/draw/sw/blend/lv_draw_sw_blend_to_i1.c ****                         else {
 913:Drivers/lvgl/src/draw/sw/blend/lv_draw_sw_blend_to_i1.c ****                             clear_bit(dest_buf_i1, dest_x + bit_ofs);
 914:Drivers/lvgl/src/draw/sw/blend/lv_draw_sw_blend_to_i1.c ****                         }
 915:Drivers/lvgl/src/draw/sw/blend/lv_draw_sw_blend_to_i1.c ****                     }
 916:Drivers/lvgl/src/draw/sw/blend/lv_draw_sw_blend_to_i1.c ****                     dest_buf_i1 = drawbuf_next_row(dest_buf_i1, dest_stride);
 917:Drivers/lvgl/src/draw/sw/blend/lv_draw_sw_blend_to_i1.c ****                     src_buf_rgb888 = drawbuf_next_row(src_buf_rgb888, src_stride);
 918:Drivers/lvgl/src/draw/sw/blend/lv_draw_sw_blend_to_i1.c ****                     mask_buf += mask_stride;
 919:Drivers/lvgl/src/draw/sw/blend/lv_draw_sw_blend_to_i1.c ****                 }
 920:Drivers/lvgl/src/draw/sw/blend/lv_draw_sw_blend_to_i1.c ****             }
 921:Drivers/lvgl/src/draw/sw/blend/lv_draw_sw_blend_to_i1.c ****         }
 922:Drivers/lvgl/src/draw/sw/blend/lv_draw_sw_blend_to_i1.c ****         else if(mask_buf && opa < LV_OPA_MAX) {
 923:Drivers/lvgl/src/draw/sw/blend/lv_draw_sw_blend_to_i1.c ****             if(LV_RESULT_INVALID == LV_DRAW_SW_RGB888_BLEND_NORMAL_TO_I1_MIX_MASK_OPA(dsc)) {
 924:Drivers/lvgl/src/draw/sw/blend/lv_draw_sw_blend_to_i1.c ****                 uint32_t mask_x;
 925:Drivers/lvgl/src/draw/sw/blend/lv_draw_sw_blend_to_i1.c ****                 for(y = 0; y < h; y++) {
 926:Drivers/lvgl/src/draw/sw/blend/lv_draw_sw_blend_to_i1.c ****                     for(mask_x = 0, dest_x = 0, src_x = 0; dest_x < w; mask_x++, dest_x++, src_x +=
 927:Drivers/lvgl/src/draw/sw/blend/lv_draw_sw_blend_to_i1.c ****                         uint8_t src = lv_color24_luminance(&src_buf_rgb888[src_x]);
 928:Drivers/lvgl/src/draw/sw/blend/lv_draw_sw_blend_to_i1.c ****                         uint8_t dest = get_bit(dest_buf_i1, dest_x + bit_ofs) * 255;
 929:Drivers/lvgl/src/draw/sw/blend/lv_draw_sw_blend_to_i1.c ****                         lv_color_8_8_mix(src, &dest, LV_OPA_MIX2(mask_buf[mask_x], opa));
 930:Drivers/lvgl/src/draw/sw/blend/lv_draw_sw_blend_to_i1.c ****                         if(dest > I1_LUM_THRESHOLD) {
 931:Drivers/lvgl/src/draw/sw/blend/lv_draw_sw_blend_to_i1.c ****                             set_bit(dest_buf_i1, dest_x + bit_ofs);
 932:Drivers/lvgl/src/draw/sw/blend/lv_draw_sw_blend_to_i1.c ****                         }
 933:Drivers/lvgl/src/draw/sw/blend/lv_draw_sw_blend_to_i1.c ****                         else {
 934:Drivers/lvgl/src/draw/sw/blend/lv_draw_sw_blend_to_i1.c ****                             clear_bit(dest_buf_i1, dest_x + bit_ofs);
 935:Drivers/lvgl/src/draw/sw/blend/lv_draw_sw_blend_to_i1.c ****                         }
 936:Drivers/lvgl/src/draw/sw/blend/lv_draw_sw_blend_to_i1.c ****                     }
 937:Drivers/lvgl/src/draw/sw/blend/lv_draw_sw_blend_to_i1.c ****                     dest_buf_i1 = drawbuf_next_row(dest_buf_i1, dest_stride);
 938:Drivers/lvgl/src/draw/sw/blend/lv_draw_sw_blend_to_i1.c ****                     src_buf_rgb888 = drawbuf_next_row(src_buf_rgb888, src_stride);
 939:Drivers/lvgl/src/draw/sw/blend/lv_draw_sw_blend_to_i1.c ****                     mask_buf += mask_stride;
 940:Drivers/lvgl/src/draw/sw/blend/lv_draw_sw_blend_to_i1.c ****                 }
 941:Drivers/lvgl/src/draw/sw/blend/lv_draw_sw_blend_to_i1.c ****             }
 942:Drivers/lvgl/src/draw/sw/blend/lv_draw_sw_blend_to_i1.c ****         }
ARM GAS  /var/folders/qx/2_175_4n2s19vhvtspjhb3qh0000gn/T//ccaVas4T.s 			page 18


 943:Drivers/lvgl/src/draw/sw/blend/lv_draw_sw_blend_to_i1.c ****         else {
 944:Drivers/lvgl/src/draw/sw/blend/lv_draw_sw_blend_to_i1.c ****             lv_color32_t src_argb;
 945:Drivers/lvgl/src/draw/sw/blend/lv_draw_sw_blend_to_i1.c ****             for(y = 0; y < h; y++) {
 946:Drivers/lvgl/src/draw/sw/blend/lv_draw_sw_blend_to_i1.c ****                 for(dest_x = 0, src_x = 0; dest_x < w; dest_x++, src_x += src_px_size) {
 947:Drivers/lvgl/src/draw/sw/blend/lv_draw_sw_blend_to_i1.c ****                     src_argb.red = src_buf_rgb888[src_x + 2];
 948:Drivers/lvgl/src/draw/sw/blend/lv_draw_sw_blend_to_i1.c ****                     src_argb.green = src_buf_rgb888[src_x + 1];
 949:Drivers/lvgl/src/draw/sw/blend/lv_draw_sw_blend_to_i1.c ****                     src_argb.blue = src_buf_rgb888[src_x + 0];
 950:Drivers/lvgl/src/draw/sw/blend/lv_draw_sw_blend_to_i1.c ****                     if(mask_buf == NULL) src_argb.alpha = opa;
 951:Drivers/lvgl/src/draw/sw/blend/lv_draw_sw_blend_to_i1.c ****                     else src_argb.alpha = LV_OPA_MIX2(mask_buf[dest_x], opa);
 952:Drivers/lvgl/src/draw/sw/blend/lv_draw_sw_blend_to_i1.c **** 
 953:Drivers/lvgl/src/draw/sw/blend/lv_draw_sw_blend_to_i1.c ****                     blend_non_normal_pixel(dest_buf_i1, dest_x + bit_ofs, src_argb, dsc->blend_mode
 954:Drivers/lvgl/src/draw/sw/blend/lv_draw_sw_blend_to_i1.c ****                 }
 955:Drivers/lvgl/src/draw/sw/blend/lv_draw_sw_blend_to_i1.c ****                 if(mask_buf) mask_buf += mask_stride;
 956:Drivers/lvgl/src/draw/sw/blend/lv_draw_sw_blend_to_i1.c ****                 dest_buf_i1 = drawbuf_next_row(dest_buf_i1, dest_stride);
 957:Drivers/lvgl/src/draw/sw/blend/lv_draw_sw_blend_to_i1.c ****                 src_buf_rgb888 = drawbuf_next_row(src_buf_rgb888, src_stride);
 958:Drivers/lvgl/src/draw/sw/blend/lv_draw_sw_blend_to_i1.c ****             }
 959:Drivers/lvgl/src/draw/sw/blend/lv_draw_sw_blend_to_i1.c ****         }
 960:Drivers/lvgl/src/draw/sw/blend/lv_draw_sw_blend_to_i1.c ****     }
 961:Drivers/lvgl/src/draw/sw/blend/lv_draw_sw_blend_to_i1.c **** }
 962:Drivers/lvgl/src/draw/sw/blend/lv_draw_sw_blend_to_i1.c **** #endif
 963:Drivers/lvgl/src/draw/sw/blend/lv_draw_sw_blend_to_i1.c **** 
 964:Drivers/lvgl/src/draw/sw/blend/lv_draw_sw_blend_to_i1.c **** #if LV_DRAW_SW_SUPPORT_RGB565
 965:Drivers/lvgl/src/draw/sw/blend/lv_draw_sw_blend_to_i1.c **** static void LV_ATTRIBUTE_FAST_MEM rgb565_image_blend(lv_draw_sw_blend_image_dsc_t * dsc)
 966:Drivers/lvgl/src/draw/sw/blend/lv_draw_sw_blend_to_i1.c **** {
 967:Drivers/lvgl/src/draw/sw/blend/lv_draw_sw_blend_to_i1.c ****     int32_t w = dsc->dest_w;
 968:Drivers/lvgl/src/draw/sw/blend/lv_draw_sw_blend_to_i1.c ****     int32_t h = dsc->dest_h;
 969:Drivers/lvgl/src/draw/sw/blend/lv_draw_sw_blend_to_i1.c ****     lv_opa_t opa = dsc->opa;
 970:Drivers/lvgl/src/draw/sw/blend/lv_draw_sw_blend_to_i1.c ****     uint8_t * dest_buf_u8 = dsc->dest_buf;
 971:Drivers/lvgl/src/draw/sw/blend/lv_draw_sw_blend_to_i1.c ****     int32_t dest_stride = dsc->dest_stride;
 972:Drivers/lvgl/src/draw/sw/blend/lv_draw_sw_blend_to_i1.c ****     const lv_color16_t * src_buf_c16 = (const lv_color16_t *)dsc->src_buf;
 973:Drivers/lvgl/src/draw/sw/blend/lv_draw_sw_blend_to_i1.c ****     int32_t src_stride = dsc->src_stride;
 974:Drivers/lvgl/src/draw/sw/blend/lv_draw_sw_blend_to_i1.c ****     const lv_opa_t * mask_buf = dsc->mask_buf;
 975:Drivers/lvgl/src/draw/sw/blend/lv_draw_sw_blend_to_i1.c ****     int32_t mask_stride = dsc->mask_stride;
 976:Drivers/lvgl/src/draw/sw/blend/lv_draw_sw_blend_to_i1.c ****     int32_t bit_ofs = dsc->relative_area.x1 % 8;
 977:Drivers/lvgl/src/draw/sw/blend/lv_draw_sw_blend_to_i1.c **** 
 978:Drivers/lvgl/src/draw/sw/blend/lv_draw_sw_blend_to_i1.c ****     int32_t src_x;
 979:Drivers/lvgl/src/draw/sw/blend/lv_draw_sw_blend_to_i1.c ****     int32_t dest_x;
 980:Drivers/lvgl/src/draw/sw/blend/lv_draw_sw_blend_to_i1.c ****     int32_t y;
 981:Drivers/lvgl/src/draw/sw/blend/lv_draw_sw_blend_to_i1.c **** 
 982:Drivers/lvgl/src/draw/sw/blend/lv_draw_sw_blend_to_i1.c ****     if(dsc->blend_mode == LV_BLEND_MODE_NORMAL) {
 983:Drivers/lvgl/src/draw/sw/blend/lv_draw_sw_blend_to_i1.c ****         if(mask_buf == NULL && opa >= LV_OPA_MAX) {
 984:Drivers/lvgl/src/draw/sw/blend/lv_draw_sw_blend_to_i1.c ****             if(LV_RESULT_INVALID == LV_DRAW_SW_RGB565_BLEND_NORMAL_TO_I1(dsc)) {
 985:Drivers/lvgl/src/draw/sw/blend/lv_draw_sw_blend_to_i1.c ****                 for(y = 0; y < h; y++) {
 986:Drivers/lvgl/src/draw/sw/blend/lv_draw_sw_blend_to_i1.c **** 
 987:Drivers/lvgl/src/draw/sw/blend/lv_draw_sw_blend_to_i1.c ****                     for(src_x = 0, dest_x = 0; src_x < w; dest_x++, src_x++) {
 988:Drivers/lvgl/src/draw/sw/blend/lv_draw_sw_blend_to_i1.c ****                         uint8_t src = lv_color16_luminance(src_buf_c16[src_x]);
 989:Drivers/lvgl/src/draw/sw/blend/lv_draw_sw_blend_to_i1.c ****                         if(src > I1_LUM_THRESHOLD) {
 990:Drivers/lvgl/src/draw/sw/blend/lv_draw_sw_blend_to_i1.c ****                             set_bit(dest_buf_u8, dest_x + bit_ofs);
 991:Drivers/lvgl/src/draw/sw/blend/lv_draw_sw_blend_to_i1.c ****                         }
 992:Drivers/lvgl/src/draw/sw/blend/lv_draw_sw_blend_to_i1.c ****                         else {
 993:Drivers/lvgl/src/draw/sw/blend/lv_draw_sw_blend_to_i1.c ****                             clear_bit(dest_buf_u8, dest_x + bit_ofs);
 994:Drivers/lvgl/src/draw/sw/blend/lv_draw_sw_blend_to_i1.c ****                         }
 995:Drivers/lvgl/src/draw/sw/blend/lv_draw_sw_blend_to_i1.c ****                     }
 996:Drivers/lvgl/src/draw/sw/blend/lv_draw_sw_blend_to_i1.c ****                     dest_buf_u8 = drawbuf_next_row(dest_buf_u8, dest_stride);
 997:Drivers/lvgl/src/draw/sw/blend/lv_draw_sw_blend_to_i1.c ****                     src_buf_c16 = drawbuf_next_row(src_buf_c16, src_stride);
 998:Drivers/lvgl/src/draw/sw/blend/lv_draw_sw_blend_to_i1.c ****                 }
 999:Drivers/lvgl/src/draw/sw/blend/lv_draw_sw_blend_to_i1.c ****             }
ARM GAS  /var/folders/qx/2_175_4n2s19vhvtspjhb3qh0000gn/T//ccaVas4T.s 			page 19


1000:Drivers/lvgl/src/draw/sw/blend/lv_draw_sw_blend_to_i1.c ****         }
1001:Drivers/lvgl/src/draw/sw/blend/lv_draw_sw_blend_to_i1.c ****         else if(mask_buf == NULL && opa < LV_OPA_MAX) {
1002:Drivers/lvgl/src/draw/sw/blend/lv_draw_sw_blend_to_i1.c ****             if(LV_RESULT_INVALID == LV_DRAW_SW_RGB565_BLEND_NORMAL_TO_I1_WITH_OPA(dsc)) {
1003:Drivers/lvgl/src/draw/sw/blend/lv_draw_sw_blend_to_i1.c ****                 for(y = 0; y < h; y++) {
1004:Drivers/lvgl/src/draw/sw/blend/lv_draw_sw_blend_to_i1.c ****                     for(src_x = 0, dest_x = 0; src_x < w; dest_x++, src_x++) {
1005:Drivers/lvgl/src/draw/sw/blend/lv_draw_sw_blend_to_i1.c ****                         uint8_t src = lv_color16_luminance(src_buf_c16[src_x]);
1006:Drivers/lvgl/src/draw/sw/blend/lv_draw_sw_blend_to_i1.c ****                         uint8_t dest = get_bit(dest_buf_u8, dest_x + bit_ofs) * 255;
1007:Drivers/lvgl/src/draw/sw/blend/lv_draw_sw_blend_to_i1.c ****                         lv_color_8_8_mix(src, &dest, opa);
1008:Drivers/lvgl/src/draw/sw/blend/lv_draw_sw_blend_to_i1.c ****                         if(dest > I1_LUM_THRESHOLD) {
1009:Drivers/lvgl/src/draw/sw/blend/lv_draw_sw_blend_to_i1.c ****                             set_bit(dest_buf_u8, dest_x  + bit_ofs);
1010:Drivers/lvgl/src/draw/sw/blend/lv_draw_sw_blend_to_i1.c ****                         }
1011:Drivers/lvgl/src/draw/sw/blend/lv_draw_sw_blend_to_i1.c ****                         else {
1012:Drivers/lvgl/src/draw/sw/blend/lv_draw_sw_blend_to_i1.c ****                             clear_bit(dest_buf_u8, dest_x  + bit_ofs);
1013:Drivers/lvgl/src/draw/sw/blend/lv_draw_sw_blend_to_i1.c ****                         }
1014:Drivers/lvgl/src/draw/sw/blend/lv_draw_sw_blend_to_i1.c ****                     }
1015:Drivers/lvgl/src/draw/sw/blend/lv_draw_sw_blend_to_i1.c ****                     dest_buf_u8 = drawbuf_next_row(dest_buf_u8, dest_stride);
1016:Drivers/lvgl/src/draw/sw/blend/lv_draw_sw_blend_to_i1.c ****                     src_buf_c16 = drawbuf_next_row(src_buf_c16, src_stride);
1017:Drivers/lvgl/src/draw/sw/blend/lv_draw_sw_blend_to_i1.c ****                 }
1018:Drivers/lvgl/src/draw/sw/blend/lv_draw_sw_blend_to_i1.c ****             }
1019:Drivers/lvgl/src/draw/sw/blend/lv_draw_sw_blend_to_i1.c ****         }
1020:Drivers/lvgl/src/draw/sw/blend/lv_draw_sw_blend_to_i1.c ****         else if(mask_buf && opa >= LV_OPA_MAX) {
1021:Drivers/lvgl/src/draw/sw/blend/lv_draw_sw_blend_to_i1.c ****             if(LV_RESULT_INVALID == LV_DRAW_SW_RGB565_BLEND_NORMAL_TO_I1_WITH_MASK(dsc)) {
1022:Drivers/lvgl/src/draw/sw/blend/lv_draw_sw_blend_to_i1.c ****                 uint32_t mask_x;
1023:Drivers/lvgl/src/draw/sw/blend/lv_draw_sw_blend_to_i1.c ****                 for(y = 0; y < h; y++) {
1024:Drivers/lvgl/src/draw/sw/blend/lv_draw_sw_blend_to_i1.c ****                     for(mask_x = 0, dest_x = 0, src_x = 0; dest_x < w; mask_x++, dest_x++, src_x++)
1025:Drivers/lvgl/src/draw/sw/blend/lv_draw_sw_blend_to_i1.c ****                         uint8_t src = lv_color16_luminance(src_buf_c16[src_x]);
1026:Drivers/lvgl/src/draw/sw/blend/lv_draw_sw_blend_to_i1.c ****                         uint8_t dest = get_bit(dest_buf_u8, dest_x + bit_ofs) * 255;
1027:Drivers/lvgl/src/draw/sw/blend/lv_draw_sw_blend_to_i1.c ****                         lv_color_8_8_mix(src, &dest, mask_buf[mask_x]);
1028:Drivers/lvgl/src/draw/sw/blend/lv_draw_sw_blend_to_i1.c ****                         if(dest > I1_LUM_THRESHOLD) {
1029:Drivers/lvgl/src/draw/sw/blend/lv_draw_sw_blend_to_i1.c ****                             set_bit(dest_buf_u8, dest_x + bit_ofs);
1030:Drivers/lvgl/src/draw/sw/blend/lv_draw_sw_blend_to_i1.c ****                         }
1031:Drivers/lvgl/src/draw/sw/blend/lv_draw_sw_blend_to_i1.c ****                         else {
1032:Drivers/lvgl/src/draw/sw/blend/lv_draw_sw_blend_to_i1.c ****                             clear_bit(dest_buf_u8, dest_x + bit_ofs);
1033:Drivers/lvgl/src/draw/sw/blend/lv_draw_sw_blend_to_i1.c ****                         }
1034:Drivers/lvgl/src/draw/sw/blend/lv_draw_sw_blend_to_i1.c ****                     }
1035:Drivers/lvgl/src/draw/sw/blend/lv_draw_sw_blend_to_i1.c ****                     dest_buf_u8 = drawbuf_next_row(dest_buf_u8, dest_stride);
1036:Drivers/lvgl/src/draw/sw/blend/lv_draw_sw_blend_to_i1.c ****                     src_buf_c16 = drawbuf_next_row(src_buf_c16, src_stride);
1037:Drivers/lvgl/src/draw/sw/blend/lv_draw_sw_blend_to_i1.c ****                     mask_buf += mask_stride;
1038:Drivers/lvgl/src/draw/sw/blend/lv_draw_sw_blend_to_i1.c ****                 }
1039:Drivers/lvgl/src/draw/sw/blend/lv_draw_sw_blend_to_i1.c ****             }
1040:Drivers/lvgl/src/draw/sw/blend/lv_draw_sw_blend_to_i1.c ****         }
1041:Drivers/lvgl/src/draw/sw/blend/lv_draw_sw_blend_to_i1.c ****         else if(mask_buf && opa < LV_OPA_MAX)  {
1042:Drivers/lvgl/src/draw/sw/blend/lv_draw_sw_blend_to_i1.c ****             if(LV_RESULT_INVALID == LV_DRAW_SW_RGB565_BLEND_NORMAL_TO_I1_MIX_MASK_OPA(dsc)) {
1043:Drivers/lvgl/src/draw/sw/blend/lv_draw_sw_blend_to_i1.c ****                 uint32_t mask_x;
1044:Drivers/lvgl/src/draw/sw/blend/lv_draw_sw_blend_to_i1.c ****                 for(y = 0; y < h; y++) {
1045:Drivers/lvgl/src/draw/sw/blend/lv_draw_sw_blend_to_i1.c ****                     for(mask_x = 0, dest_x = 0, src_x = 0; dest_x < w; mask_x++, dest_x++, src_x++)
1046:Drivers/lvgl/src/draw/sw/blend/lv_draw_sw_blend_to_i1.c ****                         uint8_t src = lv_color16_luminance(src_buf_c16[src_x]);
1047:Drivers/lvgl/src/draw/sw/blend/lv_draw_sw_blend_to_i1.c ****                         uint8_t dest = get_bit(dest_buf_u8, dest_x + bit_ofs) * 255;
1048:Drivers/lvgl/src/draw/sw/blend/lv_draw_sw_blend_to_i1.c ****                         lv_color_8_8_mix(src, &dest, LV_OPA_MIX2(mask_buf[mask_x], opa));
1049:Drivers/lvgl/src/draw/sw/blend/lv_draw_sw_blend_to_i1.c ****                         if(dest > I1_LUM_THRESHOLD) {
1050:Drivers/lvgl/src/draw/sw/blend/lv_draw_sw_blend_to_i1.c ****                             set_bit(dest_buf_u8, dest_x + bit_ofs);
1051:Drivers/lvgl/src/draw/sw/blend/lv_draw_sw_blend_to_i1.c ****                         }
1052:Drivers/lvgl/src/draw/sw/blend/lv_draw_sw_blend_to_i1.c ****                         else {
1053:Drivers/lvgl/src/draw/sw/blend/lv_draw_sw_blend_to_i1.c ****                             clear_bit(dest_buf_u8, dest_x + bit_ofs);
1054:Drivers/lvgl/src/draw/sw/blend/lv_draw_sw_blend_to_i1.c ****                         }
1055:Drivers/lvgl/src/draw/sw/blend/lv_draw_sw_blend_to_i1.c ****                     }
1056:Drivers/lvgl/src/draw/sw/blend/lv_draw_sw_blend_to_i1.c ****                     dest_buf_u8 = drawbuf_next_row(dest_buf_u8, dest_stride);
ARM GAS  /var/folders/qx/2_175_4n2s19vhvtspjhb3qh0000gn/T//ccaVas4T.s 			page 20


1057:Drivers/lvgl/src/draw/sw/blend/lv_draw_sw_blend_to_i1.c ****                     src_buf_c16 = drawbuf_next_row(src_buf_c16, src_stride);
1058:Drivers/lvgl/src/draw/sw/blend/lv_draw_sw_blend_to_i1.c ****                     mask_buf += mask_stride;
1059:Drivers/lvgl/src/draw/sw/blend/lv_draw_sw_blend_to_i1.c ****                 }
1060:Drivers/lvgl/src/draw/sw/blend/lv_draw_sw_blend_to_i1.c ****             }
1061:Drivers/lvgl/src/draw/sw/blend/lv_draw_sw_blend_to_i1.c ****         }
1062:Drivers/lvgl/src/draw/sw/blend/lv_draw_sw_blend_to_i1.c ****     }
1063:Drivers/lvgl/src/draw/sw/blend/lv_draw_sw_blend_to_i1.c ****     else {
1064:Drivers/lvgl/src/draw/sw/blend/lv_draw_sw_blend_to_i1.c ****         lv_color32_t src_argb;
1065:Drivers/lvgl/src/draw/sw/blend/lv_draw_sw_blend_to_i1.c ****         for(y = 0; y < h; y++) {
1066:Drivers/lvgl/src/draw/sw/blend/lv_draw_sw_blend_to_i1.c ****             for(src_x = 0, dest_x = 0; src_x < w; src_x++, dest_x++) {
1067:Drivers/lvgl/src/draw/sw/blend/lv_draw_sw_blend_to_i1.c ****                 src_argb.red = (src_buf_c16[src_x].red * 2106) >> 8;
1068:Drivers/lvgl/src/draw/sw/blend/lv_draw_sw_blend_to_i1.c ****                 src_argb.green = (src_buf_c16[src_x].green * 1037) >> 8;
1069:Drivers/lvgl/src/draw/sw/blend/lv_draw_sw_blend_to_i1.c ****                 src_argb.blue = (src_buf_c16[src_x].blue * 2106) >> 8;
1070:Drivers/lvgl/src/draw/sw/blend/lv_draw_sw_blend_to_i1.c ****                 if(mask_buf == NULL) src_argb.alpha = opa;
1071:Drivers/lvgl/src/draw/sw/blend/lv_draw_sw_blend_to_i1.c ****                 else src_argb.alpha = LV_OPA_MIX2(mask_buf[src_x], opa);
1072:Drivers/lvgl/src/draw/sw/blend/lv_draw_sw_blend_to_i1.c **** 
1073:Drivers/lvgl/src/draw/sw/blend/lv_draw_sw_blend_to_i1.c ****                 blend_non_normal_pixel(dest_buf_u8, dest_x + bit_ofs, src_argb, dsc->blend_mode);
1074:Drivers/lvgl/src/draw/sw/blend/lv_draw_sw_blend_to_i1.c ****             }
1075:Drivers/lvgl/src/draw/sw/blend/lv_draw_sw_blend_to_i1.c ****             if(mask_buf) mask_buf += mask_stride;
1076:Drivers/lvgl/src/draw/sw/blend/lv_draw_sw_blend_to_i1.c ****             dest_buf_u8 = drawbuf_next_row(dest_buf_u8, dest_stride);
1077:Drivers/lvgl/src/draw/sw/blend/lv_draw_sw_blend_to_i1.c ****             src_buf_c16 = drawbuf_next_row(src_buf_c16, src_stride);
1078:Drivers/lvgl/src/draw/sw/blend/lv_draw_sw_blend_to_i1.c ****         }
1079:Drivers/lvgl/src/draw/sw/blend/lv_draw_sw_blend_to_i1.c ****     }
1080:Drivers/lvgl/src/draw/sw/blend/lv_draw_sw_blend_to_i1.c **** }
1081:Drivers/lvgl/src/draw/sw/blend/lv_draw_sw_blend_to_i1.c **** #endif
1082:Drivers/lvgl/src/draw/sw/blend/lv_draw_sw_blend_to_i1.c **** 
1083:Drivers/lvgl/src/draw/sw/blend/lv_draw_sw_blend_to_i1.c **** #if LV_DRAW_SW_SUPPORT_RGB565_SWAPPED
1084:Drivers/lvgl/src/draw/sw/blend/lv_draw_sw_blend_to_i1.c **** static void LV_ATTRIBUTE_FAST_MEM rgb565_swapped_image_blend(lv_draw_sw_blend_image_dsc_t * dsc)
1085:Drivers/lvgl/src/draw/sw/blend/lv_draw_sw_blend_to_i1.c **** {
1086:Drivers/lvgl/src/draw/sw/blend/lv_draw_sw_blend_to_i1.c ****     int32_t w = dsc->dest_w;
1087:Drivers/lvgl/src/draw/sw/blend/lv_draw_sw_blend_to_i1.c ****     int32_t h = dsc->dest_h;
1088:Drivers/lvgl/src/draw/sw/blend/lv_draw_sw_blend_to_i1.c ****     lv_opa_t opa = dsc->opa;
1089:Drivers/lvgl/src/draw/sw/blend/lv_draw_sw_blend_to_i1.c ****     uint8_t * dest_buf_u8 = dsc->dest_buf;
1090:Drivers/lvgl/src/draw/sw/blend/lv_draw_sw_blend_to_i1.c ****     int32_t dest_stride = dsc->dest_stride;
1091:Drivers/lvgl/src/draw/sw/blend/lv_draw_sw_blend_to_i1.c ****     const uint16_t * src_buf_u16 = dsc->src_buf;
1092:Drivers/lvgl/src/draw/sw/blend/lv_draw_sw_blend_to_i1.c ****     int32_t src_stride = dsc->src_stride;
1093:Drivers/lvgl/src/draw/sw/blend/lv_draw_sw_blend_to_i1.c ****     const lv_opa_t * mask_buf = dsc->mask_buf;
1094:Drivers/lvgl/src/draw/sw/blend/lv_draw_sw_blend_to_i1.c ****     int32_t mask_stride = dsc->mask_stride;
1095:Drivers/lvgl/src/draw/sw/blend/lv_draw_sw_blend_to_i1.c ****     int32_t bit_ofs = dsc->relative_area.x1 % 8;
1096:Drivers/lvgl/src/draw/sw/blend/lv_draw_sw_blend_to_i1.c **** 
1097:Drivers/lvgl/src/draw/sw/blend/lv_draw_sw_blend_to_i1.c ****     int32_t src_x;
1098:Drivers/lvgl/src/draw/sw/blend/lv_draw_sw_blend_to_i1.c ****     int32_t dest_x;
1099:Drivers/lvgl/src/draw/sw/blend/lv_draw_sw_blend_to_i1.c ****     int32_t y;
1100:Drivers/lvgl/src/draw/sw/blend/lv_draw_sw_blend_to_i1.c ****     lv_color16_t px;
1101:Drivers/lvgl/src/draw/sw/blend/lv_draw_sw_blend_to_i1.c **** 
1102:Drivers/lvgl/src/draw/sw/blend/lv_draw_sw_blend_to_i1.c **** 
1103:Drivers/lvgl/src/draw/sw/blend/lv_draw_sw_blend_to_i1.c ****     if(dsc->blend_mode == LV_BLEND_MODE_NORMAL) {
1104:Drivers/lvgl/src/draw/sw/blend/lv_draw_sw_blend_to_i1.c ****         if(mask_buf == NULL && opa >= LV_OPA_MAX) {
1105:Drivers/lvgl/src/draw/sw/blend/lv_draw_sw_blend_to_i1.c ****             if(LV_RESULT_INVALID == LV_DRAW_SW_RGB565_SWAPPED_BLEND_NORMAL_TO_I1(dsc)) {
1106:Drivers/lvgl/src/draw/sw/blend/lv_draw_sw_blend_to_i1.c ****                 for(y = 0; y < h; y++) {
1107:Drivers/lvgl/src/draw/sw/blend/lv_draw_sw_blend_to_i1.c **** 
1108:Drivers/lvgl/src/draw/sw/blend/lv_draw_sw_blend_to_i1.c ****                     for(src_x = 0, dest_x = 0; src_x < w; dest_x++, src_x++) {
1109:Drivers/lvgl/src/draw/sw/blend/lv_draw_sw_blend_to_i1.c ****                         px = lv_color16_from_u16(lv_color_swap_16(src_buf_u16[src_x]));
1110:Drivers/lvgl/src/draw/sw/blend/lv_draw_sw_blend_to_i1.c ****                         uint8_t src = lv_color16_luminance(px);
1111:Drivers/lvgl/src/draw/sw/blend/lv_draw_sw_blend_to_i1.c ****                         if(src > I1_LUM_THRESHOLD) {
1112:Drivers/lvgl/src/draw/sw/blend/lv_draw_sw_blend_to_i1.c ****                             set_bit(dest_buf_u8, dest_x + bit_ofs);
1113:Drivers/lvgl/src/draw/sw/blend/lv_draw_sw_blend_to_i1.c ****                         }
ARM GAS  /var/folders/qx/2_175_4n2s19vhvtspjhb3qh0000gn/T//ccaVas4T.s 			page 21


1114:Drivers/lvgl/src/draw/sw/blend/lv_draw_sw_blend_to_i1.c ****                         else {
1115:Drivers/lvgl/src/draw/sw/blend/lv_draw_sw_blend_to_i1.c ****                             clear_bit(dest_buf_u8, dest_x + bit_ofs);
1116:Drivers/lvgl/src/draw/sw/blend/lv_draw_sw_blend_to_i1.c ****                         }
1117:Drivers/lvgl/src/draw/sw/blend/lv_draw_sw_blend_to_i1.c ****                     }
1118:Drivers/lvgl/src/draw/sw/blend/lv_draw_sw_blend_to_i1.c ****                     dest_buf_u8 = drawbuf_next_row(dest_buf_u8, dest_stride);
1119:Drivers/lvgl/src/draw/sw/blend/lv_draw_sw_blend_to_i1.c ****                     src_buf_u16 = drawbuf_next_row(src_buf_u16, src_stride);
1120:Drivers/lvgl/src/draw/sw/blend/lv_draw_sw_blend_to_i1.c ****                 }
1121:Drivers/lvgl/src/draw/sw/blend/lv_draw_sw_blend_to_i1.c ****             }
1122:Drivers/lvgl/src/draw/sw/blend/lv_draw_sw_blend_to_i1.c ****         }
1123:Drivers/lvgl/src/draw/sw/blend/lv_draw_sw_blend_to_i1.c ****         else if(mask_buf == NULL && opa < LV_OPA_MAX) {
1124:Drivers/lvgl/src/draw/sw/blend/lv_draw_sw_blend_to_i1.c ****             if(LV_RESULT_INVALID == LV_DRAW_SW_RGB565_SWAPPED_BLEND_NORMAL_TO_I1_WITH_OPA(dsc)) {
1125:Drivers/lvgl/src/draw/sw/blend/lv_draw_sw_blend_to_i1.c ****                 for(y = 0; y < h; y++) {
1126:Drivers/lvgl/src/draw/sw/blend/lv_draw_sw_blend_to_i1.c ****                     for(src_x = 0, dest_x = 0; src_x < w; dest_x++, src_x++) {
1127:Drivers/lvgl/src/draw/sw/blend/lv_draw_sw_blend_to_i1.c ****                         px = lv_color16_from_u16(lv_color_swap_16(src_buf_u16[src_x]));
1128:Drivers/lvgl/src/draw/sw/blend/lv_draw_sw_blend_to_i1.c ****                         uint8_t src = lv_color16_luminance(px);
1129:Drivers/lvgl/src/draw/sw/blend/lv_draw_sw_blend_to_i1.c ****                         uint8_t dest = get_bit(dest_buf_u8, dest_x + bit_ofs) * 255;
1130:Drivers/lvgl/src/draw/sw/blend/lv_draw_sw_blend_to_i1.c ****                         lv_color_8_8_mix(src, &dest, opa);
1131:Drivers/lvgl/src/draw/sw/blend/lv_draw_sw_blend_to_i1.c ****                         if(dest > I1_LUM_THRESHOLD) {
1132:Drivers/lvgl/src/draw/sw/blend/lv_draw_sw_blend_to_i1.c ****                             set_bit(dest_buf_u8, dest_x  + bit_ofs);
1133:Drivers/lvgl/src/draw/sw/blend/lv_draw_sw_blend_to_i1.c ****                         }
1134:Drivers/lvgl/src/draw/sw/blend/lv_draw_sw_blend_to_i1.c ****                         else {
1135:Drivers/lvgl/src/draw/sw/blend/lv_draw_sw_blend_to_i1.c ****                             clear_bit(dest_buf_u8, dest_x  + bit_ofs);
1136:Drivers/lvgl/src/draw/sw/blend/lv_draw_sw_blend_to_i1.c ****                         }
1137:Drivers/lvgl/src/draw/sw/blend/lv_draw_sw_blend_to_i1.c ****                     }
1138:Drivers/lvgl/src/draw/sw/blend/lv_draw_sw_blend_to_i1.c ****                     dest_buf_u8 = drawbuf_next_row(dest_buf_u8, dest_stride);
1139:Drivers/lvgl/src/draw/sw/blend/lv_draw_sw_blend_to_i1.c ****                     src_buf_u16 = drawbuf_next_row(src_buf_u16, src_stride);
1140:Drivers/lvgl/src/draw/sw/blend/lv_draw_sw_blend_to_i1.c ****                 }
1141:Drivers/lvgl/src/draw/sw/blend/lv_draw_sw_blend_to_i1.c ****             }
1142:Drivers/lvgl/src/draw/sw/blend/lv_draw_sw_blend_to_i1.c ****         }
1143:Drivers/lvgl/src/draw/sw/blend/lv_draw_sw_blend_to_i1.c ****         else if(mask_buf && opa >= LV_OPA_MAX) {
1144:Drivers/lvgl/src/draw/sw/blend/lv_draw_sw_blend_to_i1.c ****             if(LV_RESULT_INVALID == LV_DRAW_SW_RGB565_SWAPPED_BLEND_NORMAL_TO_I1_WITH_MASK(dsc)) {
1145:Drivers/lvgl/src/draw/sw/blend/lv_draw_sw_blend_to_i1.c ****                 uint32_t mask_x;
1146:Drivers/lvgl/src/draw/sw/blend/lv_draw_sw_blend_to_i1.c ****                 for(y = 0; y < h; y++) {
1147:Drivers/lvgl/src/draw/sw/blend/lv_draw_sw_blend_to_i1.c ****                     for(mask_x = 0, dest_x = 0, src_x = 0; dest_x < w; mask_x++, dest_x++, src_x++)
1148:Drivers/lvgl/src/draw/sw/blend/lv_draw_sw_blend_to_i1.c ****                         px = lv_color16_from_u16(lv_color_swap_16(src_buf_u16[src_x]));
1149:Drivers/lvgl/src/draw/sw/blend/lv_draw_sw_blend_to_i1.c ****                         uint8_t src = lv_color16_luminance(px);
1150:Drivers/lvgl/src/draw/sw/blend/lv_draw_sw_blend_to_i1.c ****                         uint8_t dest = get_bit(dest_buf_u8, dest_x + bit_ofs) * 255;
1151:Drivers/lvgl/src/draw/sw/blend/lv_draw_sw_blend_to_i1.c ****                         lv_color_8_8_mix(src, &dest, mask_buf[mask_x]);
1152:Drivers/lvgl/src/draw/sw/blend/lv_draw_sw_blend_to_i1.c ****                         if(dest > I1_LUM_THRESHOLD) {
1153:Drivers/lvgl/src/draw/sw/blend/lv_draw_sw_blend_to_i1.c ****                             set_bit(dest_buf_u8, dest_x + bit_ofs);
1154:Drivers/lvgl/src/draw/sw/blend/lv_draw_sw_blend_to_i1.c ****                         }
1155:Drivers/lvgl/src/draw/sw/blend/lv_draw_sw_blend_to_i1.c ****                         else {
1156:Drivers/lvgl/src/draw/sw/blend/lv_draw_sw_blend_to_i1.c ****                             clear_bit(dest_buf_u8, dest_x + bit_ofs);
1157:Drivers/lvgl/src/draw/sw/blend/lv_draw_sw_blend_to_i1.c ****                         }
1158:Drivers/lvgl/src/draw/sw/blend/lv_draw_sw_blend_to_i1.c ****                     }
1159:Drivers/lvgl/src/draw/sw/blend/lv_draw_sw_blend_to_i1.c ****                     dest_buf_u8 = drawbuf_next_row(dest_buf_u8, dest_stride);
1160:Drivers/lvgl/src/draw/sw/blend/lv_draw_sw_blend_to_i1.c ****                     src_buf_u16 = drawbuf_next_row(src_buf_u16, src_stride);
1161:Drivers/lvgl/src/draw/sw/blend/lv_draw_sw_blend_to_i1.c ****                     mask_buf += mask_stride;
1162:Drivers/lvgl/src/draw/sw/blend/lv_draw_sw_blend_to_i1.c ****                 }
1163:Drivers/lvgl/src/draw/sw/blend/lv_draw_sw_blend_to_i1.c ****             }
1164:Drivers/lvgl/src/draw/sw/blend/lv_draw_sw_blend_to_i1.c ****         }
1165:Drivers/lvgl/src/draw/sw/blend/lv_draw_sw_blend_to_i1.c ****         else if(mask_buf && opa < LV_OPA_MAX)  {
1166:Drivers/lvgl/src/draw/sw/blend/lv_draw_sw_blend_to_i1.c ****             if(LV_RESULT_INVALID == LV_DRAW_SW_RGB565_SWAPPED_BLEND_NORMAL_TO_I1_MIX_MASK_OPA(dsc))
1167:Drivers/lvgl/src/draw/sw/blend/lv_draw_sw_blend_to_i1.c ****                 uint32_t mask_x;
1168:Drivers/lvgl/src/draw/sw/blend/lv_draw_sw_blend_to_i1.c ****                 for(y = 0; y < h; y++) {
1169:Drivers/lvgl/src/draw/sw/blend/lv_draw_sw_blend_to_i1.c ****                     for(mask_x = 0, dest_x = 0, src_x = 0; dest_x < w; mask_x++, dest_x++, src_x++)
1170:Drivers/lvgl/src/draw/sw/blend/lv_draw_sw_blend_to_i1.c ****                         px = lv_color16_from_u16(lv_color_swap_16(src_buf_u16[src_x]));
ARM GAS  /var/folders/qx/2_175_4n2s19vhvtspjhb3qh0000gn/T//ccaVas4T.s 			page 22


1171:Drivers/lvgl/src/draw/sw/blend/lv_draw_sw_blend_to_i1.c ****                         uint8_t src = lv_color16_luminance(px);
1172:Drivers/lvgl/src/draw/sw/blend/lv_draw_sw_blend_to_i1.c ****                         uint8_t dest = get_bit(dest_buf_u8, dest_x + bit_ofs) * 255;
1173:Drivers/lvgl/src/draw/sw/blend/lv_draw_sw_blend_to_i1.c ****                         lv_color_8_8_mix(src, &dest, LV_OPA_MIX2(mask_buf[mask_x], opa));
1174:Drivers/lvgl/src/draw/sw/blend/lv_draw_sw_blend_to_i1.c ****                         if(dest > I1_LUM_THRESHOLD) {
1175:Drivers/lvgl/src/draw/sw/blend/lv_draw_sw_blend_to_i1.c ****                             set_bit(dest_buf_u8, dest_x + bit_ofs);
1176:Drivers/lvgl/src/draw/sw/blend/lv_draw_sw_blend_to_i1.c ****                         }
1177:Drivers/lvgl/src/draw/sw/blend/lv_draw_sw_blend_to_i1.c ****                         else {
1178:Drivers/lvgl/src/draw/sw/blend/lv_draw_sw_blend_to_i1.c ****                             clear_bit(dest_buf_u8, dest_x + bit_ofs);
1179:Drivers/lvgl/src/draw/sw/blend/lv_draw_sw_blend_to_i1.c ****                         }
1180:Drivers/lvgl/src/draw/sw/blend/lv_draw_sw_blend_to_i1.c ****                     }
1181:Drivers/lvgl/src/draw/sw/blend/lv_draw_sw_blend_to_i1.c ****                     dest_buf_u8 = drawbuf_next_row(dest_buf_u8, dest_stride);
1182:Drivers/lvgl/src/draw/sw/blend/lv_draw_sw_blend_to_i1.c ****                     src_buf_u16 = drawbuf_next_row(src_buf_u16, src_stride);
1183:Drivers/lvgl/src/draw/sw/blend/lv_draw_sw_blend_to_i1.c ****                     mask_buf += mask_stride;
1184:Drivers/lvgl/src/draw/sw/blend/lv_draw_sw_blend_to_i1.c ****                 }
1185:Drivers/lvgl/src/draw/sw/blend/lv_draw_sw_blend_to_i1.c ****             }
1186:Drivers/lvgl/src/draw/sw/blend/lv_draw_sw_blend_to_i1.c ****         }
1187:Drivers/lvgl/src/draw/sw/blend/lv_draw_sw_blend_to_i1.c ****     }
1188:Drivers/lvgl/src/draw/sw/blend/lv_draw_sw_blend_to_i1.c ****     else {
1189:Drivers/lvgl/src/draw/sw/blend/lv_draw_sw_blend_to_i1.c ****         lv_color32_t src_argb;
1190:Drivers/lvgl/src/draw/sw/blend/lv_draw_sw_blend_to_i1.c ****         for(y = 0; y < h; y++) {
1191:Drivers/lvgl/src/draw/sw/blend/lv_draw_sw_blend_to_i1.c ****             for(src_x = 0, dest_x = 0; src_x < w; src_x++, dest_x++) {
1192:Drivers/lvgl/src/draw/sw/blend/lv_draw_sw_blend_to_i1.c ****                 px = lv_color16_from_u16(lv_color_swap_16(src_buf_u16[src_x]));
1193:Drivers/lvgl/src/draw/sw/blend/lv_draw_sw_blend_to_i1.c ****                 src_argb.red = (px.red * 2106) >> 8;
1194:Drivers/lvgl/src/draw/sw/blend/lv_draw_sw_blend_to_i1.c ****                 src_argb.green = (px.green * 1037) >> 8;
1195:Drivers/lvgl/src/draw/sw/blend/lv_draw_sw_blend_to_i1.c ****                 src_argb.blue = (px.blue * 2106) >> 8;
1196:Drivers/lvgl/src/draw/sw/blend/lv_draw_sw_blend_to_i1.c ****                 if(mask_buf == NULL) src_argb.alpha = opa;
1197:Drivers/lvgl/src/draw/sw/blend/lv_draw_sw_blend_to_i1.c ****                 else src_argb.alpha = LV_OPA_MIX2(mask_buf[src_x], opa);
1198:Drivers/lvgl/src/draw/sw/blend/lv_draw_sw_blend_to_i1.c **** 
1199:Drivers/lvgl/src/draw/sw/blend/lv_draw_sw_blend_to_i1.c ****                 blend_non_normal_pixel(dest_buf_u8, dest_x + bit_ofs, src_argb, dsc->blend_mode);
1200:Drivers/lvgl/src/draw/sw/blend/lv_draw_sw_blend_to_i1.c ****             }
1201:Drivers/lvgl/src/draw/sw/blend/lv_draw_sw_blend_to_i1.c ****             if(mask_buf) mask_buf += mask_stride;
1202:Drivers/lvgl/src/draw/sw/blend/lv_draw_sw_blend_to_i1.c ****             dest_buf_u8 = drawbuf_next_row(dest_buf_u8, dest_stride);
1203:Drivers/lvgl/src/draw/sw/blend/lv_draw_sw_blend_to_i1.c ****             src_buf_u16 = drawbuf_next_row(src_buf_u16, src_stride);
1204:Drivers/lvgl/src/draw/sw/blend/lv_draw_sw_blend_to_i1.c ****         }
1205:Drivers/lvgl/src/draw/sw/blend/lv_draw_sw_blend_to_i1.c ****     }
1206:Drivers/lvgl/src/draw/sw/blend/lv_draw_sw_blend_to_i1.c **** }
1207:Drivers/lvgl/src/draw/sw/blend/lv_draw_sw_blend_to_i1.c **** #endif
1208:Drivers/lvgl/src/draw/sw/blend/lv_draw_sw_blend_to_i1.c **** 
1209:Drivers/lvgl/src/draw/sw/blend/lv_draw_sw_blend_to_i1.c **** static inline void LV_ATTRIBUTE_FAST_MEM blend_non_normal_pixel(uint8_t * dest_buf, int32_t dest_x,
1210:Drivers/lvgl/src/draw/sw/blend/lv_draw_sw_blend_to_i1.c ****                                                                 lv_blend_mode_t mode)
1211:Drivers/lvgl/src/draw/sw/blend/lv_draw_sw_blend_to_i1.c **** {
1212:Drivers/lvgl/src/draw/sw/blend/lv_draw_sw_blend_to_i1.c ****     uint8_t res;
1213:Drivers/lvgl/src/draw/sw/blend/lv_draw_sw_blend_to_i1.c ****     int32_t src_lumi = lv_color32_luminance(src);
1214:Drivers/lvgl/src/draw/sw/blend/lv_draw_sw_blend_to_i1.c ****     uint8_t dest_lumi = get_bit(dest_buf, dest_x) * 255;
1215:Drivers/lvgl/src/draw/sw/blend/lv_draw_sw_blend_to_i1.c ****     switch(mode) {
1216:Drivers/lvgl/src/draw/sw/blend/lv_draw_sw_blend_to_i1.c ****         case LV_BLEND_MODE_ADDITIVE:
1217:Drivers/lvgl/src/draw/sw/blend/lv_draw_sw_blend_to_i1.c ****             res = LV_MIN(dest_lumi + src_lumi, 255);
1218:Drivers/lvgl/src/draw/sw/blend/lv_draw_sw_blend_to_i1.c ****             break;
1219:Drivers/lvgl/src/draw/sw/blend/lv_draw_sw_blend_to_i1.c ****         case LV_BLEND_MODE_SUBTRACTIVE:
1220:Drivers/lvgl/src/draw/sw/blend/lv_draw_sw_blend_to_i1.c ****             res = LV_MAX(dest_lumi - src_lumi, 0);
1221:Drivers/lvgl/src/draw/sw/blend/lv_draw_sw_blend_to_i1.c ****             break;
1222:Drivers/lvgl/src/draw/sw/blend/lv_draw_sw_blend_to_i1.c ****         case LV_BLEND_MODE_MULTIPLY:
1223:Drivers/lvgl/src/draw/sw/blend/lv_draw_sw_blend_to_i1.c ****             res = (dest_lumi * src_lumi) >> 8;
1224:Drivers/lvgl/src/draw/sw/blend/lv_draw_sw_blend_to_i1.c ****             break;
1225:Drivers/lvgl/src/draw/sw/blend/lv_draw_sw_blend_to_i1.c ****         case LV_BLEND_MODE_DIFFERENCE:
1226:Drivers/lvgl/src/draw/sw/blend/lv_draw_sw_blend_to_i1.c ****             res = LV_ABS(dest_lumi - src_lumi);
1227:Drivers/lvgl/src/draw/sw/blend/lv_draw_sw_blend_to_i1.c ****             break;
ARM GAS  /var/folders/qx/2_175_4n2s19vhvtspjhb3qh0000gn/T//ccaVas4T.s 			page 23


1228:Drivers/lvgl/src/draw/sw/blend/lv_draw_sw_blend_to_i1.c ****         default:
1229:Drivers/lvgl/src/draw/sw/blend/lv_draw_sw_blend_to_i1.c ****             LV_LOG_WARN("Not supported blend mode: %d", mode);
1230:Drivers/lvgl/src/draw/sw/blend/lv_draw_sw_blend_to_i1.c ****             return;
1231:Drivers/lvgl/src/draw/sw/blend/lv_draw_sw_blend_to_i1.c ****     }
1232:Drivers/lvgl/src/draw/sw/blend/lv_draw_sw_blend_to_i1.c **** 
1233:Drivers/lvgl/src/draw/sw/blend/lv_draw_sw_blend_to_i1.c ****     lv_color_8_8_mix(res, &dest_lumi, src.alpha);
1234:Drivers/lvgl/src/draw/sw/blend/lv_draw_sw_blend_to_i1.c ****     if(dest_lumi > I1_LUM_THRESHOLD) {
1235:Drivers/lvgl/src/draw/sw/blend/lv_draw_sw_blend_to_i1.c ****         set_bit(dest_buf, dest_x);
1236:Drivers/lvgl/src/draw/sw/blend/lv_draw_sw_blend_to_i1.c ****     }
1237:Drivers/lvgl/src/draw/sw/blend/lv_draw_sw_blend_to_i1.c ****     else {
1238:Drivers/lvgl/src/draw/sw/blend/lv_draw_sw_blend_to_i1.c ****         clear_bit(dest_buf, dest_x);
1239:Drivers/lvgl/src/draw/sw/blend/lv_draw_sw_blend_to_i1.c ****     }
1240:Drivers/lvgl/src/draw/sw/blend/lv_draw_sw_blend_to_i1.c **** }
1241:Drivers/lvgl/src/draw/sw/blend/lv_draw_sw_blend_to_i1.c **** 
1242:Drivers/lvgl/src/draw/sw/blend/lv_draw_sw_blend_to_i1.c **** static inline void LV_ATTRIBUTE_FAST_MEM lv_color_8_8_mix(const uint8_t src, uint8_t * dest, uint8_
1243:Drivers/lvgl/src/draw/sw/blend/lv_draw_sw_blend_to_i1.c **** {
  29              		.loc 1 1243 1 view -0
  30              		.cfi_startproc
  31              		@ args = 0, pretend = 0, frame = 0
  32              		@ frame_needed = 0, uses_anonymous_args = 0
  33              		@ link register save eliminated.
1244:Drivers/lvgl/src/draw/sw/blend/lv_draw_sw_blend_to_i1.c **** 
1245:Drivers/lvgl/src/draw/sw/blend/lv_draw_sw_blend_to_i1.c ****     if(mix == 0) return;
  34              		.loc 1 1245 5 view .LVU1
  35              		.loc 1 1245 7 is_stmt 0 view .LVU2
  36 0000 9446     		mov	ip, r2
  37 0002 62B1     		cbz	r2, .L1
1246:Drivers/lvgl/src/draw/sw/blend/lv_draw_sw_blend_to_i1.c **** 
1247:Drivers/lvgl/src/draw/sw/blend/lv_draw_sw_blend_to_i1.c ****     if(mix >= LV_OPA_MAX) {
  38              		.loc 1 1247 5 is_stmt 1 view .LVU3
  39              		.loc 1 1247 7 is_stmt 0 view .LVU4
  40 0004 FC2A     		cmp	r2, #252
  41 0006 01D9     		bls	.L3
1248:Drivers/lvgl/src/draw/sw/blend/lv_draw_sw_blend_to_i1.c ****         *dest = src;
  42              		.loc 1 1248 9 is_stmt 1 view .LVU5
  43              		.loc 1 1248 15 is_stmt 0 view .LVU6
  44 0008 0870     		strb	r0, [r1]
  45 000a 7047     		bx	lr
  46              	.L3:
  47              	.LBB415:
1249:Drivers/lvgl/src/draw/sw/blend/lv_draw_sw_blend_to_i1.c ****     }
1250:Drivers/lvgl/src/draw/sw/blend/lv_draw_sw_blend_to_i1.c ****     else {
1251:Drivers/lvgl/src/draw/sw/blend/lv_draw_sw_blend_to_i1.c ****         lv_opa_t mix_inv = 255 - mix;
  48              		.loc 1 1251 9 is_stmt 1 view .LVU7
  49              		.loc 1 1251 18 is_stmt 0 view .LVU8
  50 000c D343     		mvns	r3, r2
  51 000e DBB2     		uxtb	r3, r3
  52              	.LVL1:
1252:Drivers/lvgl/src/draw/sw/blend/lv_draw_sw_blend_to_i1.c ****         *dest = (uint32_t)((uint32_t)src * mix + dest[0] * mix_inv) >> 8;
  53              		.loc 1 1252 9 is_stmt 1 view .LVU9
  54              		.loc 1 1252 54 is_stmt 0 view .LVU10
  55 0010 0A78     		ldrb	r2, [r1]	@ zero_extendqisi2
  56              	.LVL2:
  57              		.loc 1 1252 58 view .LVU11
  58 0012 02FB03F3 		mul	r3, r2, r3
  59              	.LVL3:
  60              		.loc 1 1252 17 view .LVU12
ARM GAS  /var/folders/qx/2_175_4n2s19vhvtspjhb3qh0000gn/T//ccaVas4T.s 			page 24


  61 0016 00FB0C33 		mla	r3, r0, ip, r3
  62              		.loc 1 1252 69 view .LVU13
  63 001a 1B0A     		lsrs	r3, r3, #8
  64              		.loc 1 1252 15 view .LVU14
  65 001c 0B70     		strb	r3, [r1]
  66              	.LVL4:
  67              	.L1:
  68              		.loc 1 1252 15 view .LVU15
  69              	.LBE415:
1253:Drivers/lvgl/src/draw/sw/blend/lv_draw_sw_blend_to_i1.c ****     }
1254:Drivers/lvgl/src/draw/sw/blend/lv_draw_sw_blend_to_i1.c **** }
  70              		.loc 1 1254 1 view .LVU16
  71 001e 7047     		bx	lr
  72              		.cfi_endproc
  73              	.LFE191:
  75              		.section	.text.blend_non_normal_pixel,"ax",%progbits
  76              		.align	1
  77              		.syntax unified
  78              		.thumb
  79              		.thumb_func
  81              	blend_non_normal_pixel:
  82              	.LVL5:
  83              	.LFB190:
1211:Drivers/lvgl/src/draw/sw/blend/lv_draw_sw_blend_to_i1.c ****     uint8_t res;
  84              		.loc 1 1211 1 is_stmt 1 view -0
  85              		.cfi_startproc
  86              		@ args = 0, pretend = 0, frame = 16
  87              		@ frame_needed = 0, uses_anonymous_args = 0
1211:Drivers/lvgl/src/draw/sw/blend/lv_draw_sw_blend_to_i1.c ****     uint8_t res;
  88              		.loc 1 1211 1 is_stmt 0 view .LVU18
  89 0000 F0B5     		push	{r4, r5, r6, r7, lr}
  90              	.LCFI0:
  91              		.cfi_def_cfa_offset 20
  92              		.cfi_offset 4, -20
  93              		.cfi_offset 5, -16
  94              		.cfi_offset 6, -12
  95              		.cfi_offset 7, -8
  96              		.cfi_offset 14, -4
  97 0002 85B0     		sub	sp, sp, #20
  98              	.LCFI1:
  99              		.cfi_def_cfa_offset 40
 100 0004 0646     		mov	r6, r0
 101 0006 0C46     		mov	r4, r1
 102 0008 0192     		str	r2, [sp, #4]
 103 000a 1F46     		mov	r7, r3
1212:Drivers/lvgl/src/draw/sw/blend/lv_draw_sw_blend_to_i1.c ****     int32_t src_lumi = lv_color32_luminance(src);
 104              		.loc 1 1212 5 is_stmt 1 view .LVU19
1213:Drivers/lvgl/src/draw/sw/blend/lv_draw_sw_blend_to_i1.c ****     uint8_t dest_lumi = get_bit(dest_buf, dest_x) * 255;
 105              		.loc 1 1213 5 view .LVU20
1213:Drivers/lvgl/src/draw/sw/blend/lv_draw_sw_blend_to_i1.c ****     uint8_t dest_lumi = get_bit(dest_buf, dest_x) * 255;
 106              		.loc 1 1213 24 is_stmt 0 view .LVU21
 107 000c 1046     		mov	r0, r2
 108              	.LVL6:
1213:Drivers/lvgl/src/draw/sw/blend/lv_draw_sw_blend_to_i1.c ****     uint8_t dest_lumi = get_bit(dest_buf, dest_x) * 255;
 109              		.loc 1 1213 24 view .LVU22
 110 000e FFF7FEFF 		bl	lv_color32_luminance
 111              	.LVL7:
ARM GAS  /var/folders/qx/2_175_4n2s19vhvtspjhb3qh0000gn/T//ccaVas4T.s 			page 25


1214:Drivers/lvgl/src/draw/sw/blend/lv_draw_sw_blend_to_i1.c ****     switch(mode) {
 112              		.loc 1 1214 5 is_stmt 1 view .LVU23
 113              	.LBB416:
 114              	.LBI416:
1255:Drivers/lvgl/src/draw/sw/blend/lv_draw_sw_blend_to_i1.c **** 
1256:Drivers/lvgl/src/draw/sw/blend/lv_draw_sw_blend_to_i1.c **** static inline void * LV_ATTRIBUTE_FAST_MEM drawbuf_next_row(const void * buf, uint32_t stride)
1257:Drivers/lvgl/src/draw/sw/blend/lv_draw_sw_blend_to_i1.c **** {
1258:Drivers/lvgl/src/draw/sw/blend/lv_draw_sw_blend_to_i1.c ****     return (void *)((uint8_t *)buf + stride);
1259:Drivers/lvgl/src/draw/sw/blend/lv_draw_sw_blend_to_i1.c **** }
1260:Drivers/lvgl/src/draw/sw/blend/lv_draw_sw_blend_to_i1.c **** 
1261:Drivers/lvgl/src/draw/sw/blend/lv_draw_sw_blend_to_i1.c **** static inline void LV_ATTRIBUTE_FAST_MEM set_bit(uint8_t * buf, int32_t bit_idx)
1262:Drivers/lvgl/src/draw/sw/blend/lv_draw_sw_blend_to_i1.c **** {
1263:Drivers/lvgl/src/draw/sw/blend/lv_draw_sw_blend_to_i1.c ****     buf[bit_idx / 8] |= (1 << (7 - (bit_idx % 8)));
1264:Drivers/lvgl/src/draw/sw/blend/lv_draw_sw_blend_to_i1.c **** }
1265:Drivers/lvgl/src/draw/sw/blend/lv_draw_sw_blend_to_i1.c **** 
1266:Drivers/lvgl/src/draw/sw/blend/lv_draw_sw_blend_to_i1.c **** static inline void LV_ATTRIBUTE_FAST_MEM clear_bit(uint8_t * buf, int32_t bit_idx)
1267:Drivers/lvgl/src/draw/sw/blend/lv_draw_sw_blend_to_i1.c **** {
1268:Drivers/lvgl/src/draw/sw/blend/lv_draw_sw_blend_to_i1.c ****     buf[bit_idx / 8] &= ~(1 << (7 - (bit_idx % 8)));
1269:Drivers/lvgl/src/draw/sw/blend/lv_draw_sw_blend_to_i1.c **** }
1270:Drivers/lvgl/src/draw/sw/blend/lv_draw_sw_blend_to_i1.c **** 
1271:Drivers/lvgl/src/draw/sw/blend/lv_draw_sw_blend_to_i1.c **** static inline uint8_t LV_ATTRIBUTE_FAST_MEM get_bit(const uint8_t * buf, int32_t bit_idx)
 115              		.loc 1 1271 45 view .LVU24
 116              	.LBB417:
1272:Drivers/lvgl/src/draw/sw/blend/lv_draw_sw_blend_to_i1.c **** {
1273:Drivers/lvgl/src/draw/sw/blend/lv_draw_sw_blend_to_i1.c ****     return (buf[bit_idx / 8] >> (7 - (bit_idx % 8))) & 1;
 117              		.loc 1 1273 5 view .LVU25
 118              		.loc 1 1273 25 is_stmt 0 view .LVU26
 119 0012 2546     		mov	r5, r4
 120 0014 002C     		cmp	r4, #0
 121 0016 17DB     		blt	.L18
 122              	.L5:
 123              		.loc 1 1273 25 view .LVU27
 124 0018 ED10     		asrs	r5, r5, #3
 125              		.loc 1 1273 16 view .LVU28
 126 001a 725D     		ldrb	r2, [r6, r5]	@ zero_extendqisi2
 127              		.loc 1 1273 47 view .LVU29
 128 001c 6342     		rsbs	r3, r4, #0
 129 001e 04F00704 		and	r4, r4, #7
 130              	.LVL8:
 131              		.loc 1 1273 47 view .LVU30
 132 0022 03F00703 		and	r3, r3, #7
 133 0026 58BF     		it	pl
 134 0028 5C42     		rsbpl	r4, r3, #0
 135              		.loc 1 1273 36 view .LVU31
 136 002a C4F10704 		rsb	r4, r4, #7
 137              		.loc 1 1273 30 view .LVU32
 138 002e 2241     		asrs	r2, r2, r4
 139              	.LVL9:
 140              		.loc 1 1273 30 view .LVU33
 141              	.LBE417:
 142              	.LBE416:
1214:Drivers/lvgl/src/draw/sw/blend/lv_draw_sw_blend_to_i1.c ****     switch(mode) {
 143              		.loc 1 1214 13 discriminator 1 view .LVU34
 144 0030 42F30002 		sbfx	r2, r2, #0, #1
 145 0034 D2B2     		uxtb	r2, r2
 146 0036 8DF80F20 		strb	r2, [sp, #15]
1215:Drivers/lvgl/src/draw/sw/blend/lv_draw_sw_blend_to_i1.c ****         case LV_BLEND_MODE_ADDITIVE:
ARM GAS  /var/folders/qx/2_175_4n2s19vhvtspjhb3qh0000gn/T//ccaVas4T.s 			page 26


 147              		.loc 1 1215 5 is_stmt 1 view .LVU35
 148 003a 013F     		subs	r7, r7, #1
 149              	.LVL10:
1215:Drivers/lvgl/src/draw/sw/blend/lv_draw_sw_blend_to_i1.c ****         case LV_BLEND_MODE_ADDITIVE:
 150              		.loc 1 1215 5 is_stmt 0 view .LVU36
 151 003c 032F     		cmp	r7, #3
 152 003e 1CD8     		bhi	.L4
 153 0040 DFE807F0 		tbb	[pc, r7]
 154              	.L8:
 155 0044 04       		.byte	(.L11-.L8)/2
 156 0045 1D       		.byte	(.L10-.L8)/2
 157 0046 22       		.byte	(.L9-.L8)/2
 158 0047 27       		.byte	(.L7-.L8)/2
 159              	.LVL11:
 160              		.p2align 1
 161              	.L18:
 162              	.LBB419:
 163              	.LBB418:
 164              		.loc 1 1273 25 view .LVU37
 165 0048 E51D     		adds	r5, r4, #7
 166 004a E5E7     		b	.L5
 167              	.LVL12:
 168              	.L11:
 169              		.loc 1 1273 25 view .LVU38
 170              	.LBE418:
 171              	.LBE419:
1217:Drivers/lvgl/src/draw/sw/blend/lv_draw_sw_blend_to_i1.c ****             break;
 172              		.loc 1 1217 13 is_stmt 1 view .LVU39
1217:Drivers/lvgl/src/draw/sw/blend/lv_draw_sw_blend_to_i1.c ****             break;
 173              		.loc 1 1217 19 is_stmt 0 view .LVU40
 174 004c 1044     		add	r0, r0, r2
 175              	.LVL13:
1217:Drivers/lvgl/src/draw/sw/blend/lv_draw_sw_blend_to_i1.c ****             break;
 176              		.loc 1 1217 19 view .LVU41
 177 004e 0246     		mov	r2, r0
 178 0050 FF28     		cmp	r0, #255
 179 0052 A8BF     		it	ge
 180 0054 FF22     		movge	r2, #255
1217:Drivers/lvgl/src/draw/sw/blend/lv_draw_sw_blend_to_i1.c ****             break;
 181              		.loc 1 1217 17 view .LVU42
 182 0056 D0B2     		uxtb	r0, r2
 183              	.LVL14:
1218:Drivers/lvgl/src/draw/sw/blend/lv_draw_sw_blend_to_i1.c ****         case LV_BLEND_MODE_SUBTRACTIVE:
 184              		.loc 1 1218 13 is_stmt 1 view .LVU43
 185              	.L12:
1233:Drivers/lvgl/src/draw/sw/blend/lv_draw_sw_blend_to_i1.c ****     if(dest_lumi > I1_LUM_THRESHOLD) {
 186              		.loc 1 1233 5 view .LVU44
 187 0058 9DF80720 		ldrb	r2, [sp, #7]	@ zero_extendqisi2
 188 005c 0DF10F01 		add	r1, sp, #15
 189 0060 FFF7FEFF 		bl	lv_color_8_8_mix
 190              	.LVL15:
1234:Drivers/lvgl/src/draw/sw/blend/lv_draw_sw_blend_to_i1.c ****         set_bit(dest_buf, dest_x);
 191              		.loc 1 1234 5 view .LVU45
1234:Drivers/lvgl/src/draw/sw/blend/lv_draw_sw_blend_to_i1.c ****         set_bit(dest_buf, dest_x);
 192              		.loc 1 1234 18 is_stmt 0 view .LVU46
 193 0064 9DF90F30 		ldrsb	r3, [sp, #15]
1234:Drivers/lvgl/src/draw/sw/blend/lv_draw_sw_blend_to_i1.c ****         set_bit(dest_buf, dest_x);
ARM GAS  /var/folders/qx/2_175_4n2s19vhvtspjhb3qh0000gn/T//ccaVas4T.s 			page 27


 194              		.loc 1 1234 7 view .LVU47
 195 0068 002B     		cmp	r3, #0
 196 006a 18DB     		blt	.L19
1238:Drivers/lvgl/src/draw/sw/blend/lv_draw_sw_blend_to_i1.c ****     }
 197              		.loc 1 1238 9 is_stmt 1 view .LVU48
 198              	.LVL16:
 199              	.LBB420:
 200              	.LBI420:
1266:Drivers/lvgl/src/draw/sw/blend/lv_draw_sw_blend_to_i1.c **** {
 201              		.loc 1 1266 42 view .LVU49
 202              	.LBB421:
1268:Drivers/lvgl/src/draw/sw/blend/lv_draw_sw_blend_to_i1.c **** }
 203              		.loc 1 1268 5 view .LVU50
1268:Drivers/lvgl/src/draw/sw/blend/lv_draw_sw_blend_to_i1.c **** }
 204              		.loc 1 1268 8 is_stmt 0 view .LVU51
 205 006c 725D     		ldrb	r2, [r6, r5]	@ zero_extendqisi2
1268:Drivers/lvgl/src/draw/sw/blend/lv_draw_sw_blend_to_i1.c **** }
 206              		.loc 1 1268 29 view .LVU52
 207 006e 0123     		movs	r3, #1
 208 0070 A340     		lsls	r3, r3, r4
1268:Drivers/lvgl/src/draw/sw/blend/lv_draw_sw_blend_to_i1.c **** }
 209              		.loc 1 1268 22 view .LVU53
 210 0072 DB43     		mvns	r3, r3
 211 0074 5BB2     		sxtb	r3, r3
 212 0076 1340     		ands	r3, r3, r2
 213 0078 7355     		strb	r3, [r6, r5]
 214              	.LVL17:
 215              	.L4:
1268:Drivers/lvgl/src/draw/sw/blend/lv_draw_sw_blend_to_i1.c **** }
 216              		.loc 1 1268 22 view .LVU54
 217              	.LBE421:
 218              	.LBE420:
1240:Drivers/lvgl/src/draw/sw/blend/lv_draw_sw_blend_to_i1.c **** 
 219              		.loc 1 1240 1 view .LVU55
 220 007a 05B0     		add	sp, sp, #20
 221              	.LCFI2:
 222              		.cfi_remember_state
 223              		.cfi_def_cfa_offset 20
 224              		@ sp needed
 225 007c F0BD     		pop	{r4, r5, r6, r7, pc}
 226              	.LVL18:
 227              	.L10:
 228              	.LCFI3:
 229              		.cfi_restore_state
1220:Drivers/lvgl/src/draw/sw/blend/lv_draw_sw_blend_to_i1.c ****             break;
 230              		.loc 1 1220 13 is_stmt 1 view .LVU56
1220:Drivers/lvgl/src/draw/sw/blend/lv_draw_sw_blend_to_i1.c ****             break;
 231              		.loc 1 1220 19 is_stmt 0 view .LVU57
 232 007e 101A     		subs	r0, r2, r0
 233              	.LVL19:
1220:Drivers/lvgl/src/draw/sw/blend/lv_draw_sw_blend_to_i1.c ****             break;
 234              		.loc 1 1220 19 view .LVU58
 235 0080 20EAE070 		bic	r0, r0, r0, asr #31
1220:Drivers/lvgl/src/draw/sw/blend/lv_draw_sw_blend_to_i1.c ****             break;
 236              		.loc 1 1220 17 view .LVU59
 237 0084 C0B2     		uxtb	r0, r0
 238              	.LVL20:
ARM GAS  /var/folders/qx/2_175_4n2s19vhvtspjhb3qh0000gn/T//ccaVas4T.s 			page 28


1221:Drivers/lvgl/src/draw/sw/blend/lv_draw_sw_blend_to_i1.c ****         case LV_BLEND_MODE_MULTIPLY:
 239              		.loc 1 1221 13 is_stmt 1 view .LVU60
 240 0086 E7E7     		b	.L12
 241              	.LVL21:
 242              	.L9:
1223:Drivers/lvgl/src/draw/sw/blend/lv_draw_sw_blend_to_i1.c ****             break;
 243              		.loc 1 1223 13 view .LVU61
1223:Drivers/lvgl/src/draw/sw/blend/lv_draw_sw_blend_to_i1.c ****             break;
 244              		.loc 1 1223 30 is_stmt 0 view .LVU62
 245 0088 02FB00F0 		mul	r0, r2, r0
 246              	.LVL22:
1223:Drivers/lvgl/src/draw/sw/blend/lv_draw_sw_blend_to_i1.c ****             break;
 247              		.loc 1 1223 17 view .LVU63
 248 008c C0F30720 		ubfx	r0, r0, #8, #8
 249              	.LVL23:
1224:Drivers/lvgl/src/draw/sw/blend/lv_draw_sw_blend_to_i1.c ****         case LV_BLEND_MODE_DIFFERENCE:
 250              		.loc 1 1224 13 is_stmt 1 view .LVU64
 251 0090 E2E7     		b	.L12
 252              	.LVL24:
 253              	.L7:
1226:Drivers/lvgl/src/draw/sw/blend/lv_draw_sw_blend_to_i1.c ****             break;
 254              		.loc 1 1226 13 view .LVU65
1226:Drivers/lvgl/src/draw/sw/blend/lv_draw_sw_blend_to_i1.c ****             break;
 255              		.loc 1 1226 19 is_stmt 0 view .LVU66
 256 0092 101A     		subs	r0, r2, r0
 257              	.LVL25:
1226:Drivers/lvgl/src/draw/sw/blend/lv_draw_sw_blend_to_i1.c ****             break;
 258              		.loc 1 1226 19 view .LVU67
 259 0094 0028     		cmp	r0, #0
 260 0096 B8BF     		it	lt
 261 0098 4042     		rsblt	r0, r0, #0
1226:Drivers/lvgl/src/draw/sw/blend/lv_draw_sw_blend_to_i1.c ****             break;
 262              		.loc 1 1226 17 view .LVU68
 263 009a C0B2     		uxtb	r0, r0
 264              	.LVL26:
1227:Drivers/lvgl/src/draw/sw/blend/lv_draw_sw_blend_to_i1.c ****         default:
 265              		.loc 1 1227 13 is_stmt 1 view .LVU69
 266 009c DCE7     		b	.L12
 267              	.LVL27:
 268              	.L19:
1235:Drivers/lvgl/src/draw/sw/blend/lv_draw_sw_blend_to_i1.c ****     }
 269              		.loc 1 1235 9 view .LVU70
 270              	.LBB422:
 271              	.LBI422:
1261:Drivers/lvgl/src/draw/sw/blend/lv_draw_sw_blend_to_i1.c **** {
 272              		.loc 1 1261 42 view .LVU71
 273              	.LBB423:
1263:Drivers/lvgl/src/draw/sw/blend/lv_draw_sw_blend_to_i1.c **** }
 274              		.loc 1 1263 5 view .LVU72
1263:Drivers/lvgl/src/draw/sw/blend/lv_draw_sw_blend_to_i1.c **** }
 275              		.loc 1 1263 8 is_stmt 0 view .LVU73
 276 009e 735D     		ldrb	r3, [r6, r5]	@ zero_extendqisi2
1263:Drivers/lvgl/src/draw/sw/blend/lv_draw_sw_blend_to_i1.c **** }
 277              		.loc 1 1263 28 view .LVU74
 278 00a0 0122     		movs	r2, #1
 279 00a2 A240     		lsls	r2, r2, r4
1263:Drivers/lvgl/src/draw/sw/blend/lv_draw_sw_blend_to_i1.c **** }
ARM GAS  /var/folders/qx/2_175_4n2s19vhvtspjhb3qh0000gn/T//ccaVas4T.s 			page 29


 280              		.loc 1 1263 22 view .LVU75
 281 00a4 1343     		orrs	r3, r3, r2
 282 00a6 7355     		strb	r3, [r6, r5]
 283              	.LVL28:
1264:Drivers/lvgl/src/draw/sw/blend/lv_draw_sw_blend_to_i1.c **** 
 284              		.loc 1 1264 1 view .LVU76
 285 00a8 E7E7     		b	.L4
 286              	.LBE423:
 287              	.LBE422:
 288              		.cfi_endproc
 289              	.LFE190:
 291              		.section	.text.rgb565_image_blend,"ax",%progbits
 292              		.align	1
 293              		.syntax unified
 294              		.thumb
 295              		.thumb_func
 297              	rgb565_image_blend:
 298              	.LVL29:
 299              	.LFB188:
 966:Drivers/lvgl/src/draw/sw/blend/lv_draw_sw_blend_to_i1.c ****     int32_t w = dsc->dest_w;
 300              		.loc 1 966 1 is_stmt 1 view -0
 301              		.cfi_startproc
 302              		@ args = 0, pretend = 0, frame = 40
 303              		@ frame_needed = 0, uses_anonymous_args = 0
 966:Drivers/lvgl/src/draw/sw/blend/lv_draw_sw_blend_to_i1.c ****     int32_t w = dsc->dest_w;
 304              		.loc 1 966 1 is_stmt 0 view .LVU78
 305 0000 2DE9F04F 		push	{r4, r5, r6, r7, r8, r9, r10, fp, lr}
 306              	.LCFI4:
 307              		.cfi_def_cfa_offset 36
 308              		.cfi_offset 4, -36
 309              		.cfi_offset 5, -32
 310              		.cfi_offset 6, -28
 311              		.cfi_offset 7, -24
 312              		.cfi_offset 8, -20
 313              		.cfi_offset 9, -16
 314              		.cfi_offset 10, -12
 315              		.cfi_offset 11, -8
 316              		.cfi_offset 14, -4
 317 0004 8BB0     		sub	sp, sp, #44
 318              	.LCFI5:
 319              		.cfi_def_cfa_offset 80
 320 0006 8246     		mov	r10, r0
 967:Drivers/lvgl/src/draw/sw/blend/lv_draw_sw_blend_to_i1.c ****     int32_t h = dsc->dest_h;
 321              		.loc 1 967 5 is_stmt 1 view .LVU79
 967:Drivers/lvgl/src/draw/sw/blend/lv_draw_sw_blend_to_i1.c ****     int32_t h = dsc->dest_h;
 322              		.loc 1 967 13 is_stmt 0 view .LVU80
 323 0008 D0F804B0 		ldr	fp, [r0, #4]
 324              	.LVL30:
 968:Drivers/lvgl/src/draw/sw/blend/lv_draw_sw_blend_to_i1.c ****     lv_opa_t opa = dsc->opa;
 325              		.loc 1 968 5 is_stmt 1 view .LVU81
 968:Drivers/lvgl/src/draw/sw/blend/lv_draw_sw_blend_to_i1.c ****     lv_opa_t opa = dsc->opa;
 326              		.loc 1 968 13 is_stmt 0 view .LVU82
 327 000c 8368     		ldr	r3, [r0, #8]
 328 000e 0193     		str	r3, [sp, #4]
 329              	.LVL31:
 969:Drivers/lvgl/src/draw/sw/blend/lv_draw_sw_blend_to_i1.c ****     uint8_t * dest_buf_u8 = dsc->dest_buf;
 330              		.loc 1 969 5 is_stmt 1 view .LVU83
ARM GAS  /var/folders/qx/2_175_4n2s19vhvtspjhb3qh0000gn/T//ccaVas4T.s 			page 30


 969:Drivers/lvgl/src/draw/sw/blend/lv_draw_sw_blend_to_i1.c ****     uint8_t * dest_buf_u8 = dsc->dest_buf;
 331              		.loc 1 969 14 is_stmt 0 view .LVU84
 332 0010 90F82130 		ldrb	r3, [r0, #33]	@ zero_extendqisi2
 333              	.LVL32:
 970:Drivers/lvgl/src/draw/sw/blend/lv_draw_sw_blend_to_i1.c ****     int32_t dest_stride = dsc->dest_stride;
 334              		.loc 1 970 5 is_stmt 1 view .LVU85
 970:Drivers/lvgl/src/draw/sw/blend/lv_draw_sw_blend_to_i1.c ****     int32_t dest_stride = dsc->dest_stride;
 335              		.loc 1 970 15 is_stmt 0 view .LVU86
 336 0014 0668     		ldr	r6, [r0]
 337              	.LVL33:
 971:Drivers/lvgl/src/draw/sw/blend/lv_draw_sw_blend_to_i1.c ****     const lv_color16_t * src_buf_c16 = (const lv_color16_t *)dsc->src_buf;
 338              		.loc 1 971 5 is_stmt 1 view .LVU87
 971:Drivers/lvgl/src/draw/sw/blend/lv_draw_sw_blend_to_i1.c ****     const lv_color16_t * src_buf_c16 = (const lv_color16_t *)dsc->src_buf;
 339              		.loc 1 971 13 is_stmt 0 view .LVU88
 340 0016 C268     		ldr	r2, [r0, #12]
 341 0018 0392     		str	r2, [sp, #12]
 342              	.LVL34:
 972:Drivers/lvgl/src/draw/sw/blend/lv_draw_sw_blend_to_i1.c ****     int32_t src_stride = dsc->src_stride;
 343              		.loc 1 972 5 is_stmt 1 view .LVU89
 972:Drivers/lvgl/src/draw/sw/blend/lv_draw_sw_blend_to_i1.c ****     int32_t src_stride = dsc->src_stride;
 344              		.loc 1 972 26 is_stmt 0 view .LVU90
 345 001a 8569     		ldr	r5, [r0, #24]
 346              	.LVL35:
 973:Drivers/lvgl/src/draw/sw/blend/lv_draw_sw_blend_to_i1.c ****     const lv_opa_t * mask_buf = dsc->mask_buf;
 347              		.loc 1 973 5 is_stmt 1 view .LVU91
 973:Drivers/lvgl/src/draw/sw/blend/lv_draw_sw_blend_to_i1.c ****     const lv_opa_t * mask_buf = dsc->mask_buf;
 348              		.loc 1 973 13 is_stmt 0 view .LVU92
 349 001c C269     		ldr	r2, [r0, #28]
 350              	.LVL36:
 973:Drivers/lvgl/src/draw/sw/blend/lv_draw_sw_blend_to_i1.c ****     const lv_opa_t * mask_buf = dsc->mask_buf;
 351              		.loc 1 973 13 view .LVU93
 352 001e 0492     		str	r2, [sp, #16]
 353              	.LVL37:
 974:Drivers/lvgl/src/draw/sw/blend/lv_draw_sw_blend_to_i1.c ****     int32_t mask_stride = dsc->mask_stride;
 354              		.loc 1 974 5 is_stmt 1 view .LVU94
 974:Drivers/lvgl/src/draw/sw/blend/lv_draw_sw_blend_to_i1.c ****     int32_t mask_stride = dsc->mask_stride;
 355              		.loc 1 974 22 is_stmt 0 view .LVU95
 356 0020 D0F81080 		ldr	r8, [r0, #16]
 357              	.LVL38:
 975:Drivers/lvgl/src/draw/sw/blend/lv_draw_sw_blend_to_i1.c ****     int32_t bit_ofs = dsc->relative_area.x1 % 8;
 358              		.loc 1 975 5 is_stmt 1 view .LVU96
 975:Drivers/lvgl/src/draw/sw/blend/lv_draw_sw_blend_to_i1.c ****     int32_t bit_ofs = dsc->relative_area.x1 % 8;
 359              		.loc 1 975 13 is_stmt 0 view .LVU97
 360 0024 4169     		ldr	r1, [r0, #20]
 361              	.LVL39:
 976:Drivers/lvgl/src/draw/sw/blend/lv_draw_sw_blend_to_i1.c **** 
 362              		.loc 1 976 5 is_stmt 1 view .LVU98
 976:Drivers/lvgl/src/draw/sw/blend/lv_draw_sw_blend_to_i1.c **** 
 363              		.loc 1 976 41 is_stmt 0 view .LVU99
 364 0026 406A     		ldr	r0, [r0, #36]
 365              	.LVL40:
 976:Drivers/lvgl/src/draw/sw/blend/lv_draw_sw_blend_to_i1.c **** 
 366              		.loc 1 976 13 view .LVU100
 367 0028 4242     		rsbs	r2, r0, #0
 368              	.LVL41:
 976:Drivers/lvgl/src/draw/sw/blend/lv_draw_sw_blend_to_i1.c **** 
 369              		.loc 1 976 13 view .LVU101
ARM GAS  /var/folders/qx/2_175_4n2s19vhvtspjhb3qh0000gn/T//ccaVas4T.s 			page 31


 370 002a 00F0070C 		and	ip, r0, #7
 371 002e 02F00702 		and	r2, r2, #7
 372 0032 58BF     		it	pl
 373 0034 C2F1000C 		rsbpl	ip, r2, #0
 374              	.LVL42:
 978:Drivers/lvgl/src/draw/sw/blend/lv_draw_sw_blend_to_i1.c ****     int32_t dest_x;
 375              		.loc 1 978 5 is_stmt 1 view .LVU102
 979:Drivers/lvgl/src/draw/sw/blend/lv_draw_sw_blend_to_i1.c ****     int32_t y;
 376              		.loc 1 979 5 view .LVU103
 980:Drivers/lvgl/src/draw/sw/blend/lv_draw_sw_blend_to_i1.c **** 
 377              		.loc 1 980 5 view .LVU104
 982:Drivers/lvgl/src/draw/sw/blend/lv_draw_sw_blend_to_i1.c ****         if(mask_buf == NULL && opa >= LV_OPA_MAX) {
 378              		.loc 1 982 5 view .LVU105
 982:Drivers/lvgl/src/draw/sw/blend/lv_draw_sw_blend_to_i1.c ****         if(mask_buf == NULL && opa >= LV_OPA_MAX) {
 379              		.loc 1 982 11 is_stmt 0 view .LVU106
 380 0038 9AF82220 		ldrb	r2, [r10, #34]	@ zero_extendqisi2
 982:Drivers/lvgl/src/draw/sw/blend/lv_draw_sw_blend_to_i1.c ****         if(mask_buf == NULL && opa >= LV_OPA_MAX) {
 381              		.loc 1 982 7 view .LVU107
 382 003c 002A     		cmp	r2, #0
 383 003e 40F0BB81 		bne	.L55
 983:Drivers/lvgl/src/draw/sw/blend/lv_draw_sw_blend_to_i1.c ****             if(LV_RESULT_INVALID == LV_DRAW_SW_RGB565_BLEND_NORMAL_TO_I1(dsc)) {
 384              		.loc 1 983 9 is_stmt 1 view .LVU108
 983:Drivers/lvgl/src/draw/sw/blend/lv_draw_sw_blend_to_i1.c ****             if(LV_RESULT_INVALID == LV_DRAW_SW_RGB565_BLEND_NORMAL_TO_I1(dsc)) {
 385              		.loc 1 983 11 is_stmt 0 view .LVU109
 386 0042 B8F1000F 		cmp	r8, #0
 387 0046 17D0     		beq	.L66
1020:Drivers/lvgl/src/draw/sw/blend/lv_draw_sw_blend_to_i1.c ****             if(LV_RESULT_INVALID == LV_DRAW_SW_RGB565_BLEND_NORMAL_TO_I1_WITH_MASK(dsc)) {
 388              		.loc 1 1020 14 is_stmt 1 view .LVU110
1020:Drivers/lvgl/src/draw/sw/blend/lv_draw_sw_blend_to_i1.c ****             if(LV_RESULT_INVALID == LV_DRAW_SW_RGB565_BLEND_NORMAL_TO_I1_WITH_MASK(dsc)) {
 389              		.loc 1 1020 16 is_stmt 0 view .LVU111
 390 0048 B8F1000F 		cmp	r8, #0
 391 004c 00F0BD81 		beq	.L20
1020:Drivers/lvgl/src/draw/sw/blend/lv_draw_sw_blend_to_i1.c ****             if(LV_RESULT_INVALID == LV_DRAW_SW_RGB565_BLEND_NORMAL_TO_I1_WITH_MASK(dsc)) {
 392              		.loc 1 1020 26 discriminator 1 view .LVU112
 393 0050 FC2B     		cmp	r3, #252
 394 0052 00F20681 		bhi	.L59
1041:Drivers/lvgl/src/draw/sw/blend/lv_draw_sw_blend_to_i1.c ****             if(LV_RESULT_INVALID == LV_DRAW_SW_RGB565_BLEND_NORMAL_TO_I1_MIX_MASK_OPA(dsc)) {
 395              		.loc 1 1041 14 is_stmt 1 view .LVU113
1041:Drivers/lvgl/src/draw/sw/blend/lv_draw_sw_blend_to_i1.c ****             if(LV_RESULT_INVALID == LV_DRAW_SW_RGB565_BLEND_NORMAL_TO_I1_MIX_MASK_OPA(dsc)) {
 396              		.loc 1 1041 16 is_stmt 0 view .LVU114
 397 0056 B8F1000F 		cmp	r8, #0
 398 005a 00F0B681 		beq	.L20
 399              	.LBB424:
1044:Drivers/lvgl/src/draw/sw/blend/lv_draw_sw_blend_to_i1.c ****                     for(mask_x = 0, dest_x = 0, src_x = 0; dest_x < w; mask_x++, dest_x++, src_x++)
 400              		.loc 1 1044 23 view .LVU115
 401 005e 0024     		movs	r4, #0
 402 0060 2A46     		mov	r2, r5
 403 0062 3546     		mov	r5, r6
 404              	.LVL43:
1044:Drivers/lvgl/src/draw/sw/blend/lv_draw_sw_blend_to_i1.c ****                     for(mask_x = 0, dest_x = 0, src_x = 0; dest_x < w; mask_x++, dest_x++, src_x++)
 405              		.loc 1 1044 23 view .LVU116
 406 0064 CDF800B0 		str	fp, [sp]
 407 0068 C346     		mov	fp, r8
 408              	.LVL44:
1044:Drivers/lvgl/src/draw/sw/blend/lv_draw_sw_blend_to_i1.c ****                     for(mask_x = 0, dest_x = 0, src_x = 0; dest_x < w; mask_x++, dest_x++, src_x++)
 409              		.loc 1 1044 23 view .LVU117
 410 006a A046     		mov	r8, r4
ARM GAS  /var/folders/qx/2_175_4n2s19vhvtspjhb3qh0000gn/T//ccaVas4T.s 			page 32


 411              	.LVL45:
1044:Drivers/lvgl/src/draw/sw/blend/lv_draw_sw_blend_to_i1.c ****                     for(mask_x = 0, dest_x = 0, src_x = 0; dest_x < w; mask_x++, dest_x++, src_x++)
 412              		.loc 1 1044 23 view .LVU118
 413 006c 0293     		str	r3, [sp, #8]
 414 006e 0791     		str	r1, [sp, #28]
 415 0070 CDF814C0 		str	ip, [sp, #20]
 416 0074 1646     		mov	r6, r2
 417              	.LVL46:
1044:Drivers/lvgl/src/draw/sw/blend/lv_draw_sw_blend_to_i1.c ****                     for(mask_x = 0, dest_x = 0, src_x = 0; dest_x < w; mask_x++, dest_x++, src_x++)
 418              		.loc 1 1044 23 view .LVU119
 419 0076 4DE1     		b	.L44
 420              	.LVL47:
 421              	.L66:
1044:Drivers/lvgl/src/draw/sw/blend/lv_draw_sw_blend_to_i1.c ****                     for(mask_x = 0, dest_x = 0, src_x = 0; dest_x < w; mask_x++, dest_x++, src_x++)
 422              		.loc 1 1044 23 view .LVU120
 423              	.LBE424:
 983:Drivers/lvgl/src/draw/sw/blend/lv_draw_sw_blend_to_i1.c ****             if(LV_RESULT_INVALID == LV_DRAW_SW_RGB565_BLEND_NORMAL_TO_I1(dsc)) {
 424              		.loc 1 983 29 discriminator 1 view .LVU121
 425 0078 FC2B     		cmp	r3, #252
 426 007a 4DD8     		bhi	.L56
1003:Drivers/lvgl/src/draw/sw/blend/lv_draw_sw_blend_to_i1.c ****                     for(src_x = 0, dest_x = 0; src_x < w; dest_x++, src_x++) {
 427              		.loc 1 1003 23 view .LVU122
 428 007c 4FF0000A 		mov	r10, #0
 429              	.LVL48:
1003:Drivers/lvgl/src/draw/sw/blend/lv_draw_sw_blend_to_i1.c ****                     for(src_x = 0, dest_x = 0; src_x < w; dest_x++, src_x++) {
 430              		.loc 1 1003 23 view .LVU123
 431 0080 A946     		mov	r9, r5
 432 0082 0093     		str	r3, [sp]
 433 0084 6546     		mov	r5, ip
 434              	.LVL49:
1003:Drivers/lvgl/src/draw/sw/blend/lv_draw_sw_blend_to_i1.c ****                     for(src_x = 0, dest_x = 0; src_x < w; dest_x++, src_x++) {
 435              		.loc 1 1003 23 view .LVU124
 436 0086 91E0     		b	.L24
 437              	.LVL50:
 438              	.L69:
 439              	.LBB441:
 990:Drivers/lvgl/src/draw/sw/blend/lv_draw_sw_blend_to_i1.c ****                         }
 440              		.loc 1 990 29 is_stmt 1 view .LVU125
 441 0088 07EB0903 		add	r3, r7, r9
 442              	.LVL51:
 443              	.LBB442:
 444              	.LBI442:
1261:Drivers/lvgl/src/draw/sw/blend/lv_draw_sw_blend_to_i1.c **** {
 445              		.loc 1 1261 42 view .LVU126
 446              	.LBB443:
1263:Drivers/lvgl/src/draw/sw/blend/lv_draw_sw_blend_to_i1.c **** }
 447              		.loc 1 1263 5 view .LVU127
1263:Drivers/lvgl/src/draw/sw/blend/lv_draw_sw_blend_to_i1.c **** }
 448              		.loc 1 1263 17 is_stmt 0 view .LVU128
 449 008c 1A46     		mov	r2, r3
 450 008e 002B     		cmp	r3, #0
 451 0090 10DB     		blt	.L67
 452              	.L26:
1263:Drivers/lvgl/src/draw/sw/blend/lv_draw_sw_blend_to_i1.c **** }
 453              		.loc 1 1263 17 view .LVU129
 454 0092 D210     		asrs	r2, r2, #3
1263:Drivers/lvgl/src/draw/sw/blend/lv_draw_sw_blend_to_i1.c **** }
ARM GAS  /var/folders/qx/2_175_4n2s19vhvtspjhb3qh0000gn/T//ccaVas4T.s 			page 33


 455              		.loc 1 1263 8 view .LVU130
 456 0094 B15C     		ldrb	r1, [r6, r2]	@ zero_extendqisi2
1263:Drivers/lvgl/src/draw/sw/blend/lv_draw_sw_blend_to_i1.c **** }
 457              		.loc 1 1263 45 view .LVU131
 458 0096 5842     		rsbs	r0, r3, #0
 459              	.LVL52:
1263:Drivers/lvgl/src/draw/sw/blend/lv_draw_sw_blend_to_i1.c **** }
 460              		.loc 1 1263 45 view .LVU132
 461 0098 03F00703 		and	r3, r3, #7
 462              	.LVL53:
1263:Drivers/lvgl/src/draw/sw/blend/lv_draw_sw_blend_to_i1.c **** }
 463              		.loc 1 1263 45 view .LVU133
 464 009c 00F00700 		and	r0, r0, #7
 465 00a0 58BF     		it	pl
 466 00a2 4342     		rsbpl	r3, r0, #0
1263:Drivers/lvgl/src/draw/sw/blend/lv_draw_sw_blend_to_i1.c **** }
 467              		.loc 1 1263 34 view .LVU134
 468 00a4 C3F10703 		rsb	r3, r3, #7
1263:Drivers/lvgl/src/draw/sw/blend/lv_draw_sw_blend_to_i1.c **** }
 469              		.loc 1 1263 28 view .LVU135
 470 00a8 0120     		movs	r0, #1
 471 00aa 00FA03F3 		lsl	r3, r0, r3
1263:Drivers/lvgl/src/draw/sw/blend/lv_draw_sw_blend_to_i1.c **** }
 472              		.loc 1 1263 22 view .LVU136
 473 00ae 0B43     		orrs	r3, r3, r1
 474 00b0 B354     		strb	r3, [r6, r2]
 475              	.LVL54:
1264:Drivers/lvgl/src/draw/sw/blend/lv_draw_sw_blend_to_i1.c **** 
 476              		.loc 1 1264 1 view .LVU137
 477 00b2 13E0     		b	.L27
 478              	.LVL55:
 479              	.L67:
1263:Drivers/lvgl/src/draw/sw/blend/lv_draw_sw_blend_to_i1.c **** }
 480              		.loc 1 1263 17 view .LVU138
 481 00b4 DA1D     		adds	r2, r3, #7
 482              	.LVL56:
1263:Drivers/lvgl/src/draw/sw/blend/lv_draw_sw_blend_to_i1.c **** }
 483              		.loc 1 1263 17 view .LVU139
 484 00b6 ECE7     		b	.L26
 485              	.LVL57:
 486              	.L28:
1263:Drivers/lvgl/src/draw/sw/blend/lv_draw_sw_blend_to_i1.c **** }
 487              		.loc 1 1263 17 view .LVU140
 488              	.LBE443:
 489              	.LBE442:
 490              	.LBB444:
 491              	.LBB445:
1268:Drivers/lvgl/src/draw/sw/blend/lv_draw_sw_blend_to_i1.c **** }
 492              		.loc 1 1268 17 view .LVU141
 493 00b8 D210     		asrs	r2, r2, #3
1268:Drivers/lvgl/src/draw/sw/blend/lv_draw_sw_blend_to_i1.c **** }
 494              		.loc 1 1268 8 view .LVU142
 495 00ba B15C     		ldrb	r1, [r6, r2]	@ zero_extendqisi2
1268:Drivers/lvgl/src/draw/sw/blend/lv_draw_sw_blend_to_i1.c **** }
 496              		.loc 1 1268 46 view .LVU143
 497 00bc 5842     		rsbs	r0, r3, #0
 498              	.LVL58:
ARM GAS  /var/folders/qx/2_175_4n2s19vhvtspjhb3qh0000gn/T//ccaVas4T.s 			page 34


1268:Drivers/lvgl/src/draw/sw/blend/lv_draw_sw_blend_to_i1.c **** }
 499              		.loc 1 1268 46 view .LVU144
 500 00be 03F00703 		and	r3, r3, #7
 501              	.LVL59:
1268:Drivers/lvgl/src/draw/sw/blend/lv_draw_sw_blend_to_i1.c **** }
 502              		.loc 1 1268 46 view .LVU145
 503 00c2 00F00700 		and	r0, r0, #7
 504 00c6 58BF     		it	pl
 505 00c8 4342     		rsbpl	r3, r0, #0
1268:Drivers/lvgl/src/draw/sw/blend/lv_draw_sw_blend_to_i1.c **** }
 506              		.loc 1 1268 35 view .LVU146
 507 00ca C3F10703 		rsb	r3, r3, #7
1268:Drivers/lvgl/src/draw/sw/blend/lv_draw_sw_blend_to_i1.c **** }
 508              		.loc 1 1268 29 view .LVU147
 509 00ce 0120     		movs	r0, #1
 510 00d0 00FA03F3 		lsl	r3, r0, r3
1268:Drivers/lvgl/src/draw/sw/blend/lv_draw_sw_blend_to_i1.c **** }
 511              		.loc 1 1268 22 view .LVU148
 512 00d4 DB43     		mvns	r3, r3
 513 00d6 5BB2     		sxtb	r3, r3
 514 00d8 1940     		ands	r1, r1, r3
 515 00da B154     		strb	r1, [r6, r2]
 516              	.LVL60:
 517              	.L27:
1268:Drivers/lvgl/src/draw/sw/blend/lv_draw_sw_blend_to_i1.c **** }
 518              		.loc 1 1268 22 view .LVU149
 519              	.LBE445:
 520              	.LBE444:
 521              	.LBE441:
 987:Drivers/lvgl/src/draw/sw/blend/lv_draw_sw_blend_to_i1.c ****                         uint8_t src = lv_color16_luminance(src_buf_c16[src_x]);
 522              		.loc 1 987 67 is_stmt 1 discriminator 2 view .LVU150
 987:Drivers/lvgl/src/draw/sw/blend/lv_draw_sw_blend_to_i1.c ****                         uint8_t src = lv_color16_luminance(src_buf_c16[src_x]);
 523              		.loc 1 987 65 is_stmt 0 discriminator 2 view .LVU151
 524 00dc 0137     		adds	r7, r7, #1
 525              	.LVL61:
 987:Drivers/lvgl/src/draw/sw/blend/lv_draw_sw_blend_to_i1.c ****                         uint8_t src = lv_color16_luminance(src_buf_c16[src_x]);
 526              		.loc 1 987 74 discriminator 2 view .LVU152
 527 00de 0134     		adds	r4, r4, #1
 528              	.LVL62:
 529              	.L30:
 987:Drivers/lvgl/src/draw/sw/blend/lv_draw_sw_blend_to_i1.c ****                         uint8_t src = lv_color16_luminance(src_buf_c16[src_x]);
 530              		.loc 1 987 54 is_stmt 1 discriminator 1 view .LVU153
 531 00e0 5C45     		cmp	r4, fp
 532 00e2 0DDA     		bge	.L68
 533              	.LBB448:
 988:Drivers/lvgl/src/draw/sw/blend/lv_draw_sw_blend_to_i1.c ****                         if(src > I1_LUM_THRESHOLD) {
 534              		.loc 1 988 25 view .LVU154
 988:Drivers/lvgl/src/draw/sw/blend/lv_draw_sw_blend_to_i1.c ****                         if(src > I1_LUM_THRESHOLD) {
 535              		.loc 1 988 39 is_stmt 0 view .LVU155
 536 00e4 35F81400 		ldrh	r0, [r5, r4, lsl #1]
 537 00e8 FFF7FEFF 		bl	lv_color16_luminance
 538              	.LVL63:
 989:Drivers/lvgl/src/draw/sw/blend/lv_draw_sw_blend_to_i1.c ****                             set_bit(dest_buf_u8, dest_x + bit_ofs);
 539              		.loc 1 989 25 is_stmt 1 view .LVU156
 989:Drivers/lvgl/src/draw/sw/blend/lv_draw_sw_blend_to_i1.c ****                             set_bit(dest_buf_u8, dest_x + bit_ofs);
 540              		.loc 1 989 27 is_stmt 0 view .LVU157
 541 00ec 10F0800F 		tst	r0, #128
ARM GAS  /var/folders/qx/2_175_4n2s19vhvtspjhb3qh0000gn/T//ccaVas4T.s 			page 35


 542 00f0 CAD1     		bne	.L69
 993:Drivers/lvgl/src/draw/sw/blend/lv_draw_sw_blend_to_i1.c ****                         }
 543              		.loc 1 993 29 is_stmt 1 view .LVU158
 544 00f2 07EB0903 		add	r3, r7, r9
 545              	.LVL64:
 546              	.LBB447:
 547              	.LBI444:
1266:Drivers/lvgl/src/draw/sw/blend/lv_draw_sw_blend_to_i1.c **** {
 548              		.loc 1 1266 42 view .LVU159
 549              	.LBB446:
1268:Drivers/lvgl/src/draw/sw/blend/lv_draw_sw_blend_to_i1.c **** }
 550              		.loc 1 1268 5 view .LVU160
1268:Drivers/lvgl/src/draw/sw/blend/lv_draw_sw_blend_to_i1.c **** }
 551              		.loc 1 1268 17 is_stmt 0 view .LVU161
 552 00f6 1A46     		mov	r2, r3
 553 00f8 002B     		cmp	r3, #0
 554 00fa DDDA     		bge	.L28
1268:Drivers/lvgl/src/draw/sw/blend/lv_draw_sw_blend_to_i1.c **** }
 555              		.loc 1 1268 17 view .LVU162
 556 00fc DA1D     		adds	r2, r3, #7
 557 00fe DBE7     		b	.L28
 558              	.LVL65:
 559              	.L68:
1268:Drivers/lvgl/src/draw/sw/blend/lv_draw_sw_blend_to_i1.c **** }
 560              		.loc 1 1268 17 view .LVU163
 561              	.LBE446:
 562              	.LBE447:
 563              	.LBE448:
 996:Drivers/lvgl/src/draw/sw/blend/lv_draw_sw_blend_to_i1.c ****                     src_buf_c16 = drawbuf_next_row(src_buf_c16, src_stride);
 564              		.loc 1 996 21 is_stmt 1 view .LVU164
 565              	.LBB449:
 566              	.LBI449:
1256:Drivers/lvgl/src/draw/sw/blend/lv_draw_sw_blend_to_i1.c **** {
 567              		.loc 1 1256 44 view .LVU165
 568              	.LBB450:
1258:Drivers/lvgl/src/draw/sw/blend/lv_draw_sw_blend_to_i1.c **** }
 569              		.loc 1 1258 5 view .LVU166
1258:Drivers/lvgl/src/draw/sw/blend/lv_draw_sw_blend_to_i1.c **** }
 570              		.loc 1 1258 12 is_stmt 0 view .LVU167
 571 0100 039B     		ldr	r3, [sp, #12]
 572 0102 1E44     		add	r6, r6, r3
 573              	.LVL66:
1258:Drivers/lvgl/src/draw/sw/blend/lv_draw_sw_blend_to_i1.c **** }
 574              		.loc 1 1258 12 view .LVU168
 575              	.LBE450:
 576              	.LBE449:
 997:Drivers/lvgl/src/draw/sw/blend/lv_draw_sw_blend_to_i1.c ****                 }
 577              		.loc 1 997 21 is_stmt 1 view .LVU169
 578              	.LBB451:
 579              	.LBI451:
1256:Drivers/lvgl/src/draw/sw/blend/lv_draw_sw_blend_to_i1.c **** {
 580              		.loc 1 1256 44 view .LVU170
 581              	.LBB452:
1258:Drivers/lvgl/src/draw/sw/blend/lv_draw_sw_blend_to_i1.c **** }
 582              		.loc 1 1258 5 view .LVU171
1258:Drivers/lvgl/src/draw/sw/blend/lv_draw_sw_blend_to_i1.c **** }
 583              		.loc 1 1258 12 is_stmt 0 view .LVU172
ARM GAS  /var/folders/qx/2_175_4n2s19vhvtspjhb3qh0000gn/T//ccaVas4T.s 			page 36


 584 0104 049B     		ldr	r3, [sp, #16]
 585 0106 1D44     		add	r5, r5, r3
 586              	.LVL67:
1258:Drivers/lvgl/src/draw/sw/blend/lv_draw_sw_blend_to_i1.c **** }
 587              		.loc 1 1258 12 view .LVU173
 588              	.LBE452:
 589              	.LBE451:
 985:Drivers/lvgl/src/draw/sw/blend/lv_draw_sw_blend_to_i1.c **** 
 590              		.loc 1 985 36 is_stmt 1 discriminator 2 view .LVU174
 591 0108 08F10108 		add	r8, r8, #1
 592              	.LVL68:
 593              	.L23:
 985:Drivers/lvgl/src/draw/sw/blend/lv_draw_sw_blend_to_i1.c **** 
 594              		.loc 1 985 30 discriminator 1 view .LVU175
 595 010c D045     		cmp	r8, r10
 596 010e 80F25C81 		bge	.L20
 987:Drivers/lvgl/src/draw/sw/blend/lv_draw_sw_blend_to_i1.c ****                         uint8_t src = lv_color16_luminance(src_buf_c16[src_x]);
 597              		.loc 1 987 43 is_stmt 0 view .LVU176
 598 0112 0027     		movs	r7, #0
 987:Drivers/lvgl/src/draw/sw/blend/lv_draw_sw_blend_to_i1.c ****                         uint8_t src = lv_color16_luminance(src_buf_c16[src_x]);
 599              		.loc 1 987 31 view .LVU177
 600 0114 3C46     		mov	r4, r7
 601 0116 E3E7     		b	.L30
 602              	.LVL69:
 603              	.L56:
 985:Drivers/lvgl/src/draw/sw/blend/lv_draw_sw_blend_to_i1.c **** 
 604              		.loc 1 985 23 view .LVU178
 605 0118 4FF00008 		mov	r8, #0
 606              	.LVL70:
 985:Drivers/lvgl/src/draw/sw/blend/lv_draw_sw_blend_to_i1.c **** 
 607              		.loc 1 985 23 view .LVU179
 608 011c DDF804A0 		ldr	r10, [sp, #4]
 609              	.LVL71:
 985:Drivers/lvgl/src/draw/sw/blend/lv_draw_sw_blend_to_i1.c **** 
 610              		.loc 1 985 23 view .LVU180
 611 0120 E146     		mov	r9, ip
 612 0122 F3E7     		b	.L23
 613              	.LVL72:
 614              	.L71:
 615              	.LBB453:
 616              	.LBB454:
 617              	.LBB455:
 618              		.loc 1 1273 25 view .LVU181
 619 0124 04F1070A 		add	r10, r4, #7
 620 0128 16E0     		b	.L32
 621              	.LVL73:
 622              	.L33:
 623              		.loc 1 1273 25 view .LVU182
 624              	.LBE455:
 625              	.LBE454:
1012:Drivers/lvgl/src/draw/sw/blend/lv_draw_sw_blend_to_i1.c ****                         }
 626              		.loc 1 1012 29 is_stmt 1 view .LVU183
 627              	.LBB457:
 628              	.LBI457:
1266:Drivers/lvgl/src/draw/sw/blend/lv_draw_sw_blend_to_i1.c **** {
 629              		.loc 1 1266 42 view .LVU184
 630              	.LBB458:
ARM GAS  /var/folders/qx/2_175_4n2s19vhvtspjhb3qh0000gn/T//ccaVas4T.s 			page 37


1268:Drivers/lvgl/src/draw/sw/blend/lv_draw_sw_blend_to_i1.c **** }
 631              		.loc 1 1268 5 view .LVU185
1268:Drivers/lvgl/src/draw/sw/blend/lv_draw_sw_blend_to_i1.c **** }
 632              		.loc 1 1268 8 is_stmt 0 view .LVU186
 633 012a 16F80A20 		ldrb	r2, [r6, r10]	@ zero_extendqisi2
1268:Drivers/lvgl/src/draw/sw/blend/lv_draw_sw_blend_to_i1.c **** }
 634              		.loc 1 1268 29 view .LVU187
 635 012e 0123     		movs	r3, #1
 636 0130 A340     		lsls	r3, r3, r4
1268:Drivers/lvgl/src/draw/sw/blend/lv_draw_sw_blend_to_i1.c **** }
 637              		.loc 1 1268 22 view .LVU188
 638 0132 DB43     		mvns	r3, r3
 639 0134 5BB2     		sxtb	r3, r3
 640 0136 1340     		ands	r3, r3, r2
 641 0138 06F80A30 		strb	r3, [r6, r10]
 642              	.LVL74:
 643              	.L34:
1268:Drivers/lvgl/src/draw/sw/blend/lv_draw_sw_blend_to_i1.c **** }
 644              		.loc 1 1268 22 view .LVU189
 645              	.LBE458:
 646              	.LBE457:
 647              	.LBE453:
1004:Drivers/lvgl/src/draw/sw/blend/lv_draw_sw_blend_to_i1.c ****                         uint8_t src = lv_color16_luminance(src_buf_c16[src_x]);
 648              		.loc 1 1004 67 is_stmt 1 discriminator 2 view .LVU190
1004:Drivers/lvgl/src/draw/sw/blend/lv_draw_sw_blend_to_i1.c ****                         uint8_t src = lv_color16_luminance(src_buf_c16[src_x]);
 649              		.loc 1 1004 65 is_stmt 0 discriminator 2 view .LVU191
 650 013c 08F10108 		add	r8, r8, #1
 651              	.LVL75:
1004:Drivers/lvgl/src/draw/sw/blend/lv_draw_sw_blend_to_i1.c ****                         uint8_t src = lv_color16_luminance(src_buf_c16[src_x]);
 652              		.loc 1 1004 74 discriminator 2 view .LVU192
 653 0140 0137     		adds	r7, r7, #1
 654              	.LVL76:
 655              	.L36:
1004:Drivers/lvgl/src/draw/sw/blend/lv_draw_sw_blend_to_i1.c ****                         uint8_t src = lv_color16_luminance(src_buf_c16[src_x]);
 656              		.loc 1 1004 54 is_stmt 1 discriminator 1 view .LVU193
 657 0142 5F45     		cmp	r7, fp
 658 0144 2ADA     		bge	.L70
 659              	.LBB462:
1005:Drivers/lvgl/src/draw/sw/blend/lv_draw_sw_blend_to_i1.c ****                         uint8_t dest = get_bit(dest_buf_u8, dest_x + bit_ofs) * 255;
 660              		.loc 1 1005 25 view .LVU194
1005:Drivers/lvgl/src/draw/sw/blend/lv_draw_sw_blend_to_i1.c ****                         uint8_t dest = get_bit(dest_buf_u8, dest_x + bit_ofs) * 255;
 661              		.loc 1 1005 39 is_stmt 0 view .LVU195
 662 0146 39F81700 		ldrh	r0, [r9, r7, lsl #1]
 663 014a FFF7FEFF 		bl	lv_color16_luminance
 664              	.LVL77:
1006:Drivers/lvgl/src/draw/sw/blend/lv_draw_sw_blend_to_i1.c ****                         lv_color_8_8_mix(src, &dest, opa);
 665              		.loc 1 1006 25 is_stmt 1 view .LVU196
1006:Drivers/lvgl/src/draw/sw/blend/lv_draw_sw_blend_to_i1.c ****                         lv_color_8_8_mix(src, &dest, opa);
 666              		.loc 1 1006 40 is_stmt 0 view .LVU197
 667 014e 08EB0504 		add	r4, r8, r5
 668              	.LVL78:
 669              	.LBB459:
 670              	.LBI454:
1271:Drivers/lvgl/src/draw/sw/blend/lv_draw_sw_blend_to_i1.c **** {
 671              		.loc 1 1271 45 is_stmt 1 view .LVU198
 672              	.LBB456:
 673              		.loc 1 1273 5 view .LVU199
ARM GAS  /var/folders/qx/2_175_4n2s19vhvtspjhb3qh0000gn/T//ccaVas4T.s 			page 38


 674              		.loc 1 1273 25 is_stmt 0 view .LVU200
 675 0152 A246     		mov	r10, r4
 676 0154 002C     		cmp	r4, #0
 677 0156 E5DB     		blt	.L71
 678              	.L32:
 679              		.loc 1 1273 25 view .LVU201
 680 0158 4FEAEA0A 		asr	r10, r10, #3
 681              		.loc 1 1273 16 view .LVU202
 682 015c 16F80A30 		ldrb	r3, [r6, r10]	@ zero_extendqisi2
 683              		.loc 1 1273 47 view .LVU203
 684 0160 6242     		rsbs	r2, r4, #0
 685 0162 04F00704 		and	r4, r4, #7
 686              	.LVL79:
 687              		.loc 1 1273 47 view .LVU204
 688 0166 02F00702 		and	r2, r2, #7
 689 016a 58BF     		it	pl
 690 016c 5442     		rsbpl	r4, r2, #0
 691              		.loc 1 1273 36 view .LVU205
 692 016e C4F10704 		rsb	r4, r4, #7
 693              		.loc 1 1273 30 view .LVU206
 694 0172 2341     		asrs	r3, r3, r4
 695              	.LVL80:
 696              		.loc 1 1273 30 view .LVU207
 697              	.LBE456:
 698              	.LBE459:
1006:Drivers/lvgl/src/draw/sw/blend/lv_draw_sw_blend_to_i1.c ****                         lv_color_8_8_mix(src, &dest, opa);
 699              		.loc 1 1006 33 discriminator 1 view .LVU208
 700 0174 43F30003 		sbfx	r3, r3, #0, #1
 701 0178 8DF82430 		strb	r3, [sp, #36]
1007:Drivers/lvgl/src/draw/sw/blend/lv_draw_sw_blend_to_i1.c ****                         if(dest > I1_LUM_THRESHOLD) {
 702              		.loc 1 1007 25 is_stmt 1 view .LVU209
 703 017c 009A     		ldr	r2, [sp]
 704 017e 09A9     		add	r1, sp, #36
 705 0180 FFF7FEFF 		bl	lv_color_8_8_mix
 706              	.LVL81:
1008:Drivers/lvgl/src/draw/sw/blend/lv_draw_sw_blend_to_i1.c ****                             set_bit(dest_buf_u8, dest_x  + bit_ofs);
 707              		.loc 1 1008 25 view .LVU210
1008:Drivers/lvgl/src/draw/sw/blend/lv_draw_sw_blend_to_i1.c ****                             set_bit(dest_buf_u8, dest_x  + bit_ofs);
 708              		.loc 1 1008 33 is_stmt 0 view .LVU211
 709 0184 9DF92430 		ldrsb	r3, [sp, #36]
1008:Drivers/lvgl/src/draw/sw/blend/lv_draw_sw_blend_to_i1.c ****                             set_bit(dest_buf_u8, dest_x  + bit_ofs);
 710              		.loc 1 1008 27 view .LVU212
 711 0188 002B     		cmp	r3, #0
 712 018a CEDA     		bge	.L33
1009:Drivers/lvgl/src/draw/sw/blend/lv_draw_sw_blend_to_i1.c ****                         }
 713              		.loc 1 1009 29 is_stmt 1 view .LVU213
 714              	.LVL82:
 715              	.LBB460:
 716              	.LBI460:
1261:Drivers/lvgl/src/draw/sw/blend/lv_draw_sw_blend_to_i1.c **** {
 717              		.loc 1 1261 42 view .LVU214
 718              	.LBB461:
1263:Drivers/lvgl/src/draw/sw/blend/lv_draw_sw_blend_to_i1.c **** }
 719              		.loc 1 1263 5 view .LVU215
1263:Drivers/lvgl/src/draw/sw/blend/lv_draw_sw_blend_to_i1.c **** }
 720              		.loc 1 1263 8 is_stmt 0 view .LVU216
 721 018c 16F80A30 		ldrb	r3, [r6, r10]	@ zero_extendqisi2
ARM GAS  /var/folders/qx/2_175_4n2s19vhvtspjhb3qh0000gn/T//ccaVas4T.s 			page 39


1263:Drivers/lvgl/src/draw/sw/blend/lv_draw_sw_blend_to_i1.c **** }
 722              		.loc 1 1263 28 view .LVU217
 723 0190 0122     		movs	r2, #1
 724 0192 A240     		lsls	r2, r2, r4
1263:Drivers/lvgl/src/draw/sw/blend/lv_draw_sw_blend_to_i1.c **** }
 725              		.loc 1 1263 22 view .LVU218
 726 0194 1343     		orrs	r3, r3, r2
 727 0196 06F80A30 		strb	r3, [r6, r10]
 728              	.LVL83:
1264:Drivers/lvgl/src/draw/sw/blend/lv_draw_sw_blend_to_i1.c **** 
 729              		.loc 1 1264 1 view .LVU219
 730 019a CFE7     		b	.L34
 731              	.LVL84:
 732              	.L70:
1264:Drivers/lvgl/src/draw/sw/blend/lv_draw_sw_blend_to_i1.c **** 
 733              		.loc 1 1264 1 view .LVU220
 734              	.LBE461:
 735              	.LBE460:
 736              	.LBE462:
 737              	.LBB463:
 738              	.LBB464:
1258:Drivers/lvgl/src/draw/sw/blend/lv_draw_sw_blend_to_i1.c **** }
 739              		.loc 1 1258 12 view .LVU221
 740 019c DDF808A0 		ldr	r10, [sp, #8]
 741              	.LBE464:
 742              	.LBE463:
1015:Drivers/lvgl/src/draw/sw/blend/lv_draw_sw_blend_to_i1.c ****                     src_buf_c16 = drawbuf_next_row(src_buf_c16, src_stride);
 743              		.loc 1 1015 21 is_stmt 1 view .LVU222
 744              	.LVL85:
 745              	.LBB466:
 746              	.LBI463:
1256:Drivers/lvgl/src/draw/sw/blend/lv_draw_sw_blend_to_i1.c **** {
 747              		.loc 1 1256 44 view .LVU223
 748              	.LBB465:
1258:Drivers/lvgl/src/draw/sw/blend/lv_draw_sw_blend_to_i1.c **** }
 749              		.loc 1 1258 5 view .LVU224
1258:Drivers/lvgl/src/draw/sw/blend/lv_draw_sw_blend_to_i1.c **** }
 750              		.loc 1 1258 12 is_stmt 0 view .LVU225
 751 01a0 039B     		ldr	r3, [sp, #12]
 752 01a2 1E44     		add	r6, r6, r3
 753              	.LVL86:
1258:Drivers/lvgl/src/draw/sw/blend/lv_draw_sw_blend_to_i1.c **** }
 754              		.loc 1 1258 12 view .LVU226
 755              	.LBE465:
 756              	.LBE466:
1016:Drivers/lvgl/src/draw/sw/blend/lv_draw_sw_blend_to_i1.c ****                 }
 757              		.loc 1 1016 21 is_stmt 1 view .LVU227
 758              	.LBB467:
 759              	.LBI467:
1256:Drivers/lvgl/src/draw/sw/blend/lv_draw_sw_blend_to_i1.c **** {
 760              		.loc 1 1256 44 view .LVU228
 761              	.LBB468:
1258:Drivers/lvgl/src/draw/sw/blend/lv_draw_sw_blend_to_i1.c **** }
 762              		.loc 1 1258 5 view .LVU229
1258:Drivers/lvgl/src/draw/sw/blend/lv_draw_sw_blend_to_i1.c **** }
 763              		.loc 1 1258 12 is_stmt 0 view .LVU230
 764 01a4 049B     		ldr	r3, [sp, #16]
ARM GAS  /var/folders/qx/2_175_4n2s19vhvtspjhb3qh0000gn/T//ccaVas4T.s 			page 40


 765 01a6 9944     		add	r9, r9, r3
 766              	.LVL87:
1258:Drivers/lvgl/src/draw/sw/blend/lv_draw_sw_blend_to_i1.c **** }
 767              		.loc 1 1258 12 view .LVU231
 768              	.LBE468:
 769              	.LBE467:
1003:Drivers/lvgl/src/draw/sw/blend/lv_draw_sw_blend_to_i1.c ****                     for(src_x = 0, dest_x = 0; src_x < w; dest_x++, src_x++) {
 770              		.loc 1 1003 36 is_stmt 1 discriminator 2 view .LVU232
 771 01a8 0AF1010A 		add	r10, r10, #1
 772              	.LVL88:
 773              	.L24:
1003:Drivers/lvgl/src/draw/sw/blend/lv_draw_sw_blend_to_i1.c ****                     for(src_x = 0, dest_x = 0; src_x < w; dest_x++, src_x++) {
 774              		.loc 1 1003 30 discriminator 1 view .LVU233
 775 01ac 019B     		ldr	r3, [sp, #4]
 776 01ae 9A45     		cmp	r10, r3
 777 01b0 80F20B81 		bge	.L20
1004:Drivers/lvgl/src/draw/sw/blend/lv_draw_sw_blend_to_i1.c ****                         uint8_t src = lv_color16_luminance(src_buf_c16[src_x]);
 778              		.loc 1 1004 43 is_stmt 0 view .LVU234
 779 01b4 4FF00008 		mov	r8, #0
1004:Drivers/lvgl/src/draw/sw/blend/lv_draw_sw_blend_to_i1.c ****                         uint8_t src = lv_color16_luminance(src_buf_c16[src_x]);
 780              		.loc 1 1004 31 view .LVU235
 781 01b8 4746     		mov	r7, r8
 782 01ba CDF808A0 		str	r10, [sp, #8]
 783 01be C0E7     		b	.L36
 784              	.LVL89:
 785              	.L73:
 786              	.LBB469:
 787              	.LBB470:
 788              	.LBB471:
 789              	.LBB472:
 790              		.loc 1 1273 25 view .LVU236
 791 01c0 07F10709 		add	r9, r7, #7
 792 01c4 17E0     		b	.L39
 793              	.LVL90:
 794              	.L74:
 795              		.loc 1 1273 25 view .LVU237
 796              	.LBE472:
 797              	.LBE471:
1029:Drivers/lvgl/src/draw/sw/blend/lv_draw_sw_blend_to_i1.c ****                         }
 798              		.loc 1 1029 29 is_stmt 1 view .LVU238
 799              	.LBB474:
 800              	.LBI474:
1261:Drivers/lvgl/src/draw/sw/blend/lv_draw_sw_blend_to_i1.c **** {
 801              		.loc 1 1261 42 view .LVU239
 802              	.LBB475:
1263:Drivers/lvgl/src/draw/sw/blend/lv_draw_sw_blend_to_i1.c **** }
 803              		.loc 1 1263 5 view .LVU240
1263:Drivers/lvgl/src/draw/sw/blend/lv_draw_sw_blend_to_i1.c **** }
 804              		.loc 1 1263 8 is_stmt 0 view .LVU241
 805 01c6 18F80930 		ldrb	r3, [r8, r9]	@ zero_extendqisi2
1263:Drivers/lvgl/src/draw/sw/blend/lv_draw_sw_blend_to_i1.c **** }
 806              		.loc 1 1263 28 view .LVU242
 807 01ca 0122     		movs	r2, #1
 808 01cc BA40     		lsls	r2, r2, r7
1263:Drivers/lvgl/src/draw/sw/blend/lv_draw_sw_blend_to_i1.c **** }
 809              		.loc 1 1263 22 view .LVU243
 810 01ce 1343     		orrs	r3, r3, r2
ARM GAS  /var/folders/qx/2_175_4n2s19vhvtspjhb3qh0000gn/T//ccaVas4T.s 			page 41


 811 01d0 08F80930 		strb	r3, [r8, r9]
 812              	.LVL91:
 813              	.L41:
1263:Drivers/lvgl/src/draw/sw/blend/lv_draw_sw_blend_to_i1.c **** }
 814              		.loc 1 1263 22 view .LVU244
 815              	.LBE475:
 816              	.LBE474:
 817              	.LBE470:
1024:Drivers/lvgl/src/draw/sw/blend/lv_draw_sw_blend_to_i1.c ****                         uint8_t src = lv_color16_luminance(src_buf_c16[src_x]);
 818              		.loc 1 1024 90 is_stmt 1 discriminator 2 view .LVU245
1024:Drivers/lvgl/src/draw/sw/blend/lv_draw_sw_blend_to_i1.c ****                         uint8_t src = lv_color16_luminance(src_buf_c16[src_x]);
 819              		.loc 1 1024 78 is_stmt 0 discriminator 2 view .LVU246
 820 01d4 0134     		adds	r4, r4, #1
 821              	.LVL92:
1024:Drivers/lvgl/src/draw/sw/blend/lv_draw_sw_blend_to_i1.c ****                         uint8_t src = lv_color16_luminance(src_buf_c16[src_x]);
 822              		.loc 1 1024 88 discriminator 2 view .LVU247
 823 01d6 0AF1010A 		add	r10, r10, #1
 824              	.LVL93:
1024:Drivers/lvgl/src/draw/sw/blend/lv_draw_sw_blend_to_i1.c ****                         uint8_t src = lv_color16_luminance(src_buf_c16[src_x]);
 825              		.loc 1 1024 97 discriminator 2 view .LVU248
 826 01da 0135     		adds	r5, r5, #1
 827              	.LVL94:
 828              	.L43:
1024:Drivers/lvgl/src/draw/sw/blend/lv_draw_sw_blend_to_i1.c ****                         uint8_t src = lv_color16_luminance(src_buf_c16[src_x]);
 829              		.loc 1 1024 67 is_stmt 1 discriminator 1 view .LVU249
 830 01dc 009B     		ldr	r3, [sp]
 831 01de 9A45     		cmp	r10, r3
 832 01e0 2EDA     		bge	.L72
 833              	.LBB479:
1025:Drivers/lvgl/src/draw/sw/blend/lv_draw_sw_blend_to_i1.c ****                         uint8_t dest = get_bit(dest_buf_u8, dest_x + bit_ofs) * 255;
 834              		.loc 1 1025 25 view .LVU250
1025:Drivers/lvgl/src/draw/sw/blend/lv_draw_sw_blend_to_i1.c ****                         uint8_t dest = get_bit(dest_buf_u8, dest_x + bit_ofs) * 255;
 835              		.loc 1 1025 39 is_stmt 0 view .LVU251
 836 01e2 36F81500 		ldrh	r0, [r6, r5, lsl #1]
 837 01e6 FFF7FEFF 		bl	lv_color16_luminance
 838              	.LVL95:
1026:Drivers/lvgl/src/draw/sw/blend/lv_draw_sw_blend_to_i1.c ****                         lv_color_8_8_mix(src, &dest, mask_buf[mask_x]);
 839              		.loc 1 1026 25 is_stmt 1 view .LVU252
1026:Drivers/lvgl/src/draw/sw/blend/lv_draw_sw_blend_to_i1.c ****                         lv_color_8_8_mix(src, &dest, mask_buf[mask_x]);
 840              		.loc 1 1026 40 is_stmt 0 view .LVU253
 841 01ea 029B     		ldr	r3, [sp, #8]
 842 01ec 0AEB0307 		add	r7, r10, r3
 843              	.LVL96:
 844              	.LBB476:
 845              	.LBI471:
1271:Drivers/lvgl/src/draw/sw/blend/lv_draw_sw_blend_to_i1.c **** {
 846              		.loc 1 1271 45 is_stmt 1 view .LVU254
 847              	.LBB473:
 848              		.loc 1 1273 5 view .LVU255
 849              		.loc 1 1273 25 is_stmt 0 view .LVU256
 850 01f0 B946     		mov	r9, r7
 851 01f2 002F     		cmp	r7, #0
 852 01f4 E4DB     		blt	.L73
 853              	.L39:
 854              		.loc 1 1273 25 view .LVU257
 855 01f6 4FEAE909 		asr	r9, r9, #3
 856              		.loc 1 1273 16 view .LVU258
ARM GAS  /var/folders/qx/2_175_4n2s19vhvtspjhb3qh0000gn/T//ccaVas4T.s 			page 42


 857 01fa 18F80930 		ldrb	r3, [r8, r9]	@ zero_extendqisi2
 858              		.loc 1 1273 47 view .LVU259
 859 01fe 7A42     		rsbs	r2, r7, #0
 860 0200 07F00707 		and	r7, r7, #7
 861              	.LVL97:
 862              		.loc 1 1273 47 view .LVU260
 863 0204 02F00702 		and	r2, r2, #7
 864 0208 58BF     		it	pl
 865 020a 5742     		rsbpl	r7, r2, #0
 866              		.loc 1 1273 36 view .LVU261
 867 020c C7F10707 		rsb	r7, r7, #7
 868              		.loc 1 1273 30 view .LVU262
 869 0210 3B41     		asrs	r3, r3, r7
 870              	.LVL98:
 871              		.loc 1 1273 30 view .LVU263
 872              	.LBE473:
 873              	.LBE476:
1026:Drivers/lvgl/src/draw/sw/blend/lv_draw_sw_blend_to_i1.c ****                         lv_color_8_8_mix(src, &dest, mask_buf[mask_x]);
 874              		.loc 1 1026 33 discriminator 1 view .LVU264
 875 0212 43F30003 		sbfx	r3, r3, #0, #1
 876 0216 8DF82430 		strb	r3, [sp, #36]
1027:Drivers/lvgl/src/draw/sw/blend/lv_draw_sw_blend_to_i1.c ****                         if(dest > I1_LUM_THRESHOLD) {
 877              		.loc 1 1027 25 is_stmt 1 view .LVU265
 878 021a 1BF80420 		ldrb	r2, [fp, r4]	@ zero_extendqisi2
 879 021e 09A9     		add	r1, sp, #36
 880 0220 FFF7FEFF 		bl	lv_color_8_8_mix
 881              	.LVL99:
1028:Drivers/lvgl/src/draw/sw/blend/lv_draw_sw_blend_to_i1.c ****                             set_bit(dest_buf_u8, dest_x + bit_ofs);
 882              		.loc 1 1028 25 view .LVU266
1028:Drivers/lvgl/src/draw/sw/blend/lv_draw_sw_blend_to_i1.c ****                             set_bit(dest_buf_u8, dest_x + bit_ofs);
 883              		.loc 1 1028 33 is_stmt 0 view .LVU267
 884 0224 9DF92430 		ldrsb	r3, [sp, #36]
1028:Drivers/lvgl/src/draw/sw/blend/lv_draw_sw_blend_to_i1.c ****                             set_bit(dest_buf_u8, dest_x + bit_ofs);
 885              		.loc 1 1028 27 view .LVU268
 886 0228 002B     		cmp	r3, #0
 887 022a CCDB     		blt	.L74
1032:Drivers/lvgl/src/draw/sw/blend/lv_draw_sw_blend_to_i1.c ****                         }
 888              		.loc 1 1032 29 is_stmt 1 view .LVU269
 889              	.LVL100:
 890              	.LBB477:
 891              	.LBI477:
1266:Drivers/lvgl/src/draw/sw/blend/lv_draw_sw_blend_to_i1.c **** {
 892              		.loc 1 1266 42 view .LVU270
 893              	.LBB478:
1268:Drivers/lvgl/src/draw/sw/blend/lv_draw_sw_blend_to_i1.c **** }
 894              		.loc 1 1268 5 view .LVU271
1268:Drivers/lvgl/src/draw/sw/blend/lv_draw_sw_blend_to_i1.c **** }
 895              		.loc 1 1268 8 is_stmt 0 view .LVU272
 896 022c 18F80920 		ldrb	r2, [r8, r9]	@ zero_extendqisi2
1268:Drivers/lvgl/src/draw/sw/blend/lv_draw_sw_blend_to_i1.c **** }
 897              		.loc 1 1268 29 view .LVU273
 898 0230 0123     		movs	r3, #1
 899 0232 BB40     		lsls	r3, r3, r7
1268:Drivers/lvgl/src/draw/sw/blend/lv_draw_sw_blend_to_i1.c **** }
 900              		.loc 1 1268 22 view .LVU274
 901 0234 DB43     		mvns	r3, r3
 902 0236 5BB2     		sxtb	r3, r3
ARM GAS  /var/folders/qx/2_175_4n2s19vhvtspjhb3qh0000gn/T//ccaVas4T.s 			page 43


 903 0238 1340     		ands	r3, r3, r2
 904 023a 08F80930 		strb	r3, [r8, r9]
 905              	.LVL101:
1269:Drivers/lvgl/src/draw/sw/blend/lv_draw_sw_blend_to_i1.c **** 
 906              		.loc 1 1269 1 view .LVU275
 907 023e C9E7     		b	.L41
 908              	.LVL102:
 909              	.L72:
1269:Drivers/lvgl/src/draw/sw/blend/lv_draw_sw_blend_to_i1.c **** 
 910              		.loc 1 1269 1 view .LVU276
 911              	.LBE478:
 912              	.LBE477:
 913              	.LBE479:
 914              	.LBB480:
 915              	.LBB481:
1258:Drivers/lvgl/src/draw/sw/blend/lv_draw_sw_blend_to_i1.c **** }
 916              		.loc 1 1258 12 view .LVU277
 917 0240 059F     		ldr	r7, [sp, #20]
 918              	.LBE481:
 919              	.LBE480:
1035:Drivers/lvgl/src/draw/sw/blend/lv_draw_sw_blend_to_i1.c ****                     src_buf_c16 = drawbuf_next_row(src_buf_c16, src_stride);
 920              		.loc 1 1035 21 is_stmt 1 view .LVU278
 921              	.LVL103:
 922              	.LBB483:
 923              	.LBI480:
1256:Drivers/lvgl/src/draw/sw/blend/lv_draw_sw_blend_to_i1.c **** {
 924              		.loc 1 1256 44 view .LVU279
 925              	.LBB482:
1258:Drivers/lvgl/src/draw/sw/blend/lv_draw_sw_blend_to_i1.c **** }
 926              		.loc 1 1258 5 view .LVU280
1258:Drivers/lvgl/src/draw/sw/blend/lv_draw_sw_blend_to_i1.c **** }
 927              		.loc 1 1258 12 is_stmt 0 view .LVU281
 928 0242 039B     		ldr	r3, [sp, #12]
 929 0244 9844     		add	r8, r8, r3
 930              	.LVL104:
1258:Drivers/lvgl/src/draw/sw/blend/lv_draw_sw_blend_to_i1.c **** }
 931              		.loc 1 1258 12 view .LVU282
 932              	.LBE482:
 933              	.LBE483:
1036:Drivers/lvgl/src/draw/sw/blend/lv_draw_sw_blend_to_i1.c ****                     mask_buf += mask_stride;
 934              		.loc 1 1036 21 is_stmt 1 view .LVU283
 935              	.LBB484:
 936              	.LBI484:
1256:Drivers/lvgl/src/draw/sw/blend/lv_draw_sw_blend_to_i1.c **** {
 937              		.loc 1 1256 44 view .LVU284
 938              	.LBB485:
1258:Drivers/lvgl/src/draw/sw/blend/lv_draw_sw_blend_to_i1.c **** }
 939              		.loc 1 1258 5 view .LVU285
1258:Drivers/lvgl/src/draw/sw/blend/lv_draw_sw_blend_to_i1.c **** }
 940              		.loc 1 1258 12 is_stmt 0 view .LVU286
 941 0246 049B     		ldr	r3, [sp, #16]
 942 0248 1E44     		add	r6, r6, r3
 943              	.LVL105:
1258:Drivers/lvgl/src/draw/sw/blend/lv_draw_sw_blend_to_i1.c **** }
 944              		.loc 1 1258 12 view .LVU287
 945              	.LBE485:
 946              	.LBE484:
ARM GAS  /var/folders/qx/2_175_4n2s19vhvtspjhb3qh0000gn/T//ccaVas4T.s 			page 44


1037:Drivers/lvgl/src/draw/sw/blend/lv_draw_sw_blend_to_i1.c ****                 }
 947              		.loc 1 1037 21 is_stmt 1 view .LVU288
1037:Drivers/lvgl/src/draw/sw/blend/lv_draw_sw_blend_to_i1.c ****                 }
 948              		.loc 1 1037 30 is_stmt 0 view .LVU289
 949 024a 069B     		ldr	r3, [sp, #24]
 950 024c 9B44     		add	fp, fp, r3
 951              	.LVL106:
1023:Drivers/lvgl/src/draw/sw/blend/lv_draw_sw_blend_to_i1.c ****                     for(mask_x = 0, dest_x = 0, src_x = 0; dest_x < w; mask_x++, dest_x++, src_x++)
 952              		.loc 1 1023 36 is_stmt 1 discriminator 2 view .LVU290
 953 024e 0137     		adds	r7, r7, #1
 954              	.LVL107:
 955              	.L37:
1023:Drivers/lvgl/src/draw/sw/blend/lv_draw_sw_blend_to_i1.c ****                     for(mask_x = 0, dest_x = 0, src_x = 0; dest_x < w; mask_x++, dest_x++, src_x++)
 956              		.loc 1 1023 30 discriminator 1 view .LVU291
 957 0250 019B     		ldr	r3, [sp, #4]
 958 0252 9F42     		cmp	r7, r3
 959 0254 80F2B980 		bge	.L20
1024:Drivers/lvgl/src/draw/sw/blend/lv_draw_sw_blend_to_i1.c ****                         uint8_t src = lv_color16_luminance(src_buf_c16[src_x]);
 960              		.loc 1 1024 32 is_stmt 0 view .LVU292
 961 0258 0024     		movs	r4, #0
1024:Drivers/lvgl/src/draw/sw/blend/lv_draw_sw_blend_to_i1.c ****                         uint8_t src = lv_color16_luminance(src_buf_c16[src_x]);
 962              		.loc 1 1024 44 view .LVU293
 963 025a A246     		mov	r10, r4
1024:Drivers/lvgl/src/draw/sw/blend/lv_draw_sw_blend_to_i1.c ****                         uint8_t src = lv_color16_luminance(src_buf_c16[src_x]);
 964              		.loc 1 1024 55 view .LVU294
 965 025c 2546     		mov	r5, r4
 966 025e 0597     		str	r7, [sp, #20]
 967 0260 BCE7     		b	.L43
 968              	.LVL108:
 969              	.L59:
1023:Drivers/lvgl/src/draw/sw/blend/lv_draw_sw_blend_to_i1.c ****                     for(mask_x = 0, dest_x = 0, src_x = 0; dest_x < w; mask_x++, dest_x++, src_x++)
 970              		.loc 1 1023 23 view .LVU295
 971 0262 0024     		movs	r4, #0
 972 0264 2746     		mov	r7, r4
 973 0266 CDF800B0 		str	fp, [sp]
 974 026a C346     		mov	fp, r8
 975              	.LVL109:
1023:Drivers/lvgl/src/draw/sw/blend/lv_draw_sw_blend_to_i1.c ****                     for(mask_x = 0, dest_x = 0, src_x = 0; dest_x < w; mask_x++, dest_x++, src_x++)
 976              		.loc 1 1023 23 view .LVU296
 977 026c B046     		mov	r8, r6
 978              	.LVL110:
1023:Drivers/lvgl/src/draw/sw/blend/lv_draw_sw_blend_to_i1.c ****                     for(mask_x = 0, dest_x = 0, src_x = 0; dest_x < w; mask_x++, dest_x++, src_x++)
 979              		.loc 1 1023 23 view .LVU297
 980 026e 2E46     		mov	r6, r5
 981              	.LVL111:
1023:Drivers/lvgl/src/draw/sw/blend/lv_draw_sw_blend_to_i1.c ****                     for(mask_x = 0, dest_x = 0, src_x = 0; dest_x < w; mask_x++, dest_x++, src_x++)
 982              		.loc 1 1023 23 view .LVU298
 983 0270 0691     		str	r1, [sp, #24]
 984 0272 CDF808C0 		str	ip, [sp, #8]
 985 0276 EBE7     		b	.L37
 986              	.LVL112:
 987              	.L76:
1023:Drivers/lvgl/src/draw/sw/blend/lv_draw_sw_blend_to_i1.c ****                     for(mask_x = 0, dest_x = 0, src_x = 0; dest_x < w; mask_x++, dest_x++, src_x++)
 988              		.loc 1 1023 23 view .LVU299
 989              	.LBE469:
 990              	.LBB486:
 991              	.LBB425:
ARM GAS  /var/folders/qx/2_175_4n2s19vhvtspjhb3qh0000gn/T//ccaVas4T.s 			page 45


 992              	.LBB426:
 993              	.LBB427:
 994              		.loc 1 1273 25 view .LVU300
 995 0278 04F10708 		add	r8, r4, #7
 996 027c 17E0     		b	.L45
 997              	.LVL113:
 998              	.L77:
 999              		.loc 1 1273 25 view .LVU301
 1000              	.LBE427:
 1001              	.LBE426:
1050:Drivers/lvgl/src/draw/sw/blend/lv_draw_sw_blend_to_i1.c ****                         }
 1002              		.loc 1 1050 29 is_stmt 1 view .LVU302
 1003              	.LBB429:
 1004              	.LBI429:
1261:Drivers/lvgl/src/draw/sw/blend/lv_draw_sw_blend_to_i1.c **** {
 1005              		.loc 1 1261 42 view .LVU303
 1006              	.LBB430:
1263:Drivers/lvgl/src/draw/sw/blend/lv_draw_sw_blend_to_i1.c **** }
 1007              		.loc 1 1263 5 view .LVU304
1263:Drivers/lvgl/src/draw/sw/blend/lv_draw_sw_blend_to_i1.c **** }
 1008              		.loc 1 1263 8 is_stmt 0 view .LVU305
 1009 027e 15F80830 		ldrb	r3, [r5, r8]	@ zero_extendqisi2
1263:Drivers/lvgl/src/draw/sw/blend/lv_draw_sw_blend_to_i1.c **** }
 1010              		.loc 1 1263 28 view .LVU306
 1011 0282 0122     		movs	r2, #1
 1012 0284 A240     		lsls	r2, r2, r4
1263:Drivers/lvgl/src/draw/sw/blend/lv_draw_sw_blend_to_i1.c **** }
 1013              		.loc 1 1263 22 view .LVU307
 1014 0286 1343     		orrs	r3, r3, r2
 1015 0288 05F80830 		strb	r3, [r5, r8]
 1016              	.LVL114:
 1017              	.L47:
1263:Drivers/lvgl/src/draw/sw/blend/lv_draw_sw_blend_to_i1.c **** }
 1018              		.loc 1 1263 22 view .LVU308
 1019              	.LBE430:
 1020              	.LBE429:
 1021              	.LBE425:
1045:Drivers/lvgl/src/draw/sw/blend/lv_draw_sw_blend_to_i1.c ****                         uint8_t src = lv_color16_luminance(src_buf_c16[src_x]);
 1022              		.loc 1 1045 90 is_stmt 1 discriminator 2 view .LVU309
1045:Drivers/lvgl/src/draw/sw/blend/lv_draw_sw_blend_to_i1.c ****                         uint8_t src = lv_color16_luminance(src_buf_c16[src_x]);
 1023              		.loc 1 1045 78 is_stmt 0 discriminator 2 view .LVU310
 1024 028c 09F10109 		add	r9, r9, #1
 1025              	.LVL115:
1045:Drivers/lvgl/src/draw/sw/blend/lv_draw_sw_blend_to_i1.c ****                         uint8_t src = lv_color16_luminance(src_buf_c16[src_x]);
 1026              		.loc 1 1045 88 discriminator 2 view .LVU311
 1027 0290 0137     		adds	r7, r7, #1
 1028              	.LVL116:
1045:Drivers/lvgl/src/draw/sw/blend/lv_draw_sw_blend_to_i1.c ****                         uint8_t src = lv_color16_luminance(src_buf_c16[src_x]);
 1029              		.loc 1 1045 97 discriminator 2 view .LVU312
 1030 0292 0AF1010A 		add	r10, r10, #1
 1031              	.LVL117:
 1032              	.L49:
1045:Drivers/lvgl/src/draw/sw/blend/lv_draw_sw_blend_to_i1.c ****                         uint8_t src = lv_color16_luminance(src_buf_c16[src_x]);
 1033              		.loc 1 1045 67 is_stmt 1 discriminator 1 view .LVU313
 1034 0296 009B     		ldr	r3, [sp]
 1035 0298 9F42     		cmp	r7, r3
 1036 029a 31DA     		bge	.L75
ARM GAS  /var/folders/qx/2_175_4n2s19vhvtspjhb3qh0000gn/T//ccaVas4T.s 			page 46


 1037              	.LBB434:
1046:Drivers/lvgl/src/draw/sw/blend/lv_draw_sw_blend_to_i1.c ****                         uint8_t dest = get_bit(dest_buf_u8, dest_x + bit_ofs) * 255;
 1038              		.loc 1 1046 25 view .LVU314
1046:Drivers/lvgl/src/draw/sw/blend/lv_draw_sw_blend_to_i1.c ****                         uint8_t dest = get_bit(dest_buf_u8, dest_x + bit_ofs) * 255;
 1039              		.loc 1 1046 39 is_stmt 0 view .LVU315
 1040 029c 36F81A00 		ldrh	r0, [r6, r10, lsl #1]
 1041 02a0 FFF7FEFF 		bl	lv_color16_luminance
 1042              	.LVL118:
1047:Drivers/lvgl/src/draw/sw/blend/lv_draw_sw_blend_to_i1.c ****                         lv_color_8_8_mix(src, &dest, LV_OPA_MIX2(mask_buf[mask_x], opa));
 1043              		.loc 1 1047 25 is_stmt 1 view .LVU316
1047:Drivers/lvgl/src/draw/sw/blend/lv_draw_sw_blend_to_i1.c ****                         lv_color_8_8_mix(src, &dest, LV_OPA_MIX2(mask_buf[mask_x], opa));
 1044              		.loc 1 1047 40 is_stmt 0 view .LVU317
 1045 02a4 059B     		ldr	r3, [sp, #20]
 1046 02a6 FC18     		adds	r4, r7, r3
 1047              	.LVL119:
 1048              	.LBB431:
 1049              	.LBI426:
1271:Drivers/lvgl/src/draw/sw/blend/lv_draw_sw_blend_to_i1.c **** {
 1050              		.loc 1 1271 45 is_stmt 1 view .LVU318
 1051              	.LBB428:
 1052              		.loc 1 1273 5 view .LVU319
 1053              		.loc 1 1273 25 is_stmt 0 view .LVU320
 1054 02a8 A046     		mov	r8, r4
 1055 02aa 002C     		cmp	r4, #0
 1056 02ac E4DB     		blt	.L76
 1057              	.L45:
 1058              		.loc 1 1273 25 view .LVU321
 1059 02ae 4FEAE808 		asr	r8, r8, #3
 1060              		.loc 1 1273 16 view .LVU322
 1061 02b2 15F80830 		ldrb	r3, [r5, r8]	@ zero_extendqisi2
 1062              		.loc 1 1273 47 view .LVU323
 1063 02b6 6242     		rsbs	r2, r4, #0
 1064 02b8 04F00704 		and	r4, r4, #7
 1065              	.LVL120:
 1066              		.loc 1 1273 47 view .LVU324
 1067 02bc 02F00702 		and	r2, r2, #7
 1068 02c0 58BF     		it	pl
 1069 02c2 5442     		rsbpl	r4, r2, #0
 1070              		.loc 1 1273 36 view .LVU325
 1071 02c4 C4F10704 		rsb	r4, r4, #7
 1072              		.loc 1 1273 30 view .LVU326
 1073 02c8 2341     		asrs	r3, r3, r4
 1074              	.LVL121:
 1075              		.loc 1 1273 30 view .LVU327
 1076              	.LBE428:
 1077              	.LBE431:
1047:Drivers/lvgl/src/draw/sw/blend/lv_draw_sw_blend_to_i1.c ****                         lv_color_8_8_mix(src, &dest, LV_OPA_MIX2(mask_buf[mask_x], opa));
 1078              		.loc 1 1047 33 discriminator 1 view .LVU328
 1079 02ca 43F30003 		sbfx	r3, r3, #0, #1
 1080 02ce 8DF82430 		strb	r3, [sp, #36]
1048:Drivers/lvgl/src/draw/sw/blend/lv_draw_sw_blend_to_i1.c ****                         if(dest > I1_LUM_THRESHOLD) {
 1081              		.loc 1 1048 25 is_stmt 1 view .LVU329
1048:Drivers/lvgl/src/draw/sw/blend/lv_draw_sw_blend_to_i1.c ****                         if(dest > I1_LUM_THRESHOLD) {
 1082              		.loc 1 1048 54 is_stmt 0 view .LVU330
 1083 02d2 1BF80920 		ldrb	r2, [fp, r9]	@ zero_extendqisi2
 1084 02d6 029B     		ldr	r3, [sp, #8]
 1085 02d8 03FB02F2 		mul	r2, r3, r2
ARM GAS  /var/folders/qx/2_175_4n2s19vhvtspjhb3qh0000gn/T//ccaVas4T.s 			page 47


1048:Drivers/lvgl/src/draw/sw/blend/lv_draw_sw_blend_to_i1.c ****                         if(dest > I1_LUM_THRESHOLD) {
 1086              		.loc 1 1048 25 view .LVU331
 1087 02dc 120A     		lsrs	r2, r2, #8
 1088 02de 09A9     		add	r1, sp, #36
 1089 02e0 FFF7FEFF 		bl	lv_color_8_8_mix
 1090              	.LVL122:
1049:Drivers/lvgl/src/draw/sw/blend/lv_draw_sw_blend_to_i1.c ****                             set_bit(dest_buf_u8, dest_x + bit_ofs);
 1091              		.loc 1 1049 25 is_stmt 1 view .LVU332
1049:Drivers/lvgl/src/draw/sw/blend/lv_draw_sw_blend_to_i1.c ****                             set_bit(dest_buf_u8, dest_x + bit_ofs);
 1092              		.loc 1 1049 33 is_stmt 0 view .LVU333
 1093 02e4 9DF92430 		ldrsb	r3, [sp, #36]
1049:Drivers/lvgl/src/draw/sw/blend/lv_draw_sw_blend_to_i1.c ****                             set_bit(dest_buf_u8, dest_x + bit_ofs);
 1094              		.loc 1 1049 27 view .LVU334
 1095 02e8 002B     		cmp	r3, #0
 1096 02ea C8DB     		blt	.L77
1053:Drivers/lvgl/src/draw/sw/blend/lv_draw_sw_blend_to_i1.c ****                         }
 1097              		.loc 1 1053 29 is_stmt 1 view .LVU335
 1098              	.LVL123:
 1099              	.LBB432:
 1100              	.LBI432:
1266:Drivers/lvgl/src/draw/sw/blend/lv_draw_sw_blend_to_i1.c **** {
 1101              		.loc 1 1266 42 view .LVU336
 1102              	.LBB433:
1268:Drivers/lvgl/src/draw/sw/blend/lv_draw_sw_blend_to_i1.c **** }
 1103              		.loc 1 1268 5 view .LVU337
1268:Drivers/lvgl/src/draw/sw/blend/lv_draw_sw_blend_to_i1.c **** }
 1104              		.loc 1 1268 8 is_stmt 0 view .LVU338
 1105 02ec 15F80820 		ldrb	r2, [r5, r8]	@ zero_extendqisi2
1268:Drivers/lvgl/src/draw/sw/blend/lv_draw_sw_blend_to_i1.c **** }
 1106              		.loc 1 1268 29 view .LVU339
 1107 02f0 0123     		movs	r3, #1
 1108 02f2 A340     		lsls	r3, r3, r4
1268:Drivers/lvgl/src/draw/sw/blend/lv_draw_sw_blend_to_i1.c **** }
 1109              		.loc 1 1268 22 view .LVU340
 1110 02f4 DB43     		mvns	r3, r3
 1111 02f6 5BB2     		sxtb	r3, r3
 1112 02f8 1340     		ands	r3, r3, r2
 1113 02fa 05F80830 		strb	r3, [r5, r8]
 1114              	.LVL124:
1269:Drivers/lvgl/src/draw/sw/blend/lv_draw_sw_blend_to_i1.c **** 
 1115              		.loc 1 1269 1 view .LVU341
 1116 02fe C5E7     		b	.L47
 1117              	.LVL125:
 1118              	.L75:
1269:Drivers/lvgl/src/draw/sw/blend/lv_draw_sw_blend_to_i1.c **** 
 1119              		.loc 1 1269 1 view .LVU342
 1120              	.LBE433:
 1121              	.LBE432:
 1122              	.LBE434:
 1123              	.LBB435:
 1124              	.LBB436:
1258:Drivers/lvgl/src/draw/sw/blend/lv_draw_sw_blend_to_i1.c **** }
 1125              		.loc 1 1258 12 view .LVU343
 1126 0300 DDF81880 		ldr	r8, [sp, #24]
 1127              	.LBE436:
 1128              	.LBE435:
1056:Drivers/lvgl/src/draw/sw/blend/lv_draw_sw_blend_to_i1.c ****                     src_buf_c16 = drawbuf_next_row(src_buf_c16, src_stride);
ARM GAS  /var/folders/qx/2_175_4n2s19vhvtspjhb3qh0000gn/T//ccaVas4T.s 			page 48


 1129              		.loc 1 1056 21 is_stmt 1 view .LVU344
 1130              	.LVL126:
 1131              	.LBB438:
 1132              	.LBI435:
1256:Drivers/lvgl/src/draw/sw/blend/lv_draw_sw_blend_to_i1.c **** {
 1133              		.loc 1 1256 44 view .LVU345
 1134              	.LBB437:
1258:Drivers/lvgl/src/draw/sw/blend/lv_draw_sw_blend_to_i1.c **** }
 1135              		.loc 1 1258 5 view .LVU346
1258:Drivers/lvgl/src/draw/sw/blend/lv_draw_sw_blend_to_i1.c **** }
 1136              		.loc 1 1258 12 is_stmt 0 view .LVU347
 1137 0304 039B     		ldr	r3, [sp, #12]
 1138 0306 1D44     		add	r5, r5, r3
 1139              	.LVL127:
1258:Drivers/lvgl/src/draw/sw/blend/lv_draw_sw_blend_to_i1.c **** }
 1140              		.loc 1 1258 12 view .LVU348
 1141              	.LBE437:
 1142              	.LBE438:
1057:Drivers/lvgl/src/draw/sw/blend/lv_draw_sw_blend_to_i1.c ****                     mask_buf += mask_stride;
 1143              		.loc 1 1057 21 is_stmt 1 view .LVU349
 1144              	.LBB439:
 1145              	.LBI439:
1256:Drivers/lvgl/src/draw/sw/blend/lv_draw_sw_blend_to_i1.c **** {
 1146              		.loc 1 1256 44 view .LVU350
 1147              	.LBB440:
1258:Drivers/lvgl/src/draw/sw/blend/lv_draw_sw_blend_to_i1.c **** }
 1148              		.loc 1 1258 5 view .LVU351
1258:Drivers/lvgl/src/draw/sw/blend/lv_draw_sw_blend_to_i1.c **** }
 1149              		.loc 1 1258 12 is_stmt 0 view .LVU352
 1150 0308 049B     		ldr	r3, [sp, #16]
 1151 030a 1E44     		add	r6, r6, r3
 1152              	.LVL128:
1258:Drivers/lvgl/src/draw/sw/blend/lv_draw_sw_blend_to_i1.c **** }
 1153              		.loc 1 1258 12 view .LVU353
 1154              	.LBE440:
 1155              	.LBE439:
1058:Drivers/lvgl/src/draw/sw/blend/lv_draw_sw_blend_to_i1.c ****                 }
 1156              		.loc 1 1058 21 is_stmt 1 view .LVU354
1058:Drivers/lvgl/src/draw/sw/blend/lv_draw_sw_blend_to_i1.c ****                 }
 1157              		.loc 1 1058 30 is_stmt 0 view .LVU355
 1158 030c 079B     		ldr	r3, [sp, #28]
 1159 030e 9B44     		add	fp, fp, r3
 1160              	.LVL129:
1044:Drivers/lvgl/src/draw/sw/blend/lv_draw_sw_blend_to_i1.c ****                     for(mask_x = 0, dest_x = 0, src_x = 0; dest_x < w; mask_x++, dest_x++, src_x++)
 1161              		.loc 1 1044 36 is_stmt 1 discriminator 2 view .LVU356
 1162 0310 08F10108 		add	r8, r8, #1
 1163              	.LVL130:
 1164              	.L44:
1044:Drivers/lvgl/src/draw/sw/blend/lv_draw_sw_blend_to_i1.c ****                     for(mask_x = 0, dest_x = 0, src_x = 0; dest_x < w; mask_x++, dest_x++, src_x++)
 1165              		.loc 1 1044 30 discriminator 1 view .LVU357
 1166 0314 019B     		ldr	r3, [sp, #4]
 1167 0316 9845     		cmp	r8, r3
 1168 0318 57DA     		bge	.L20
1045:Drivers/lvgl/src/draw/sw/blend/lv_draw_sw_blend_to_i1.c ****                         uint8_t src = lv_color16_luminance(src_buf_c16[src_x]);
 1169              		.loc 1 1045 32 is_stmt 0 view .LVU358
 1170 031a 4FF00009 		mov	r9, #0
1045:Drivers/lvgl/src/draw/sw/blend/lv_draw_sw_blend_to_i1.c ****                         uint8_t src = lv_color16_luminance(src_buf_c16[src_x]);
ARM GAS  /var/folders/qx/2_175_4n2s19vhvtspjhb3qh0000gn/T//ccaVas4T.s 			page 49


 1171              		.loc 1 1045 44 view .LVU359
 1172 031e 4F46     		mov	r7, r9
1045:Drivers/lvgl/src/draw/sw/blend/lv_draw_sw_blend_to_i1.c ****                         uint8_t src = lv_color16_luminance(src_buf_c16[src_x]);
 1173              		.loc 1 1045 55 view .LVU360
 1174 0320 CA46     		mov	r10, r9
 1175 0322 CDF81880 		str	r8, [sp, #24]
 1176 0326 B6E7     		b	.L49
 1177              	.LVL131:
 1178              	.L50:
1045:Drivers/lvgl/src/draw/sw/blend/lv_draw_sw_blend_to_i1.c ****                         uint8_t src = lv_color16_luminance(src_buf_c16[src_x]);
 1179              		.loc 1 1045 55 view .LVU361
 1180              	.LBE486:
 1181              	.LBB487:
1071:Drivers/lvgl/src/draw/sw/blend/lv_draw_sw_blend_to_i1.c **** 
 1182              		.loc 1 1071 22 is_stmt 1 view .LVU362
1071:Drivers/lvgl/src/draw/sw/blend/lv_draw_sw_blend_to_i1.c **** 
 1183              		.loc 1 1071 39 is_stmt 0 view .LVU363
 1184 0328 335D     		ldrb	r3, [r6, r4]	@ zero_extendqisi2
 1185 032a 009A     		ldr	r2, [sp]
 1186 032c 02FB03F3 		mul	r3, r2, r3
 1187 0330 1B0A     		lsrs	r3, r3, #8
1071:Drivers/lvgl/src/draw/sw/blend/lv_draw_sw_blend_to_i1.c **** 
 1188              		.loc 1 1071 37 view .LVU364
 1189 0332 8DF82730 		strb	r3, [sp, #39]
 1190              	.L51:
1073:Drivers/lvgl/src/draw/sw/blend/lv_draw_sw_blend_to_i1.c ****             }
 1191              		.loc 1 1073 17 is_stmt 1 view .LVU365
 1192 0336 9AF82230 		ldrb	r3, [r10, #34]	@ zero_extendqisi2
 1193 033a 099A     		ldr	r2, [sp, #36]
 1194 033c 07EB0801 		add	r1, r7, r8
 1195 0340 4846     		mov	r0, r9
 1196 0342 FFF7FEFF 		bl	blend_non_normal_pixel
 1197              	.LVL132:
1066:Drivers/lvgl/src/draw/sw/blend/lv_draw_sw_blend_to_i1.c ****                 src_argb.red = (src_buf_c16[src_x].red * 2106) >> 8;
 1198              		.loc 1 1066 58 discriminator 2 view .LVU366
1066:Drivers/lvgl/src/draw/sw/blend/lv_draw_sw_blend_to_i1.c ****                 src_argb.red = (src_buf_c16[src_x].red * 2106) >> 8;
 1199              		.loc 1 1066 56 is_stmt 0 discriminator 2 view .LVU367
 1200 0346 0134     		adds	r4, r4, #1
 1201              	.LVL133:
1066:Drivers/lvgl/src/draw/sw/blend/lv_draw_sw_blend_to_i1.c ****                 src_argb.red = (src_buf_c16[src_x].red * 2106) >> 8;
 1202              		.loc 1 1066 66 discriminator 2 view .LVU368
 1203 0348 0137     		adds	r7, r7, #1
 1204              	.LVL134:
 1205              	.L54:
1066:Drivers/lvgl/src/draw/sw/blend/lv_draw_sw_blend_to_i1.c ****                 src_argb.red = (src_buf_c16[src_x].red * 2106) >> 8;
 1206              		.loc 1 1066 46 is_stmt 1 discriminator 1 view .LVU369
 1207 034a 5C45     		cmp	r4, fp
 1208 034c 24DA     		bge	.L78
1067:Drivers/lvgl/src/draw/sw/blend/lv_draw_sw_blend_to_i1.c ****                 src_argb.green = (src_buf_c16[src_x].green * 1037) >> 8;
 1209              		.loc 1 1067 17 view .LVU370
1067:Drivers/lvgl/src/draw/sw/blend/lv_draw_sw_blend_to_i1.c ****                 src_argb.green = (src_buf_c16[src_x].green * 1037) >> 8;
 1210              		.loc 1 1067 44 is_stmt 0 view .LVU371
 1211 034e 05EB4403 		add	r3, r5, r4, lsl #1
1067:Drivers/lvgl/src/draw/sw/blend/lv_draw_sw_blend_to_i1.c ****                 src_argb.green = (src_buf_c16[src_x].green * 1037) >> 8;
 1212              		.loc 1 1067 51 view .LVU372
 1213 0352 5B78     		ldrb	r3, [r3, #1]	@ zero_extendqisi2
 1214 0354 DB08     		lsrs	r3, r3, #3
ARM GAS  /var/folders/qx/2_175_4n2s19vhvtspjhb3qh0000gn/T//ccaVas4T.s 			page 50


1067:Drivers/lvgl/src/draw/sw/blend/lv_draw_sw_blend_to_i1.c ****                 src_argb.green = (src_buf_c16[src_x].green * 1037) >> 8;
 1215              		.loc 1 1067 56 view .LVU373
 1216 0356 40F63A02 		movw	r2, #2106
 1217 035a 02FB03F3 		mul	r3, r2, r3
1067:Drivers/lvgl/src/draw/sw/blend/lv_draw_sw_blend_to_i1.c ****                 src_argb.green = (src_buf_c16[src_x].green * 1037) >> 8;
 1218              		.loc 1 1067 64 view .LVU374
 1219 035e 1B12     		asrs	r3, r3, #8
1067:Drivers/lvgl/src/draw/sw/blend/lv_draw_sw_blend_to_i1.c ****                 src_argb.green = (src_buf_c16[src_x].green * 1037) >> 8;
 1220              		.loc 1 1067 30 view .LVU375
 1221 0360 8DF82630 		strb	r3, [sp, #38]
1068:Drivers/lvgl/src/draw/sw/blend/lv_draw_sw_blend_to_i1.c ****                 src_argb.blue = (src_buf_c16[src_x].blue * 2106) >> 8;
 1222              		.loc 1 1068 17 is_stmt 1 view .LVU376
1068:Drivers/lvgl/src/draw/sw/blend/lv_draw_sw_blend_to_i1.c ****                 src_argb.blue = (src_buf_c16[src_x].blue * 2106) >> 8;
 1223              		.loc 1 1068 53 is_stmt 0 view .LVU377
 1224 0364 35F81430 		ldrh	r3, [r5, r4, lsl #1]
 1225 0368 C3F34513 		ubfx	r3, r3, #5, #6
1068:Drivers/lvgl/src/draw/sw/blend/lv_draw_sw_blend_to_i1.c ****                 src_argb.blue = (src_buf_c16[src_x].blue * 2106) >> 8;
 1226              		.loc 1 1068 60 view .LVU378
 1227 036c 40F20D41 		movw	r1, #1037
 1228 0370 01FB03F3 		mul	r3, r1, r3
1068:Drivers/lvgl/src/draw/sw/blend/lv_draw_sw_blend_to_i1.c ****                 src_argb.blue = (src_buf_c16[src_x].blue * 2106) >> 8;
 1229              		.loc 1 1068 68 view .LVU379
 1230 0374 1B12     		asrs	r3, r3, #8
1068:Drivers/lvgl/src/draw/sw/blend/lv_draw_sw_blend_to_i1.c ****                 src_argb.blue = (src_buf_c16[src_x].blue * 2106) >> 8;
 1231              		.loc 1 1068 32 view .LVU380
 1232 0376 8DF82530 		strb	r3, [sp, #37]
1069:Drivers/lvgl/src/draw/sw/blend/lv_draw_sw_blend_to_i1.c ****                 if(mask_buf == NULL) src_argb.alpha = opa;
 1233              		.loc 1 1069 17 is_stmt 1 view .LVU381
1069:Drivers/lvgl/src/draw/sw/blend/lv_draw_sw_blend_to_i1.c ****                 if(mask_buf == NULL) src_argb.alpha = opa;
 1234              		.loc 1 1069 52 is_stmt 0 view .LVU382
 1235 037a 15F81430 		ldrb	r3, [r5, r4, lsl #1]	@ zero_extendqisi2
 1236 037e 03F01F03 		and	r3, r3, #31
1069:Drivers/lvgl/src/draw/sw/blend/lv_draw_sw_blend_to_i1.c ****                 if(mask_buf == NULL) src_argb.alpha = opa;
 1237              		.loc 1 1069 58 view .LVU383
 1238 0382 02FB03F3 		mul	r3, r2, r3
1069:Drivers/lvgl/src/draw/sw/blend/lv_draw_sw_blend_to_i1.c ****                 if(mask_buf == NULL) src_argb.alpha = opa;
 1239              		.loc 1 1069 66 view .LVU384
 1240 0386 1B12     		asrs	r3, r3, #8
1069:Drivers/lvgl/src/draw/sw/blend/lv_draw_sw_blend_to_i1.c ****                 if(mask_buf == NULL) src_argb.alpha = opa;
 1241              		.loc 1 1069 31 view .LVU385
 1242 0388 8DF82430 		strb	r3, [sp, #36]
1070:Drivers/lvgl/src/draw/sw/blend/lv_draw_sw_blend_to_i1.c ****                 else src_argb.alpha = LV_OPA_MIX2(mask_buf[src_x], opa);
 1243              		.loc 1 1070 17 is_stmt 1 view .LVU386
1070:Drivers/lvgl/src/draw/sw/blend/lv_draw_sw_blend_to_i1.c ****                 else src_argb.alpha = LV_OPA_MIX2(mask_buf[src_x], opa);
 1244              		.loc 1 1070 19 is_stmt 0 view .LVU387
 1245 038c 002E     		cmp	r6, #0
 1246 038e CBD1     		bne	.L50
1070:Drivers/lvgl/src/draw/sw/blend/lv_draw_sw_blend_to_i1.c ****                 else src_argb.alpha = LV_OPA_MIX2(mask_buf[src_x], opa);
 1247              		.loc 1 1070 38 is_stmt 1 discriminator 1 view .LVU388
1070:Drivers/lvgl/src/draw/sw/blend/lv_draw_sw_blend_to_i1.c ****                 else src_argb.alpha = LV_OPA_MIX2(mask_buf[src_x], opa);
 1248              		.loc 1 1070 53 is_stmt 0 discriminator 1 view .LVU389
 1249 0390 009B     		ldr	r3, [sp]
 1250 0392 8DF82730 		strb	r3, [sp, #39]
 1251 0396 CEE7     		b	.L51
 1252              	.L78:
1075:Drivers/lvgl/src/draw/sw/blend/lv_draw_sw_blend_to_i1.c ****             dest_buf_u8 = drawbuf_next_row(dest_buf_u8, dest_stride);
 1253              		.loc 1 1075 15 view .LVU390
ARM GAS  /var/folders/qx/2_175_4n2s19vhvtspjhb3qh0000gn/T//ccaVas4T.s 			page 51


 1254 0398 0298     		ldr	r0, [sp, #8]
1075:Drivers/lvgl/src/draw/sw/blend/lv_draw_sw_blend_to_i1.c ****             dest_buf_u8 = drawbuf_next_row(dest_buf_u8, dest_stride);
 1255              		.loc 1 1075 13 is_stmt 1 view .LVU391
1075:Drivers/lvgl/src/draw/sw/blend/lv_draw_sw_blend_to_i1.c ****             dest_buf_u8 = drawbuf_next_row(dest_buf_u8, dest_stride);
 1256              		.loc 1 1075 15 is_stmt 0 view .LVU392
 1257 039a 0EB1     		cbz	r6, .L53
1075:Drivers/lvgl/src/draw/sw/blend/lv_draw_sw_blend_to_i1.c ****             dest_buf_u8 = drawbuf_next_row(dest_buf_u8, dest_stride);
 1258              		.loc 1 1075 26 is_stmt 1 discriminator 1 view .LVU393
1075:Drivers/lvgl/src/draw/sw/blend/lv_draw_sw_blend_to_i1.c ****             dest_buf_u8 = drawbuf_next_row(dest_buf_u8, dest_stride);
 1259              		.loc 1 1075 35 is_stmt 0 discriminator 1 view .LVU394
 1260 039c 059B     		ldr	r3, [sp, #20]
 1261 039e 1E44     		add	r6, r6, r3
 1262              	.LVL135:
 1263              	.L53:
1076:Drivers/lvgl/src/draw/sw/blend/lv_draw_sw_blend_to_i1.c ****             src_buf_c16 = drawbuf_next_row(src_buf_c16, src_stride);
 1264              		.loc 1 1076 13 is_stmt 1 view .LVU395
 1265              	.LBB488:
 1266              	.LBI488:
1256:Drivers/lvgl/src/draw/sw/blend/lv_draw_sw_blend_to_i1.c **** {
 1267              		.loc 1 1256 44 view .LVU396
 1268              	.LBB489:
1258:Drivers/lvgl/src/draw/sw/blend/lv_draw_sw_blend_to_i1.c **** }
 1269              		.loc 1 1258 5 view .LVU397
1258:Drivers/lvgl/src/draw/sw/blend/lv_draw_sw_blend_to_i1.c **** }
 1270              		.loc 1 1258 12 is_stmt 0 view .LVU398
 1271 03a0 039B     		ldr	r3, [sp, #12]
 1272 03a2 9944     		add	r9, r9, r3
 1273              	.LVL136:
1258:Drivers/lvgl/src/draw/sw/blend/lv_draw_sw_blend_to_i1.c **** }
 1274              		.loc 1 1258 12 view .LVU399
 1275              	.LBE489:
 1276              	.LBE488:
1077:Drivers/lvgl/src/draw/sw/blend/lv_draw_sw_blend_to_i1.c ****         }
 1277              		.loc 1 1077 13 is_stmt 1 view .LVU400
 1278              	.LBB490:
 1279              	.LBI490:
1256:Drivers/lvgl/src/draw/sw/blend/lv_draw_sw_blend_to_i1.c **** {
 1280              		.loc 1 1256 44 view .LVU401
 1281              	.LBB491:
1258:Drivers/lvgl/src/draw/sw/blend/lv_draw_sw_blend_to_i1.c **** }
 1282              		.loc 1 1258 5 view .LVU402
1258:Drivers/lvgl/src/draw/sw/blend/lv_draw_sw_blend_to_i1.c **** }
 1283              		.loc 1 1258 12 is_stmt 0 view .LVU403
 1284 03a4 049B     		ldr	r3, [sp, #16]
 1285 03a6 1D44     		add	r5, r5, r3
 1286              	.LVL137:
1258:Drivers/lvgl/src/draw/sw/blend/lv_draw_sw_blend_to_i1.c **** }
 1287              		.loc 1 1258 12 view .LVU404
 1288              	.LBE491:
 1289              	.LBE490:
1065:Drivers/lvgl/src/draw/sw/blend/lv_draw_sw_blend_to_i1.c ****             for(src_x = 0, dest_x = 0; src_x < w; src_x++, dest_x++) {
 1290              		.loc 1 1065 28 is_stmt 1 discriminator 2 view .LVU405
 1291 03a8 0130     		adds	r0, r0, #1
 1292              	.LVL138:
 1293              	.L21:
1065:Drivers/lvgl/src/draw/sw/blend/lv_draw_sw_blend_to_i1.c ****             for(src_x = 0, dest_x = 0; src_x < w; src_x++, dest_x++) {
 1294              		.loc 1 1065 22 discriminator 1 view .LVU406
ARM GAS  /var/folders/qx/2_175_4n2s19vhvtspjhb3qh0000gn/T//ccaVas4T.s 			page 52


 1295 03aa 019B     		ldr	r3, [sp, #4]
 1296 03ac 9842     		cmp	r0, r3
 1297 03ae 0CDA     		bge	.L20
1066:Drivers/lvgl/src/draw/sw/blend/lv_draw_sw_blend_to_i1.c ****                 src_argb.red = (src_buf_c16[src_x].red * 2106) >> 8;
 1298              		.loc 1 1066 35 is_stmt 0 view .LVU407
 1299 03b0 0027     		movs	r7, #0
1066:Drivers/lvgl/src/draw/sw/blend/lv_draw_sw_blend_to_i1.c ****                 src_argb.red = (src_buf_c16[src_x].red * 2106) >> 8;
 1300              		.loc 1 1066 23 view .LVU408
 1301 03b2 3C46     		mov	r4, r7
 1302 03b4 0290     		str	r0, [sp, #8]
 1303 03b6 C8E7     		b	.L54
 1304              	.LVL139:
 1305              	.L55:
1065:Drivers/lvgl/src/draw/sw/blend/lv_draw_sw_blend_to_i1.c ****             for(src_x = 0, dest_x = 0; src_x < w; src_x++, dest_x++) {
 1306              		.loc 1 1065 15 view .LVU409
 1307 03b8 4FF00009 		mov	r9, #0
 1308 03bc 4846     		mov	r0, r9
 1309 03be B146     		mov	r9, r6
 1310 03c0 4646     		mov	r6, r8
 1311              	.LVL140:
1065:Drivers/lvgl/src/draw/sw/blend/lv_draw_sw_blend_to_i1.c ****             for(src_x = 0, dest_x = 0; src_x < w; src_x++, dest_x++) {
 1312              		.loc 1 1065 15 view .LVU410
 1313 03c2 0093     		str	r3, [sp]
 1314 03c4 0591     		str	r1, [sp, #20]
 1315 03c6 E046     		mov	r8, ip
 1316              	.LVL141:
1065:Drivers/lvgl/src/draw/sw/blend/lv_draw_sw_blend_to_i1.c ****             for(src_x = 0, dest_x = 0; src_x < w; src_x++, dest_x++) {
 1317              		.loc 1 1065 15 view .LVU411
 1318 03c8 EFE7     		b	.L21
 1319              	.LVL142:
 1320              	.L20:
1065:Drivers/lvgl/src/draw/sw/blend/lv_draw_sw_blend_to_i1.c ****             for(src_x = 0, dest_x = 0; src_x < w; src_x++, dest_x++) {
 1321              		.loc 1 1065 15 view .LVU412
 1322              	.LBE487:
1080:Drivers/lvgl/src/draw/sw/blend/lv_draw_sw_blend_to_i1.c **** #endif
 1323              		.loc 1 1080 1 view .LVU413
 1324 03ca 0BB0     		add	sp, sp, #44
 1325              	.LCFI6:
 1326              		.cfi_def_cfa_offset 36
 1327              		@ sp needed
 1328 03cc BDE8F08F 		pop	{r4, r5, r6, r7, r8, r9, r10, fp, pc}
1080:Drivers/lvgl/src/draw/sw/blend/lv_draw_sw_blend_to_i1.c **** #endif
 1329              		.loc 1 1080 1 view .LVU414
 1330              		.cfi_endproc
 1331              	.LFE188:
 1333              		.section	.text.rgb565_swapped_image_blend,"ax",%progbits
 1334              		.align	1
 1335              		.syntax unified
 1336              		.thumb
 1337              		.thumb_func
 1339              	rgb565_swapped_image_blend:
 1340              	.LVL143:
 1341              	.LFB189:
1085:Drivers/lvgl/src/draw/sw/blend/lv_draw_sw_blend_to_i1.c ****     int32_t w = dsc->dest_w;
 1342              		.loc 1 1085 1 is_stmt 1 view -0
 1343              		.cfi_startproc
 1344              		@ args = 0, pretend = 0, frame = 48
ARM GAS  /var/folders/qx/2_175_4n2s19vhvtspjhb3qh0000gn/T//ccaVas4T.s 			page 53


 1345              		@ frame_needed = 0, uses_anonymous_args = 0
1085:Drivers/lvgl/src/draw/sw/blend/lv_draw_sw_blend_to_i1.c ****     int32_t w = dsc->dest_w;
 1346              		.loc 1 1085 1 is_stmt 0 view .LVU416
 1347 0000 2DE9F04F 		push	{r4, r5, r6, r7, r8, r9, r10, fp, lr}
 1348              	.LCFI7:
 1349              		.cfi_def_cfa_offset 36
 1350              		.cfi_offset 4, -36
 1351              		.cfi_offset 5, -32
 1352              		.cfi_offset 6, -28
 1353              		.cfi_offset 7, -24
 1354              		.cfi_offset 8, -20
 1355              		.cfi_offset 9, -16
 1356              		.cfi_offset 10, -12
 1357              		.cfi_offset 11, -8
 1358              		.cfi_offset 14, -4
 1359 0004 8DB0     		sub	sp, sp, #52
 1360              	.LCFI8:
 1361              		.cfi_def_cfa_offset 88
1086:Drivers/lvgl/src/draw/sw/blend/lv_draw_sw_blend_to_i1.c ****     int32_t h = dsc->dest_h;
 1362              		.loc 1 1086 5 is_stmt 1 view .LVU417
1086:Drivers/lvgl/src/draw/sw/blend/lv_draw_sw_blend_to_i1.c ****     int32_t h = dsc->dest_h;
 1363              		.loc 1 1086 13 is_stmt 0 view .LVU418
 1364 0006 4368     		ldr	r3, [r0, #4]
 1365 0008 0293     		str	r3, [sp, #8]
 1366              	.LVL144:
1087:Drivers/lvgl/src/draw/sw/blend/lv_draw_sw_blend_to_i1.c ****     lv_opa_t opa = dsc->opa;
 1367              		.loc 1 1087 5 is_stmt 1 view .LVU419
1087:Drivers/lvgl/src/draw/sw/blend/lv_draw_sw_blend_to_i1.c ****     lv_opa_t opa = dsc->opa;
 1368              		.loc 1 1087 13 is_stmt 0 view .LVU420
 1369 000a 8368     		ldr	r3, [r0, #8]
 1370              	.LVL145:
1087:Drivers/lvgl/src/draw/sw/blend/lv_draw_sw_blend_to_i1.c ****     lv_opa_t opa = dsc->opa;
 1371              		.loc 1 1087 13 view .LVU421
 1372 000c 0393     		str	r3, [sp, #12]
 1373              	.LVL146:
1088:Drivers/lvgl/src/draw/sw/blend/lv_draw_sw_blend_to_i1.c ****     uint8_t * dest_buf_u8 = dsc->dest_buf;
 1374              		.loc 1 1088 5 is_stmt 1 view .LVU422
1088:Drivers/lvgl/src/draw/sw/blend/lv_draw_sw_blend_to_i1.c ****     uint8_t * dest_buf_u8 = dsc->dest_buf;
 1375              		.loc 1 1088 14 is_stmt 0 view .LVU423
 1376 000e 90F821C0 		ldrb	ip, [r0, #33]	@ zero_extendqisi2
 1377              	.LVL147:
1089:Drivers/lvgl/src/draw/sw/blend/lv_draw_sw_blend_to_i1.c ****     int32_t dest_stride = dsc->dest_stride;
 1378              		.loc 1 1089 5 is_stmt 1 view .LVU424
1089:Drivers/lvgl/src/draw/sw/blend/lv_draw_sw_blend_to_i1.c ****     int32_t dest_stride = dsc->dest_stride;
 1379              		.loc 1 1089 15 is_stmt 0 view .LVU425
 1380 0012 0568     		ldr	r5, [r0]
 1381              	.LVL148:
1090:Drivers/lvgl/src/draw/sw/blend/lv_draw_sw_blend_to_i1.c ****     const uint16_t * src_buf_u16 = dsc->src_buf;
 1382              		.loc 1 1090 5 is_stmt 1 view .LVU426
1090:Drivers/lvgl/src/draw/sw/blend/lv_draw_sw_blend_to_i1.c ****     const uint16_t * src_buf_u16 = dsc->src_buf;
 1383              		.loc 1 1090 13 is_stmt 0 view .LVU427
 1384 0014 C368     		ldr	r3, [r0, #12]
 1385              	.LVL149:
1090:Drivers/lvgl/src/draw/sw/blend/lv_draw_sw_blend_to_i1.c ****     const uint16_t * src_buf_u16 = dsc->src_buf;
 1386              		.loc 1 1090 13 view .LVU428
 1387 0016 0593     		str	r3, [sp, #20]
 1388              	.LVL150:
ARM GAS  /var/folders/qx/2_175_4n2s19vhvtspjhb3qh0000gn/T//ccaVas4T.s 			page 54


1091:Drivers/lvgl/src/draw/sw/blend/lv_draw_sw_blend_to_i1.c ****     int32_t src_stride = dsc->src_stride;
 1389              		.loc 1 1091 5 is_stmt 1 view .LVU429
1091:Drivers/lvgl/src/draw/sw/blend/lv_draw_sw_blend_to_i1.c ****     int32_t src_stride = dsc->src_stride;
 1390              		.loc 1 1091 22 is_stmt 0 view .LVU430
 1391 0018 8369     		ldr	r3, [r0, #24]
 1392              	.LVL151:
1091:Drivers/lvgl/src/draw/sw/blend/lv_draw_sw_blend_to_i1.c ****     int32_t src_stride = dsc->src_stride;
 1393              		.loc 1 1091 22 view .LVU431
 1394 001a 0193     		str	r3, [sp, #4]
 1395              	.LVL152:
1092:Drivers/lvgl/src/draw/sw/blend/lv_draw_sw_blend_to_i1.c ****     const lv_opa_t * mask_buf = dsc->mask_buf;
 1396              		.loc 1 1092 5 is_stmt 1 view .LVU432
1092:Drivers/lvgl/src/draw/sw/blend/lv_draw_sw_blend_to_i1.c ****     const lv_opa_t * mask_buf = dsc->mask_buf;
 1397              		.loc 1 1092 13 is_stmt 0 view .LVU433
 1398 001c C369     		ldr	r3, [r0, #28]
 1399              	.LVL153:
1092:Drivers/lvgl/src/draw/sw/blend/lv_draw_sw_blend_to_i1.c ****     const lv_opa_t * mask_buf = dsc->mask_buf;
 1400              		.loc 1 1092 13 view .LVU434
 1401 001e 0693     		str	r3, [sp, #24]
 1402              	.LVL154:
1093:Drivers/lvgl/src/draw/sw/blend/lv_draw_sw_blend_to_i1.c ****     int32_t mask_stride = dsc->mask_stride;
 1403              		.loc 1 1093 5 is_stmt 1 view .LVU435
1093:Drivers/lvgl/src/draw/sw/blend/lv_draw_sw_blend_to_i1.c ****     int32_t mask_stride = dsc->mask_stride;
 1404              		.loc 1 1093 22 is_stmt 0 view .LVU436
 1405 0020 D0F81080 		ldr	r8, [r0, #16]
 1406              	.LVL155:
1094:Drivers/lvgl/src/draw/sw/blend/lv_draw_sw_blend_to_i1.c ****     int32_t bit_ofs = dsc->relative_area.x1 % 8;
 1407              		.loc 1 1094 5 is_stmt 1 view .LVU437
1094:Drivers/lvgl/src/draw/sw/blend/lv_draw_sw_blend_to_i1.c ****     int32_t bit_ofs = dsc->relative_area.x1 % 8;
 1408              		.loc 1 1094 13 is_stmt 0 view .LVU438
 1409 0024 D0F814E0 		ldr	lr, [r0, #20]
 1410              	.LVL156:
1095:Drivers/lvgl/src/draw/sw/blend/lv_draw_sw_blend_to_i1.c **** 
 1411              		.loc 1 1095 5 is_stmt 1 view .LVU439
1095:Drivers/lvgl/src/draw/sw/blend/lv_draw_sw_blend_to_i1.c **** 
 1412              		.loc 1 1095 41 is_stmt 0 view .LVU440
 1413 0028 416A     		ldr	r1, [r0, #36]
1095:Drivers/lvgl/src/draw/sw/blend/lv_draw_sw_blend_to_i1.c **** 
 1414              		.loc 1 1095 13 view .LVU441
 1415 002a 4B42     		rsbs	r3, r1, #0
 1416              	.LVL157:
1095:Drivers/lvgl/src/draw/sw/blend/lv_draw_sw_blend_to_i1.c **** 
 1417              		.loc 1 1095 13 view .LVU442
 1418 002c 01F00701 		and	r1, r1, #7
 1419 0030 03F00703 		and	r3, r3, #7
 1420 0034 58BF     		it	pl
 1421 0036 5942     		rsbpl	r1, r3, #0
 1422              	.LVL158:
1097:Drivers/lvgl/src/draw/sw/blend/lv_draw_sw_blend_to_i1.c ****     int32_t dest_x;
 1423              		.loc 1 1097 5 is_stmt 1 view .LVU443
1098:Drivers/lvgl/src/draw/sw/blend/lv_draw_sw_blend_to_i1.c ****     int32_t y;
 1424              		.loc 1 1098 5 view .LVU444
1099:Drivers/lvgl/src/draw/sw/blend/lv_draw_sw_blend_to_i1.c ****     lv_color16_t px;
 1425              		.loc 1 1099 5 view .LVU445
1100:Drivers/lvgl/src/draw/sw/blend/lv_draw_sw_blend_to_i1.c **** 
 1426              		.loc 1 1100 5 view .LVU446
1103:Drivers/lvgl/src/draw/sw/blend/lv_draw_sw_blend_to_i1.c ****         if(mask_buf == NULL && opa >= LV_OPA_MAX) {
ARM GAS  /var/folders/qx/2_175_4n2s19vhvtspjhb3qh0000gn/T//ccaVas4T.s 			page 55


 1427              		.loc 1 1103 5 view .LVU447
1103:Drivers/lvgl/src/draw/sw/blend/lv_draw_sw_blend_to_i1.c ****         if(mask_buf == NULL && opa >= LV_OPA_MAX) {
 1428              		.loc 1 1103 11 is_stmt 0 view .LVU448
 1429 0038 90F82230 		ldrb	r3, [r0, #34]	@ zero_extendqisi2
1103:Drivers/lvgl/src/draw/sw/blend/lv_draw_sw_blend_to_i1.c ****         if(mask_buf == NULL && opa >= LV_OPA_MAX) {
 1430              		.loc 1 1103 7 view .LVU449
 1431 003c 002B     		cmp	r3, #0
 1432 003e 40F0F181 		bne	.L114
1104:Drivers/lvgl/src/draw/sw/blend/lv_draw_sw_blend_to_i1.c ****             if(LV_RESULT_INVALID == LV_DRAW_SW_RGB565_SWAPPED_BLEND_NORMAL_TO_I1(dsc)) {
 1433              		.loc 1 1104 9 is_stmt 1 view .LVU450
1104:Drivers/lvgl/src/draw/sw/blend/lv_draw_sw_blend_to_i1.c ****             if(LV_RESULT_INVALID == LV_DRAW_SW_RGB565_SWAPPED_BLEND_NORMAL_TO_I1(dsc)) {
 1434              		.loc 1 1104 11 is_stmt 0 view .LVU451
 1435 0042 B8F1000F 		cmp	r8, #0
 1436 0046 15D0     		beq	.L125
1143:Drivers/lvgl/src/draw/sw/blend/lv_draw_sw_blend_to_i1.c ****             if(LV_RESULT_INVALID == LV_DRAW_SW_RGB565_SWAPPED_BLEND_NORMAL_TO_I1_WITH_MASK(dsc)) {
 1437              		.loc 1 1143 14 is_stmt 1 view .LVU452
1143:Drivers/lvgl/src/draw/sw/blend/lv_draw_sw_blend_to_i1.c ****             if(LV_RESULT_INVALID == LV_DRAW_SW_RGB565_SWAPPED_BLEND_NORMAL_TO_I1_WITH_MASK(dsc)) {
 1438              		.loc 1 1143 16 is_stmt 0 view .LVU453
 1439 0048 B8F1000F 		cmp	r8, #0
 1440 004c 00F0FA81 		beq	.L79
1143:Drivers/lvgl/src/draw/sw/blend/lv_draw_sw_blend_to_i1.c ****             if(LV_RESULT_INVALID == LV_DRAW_SW_RGB565_SWAPPED_BLEND_NORMAL_TO_I1_WITH_MASK(dsc)) {
 1441              		.loc 1 1143 26 discriminator 1 view .LVU454
 1442 0050 BCF1FC0F 		cmp	ip, #252
 1443 0054 00F22F81 		bhi	.L118
1165:Drivers/lvgl/src/draw/sw/blend/lv_draw_sw_blend_to_i1.c ****             if(LV_RESULT_INVALID == LV_DRAW_SW_RGB565_SWAPPED_BLEND_NORMAL_TO_I1_MIX_MASK_OPA(dsc))
 1444              		.loc 1 1165 14 is_stmt 1 view .LVU455
1165:Drivers/lvgl/src/draw/sw/blend/lv_draw_sw_blend_to_i1.c ****             if(LV_RESULT_INVALID == LV_DRAW_SW_RGB565_SWAPPED_BLEND_NORMAL_TO_I1_MIX_MASK_OPA(dsc))
 1445              		.loc 1 1165 16 is_stmt 0 view .LVU456
 1446 0058 B8F1000F 		cmp	r8, #0
 1447 005c 00F0F281 		beq	.L79
 1448              	.LBB492:
1168:Drivers/lvgl/src/draw/sw/blend/lv_draw_sw_blend_to_i1.c ****                     for(mask_x = 0, dest_x = 0, src_x = 0; dest_x < w; mask_x++, dest_x++, src_x++)
 1449              		.loc 1 1168 23 view .LVU457
 1450 0060 0024     		movs	r4, #0
 1451 0062 4346     		mov	r3, r8
 1452 0064 A846     		mov	r8, r5
 1453              	.LVL159:
1168:Drivers/lvgl/src/draw/sw/blend/lv_draw_sw_blend_to_i1.c ****                     for(mask_x = 0, dest_x = 0, src_x = 0; dest_x < w; mask_x++, dest_x++, src_x++)
 1454              		.loc 1 1168 23 view .LVU458
 1455 0066 CDF810C0 		str	ip, [sp, #16]
 1456 006a CDF824E0 		str	lr, [sp, #36]
 1457 006e 0791     		str	r1, [sp, #28]
 1458 0070 1D46     		mov	r5, r3
 1459              	.LVL160:
1168:Drivers/lvgl/src/draw/sw/blend/lv_draw_sw_blend_to_i1.c ****                     for(mask_x = 0, dest_x = 0, src_x = 0; dest_x < w; mask_x++, dest_x++, src_x++)
 1460              		.loc 1 1168 23 view .LVU459
 1461 0072 81E1     		b	.L103
 1462              	.LVL161:
 1463              	.L125:
1168:Drivers/lvgl/src/draw/sw/blend/lv_draw_sw_blend_to_i1.c ****                     for(mask_x = 0, dest_x = 0, src_x = 0; dest_x < w; mask_x++, dest_x++, src_x++)
 1464              		.loc 1 1168 23 view .LVU460
 1465              	.LBE492:
1104:Drivers/lvgl/src/draw/sw/blend/lv_draw_sw_blend_to_i1.c ****             if(LV_RESULT_INVALID == LV_DRAW_SW_RGB565_SWAPPED_BLEND_NORMAL_TO_I1(dsc)) {
 1466              		.loc 1 1104 29 discriminator 1 view .LVU461
 1467 0074 BCF1FC0F 		cmp	ip, #252
 1468 0078 5FD8     		bhi	.L115
1125:Drivers/lvgl/src/draw/sw/blend/lv_draw_sw_blend_to_i1.c ****                     for(src_x = 0, dest_x = 0; src_x < w; dest_x++, src_x++) {
ARM GAS  /var/folders/qx/2_175_4n2s19vhvtspjhb3qh0000gn/T//ccaVas4T.s 			page 56


 1469              		.loc 1 1125 23 view .LVU462
 1470 007a 4FF0000A 		mov	r10, #0
 1471 007e DDF804B0 		ldr	fp, [sp, #4]
 1472 0082 5746     		mov	r7, r10
 1473 0084 AA46     		mov	r10, r5
 1474 0086 029D     		ldr	r5, [sp, #8]
 1475              	.LVL162:
1125:Drivers/lvgl/src/draw/sw/blend/lv_draw_sw_blend_to_i1.c ****                     for(src_x = 0, dest_x = 0; src_x < w; dest_x++, src_x++) {
 1476              		.loc 1 1125 23 view .LVU463
 1477 0088 CDF804C0 		str	ip, [sp, #4]
 1478 008c 0291     		str	r1, [sp, #8]
 1479 008e AAE0     		b	.L83
 1480              	.LVL163:
 1481              	.L128:
 1482              	.LBB513:
1112:Drivers/lvgl/src/draw/sw/blend/lv_draw_sw_blend_to_i1.c ****                         }
 1483              		.loc 1 1112 29 is_stmt 1 view .LVU464
 1484 0090 07EB0B03 		add	r3, r7, fp
 1485              	.LVL164:
 1486              	.LBB514:
 1487              	.LBI514:
1261:Drivers/lvgl/src/draw/sw/blend/lv_draw_sw_blend_to_i1.c **** {
 1488              		.loc 1 1261 42 view .LVU465
 1489              	.LBB515:
1263:Drivers/lvgl/src/draw/sw/blend/lv_draw_sw_blend_to_i1.c **** }
 1490              		.loc 1 1263 5 view .LVU466
1263:Drivers/lvgl/src/draw/sw/blend/lv_draw_sw_blend_to_i1.c **** }
 1491              		.loc 1 1263 17 is_stmt 0 view .LVU467
 1492 0094 1A46     		mov	r2, r3
 1493 0096 002B     		cmp	r3, #0
 1494 0098 10DB     		blt	.L126
 1495              	.L85:
1263:Drivers/lvgl/src/draw/sw/blend/lv_draw_sw_blend_to_i1.c **** }
 1496              		.loc 1 1263 17 view .LVU468
 1497 009a D210     		asrs	r2, r2, #3
1263:Drivers/lvgl/src/draw/sw/blend/lv_draw_sw_blend_to_i1.c **** }
 1498              		.loc 1 1263 8 view .LVU469
 1499 009c A95C     		ldrb	r1, [r5, r2]	@ zero_extendqisi2
1263:Drivers/lvgl/src/draw/sw/blend/lv_draw_sw_blend_to_i1.c **** }
 1500              		.loc 1 1263 45 view .LVU470
 1501 009e 5842     		rsbs	r0, r3, #0
 1502              	.LVL165:
1263:Drivers/lvgl/src/draw/sw/blend/lv_draw_sw_blend_to_i1.c **** }
 1503              		.loc 1 1263 45 view .LVU471
 1504 00a0 03F00703 		and	r3, r3, #7
 1505              	.LVL166:
1263:Drivers/lvgl/src/draw/sw/blend/lv_draw_sw_blend_to_i1.c **** }
 1506              		.loc 1 1263 45 view .LVU472
 1507 00a4 00F00700 		and	r0, r0, #7
 1508 00a8 58BF     		it	pl
 1509 00aa 4342     		rsbpl	r3, r0, #0
1263:Drivers/lvgl/src/draw/sw/blend/lv_draw_sw_blend_to_i1.c **** }
 1510              		.loc 1 1263 34 view .LVU473
 1511 00ac C3F10703 		rsb	r3, r3, #7
1263:Drivers/lvgl/src/draw/sw/blend/lv_draw_sw_blend_to_i1.c **** }
 1512              		.loc 1 1263 28 view .LVU474
 1513 00b0 0120     		movs	r0, #1
ARM GAS  /var/folders/qx/2_175_4n2s19vhvtspjhb3qh0000gn/T//ccaVas4T.s 			page 57


 1514 00b2 00FA03F3 		lsl	r3, r0, r3
1263:Drivers/lvgl/src/draw/sw/blend/lv_draw_sw_blend_to_i1.c **** }
 1515              		.loc 1 1263 22 view .LVU475
 1516 00b6 0B43     		orrs	r3, r3, r1
 1517 00b8 AB54     		strb	r3, [r5, r2]
 1518              	.LVL167:
1264:Drivers/lvgl/src/draw/sw/blend/lv_draw_sw_blend_to_i1.c **** 
 1519              		.loc 1 1264 1 view .LVU476
 1520 00ba 13E0     		b	.L86
 1521              	.LVL168:
 1522              	.L126:
1263:Drivers/lvgl/src/draw/sw/blend/lv_draw_sw_blend_to_i1.c **** }
 1523              		.loc 1 1263 17 view .LVU477
 1524 00bc DA1D     		adds	r2, r3, #7
 1525              	.LVL169:
1263:Drivers/lvgl/src/draw/sw/blend/lv_draw_sw_blend_to_i1.c **** }
 1526              		.loc 1 1263 17 view .LVU478
 1527 00be ECE7     		b	.L85
 1528              	.LVL170:
 1529              	.L87:
1263:Drivers/lvgl/src/draw/sw/blend/lv_draw_sw_blend_to_i1.c **** }
 1530              		.loc 1 1263 17 view .LVU479
 1531              	.LBE515:
 1532              	.LBE514:
 1533              	.LBB516:
 1534              	.LBB517:
1268:Drivers/lvgl/src/draw/sw/blend/lv_draw_sw_blend_to_i1.c **** }
 1535              		.loc 1 1268 17 view .LVU480
 1536 00c0 D210     		asrs	r2, r2, #3
1268:Drivers/lvgl/src/draw/sw/blend/lv_draw_sw_blend_to_i1.c **** }
 1537              		.loc 1 1268 8 view .LVU481
 1538 00c2 A95C     		ldrb	r1, [r5, r2]	@ zero_extendqisi2
1268:Drivers/lvgl/src/draw/sw/blend/lv_draw_sw_blend_to_i1.c **** }
 1539              		.loc 1 1268 46 view .LVU482
 1540 00c4 5842     		rsbs	r0, r3, #0
 1541              	.LVL171:
1268:Drivers/lvgl/src/draw/sw/blend/lv_draw_sw_blend_to_i1.c **** }
 1542              		.loc 1 1268 46 view .LVU483
 1543 00c6 03F00703 		and	r3, r3, #7
 1544              	.LVL172:
1268:Drivers/lvgl/src/draw/sw/blend/lv_draw_sw_blend_to_i1.c **** }
 1545              		.loc 1 1268 46 view .LVU484
 1546 00ca 00F00700 		and	r0, r0, #7
 1547 00ce 58BF     		it	pl
 1548 00d0 4342     		rsbpl	r3, r0, #0
1268:Drivers/lvgl/src/draw/sw/blend/lv_draw_sw_blend_to_i1.c **** }
 1549              		.loc 1 1268 35 view .LVU485
 1550 00d2 C3F10703 		rsb	r3, r3, #7
1268:Drivers/lvgl/src/draw/sw/blend/lv_draw_sw_blend_to_i1.c **** }
 1551              		.loc 1 1268 29 view .LVU486
 1552 00d6 0120     		movs	r0, #1
 1553 00d8 00FA03F3 		lsl	r3, r0, r3
1268:Drivers/lvgl/src/draw/sw/blend/lv_draw_sw_blend_to_i1.c **** }
 1554              		.loc 1 1268 22 view .LVU487
 1555 00dc DB43     		mvns	r3, r3
 1556 00de 5BB2     		sxtb	r3, r3
 1557 00e0 1940     		ands	r1, r1, r3
ARM GAS  /var/folders/qx/2_175_4n2s19vhvtspjhb3qh0000gn/T//ccaVas4T.s 			page 58


 1558 00e2 A954     		strb	r1, [r5, r2]
 1559              	.LVL173:
 1560              	.L86:
1268:Drivers/lvgl/src/draw/sw/blend/lv_draw_sw_blend_to_i1.c **** }
 1561              		.loc 1 1268 22 view .LVU488
 1562              	.LBE517:
 1563              	.LBE516:
 1564              	.LBE513:
1108:Drivers/lvgl/src/draw/sw/blend/lv_draw_sw_blend_to_i1.c ****                         px = lv_color16_from_u16(lv_color_swap_16(src_buf_u16[src_x]));
 1565              		.loc 1 1108 67 is_stmt 1 discriminator 2 view .LVU489
1108:Drivers/lvgl/src/draw/sw/blend/lv_draw_sw_blend_to_i1.c ****                         px = lv_color16_from_u16(lv_color_swap_16(src_buf_u16[src_x]));
 1566              		.loc 1 1108 65 is_stmt 0 discriminator 2 view .LVU490
 1567 00e4 0137     		adds	r7, r7, #1
 1568              	.LVL174:
1108:Drivers/lvgl/src/draw/sw/blend/lv_draw_sw_blend_to_i1.c ****                         px = lv_color16_from_u16(lv_color_swap_16(src_buf_u16[src_x]));
 1569              		.loc 1 1108 74 discriminator 2 view .LVU491
 1570 00e6 0136     		adds	r6, r6, #1
 1571              	.LVL175:
 1572              	.L89:
1108:Drivers/lvgl/src/draw/sw/blend/lv_draw_sw_blend_to_i1.c ****                         px = lv_color16_from_u16(lv_color_swap_16(src_buf_u16[src_x]));
 1573              		.loc 1 1108 54 is_stmt 1 discriminator 1 view .LVU492
 1574 00e8 5645     		cmp	r6, r10
 1575 00ea 19DA     		bge	.L127
 1576              	.LBB524:
1109:Drivers/lvgl/src/draw/sw/blend/lv_draw_sw_blend_to_i1.c ****                         uint8_t src = lv_color16_luminance(px);
 1577              		.loc 1 1109 25 view .LVU493
1109:Drivers/lvgl/src/draw/sw/blend/lv_draw_sw_blend_to_i1.c ****                         uint8_t src = lv_color16_luminance(px);
 1578              		.loc 1 1109 30 is_stmt 0 view .LVU494
 1579 00ec 39F81630 		ldrh	r3, [r9, r6, lsl #1]
 1580              	.LVL176:
 1581              	.LBB519:
 1582              	.LBI519:
 1583              		.file 2 "Drivers/lvgl/src/draw/sw/blend/../../../misc/../font/../draw/../misc/lv_color.h"
   1:Drivers/lvgl/src/draw/sw/blend/../../../misc/../font/../draw/../misc/lv_color.h **** /**
   2:Drivers/lvgl/src/draw/sw/blend/../../../misc/../font/../draw/../misc/lv_color.h ****  * @file lv_color.h
   3:Drivers/lvgl/src/draw/sw/blend/../../../misc/../font/../draw/../misc/lv_color.h ****  *
   4:Drivers/lvgl/src/draw/sw/blend/../../../misc/../font/../draw/../misc/lv_color.h ****  */
   5:Drivers/lvgl/src/draw/sw/blend/../../../misc/../font/../draw/../misc/lv_color.h **** 
   6:Drivers/lvgl/src/draw/sw/blend/../../../misc/../font/../draw/../misc/lv_color.h **** #ifndef LV_COLOR_H
   7:Drivers/lvgl/src/draw/sw/blend/../../../misc/../font/../draw/../misc/lv_color.h **** #define LV_COLOR_H
   8:Drivers/lvgl/src/draw/sw/blend/../../../misc/../font/../draw/../misc/lv_color.h **** 
   9:Drivers/lvgl/src/draw/sw/blend/../../../misc/../font/../draw/../misc/lv_color.h **** #ifdef __cplusplus
  10:Drivers/lvgl/src/draw/sw/blend/../../../misc/../font/../draw/../misc/lv_color.h **** extern "C" {
  11:Drivers/lvgl/src/draw/sw/blend/../../../misc/../font/../draw/../misc/lv_color.h **** #endif
  12:Drivers/lvgl/src/draw/sw/blend/../../../misc/../font/../draw/../misc/lv_color.h **** 
  13:Drivers/lvgl/src/draw/sw/blend/../../../misc/../font/../draw/../misc/lv_color.h **** /*********************
  14:Drivers/lvgl/src/draw/sw/blend/../../../misc/../font/../draw/../misc/lv_color.h ****  *      INCLUDES
  15:Drivers/lvgl/src/draw/sw/blend/../../../misc/../font/../draw/../misc/lv_color.h ****  *********************/
  16:Drivers/lvgl/src/draw/sw/blend/../../../misc/../font/../draw/../misc/lv_color.h **** #include "../lv_conf_internal.h"
  17:Drivers/lvgl/src/draw/sw/blend/../../../misc/../font/../draw/../misc/lv_color.h **** #include "lv_assert.h"
  18:Drivers/lvgl/src/draw/sw/blend/../../../misc/../font/../draw/../misc/lv_color.h **** #include "lv_math.h"
  19:Drivers/lvgl/src/draw/sw/blend/../../../misc/../font/../draw/../misc/lv_color.h **** #include "lv_types.h"
  20:Drivers/lvgl/src/draw/sw/blend/../../../misc/../font/../draw/../misc/lv_color.h **** 
  21:Drivers/lvgl/src/draw/sw/blend/../../../misc/../font/../draw/../misc/lv_color.h **** /*********************
  22:Drivers/lvgl/src/draw/sw/blend/../../../misc/../font/../draw/../misc/lv_color.h ****  *      DEFINES
  23:Drivers/lvgl/src/draw/sw/blend/../../../misc/../font/../draw/../misc/lv_color.h ****  *********************/
  24:Drivers/lvgl/src/draw/sw/blend/../../../misc/../font/../draw/../misc/lv_color.h **** LV_EXPORT_CONST_INT(LV_COLOR_DEPTH);
ARM GAS  /var/folders/qx/2_175_4n2s19vhvtspjhb3qh0000gn/T//ccaVas4T.s 			page 59


  25:Drivers/lvgl/src/draw/sw/blend/../../../misc/../font/../draw/../misc/lv_color.h **** 
  26:Drivers/lvgl/src/draw/sw/blend/../../../misc/../font/../draw/../misc/lv_color.h **** #if LV_COLOR_DEPTH == 8
  27:Drivers/lvgl/src/draw/sw/blend/../../../misc/../font/../draw/../misc/lv_color.h **** #define LV_COLOR_NATIVE_WITH_ALPHA_SIZE 2
  28:Drivers/lvgl/src/draw/sw/blend/../../../misc/../font/../draw/../misc/lv_color.h **** #elif LV_COLOR_DEPTH == 16
  29:Drivers/lvgl/src/draw/sw/blend/../../../misc/../font/../draw/../misc/lv_color.h **** #define LV_COLOR_NATIVE_WITH_ALPHA_SIZE 3
  30:Drivers/lvgl/src/draw/sw/blend/../../../misc/../font/../draw/../misc/lv_color.h **** #elif LV_COLOR_DEPTH == 24
  31:Drivers/lvgl/src/draw/sw/blend/../../../misc/../font/../draw/../misc/lv_color.h **** #define LV_COLOR_NATIVE_WITH_ALPHA_SIZE 4
  32:Drivers/lvgl/src/draw/sw/blend/../../../misc/../font/../draw/../misc/lv_color.h **** #elif LV_COLOR_DEPTH == 32
  33:Drivers/lvgl/src/draw/sw/blend/../../../misc/../font/../draw/../misc/lv_color.h **** #define LV_COLOR_NATIVE_WITH_ALPHA_SIZE 4
  34:Drivers/lvgl/src/draw/sw/blend/../../../misc/../font/../draw/../misc/lv_color.h **** #endif
  35:Drivers/lvgl/src/draw/sw/blend/../../../misc/../font/../draw/../misc/lv_color.h **** 
  36:Drivers/lvgl/src/draw/sw/blend/../../../misc/../font/../draw/../misc/lv_color.h **** /**
  37:Drivers/lvgl/src/draw/sw/blend/../../../misc/../font/../draw/../misc/lv_color.h ****  * Opacity percentages.
  38:Drivers/lvgl/src/draw/sw/blend/../../../misc/../font/../draw/../misc/lv_color.h ****  */
  39:Drivers/lvgl/src/draw/sw/blend/../../../misc/../font/../draw/../misc/lv_color.h **** 
  40:Drivers/lvgl/src/draw/sw/blend/../../../misc/../font/../draw/../misc/lv_color.h **** enum _lv_opacity_level_t {
  41:Drivers/lvgl/src/draw/sw/blend/../../../misc/../font/../draw/../misc/lv_color.h ****     LV_OPA_TRANSP = 0,
  42:Drivers/lvgl/src/draw/sw/blend/../../../misc/../font/../draw/../misc/lv_color.h ****     LV_OPA_0      = 0,
  43:Drivers/lvgl/src/draw/sw/blend/../../../misc/../font/../draw/../misc/lv_color.h ****     LV_OPA_10     = 25,
  44:Drivers/lvgl/src/draw/sw/blend/../../../misc/../font/../draw/../misc/lv_color.h ****     LV_OPA_20     = 51,
  45:Drivers/lvgl/src/draw/sw/blend/../../../misc/../font/../draw/../misc/lv_color.h ****     LV_OPA_30     = 76,
  46:Drivers/lvgl/src/draw/sw/blend/../../../misc/../font/../draw/../misc/lv_color.h ****     LV_OPA_40     = 102,
  47:Drivers/lvgl/src/draw/sw/blend/../../../misc/../font/../draw/../misc/lv_color.h ****     LV_OPA_50     = 127,
  48:Drivers/lvgl/src/draw/sw/blend/../../../misc/../font/../draw/../misc/lv_color.h ****     LV_OPA_60     = 153,
  49:Drivers/lvgl/src/draw/sw/blend/../../../misc/../font/../draw/../misc/lv_color.h ****     LV_OPA_70     = 178,
  50:Drivers/lvgl/src/draw/sw/blend/../../../misc/../font/../draw/../misc/lv_color.h ****     LV_OPA_80     = 204,
  51:Drivers/lvgl/src/draw/sw/blend/../../../misc/../font/../draw/../misc/lv_color.h ****     LV_OPA_90     = 229,
  52:Drivers/lvgl/src/draw/sw/blend/../../../misc/../font/../draw/../misc/lv_color.h ****     LV_OPA_100    = 255,
  53:Drivers/lvgl/src/draw/sw/blend/../../../misc/../font/../draw/../misc/lv_color.h ****     LV_OPA_COVER  = 255,
  54:Drivers/lvgl/src/draw/sw/blend/../../../misc/../font/../draw/../misc/lv_color.h **** };
  55:Drivers/lvgl/src/draw/sw/blend/../../../misc/../font/../draw/../misc/lv_color.h **** 
  56:Drivers/lvgl/src/draw/sw/blend/../../../misc/../font/../draw/../misc/lv_color.h **** #define LV_OPA_MIN 2    /**< Fully transparent if opa <= LV_OPA_MIN */
  57:Drivers/lvgl/src/draw/sw/blend/../../../misc/../font/../draw/../misc/lv_color.h **** #define LV_OPA_MAX 253  /**< Fully cover if opa >= LV_OPA_MAX */
  58:Drivers/lvgl/src/draw/sw/blend/../../../misc/../font/../draw/../misc/lv_color.h **** 
  59:Drivers/lvgl/src/draw/sw/blend/../../../misc/../font/../draw/../misc/lv_color.h **** /**
  60:Drivers/lvgl/src/draw/sw/blend/../../../misc/../font/../draw/../misc/lv_color.h ****  * Get the pixel size of a color format in bits, bpp
  61:Drivers/lvgl/src/draw/sw/blend/../../../misc/../font/../draw/../misc/lv_color.h ****  * @param cf        a color format (`LV_COLOR_FORMAT_...`)
  62:Drivers/lvgl/src/draw/sw/blend/../../../misc/../font/../draw/../misc/lv_color.h ****  * @return          the pixel size in bits
  63:Drivers/lvgl/src/draw/sw/blend/../../../misc/../font/../draw/../misc/lv_color.h ****  * @sa              lv_color_format_get_bpp
  64:Drivers/lvgl/src/draw/sw/blend/../../../misc/../font/../draw/../misc/lv_color.h ****  */
  65:Drivers/lvgl/src/draw/sw/blend/../../../misc/../font/../draw/../misc/lv_color.h **** #define LV_COLOR_FORMAT_GET_BPP(cf) (       \
  66:Drivers/lvgl/src/draw/sw/blend/../../../misc/../font/../draw/../misc/lv_color.h ****                                             (cf) == LV_COLOR_FORMAT_I1 ? 1 :        \
  67:Drivers/lvgl/src/draw/sw/blend/../../../misc/../font/../draw/../misc/lv_color.h ****                                             (cf) == LV_COLOR_FORMAT_A1 ? 1 :        \
  68:Drivers/lvgl/src/draw/sw/blend/../../../misc/../font/../draw/../misc/lv_color.h ****                                             (cf) == LV_COLOR_FORMAT_I2 ? 2 :        \
  69:Drivers/lvgl/src/draw/sw/blend/../../../misc/../font/../draw/../misc/lv_color.h ****                                             (cf) == LV_COLOR_FORMAT_A2 ? 2 :        \
  70:Drivers/lvgl/src/draw/sw/blend/../../../misc/../font/../draw/../misc/lv_color.h ****                                             (cf) == LV_COLOR_FORMAT_I4 ? 4 :        \
  71:Drivers/lvgl/src/draw/sw/blend/../../../misc/../font/../draw/../misc/lv_color.h ****                                             (cf) == LV_COLOR_FORMAT_A4 ? 4 :        \
  72:Drivers/lvgl/src/draw/sw/blend/../../../misc/../font/../draw/../misc/lv_color.h ****                                             (cf) == LV_COLOR_FORMAT_NEMA_TSC4 ? 4 : \
  73:Drivers/lvgl/src/draw/sw/blend/../../../misc/../font/../draw/../misc/lv_color.h ****                                             (cf) == LV_COLOR_FORMAT_NEMA_TSC6 ? 6 : \
  74:Drivers/lvgl/src/draw/sw/blend/../../../misc/../font/../draw/../misc/lv_color.h ****                                             (cf) == LV_COLOR_FORMAT_NEMA_TSC6A ? 6 : \
  75:Drivers/lvgl/src/draw/sw/blend/../../../misc/../font/../draw/../misc/lv_color.h ****                                             (cf) == LV_COLOR_FORMAT_NEMA_TSC6AP ? 6 : \
  76:Drivers/lvgl/src/draw/sw/blend/../../../misc/../font/../draw/../misc/lv_color.h ****                                             (cf) == LV_COLOR_FORMAT_L8 ? 8 :        \
  77:Drivers/lvgl/src/draw/sw/blend/../../../misc/../font/../draw/../misc/lv_color.h ****                                             (cf) == LV_COLOR_FORMAT_A8 ? 8 :        \
  78:Drivers/lvgl/src/draw/sw/blend/../../../misc/../font/../draw/../misc/lv_color.h ****                                             (cf) == LV_COLOR_FORMAT_I8 ? 8 :        \
  79:Drivers/lvgl/src/draw/sw/blend/../../../misc/../font/../draw/../misc/lv_color.h ****                                             (cf) == LV_COLOR_FORMAT_ARGB2222 ? 8 :  \
  80:Drivers/lvgl/src/draw/sw/blend/../../../misc/../font/../draw/../misc/lv_color.h ****                                             (cf) == LV_COLOR_FORMAT_NEMA_TSC12 ? 12 : \
  81:Drivers/lvgl/src/draw/sw/blend/../../../misc/../font/../draw/../misc/lv_color.h ****                                             (cf) == LV_COLOR_FORMAT_NEMA_TSC12A ? 12 : \
ARM GAS  /var/folders/qx/2_175_4n2s19vhvtspjhb3qh0000gn/T//ccaVas4T.s 			page 60


  82:Drivers/lvgl/src/draw/sw/blend/../../../misc/../font/../draw/../misc/lv_color.h ****                                             (cf) == LV_COLOR_FORMAT_AL88 ? 16 :     \
  83:Drivers/lvgl/src/draw/sw/blend/../../../misc/../font/../draw/../misc/lv_color.h ****                                             (cf) == LV_COLOR_FORMAT_RGB565 ? 16 :   \
  84:Drivers/lvgl/src/draw/sw/blend/../../../misc/../font/../draw/../misc/lv_color.h ****                                             (cf) == LV_COLOR_FORMAT_RGB565_SWAPPED ? 16 :   \
  85:Drivers/lvgl/src/draw/sw/blend/../../../misc/../font/../draw/../misc/lv_color.h ****                                             (cf) == LV_COLOR_FORMAT_RGB565A8 ? 16 : \
  86:Drivers/lvgl/src/draw/sw/blend/../../../misc/../font/../draw/../misc/lv_color.h ****                                             (cf) == LV_COLOR_FORMAT_YUY2 ? 16 :     \
  87:Drivers/lvgl/src/draw/sw/blend/../../../misc/../font/../draw/../misc/lv_color.h ****                                             (cf) == LV_COLOR_FORMAT_ARGB1555 ? 16 : \
  88:Drivers/lvgl/src/draw/sw/blend/../../../misc/../font/../draw/../misc/lv_color.h ****                                             (cf) == LV_COLOR_FORMAT_ARGB4444 ? 16 : \
  89:Drivers/lvgl/src/draw/sw/blend/../../../misc/../font/../draw/../misc/lv_color.h ****                                             (cf) == LV_COLOR_FORMAT_ARGB8565 ? 24 : \
  90:Drivers/lvgl/src/draw/sw/blend/../../../misc/../font/../draw/../misc/lv_color.h ****                                             (cf) == LV_COLOR_FORMAT_RGB888 ? 24 :   \
  91:Drivers/lvgl/src/draw/sw/blend/../../../misc/../font/../draw/../misc/lv_color.h ****                                             (cf) == LV_COLOR_FORMAT_ARGB8888 ? 32 : \
  92:Drivers/lvgl/src/draw/sw/blend/../../../misc/../font/../draw/../misc/lv_color.h ****                                             (cf) == LV_COLOR_FORMAT_ARGB8888_PREMULTIPLIED ? 32 : \
  93:Drivers/lvgl/src/draw/sw/blend/../../../misc/../font/../draw/../misc/lv_color.h ****                                             (cf) == LV_COLOR_FORMAT_XRGB8888 ? 32 : \
  94:Drivers/lvgl/src/draw/sw/blend/../../../misc/../font/../draw/../misc/lv_color.h ****                                             0                                       \
  95:Drivers/lvgl/src/draw/sw/blend/../../../misc/../font/../draw/../misc/lv_color.h ****                                     )
  96:Drivers/lvgl/src/draw/sw/blend/../../../misc/../font/../draw/../misc/lv_color.h **** 
  97:Drivers/lvgl/src/draw/sw/blend/../../../misc/../font/../draw/../misc/lv_color.h **** /**
  98:Drivers/lvgl/src/draw/sw/blend/../../../misc/../font/../draw/../misc/lv_color.h ****  * Get the pixel size of a color format in bytes
  99:Drivers/lvgl/src/draw/sw/blend/../../../misc/../font/../draw/../misc/lv_color.h ****  * @param cf        a color format (`LV_COLOR_FORMAT_...`)
 100:Drivers/lvgl/src/draw/sw/blend/../../../misc/../font/../draw/../misc/lv_color.h ****  * @return          the pixel size in bytes
 101:Drivers/lvgl/src/draw/sw/blend/../../../misc/../font/../draw/../misc/lv_color.h ****  * @sa              lv_color_format_get_size
 102:Drivers/lvgl/src/draw/sw/blend/../../../misc/../font/../draw/../misc/lv_color.h ****  */
 103:Drivers/lvgl/src/draw/sw/blend/../../../misc/../font/../draw/../misc/lv_color.h **** #define LV_COLOR_FORMAT_GET_SIZE(cf) ((LV_COLOR_FORMAT_GET_BPP(cf) + 7) >> 3)
 104:Drivers/lvgl/src/draw/sw/blend/../../../misc/../font/../draw/../misc/lv_color.h **** 
 105:Drivers/lvgl/src/draw/sw/blend/../../../misc/../font/../draw/../misc/lv_color.h **** /**********************
 106:Drivers/lvgl/src/draw/sw/blend/../../../misc/../font/../draw/../misc/lv_color.h ****  *      TYPEDEFS
 107:Drivers/lvgl/src/draw/sw/blend/../../../misc/../font/../draw/../misc/lv_color.h ****  **********************/
 108:Drivers/lvgl/src/draw/sw/blend/../../../misc/../font/../draw/../misc/lv_color.h **** 
 109:Drivers/lvgl/src/draw/sw/blend/../../../misc/../font/../draw/../misc/lv_color.h **** typedef struct {
 110:Drivers/lvgl/src/draw/sw/blend/../../../misc/../font/../draw/../misc/lv_color.h ****     uint8_t blue;
 111:Drivers/lvgl/src/draw/sw/blend/../../../misc/../font/../draw/../misc/lv_color.h ****     uint8_t green;
 112:Drivers/lvgl/src/draw/sw/blend/../../../misc/../font/../draw/../misc/lv_color.h ****     uint8_t red;
 113:Drivers/lvgl/src/draw/sw/blend/../../../misc/../font/../draw/../misc/lv_color.h **** } lv_color_t;
 114:Drivers/lvgl/src/draw/sw/blend/../../../misc/../font/../draw/../misc/lv_color.h **** 
 115:Drivers/lvgl/src/draw/sw/blend/../../../misc/../font/../draw/../misc/lv_color.h **** typedef struct {
 116:Drivers/lvgl/src/draw/sw/blend/../../../misc/../font/../draw/../misc/lv_color.h ****     uint16_t blue : 5;
 117:Drivers/lvgl/src/draw/sw/blend/../../../misc/../font/../draw/../misc/lv_color.h ****     uint16_t green : 6;
 118:Drivers/lvgl/src/draw/sw/blend/../../../misc/../font/../draw/../misc/lv_color.h ****     uint16_t red : 5;
 119:Drivers/lvgl/src/draw/sw/blend/../../../misc/../font/../draw/../misc/lv_color.h **** } lv_color16_t;
 120:Drivers/lvgl/src/draw/sw/blend/../../../misc/../font/../draw/../misc/lv_color.h **** 
 121:Drivers/lvgl/src/draw/sw/blend/../../../misc/../font/../draw/../misc/lv_color.h **** typedef struct {
 122:Drivers/lvgl/src/draw/sw/blend/../../../misc/../font/../draw/../misc/lv_color.h ****     uint8_t blue;
 123:Drivers/lvgl/src/draw/sw/blend/../../../misc/../font/../draw/../misc/lv_color.h ****     uint8_t green;
 124:Drivers/lvgl/src/draw/sw/blend/../../../misc/../font/../draw/../misc/lv_color.h ****     uint8_t red;
 125:Drivers/lvgl/src/draw/sw/blend/../../../misc/../font/../draw/../misc/lv_color.h ****     uint8_t alpha;
 126:Drivers/lvgl/src/draw/sw/blend/../../../misc/../font/../draw/../misc/lv_color.h **** } lv_color32_t;
 127:Drivers/lvgl/src/draw/sw/blend/../../../misc/../font/../draw/../misc/lv_color.h **** 
 128:Drivers/lvgl/src/draw/sw/blend/../../../misc/../font/../draw/../misc/lv_color.h **** typedef struct {
 129:Drivers/lvgl/src/draw/sw/blend/../../../misc/../font/../draw/../misc/lv_color.h ****     uint16_t h;
 130:Drivers/lvgl/src/draw/sw/blend/../../../misc/../font/../draw/../misc/lv_color.h ****     uint8_t s;
 131:Drivers/lvgl/src/draw/sw/blend/../../../misc/../font/../draw/../misc/lv_color.h ****     uint8_t v;
 132:Drivers/lvgl/src/draw/sw/blend/../../../misc/../font/../draw/../misc/lv_color.h **** } lv_color_hsv_t;
 133:Drivers/lvgl/src/draw/sw/blend/../../../misc/../font/../draw/../misc/lv_color.h **** 
 134:Drivers/lvgl/src/draw/sw/blend/../../../misc/../font/../draw/../misc/lv_color.h **** typedef struct {
 135:Drivers/lvgl/src/draw/sw/blend/../../../misc/../font/../draw/../misc/lv_color.h ****     uint8_t lumi;
 136:Drivers/lvgl/src/draw/sw/blend/../../../misc/../font/../draw/../misc/lv_color.h ****     uint8_t alpha;
 137:Drivers/lvgl/src/draw/sw/blend/../../../misc/../font/../draw/../misc/lv_color.h **** } lv_color16a_t;
 138:Drivers/lvgl/src/draw/sw/blend/../../../misc/../font/../draw/../misc/lv_color.h **** 
ARM GAS  /var/folders/qx/2_175_4n2s19vhvtspjhb3qh0000gn/T//ccaVas4T.s 			page 61


 139:Drivers/lvgl/src/draw/sw/blend/../../../misc/../font/../draw/../misc/lv_color.h **** typedef enum {
 140:Drivers/lvgl/src/draw/sw/blend/../../../misc/../font/../draw/../misc/lv_color.h ****     LV_COLOR_FORMAT_UNKNOWN           = 0,
 141:Drivers/lvgl/src/draw/sw/blend/../../../misc/../font/../draw/../misc/lv_color.h **** 
 142:Drivers/lvgl/src/draw/sw/blend/../../../misc/../font/../draw/../misc/lv_color.h ****     LV_COLOR_FORMAT_RAW               = 0x01,
 143:Drivers/lvgl/src/draw/sw/blend/../../../misc/../font/../draw/../misc/lv_color.h ****     LV_COLOR_FORMAT_RAW_ALPHA         = 0x02,
 144:Drivers/lvgl/src/draw/sw/blend/../../../misc/../font/../draw/../misc/lv_color.h **** 
 145:Drivers/lvgl/src/draw/sw/blend/../../../misc/../font/../draw/../misc/lv_color.h ****     /*<=1 byte (+alpha) formats*/
 146:Drivers/lvgl/src/draw/sw/blend/../../../misc/../font/../draw/../misc/lv_color.h ****     LV_COLOR_FORMAT_L8                = 0x06,
 147:Drivers/lvgl/src/draw/sw/blend/../../../misc/../font/../draw/../misc/lv_color.h ****     LV_COLOR_FORMAT_I1                = 0x07,
 148:Drivers/lvgl/src/draw/sw/blend/../../../misc/../font/../draw/../misc/lv_color.h ****     LV_COLOR_FORMAT_I2                = 0x08,
 149:Drivers/lvgl/src/draw/sw/blend/../../../misc/../font/../draw/../misc/lv_color.h ****     LV_COLOR_FORMAT_I4                = 0x09,
 150:Drivers/lvgl/src/draw/sw/blend/../../../misc/../font/../draw/../misc/lv_color.h ****     LV_COLOR_FORMAT_I8                = 0x0A,
 151:Drivers/lvgl/src/draw/sw/blend/../../../misc/../font/../draw/../misc/lv_color.h ****     LV_COLOR_FORMAT_A8                = 0x0E,
 152:Drivers/lvgl/src/draw/sw/blend/../../../misc/../font/../draw/../misc/lv_color.h **** 
 153:Drivers/lvgl/src/draw/sw/blend/../../../misc/../font/../draw/../misc/lv_color.h ****     /*2 byte (+alpha) formats*/
 154:Drivers/lvgl/src/draw/sw/blend/../../../misc/../font/../draw/../misc/lv_color.h ****     LV_COLOR_FORMAT_RGB565            = 0x12,
 155:Drivers/lvgl/src/draw/sw/blend/../../../misc/../font/../draw/../misc/lv_color.h ****     LV_COLOR_FORMAT_ARGB8565          = 0x13,   /**< Not supported by sw renderer yet. */
 156:Drivers/lvgl/src/draw/sw/blend/../../../misc/../font/../draw/../misc/lv_color.h ****     LV_COLOR_FORMAT_RGB565A8          = 0x14,   /**< Color array followed by Alpha array*/
 157:Drivers/lvgl/src/draw/sw/blend/../../../misc/../font/../draw/../misc/lv_color.h ****     LV_COLOR_FORMAT_AL88              = 0x15,   /**< L8 with alpha >*/
 158:Drivers/lvgl/src/draw/sw/blend/../../../misc/../font/../draw/../misc/lv_color.h ****     LV_COLOR_FORMAT_RGB565_SWAPPED    = 0x1B,
 159:Drivers/lvgl/src/draw/sw/blend/../../../misc/../font/../draw/../misc/lv_color.h **** 
 160:Drivers/lvgl/src/draw/sw/blend/../../../misc/../font/../draw/../misc/lv_color.h ****     /*3 byte (+alpha) formats*/
 161:Drivers/lvgl/src/draw/sw/blend/../../../misc/../font/../draw/../misc/lv_color.h ****     LV_COLOR_FORMAT_RGB888            = 0x0F,
 162:Drivers/lvgl/src/draw/sw/blend/../../../misc/../font/../draw/../misc/lv_color.h ****     LV_COLOR_FORMAT_ARGB8888          = 0x10,
 163:Drivers/lvgl/src/draw/sw/blend/../../../misc/../font/../draw/../misc/lv_color.h ****     LV_COLOR_FORMAT_XRGB8888          = 0x11,
 164:Drivers/lvgl/src/draw/sw/blend/../../../misc/../font/../draw/../misc/lv_color.h ****     LV_COLOR_FORMAT_ARGB8888_PREMULTIPLIED          = 0x1A,
 165:Drivers/lvgl/src/draw/sw/blend/../../../misc/../font/../draw/../misc/lv_color.h **** 
 166:Drivers/lvgl/src/draw/sw/blend/../../../misc/../font/../draw/../misc/lv_color.h ****     /*Formats not supported by software renderer but kept here so GPU can use it*/
 167:Drivers/lvgl/src/draw/sw/blend/../../../misc/../font/../draw/../misc/lv_color.h ****     LV_COLOR_FORMAT_A1                = 0x0B,
 168:Drivers/lvgl/src/draw/sw/blend/../../../misc/../font/../draw/../misc/lv_color.h ****     LV_COLOR_FORMAT_A2                = 0x0C,
 169:Drivers/lvgl/src/draw/sw/blend/../../../misc/../font/../draw/../misc/lv_color.h ****     LV_COLOR_FORMAT_A4                = 0x0D,
 170:Drivers/lvgl/src/draw/sw/blend/../../../misc/../font/../draw/../misc/lv_color.h ****     LV_COLOR_FORMAT_ARGB1555          = 0x16,
 171:Drivers/lvgl/src/draw/sw/blend/../../../misc/../font/../draw/../misc/lv_color.h ****     LV_COLOR_FORMAT_ARGB4444          = 0x17,
 172:Drivers/lvgl/src/draw/sw/blend/../../../misc/../font/../draw/../misc/lv_color.h ****     LV_COLOR_FORMAT_ARGB2222          = 0X18,
 173:Drivers/lvgl/src/draw/sw/blend/../../../misc/../font/../draw/../misc/lv_color.h **** 
 174:Drivers/lvgl/src/draw/sw/blend/../../../misc/../font/../draw/../misc/lv_color.h ****     /* reference to https://wiki.videolan.org/YUV/ */
 175:Drivers/lvgl/src/draw/sw/blend/../../../misc/../font/../draw/../misc/lv_color.h ****     /*YUV planar formats*/
 176:Drivers/lvgl/src/draw/sw/blend/../../../misc/../font/../draw/../misc/lv_color.h ****     LV_COLOR_FORMAT_YUV_START         = 0x20,
 177:Drivers/lvgl/src/draw/sw/blend/../../../misc/../font/../draw/../misc/lv_color.h ****     LV_COLOR_FORMAT_I420              = LV_COLOR_FORMAT_YUV_START,  /*YUV420 planar(3 plane)*/
 178:Drivers/lvgl/src/draw/sw/blend/../../../misc/../font/../draw/../misc/lv_color.h ****     LV_COLOR_FORMAT_I422              = 0x21,  /*YUV422 planar(3 plane)*/
 179:Drivers/lvgl/src/draw/sw/blend/../../../misc/../font/../draw/../misc/lv_color.h ****     LV_COLOR_FORMAT_I444              = 0x22,  /*YUV444 planar(3 plane)*/
 180:Drivers/lvgl/src/draw/sw/blend/../../../misc/../font/../draw/../misc/lv_color.h ****     LV_COLOR_FORMAT_I400              = 0x23,  /*YUV400 no chroma channel*/
 181:Drivers/lvgl/src/draw/sw/blend/../../../misc/../font/../draw/../misc/lv_color.h ****     LV_COLOR_FORMAT_NV21              = 0x24,  /*YUV420 planar(2 plane), UV plane in 'V, U, V, U'*/
 182:Drivers/lvgl/src/draw/sw/blend/../../../misc/../font/../draw/../misc/lv_color.h ****     LV_COLOR_FORMAT_NV12              = 0x25,  /*YUV420 planar(2 plane), UV plane in 'U, V, U, V'*/
 183:Drivers/lvgl/src/draw/sw/blend/../../../misc/../font/../draw/../misc/lv_color.h **** 
 184:Drivers/lvgl/src/draw/sw/blend/../../../misc/../font/../draw/../misc/lv_color.h ****     /*YUV packed formats*/
 185:Drivers/lvgl/src/draw/sw/blend/../../../misc/../font/../draw/../misc/lv_color.h ****     LV_COLOR_FORMAT_YUY2              = 0x26,  /*YUV422 packed like 'Y U Y V'*/
 186:Drivers/lvgl/src/draw/sw/blend/../../../misc/../font/../draw/../misc/lv_color.h ****     LV_COLOR_FORMAT_UYVY              = 0x27,  /*YUV422 packed like 'U Y V Y'*/
 187:Drivers/lvgl/src/draw/sw/blend/../../../misc/../font/../draw/../misc/lv_color.h **** 
 188:Drivers/lvgl/src/draw/sw/blend/../../../misc/../font/../draw/../misc/lv_color.h ****     LV_COLOR_FORMAT_YUV_END           = LV_COLOR_FORMAT_UYVY,
 189:Drivers/lvgl/src/draw/sw/blend/../../../misc/../font/../draw/../misc/lv_color.h **** 
 190:Drivers/lvgl/src/draw/sw/blend/../../../misc/../font/../draw/../misc/lv_color.h ****     LV_COLOR_FORMAT_PROPRIETARY_START = 0x30,
 191:Drivers/lvgl/src/draw/sw/blend/../../../misc/../font/../draw/../misc/lv_color.h **** 
 192:Drivers/lvgl/src/draw/sw/blend/../../../misc/../font/../draw/../misc/lv_color.h ****     LV_COLOR_FORMAT_NEMA_TSC_START    = LV_COLOR_FORMAT_PROPRIETARY_START,
 193:Drivers/lvgl/src/draw/sw/blend/../../../misc/../font/../draw/../misc/lv_color.h ****     LV_COLOR_FORMAT_NEMA_TSC4         = LV_COLOR_FORMAT_NEMA_TSC_START,
 194:Drivers/lvgl/src/draw/sw/blend/../../../misc/../font/../draw/../misc/lv_color.h ****     LV_COLOR_FORMAT_NEMA_TSC6         = 0x31,
 195:Drivers/lvgl/src/draw/sw/blend/../../../misc/../font/../draw/../misc/lv_color.h ****     LV_COLOR_FORMAT_NEMA_TSC6A        = 0x32,
ARM GAS  /var/folders/qx/2_175_4n2s19vhvtspjhb3qh0000gn/T//ccaVas4T.s 			page 62


 196:Drivers/lvgl/src/draw/sw/blend/../../../misc/../font/../draw/../misc/lv_color.h ****     LV_COLOR_FORMAT_NEMA_TSC6AP       = 0x33,
 197:Drivers/lvgl/src/draw/sw/blend/../../../misc/../font/../draw/../misc/lv_color.h ****     LV_COLOR_FORMAT_NEMA_TSC12        = 0x34,
 198:Drivers/lvgl/src/draw/sw/blend/../../../misc/../font/../draw/../misc/lv_color.h ****     LV_COLOR_FORMAT_NEMA_TSC12A       = 0x35,
 199:Drivers/lvgl/src/draw/sw/blend/../../../misc/../font/../draw/../misc/lv_color.h ****     LV_COLOR_FORMAT_NEMA_TSC_END      = LV_COLOR_FORMAT_NEMA_TSC12A,
 200:Drivers/lvgl/src/draw/sw/blend/../../../misc/../font/../draw/../misc/lv_color.h **** 
 201:Drivers/lvgl/src/draw/sw/blend/../../../misc/../font/../draw/../misc/lv_color.h ****     /*Color formats in which LVGL can render*/
 202:Drivers/lvgl/src/draw/sw/blend/../../../misc/../font/../draw/../misc/lv_color.h **** #if LV_COLOR_DEPTH == 1
 203:Drivers/lvgl/src/draw/sw/blend/../../../misc/../font/../draw/../misc/lv_color.h ****     LV_COLOR_FORMAT_NATIVE            = LV_COLOR_FORMAT_I1,
 204:Drivers/lvgl/src/draw/sw/blend/../../../misc/../font/../draw/../misc/lv_color.h ****     LV_COLOR_FORMAT_NATIVE_WITH_ALPHA = LV_COLOR_FORMAT_I1,
 205:Drivers/lvgl/src/draw/sw/blend/../../../misc/../font/../draw/../misc/lv_color.h **** #elif LV_COLOR_DEPTH == 8
 206:Drivers/lvgl/src/draw/sw/blend/../../../misc/../font/../draw/../misc/lv_color.h ****     LV_COLOR_FORMAT_NATIVE            = LV_COLOR_FORMAT_L8,
 207:Drivers/lvgl/src/draw/sw/blend/../../../misc/../font/../draw/../misc/lv_color.h ****     LV_COLOR_FORMAT_NATIVE_WITH_ALPHA = LV_COLOR_FORMAT_AL88,
 208:Drivers/lvgl/src/draw/sw/blend/../../../misc/../font/../draw/../misc/lv_color.h **** #elif LV_COLOR_DEPTH == 16
 209:Drivers/lvgl/src/draw/sw/blend/../../../misc/../font/../draw/../misc/lv_color.h ****     LV_COLOR_FORMAT_NATIVE            = LV_COLOR_FORMAT_RGB565,
 210:Drivers/lvgl/src/draw/sw/blend/../../../misc/../font/../draw/../misc/lv_color.h ****     LV_COLOR_FORMAT_NATIVE_WITH_ALPHA = LV_COLOR_FORMAT_RGB565A8,
 211:Drivers/lvgl/src/draw/sw/blend/../../../misc/../font/../draw/../misc/lv_color.h **** #elif LV_COLOR_DEPTH == 24
 212:Drivers/lvgl/src/draw/sw/blend/../../../misc/../font/../draw/../misc/lv_color.h ****     LV_COLOR_FORMAT_NATIVE            = LV_COLOR_FORMAT_RGB888,
 213:Drivers/lvgl/src/draw/sw/blend/../../../misc/../font/../draw/../misc/lv_color.h ****     LV_COLOR_FORMAT_NATIVE_WITH_ALPHA = LV_COLOR_FORMAT_ARGB8888,
 214:Drivers/lvgl/src/draw/sw/blend/../../../misc/../font/../draw/../misc/lv_color.h **** #elif LV_COLOR_DEPTH == 32
 215:Drivers/lvgl/src/draw/sw/blend/../../../misc/../font/../draw/../misc/lv_color.h ****     LV_COLOR_FORMAT_NATIVE            = LV_COLOR_FORMAT_XRGB8888,
 216:Drivers/lvgl/src/draw/sw/blend/../../../misc/../font/../draw/../misc/lv_color.h ****     LV_COLOR_FORMAT_NATIVE_WITH_ALPHA = LV_COLOR_FORMAT_ARGB8888,
 217:Drivers/lvgl/src/draw/sw/blend/../../../misc/../font/../draw/../misc/lv_color.h **** #else
 218:Drivers/lvgl/src/draw/sw/blend/../../../misc/../font/../draw/../misc/lv_color.h **** #error "LV_COLOR_DEPTH should be 1, 8, 16, 24 or 32"
 219:Drivers/lvgl/src/draw/sw/blend/../../../misc/../font/../draw/../misc/lv_color.h **** #endif
 220:Drivers/lvgl/src/draw/sw/blend/../../../misc/../font/../draw/../misc/lv_color.h **** 
 221:Drivers/lvgl/src/draw/sw/blend/../../../misc/../font/../draw/../misc/lv_color.h **** } lv_color_format_t;
 222:Drivers/lvgl/src/draw/sw/blend/../../../misc/../font/../draw/../misc/lv_color.h **** 
 223:Drivers/lvgl/src/draw/sw/blend/../../../misc/../font/../draw/../misc/lv_color.h **** #define LV_COLOR_FORMAT_IS_ALPHA_ONLY(cf) ((cf) >= LV_COLOR_FORMAT_A1 && (cf) <= LV_COLOR_FORMAT_A8
 224:Drivers/lvgl/src/draw/sw/blend/../../../misc/../font/../draw/../misc/lv_color.h **** #define LV_COLOR_FORMAT_IS_INDEXED(cf) ((cf) >= LV_COLOR_FORMAT_I1 && (cf) <= LV_COLOR_FORMAT_I8)
 225:Drivers/lvgl/src/draw/sw/blend/../../../misc/../font/../draw/../misc/lv_color.h **** #define LV_COLOR_FORMAT_IS_YUV(cf)  ((cf) >= LV_COLOR_FORMAT_YUV_START && (cf) <= LV_COLOR_FORMAT_Y
 226:Drivers/lvgl/src/draw/sw/blend/../../../misc/../font/../draw/../misc/lv_color.h **** #define LV_COLOR_INDEXED_PALETTE_SIZE(cf) ((cf) == LV_COLOR_FORMAT_I1 ? 2 :\
 227:Drivers/lvgl/src/draw/sw/blend/../../../misc/../font/../draw/../misc/lv_color.h ****                                            (cf) == LV_COLOR_FORMAT_I2 ? 4 :\
 228:Drivers/lvgl/src/draw/sw/blend/../../../misc/../font/../draw/../misc/lv_color.h ****                                            (cf) == LV_COLOR_FORMAT_I4 ? 16 :\
 229:Drivers/lvgl/src/draw/sw/blend/../../../misc/../font/../draw/../misc/lv_color.h ****                                            (cf) == LV_COLOR_FORMAT_I8 ? 256 : 0)
 230:Drivers/lvgl/src/draw/sw/blend/../../../misc/../font/../draw/../misc/lv_color.h **** 
 231:Drivers/lvgl/src/draw/sw/blend/../../../misc/../font/../draw/../misc/lv_color.h **** /**********************
 232:Drivers/lvgl/src/draw/sw/blend/../../../misc/../font/../draw/../misc/lv_color.h ****  * MACROS
 233:Drivers/lvgl/src/draw/sw/blend/../../../misc/../font/../draw/../misc/lv_color.h ****  **********************/
 234:Drivers/lvgl/src/draw/sw/blend/../../../misc/../font/../draw/../misc/lv_color.h **** 
 235:Drivers/lvgl/src/draw/sw/blend/../../../misc/../font/../draw/../misc/lv_color.h **** #define LV_COLOR_MAKE(r8, g8, b8) {b8, g8, r8}
 236:Drivers/lvgl/src/draw/sw/blend/../../../misc/../font/../draw/../misc/lv_color.h **** 
 237:Drivers/lvgl/src/draw/sw/blend/../../../misc/../font/../draw/../misc/lv_color.h **** #define LV_OPA_MIX2(a1, a2) ((lv_opa_t)(((int32_t)(a1) * (a2)) >> 8))
 238:Drivers/lvgl/src/draw/sw/blend/../../../misc/../font/../draw/../misc/lv_color.h **** #define LV_OPA_MIX3(a1, a2, a3) ((lv_opa_t)(((int32_t)(a1) * (a2) * (a3)) >> 16))
 239:Drivers/lvgl/src/draw/sw/blend/../../../misc/../font/../draw/../misc/lv_color.h **** 
 240:Drivers/lvgl/src/draw/sw/blend/../../../misc/../font/../draw/../misc/lv_color.h **** /**********************
 241:Drivers/lvgl/src/draw/sw/blend/../../../misc/../font/../draw/../misc/lv_color.h ****  * GLOBAL PROTOTYPES
 242:Drivers/lvgl/src/draw/sw/blend/../../../misc/../font/../draw/../misc/lv_color.h ****  **********************/
 243:Drivers/lvgl/src/draw/sw/blend/../../../misc/../font/../draw/../misc/lv_color.h **** 
 244:Drivers/lvgl/src/draw/sw/blend/../../../misc/../font/../draw/../misc/lv_color.h **** /**
 245:Drivers/lvgl/src/draw/sw/blend/../../../misc/../font/../draw/../misc/lv_color.h ****  * Get the pixel size of a color format in bits, bpp
 246:Drivers/lvgl/src/draw/sw/blend/../../../misc/../font/../draw/../misc/lv_color.h ****  * @param cf        a color format (`LV_COLOR_FORMAT_...`)
 247:Drivers/lvgl/src/draw/sw/blend/../../../misc/../font/../draw/../misc/lv_color.h ****  * @return          the pixel size in bits
 248:Drivers/lvgl/src/draw/sw/blend/../../../misc/../font/../draw/../misc/lv_color.h ****  * @sa              LV_COLOR_FORMAT_GET_BPP
 249:Drivers/lvgl/src/draw/sw/blend/../../../misc/../font/../draw/../misc/lv_color.h ****  */
 250:Drivers/lvgl/src/draw/sw/blend/../../../misc/../font/../draw/../misc/lv_color.h **** uint8_t lv_color_format_get_bpp(lv_color_format_t cf);
 251:Drivers/lvgl/src/draw/sw/blend/../../../misc/../font/../draw/../misc/lv_color.h **** 
 252:Drivers/lvgl/src/draw/sw/blend/../../../misc/../font/../draw/../misc/lv_color.h **** /**
ARM GAS  /var/folders/qx/2_175_4n2s19vhvtspjhb3qh0000gn/T//ccaVas4T.s 			page 63


 253:Drivers/lvgl/src/draw/sw/blend/../../../misc/../font/../draw/../misc/lv_color.h ****  * Get the pixel size of a color format in bytes
 254:Drivers/lvgl/src/draw/sw/blend/../../../misc/../font/../draw/../misc/lv_color.h ****  * @param cf        a color format (`LV_COLOR_FORMAT_...`)
 255:Drivers/lvgl/src/draw/sw/blend/../../../misc/../font/../draw/../misc/lv_color.h ****  * @return          the pixel size in bytes
 256:Drivers/lvgl/src/draw/sw/blend/../../../misc/../font/../draw/../misc/lv_color.h ****  * @sa              LV_COLOR_FORMAT_GET_SIZE
 257:Drivers/lvgl/src/draw/sw/blend/../../../misc/../font/../draw/../misc/lv_color.h ****  */
 258:Drivers/lvgl/src/draw/sw/blend/../../../misc/../font/../draw/../misc/lv_color.h **** uint8_t lv_color_format_get_size(lv_color_format_t cf);
 259:Drivers/lvgl/src/draw/sw/blend/../../../misc/../font/../draw/../misc/lv_color.h **** 
 260:Drivers/lvgl/src/draw/sw/blend/../../../misc/../font/../draw/../misc/lv_color.h **** /**
 261:Drivers/lvgl/src/draw/sw/blend/../../../misc/../font/../draw/../misc/lv_color.h ****  * Check if a color format has alpha channel or not
 262:Drivers/lvgl/src/draw/sw/blend/../../../misc/../font/../draw/../misc/lv_color.h ****  * @param src_cf    a color format (`LV_COLOR_FORMAT_...`)
 263:Drivers/lvgl/src/draw/sw/blend/../../../misc/../font/../draw/../misc/lv_color.h ****  * @return          true: has alpha channel; false: doesn't have alpha channel
 264:Drivers/lvgl/src/draw/sw/blend/../../../misc/../font/../draw/../misc/lv_color.h ****  */
 265:Drivers/lvgl/src/draw/sw/blend/../../../misc/../font/../draw/../misc/lv_color.h **** bool lv_color_format_has_alpha(lv_color_format_t src_cf);
 266:Drivers/lvgl/src/draw/sw/blend/../../../misc/../font/../draw/../misc/lv_color.h **** 
 267:Drivers/lvgl/src/draw/sw/blend/../../../misc/../font/../draw/../misc/lv_color.h **** /**
 268:Drivers/lvgl/src/draw/sw/blend/../../../misc/../font/../draw/../misc/lv_color.h ****  * Create an ARGB8888 color from RGB888 + alpha
 269:Drivers/lvgl/src/draw/sw/blend/../../../misc/../font/../draw/../misc/lv_color.h ****  * @param color     an RGB888 color
 270:Drivers/lvgl/src/draw/sw/blend/../../../misc/../font/../draw/../misc/lv_color.h ****  * @param opa       the alpha value
 271:Drivers/lvgl/src/draw/sw/blend/../../../misc/../font/../draw/../misc/lv_color.h ****  * @return          the ARGB8888 color
 272:Drivers/lvgl/src/draw/sw/blend/../../../misc/../font/../draw/../misc/lv_color.h ****  */
 273:Drivers/lvgl/src/draw/sw/blend/../../../misc/../font/../draw/../misc/lv_color.h **** lv_color32_t lv_color_to_32(lv_color_t color, lv_opa_t opa);
 274:Drivers/lvgl/src/draw/sw/blend/../../../misc/../font/../draw/../misc/lv_color.h **** 
 275:Drivers/lvgl/src/draw/sw/blend/../../../misc/../font/../draw/../misc/lv_color.h **** /**
 276:Drivers/lvgl/src/draw/sw/blend/../../../misc/../font/../draw/../misc/lv_color.h ****  * Convert an RGB888 color to an integer
 277:Drivers/lvgl/src/draw/sw/blend/../../../misc/../font/../draw/../misc/lv_color.h ****  * @param c     an RGB888 color
 278:Drivers/lvgl/src/draw/sw/blend/../../../misc/../font/../draw/../misc/lv_color.h ****  * @return      `c` as an integer
 279:Drivers/lvgl/src/draw/sw/blend/../../../misc/../font/../draw/../misc/lv_color.h ****  */
 280:Drivers/lvgl/src/draw/sw/blend/../../../misc/../font/../draw/../misc/lv_color.h **** uint32_t lv_color_to_int(lv_color_t c);
 281:Drivers/lvgl/src/draw/sw/blend/../../../misc/../font/../draw/../misc/lv_color.h **** 
 282:Drivers/lvgl/src/draw/sw/blend/../../../misc/../font/../draw/../misc/lv_color.h **** /**
 283:Drivers/lvgl/src/draw/sw/blend/../../../misc/../font/../draw/../misc/lv_color.h ****  * Check if two RGB888 color are equal
 284:Drivers/lvgl/src/draw/sw/blend/../../../misc/../font/../draw/../misc/lv_color.h ****  * @param c1    the first color
 285:Drivers/lvgl/src/draw/sw/blend/../../../misc/../font/../draw/../misc/lv_color.h ****  * @param c2    the second color
 286:Drivers/lvgl/src/draw/sw/blend/../../../misc/../font/../draw/../misc/lv_color.h ****  * @return      true: equal
 287:Drivers/lvgl/src/draw/sw/blend/../../../misc/../font/../draw/../misc/lv_color.h ****  */
 288:Drivers/lvgl/src/draw/sw/blend/../../../misc/../font/../draw/../misc/lv_color.h **** bool lv_color_eq(lv_color_t c1, lv_color_t c2);
 289:Drivers/lvgl/src/draw/sw/blend/../../../misc/../font/../draw/../misc/lv_color.h **** 
 290:Drivers/lvgl/src/draw/sw/blend/../../../misc/../font/../draw/../misc/lv_color.h **** /**
 291:Drivers/lvgl/src/draw/sw/blend/../../../misc/../font/../draw/../misc/lv_color.h ****  * Check if two ARGB8888 color are equal
 292:Drivers/lvgl/src/draw/sw/blend/../../../misc/../font/../draw/../misc/lv_color.h ****  * @param c1    the first color
 293:Drivers/lvgl/src/draw/sw/blend/../../../misc/../font/../draw/../misc/lv_color.h ****  * @param c2    the second color
 294:Drivers/lvgl/src/draw/sw/blend/../../../misc/../font/../draw/../misc/lv_color.h ****  * @return      true: equal
 295:Drivers/lvgl/src/draw/sw/blend/../../../misc/../font/../draw/../misc/lv_color.h ****  */
 296:Drivers/lvgl/src/draw/sw/blend/../../../misc/../font/../draw/../misc/lv_color.h **** bool lv_color32_eq(lv_color32_t c1, lv_color32_t c2);
 297:Drivers/lvgl/src/draw/sw/blend/../../../misc/../font/../draw/../misc/lv_color.h **** 
 298:Drivers/lvgl/src/draw/sw/blend/../../../misc/../font/../draw/../misc/lv_color.h **** /**
 299:Drivers/lvgl/src/draw/sw/blend/../../../misc/../font/../draw/../misc/lv_color.h ****  * Create a color from 0x000000..0xffffff input
 300:Drivers/lvgl/src/draw/sw/blend/../../../misc/../font/../draw/../misc/lv_color.h ****  * @param c     the hex input
 301:Drivers/lvgl/src/draw/sw/blend/../../../misc/../font/../draw/../misc/lv_color.h ****  * @return      the color
 302:Drivers/lvgl/src/draw/sw/blend/../../../misc/../font/../draw/../misc/lv_color.h ****  */
 303:Drivers/lvgl/src/draw/sw/blend/../../../misc/../font/../draw/../misc/lv_color.h **** lv_color_t lv_color_hex(uint32_t c);
 304:Drivers/lvgl/src/draw/sw/blend/../../../misc/../font/../draw/../misc/lv_color.h **** 
 305:Drivers/lvgl/src/draw/sw/blend/../../../misc/../font/../draw/../misc/lv_color.h **** /**
 306:Drivers/lvgl/src/draw/sw/blend/../../../misc/../font/../draw/../misc/lv_color.h ****  * Create an RGB888 color
 307:Drivers/lvgl/src/draw/sw/blend/../../../misc/../font/../draw/../misc/lv_color.h ****  * @param r     the red channel (0..255)
 308:Drivers/lvgl/src/draw/sw/blend/../../../misc/../font/../draw/../misc/lv_color.h ****  * @param g     the green channel (0..255)
 309:Drivers/lvgl/src/draw/sw/blend/../../../misc/../font/../draw/../misc/lv_color.h ****  * @param b     the blue channel (0..255)
ARM GAS  /var/folders/qx/2_175_4n2s19vhvtspjhb3qh0000gn/T//ccaVas4T.s 			page 64


 310:Drivers/lvgl/src/draw/sw/blend/../../../misc/../font/../draw/../misc/lv_color.h ****  * @return      the color
 311:Drivers/lvgl/src/draw/sw/blend/../../../misc/../font/../draw/../misc/lv_color.h ****  */
 312:Drivers/lvgl/src/draw/sw/blend/../../../misc/../font/../draw/../misc/lv_color.h **** lv_color_t lv_color_make(uint8_t r, uint8_t g, uint8_t b);
 313:Drivers/lvgl/src/draw/sw/blend/../../../misc/../font/../draw/../misc/lv_color.h **** 
 314:Drivers/lvgl/src/draw/sw/blend/../../../misc/../font/../draw/../misc/lv_color.h **** /**
 315:Drivers/lvgl/src/draw/sw/blend/../../../misc/../font/../draw/../misc/lv_color.h ****  * Create an ARGB8888 color
 316:Drivers/lvgl/src/draw/sw/blend/../../../misc/../font/../draw/../misc/lv_color.h ****  * @param r     the red channel (0..255)
 317:Drivers/lvgl/src/draw/sw/blend/../../../misc/../font/../draw/../misc/lv_color.h ****  * @param g     the green channel (0..255)
 318:Drivers/lvgl/src/draw/sw/blend/../../../misc/../font/../draw/../misc/lv_color.h ****  * @param b     the blue channel (0..255)
 319:Drivers/lvgl/src/draw/sw/blend/../../../misc/../font/../draw/../misc/lv_color.h ****  * @param a     the alpha channel (0..255)
 320:Drivers/lvgl/src/draw/sw/blend/../../../misc/../font/../draw/../misc/lv_color.h ****  * @return      the color
 321:Drivers/lvgl/src/draw/sw/blend/../../../misc/../font/../draw/../misc/lv_color.h ****  */
 322:Drivers/lvgl/src/draw/sw/blend/../../../misc/../font/../draw/../misc/lv_color.h **** lv_color32_t lv_color32_make(uint8_t r, uint8_t g, uint8_t b, uint8_t a);
 323:Drivers/lvgl/src/draw/sw/blend/../../../misc/../font/../draw/../misc/lv_color.h **** 
 324:Drivers/lvgl/src/draw/sw/blend/../../../misc/../font/../draw/../misc/lv_color.h **** /**
 325:Drivers/lvgl/src/draw/sw/blend/../../../misc/../font/../draw/../misc/lv_color.h ****  * Create a color from 0x000..0xfff input
 326:Drivers/lvgl/src/draw/sw/blend/../../../misc/../font/../draw/../misc/lv_color.h ****  * @param c     the hex input (e.g. 0x123 will be 0x112233)
 327:Drivers/lvgl/src/draw/sw/blend/../../../misc/../font/../draw/../misc/lv_color.h ****  * @return      the color
 328:Drivers/lvgl/src/draw/sw/blend/../../../misc/../font/../draw/../misc/lv_color.h ****  */
 329:Drivers/lvgl/src/draw/sw/blend/../../../misc/../font/../draw/../misc/lv_color.h **** lv_color_t lv_color_hex3(uint32_t c);
 330:Drivers/lvgl/src/draw/sw/blend/../../../misc/../font/../draw/../misc/lv_color.h **** 
 331:Drivers/lvgl/src/draw/sw/blend/../../../misc/../font/../draw/../misc/lv_color.h **** /**
 332:Drivers/lvgl/src/draw/sw/blend/../../../misc/../font/../draw/../misc/lv_color.h ****  * Check if a color with an RGB888 color is within the color range defined by l_color and h_color.
 333:Drivers/lvgl/src/draw/sw/blend/../../../misc/../font/../draw/../misc/lv_color.h ****  * @param color   the color to check
 334:Drivers/lvgl/src/draw/sw/blend/../../../misc/../font/../draw/../misc/lv_color.h ****  * @param l_color the lower bound color
 335:Drivers/lvgl/src/draw/sw/blend/../../../misc/../font/../draw/../misc/lv_color.h ****  * @param h_color the upper bound color
 336:Drivers/lvgl/src/draw/sw/blend/../../../misc/../font/../draw/../misc/lv_color.h ****  * @return        true: pixel is within the color range
 337:Drivers/lvgl/src/draw/sw/blend/../../../misc/../font/../draw/../misc/lv_color.h ****  */
 338:Drivers/lvgl/src/draw/sw/blend/../../../misc/../font/../draw/../misc/lv_color.h **** static inline bool lv_color_is_in_range(lv_color_t color, lv_color_t l_color, lv_color_t h_color)
 339:Drivers/lvgl/src/draw/sw/blend/../../../misc/../font/../draw/../misc/lv_color.h **** {
 340:Drivers/lvgl/src/draw/sw/blend/../../../misc/../font/../draw/../misc/lv_color.h ****     return (color.red <= h_color.red &&
 341:Drivers/lvgl/src/draw/sw/blend/../../../misc/../font/../draw/../misc/lv_color.h ****             color.green <= h_color.green &&
 342:Drivers/lvgl/src/draw/sw/blend/../../../misc/../font/../draw/../misc/lv_color.h ****             color.blue <= h_color.blue &&
 343:Drivers/lvgl/src/draw/sw/blend/../../../misc/../font/../draw/../misc/lv_color.h ****             color.red >= l_color.red &&
 344:Drivers/lvgl/src/draw/sw/blend/../../../misc/../font/../draw/../misc/lv_color.h ****             color.green >= l_color.green &&
 345:Drivers/lvgl/src/draw/sw/blend/../../../misc/../font/../draw/../misc/lv_color.h ****             color.blue >= l_color.blue);
 346:Drivers/lvgl/src/draw/sw/blend/../../../misc/../font/../draw/../misc/lv_color.h **** }
 347:Drivers/lvgl/src/draw/sw/blend/../../../misc/../font/../draw/../misc/lv_color.h **** 
 348:Drivers/lvgl/src/draw/sw/blend/../../../misc/../font/../draw/../misc/lv_color.h **** /**
 349:Drivers/lvgl/src/draw/sw/blend/../../../misc/../font/../draw/../misc/lv_color.h ****  * Convert a RGB565 color to RGB888
 350:Drivers/lvgl/src/draw/sw/blend/../../../misc/../font/../draw/../misc/lv_color.h ****  * @param c       a RGB565 color on lv_color16_t
 351:Drivers/lvgl/src/draw/sw/blend/../../../misc/../font/../draw/../misc/lv_color.h ****  * @return        the color
 352:Drivers/lvgl/src/draw/sw/blend/../../../misc/../font/../draw/../misc/lv_color.h ****  */
 353:Drivers/lvgl/src/draw/sw/blend/../../../misc/../font/../draw/../misc/lv_color.h **** static inline lv_color_t lv_color16_to_color(lv_color16_t c)
 354:Drivers/lvgl/src/draw/sw/blend/../../../misc/../font/../draw/../misc/lv_color.h **** {
 355:Drivers/lvgl/src/draw/sw/blend/../../../misc/../font/../draw/../misc/lv_color.h ****     return lv_color_make(c.red << 3, c.green << 2, c.blue << 3);
 356:Drivers/lvgl/src/draw/sw/blend/../../../misc/../font/../draw/../misc/lv_color.h **** }
 357:Drivers/lvgl/src/draw/sw/blend/../../../misc/../font/../draw/../misc/lv_color.h **** 
 358:Drivers/lvgl/src/draw/sw/blend/../../../misc/../font/../draw/../misc/lv_color.h **** /**
 359:Drivers/lvgl/src/draw/sw/blend/../../../misc/../font/../draw/../misc/lv_color.h ****  * Convert am RGB888 color to RGB565 stored in `uint16_t`
 360:Drivers/lvgl/src/draw/sw/blend/../../../misc/../font/../draw/../misc/lv_color.h ****  * @param color     and RGB888 color
 361:Drivers/lvgl/src/draw/sw/blend/../../../misc/../font/../draw/../misc/lv_color.h ****  * @return          `color` as RGB565 on `uin16_t`
 362:Drivers/lvgl/src/draw/sw/blend/../../../misc/../font/../draw/../misc/lv_color.h ****  */
 363:Drivers/lvgl/src/draw/sw/blend/../../../misc/../font/../draw/../misc/lv_color.h **** uint16_t lv_color_to_u16(lv_color_t color);
 364:Drivers/lvgl/src/draw/sw/blend/../../../misc/../font/../draw/../misc/lv_color.h **** 
 365:Drivers/lvgl/src/draw/sw/blend/../../../misc/../font/../draw/../misc/lv_color.h **** /**
 366:Drivers/lvgl/src/draw/sw/blend/../../../misc/../font/../draw/../misc/lv_color.h ****  * Convert am RGB888 color to XRGB8888 stored in `uint32_t`
ARM GAS  /var/folders/qx/2_175_4n2s19vhvtspjhb3qh0000gn/T//ccaVas4T.s 			page 65


 367:Drivers/lvgl/src/draw/sw/blend/../../../misc/../font/../draw/../misc/lv_color.h ****  * @param color     and RGB888 color
 368:Drivers/lvgl/src/draw/sw/blend/../../../misc/../font/../draw/../misc/lv_color.h ****  * @return          `color` as XRGB8888 on `uin32_t` (the alpha channel is always set to 0xFF)
 369:Drivers/lvgl/src/draw/sw/blend/../../../misc/../font/../draw/../misc/lv_color.h ****  */
 370:Drivers/lvgl/src/draw/sw/blend/../../../misc/../font/../draw/../misc/lv_color.h **** uint32_t lv_color_to_u32(lv_color_t color);
 371:Drivers/lvgl/src/draw/sw/blend/../../../misc/../font/../draw/../misc/lv_color.h **** 
 372:Drivers/lvgl/src/draw/sw/blend/../../../misc/../font/../draw/../misc/lv_color.h **** /**
 373:Drivers/lvgl/src/draw/sw/blend/../../../misc/../font/../draw/../misc/lv_color.h ****  * Mix two RGB565 colors
 374:Drivers/lvgl/src/draw/sw/blend/../../../misc/../font/../draw/../misc/lv_color.h ****  * @param c1        the first color (typically the foreground color)
 375:Drivers/lvgl/src/draw/sw/blend/../../../misc/../font/../draw/../misc/lv_color.h ****  * @param c2        the second color  (typically the background color)
 376:Drivers/lvgl/src/draw/sw/blend/../../../misc/../font/../draw/../misc/lv_color.h ****  * @param mix       0..255, or LV_OPA_0/10/20...
 377:Drivers/lvgl/src/draw/sw/blend/../../../misc/../font/../draw/../misc/lv_color.h ****  * @return          mix == 0: c2
 378:Drivers/lvgl/src/draw/sw/blend/../../../misc/../font/../draw/../misc/lv_color.h ****  *                  mix == 255: c1
 379:Drivers/lvgl/src/draw/sw/blend/../../../misc/../font/../draw/../misc/lv_color.h ****  *                  mix == 128: 0.5 x c1 + 0.5 x c2
 380:Drivers/lvgl/src/draw/sw/blend/../../../misc/../font/../draw/../misc/lv_color.h ****  */
 381:Drivers/lvgl/src/draw/sw/blend/../../../misc/../font/../draw/../misc/lv_color.h **** uint16_t LV_ATTRIBUTE_FAST_MEM lv_color_16_16_mix(uint16_t c1, uint16_t c2, uint8_t mix);
 382:Drivers/lvgl/src/draw/sw/blend/../../../misc/../font/../draw/../misc/lv_color.h **** 
 383:Drivers/lvgl/src/draw/sw/blend/../../../misc/../font/../draw/../misc/lv_color.h **** /**
 384:Drivers/lvgl/src/draw/sw/blend/../../../misc/../font/../draw/../misc/lv_color.h ****  * Mix white to a color
 385:Drivers/lvgl/src/draw/sw/blend/../../../misc/../font/../draw/../misc/lv_color.h ****  * @param c     the base color
 386:Drivers/lvgl/src/draw/sw/blend/../../../misc/../font/../draw/../misc/lv_color.h ****  * @param lvl   the intensity of white (0: no change, 255: fully white)
 387:Drivers/lvgl/src/draw/sw/blend/../../../misc/../font/../draw/../misc/lv_color.h ****  * @return      the mixed color
 388:Drivers/lvgl/src/draw/sw/blend/../../../misc/../font/../draw/../misc/lv_color.h ****  */
 389:Drivers/lvgl/src/draw/sw/blend/../../../misc/../font/../draw/../misc/lv_color.h **** lv_color_t lv_color_lighten(lv_color_t c, lv_opa_t lvl);
 390:Drivers/lvgl/src/draw/sw/blend/../../../misc/../font/../draw/../misc/lv_color.h **** 
 391:Drivers/lvgl/src/draw/sw/blend/../../../misc/../font/../draw/../misc/lv_color.h **** /**
 392:Drivers/lvgl/src/draw/sw/blend/../../../misc/../font/../draw/../misc/lv_color.h ****  * Mix black to a color
 393:Drivers/lvgl/src/draw/sw/blend/../../../misc/../font/../draw/../misc/lv_color.h ****  * @param c     the base color
 394:Drivers/lvgl/src/draw/sw/blend/../../../misc/../font/../draw/../misc/lv_color.h ****  * @param lvl   the intensity of black (0: no change, 255: fully black)
 395:Drivers/lvgl/src/draw/sw/blend/../../../misc/../font/../draw/../misc/lv_color.h ****  * @return      the mixed color
 396:Drivers/lvgl/src/draw/sw/blend/../../../misc/../font/../draw/../misc/lv_color.h ****  */
 397:Drivers/lvgl/src/draw/sw/blend/../../../misc/../font/../draw/../misc/lv_color.h **** lv_color_t lv_color_darken(lv_color_t c, lv_opa_t lvl);
 398:Drivers/lvgl/src/draw/sw/blend/../../../misc/../font/../draw/../misc/lv_color.h **** 
 399:Drivers/lvgl/src/draw/sw/blend/../../../misc/../font/../draw/../misc/lv_color.h **** /**
 400:Drivers/lvgl/src/draw/sw/blend/../../../misc/../font/../draw/../misc/lv_color.h ****  * Convert a HSV color to RGB
 401:Drivers/lvgl/src/draw/sw/blend/../../../misc/../font/../draw/../misc/lv_color.h ****  * @param h hue [0..359]
 402:Drivers/lvgl/src/draw/sw/blend/../../../misc/../font/../draw/../misc/lv_color.h ****  * @param s saturation [0..100]
 403:Drivers/lvgl/src/draw/sw/blend/../../../misc/../font/../draw/../misc/lv_color.h ****  * @param v value [0..100]
 404:Drivers/lvgl/src/draw/sw/blend/../../../misc/../font/../draw/../misc/lv_color.h ****  * @return the given RGB color in RGB (with LV_COLOR_DEPTH depth)
 405:Drivers/lvgl/src/draw/sw/blend/../../../misc/../font/../draw/../misc/lv_color.h ****  */
 406:Drivers/lvgl/src/draw/sw/blend/../../../misc/../font/../draw/../misc/lv_color.h **** lv_color_t lv_color_hsv_to_rgb(uint16_t h, uint8_t s, uint8_t v);
 407:Drivers/lvgl/src/draw/sw/blend/../../../misc/../font/../draw/../misc/lv_color.h **** 
 408:Drivers/lvgl/src/draw/sw/blend/../../../misc/../font/../draw/../misc/lv_color.h **** /**
 409:Drivers/lvgl/src/draw/sw/blend/../../../misc/../font/../draw/../misc/lv_color.h ****  * Convert a 32-bit RGB color to HSV
 410:Drivers/lvgl/src/draw/sw/blend/../../../misc/../font/../draw/../misc/lv_color.h ****  * @param r8 8-bit red
 411:Drivers/lvgl/src/draw/sw/blend/../../../misc/../font/../draw/../misc/lv_color.h ****  * @param g8 8-bit green
 412:Drivers/lvgl/src/draw/sw/blend/../../../misc/../font/../draw/../misc/lv_color.h ****  * @param b8 8-bit blue
 413:Drivers/lvgl/src/draw/sw/blend/../../../misc/../font/../draw/../misc/lv_color.h ****  * @return the given RGB color in HSV
 414:Drivers/lvgl/src/draw/sw/blend/../../../misc/../font/../draw/../misc/lv_color.h ****  */
 415:Drivers/lvgl/src/draw/sw/blend/../../../misc/../font/../draw/../misc/lv_color.h **** lv_color_hsv_t lv_color_rgb_to_hsv(uint8_t r8, uint8_t g8, uint8_t b8);
 416:Drivers/lvgl/src/draw/sw/blend/../../../misc/../font/../draw/../misc/lv_color.h **** 
 417:Drivers/lvgl/src/draw/sw/blend/../../../misc/../font/../draw/../misc/lv_color.h **** /**
 418:Drivers/lvgl/src/draw/sw/blend/../../../misc/../font/../draw/../misc/lv_color.h ****  * Convert a color to HSV
 419:Drivers/lvgl/src/draw/sw/blend/../../../misc/../font/../draw/../misc/lv_color.h ****  * @param color color
 420:Drivers/lvgl/src/draw/sw/blend/../../../misc/../font/../draw/../misc/lv_color.h ****  * @return the given color in HSV
 421:Drivers/lvgl/src/draw/sw/blend/../../../misc/../font/../draw/../misc/lv_color.h ****  */
 422:Drivers/lvgl/src/draw/sw/blend/../../../misc/../font/../draw/../misc/lv_color.h **** lv_color_hsv_t lv_color_to_hsv(lv_color_t color);
 423:Drivers/lvgl/src/draw/sw/blend/../../../misc/../font/../draw/../misc/lv_color.h **** 
ARM GAS  /var/folders/qx/2_175_4n2s19vhvtspjhb3qh0000gn/T//ccaVas4T.s 			page 66


 424:Drivers/lvgl/src/draw/sw/blend/../../../misc/../font/../draw/../misc/lv_color.h **** /*Source: https://vuetifyjs.com/en/styles/colors/#material-colors*/
 425:Drivers/lvgl/src/draw/sw/blend/../../../misc/../font/../draw/../misc/lv_color.h **** 
 426:Drivers/lvgl/src/draw/sw/blend/../../../misc/../font/../draw/../misc/lv_color.h **** /**
 427:Drivers/lvgl/src/draw/sw/blend/../../../misc/../font/../draw/../misc/lv_color.h ****  * A helper for white color
 428:Drivers/lvgl/src/draw/sw/blend/../../../misc/../font/../draw/../misc/lv_color.h ****  * @return      a white color
 429:Drivers/lvgl/src/draw/sw/blend/../../../misc/../font/../draw/../misc/lv_color.h ****  */
 430:Drivers/lvgl/src/draw/sw/blend/../../../misc/../font/../draw/../misc/lv_color.h **** lv_color_t lv_color_white(void);
 431:Drivers/lvgl/src/draw/sw/blend/../../../misc/../font/../draw/../misc/lv_color.h **** 
 432:Drivers/lvgl/src/draw/sw/blend/../../../misc/../font/../draw/../misc/lv_color.h **** /**
 433:Drivers/lvgl/src/draw/sw/blend/../../../misc/../font/../draw/../misc/lv_color.h ****  * A helper for black color
 434:Drivers/lvgl/src/draw/sw/blend/../../../misc/../font/../draw/../misc/lv_color.h ****  * @return      a black color
 435:Drivers/lvgl/src/draw/sw/blend/../../../misc/../font/../draw/../misc/lv_color.h ****  */
 436:Drivers/lvgl/src/draw/sw/blend/../../../misc/../font/../draw/../misc/lv_color.h **** lv_color_t lv_color_black(void);
 437:Drivers/lvgl/src/draw/sw/blend/../../../misc/../font/../draw/../misc/lv_color.h **** 
 438:Drivers/lvgl/src/draw/sw/blend/../../../misc/../font/../draw/../misc/lv_color.h **** void lv_color_premultiply(lv_color32_t * c);
 439:Drivers/lvgl/src/draw/sw/blend/../../../misc/../font/../draw/../misc/lv_color.h **** 
 440:Drivers/lvgl/src/draw/sw/blend/../../../misc/../font/../draw/../misc/lv_color.h **** void lv_color16_premultiply(lv_color16_t * c, lv_opa_t a);
 441:Drivers/lvgl/src/draw/sw/blend/../../../misc/../font/../draw/../misc/lv_color.h **** 
 442:Drivers/lvgl/src/draw/sw/blend/../../../misc/../font/../draw/../misc/lv_color.h **** /**
 443:Drivers/lvgl/src/draw/sw/blend/../../../misc/../font/../draw/../misc/lv_color.h ****  * Get the luminance of a color: luminance = 0.3 R + 0.59 G + 0.11 B
 444:Drivers/lvgl/src/draw/sw/blend/../../../misc/../font/../draw/../misc/lv_color.h ****  * @param c a color
 445:Drivers/lvgl/src/draw/sw/blend/../../../misc/../font/../draw/../misc/lv_color.h ****  * @return the brightness [0..255]
 446:Drivers/lvgl/src/draw/sw/blend/../../../misc/../font/../draw/../misc/lv_color.h ****  */
 447:Drivers/lvgl/src/draw/sw/blend/../../../misc/../font/../draw/../misc/lv_color.h **** uint8_t lv_color_luminance(lv_color_t c);
 448:Drivers/lvgl/src/draw/sw/blend/../../../misc/../font/../draw/../misc/lv_color.h **** 
 449:Drivers/lvgl/src/draw/sw/blend/../../../misc/../font/../draw/../misc/lv_color.h **** /**
 450:Drivers/lvgl/src/draw/sw/blend/../../../misc/../font/../draw/../misc/lv_color.h ****  * Get the luminance of a color16: luminance = 0.3 R + 0.59 G + 0.11 B
 451:Drivers/lvgl/src/draw/sw/blend/../../../misc/../font/../draw/../misc/lv_color.h ****  * @param c a color
 452:Drivers/lvgl/src/draw/sw/blend/../../../misc/../font/../draw/../misc/lv_color.h ****  * @return the brightness [0..255]
 453:Drivers/lvgl/src/draw/sw/blend/../../../misc/../font/../draw/../misc/lv_color.h ****  */
 454:Drivers/lvgl/src/draw/sw/blend/../../../misc/../font/../draw/../misc/lv_color.h **** uint8_t lv_color16_luminance(const lv_color16_t c);
 455:Drivers/lvgl/src/draw/sw/blend/../../../misc/../font/../draw/../misc/lv_color.h **** 
 456:Drivers/lvgl/src/draw/sw/blend/../../../misc/../font/../draw/../misc/lv_color.h **** /**
 457:Drivers/lvgl/src/draw/sw/blend/../../../misc/../font/../draw/../misc/lv_color.h ****  * Get the luminance of a color24: luminance = 0.3 R + 0.59 G + 0.11 B
 458:Drivers/lvgl/src/draw/sw/blend/../../../misc/../font/../draw/../misc/lv_color.h ****  * @param c a color
 459:Drivers/lvgl/src/draw/sw/blend/../../../misc/../font/../draw/../misc/lv_color.h ****  * @return the brightness [0..255]
 460:Drivers/lvgl/src/draw/sw/blend/../../../misc/../font/../draw/../misc/lv_color.h ****  */
 461:Drivers/lvgl/src/draw/sw/blend/../../../misc/../font/../draw/../misc/lv_color.h **** uint8_t lv_color24_luminance(const uint8_t * c);
 462:Drivers/lvgl/src/draw/sw/blend/../../../misc/../font/../draw/../misc/lv_color.h **** 
 463:Drivers/lvgl/src/draw/sw/blend/../../../misc/../font/../draw/../misc/lv_color.h **** /**
 464:Drivers/lvgl/src/draw/sw/blend/../../../misc/../font/../draw/../misc/lv_color.h ****  * Get the luminance of a color32: luminance = 0.3 R + 0.59 G + 0.11 B
 465:Drivers/lvgl/src/draw/sw/blend/../../../misc/../font/../draw/../misc/lv_color.h ****  * @param c a color
 466:Drivers/lvgl/src/draw/sw/blend/../../../misc/../font/../draw/../misc/lv_color.h ****  * @return the brightness [0..255]
 467:Drivers/lvgl/src/draw/sw/blend/../../../misc/../font/../draw/../misc/lv_color.h ****  */
 468:Drivers/lvgl/src/draw/sw/blend/../../../misc/../font/../draw/../misc/lv_color.h **** uint8_t lv_color32_luminance(lv_color32_t c);
 469:Drivers/lvgl/src/draw/sw/blend/../../../misc/../font/../draw/../misc/lv_color.h **** 
 470:Drivers/lvgl/src/draw/sw/blend/../../../misc/../font/../draw/../misc/lv_color.h **** 
 471:Drivers/lvgl/src/draw/sw/blend/../../../misc/../font/../draw/../misc/lv_color.h **** /**
 472:Drivers/lvgl/src/draw/sw/blend/../../../misc/../font/../draw/../misc/lv_color.h ****  * Swap the endianness of an rgb565 color
 473:Drivers/lvgl/src/draw/sw/blend/../../../misc/../font/../draw/../misc/lv_color.h ****  * @param c a color
 474:Drivers/lvgl/src/draw/sw/blend/../../../misc/../font/../draw/../misc/lv_color.h ****  * @return the swapped color
 475:Drivers/lvgl/src/draw/sw/blend/../../../misc/../font/../draw/../misc/lv_color.h ****  */
 476:Drivers/lvgl/src/draw/sw/blend/../../../misc/../font/../draw/../misc/lv_color.h **** static inline uint16_t LV_ATTRIBUTE_FAST_MEM lv_color_swap_16(uint16_t c)
 1584              		.loc 2 476 46 is_stmt 1 view .LVU495
 1585              	.LBB520:
 477:Drivers/lvgl/src/draw/sw/blend/../../../misc/../font/../draw/../misc/lv_color.h **** {
 478:Drivers/lvgl/src/draw/sw/blend/../../../misc/../font/../draw/../misc/lv_color.h ****     return (c >> 8) | (c << 8);
ARM GAS  /var/folders/qx/2_175_4n2s19vhvtspjhb3qh0000gn/T//ccaVas4T.s 			page 67


 1586              		.loc 2 478 5 view .LVU496
 1587              		.loc 2 478 21 is_stmt 0 view .LVU497
 1588 00f0 5BBA     		rev16	r3, r3
 1589              	.LVL177:
 1590              		.loc 2 478 21 view .LVU498
 1591              	.LBE520:
 1592              	.LBE519:
 1593              	.LBB521:
 1594              	.LBI521:
1274:Drivers/lvgl/src/draw/sw/blend/lv_draw_sw_blend_to_i1.c **** }
1275:Drivers/lvgl/src/draw/sw/blend/lv_draw_sw_blend_to_i1.c **** 
1276:Drivers/lvgl/src/draw/sw/blend/lv_draw_sw_blend_to_i1.c **** #if LV_DRAW_SW_SUPPORT_RGB565_SWAPPED
1277:Drivers/lvgl/src/draw/sw/blend/lv_draw_sw_blend_to_i1.c **** static inline lv_color16_t LV_ATTRIBUTE_FAST_MEM lv_color16_from_u16(uint16_t raw)
 1595              		.loc 1 1277 50 is_stmt 1 view .LVU499
 1596              	.LBB522:
1278:Drivers/lvgl/src/draw/sw/blend/lv_draw_sw_blend_to_i1.c **** {
1279:Drivers/lvgl/src/draw/sw/blend/lv_draw_sw_blend_to_i1.c ****     lv_color16_t c;
 1597              		.loc 1 1279 5 view .LVU500
1280:Drivers/lvgl/src/draw/sw/blend/lv_draw_sw_blend_to_i1.c ****     c.red = (raw >> 11) & 0x1F;
 1598              		.loc 1 1280 5 view .LVU501
 1599              		.loc 1 1280 25 is_stmt 0 view .LVU502
 1600 00f2 C3F3C422 		ubfx	r2, r3, #11, #5
 1601              		.loc 1 1280 11 view .LVU503
 1602 00f6 62F3CF24 		bfi	r4, r2, #11, #5
1281:Drivers/lvgl/src/draw/sw/blend/lv_draw_sw_blend_to_i1.c ****     c.green = (raw >> 5) & 0x3F;
 1603              		.loc 1 1281 5 is_stmt 1 view .LVU504
 1604              		.loc 1 1281 26 is_stmt 0 view .LVU505
 1605 00fa C3F34512 		ubfx	r2, r3, #5, #6
 1606              		.loc 1 1281 13 view .LVU506
 1607 00fe 62F34A14 		bfi	r4, r2, #5, #6
1282:Drivers/lvgl/src/draw/sw/blend/lv_draw_sw_blend_to_i1.c ****     c.blue = raw & 0x1F;
 1608              		.loc 1 1282 5 is_stmt 1 view .LVU507
 1609              		.loc 1 1282 12 is_stmt 0 view .LVU508
 1610 0102 63F30404 		bfi	r4, r3, #0, #5
1283:Drivers/lvgl/src/draw/sw/blend/lv_draw_sw_blend_to_i1.c ****     return c;
 1611              		.loc 1 1283 5 is_stmt 1 view .LVU509
 1612              	.LVL178:
 1613              		.loc 1 1283 5 is_stmt 0 view .LVU510
 1614              	.LBE522:
 1615              	.LBE521:
1110:Drivers/lvgl/src/draw/sw/blend/lv_draw_sw_blend_to_i1.c ****                         if(src > I1_LUM_THRESHOLD) {
 1616              		.loc 1 1110 25 is_stmt 1 view .LVU511
1110:Drivers/lvgl/src/draw/sw/blend/lv_draw_sw_blend_to_i1.c ****                         if(src > I1_LUM_THRESHOLD) {
 1617              		.loc 1 1110 39 is_stmt 0 view .LVU512
 1618 0106 2046     		mov	r0, r4	@ movhi
 1619 0108 FFF7FEFF 		bl	lv_color16_luminance
 1620              	.LVL179:
1111:Drivers/lvgl/src/draw/sw/blend/lv_draw_sw_blend_to_i1.c ****                             set_bit(dest_buf_u8, dest_x + bit_ofs);
 1621              		.loc 1 1111 25 is_stmt 1 view .LVU513
1111:Drivers/lvgl/src/draw/sw/blend/lv_draw_sw_blend_to_i1.c ****                             set_bit(dest_buf_u8, dest_x + bit_ofs);
 1622              		.loc 1 1111 27 is_stmt 0 view .LVU514
 1623 010c 10F0800F 		tst	r0, #128
 1624 0110 BED1     		bne	.L128
1115:Drivers/lvgl/src/draw/sw/blend/lv_draw_sw_blend_to_i1.c ****                         }
 1625              		.loc 1 1115 29 is_stmt 1 view .LVU515
 1626 0112 07EB0B03 		add	r3, r7, fp
 1627              	.LVL180:
ARM GAS  /var/folders/qx/2_175_4n2s19vhvtspjhb3qh0000gn/T//ccaVas4T.s 			page 68


 1628              	.LBB523:
 1629              	.LBI516:
1266:Drivers/lvgl/src/draw/sw/blend/lv_draw_sw_blend_to_i1.c **** {
 1630              		.loc 1 1266 42 view .LVU516
 1631              	.LBB518:
1268:Drivers/lvgl/src/draw/sw/blend/lv_draw_sw_blend_to_i1.c **** }
 1632              		.loc 1 1268 5 view .LVU517
1268:Drivers/lvgl/src/draw/sw/blend/lv_draw_sw_blend_to_i1.c **** }
 1633              		.loc 1 1268 17 is_stmt 0 view .LVU518
 1634 0116 1A46     		mov	r2, r3
 1635 0118 002B     		cmp	r3, #0
 1636 011a D1DA     		bge	.L87
1268:Drivers/lvgl/src/draw/sw/blend/lv_draw_sw_blend_to_i1.c **** }
 1637              		.loc 1 1268 17 view .LVU519
 1638 011c DA1D     		adds	r2, r3, #7
 1639 011e CFE7     		b	.L87
 1640              	.LVL181:
 1641              	.L127:
1268:Drivers/lvgl/src/draw/sw/blend/lv_draw_sw_blend_to_i1.c **** }
 1642              		.loc 1 1268 17 view .LVU520
 1643              	.LBE518:
 1644              	.LBE523:
 1645              	.LBE524:
1118:Drivers/lvgl/src/draw/sw/blend/lv_draw_sw_blend_to_i1.c ****                     src_buf_u16 = drawbuf_next_row(src_buf_u16, src_stride);
 1646              		.loc 1 1118 21 is_stmt 1 view .LVU521
 1647              	.LBB525:
 1648              	.LBI525:
1256:Drivers/lvgl/src/draw/sw/blend/lv_draw_sw_blend_to_i1.c **** {
 1649              		.loc 1 1256 44 view .LVU522
 1650              	.LBB526:
1258:Drivers/lvgl/src/draw/sw/blend/lv_draw_sw_blend_to_i1.c **** }
 1651              		.loc 1 1258 5 view .LVU523
1258:Drivers/lvgl/src/draw/sw/blend/lv_draw_sw_blend_to_i1.c **** }
 1652              		.loc 1 1258 12 is_stmt 0 view .LVU524
 1653 0120 059B     		ldr	r3, [sp, #20]
 1654 0122 1D44     		add	r5, r5, r3
 1655              	.LVL182:
1258:Drivers/lvgl/src/draw/sw/blend/lv_draw_sw_blend_to_i1.c **** }
 1656              		.loc 1 1258 12 view .LVU525
 1657              	.LBE526:
 1658              	.LBE525:
1119:Drivers/lvgl/src/draw/sw/blend/lv_draw_sw_blend_to_i1.c ****                 }
 1659              		.loc 1 1119 21 is_stmt 1 view .LVU526
 1660              	.LBB527:
 1661              	.LBI527:
1256:Drivers/lvgl/src/draw/sw/blend/lv_draw_sw_blend_to_i1.c **** {
 1662              		.loc 1 1256 44 view .LVU527
 1663              	.LBB528:
1258:Drivers/lvgl/src/draw/sw/blend/lv_draw_sw_blend_to_i1.c **** }
 1664              		.loc 1 1258 5 view .LVU528
1258:Drivers/lvgl/src/draw/sw/blend/lv_draw_sw_blend_to_i1.c **** }
 1665              		.loc 1 1258 12 is_stmt 0 view .LVU529
 1666 0124 069B     		ldr	r3, [sp, #24]
 1667 0126 9944     		add	r9, r9, r3
 1668              	.LVL183:
1258:Drivers/lvgl/src/draw/sw/blend/lv_draw_sw_blend_to_i1.c **** }
 1669              		.loc 1 1258 12 view .LVU530
ARM GAS  /var/folders/qx/2_175_4n2s19vhvtspjhb3qh0000gn/T//ccaVas4T.s 			page 69


 1670              	.LBE528:
 1671              	.LBE527:
1106:Drivers/lvgl/src/draw/sw/blend/lv_draw_sw_blend_to_i1.c **** 
 1672              		.loc 1 1106 36 is_stmt 1 discriminator 2 view .LVU531
 1673 0128 08F10108 		add	r8, r8, #1
 1674              	.LVL184:
 1675              	.L82:
1106:Drivers/lvgl/src/draw/sw/blend/lv_draw_sw_blend_to_i1.c **** 
 1676              		.loc 1 1106 30 discriminator 1 view .LVU532
 1677 012c 039B     		ldr	r3, [sp, #12]
 1678 012e 9845     		cmp	r8, r3
 1679 0130 80F28881 		bge	.L79
1108:Drivers/lvgl/src/draw/sw/blend/lv_draw_sw_blend_to_i1.c ****                         px = lv_color16_from_u16(lv_color_swap_16(src_buf_u16[src_x]));
 1680              		.loc 1 1108 43 is_stmt 0 view .LVU533
 1681 0134 0027     		movs	r7, #0
1108:Drivers/lvgl/src/draw/sw/blend/lv_draw_sw_blend_to_i1.c ****                         px = lv_color16_from_u16(lv_color_swap_16(src_buf_u16[src_x]));
 1682              		.loc 1 1108 31 view .LVU534
 1683 0136 3E46     		mov	r6, r7
 1684 0138 D6E7     		b	.L89
 1685              	.LVL185:
 1686              	.L115:
1106:Drivers/lvgl/src/draw/sw/blend/lv_draw_sw_blend_to_i1.c **** 
 1687              		.loc 1 1106 23 view .LVU535
 1688 013a 4FF00008 		mov	r8, #0
 1689              	.LVL186:
1106:Drivers/lvgl/src/draw/sw/blend/lv_draw_sw_blend_to_i1.c **** 
 1690              		.loc 1 1106 23 view .LVU536
 1691 013e DDF80490 		ldr	r9, [sp, #4]
 1692 0142 DDF808A0 		ldr	r10, [sp, #8]
 1693 0146 8B46     		mov	fp, r1
 1694 0148 F0E7     		b	.L82
 1695              	.LVL187:
 1696              	.L130:
 1697              	.LBB529:
 1698              	.LBB530:
 1699              	.LBB531:
1273:Drivers/lvgl/src/draw/sw/blend/lv_draw_sw_blend_to_i1.c **** }
 1700              		.loc 1 1273 25 view .LVU537
 1701 014a E71D     		adds	r7, r4, #7
 1702 014c 24E0     		b	.L91
 1703              	.LVL188:
 1704              	.L92:
1273:Drivers/lvgl/src/draw/sw/blend/lv_draw_sw_blend_to_i1.c **** }
 1705              		.loc 1 1273 25 view .LVU538
 1706              	.LBE531:
 1707              	.LBE530:
1135:Drivers/lvgl/src/draw/sw/blend/lv_draw_sw_blend_to_i1.c ****                         }
 1708              		.loc 1 1135 29 is_stmt 1 view .LVU539
 1709              	.LBB533:
 1710              	.LBI533:
1266:Drivers/lvgl/src/draw/sw/blend/lv_draw_sw_blend_to_i1.c **** {
 1711              		.loc 1 1266 42 view .LVU540
 1712              	.LBB534:
1268:Drivers/lvgl/src/draw/sw/blend/lv_draw_sw_blend_to_i1.c **** }
 1713              		.loc 1 1268 5 view .LVU541
1268:Drivers/lvgl/src/draw/sw/blend/lv_draw_sw_blend_to_i1.c **** }
 1714              		.loc 1 1268 8 is_stmt 0 view .LVU542
ARM GAS  /var/folders/qx/2_175_4n2s19vhvtspjhb3qh0000gn/T//ccaVas4T.s 			page 70


 1715 014e 1AF80720 		ldrb	r2, [r10, r7]	@ zero_extendqisi2
1268:Drivers/lvgl/src/draw/sw/blend/lv_draw_sw_blend_to_i1.c **** }
 1716              		.loc 1 1268 29 view .LVU543
 1717 0152 0123     		movs	r3, #1
 1718 0154 A340     		lsls	r3, r3, r4
1268:Drivers/lvgl/src/draw/sw/blend/lv_draw_sw_blend_to_i1.c **** }
 1719              		.loc 1 1268 22 view .LVU544
 1720 0156 DB43     		mvns	r3, r3
 1721 0158 5BB2     		sxtb	r3, r3
 1722 015a 1340     		ands	r3, r3, r2
 1723 015c 0AF80730 		strb	r3, [r10, r7]
 1724              	.LVL189:
 1725              	.L93:
1268:Drivers/lvgl/src/draw/sw/blend/lv_draw_sw_blend_to_i1.c **** }
 1726              		.loc 1 1268 22 view .LVU545
 1727              	.LBE534:
 1728              	.LBE533:
 1729              	.LBE529:
1126:Drivers/lvgl/src/draw/sw/blend/lv_draw_sw_blend_to_i1.c ****                         px = lv_color16_from_u16(lv_color_swap_16(src_buf_u16[src_x]));
 1730              		.loc 1 1126 67 is_stmt 1 discriminator 2 view .LVU546
1126:Drivers/lvgl/src/draw/sw/blend/lv_draw_sw_blend_to_i1.c ****                         px = lv_color16_from_u16(lv_color_swap_16(src_buf_u16[src_x]));
 1731              		.loc 1 1126 65 is_stmt 0 discriminator 2 view .LVU547
 1732 0160 09F10109 		add	r9, r9, #1
 1733              	.LVL190:
1126:Drivers/lvgl/src/draw/sw/blend/lv_draw_sw_blend_to_i1.c ****                         px = lv_color16_from_u16(lv_color_swap_16(src_buf_u16[src_x]));
 1734              		.loc 1 1126 74 discriminator 2 view .LVU548
 1735 0164 08F10108 		add	r8, r8, #1
 1736              	.LVL191:
 1737              	.L95:
1126:Drivers/lvgl/src/draw/sw/blend/lv_draw_sw_blend_to_i1.c ****                         px = lv_color16_from_u16(lv_color_swap_16(src_buf_u16[src_x]));
 1738              		.loc 1 1126 54 is_stmt 1 discriminator 1 view .LVU549
 1739 0168 A845     		cmp	r8, r5
 1740 016a 36DA     		bge	.L129
 1741              	.LBB542:
1127:Drivers/lvgl/src/draw/sw/blend/lv_draw_sw_blend_to_i1.c ****                         uint8_t src = lv_color16_luminance(px);
 1742              		.loc 1 1127 25 view .LVU550
1127:Drivers/lvgl/src/draw/sw/blend/lv_draw_sw_blend_to_i1.c ****                         uint8_t src = lv_color16_luminance(px);
 1743              		.loc 1 1127 30 is_stmt 0 view .LVU551
 1744 016c 3BF81830 		ldrh	r3, [fp, r8, lsl #1]
 1745              	.LVL192:
 1746              	.LBB535:
 1747              	.LBI535:
 476:Drivers/lvgl/src/draw/sw/blend/../../../misc/../font/../draw/../misc/lv_color.h **** {
 1748              		.loc 2 476 46 is_stmt 1 view .LVU552
 1749              	.LBB536:
 1750              		.loc 2 478 5 view .LVU553
 1751              		.loc 2 478 21 is_stmt 0 view .LVU554
 1752 0170 5BBA     		rev16	r3, r3
 1753              	.LVL193:
 1754              		.loc 2 478 21 view .LVU555
 1755              	.LBE536:
 1756              	.LBE535:
 1757              	.LBB537:
 1758              	.LBI537:
1277:Drivers/lvgl/src/draw/sw/blend/lv_draw_sw_blend_to_i1.c **** {
 1759              		.loc 1 1277 50 is_stmt 1 view .LVU556
 1760              	.LBB538:
ARM GAS  /var/folders/qx/2_175_4n2s19vhvtspjhb3qh0000gn/T//ccaVas4T.s 			page 71


1279:Drivers/lvgl/src/draw/sw/blend/lv_draw_sw_blend_to_i1.c ****     c.red = (raw >> 11) & 0x1F;
 1761              		.loc 1 1279 5 view .LVU557
1280:Drivers/lvgl/src/draw/sw/blend/lv_draw_sw_blend_to_i1.c ****     c.green = (raw >> 5) & 0x3F;
 1762              		.loc 1 1280 5 view .LVU558
1280:Drivers/lvgl/src/draw/sw/blend/lv_draw_sw_blend_to_i1.c ****     c.green = (raw >> 5) & 0x3F;
 1763              		.loc 1 1280 25 is_stmt 0 view .LVU559
 1764 0172 C3F3C422 		ubfx	r2, r3, #11, #5
1280:Drivers/lvgl/src/draw/sw/blend/lv_draw_sw_blend_to_i1.c ****     c.green = (raw >> 5) & 0x3F;
 1765              		.loc 1 1280 11 view .LVU560
 1766 0176 62F3CF26 		bfi	r6, r2, #11, #5
1281:Drivers/lvgl/src/draw/sw/blend/lv_draw_sw_blend_to_i1.c ****     c.blue = raw & 0x1F;
 1767              		.loc 1 1281 5 is_stmt 1 view .LVU561
1281:Drivers/lvgl/src/draw/sw/blend/lv_draw_sw_blend_to_i1.c ****     c.blue = raw & 0x1F;
 1768              		.loc 1 1281 26 is_stmt 0 view .LVU562
 1769 017a C3F34512 		ubfx	r2, r3, #5, #6
1281:Drivers/lvgl/src/draw/sw/blend/lv_draw_sw_blend_to_i1.c ****     c.blue = raw & 0x1F;
 1770              		.loc 1 1281 13 view .LVU563
 1771 017e 62F34A16 		bfi	r6, r2, #5, #6
1282:Drivers/lvgl/src/draw/sw/blend/lv_draw_sw_blend_to_i1.c ****     return c;
 1772              		.loc 1 1282 5 is_stmt 1 view .LVU564
1282:Drivers/lvgl/src/draw/sw/blend/lv_draw_sw_blend_to_i1.c ****     return c;
 1773              		.loc 1 1282 12 is_stmt 0 view .LVU565
 1774 0182 63F30406 		bfi	r6, r3, #0, #5
 1775              		.loc 1 1283 5 is_stmt 1 view .LVU566
 1776              	.LVL194:
 1777              		.loc 1 1283 5 is_stmt 0 view .LVU567
 1778              	.LBE538:
 1779              	.LBE537:
1128:Drivers/lvgl/src/draw/sw/blend/lv_draw_sw_blend_to_i1.c ****                         uint8_t dest = get_bit(dest_buf_u8, dest_x + bit_ofs) * 255;
 1780              		.loc 1 1128 25 is_stmt 1 view .LVU568
1128:Drivers/lvgl/src/draw/sw/blend/lv_draw_sw_blend_to_i1.c ****                         uint8_t dest = get_bit(dest_buf_u8, dest_x + bit_ofs) * 255;
 1781              		.loc 1 1128 39 is_stmt 0 view .LVU569
 1782 0186 3046     		mov	r0, r6	@ movhi
 1783 0188 FFF7FEFF 		bl	lv_color16_luminance
 1784              	.LVL195:
1129:Drivers/lvgl/src/draw/sw/blend/lv_draw_sw_blend_to_i1.c ****                         lv_color_8_8_mix(src, &dest, opa);
 1785              		.loc 1 1129 25 is_stmt 1 view .LVU570
1129:Drivers/lvgl/src/draw/sw/blend/lv_draw_sw_blend_to_i1.c ****                         lv_color_8_8_mix(src, &dest, opa);
 1786              		.loc 1 1129 40 is_stmt 0 view .LVU571
 1787 018c 029B     		ldr	r3, [sp, #8]
 1788 018e 09EB0304 		add	r4, r9, r3
 1789              	.LVL196:
 1790              	.LBB539:
 1791              	.LBI530:
1271:Drivers/lvgl/src/draw/sw/blend/lv_draw_sw_blend_to_i1.c **** {
 1792              		.loc 1 1271 45 is_stmt 1 view .LVU572
 1793              	.LBB532:
1273:Drivers/lvgl/src/draw/sw/blend/lv_draw_sw_blend_to_i1.c **** }
 1794              		.loc 1 1273 5 view .LVU573
1273:Drivers/lvgl/src/draw/sw/blend/lv_draw_sw_blend_to_i1.c **** }
 1795              		.loc 1 1273 25 is_stmt 0 view .LVU574
 1796 0192 2746     		mov	r7, r4
 1797 0194 002C     		cmp	r4, #0
 1798 0196 D8DB     		blt	.L130
 1799              	.L91:
1273:Drivers/lvgl/src/draw/sw/blend/lv_draw_sw_blend_to_i1.c **** }
 1800              		.loc 1 1273 25 view .LVU575
ARM GAS  /var/folders/qx/2_175_4n2s19vhvtspjhb3qh0000gn/T//ccaVas4T.s 			page 72


 1801 0198 FF10     		asrs	r7, r7, #3
1273:Drivers/lvgl/src/draw/sw/blend/lv_draw_sw_blend_to_i1.c **** }
 1802              		.loc 1 1273 16 view .LVU576
 1803 019a 1AF80730 		ldrb	r3, [r10, r7]	@ zero_extendqisi2
1273:Drivers/lvgl/src/draw/sw/blend/lv_draw_sw_blend_to_i1.c **** }
 1804              		.loc 1 1273 47 view .LVU577
 1805 019e 6242     		rsbs	r2, r4, #0
 1806 01a0 04F00704 		and	r4, r4, #7
 1807              	.LVL197:
1273:Drivers/lvgl/src/draw/sw/blend/lv_draw_sw_blend_to_i1.c **** }
 1808              		.loc 1 1273 47 view .LVU578
 1809 01a4 02F00702 		and	r2, r2, #7
 1810 01a8 58BF     		it	pl
 1811 01aa 5442     		rsbpl	r4, r2, #0
1273:Drivers/lvgl/src/draw/sw/blend/lv_draw_sw_blend_to_i1.c **** }
 1812              		.loc 1 1273 36 view .LVU579
 1813 01ac C4F10704 		rsb	r4, r4, #7
1273:Drivers/lvgl/src/draw/sw/blend/lv_draw_sw_blend_to_i1.c **** }
 1814              		.loc 1 1273 30 view .LVU580
 1815 01b0 2341     		asrs	r3, r3, r4
 1816              	.LVL198:
1273:Drivers/lvgl/src/draw/sw/blend/lv_draw_sw_blend_to_i1.c **** }
 1817              		.loc 1 1273 30 view .LVU581
 1818              	.LBE532:
 1819              	.LBE539:
1129:Drivers/lvgl/src/draw/sw/blend/lv_draw_sw_blend_to_i1.c ****                         lv_color_8_8_mix(src, &dest, opa);
 1820              		.loc 1 1129 33 discriminator 1 view .LVU582
 1821 01b2 43F30003 		sbfx	r3, r3, #0, #1
 1822 01b6 8DF82C30 		strb	r3, [sp, #44]
1130:Drivers/lvgl/src/draw/sw/blend/lv_draw_sw_blend_to_i1.c ****                         if(dest > I1_LUM_THRESHOLD) {
 1823              		.loc 1 1130 25 is_stmt 1 view .LVU583
 1824 01ba 019A     		ldr	r2, [sp, #4]
 1825 01bc 0BA9     		add	r1, sp, #44
 1826 01be FFF7FEFF 		bl	lv_color_8_8_mix
 1827              	.LVL199:
1131:Drivers/lvgl/src/draw/sw/blend/lv_draw_sw_blend_to_i1.c ****                             set_bit(dest_buf_u8, dest_x  + bit_ofs);
 1828              		.loc 1 1131 25 view .LVU584
1131:Drivers/lvgl/src/draw/sw/blend/lv_draw_sw_blend_to_i1.c ****                             set_bit(dest_buf_u8, dest_x  + bit_ofs);
 1829              		.loc 1 1131 33 is_stmt 0 view .LVU585
 1830 01c2 9DF92C30 		ldrsb	r3, [sp, #44]
1131:Drivers/lvgl/src/draw/sw/blend/lv_draw_sw_blend_to_i1.c ****                             set_bit(dest_buf_u8, dest_x  + bit_ofs);
 1831              		.loc 1 1131 27 view .LVU586
 1832 01c6 002B     		cmp	r3, #0
 1833 01c8 C1DA     		bge	.L92
1132:Drivers/lvgl/src/draw/sw/blend/lv_draw_sw_blend_to_i1.c ****                         }
 1834              		.loc 1 1132 29 is_stmt 1 view .LVU587
 1835              	.LVL200:
 1836              	.LBB540:
 1837              	.LBI540:
1261:Drivers/lvgl/src/draw/sw/blend/lv_draw_sw_blend_to_i1.c **** {
 1838              		.loc 1 1261 42 view .LVU588
 1839              	.LBB541:
1263:Drivers/lvgl/src/draw/sw/blend/lv_draw_sw_blend_to_i1.c **** }
 1840              		.loc 1 1263 5 view .LVU589
1263:Drivers/lvgl/src/draw/sw/blend/lv_draw_sw_blend_to_i1.c **** }
 1841              		.loc 1 1263 8 is_stmt 0 view .LVU590
 1842 01ca 1AF80730 		ldrb	r3, [r10, r7]	@ zero_extendqisi2
ARM GAS  /var/folders/qx/2_175_4n2s19vhvtspjhb3qh0000gn/T//ccaVas4T.s 			page 73


1263:Drivers/lvgl/src/draw/sw/blend/lv_draw_sw_blend_to_i1.c **** }
 1843              		.loc 1 1263 28 view .LVU591
 1844 01ce 0122     		movs	r2, #1
 1845 01d0 A240     		lsls	r2, r2, r4
1263:Drivers/lvgl/src/draw/sw/blend/lv_draw_sw_blend_to_i1.c **** }
 1846              		.loc 1 1263 22 view .LVU592
 1847 01d2 1343     		orrs	r3, r3, r2
 1848 01d4 0AF80730 		strb	r3, [r10, r7]
 1849              	.LVL201:
1264:Drivers/lvgl/src/draw/sw/blend/lv_draw_sw_blend_to_i1.c **** 
 1850              		.loc 1 1264 1 view .LVU593
 1851 01d8 C2E7     		b	.L93
 1852              	.LVL202:
 1853              	.L129:
1264:Drivers/lvgl/src/draw/sw/blend/lv_draw_sw_blend_to_i1.c **** 
 1854              		.loc 1 1264 1 view .LVU594
 1855              	.LBE541:
 1856              	.LBE540:
 1857              	.LBE542:
 1858              	.LBB543:
 1859              	.LBB544:
1258:Drivers/lvgl/src/draw/sw/blend/lv_draw_sw_blend_to_i1.c **** }
 1860              		.loc 1 1258 12 view .LVU595
 1861 01da 049F     		ldr	r7, [sp, #16]
 1862              	.LBE544:
 1863              	.LBE543:
1138:Drivers/lvgl/src/draw/sw/blend/lv_draw_sw_blend_to_i1.c ****                     src_buf_u16 = drawbuf_next_row(src_buf_u16, src_stride);
 1864              		.loc 1 1138 21 is_stmt 1 view .LVU596
 1865              	.LVL203:
 1866              	.LBB546:
 1867              	.LBI543:
1256:Drivers/lvgl/src/draw/sw/blend/lv_draw_sw_blend_to_i1.c **** {
 1868              		.loc 1 1256 44 view .LVU597
 1869              	.LBB545:
1258:Drivers/lvgl/src/draw/sw/blend/lv_draw_sw_blend_to_i1.c **** }
 1870              		.loc 1 1258 5 view .LVU598
1258:Drivers/lvgl/src/draw/sw/blend/lv_draw_sw_blend_to_i1.c **** }
 1871              		.loc 1 1258 12 is_stmt 0 view .LVU599
 1872 01dc 059B     		ldr	r3, [sp, #20]
 1873 01de 9A44     		add	r10, r10, r3
 1874              	.LVL204:
1258:Drivers/lvgl/src/draw/sw/blend/lv_draw_sw_blend_to_i1.c **** }
 1875              		.loc 1 1258 12 view .LVU600
 1876              	.LBE545:
 1877              	.LBE546:
1139:Drivers/lvgl/src/draw/sw/blend/lv_draw_sw_blend_to_i1.c ****                 }
 1878              		.loc 1 1139 21 is_stmt 1 view .LVU601
 1879              	.LBB547:
 1880              	.LBI547:
1256:Drivers/lvgl/src/draw/sw/blend/lv_draw_sw_blend_to_i1.c **** {
 1881              		.loc 1 1256 44 view .LVU602
 1882              	.LBB548:
1258:Drivers/lvgl/src/draw/sw/blend/lv_draw_sw_blend_to_i1.c **** }
 1883              		.loc 1 1258 5 view .LVU603
1258:Drivers/lvgl/src/draw/sw/blend/lv_draw_sw_blend_to_i1.c **** }
 1884              		.loc 1 1258 12 is_stmt 0 view .LVU604
 1885 01e0 069B     		ldr	r3, [sp, #24]
ARM GAS  /var/folders/qx/2_175_4n2s19vhvtspjhb3qh0000gn/T//ccaVas4T.s 			page 74


 1886 01e2 9B44     		add	fp, fp, r3
 1887              	.LVL205:
1258:Drivers/lvgl/src/draw/sw/blend/lv_draw_sw_blend_to_i1.c **** }
 1888              		.loc 1 1258 12 view .LVU605
 1889              	.LBE548:
 1890              	.LBE547:
1125:Drivers/lvgl/src/draw/sw/blend/lv_draw_sw_blend_to_i1.c ****                     for(src_x = 0, dest_x = 0; src_x < w; dest_x++, src_x++) {
 1891              		.loc 1 1125 36 is_stmt 1 discriminator 2 view .LVU606
 1892 01e4 0137     		adds	r7, r7, #1
 1893              	.LVL206:
 1894              	.L83:
1125:Drivers/lvgl/src/draw/sw/blend/lv_draw_sw_blend_to_i1.c ****                     for(src_x = 0, dest_x = 0; src_x < w; dest_x++, src_x++) {
 1895              		.loc 1 1125 30 discriminator 1 view .LVU607
 1896 01e6 039B     		ldr	r3, [sp, #12]
 1897 01e8 9F42     		cmp	r7, r3
 1898 01ea 80F22B81 		bge	.L79
1126:Drivers/lvgl/src/draw/sw/blend/lv_draw_sw_blend_to_i1.c ****                         px = lv_color16_from_u16(lv_color_swap_16(src_buf_u16[src_x]));
 1899              		.loc 1 1126 43 is_stmt 0 view .LVU608
 1900 01ee 4FF00009 		mov	r9, #0
1126:Drivers/lvgl/src/draw/sw/blend/lv_draw_sw_blend_to_i1.c ****                         px = lv_color16_from_u16(lv_color_swap_16(src_buf_u16[src_x]));
 1901              		.loc 1 1126 31 view .LVU609
 1902 01f2 C846     		mov	r8, r9
 1903 01f4 0497     		str	r7, [sp, #16]
 1904 01f6 B7E7     		b	.L95
 1905              	.LVL207:
 1906              	.L132:
 1907              	.LBB549:
 1908              	.LBB550:
 1909              	.LBB551:
 1910              	.LBB552:
1273:Drivers/lvgl/src/draw/sw/blend/lv_draw_sw_blend_to_i1.c **** }
 1911              		.loc 1 1273 25 view .LVU610
 1912 01f8 E61D     		adds	r6, r4, #7
 1913 01fa 24E0     		b	.L98
 1914              	.LVL208:
 1915              	.L133:
1273:Drivers/lvgl/src/draw/sw/blend/lv_draw_sw_blend_to_i1.c **** }
 1916              		.loc 1 1273 25 view .LVU611
 1917              	.LBE552:
 1918              	.LBE551:
1153:Drivers/lvgl/src/draw/sw/blend/lv_draw_sw_blend_to_i1.c ****                         }
 1919              		.loc 1 1153 29 is_stmt 1 view .LVU612
 1920              	.LBB554:
 1921              	.LBI554:
1261:Drivers/lvgl/src/draw/sw/blend/lv_draw_sw_blend_to_i1.c **** {
 1922              		.loc 1 1261 42 view .LVU613
 1923              	.LBB555:
1263:Drivers/lvgl/src/draw/sw/blend/lv_draw_sw_blend_to_i1.c **** }
 1924              		.loc 1 1263 5 view .LVU614
1263:Drivers/lvgl/src/draw/sw/blend/lv_draw_sw_blend_to_i1.c **** }
 1925              		.loc 1 1263 8 is_stmt 0 view .LVU615
 1926 01fc 18F80630 		ldrb	r3, [r8, r6]	@ zero_extendqisi2
1263:Drivers/lvgl/src/draw/sw/blend/lv_draw_sw_blend_to_i1.c **** }
 1927              		.loc 1 1263 28 view .LVU616
 1928 0200 0122     		movs	r2, #1
 1929 0202 A240     		lsls	r2, r2, r4
1263:Drivers/lvgl/src/draw/sw/blend/lv_draw_sw_blend_to_i1.c **** }
ARM GAS  /var/folders/qx/2_175_4n2s19vhvtspjhb3qh0000gn/T//ccaVas4T.s 			page 75


 1930              		.loc 1 1263 22 view .LVU617
 1931 0204 1343     		orrs	r3, r3, r2
 1932 0206 08F80630 		strb	r3, [r8, r6]
 1933              	.LVL209:
 1934              	.L100:
1263:Drivers/lvgl/src/draw/sw/blend/lv_draw_sw_blend_to_i1.c **** }
 1935              		.loc 1 1263 22 view .LVU618
 1936              	.LBE555:
 1937              	.LBE554:
 1938              	.LBE550:
1147:Drivers/lvgl/src/draw/sw/blend/lv_draw_sw_blend_to_i1.c ****                         px = lv_color16_from_u16(lv_color_swap_16(src_buf_u16[src_x]));
 1939              		.loc 1 1147 90 is_stmt 1 discriminator 2 view .LVU619
1147:Drivers/lvgl/src/draw/sw/blend/lv_draw_sw_blend_to_i1.c ****                         px = lv_color16_from_u16(lv_color_swap_16(src_buf_u16[src_x]));
 1940              		.loc 1 1147 78 is_stmt 0 discriminator 2 view .LVU620
 1941 020a 0AF1010A 		add	r10, r10, #1
 1942              	.LVL210:
1147:Drivers/lvgl/src/draw/sw/blend/lv_draw_sw_blend_to_i1.c ****                         px = lv_color16_from_u16(lv_color_swap_16(src_buf_u16[src_x]));
 1943              		.loc 1 1147 88 discriminator 2 view .LVU621
 1944 020e 0137     		adds	r7, r7, #1
 1945              	.LVL211:
1147:Drivers/lvgl/src/draw/sw/blend/lv_draw_sw_blend_to_i1.c ****                         px = lv_color16_from_u16(lv_color_swap_16(src_buf_u16[src_x]));
 1946              		.loc 1 1147 97 discriminator 2 view .LVU622
 1947 0210 0BF1010B 		add	fp, fp, #1
 1948              	.LVL212:
 1949              	.L102:
1147:Drivers/lvgl/src/draw/sw/blend/lv_draw_sw_blend_to_i1.c ****                         px = lv_color16_from_u16(lv_color_swap_16(src_buf_u16[src_x]));
 1950              		.loc 1 1147 67 is_stmt 1 discriminator 1 view .LVU623
 1951 0214 029B     		ldr	r3, [sp, #8]
 1952 0216 9F42     		cmp	r7, r3
 1953 0218 39DA     		bge	.L131
 1954              	.LBB563:
1148:Drivers/lvgl/src/draw/sw/blend/lv_draw_sw_blend_to_i1.c ****                         uint8_t src = lv_color16_luminance(px);
 1955              		.loc 1 1148 25 view .LVU624
1148:Drivers/lvgl/src/draw/sw/blend/lv_draw_sw_blend_to_i1.c ****                         uint8_t src = lv_color16_luminance(px);
 1956              		.loc 1 1148 30 is_stmt 0 view .LVU625
 1957 021a 019B     		ldr	r3, [sp, #4]
 1958 021c 33F81B30 		ldrh	r3, [r3, fp, lsl #1]
 1959              	.LVL213:
 1960              	.LBB556:
 1961              	.LBI556:
 476:Drivers/lvgl/src/draw/sw/blend/../../../misc/../font/../draw/../misc/lv_color.h **** {
 1962              		.loc 2 476 46 is_stmt 1 view .LVU626
 1963              	.LBB557:
 1964              		.loc 2 478 5 view .LVU627
 1965              		.loc 2 478 21 is_stmt 0 view .LVU628
 1966 0220 5BBA     		rev16	r3, r3
 1967              	.LVL214:
 1968              		.loc 2 478 21 view .LVU629
 1969              	.LBE557:
 1970              	.LBE556:
 1971              	.LBB558:
 1972              	.LBI558:
1277:Drivers/lvgl/src/draw/sw/blend/lv_draw_sw_blend_to_i1.c **** {
 1973              		.loc 1 1277 50 is_stmt 1 view .LVU630
 1974              	.LBB559:
1279:Drivers/lvgl/src/draw/sw/blend/lv_draw_sw_blend_to_i1.c ****     c.red = (raw >> 11) & 0x1F;
 1975              		.loc 1 1279 5 view .LVU631
ARM GAS  /var/folders/qx/2_175_4n2s19vhvtspjhb3qh0000gn/T//ccaVas4T.s 			page 76


1280:Drivers/lvgl/src/draw/sw/blend/lv_draw_sw_blend_to_i1.c ****     c.green = (raw >> 5) & 0x3F;
 1976              		.loc 1 1280 5 view .LVU632
1280:Drivers/lvgl/src/draw/sw/blend/lv_draw_sw_blend_to_i1.c ****     c.green = (raw >> 5) & 0x3F;
 1977              		.loc 1 1280 25 is_stmt 0 view .LVU633
 1978 0222 C3F3C422 		ubfx	r2, r3, #11, #5
1280:Drivers/lvgl/src/draw/sw/blend/lv_draw_sw_blend_to_i1.c ****     c.green = (raw >> 5) & 0x3F;
 1979              		.loc 1 1280 11 view .LVU634
 1980 0226 62F3CF29 		bfi	r9, r2, #11, #5
1281:Drivers/lvgl/src/draw/sw/blend/lv_draw_sw_blend_to_i1.c ****     c.blue = raw & 0x1F;
 1981              		.loc 1 1281 5 is_stmt 1 view .LVU635
1281:Drivers/lvgl/src/draw/sw/blend/lv_draw_sw_blend_to_i1.c ****     c.blue = raw & 0x1F;
 1982              		.loc 1 1281 26 is_stmt 0 view .LVU636
 1983 022a C3F34512 		ubfx	r2, r3, #5, #6
1281:Drivers/lvgl/src/draw/sw/blend/lv_draw_sw_blend_to_i1.c ****     c.blue = raw & 0x1F;
 1984              		.loc 1 1281 13 view .LVU637
 1985 022e 62F34A19 		bfi	r9, r2, #5, #6
1282:Drivers/lvgl/src/draw/sw/blend/lv_draw_sw_blend_to_i1.c ****     return c;
 1986              		.loc 1 1282 5 is_stmt 1 view .LVU638
1282:Drivers/lvgl/src/draw/sw/blend/lv_draw_sw_blend_to_i1.c ****     return c;
 1987              		.loc 1 1282 12 is_stmt 0 view .LVU639
 1988 0232 63F30409 		bfi	r9, r3, #0, #5
 1989              		.loc 1 1283 5 is_stmt 1 view .LVU640
 1990              	.LVL215:
 1991              		.loc 1 1283 5 is_stmt 0 view .LVU641
 1992              	.LBE559:
 1993              	.LBE558:
1149:Drivers/lvgl/src/draw/sw/blend/lv_draw_sw_blend_to_i1.c ****                         uint8_t dest = get_bit(dest_buf_u8, dest_x + bit_ofs) * 255;
 1994              		.loc 1 1149 25 is_stmt 1 view .LVU642
1149:Drivers/lvgl/src/draw/sw/blend/lv_draw_sw_blend_to_i1.c ****                         uint8_t dest = get_bit(dest_buf_u8, dest_x + bit_ofs) * 255;
 1995              		.loc 1 1149 39 is_stmt 0 view .LVU643
 1996 0236 4846     		mov	r0, r9	@ movhi
 1997 0238 FFF7FEFF 		bl	lv_color16_luminance
 1998              	.LVL216:
1150:Drivers/lvgl/src/draw/sw/blend/lv_draw_sw_blend_to_i1.c ****                         lv_color_8_8_mix(src, &dest, mask_buf[mask_x]);
 1999              		.loc 1 1150 25 is_stmt 1 view .LVU644
1150:Drivers/lvgl/src/draw/sw/blend/lv_draw_sw_blend_to_i1.c ****                         lv_color_8_8_mix(src, &dest, mask_buf[mask_x]);
 2000              		.loc 1 1150 40 is_stmt 0 view .LVU645
 2001 023c 049B     		ldr	r3, [sp, #16]
 2002 023e FC18     		adds	r4, r7, r3
 2003              	.LVL217:
 2004              	.LBB560:
 2005              	.LBI551:
1271:Drivers/lvgl/src/draw/sw/blend/lv_draw_sw_blend_to_i1.c **** {
 2006              		.loc 1 1271 45 is_stmt 1 view .LVU646
 2007              	.LBB553:
1273:Drivers/lvgl/src/draw/sw/blend/lv_draw_sw_blend_to_i1.c **** }
 2008              		.loc 1 1273 5 view .LVU647
1273:Drivers/lvgl/src/draw/sw/blend/lv_draw_sw_blend_to_i1.c **** }
 2009              		.loc 1 1273 25 is_stmt 0 view .LVU648
 2010 0240 2646     		mov	r6, r4
 2011 0242 002C     		cmp	r4, #0
 2012 0244 D8DB     		blt	.L132
 2013              	.L98:
1273:Drivers/lvgl/src/draw/sw/blend/lv_draw_sw_blend_to_i1.c **** }
 2014              		.loc 1 1273 25 view .LVU649
 2015 0246 F610     		asrs	r6, r6, #3
1273:Drivers/lvgl/src/draw/sw/blend/lv_draw_sw_blend_to_i1.c **** }
ARM GAS  /var/folders/qx/2_175_4n2s19vhvtspjhb3qh0000gn/T//ccaVas4T.s 			page 77


 2016              		.loc 1 1273 16 view .LVU650
 2017 0248 18F80630 		ldrb	r3, [r8, r6]	@ zero_extendqisi2
1273:Drivers/lvgl/src/draw/sw/blend/lv_draw_sw_blend_to_i1.c **** }
 2018              		.loc 1 1273 47 view .LVU651
 2019 024c 6242     		rsbs	r2, r4, #0
 2020 024e 04F00704 		and	r4, r4, #7
 2021              	.LVL218:
1273:Drivers/lvgl/src/draw/sw/blend/lv_draw_sw_blend_to_i1.c **** }
 2022              		.loc 1 1273 47 view .LVU652
 2023 0252 02F00702 		and	r2, r2, #7
 2024 0256 58BF     		it	pl
 2025 0258 5442     		rsbpl	r4, r2, #0
1273:Drivers/lvgl/src/draw/sw/blend/lv_draw_sw_blend_to_i1.c **** }
 2026              		.loc 1 1273 36 view .LVU653
 2027 025a C4F10704 		rsb	r4, r4, #7
1273:Drivers/lvgl/src/draw/sw/blend/lv_draw_sw_blend_to_i1.c **** }
 2028              		.loc 1 1273 30 view .LVU654
 2029 025e 2341     		asrs	r3, r3, r4
 2030              	.LVL219:
1273:Drivers/lvgl/src/draw/sw/blend/lv_draw_sw_blend_to_i1.c **** }
 2031              		.loc 1 1273 30 view .LVU655
 2032              	.LBE553:
 2033              	.LBE560:
1150:Drivers/lvgl/src/draw/sw/blend/lv_draw_sw_blend_to_i1.c ****                         lv_color_8_8_mix(src, &dest, mask_buf[mask_x]);
 2034              		.loc 1 1150 33 discriminator 1 view .LVU656
 2035 0260 43F30003 		sbfx	r3, r3, #0, #1
 2036 0264 8DF82C30 		strb	r3, [sp, #44]
1151:Drivers/lvgl/src/draw/sw/blend/lv_draw_sw_blend_to_i1.c ****                         if(dest > I1_LUM_THRESHOLD) {
 2037              		.loc 1 1151 25 is_stmt 1 view .LVU657
 2038 0268 15F80A20 		ldrb	r2, [r5, r10]	@ zero_extendqisi2
 2039 026c 0BA9     		add	r1, sp, #44
 2040 026e FFF7FEFF 		bl	lv_color_8_8_mix
 2041              	.LVL220:
1152:Drivers/lvgl/src/draw/sw/blend/lv_draw_sw_blend_to_i1.c ****                             set_bit(dest_buf_u8, dest_x + bit_ofs);
 2042              		.loc 1 1152 25 view .LVU658
1152:Drivers/lvgl/src/draw/sw/blend/lv_draw_sw_blend_to_i1.c ****                             set_bit(dest_buf_u8, dest_x + bit_ofs);
 2043              		.loc 1 1152 33 is_stmt 0 view .LVU659
 2044 0272 9DF92C30 		ldrsb	r3, [sp, #44]
1152:Drivers/lvgl/src/draw/sw/blend/lv_draw_sw_blend_to_i1.c ****                             set_bit(dest_buf_u8, dest_x + bit_ofs);
 2045              		.loc 1 1152 27 view .LVU660
 2046 0276 002B     		cmp	r3, #0
 2047 0278 C0DB     		blt	.L133
1156:Drivers/lvgl/src/draw/sw/blend/lv_draw_sw_blend_to_i1.c ****                         }
 2048              		.loc 1 1156 29 is_stmt 1 view .LVU661
 2049              	.LVL221:
 2050              	.LBB561:
 2051              	.LBI561:
1266:Drivers/lvgl/src/draw/sw/blend/lv_draw_sw_blend_to_i1.c **** {
 2052              		.loc 1 1266 42 view .LVU662
 2053              	.LBB562:
1268:Drivers/lvgl/src/draw/sw/blend/lv_draw_sw_blend_to_i1.c **** }
 2054              		.loc 1 1268 5 view .LVU663
1268:Drivers/lvgl/src/draw/sw/blend/lv_draw_sw_blend_to_i1.c **** }
 2055              		.loc 1 1268 8 is_stmt 0 view .LVU664
 2056 027a 18F80620 		ldrb	r2, [r8, r6]	@ zero_extendqisi2
1268:Drivers/lvgl/src/draw/sw/blend/lv_draw_sw_blend_to_i1.c **** }
 2057              		.loc 1 1268 29 view .LVU665
ARM GAS  /var/folders/qx/2_175_4n2s19vhvtspjhb3qh0000gn/T//ccaVas4T.s 			page 78


 2058 027e 0123     		movs	r3, #1
 2059 0280 A340     		lsls	r3, r3, r4
1268:Drivers/lvgl/src/draw/sw/blend/lv_draw_sw_blend_to_i1.c **** }
 2060              		.loc 1 1268 22 view .LVU666
 2061 0282 DB43     		mvns	r3, r3
 2062 0284 5BB2     		sxtb	r3, r3
 2063 0286 1340     		ands	r3, r3, r2
 2064 0288 08F80630 		strb	r3, [r8, r6]
 2065              	.LVL222:
1269:Drivers/lvgl/src/draw/sw/blend/lv_draw_sw_blend_to_i1.c **** 
 2066              		.loc 1 1269 1 view .LVU667
 2067 028c BDE7     		b	.L100
 2068              	.LVL223:
 2069              	.L131:
1269:Drivers/lvgl/src/draw/sw/blend/lv_draw_sw_blend_to_i1.c **** 
 2070              		.loc 1 1269 1 view .LVU668
 2071              	.LBE562:
 2072              	.LBE561:
 2073              	.LBE563:
 2074              	.LBB564:
 2075              	.LBB565:
1258:Drivers/lvgl/src/draw/sw/blend/lv_draw_sw_blend_to_i1.c **** }
 2076              		.loc 1 1258 12 view .LVU669
 2077 028e 079C     		ldr	r4, [sp, #28]
 2078              	.LBE565:
 2079              	.LBE564:
1159:Drivers/lvgl/src/draw/sw/blend/lv_draw_sw_blend_to_i1.c ****                     src_buf_u16 = drawbuf_next_row(src_buf_u16, src_stride);
 2080              		.loc 1 1159 21 is_stmt 1 view .LVU670
 2081              	.LVL224:
 2082              	.LBB567:
 2083              	.LBI564:
1256:Drivers/lvgl/src/draw/sw/blend/lv_draw_sw_blend_to_i1.c **** {
 2084              		.loc 1 1256 44 view .LVU671
 2085              	.LBB566:
1258:Drivers/lvgl/src/draw/sw/blend/lv_draw_sw_blend_to_i1.c **** }
 2086              		.loc 1 1258 5 view .LVU672
1258:Drivers/lvgl/src/draw/sw/blend/lv_draw_sw_blend_to_i1.c **** }
 2087              		.loc 1 1258 12 is_stmt 0 view .LVU673
 2088 0290 059B     		ldr	r3, [sp, #20]
 2089 0292 9844     		add	r8, r8, r3
 2090              	.LVL225:
1258:Drivers/lvgl/src/draw/sw/blend/lv_draw_sw_blend_to_i1.c **** }
 2091              		.loc 1 1258 12 view .LVU674
 2092              	.LBE566:
 2093              	.LBE567:
1160:Drivers/lvgl/src/draw/sw/blend/lv_draw_sw_blend_to_i1.c ****                     mask_buf += mask_stride;
 2094              		.loc 1 1160 21 is_stmt 1 view .LVU675
 2095              	.LBB568:
 2096              	.LBI568:
1256:Drivers/lvgl/src/draw/sw/blend/lv_draw_sw_blend_to_i1.c **** {
 2097              		.loc 1 1256 44 view .LVU676
 2098              	.LBB569:
1258:Drivers/lvgl/src/draw/sw/blend/lv_draw_sw_blend_to_i1.c **** }
 2099              		.loc 1 1258 5 view .LVU677
1258:Drivers/lvgl/src/draw/sw/blend/lv_draw_sw_blend_to_i1.c **** }
 2100              		.loc 1 1258 12 is_stmt 0 view .LVU678
 2101 0294 019B     		ldr	r3, [sp, #4]
ARM GAS  /var/folders/qx/2_175_4n2s19vhvtspjhb3qh0000gn/T//ccaVas4T.s 			page 79


 2102 0296 069A     		ldr	r2, [sp, #24]
 2103 0298 1344     		add	r3, r3, r2
 2104 029a 0193     		str	r3, [sp, #4]
 2105              	.LVL226:
1258:Drivers/lvgl/src/draw/sw/blend/lv_draw_sw_blend_to_i1.c **** }
 2106              		.loc 1 1258 12 view .LVU679
 2107              	.LBE569:
 2108              	.LBE568:
1161:Drivers/lvgl/src/draw/sw/blend/lv_draw_sw_blend_to_i1.c ****                 }
 2109              		.loc 1 1161 21 is_stmt 1 view .LVU680
1161:Drivers/lvgl/src/draw/sw/blend/lv_draw_sw_blend_to_i1.c ****                 }
 2110              		.loc 1 1161 30 is_stmt 0 view .LVU681
 2111 029c 089B     		ldr	r3, [sp, #32]
 2112              	.LVL227:
1161:Drivers/lvgl/src/draw/sw/blend/lv_draw_sw_blend_to_i1.c ****                 }
 2113              		.loc 1 1161 30 view .LVU682
 2114 029e 1D44     		add	r5, r5, r3
 2115              	.LVL228:
1146:Drivers/lvgl/src/draw/sw/blend/lv_draw_sw_blend_to_i1.c ****                     for(mask_x = 0, dest_x = 0, src_x = 0; dest_x < w; mask_x++, dest_x++, src_x++)
 2116              		.loc 1 1146 36 is_stmt 1 discriminator 2 view .LVU683
 2117 02a0 0134     		adds	r4, r4, #1
 2118              	.LVL229:
 2119              	.L96:
1146:Drivers/lvgl/src/draw/sw/blend/lv_draw_sw_blend_to_i1.c ****                     for(mask_x = 0, dest_x = 0, src_x = 0; dest_x < w; mask_x++, dest_x++, src_x++)
 2120              		.loc 1 1146 30 discriminator 1 view .LVU684
 2121 02a2 039B     		ldr	r3, [sp, #12]
 2122 02a4 9C42     		cmp	r4, r3
 2123 02a6 80F2CD80 		bge	.L79
1147:Drivers/lvgl/src/draw/sw/blend/lv_draw_sw_blend_to_i1.c ****                         px = lv_color16_from_u16(lv_color_swap_16(src_buf_u16[src_x]));
 2124              		.loc 1 1147 32 is_stmt 0 view .LVU685
 2125 02aa 4FF0000A 		mov	r10, #0
1147:Drivers/lvgl/src/draw/sw/blend/lv_draw_sw_blend_to_i1.c ****                         px = lv_color16_from_u16(lv_color_swap_16(src_buf_u16[src_x]));
 2126              		.loc 1 1147 44 view .LVU686
 2127 02ae 5746     		mov	r7, r10
1147:Drivers/lvgl/src/draw/sw/blend/lv_draw_sw_blend_to_i1.c ****                         px = lv_color16_from_u16(lv_color_swap_16(src_buf_u16[src_x]));
 2128              		.loc 1 1147 55 view .LVU687
 2129 02b0 D346     		mov	fp, r10
 2130 02b2 0794     		str	r4, [sp, #28]
 2131 02b4 AEE7     		b	.L102
 2132              	.LVL230:
 2133              	.L118:
1146:Drivers/lvgl/src/draw/sw/blend/lv_draw_sw_blend_to_i1.c ****                     for(mask_x = 0, dest_x = 0, src_x = 0; dest_x < w; mask_x++, dest_x++, src_x++)
 2134              		.loc 1 1146 23 view .LVU688
 2135 02b6 0024     		movs	r4, #0
 2136 02b8 4346     		mov	r3, r8
 2137 02ba A846     		mov	r8, r5
 2138              	.LVL231:
1146:Drivers/lvgl/src/draw/sw/blend/lv_draw_sw_blend_to_i1.c ****                     for(mask_x = 0, dest_x = 0, src_x = 0; dest_x < w; mask_x++, dest_x++, src_x++)
 2139              		.loc 1 1146 23 view .LVU689
 2140 02bc CDF820E0 		str	lr, [sp, #32]
 2141 02c0 0491     		str	r1, [sp, #16]
 2142 02c2 1D46     		mov	r5, r3
 2143              	.LVL232:
1146:Drivers/lvgl/src/draw/sw/blend/lv_draw_sw_blend_to_i1.c ****                     for(mask_x = 0, dest_x = 0, src_x = 0; dest_x < w; mask_x++, dest_x++, src_x++)
 2144              		.loc 1 1146 23 view .LVU690
 2145 02c4 EDE7     		b	.L96
 2146              	.LVL233:
ARM GAS  /var/folders/qx/2_175_4n2s19vhvtspjhb3qh0000gn/T//ccaVas4T.s 			page 80


 2147              	.L135:
1146:Drivers/lvgl/src/draw/sw/blend/lv_draw_sw_blend_to_i1.c ****                     for(mask_x = 0, dest_x = 0, src_x = 0; dest_x < w; mask_x++, dest_x++, src_x++)
 2148              		.loc 1 1146 23 view .LVU691
 2149              	.LBE549:
 2150              	.LBB570:
 2151              	.LBB493:
 2152              	.LBB494:
 2153              	.LBB495:
1273:Drivers/lvgl/src/draw/sw/blend/lv_draw_sw_blend_to_i1.c **** }
 2154              		.loc 1 1273 25 view .LVU692
 2155 02c6 E61D     		adds	r6, r4, #7
 2156 02c8 24E0     		b	.L104
 2157              	.LVL234:
 2158              	.L136:
1273:Drivers/lvgl/src/draw/sw/blend/lv_draw_sw_blend_to_i1.c **** }
 2159              		.loc 1 1273 25 view .LVU693
 2160              	.LBE495:
 2161              	.LBE494:
1175:Drivers/lvgl/src/draw/sw/blend/lv_draw_sw_blend_to_i1.c ****                         }
 2162              		.loc 1 1175 29 is_stmt 1 view .LVU694
 2163              	.LBB497:
 2164              	.LBI497:
1261:Drivers/lvgl/src/draw/sw/blend/lv_draw_sw_blend_to_i1.c **** {
 2165              		.loc 1 1261 42 view .LVU695
 2166              	.LBB498:
1263:Drivers/lvgl/src/draw/sw/blend/lv_draw_sw_blend_to_i1.c **** }
 2167              		.loc 1 1263 5 view .LVU696
1263:Drivers/lvgl/src/draw/sw/blend/lv_draw_sw_blend_to_i1.c **** }
 2168              		.loc 1 1263 8 is_stmt 0 view .LVU697
 2169 02ca 18F80630 		ldrb	r3, [r8, r6]	@ zero_extendqisi2
1263:Drivers/lvgl/src/draw/sw/blend/lv_draw_sw_blend_to_i1.c **** }
 2170              		.loc 1 1263 28 view .LVU698
 2171 02ce 0122     		movs	r2, #1
 2172 02d0 A240     		lsls	r2, r2, r4
1263:Drivers/lvgl/src/draw/sw/blend/lv_draw_sw_blend_to_i1.c **** }
 2173              		.loc 1 1263 22 view .LVU699
 2174 02d2 1343     		orrs	r3, r3, r2
 2175 02d4 08F80630 		strb	r3, [r8, r6]
 2176              	.LVL235:
 2177              	.L106:
1263:Drivers/lvgl/src/draw/sw/blend/lv_draw_sw_blend_to_i1.c **** }
 2178              		.loc 1 1263 22 view .LVU700
 2179              	.LBE498:
 2180              	.LBE497:
 2181              	.LBE493:
1169:Drivers/lvgl/src/draw/sw/blend/lv_draw_sw_blend_to_i1.c ****                         px = lv_color16_from_u16(lv_color_swap_16(src_buf_u16[src_x]));
 2182              		.loc 1 1169 90 is_stmt 1 discriminator 2 view .LVU701
1169:Drivers/lvgl/src/draw/sw/blend/lv_draw_sw_blend_to_i1.c ****                         px = lv_color16_from_u16(lv_color_swap_16(src_buf_u16[src_x]));
 2183              		.loc 1 1169 78 is_stmt 0 discriminator 2 view .LVU702
 2184 02d8 09F10109 		add	r9, r9, #1
 2185              	.LVL236:
1169:Drivers/lvgl/src/draw/sw/blend/lv_draw_sw_blend_to_i1.c ****                         px = lv_color16_from_u16(lv_color_swap_16(src_buf_u16[src_x]));
 2186              		.loc 1 1169 88 discriminator 2 view .LVU703
 2187 02dc 0137     		adds	r7, r7, #1
 2188              	.LVL237:
1169:Drivers/lvgl/src/draw/sw/blend/lv_draw_sw_blend_to_i1.c ****                         px = lv_color16_from_u16(lv_color_swap_16(src_buf_u16[src_x]));
 2189              		.loc 1 1169 97 discriminator 2 view .LVU704
ARM GAS  /var/folders/qx/2_175_4n2s19vhvtspjhb3qh0000gn/T//ccaVas4T.s 			page 81


 2190 02de 0BF1010B 		add	fp, fp, #1
 2191              	.LVL238:
 2192              	.L108:
1169:Drivers/lvgl/src/draw/sw/blend/lv_draw_sw_blend_to_i1.c ****                         px = lv_color16_from_u16(lv_color_swap_16(src_buf_u16[src_x]));
 2193              		.loc 1 1169 67 is_stmt 1 discriminator 1 view .LVU705
 2194 02e2 029B     		ldr	r3, [sp, #8]
 2195 02e4 9F42     		cmp	r7, r3
 2196 02e6 3DDA     		bge	.L134
 2197              	.LBB506:
1170:Drivers/lvgl/src/draw/sw/blend/lv_draw_sw_blend_to_i1.c ****                         uint8_t src = lv_color16_luminance(px);
 2198              		.loc 1 1170 25 view .LVU706
1170:Drivers/lvgl/src/draw/sw/blend/lv_draw_sw_blend_to_i1.c ****                         uint8_t src = lv_color16_luminance(px);
 2199              		.loc 1 1170 30 is_stmt 0 view .LVU707
 2200 02e8 019B     		ldr	r3, [sp, #4]
 2201 02ea 33F81B30 		ldrh	r3, [r3, fp, lsl #1]
 2202              	.LVL239:
 2203              	.LBB499:
 2204              	.LBI499:
 476:Drivers/lvgl/src/draw/sw/blend/../../../misc/../font/../draw/../misc/lv_color.h **** {
 2205              		.loc 2 476 46 is_stmt 1 view .LVU708
 2206              	.LBB500:
 2207              		.loc 2 478 5 view .LVU709
 2208              		.loc 2 478 21 is_stmt 0 view .LVU710
 2209 02ee 5BBA     		rev16	r3, r3
 2210              	.LVL240:
 2211              		.loc 2 478 21 view .LVU711
 2212              	.LBE500:
 2213              	.LBE499:
 2214              	.LBB501:
 2215              	.LBI501:
1277:Drivers/lvgl/src/draw/sw/blend/lv_draw_sw_blend_to_i1.c **** {
 2216              		.loc 1 1277 50 is_stmt 1 view .LVU712
 2217              	.LBB502:
1279:Drivers/lvgl/src/draw/sw/blend/lv_draw_sw_blend_to_i1.c ****     c.red = (raw >> 11) & 0x1F;
 2218              		.loc 1 1279 5 view .LVU713
1280:Drivers/lvgl/src/draw/sw/blend/lv_draw_sw_blend_to_i1.c ****     c.green = (raw >> 5) & 0x3F;
 2219              		.loc 1 1280 5 view .LVU714
1280:Drivers/lvgl/src/draw/sw/blend/lv_draw_sw_blend_to_i1.c ****     c.green = (raw >> 5) & 0x3F;
 2220              		.loc 1 1280 25 is_stmt 0 view .LVU715
 2221 02f0 C3F3C422 		ubfx	r2, r3, #11, #5
1280:Drivers/lvgl/src/draw/sw/blend/lv_draw_sw_blend_to_i1.c ****     c.green = (raw >> 5) & 0x3F;
 2222              		.loc 1 1280 11 view .LVU716
 2223 02f4 62F3CF2A 		bfi	r10, r2, #11, #5
1281:Drivers/lvgl/src/draw/sw/blend/lv_draw_sw_blend_to_i1.c ****     c.blue = raw & 0x1F;
 2224              		.loc 1 1281 5 is_stmt 1 view .LVU717
1281:Drivers/lvgl/src/draw/sw/blend/lv_draw_sw_blend_to_i1.c ****     c.blue = raw & 0x1F;
 2225              		.loc 1 1281 26 is_stmt 0 view .LVU718
 2226 02f8 C3F34512 		ubfx	r2, r3, #5, #6
1281:Drivers/lvgl/src/draw/sw/blend/lv_draw_sw_blend_to_i1.c ****     c.blue = raw & 0x1F;
 2227              		.loc 1 1281 13 view .LVU719
 2228 02fc 62F34A1A 		bfi	r10, r2, #5, #6
1282:Drivers/lvgl/src/draw/sw/blend/lv_draw_sw_blend_to_i1.c ****     return c;
 2229              		.loc 1 1282 5 is_stmt 1 view .LVU720
1282:Drivers/lvgl/src/draw/sw/blend/lv_draw_sw_blend_to_i1.c ****     return c;
 2230              		.loc 1 1282 12 is_stmt 0 view .LVU721
 2231 0300 63F3040A 		bfi	r10, r3, #0, #5
 2232              		.loc 1 1283 5 is_stmt 1 view .LVU722
ARM GAS  /var/folders/qx/2_175_4n2s19vhvtspjhb3qh0000gn/T//ccaVas4T.s 			page 82


 2233              	.LVL241:
 2234              		.loc 1 1283 5 is_stmt 0 view .LVU723
 2235              	.LBE502:
 2236              	.LBE501:
1171:Drivers/lvgl/src/draw/sw/blend/lv_draw_sw_blend_to_i1.c ****                         uint8_t dest = get_bit(dest_buf_u8, dest_x + bit_ofs) * 255;
 2237              		.loc 1 1171 25 is_stmt 1 view .LVU724
1171:Drivers/lvgl/src/draw/sw/blend/lv_draw_sw_blend_to_i1.c ****                         uint8_t dest = get_bit(dest_buf_u8, dest_x + bit_ofs) * 255;
 2238              		.loc 1 1171 39 is_stmt 0 view .LVU725
 2239 0304 5046     		mov	r0, r10	@ movhi
 2240 0306 FFF7FEFF 		bl	lv_color16_luminance
 2241              	.LVL242:
1172:Drivers/lvgl/src/draw/sw/blend/lv_draw_sw_blend_to_i1.c ****                         lv_color_8_8_mix(src, &dest, LV_OPA_MIX2(mask_buf[mask_x], opa));
 2242              		.loc 1 1172 25 is_stmt 1 view .LVU726
1172:Drivers/lvgl/src/draw/sw/blend/lv_draw_sw_blend_to_i1.c ****                         lv_color_8_8_mix(src, &dest, LV_OPA_MIX2(mask_buf[mask_x], opa));
 2243              		.loc 1 1172 40 is_stmt 0 view .LVU727
 2244 030a 079B     		ldr	r3, [sp, #28]
 2245 030c FC18     		adds	r4, r7, r3
 2246              	.LVL243:
 2247              	.LBB503:
 2248              	.LBI494:
1271:Drivers/lvgl/src/draw/sw/blend/lv_draw_sw_blend_to_i1.c **** {
 2249              		.loc 1 1271 45 is_stmt 1 view .LVU728
 2250              	.LBB496:
1273:Drivers/lvgl/src/draw/sw/blend/lv_draw_sw_blend_to_i1.c **** }
 2251              		.loc 1 1273 5 view .LVU729
1273:Drivers/lvgl/src/draw/sw/blend/lv_draw_sw_blend_to_i1.c **** }
 2252              		.loc 1 1273 25 is_stmt 0 view .LVU730
 2253 030e 2646     		mov	r6, r4
 2254 0310 002C     		cmp	r4, #0
 2255 0312 D8DB     		blt	.L135
 2256              	.L104:
1273:Drivers/lvgl/src/draw/sw/blend/lv_draw_sw_blend_to_i1.c **** }
 2257              		.loc 1 1273 25 view .LVU731
 2258 0314 F610     		asrs	r6, r6, #3
1273:Drivers/lvgl/src/draw/sw/blend/lv_draw_sw_blend_to_i1.c **** }
 2259              		.loc 1 1273 16 view .LVU732
 2260 0316 18F80630 		ldrb	r3, [r8, r6]	@ zero_extendqisi2
1273:Drivers/lvgl/src/draw/sw/blend/lv_draw_sw_blend_to_i1.c **** }
 2261              		.loc 1 1273 47 view .LVU733
 2262 031a 6242     		rsbs	r2, r4, #0
 2263 031c 04F00704 		and	r4, r4, #7
 2264              	.LVL244:
1273:Drivers/lvgl/src/draw/sw/blend/lv_draw_sw_blend_to_i1.c **** }
 2265              		.loc 1 1273 47 view .LVU734
 2266 0320 02F00702 		and	r2, r2, #7
 2267 0324 58BF     		it	pl
 2268 0326 5442     		rsbpl	r4, r2, #0
1273:Drivers/lvgl/src/draw/sw/blend/lv_draw_sw_blend_to_i1.c **** }
 2269              		.loc 1 1273 36 view .LVU735
 2270 0328 C4F10704 		rsb	r4, r4, #7
1273:Drivers/lvgl/src/draw/sw/blend/lv_draw_sw_blend_to_i1.c **** }
 2271              		.loc 1 1273 30 view .LVU736
 2272 032c 2341     		asrs	r3, r3, r4
 2273              	.LVL245:
1273:Drivers/lvgl/src/draw/sw/blend/lv_draw_sw_blend_to_i1.c **** }
 2274              		.loc 1 1273 30 view .LVU737
 2275              	.LBE496:
ARM GAS  /var/folders/qx/2_175_4n2s19vhvtspjhb3qh0000gn/T//ccaVas4T.s 			page 83


 2276              	.LBE503:
1172:Drivers/lvgl/src/draw/sw/blend/lv_draw_sw_blend_to_i1.c ****                         lv_color_8_8_mix(src, &dest, LV_OPA_MIX2(mask_buf[mask_x], opa));
 2277              		.loc 1 1172 33 discriminator 1 view .LVU738
 2278 032e 43F30003 		sbfx	r3, r3, #0, #1
 2279 0332 8DF82C30 		strb	r3, [sp, #44]
1173:Drivers/lvgl/src/draw/sw/blend/lv_draw_sw_blend_to_i1.c ****                         if(dest > I1_LUM_THRESHOLD) {
 2280              		.loc 1 1173 25 is_stmt 1 view .LVU739
1173:Drivers/lvgl/src/draw/sw/blend/lv_draw_sw_blend_to_i1.c ****                         if(dest > I1_LUM_THRESHOLD) {
 2281              		.loc 1 1173 54 is_stmt 0 view .LVU740
 2282 0336 15F80920 		ldrb	r2, [r5, r9]	@ zero_extendqisi2
 2283 033a 049B     		ldr	r3, [sp, #16]
 2284 033c 03FB02F2 		mul	r2, r3, r2
1173:Drivers/lvgl/src/draw/sw/blend/lv_draw_sw_blend_to_i1.c ****                         if(dest > I1_LUM_THRESHOLD) {
 2285              		.loc 1 1173 25 view .LVU741
 2286 0340 120A     		lsrs	r2, r2, #8
 2287 0342 0BA9     		add	r1, sp, #44
 2288 0344 FFF7FEFF 		bl	lv_color_8_8_mix
 2289              	.LVL246:
1174:Drivers/lvgl/src/draw/sw/blend/lv_draw_sw_blend_to_i1.c ****                             set_bit(dest_buf_u8, dest_x + bit_ofs);
 2290              		.loc 1 1174 25 is_stmt 1 view .LVU742
1174:Drivers/lvgl/src/draw/sw/blend/lv_draw_sw_blend_to_i1.c ****                             set_bit(dest_buf_u8, dest_x + bit_ofs);
 2291              		.loc 1 1174 33 is_stmt 0 view .LVU743
 2292 0348 9DF92C30 		ldrsb	r3, [sp, #44]
1174:Drivers/lvgl/src/draw/sw/blend/lv_draw_sw_blend_to_i1.c ****                             set_bit(dest_buf_u8, dest_x + bit_ofs);
 2293              		.loc 1 1174 27 view .LVU744
 2294 034c 002B     		cmp	r3, #0
 2295 034e BCDB     		blt	.L136
1178:Drivers/lvgl/src/draw/sw/blend/lv_draw_sw_blend_to_i1.c ****                         }
 2296              		.loc 1 1178 29 is_stmt 1 view .LVU745
 2297              	.LVL247:
 2298              	.LBB504:
 2299              	.LBI504:
1266:Drivers/lvgl/src/draw/sw/blend/lv_draw_sw_blend_to_i1.c **** {
 2300              		.loc 1 1266 42 view .LVU746
 2301              	.LBB505:
1268:Drivers/lvgl/src/draw/sw/blend/lv_draw_sw_blend_to_i1.c **** }
 2302              		.loc 1 1268 5 view .LVU747
1268:Drivers/lvgl/src/draw/sw/blend/lv_draw_sw_blend_to_i1.c **** }
 2303              		.loc 1 1268 8 is_stmt 0 view .LVU748
 2304 0350 18F80620 		ldrb	r2, [r8, r6]	@ zero_extendqisi2
1268:Drivers/lvgl/src/draw/sw/blend/lv_draw_sw_blend_to_i1.c **** }
 2305              		.loc 1 1268 29 view .LVU749
 2306 0354 0123     		movs	r3, #1
 2307 0356 A340     		lsls	r3, r3, r4
1268:Drivers/lvgl/src/draw/sw/blend/lv_draw_sw_blend_to_i1.c **** }
 2308              		.loc 1 1268 22 view .LVU750
 2309 0358 DB43     		mvns	r3, r3
 2310 035a 5BB2     		sxtb	r3, r3
 2311 035c 1340     		ands	r3, r3, r2
 2312 035e 08F80630 		strb	r3, [r8, r6]
 2313              	.LVL248:
1269:Drivers/lvgl/src/draw/sw/blend/lv_draw_sw_blend_to_i1.c **** 
 2314              		.loc 1 1269 1 view .LVU751
 2315 0362 B9E7     		b	.L106
 2316              	.LVL249:
 2317              	.L134:
1269:Drivers/lvgl/src/draw/sw/blend/lv_draw_sw_blend_to_i1.c **** 
ARM GAS  /var/folders/qx/2_175_4n2s19vhvtspjhb3qh0000gn/T//ccaVas4T.s 			page 84


 2318              		.loc 1 1269 1 view .LVU752
 2319              	.LBE505:
 2320              	.LBE504:
 2321              	.LBE506:
 2322              	.LBB507:
 2323              	.LBB508:
1258:Drivers/lvgl/src/draw/sw/blend/lv_draw_sw_blend_to_i1.c **** }
 2324              		.loc 1 1258 12 view .LVU753
 2325 0364 089C     		ldr	r4, [sp, #32]
 2326              	.LBE508:
 2327              	.LBE507:
1181:Drivers/lvgl/src/draw/sw/blend/lv_draw_sw_blend_to_i1.c ****                     src_buf_u16 = drawbuf_next_row(src_buf_u16, src_stride);
 2328              		.loc 1 1181 21 is_stmt 1 view .LVU754
 2329              	.LVL250:
 2330              	.LBB510:
 2331              	.LBI507:
1256:Drivers/lvgl/src/draw/sw/blend/lv_draw_sw_blend_to_i1.c **** {
 2332              		.loc 1 1256 44 view .LVU755
 2333              	.LBB509:
1258:Drivers/lvgl/src/draw/sw/blend/lv_draw_sw_blend_to_i1.c **** }
 2334              		.loc 1 1258 5 view .LVU756
1258:Drivers/lvgl/src/draw/sw/blend/lv_draw_sw_blend_to_i1.c **** }
 2335              		.loc 1 1258 12 is_stmt 0 view .LVU757
 2336 0366 059B     		ldr	r3, [sp, #20]
 2337 0368 9844     		add	r8, r8, r3
 2338              	.LVL251:
1258:Drivers/lvgl/src/draw/sw/blend/lv_draw_sw_blend_to_i1.c **** }
 2339              		.loc 1 1258 12 view .LVU758
 2340              	.LBE509:
 2341              	.LBE510:
1182:Drivers/lvgl/src/draw/sw/blend/lv_draw_sw_blend_to_i1.c ****                     mask_buf += mask_stride;
 2342              		.loc 1 1182 21 is_stmt 1 view .LVU759
 2343              	.LBB511:
 2344              	.LBI511:
1256:Drivers/lvgl/src/draw/sw/blend/lv_draw_sw_blend_to_i1.c **** {
 2345              		.loc 1 1256 44 view .LVU760
 2346              	.LBB512:
1258:Drivers/lvgl/src/draw/sw/blend/lv_draw_sw_blend_to_i1.c **** }
 2347              		.loc 1 1258 5 view .LVU761
1258:Drivers/lvgl/src/draw/sw/blend/lv_draw_sw_blend_to_i1.c **** }
 2348              		.loc 1 1258 12 is_stmt 0 view .LVU762
 2349 036a 019B     		ldr	r3, [sp, #4]
 2350 036c 069A     		ldr	r2, [sp, #24]
 2351 036e 1344     		add	r3, r3, r2
 2352 0370 0193     		str	r3, [sp, #4]
 2353              	.LVL252:
1258:Drivers/lvgl/src/draw/sw/blend/lv_draw_sw_blend_to_i1.c **** }
 2354              		.loc 1 1258 12 view .LVU763
 2355              	.LBE512:
 2356              	.LBE511:
1183:Drivers/lvgl/src/draw/sw/blend/lv_draw_sw_blend_to_i1.c ****                 }
 2357              		.loc 1 1183 21 is_stmt 1 view .LVU764
1183:Drivers/lvgl/src/draw/sw/blend/lv_draw_sw_blend_to_i1.c ****                 }
 2358              		.loc 1 1183 30 is_stmt 0 view .LVU765
 2359 0372 099B     		ldr	r3, [sp, #36]
 2360              	.LVL253:
1183:Drivers/lvgl/src/draw/sw/blend/lv_draw_sw_blend_to_i1.c ****                 }
ARM GAS  /var/folders/qx/2_175_4n2s19vhvtspjhb3qh0000gn/T//ccaVas4T.s 			page 85


 2361              		.loc 1 1183 30 view .LVU766
 2362 0374 1D44     		add	r5, r5, r3
 2363              	.LVL254:
1168:Drivers/lvgl/src/draw/sw/blend/lv_draw_sw_blend_to_i1.c ****                     for(mask_x = 0, dest_x = 0, src_x = 0; dest_x < w; mask_x++, dest_x++, src_x++)
 2364              		.loc 1 1168 36 is_stmt 1 discriminator 2 view .LVU767
 2365 0376 0134     		adds	r4, r4, #1
 2366              	.LVL255:
 2367              	.L103:
1168:Drivers/lvgl/src/draw/sw/blend/lv_draw_sw_blend_to_i1.c ****                     for(mask_x = 0, dest_x = 0, src_x = 0; dest_x < w; mask_x++, dest_x++, src_x++)
 2368              		.loc 1 1168 30 discriminator 1 view .LVU768
 2369 0378 039B     		ldr	r3, [sp, #12]
 2370 037a 9C42     		cmp	r4, r3
 2371 037c 62DA     		bge	.L79
1169:Drivers/lvgl/src/draw/sw/blend/lv_draw_sw_blend_to_i1.c ****                         px = lv_color16_from_u16(lv_color_swap_16(src_buf_u16[src_x]));
 2372              		.loc 1 1169 32 is_stmt 0 view .LVU769
 2373 037e 4FF00009 		mov	r9, #0
1169:Drivers/lvgl/src/draw/sw/blend/lv_draw_sw_blend_to_i1.c ****                         px = lv_color16_from_u16(lv_color_swap_16(src_buf_u16[src_x]));
 2374              		.loc 1 1169 44 view .LVU770
 2375 0382 4F46     		mov	r7, r9
1169:Drivers/lvgl/src/draw/sw/blend/lv_draw_sw_blend_to_i1.c ****                         px = lv_color16_from_u16(lv_color_swap_16(src_buf_u16[src_x]));
 2376              		.loc 1 1169 55 view .LVU771
 2377 0384 CB46     		mov	fp, r9
 2378 0386 0894     		str	r4, [sp, #32]
 2379 0388 ABE7     		b	.L108
 2380              	.LVL256:
 2381              	.L109:
1169:Drivers/lvgl/src/draw/sw/blend/lv_draw_sw_blend_to_i1.c ****                         px = lv_color16_from_u16(lv_color_swap_16(src_buf_u16[src_x]));
 2382              		.loc 1 1169 55 view .LVU772
 2383              	.LBE570:
 2384              	.LBB571:
1197:Drivers/lvgl/src/draw/sw/blend/lv_draw_sw_blend_to_i1.c **** 
 2385              		.loc 1 1197 22 is_stmt 1 view .LVU773
1197:Drivers/lvgl/src/draw/sw/blend/lv_draw_sw_blend_to_i1.c **** 
 2386              		.loc 1 1197 39 is_stmt 0 view .LVU774
 2387 038a 2B5D     		ldrb	r3, [r5, r4]	@ zero_extendqisi2
 2388 038c 029A     		ldr	r2, [sp, #8]
 2389 038e 02FB03F3 		mul	r3, r2, r3
 2390 0392 1B0A     		lsrs	r3, r3, #8
1197:Drivers/lvgl/src/draw/sw/blend/lv_draw_sw_blend_to_i1.c **** 
 2391              		.loc 1 1197 37 view .LVU775
 2392 0394 8DF82F30 		strb	r3, [sp, #47]
 2393              	.L110:
1199:Drivers/lvgl/src/draw/sw/blend/lv_draw_sw_blend_to_i1.c ****             }
 2394              		.loc 1 1199 17 is_stmt 1 view .LVU776
 2395 0398 9BF82230 		ldrb	r3, [fp, #34]	@ zero_extendqisi2
 2396 039c 0B9A     		ldr	r2, [sp, #44]
 2397 039e 06EB0801 		add	r1, r6, r8
 2398 03a2 0198     		ldr	r0, [sp, #4]
 2399 03a4 FFF7FEFF 		bl	blend_non_normal_pixel
 2400              	.LVL257:
1191:Drivers/lvgl/src/draw/sw/blend/lv_draw_sw_blend_to_i1.c ****                 px = lv_color16_from_u16(lv_color_swap_16(src_buf_u16[src_x]));
 2401              		.loc 1 1191 58 discriminator 2 view .LVU777
1191:Drivers/lvgl/src/draw/sw/blend/lv_draw_sw_blend_to_i1.c ****                 px = lv_color16_from_u16(lv_color_swap_16(src_buf_u16[src_x]));
 2402              		.loc 1 1191 56 is_stmt 0 discriminator 2 view .LVU778
 2403 03a8 0134     		adds	r4, r4, #1
 2404              	.LVL258:
1191:Drivers/lvgl/src/draw/sw/blend/lv_draw_sw_blend_to_i1.c ****                 px = lv_color16_from_u16(lv_color_swap_16(src_buf_u16[src_x]));
ARM GAS  /var/folders/qx/2_175_4n2s19vhvtspjhb3qh0000gn/T//ccaVas4T.s 			page 86


 2405              		.loc 1 1191 66 discriminator 2 view .LVU779
 2406 03aa 0136     		adds	r6, r6, #1
 2407              	.LVL259:
 2408              	.L113:
1191:Drivers/lvgl/src/draw/sw/blend/lv_draw_sw_blend_to_i1.c ****                 px = lv_color16_from_u16(lv_color_swap_16(src_buf_u16[src_x]));
 2409              		.loc 1 1191 46 is_stmt 1 discriminator 1 view .LVU780
 2410 03ac 5445     		cmp	r4, r10
 2411 03ae 27DA     		bge	.L137
1192:Drivers/lvgl/src/draw/sw/blend/lv_draw_sw_blend_to_i1.c ****                 src_argb.red = (px.red * 2106) >> 8;
 2412              		.loc 1 1192 17 view .LVU781
1192:Drivers/lvgl/src/draw/sw/blend/lv_draw_sw_blend_to_i1.c ****                 src_argb.red = (px.red * 2106) >> 8;
 2413              		.loc 1 1192 22 is_stmt 0 view .LVU782
 2414 03b0 39F81430 		ldrh	r3, [r9, r4, lsl #1]
 2415              	.LVL260:
 2416              	.LBB572:
 2417              	.LBI572:
 476:Drivers/lvgl/src/draw/sw/blend/../../../misc/../font/../draw/../misc/lv_color.h **** {
 2418              		.loc 2 476 46 is_stmt 1 view .LVU783
 2419              	.LBB573:
 2420              		.loc 2 478 5 view .LVU784
 2421              		.loc 2 478 21 is_stmt 0 view .LVU785
 2422 03b4 5BBA     		rev16	r3, r3
 2423              	.LVL261:
 2424              		.loc 2 478 21 view .LVU786
 2425              	.LBE573:
 2426              	.LBE572:
 2427              	.LBB574:
 2428              	.LBI574:
1277:Drivers/lvgl/src/draw/sw/blend/lv_draw_sw_blend_to_i1.c **** {
 2429              		.loc 1 1277 50 is_stmt 1 view .LVU787
 2430              	.LBB575:
1279:Drivers/lvgl/src/draw/sw/blend/lv_draw_sw_blend_to_i1.c ****     c.red = (raw >> 11) & 0x1F;
 2431              		.loc 1 1279 5 view .LVU788
1280:Drivers/lvgl/src/draw/sw/blend/lv_draw_sw_blend_to_i1.c ****     c.green = (raw >> 5) & 0x3F;
 2432              		.loc 1 1280 5 view .LVU789
1280:Drivers/lvgl/src/draw/sw/blend/lv_draw_sw_blend_to_i1.c ****     c.green = (raw >> 5) & 0x3F;
 2433              		.loc 1 1280 25 is_stmt 0 view .LVU790
 2434 03b6 C3F3C421 		ubfx	r1, r3, #11, #5
1280:Drivers/lvgl/src/draw/sw/blend/lv_draw_sw_blend_to_i1.c ****     c.green = (raw >> 5) & 0x3F;
 2435              		.loc 1 1280 11 view .LVU791
 2436 03ba 61F3CF27 		bfi	r7, r1, #11, #5
1281:Drivers/lvgl/src/draw/sw/blend/lv_draw_sw_blend_to_i1.c ****     c.blue = raw & 0x1F;
 2437              		.loc 1 1281 5 is_stmt 1 view .LVU792
1281:Drivers/lvgl/src/draw/sw/blend/lv_draw_sw_blend_to_i1.c ****     c.blue = raw & 0x1F;
 2438              		.loc 1 1281 26 is_stmt 0 view .LVU793
 2439 03be C3F34512 		ubfx	r2, r3, #5, #6
1281:Drivers/lvgl/src/draw/sw/blend/lv_draw_sw_blend_to_i1.c ****     c.blue = raw & 0x1F;
 2440              		.loc 1 1281 13 view .LVU794
 2441 03c2 62F34A17 		bfi	r7, r2, #5, #6
1282:Drivers/lvgl/src/draw/sw/blend/lv_draw_sw_blend_to_i1.c ****     return c;
 2442              		.loc 1 1282 5 is_stmt 1 view .LVU795
1282:Drivers/lvgl/src/draw/sw/blend/lv_draw_sw_blend_to_i1.c ****     return c;
 2443              		.loc 1 1282 18 is_stmt 0 view .LVU796
 2444 03c6 03F01F03 		and	r3, r3, #31
 2445              	.LVL262:
1282:Drivers/lvgl/src/draw/sw/blend/lv_draw_sw_blend_to_i1.c ****     return c;
 2446              		.loc 1 1282 12 view .LVU797
ARM GAS  /var/folders/qx/2_175_4n2s19vhvtspjhb3qh0000gn/T//ccaVas4T.s 			page 87


 2447 03ca 63F30407 		bfi	r7, r3, #0, #5
 2448              		.loc 1 1283 5 is_stmt 1 view .LVU798
 2449              	.LVL263:
 2450              		.loc 1 1283 5 is_stmt 0 view .LVU799
 2451              	.LBE575:
 2452              	.LBE574:
1193:Drivers/lvgl/src/draw/sw/blend/lv_draw_sw_blend_to_i1.c ****                 src_argb.green = (px.green * 1037) >> 8;
 2453              		.loc 1 1193 17 is_stmt 1 view .LVU800
1193:Drivers/lvgl/src/draw/sw/blend/lv_draw_sw_blend_to_i1.c ****                 src_argb.green = (px.green * 1037) >> 8;
 2454              		.loc 1 1193 40 is_stmt 0 view .LVU801
 2455 03ce 40F63A00 		movw	r0, #2106
 2456 03d2 00FB01F1 		mul	r1, r0, r1
1193:Drivers/lvgl/src/draw/sw/blend/lv_draw_sw_blend_to_i1.c ****                 src_argb.green = (px.green * 1037) >> 8;
 2457              		.loc 1 1193 48 view .LVU802
 2458 03d6 0912     		asrs	r1, r1, #8
1193:Drivers/lvgl/src/draw/sw/blend/lv_draw_sw_blend_to_i1.c ****                 src_argb.green = (px.green * 1037) >> 8;
 2459              		.loc 1 1193 30 view .LVU803
 2460 03d8 8DF82E10 		strb	r1, [sp, #46]
1194:Drivers/lvgl/src/draw/sw/blend/lv_draw_sw_blend_to_i1.c ****                 src_argb.blue = (px.blue * 2106) >> 8;
 2461              		.loc 1 1194 17 is_stmt 1 view .LVU804
1194:Drivers/lvgl/src/draw/sw/blend/lv_draw_sw_blend_to_i1.c ****                 src_argb.blue = (px.blue * 2106) >> 8;
 2462              		.loc 1 1194 44 is_stmt 0 view .LVU805
 2463 03dc 40F20D41 		movw	r1, #1037
 2464 03e0 01FB02F2 		mul	r2, r1, r2
1194:Drivers/lvgl/src/draw/sw/blend/lv_draw_sw_blend_to_i1.c ****                 src_argb.blue = (px.blue * 2106) >> 8;
 2465              		.loc 1 1194 52 view .LVU806
 2466 03e4 1212     		asrs	r2, r2, #8
1194:Drivers/lvgl/src/draw/sw/blend/lv_draw_sw_blend_to_i1.c ****                 src_argb.blue = (px.blue * 2106) >> 8;
 2467              		.loc 1 1194 32 view .LVU807
 2468 03e6 8DF82D20 		strb	r2, [sp, #45]
1195:Drivers/lvgl/src/draw/sw/blend/lv_draw_sw_blend_to_i1.c ****                 if(mask_buf == NULL) src_argb.alpha = opa;
 2469              		.loc 1 1195 17 is_stmt 1 view .LVU808
1195:Drivers/lvgl/src/draw/sw/blend/lv_draw_sw_blend_to_i1.c ****                 if(mask_buf == NULL) src_argb.alpha = opa;
 2470              		.loc 1 1195 42 is_stmt 0 view .LVU809
 2471 03ea 00FB03F3 		mul	r3, r0, r3
1195:Drivers/lvgl/src/draw/sw/blend/lv_draw_sw_blend_to_i1.c ****                 if(mask_buf == NULL) src_argb.alpha = opa;
 2472              		.loc 1 1195 50 view .LVU810
 2473 03ee 1B12     		asrs	r3, r3, #8
1195:Drivers/lvgl/src/draw/sw/blend/lv_draw_sw_blend_to_i1.c ****                 if(mask_buf == NULL) src_argb.alpha = opa;
 2474              		.loc 1 1195 31 view .LVU811
 2475 03f0 8DF82C30 		strb	r3, [sp, #44]
1196:Drivers/lvgl/src/draw/sw/blend/lv_draw_sw_blend_to_i1.c ****                 else src_argb.alpha = LV_OPA_MIX2(mask_buf[src_x], opa);
 2476              		.loc 1 1196 17 is_stmt 1 view .LVU812
1196:Drivers/lvgl/src/draw/sw/blend/lv_draw_sw_blend_to_i1.c ****                 else src_argb.alpha = LV_OPA_MIX2(mask_buf[src_x], opa);
 2477              		.loc 1 1196 19 is_stmt 0 view .LVU813
 2478 03f4 002D     		cmp	r5, #0
 2479 03f6 C8D1     		bne	.L109
1196:Drivers/lvgl/src/draw/sw/blend/lv_draw_sw_blend_to_i1.c ****                 else src_argb.alpha = LV_OPA_MIX2(mask_buf[src_x], opa);
 2480              		.loc 1 1196 38 is_stmt 1 discriminator 1 view .LVU814
1196:Drivers/lvgl/src/draw/sw/blend/lv_draw_sw_blend_to_i1.c ****                 else src_argb.alpha = LV_OPA_MIX2(mask_buf[src_x], opa);
 2481              		.loc 1 1196 53 is_stmt 0 discriminator 1 view .LVU815
 2482 03f8 029B     		ldr	r3, [sp, #8]
 2483 03fa 8DF82F30 		strb	r3, [sp, #47]
 2484 03fe CBE7     		b	.L110
 2485              	.L137:
1201:Drivers/lvgl/src/draw/sw/blend/lv_draw_sw_blend_to_i1.c ****             dest_buf_u8 = drawbuf_next_row(dest_buf_u8, dest_stride);
 2486              		.loc 1 1201 15 view .LVU816
ARM GAS  /var/folders/qx/2_175_4n2s19vhvtspjhb3qh0000gn/T//ccaVas4T.s 			page 88


 2487 0400 0198     		ldr	r0, [sp, #4]
 2488 0402 0499     		ldr	r1, [sp, #16]
1201:Drivers/lvgl/src/draw/sw/blend/lv_draw_sw_blend_to_i1.c ****             dest_buf_u8 = drawbuf_next_row(dest_buf_u8, dest_stride);
 2489              		.loc 1 1201 13 is_stmt 1 view .LVU817
1201:Drivers/lvgl/src/draw/sw/blend/lv_draw_sw_blend_to_i1.c ****             dest_buf_u8 = drawbuf_next_row(dest_buf_u8, dest_stride);
 2490              		.loc 1 1201 15 is_stmt 0 view .LVU818
 2491 0404 0DB1     		cbz	r5, .L112
1201:Drivers/lvgl/src/draw/sw/blend/lv_draw_sw_blend_to_i1.c ****             dest_buf_u8 = drawbuf_next_row(dest_buf_u8, dest_stride);
 2492              		.loc 1 1201 26 is_stmt 1 discriminator 1 view .LVU819
1201:Drivers/lvgl/src/draw/sw/blend/lv_draw_sw_blend_to_i1.c ****             dest_buf_u8 = drawbuf_next_row(dest_buf_u8, dest_stride);
 2493              		.loc 1 1201 35 is_stmt 0 discriminator 1 view .LVU820
 2494 0406 079B     		ldr	r3, [sp, #28]
 2495 0408 1D44     		add	r5, r5, r3
 2496              	.LVL264:
 2497              	.L112:
1202:Drivers/lvgl/src/draw/sw/blend/lv_draw_sw_blend_to_i1.c ****             src_buf_u16 = drawbuf_next_row(src_buf_u16, src_stride);
 2498              		.loc 1 1202 13 is_stmt 1 view .LVU821
 2499              	.LBB576:
 2500              	.LBI576:
1256:Drivers/lvgl/src/draw/sw/blend/lv_draw_sw_blend_to_i1.c **** {
 2501              		.loc 1 1256 44 view .LVU822
 2502              	.LBB577:
1258:Drivers/lvgl/src/draw/sw/blend/lv_draw_sw_blend_to_i1.c **** }
 2503              		.loc 1 1258 5 view .LVU823
1258:Drivers/lvgl/src/draw/sw/blend/lv_draw_sw_blend_to_i1.c **** }
 2504              		.loc 1 1258 12 is_stmt 0 view .LVU824
 2505 040a 059B     		ldr	r3, [sp, #20]
 2506 040c 1844     		add	r0, r0, r3
 2507              	.LVL265:
1258:Drivers/lvgl/src/draw/sw/blend/lv_draw_sw_blend_to_i1.c **** }
 2508              		.loc 1 1258 12 view .LVU825
 2509              	.LBE577:
 2510              	.LBE576:
1203:Drivers/lvgl/src/draw/sw/blend/lv_draw_sw_blend_to_i1.c ****         }
 2511              		.loc 1 1203 13 is_stmt 1 view .LVU826
 2512              	.LBB578:
 2513              	.LBI578:
1256:Drivers/lvgl/src/draw/sw/blend/lv_draw_sw_blend_to_i1.c **** {
 2514              		.loc 1 1256 44 view .LVU827
 2515              	.LBB579:
1258:Drivers/lvgl/src/draw/sw/blend/lv_draw_sw_blend_to_i1.c **** }
 2516              		.loc 1 1258 5 view .LVU828
1258:Drivers/lvgl/src/draw/sw/blend/lv_draw_sw_blend_to_i1.c **** }
 2517              		.loc 1 1258 12 is_stmt 0 view .LVU829
 2518 040e 069B     		ldr	r3, [sp, #24]
 2519 0410 9944     		add	r9, r9, r3
 2520              	.LVL266:
1258:Drivers/lvgl/src/draw/sw/blend/lv_draw_sw_blend_to_i1.c **** }
 2521              		.loc 1 1258 12 view .LVU830
 2522              	.LBE579:
 2523              	.LBE578:
1190:Drivers/lvgl/src/draw/sw/blend/lv_draw_sw_blend_to_i1.c ****             for(src_x = 0, dest_x = 0; src_x < w; src_x++, dest_x++) {
 2524              		.loc 1 1190 28 is_stmt 1 discriminator 2 view .LVU831
 2525 0412 0131     		adds	r1, r1, #1
 2526              	.LVL267:
 2527              	.L80:
1190:Drivers/lvgl/src/draw/sw/blend/lv_draw_sw_blend_to_i1.c ****             for(src_x = 0, dest_x = 0; src_x < w; src_x++, dest_x++) {
ARM GAS  /var/folders/qx/2_175_4n2s19vhvtspjhb3qh0000gn/T//ccaVas4T.s 			page 89


 2528              		.loc 1 1190 22 discriminator 1 view .LVU832
 2529 0414 039B     		ldr	r3, [sp, #12]
 2530 0416 9942     		cmp	r1, r3
 2531 0418 14DA     		bge	.L79
1191:Drivers/lvgl/src/draw/sw/blend/lv_draw_sw_blend_to_i1.c ****                 px = lv_color16_from_u16(lv_color_swap_16(src_buf_u16[src_x]));
 2532              		.loc 1 1191 35 is_stmt 0 view .LVU833
 2533 041a 0026     		movs	r6, #0
1191:Drivers/lvgl/src/draw/sw/blend/lv_draw_sw_blend_to_i1.c ****                 px = lv_color16_from_u16(lv_color_swap_16(src_buf_u16[src_x]));
 2534              		.loc 1 1191 23 view .LVU834
 2535 041c 3446     		mov	r4, r6
 2536 041e 0190     		str	r0, [sp, #4]
 2537 0420 0491     		str	r1, [sp, #16]
 2538 0422 C3E7     		b	.L113
 2539              	.LVL268:
 2540              	.L114:
1191:Drivers/lvgl/src/draw/sw/blend/lv_draw_sw_blend_to_i1.c ****                 px = lv_color16_from_u16(lv_color_swap_16(src_buf_u16[src_x]));
 2541              		.loc 1 1191 23 view .LVU835
 2542 0424 8346     		mov	fp, r0
1190:Drivers/lvgl/src/draw/sw/blend/lv_draw_sw_blend_to_i1.c ****             for(src_x = 0, dest_x = 0; src_x < w; src_x++, dest_x++) {
 2543              		.loc 1 1190 15 view .LVU836
 2544 0426 4FF00009 		mov	r9, #0
 2545 042a 2846     		mov	r0, r5
 2546              	.LVL269:
1190:Drivers/lvgl/src/draw/sw/blend/lv_draw_sw_blend_to_i1.c ****             for(src_x = 0, dest_x = 0; src_x < w; src_x++, dest_x++) {
 2547              		.loc 1 1190 15 view .LVU837
 2548 042c 4546     		mov	r5, r8
 2549              	.LVL270:
1190:Drivers/lvgl/src/draw/sw/blend/lv_draw_sw_blend_to_i1.c ****             for(src_x = 0, dest_x = 0; src_x < w; src_x++, dest_x++) {
 2550              		.loc 1 1190 15 view .LVU838
 2551 042e DDF808A0 		ldr	r10, [sp, #8]
 2552 0432 CDF808C0 		str	ip, [sp, #8]
 2553 0436 CDF81CE0 		str	lr, [sp, #28]
 2554 043a 8846     		mov	r8, r1
 2555              	.LVL271:
1190:Drivers/lvgl/src/draw/sw/blend/lv_draw_sw_blend_to_i1.c ****             for(src_x = 0, dest_x = 0; src_x < w; src_x++, dest_x++) {
 2556              		.loc 1 1190 15 view .LVU839
 2557 043c 4946     		mov	r1, r9
 2558              	.LVL272:
1190:Drivers/lvgl/src/draw/sw/blend/lv_draw_sw_blend_to_i1.c ****             for(src_x = 0, dest_x = 0; src_x < w; src_x++, dest_x++) {
 2559              		.loc 1 1190 15 view .LVU840
 2560 043e DDF80490 		ldr	r9, [sp, #4]
 2561 0442 E7E7     		b	.L80
 2562              	.LVL273:
 2563              	.L79:
1190:Drivers/lvgl/src/draw/sw/blend/lv_draw_sw_blend_to_i1.c ****             for(src_x = 0, dest_x = 0; src_x < w; src_x++, dest_x++) {
 2564              		.loc 1 1190 15 view .LVU841
 2565              	.LBE571:
1206:Drivers/lvgl/src/draw/sw/blend/lv_draw_sw_blend_to_i1.c **** #endif
 2566              		.loc 1 1206 1 view .LVU842
 2567 0444 0DB0     		add	sp, sp, #52
 2568              	.LCFI9:
 2569              		.cfi_def_cfa_offset 36
 2570              		@ sp needed
 2571 0446 BDE8F08F 		pop	{r4, r5, r6, r7, r8, r9, r10, fp, pc}
1206:Drivers/lvgl/src/draw/sw/blend/lv_draw_sw_blend_to_i1.c **** #endif
 2572              		.loc 1 1206 1 view .LVU843
 2573              		.cfi_endproc
ARM GAS  /var/folders/qx/2_175_4n2s19vhvtspjhb3qh0000gn/T//ccaVas4T.s 			page 90


 2574              	.LFE189:
 2576              		.section	.text.l8_image_blend,"ax",%progbits
 2577              		.align	1
 2578              		.syntax unified
 2579              		.thumb
 2580              		.thumb_func
 2582              	l8_image_blend:
 2583              	.LVL274:
 2584              	.LFB184:
 503:Drivers/lvgl/src/draw/sw/blend/lv_draw_sw_blend_to_i1.c ****     int32_t w = dsc->dest_w;
 2585              		.loc 1 503 1 is_stmt 1 view -0
 2586              		.cfi_startproc
 2587              		@ args = 0, pretend = 0, frame = 40
 2588              		@ frame_needed = 0, uses_anonymous_args = 0
 503:Drivers/lvgl/src/draw/sw/blend/lv_draw_sw_blend_to_i1.c ****     int32_t w = dsc->dest_w;
 2589              		.loc 1 503 1 is_stmt 0 view .LVU845
 2590 0000 2DE9F04F 		push	{r4, r5, r6, r7, r8, r9, r10, fp, lr}
 2591              	.LCFI10:
 2592              		.cfi_def_cfa_offset 36
 2593              		.cfi_offset 4, -36
 2594              		.cfi_offset 5, -32
 2595              		.cfi_offset 6, -28
 2596              		.cfi_offset 7, -24
 2597              		.cfi_offset 8, -20
 2598              		.cfi_offset 9, -16
 2599              		.cfi_offset 10, -12
 2600              		.cfi_offset 11, -8
 2601              		.cfi_offset 14, -4
 2602 0004 8BB0     		sub	sp, sp, #44
 2603              	.LCFI11:
 2604              		.cfi_def_cfa_offset 80
 2605 0006 8246     		mov	r10, r0
 504:Drivers/lvgl/src/draw/sw/blend/lv_draw_sw_blend_to_i1.c ****     int32_t h = dsc->dest_h;
 2606              		.loc 1 504 5 is_stmt 1 view .LVU846
 504:Drivers/lvgl/src/draw/sw/blend/lv_draw_sw_blend_to_i1.c ****     int32_t h = dsc->dest_h;
 2607              		.loc 1 504 13 is_stmt 0 view .LVU847
 2608 0008 D0F80480 		ldr	r8, [r0, #4]
 2609              	.LVL275:
 505:Drivers/lvgl/src/draw/sw/blend/lv_draw_sw_blend_to_i1.c ****     lv_opa_t opa = dsc->opa;
 2610              		.loc 1 505 5 is_stmt 1 view .LVU848
 505:Drivers/lvgl/src/draw/sw/blend/lv_draw_sw_blend_to_i1.c ****     lv_opa_t opa = dsc->opa;
 2611              		.loc 1 505 13 is_stmt 0 view .LVU849
 2612 000c 8568     		ldr	r5, [r0, #8]
 2613              	.LVL276:
 506:Drivers/lvgl/src/draw/sw/blend/lv_draw_sw_blend_to_i1.c ****     uint8_t * dest_buf_i1 = dsc->dest_buf;
 2614              		.loc 1 506 5 is_stmt 1 view .LVU850
 506:Drivers/lvgl/src/draw/sw/blend/lv_draw_sw_blend_to_i1.c ****     uint8_t * dest_buf_i1 = dsc->dest_buf;
 2615              		.loc 1 506 14 is_stmt 0 view .LVU851
 2616 000e 90F821B0 		ldrb	fp, [r0, #33]	@ zero_extendqisi2
 2617              	.LVL277:
 507:Drivers/lvgl/src/draw/sw/blend/lv_draw_sw_blend_to_i1.c ****     int32_t dest_stride = dsc->dest_stride;
 2618              		.loc 1 507 5 is_stmt 1 view .LVU852
 507:Drivers/lvgl/src/draw/sw/blend/lv_draw_sw_blend_to_i1.c ****     int32_t dest_stride = dsc->dest_stride;
 2619              		.loc 1 507 15 is_stmt 0 view .LVU853
 2620 0012 0468     		ldr	r4, [r0]
 2621              	.LVL278:
 508:Drivers/lvgl/src/draw/sw/blend/lv_draw_sw_blend_to_i1.c ****     const uint8_t * src_buf_l8 = dsc->src_buf;
ARM GAS  /var/folders/qx/2_175_4n2s19vhvtspjhb3qh0000gn/T//ccaVas4T.s 			page 91


 2622              		.loc 1 508 5 is_stmt 1 view .LVU854
 508:Drivers/lvgl/src/draw/sw/blend/lv_draw_sw_blend_to_i1.c ****     const uint8_t * src_buf_l8 = dsc->src_buf;
 2623              		.loc 1 508 13 is_stmt 0 view .LVU855
 2624 0014 D0F80CE0 		ldr	lr, [r0, #12]
 2625              	.LVL279:
 509:Drivers/lvgl/src/draw/sw/blend/lv_draw_sw_blend_to_i1.c ****     int32_t src_stride = dsc->src_stride;
 2626              		.loc 1 509 5 is_stmt 1 view .LVU856
 509:Drivers/lvgl/src/draw/sw/blend/lv_draw_sw_blend_to_i1.c ****     int32_t src_stride = dsc->src_stride;
 2627              		.loc 1 509 21 is_stmt 0 view .LVU857
 2628 0018 8769     		ldr	r7, [r0, #24]
 2629              	.LVL280:
 510:Drivers/lvgl/src/draw/sw/blend/lv_draw_sw_blend_to_i1.c ****     const lv_opa_t * mask_buf = dsc->mask_buf;
 2630              		.loc 1 510 5 is_stmt 1 view .LVU858
 510:Drivers/lvgl/src/draw/sw/blend/lv_draw_sw_blend_to_i1.c ****     const lv_opa_t * mask_buf = dsc->mask_buf;
 2631              		.loc 1 510 13 is_stmt 0 view .LVU859
 2632 001a C369     		ldr	r3, [r0, #28]
 2633 001c 0293     		str	r3, [sp, #8]
 2634              	.LVL281:
 511:Drivers/lvgl/src/draw/sw/blend/lv_draw_sw_blend_to_i1.c ****     int32_t mask_stride = dsc->mask_stride;
 2635              		.loc 1 511 5 is_stmt 1 view .LVU860
 511:Drivers/lvgl/src/draw/sw/blend/lv_draw_sw_blend_to_i1.c ****     int32_t mask_stride = dsc->mask_stride;
 2636              		.loc 1 511 22 is_stmt 0 view .LVU861
 2637 001e 0669     		ldr	r6, [r0, #16]
 2638              	.LVL282:
 512:Drivers/lvgl/src/draw/sw/blend/lv_draw_sw_blend_to_i1.c **** 
 2639              		.loc 1 512 5 is_stmt 1 view .LVU862
 512:Drivers/lvgl/src/draw/sw/blend/lv_draw_sw_blend_to_i1.c **** 
 2640              		.loc 1 512 13 is_stmt 0 view .LVU863
 2641 0020 4269     		ldr	r2, [r0, #20]
 2642              	.LVL283:
 514:Drivers/lvgl/src/draw/sw/blend/lv_draw_sw_blend_to_i1.c ****     int32_t y;
 2643              		.loc 1 514 5 is_stmt 1 view .LVU864
 515:Drivers/lvgl/src/draw/sw/blend/lv_draw_sw_blend_to_i1.c **** 
 2644              		.loc 1 515 5 view .LVU865
 517:Drivers/lvgl/src/draw/sw/blend/lv_draw_sw_blend_to_i1.c **** 
 2645              		.loc 1 517 5 view .LVU866
 517:Drivers/lvgl/src/draw/sw/blend/lv_draw_sw_blend_to_i1.c **** 
 2646              		.loc 1 517 41 is_stmt 0 view .LVU867
 2647 0022 436A     		ldr	r3, [r0, #36]
 2648              	.LVL284:
 517:Drivers/lvgl/src/draw/sw/blend/lv_draw_sw_blend_to_i1.c **** 
 2649              		.loc 1 517 13 view .LVU868
 2650 0024 5842     		rsbs	r0, r3, #0
 2651              	.LVL285:
 517:Drivers/lvgl/src/draw/sw/blend/lv_draw_sw_blend_to_i1.c **** 
 2652              		.loc 1 517 13 view .LVU869
 2653 0026 03F00703 		and	r3, r3, #7
 2654 002a 00F00700 		and	r0, r0, #7
 2655 002e 58BF     		it	pl
 2656 0030 4342     		rsbpl	r3, r0, #0
 2657              	.LVL286:
 519:Drivers/lvgl/src/draw/sw/blend/lv_draw_sw_blend_to_i1.c ****         if(mask_buf == NULL && opa >= LV_OPA_MAX) {
 2658              		.loc 1 519 5 is_stmt 1 view .LVU870
 519:Drivers/lvgl/src/draw/sw/blend/lv_draw_sw_blend_to_i1.c ****         if(mask_buf == NULL && opa >= LV_OPA_MAX) {
 2659              		.loc 1 519 11 is_stmt 0 view .LVU871
 2660 0032 9AF82200 		ldrb	r0, [r10, #34]	@ zero_extendqisi2
 519:Drivers/lvgl/src/draw/sw/blend/lv_draw_sw_blend_to_i1.c ****         if(mask_buf == NULL && opa >= LV_OPA_MAX) {
ARM GAS  /var/folders/qx/2_175_4n2s19vhvtspjhb3qh0000gn/T//ccaVas4T.s 			page 92


 2661              		.loc 1 519 7 view .LVU872
 2662 0036 0028     		cmp	r0, #0
 2663 0038 40F09181 		bne	.L173
 520:Drivers/lvgl/src/draw/sw/blend/lv_draw_sw_blend_to_i1.c ****             if(LV_RESULT_INVALID == LV_DRAW_SW_L8_BLEND_NORMAL_TO_I1(dsc)) {
 2664              		.loc 1 520 9 is_stmt 1 view .LVU873
 520:Drivers/lvgl/src/draw/sw/blend/lv_draw_sw_blend_to_i1.c ****             if(LV_RESULT_INVALID == LV_DRAW_SW_L8_BLEND_NORMAL_TO_I1(dsc)) {
 2665              		.loc 1 520 11 is_stmt 0 view .LVU874
 2666 003c B6B1     		cbz	r6, .L184
 554:Drivers/lvgl/src/draw/sw/blend/lv_draw_sw_blend_to_i1.c ****             if(LV_RESULT_INVALID == LV_DRAW_SW_L8_BLEND_NORMAL_TO_I1_WITH_MASK(dsc)) {
 2667              		.loc 1 554 14 is_stmt 1 view .LVU875
 554:Drivers/lvgl/src/draw/sw/blend/lv_draw_sw_blend_to_i1.c ****             if(LV_RESULT_INVALID == LV_DRAW_SW_L8_BLEND_NORMAL_TO_I1_WITH_MASK(dsc)) {
 2668              		.loc 1 554 16 is_stmt 0 view .LVU876
 2669 003e 002E     		cmp	r6, #0
 2670 0040 00F09781 		beq	.L138
 554:Drivers/lvgl/src/draw/sw/blend/lv_draw_sw_blend_to_i1.c ****             if(LV_RESULT_INVALID == LV_DRAW_SW_L8_BLEND_NORMAL_TO_I1_WITH_MASK(dsc)) {
 2671              		.loc 1 554 26 discriminator 1 view .LVU877
 2672 0044 BBF1FC0F 		cmp	fp, #252
 2673 0048 00F20281 		bhi	.L177
 574:Drivers/lvgl/src/draw/sw/blend/lv_draw_sw_blend_to_i1.c ****             if(LV_RESULT_INVALID == LV_DRAW_SW_L8_BLEND_NORMAL_TO_I1_MIX_MASK_OPA(dsc)) {
 2674              		.loc 1 574 14 is_stmt 1 view .LVU878
 574:Drivers/lvgl/src/draw/sw/blend/lv_draw_sw_blend_to_i1.c ****             if(LV_RESULT_INVALID == LV_DRAW_SW_L8_BLEND_NORMAL_TO_I1_MIX_MASK_OPA(dsc)) {
 2675              		.loc 1 574 16 is_stmt 0 view .LVU879
 2676 004c 002E     		cmp	r6, #0
 2677 004e 00F09081 		beq	.L138
 576:Drivers/lvgl/src/draw/sw/blend/lv_draw_sw_blend_to_i1.c ****                     for(dest_x = 0, src_x = 0; src_x < w; dest_x++, src_x++) {
 2678              		.loc 1 576 23 view .LVU880
 2679 0052 4FF00009 		mov	r9, #0
 2680 0056 0595     		str	r5, [sp, #20]
 2681 0058 CDF804B0 		str	fp, [sp, #4]
 2682 005c B346     		mov	fp, r6
 2683              	.LVL287:
 576:Drivers/lvgl/src/draw/sw/blend/lv_draw_sw_blend_to_i1.c ****                     for(dest_x = 0, src_x = 0; src_x < w; dest_x++, src_x++) {
 2684              		.loc 1 576 23 view .LVU881
 2685 005e 3E46     		mov	r6, r7
 2686              	.LVL288:
 576:Drivers/lvgl/src/draw/sw/blend/lv_draw_sw_blend_to_i1.c ****                     for(dest_x = 0, src_x = 0; src_x < w; dest_x++, src_x++) {
 2687              		.loc 1 576 23 view .LVU882
 2688 0060 4F46     		mov	r7, r9
 2689              	.LVL289:
 576:Drivers/lvgl/src/draw/sw/blend/lv_draw_sw_blend_to_i1.c ****                     for(dest_x = 0, src_x = 0; src_x < w; dest_x++, src_x++) {
 2690              		.loc 1 576 23 view .LVU883
 2691 0062 CDF818E0 		str	lr, [sp, #24]
 2692 0066 0792     		str	r2, [sp, #28]
 2693 0068 0393     		str	r3, [sp, #12]
 2694 006a 40E1     		b	.L162
 2695              	.LVL290:
 2696              	.L184:
 520:Drivers/lvgl/src/draw/sw/blend/lv_draw_sw_blend_to_i1.c ****             if(LV_RESULT_INVALID == LV_DRAW_SW_L8_BLEND_NORMAL_TO_I1(dsc)) {
 2697              		.loc 1 520 29 discriminator 1 view .LVU884
 2698 006c BBF1FC0F 		cmp	fp, #252
 2699 0070 54D8     		bhi	.L174
 2700 0072 B146     		mov	r9, r6
 2701 0074 2646     		mov	r6, r4
 2702              	.LVL291:
 520:Drivers/lvgl/src/draw/sw/blend/lv_draw_sw_blend_to_i1.c ****             if(LV_RESULT_INVALID == LV_DRAW_SW_L8_BLEND_NORMAL_TO_I1(dsc)) {
 2703              		.loc 1 520 29 discriminator 1 view .LVU885
 2704 0076 0495     		str	r5, [sp, #16]
ARM GAS  /var/folders/qx/2_175_4n2s19vhvtspjhb3qh0000gn/T//ccaVas4T.s 			page 93


 2705 0078 CDF804B0 		str	fp, [sp, #4]
 2706 007c BB46     		mov	fp, r7
 2707              	.LVL292:
 520:Drivers/lvgl/src/draw/sw/blend/lv_draw_sw_blend_to_i1.c ****             if(LV_RESULT_INVALID == LV_DRAW_SW_L8_BLEND_NORMAL_TO_I1(dsc)) {
 2708              		.loc 1 520 29 discriminator 1 view .LVU886
 2709 007e CDF814E0 		str	lr, [sp, #20]
 2710 0082 1F46     		mov	r7, r3
 2711              	.LVL293:
 520:Drivers/lvgl/src/draw/sw/blend/lv_draw_sw_blend_to_i1.c ****             if(LV_RESULT_INVALID == LV_DRAW_SW_L8_BLEND_NORMAL_TO_I1(dsc)) {
 2712              		.loc 1 520 29 discriminator 1 view .LVU887
 2713 0084 90E0     		b	.L142
 2714              	.LVL294:
 2715              	.L187:
 525:Drivers/lvgl/src/draw/sw/blend/lv_draw_sw_blend_to_i1.c ****                         }
 2716              		.loc 1 525 29 is_stmt 1 view .LVU888
 2717 0086 C218     		adds	r2, r0, r3
 2718              	.LVL295:
 2719              	.LBB580:
 2720              	.LBI580:
1261:Drivers/lvgl/src/draw/sw/blend/lv_draw_sw_blend_to_i1.c **** {
 2721              		.loc 1 1261 42 view .LVU889
 2722              	.LBB581:
1263:Drivers/lvgl/src/draw/sw/blend/lv_draw_sw_blend_to_i1.c **** }
 2723              		.loc 1 1263 5 view .LVU890
1263:Drivers/lvgl/src/draw/sw/blend/lv_draw_sw_blend_to_i1.c **** }
 2724              		.loc 1 1263 17 is_stmt 0 view .LVU891
 2725 0088 1646     		mov	r6, r2
 2726 008a 002A     		cmp	r2, #0
 2727 008c 16DB     		blt	.L185
 2728              	.L144:
1263:Drivers/lvgl/src/draw/sw/blend/lv_draw_sw_blend_to_i1.c **** }
 2729              		.loc 1 1263 17 view .LVU892
 2730 008e F610     		asrs	r6, r6, #3
1263:Drivers/lvgl/src/draw/sw/blend/lv_draw_sw_blend_to_i1.c **** }
 2731              		.loc 1 1263 8 view .LVU893
 2732 0090 14F806C0 		ldrb	ip, [r4, r6]	@ zero_extendqisi2
1263:Drivers/lvgl/src/draw/sw/blend/lv_draw_sw_blend_to_i1.c **** }
 2733              		.loc 1 1263 45 view .LVU894
 2734 0094 D2F1000B 		rsbs	fp, r2, #0
 2735 0098 02F00702 		and	r2, r2, #7
 2736              	.LVL296:
1263:Drivers/lvgl/src/draw/sw/blend/lv_draw_sw_blend_to_i1.c **** }
 2737              		.loc 1 1263 45 view .LVU895
 2738 009c 0BF0070B 		and	fp, fp, #7
 2739 00a0 58BF     		it	pl
 2740 00a2 CBF10002 		rsbpl	r2, fp, #0
1263:Drivers/lvgl/src/draw/sw/blend/lv_draw_sw_blend_to_i1.c **** }
 2741              		.loc 1 1263 34 view .LVU896
 2742 00a6 C2F10702 		rsb	r2, r2, #7
1263:Drivers/lvgl/src/draw/sw/blend/lv_draw_sw_blend_to_i1.c **** }
 2743              		.loc 1 1263 28 view .LVU897
 2744 00aa 4FF0010B 		mov	fp, #1
 2745 00ae 0BFA02F2 		lsl	r2, fp, r2
1263:Drivers/lvgl/src/draw/sw/blend/lv_draw_sw_blend_to_i1.c **** }
 2746              		.loc 1 1263 22 view .LVU898
 2747 00b2 4CEA020C 		orr	ip, ip, r2
 2748 00b6 04F806C0 		strb	ip, [r4, r6]
ARM GAS  /var/folders/qx/2_175_4n2s19vhvtspjhb3qh0000gn/T//ccaVas4T.s 			page 94


 2749              	.LVL297:
1264:Drivers/lvgl/src/draw/sw/blend/lv_draw_sw_blend_to_i1.c **** 
 2750              		.loc 1 1264 1 view .LVU899
 2751 00ba 18E0     		b	.L145
 2752              	.LVL298:
 2753              	.L185:
1263:Drivers/lvgl/src/draw/sw/blend/lv_draw_sw_blend_to_i1.c **** }
 2754              		.loc 1 1263 17 view .LVU900
 2755 00bc D61D     		adds	r6, r2, #7
 2756 00be E6E7     		b	.L144
 2757              	.LVL299:
 2758              	.L146:
1263:Drivers/lvgl/src/draw/sw/blend/lv_draw_sw_blend_to_i1.c **** }
 2759              		.loc 1 1263 17 view .LVU901
 2760              	.LBE581:
 2761              	.LBE580:
 2762              	.LBB582:
 2763              	.LBB583:
1268:Drivers/lvgl/src/draw/sw/blend/lv_draw_sw_blend_to_i1.c **** }
 2764              		.loc 1 1268 17 view .LVU902
 2765 00c0 F610     		asrs	r6, r6, #3
1268:Drivers/lvgl/src/draw/sw/blend/lv_draw_sw_blend_to_i1.c **** }
 2766              		.loc 1 1268 8 view .LVU903
 2767 00c2 14F806C0 		ldrb	ip, [r4, r6]	@ zero_extendqisi2
1268:Drivers/lvgl/src/draw/sw/blend/lv_draw_sw_blend_to_i1.c **** }
 2768              		.loc 1 1268 46 view .LVU904
 2769 00c6 D2F1000B 		rsbs	fp, r2, #0
 2770 00ca 02F00702 		and	r2, r2, #7
 2771              	.LVL300:
1268:Drivers/lvgl/src/draw/sw/blend/lv_draw_sw_blend_to_i1.c **** }
 2772              		.loc 1 1268 46 view .LVU905
 2773 00ce 0BF0070B 		and	fp, fp, #7
 2774 00d2 58BF     		it	pl
 2775 00d4 CBF10002 		rsbpl	r2, fp, #0
1268:Drivers/lvgl/src/draw/sw/blend/lv_draw_sw_blend_to_i1.c **** }
 2776              		.loc 1 1268 35 view .LVU906
 2777 00d8 C2F1070B 		rsb	fp, r2, #7
1268:Drivers/lvgl/src/draw/sw/blend/lv_draw_sw_blend_to_i1.c **** }
 2778              		.loc 1 1268 29 view .LVU907
 2779 00dc 0122     		movs	r2, #1
 2780 00de 02FA0BF2 		lsl	r2, r2, fp
1268:Drivers/lvgl/src/draw/sw/blend/lv_draw_sw_blend_to_i1.c **** }
 2781              		.loc 1 1268 22 view .LVU908
 2782 00e2 D243     		mvns	r2, r2
 2783 00e4 52B2     		sxtb	r2, r2
 2784 00e6 0CEA020C 		and	ip, ip, r2
 2785 00ea 04F806C0 		strb	ip, [r4, r6]
 2786              	.LVL301:
 2787              	.L145:
1268:Drivers/lvgl/src/draw/sw/blend/lv_draw_sw_blend_to_i1.c **** }
 2788              		.loc 1 1268 22 view .LVU909
 2789              	.LBE583:
 2790              	.LBE582:
 523:Drivers/lvgl/src/draw/sw/blend/lv_draw_sw_blend_to_i1.c ****                         if(src_buf_l8[src_x] > I1_LUM_THRESHOLD) {
 2791              		.loc 1 523 67 is_stmt 1 discriminator 2 view .LVU910
 523:Drivers/lvgl/src/draw/sw/blend/lv_draw_sw_blend_to_i1.c ****                         if(src_buf_l8[src_x] > I1_LUM_THRESHOLD) {
 2792              		.loc 1 523 65 is_stmt 0 discriminator 2 view .LVU911
ARM GAS  /var/folders/qx/2_175_4n2s19vhvtspjhb3qh0000gn/T//ccaVas4T.s 			page 95


 2793 00ee 0130     		adds	r0, r0, #1
 2794              	.LVL302:
 523:Drivers/lvgl/src/draw/sw/blend/lv_draw_sw_blend_to_i1.c ****                         if(src_buf_l8[src_x] > I1_LUM_THRESHOLD) {
 2795              		.loc 1 523 74 discriminator 2 view .LVU912
 2796 00f0 0131     		adds	r1, r1, #1
 2797              	.LVL303:
 2798              	.L148:
 523:Drivers/lvgl/src/draw/sw/blend/lv_draw_sw_blend_to_i1.c ****                         if(src_buf_l8[src_x] > I1_LUM_THRESHOLD) {
 2799              		.loc 1 523 54 is_stmt 1 discriminator 1 view .LVU913
 2800 00f2 4145     		cmp	r1, r8
 2801 00f4 08DA     		bge	.L186
 524:Drivers/lvgl/src/draw/sw/blend/lv_draw_sw_blend_to_i1.c ****                             set_bit(dest_buf_i1, dest_x + bit_ofs);
 2802              		.loc 1 524 25 view .LVU914
 524:Drivers/lvgl/src/draw/sw/blend/lv_draw_sw_blend_to_i1.c ****                             set_bit(dest_buf_i1, dest_x + bit_ofs);
 2803              		.loc 1 524 46 is_stmt 0 view .LVU915
 2804 00f6 7A56     		ldrsb	r2, [r7, r1]
 524:Drivers/lvgl/src/draw/sw/blend/lv_draw_sw_blend_to_i1.c ****                             set_bit(dest_buf_i1, dest_x + bit_ofs);
 2805              		.loc 1 524 27 view .LVU916
 2806 00f8 002A     		cmp	r2, #0
 2807 00fa C4DB     		blt	.L187
 528:Drivers/lvgl/src/draw/sw/blend/lv_draw_sw_blend_to_i1.c ****                         }
 2808              		.loc 1 528 29 is_stmt 1 view .LVU917
 2809 00fc C218     		adds	r2, r0, r3
 2810              	.LVL304:
 2811              	.LBB585:
 2812              	.LBI582:
1266:Drivers/lvgl/src/draw/sw/blend/lv_draw_sw_blend_to_i1.c **** {
 2813              		.loc 1 1266 42 view .LVU918
 2814              	.LBB584:
1268:Drivers/lvgl/src/draw/sw/blend/lv_draw_sw_blend_to_i1.c **** }
 2815              		.loc 1 1268 5 view .LVU919
1268:Drivers/lvgl/src/draw/sw/blend/lv_draw_sw_blend_to_i1.c **** }
 2816              		.loc 1 1268 17 is_stmt 0 view .LVU920
 2817 00fe 1646     		mov	r6, r2
 2818 0100 002A     		cmp	r2, #0
 2819 0102 DDDA     		bge	.L146
1268:Drivers/lvgl/src/draw/sw/blend/lv_draw_sw_blend_to_i1.c **** }
 2820              		.loc 1 1268 17 view .LVU921
 2821 0104 D61D     		adds	r6, r2, #7
 2822 0106 DBE7     		b	.L146
 2823              	.LVL305:
 2824              	.L186:
1268:Drivers/lvgl/src/draw/sw/blend/lv_draw_sw_blend_to_i1.c **** }
 2825              		.loc 1 1268 17 view .LVU922
 2826              	.LBE584:
 2827              	.LBE585:
 531:Drivers/lvgl/src/draw/sw/blend/lv_draw_sw_blend_to_i1.c ****                     src_buf_l8 = drawbuf_next_row(src_buf_l8, src_stride);
 2828              		.loc 1 531 21 is_stmt 1 view .LVU923
 2829              	.LBB586:
 2830              	.LBI586:
1256:Drivers/lvgl/src/draw/sw/blend/lv_draw_sw_blend_to_i1.c **** {
 2831              		.loc 1 1256 44 view .LVU924
 2832              	.LBB587:
1258:Drivers/lvgl/src/draw/sw/blend/lv_draw_sw_blend_to_i1.c **** }
 2833              		.loc 1 1258 5 view .LVU925
1258:Drivers/lvgl/src/draw/sw/blend/lv_draw_sw_blend_to_i1.c **** }
 2834              		.loc 1 1258 12 is_stmt 0 view .LVU926
ARM GAS  /var/folders/qx/2_175_4n2s19vhvtspjhb3qh0000gn/T//ccaVas4T.s 			page 96


 2835 0108 7444     		add	r4, r4, lr
 2836              	.LVL306:
1258:Drivers/lvgl/src/draw/sw/blend/lv_draw_sw_blend_to_i1.c **** }
 2837              		.loc 1 1258 12 view .LVU927
 2838              	.LBE587:
 2839              	.LBE586:
 532:Drivers/lvgl/src/draw/sw/blend/lv_draw_sw_blend_to_i1.c ****                 }
 2840              		.loc 1 532 21 is_stmt 1 view .LVU928
 2841              	.LBB588:
 2842              	.LBI588:
1256:Drivers/lvgl/src/draw/sw/blend/lv_draw_sw_blend_to_i1.c **** {
 2843              		.loc 1 1256 44 view .LVU929
 2844              	.LBB589:
1258:Drivers/lvgl/src/draw/sw/blend/lv_draw_sw_blend_to_i1.c **** }
 2845              		.loc 1 1258 5 view .LVU930
1258:Drivers/lvgl/src/draw/sw/blend/lv_draw_sw_blend_to_i1.c **** }
 2846              		.loc 1 1258 12 is_stmt 0 view .LVU931
 2847 010a 4F44     		add	r7, r7, r9
 2848              	.LVL307:
1258:Drivers/lvgl/src/draw/sw/blend/lv_draw_sw_blend_to_i1.c **** }
 2849              		.loc 1 1258 12 view .LVU932
 2850              	.LBE589:
 2851              	.LBE588:
 522:Drivers/lvgl/src/draw/sw/blend/lv_draw_sw_blend_to_i1.c ****                     for(dest_x = 0, src_x = 0; src_x < w; dest_x++, src_x++) {
 2852              		.loc 1 522 36 is_stmt 1 discriminator 2 view .LVU933
 2853 010c 0AF1010A 		add	r10, r10, #1
 2854              	.LVL308:
 2855              	.L141:
 522:Drivers/lvgl/src/draw/sw/blend/lv_draw_sw_blend_to_i1.c ****                     for(dest_x = 0, src_x = 0; src_x < w; dest_x++, src_x++) {
 2856              		.loc 1 522 30 discriminator 1 view .LVU934
 2857 0110 AA45     		cmp	r10, r5
 2858 0112 80F22E81 		bge	.L138
 523:Drivers/lvgl/src/draw/sw/blend/lv_draw_sw_blend_to_i1.c ****                         if(src_buf_l8[src_x] > I1_LUM_THRESHOLD) {
 2859              		.loc 1 523 32 is_stmt 0 view .LVU935
 2860 0116 0020     		movs	r0, #0
 523:Drivers/lvgl/src/draw/sw/blend/lv_draw_sw_blend_to_i1.c ****                         if(src_buf_l8[src_x] > I1_LUM_THRESHOLD) {
 2861              		.loc 1 523 43 view .LVU936
 2862 0118 0146     		mov	r1, r0
 2863 011a EAE7     		b	.L148
 2864              	.LVL309:
 2865              	.L174:
 522:Drivers/lvgl/src/draw/sw/blend/lv_draw_sw_blend_to_i1.c ****                     for(dest_x = 0, src_x = 0; src_x < w; dest_x++, src_x++) {
 2866              		.loc 1 522 23 view .LVU937
 2867 011c 4FF0000A 		mov	r10, #0
 2868              	.LVL310:
 522:Drivers/lvgl/src/draw/sw/blend/lv_draw_sw_blend_to_i1.c ****                     for(dest_x = 0, src_x = 0; src_x < w; dest_x++, src_x++) {
 2869              		.loc 1 522 23 view .LVU938
 2870 0120 DDF80890 		ldr	r9, [sp, #8]
 2871 0124 F4E7     		b	.L141
 2872              	.LVL311:
 2873              	.L189:
 2874              	.LBB590:
 2875              	.LBB591:
 2876              	.LBB592:
1273:Drivers/lvgl/src/draw/sw/blend/lv_draw_sw_blend_to_i1.c **** }
 2877              		.loc 1 1273 25 view .LVU939
 2878 0126 05F10709 		add	r9, r5, #7
ARM GAS  /var/folders/qx/2_175_4n2s19vhvtspjhb3qh0000gn/T//ccaVas4T.s 			page 97


 2879 012a 11E0     		b	.L150
 2880              	.LVL312:
 2881              	.L151:
1273:Drivers/lvgl/src/draw/sw/blend/lv_draw_sw_blend_to_i1.c **** }
 2882              		.loc 1 1273 25 view .LVU940
 2883              	.LBE592:
 2884              	.LBE591:
 546:Drivers/lvgl/src/draw/sw/blend/lv_draw_sw_blend_to_i1.c ****                         }
 2885              		.loc 1 546 29 is_stmt 1 view .LVU941
 2886              	.LBB594:
 2887              	.LBI594:
1266:Drivers/lvgl/src/draw/sw/blend/lv_draw_sw_blend_to_i1.c **** {
 2888              		.loc 1 1266 42 view .LVU942
 2889              	.LBB595:
1268:Drivers/lvgl/src/draw/sw/blend/lv_draw_sw_blend_to_i1.c **** }
 2890              		.loc 1 1268 5 view .LVU943
1268:Drivers/lvgl/src/draw/sw/blend/lv_draw_sw_blend_to_i1.c **** }
 2891              		.loc 1 1268 8 is_stmt 0 view .LVU944
 2892 012c 16F80920 		ldrb	r2, [r6, r9]	@ zero_extendqisi2
1268:Drivers/lvgl/src/draw/sw/blend/lv_draw_sw_blend_to_i1.c **** }
 2893              		.loc 1 1268 29 view .LVU945
 2894 0130 0123     		movs	r3, #1
 2895 0132 AB40     		lsls	r3, r3, r5
1268:Drivers/lvgl/src/draw/sw/blend/lv_draw_sw_blend_to_i1.c **** }
 2896              		.loc 1 1268 22 view .LVU946
 2897 0134 DB43     		mvns	r3, r3
 2898 0136 5BB2     		sxtb	r3, r3
 2899 0138 1340     		ands	r3, r3, r2
 2900 013a 06F80930 		strb	r3, [r6, r9]
 2901              	.LVL313:
 2902              	.L152:
1268:Drivers/lvgl/src/draw/sw/blend/lv_draw_sw_blend_to_i1.c **** }
 2903              		.loc 1 1268 22 view .LVU947
 2904              	.LBE595:
 2905              	.LBE594:
 2906              	.LBE590:
 539:Drivers/lvgl/src/draw/sw/blend/lv_draw_sw_blend_to_i1.c ****                         uint8_t dest_val = get_bit(dest_buf_i1, dest_x + bit_ofs) * 255;
 2907              		.loc 1 539 67 is_stmt 1 discriminator 2 view .LVU948
 539:Drivers/lvgl/src/draw/sw/blend/lv_draw_sw_blend_to_i1.c ****                         uint8_t dest_val = get_bit(dest_buf_i1, dest_x + bit_ofs) * 255;
 2908              		.loc 1 539 65 is_stmt 0 discriminator 2 view .LVU949
 2909 013e 0134     		adds	r4, r4, #1
 2910              	.LVL314:
 539:Drivers/lvgl/src/draw/sw/blend/lv_draw_sw_blend_to_i1.c ****                         uint8_t dest_val = get_bit(dest_buf_i1, dest_x + bit_ofs) * 255;
 2911              		.loc 1 539 74 discriminator 2 view .LVU950
 2912 0140 0AF1010A 		add	r10, r10, #1
 2913              	.LVL315:
 2914              	.L154:
 539:Drivers/lvgl/src/draw/sw/blend/lv_draw_sw_blend_to_i1.c ****                         uint8_t dest_val = get_bit(dest_buf_i1, dest_x + bit_ofs) * 255;
 2915              		.loc 1 539 54 is_stmt 1 discriminator 1 view .LVU951
 2916 0144 C245     		cmp	r10, r8
 2917 0146 27DA     		bge	.L188
 2918              	.LBB599:
 540:Drivers/lvgl/src/draw/sw/blend/lv_draw_sw_blend_to_i1.c ****                         lv_color_8_8_mix(src_buf_l8[src_x], &dest_val, opa);
 2919              		.loc 1 540 25 view .LVU952
 540:Drivers/lvgl/src/draw/sw/blend/lv_draw_sw_blend_to_i1.c ****                         lv_color_8_8_mix(src_buf_l8[src_x], &dest_val, opa);
 2920              		.loc 1 540 44 is_stmt 0 view .LVU953
 2921 0148 E519     		adds	r5, r4, r7
ARM GAS  /var/folders/qx/2_175_4n2s19vhvtspjhb3qh0000gn/T//ccaVas4T.s 			page 98


 2922              	.LVL316:
 2923              	.LBB596:
 2924              	.LBI591:
1271:Drivers/lvgl/src/draw/sw/blend/lv_draw_sw_blend_to_i1.c **** {
 2925              		.loc 1 1271 45 is_stmt 1 view .LVU954
 2926              	.LBB593:
1273:Drivers/lvgl/src/draw/sw/blend/lv_draw_sw_blend_to_i1.c **** }
 2927              		.loc 1 1273 5 view .LVU955
1273:Drivers/lvgl/src/draw/sw/blend/lv_draw_sw_blend_to_i1.c **** }
 2928              		.loc 1 1273 25 is_stmt 0 view .LVU956
 2929 014a A946     		mov	r9, r5
 2930 014c 002D     		cmp	r5, #0
 2931 014e EADB     		blt	.L189
 2932              	.L150:
1273:Drivers/lvgl/src/draw/sw/blend/lv_draw_sw_blend_to_i1.c **** }
 2933              		.loc 1 1273 25 view .LVU957
 2934 0150 4FEAE909 		asr	r9, r9, #3
1273:Drivers/lvgl/src/draw/sw/blend/lv_draw_sw_blend_to_i1.c **** }
 2935              		.loc 1 1273 16 view .LVU958
 2936 0154 16F80930 		ldrb	r3, [r6, r9]	@ zero_extendqisi2
1273:Drivers/lvgl/src/draw/sw/blend/lv_draw_sw_blend_to_i1.c **** }
 2937              		.loc 1 1273 47 view .LVU959
 2938 0158 6A42     		rsbs	r2, r5, #0
 2939 015a 05F00705 		and	r5, r5, #7
 2940              	.LVL317:
1273:Drivers/lvgl/src/draw/sw/blend/lv_draw_sw_blend_to_i1.c **** }
 2941              		.loc 1 1273 47 view .LVU960
 2942 015e 02F00702 		and	r2, r2, #7
 2943 0162 58BF     		it	pl
 2944 0164 5542     		rsbpl	r5, r2, #0
1273:Drivers/lvgl/src/draw/sw/blend/lv_draw_sw_blend_to_i1.c **** }
 2945              		.loc 1 1273 36 view .LVU961
 2946 0166 C5F10705 		rsb	r5, r5, #7
1273:Drivers/lvgl/src/draw/sw/blend/lv_draw_sw_blend_to_i1.c **** }
 2947              		.loc 1 1273 30 view .LVU962
 2948 016a 2B41     		asrs	r3, r3, r5
 2949              	.LVL318:
1273:Drivers/lvgl/src/draw/sw/blend/lv_draw_sw_blend_to_i1.c **** }
 2950              		.loc 1 1273 30 view .LVU963
 2951              	.LBE593:
 2952              	.LBE596:
 540:Drivers/lvgl/src/draw/sw/blend/lv_draw_sw_blend_to_i1.c ****                         lv_color_8_8_mix(src_buf_l8[src_x], &dest_val, opa);
 2953              		.loc 1 540 33 discriminator 1 view .LVU964
 2954 016c 43F30003 		sbfx	r3, r3, #0, #1
 2955 0170 8DF82430 		strb	r3, [sp, #36]
 541:Drivers/lvgl/src/draw/sw/blend/lv_draw_sw_blend_to_i1.c ****                         if(dest_val > I1_LUM_THRESHOLD) {
 2956              		.loc 1 541 25 is_stmt 1 view .LVU965
 2957 0174 019A     		ldr	r2, [sp, #4]
 2958 0176 09A9     		add	r1, sp, #36
 2959 0178 1BF80A00 		ldrb	r0, [fp, r10]	@ zero_extendqisi2
 2960 017c FFF7FEFF 		bl	lv_color_8_8_mix
 2961              	.LVL319:
 542:Drivers/lvgl/src/draw/sw/blend/lv_draw_sw_blend_to_i1.c ****                             set_bit(dest_buf_i1, dest_x + bit_ofs);
 2962              		.loc 1 542 25 view .LVU966
 542:Drivers/lvgl/src/draw/sw/blend/lv_draw_sw_blend_to_i1.c ****                             set_bit(dest_buf_i1, dest_x + bit_ofs);
 2963              		.loc 1 542 37 is_stmt 0 view .LVU967
 2964 0180 9DF92430 		ldrsb	r3, [sp, #36]
ARM GAS  /var/folders/qx/2_175_4n2s19vhvtspjhb3qh0000gn/T//ccaVas4T.s 			page 99


 542:Drivers/lvgl/src/draw/sw/blend/lv_draw_sw_blend_to_i1.c ****                             set_bit(dest_buf_i1, dest_x + bit_ofs);
 2965              		.loc 1 542 27 view .LVU968
 2966 0184 002B     		cmp	r3, #0
 2967 0186 D1DA     		bge	.L151
 543:Drivers/lvgl/src/draw/sw/blend/lv_draw_sw_blend_to_i1.c ****                         }
 2968              		.loc 1 543 29 is_stmt 1 view .LVU969
 2969              	.LVL320:
 2970              	.LBB597:
 2971              	.LBI597:
1261:Drivers/lvgl/src/draw/sw/blend/lv_draw_sw_blend_to_i1.c **** {
 2972              		.loc 1 1261 42 view .LVU970
 2973              	.LBB598:
1263:Drivers/lvgl/src/draw/sw/blend/lv_draw_sw_blend_to_i1.c **** }
 2974              		.loc 1 1263 5 view .LVU971
1263:Drivers/lvgl/src/draw/sw/blend/lv_draw_sw_blend_to_i1.c **** }
 2975              		.loc 1 1263 8 is_stmt 0 view .LVU972
 2976 0188 16F80930 		ldrb	r3, [r6, r9]	@ zero_extendqisi2
1263:Drivers/lvgl/src/draw/sw/blend/lv_draw_sw_blend_to_i1.c **** }
 2977              		.loc 1 1263 28 view .LVU973
 2978 018c 0122     		movs	r2, #1
 2979 018e AA40     		lsls	r2, r2, r5
1263:Drivers/lvgl/src/draw/sw/blend/lv_draw_sw_blend_to_i1.c **** }
 2980              		.loc 1 1263 22 view .LVU974
 2981 0190 1343     		orrs	r3, r3, r2
 2982 0192 06F80930 		strb	r3, [r6, r9]
 2983              	.LVL321:
1264:Drivers/lvgl/src/draw/sw/blend/lv_draw_sw_blend_to_i1.c **** 
 2984              		.loc 1 1264 1 view .LVU975
 2985 0196 D2E7     		b	.L152
 2986              	.L188:
1264:Drivers/lvgl/src/draw/sw/blend/lv_draw_sw_blend_to_i1.c **** 
 2987              		.loc 1 1264 1 view .LVU976
 2988              	.LBE598:
 2989              	.LBE597:
 2990              	.LBE599:
 2991              	.LBB600:
 2992              	.LBB601:
1258:Drivers/lvgl/src/draw/sw/blend/lv_draw_sw_blend_to_i1.c **** }
 2993              		.loc 1 1258 12 view .LVU977
 2994 0198 DDF80C90 		ldr	r9, [sp, #12]
 2995              	.LBE601:
 2996              	.LBE600:
 549:Drivers/lvgl/src/draw/sw/blend/lv_draw_sw_blend_to_i1.c ****                     src_buf_l8 = drawbuf_next_row(src_buf_l8, src_stride);
 2997              		.loc 1 549 21 is_stmt 1 view .LVU978
 2998              	.LVL322:
 2999              	.LBB603:
 3000              	.LBI600:
1256:Drivers/lvgl/src/draw/sw/blend/lv_draw_sw_blend_to_i1.c **** {
 3001              		.loc 1 1256 44 view .LVU979
 3002              	.LBB602:
1258:Drivers/lvgl/src/draw/sw/blend/lv_draw_sw_blend_to_i1.c **** }
 3003              		.loc 1 1258 5 view .LVU980
1258:Drivers/lvgl/src/draw/sw/blend/lv_draw_sw_blend_to_i1.c **** }
 3004              		.loc 1 1258 12 is_stmt 0 view .LVU981
 3005 019c 059B     		ldr	r3, [sp, #20]
 3006 019e 1E44     		add	r6, r6, r3
 3007              	.LVL323:
ARM GAS  /var/folders/qx/2_175_4n2s19vhvtspjhb3qh0000gn/T//ccaVas4T.s 			page 100


1258:Drivers/lvgl/src/draw/sw/blend/lv_draw_sw_blend_to_i1.c **** }
 3008              		.loc 1 1258 12 view .LVU982
 3009              	.LBE602:
 3010              	.LBE603:
 550:Drivers/lvgl/src/draw/sw/blend/lv_draw_sw_blend_to_i1.c ****                 }
 3011              		.loc 1 550 21 is_stmt 1 view .LVU983
 3012              	.LBB604:
 3013              	.LBI604:
1256:Drivers/lvgl/src/draw/sw/blend/lv_draw_sw_blend_to_i1.c **** {
 3014              		.loc 1 1256 44 view .LVU984
 3015              	.LBB605:
1258:Drivers/lvgl/src/draw/sw/blend/lv_draw_sw_blend_to_i1.c **** }
 3016              		.loc 1 1258 5 view .LVU985
1258:Drivers/lvgl/src/draw/sw/blend/lv_draw_sw_blend_to_i1.c **** }
 3017              		.loc 1 1258 12 is_stmt 0 view .LVU986
 3018 01a0 029B     		ldr	r3, [sp, #8]
 3019 01a2 9B44     		add	fp, fp, r3
 3020              	.LVL324:
1258:Drivers/lvgl/src/draw/sw/blend/lv_draw_sw_blend_to_i1.c **** }
 3021              		.loc 1 1258 12 view .LVU987
 3022              	.LBE605:
 3023              	.LBE604:
 538:Drivers/lvgl/src/draw/sw/blend/lv_draw_sw_blend_to_i1.c ****                     for(dest_x = 0, src_x = 0; src_x < w; dest_x++, src_x++) {
 3024              		.loc 1 538 36 is_stmt 1 discriminator 2 view .LVU988
 3025 01a4 09F10109 		add	r9, r9, #1
 3026              	.LVL325:
 3027              	.L142:
 538:Drivers/lvgl/src/draw/sw/blend/lv_draw_sw_blend_to_i1.c ****                     for(dest_x = 0, src_x = 0; src_x < w; dest_x++, src_x++) {
 3028              		.loc 1 538 30 discriminator 1 view .LVU989
 3029 01a8 049B     		ldr	r3, [sp, #16]
 3030 01aa 9945     		cmp	r9, r3
 3031 01ac 80F2E180 		bge	.L138
 539:Drivers/lvgl/src/draw/sw/blend/lv_draw_sw_blend_to_i1.c ****                         uint8_t dest_val = get_bit(dest_buf_i1, dest_x + bit_ofs) * 255;
 3032              		.loc 1 539 32 is_stmt 0 view .LVU990
 3033 01b0 0024     		movs	r4, #0
 539:Drivers/lvgl/src/draw/sw/blend/lv_draw_sw_blend_to_i1.c ****                         uint8_t dest_val = get_bit(dest_buf_i1, dest_x + bit_ofs) * 255;
 3034              		.loc 1 539 43 view .LVU991
 3035 01b2 A246     		mov	r10, r4
 3036 01b4 CDF80C90 		str	r9, [sp, #12]
 3037 01b8 C4E7     		b	.L154
 3038              	.LVL326:
 3039              	.L191:
 3040              	.LBB606:
 3041              	.LBB607:
 3042              	.LBB608:
1273:Drivers/lvgl/src/draw/sw/blend/lv_draw_sw_blend_to_i1.c **** }
 3043              		.loc 1 1273 25 view .LVU992
 3044 01ba 05F1070A 		add	r10, r5, #7
 3045 01be 13E0     		b	.L157
 3046              	.LVL327:
 3047              	.L192:
1273:Drivers/lvgl/src/draw/sw/blend/lv_draw_sw_blend_to_i1.c **** }
 3048              		.loc 1 1273 25 view .LVU993
 3049              	.LBE608:
 3050              	.LBE607:
 562:Drivers/lvgl/src/draw/sw/blend/lv_draw_sw_blend_to_i1.c ****                         }
 3051              		.loc 1 562 29 is_stmt 1 view .LVU994
ARM GAS  /var/folders/qx/2_175_4n2s19vhvtspjhb3qh0000gn/T//ccaVas4T.s 			page 101


 3052              	.LBB610:
 3053              	.LBI610:
1261:Drivers/lvgl/src/draw/sw/blend/lv_draw_sw_blend_to_i1.c **** {
 3054              		.loc 1 1261 42 view .LVU995
 3055              	.LBB611:
1263:Drivers/lvgl/src/draw/sw/blend/lv_draw_sw_blend_to_i1.c **** }
 3056              		.loc 1 1263 5 view .LVU996
1263:Drivers/lvgl/src/draw/sw/blend/lv_draw_sw_blend_to_i1.c **** }
 3057              		.loc 1 1263 8 is_stmt 0 view .LVU997
 3058 01c0 16F80A30 		ldrb	r3, [r6, r10]	@ zero_extendqisi2
1263:Drivers/lvgl/src/draw/sw/blend/lv_draw_sw_blend_to_i1.c **** }
 3059              		.loc 1 1263 28 view .LVU998
 3060 01c4 0122     		movs	r2, #1
 3061 01c6 AA40     		lsls	r2, r2, r5
1263:Drivers/lvgl/src/draw/sw/blend/lv_draw_sw_blend_to_i1.c **** }
 3062              		.loc 1 1263 22 view .LVU999
 3063 01c8 1343     		orrs	r3, r3, r2
 3064 01ca 06F80A30 		strb	r3, [r6, r10]
 3065              	.LVL328:
 3066              	.L159:
1263:Drivers/lvgl/src/draw/sw/blend/lv_draw_sw_blend_to_i1.c **** }
 3067              		.loc 1 1263 22 view .LVU1000
 3068              	.LBE611:
 3069              	.LBE610:
 3070              	.LBE606:
 557:Drivers/lvgl/src/draw/sw/blend/lv_draw_sw_blend_to_i1.c ****                         uint8_t src_luminance = src_buf_l8[src_x];
 3071              		.loc 1 557 67 is_stmt 1 discriminator 2 view .LVU1001
 557:Drivers/lvgl/src/draw/sw/blend/lv_draw_sw_blend_to_i1.c ****                         uint8_t src_luminance = src_buf_l8[src_x];
 3072              		.loc 1 557 65 is_stmt 0 discriminator 2 view .LVU1002
 3073 01ce 0134     		adds	r4, r4, #1
 3074              	.LVL329:
 557:Drivers/lvgl/src/draw/sw/blend/lv_draw_sw_blend_to_i1.c ****                         uint8_t src_luminance = src_buf_l8[src_x];
 3075              		.loc 1 557 74 discriminator 2 view .LVU1003
 3076 01d0 0BF1010B 		add	fp, fp, #1
 3077              	.LVL330:
 3078              	.L161:
 557:Drivers/lvgl/src/draw/sw/blend/lv_draw_sw_blend_to_i1.c ****                         uint8_t src_luminance = src_buf_l8[src_x];
 3079              		.loc 1 557 54 is_stmt 1 discriminator 1 view .LVU1004
 3080 01d4 C345     		cmp	fp, r8
 3081 01d6 2BDA     		bge	.L190
 3082              	.LBB615:
 558:Drivers/lvgl/src/draw/sw/blend/lv_draw_sw_blend_to_i1.c ****                         uint8_t dest_val = get_bit(dest_buf_i1, dest_x + bit_ofs) * 255;
 3083              		.loc 1 558 25 view .LVU1005
 558:Drivers/lvgl/src/draw/sw/blend/lv_draw_sw_blend_to_i1.c ****                         uint8_t dest_val = get_bit(dest_buf_i1, dest_x + bit_ofs) * 255;
 3084              		.loc 1 558 59 is_stmt 0 view .LVU1006
 3085 01d8 5A46     		mov	r2, fp
 558:Drivers/lvgl/src/draw/sw/blend/lv_draw_sw_blend_to_i1.c ****                         uint8_t dest_val = get_bit(dest_buf_i1, dest_x + bit_ofs) * 255;
 3086              		.loc 1 558 33 view .LVU1007
 3087 01da 19F80B00 		ldrb	r0, [r9, fp]	@ zero_extendqisi2
 3088              	.LVL331:
 559:Drivers/lvgl/src/draw/sw/blend/lv_draw_sw_blend_to_i1.c ****                         lv_color_8_8_mix(src_luminance, &dest_val, mask_buf[src_x]);
 3089              		.loc 1 559 25 is_stmt 1 view .LVU1008
 559:Drivers/lvgl/src/draw/sw/blend/lv_draw_sw_blend_to_i1.c ****                         lv_color_8_8_mix(src_luminance, &dest_val, mask_buf[src_x]);
 3090              		.loc 1 559 44 is_stmt 0 view .LVU1009
 3091 01de 019B     		ldr	r3, [sp, #4]
 3092 01e0 E518     		adds	r5, r4, r3
 3093              	.LVL332:
ARM GAS  /var/folders/qx/2_175_4n2s19vhvtspjhb3qh0000gn/T//ccaVas4T.s 			page 102


 3094              	.LBB612:
 3095              	.LBI607:
1271:Drivers/lvgl/src/draw/sw/blend/lv_draw_sw_blend_to_i1.c **** {
 3096              		.loc 1 1271 45 is_stmt 1 view .LVU1010
 3097              	.LBB609:
1273:Drivers/lvgl/src/draw/sw/blend/lv_draw_sw_blend_to_i1.c **** }
 3098              		.loc 1 1273 5 view .LVU1011
1273:Drivers/lvgl/src/draw/sw/blend/lv_draw_sw_blend_to_i1.c **** }
 3099              		.loc 1 1273 25 is_stmt 0 view .LVU1012
 3100 01e2 AA46     		mov	r10, r5
 3101 01e4 002D     		cmp	r5, #0
 3102 01e6 E8DB     		blt	.L191
 3103              	.L157:
1273:Drivers/lvgl/src/draw/sw/blend/lv_draw_sw_blend_to_i1.c **** }
 3104              		.loc 1 1273 25 view .LVU1013
 3105 01e8 4FEAEA0A 		asr	r10, r10, #3
1273:Drivers/lvgl/src/draw/sw/blend/lv_draw_sw_blend_to_i1.c **** }
 3106              		.loc 1 1273 16 view .LVU1014
 3107 01ec 16F80A30 		ldrb	r3, [r6, r10]	@ zero_extendqisi2
1273:Drivers/lvgl/src/draw/sw/blend/lv_draw_sw_blend_to_i1.c **** }
 3108              		.loc 1 1273 47 view .LVU1015
 3109 01f0 6942     		rsbs	r1, r5, #0
 3110 01f2 05F00705 		and	r5, r5, #7
 3111              	.LVL333:
1273:Drivers/lvgl/src/draw/sw/blend/lv_draw_sw_blend_to_i1.c **** }
 3112              		.loc 1 1273 47 view .LVU1016
 3113 01f6 01F00701 		and	r1, r1, #7
 3114 01fa 58BF     		it	pl
 3115 01fc 4D42     		rsbpl	r5, r1, #0
1273:Drivers/lvgl/src/draw/sw/blend/lv_draw_sw_blend_to_i1.c **** }
 3116              		.loc 1 1273 36 view .LVU1017
 3117 01fe C5F10705 		rsb	r5, r5, #7
1273:Drivers/lvgl/src/draw/sw/blend/lv_draw_sw_blend_to_i1.c **** }
 3118              		.loc 1 1273 30 view .LVU1018
 3119 0202 2B41     		asrs	r3, r3, r5
 3120              	.LVL334:
1273:Drivers/lvgl/src/draw/sw/blend/lv_draw_sw_blend_to_i1.c **** }
 3121              		.loc 1 1273 30 view .LVU1019
 3122              	.LBE609:
 3123              	.LBE612:
 559:Drivers/lvgl/src/draw/sw/blend/lv_draw_sw_blend_to_i1.c ****                         lv_color_8_8_mix(src_luminance, &dest_val, mask_buf[src_x]);
 3124              		.loc 1 559 33 discriminator 1 view .LVU1020
 3125 0204 43F30003 		sbfx	r3, r3, #0, #1
 3126 0208 8DF82430 		strb	r3, [sp, #36]
 560:Drivers/lvgl/src/draw/sw/blend/lv_draw_sw_blend_to_i1.c ****                         if(dest_val > I1_LUM_THRESHOLD) {
 3127              		.loc 1 560 25 is_stmt 1 view .LVU1021
 3128 020c BA5C     		ldrb	r2, [r7, r2]	@ zero_extendqisi2
 3129 020e 09A9     		add	r1, sp, #36
 3130 0210 FFF7FEFF 		bl	lv_color_8_8_mix
 3131              	.LVL335:
 561:Drivers/lvgl/src/draw/sw/blend/lv_draw_sw_blend_to_i1.c ****                             set_bit(dest_buf_i1, dest_x + bit_ofs);
 3132              		.loc 1 561 25 view .LVU1022
 561:Drivers/lvgl/src/draw/sw/blend/lv_draw_sw_blend_to_i1.c ****                             set_bit(dest_buf_i1, dest_x + bit_ofs);
 3133              		.loc 1 561 37 is_stmt 0 view .LVU1023
 3134 0214 9DF92430 		ldrsb	r3, [sp, #36]
 561:Drivers/lvgl/src/draw/sw/blend/lv_draw_sw_blend_to_i1.c ****                             set_bit(dest_buf_i1, dest_x + bit_ofs);
 3135              		.loc 1 561 27 view .LVU1024
ARM GAS  /var/folders/qx/2_175_4n2s19vhvtspjhb3qh0000gn/T//ccaVas4T.s 			page 103


 3136 0218 002B     		cmp	r3, #0
 3137 021a D1DB     		blt	.L192
 565:Drivers/lvgl/src/draw/sw/blend/lv_draw_sw_blend_to_i1.c ****                         }
 3138              		.loc 1 565 29 is_stmt 1 view .LVU1025
 3139              	.LVL336:
 3140              	.LBB613:
 3141              	.LBI613:
1266:Drivers/lvgl/src/draw/sw/blend/lv_draw_sw_blend_to_i1.c **** {
 3142              		.loc 1 1266 42 view .LVU1026
 3143              	.LBB614:
1268:Drivers/lvgl/src/draw/sw/blend/lv_draw_sw_blend_to_i1.c **** }
 3144              		.loc 1 1268 5 view .LVU1027
1268:Drivers/lvgl/src/draw/sw/blend/lv_draw_sw_blend_to_i1.c **** }
 3145              		.loc 1 1268 8 is_stmt 0 view .LVU1028
 3146 021c 16F80A20 		ldrb	r2, [r6, r10]	@ zero_extendqisi2
1268:Drivers/lvgl/src/draw/sw/blend/lv_draw_sw_blend_to_i1.c **** }
 3147              		.loc 1 1268 29 view .LVU1029
 3148 0220 0123     		movs	r3, #1
 3149 0222 AB40     		lsls	r3, r3, r5
1268:Drivers/lvgl/src/draw/sw/blend/lv_draw_sw_blend_to_i1.c **** }
 3150              		.loc 1 1268 22 view .LVU1030
 3151 0224 DB43     		mvns	r3, r3
 3152 0226 5BB2     		sxtb	r3, r3
 3153 0228 1340     		ands	r3, r3, r2
 3154 022a 06F80A30 		strb	r3, [r6, r10]
 3155              	.LVL337:
1269:Drivers/lvgl/src/draw/sw/blend/lv_draw_sw_blend_to_i1.c **** 
 3156              		.loc 1 1269 1 view .LVU1031
 3157 022e CEE7     		b	.L159
 3158              	.LVL338:
 3159              	.L190:
1269:Drivers/lvgl/src/draw/sw/blend/lv_draw_sw_blend_to_i1.c **** 
 3160              		.loc 1 1269 1 view .LVU1032
 3161              	.LBE614:
 3162              	.LBE613:
 3163              	.LBE615:
 3164              	.LBB616:
 3165              	.LBB617:
1258:Drivers/lvgl/src/draw/sw/blend/lv_draw_sw_blend_to_i1.c **** }
 3166              		.loc 1 1258 12 view .LVU1033
 3167 0230 039D     		ldr	r5, [sp, #12]
 3168              	.LBE617:
 3169              	.LBE616:
 568:Drivers/lvgl/src/draw/sw/blend/lv_draw_sw_blend_to_i1.c ****                     src_buf_l8 = drawbuf_next_row(src_buf_l8, src_stride);
 3170              		.loc 1 568 21 is_stmt 1 view .LVU1034
 3171              	.LVL339:
 3172              	.LBB619:
 3173              	.LBI616:
1256:Drivers/lvgl/src/draw/sw/blend/lv_draw_sw_blend_to_i1.c **** {
 3174              		.loc 1 1256 44 view .LVU1035
 3175              	.LBB618:
1258:Drivers/lvgl/src/draw/sw/blend/lv_draw_sw_blend_to_i1.c **** }
 3176              		.loc 1 1258 5 view .LVU1036
1258:Drivers/lvgl/src/draw/sw/blend/lv_draw_sw_blend_to_i1.c **** }
 3177              		.loc 1 1258 12 is_stmt 0 view .LVU1037
 3178 0232 059B     		ldr	r3, [sp, #20]
 3179 0234 1E44     		add	r6, r6, r3
ARM GAS  /var/folders/qx/2_175_4n2s19vhvtspjhb3qh0000gn/T//ccaVas4T.s 			page 104


 3180              	.LVL340:
1258:Drivers/lvgl/src/draw/sw/blend/lv_draw_sw_blend_to_i1.c **** }
 3181              		.loc 1 1258 12 view .LVU1038
 3182              	.LBE618:
 3183              	.LBE619:
 569:Drivers/lvgl/src/draw/sw/blend/lv_draw_sw_blend_to_i1.c ****                     mask_buf += mask_stride;
 3184              		.loc 1 569 21 is_stmt 1 view .LVU1039
 3185              	.LBB620:
 3186              	.LBI620:
1256:Drivers/lvgl/src/draw/sw/blend/lv_draw_sw_blend_to_i1.c **** {
 3187              		.loc 1 1256 44 view .LVU1040
 3188              	.LBB621:
1258:Drivers/lvgl/src/draw/sw/blend/lv_draw_sw_blend_to_i1.c **** }
 3189              		.loc 1 1258 5 view .LVU1041
1258:Drivers/lvgl/src/draw/sw/blend/lv_draw_sw_blend_to_i1.c **** }
 3190              		.loc 1 1258 12 is_stmt 0 view .LVU1042
 3191 0236 029B     		ldr	r3, [sp, #8]
 3192 0238 9944     		add	r9, r9, r3
 3193              	.LVL341:
1258:Drivers/lvgl/src/draw/sw/blend/lv_draw_sw_blend_to_i1.c **** }
 3194              		.loc 1 1258 12 view .LVU1043
 3195              	.LBE621:
 3196              	.LBE620:
 570:Drivers/lvgl/src/draw/sw/blend/lv_draw_sw_blend_to_i1.c ****                 }
 3197              		.loc 1 570 21 is_stmt 1 view .LVU1044
 570:Drivers/lvgl/src/draw/sw/blend/lv_draw_sw_blend_to_i1.c ****                 }
 3198              		.loc 1 570 30 is_stmt 0 view .LVU1045
 3199 023a 069B     		ldr	r3, [sp, #24]
 3200 023c 1F44     		add	r7, r7, r3
 3201              	.LVL342:
 556:Drivers/lvgl/src/draw/sw/blend/lv_draw_sw_blend_to_i1.c ****                     for(dest_x = 0, src_x = 0; src_x < w; dest_x++, src_x++) {
 3202              		.loc 1 556 36 is_stmt 1 discriminator 2 view .LVU1046
 3203 023e 0135     		adds	r5, r5, #1
 3204              	.LVL343:
 3205              	.L155:
 556:Drivers/lvgl/src/draw/sw/blend/lv_draw_sw_blend_to_i1.c ****                     for(dest_x = 0, src_x = 0; src_x < w; dest_x++, src_x++) {
 3206              		.loc 1 556 30 discriminator 1 view .LVU1047
 3207 0240 049B     		ldr	r3, [sp, #16]
 3208 0242 9D42     		cmp	r5, r3
 3209 0244 80F29580 		bge	.L138
 557:Drivers/lvgl/src/draw/sw/blend/lv_draw_sw_blend_to_i1.c ****                         uint8_t src_luminance = src_buf_l8[src_x];
 3210              		.loc 1 557 32 is_stmt 0 view .LVU1048
 3211 0248 0024     		movs	r4, #0
 557:Drivers/lvgl/src/draw/sw/blend/lv_draw_sw_blend_to_i1.c ****                         uint8_t src_luminance = src_buf_l8[src_x];
 3212              		.loc 1 557 43 view .LVU1049
 3213 024a A346     		mov	fp, r4
 3214 024c 0395     		str	r5, [sp, #12]
 3215 024e C1E7     		b	.L161
 3216              	.LVL344:
 3217              	.L177:
 556:Drivers/lvgl/src/draw/sw/blend/lv_draw_sw_blend_to_i1.c ****                     for(dest_x = 0, src_x = 0; src_x < w; dest_x++, src_x++) {
 3218              		.loc 1 556 23 view .LVU1050
 3219 0250 4FF00009 		mov	r9, #0
 3220 0254 0495     		str	r5, [sp, #16]
 3221 0256 4D46     		mov	r5, r9
 3222              	.LVL345:
 556:Drivers/lvgl/src/draw/sw/blend/lv_draw_sw_blend_to_i1.c ****                     for(dest_x = 0, src_x = 0; src_x < w; dest_x++, src_x++) {
ARM GAS  /var/folders/qx/2_175_4n2s19vhvtspjhb3qh0000gn/T//ccaVas4T.s 			page 105


 3223              		.loc 1 556 23 view .LVU1051
 3224 0258 B946     		mov	r9, r7
 3225 025a 3746     		mov	r7, r6
 3226              	.LVL346:
 556:Drivers/lvgl/src/draw/sw/blend/lv_draw_sw_blend_to_i1.c ****                     for(dest_x = 0, src_x = 0; src_x < w; dest_x++, src_x++) {
 3227              		.loc 1 556 23 view .LVU1052
 3228 025c 2646     		mov	r6, r4
 3229              	.LVL347:
 556:Drivers/lvgl/src/draw/sw/blend/lv_draw_sw_blend_to_i1.c ****                     for(dest_x = 0, src_x = 0; src_x < w; dest_x++, src_x++) {
 3230              		.loc 1 556 23 view .LVU1053
 3231 025e CDF814E0 		str	lr, [sp, #20]
 3232 0262 0692     		str	r2, [sp, #24]
 3233 0264 0193     		str	r3, [sp, #4]
 3234 0266 EBE7     		b	.L155
 3235              	.LVL348:
 3236              	.L194:
 3237              	.LBB622:
 3238              	.LBB623:
 3239              	.LBB624:
1273:Drivers/lvgl/src/draw/sw/blend/lv_draw_sw_blend_to_i1.c **** }
 3240              		.loc 1 1273 25 view .LVU1054
 3241 0268 EF1D     		adds	r7, r5, #7
 3242 026a 13E0     		b	.L163
 3243              	.LVL349:
 3244              	.L195:
1273:Drivers/lvgl/src/draw/sw/blend/lv_draw_sw_blend_to_i1.c **** }
 3245              		.loc 1 1273 25 view .LVU1055
 3246              	.LBE624:
 3247              	.LBE623:
 582:Drivers/lvgl/src/draw/sw/blend/lv_draw_sw_blend_to_i1.c ****                         }
 3248              		.loc 1 582 29 is_stmt 1 view .LVU1056
 3249              	.LBB626:
 3250              	.LBI626:
1261:Drivers/lvgl/src/draw/sw/blend/lv_draw_sw_blend_to_i1.c **** {
 3251              		.loc 1 1261 42 view .LVU1057
 3252              	.LBB627:
1263:Drivers/lvgl/src/draw/sw/blend/lv_draw_sw_blend_to_i1.c **** }
 3253              		.loc 1 1263 5 view .LVU1058
1263:Drivers/lvgl/src/draw/sw/blend/lv_draw_sw_blend_to_i1.c **** }
 3254              		.loc 1 1263 8 is_stmt 0 view .LVU1059
 3255 026c E35D     		ldrb	r3, [r4, r7]	@ zero_extendqisi2
1263:Drivers/lvgl/src/draw/sw/blend/lv_draw_sw_blend_to_i1.c **** }
 3256              		.loc 1 1263 28 view .LVU1060
 3257 026e 0122     		movs	r2, #1
 3258 0270 AA40     		lsls	r2, r2, r5
1263:Drivers/lvgl/src/draw/sw/blend/lv_draw_sw_blend_to_i1.c **** }
 3259              		.loc 1 1263 22 view .LVU1061
 3260 0272 1343     		orrs	r3, r3, r2
 3261 0274 E355     		strb	r3, [r4, r7]
 3262              	.LVL350:
 3263              	.L165:
1263:Drivers/lvgl/src/draw/sw/blend/lv_draw_sw_blend_to_i1.c **** }
 3264              		.loc 1 1263 22 view .LVU1062
 3265              	.LBE627:
 3266              	.LBE626:
 3267              	.LBE622:
 577:Drivers/lvgl/src/draw/sw/blend/lv_draw_sw_blend_to_i1.c ****                         uint8_t src_luminance = src_buf_l8[src_x];
ARM GAS  /var/folders/qx/2_175_4n2s19vhvtspjhb3qh0000gn/T//ccaVas4T.s 			page 106


 3268              		.loc 1 577 67 is_stmt 1 discriminator 2 view .LVU1063
 577:Drivers/lvgl/src/draw/sw/blend/lv_draw_sw_blend_to_i1.c ****                         uint8_t src_luminance = src_buf_l8[src_x];
 3269              		.loc 1 577 65 is_stmt 0 discriminator 2 view .LVU1064
 3270 0276 0AF1010A 		add	r10, r10, #1
 3271              	.LVL351:
 577:Drivers/lvgl/src/draw/sw/blend/lv_draw_sw_blend_to_i1.c ****                         uint8_t src_luminance = src_buf_l8[src_x];
 3272              		.loc 1 577 74 discriminator 2 view .LVU1065
 3273 027a 09F10109 		add	r9, r9, #1
 3274              	.LVL352:
 3275              	.L167:
 577:Drivers/lvgl/src/draw/sw/blend/lv_draw_sw_blend_to_i1.c ****                         uint8_t src_luminance = src_buf_l8[src_x];
 3276              		.loc 1 577 54 is_stmt 1 discriminator 1 view .LVU1066
 3277 027e C145     		cmp	r9, r8
 3278 0280 2DDA     		bge	.L193
 3279              	.LBB631:
 578:Drivers/lvgl/src/draw/sw/blend/lv_draw_sw_blend_to_i1.c ****                         uint8_t dest_val = get_bit(dest_buf_i1, dest_x + bit_ofs) * 255;
 3280              		.loc 1 578 25 view .LVU1067
 578:Drivers/lvgl/src/draw/sw/blend/lv_draw_sw_blend_to_i1.c ****                         uint8_t dest_val = get_bit(dest_buf_i1, dest_x + bit_ofs) * 255;
 3281              		.loc 1 578 59 is_stmt 0 view .LVU1068
 3282 0282 4A46     		mov	r2, r9
 578:Drivers/lvgl/src/draw/sw/blend/lv_draw_sw_blend_to_i1.c ****                         uint8_t dest_val = get_bit(dest_buf_i1, dest_x + bit_ofs) * 255;
 3283              		.loc 1 578 33 view .LVU1069
 3284 0284 16F80900 		ldrb	r0, [r6, r9]	@ zero_extendqisi2
 3285              	.LVL353:
 579:Drivers/lvgl/src/draw/sw/blend/lv_draw_sw_blend_to_i1.c ****                         lv_color_8_8_mix(src_luminance, &dest_val, LV_OPA_MIX2(mask_buf[src_x], opa
 3286              		.loc 1 579 25 is_stmt 1 view .LVU1070
 579:Drivers/lvgl/src/draw/sw/blend/lv_draw_sw_blend_to_i1.c ****                         lv_color_8_8_mix(src_luminance, &dest_val, LV_OPA_MIX2(mask_buf[src_x], opa
 3287              		.loc 1 579 44 is_stmt 0 view .LVU1071
 3288 0288 039B     		ldr	r3, [sp, #12]
 3289 028a 0AEB0305 		add	r5, r10, r3
 3290              	.LVL354:
 3291              	.LBB628:
 3292              	.LBI623:
1271:Drivers/lvgl/src/draw/sw/blend/lv_draw_sw_blend_to_i1.c **** {
 3293              		.loc 1 1271 45 is_stmt 1 view .LVU1072
 3294              	.LBB625:
1273:Drivers/lvgl/src/draw/sw/blend/lv_draw_sw_blend_to_i1.c **** }
 3295              		.loc 1 1273 5 view .LVU1073
1273:Drivers/lvgl/src/draw/sw/blend/lv_draw_sw_blend_to_i1.c **** }
 3296              		.loc 1 1273 25 is_stmt 0 view .LVU1074
 3297 028e 2F46     		mov	r7, r5
 3298 0290 002D     		cmp	r5, #0
 3299 0292 E9DB     		blt	.L194
 3300              	.L163:
1273:Drivers/lvgl/src/draw/sw/blend/lv_draw_sw_blend_to_i1.c **** }
 3301              		.loc 1 1273 25 view .LVU1075
 3302 0294 FF10     		asrs	r7, r7, #3
1273:Drivers/lvgl/src/draw/sw/blend/lv_draw_sw_blend_to_i1.c **** }
 3303              		.loc 1 1273 16 view .LVU1076
 3304 0296 E35D     		ldrb	r3, [r4, r7]	@ zero_extendqisi2
1273:Drivers/lvgl/src/draw/sw/blend/lv_draw_sw_blend_to_i1.c **** }
 3305              		.loc 1 1273 47 view .LVU1077
 3306 0298 6942     		rsbs	r1, r5, #0
 3307 029a 05F00705 		and	r5, r5, #7
 3308              	.LVL355:
1273:Drivers/lvgl/src/draw/sw/blend/lv_draw_sw_blend_to_i1.c **** }
 3309              		.loc 1 1273 47 view .LVU1078
ARM GAS  /var/folders/qx/2_175_4n2s19vhvtspjhb3qh0000gn/T//ccaVas4T.s 			page 107


 3310 029e 01F00701 		and	r1, r1, #7
 3311 02a2 58BF     		it	pl
 3312 02a4 4D42     		rsbpl	r5, r1, #0
1273:Drivers/lvgl/src/draw/sw/blend/lv_draw_sw_blend_to_i1.c **** }
 3313              		.loc 1 1273 36 view .LVU1079
 3314 02a6 C5F10705 		rsb	r5, r5, #7
1273:Drivers/lvgl/src/draw/sw/blend/lv_draw_sw_blend_to_i1.c **** }
 3315              		.loc 1 1273 30 view .LVU1080
 3316 02aa 2B41     		asrs	r3, r3, r5
 3317              	.LVL356:
1273:Drivers/lvgl/src/draw/sw/blend/lv_draw_sw_blend_to_i1.c **** }
 3318              		.loc 1 1273 30 view .LVU1081
 3319              	.LBE625:
 3320              	.LBE628:
 579:Drivers/lvgl/src/draw/sw/blend/lv_draw_sw_blend_to_i1.c ****                         lv_color_8_8_mix(src_luminance, &dest_val, LV_OPA_MIX2(mask_buf[src_x], opa
 3321              		.loc 1 579 33 discriminator 1 view .LVU1082
 3322 02ac 43F30003 		sbfx	r3, r3, #0, #1
 3323 02b0 8DF82430 		strb	r3, [sp, #36]
 580:Drivers/lvgl/src/draw/sw/blend/lv_draw_sw_blend_to_i1.c ****                         if(dest_val > I1_LUM_THRESHOLD) {
 3324              		.loc 1 580 25 is_stmt 1 view .LVU1083
 580:Drivers/lvgl/src/draw/sw/blend/lv_draw_sw_blend_to_i1.c ****                         if(dest_val > I1_LUM_THRESHOLD) {
 3325              		.loc 1 580 68 is_stmt 0 view .LVU1084
 3326 02b4 1BF80220 		ldrb	r2, [fp, r2]	@ zero_extendqisi2
 3327 02b8 019B     		ldr	r3, [sp, #4]
 3328 02ba 03FB02F2 		mul	r2, r3, r2
 580:Drivers/lvgl/src/draw/sw/blend/lv_draw_sw_blend_to_i1.c ****                         if(dest_val > I1_LUM_THRESHOLD) {
 3329              		.loc 1 580 25 view .LVU1085
 3330 02be 120A     		lsrs	r2, r2, #8
 3331 02c0 09A9     		add	r1, sp, #36
 3332 02c2 FFF7FEFF 		bl	lv_color_8_8_mix
 3333              	.LVL357:
 581:Drivers/lvgl/src/draw/sw/blend/lv_draw_sw_blend_to_i1.c ****                             set_bit(dest_buf_i1, dest_x + bit_ofs);
 3334              		.loc 1 581 25 is_stmt 1 view .LVU1086
 581:Drivers/lvgl/src/draw/sw/blend/lv_draw_sw_blend_to_i1.c ****                             set_bit(dest_buf_i1, dest_x + bit_ofs);
 3335              		.loc 1 581 37 is_stmt 0 view .LVU1087
 3336 02c6 9DF92430 		ldrsb	r3, [sp, #36]
 581:Drivers/lvgl/src/draw/sw/blend/lv_draw_sw_blend_to_i1.c ****                             set_bit(dest_buf_i1, dest_x + bit_ofs);
 3337              		.loc 1 581 27 view .LVU1088
 3338 02ca 002B     		cmp	r3, #0
 3339 02cc CEDB     		blt	.L195
 585:Drivers/lvgl/src/draw/sw/blend/lv_draw_sw_blend_to_i1.c ****                         }
 3340              		.loc 1 585 29 is_stmt 1 view .LVU1089
 3341              	.LVL358:
 3342              	.LBB629:
 3343              	.LBI629:
1266:Drivers/lvgl/src/draw/sw/blend/lv_draw_sw_blend_to_i1.c **** {
 3344              		.loc 1 1266 42 view .LVU1090
 3345              	.LBB630:
1268:Drivers/lvgl/src/draw/sw/blend/lv_draw_sw_blend_to_i1.c **** }
 3346              		.loc 1 1268 5 view .LVU1091
1268:Drivers/lvgl/src/draw/sw/blend/lv_draw_sw_blend_to_i1.c **** }
 3347              		.loc 1 1268 8 is_stmt 0 view .LVU1092
 3348 02ce E25D     		ldrb	r2, [r4, r7]	@ zero_extendqisi2
1268:Drivers/lvgl/src/draw/sw/blend/lv_draw_sw_blend_to_i1.c **** }
 3349              		.loc 1 1268 29 view .LVU1093
 3350 02d0 0123     		movs	r3, #1
 3351 02d2 AB40     		lsls	r3, r3, r5
ARM GAS  /var/folders/qx/2_175_4n2s19vhvtspjhb3qh0000gn/T//ccaVas4T.s 			page 108


1268:Drivers/lvgl/src/draw/sw/blend/lv_draw_sw_blend_to_i1.c **** }
 3352              		.loc 1 1268 22 view .LVU1094
 3353 02d4 DB43     		mvns	r3, r3
 3354 02d6 5BB2     		sxtb	r3, r3
 3355 02d8 1340     		ands	r3, r3, r2
 3356 02da E355     		strb	r3, [r4, r7]
 3357              	.LVL359:
1269:Drivers/lvgl/src/draw/sw/blend/lv_draw_sw_blend_to_i1.c **** 
 3358              		.loc 1 1269 1 view .LVU1095
 3359 02dc CBE7     		b	.L165
 3360              	.LVL360:
 3361              	.L193:
1269:Drivers/lvgl/src/draw/sw/blend/lv_draw_sw_blend_to_i1.c **** 
 3362              		.loc 1 1269 1 view .LVU1096
 3363              	.LBE630:
 3364              	.LBE629:
 3365              	.LBE631:
 3366              	.LBB632:
 3367              	.LBB633:
1258:Drivers/lvgl/src/draw/sw/blend/lv_draw_sw_blend_to_i1.c **** }
 3368              		.loc 1 1258 12 view .LVU1097
 3369 02de 049F     		ldr	r7, [sp, #16]
 3370              	.LBE633:
 3371              	.LBE632:
 588:Drivers/lvgl/src/draw/sw/blend/lv_draw_sw_blend_to_i1.c ****                     src_buf_l8 = drawbuf_next_row(src_buf_l8, src_stride);
 3372              		.loc 1 588 21 is_stmt 1 view .LVU1098
 3373              	.LVL361:
 3374              	.LBB635:
 3375              	.LBI632:
1256:Drivers/lvgl/src/draw/sw/blend/lv_draw_sw_blend_to_i1.c **** {
 3376              		.loc 1 1256 44 view .LVU1099
 3377              	.LBB634:
1258:Drivers/lvgl/src/draw/sw/blend/lv_draw_sw_blend_to_i1.c **** }
 3378              		.loc 1 1258 5 view .LVU1100
1258:Drivers/lvgl/src/draw/sw/blend/lv_draw_sw_blend_to_i1.c **** }
 3379              		.loc 1 1258 12 is_stmt 0 view .LVU1101
 3380 02e0 069B     		ldr	r3, [sp, #24]
 3381 02e2 1C44     		add	r4, r4, r3
 3382              	.LVL362:
1258:Drivers/lvgl/src/draw/sw/blend/lv_draw_sw_blend_to_i1.c **** }
 3383              		.loc 1 1258 12 view .LVU1102
 3384              	.LBE634:
 3385              	.LBE635:
 589:Drivers/lvgl/src/draw/sw/blend/lv_draw_sw_blend_to_i1.c ****                     mask_buf += mask_stride;
 3386              		.loc 1 589 21 is_stmt 1 view .LVU1103
 3387              	.LBB636:
 3388              	.LBI636:
1256:Drivers/lvgl/src/draw/sw/blend/lv_draw_sw_blend_to_i1.c **** {
 3389              		.loc 1 1256 44 view .LVU1104
 3390              	.LBB637:
1258:Drivers/lvgl/src/draw/sw/blend/lv_draw_sw_blend_to_i1.c **** }
 3391              		.loc 1 1258 5 view .LVU1105
1258:Drivers/lvgl/src/draw/sw/blend/lv_draw_sw_blend_to_i1.c **** }
 3392              		.loc 1 1258 12 is_stmt 0 view .LVU1106
 3393 02e4 029B     		ldr	r3, [sp, #8]
 3394 02e6 1E44     		add	r6, r6, r3
 3395              	.LVL363:
ARM GAS  /var/folders/qx/2_175_4n2s19vhvtspjhb3qh0000gn/T//ccaVas4T.s 			page 109


1258:Drivers/lvgl/src/draw/sw/blend/lv_draw_sw_blend_to_i1.c **** }
 3396              		.loc 1 1258 12 view .LVU1107
 3397              	.LBE637:
 3398              	.LBE636:
 590:Drivers/lvgl/src/draw/sw/blend/lv_draw_sw_blend_to_i1.c ****                 }
 3399              		.loc 1 590 21 is_stmt 1 view .LVU1108
 590:Drivers/lvgl/src/draw/sw/blend/lv_draw_sw_blend_to_i1.c ****                 }
 3400              		.loc 1 590 30 is_stmt 0 view .LVU1109
 3401 02e8 079B     		ldr	r3, [sp, #28]
 3402 02ea 9B44     		add	fp, fp, r3
 3403              	.LVL364:
 576:Drivers/lvgl/src/draw/sw/blend/lv_draw_sw_blend_to_i1.c ****                     for(dest_x = 0, src_x = 0; src_x < w; dest_x++, src_x++) {
 3404              		.loc 1 576 36 is_stmt 1 discriminator 2 view .LVU1110
 3405 02ec 0137     		adds	r7, r7, #1
 3406              	.LVL365:
 3407              	.L162:
 576:Drivers/lvgl/src/draw/sw/blend/lv_draw_sw_blend_to_i1.c ****                     for(dest_x = 0, src_x = 0; src_x < w; dest_x++, src_x++) {
 3408              		.loc 1 576 30 discriminator 1 view .LVU1111
 3409 02ee 059B     		ldr	r3, [sp, #20]
 3410 02f0 9F42     		cmp	r7, r3
 3411 02f2 3EDA     		bge	.L138
 577:Drivers/lvgl/src/draw/sw/blend/lv_draw_sw_blend_to_i1.c ****                         uint8_t src_luminance = src_buf_l8[src_x];
 3412              		.loc 1 577 32 is_stmt 0 view .LVU1112
 3413 02f4 4FF0000A 		mov	r10, #0
 577:Drivers/lvgl/src/draw/sw/blend/lv_draw_sw_blend_to_i1.c ****                         uint8_t src_luminance = src_buf_l8[src_x];
 3414              		.loc 1 577 43 view .LVU1113
 3415 02f8 D146     		mov	r9, r10
 3416 02fa 0497     		str	r7, [sp, #16]
 3417 02fc BFE7     		b	.L167
 3418              	.LVL366:
 3419              	.L168:
 3420              	.LBB638:
 603:Drivers/lvgl/src/draw/sw/blend/lv_draw_sw_blend_to_i1.c ****                 blend_non_normal_pixel(dest_buf_i1, src_x + bit_ofs, src_argb, dsc->blend_mode);
 3421              		.loc 1 603 22 is_stmt 1 view .LVU1114
 603:Drivers/lvgl/src/draw/sw/blend/lv_draw_sw_blend_to_i1.c ****                 blend_non_normal_pixel(dest_buf_i1, src_x + bit_ofs, src_argb, dsc->blend_mode);
 3422              		.loc 1 603 39 is_stmt 0 view .LVU1115
 3423 02fe 15F80930 		ldrb	r3, [r5, r9]	@ zero_extendqisi2
 3424 0302 03FB0BF3 		mul	r3, r3, fp
 3425 0306 1B0A     		lsrs	r3, r3, #8
 603:Drivers/lvgl/src/draw/sw/blend/lv_draw_sw_blend_to_i1.c ****                 blend_non_normal_pixel(dest_buf_i1, src_x + bit_ofs, src_argb, dsc->blend_mode);
 3426              		.loc 1 603 37 view .LVU1116
 3427 0308 8DF82730 		strb	r3, [sp, #39]
 3428              	.L169:
 604:Drivers/lvgl/src/draw/sw/blend/lv_draw_sw_blend_to_i1.c ****             }
 3429              		.loc 1 604 17 is_stmt 1 view .LVU1117
 3430 030c 9AF82230 		ldrb	r3, [r10, #34]	@ zero_extendqisi2
 3431 0310 099A     		ldr	r2, [sp, #36]
 3432 0312 09EB0401 		add	r1, r9, r4
 3433 0316 3846     		mov	r0, r7
 3434 0318 FFF7FEFF 		bl	blend_non_normal_pixel
 3435              	.LVL367:
 598:Drivers/lvgl/src/draw/sw/blend/lv_draw_sw_blend_to_i1.c ****                 src_argb.red = src_buf_l8[src_x];
 3436              		.loc 1 598 44 discriminator 2 view .LVU1118
 3437 031c 09F10109 		add	r9, r9, #1
 3438              	.LVL368:
 3439              	.L172:
 598:Drivers/lvgl/src/draw/sw/blend/lv_draw_sw_blend_to_i1.c ****                 src_argb.red = src_buf_l8[src_x];
ARM GAS  /var/folders/qx/2_175_4n2s19vhvtspjhb3qh0000gn/T//ccaVas4T.s 			page 110


 3440              		.loc 1 598 34 discriminator 1 view .LVU1119
 3441 0320 C145     		cmp	r9, r8
 3442 0322 0CDA     		bge	.L196
 599:Drivers/lvgl/src/draw/sw/blend/lv_draw_sw_blend_to_i1.c ****                 src_argb.green = src_buf_l8[src_x];
 3443              		.loc 1 599 17 view .LVU1120
 599:Drivers/lvgl/src/draw/sw/blend/lv_draw_sw_blend_to_i1.c ****                 src_argb.green = src_buf_l8[src_x];
 3444              		.loc 1 599 42 is_stmt 0 view .LVU1121
 3445 0324 16F80930 		ldrb	r3, [r6, r9]	@ zero_extendqisi2
 599:Drivers/lvgl/src/draw/sw/blend/lv_draw_sw_blend_to_i1.c ****                 src_argb.green = src_buf_l8[src_x];
 3446              		.loc 1 599 30 view .LVU1122
 3447 0328 8DF82630 		strb	r3, [sp, #38]
 600:Drivers/lvgl/src/draw/sw/blend/lv_draw_sw_blend_to_i1.c ****                 src_argb.blue = src_buf_l8[src_x];
 3448              		.loc 1 600 17 is_stmt 1 view .LVU1123
 600:Drivers/lvgl/src/draw/sw/blend/lv_draw_sw_blend_to_i1.c ****                 src_argb.blue = src_buf_l8[src_x];
 3449              		.loc 1 600 32 is_stmt 0 view .LVU1124
 3450 032c 8DF82530 		strb	r3, [sp, #37]
 601:Drivers/lvgl/src/draw/sw/blend/lv_draw_sw_blend_to_i1.c ****                 if(mask_buf == NULL) src_argb.alpha = opa;
 3451              		.loc 1 601 17 is_stmt 1 view .LVU1125
 601:Drivers/lvgl/src/draw/sw/blend/lv_draw_sw_blend_to_i1.c ****                 if(mask_buf == NULL) src_argb.alpha = opa;
 3452              		.loc 1 601 31 is_stmt 0 view .LVU1126
 3453 0330 8DF82430 		strb	r3, [sp, #36]
 602:Drivers/lvgl/src/draw/sw/blend/lv_draw_sw_blend_to_i1.c ****                 else src_argb.alpha = LV_OPA_MIX2(mask_buf[src_x], opa);
 3454              		.loc 1 602 17 is_stmt 1 view .LVU1127
 602:Drivers/lvgl/src/draw/sw/blend/lv_draw_sw_blend_to_i1.c ****                 else src_argb.alpha = LV_OPA_MIX2(mask_buf[src_x], opa);
 3455              		.loc 1 602 19 is_stmt 0 view .LVU1128
 3456 0334 002D     		cmp	r5, #0
 3457 0336 E2D1     		bne	.L168
 602:Drivers/lvgl/src/draw/sw/blend/lv_draw_sw_blend_to_i1.c ****                 else src_argb.alpha = LV_OPA_MIX2(mask_buf[src_x], opa);
 3458              		.loc 1 602 38 is_stmt 1 discriminator 1 view .LVU1129
 602:Drivers/lvgl/src/draw/sw/blend/lv_draw_sw_blend_to_i1.c ****                 else src_argb.alpha = LV_OPA_MIX2(mask_buf[src_x], opa);
 3459              		.loc 1 602 53 is_stmt 0 discriminator 1 view .LVU1130
 3460 0338 8DF827B0 		strb	fp, [sp, #39]
 3461 033c E6E7     		b	.L169
 3462              	.L196:
 606:Drivers/lvgl/src/draw/sw/blend/lv_draw_sw_blend_to_i1.c ****             dest_buf_i1 = drawbuf_next_row(dest_buf_i1, dest_stride);
 3463              		.loc 1 606 15 view .LVU1131
 3464 033e 0199     		ldr	r1, [sp, #4]
 606:Drivers/lvgl/src/draw/sw/blend/lv_draw_sw_blend_to_i1.c ****             dest_buf_i1 = drawbuf_next_row(dest_buf_i1, dest_stride);
 3465              		.loc 1 606 13 is_stmt 1 view .LVU1132
 606:Drivers/lvgl/src/draw/sw/blend/lv_draw_sw_blend_to_i1.c ****             dest_buf_i1 = drawbuf_next_row(dest_buf_i1, dest_stride);
 3466              		.loc 1 606 15 is_stmt 0 view .LVU1133
 3467 0340 0DB1     		cbz	r5, .L171
 606:Drivers/lvgl/src/draw/sw/blend/lv_draw_sw_blend_to_i1.c ****             dest_buf_i1 = drawbuf_next_row(dest_buf_i1, dest_stride);
 3468              		.loc 1 606 26 is_stmt 1 discriminator 1 view .LVU1134
 606:Drivers/lvgl/src/draw/sw/blend/lv_draw_sw_blend_to_i1.c ****             dest_buf_i1 = drawbuf_next_row(dest_buf_i1, dest_stride);
 3469              		.loc 1 606 35 is_stmt 0 discriminator 1 view .LVU1135
 3470 0342 059B     		ldr	r3, [sp, #20]
 3471 0344 1D44     		add	r5, r5, r3
 3472              	.LVL369:
 3473              	.L171:
 607:Drivers/lvgl/src/draw/sw/blend/lv_draw_sw_blend_to_i1.c ****             src_buf_l8 = drawbuf_next_row(src_buf_l8, src_stride);
 3474              		.loc 1 607 13 is_stmt 1 view .LVU1136
 3475              	.LBB639:
 3476              	.LBI639:
1256:Drivers/lvgl/src/draw/sw/blend/lv_draw_sw_blend_to_i1.c **** {
 3477              		.loc 1 1256 44 view .LVU1137
 3478              	.LBB640:
ARM GAS  /var/folders/qx/2_175_4n2s19vhvtspjhb3qh0000gn/T//ccaVas4T.s 			page 111


1258:Drivers/lvgl/src/draw/sw/blend/lv_draw_sw_blend_to_i1.c **** }
 3479              		.loc 1 1258 5 view .LVU1138
1258:Drivers/lvgl/src/draw/sw/blend/lv_draw_sw_blend_to_i1.c **** }
 3480              		.loc 1 1258 12 is_stmt 0 view .LVU1139
 3481 0346 049B     		ldr	r3, [sp, #16]
 3482 0348 1F44     		add	r7, r7, r3
 3483              	.LVL370:
1258:Drivers/lvgl/src/draw/sw/blend/lv_draw_sw_blend_to_i1.c **** }
 3484              		.loc 1 1258 12 view .LVU1140
 3485              	.LBE640:
 3486              	.LBE639:
 608:Drivers/lvgl/src/draw/sw/blend/lv_draw_sw_blend_to_i1.c ****         }
 3487              		.loc 1 608 13 is_stmt 1 view .LVU1141
 3488              	.LBB641:
 3489              	.LBI641:
1256:Drivers/lvgl/src/draw/sw/blend/lv_draw_sw_blend_to_i1.c **** {
 3490              		.loc 1 1256 44 view .LVU1142
 3491              	.LBB642:
1258:Drivers/lvgl/src/draw/sw/blend/lv_draw_sw_blend_to_i1.c **** }
 3492              		.loc 1 1258 5 view .LVU1143
1258:Drivers/lvgl/src/draw/sw/blend/lv_draw_sw_blend_to_i1.c **** }
 3493              		.loc 1 1258 12 is_stmt 0 view .LVU1144
 3494 034a 029B     		ldr	r3, [sp, #8]
 3495 034c 1E44     		add	r6, r6, r3
 3496              	.LVL371:
1258:Drivers/lvgl/src/draw/sw/blend/lv_draw_sw_blend_to_i1.c **** }
 3497              		.loc 1 1258 12 view .LVU1145
 3498              	.LBE642:
 3499              	.LBE641:
 597:Drivers/lvgl/src/draw/sw/blend/lv_draw_sw_blend_to_i1.c ****             for(src_x = 0; src_x < w; src_x++) {
 3500              		.loc 1 597 28 is_stmt 1 discriminator 2 view .LVU1146
 3501 034e 0131     		adds	r1, r1, #1
 3502              	.LVL372:
 3503              	.L139:
 597:Drivers/lvgl/src/draw/sw/blend/lv_draw_sw_blend_to_i1.c ****             for(src_x = 0; src_x < w; src_x++) {
 3504              		.loc 1 597 22 discriminator 1 view .LVU1147
 3505 0350 039B     		ldr	r3, [sp, #12]
 3506 0352 9942     		cmp	r1, r3
 3507 0354 0DDA     		bge	.L138
 598:Drivers/lvgl/src/draw/sw/blend/lv_draw_sw_blend_to_i1.c ****                 src_argb.red = src_buf_l8[src_x];
 3508              		.loc 1 598 23 is_stmt 0 view .LVU1148
 3509 0356 4FF00009 		mov	r9, #0
 3510 035a 0191     		str	r1, [sp, #4]
 3511 035c E0E7     		b	.L172
 3512              	.LVL373:
 3513              	.L173:
 597:Drivers/lvgl/src/draw/sw/blend/lv_draw_sw_blend_to_i1.c ****             for(src_x = 0; src_x < w; src_x++) {
 3514              		.loc 1 597 15 view .LVU1149
 3515 035e 0021     		movs	r1, #0
 3516 0360 0395     		str	r5, [sp, #12]
 3517 0362 3546     		mov	r5, r6
 3518              	.LVL374:
 597:Drivers/lvgl/src/draw/sw/blend/lv_draw_sw_blend_to_i1.c ****             for(src_x = 0; src_x < w; src_x++) {
 3519              		.loc 1 597 15 view .LVU1150
 3520 0364 3E46     		mov	r6, r7
 3521              	.LVL375:
 597:Drivers/lvgl/src/draw/sw/blend/lv_draw_sw_blend_to_i1.c ****             for(src_x = 0; src_x < w; src_x++) {
ARM GAS  /var/folders/qx/2_175_4n2s19vhvtspjhb3qh0000gn/T//ccaVas4T.s 			page 112


 3522              		.loc 1 597 15 view .LVU1151
 3523 0366 2746     		mov	r7, r4
 3524              	.LVL376:
 597:Drivers/lvgl/src/draw/sw/blend/lv_draw_sw_blend_to_i1.c ****             for(src_x = 0; src_x < w; src_x++) {
 3525              		.loc 1 597 15 view .LVU1152
 3526 0368 CDF810E0 		str	lr, [sp, #16]
 3527 036c 0592     		str	r2, [sp, #20]
 3528 036e 1C46     		mov	r4, r3
 3529              	.LVL377:
 597:Drivers/lvgl/src/draw/sw/blend/lv_draw_sw_blend_to_i1.c ****             for(src_x = 0; src_x < w; src_x++) {
 3530              		.loc 1 597 15 view .LVU1153
 3531 0370 EEE7     		b	.L139
 3532              	.LVL378:
 3533              	.L138:
 597:Drivers/lvgl/src/draw/sw/blend/lv_draw_sw_blend_to_i1.c ****             for(src_x = 0; src_x < w; src_x++) {
 3534              		.loc 1 597 15 view .LVU1154
 3535              	.LBE638:
 611:Drivers/lvgl/src/draw/sw/blend/lv_draw_sw_blend_to_i1.c **** #endif
 3536              		.loc 1 611 1 view .LVU1155
 3537 0372 0BB0     		add	sp, sp, #44
 3538              	.LCFI12:
 3539              		.cfi_def_cfa_offset 36
 3540              		@ sp needed
 3541 0374 BDE8F08F 		pop	{r4, r5, r6, r7, r8, r9, r10, fp, pc}
 611:Drivers/lvgl/src/draw/sw/blend/lv_draw_sw_blend_to_i1.c **** #endif
 3542              		.loc 1 611 1 view .LVU1156
 3543              		.cfi_endproc
 3544              	.LFE184:
 3546              		.section	.text.al88_image_blend,"ax",%progbits
 3547              		.align	1
 3548              		.syntax unified
 3549              		.thumb
 3550              		.thumb_func
 3552              	al88_image_blend:
 3553              	.LVL379:
 3554              	.LFB185:
 616:Drivers/lvgl/src/draw/sw/blend/lv_draw_sw_blend_to_i1.c ****     int32_t w = dsc->dest_w;
 3555              		.loc 1 616 1 is_stmt 1 view -0
 3556              		.cfi_startproc
 3557              		@ args = 0, pretend = 0, frame = 40
 3558              		@ frame_needed = 0, uses_anonymous_args = 0
 616:Drivers/lvgl/src/draw/sw/blend/lv_draw_sw_blend_to_i1.c ****     int32_t w = dsc->dest_w;
 3559              		.loc 1 616 1 is_stmt 0 view .LVU1158
 3560 0000 2DE9F04F 		push	{r4, r5, r6, r7, r8, r9, r10, fp, lr}
 3561              	.LCFI13:
 3562              		.cfi_def_cfa_offset 36
 3563              		.cfi_offset 4, -36
 3564              		.cfi_offset 5, -32
 3565              		.cfi_offset 6, -28
 3566              		.cfi_offset 7, -24
 3567              		.cfi_offset 8, -20
 3568              		.cfi_offset 9, -16
 3569              		.cfi_offset 10, -12
 3570              		.cfi_offset 11, -8
 3571              		.cfi_offset 14, -4
 3572 0004 8BB0     		sub	sp, sp, #44
 3573              	.LCFI14:
ARM GAS  /var/folders/qx/2_175_4n2s19vhvtspjhb3qh0000gn/T//ccaVas4T.s 			page 113


 3574              		.cfi_def_cfa_offset 80
 3575 0006 8246     		mov	r10, r0
 617:Drivers/lvgl/src/draw/sw/blend/lv_draw_sw_blend_to_i1.c ****     int32_t h = dsc->dest_h;
 3576              		.loc 1 617 5 is_stmt 1 view .LVU1159
 617:Drivers/lvgl/src/draw/sw/blend/lv_draw_sw_blend_to_i1.c ****     int32_t h = dsc->dest_h;
 3577              		.loc 1 617 13 is_stmt 0 view .LVU1160
 3578 0008 D0F80490 		ldr	r9, [r0, #4]
 3579              	.LVL380:
 618:Drivers/lvgl/src/draw/sw/blend/lv_draw_sw_blend_to_i1.c ****     lv_opa_t opa = dsc->opa;
 3580              		.loc 1 618 5 is_stmt 1 view .LVU1161
 618:Drivers/lvgl/src/draw/sw/blend/lv_draw_sw_blend_to_i1.c ****     lv_opa_t opa = dsc->opa;
 3581              		.loc 1 618 13 is_stmt 0 view .LVU1162
 3582 000c 8368     		ldr	r3, [r0, #8]
 3583              	.LVL381:
 619:Drivers/lvgl/src/draw/sw/blend/lv_draw_sw_blend_to_i1.c ****     uint8_t * dest_buf_i1 = dsc->dest_buf;
 3584              		.loc 1 619 5 is_stmt 1 view .LVU1163
 619:Drivers/lvgl/src/draw/sw/blend/lv_draw_sw_blend_to_i1.c ****     uint8_t * dest_buf_i1 = dsc->dest_buf;
 3585              		.loc 1 619 14 is_stmt 0 view .LVU1164
 3586 000e 90F821B0 		ldrb	fp, [r0, #33]	@ zero_extendqisi2
 3587              	.LVL382:
 620:Drivers/lvgl/src/draw/sw/blend/lv_draw_sw_blend_to_i1.c ****     int32_t dest_stride = dsc->dest_stride;
 3588              		.loc 1 620 5 is_stmt 1 view .LVU1165
 620:Drivers/lvgl/src/draw/sw/blend/lv_draw_sw_blend_to_i1.c ****     int32_t dest_stride = dsc->dest_stride;
 3589              		.loc 1 620 15 is_stmt 0 view .LVU1166
 3590 0012 0668     		ldr	r6, [r0]
 3591              	.LVL383:
 621:Drivers/lvgl/src/draw/sw/blend/lv_draw_sw_blend_to_i1.c ****     const lv_color16a_t * src_buf_al88 = dsc->src_buf;
 3592              		.loc 1 621 5 is_stmt 1 view .LVU1167
 621:Drivers/lvgl/src/draw/sw/blend/lv_draw_sw_blend_to_i1.c ****     const lv_color16a_t * src_buf_al88 = dsc->src_buf;
 3593              		.loc 1 621 13 is_stmt 0 view .LVU1168
 3594 0014 C268     		ldr	r2, [r0, #12]
 3595 0016 0392     		str	r2, [sp, #12]
 3596              	.LVL384:
 622:Drivers/lvgl/src/draw/sw/blend/lv_draw_sw_blend_to_i1.c ****     int32_t src_stride = dsc->src_stride;
 3597              		.loc 1 622 5 is_stmt 1 view .LVU1169
 622:Drivers/lvgl/src/draw/sw/blend/lv_draw_sw_blend_to_i1.c ****     int32_t src_stride = dsc->src_stride;
 3598              		.loc 1 622 27 is_stmt 0 view .LVU1170
 3599 0018 8569     		ldr	r5, [r0, #24]
 3600              	.LVL385:
 623:Drivers/lvgl/src/draw/sw/blend/lv_draw_sw_blend_to_i1.c ****     const lv_opa_t * mask_buf = dsc->mask_buf;
 3601              		.loc 1 623 5 is_stmt 1 view .LVU1171
 623:Drivers/lvgl/src/draw/sw/blend/lv_draw_sw_blend_to_i1.c ****     const lv_opa_t * mask_buf = dsc->mask_buf;
 3602              		.loc 1 623 13 is_stmt 0 view .LVU1172
 3603 001a C169     		ldr	r1, [r0, #28]
 3604              	.LVL386:
 624:Drivers/lvgl/src/draw/sw/blend/lv_draw_sw_blend_to_i1.c ****     int32_t mask_stride = dsc->mask_stride;
 3605              		.loc 1 624 5 is_stmt 1 view .LVU1173
 624:Drivers/lvgl/src/draw/sw/blend/lv_draw_sw_blend_to_i1.c ****     int32_t mask_stride = dsc->mask_stride;
 3606              		.loc 1 624 22 is_stmt 0 view .LVU1174
 3607 001c D0F81080 		ldr	r8, [r0, #16]
 3608              	.LVL387:
 625:Drivers/lvgl/src/draw/sw/blend/lv_draw_sw_blend_to_i1.c **** 
 3609              		.loc 1 625 5 is_stmt 1 view .LVU1175
 625:Drivers/lvgl/src/draw/sw/blend/lv_draw_sw_blend_to_i1.c **** 
 3610              		.loc 1 625 13 is_stmt 0 view .LVU1176
 3611 0020 4069     		ldr	r0, [r0, #20]
 3612              	.LVL388:
ARM GAS  /var/folders/qx/2_175_4n2s19vhvtspjhb3qh0000gn/T//ccaVas4T.s 			page 114


 627:Drivers/lvgl/src/draw/sw/blend/lv_draw_sw_blend_to_i1.c ****     int32_t src_x;
 3613              		.loc 1 627 5 is_stmt 1 view .LVU1177
 628:Drivers/lvgl/src/draw/sw/blend/lv_draw_sw_blend_to_i1.c ****     int32_t y;
 3614              		.loc 1 628 5 view .LVU1178
 629:Drivers/lvgl/src/draw/sw/blend/lv_draw_sw_blend_to_i1.c **** 
 3615              		.loc 1 629 5 view .LVU1179
 631:Drivers/lvgl/src/draw/sw/blend/lv_draw_sw_blend_to_i1.c **** 
 3616              		.loc 1 631 5 view .LVU1180
 631:Drivers/lvgl/src/draw/sw/blend/lv_draw_sw_blend_to_i1.c **** 
 3617              		.loc 1 631 41 is_stmt 0 view .LVU1181
 3618 0022 DAF82440 		ldr	r4, [r10, #36]
 631:Drivers/lvgl/src/draw/sw/blend/lv_draw_sw_blend_to_i1.c **** 
 3619              		.loc 1 631 13 view .LVU1182
 3620 0026 6242     		rsbs	r2, r4, #0
 3621              	.LVL389:
 631:Drivers/lvgl/src/draw/sw/blend/lv_draw_sw_blend_to_i1.c **** 
 3622              		.loc 1 631 13 view .LVU1183
 3623 0028 04F0070C 		and	ip, r4, #7
 3624 002c 02F00702 		and	r2, r2, #7
 3625 0030 58BF     		it	pl
 3626 0032 C2F1000C 		rsbpl	ip, r2, #0
 3627              	.LVL390:
 633:Drivers/lvgl/src/draw/sw/blend/lv_draw_sw_blend_to_i1.c ****         if(mask_buf == NULL && opa >= LV_OPA_MAX) {
 3628              		.loc 1 633 5 is_stmt 1 view .LVU1184
 633:Drivers/lvgl/src/draw/sw/blend/lv_draw_sw_blend_to_i1.c ****         if(mask_buf == NULL && opa >= LV_OPA_MAX) {
 3629              		.loc 1 633 11 is_stmt 0 view .LVU1185
 3630 0036 9AF82220 		ldrb	r2, [r10, #34]	@ zero_extendqisi2
 633:Drivers/lvgl/src/draw/sw/blend/lv_draw_sw_blend_to_i1.c ****         if(mask_buf == NULL && opa >= LV_OPA_MAX) {
 3631              		.loc 1 633 7 view .LVU1186
 3632 003a 002A     		cmp	r2, #0
 3633 003c 40F0B181 		bne	.L231
 634:Drivers/lvgl/src/draw/sw/blend/lv_draw_sw_blend_to_i1.c ****             if(LV_RESULT_INVALID == LV_DRAW_SW_AL88_BLEND_NORMAL_TO_I1(dsc)) {
 3634              		.loc 1 634 9 is_stmt 1 view .LVU1187
 634:Drivers/lvgl/src/draw/sw/blend/lv_draw_sw_blend_to_i1.c ****             if(LV_RESULT_INVALID == LV_DRAW_SW_AL88_BLEND_NORMAL_TO_I1(dsc)) {
 3635              		.loc 1 634 11 is_stmt 0 view .LVU1188
 3636 0040 B8F1000F 		cmp	r8, #0
 3637 0044 17D0     		beq	.L242
 670:Drivers/lvgl/src/draw/sw/blend/lv_draw_sw_blend_to_i1.c ****             if(LV_RESULT_INVALID == LV_DRAW_SW_AL88_BLEND_NORMAL_TO_I1_WITH_MASK(dsc)) {
 3638              		.loc 1 670 14 is_stmt 1 view .LVU1189
 670:Drivers/lvgl/src/draw/sw/blend/lv_draw_sw_blend_to_i1.c ****             if(LV_RESULT_INVALID == LV_DRAW_SW_AL88_BLEND_NORMAL_TO_I1_WITH_MASK(dsc)) {
 3639              		.loc 1 670 16 is_stmt 0 view .LVU1190
 3640 0046 B8F1000F 		cmp	r8, #0
 3641 004a 00F0B581 		beq	.L197
 670:Drivers/lvgl/src/draw/sw/blend/lv_draw_sw_blend_to_i1.c ****             if(LV_RESULT_INVALID == LV_DRAW_SW_AL88_BLEND_NORMAL_TO_I1_WITH_MASK(dsc)) {
 3642              		.loc 1 670 26 discriminator 1 view .LVU1191
 3643 004e BBF1FC0F 		cmp	fp, #252
 3644 0052 00F20D81 		bhi	.L235
 689:Drivers/lvgl/src/draw/sw/blend/lv_draw_sw_blend_to_i1.c ****             if(LV_RESULT_INVALID == LV_DRAW_SW_AL88_BLEND_NORMAL_TO_I1_MIX_MASK_OPA(dsc)) {
 3645              		.loc 1 689 14 is_stmt 1 view .LVU1192
 689:Drivers/lvgl/src/draw/sw/blend/lv_draw_sw_blend_to_i1.c ****             if(LV_RESULT_INVALID == LV_DRAW_SW_AL88_BLEND_NORMAL_TO_I1_MIX_MASK_OPA(dsc)) {
 3646              		.loc 1 689 16 is_stmt 0 view .LVU1193
 3647 0056 B8F1000F 		cmp	r8, #0
 3648 005a 00F0AD81 		beq	.L197
 691:Drivers/lvgl/src/draw/sw/blend/lv_draw_sw_blend_to_i1.c ****                     for(dest_x = 0, src_x = 0; src_x < w; dest_x++, src_x++) {
 3649              		.loc 1 691 23 view .LVU1194
 3650 005e 0027     		movs	r7, #0
 3651 0060 BA46     		mov	r10, r7
ARM GAS  /var/folders/qx/2_175_4n2s19vhvtspjhb3qh0000gn/T//ccaVas4T.s 			page 115


 3652              	.LVL391:
 691:Drivers/lvgl/src/draw/sw/blend/lv_draw_sw_blend_to_i1.c ****                     for(dest_x = 0, src_x = 0; src_x < w; dest_x++, src_x++) {
 3653              		.loc 1 691 23 view .LVU1195
 3654 0062 0593     		str	r3, [sp, #20]
 3655 0064 CDF804B0 		str	fp, [sp, #4]
 3656 0068 C346     		mov	fp, r8
 3657              	.LVL392:
 691:Drivers/lvgl/src/draw/sw/blend/lv_draw_sw_blend_to_i1.c ****                     for(dest_x = 0, src_x = 0; src_x < w; dest_x++, src_x++) {
 3658              		.loc 1 691 23 view .LVU1196
 3659 006a A846     		mov	r8, r5
 3660              	.LVL393:
 691:Drivers/lvgl/src/draw/sw/blend/lv_draw_sw_blend_to_i1.c ****                     for(dest_x = 0, src_x = 0; src_x < w; dest_x++, src_x++) {
 3661              		.loc 1 691 23 view .LVU1197
 3662 006c 0691     		str	r1, [sp, #24]
 3663 006e 0790     		str	r0, [sp, #28]
 3664 0070 CDF808C0 		str	ip, [sp, #8]
 3665 0074 52E1     		b	.L220
 3666              	.LVL394:
 3667              	.L242:
 634:Drivers/lvgl/src/draw/sw/blend/lv_draw_sw_blend_to_i1.c ****             if(LV_RESULT_INVALID == LV_DRAW_SW_AL88_BLEND_NORMAL_TO_I1(dsc)) {
 3668              		.loc 1 634 29 discriminator 1 view .LVU1198
 3669 0076 BBF1FC0F 		cmp	fp, #252
 3670 007a 4CD8     		bhi	.L232
 654:Drivers/lvgl/src/draw/sw/blend/lv_draw_sw_blend_to_i1.c ****                     for(dest_x = 0, src_x = 0; src_x < w; dest_x++, src_x++) {
 3671              		.loc 1 654 23 view .LVU1199
 3672 007c 0027     		movs	r7, #0
 3673 007e B846     		mov	r8, r7
 3674              	.LVL395:
 654:Drivers/lvgl/src/draw/sw/blend/lv_draw_sw_blend_to_i1.c ****                     for(dest_x = 0, src_x = 0; src_x < w; dest_x++, src_x++) {
 3675              		.loc 1 654 23 view .LVU1200
 3676 0080 2F46     		mov	r7, r5
 3677 0082 0493     		str	r3, [sp, #16]
 3678 0084 0591     		str	r1, [sp, #20]
 3679 0086 CDF804C0 		str	ip, [sp, #4]
 3680 008a 92E0     		b	.L201
 3681              	.LVL396:
 3682              	.L244:
 3683              	.LBB643:
 3684              	.LBB644:
 3685              	.LBB645:
1273:Drivers/lvgl/src/draw/sw/blend/lv_draw_sw_blend_to_i1.c **** }
 3686              		.loc 1 1273 25 view .LVU1201
 3687 008c E71D     		adds	r7, r4, #7
 3688 008e 11E0     		b	.L202
 3689              	.LVL397:
 3690              	.L203:
1273:Drivers/lvgl/src/draw/sw/blend/lv_draw_sw_blend_to_i1.c **** }
 3691              		.loc 1 1273 25 view .LVU1202
 3692              	.LBE645:
 3693              	.LBE644:
 644:Drivers/lvgl/src/draw/sw/blend/lv_draw_sw_blend_to_i1.c ****                         }
 3694              		.loc 1 644 29 is_stmt 1 view .LVU1203
 3695              	.LBB647:
 3696              	.LBI647:
1266:Drivers/lvgl/src/draw/sw/blend/lv_draw_sw_blend_to_i1.c **** {
 3697              		.loc 1 1266 42 view .LVU1204
 3698              	.LBB648:
ARM GAS  /var/folders/qx/2_175_4n2s19vhvtspjhb3qh0000gn/T//ccaVas4T.s 			page 116


1268:Drivers/lvgl/src/draw/sw/blend/lv_draw_sw_blend_to_i1.c **** }
 3699              		.loc 1 1268 5 view .LVU1205
1268:Drivers/lvgl/src/draw/sw/blend/lv_draw_sw_blend_to_i1.c **** }
 3700              		.loc 1 1268 8 is_stmt 0 view .LVU1206
 3701 0090 F25D     		ldrb	r2, [r6, r7]	@ zero_extendqisi2
1268:Drivers/lvgl/src/draw/sw/blend/lv_draw_sw_blend_to_i1.c **** }
 3702              		.loc 1 1268 29 view .LVU1207
 3703 0092 0123     		movs	r3, #1
 3704 0094 A340     		lsls	r3, r3, r4
1268:Drivers/lvgl/src/draw/sw/blend/lv_draw_sw_blend_to_i1.c **** }
 3705              		.loc 1 1268 22 view .LVU1208
 3706 0096 DB43     		mvns	r3, r3
 3707 0098 5BB2     		sxtb	r3, r3
 3708 009a 1340     		ands	r3, r3, r2
 3709 009c F355     		strb	r3, [r6, r7]
 3710              	.LVL398:
 3711              	.L204:
1268:Drivers/lvgl/src/draw/sw/blend/lv_draw_sw_blend_to_i1.c **** }
 3712              		.loc 1 1268 22 view .LVU1209
 3713              	.LBE648:
 3714              	.LBE647:
 3715              	.LBE643:
 637:Drivers/lvgl/src/draw/sw/blend/lv_draw_sw_blend_to_i1.c ****                         uint8_t dest_val = get_bit(dest_buf_i1, dest_x + bit_ofs) * 255;
 3716              		.loc 1 637 67 is_stmt 1 discriminator 2 view .LVU1210
 637:Drivers/lvgl/src/draw/sw/blend/lv_draw_sw_blend_to_i1.c ****                         uint8_t dest_val = get_bit(dest_buf_i1, dest_x + bit_ofs) * 255;
 3717              		.loc 1 637 65 is_stmt 0 discriminator 2 view .LVU1211
 3718 009e 0AF1010A 		add	r10, r10, #1
 3719              	.LVL399:
 637:Drivers/lvgl/src/draw/sw/blend/lv_draw_sw_blend_to_i1.c ****                         uint8_t dest_val = get_bit(dest_buf_i1, dest_x + bit_ofs) * 255;
 3720              		.loc 1 637 74 discriminator 2 view .LVU1212
 3721 00a2 08F10108 		add	r8, r8, #1
 3722              	.LVL400:
 3723              	.L206:
 637:Drivers/lvgl/src/draw/sw/blend/lv_draw_sw_blend_to_i1.c ****                         uint8_t dest_val = get_bit(dest_buf_i1, dest_x + bit_ofs) * 255;
 3724              		.loc 1 637 54 is_stmt 1 discriminator 1 view .LVU1213
 3725 00a6 C845     		cmp	r8, r9
 3726 00a8 26DA     		bge	.L243
 3727              	.LBB652:
 638:Drivers/lvgl/src/draw/sw/blend/lv_draw_sw_blend_to_i1.c ****                         lv_color_8_8_mix(src_buf_al88[src_x].lumi, &dest_val, src_buf_al88[src_x].a
 3728              		.loc 1 638 25 view .LVU1214
 638:Drivers/lvgl/src/draw/sw/blend/lv_draw_sw_blend_to_i1.c ****                         lv_color_8_8_mix(src_buf_al88[src_x].lumi, &dest_val, src_buf_al88[src_x].a
 3729              		.loc 1 638 44 is_stmt 0 view .LVU1215
 3730 00aa 0AEB0B04 		add	r4, r10, fp
 3731              	.LVL401:
 3732              	.LBB649:
 3733              	.LBI644:
1271:Drivers/lvgl/src/draw/sw/blend/lv_draw_sw_blend_to_i1.c **** {
 3734              		.loc 1 1271 45 is_stmt 1 view .LVU1216
 3735              	.LBB646:
1273:Drivers/lvgl/src/draw/sw/blend/lv_draw_sw_blend_to_i1.c **** }
 3736              		.loc 1 1273 5 view .LVU1217
1273:Drivers/lvgl/src/draw/sw/blend/lv_draw_sw_blend_to_i1.c **** }
 3737              		.loc 1 1273 25 is_stmt 0 view .LVU1218
 3738 00ae 2746     		mov	r7, r4
 3739 00b0 002C     		cmp	r4, #0
 3740 00b2 EBDB     		blt	.L244
 3741              	.L202:
ARM GAS  /var/folders/qx/2_175_4n2s19vhvtspjhb3qh0000gn/T//ccaVas4T.s 			page 117


1273:Drivers/lvgl/src/draw/sw/blend/lv_draw_sw_blend_to_i1.c **** }
 3742              		.loc 1 1273 25 view .LVU1219
 3743 00b4 FF10     		asrs	r7, r7, #3
1273:Drivers/lvgl/src/draw/sw/blend/lv_draw_sw_blend_to_i1.c **** }
 3744              		.loc 1 1273 16 view .LVU1220
 3745 00b6 F35D     		ldrb	r3, [r6, r7]	@ zero_extendqisi2
1273:Drivers/lvgl/src/draw/sw/blend/lv_draw_sw_blend_to_i1.c **** }
 3746              		.loc 1 1273 47 view .LVU1221
 3747 00b8 6242     		rsbs	r2, r4, #0
 3748 00ba 04F00704 		and	r4, r4, #7
 3749              	.LVL402:
1273:Drivers/lvgl/src/draw/sw/blend/lv_draw_sw_blend_to_i1.c **** }
 3750              		.loc 1 1273 47 view .LVU1222
 3751 00be 02F00702 		and	r2, r2, #7
 3752 00c2 58BF     		it	pl
 3753 00c4 5442     		rsbpl	r4, r2, #0
1273:Drivers/lvgl/src/draw/sw/blend/lv_draw_sw_blend_to_i1.c **** }
 3754              		.loc 1 1273 36 view .LVU1223
 3755 00c6 C4F10704 		rsb	r4, r4, #7
1273:Drivers/lvgl/src/draw/sw/blend/lv_draw_sw_blend_to_i1.c **** }
 3756              		.loc 1 1273 30 view .LVU1224
 3757 00ca 2341     		asrs	r3, r3, r4
 3758              	.LVL403:
1273:Drivers/lvgl/src/draw/sw/blend/lv_draw_sw_blend_to_i1.c **** }
 3759              		.loc 1 1273 30 view .LVU1225
 3760              	.LBE646:
 3761              	.LBE649:
 638:Drivers/lvgl/src/draw/sw/blend/lv_draw_sw_blend_to_i1.c ****                         lv_color_8_8_mix(src_buf_al88[src_x].lumi, &dest_val, src_buf_al88[src_x].a
 3762              		.loc 1 638 33 discriminator 1 view .LVU1226
 3763 00cc 43F30003 		sbfx	r3, r3, #0, #1
 3764 00d0 8DF82430 		strb	r3, [sp, #36]
 639:Drivers/lvgl/src/draw/sw/blend/lv_draw_sw_blend_to_i1.c ****                         if(dest_val > I1_LUM_THRESHOLD) {
 3765              		.loc 1 639 25 is_stmt 1 view .LVU1227
 639:Drivers/lvgl/src/draw/sw/blend/lv_draw_sw_blend_to_i1.c ****                         if(dest_val > I1_LUM_THRESHOLD) {
 3766              		.loc 1 639 54 is_stmt 0 view .LVU1228
 3767 00d4 05EB4803 		add	r3, r5, r8, lsl #1
 639:Drivers/lvgl/src/draw/sw/blend/lv_draw_sw_blend_to_i1.c ****                         if(dest_val > I1_LUM_THRESHOLD) {
 3768              		.loc 1 639 25 view .LVU1229
 3769 00d8 5A78     		ldrb	r2, [r3, #1]	@ zero_extendqisi2
 3770 00da 09A9     		add	r1, sp, #36
 3771 00dc 15F81800 		ldrb	r0, [r5, r8, lsl #1]	@ zero_extendqisi2
 3772 00e0 FFF7FEFF 		bl	lv_color_8_8_mix
 3773              	.LVL404:
 640:Drivers/lvgl/src/draw/sw/blend/lv_draw_sw_blend_to_i1.c ****                             set_bit(dest_buf_i1, dest_x + bit_ofs);
 3774              		.loc 1 640 25 is_stmt 1 view .LVU1230
 640:Drivers/lvgl/src/draw/sw/blend/lv_draw_sw_blend_to_i1.c ****                             set_bit(dest_buf_i1, dest_x + bit_ofs);
 3775              		.loc 1 640 37 is_stmt 0 view .LVU1231
 3776 00e4 9DF92430 		ldrsb	r3, [sp, #36]
 640:Drivers/lvgl/src/draw/sw/blend/lv_draw_sw_blend_to_i1.c ****                             set_bit(dest_buf_i1, dest_x + bit_ofs);
 3777              		.loc 1 640 27 view .LVU1232
 3778 00e8 002B     		cmp	r3, #0
 3779 00ea D1DA     		bge	.L203
 641:Drivers/lvgl/src/draw/sw/blend/lv_draw_sw_blend_to_i1.c ****                         }
 3780              		.loc 1 641 29 is_stmt 1 view .LVU1233
 3781              	.LVL405:
 3782              	.LBB650:
 3783              	.LBI650:
ARM GAS  /var/folders/qx/2_175_4n2s19vhvtspjhb3qh0000gn/T//ccaVas4T.s 			page 118


1261:Drivers/lvgl/src/draw/sw/blend/lv_draw_sw_blend_to_i1.c **** {
 3784              		.loc 1 1261 42 view .LVU1234
 3785              	.LBB651:
1263:Drivers/lvgl/src/draw/sw/blend/lv_draw_sw_blend_to_i1.c **** }
 3786              		.loc 1 1263 5 view .LVU1235
1263:Drivers/lvgl/src/draw/sw/blend/lv_draw_sw_blend_to_i1.c **** }
 3787              		.loc 1 1263 8 is_stmt 0 view .LVU1236
 3788 00ec F35D     		ldrb	r3, [r6, r7]	@ zero_extendqisi2
1263:Drivers/lvgl/src/draw/sw/blend/lv_draw_sw_blend_to_i1.c **** }
 3789              		.loc 1 1263 28 view .LVU1237
 3790 00ee 0122     		movs	r2, #1
 3791 00f0 A240     		lsls	r2, r2, r4
1263:Drivers/lvgl/src/draw/sw/blend/lv_draw_sw_blend_to_i1.c **** }
 3792              		.loc 1 1263 22 view .LVU1238
 3793 00f2 1343     		orrs	r3, r3, r2
 3794 00f4 F355     		strb	r3, [r6, r7]
 3795              	.LVL406:
1264:Drivers/lvgl/src/draw/sw/blend/lv_draw_sw_blend_to_i1.c **** 
 3796              		.loc 1 1264 1 view .LVU1239
 3797 00f6 D2E7     		b	.L204
 3798              	.L243:
1264:Drivers/lvgl/src/draw/sw/blend/lv_draw_sw_blend_to_i1.c **** 
 3799              		.loc 1 1264 1 view .LVU1240
 3800              	.LBE651:
 3801              	.LBE650:
 3802              	.LBE652:
 3803              	.LBB653:
 3804              	.LBB654:
1258:Drivers/lvgl/src/draw/sw/blend/lv_draw_sw_blend_to_i1.c **** }
 3805              		.loc 1 1258 12 view .LVU1241
 3806 00f8 019F     		ldr	r7, [sp, #4]
 3807              	.LBE654:
 3808              	.LBE653:
 647:Drivers/lvgl/src/draw/sw/blend/lv_draw_sw_blend_to_i1.c ****                     src_buf_al88 = drawbuf_next_row(src_buf_al88, src_stride);
 3809              		.loc 1 647 21 is_stmt 1 view .LVU1242
 3810              	.LVL407:
 3811              	.LBB656:
 3812              	.LBI653:
1256:Drivers/lvgl/src/draw/sw/blend/lv_draw_sw_blend_to_i1.c **** {
 3813              		.loc 1 1256 44 view .LVU1243
 3814              	.LBB655:
1258:Drivers/lvgl/src/draw/sw/blend/lv_draw_sw_blend_to_i1.c **** }
 3815              		.loc 1 1258 5 view .LVU1244
1258:Drivers/lvgl/src/draw/sw/blend/lv_draw_sw_blend_to_i1.c **** }
 3816              		.loc 1 1258 12 is_stmt 0 view .LVU1245
 3817 00fa 039B     		ldr	r3, [sp, #12]
 3818 00fc 1E44     		add	r6, r6, r3
 3819              	.LVL408:
1258:Drivers/lvgl/src/draw/sw/blend/lv_draw_sw_blend_to_i1.c **** }
 3820              		.loc 1 1258 12 view .LVU1246
 3821              	.LBE655:
 3822              	.LBE656:
 648:Drivers/lvgl/src/draw/sw/blend/lv_draw_sw_blend_to_i1.c ****                 }
 3823              		.loc 1 648 21 is_stmt 1 view .LVU1247
 3824              	.LBB657:
 3825              	.LBI657:
1256:Drivers/lvgl/src/draw/sw/blend/lv_draw_sw_blend_to_i1.c **** {
ARM GAS  /var/folders/qx/2_175_4n2s19vhvtspjhb3qh0000gn/T//ccaVas4T.s 			page 119


 3826              		.loc 1 1256 44 view .LVU1248
 3827              	.LBB658:
1258:Drivers/lvgl/src/draw/sw/blend/lv_draw_sw_blend_to_i1.c **** }
 3828              		.loc 1 1258 5 view .LVU1249
1258:Drivers/lvgl/src/draw/sw/blend/lv_draw_sw_blend_to_i1.c **** }
 3829              		.loc 1 1258 12 is_stmt 0 view .LVU1250
 3830 00fe 049B     		ldr	r3, [sp, #16]
 3831 0100 1D44     		add	r5, r5, r3
 3832              	.LVL409:
1258:Drivers/lvgl/src/draw/sw/blend/lv_draw_sw_blend_to_i1.c **** }
 3833              		.loc 1 1258 12 view .LVU1251
 3834              	.LBE658:
 3835              	.LBE657:
 636:Drivers/lvgl/src/draw/sw/blend/lv_draw_sw_blend_to_i1.c ****                     for(dest_x = 0, src_x = 0; src_x < w; dest_x++, src_x++) {
 3836              		.loc 1 636 36 is_stmt 1 discriminator 2 view .LVU1252
 3837 0102 0137     		adds	r7, r7, #1
 3838              	.LVL410:
 3839              	.L200:
 636:Drivers/lvgl/src/draw/sw/blend/lv_draw_sw_blend_to_i1.c ****                     for(dest_x = 0, src_x = 0; src_x < w; dest_x++, src_x++) {
 3840              		.loc 1 636 30 discriminator 1 view .LVU1253
 3841 0104 029B     		ldr	r3, [sp, #8]
 3842 0106 9F42     		cmp	r7, r3
 3843 0108 80F25681 		bge	.L197
 637:Drivers/lvgl/src/draw/sw/blend/lv_draw_sw_blend_to_i1.c ****                         uint8_t dest_val = get_bit(dest_buf_i1, dest_x + bit_ofs) * 255;
 3844              		.loc 1 637 43 is_stmt 0 view .LVU1254
 3845 010c 4FF00008 		mov	r8, #0
 637:Drivers/lvgl/src/draw/sw/blend/lv_draw_sw_blend_to_i1.c ****                         uint8_t dest_val = get_bit(dest_buf_i1, dest_x + bit_ofs) * 255;
 3846              		.loc 1 637 32 view .LVU1255
 3847 0110 C246     		mov	r10, r8
 3848 0112 0197     		str	r7, [sp, #4]
 3849 0114 C7E7     		b	.L206
 3850              	.LVL411:
 3851              	.L232:
 636:Drivers/lvgl/src/draw/sw/blend/lv_draw_sw_blend_to_i1.c ****                     for(dest_x = 0, src_x = 0; src_x < w; dest_x++, src_x++) {
 3852              		.loc 1 636 23 view .LVU1256
 3853 0116 4FF0000B 		mov	fp, #0
 3854              	.LVL412:
 636:Drivers/lvgl/src/draw/sw/blend/lv_draw_sw_blend_to_i1.c ****                     for(dest_x = 0, src_x = 0; src_x < w; dest_x++, src_x++) {
 3855              		.loc 1 636 23 view .LVU1257
 3856 011a 5F46     		mov	r7, fp
 3857 011c 0293     		str	r3, [sp, #8]
 3858 011e 0491     		str	r1, [sp, #16]
 3859 0120 E346     		mov	fp, ip
 3860 0122 EFE7     		b	.L200
 3861              	.LVL413:
 3862              	.L246:
 3863              	.LBB659:
 3864              	.LBB660:
 3865              	.LBB661:
1273:Drivers/lvgl/src/draw/sw/blend/lv_draw_sw_blend_to_i1.c **** }
 3866              		.loc 1 1273 25 view .LVU1258
 3867 0124 04F10708 		add	r8, r4, #7
 3868 0128 12E0     		b	.L208
 3869              	.LVL414:
 3870              	.L209:
1273:Drivers/lvgl/src/draw/sw/blend/lv_draw_sw_blend_to_i1.c **** }
 3871              		.loc 1 1273 25 view .LVU1259
ARM GAS  /var/folders/qx/2_175_4n2s19vhvtspjhb3qh0000gn/T//ccaVas4T.s 			page 120


 3872              	.LBE661:
 3873              	.LBE660:
 662:Drivers/lvgl/src/draw/sw/blend/lv_draw_sw_blend_to_i1.c ****                         }
 3874              		.loc 1 662 29 is_stmt 1 view .LVU1260
 3875              	.LBB663:
 3876              	.LBI663:
1266:Drivers/lvgl/src/draw/sw/blend/lv_draw_sw_blend_to_i1.c **** {
 3877              		.loc 1 1266 42 view .LVU1261
 3878              	.LBB664:
1268:Drivers/lvgl/src/draw/sw/blend/lv_draw_sw_blend_to_i1.c **** }
 3879              		.loc 1 1268 5 view .LVU1262
1268:Drivers/lvgl/src/draw/sw/blend/lv_draw_sw_blend_to_i1.c **** }
 3880              		.loc 1 1268 8 is_stmt 0 view .LVU1263
 3881 012a 16F80820 		ldrb	r2, [r6, r8]	@ zero_extendqisi2
1268:Drivers/lvgl/src/draw/sw/blend/lv_draw_sw_blend_to_i1.c **** }
 3882              		.loc 1 1268 29 view .LVU1264
 3883 012e 0123     		movs	r3, #1
 3884 0130 A340     		lsls	r3, r3, r4
1268:Drivers/lvgl/src/draw/sw/blend/lv_draw_sw_blend_to_i1.c **** }
 3885              		.loc 1 1268 22 view .LVU1265
 3886 0132 DB43     		mvns	r3, r3
 3887 0134 5BB2     		sxtb	r3, r3
 3888 0136 1340     		ands	r3, r3, r2
 3889 0138 06F80830 		strb	r3, [r6, r8]
 3890              	.LVL415:
 3891              	.L210:
1268:Drivers/lvgl/src/draw/sw/blend/lv_draw_sw_blend_to_i1.c **** }
 3892              		.loc 1 1268 22 view .LVU1266
 3893              	.LBE664:
 3894              	.LBE663:
 3895              	.LBE659:
 655:Drivers/lvgl/src/draw/sw/blend/lv_draw_sw_blend_to_i1.c ****                         uint8_t dest_val = get_bit(dest_buf_i1, dest_x + bit_ofs) * 255;
 3896              		.loc 1 655 67 is_stmt 1 discriminator 2 view .LVU1267
 655:Drivers/lvgl/src/draw/sw/blend/lv_draw_sw_blend_to_i1.c ****                         uint8_t dest_val = get_bit(dest_buf_i1, dest_x + bit_ofs) * 255;
 3897              		.loc 1 655 65 is_stmt 0 discriminator 2 view .LVU1268
 3898 013c 0135     		adds	r5, r5, #1
 3899              	.LVL416:
 655:Drivers/lvgl/src/draw/sw/blend/lv_draw_sw_blend_to_i1.c ****                         uint8_t dest_val = get_bit(dest_buf_i1, dest_x + bit_ofs) * 255;
 3900              		.loc 1 655 74 discriminator 2 view .LVU1269
 3901 013e 0AF1010A 		add	r10, r10, #1
 3902              	.LVL417:
 3903              	.L212:
 655:Drivers/lvgl/src/draw/sw/blend/lv_draw_sw_blend_to_i1.c ****                         uint8_t dest_val = get_bit(dest_buf_i1, dest_x + bit_ofs) * 255;
 3904              		.loc 1 655 54 is_stmt 1 discriminator 1 view .LVU1270
 3905 0142 CA45     		cmp	r10, r9
 3906 0144 2DDA     		bge	.L245
 3907              	.LBB668:
 656:Drivers/lvgl/src/draw/sw/blend/lv_draw_sw_blend_to_i1.c ****                         lv_color_8_8_mix(src_buf_al88[src_x].lumi, &dest_val, LV_OPA_MIX2(src_buf_a
 3908              		.loc 1 656 25 view .LVU1271
 656:Drivers/lvgl/src/draw/sw/blend/lv_draw_sw_blend_to_i1.c ****                         lv_color_8_8_mix(src_buf_al88[src_x].lumi, &dest_val, LV_OPA_MIX2(src_buf_a
 3909              		.loc 1 656 44 is_stmt 0 view .LVU1272
 3910 0146 019B     		ldr	r3, [sp, #4]
 3911 0148 EC18     		adds	r4, r5, r3
 3912              	.LVL418:
 3913              	.LBB665:
 3914              	.LBI660:
1271:Drivers/lvgl/src/draw/sw/blend/lv_draw_sw_blend_to_i1.c **** {
ARM GAS  /var/folders/qx/2_175_4n2s19vhvtspjhb3qh0000gn/T//ccaVas4T.s 			page 121


 3915              		.loc 1 1271 45 is_stmt 1 view .LVU1273
 3916              	.LBB662:
1273:Drivers/lvgl/src/draw/sw/blend/lv_draw_sw_blend_to_i1.c **** }
 3917              		.loc 1 1273 5 view .LVU1274
1273:Drivers/lvgl/src/draw/sw/blend/lv_draw_sw_blend_to_i1.c **** }
 3918              		.loc 1 1273 25 is_stmt 0 view .LVU1275
 3919 014a A046     		mov	r8, r4
 3920 014c 002C     		cmp	r4, #0
 3921 014e E9DB     		blt	.L246
 3922              	.L208:
1273:Drivers/lvgl/src/draw/sw/blend/lv_draw_sw_blend_to_i1.c **** }
 3923              		.loc 1 1273 25 view .LVU1276
 3924 0150 4FEAE808 		asr	r8, r8, #3
1273:Drivers/lvgl/src/draw/sw/blend/lv_draw_sw_blend_to_i1.c **** }
 3925              		.loc 1 1273 16 view .LVU1277
 3926 0154 16F80830 		ldrb	r3, [r6, r8]	@ zero_extendqisi2
1273:Drivers/lvgl/src/draw/sw/blend/lv_draw_sw_blend_to_i1.c **** }
 3927              		.loc 1 1273 47 view .LVU1278
 3928 0158 6242     		rsbs	r2, r4, #0
 3929 015a 04F00704 		and	r4, r4, #7
 3930              	.LVL419:
1273:Drivers/lvgl/src/draw/sw/blend/lv_draw_sw_blend_to_i1.c **** }
 3931              		.loc 1 1273 47 view .LVU1279
 3932 015e 02F00702 		and	r2, r2, #7
 3933 0162 58BF     		it	pl
 3934 0164 5442     		rsbpl	r4, r2, #0
1273:Drivers/lvgl/src/draw/sw/blend/lv_draw_sw_blend_to_i1.c **** }
 3935              		.loc 1 1273 36 view .LVU1280
 3936 0166 C4F10704 		rsb	r4, r4, #7
1273:Drivers/lvgl/src/draw/sw/blend/lv_draw_sw_blend_to_i1.c **** }
 3937              		.loc 1 1273 30 view .LVU1281
 3938 016a 2341     		asrs	r3, r3, r4
 3939              	.LVL420:
1273:Drivers/lvgl/src/draw/sw/blend/lv_draw_sw_blend_to_i1.c **** }
 3940              		.loc 1 1273 30 view .LVU1282
 3941              	.LBE662:
 3942              	.LBE665:
 656:Drivers/lvgl/src/draw/sw/blend/lv_draw_sw_blend_to_i1.c ****                         lv_color_8_8_mix(src_buf_al88[src_x].lumi, &dest_val, LV_OPA_MIX2(src_buf_a
 3943              		.loc 1 656 33 discriminator 1 view .LVU1283
 3944 016c 43F30003 		sbfx	r3, r3, #0, #1
 3945 0170 8DF82430 		strb	r3, [sp, #36]
 657:Drivers/lvgl/src/draw/sw/blend/lv_draw_sw_blend_to_i1.c ****                         if(dest_val > I1_LUM_THRESHOLD) {
 3946              		.loc 1 657 25 is_stmt 1 view .LVU1284
 657:Drivers/lvgl/src/draw/sw/blend/lv_draw_sw_blend_to_i1.c ****                         if(dest_val > I1_LUM_THRESHOLD) {
 3947              		.loc 1 657 54 is_stmt 0 view .LVU1285
 3948 0174 07EB4A03 		add	r3, r7, r10, lsl #1
 657:Drivers/lvgl/src/draw/sw/blend/lv_draw_sw_blend_to_i1.c ****                         if(dest_val > I1_LUM_THRESHOLD) {
 3949              		.loc 1 657 79 view .LVU1286
 3950 0178 5A78     		ldrb	r2, [r3, #1]	@ zero_extendqisi2
 3951 017a 02FB0BF2 		mul	r2, r2, fp
 657:Drivers/lvgl/src/draw/sw/blend/lv_draw_sw_blend_to_i1.c ****                         if(dest_val > I1_LUM_THRESHOLD) {
 3952              		.loc 1 657 25 view .LVU1287
 3953 017e 120A     		lsrs	r2, r2, #8
 3954 0180 09A9     		add	r1, sp, #36
 3955 0182 17F81A00 		ldrb	r0, [r7, r10, lsl #1]	@ zero_extendqisi2
 3956 0186 FFF7FEFF 		bl	lv_color_8_8_mix
 3957              	.LVL421:
ARM GAS  /var/folders/qx/2_175_4n2s19vhvtspjhb3qh0000gn/T//ccaVas4T.s 			page 122


 658:Drivers/lvgl/src/draw/sw/blend/lv_draw_sw_blend_to_i1.c ****                             set_bit(dest_buf_i1, dest_x + bit_ofs);
 3958              		.loc 1 658 25 is_stmt 1 view .LVU1288
 658:Drivers/lvgl/src/draw/sw/blend/lv_draw_sw_blend_to_i1.c ****                             set_bit(dest_buf_i1, dest_x + bit_ofs);
 3959              		.loc 1 658 37 is_stmt 0 view .LVU1289
 3960 018a 9DF92430 		ldrsb	r3, [sp, #36]
 658:Drivers/lvgl/src/draw/sw/blend/lv_draw_sw_blend_to_i1.c ****                             set_bit(dest_buf_i1, dest_x + bit_ofs);
 3961              		.loc 1 658 27 view .LVU1290
 3962 018e 002B     		cmp	r3, #0
 3963 0190 CBDA     		bge	.L209
 659:Drivers/lvgl/src/draw/sw/blend/lv_draw_sw_blend_to_i1.c ****                         }
 3964              		.loc 1 659 29 is_stmt 1 view .LVU1291
 3965              	.LVL422:
 3966              	.LBB666:
 3967              	.LBI666:
1261:Drivers/lvgl/src/draw/sw/blend/lv_draw_sw_blend_to_i1.c **** {
 3968              		.loc 1 1261 42 view .LVU1292
 3969              	.LBB667:
1263:Drivers/lvgl/src/draw/sw/blend/lv_draw_sw_blend_to_i1.c **** }
 3970              		.loc 1 1263 5 view .LVU1293
1263:Drivers/lvgl/src/draw/sw/blend/lv_draw_sw_blend_to_i1.c **** }
 3971              		.loc 1 1263 8 is_stmt 0 view .LVU1294
 3972 0192 16F80830 		ldrb	r3, [r6, r8]	@ zero_extendqisi2
1263:Drivers/lvgl/src/draw/sw/blend/lv_draw_sw_blend_to_i1.c **** }
 3973              		.loc 1 1263 28 view .LVU1295
 3974 0196 0122     		movs	r2, #1
 3975 0198 A240     		lsls	r2, r2, r4
1263:Drivers/lvgl/src/draw/sw/blend/lv_draw_sw_blend_to_i1.c **** }
 3976              		.loc 1 1263 22 view .LVU1296
 3977 019a 1343     		orrs	r3, r3, r2
 3978 019c 06F80830 		strb	r3, [r6, r8]
 3979              	.LVL423:
1264:Drivers/lvgl/src/draw/sw/blend/lv_draw_sw_blend_to_i1.c **** 
 3980              		.loc 1 1264 1 view .LVU1297
 3981 01a0 CCE7     		b	.L210
 3982              	.L245:
1264:Drivers/lvgl/src/draw/sw/blend/lv_draw_sw_blend_to_i1.c **** 
 3983              		.loc 1 1264 1 view .LVU1298
 3984              	.LBE667:
 3985              	.LBE666:
 3986              	.LBE668:
 3987              	.LBB669:
 3988              	.LBB670:
1258:Drivers/lvgl/src/draw/sw/blend/lv_draw_sw_blend_to_i1.c **** }
 3989              		.loc 1 1258 12 view .LVU1299
 3990 01a2 DDF80880 		ldr	r8, [sp, #8]
 3991              	.LBE670:
 3992              	.LBE669:
 665:Drivers/lvgl/src/draw/sw/blend/lv_draw_sw_blend_to_i1.c ****                     src_buf_al88 = drawbuf_next_row(src_buf_al88, src_stride);
 3993              		.loc 1 665 21 is_stmt 1 view .LVU1300
 3994              	.LVL424:
 3995              	.LBB672:
 3996              	.LBI669:
1256:Drivers/lvgl/src/draw/sw/blend/lv_draw_sw_blend_to_i1.c **** {
 3997              		.loc 1 1256 44 view .LVU1301
 3998              	.LBB671:
1258:Drivers/lvgl/src/draw/sw/blend/lv_draw_sw_blend_to_i1.c **** }
 3999              		.loc 1 1258 5 view .LVU1302
ARM GAS  /var/folders/qx/2_175_4n2s19vhvtspjhb3qh0000gn/T//ccaVas4T.s 			page 123


1258:Drivers/lvgl/src/draw/sw/blend/lv_draw_sw_blend_to_i1.c **** }
 4000              		.loc 1 1258 12 is_stmt 0 view .LVU1303
 4001 01a6 039B     		ldr	r3, [sp, #12]
 4002 01a8 1E44     		add	r6, r6, r3
 4003              	.LVL425:
1258:Drivers/lvgl/src/draw/sw/blend/lv_draw_sw_blend_to_i1.c **** }
 4004              		.loc 1 1258 12 view .LVU1304
 4005              	.LBE671:
 4006              	.LBE672:
 666:Drivers/lvgl/src/draw/sw/blend/lv_draw_sw_blend_to_i1.c ****                 }
 4007              		.loc 1 666 21 is_stmt 1 view .LVU1305
 4008              	.LBB673:
 4009              	.LBI673:
1256:Drivers/lvgl/src/draw/sw/blend/lv_draw_sw_blend_to_i1.c **** {
 4010              		.loc 1 1256 44 view .LVU1306
 4011              	.LBB674:
1258:Drivers/lvgl/src/draw/sw/blend/lv_draw_sw_blend_to_i1.c **** }
 4012              		.loc 1 1258 5 view .LVU1307
1258:Drivers/lvgl/src/draw/sw/blend/lv_draw_sw_blend_to_i1.c **** }
 4013              		.loc 1 1258 12 is_stmt 0 view .LVU1308
 4014 01aa 059B     		ldr	r3, [sp, #20]
 4015 01ac 1F44     		add	r7, r7, r3
 4016              	.LVL426:
1258:Drivers/lvgl/src/draw/sw/blend/lv_draw_sw_blend_to_i1.c **** }
 4017              		.loc 1 1258 12 view .LVU1309
 4018              	.LBE674:
 4019              	.LBE673:
 654:Drivers/lvgl/src/draw/sw/blend/lv_draw_sw_blend_to_i1.c ****                     for(dest_x = 0, src_x = 0; src_x < w; dest_x++, src_x++) {
 4020              		.loc 1 654 36 is_stmt 1 discriminator 2 view .LVU1310
 4021 01ae 08F10108 		add	r8, r8, #1
 4022              	.LVL427:
 4023              	.L201:
 654:Drivers/lvgl/src/draw/sw/blend/lv_draw_sw_blend_to_i1.c ****                     for(dest_x = 0, src_x = 0; src_x < w; dest_x++, src_x++) {
 4024              		.loc 1 654 30 discriminator 1 view .LVU1311
 4025 01b2 049B     		ldr	r3, [sp, #16]
 4026 01b4 9845     		cmp	r8, r3
 4027 01b6 80F2FF80 		bge	.L197
 655:Drivers/lvgl/src/draw/sw/blend/lv_draw_sw_blend_to_i1.c ****                         uint8_t dest_val = get_bit(dest_buf_i1, dest_x + bit_ofs) * 255;
 4028              		.loc 1 655 43 is_stmt 0 view .LVU1312
 4029 01ba 4FF0000A 		mov	r10, #0
 655:Drivers/lvgl/src/draw/sw/blend/lv_draw_sw_blend_to_i1.c ****                         uint8_t dest_val = get_bit(dest_buf_i1, dest_x + bit_ofs) * 255;
 4030              		.loc 1 655 32 view .LVU1313
 4031 01be 5546     		mov	r5, r10
 4032 01c0 CDF80880 		str	r8, [sp, #8]
 4033 01c4 BDE7     		b	.L212
 4034              	.LVL428:
 4035              	.L248:
 4036              	.LBB675:
 4037              	.LBB676:
 4038              	.LBB677:
1273:Drivers/lvgl/src/draw/sw/blend/lv_draw_sw_blend_to_i1.c **** }
 4039              		.loc 1 1273 25 view .LVU1314
 4040 01c6 04F1070A 		add	r10, r4, #7
 4041 01ca 10E0     		b	.L215
 4042              	.LVL429:
 4043              	.L249:
1273:Drivers/lvgl/src/draw/sw/blend/lv_draw_sw_blend_to_i1.c **** }
ARM GAS  /var/folders/qx/2_175_4n2s19vhvtspjhb3qh0000gn/T//ccaVas4T.s 			page 124


 4044              		.loc 1 1273 25 view .LVU1315
 4045              	.LBE677:
 4046              	.LBE676:
 677:Drivers/lvgl/src/draw/sw/blend/lv_draw_sw_blend_to_i1.c ****                         }
 4047              		.loc 1 677 29 is_stmt 1 view .LVU1316
 4048              	.LBB679:
 4049              	.LBI679:
1261:Drivers/lvgl/src/draw/sw/blend/lv_draw_sw_blend_to_i1.c **** {
 4050              		.loc 1 1261 42 view .LVU1317
 4051              	.LBB680:
1263:Drivers/lvgl/src/draw/sw/blend/lv_draw_sw_blend_to_i1.c **** }
 4052              		.loc 1 1263 5 view .LVU1318
1263:Drivers/lvgl/src/draw/sw/blend/lv_draw_sw_blend_to_i1.c **** }
 4053              		.loc 1 1263 8 is_stmt 0 view .LVU1319
 4054 01cc 16F80A30 		ldrb	r3, [r6, r10]	@ zero_extendqisi2
1263:Drivers/lvgl/src/draw/sw/blend/lv_draw_sw_blend_to_i1.c **** }
 4055              		.loc 1 1263 28 view .LVU1320
 4056 01d0 0122     		movs	r2, #1
 4057 01d2 A240     		lsls	r2, r2, r4
1263:Drivers/lvgl/src/draw/sw/blend/lv_draw_sw_blend_to_i1.c **** }
 4058              		.loc 1 1263 22 view .LVU1321
 4059 01d4 1343     		orrs	r3, r3, r2
 4060 01d6 06F80A30 		strb	r3, [r6, r10]
 4061              	.LVL430:
 4062              	.L217:
1263:Drivers/lvgl/src/draw/sw/blend/lv_draw_sw_blend_to_i1.c **** }
 4063              		.loc 1 1263 22 view .LVU1322
 4064              	.LBE680:
 4065              	.LBE679:
 4066              	.LBE675:
 673:Drivers/lvgl/src/draw/sw/blend/lv_draw_sw_blend_to_i1.c ****                         uint8_t dest_val = get_bit(dest_buf_i1, dest_x + bit_ofs) * 255;
 4067              		.loc 1 673 67 is_stmt 1 discriminator 2 view .LVU1323
 673:Drivers/lvgl/src/draw/sw/blend/lv_draw_sw_blend_to_i1.c ****                         uint8_t dest_val = get_bit(dest_buf_i1, dest_x + bit_ofs) * 255;
 4068              		.loc 1 673 65 is_stmt 0 discriminator 2 view .LVU1324
 4069 01da 0135     		adds	r5, r5, #1
 4070              	.LVL431:
 673:Drivers/lvgl/src/draw/sw/blend/lv_draw_sw_blend_to_i1.c ****                         uint8_t dest_val = get_bit(dest_buf_i1, dest_x + bit_ofs) * 255;
 4071              		.loc 1 673 74 discriminator 2 view .LVU1325
 4072 01dc 0BF1010B 		add	fp, fp, #1
 4073              	.LVL432:
 4074              	.L219:
 673:Drivers/lvgl/src/draw/sw/blend/lv_draw_sw_blend_to_i1.c ****                         uint8_t dest_val = get_bit(dest_buf_i1, dest_x + bit_ofs) * 255;
 4075              		.loc 1 673 54 is_stmt 1 discriminator 1 view .LVU1326
 4076 01e0 CB45     		cmp	fp, r9
 4077 01e2 31DA     		bge	.L247
 4078              	.LBB684:
 674:Drivers/lvgl/src/draw/sw/blend/lv_draw_sw_blend_to_i1.c ****                         lv_color_8_8_mix(src_buf_al88[src_x].lumi, &dest_val,  LV_OPA_MIX2(src_buf_
 4079              		.loc 1 674 25 view .LVU1327
 674:Drivers/lvgl/src/draw/sw/blend/lv_draw_sw_blend_to_i1.c ****                         lv_color_8_8_mix(src_buf_al88[src_x].lumi, &dest_val,  LV_OPA_MIX2(src_buf_
 4080              		.loc 1 674 44 is_stmt 0 view .LVU1328
 4081 01e4 019B     		ldr	r3, [sp, #4]
 4082 01e6 EC18     		adds	r4, r5, r3
 4083              	.LVL433:
 4084              	.LBB681:
 4085              	.LBI676:
1271:Drivers/lvgl/src/draw/sw/blend/lv_draw_sw_blend_to_i1.c **** {
 4086              		.loc 1 1271 45 is_stmt 1 view .LVU1329
ARM GAS  /var/folders/qx/2_175_4n2s19vhvtspjhb3qh0000gn/T//ccaVas4T.s 			page 125


 4087              	.LBB678:
1273:Drivers/lvgl/src/draw/sw/blend/lv_draw_sw_blend_to_i1.c **** }
 4088              		.loc 1 1273 5 view .LVU1330
1273:Drivers/lvgl/src/draw/sw/blend/lv_draw_sw_blend_to_i1.c **** }
 4089              		.loc 1 1273 25 is_stmt 0 view .LVU1331
 4090 01e8 A246     		mov	r10, r4
 4091 01ea 002C     		cmp	r4, #0
 4092 01ec EBDB     		blt	.L248
 4093              	.L215:
1273:Drivers/lvgl/src/draw/sw/blend/lv_draw_sw_blend_to_i1.c **** }
 4094              		.loc 1 1273 25 view .LVU1332
 4095 01ee 4FEAEA0A 		asr	r10, r10, #3
1273:Drivers/lvgl/src/draw/sw/blend/lv_draw_sw_blend_to_i1.c **** }
 4096              		.loc 1 1273 16 view .LVU1333
 4097 01f2 16F80A30 		ldrb	r3, [r6, r10]	@ zero_extendqisi2
1273:Drivers/lvgl/src/draw/sw/blend/lv_draw_sw_blend_to_i1.c **** }
 4098              		.loc 1 1273 47 view .LVU1334
 4099 01f6 6242     		rsbs	r2, r4, #0
 4100 01f8 04F00704 		and	r4, r4, #7
 4101              	.LVL434:
1273:Drivers/lvgl/src/draw/sw/blend/lv_draw_sw_blend_to_i1.c **** }
 4102              		.loc 1 1273 47 view .LVU1335
 4103 01fc 02F00702 		and	r2, r2, #7
 4104 0200 58BF     		it	pl
 4105 0202 5442     		rsbpl	r4, r2, #0
1273:Drivers/lvgl/src/draw/sw/blend/lv_draw_sw_blend_to_i1.c **** }
 4106              		.loc 1 1273 36 view .LVU1336
 4107 0204 C4F10704 		rsb	r4, r4, #7
1273:Drivers/lvgl/src/draw/sw/blend/lv_draw_sw_blend_to_i1.c **** }
 4108              		.loc 1 1273 30 view .LVU1337
 4109 0208 2341     		asrs	r3, r3, r4
 4110              	.LVL435:
1273:Drivers/lvgl/src/draw/sw/blend/lv_draw_sw_blend_to_i1.c **** }
 4111              		.loc 1 1273 30 view .LVU1338
 4112              	.LBE678:
 4113              	.LBE681:
 674:Drivers/lvgl/src/draw/sw/blend/lv_draw_sw_blend_to_i1.c ****                         lv_color_8_8_mix(src_buf_al88[src_x].lumi, &dest_val,  LV_OPA_MIX2(src_buf_
 4114              		.loc 1 674 33 discriminator 1 view .LVU1339
 4115 020a 43F30003 		sbfx	r3, r3, #0, #1
 4116 020e 8DF82430 		strb	r3, [sp, #36]
 675:Drivers/lvgl/src/draw/sw/blend/lv_draw_sw_blend_to_i1.c ****                         if(dest_val > I1_LUM_THRESHOLD) {
 4117              		.loc 1 675 25 is_stmt 1 view .LVU1340
 675:Drivers/lvgl/src/draw/sw/blend/lv_draw_sw_blend_to_i1.c ****                         if(dest_val > I1_LUM_THRESHOLD) {
 4118              		.loc 1 675 54 is_stmt 0 view .LVU1341
 4119 0212 07EB4B03 		add	r3, r7, fp, lsl #1
 675:Drivers/lvgl/src/draw/sw/blend/lv_draw_sw_blend_to_i1.c ****                         if(dest_val > I1_LUM_THRESHOLD) {
 4120              		.loc 1 675 80 view .LVU1342
 4121 0216 5A78     		ldrb	r2, [r3, #1]	@ zero_extendqisi2
 4122 0218 18F80B30 		ldrb	r3, [r8, fp]	@ zero_extendqisi2
 4123 021c 03FB02F2 		mul	r2, r3, r2
 675:Drivers/lvgl/src/draw/sw/blend/lv_draw_sw_blend_to_i1.c ****                         if(dest_val > I1_LUM_THRESHOLD) {
 4124              		.loc 1 675 25 view .LVU1343
 4125 0220 120A     		lsrs	r2, r2, #8
 4126 0222 09A9     		add	r1, sp, #36
 4127 0224 17F81B00 		ldrb	r0, [r7, fp, lsl #1]	@ zero_extendqisi2
 4128 0228 FFF7FEFF 		bl	lv_color_8_8_mix
 4129              	.LVL436:
ARM GAS  /var/folders/qx/2_175_4n2s19vhvtspjhb3qh0000gn/T//ccaVas4T.s 			page 126


 676:Drivers/lvgl/src/draw/sw/blend/lv_draw_sw_blend_to_i1.c ****                             set_bit(dest_buf_i1, dest_x + bit_ofs);
 4130              		.loc 1 676 25 is_stmt 1 view .LVU1344
 676:Drivers/lvgl/src/draw/sw/blend/lv_draw_sw_blend_to_i1.c ****                             set_bit(dest_buf_i1, dest_x + bit_ofs);
 4131              		.loc 1 676 37 is_stmt 0 view .LVU1345
 4132 022c 9DF92430 		ldrsb	r3, [sp, #36]
 676:Drivers/lvgl/src/draw/sw/blend/lv_draw_sw_blend_to_i1.c ****                             set_bit(dest_buf_i1, dest_x + bit_ofs);
 4133              		.loc 1 676 27 view .LVU1346
 4134 0230 002B     		cmp	r3, #0
 4135 0232 CBDB     		blt	.L249
 680:Drivers/lvgl/src/draw/sw/blend/lv_draw_sw_blend_to_i1.c ****                         }
 4136              		.loc 1 680 29 is_stmt 1 view .LVU1347
 4137              	.LVL437:
 4138              	.LBB682:
 4139              	.LBI682:
1266:Drivers/lvgl/src/draw/sw/blend/lv_draw_sw_blend_to_i1.c **** {
 4140              		.loc 1 1266 42 view .LVU1348
 4141              	.LBB683:
1268:Drivers/lvgl/src/draw/sw/blend/lv_draw_sw_blend_to_i1.c **** }
 4142              		.loc 1 1268 5 view .LVU1349
1268:Drivers/lvgl/src/draw/sw/blend/lv_draw_sw_blend_to_i1.c **** }
 4143              		.loc 1 1268 8 is_stmt 0 view .LVU1350
 4144 0234 16F80A20 		ldrb	r2, [r6, r10]	@ zero_extendqisi2
1268:Drivers/lvgl/src/draw/sw/blend/lv_draw_sw_blend_to_i1.c **** }
 4145              		.loc 1 1268 29 view .LVU1351
 4146 0238 0123     		movs	r3, #1
 4147 023a A340     		lsls	r3, r3, r4
1268:Drivers/lvgl/src/draw/sw/blend/lv_draw_sw_blend_to_i1.c **** }
 4148              		.loc 1 1268 22 view .LVU1352
 4149 023c DB43     		mvns	r3, r3
 4150 023e 5BB2     		sxtb	r3, r3
 4151 0240 1340     		ands	r3, r3, r2
 4152 0242 06F80A30 		strb	r3, [r6, r10]
 4153              	.LVL438:
1269:Drivers/lvgl/src/draw/sw/blend/lv_draw_sw_blend_to_i1.c **** 
 4154              		.loc 1 1269 1 view .LVU1353
 4155 0246 C8E7     		b	.L217
 4156              	.L247:
1269:Drivers/lvgl/src/draw/sw/blend/lv_draw_sw_blend_to_i1.c **** 
 4157              		.loc 1 1269 1 view .LVU1354
 4158              	.LBE683:
 4159              	.LBE682:
 4160              	.LBE684:
 4161              	.LBB685:
 4162              	.LBB686:
1258:Drivers/lvgl/src/draw/sw/blend/lv_draw_sw_blend_to_i1.c **** }
 4163              		.loc 1 1258 12 view .LVU1355
 4164 0248 DDF808A0 		ldr	r10, [sp, #8]
 4165              	.LBE686:
 4166              	.LBE685:
 683:Drivers/lvgl/src/draw/sw/blend/lv_draw_sw_blend_to_i1.c ****                     src_buf_al88 = drawbuf_next_row(src_buf_al88, src_stride);
 4167              		.loc 1 683 21 is_stmt 1 view .LVU1356
 4168              	.LVL439:
 4169              	.LBB688:
 4170              	.LBI685:
1256:Drivers/lvgl/src/draw/sw/blend/lv_draw_sw_blend_to_i1.c **** {
 4171              		.loc 1 1256 44 view .LVU1357
 4172              	.LBB687:
ARM GAS  /var/folders/qx/2_175_4n2s19vhvtspjhb3qh0000gn/T//ccaVas4T.s 			page 127


1258:Drivers/lvgl/src/draw/sw/blend/lv_draw_sw_blend_to_i1.c **** }
 4173              		.loc 1 1258 5 view .LVU1358
1258:Drivers/lvgl/src/draw/sw/blend/lv_draw_sw_blend_to_i1.c **** }
 4174              		.loc 1 1258 12 is_stmt 0 view .LVU1359
 4175 024c 039B     		ldr	r3, [sp, #12]
 4176 024e 1E44     		add	r6, r6, r3
 4177              	.LVL440:
1258:Drivers/lvgl/src/draw/sw/blend/lv_draw_sw_blend_to_i1.c **** }
 4178              		.loc 1 1258 12 view .LVU1360
 4179              	.LBE687:
 4180              	.LBE688:
 684:Drivers/lvgl/src/draw/sw/blend/lv_draw_sw_blend_to_i1.c ****                     mask_buf += mask_stride;
 4181              		.loc 1 684 21 is_stmt 1 view .LVU1361
 4182              	.LBB689:
 4183              	.LBI689:
1256:Drivers/lvgl/src/draw/sw/blend/lv_draw_sw_blend_to_i1.c **** {
 4184              		.loc 1 1256 44 view .LVU1362
 4185              	.LBB690:
1258:Drivers/lvgl/src/draw/sw/blend/lv_draw_sw_blend_to_i1.c **** }
 4186              		.loc 1 1258 5 view .LVU1363
1258:Drivers/lvgl/src/draw/sw/blend/lv_draw_sw_blend_to_i1.c **** }
 4187              		.loc 1 1258 12 is_stmt 0 view .LVU1364
 4188 0250 059B     		ldr	r3, [sp, #20]
 4189 0252 1F44     		add	r7, r7, r3
 4190              	.LVL441:
1258:Drivers/lvgl/src/draw/sw/blend/lv_draw_sw_blend_to_i1.c **** }
 4191              		.loc 1 1258 12 view .LVU1365
 4192              	.LBE690:
 4193              	.LBE689:
 685:Drivers/lvgl/src/draw/sw/blend/lv_draw_sw_blend_to_i1.c ****                 }
 4194              		.loc 1 685 21 is_stmt 1 view .LVU1366
 685:Drivers/lvgl/src/draw/sw/blend/lv_draw_sw_blend_to_i1.c ****                 }
 4195              		.loc 1 685 30 is_stmt 0 view .LVU1367
 4196 0254 069B     		ldr	r3, [sp, #24]
 4197 0256 9844     		add	r8, r8, r3
 4198              	.LVL442:
 672:Drivers/lvgl/src/draw/sw/blend/lv_draw_sw_blend_to_i1.c ****                     for(dest_x = 0, src_x = 0; src_x < w; dest_x++, src_x++) {
 4199              		.loc 1 672 36 is_stmt 1 discriminator 2 view .LVU1368
 4200 0258 0AF1010A 		add	r10, r10, #1
 4201              	.LVL443:
 4202              	.L213:
 672:Drivers/lvgl/src/draw/sw/blend/lv_draw_sw_blend_to_i1.c ****                     for(dest_x = 0, src_x = 0; src_x < w; dest_x++, src_x++) {
 4203              		.loc 1 672 30 discriminator 1 view .LVU1369
 4204 025c 049B     		ldr	r3, [sp, #16]
 4205 025e 9A45     		cmp	r10, r3
 4206 0260 80F2AA80 		bge	.L197
 673:Drivers/lvgl/src/draw/sw/blend/lv_draw_sw_blend_to_i1.c ****                         uint8_t dest_val = get_bit(dest_buf_i1, dest_x + bit_ofs) * 255;
 4207              		.loc 1 673 43 is_stmt 0 view .LVU1370
 4208 0264 4FF0000B 		mov	fp, #0
 673:Drivers/lvgl/src/draw/sw/blend/lv_draw_sw_blend_to_i1.c ****                         uint8_t dest_val = get_bit(dest_buf_i1, dest_x + bit_ofs) * 255;
 4209              		.loc 1 673 32 view .LVU1371
 4210 0268 5D46     		mov	r5, fp
 4211 026a CDF808A0 		str	r10, [sp, #8]
 4212 026e B7E7     		b	.L219
 4213              	.LVL444:
 4214              	.L235:
 672:Drivers/lvgl/src/draw/sw/blend/lv_draw_sw_blend_to_i1.c ****                     for(dest_x = 0, src_x = 0; src_x < w; dest_x++, src_x++) {
ARM GAS  /var/folders/qx/2_175_4n2s19vhvtspjhb3qh0000gn/T//ccaVas4T.s 			page 128


 4215              		.loc 1 672 23 view .LVU1372
 4216 0270 0027     		movs	r7, #0
 4217 0272 BA46     		mov	r10, r7
 4218              	.LVL445:
 672:Drivers/lvgl/src/draw/sw/blend/lv_draw_sw_blend_to_i1.c ****                     for(dest_x = 0, src_x = 0; src_x < w; dest_x++, src_x++) {
 4219              		.loc 1 672 23 view .LVU1373
 4220 0274 2F46     		mov	r7, r5
 4221 0276 0493     		str	r3, [sp, #16]
 4222 0278 0591     		str	r1, [sp, #20]
 4223 027a 0690     		str	r0, [sp, #24]
 4224 027c CDF804C0 		str	ip, [sp, #4]
 4225 0280 ECE7     		b	.L213
 4226              	.LVL446:
 4227              	.L251:
 4228              	.LBB691:
 4229              	.LBB692:
 4230              	.LBB693:
1273:Drivers/lvgl/src/draw/sw/blend/lv_draw_sw_blend_to_i1.c **** }
 4231              		.loc 1 1273 25 view .LVU1374
 4232 0282 04F1070A 		add	r10, r4, #7
 4233 0286 0FE0     		b	.L221
 4234              	.LVL447:
 4235              	.L252:
1273:Drivers/lvgl/src/draw/sw/blend/lv_draw_sw_blend_to_i1.c **** }
 4236              		.loc 1 1273 25 view .LVU1375
 4237              	.LBE693:
 4238              	.LBE692:
 696:Drivers/lvgl/src/draw/sw/blend/lv_draw_sw_blend_to_i1.c ****                         }
 4239              		.loc 1 696 29 is_stmt 1 view .LVU1376
 4240              	.LBB695:
 4241              	.LBI695:
1261:Drivers/lvgl/src/draw/sw/blend/lv_draw_sw_blend_to_i1.c **** {
 4242              		.loc 1 1261 42 view .LVU1377
 4243              	.LBB696:
1263:Drivers/lvgl/src/draw/sw/blend/lv_draw_sw_blend_to_i1.c **** }
 4244              		.loc 1 1263 5 view .LVU1378
1263:Drivers/lvgl/src/draw/sw/blend/lv_draw_sw_blend_to_i1.c **** }
 4245              		.loc 1 1263 8 is_stmt 0 view .LVU1379
 4246 0288 16F80A30 		ldrb	r3, [r6, r10]	@ zero_extendqisi2
1263:Drivers/lvgl/src/draw/sw/blend/lv_draw_sw_blend_to_i1.c **** }
 4247              		.loc 1 1263 28 view .LVU1380
 4248 028c 0122     		movs	r2, #1
 4249 028e A240     		lsls	r2, r2, r4
1263:Drivers/lvgl/src/draw/sw/blend/lv_draw_sw_blend_to_i1.c **** }
 4250              		.loc 1 1263 22 view .LVU1381
 4251 0290 1343     		orrs	r3, r3, r2
 4252 0292 06F80A30 		strb	r3, [r6, r10]
 4253              	.LVL448:
 4254              	.L223:
1263:Drivers/lvgl/src/draw/sw/blend/lv_draw_sw_blend_to_i1.c **** }
 4255              		.loc 1 1263 22 view .LVU1382
 4256              	.LBE696:
 4257              	.LBE695:
 4258              	.LBE691:
 692:Drivers/lvgl/src/draw/sw/blend/lv_draw_sw_blend_to_i1.c ****                         uint8_t dest_val = get_bit(dest_buf_i1, dest_x + bit_ofs) * 255;
 4259              		.loc 1 692 67 is_stmt 1 discriminator 2 view .LVU1383
 692:Drivers/lvgl/src/draw/sw/blend/lv_draw_sw_blend_to_i1.c ****                         uint8_t dest_val = get_bit(dest_buf_i1, dest_x + bit_ofs) * 255;
ARM GAS  /var/folders/qx/2_175_4n2s19vhvtspjhb3qh0000gn/T//ccaVas4T.s 			page 129


 4260              		.loc 1 692 65 is_stmt 0 discriminator 2 view .LVU1384
 4261 0296 0137     		adds	r7, r7, #1
 4262              	.LVL449:
 692:Drivers/lvgl/src/draw/sw/blend/lv_draw_sw_blend_to_i1.c ****                         uint8_t dest_val = get_bit(dest_buf_i1, dest_x + bit_ofs) * 255;
 4263              		.loc 1 692 74 discriminator 2 view .LVU1385
 4264 0298 0135     		adds	r5, r5, #1
 4265              	.LVL450:
 4266              	.L225:
 692:Drivers/lvgl/src/draw/sw/blend/lv_draw_sw_blend_to_i1.c ****                         uint8_t dest_val = get_bit(dest_buf_i1, dest_x + bit_ofs) * 255;
 4267              		.loc 1 692 54 is_stmt 1 discriminator 1 view .LVU1386
 4268 029a 4D45     		cmp	r5, r9
 4269 029c 34DA     		bge	.L250
 4270              	.LBB700:
 693:Drivers/lvgl/src/draw/sw/blend/lv_draw_sw_blend_to_i1.c ****                         lv_color_8_8_mix(src_buf_al88[src_x].lumi, &dest_val, LV_OPA_MIX3(src_buf_a
 4271              		.loc 1 693 25 view .LVU1387
 693:Drivers/lvgl/src/draw/sw/blend/lv_draw_sw_blend_to_i1.c ****                         lv_color_8_8_mix(src_buf_al88[src_x].lumi, &dest_val, LV_OPA_MIX3(src_buf_a
 4272              		.loc 1 693 44 is_stmt 0 view .LVU1388
 4273 029e 029B     		ldr	r3, [sp, #8]
 4274 02a0 FC18     		adds	r4, r7, r3
 4275              	.LVL451:
 4276              	.LBB697:
 4277              	.LBI692:
1271:Drivers/lvgl/src/draw/sw/blend/lv_draw_sw_blend_to_i1.c **** {
 4278              		.loc 1 1271 45 is_stmt 1 view .LVU1389
 4279              	.LBB694:
1273:Drivers/lvgl/src/draw/sw/blend/lv_draw_sw_blend_to_i1.c **** }
 4280              		.loc 1 1273 5 view .LVU1390
1273:Drivers/lvgl/src/draw/sw/blend/lv_draw_sw_blend_to_i1.c **** }
 4281              		.loc 1 1273 25 is_stmt 0 view .LVU1391
 4282 02a2 A246     		mov	r10, r4
 4283 02a4 002C     		cmp	r4, #0
 4284 02a6 ECDB     		blt	.L251
 4285              	.L221:
1273:Drivers/lvgl/src/draw/sw/blend/lv_draw_sw_blend_to_i1.c **** }
 4286              		.loc 1 1273 25 view .LVU1392
 4287 02a8 4FEAEA0A 		asr	r10, r10, #3
1273:Drivers/lvgl/src/draw/sw/blend/lv_draw_sw_blend_to_i1.c **** }
 4288              		.loc 1 1273 16 view .LVU1393
 4289 02ac 16F80A30 		ldrb	r3, [r6, r10]	@ zero_extendqisi2
1273:Drivers/lvgl/src/draw/sw/blend/lv_draw_sw_blend_to_i1.c **** }
 4290              		.loc 1 1273 47 view .LVU1394
 4291 02b0 6242     		rsbs	r2, r4, #0
 4292 02b2 04F00704 		and	r4, r4, #7
 4293              	.LVL452:
1273:Drivers/lvgl/src/draw/sw/blend/lv_draw_sw_blend_to_i1.c **** }
 4294              		.loc 1 1273 47 view .LVU1395
 4295 02b6 02F00702 		and	r2, r2, #7
 4296 02ba 58BF     		it	pl
 4297 02bc 5442     		rsbpl	r4, r2, #0
1273:Drivers/lvgl/src/draw/sw/blend/lv_draw_sw_blend_to_i1.c **** }
 4298              		.loc 1 1273 36 view .LVU1396
 4299 02be C4F10704 		rsb	r4, r4, #7
1273:Drivers/lvgl/src/draw/sw/blend/lv_draw_sw_blend_to_i1.c **** }
 4300              		.loc 1 1273 30 view .LVU1397
 4301 02c2 2341     		asrs	r3, r3, r4
 4302              	.LVL453:
1273:Drivers/lvgl/src/draw/sw/blend/lv_draw_sw_blend_to_i1.c **** }
ARM GAS  /var/folders/qx/2_175_4n2s19vhvtspjhb3qh0000gn/T//ccaVas4T.s 			page 130


 4303              		.loc 1 1273 30 view .LVU1398
 4304              	.LBE694:
 4305              	.LBE697:
 693:Drivers/lvgl/src/draw/sw/blend/lv_draw_sw_blend_to_i1.c ****                         lv_color_8_8_mix(src_buf_al88[src_x].lumi, &dest_val, LV_OPA_MIX3(src_buf_a
 4306              		.loc 1 693 33 discriminator 1 view .LVU1399
 4307 02c4 43F30003 		sbfx	r3, r3, #0, #1
 4308 02c8 8DF82430 		strb	r3, [sp, #36]
 694:Drivers/lvgl/src/draw/sw/blend/lv_draw_sw_blend_to_i1.c ****                         if(dest_val > I1_LUM_THRESHOLD) {
 4309              		.loc 1 694 25 is_stmt 1 view .LVU1400
 694:Drivers/lvgl/src/draw/sw/blend/lv_draw_sw_blend_to_i1.c ****                         if(dest_val > I1_LUM_THRESHOLD) {
 4310              		.loc 1 694 54 is_stmt 0 view .LVU1401
 4311 02cc 08EB4503 		add	r3, r8, r5, lsl #1
 694:Drivers/lvgl/src/draw/sw/blend/lv_draw_sw_blend_to_i1.c ****                         if(dest_val > I1_LUM_THRESHOLD) {
 4312              		.loc 1 694 79 view .LVU1402
 4313 02d0 5A78     		ldrb	r2, [r3, #1]	@ zero_extendqisi2
 4314 02d2 1BF80530 		ldrb	r3, [fp, r5]	@ zero_extendqisi2
 4315 02d6 03FB02F2 		mul	r2, r3, r2
 4316 02da 019B     		ldr	r3, [sp, #4]
 4317 02dc 03FB02F2 		mul	r2, r3, r2
 694:Drivers/lvgl/src/draw/sw/blend/lv_draw_sw_blend_to_i1.c ****                         if(dest_val > I1_LUM_THRESHOLD) {
 4318              		.loc 1 694 25 view .LVU1403
 4319 02e0 120C     		lsrs	r2, r2, #16
 4320 02e2 09A9     		add	r1, sp, #36
 4321 02e4 18F81500 		ldrb	r0, [r8, r5, lsl #1]	@ zero_extendqisi2
 4322 02e8 FFF7FEFF 		bl	lv_color_8_8_mix
 4323              	.LVL454:
 695:Drivers/lvgl/src/draw/sw/blend/lv_draw_sw_blend_to_i1.c ****                             set_bit(dest_buf_i1, dest_x + bit_ofs);
 4324              		.loc 1 695 25 is_stmt 1 view .LVU1404
 695:Drivers/lvgl/src/draw/sw/blend/lv_draw_sw_blend_to_i1.c ****                             set_bit(dest_buf_i1, dest_x + bit_ofs);
 4325              		.loc 1 695 37 is_stmt 0 view .LVU1405
 4326 02ec 9DF92430 		ldrsb	r3, [sp, #36]
 695:Drivers/lvgl/src/draw/sw/blend/lv_draw_sw_blend_to_i1.c ****                             set_bit(dest_buf_i1, dest_x + bit_ofs);
 4327              		.loc 1 695 27 view .LVU1406
 4328 02f0 002B     		cmp	r3, #0
 4329 02f2 C9DB     		blt	.L252
 699:Drivers/lvgl/src/draw/sw/blend/lv_draw_sw_blend_to_i1.c ****                         }
 4330              		.loc 1 699 29 is_stmt 1 view .LVU1407
 4331              	.LVL455:
 4332              	.LBB698:
 4333              	.LBI698:
1266:Drivers/lvgl/src/draw/sw/blend/lv_draw_sw_blend_to_i1.c **** {
 4334              		.loc 1 1266 42 view .LVU1408
 4335              	.LBB699:
1268:Drivers/lvgl/src/draw/sw/blend/lv_draw_sw_blend_to_i1.c **** }
 4336              		.loc 1 1268 5 view .LVU1409
1268:Drivers/lvgl/src/draw/sw/blend/lv_draw_sw_blend_to_i1.c **** }
 4337              		.loc 1 1268 8 is_stmt 0 view .LVU1410
 4338 02f4 16F80A20 		ldrb	r2, [r6, r10]	@ zero_extendqisi2
1268:Drivers/lvgl/src/draw/sw/blend/lv_draw_sw_blend_to_i1.c **** }
 4339              		.loc 1 1268 29 view .LVU1411
 4340 02f8 0123     		movs	r3, #1
 4341 02fa A340     		lsls	r3, r3, r4
1268:Drivers/lvgl/src/draw/sw/blend/lv_draw_sw_blend_to_i1.c **** }
 4342              		.loc 1 1268 22 view .LVU1412
 4343 02fc DB43     		mvns	r3, r3
 4344 02fe 5BB2     		sxtb	r3, r3
 4345 0300 1340     		ands	r3, r3, r2
ARM GAS  /var/folders/qx/2_175_4n2s19vhvtspjhb3qh0000gn/T//ccaVas4T.s 			page 131


 4346 0302 06F80A30 		strb	r3, [r6, r10]
 4347              	.LVL456:
1269:Drivers/lvgl/src/draw/sw/blend/lv_draw_sw_blend_to_i1.c **** 
 4348              		.loc 1 1269 1 view .LVU1413
 4349 0306 C6E7     		b	.L223
 4350              	.L250:
1269:Drivers/lvgl/src/draw/sw/blend/lv_draw_sw_blend_to_i1.c **** 
 4351              		.loc 1 1269 1 view .LVU1414
 4352              	.LBE699:
 4353              	.LBE698:
 4354              	.LBE700:
 4355              	.LBB701:
 4356              	.LBB702:
1258:Drivers/lvgl/src/draw/sw/blend/lv_draw_sw_blend_to_i1.c **** }
 4357              		.loc 1 1258 12 view .LVU1415
 4358 0308 DDF810A0 		ldr	r10, [sp, #16]
 4359              	.LBE702:
 4360              	.LBE701:
 702:Drivers/lvgl/src/draw/sw/blend/lv_draw_sw_blend_to_i1.c ****                     src_buf_al88 = drawbuf_next_row(src_buf_al88, src_stride);
 4361              		.loc 1 702 21 is_stmt 1 view .LVU1416
 4362              	.LVL457:
 4363              	.LBB704:
 4364              	.LBI701:
1256:Drivers/lvgl/src/draw/sw/blend/lv_draw_sw_blend_to_i1.c **** {
 4365              		.loc 1 1256 44 view .LVU1417
 4366              	.LBB703:
1258:Drivers/lvgl/src/draw/sw/blend/lv_draw_sw_blend_to_i1.c **** }
 4367              		.loc 1 1258 5 view .LVU1418
1258:Drivers/lvgl/src/draw/sw/blend/lv_draw_sw_blend_to_i1.c **** }
 4368              		.loc 1 1258 12 is_stmt 0 view .LVU1419
 4369 030c 039B     		ldr	r3, [sp, #12]
 4370 030e 1E44     		add	r6, r6, r3
 4371              	.LVL458:
1258:Drivers/lvgl/src/draw/sw/blend/lv_draw_sw_blend_to_i1.c **** }
 4372              		.loc 1 1258 12 view .LVU1420
 4373              	.LBE703:
 4374              	.LBE704:
 703:Drivers/lvgl/src/draw/sw/blend/lv_draw_sw_blend_to_i1.c ****                     mask_buf += mask_stride;
 4375              		.loc 1 703 21 is_stmt 1 view .LVU1421
 4376              	.LBB705:
 4377              	.LBI705:
1256:Drivers/lvgl/src/draw/sw/blend/lv_draw_sw_blend_to_i1.c **** {
 4378              		.loc 1 1256 44 view .LVU1422
 4379              	.LBB706:
1258:Drivers/lvgl/src/draw/sw/blend/lv_draw_sw_blend_to_i1.c **** }
 4380              		.loc 1 1258 5 view .LVU1423
1258:Drivers/lvgl/src/draw/sw/blend/lv_draw_sw_blend_to_i1.c **** }
 4381              		.loc 1 1258 12 is_stmt 0 view .LVU1424
 4382 0310 069B     		ldr	r3, [sp, #24]
 4383 0312 9844     		add	r8, r8, r3
 4384              	.LVL459:
1258:Drivers/lvgl/src/draw/sw/blend/lv_draw_sw_blend_to_i1.c **** }
 4385              		.loc 1 1258 12 view .LVU1425
 4386              	.LBE706:
 4387              	.LBE705:
 704:Drivers/lvgl/src/draw/sw/blend/lv_draw_sw_blend_to_i1.c ****                 }
 4388              		.loc 1 704 21 is_stmt 1 view .LVU1426
ARM GAS  /var/folders/qx/2_175_4n2s19vhvtspjhb3qh0000gn/T//ccaVas4T.s 			page 132


 704:Drivers/lvgl/src/draw/sw/blend/lv_draw_sw_blend_to_i1.c ****                 }
 4389              		.loc 1 704 30 is_stmt 0 view .LVU1427
 4390 0314 079B     		ldr	r3, [sp, #28]
 4391 0316 9B44     		add	fp, fp, r3
 4392              	.LVL460:
 691:Drivers/lvgl/src/draw/sw/blend/lv_draw_sw_blend_to_i1.c ****                     for(dest_x = 0, src_x = 0; src_x < w; dest_x++, src_x++) {
 4393              		.loc 1 691 36 is_stmt 1 discriminator 2 view .LVU1428
 4394 0318 0AF1010A 		add	r10, r10, #1
 4395              	.LVL461:
 4396              	.L220:
 691:Drivers/lvgl/src/draw/sw/blend/lv_draw_sw_blend_to_i1.c ****                     for(dest_x = 0, src_x = 0; src_x < w; dest_x++, src_x++) {
 4397              		.loc 1 691 30 discriminator 1 view .LVU1429
 4398 031c 059B     		ldr	r3, [sp, #20]
 4399 031e 9A45     		cmp	r10, r3
 4400 0320 4ADA     		bge	.L197
 692:Drivers/lvgl/src/draw/sw/blend/lv_draw_sw_blend_to_i1.c ****                         uint8_t dest_val = get_bit(dest_buf_i1, dest_x + bit_ofs) * 255;
 4401              		.loc 1 692 43 is_stmt 0 view .LVU1430
 4402 0322 0025     		movs	r5, #0
 692:Drivers/lvgl/src/draw/sw/blend/lv_draw_sw_blend_to_i1.c ****                         uint8_t dest_val = get_bit(dest_buf_i1, dest_x + bit_ofs) * 255;
 4403              		.loc 1 692 32 view .LVU1431
 4404 0324 2F46     		mov	r7, r5
 4405 0326 CDF810A0 		str	r10, [sp, #16]
 4406 032a B6E7     		b	.L225
 4407              	.LVL462:
 4408              	.L226:
 4409              	.LBB707:
 717:Drivers/lvgl/src/draw/sw/blend/lv_draw_sw_blend_to_i1.c ****                 blend_non_normal_pixel(dest_buf_i1, dest_x + bit_ofs, src_argb, dsc->blend_mode);
 4410              		.loc 1 717 22 is_stmt 1 view .LVU1432
 717:Drivers/lvgl/src/draw/sw/blend/lv_draw_sw_blend_to_i1.c ****                 blend_non_normal_pixel(dest_buf_i1, dest_x + bit_ofs, src_argb, dsc->blend_mode);
 4411              		.loc 1 717 39 is_stmt 0 view .LVU1433
 4412 032c 5378     		ldrb	r3, [r2, #1]	@ zero_extendqisi2
 4413 032e 325D     		ldrb	r2, [r6, r4]	@ zero_extendqisi2
 4414 0330 02FB03F3 		mul	r3, r2, r3
 4415 0334 03FB0BF3 		mul	r3, r3, fp
 4416 0338 1B0C     		lsrs	r3, r3, #16
 717:Drivers/lvgl/src/draw/sw/blend/lv_draw_sw_blend_to_i1.c ****                 blend_non_normal_pixel(dest_buf_i1, dest_x + bit_ofs, src_argb, dsc->blend_mode);
 4417              		.loc 1 717 37 view .LVU1434
 4418 033a 8DF82730 		strb	r3, [sp, #39]
 4419              	.L227:
 718:Drivers/lvgl/src/draw/sw/blend/lv_draw_sw_blend_to_i1.c ****             }
 4420              		.loc 1 718 17 is_stmt 1 view .LVU1435
 4421 033e 9AF82230 		ldrb	r3, [r10, #34]	@ zero_extendqisi2
 4422 0342 099A     		ldr	r2, [sp, #36]
 4423 0344 0199     		ldr	r1, [sp, #4]
 4424 0346 7918     		adds	r1, r7, r1
 4425 0348 4046     		mov	r0, r8
 4426 034a FFF7FEFF 		bl	blend_non_normal_pixel
 4427              	.LVL463:
 712:Drivers/lvgl/src/draw/sw/blend/lv_draw_sw_blend_to_i1.c ****                 src_argb.red = src_buf_al88[src_x].lumi;
 4428              		.loc 1 712 59 discriminator 2 view .LVU1436
 712:Drivers/lvgl/src/draw/sw/blend/lv_draw_sw_blend_to_i1.c ****                 src_argb.red = src_buf_al88[src_x].lumi;
 4429              		.loc 1 712 57 is_stmt 0 discriminator 2 view .LVU1437
 4430 034e 0137     		adds	r7, r7, #1
 4431              	.LVL464:
 712:Drivers/lvgl/src/draw/sw/blend/lv_draw_sw_blend_to_i1.c ****                 src_argb.red = src_buf_al88[src_x].lumi;
 4432              		.loc 1 712 66 discriminator 2 view .LVU1438
 4433 0350 0134     		adds	r4, r4, #1
ARM GAS  /var/folders/qx/2_175_4n2s19vhvtspjhb3qh0000gn/T//ccaVas4T.s 			page 133


 4434              	.LVL465:
 4435              	.L230:
 712:Drivers/lvgl/src/draw/sw/blend/lv_draw_sw_blend_to_i1.c ****                 src_argb.red = src_buf_al88[src_x].lumi;
 4436              		.loc 1 712 46 is_stmt 1 discriminator 1 view .LVU1439
 4437 0352 4C45     		cmp	r4, r9
 4438 0354 12DA     		bge	.L253
 713:Drivers/lvgl/src/draw/sw/blend/lv_draw_sw_blend_to_i1.c ****                 src_argb.green = src_buf_al88[src_x].lumi;
 4439              		.loc 1 713 17 view .LVU1440
 713:Drivers/lvgl/src/draw/sw/blend/lv_draw_sw_blend_to_i1.c ****                 src_argb.green = src_buf_al88[src_x].lumi;
 4440              		.loc 1 713 44 is_stmt 0 view .LVU1441
 4441 0356 05EB4402 		add	r2, r5, r4, lsl #1
 713:Drivers/lvgl/src/draw/sw/blend/lv_draw_sw_blend_to_i1.c ****                 src_argb.green = src_buf_al88[src_x].lumi;
 4442              		.loc 1 713 51 view .LVU1442
 4443 035a 15F81430 		ldrb	r3, [r5, r4, lsl #1]	@ zero_extendqisi2
 713:Drivers/lvgl/src/draw/sw/blend/lv_draw_sw_blend_to_i1.c ****                 src_argb.green = src_buf_al88[src_x].lumi;
 4444              		.loc 1 713 30 view .LVU1443
 4445 035e 8DF82630 		strb	r3, [sp, #38]
 714:Drivers/lvgl/src/draw/sw/blend/lv_draw_sw_blend_to_i1.c ****                 src_argb.blue = src_buf_al88[src_x].lumi;
 4446              		.loc 1 714 17 is_stmt 1 view .LVU1444
 714:Drivers/lvgl/src/draw/sw/blend/lv_draw_sw_blend_to_i1.c ****                 src_argb.blue = src_buf_al88[src_x].lumi;
 4447              		.loc 1 714 32 is_stmt 0 view .LVU1445
 4448 0362 8DF82530 		strb	r3, [sp, #37]
 715:Drivers/lvgl/src/draw/sw/blend/lv_draw_sw_blend_to_i1.c ****                 if(mask_buf == NULL) src_argb.alpha = LV_OPA_MIX2(src_buf_al88[src_x].alpha, opa);
 4449              		.loc 1 715 17 is_stmt 1 view .LVU1446
 715:Drivers/lvgl/src/draw/sw/blend/lv_draw_sw_blend_to_i1.c ****                 if(mask_buf == NULL) src_argb.alpha = LV_OPA_MIX2(src_buf_al88[src_x].alpha, opa);
 4450              		.loc 1 715 31 is_stmt 0 view .LVU1447
 4451 0366 8DF82430 		strb	r3, [sp, #36]
 716:Drivers/lvgl/src/draw/sw/blend/lv_draw_sw_blend_to_i1.c ****                 else src_argb.alpha = LV_OPA_MIX3(src_buf_al88[src_x].alpha, mask_buf[src_x], opa);
 4452              		.loc 1 716 17 is_stmt 1 view .LVU1448
 716:Drivers/lvgl/src/draw/sw/blend/lv_draw_sw_blend_to_i1.c ****                 else src_argb.alpha = LV_OPA_MIX3(src_buf_al88[src_x].alpha, mask_buf[src_x], opa);
 4453              		.loc 1 716 19 is_stmt 0 view .LVU1449
 4454 036a 002E     		cmp	r6, #0
 4455 036c DED1     		bne	.L226
 716:Drivers/lvgl/src/draw/sw/blend/lv_draw_sw_blend_to_i1.c ****                 else src_argb.alpha = LV_OPA_MIX3(src_buf_al88[src_x].alpha, mask_buf[src_x], opa);
 4456              		.loc 1 716 38 is_stmt 1 discriminator 1 view .LVU1450
 716:Drivers/lvgl/src/draw/sw/blend/lv_draw_sw_blend_to_i1.c ****                 else src_argb.alpha = LV_OPA_MIX3(src_buf_al88[src_x].alpha, mask_buf[src_x], opa);
 4457              		.loc 1 716 55 is_stmt 0 discriminator 1 view .LVU1451
 4458 036e 5378     		ldrb	r3, [r2, #1]	@ zero_extendqisi2
 4459 0370 03FB0BF3 		mul	r3, r3, fp
 4460 0374 1B0A     		lsrs	r3, r3, #8
 716:Drivers/lvgl/src/draw/sw/blend/lv_draw_sw_blend_to_i1.c ****                 else src_argb.alpha = LV_OPA_MIX3(src_buf_al88[src_x].alpha, mask_buf[src_x], opa);
 4461              		.loc 1 716 53 discriminator 1 view .LVU1452
 4462 0376 8DF82730 		strb	r3, [sp, #39]
 4463 037a E0E7     		b	.L227
 4464              	.L253:
 720:Drivers/lvgl/src/draw/sw/blend/lv_draw_sw_blend_to_i1.c ****             dest_buf_i1 = drawbuf_next_row(dest_buf_i1, dest_stride);
 4465              		.loc 1 720 15 view .LVU1453
 4466 037c DDF808E0 		ldr	lr, [sp, #8]
 720:Drivers/lvgl/src/draw/sw/blend/lv_draw_sw_blend_to_i1.c ****             dest_buf_i1 = drawbuf_next_row(dest_buf_i1, dest_stride);
 4467              		.loc 1 720 13 is_stmt 1 view .LVU1454
 720:Drivers/lvgl/src/draw/sw/blend/lv_draw_sw_blend_to_i1.c ****             dest_buf_i1 = drawbuf_next_row(dest_buf_i1, dest_stride);
 4468              		.loc 1 720 15 is_stmt 0 view .LVU1455
 4469 0380 0EB1     		cbz	r6, .L229
 720:Drivers/lvgl/src/draw/sw/blend/lv_draw_sw_blend_to_i1.c ****             dest_buf_i1 = drawbuf_next_row(dest_buf_i1, dest_stride);
 4470              		.loc 1 720 26 is_stmt 1 discriminator 1 view .LVU1456
 720:Drivers/lvgl/src/draw/sw/blend/lv_draw_sw_blend_to_i1.c ****             dest_buf_i1 = drawbuf_next_row(dest_buf_i1, dest_stride);
 4471              		.loc 1 720 35 is_stmt 0 discriminator 1 view .LVU1457
ARM GAS  /var/folders/qx/2_175_4n2s19vhvtspjhb3qh0000gn/T//ccaVas4T.s 			page 134


 4472 0382 069B     		ldr	r3, [sp, #24]
 4473 0384 1E44     		add	r6, r6, r3
 4474              	.LVL466:
 4475              	.L229:
 721:Drivers/lvgl/src/draw/sw/blend/lv_draw_sw_blend_to_i1.c ****             src_buf_al88 = drawbuf_next_row(src_buf_al88, src_stride);
 4476              		.loc 1 721 13 is_stmt 1 view .LVU1458
 4477              	.LBB708:
 4478              	.LBI708:
1256:Drivers/lvgl/src/draw/sw/blend/lv_draw_sw_blend_to_i1.c **** {
 4479              		.loc 1 1256 44 view .LVU1459
 4480              	.LBB709:
1258:Drivers/lvgl/src/draw/sw/blend/lv_draw_sw_blend_to_i1.c **** }
 4481              		.loc 1 1258 5 view .LVU1460
1258:Drivers/lvgl/src/draw/sw/blend/lv_draw_sw_blend_to_i1.c **** }
 4482              		.loc 1 1258 12 is_stmt 0 view .LVU1461
 4483 0386 039B     		ldr	r3, [sp, #12]
 4484 0388 9844     		add	r8, r8, r3
 4485              	.LVL467:
1258:Drivers/lvgl/src/draw/sw/blend/lv_draw_sw_blend_to_i1.c **** }
 4486              		.loc 1 1258 12 view .LVU1462
 4487              	.LBE709:
 4488              	.LBE708:
 722:Drivers/lvgl/src/draw/sw/blend/lv_draw_sw_blend_to_i1.c ****         }
 4489              		.loc 1 722 13 is_stmt 1 view .LVU1463
 4490              	.LBB710:
 4491              	.LBI710:
1256:Drivers/lvgl/src/draw/sw/blend/lv_draw_sw_blend_to_i1.c **** {
 4492              		.loc 1 1256 44 view .LVU1464
 4493              	.LBB711:
1258:Drivers/lvgl/src/draw/sw/blend/lv_draw_sw_blend_to_i1.c **** }
 4494              		.loc 1 1258 5 view .LVU1465
1258:Drivers/lvgl/src/draw/sw/blend/lv_draw_sw_blend_to_i1.c **** }
 4495              		.loc 1 1258 12 is_stmt 0 view .LVU1466
 4496 038a 059B     		ldr	r3, [sp, #20]
 4497 038c 1D44     		add	r5, r5, r3
 4498              	.LVL468:
1258:Drivers/lvgl/src/draw/sw/blend/lv_draw_sw_blend_to_i1.c **** }
 4499              		.loc 1 1258 12 view .LVU1467
 4500              	.LBE711:
 4501              	.LBE710:
 711:Drivers/lvgl/src/draw/sw/blend/lv_draw_sw_blend_to_i1.c ****             for(dest_x = 0, src_x = 0; src_x < w; dest_x++, src_x++) {
 4502              		.loc 1 711 28 is_stmt 1 discriminator 2 view .LVU1468
 4503 038e 0EF1010E 		add	lr, lr, #1
 4504              	.LVL469:
 4505              	.L198:
 711:Drivers/lvgl/src/draw/sw/blend/lv_draw_sw_blend_to_i1.c ****             for(dest_x = 0, src_x = 0; src_x < w; dest_x++, src_x++) {
 4506              		.loc 1 711 22 discriminator 1 view .LVU1469
 4507 0392 049B     		ldr	r3, [sp, #16]
 4508 0394 9E45     		cmp	lr, r3
 4509 0396 0FDA     		bge	.L197
 712:Drivers/lvgl/src/draw/sw/blend/lv_draw_sw_blend_to_i1.c ****                 src_argb.red = src_buf_al88[src_x].lumi;
 4510              		.loc 1 712 35 is_stmt 0 view .LVU1470
 4511 0398 0024     		movs	r4, #0
 712:Drivers/lvgl/src/draw/sw/blend/lv_draw_sw_blend_to_i1.c ****                 src_argb.red = src_buf_al88[src_x].lumi;
 4512              		.loc 1 712 24 view .LVU1471
 4513 039a 2746     		mov	r7, r4
 4514 039c CDF808E0 		str	lr, [sp, #8]
ARM GAS  /var/folders/qx/2_175_4n2s19vhvtspjhb3qh0000gn/T//ccaVas4T.s 			page 135


 4515 03a0 D7E7     		b	.L230
 4516              	.LVL470:
 4517              	.L231:
 711:Drivers/lvgl/src/draw/sw/blend/lv_draw_sw_blend_to_i1.c ****             for(dest_x = 0, src_x = 0; src_x < w; dest_x++, src_x++) {
 4518              		.loc 1 711 15 view .LVU1472
 4519 03a2 4FF0000E 		mov	lr, #0
 4520 03a6 4246     		mov	r2, r8
 4521 03a8 B046     		mov	r8, r6
 4522              	.LVL471:
 711:Drivers/lvgl/src/draw/sw/blend/lv_draw_sw_blend_to_i1.c ****             for(dest_x = 0, src_x = 0; src_x < w; dest_x++, src_x++) {
 4523              		.loc 1 711 15 view .LVU1473
 4524 03aa 0493     		str	r3, [sp, #16]
 4525 03ac 0591     		str	r1, [sp, #20]
 4526 03ae 0690     		str	r0, [sp, #24]
 4527 03b0 CDF804C0 		str	ip, [sp, #4]
 4528 03b4 1646     		mov	r6, r2
 4529              	.LVL472:
 711:Drivers/lvgl/src/draw/sw/blend/lv_draw_sw_blend_to_i1.c ****             for(dest_x = 0, src_x = 0; src_x < w; dest_x++, src_x++) {
 4530              		.loc 1 711 15 view .LVU1474
 4531 03b6 ECE7     		b	.L198
 4532              	.LVL473:
 4533              	.L197:
 711:Drivers/lvgl/src/draw/sw/blend/lv_draw_sw_blend_to_i1.c ****             for(dest_x = 0, src_x = 0; src_x < w; dest_x++, src_x++) {
 4534              		.loc 1 711 15 view .LVU1475
 4535              	.LBE707:
 725:Drivers/lvgl/src/draw/sw/blend/lv_draw_sw_blend_to_i1.c **** #endif
 4536              		.loc 1 725 1 view .LVU1476
 4537 03b8 0BB0     		add	sp, sp, #44
 4538              	.LCFI15:
 4539              		.cfi_def_cfa_offset 36
 4540              		@ sp needed
 4541 03ba BDE8F08F 		pop	{r4, r5, r6, r7, r8, r9, r10, fp, pc}
 725:Drivers/lvgl/src/draw/sw/blend/lv_draw_sw_blend_to_i1.c **** #endif
 4542              		.loc 1 725 1 view .LVU1477
 4543              		.cfi_endproc
 4544              	.LFE185:
 4546              		.section	.text.i1_image_blend,"ax",%progbits
 4547              		.align	1
 4548              		.syntax unified
 4549              		.thumb
 4550              		.thumb_func
 4552              	i1_image_blend:
 4553              	.LVL474:
 4554              	.LFB183:
 385:Drivers/lvgl/src/draw/sw/blend/lv_draw_sw_blend_to_i1.c ****     int32_t w = dsc->dest_w;
 4555              		.loc 1 385 1 is_stmt 1 view -0
 4556              		.cfi_startproc
 4557              		@ args = 0, pretend = 0, frame = 40
 4558              		@ frame_needed = 0, uses_anonymous_args = 0
 385:Drivers/lvgl/src/draw/sw/blend/lv_draw_sw_blend_to_i1.c ****     int32_t w = dsc->dest_w;
 4559              		.loc 1 385 1 is_stmt 0 view .LVU1479
 4560 0000 2DE9F04F 		push	{r4, r5, r6, r7, r8, r9, r10, fp, lr}
 4561              	.LCFI16:
 4562              		.cfi_def_cfa_offset 36
 4563              		.cfi_offset 4, -36
 4564              		.cfi_offset 5, -32
 4565              		.cfi_offset 6, -28
ARM GAS  /var/folders/qx/2_175_4n2s19vhvtspjhb3qh0000gn/T//ccaVas4T.s 			page 136


 4566              		.cfi_offset 7, -24
 4567              		.cfi_offset 8, -20
 4568              		.cfi_offset 9, -16
 4569              		.cfi_offset 10, -12
 4570              		.cfi_offset 11, -8
 4571              		.cfi_offset 14, -4
 4572 0004 8BB0     		sub	sp, sp, #44
 4573              	.LCFI17:
 4574              		.cfi_def_cfa_offset 80
 386:Drivers/lvgl/src/draw/sw/blend/lv_draw_sw_blend_to_i1.c ****     int32_t h = dsc->dest_h;
 4575              		.loc 1 386 5 is_stmt 1 view .LVU1480
 386:Drivers/lvgl/src/draw/sw/blend/lv_draw_sw_blend_to_i1.c ****     int32_t h = dsc->dest_h;
 4576              		.loc 1 386 13 is_stmt 0 view .LVU1481
 4577 0006 4768     		ldr	r7, [r0, #4]
 4578              	.LVL475:
 387:Drivers/lvgl/src/draw/sw/blend/lv_draw_sw_blend_to_i1.c ****     lv_opa_t opa = dsc->opa;
 4579              		.loc 1 387 5 is_stmt 1 view .LVU1482
 387:Drivers/lvgl/src/draw/sw/blend/lv_draw_sw_blend_to_i1.c ****     lv_opa_t opa = dsc->opa;
 4580              		.loc 1 387 13 is_stmt 0 view .LVU1483
 4581 0008 8368     		ldr	r3, [r0, #8]
 4582 000a 0293     		str	r3, [sp, #8]
 4583              	.LVL476:
 388:Drivers/lvgl/src/draw/sw/blend/lv_draw_sw_blend_to_i1.c ****     uint8_t * dest_buf_i1 = dsc->dest_buf;
 4584              		.loc 1 388 5 is_stmt 1 view .LVU1484
 388:Drivers/lvgl/src/draw/sw/blend/lv_draw_sw_blend_to_i1.c ****     uint8_t * dest_buf_i1 = dsc->dest_buf;
 4585              		.loc 1 388 14 is_stmt 0 view .LVU1485
 4586 000c 90F82180 		ldrb	r8, [r0, #33]	@ zero_extendqisi2
 4587              	.LVL477:
 389:Drivers/lvgl/src/draw/sw/blend/lv_draw_sw_blend_to_i1.c ****     int32_t dest_stride = dsc->dest_stride;
 4588              		.loc 1 389 5 is_stmt 1 view .LVU1486
 389:Drivers/lvgl/src/draw/sw/blend/lv_draw_sw_blend_to_i1.c ****     int32_t dest_stride = dsc->dest_stride;
 4589              		.loc 1 389 15 is_stmt 0 view .LVU1487
 4590 0010 0468     		ldr	r4, [r0]
 4591              	.LVL478:
 390:Drivers/lvgl/src/draw/sw/blend/lv_draw_sw_blend_to_i1.c ****     const uint8_t * src_buf_i1 = dsc->src_buf;
 4592              		.loc 1 390 5 is_stmt 1 view .LVU1488
 390:Drivers/lvgl/src/draw/sw/blend/lv_draw_sw_blend_to_i1.c ****     const uint8_t * src_buf_i1 = dsc->src_buf;
 4593              		.loc 1 390 13 is_stmt 0 view .LVU1489
 4594 0012 C368     		ldr	r3, [r0, #12]
 4595              	.LVL479:
 391:Drivers/lvgl/src/draw/sw/blend/lv_draw_sw_blend_to_i1.c ****     int32_t src_stride = dsc->src_stride;
 4596              		.loc 1 391 5 is_stmt 1 view .LVU1490
 391:Drivers/lvgl/src/draw/sw/blend/lv_draw_sw_blend_to_i1.c ****     int32_t src_stride = dsc->src_stride;
 4597              		.loc 1 391 21 is_stmt 0 view .LVU1491
 4598 0014 8669     		ldr	r6, [r0, #24]
 4599              	.LVL480:
 392:Drivers/lvgl/src/draw/sw/blend/lv_draw_sw_blend_to_i1.c ****     const lv_opa_t * mask_buf = dsc->mask_buf;
 4600              		.loc 1 392 5 is_stmt 1 view .LVU1492
 392:Drivers/lvgl/src/draw/sw/blend/lv_draw_sw_blend_to_i1.c ****     const lv_opa_t * mask_buf = dsc->mask_buf;
 4601              		.loc 1 392 13 is_stmt 0 view .LVU1493
 4602 0016 D0F81CE0 		ldr	lr, [r0, #28]
 4603              	.LVL481:
 393:Drivers/lvgl/src/draw/sw/blend/lv_draw_sw_blend_to_i1.c ****     int32_t mask_stride = dsc->mask_stride;
 4604              		.loc 1 393 5 is_stmt 1 view .LVU1494
 393:Drivers/lvgl/src/draw/sw/blend/lv_draw_sw_blend_to_i1.c ****     int32_t mask_stride = dsc->mask_stride;
 4605              		.loc 1 393 22 is_stmt 0 view .LVU1495
 4606 001a 0569     		ldr	r5, [r0, #16]
ARM GAS  /var/folders/qx/2_175_4n2s19vhvtspjhb3qh0000gn/T//ccaVas4T.s 			page 137


 4607              	.LVL482:
 394:Drivers/lvgl/src/draw/sw/blend/lv_draw_sw_blend_to_i1.c **** 
 4608              		.loc 1 394 5 is_stmt 1 view .LVU1496
 394:Drivers/lvgl/src/draw/sw/blend/lv_draw_sw_blend_to_i1.c **** 
 4609              		.loc 1 394 13 is_stmt 0 view .LVU1497
 4610 001c 4269     		ldr	r2, [r0, #20]
 4611 001e 0492     		str	r2, [sp, #16]
 4612              	.LVL483:
 396:Drivers/lvgl/src/draw/sw/blend/lv_draw_sw_blend_to_i1.c ****     int32_t src_x;
 4613              		.loc 1 396 5 is_stmt 1 view .LVU1498
 397:Drivers/lvgl/src/draw/sw/blend/lv_draw_sw_blend_to_i1.c ****     int32_t y;
 4614              		.loc 1 397 5 view .LVU1499
 398:Drivers/lvgl/src/draw/sw/blend/lv_draw_sw_blend_to_i1.c **** 
 4615              		.loc 1 398 5 view .LVU1500
 400:Drivers/lvgl/src/draw/sw/blend/lv_draw_sw_blend_to_i1.c **** 
 4616              		.loc 1 400 5 view .LVU1501
 400:Drivers/lvgl/src/draw/sw/blend/lv_draw_sw_blend_to_i1.c **** 
 4617              		.loc 1 400 41 is_stmt 0 view .LVU1502
 4618 0020 416A     		ldr	r1, [r0, #36]
 400:Drivers/lvgl/src/draw/sw/blend/lv_draw_sw_blend_to_i1.c **** 
 4619              		.loc 1 400 13 view .LVU1503
 4620 0022 4A42     		rsbs	r2, r1, #0
 4621              	.LVL484:
 400:Drivers/lvgl/src/draw/sw/blend/lv_draw_sw_blend_to_i1.c **** 
 4622              		.loc 1 400 13 view .LVU1504
 4623 0024 01F0070B 		and	fp, r1, #7
 4624 0028 02F00702 		and	r2, r2, #7
 4625 002c 58BF     		it	pl
 4626 002e C2F1000B 		rsbpl	fp, r2, #0
 4627              	.LVL485:
 402:Drivers/lvgl/src/draw/sw/blend/lv_draw_sw_blend_to_i1.c ****         if(mask_buf == NULL && opa >= LV_OPA_MAX) {
 4628              		.loc 1 402 5 is_stmt 1 view .LVU1505
 402:Drivers/lvgl/src/draw/sw/blend/lv_draw_sw_blend_to_i1.c ****         if(mask_buf == NULL && opa >= LV_OPA_MAX) {
 4629              		.loc 1 402 11 is_stmt 0 view .LVU1506
 4630 0032 90F82220 		ldrb	r2, [r0, #34]	@ zero_extendqisi2
 402:Drivers/lvgl/src/draw/sw/blend/lv_draw_sw_blend_to_i1.c ****         if(mask_buf == NULL && opa >= LV_OPA_MAX) {
 4631              		.loc 1 402 7 view .LVU1507
 4632 0036 002A     		cmp	r2, #0
 4633 0038 40F0FC81 		bne	.L294
 403:Drivers/lvgl/src/draw/sw/blend/lv_draw_sw_blend_to_i1.c ****             if(LV_RESULT_INVALID == LV_DRAW_SW_I1_BLEND_NORMAL_TO_I1(dsc)) {
 4634              		.loc 1 403 9 is_stmt 1 view .LVU1508
 403:Drivers/lvgl/src/draw/sw/blend/lv_draw_sw_blend_to_i1.c ****             if(LV_RESULT_INVALID == LV_DRAW_SW_I1_BLEND_NORMAL_TO_I1(dsc)) {
 4635              		.loc 1 403 11 is_stmt 0 view .LVU1509
 4636 003c 8DB1     		cbz	r5, .L305
 438:Drivers/lvgl/src/draw/sw/blend/lv_draw_sw_blend_to_i1.c ****             if(LV_RESULT_INVALID == LV_DRAW_SW_I1_BLEND_NORMAL_TO_I1_WITH_MASK(dsc)) {
 4637              		.loc 1 438 14 is_stmt 1 view .LVU1510
 438:Drivers/lvgl/src/draw/sw/blend/lv_draw_sw_blend_to_i1.c ****             if(LV_RESULT_INVALID == LV_DRAW_SW_I1_BLEND_NORMAL_TO_I1_WITH_MASK(dsc)) {
 4638              		.loc 1 438 16 is_stmt 0 view .LVU1511
 4639 003e 002D     		cmp	r5, #0
 4640 0040 00F00382 		beq	.L254
 438:Drivers/lvgl/src/draw/sw/blend/lv_draw_sw_blend_to_i1.c ****             if(LV_RESULT_INVALID == LV_DRAW_SW_I1_BLEND_NORMAL_TO_I1_WITH_MASK(dsc)) {
 4641              		.loc 1 438 26 discriminator 1 view .LVU1512
 4642 0044 B8F1FC0F 		cmp	r8, #252
 4643 0048 00F23681 		bhi	.L298
 459:Drivers/lvgl/src/draw/sw/blend/lv_draw_sw_blend_to_i1.c ****             if(LV_RESULT_INVALID == LV_DRAW_SW_I1_BLEND_NORMAL_TO_I1_MIX_MASK_OPA(dsc)) {
 4644              		.loc 1 459 14 is_stmt 1 view .LVU1513
 459:Drivers/lvgl/src/draw/sw/blend/lv_draw_sw_blend_to_i1.c ****             if(LV_RESULT_INVALID == LV_DRAW_SW_I1_BLEND_NORMAL_TO_I1_MIX_MASK_OPA(dsc)) {
ARM GAS  /var/folders/qx/2_175_4n2s19vhvtspjhb3qh0000gn/T//ccaVas4T.s 			page 138


 4645              		.loc 1 459 16 is_stmt 0 view .LVU1514
 4646 004c 002D     		cmp	r5, #0
 4647 004e 00F0FC81 		beq	.L254
 461:Drivers/lvgl/src/draw/sw/blend/lv_draw_sw_blend_to_i1.c ****                     for(dest_x = 0, src_x = 0; src_x < w; dest_x++, src_x++) {
 4648              		.loc 1 461 23 view .LVU1515
 4649 0052 0021     		movs	r1, #0
 4650 0054 CDF80C80 		str	r8, [sp, #12]
 4651 0058 0693     		str	r3, [sp, #24]
 4652 005a 0B46     		mov	r3, r1
 4653              	.LVL486:
 461:Drivers/lvgl/src/draw/sw/blend/lv_draw_sw_blend_to_i1.c ****                     for(dest_x = 0, src_x = 0; src_x < w; dest_x++, src_x++) {
 4654              		.loc 1 461 23 view .LVU1516
 4655 005c CDF81CE0 		str	lr, [sp, #28]
 4656 0060 95E1     		b	.L281
 4657              	.LVL487:
 4658              	.L305:
 403:Drivers/lvgl/src/draw/sw/blend/lv_draw_sw_blend_to_i1.c ****             if(LV_RESULT_INVALID == LV_DRAW_SW_I1_BLEND_NORMAL_TO_I1(dsc)) {
 4659              		.loc 1 403 29 discriminator 1 view .LVU1517
 4660 0062 B8F1FC0F 		cmp	r8, #252
 4661 0066 68D8     		bhi	.L295
 421:Drivers/lvgl/src/draw/sw/blend/lv_draw_sw_blend_to_i1.c ****                     for(dest_x = 0, src_x = 0; src_x < w; dest_x++, src_x++) {
 4662              		.loc 1 421 23 view .LVU1518
 4663 0068 4FF0000A 		mov	r10, #0
 4664 006c 0393     		str	r3, [sp, #12]
 4665 006e B8E0     		b	.L258
 4666              	.LVL488:
 4667              	.L307:
 4668              	.LBB712:
 4669              	.LBB713:
1273:Drivers/lvgl/src/draw/sw/blend/lv_draw_sw_blend_to_i1.c **** }
 4670              		.loc 1 1273 25 view .LVU1519
 4671 0070 D11D     		adds	r1, r2, #7
 4672              	.LVL489:
1273:Drivers/lvgl/src/draw/sw/blend/lv_draw_sw_blend_to_i1.c **** }
 4673              		.loc 1 1273 25 view .LVU1520
 4674 0072 1DE0     		b	.L259
 4675              	.LVL490:
 4676              	.L261:
1273:Drivers/lvgl/src/draw/sw/blend/lv_draw_sw_blend_to_i1.c **** }
 4677              		.loc 1 1273 25 view .LVU1521
 4678              	.LBE713:
 4679              	.LBE712:
 4680              	.LBB715:
 4681              	.LBB716:
1263:Drivers/lvgl/src/draw/sw/blend/lv_draw_sw_blend_to_i1.c **** }
 4682              		.loc 1 1263 17 view .LVU1522
 4683 0074 4FEAE808 		asr	r8, r8, #3
1263:Drivers/lvgl/src/draw/sw/blend/lv_draw_sw_blend_to_i1.c **** }
 4684              		.loc 1 1263 8 view .LVU1523
 4685 0078 14F80890 		ldrb	r9, [r4, r8]	@ zero_extendqisi2
1263:Drivers/lvgl/src/draw/sw/blend/lv_draw_sw_blend_to_i1.c **** }
 4686              		.loc 1 1263 45 view .LVU1524
 4687 007c D1F1000A 		rsbs	r10, r1, #0
 4688 0080 01F00701 		and	r1, r1, #7
 4689              	.LVL491:
1263:Drivers/lvgl/src/draw/sw/blend/lv_draw_sw_blend_to_i1.c **** }
 4690              		.loc 1 1263 45 view .LVU1525
ARM GAS  /var/folders/qx/2_175_4n2s19vhvtspjhb3qh0000gn/T//ccaVas4T.s 			page 139


 4691 0084 0AF0070A 		and	r10, r10, #7
 4692 0088 58BF     		it	pl
 4693 008a CAF10001 		rsbpl	r1, r10, #0
1263:Drivers/lvgl/src/draw/sw/blend/lv_draw_sw_blend_to_i1.c **** }
 4694              		.loc 1 1263 34 view .LVU1526
 4695 008e C1F10701 		rsb	r1, r1, #7
1263:Drivers/lvgl/src/draw/sw/blend/lv_draw_sw_blend_to_i1.c **** }
 4696              		.loc 1 1263 28 view .LVU1527
 4697 0092 4FF0010A 		mov	r10, #1
 4698 0096 0AFA01F1 		lsl	r1, r10, r1
1263:Drivers/lvgl/src/draw/sw/blend/lv_draw_sw_blend_to_i1.c **** }
 4699              		.loc 1 1263 22 view .LVU1528
 4700 009a 49EA0109 		orr	r9, r9, r1
 4701 009e 04F80890 		strb	r9, [r4, r8]
 4702              	.LVL492:
 4703              	.L262:
1263:Drivers/lvgl/src/draw/sw/blend/lv_draw_sw_blend_to_i1.c **** }
 4704              		.loc 1 1263 22 view .LVU1529
 4705              	.LBE716:
 4706              	.LBE715:
 406:Drivers/lvgl/src/draw/sw/blend/lv_draw_sw_blend_to_i1.c ****                         if(get_bit(src_buf_i1, src_x)) {
 4707              		.loc 1 406 67 is_stmt 1 discriminator 2 view .LVU1530
 406:Drivers/lvgl/src/draw/sw/blend/lv_draw_sw_blend_to_i1.c ****                         if(get_bit(src_buf_i1, src_x)) {
 4708              		.loc 1 406 65 is_stmt 0 discriminator 2 view .LVU1531
 4709 00a2 0130     		adds	r0, r0, #1
 4710              	.LVL493:
 406:Drivers/lvgl/src/draw/sw/blend/lv_draw_sw_blend_to_i1.c ****                         if(get_bit(src_buf_i1, src_x)) {
 4711              		.loc 1 406 74 discriminator 2 view .LVU1532
 4712 00a4 0132     		adds	r2, r2, #1
 4713              	.LVL494:
 4714              	.L265:
 406:Drivers/lvgl/src/draw/sw/blend/lv_draw_sw_blend_to_i1.c ****                         if(get_bit(src_buf_i1, src_x)) {
 4715              		.loc 1 406 54 is_stmt 1 discriminator 1 view .LVU1533
 4716 00a6 BA42     		cmp	r2, r7
 4717 00a8 3EDA     		bge	.L306
 407:Drivers/lvgl/src/draw/sw/blend/lv_draw_sw_blend_to_i1.c ****                             set_bit(dest_buf_i1, dest_x + bit_ofs);
 4718              		.loc 1 407 25 view .LVU1534
 4719              	.LVL495:
 4720              	.LBB718:
 4721              	.LBI712:
1271:Drivers/lvgl/src/draw/sw/blend/lv_draw_sw_blend_to_i1.c **** {
 4722              		.loc 1 1271 45 view .LVU1535
 4723              	.LBB714:
1273:Drivers/lvgl/src/draw/sw/blend/lv_draw_sw_blend_to_i1.c **** }
 4724              		.loc 1 1273 5 view .LVU1536
1273:Drivers/lvgl/src/draw/sw/blend/lv_draw_sw_blend_to_i1.c **** }
 4725              		.loc 1 1273 25 is_stmt 0 view .LVU1537
 4726 00aa 1146     		mov	r1, r2
 4727 00ac 002A     		cmp	r2, #0
 4728 00ae DFDB     		blt	.L307
 4729              	.L259:
1273:Drivers/lvgl/src/draw/sw/blend/lv_draw_sw_blend_to_i1.c **** }
 4730              		.loc 1 1273 25 view .LVU1538
 4731 00b0 C910     		asrs	r1, r1, #3
1273:Drivers/lvgl/src/draw/sw/blend/lv_draw_sw_blend_to_i1.c **** }
 4732              		.loc 1 1273 16 view .LVU1539
 4733 00b2 16F80180 		ldrb	r8, [r6, r1]	@ zero_extendqisi2
ARM GAS  /var/folders/qx/2_175_4n2s19vhvtspjhb3qh0000gn/T//ccaVas4T.s 			page 140


1273:Drivers/lvgl/src/draw/sw/blend/lv_draw_sw_blend_to_i1.c **** }
 4734              		.loc 1 1273 47 view .LVU1540
 4735 00b6 D2F10009 		rsbs	r9, r2, #0
 4736 00ba 02F00701 		and	r1, r2, #7
 4737 00be 09F00709 		and	r9, r9, #7
 4738 00c2 58BF     		it	pl
 4739 00c4 C9F10001 		rsbpl	r1, r9, #0
1273:Drivers/lvgl/src/draw/sw/blend/lv_draw_sw_blend_to_i1.c **** }
 4740              		.loc 1 1273 36 view .LVU1541
 4741 00c8 C1F10701 		rsb	r1, r1, #7
1273:Drivers/lvgl/src/draw/sw/blend/lv_draw_sw_blend_to_i1.c **** }
 4742              		.loc 1 1273 30 view .LVU1542
 4743 00cc 48FA01F1 		asr	r1, r8, r1
 4744              	.LVL496:
1273:Drivers/lvgl/src/draw/sw/blend/lv_draw_sw_blend_to_i1.c **** }
 4745              		.loc 1 1273 30 view .LVU1543
 4746              	.LBE714:
 4747              	.LBE718:
 407:Drivers/lvgl/src/draw/sw/blend/lv_draw_sw_blend_to_i1.c ****                             set_bit(dest_buf_i1, dest_x + bit_ofs);
 4748              		.loc 1 407 27 discriminator 1 view .LVU1544
 4749 00d0 11F0010F 		tst	r1, #1
 4750 00d4 07D0     		beq	.L260
 408:Drivers/lvgl/src/draw/sw/blend/lv_draw_sw_blend_to_i1.c ****                         }
 4751              		.loc 1 408 29 is_stmt 1 view .LVU1545
 4752 00d6 00EB0B01 		add	r1, r0, fp
 4753              	.LVL497:
 4754              	.LBB719:
 4755              	.LBI715:
1261:Drivers/lvgl/src/draw/sw/blend/lv_draw_sw_blend_to_i1.c **** {
 4756              		.loc 1 1261 42 view .LVU1546
 4757              	.LBB717:
1263:Drivers/lvgl/src/draw/sw/blend/lv_draw_sw_blend_to_i1.c **** }
 4758              		.loc 1 1263 5 view .LVU1547
1263:Drivers/lvgl/src/draw/sw/blend/lv_draw_sw_blend_to_i1.c **** }
 4759              		.loc 1 1263 17 is_stmt 0 view .LVU1548
 4760 00da 8846     		mov	r8, r1
 4761 00dc 0029     		cmp	r1, #0
 4762 00de C9DA     		bge	.L261
1263:Drivers/lvgl/src/draw/sw/blend/lv_draw_sw_blend_to_i1.c **** }
 4763              		.loc 1 1263 17 view .LVU1549
 4764 00e0 01F10708 		add	r8, r1, #7
 4765 00e4 C6E7     		b	.L261
 4766              	.LVL498:
 4767              	.L260:
1263:Drivers/lvgl/src/draw/sw/blend/lv_draw_sw_blend_to_i1.c **** }
 4768              		.loc 1 1263 17 view .LVU1550
 4769              	.LBE717:
 4770              	.LBE719:
 411:Drivers/lvgl/src/draw/sw/blend/lv_draw_sw_blend_to_i1.c ****                         }
 4771              		.loc 1 411 29 is_stmt 1 view .LVU1551
 4772 00e6 00EB0B01 		add	r1, r0, fp
 4773              	.LVL499:
 4774              	.LBB720:
 4775              	.LBI720:
1266:Drivers/lvgl/src/draw/sw/blend/lv_draw_sw_blend_to_i1.c **** {
 4776              		.loc 1 1266 42 view .LVU1552
 4777              	.LBB721:
ARM GAS  /var/folders/qx/2_175_4n2s19vhvtspjhb3qh0000gn/T//ccaVas4T.s 			page 141


1268:Drivers/lvgl/src/draw/sw/blend/lv_draw_sw_blend_to_i1.c **** }
 4778              		.loc 1 1268 5 view .LVU1553
1268:Drivers/lvgl/src/draw/sw/blend/lv_draw_sw_blend_to_i1.c **** }
 4779              		.loc 1 1268 17 is_stmt 0 view .LVU1554
 4780 00ea 8846     		mov	r8, r1
 4781 00ec 0029     		cmp	r1, #0
 4782 00ee 18DB     		blt	.L308
 4783              	.L263:
1268:Drivers/lvgl/src/draw/sw/blend/lv_draw_sw_blend_to_i1.c **** }
 4784              		.loc 1 1268 17 view .LVU1555
 4785 00f0 4FEAE808 		asr	r8, r8, #3
1268:Drivers/lvgl/src/draw/sw/blend/lv_draw_sw_blend_to_i1.c **** }
 4786              		.loc 1 1268 8 view .LVU1556
 4787 00f4 14F80890 		ldrb	r9, [r4, r8]	@ zero_extendqisi2
1268:Drivers/lvgl/src/draw/sw/blend/lv_draw_sw_blend_to_i1.c **** }
 4788              		.loc 1 1268 46 view .LVU1557
 4789 00f8 D1F1000A 		rsbs	r10, r1, #0
 4790 00fc 01F00701 		and	r1, r1, #7
 4791              	.LVL500:
1268:Drivers/lvgl/src/draw/sw/blend/lv_draw_sw_blend_to_i1.c **** }
 4792              		.loc 1 1268 46 view .LVU1558
 4793 0100 0AF0070A 		and	r10, r10, #7
 4794 0104 58BF     		it	pl
 4795 0106 CAF10001 		rsbpl	r1, r10, #0
1268:Drivers/lvgl/src/draw/sw/blend/lv_draw_sw_blend_to_i1.c **** }
 4796              		.loc 1 1268 35 view .LVU1559
 4797 010a C1F1070A 		rsb	r10, r1, #7
1268:Drivers/lvgl/src/draw/sw/blend/lv_draw_sw_blend_to_i1.c **** }
 4798              		.loc 1 1268 29 view .LVU1560
 4799 010e 0121     		movs	r1, #1
 4800 0110 01FA0AF1 		lsl	r1, r1, r10
1268:Drivers/lvgl/src/draw/sw/blend/lv_draw_sw_blend_to_i1.c **** }
 4801              		.loc 1 1268 22 view .LVU1561
 4802 0114 C943     		mvns	r1, r1
 4803 0116 49B2     		sxtb	r1, r1
 4804 0118 09EA0109 		and	r9, r9, r1
 4805 011c 04F80890 		strb	r9, [r4, r8]
 4806              	.LVL501:
1269:Drivers/lvgl/src/draw/sw/blend/lv_draw_sw_blend_to_i1.c **** 
 4807              		.loc 1 1269 1 view .LVU1562
 4808 0120 BFE7     		b	.L262
 4809              	.LVL502:
 4810              	.L308:
1268:Drivers/lvgl/src/draw/sw/blend/lv_draw_sw_blend_to_i1.c **** }
 4811              		.loc 1 1268 17 view .LVU1563
 4812 0122 01F10708 		add	r8, r1, #7
 4813 0126 E3E7     		b	.L263
 4814              	.LVL503:
 4815              	.L306:
1268:Drivers/lvgl/src/draw/sw/blend/lv_draw_sw_blend_to_i1.c **** }
 4816              		.loc 1 1268 17 view .LVU1564
 4817              	.LBE721:
 4818              	.LBE720:
 414:Drivers/lvgl/src/draw/sw/blend/lv_draw_sw_blend_to_i1.c ****                     src_buf_i1 = drawbuf_next_row(src_buf_i1, src_stride);
 4819              		.loc 1 414 21 is_stmt 1 view .LVU1565
 4820              	.LBB722:
 4821              	.LBI722:
ARM GAS  /var/folders/qx/2_175_4n2s19vhvtspjhb3qh0000gn/T//ccaVas4T.s 			page 142


1256:Drivers/lvgl/src/draw/sw/blend/lv_draw_sw_blend_to_i1.c **** {
 4822              		.loc 1 1256 44 view .LVU1566
 4823              	.LBB723:
1258:Drivers/lvgl/src/draw/sw/blend/lv_draw_sw_blend_to_i1.c **** }
 4824              		.loc 1 1258 5 view .LVU1567
1258:Drivers/lvgl/src/draw/sw/blend/lv_draw_sw_blend_to_i1.c **** }
 4825              		.loc 1 1258 12 is_stmt 0 view .LVU1568
 4826 0128 1C44     		add	r4, r4, r3
 4827              	.LVL504:
1258:Drivers/lvgl/src/draw/sw/blend/lv_draw_sw_blend_to_i1.c **** }
 4828              		.loc 1 1258 12 view .LVU1569
 4829              	.LBE723:
 4830              	.LBE722:
 415:Drivers/lvgl/src/draw/sw/blend/lv_draw_sw_blend_to_i1.c ****                 }
 4831              		.loc 1 415 21 is_stmt 1 view .LVU1570
 4832              	.LBB724:
 4833              	.LBI724:
1256:Drivers/lvgl/src/draw/sw/blend/lv_draw_sw_blend_to_i1.c **** {
 4834              		.loc 1 1256 44 view .LVU1571
 4835              	.LBB725:
1258:Drivers/lvgl/src/draw/sw/blend/lv_draw_sw_blend_to_i1.c **** }
 4836              		.loc 1 1258 5 view .LVU1572
1258:Drivers/lvgl/src/draw/sw/blend/lv_draw_sw_blend_to_i1.c **** }
 4837              		.loc 1 1258 12 is_stmt 0 view .LVU1573
 4838 012a 7644     		add	r6, r6, lr
 4839              	.LVL505:
1258:Drivers/lvgl/src/draw/sw/blend/lv_draw_sw_blend_to_i1.c **** }
 4840              		.loc 1 1258 12 view .LVU1574
 4841              	.LBE725:
 4842              	.LBE724:
 405:Drivers/lvgl/src/draw/sw/blend/lv_draw_sw_blend_to_i1.c ****                     for(dest_x = 0, src_x = 0; src_x < w; dest_x++, src_x++) {
 4843              		.loc 1 405 36 is_stmt 1 discriminator 2 view .LVU1575
 4844 012c 0135     		adds	r5, r5, #1
 4845              	.LVL506:
 4846              	.L257:
 405:Drivers/lvgl/src/draw/sw/blend/lv_draw_sw_blend_to_i1.c ****                     for(dest_x = 0, src_x = 0; src_x < w; dest_x++, src_x++) {
 4847              		.loc 1 405 30 discriminator 1 view .LVU1576
 4848 012e 6545     		cmp	r5, ip
 4849 0130 80F28B81 		bge	.L254
 406:Drivers/lvgl/src/draw/sw/blend/lv_draw_sw_blend_to_i1.c ****                         if(get_bit(src_buf_i1, src_x)) {
 4850              		.loc 1 406 43 is_stmt 0 view .LVU1577
 4851 0134 0022     		movs	r2, #0
 406:Drivers/lvgl/src/draw/sw/blend/lv_draw_sw_blend_to_i1.c ****                         if(get_bit(src_buf_i1, src_x)) {
 4852              		.loc 1 406 32 view .LVU1578
 4853 0136 1046     		mov	r0, r2
 4854 0138 B5E7     		b	.L265
 4855              	.LVL507:
 4856              	.L295:
 405:Drivers/lvgl/src/draw/sw/blend/lv_draw_sw_blend_to_i1.c ****                     for(dest_x = 0, src_x = 0; src_x < w; dest_x++, src_x++) {
 4857              		.loc 1 405 23 view .LVU1579
 4858 013a 0025     		movs	r5, #0
 4859              	.LVL508:
 405:Drivers/lvgl/src/draw/sw/blend/lv_draw_sw_blend_to_i1.c ****                     for(dest_x = 0, src_x = 0; src_x < w; dest_x++, src_x++) {
 4860              		.loc 1 405 23 view .LVU1580
 4861 013c DDF808C0 		ldr	ip, [sp, #8]
 4862 0140 F5E7     		b	.L257
 4863              	.LVL509:
ARM GAS  /var/folders/qx/2_175_4n2s19vhvtspjhb3qh0000gn/T//ccaVas4T.s 			page 143


 4864              	.L310:
 4865              	.LBB726:
 4866              	.LBB727:
 4867              	.LBB728:
1273:Drivers/lvgl/src/draw/sw/blend/lv_draw_sw_blend_to_i1.c **** }
 4868              		.loc 1 1273 25 view .LVU1581
 4869 0142 CB1D     		adds	r3, r1, #7
 4870 0144 11E0     		b	.L267
 4871              	.LVL510:
 4872              	.L311:
1273:Drivers/lvgl/src/draw/sw/blend/lv_draw_sw_blend_to_i1.c **** }
 4873              		.loc 1 1273 25 view .LVU1582
 4874              	.LBE728:
 4875              	.LBE727:
 4876              	.LBB730:
 4877              	.LBB731:
 4878 0146 DD1D     		adds	r5, r3, #7
 4879 0148 22E0     		b	.L268
 4880              	.LVL511:
 4881              	.L269:
1273:Drivers/lvgl/src/draw/sw/blend/lv_draw_sw_blend_to_i1.c **** }
 4882              		.loc 1 1273 25 view .LVU1583
 4883              	.LBE731:
 4884              	.LBE730:
 430:Drivers/lvgl/src/draw/sw/blend/lv_draw_sw_blend_to_i1.c ****                         }
 4885              		.loc 1 430 29 is_stmt 1 view .LVU1584
 4886              	.LBB733:
 4887              	.LBI733:
1266:Drivers/lvgl/src/draw/sw/blend/lv_draw_sw_blend_to_i1.c **** {
 4888              		.loc 1 1266 42 view .LVU1585
 4889              	.LBB734:
1268:Drivers/lvgl/src/draw/sw/blend/lv_draw_sw_blend_to_i1.c **** }
 4890              		.loc 1 1268 5 view .LVU1586
1268:Drivers/lvgl/src/draw/sw/blend/lv_draw_sw_blend_to_i1.c **** }
 4891              		.loc 1 1268 29 is_stmt 0 view .LVU1587
 4892 014a 0122     		movs	r2, #1
 4893 014c 9A40     		lsls	r2, r2, r3
1268:Drivers/lvgl/src/draw/sw/blend/lv_draw_sw_blend_to_i1.c **** }
 4894              		.loc 1 1268 22 view .LVU1588
 4895 014e D243     		mvns	r2, r2
 4896 0150 52B2     		sxtb	r2, r2
 4897 0152 0CEA020C 		and	ip, ip, r2
 4898              	.LVL512:
1268:Drivers/lvgl/src/draw/sw/blend/lv_draw_sw_blend_to_i1.c **** }
 4899              		.loc 1 1268 22 view .LVU1589
 4900 0156 04F805C0 		strb	ip, [r4, r5]
 4901              	.LVL513:
 4902              	.L270:
1268:Drivers/lvgl/src/draw/sw/blend/lv_draw_sw_blend_to_i1.c **** }
 4903              		.loc 1 1268 22 view .LVU1590
 4904              	.LBE734:
 4905              	.LBE733:
 4906              	.LBE726:
 422:Drivers/lvgl/src/draw/sw/blend/lv_draw_sw_blend_to_i1.c ****                         uint8_t src = get_bit(src_buf_i1, src_x);
 4907              		.loc 1 422 67 is_stmt 1 discriminator 2 view .LVU1591
 422:Drivers/lvgl/src/draw/sw/blend/lv_draw_sw_blend_to_i1.c ****                         uint8_t src = get_bit(src_buf_i1, src_x);
 4908              		.loc 1 422 65 is_stmt 0 discriminator 2 view .LVU1592
ARM GAS  /var/folders/qx/2_175_4n2s19vhvtspjhb3qh0000gn/T//ccaVas4T.s 			page 144


 4909 015a 09F10109 		add	r9, r9, #1
 4910              	.LVL514:
 422:Drivers/lvgl/src/draw/sw/blend/lv_draw_sw_blend_to_i1.c ****                         uint8_t src = get_bit(src_buf_i1, src_x);
 4911              		.loc 1 422 74 discriminator 2 view .LVU1593
 4912 015e 0131     		adds	r1, r1, #1
 4913              	.LVL515:
 4914              	.L272:
 422:Drivers/lvgl/src/draw/sw/blend/lv_draw_sw_blend_to_i1.c ****                         uint8_t src = get_bit(src_buf_i1, src_x);
 4915              		.loc 1 422 54 is_stmt 1 discriminator 1 view .LVU1594
 4916 0160 B942     		cmp	r1, r7
 4917 0162 37DA     		bge	.L309
 4918              	.LBB739:
 423:Drivers/lvgl/src/draw/sw/blend/lv_draw_sw_blend_to_i1.c ****                         uint8_t dest = get_bit(dest_buf_i1, dest_x + bit_ofs);
 4919              		.loc 1 423 25 view .LVU1595
 4920              	.LVL516:
 4921              	.LBB735:
 4922              	.LBI727:
1271:Drivers/lvgl/src/draw/sw/blend/lv_draw_sw_blend_to_i1.c **** {
 4923              		.loc 1 1271 45 view .LVU1596
 4924              	.LBB729:
1273:Drivers/lvgl/src/draw/sw/blend/lv_draw_sw_blend_to_i1.c **** }
 4925              		.loc 1 1273 5 view .LVU1597
1273:Drivers/lvgl/src/draw/sw/blend/lv_draw_sw_blend_to_i1.c **** }
 4926              		.loc 1 1273 25 is_stmt 0 view .LVU1598
 4927 0164 0B46     		mov	r3, r1
 4928 0166 0029     		cmp	r1, #0
 4929 0168 EBDB     		blt	.L310
 4930              	.L267:
1273:Drivers/lvgl/src/draw/sw/blend/lv_draw_sw_blend_to_i1.c **** }
 4931              		.loc 1 1273 25 view .LVU1599
 4932 016a DB10     		asrs	r3, r3, #3
1273:Drivers/lvgl/src/draw/sw/blend/lv_draw_sw_blend_to_i1.c **** }
 4933              		.loc 1 1273 16 view .LVU1600
 4934 016c F25C     		ldrb	r2, [r6, r3]	@ zero_extendqisi2
1273:Drivers/lvgl/src/draw/sw/blend/lv_draw_sw_blend_to_i1.c **** }
 4935              		.loc 1 1273 47 view .LVU1601
 4936 016e 4842     		rsbs	r0, r1, #0
 4937 0170 01F00703 		and	r3, r1, #7
 4938 0174 00F00700 		and	r0, r0, #7
 4939 0178 58BF     		it	pl
 4940 017a 4342     		rsbpl	r3, r0, #0
1273:Drivers/lvgl/src/draw/sw/blend/lv_draw_sw_blend_to_i1.c **** }
 4941              		.loc 1 1273 36 view .LVU1602
 4942 017c C3F10703 		rsb	r3, r3, #7
1273:Drivers/lvgl/src/draw/sw/blend/lv_draw_sw_blend_to_i1.c **** }
 4943              		.loc 1 1273 30 view .LVU1603
 4944 0180 1A41     		asrs	r2, r2, r3
1273:Drivers/lvgl/src/draw/sw/blend/lv_draw_sw_blend_to_i1.c **** }
 4945              		.loc 1 1273 54 view .LVU1604
 4946 0182 02F00102 		and	r2, r2, #1
 4947              	.LVL517:
1273:Drivers/lvgl/src/draw/sw/blend/lv_draw_sw_blend_to_i1.c **** }
 4948              		.loc 1 1273 54 view .LVU1605
 4949              	.LBE729:
 4950              	.LBE735:
 424:Drivers/lvgl/src/draw/sw/blend/lv_draw_sw_blend_to_i1.c ****                         uint8_t blended = (src * opa + dest * (255 - opa));
 4951              		.loc 1 424 25 is_stmt 1 view .LVU1606
ARM GAS  /var/folders/qx/2_175_4n2s19vhvtspjhb3qh0000gn/T//ccaVas4T.s 			page 145


 424:Drivers/lvgl/src/draw/sw/blend/lv_draw_sw_blend_to_i1.c ****                         uint8_t blended = (src * opa + dest * (255 - opa));
 4952              		.loc 1 424 40 is_stmt 0 view .LVU1607
 4953 0186 09EB0B03 		add	r3, r9, fp
 4954              	.LVL518:
 4955              	.LBB736:
 4956              	.LBI730:
1271:Drivers/lvgl/src/draw/sw/blend/lv_draw_sw_blend_to_i1.c **** {
 4957              		.loc 1 1271 45 is_stmt 1 view .LVU1608
 4958              	.LBB732:
1273:Drivers/lvgl/src/draw/sw/blend/lv_draw_sw_blend_to_i1.c **** }
 4959              		.loc 1 1273 5 view .LVU1609
1273:Drivers/lvgl/src/draw/sw/blend/lv_draw_sw_blend_to_i1.c **** }
 4960              		.loc 1 1273 25 is_stmt 0 view .LVU1610
 4961 018a 1D46     		mov	r5, r3
 4962 018c 002B     		cmp	r3, #0
 4963 018e DADB     		blt	.L311
 4964              	.L268:
1273:Drivers/lvgl/src/draw/sw/blend/lv_draw_sw_blend_to_i1.c **** }
 4965              		.loc 1 1273 25 view .LVU1611
 4966 0190 ED10     		asrs	r5, r5, #3
1273:Drivers/lvgl/src/draw/sw/blend/lv_draw_sw_blend_to_i1.c **** }
 4967              		.loc 1 1273 16 view .LVU1612
 4968 0192 14F805C0 		ldrb	ip, [r4, r5]	@ zero_extendqisi2
1273:Drivers/lvgl/src/draw/sw/blend/lv_draw_sw_blend_to_i1.c **** }
 4969              		.loc 1 1273 47 view .LVU1613
 4970 0196 5842     		rsbs	r0, r3, #0
 4971 0198 03F00703 		and	r3, r3, #7
 4972              	.LVL519:
1273:Drivers/lvgl/src/draw/sw/blend/lv_draw_sw_blend_to_i1.c **** }
 4973              		.loc 1 1273 47 view .LVU1614
 4974 019c 00F00700 		and	r0, r0, #7
 4975 01a0 58BF     		it	pl
 4976 01a2 4342     		rsbpl	r3, r0, #0
1273:Drivers/lvgl/src/draw/sw/blend/lv_draw_sw_blend_to_i1.c **** }
 4977              		.loc 1 1273 36 view .LVU1615
 4978 01a4 C3F10703 		rsb	r3, r3, #7
1273:Drivers/lvgl/src/draw/sw/blend/lv_draw_sw_blend_to_i1.c **** }
 4979              		.loc 1 1273 30 view .LVU1616
 4980 01a8 4CFA03FA 		asr	r10, ip, r3
 4981              	.LVL520:
1273:Drivers/lvgl/src/draw/sw/blend/lv_draw_sw_blend_to_i1.c **** }
 4982              		.loc 1 1273 30 view .LVU1617
 4983              	.LBE732:
 4984              	.LBE736:
 425:Drivers/lvgl/src/draw/sw/blend/lv_draw_sw_blend_to_i1.c ****                         if(blended > I1_LUM_THRESHOLD) {
 4985              		.loc 1 425 25 is_stmt 1 view .LVU1618
 425:Drivers/lvgl/src/draw/sw/blend/lv_draw_sw_blend_to_i1.c ****                         if(blended > I1_LUM_THRESHOLD) {
 4986              		.loc 1 425 48 is_stmt 0 view .LVU1619
 4987 01ac 5242     		rsbs	r2, r2, #0
 4988              	.LVL521:
 425:Drivers/lvgl/src/draw/sw/blend/lv_draw_sw_blend_to_i1.c ****                         if(blended > I1_LUM_THRESHOLD) {
 4989              		.loc 1 425 48 view .LVU1620
 4990 01ae 08EA0202 		and	r2, r8, r2
 4991              	.LVL522:
 425:Drivers/lvgl/src/draw/sw/blend/lv_draw_sw_blend_to_i1.c ****                         if(blended > I1_LUM_THRESHOLD) {
 4992              		.loc 1 425 68 view .LVU1621
 4993 01b2 C8F1FF00 		rsb	r0, r8, #255
ARM GAS  /var/folders/qx/2_175_4n2s19vhvtspjhb3qh0000gn/T//ccaVas4T.s 			page 146


 425:Drivers/lvgl/src/draw/sw/blend/lv_draw_sw_blend_to_i1.c ****                         if(blended > I1_LUM_THRESHOLD) {
 4994              		.loc 1 425 54 view .LVU1622
 4995 01b6 4AF3000A 		sbfx	r10, r10, #0, #1
 4996              	.LVL523:
 425:Drivers/lvgl/src/draw/sw/blend/lv_draw_sw_blend_to_i1.c ****                         if(blended > I1_LUM_THRESHOLD) {
 4997              		.loc 1 425 54 view .LVU1623
 4998 01ba 00EA0A00 		and	r0, r0, r10
 425:Drivers/lvgl/src/draw/sw/blend/lv_draw_sw_blend_to_i1.c ****                         if(blended > I1_LUM_THRESHOLD) {
 4999              		.loc 1 425 33 view .LVU1624
 5000 01be 52FA80F0 		uxtab	r0, r2, r0
 5001              	.LVL524:
 426:Drivers/lvgl/src/draw/sw/blend/lv_draw_sw_blend_to_i1.c ****                             set_bit(dest_buf_i1, dest_x + bit_ofs);
 5002              		.loc 1 426 25 is_stmt 1 view .LVU1625
 426:Drivers/lvgl/src/draw/sw/blend/lv_draw_sw_blend_to_i1.c ****                             set_bit(dest_buf_i1, dest_x + bit_ofs);
 5003              		.loc 1 426 27 is_stmt 0 view .LVU1626
 5004 01c2 10F0800F 		tst	r0, #128
 5005 01c6 C0D0     		beq	.L269
 427:Drivers/lvgl/src/draw/sw/blend/lv_draw_sw_blend_to_i1.c ****                         }
 5006              		.loc 1 427 29 is_stmt 1 view .LVU1627
 5007              	.LVL525:
 5008              	.LBB737:
 5009              	.LBI737:
1261:Drivers/lvgl/src/draw/sw/blend/lv_draw_sw_blend_to_i1.c **** {
 5010              		.loc 1 1261 42 view .LVU1628
 5011              	.LBB738:
1263:Drivers/lvgl/src/draw/sw/blend/lv_draw_sw_blend_to_i1.c **** }
 5012              		.loc 1 1263 5 view .LVU1629
1263:Drivers/lvgl/src/draw/sw/blend/lv_draw_sw_blend_to_i1.c **** }
 5013              		.loc 1 1263 28 is_stmt 0 view .LVU1630
 5014 01c8 0122     		movs	r2, #1
 5015 01ca 9A40     		lsls	r2, r2, r3
1263:Drivers/lvgl/src/draw/sw/blend/lv_draw_sw_blend_to_i1.c **** }
 5016              		.loc 1 1263 22 view .LVU1631
 5017 01cc 4CEA0202 		orr	r2, ip, r2
 5018 01d0 6255     		strb	r2, [r4, r5]
 5019              	.LVL526:
1264:Drivers/lvgl/src/draw/sw/blend/lv_draw_sw_blend_to_i1.c **** 
 5020              		.loc 1 1264 1 view .LVU1632
 5021 01d2 C2E7     		b	.L270
 5022              	.LVL527:
 5023              	.L309:
1264:Drivers/lvgl/src/draw/sw/blend/lv_draw_sw_blend_to_i1.c **** 
 5024              		.loc 1 1264 1 view .LVU1633
 5025              	.LBE738:
 5026              	.LBE737:
 5027              	.LBE739:
 5028              	.LBB740:
 5029              	.LBB741:
1258:Drivers/lvgl/src/draw/sw/blend/lv_draw_sw_blend_to_i1.c **** }
 5030              		.loc 1 1258 12 view .LVU1634
 5031 01d4 DDF804A0 		ldr	r10, [sp, #4]
 5032              	.LBE741:
 5033              	.LBE740:
 433:Drivers/lvgl/src/draw/sw/blend/lv_draw_sw_blend_to_i1.c ****                     src_buf_i1 = drawbuf_next_row(src_buf_i1, src_stride);
 5034              		.loc 1 433 21 is_stmt 1 view .LVU1635
 5035              	.LVL528:
 5036              	.LBB743:
ARM GAS  /var/folders/qx/2_175_4n2s19vhvtspjhb3qh0000gn/T//ccaVas4T.s 			page 147


 5037              	.LBI740:
1256:Drivers/lvgl/src/draw/sw/blend/lv_draw_sw_blend_to_i1.c **** {
 5038              		.loc 1 1256 44 view .LVU1636
 5039              	.LBB742:
1258:Drivers/lvgl/src/draw/sw/blend/lv_draw_sw_blend_to_i1.c **** }
 5040              		.loc 1 1258 5 view .LVU1637
1258:Drivers/lvgl/src/draw/sw/blend/lv_draw_sw_blend_to_i1.c **** }
 5041              		.loc 1 1258 12 is_stmt 0 view .LVU1638
 5042 01d8 039B     		ldr	r3, [sp, #12]
 5043 01da 1C44     		add	r4, r4, r3
 5044              	.LVL529:
1258:Drivers/lvgl/src/draw/sw/blend/lv_draw_sw_blend_to_i1.c **** }
 5045              		.loc 1 1258 12 view .LVU1639
 5046              	.LBE742:
 5047              	.LBE743:
 434:Drivers/lvgl/src/draw/sw/blend/lv_draw_sw_blend_to_i1.c ****                 }
 5048              		.loc 1 434 21 is_stmt 1 view .LVU1640
 5049              	.LBB744:
 5050              	.LBI744:
1256:Drivers/lvgl/src/draw/sw/blend/lv_draw_sw_blend_to_i1.c **** {
 5051              		.loc 1 1256 44 view .LVU1641
 5052              	.LBB745:
1258:Drivers/lvgl/src/draw/sw/blend/lv_draw_sw_blend_to_i1.c **** }
 5053              		.loc 1 1258 5 view .LVU1642
1258:Drivers/lvgl/src/draw/sw/blend/lv_draw_sw_blend_to_i1.c **** }
 5054              		.loc 1 1258 12 is_stmt 0 view .LVU1643
 5055 01dc 7644     		add	r6, r6, lr
 5056              	.LVL530:
1258:Drivers/lvgl/src/draw/sw/blend/lv_draw_sw_blend_to_i1.c **** }
 5057              		.loc 1 1258 12 view .LVU1644
 5058              	.LBE745:
 5059              	.LBE744:
 421:Drivers/lvgl/src/draw/sw/blend/lv_draw_sw_blend_to_i1.c ****                     for(dest_x = 0, src_x = 0; src_x < w; dest_x++, src_x++) {
 5060              		.loc 1 421 36 is_stmt 1 discriminator 2 view .LVU1645
 5061 01de 0AF1010A 		add	r10, r10, #1
 5062              	.LVL531:
 5063              	.L258:
 421:Drivers/lvgl/src/draw/sw/blend/lv_draw_sw_blend_to_i1.c ****                     for(dest_x = 0, src_x = 0; src_x < w; dest_x++, src_x++) {
 5064              		.loc 1 421 30 discriminator 1 view .LVU1646
 5065 01e2 029B     		ldr	r3, [sp, #8]
 5066 01e4 9A45     		cmp	r10, r3
 5067 01e6 80F23081 		bge	.L254
 422:Drivers/lvgl/src/draw/sw/blend/lv_draw_sw_blend_to_i1.c ****                         uint8_t src = get_bit(src_buf_i1, src_x);
 5068              		.loc 1 422 43 is_stmt 0 view .LVU1647
 5069 01ea 0021     		movs	r1, #0
 422:Drivers/lvgl/src/draw/sw/blend/lv_draw_sw_blend_to_i1.c ****                         uint8_t src = get_bit(src_buf_i1, src_x);
 5070              		.loc 1 422 32 view .LVU1648
 5071 01ec 8946     		mov	r9, r1
 5072 01ee CDF804A0 		str	r10, [sp, #4]
 5073 01f2 B5E7     		b	.L272
 5074              	.LVL532:
 5075              	.L313:
 5076              	.LBB746:
 5077              	.LBB747:
 5078              	.LBB748:
1273:Drivers/lvgl/src/draw/sw/blend/lv_draw_sw_blend_to_i1.c **** }
 5079              		.loc 1 1273 25 view .LVU1649
ARM GAS  /var/folders/qx/2_175_4n2s19vhvtspjhb3qh0000gn/T//ccaVas4T.s 			page 148


 5080 01f4 CB1D     		adds	r3, r1, #7
 5081 01f6 11E0     		b	.L275
 5082              	.LVL533:
 5083              	.L314:
1273:Drivers/lvgl/src/draw/sw/blend/lv_draw_sw_blend_to_i1.c **** }
 5084              		.loc 1 1273 25 view .LVU1650
 5085              	.LBE748:
 5086              	.LBE747:
 5087              	.LBB750:
 5088              	.LBB751:
 5089 01f8 03F1070E 		add	lr, r3, #7
 5090 01fc 23E0     		b	.L276
 5091              	.LVL534:
 5092              	.L315:
1273:Drivers/lvgl/src/draw/sw/blend/lv_draw_sw_blend_to_i1.c **** }
 5093              		.loc 1 1273 25 view .LVU1651
 5094              	.LBE751:
 5095              	.LBE750:
 447:Drivers/lvgl/src/draw/sw/blend/lv_draw_sw_blend_to_i1.c ****                         }
 5096              		.loc 1 447 29 is_stmt 1 view .LVU1652
 5097              	.LBB753:
 5098              	.LBI753:
1261:Drivers/lvgl/src/draw/sw/blend/lv_draw_sw_blend_to_i1.c **** {
 5099              		.loc 1 1261 42 view .LVU1653
 5100              	.LBB754:
1263:Drivers/lvgl/src/draw/sw/blend/lv_draw_sw_blend_to_i1.c **** }
 5101              		.loc 1 1263 5 view .LVU1654
1263:Drivers/lvgl/src/draw/sw/blend/lv_draw_sw_blend_to_i1.c **** }
 5102              		.loc 1 1263 28 is_stmt 0 view .LVU1655
 5103 01fe 0122     		movs	r2, #1
 5104 0200 9A40     		lsls	r2, r2, r3
1263:Drivers/lvgl/src/draw/sw/blend/lv_draw_sw_blend_to_i1.c **** }
 5105              		.loc 1 1263 22 view .LVU1656
 5106 0202 48EA0202 		orr	r2, r8, r2
 5107 0206 04F80E20 		strb	r2, [r4, lr]
 5108              	.LVL535:
 5109              	.L278:
1263:Drivers/lvgl/src/draw/sw/blend/lv_draw_sw_blend_to_i1.c **** }
 5110              		.loc 1 1263 22 view .LVU1657
 5111              	.LBE754:
 5112              	.LBE753:
 5113              	.LBE746:
 441:Drivers/lvgl/src/draw/sw/blend/lv_draw_sw_blend_to_i1.c ****                         uint8_t mask_val = mask_buf[src_x];
 5114              		.loc 1 441 67 is_stmt 1 discriminator 2 view .LVU1658
 441:Drivers/lvgl/src/draw/sw/blend/lv_draw_sw_blend_to_i1.c ****                         uint8_t mask_val = mask_buf[src_x];
 5115              		.loc 1 441 65 is_stmt 0 discriminator 2 view .LVU1659
 5116 020a 09F10109 		add	r9, r9, #1
 5117              	.LVL536:
 441:Drivers/lvgl/src/draw/sw/blend/lv_draw_sw_blend_to_i1.c ****                         uint8_t mask_val = mask_buf[src_x];
 5118              		.loc 1 441 74 discriminator 2 view .LVU1660
 5119 020e 0131     		adds	r1, r1, #1
 5120              	.LVL537:
 5121              	.L280:
 441:Drivers/lvgl/src/draw/sw/blend/lv_draw_sw_blend_to_i1.c ****                         uint8_t mask_val = mask_buf[src_x];
 5122              		.loc 1 441 54 is_stmt 1 discriminator 1 view .LVU1661
 5123 0210 B942     		cmp	r1, r7
 5124 0212 3FDA     		bge	.L312
ARM GAS  /var/folders/qx/2_175_4n2s19vhvtspjhb3qh0000gn/T//ccaVas4T.s 			page 149


 5125              	.LBB759:
 442:Drivers/lvgl/src/draw/sw/blend/lv_draw_sw_blend_to_i1.c ****                         uint8_t src = get_bit(src_buf_i1, src_x);
 5126              		.loc 1 442 25 view .LVU1662
 442:Drivers/lvgl/src/draw/sw/blend/lv_draw_sw_blend_to_i1.c ****                         uint8_t src = get_bit(src_buf_i1, src_x);
 5127              		.loc 1 442 33 is_stmt 0 view .LVU1663
 5128 0214 685C     		ldrb	r0, [r5, r1]	@ zero_extendqisi2
 5129              	.LVL538:
 443:Drivers/lvgl/src/draw/sw/blend/lv_draw_sw_blend_to_i1.c ****                         uint8_t dest = get_bit(dest_buf_i1, dest_x + bit_ofs);
 5130              		.loc 1 443 25 is_stmt 1 view .LVU1664
 5131              	.LBB755:
 5132              	.LBI747:
1271:Drivers/lvgl/src/draw/sw/blend/lv_draw_sw_blend_to_i1.c **** {
 5133              		.loc 1 1271 45 view .LVU1665
 5134              	.LBB749:
1273:Drivers/lvgl/src/draw/sw/blend/lv_draw_sw_blend_to_i1.c **** }
 5135              		.loc 1 1273 5 view .LVU1666
1273:Drivers/lvgl/src/draw/sw/blend/lv_draw_sw_blend_to_i1.c **** }
 5136              		.loc 1 1273 25 is_stmt 0 view .LVU1667
 5137 0216 0B46     		mov	r3, r1
 5138 0218 0029     		cmp	r1, #0
 5139 021a EBDB     		blt	.L313
 5140              	.L275:
1273:Drivers/lvgl/src/draw/sw/blend/lv_draw_sw_blend_to_i1.c **** }
 5141              		.loc 1 1273 25 view .LVU1668
 5142 021c DB10     		asrs	r3, r3, #3
1273:Drivers/lvgl/src/draw/sw/blend/lv_draw_sw_blend_to_i1.c **** }
 5143              		.loc 1 1273 16 view .LVU1669
 5144 021e F25C     		ldrb	r2, [r6, r3]	@ zero_extendqisi2
1273:Drivers/lvgl/src/draw/sw/blend/lv_draw_sw_blend_to_i1.c **** }
 5145              		.loc 1 1273 47 view .LVU1670
 5146 0220 D1F1000E 		rsbs	lr, r1, #0
 5147 0224 01F00703 		and	r3, r1, #7
 5148 0228 0EF0070E 		and	lr, lr, #7
 5149 022c 58BF     		it	pl
 5150 022e CEF10003 		rsbpl	r3, lr, #0
1273:Drivers/lvgl/src/draw/sw/blend/lv_draw_sw_blend_to_i1.c **** }
 5151              		.loc 1 1273 36 view .LVU1671
 5152 0232 C3F10703 		rsb	r3, r3, #7
1273:Drivers/lvgl/src/draw/sw/blend/lv_draw_sw_blend_to_i1.c **** }
 5153              		.loc 1 1273 30 view .LVU1672
 5154 0236 1A41     		asrs	r2, r2, r3
1273:Drivers/lvgl/src/draw/sw/blend/lv_draw_sw_blend_to_i1.c **** }
 5155              		.loc 1 1273 54 view .LVU1673
 5156 0238 02F00102 		and	r2, r2, #1
 5157              	.LVL539:
1273:Drivers/lvgl/src/draw/sw/blend/lv_draw_sw_blend_to_i1.c **** }
 5158              		.loc 1 1273 54 view .LVU1674
 5159              	.LBE749:
 5160              	.LBE755:
 444:Drivers/lvgl/src/draw/sw/blend/lv_draw_sw_blend_to_i1.c ****                         uint8_t blended = (src * mask_val + dest * (255 - mask_val));
 5161              		.loc 1 444 25 is_stmt 1 view .LVU1675
 444:Drivers/lvgl/src/draw/sw/blend/lv_draw_sw_blend_to_i1.c ****                         uint8_t blended = (src * mask_val + dest * (255 - mask_val));
 5162              		.loc 1 444 40 is_stmt 0 view .LVU1676
 5163 023c 09EB0B03 		add	r3, r9, fp
 5164              	.LVL540:
 5165              	.LBB756:
 5166              	.LBI750:
ARM GAS  /var/folders/qx/2_175_4n2s19vhvtspjhb3qh0000gn/T//ccaVas4T.s 			page 150


1271:Drivers/lvgl/src/draw/sw/blend/lv_draw_sw_blend_to_i1.c **** {
 5167              		.loc 1 1271 45 is_stmt 1 view .LVU1677
 5168              	.LBB752:
1273:Drivers/lvgl/src/draw/sw/blend/lv_draw_sw_blend_to_i1.c **** }
 5169              		.loc 1 1273 5 view .LVU1678
1273:Drivers/lvgl/src/draw/sw/blend/lv_draw_sw_blend_to_i1.c **** }
 5170              		.loc 1 1273 25 is_stmt 0 view .LVU1679
 5171 0240 9E46     		mov	lr, r3
 5172 0242 002B     		cmp	r3, #0
 5173 0244 D8DB     		blt	.L314
 5174              	.L276:
1273:Drivers/lvgl/src/draw/sw/blend/lv_draw_sw_blend_to_i1.c **** }
 5175              		.loc 1 1273 25 view .LVU1680
 5176 0246 4FEAEE0E 		asr	lr, lr, #3
1273:Drivers/lvgl/src/draw/sw/blend/lv_draw_sw_blend_to_i1.c **** }
 5177              		.loc 1 1273 16 view .LVU1681
 5178 024a 14F80E80 		ldrb	r8, [r4, lr]	@ zero_extendqisi2
1273:Drivers/lvgl/src/draw/sw/blend/lv_draw_sw_blend_to_i1.c **** }
 5179              		.loc 1 1273 47 view .LVU1682
 5180 024e D3F1000A 		rsbs	r10, r3, #0
 5181 0252 03F00703 		and	r3, r3, #7
 5182              	.LVL541:
1273:Drivers/lvgl/src/draw/sw/blend/lv_draw_sw_blend_to_i1.c **** }
 5183              		.loc 1 1273 47 view .LVU1683
 5184 0256 0AF0070A 		and	r10, r10, #7
 5185 025a 58BF     		it	pl
 5186 025c CAF10003 		rsbpl	r3, r10, #0
1273:Drivers/lvgl/src/draw/sw/blend/lv_draw_sw_blend_to_i1.c **** }
 5187              		.loc 1 1273 36 view .LVU1684
 5188 0260 C3F10703 		rsb	r3, r3, #7
1273:Drivers/lvgl/src/draw/sw/blend/lv_draw_sw_blend_to_i1.c **** }
 5189              		.loc 1 1273 30 view .LVU1685
 5190 0264 48FA03FA 		asr	r10, r8, r3
 5191              	.LVL542:
1273:Drivers/lvgl/src/draw/sw/blend/lv_draw_sw_blend_to_i1.c **** }
 5192              		.loc 1 1273 30 view .LVU1686
 5193              	.LBE752:
 5194              	.LBE756:
 445:Drivers/lvgl/src/draw/sw/blend/lv_draw_sw_blend_to_i1.c ****                         if(blended > I1_LUM_THRESHOLD) {
 5195              		.loc 1 445 25 is_stmt 1 view .LVU1687
 445:Drivers/lvgl/src/draw/sw/blend/lv_draw_sw_blend_to_i1.c ****                         if(blended > I1_LUM_THRESHOLD) {
 5196              		.loc 1 445 48 is_stmt 0 view .LVU1688
 5197 0268 5242     		rsbs	r2, r2, #0
 5198              	.LVL543:
 445:Drivers/lvgl/src/draw/sw/blend/lv_draw_sw_blend_to_i1.c ****                         if(blended > I1_LUM_THRESHOLD) {
 5199              		.loc 1 445 48 view .LVU1689
 5200 026a 0240     		ands	r2, r2, r0
 5201              	.LVL544:
 445:Drivers/lvgl/src/draw/sw/blend/lv_draw_sw_blend_to_i1.c ****                         if(blended > I1_LUM_THRESHOLD) {
 5202              		.loc 1 445 73 view .LVU1690
 5203 026c C0F1FF00 		rsb	r0, r0, #255
 5204              	.LVL545:
 445:Drivers/lvgl/src/draw/sw/blend/lv_draw_sw_blend_to_i1.c ****                         if(blended > I1_LUM_THRESHOLD) {
 5205              		.loc 1 445 59 view .LVU1691
 5206 0270 4AF3000A 		sbfx	r10, r10, #0, #1
 5207              	.LVL546:
 445:Drivers/lvgl/src/draw/sw/blend/lv_draw_sw_blend_to_i1.c ****                         if(blended > I1_LUM_THRESHOLD) {
ARM GAS  /var/folders/qx/2_175_4n2s19vhvtspjhb3qh0000gn/T//ccaVas4T.s 			page 151


 5208              		.loc 1 445 59 view .LVU1692
 5209 0274 00EA0A00 		and	r0, r0, r10
 445:Drivers/lvgl/src/draw/sw/blend/lv_draw_sw_blend_to_i1.c ****                         if(blended > I1_LUM_THRESHOLD) {
 5210              		.loc 1 445 33 view .LVU1693
 5211 0278 52FA80F0 		uxtab	r0, r2, r0
 5212              	.LVL547:
 446:Drivers/lvgl/src/draw/sw/blend/lv_draw_sw_blend_to_i1.c ****                             set_bit(dest_buf_i1, dest_x + bit_ofs);
 5213              		.loc 1 446 25 is_stmt 1 view .LVU1694
 446:Drivers/lvgl/src/draw/sw/blend/lv_draw_sw_blend_to_i1.c ****                             set_bit(dest_buf_i1, dest_x + bit_ofs);
 5214              		.loc 1 446 27 is_stmt 0 view .LVU1695
 5215 027c 10F0800F 		tst	r0, #128
 5216 0280 BDD1     		bne	.L315
 450:Drivers/lvgl/src/draw/sw/blend/lv_draw_sw_blend_to_i1.c ****                         }
 5217              		.loc 1 450 29 is_stmt 1 view .LVU1696
 5218              	.LVL548:
 5219              	.LBB757:
 5220              	.LBI757:
1266:Drivers/lvgl/src/draw/sw/blend/lv_draw_sw_blend_to_i1.c **** {
 5221              		.loc 1 1266 42 view .LVU1697
 5222              	.LBB758:
1268:Drivers/lvgl/src/draw/sw/blend/lv_draw_sw_blend_to_i1.c **** }
 5223              		.loc 1 1268 5 view .LVU1698
1268:Drivers/lvgl/src/draw/sw/blend/lv_draw_sw_blend_to_i1.c **** }
 5224              		.loc 1 1268 29 is_stmt 0 view .LVU1699
 5225 0282 0122     		movs	r2, #1
 5226 0284 9A40     		lsls	r2, r2, r3
1268:Drivers/lvgl/src/draw/sw/blend/lv_draw_sw_blend_to_i1.c **** }
 5227              		.loc 1 1268 22 view .LVU1700
 5228 0286 D243     		mvns	r2, r2
 5229 0288 52B2     		sxtb	r2, r2
 5230 028a 08EA0208 		and	r8, r8, r2
 5231              	.LVL549:
1268:Drivers/lvgl/src/draw/sw/blend/lv_draw_sw_blend_to_i1.c **** }
 5232              		.loc 1 1268 22 view .LVU1701
 5233 028e 04F80E80 		strb	r8, [r4, lr]
 5234              	.LVL550:
1269:Drivers/lvgl/src/draw/sw/blend/lv_draw_sw_blend_to_i1.c **** 
 5235              		.loc 1 1269 1 view .LVU1702
 5236 0292 BAE7     		b	.L278
 5237              	.LVL551:
 5238              	.L312:
1269:Drivers/lvgl/src/draw/sw/blend/lv_draw_sw_blend_to_i1.c **** 
 5239              		.loc 1 1269 1 view .LVU1703
 5240              	.LBE758:
 5241              	.LBE757:
 5242              	.LBE759:
 5243              	.LBB760:
 5244              	.LBB761:
1258:Drivers/lvgl/src/draw/sw/blend/lv_draw_sw_blend_to_i1.c **** }
 5245              		.loc 1 1258 12 view .LVU1704
 5246 0294 DDF804A0 		ldr	r10, [sp, #4]
 5247              	.LBE761:
 5248              	.LBE760:
 453:Drivers/lvgl/src/draw/sw/blend/lv_draw_sw_blend_to_i1.c ****                     src_buf_i1 = drawbuf_next_row(src_buf_i1, src_stride);
 5249              		.loc 1 453 21 is_stmt 1 view .LVU1705
 5250              	.LVL552:
 5251              	.LBB763:
ARM GAS  /var/folders/qx/2_175_4n2s19vhvtspjhb3qh0000gn/T//ccaVas4T.s 			page 152


 5252              	.LBI760:
1256:Drivers/lvgl/src/draw/sw/blend/lv_draw_sw_blend_to_i1.c **** {
 5253              		.loc 1 1256 44 view .LVU1706
 5254              	.LBB762:
1258:Drivers/lvgl/src/draw/sw/blend/lv_draw_sw_blend_to_i1.c **** }
 5255              		.loc 1 1258 5 view .LVU1707
1258:Drivers/lvgl/src/draw/sw/blend/lv_draw_sw_blend_to_i1.c **** }
 5256              		.loc 1 1258 12 is_stmt 0 view .LVU1708
 5257 0298 039B     		ldr	r3, [sp, #12]
 5258 029a 1C44     		add	r4, r4, r3
 5259              	.LVL553:
1258:Drivers/lvgl/src/draw/sw/blend/lv_draw_sw_blend_to_i1.c **** }
 5260              		.loc 1 1258 12 view .LVU1709
 5261              	.LBE762:
 5262              	.LBE763:
 454:Drivers/lvgl/src/draw/sw/blend/lv_draw_sw_blend_to_i1.c ****                     mask_buf += mask_stride;
 5263              		.loc 1 454 21 is_stmt 1 view .LVU1710
 5264              	.LBB764:
 5265              	.LBI764:
1256:Drivers/lvgl/src/draw/sw/blend/lv_draw_sw_blend_to_i1.c **** {
 5266              		.loc 1 1256 44 view .LVU1711
 5267              	.LBB765:
1258:Drivers/lvgl/src/draw/sw/blend/lv_draw_sw_blend_to_i1.c **** }
 5268              		.loc 1 1258 5 view .LVU1712
1258:Drivers/lvgl/src/draw/sw/blend/lv_draw_sw_blend_to_i1.c **** }
 5269              		.loc 1 1258 12 is_stmt 0 view .LVU1713
 5270 029c 059B     		ldr	r3, [sp, #20]
 5271 029e 1E44     		add	r6, r6, r3
 5272              	.LVL554:
1258:Drivers/lvgl/src/draw/sw/blend/lv_draw_sw_blend_to_i1.c **** }
 5273              		.loc 1 1258 12 view .LVU1714
 5274              	.LBE765:
 5275              	.LBE764:
 455:Drivers/lvgl/src/draw/sw/blend/lv_draw_sw_blend_to_i1.c ****                 }
 5276              		.loc 1 455 21 is_stmt 1 view .LVU1715
 455:Drivers/lvgl/src/draw/sw/blend/lv_draw_sw_blend_to_i1.c ****                 }
 5277              		.loc 1 455 30 is_stmt 0 view .LVU1716
 5278 02a0 6544     		add	r5, r5, ip
 5279              	.LVL555:
 440:Drivers/lvgl/src/draw/sw/blend/lv_draw_sw_blend_to_i1.c ****                     for(dest_x = 0, src_x = 0; src_x < w; dest_x++, src_x++) {
 5280              		.loc 1 440 36 is_stmt 1 discriminator 2 view .LVU1717
 5281 02a2 0AF1010A 		add	r10, r10, #1
 5282              	.LVL556:
 5283              	.L273:
 440:Drivers/lvgl/src/draw/sw/blend/lv_draw_sw_blend_to_i1.c ****                     for(dest_x = 0, src_x = 0; src_x < w; dest_x++, src_x++) {
 5284              		.loc 1 440 30 discriminator 1 view .LVU1718
 5285 02a6 029B     		ldr	r3, [sp, #8]
 5286 02a8 9A45     		cmp	r10, r3
 5287 02aa 80F2CE80 		bge	.L254
 441:Drivers/lvgl/src/draw/sw/blend/lv_draw_sw_blend_to_i1.c ****                         uint8_t mask_val = mask_buf[src_x];
 5288              		.loc 1 441 43 is_stmt 0 view .LVU1719
 5289 02ae 0021     		movs	r1, #0
 441:Drivers/lvgl/src/draw/sw/blend/lv_draw_sw_blend_to_i1.c ****                         uint8_t mask_val = mask_buf[src_x];
 5290              		.loc 1 441 32 view .LVU1720
 5291 02b0 8946     		mov	r9, r1
 5292 02b2 CDF804A0 		str	r10, [sp, #4]
 5293 02b6 ABE7     		b	.L280
ARM GAS  /var/folders/qx/2_175_4n2s19vhvtspjhb3qh0000gn/T//ccaVas4T.s 			page 153


 5294              	.LVL557:
 5295              	.L298:
 440:Drivers/lvgl/src/draw/sw/blend/lv_draw_sw_blend_to_i1.c ****                     for(dest_x = 0, src_x = 0; src_x < w; dest_x++, src_x++) {
 5296              		.loc 1 440 23 view .LVU1721
 5297 02b8 4FF0000A 		mov	r10, #0
 5298 02bc 0393     		str	r3, [sp, #12]
 5299 02be CDF814E0 		str	lr, [sp, #20]
 5300 02c2 DDF810C0 		ldr	ip, [sp, #16]
 5301 02c6 EEE7     		b	.L273
 5302              	.LVL558:
 5303              	.L317:
 5304              	.LBB766:
 5305              	.LBB767:
 5306              	.LBB768:
1273:Drivers/lvgl/src/draw/sw/blend/lv_draw_sw_blend_to_i1.c **** }
 5307              		.loc 1 1273 25 view .LVU1722
 5308 02c8 D31D     		adds	r3, r2, #7
 5309 02ca 13E0     		b	.L283
 5310              	.LVL559:
 5311              	.L318:
1273:Drivers/lvgl/src/draw/sw/blend/lv_draw_sw_blend_to_i1.c **** }
 5312              		.loc 1 1273 25 view .LVU1723
 5313              	.LBE768:
 5314              	.LBE767:
 5315              	.LBB770:
 5316              	.LBB771:
 5317 02cc 03F1070E 		add	lr, r3, #7
 5318 02d0 26E0     		b	.L284
 5319              	.LVL560:
 5320              	.L319:
1273:Drivers/lvgl/src/draw/sw/blend/lv_draw_sw_blend_to_i1.c **** }
 5321              		.loc 1 1273 25 view .LVU1724
 5322              	.LBE771:
 5323              	.LBE770:
 470:Drivers/lvgl/src/draw/sw/blend/lv_draw_sw_blend_to_i1.c ****                         }
 5324              		.loc 1 470 29 is_stmt 1 view .LVU1725
 5325              	.LBB773:
 5326              	.LBI773:
1261:Drivers/lvgl/src/draw/sw/blend/lv_draw_sw_blend_to_i1.c **** {
 5327              		.loc 1 1261 42 view .LVU1726
 5328              	.LBB774:
1263:Drivers/lvgl/src/draw/sw/blend/lv_draw_sw_blend_to_i1.c **** }
 5329              		.loc 1 1263 5 view .LVU1727
1263:Drivers/lvgl/src/draw/sw/blend/lv_draw_sw_blend_to_i1.c **** }
 5330              		.loc 1 1263 28 is_stmt 0 view .LVU1728
 5331 02d2 0121     		movs	r1, #1
 5332 02d4 9940     		lsls	r1, r1, r3
1263:Drivers/lvgl/src/draw/sw/blend/lv_draw_sw_blend_to_i1.c **** }
 5333              		.loc 1 1263 22 view .LVU1729
 5334 02d6 48EA0101 		orr	r1, r8, r1
 5335 02da 04F80E10 		strb	r1, [r4, lr]
 5336              	.LVL561:
 5337              	.L282:
1263:Drivers/lvgl/src/draw/sw/blend/lv_draw_sw_blend_to_i1.c **** }
 5338              		.loc 1 1263 22 view .LVU1730
 5339              	.LBE774:
 5340              	.LBE773:
ARM GAS  /var/folders/qx/2_175_4n2s19vhvtspjhb3qh0000gn/T//ccaVas4T.s 			page 154


 5341              	.LBE766:
 462:Drivers/lvgl/src/draw/sw/blend/lv_draw_sw_blend_to_i1.c ****                         uint8_t mask_val = mask_buf[src_x];
 5342              		.loc 1 462 67 is_stmt 1 discriminator 2 view .LVU1731
 462:Drivers/lvgl/src/draw/sw/blend/lv_draw_sw_blend_to_i1.c ****                         uint8_t mask_val = mask_buf[src_x];
 5343              		.loc 1 462 65 is_stmt 0 discriminator 2 view .LVU1732
 5344 02de 09F10109 		add	r9, r9, #1
 5345              	.LVL562:
 462:Drivers/lvgl/src/draw/sw/blend/lv_draw_sw_blend_to_i1.c ****                         uint8_t mask_val = mask_buf[src_x];
 5346              		.loc 1 462 74 discriminator 2 view .LVU1733
 5347 02e2 0132     		adds	r2, r2, #1
 5348              	.LVL563:
 5349              	.L287:
 462:Drivers/lvgl/src/draw/sw/blend/lv_draw_sw_blend_to_i1.c ****                         uint8_t mask_val = mask_buf[src_x];
 5350              		.loc 1 462 54 is_stmt 1 discriminator 1 view .LVU1734
 5351 02e4 BA42     		cmp	r2, r7
 5352 02e6 49DA     		bge	.L316
 5353              	.LBB779:
 463:Drivers/lvgl/src/draw/sw/blend/lv_draw_sw_blend_to_i1.c ****                         if(mask_val == LV_OPA_TRANSP) continue;
 5354              		.loc 1 463 25 view .LVU1735
 463:Drivers/lvgl/src/draw/sw/blend/lv_draw_sw_blend_to_i1.c ****                         if(mask_val == LV_OPA_TRANSP) continue;
 5355              		.loc 1 463 33 is_stmt 0 view .LVU1736
 5356 02e8 A85C     		ldrb	r0, [r5, r2]	@ zero_extendqisi2
 5357              	.LVL564:
 464:Drivers/lvgl/src/draw/sw/blend/lv_draw_sw_blend_to_i1.c ****                         uint8_t src = get_bit(src_buf_i1, src_x);
 5358              		.loc 1 464 25 is_stmt 1 view .LVU1737
 464:Drivers/lvgl/src/draw/sw/blend/lv_draw_sw_blend_to_i1.c ****                         uint8_t src = get_bit(src_buf_i1, src_x);
 5359              		.loc 1 464 27 is_stmt 0 view .LVU1738
 5360 02ea 0028     		cmp	r0, #0
 5361 02ec F7D0     		beq	.L282
 465:Drivers/lvgl/src/draw/sw/blend/lv_draw_sw_blend_to_i1.c ****                         uint8_t dest = get_bit(dest_buf_i1, dest_x + bit_ofs);
 5362              		.loc 1 465 25 is_stmt 1 view .LVU1739
 5363              	.LVL565:
 5364              	.LBB775:
 5365              	.LBI767:
1271:Drivers/lvgl/src/draw/sw/blend/lv_draw_sw_blend_to_i1.c **** {
 5366              		.loc 1 1271 45 view .LVU1740
 5367              	.LBB769:
1273:Drivers/lvgl/src/draw/sw/blend/lv_draw_sw_blend_to_i1.c **** }
 5368              		.loc 1 1273 5 view .LVU1741
1273:Drivers/lvgl/src/draw/sw/blend/lv_draw_sw_blend_to_i1.c **** }
 5369              		.loc 1 1273 25 is_stmt 0 view .LVU1742
 5370 02ee 1346     		mov	r3, r2
 5371 02f0 002A     		cmp	r2, #0
 5372 02f2 E9DB     		blt	.L317
 5373              	.L283:
1273:Drivers/lvgl/src/draw/sw/blend/lv_draw_sw_blend_to_i1.c **** }
 5374              		.loc 1 1273 25 view .LVU1743
 5375 02f4 DB10     		asrs	r3, r3, #3
1273:Drivers/lvgl/src/draw/sw/blend/lv_draw_sw_blend_to_i1.c **** }
 5376              		.loc 1 1273 16 view .LVU1744
 5377 02f6 0199     		ldr	r1, [sp, #4]
 5378 02f8 C95C     		ldrb	r1, [r1, r3]	@ zero_extendqisi2
1273:Drivers/lvgl/src/draw/sw/blend/lv_draw_sw_blend_to_i1.c **** }
 5379              		.loc 1 1273 47 view .LVU1745
 5380 02fa D2F1000C 		rsbs	ip, r2, #0
 5381 02fe 02F00703 		and	r3, r2, #7
 5382 0302 0CF0070C 		and	ip, ip, #7
ARM GAS  /var/folders/qx/2_175_4n2s19vhvtspjhb3qh0000gn/T//ccaVas4T.s 			page 155


 5383 0306 58BF     		it	pl
 5384 0308 CCF10003 		rsbpl	r3, ip, #0
1273:Drivers/lvgl/src/draw/sw/blend/lv_draw_sw_blend_to_i1.c **** }
 5385              		.loc 1 1273 36 view .LVU1746
 5386 030c C3F10703 		rsb	r3, r3, #7
1273:Drivers/lvgl/src/draw/sw/blend/lv_draw_sw_blend_to_i1.c **** }
 5387              		.loc 1 1273 30 view .LVU1747
 5388 0310 1941     		asrs	r1, r1, r3
1273:Drivers/lvgl/src/draw/sw/blend/lv_draw_sw_blend_to_i1.c **** }
 5389              		.loc 1 1273 54 view .LVU1748
 5390 0312 01F00101 		and	r1, r1, #1
 5391              	.LVL566:
1273:Drivers/lvgl/src/draw/sw/blend/lv_draw_sw_blend_to_i1.c **** }
 5392              		.loc 1 1273 54 view .LVU1749
 5393              	.LBE769:
 5394              	.LBE775:
 466:Drivers/lvgl/src/draw/sw/blend/lv_draw_sw_blend_to_i1.c ****                         uint8_t blend_opa = LV_OPA_MIX2(mask_val, opa);
 5395              		.loc 1 466 25 is_stmt 1 view .LVU1750
 466:Drivers/lvgl/src/draw/sw/blend/lv_draw_sw_blend_to_i1.c ****                         uint8_t blend_opa = LV_OPA_MIX2(mask_val, opa);
 5396              		.loc 1 466 40 is_stmt 0 view .LVU1751
 5397 0316 09EB0B03 		add	r3, r9, fp
 5398              	.LVL567:
 5399              	.LBB776:
 5400              	.LBI770:
1271:Drivers/lvgl/src/draw/sw/blend/lv_draw_sw_blend_to_i1.c **** {
 5401              		.loc 1 1271 45 is_stmt 1 view .LVU1752
 5402              	.LBB772:
1273:Drivers/lvgl/src/draw/sw/blend/lv_draw_sw_blend_to_i1.c **** }
 5403              		.loc 1 1273 5 view .LVU1753
1273:Drivers/lvgl/src/draw/sw/blend/lv_draw_sw_blend_to_i1.c **** }
 5404              		.loc 1 1273 25 is_stmt 0 view .LVU1754
 5405 031a 9E46     		mov	lr, r3
 5406 031c 002B     		cmp	r3, #0
 5407 031e D5DB     		blt	.L318
 5408              	.L284:
1273:Drivers/lvgl/src/draw/sw/blend/lv_draw_sw_blend_to_i1.c **** }
 5409              		.loc 1 1273 25 view .LVU1755
 5410 0320 4FEAEE0E 		asr	lr, lr, #3
1273:Drivers/lvgl/src/draw/sw/blend/lv_draw_sw_blend_to_i1.c **** }
 5411              		.loc 1 1273 16 view .LVU1756
 5412 0324 14F80E80 		ldrb	r8, [r4, lr]	@ zero_extendqisi2
1273:Drivers/lvgl/src/draw/sw/blend/lv_draw_sw_blend_to_i1.c **** }
 5413              		.loc 1 1273 47 view .LVU1757
 5414 0328 D3F1000C 		rsbs	ip, r3, #0
 5415 032c 03F00703 		and	r3, r3, #7
 5416              	.LVL568:
1273:Drivers/lvgl/src/draw/sw/blend/lv_draw_sw_blend_to_i1.c **** }
 5417              		.loc 1 1273 47 view .LVU1758
 5418 0330 0CF0070C 		and	ip, ip, #7
 5419 0334 58BF     		it	pl
 5420 0336 CCF10003 		rsbpl	r3, ip, #0
1273:Drivers/lvgl/src/draw/sw/blend/lv_draw_sw_blend_to_i1.c **** }
 5421              		.loc 1 1273 36 view .LVU1759
 5422 033a C3F10703 		rsb	r3, r3, #7
1273:Drivers/lvgl/src/draw/sw/blend/lv_draw_sw_blend_to_i1.c **** }
 5423              		.loc 1 1273 30 view .LVU1760
 5424 033e 48FA03FA 		asr	r10, r8, r3
ARM GAS  /var/folders/qx/2_175_4n2s19vhvtspjhb3qh0000gn/T//ccaVas4T.s 			page 156


 5425              	.LVL569:
1273:Drivers/lvgl/src/draw/sw/blend/lv_draw_sw_blend_to_i1.c **** }
 5426              		.loc 1 1273 30 view .LVU1761
 5427              	.LBE772:
 5428              	.LBE776:
 467:Drivers/lvgl/src/draw/sw/blend/lv_draw_sw_blend_to_i1.c ****                         uint8_t blended = (src * blend_opa + dest * (255 - blend_opa));
 5429              		.loc 1 467 25 is_stmt 1 view .LVU1762
 467:Drivers/lvgl/src/draw/sw/blend/lv_draw_sw_blend_to_i1.c ****                         uint8_t blended = (src * blend_opa + dest * (255 - blend_opa));
 5430              		.loc 1 467 45 is_stmt 0 view .LVU1763
 5431 0342 039E     		ldr	r6, [sp, #12]
 5432 0344 00FB06FC 		mul	ip, r0, r6
 467:Drivers/lvgl/src/draw/sw/blend/lv_draw_sw_blend_to_i1.c ****                         uint8_t blended = (src * blend_opa + dest * (255 - blend_opa));
 5433              		.loc 1 467 33 view .LVU1764
 5434 0348 4FEA1C20 		lsr	r0, ip, #8
 5435              	.LVL570:
 468:Drivers/lvgl/src/draw/sw/blend/lv_draw_sw_blend_to_i1.c ****                         if(blended > I1_LUM_THRESHOLD) {
 5436              		.loc 1 468 25 is_stmt 1 view .LVU1765
 468:Drivers/lvgl/src/draw/sw/blend/lv_draw_sw_blend_to_i1.c ****                         if(blended > I1_LUM_THRESHOLD) {
 5437              		.loc 1 468 48 is_stmt 0 view .LVU1766
 5438 034c 4942     		rsbs	r1, r1, #0
 5439              	.LVL571:
 468:Drivers/lvgl/src/draw/sw/blend/lv_draw_sw_blend_to_i1.c ****                         if(blended > I1_LUM_THRESHOLD) {
 5440              		.loc 1 468 48 view .LVU1767
 5441 034e 01EA1C21 		and	r1, r1, ip, lsr #8
 5442              	.LVL572:
 468:Drivers/lvgl/src/draw/sw/blend/lv_draw_sw_blend_to_i1.c ****                         if(blended > I1_LUM_THRESHOLD) {
 5443              		.loc 1 468 74 view .LVU1768
 5444 0352 C0F1FF00 		rsb	r0, r0, #255
 5445              	.LVL573:
 468:Drivers/lvgl/src/draw/sw/blend/lv_draw_sw_blend_to_i1.c ****                         if(blended > I1_LUM_THRESHOLD) {
 5446              		.loc 1 468 60 view .LVU1769
 5447 0356 4AF3000A 		sbfx	r10, r10, #0, #1
 5448              	.LVL574:
 468:Drivers/lvgl/src/draw/sw/blend/lv_draw_sw_blend_to_i1.c ****                         if(blended > I1_LUM_THRESHOLD) {
 5449              		.loc 1 468 60 view .LVU1770
 5450 035a 00EA0A00 		and	r0, r0, r10
 468:Drivers/lvgl/src/draw/sw/blend/lv_draw_sw_blend_to_i1.c ****                         if(blended > I1_LUM_THRESHOLD) {
 5451              		.loc 1 468 33 view .LVU1771
 5452 035e 51FA80F0 		uxtab	r0, r1, r0
 5453              	.LVL575:
 469:Drivers/lvgl/src/draw/sw/blend/lv_draw_sw_blend_to_i1.c ****                             set_bit(dest_buf_i1, dest_x + bit_ofs);
 5454              		.loc 1 469 25 is_stmt 1 view .LVU1772
 469:Drivers/lvgl/src/draw/sw/blend/lv_draw_sw_blend_to_i1.c ****                             set_bit(dest_buf_i1, dest_x + bit_ofs);
 5455              		.loc 1 469 27 is_stmt 0 view .LVU1773
 5456 0362 10F0800F 		tst	r0, #128
 5457 0366 B4D1     		bne	.L319
 473:Drivers/lvgl/src/draw/sw/blend/lv_draw_sw_blend_to_i1.c ****                         }
 5458              		.loc 1 473 29 is_stmt 1 view .LVU1774
 5459              	.LVL576:
 5460              	.LBB777:
 5461              	.LBI777:
1266:Drivers/lvgl/src/draw/sw/blend/lv_draw_sw_blend_to_i1.c **** {
 5462              		.loc 1 1266 42 view .LVU1775
 5463              	.LBB778:
1268:Drivers/lvgl/src/draw/sw/blend/lv_draw_sw_blend_to_i1.c **** }
 5464              		.loc 1 1268 5 view .LVU1776
1268:Drivers/lvgl/src/draw/sw/blend/lv_draw_sw_blend_to_i1.c **** }
ARM GAS  /var/folders/qx/2_175_4n2s19vhvtspjhb3qh0000gn/T//ccaVas4T.s 			page 157


 5465              		.loc 1 1268 29 is_stmt 0 view .LVU1777
 5466 0368 0121     		movs	r1, #1
 5467 036a 01FA03F3 		lsl	r3, r1, r3
 5468              	.LVL577:
1268:Drivers/lvgl/src/draw/sw/blend/lv_draw_sw_blend_to_i1.c **** }
 5469              		.loc 1 1268 22 view .LVU1778
 5470 036e DB43     		mvns	r3, r3
 5471 0370 5BB2     		sxtb	r3, r3
 5472 0372 08EA0308 		and	r8, r8, r3
 5473              	.LVL578:
1268:Drivers/lvgl/src/draw/sw/blend/lv_draw_sw_blend_to_i1.c **** }
 5474              		.loc 1 1268 22 view .LVU1779
 5475 0376 04F80E80 		strb	r8, [r4, lr]
 5476              	.LVL579:
1269:Drivers/lvgl/src/draw/sw/blend/lv_draw_sw_blend_to_i1.c **** 
 5477              		.loc 1 1269 1 view .LVU1780
 5478 037a B0E7     		b	.L282
 5479              	.LVL580:
 5480              	.L316:
1269:Drivers/lvgl/src/draw/sw/blend/lv_draw_sw_blend_to_i1.c **** 
 5481              		.loc 1 1269 1 view .LVU1781
 5482              	.LBE778:
 5483              	.LBE777:
 5484              	.LBE779:
 5485              	.LBB780:
 5486              	.LBB781:
1258:Drivers/lvgl/src/draw/sw/blend/lv_draw_sw_blend_to_i1.c **** }
 5487              		.loc 1 1258 12 view .LVU1782
 5488 037c 019E     		ldr	r6, [sp, #4]
 5489 037e 059B     		ldr	r3, [sp, #20]
 5490              	.LBE781:
 5491              	.LBE780:
 476:Drivers/lvgl/src/draw/sw/blend/lv_draw_sw_blend_to_i1.c ****                     src_buf_i1 = drawbuf_next_row(src_buf_i1, src_stride);
 5492              		.loc 1 476 21 is_stmt 1 view .LVU1783
 5493              	.LVL581:
 5494              	.LBB783:
 5495              	.LBI780:
1256:Drivers/lvgl/src/draw/sw/blend/lv_draw_sw_blend_to_i1.c **** {
 5496              		.loc 1 1256 44 view .LVU1784
 5497              	.LBB782:
1258:Drivers/lvgl/src/draw/sw/blend/lv_draw_sw_blend_to_i1.c **** }
 5498              		.loc 1 1258 5 view .LVU1785
1258:Drivers/lvgl/src/draw/sw/blend/lv_draw_sw_blend_to_i1.c **** }
 5499              		.loc 1 1258 12 is_stmt 0 view .LVU1786
 5500 0380 069A     		ldr	r2, [sp, #24]
 5501              	.LVL582:
1258:Drivers/lvgl/src/draw/sw/blend/lv_draw_sw_blend_to_i1.c **** }
 5502              		.loc 1 1258 12 view .LVU1787
 5503 0382 1444     		add	r4, r4, r2
 5504              	.LVL583:
1258:Drivers/lvgl/src/draw/sw/blend/lv_draw_sw_blend_to_i1.c **** }
 5505              		.loc 1 1258 12 view .LVU1788
 5506              	.LBE782:
 5507              	.LBE783:
 477:Drivers/lvgl/src/draw/sw/blend/lv_draw_sw_blend_to_i1.c ****                     mask_buf += mask_stride;
 5508              		.loc 1 477 21 is_stmt 1 view .LVU1789
 5509              	.LBB784:
ARM GAS  /var/folders/qx/2_175_4n2s19vhvtspjhb3qh0000gn/T//ccaVas4T.s 			page 158


 5510              	.LBI784:
1256:Drivers/lvgl/src/draw/sw/blend/lv_draw_sw_blend_to_i1.c **** {
 5511              		.loc 1 1256 44 view .LVU1790
 5512              	.LBB785:
1258:Drivers/lvgl/src/draw/sw/blend/lv_draw_sw_blend_to_i1.c **** }
 5513              		.loc 1 1258 5 view .LVU1791
1258:Drivers/lvgl/src/draw/sw/blend/lv_draw_sw_blend_to_i1.c **** }
 5514              		.loc 1 1258 12 is_stmt 0 view .LVU1792
 5515 0384 079A     		ldr	r2, [sp, #28]
 5516 0386 1644     		add	r6, r6, r2
 5517              	.LVL584:
1258:Drivers/lvgl/src/draw/sw/blend/lv_draw_sw_blend_to_i1.c **** }
 5518              		.loc 1 1258 12 view .LVU1793
 5519              	.LBE785:
 5520              	.LBE784:
 478:Drivers/lvgl/src/draw/sw/blend/lv_draw_sw_blend_to_i1.c ****                 }
 5521              		.loc 1 478 21 is_stmt 1 view .LVU1794
 478:Drivers/lvgl/src/draw/sw/blend/lv_draw_sw_blend_to_i1.c ****                 }
 5522              		.loc 1 478 30 is_stmt 0 view .LVU1795
 5523 0388 049A     		ldr	r2, [sp, #16]
 5524 038a 1544     		add	r5, r5, r2
 5525              	.LVL585:
 461:Drivers/lvgl/src/draw/sw/blend/lv_draw_sw_blend_to_i1.c ****                     for(dest_x = 0, src_x = 0; src_x < w; dest_x++, src_x++) {
 5526              		.loc 1 461 36 is_stmt 1 discriminator 2 view .LVU1796
 5527 038c 0133     		adds	r3, r3, #1
 5528              	.LVL586:
 5529              	.L281:
 461:Drivers/lvgl/src/draw/sw/blend/lv_draw_sw_blend_to_i1.c ****                     for(dest_x = 0, src_x = 0; src_x < w; dest_x++, src_x++) {
 5530              		.loc 1 461 30 discriminator 1 view .LVU1797
 5531 038e 029A     		ldr	r2, [sp, #8]
 5532 0390 9342     		cmp	r3, r2
 5533 0392 5ADA     		bge	.L254
 462:Drivers/lvgl/src/draw/sw/blend/lv_draw_sw_blend_to_i1.c ****                         uint8_t mask_val = mask_buf[src_x];
 5534              		.loc 1 462 43 is_stmt 0 view .LVU1798
 5535 0394 0022     		movs	r2, #0
 462:Drivers/lvgl/src/draw/sw/blend/lv_draw_sw_blend_to_i1.c ****                         uint8_t mask_val = mask_buf[src_x];
 5536              		.loc 1 462 32 view .LVU1799
 5537 0396 9146     		mov	r9, r2
 5538 0398 0196     		str	r6, [sp, #4]
 5539 039a 0593     		str	r3, [sp, #20]
 5540 039c A2E7     		b	.L287
 5541              	.LVL587:
 5542              	.L288:
 5543              	.LBB786:
 5544              	.LBB787:
 5545              	.LBB788:
1273:Drivers/lvgl/src/draw/sw/blend/lv_draw_sw_blend_to_i1.c **** }
 5546              		.loc 1 1273 25 view .LVU1800
 5547 039e DB10     		asrs	r3, r3, #3
1273:Drivers/lvgl/src/draw/sw/blend/lv_draw_sw_blend_to_i1.c **** }
 5548              		.loc 1 1273 16 view .LVU1801
 5549 03a0 E35C     		ldrb	r3, [r4, r3]	@ zero_extendqisi2
1273:Drivers/lvgl/src/draw/sw/blend/lv_draw_sw_blend_to_i1.c **** }
 5550              		.loc 1 1273 47 view .LVU1802
 5551 03a2 D9F10001 		rsbs	r1, r9, #0
 5552 03a6 09F00702 		and	r2, r9, #7
 5553 03aa 01F00701 		and	r1, r1, #7
ARM GAS  /var/folders/qx/2_175_4n2s19vhvtspjhb3qh0000gn/T//ccaVas4T.s 			page 159


 5554 03ae 58BF     		it	pl
 5555 03b0 4A42     		rsbpl	r2, r1, #0
1273:Drivers/lvgl/src/draw/sw/blend/lv_draw_sw_blend_to_i1.c **** }
 5556              		.loc 1 1273 36 view .LVU1803
 5557 03b2 C2F10702 		rsb	r2, r2, #7
1273:Drivers/lvgl/src/draw/sw/blend/lv_draw_sw_blend_to_i1.c **** }
 5558              		.loc 1 1273 30 view .LVU1804
 5559 03b6 1341     		asrs	r3, r3, r2
 5560              	.LVL588:
1273:Drivers/lvgl/src/draw/sw/blend/lv_draw_sw_blend_to_i1.c **** }
 5561              		.loc 1 1273 30 view .LVU1805
 5562              	.LBE788:
 5563              	.LBE787:
 487:Drivers/lvgl/src/draw/sw/blend/lv_draw_sw_blend_to_i1.c ****                 src_argb.green = src_argb.red;
 5564              		.loc 1 487 30 discriminator 1 view .LVU1806
 5565 03b8 43F30003 		sbfx	r3, r3, #0, #1
 5566 03bc DBB2     		uxtb	r3, r3
 5567 03be 8DF82630 		strb	r3, [sp, #38]
 488:Drivers/lvgl/src/draw/sw/blend/lv_draw_sw_blend_to_i1.c ****                 src_argb.blue = src_argb.red;
 5568              		.loc 1 488 17 is_stmt 1 view .LVU1807
 488:Drivers/lvgl/src/draw/sw/blend/lv_draw_sw_blend_to_i1.c ****                 src_argb.blue = src_argb.red;
 5569              		.loc 1 488 32 is_stmt 0 view .LVU1808
 5570 03c2 8DF82530 		strb	r3, [sp, #37]
 489:Drivers/lvgl/src/draw/sw/blend/lv_draw_sw_blend_to_i1.c ****                 if(mask_buf == NULL) src_argb.alpha = opa;
 5571              		.loc 1 489 17 is_stmt 1 view .LVU1809
 489:Drivers/lvgl/src/draw/sw/blend/lv_draw_sw_blend_to_i1.c ****                 if(mask_buf == NULL) src_argb.alpha = opa;
 5572              		.loc 1 489 31 is_stmt 0 view .LVU1810
 5573 03c6 8DF82430 		strb	r3, [sp, #36]
 490:Drivers/lvgl/src/draw/sw/blend/lv_draw_sw_blend_to_i1.c ****                 else src_argb.alpha = LV_OPA_MIX2(mask_buf[dest_x], opa);
 5574              		.loc 1 490 17 is_stmt 1 view .LVU1811
 490:Drivers/lvgl/src/draw/sw/blend/lv_draw_sw_blend_to_i1.c ****                 else src_argb.alpha = LV_OPA_MIX2(mask_buf[dest_x], opa);
 5575              		.loc 1 490 19 is_stmt 0 view .LVU1812
 5576 03ca E6B1     		cbz	r6, .L320
 491:Drivers/lvgl/src/draw/sw/blend/lv_draw_sw_blend_to_i1.c ****                 blend_non_normal_pixel(dest_buf_i1, dest_x + bit_ofs, src_argb, dsc->blend_mode);
 5577              		.loc 1 491 22 is_stmt 1 view .LVU1813
 491:Drivers/lvgl/src/draw/sw/blend/lv_draw_sw_blend_to_i1.c ****                 blend_non_normal_pixel(dest_buf_i1, dest_x + bit_ofs, src_argb, dsc->blend_mode);
 5578              		.loc 1 491 39 is_stmt 0 view .LVU1814
 5579 03cc 16F80A30 		ldrb	r3, [r6, r10]	@ zero_extendqisi2
 5580 03d0 03FB08F3 		mul	r3, r3, r8
 5581 03d4 1B0A     		lsrs	r3, r3, #8
 491:Drivers/lvgl/src/draw/sw/blend/lv_draw_sw_blend_to_i1.c ****                 blend_non_normal_pixel(dest_buf_i1, dest_x + bit_ofs, src_argb, dsc->blend_mode);
 5582              		.loc 1 491 37 view .LVU1815
 5583 03d6 8DF82730 		strb	r3, [sp, #39]
 5584              	.L290:
 492:Drivers/lvgl/src/draw/sw/blend/lv_draw_sw_blend_to_i1.c ****             }
 5585              		.loc 1 492 17 is_stmt 1 view .LVU1816
 5586 03da 019B     		ldr	r3, [sp, #4]
 5587 03dc 93F82230 		ldrb	r3, [r3, #34]	@ zero_extendqisi2
 5588 03e0 099A     		ldr	r2, [sp, #36]
 5589 03e2 0AEB0B01 		add	r1, r10, fp
 5590 03e6 2846     		mov	r0, r5
 5591 03e8 FFF7FEFF 		bl	blend_non_normal_pixel
 5592              	.LVL589:
 486:Drivers/lvgl/src/draw/sw/blend/lv_draw_sw_blend_to_i1.c ****                 src_argb.red = get_bit(src_buf_i1, src_x) * 255;
 5593              		.loc 1 486 59 discriminator 2 view .LVU1817
 486:Drivers/lvgl/src/draw/sw/blend/lv_draw_sw_blend_to_i1.c ****                 src_argb.red = get_bit(src_buf_i1, src_x) * 255;
 5594              		.loc 1 486 57 is_stmt 0 discriminator 2 view .LVU1818
ARM GAS  /var/folders/qx/2_175_4n2s19vhvtspjhb3qh0000gn/T//ccaVas4T.s 			page 160


 5595 03ec 0AF1010A 		add	r10, r10, #1
 5596              	.LVL590:
 486:Drivers/lvgl/src/draw/sw/blend/lv_draw_sw_blend_to_i1.c ****                 src_argb.red = get_bit(src_buf_i1, src_x) * 255;
 5597              		.loc 1 486 66 discriminator 2 view .LVU1819
 5598 03f0 09F10109 		add	r9, r9, #1
 5599              	.LVL591:
 5600              	.L293:
 486:Drivers/lvgl/src/draw/sw/blend/lv_draw_sw_blend_to_i1.c ****                 src_argb.red = get_bit(src_buf_i1, src_x) * 255;
 5601              		.loc 1 486 46 is_stmt 1 discriminator 1 view .LVU1820
 5602 03f4 B945     		cmp	r9, r7
 5603 03f6 09DA     		bge	.L321
 487:Drivers/lvgl/src/draw/sw/blend/lv_draw_sw_blend_to_i1.c ****                 src_argb.green = src_argb.red;
 5604              		.loc 1 487 17 view .LVU1821
 5605              	.LVL592:
 5606              	.LBB790:
 5607              	.LBI787:
1271:Drivers/lvgl/src/draw/sw/blend/lv_draw_sw_blend_to_i1.c **** {
 5608              		.loc 1 1271 45 view .LVU1822
 5609              	.LBB789:
1273:Drivers/lvgl/src/draw/sw/blend/lv_draw_sw_blend_to_i1.c **** }
 5610              		.loc 1 1273 5 view .LVU1823
1273:Drivers/lvgl/src/draw/sw/blend/lv_draw_sw_blend_to_i1.c **** }
 5611              		.loc 1 1273 25 is_stmt 0 view .LVU1824
 5612 03f8 4B46     		mov	r3, r9
 5613 03fa B9F1000F 		cmp	r9, #0
 5614 03fe CEDA     		bge	.L288
1273:Drivers/lvgl/src/draw/sw/blend/lv_draw_sw_blend_to_i1.c **** }
 5615              		.loc 1 1273 25 view .LVU1825
 5616 0400 09F10703 		add	r3, r9, #7
 5617 0404 CBE7     		b	.L288
 5618              	.LVL593:
 5619              	.L320:
1273:Drivers/lvgl/src/draw/sw/blend/lv_draw_sw_blend_to_i1.c **** }
 5620              		.loc 1 1273 25 view .LVU1826
 5621              	.LBE789:
 5622              	.LBE790:
 490:Drivers/lvgl/src/draw/sw/blend/lv_draw_sw_blend_to_i1.c ****                 else src_argb.alpha = LV_OPA_MIX2(mask_buf[dest_x], opa);
 5623              		.loc 1 490 38 is_stmt 1 discriminator 1 view .LVU1827
 490:Drivers/lvgl/src/draw/sw/blend/lv_draw_sw_blend_to_i1.c ****                 else src_argb.alpha = LV_OPA_MIX2(mask_buf[dest_x], opa);
 5624              		.loc 1 490 53 is_stmt 0 discriminator 1 view .LVU1828
 5625 0406 8DF82780 		strb	r8, [sp, #39]
 5626 040a E6E7     		b	.L290
 5627              	.L321:
 494:Drivers/lvgl/src/draw/sw/blend/lv_draw_sw_blend_to_i1.c ****             dest_buf_i1 = drawbuf_next_row(dest_buf_i1, dest_stride);
 5628              		.loc 1 494 15 view .LVU1829
 5629 040c DDF80CC0 		ldr	ip, [sp, #12]
 494:Drivers/lvgl/src/draw/sw/blend/lv_draw_sw_blend_to_i1.c ****             dest_buf_i1 = drawbuf_next_row(dest_buf_i1, dest_stride);
 5630              		.loc 1 494 13 is_stmt 1 view .LVU1830
 494:Drivers/lvgl/src/draw/sw/blend/lv_draw_sw_blend_to_i1.c ****             dest_buf_i1 = drawbuf_next_row(dest_buf_i1, dest_stride);
 5631              		.loc 1 494 15 is_stmt 0 view .LVU1831
 5632 0410 0EB1     		cbz	r6, .L292
 494:Drivers/lvgl/src/draw/sw/blend/lv_draw_sw_blend_to_i1.c ****             dest_buf_i1 = drawbuf_next_row(dest_buf_i1, dest_stride);
 5633              		.loc 1 494 26 is_stmt 1 discriminator 1 view .LVU1832
 494:Drivers/lvgl/src/draw/sw/blend/lv_draw_sw_blend_to_i1.c ****             dest_buf_i1 = drawbuf_next_row(dest_buf_i1, dest_stride);
 5634              		.loc 1 494 35 is_stmt 0 discriminator 1 view .LVU1833
 5635 0412 049B     		ldr	r3, [sp, #16]
 5636 0414 1E44     		add	r6, r6, r3
ARM GAS  /var/folders/qx/2_175_4n2s19vhvtspjhb3qh0000gn/T//ccaVas4T.s 			page 161


 5637              	.LVL594:
 5638              	.L292:
 495:Drivers/lvgl/src/draw/sw/blend/lv_draw_sw_blend_to_i1.c ****             src_buf_i1 = drawbuf_next_row(src_buf_i1, src_stride);
 5639              		.loc 1 495 13 is_stmt 1 view .LVU1834
 5640              	.LBB791:
 5641              	.LBI791:
1256:Drivers/lvgl/src/draw/sw/blend/lv_draw_sw_blend_to_i1.c **** {
 5642              		.loc 1 1256 44 view .LVU1835
 5643              	.LBB792:
1258:Drivers/lvgl/src/draw/sw/blend/lv_draw_sw_blend_to_i1.c **** }
 5644              		.loc 1 1258 5 view .LVU1836
1258:Drivers/lvgl/src/draw/sw/blend/lv_draw_sw_blend_to_i1.c **** }
 5645              		.loc 1 1258 12 is_stmt 0 view .LVU1837
 5646 0416 059B     		ldr	r3, [sp, #20]
 5647 0418 1D44     		add	r5, r5, r3
 5648              	.LVL595:
1258:Drivers/lvgl/src/draw/sw/blend/lv_draw_sw_blend_to_i1.c **** }
 5649              		.loc 1 1258 12 view .LVU1838
 5650              	.LBE792:
 5651              	.LBE791:
 496:Drivers/lvgl/src/draw/sw/blend/lv_draw_sw_blend_to_i1.c ****         }
 5652              		.loc 1 496 13 is_stmt 1 view .LVU1839
 5653              	.LBB793:
 5654              	.LBI793:
1256:Drivers/lvgl/src/draw/sw/blend/lv_draw_sw_blend_to_i1.c **** {
 5655              		.loc 1 1256 44 view .LVU1840
 5656              	.LBB794:
1258:Drivers/lvgl/src/draw/sw/blend/lv_draw_sw_blend_to_i1.c **** }
 5657              		.loc 1 1258 5 view .LVU1841
1258:Drivers/lvgl/src/draw/sw/blend/lv_draw_sw_blend_to_i1.c **** }
 5658              		.loc 1 1258 12 is_stmt 0 view .LVU1842
 5659 041a 069B     		ldr	r3, [sp, #24]
 5660 041c 1C44     		add	r4, r4, r3
 5661              	.LVL596:
1258:Drivers/lvgl/src/draw/sw/blend/lv_draw_sw_blend_to_i1.c **** }
 5662              		.loc 1 1258 12 view .LVU1843
 5663              	.LBE794:
 5664              	.LBE793:
 485:Drivers/lvgl/src/draw/sw/blend/lv_draw_sw_blend_to_i1.c ****             for(dest_x = 0, src_x = 0; src_x < w; dest_x++, src_x++) {
 5665              		.loc 1 485 28 is_stmt 1 discriminator 2 view .LVU1844
 5666 041e 0CF1010C 		add	ip, ip, #1
 5667              	.LVL597:
 5668              	.L255:
 485:Drivers/lvgl/src/draw/sw/blend/lv_draw_sw_blend_to_i1.c ****             for(dest_x = 0, src_x = 0; src_x < w; dest_x++, src_x++) {
 5669              		.loc 1 485 22 discriminator 1 view .LVU1845
 5670 0422 029B     		ldr	r3, [sp, #8]
 5671 0424 9C45     		cmp	ip, r3
 5672 0426 10DA     		bge	.L254
 486:Drivers/lvgl/src/draw/sw/blend/lv_draw_sw_blend_to_i1.c ****                 src_argb.red = get_bit(src_buf_i1, src_x) * 255;
 5673              		.loc 1 486 35 is_stmt 0 view .LVU1846
 5674 0428 4FF00009 		mov	r9, #0
 486:Drivers/lvgl/src/draw/sw/blend/lv_draw_sw_blend_to_i1.c ****                 src_argb.red = get_bit(src_buf_i1, src_x) * 255;
 5675              		.loc 1 486 24 view .LVU1847
 5676 042c CA46     		mov	r10, r9
 5677 042e CDF80CC0 		str	ip, [sp, #12]
 5678 0432 DFE7     		b	.L293
 5679              	.LVL598:
ARM GAS  /var/folders/qx/2_175_4n2s19vhvtspjhb3qh0000gn/T//ccaVas4T.s 			page 162


 5680              	.L294:
 485:Drivers/lvgl/src/draw/sw/blend/lv_draw_sw_blend_to_i1.c ****             for(dest_x = 0, src_x = 0; src_x < w; dest_x++, src_x++) {
 5681              		.loc 1 485 15 view .LVU1848
 5682 0434 4FF0000C 		mov	ip, #0
 5683 0438 2A46     		mov	r2, r5
 5684 043a 2546     		mov	r5, r4
 5685              	.LVL599:
 485:Drivers/lvgl/src/draw/sw/blend/lv_draw_sw_blend_to_i1.c ****             for(dest_x = 0, src_x = 0; src_x < w; dest_x++, src_x++) {
 5686              		.loc 1 485 15 view .LVU1849
 5687 043c 3446     		mov	r4, r6
 5688              	.LVL600:
 485:Drivers/lvgl/src/draw/sw/blend/lv_draw_sw_blend_to_i1.c ****             for(dest_x = 0, src_x = 0; src_x < w; dest_x++, src_x++) {
 5689              		.loc 1 485 15 view .LVU1850
 5690 043e 0593     		str	r3, [sp, #20]
 5691 0440 CDF818E0 		str	lr, [sp, #24]
 5692 0444 0190     		str	r0, [sp, #4]
 5693 0446 1646     		mov	r6, r2
 5694              	.LVL601:
 485:Drivers/lvgl/src/draw/sw/blend/lv_draw_sw_blend_to_i1.c ****             for(dest_x = 0, src_x = 0; src_x < w; dest_x++, src_x++) {
 5695              		.loc 1 485 15 view .LVU1851
 5696 0448 EBE7     		b	.L255
 5697              	.LVL602:
 5698              	.L254:
 485:Drivers/lvgl/src/draw/sw/blend/lv_draw_sw_blend_to_i1.c ****             for(dest_x = 0, src_x = 0; src_x < w; dest_x++, src_x++) {
 5699              		.loc 1 485 15 view .LVU1852
 5700              	.LBE786:
 499:Drivers/lvgl/src/draw/sw/blend/lv_draw_sw_blend_to_i1.c **** 
 5701              		.loc 1 499 1 view .LVU1853
 5702 044a 0BB0     		add	sp, sp, #44
 5703              	.LCFI18:
 5704              		.cfi_def_cfa_offset 36
 5705              		@ sp needed
 5706 044c BDE8F08F 		pop	{r4, r5, r6, r7, r8, r9, r10, fp, pc}
 499:Drivers/lvgl/src/draw/sw/blend/lv_draw_sw_blend_to_i1.c **** 
 5707              		.loc 1 499 1 view .LVU1854
 5708              		.cfi_endproc
 5709              	.LFE183:
 5711              		.section	.text.argb8888_image_blend,"ax",%progbits
 5712              		.align	1
 5713              		.syntax unified
 5714              		.thumb
 5715              		.thumb_func
 5717              	argb8888_image_blend:
 5718              	.LVL603:
 5719              	.LFB186:
 730:Drivers/lvgl/src/draw/sw/blend/lv_draw_sw_blend_to_i1.c ****     int32_t w = dsc->dest_w;
 5720              		.loc 1 730 1 is_stmt 1 view -0
 5721              		.cfi_startproc
 5722              		@ args = 0, pretend = 0, frame = 40
 5723              		@ frame_needed = 0, uses_anonymous_args = 0
 730:Drivers/lvgl/src/draw/sw/blend/lv_draw_sw_blend_to_i1.c ****     int32_t w = dsc->dest_w;
 5724              		.loc 1 730 1 is_stmt 0 view .LVU1856
 5725 0000 2DE9F04F 		push	{r4, r5, r6, r7, r8, r9, r10, fp, lr}
 5726              	.LCFI19:
 5727              		.cfi_def_cfa_offset 36
 5728              		.cfi_offset 4, -36
 5729              		.cfi_offset 5, -32
ARM GAS  /var/folders/qx/2_175_4n2s19vhvtspjhb3qh0000gn/T//ccaVas4T.s 			page 163


 5730              		.cfi_offset 6, -28
 5731              		.cfi_offset 7, -24
 5732              		.cfi_offset 8, -20
 5733              		.cfi_offset 9, -16
 5734              		.cfi_offset 10, -12
 5735              		.cfi_offset 11, -8
 5736              		.cfi_offset 14, -4
 5737 0004 8BB0     		sub	sp, sp, #44
 5738              	.LCFI20:
 5739              		.cfi_def_cfa_offset 80
 731:Drivers/lvgl/src/draw/sw/blend/lv_draw_sw_blend_to_i1.c ****     int32_t h = dsc->dest_h;
 5740              		.loc 1 731 5 is_stmt 1 view .LVU1857
 731:Drivers/lvgl/src/draw/sw/blend/lv_draw_sw_blend_to_i1.c ****     int32_t h = dsc->dest_h;
 5741              		.loc 1 731 13 is_stmt 0 view .LVU1858
 5742 0006 D0F804B0 		ldr	fp, [r0, #4]
 5743              	.LVL604:
 732:Drivers/lvgl/src/draw/sw/blend/lv_draw_sw_blend_to_i1.c ****     lv_opa_t opa = dsc->opa;
 5744              		.loc 1 732 5 is_stmt 1 view .LVU1859
 732:Drivers/lvgl/src/draw/sw/blend/lv_draw_sw_blend_to_i1.c ****     lv_opa_t opa = dsc->opa;
 5745              		.loc 1 732 13 is_stmt 0 view .LVU1860
 5746 000a 8368     		ldr	r3, [r0, #8]
 5747 000c 0193     		str	r3, [sp, #4]
 5748              	.LVL605:
 733:Drivers/lvgl/src/draw/sw/blend/lv_draw_sw_blend_to_i1.c ****     uint8_t * dest_buf_i1 = dsc->dest_buf;
 5749              		.loc 1 733 5 is_stmt 1 view .LVU1861
 733:Drivers/lvgl/src/draw/sw/blend/lv_draw_sw_blend_to_i1.c ****     uint8_t * dest_buf_i1 = dsc->dest_buf;
 5750              		.loc 1 733 14 is_stmt 0 view .LVU1862
 5751 000e 90F821C0 		ldrb	ip, [r0, #33]	@ zero_extendqisi2
 5752              	.LVL606:
 734:Drivers/lvgl/src/draw/sw/blend/lv_draw_sw_blend_to_i1.c ****     int32_t dest_stride = dsc->dest_stride;
 5753              		.loc 1 734 5 is_stmt 1 view .LVU1863
 734:Drivers/lvgl/src/draw/sw/blend/lv_draw_sw_blend_to_i1.c ****     int32_t dest_stride = dsc->dest_stride;
 5754              		.loc 1 734 15 is_stmt 0 view .LVU1864
 5755 0012 0468     		ldr	r4, [r0]
 5756              	.LVL607:
 735:Drivers/lvgl/src/draw/sw/blend/lv_draw_sw_blend_to_i1.c ****     const lv_color32_t * src_buf_c32 = dsc->src_buf;
 5757              		.loc 1 735 5 is_stmt 1 view .LVU1865
 735:Drivers/lvgl/src/draw/sw/blend/lv_draw_sw_blend_to_i1.c ****     const lv_color32_t * src_buf_c32 = dsc->src_buf;
 5758              		.loc 1 735 13 is_stmt 0 view .LVU1866
 5759 0014 C368     		ldr	r3, [r0, #12]
 5760              	.LVL608:
 735:Drivers/lvgl/src/draw/sw/blend/lv_draw_sw_blend_to_i1.c ****     const lv_color32_t * src_buf_c32 = dsc->src_buf;
 5761              		.loc 1 735 13 view .LVU1867
 5762 0016 0393     		str	r3, [sp, #12]
 5763              	.LVL609:
 736:Drivers/lvgl/src/draw/sw/blend/lv_draw_sw_blend_to_i1.c ****     int32_t src_stride = dsc->src_stride;
 5764              		.loc 1 736 5 is_stmt 1 view .LVU1868
 736:Drivers/lvgl/src/draw/sw/blend/lv_draw_sw_blend_to_i1.c ****     int32_t src_stride = dsc->src_stride;
 5765              		.loc 1 736 26 is_stmt 0 view .LVU1869
 5766 0018 8669     		ldr	r6, [r0, #24]
 5767              	.LVL610:
 737:Drivers/lvgl/src/draw/sw/blend/lv_draw_sw_blend_to_i1.c ****     const lv_opa_t * mask_buf = dsc->mask_buf;
 5768              		.loc 1 737 5 is_stmt 1 view .LVU1870
 737:Drivers/lvgl/src/draw/sw/blend/lv_draw_sw_blend_to_i1.c ****     const lv_opa_t * mask_buf = dsc->mask_buf;
 5769              		.loc 1 737 13 is_stmt 0 view .LVU1871
 5770 001a C369     		ldr	r3, [r0, #28]
 5771              	.LVL611:
ARM GAS  /var/folders/qx/2_175_4n2s19vhvtspjhb3qh0000gn/T//ccaVas4T.s 			page 164


 737:Drivers/lvgl/src/draw/sw/blend/lv_draw_sw_blend_to_i1.c ****     const lv_opa_t * mask_buf = dsc->mask_buf;
 5772              		.loc 1 737 13 view .LVU1872
 5773 001c 0493     		str	r3, [sp, #16]
 5774              	.LVL612:
 738:Drivers/lvgl/src/draw/sw/blend/lv_draw_sw_blend_to_i1.c ****     int32_t mask_stride = dsc->mask_stride;
 5775              		.loc 1 738 5 is_stmt 1 view .LVU1873
 738:Drivers/lvgl/src/draw/sw/blend/lv_draw_sw_blend_to_i1.c ****     int32_t mask_stride = dsc->mask_stride;
 5776              		.loc 1 738 22 is_stmt 0 view .LVU1874
 5777 001e 0769     		ldr	r7, [r0, #16]
 5778              	.LVL613:
 739:Drivers/lvgl/src/draw/sw/blend/lv_draw_sw_blend_to_i1.c **** 
 5779              		.loc 1 739 5 is_stmt 1 view .LVU1875
 739:Drivers/lvgl/src/draw/sw/blend/lv_draw_sw_blend_to_i1.c **** 
 5780              		.loc 1 739 13 is_stmt 0 view .LVU1876
 5781 0020 4369     		ldr	r3, [r0, #20]
 5782              	.LVL614:
 741:Drivers/lvgl/src/draw/sw/blend/lv_draw_sw_blend_to_i1.c ****     int32_t y;
 5783              		.loc 1 741 5 is_stmt 1 view .LVU1877
 742:Drivers/lvgl/src/draw/sw/blend/lv_draw_sw_blend_to_i1.c **** 
 5784              		.loc 1 742 5 view .LVU1878
 744:Drivers/lvgl/src/draw/sw/blend/lv_draw_sw_blend_to_i1.c **** 
 5785              		.loc 1 744 5 view .LVU1879
 744:Drivers/lvgl/src/draw/sw/blend/lv_draw_sw_blend_to_i1.c **** 
 5786              		.loc 1 744 41 is_stmt 0 view .LVU1880
 5787 0022 416A     		ldr	r1, [r0, #36]
 744:Drivers/lvgl/src/draw/sw/blend/lv_draw_sw_blend_to_i1.c **** 
 5788              		.loc 1 744 13 view .LVU1881
 5789 0024 4A42     		rsbs	r2, r1, #0
 5790 0026 01F0070A 		and	r10, r1, #7
 5791 002a 02F00702 		and	r2, r2, #7
 5792 002e 58BF     		it	pl
 5793 0030 C2F1000A 		rsbpl	r10, r2, #0
 5794              	.LVL615:
 746:Drivers/lvgl/src/draw/sw/blend/lv_draw_sw_blend_to_i1.c ****         if(mask_buf == NULL && opa >= LV_OPA_MAX) {
 5795              		.loc 1 746 5 is_stmt 1 view .LVU1882
 746:Drivers/lvgl/src/draw/sw/blend/lv_draw_sw_blend_to_i1.c ****         if(mask_buf == NULL && opa >= LV_OPA_MAX) {
 5796              		.loc 1 746 11 is_stmt 0 view .LVU1883
 5797 0034 90F82220 		ldrb	r2, [r0, #34]	@ zero_extendqisi2
 746:Drivers/lvgl/src/draw/sw/blend/lv_draw_sw_blend_to_i1.c ****         if(mask_buf == NULL && opa >= LV_OPA_MAX) {
 5798              		.loc 1 746 7 view .LVU1884
 5799 0038 002A     		cmp	r2, #0
 5800 003a 40F0A381 		bne	.L356
 747:Drivers/lvgl/src/draw/sw/blend/lv_draw_sw_blend_to_i1.c ****             if(LV_RESULT_INVALID == LV_DRAW_SW_ARGB8888_BLEND_NORMAL_TO_I1(dsc)) {
 5801              		.loc 1 747 9 is_stmt 1 view .LVU1885
 747:Drivers/lvgl/src/draw/sw/blend/lv_draw_sw_blend_to_i1.c ****             if(LV_RESULT_INVALID == LV_DRAW_SW_ARGB8888_BLEND_NORMAL_TO_I1(dsc)) {
 5802              		.loc 1 747 11 is_stmt 0 view .LVU1886
 5803 003e B7B1     		cbz	r7, .L367
 785:Drivers/lvgl/src/draw/sw/blend/lv_draw_sw_blend_to_i1.c ****             if(LV_RESULT_INVALID == LV_DRAW_SW_ARGB8888_BLEND_NORMAL_TO_I1_WITH_MASK(dsc)) {
 5804              		.loc 1 785 14 is_stmt 1 view .LVU1887
 785:Drivers/lvgl/src/draw/sw/blend/lv_draw_sw_blend_to_i1.c ****             if(LV_RESULT_INVALID == LV_DRAW_SW_ARGB8888_BLEND_NORMAL_TO_I1_WITH_MASK(dsc)) {
 5805              		.loc 1 785 16 is_stmt 0 view .LVU1888
 5806 0040 002F     		cmp	r7, #0
 5807 0042 00F0AB81 		beq	.L322
 785:Drivers/lvgl/src/draw/sw/blend/lv_draw_sw_blend_to_i1.c ****             if(LV_RESULT_INVALID == LV_DRAW_SW_ARGB8888_BLEND_NORMAL_TO_I1_WITH_MASK(dsc)) {
 5808              		.loc 1 785 26 discriminator 1 view .LVU1889
 5809 0046 BCF1FC0F 		cmp	ip, #252
 5810 004a 00F20F81 		bhi	.L360
ARM GAS  /var/folders/qx/2_175_4n2s19vhvtspjhb3qh0000gn/T//ccaVas4T.s 			page 165


 805:Drivers/lvgl/src/draw/sw/blend/lv_draw_sw_blend_to_i1.c ****             if(LV_RESULT_INVALID == LV_DRAW_SW_ARGB8888_BLEND_NORMAL_TO_I1_MIX_MASK_OPA(dsc)) {
 5811              		.loc 1 805 14 is_stmt 1 view .LVU1890
 805:Drivers/lvgl/src/draw/sw/blend/lv_draw_sw_blend_to_i1.c ****             if(LV_RESULT_INVALID == LV_DRAW_SW_ARGB8888_BLEND_NORMAL_TO_I1_MIX_MASK_OPA(dsc)) {
 5812              		.loc 1 805 16 is_stmt 0 view .LVU1891
 5813 004e 002F     		cmp	r7, #0
 5814 0050 00F0A481 		beq	.L322
 807:Drivers/lvgl/src/draw/sw/blend/lv_draw_sw_blend_to_i1.c ****                     for(x = 0; x < w; x++) {
 5815              		.loc 1 807 23 view .LVU1892
 5816 0054 0025     		movs	r5, #0
 5817 0056 CDF800B0 		str	fp, [sp]
 5818 005a BB46     		mov	fp, r7
 5819              	.LVL616:
 807:Drivers/lvgl/src/draw/sw/blend/lv_draw_sw_blend_to_i1.c ****                     for(x = 0; x < w; x++) {
 5820              		.loc 1 807 23 view .LVU1893
 5821 005c CDF808C0 		str	ip, [sp, #8]
 5822 0060 0793     		str	r3, [sp, #28]
 5823 0062 CDF814A0 		str	r10, [sp, #20]
 5824 0066 B246     		mov	r10, r6
 5825              	.LVL617:
 807:Drivers/lvgl/src/draw/sw/blend/lv_draw_sw_blend_to_i1.c ****                     for(x = 0; x < w; x++) {
 5826              		.loc 1 807 23 view .LVU1894
 5827 0068 2646     		mov	r6, r4
 5828              	.LVL618:
 807:Drivers/lvgl/src/draw/sw/blend/lv_draw_sw_blend_to_i1.c ****                     for(x = 0; x < w; x++) {
 5829              		.loc 1 807 23 view .LVU1895
 5830 006a 2C46     		mov	r4, r5
 5831              	.LVL619:
 807:Drivers/lvgl/src/draw/sw/blend/lv_draw_sw_blend_to_i1.c ****                     for(x = 0; x < w; x++) {
 5832              		.loc 1 807 23 view .LVU1896
 5833 006c 50E1     		b	.L345
 5834              	.LVL620:
 5835              	.L367:
 747:Drivers/lvgl/src/draw/sw/blend/lv_draw_sw_blend_to_i1.c ****             if(LV_RESULT_INVALID == LV_DRAW_SW_ARGB8888_BLEND_NORMAL_TO_I1(dsc)) {
 5836              		.loc 1 747 29 discriminator 1 view .LVU1897
 5837 006e BCF1FC0F 		cmp	ip, #252
 5838 0072 55D8     		bhi	.L357
 768:Drivers/lvgl/src/draw/sw/blend/lv_draw_sw_blend_to_i1.c ****                     for(x = 0; x < w; x++) {
 5839              		.loc 1 768 23 view .LVU1898
 5840 0074 4FF00009 		mov	r9, #0
 5841 0078 3346     		mov	r3, r6
 5842              	.LVL621:
 768:Drivers/lvgl/src/draw/sw/blend/lv_draw_sw_blend_to_i1.c ****                     for(x = 0; x < w; x++) {
 5843              		.loc 1 768 23 view .LVU1899
 5844 007a 2646     		mov	r6, r4
 5845              	.LVL622:
 768:Drivers/lvgl/src/draw/sw/blend/lv_draw_sw_blend_to_i1.c ****                     for(x = 0; x < w; x++) {
 5846              		.loc 1 768 23 view .LVU1900
 5847 007c C846     		mov	r8, r9
 5848 007e CDF800C0 		str	ip, [sp]
 5849 0082 1C46     		mov	r4, r3
 5850              	.LVL623:
 768:Drivers/lvgl/src/draw/sw/blend/lv_draw_sw_blend_to_i1.c ****                     for(x = 0; x < w; x++) {
 5851              		.loc 1 768 23 view .LVU1901
 5852 0084 9CE0     		b	.L326
 5853              	.LVL624:
 5854              	.L369:
 5855              	.LBB795:
ARM GAS  /var/folders/qx/2_175_4n2s19vhvtspjhb3qh0000gn/T//ccaVas4T.s 			page 166


 5856              	.LBB796:
 5857              	.LBB797:
1273:Drivers/lvgl/src/draw/sw/blend/lv_draw_sw_blend_to_i1.c **** }
 5858              		.loc 1 1273 25 view .LVU1902
 5859 0086 05F10708 		add	r8, r5, #7
 5860 008a 16E0     		b	.L327
 5861              	.LVL625:
 5862              	.L328:
1273:Drivers/lvgl/src/draw/sw/blend/lv_draw_sw_blend_to_i1.c **** }
 5863              		.loc 1 1273 25 view .LVU1903
 5864              	.LBE797:
 5865              	.LBE796:
 758:Drivers/lvgl/src/draw/sw/blend/lv_draw_sw_blend_to_i1.c ****                         }
 5866              		.loc 1 758 29 is_stmt 1 view .LVU1904
 5867              	.LBB799:
 5868              	.LBI799:
1266:Drivers/lvgl/src/draw/sw/blend/lv_draw_sw_blend_to_i1.c **** {
 5869              		.loc 1 1266 42 view .LVU1905
 5870              	.LBB800:
1268:Drivers/lvgl/src/draw/sw/blend/lv_draw_sw_blend_to_i1.c **** }
 5871              		.loc 1 1268 5 view .LVU1906
1268:Drivers/lvgl/src/draw/sw/blend/lv_draw_sw_blend_to_i1.c **** }
 5872              		.loc 1 1268 8 is_stmt 0 view .LVU1907
 5873 008c 16F80820 		ldrb	r2, [r6, r8]	@ zero_extendqisi2
1268:Drivers/lvgl/src/draw/sw/blend/lv_draw_sw_blend_to_i1.c **** }
 5874              		.loc 1 1268 29 view .LVU1908
 5875 0090 0123     		movs	r3, #1
 5876 0092 AB40     		lsls	r3, r3, r5
1268:Drivers/lvgl/src/draw/sw/blend/lv_draw_sw_blend_to_i1.c **** }
 5877              		.loc 1 1268 22 view .LVU1909
 5878 0094 DB43     		mvns	r3, r3
 5879 0096 5BB2     		sxtb	r3, r3
 5880 0098 1340     		ands	r3, r3, r2
 5881 009a 06F80830 		strb	r3, [r6, r8]
 5882              	.LVL626:
 5883              	.L329:
1268:Drivers/lvgl/src/draw/sw/blend/lv_draw_sw_blend_to_i1.c **** }
 5884              		.loc 1 1268 22 view .LVU1910
 5885              	.LBE800:
 5886              	.LBE799:
 5887              	.LBE795:
 750:Drivers/lvgl/src/draw/sw/blend/lv_draw_sw_blend_to_i1.c ****                         uint8_t src = lv_color32_luminance(src_buf_c32[x]);
 5888              		.loc 1 750 40 is_stmt 1 discriminator 2 view .LVU1911
 5889 009e 0137     		adds	r7, r7, #1
 5890              	.LVL627:
 5891              	.L331:
 750:Drivers/lvgl/src/draw/sw/blend/lv_draw_sw_blend_to_i1.c ****                         uint8_t src = lv_color32_luminance(src_buf_c32[x]);
 5892              		.loc 1 750 34 discriminator 1 view .LVU1912
 5893 00a0 5F45     		cmp	r7, fp
 5894 00a2 2DDA     		bge	.L368
 5895              	.LBB804:
 751:Drivers/lvgl/src/draw/sw/blend/lv_draw_sw_blend_to_i1.c ****                         uint8_t dest = get_bit(dest_buf_i1, x + bit_ofs) * 255;
 5896              		.loc 1 751 25 view .LVU1913
 751:Drivers/lvgl/src/draw/sw/blend/lv_draw_sw_blend_to_i1.c ****                         uint8_t dest = get_bit(dest_buf_i1, x + bit_ofs) * 255;
 5897              		.loc 1 751 71 is_stmt 0 view .LVU1914
 5898 00a4 04EB8709 		add	r9, r4, r7, lsl #2
 751:Drivers/lvgl/src/draw/sw/blend/lv_draw_sw_blend_to_i1.c ****                         uint8_t dest = get_bit(dest_buf_i1, x + bit_ofs) * 255;
ARM GAS  /var/folders/qx/2_175_4n2s19vhvtspjhb3qh0000gn/T//ccaVas4T.s 			page 167


 5899              		.loc 1 751 39 view .LVU1915
 5900 00a8 54F82700 		ldr	r0, [r4, r7, lsl #2]	@ unaligned
 5901 00ac FFF7FEFF 		bl	lv_color32_luminance
 5902              	.LVL628:
 752:Drivers/lvgl/src/draw/sw/blend/lv_draw_sw_blend_to_i1.c ****                         lv_color_8_8_mix(src, &dest, src_buf_c32[x].alpha);
 5903              		.loc 1 752 25 is_stmt 1 view .LVU1916
 752:Drivers/lvgl/src/draw/sw/blend/lv_draw_sw_blend_to_i1.c ****                         lv_color_8_8_mix(src, &dest, src_buf_c32[x].alpha);
 5904              		.loc 1 752 40 is_stmt 0 view .LVU1917
 5905 00b0 07EB0A05 		add	r5, r7, r10
 5906              	.LVL629:
 5907              	.LBB801:
 5908              	.LBI796:
1271:Drivers/lvgl/src/draw/sw/blend/lv_draw_sw_blend_to_i1.c **** {
 5909              		.loc 1 1271 45 is_stmt 1 view .LVU1918
 5910              	.LBB798:
1273:Drivers/lvgl/src/draw/sw/blend/lv_draw_sw_blend_to_i1.c **** }
 5911              		.loc 1 1273 5 view .LVU1919
1273:Drivers/lvgl/src/draw/sw/blend/lv_draw_sw_blend_to_i1.c **** }
 5912              		.loc 1 1273 25 is_stmt 0 view .LVU1920
 5913 00b4 A846     		mov	r8, r5
 5914 00b6 002D     		cmp	r5, #0
 5915 00b8 E5DB     		blt	.L369
 5916              	.L327:
1273:Drivers/lvgl/src/draw/sw/blend/lv_draw_sw_blend_to_i1.c **** }
 5917              		.loc 1 1273 25 view .LVU1921
 5918 00ba 4FEAE808 		asr	r8, r8, #3
1273:Drivers/lvgl/src/draw/sw/blend/lv_draw_sw_blend_to_i1.c **** }
 5919              		.loc 1 1273 16 view .LVU1922
 5920 00be 16F80830 		ldrb	r3, [r6, r8]	@ zero_extendqisi2
1273:Drivers/lvgl/src/draw/sw/blend/lv_draw_sw_blend_to_i1.c **** }
 5921              		.loc 1 1273 47 view .LVU1923
 5922 00c2 6A42     		rsbs	r2, r5, #0
 5923 00c4 05F00705 		and	r5, r5, #7
 5924              	.LVL630:
1273:Drivers/lvgl/src/draw/sw/blend/lv_draw_sw_blend_to_i1.c **** }
 5925              		.loc 1 1273 47 view .LVU1924
 5926 00c8 02F00702 		and	r2, r2, #7
 5927 00cc 58BF     		it	pl
 5928 00ce 5542     		rsbpl	r5, r2, #0
1273:Drivers/lvgl/src/draw/sw/blend/lv_draw_sw_blend_to_i1.c **** }
 5929              		.loc 1 1273 36 view .LVU1925
 5930 00d0 C5F10705 		rsb	r5, r5, #7
1273:Drivers/lvgl/src/draw/sw/blend/lv_draw_sw_blend_to_i1.c **** }
 5931              		.loc 1 1273 30 view .LVU1926
 5932 00d4 2B41     		asrs	r3, r3, r5
 5933              	.LVL631:
1273:Drivers/lvgl/src/draw/sw/blend/lv_draw_sw_blend_to_i1.c **** }
 5934              		.loc 1 1273 30 view .LVU1927
 5935              	.LBE798:
 5936              	.LBE801:
 752:Drivers/lvgl/src/draw/sw/blend/lv_draw_sw_blend_to_i1.c ****                         lv_color_8_8_mix(src, &dest, src_buf_c32[x].alpha);
 5937              		.loc 1 752 33 discriminator 1 view .LVU1928
 5938 00d6 43F30003 		sbfx	r3, r3, #0, #1
 5939 00da 8DF82430 		strb	r3, [sp, #36]
 753:Drivers/lvgl/src/draw/sw/blend/lv_draw_sw_blend_to_i1.c ****                         if(dest > I1_LUM_THRESHOLD) {
 5940              		.loc 1 753 25 is_stmt 1 view .LVU1929
 5941 00de 99F80320 		ldrb	r2, [r9, #3]	@ zero_extendqisi2
ARM GAS  /var/folders/qx/2_175_4n2s19vhvtspjhb3qh0000gn/T//ccaVas4T.s 			page 168


 5942 00e2 09A9     		add	r1, sp, #36
 5943 00e4 FFF7FEFF 		bl	lv_color_8_8_mix
 5944              	.LVL632:
 754:Drivers/lvgl/src/draw/sw/blend/lv_draw_sw_blend_to_i1.c ****                             set_bit(dest_buf_i1, x + bit_ofs);
 5945              		.loc 1 754 25 view .LVU1930
 754:Drivers/lvgl/src/draw/sw/blend/lv_draw_sw_blend_to_i1.c ****                             set_bit(dest_buf_i1, x + bit_ofs);
 5946              		.loc 1 754 33 is_stmt 0 view .LVU1931
 5947 00e8 9DF92430 		ldrsb	r3, [sp, #36]
 754:Drivers/lvgl/src/draw/sw/blend/lv_draw_sw_blend_to_i1.c ****                             set_bit(dest_buf_i1, x + bit_ofs);
 5948              		.loc 1 754 27 view .LVU1932
 5949 00ec 002B     		cmp	r3, #0
 5950 00ee CDDA     		bge	.L328
 755:Drivers/lvgl/src/draw/sw/blend/lv_draw_sw_blend_to_i1.c ****                         }
 5951              		.loc 1 755 29 is_stmt 1 view .LVU1933
 5952              	.LVL633:
 5953              	.LBB802:
 5954              	.LBI802:
1261:Drivers/lvgl/src/draw/sw/blend/lv_draw_sw_blend_to_i1.c **** {
 5955              		.loc 1 1261 42 view .LVU1934
 5956              	.LBB803:
1263:Drivers/lvgl/src/draw/sw/blend/lv_draw_sw_blend_to_i1.c **** }
 5957              		.loc 1 1263 5 view .LVU1935
1263:Drivers/lvgl/src/draw/sw/blend/lv_draw_sw_blend_to_i1.c **** }
 5958              		.loc 1 1263 8 is_stmt 0 view .LVU1936
 5959 00f0 16F80830 		ldrb	r3, [r6, r8]	@ zero_extendqisi2
1263:Drivers/lvgl/src/draw/sw/blend/lv_draw_sw_blend_to_i1.c **** }
 5960              		.loc 1 1263 28 view .LVU1937
 5961 00f4 0122     		movs	r2, #1
 5962 00f6 AA40     		lsls	r2, r2, r5
1263:Drivers/lvgl/src/draw/sw/blend/lv_draw_sw_blend_to_i1.c **** }
 5963              		.loc 1 1263 22 view .LVU1938
 5964 00f8 1343     		orrs	r3, r3, r2
 5965 00fa 06F80830 		strb	r3, [r6, r8]
 5966              	.LVL634:
1264:Drivers/lvgl/src/draw/sw/blend/lv_draw_sw_blend_to_i1.c **** 
 5967              		.loc 1 1264 1 view .LVU1939
 5968 00fe CEE7     		b	.L329
 5969              	.LVL635:
 5970              	.L368:
1264:Drivers/lvgl/src/draw/sw/blend/lv_draw_sw_blend_to_i1.c **** 
 5971              		.loc 1 1264 1 view .LVU1940
 5972              	.LBE803:
 5973              	.LBE802:
 5974              	.LBE804:
 5975              	.LBB805:
 5976              	.LBB806:
1258:Drivers/lvgl/src/draw/sw/blend/lv_draw_sw_blend_to_i1.c **** }
 5977              		.loc 1 1258 12 view .LVU1941
 5978 0100 DDF80080 		ldr	r8, [sp]
 5979              	.LBE806:
 5980              	.LBE805:
 761:Drivers/lvgl/src/draw/sw/blend/lv_draw_sw_blend_to_i1.c ****                     src_buf_c32 = drawbuf_next_row(src_buf_c32, src_stride);
 5981              		.loc 1 761 21 is_stmt 1 view .LVU1942
 5982              	.LVL636:
 5983              	.LBB808:
 5984              	.LBI805:
1256:Drivers/lvgl/src/draw/sw/blend/lv_draw_sw_blend_to_i1.c **** {
ARM GAS  /var/folders/qx/2_175_4n2s19vhvtspjhb3qh0000gn/T//ccaVas4T.s 			page 169


 5985              		.loc 1 1256 44 view .LVU1943
 5986              	.LBB807:
1258:Drivers/lvgl/src/draw/sw/blend/lv_draw_sw_blend_to_i1.c **** }
 5987              		.loc 1 1258 5 view .LVU1944
1258:Drivers/lvgl/src/draw/sw/blend/lv_draw_sw_blend_to_i1.c **** }
 5988              		.loc 1 1258 12 is_stmt 0 view .LVU1945
 5989 0104 039B     		ldr	r3, [sp, #12]
 5990 0106 1E44     		add	r6, r6, r3
 5991              	.LVL637:
1258:Drivers/lvgl/src/draw/sw/blend/lv_draw_sw_blend_to_i1.c **** }
 5992              		.loc 1 1258 12 view .LVU1946
 5993              	.LBE807:
 5994              	.LBE808:
 762:Drivers/lvgl/src/draw/sw/blend/lv_draw_sw_blend_to_i1.c ****                 }
 5995              		.loc 1 762 21 is_stmt 1 view .LVU1947
 5996              	.LBB809:
 5997              	.LBI809:
1256:Drivers/lvgl/src/draw/sw/blend/lv_draw_sw_blend_to_i1.c **** {
 5998              		.loc 1 1256 44 view .LVU1948
 5999              	.LBB810:
1258:Drivers/lvgl/src/draw/sw/blend/lv_draw_sw_blend_to_i1.c **** }
 6000              		.loc 1 1258 5 view .LVU1949
1258:Drivers/lvgl/src/draw/sw/blend/lv_draw_sw_blend_to_i1.c **** }
 6001              		.loc 1 1258 12 is_stmt 0 view .LVU1950
 6002 0108 049B     		ldr	r3, [sp, #16]
 6003 010a 1C44     		add	r4, r4, r3
 6004              	.LVL638:
1258:Drivers/lvgl/src/draw/sw/blend/lv_draw_sw_blend_to_i1.c **** }
 6005              		.loc 1 1258 12 view .LVU1951
 6006              	.LBE810:
 6007              	.LBE809:
 749:Drivers/lvgl/src/draw/sw/blend/lv_draw_sw_blend_to_i1.c ****                     for(x = 0; x < w; x++) {
 6008              		.loc 1 749 36 is_stmt 1 discriminator 2 view .LVU1952
 6009 010c 08F10108 		add	r8, r8, #1
 6010              	.LVL639:
 6011              	.L325:
 749:Drivers/lvgl/src/draw/sw/blend/lv_draw_sw_blend_to_i1.c ****                     for(x = 0; x < w; x++) {
 6012              		.loc 1 749 30 discriminator 1 view .LVU1953
 6013 0110 019B     		ldr	r3, [sp, #4]
 6014 0112 9845     		cmp	r8, r3
 6015 0114 80F24281 		bge	.L322
 750:Drivers/lvgl/src/draw/sw/blend/lv_draw_sw_blend_to_i1.c ****                         uint8_t src = lv_color32_luminance(src_buf_c32[x]);
 6016              		.loc 1 750 27 is_stmt 0 view .LVU1954
 6017 0118 0027     		movs	r7, #0
 6018 011a CDF80080 		str	r8, [sp]
 6019 011e BFE7     		b	.L331
 6020              	.LVL640:
 6021              	.L357:
 749:Drivers/lvgl/src/draw/sw/blend/lv_draw_sw_blend_to_i1.c ****                     for(x = 0; x < w; x++) {
 6022              		.loc 1 749 23 view .LVU1955
 6023 0120 4FF00009 		mov	r9, #0
 6024 0124 3346     		mov	r3, r6
 6025              	.LVL641:
 749:Drivers/lvgl/src/draw/sw/blend/lv_draw_sw_blend_to_i1.c ****                     for(x = 0; x < w; x++) {
 6026              		.loc 1 749 23 view .LVU1956
 6027 0126 2646     		mov	r6, r4
 6028              	.LVL642:
ARM GAS  /var/folders/qx/2_175_4n2s19vhvtspjhb3qh0000gn/T//ccaVas4T.s 			page 170


 749:Drivers/lvgl/src/draw/sw/blend/lv_draw_sw_blend_to_i1.c ****                     for(x = 0; x < w; x++) {
 6029              		.loc 1 749 23 view .LVU1957
 6030 0128 C846     		mov	r8, r9
 6031 012a 1C46     		mov	r4, r3
 6032              	.LVL643:
 749:Drivers/lvgl/src/draw/sw/blend/lv_draw_sw_blend_to_i1.c ****                     for(x = 0; x < w; x++) {
 6033              		.loc 1 749 23 view .LVU1958
 6034 012c F0E7     		b	.L325
 6035              	.LVL644:
 6036              	.L371:
 6037              	.LBB811:
 6038              	.LBB812:
 6039              	.LBB813:
1273:Drivers/lvgl/src/draw/sw/blend/lv_draw_sw_blend_to_i1.c **** }
 6040              		.loc 1 1273 25 view .LVU1959
 6041 012e 05F10708 		add	r8, r5, #7
 6042 0132 16E0     		b	.L333
 6043              	.LVL645:
 6044              	.L334:
1273:Drivers/lvgl/src/draw/sw/blend/lv_draw_sw_blend_to_i1.c **** }
 6045              		.loc 1 1273 25 view .LVU1960
 6046              	.LBE813:
 6047              	.LBE812:
 777:Drivers/lvgl/src/draw/sw/blend/lv_draw_sw_blend_to_i1.c ****                         }
 6048              		.loc 1 777 29 is_stmt 1 view .LVU1961
 6049              	.LBB815:
 6050              	.LBI815:
1266:Drivers/lvgl/src/draw/sw/blend/lv_draw_sw_blend_to_i1.c **** {
 6051              		.loc 1 1266 42 view .LVU1962
 6052              	.LBB816:
1268:Drivers/lvgl/src/draw/sw/blend/lv_draw_sw_blend_to_i1.c **** }
 6053              		.loc 1 1268 5 view .LVU1963
1268:Drivers/lvgl/src/draw/sw/blend/lv_draw_sw_blend_to_i1.c **** }
 6054              		.loc 1 1268 8 is_stmt 0 view .LVU1964
 6055 0134 16F80820 		ldrb	r2, [r6, r8]	@ zero_extendqisi2
1268:Drivers/lvgl/src/draw/sw/blend/lv_draw_sw_blend_to_i1.c **** }
 6056              		.loc 1 1268 29 view .LVU1965
 6057 0138 0123     		movs	r3, #1
 6058 013a AB40     		lsls	r3, r3, r5
1268:Drivers/lvgl/src/draw/sw/blend/lv_draw_sw_blend_to_i1.c **** }
 6059              		.loc 1 1268 22 view .LVU1966
 6060 013c DB43     		mvns	r3, r3
 6061 013e 5BB2     		sxtb	r3, r3
 6062 0140 1340     		ands	r3, r3, r2
 6063 0142 06F80830 		strb	r3, [r6, r8]
 6064              	.LVL646:
 6065              	.L335:
1268:Drivers/lvgl/src/draw/sw/blend/lv_draw_sw_blend_to_i1.c **** }
 6066              		.loc 1 1268 22 view .LVU1967
 6067              	.LBE816:
 6068              	.LBE815:
 6069              	.LBE811:
 769:Drivers/lvgl/src/draw/sw/blend/lv_draw_sw_blend_to_i1.c ****                         uint8_t src = lv_color32_luminance(src_buf_c32[x]);
 6070              		.loc 1 769 40 is_stmt 1 discriminator 2 view .LVU1968
 6071 0146 0137     		adds	r7, r7, #1
 6072              	.LVL647:
 6073              	.L337:
ARM GAS  /var/folders/qx/2_175_4n2s19vhvtspjhb3qh0000gn/T//ccaVas4T.s 			page 171


 769:Drivers/lvgl/src/draw/sw/blend/lv_draw_sw_blend_to_i1.c ****                         uint8_t src = lv_color32_luminance(src_buf_c32[x]);
 6074              		.loc 1 769 34 discriminator 1 view .LVU1969
 6075 0148 5F45     		cmp	r7, fp
 6076 014a 31DA     		bge	.L370
 6077              	.LBB820:
 770:Drivers/lvgl/src/draw/sw/blend/lv_draw_sw_blend_to_i1.c ****                         uint8_t dest = get_bit(dest_buf_i1, x + bit_ofs) * 255;
 6078              		.loc 1 770 25 view .LVU1970
 770:Drivers/lvgl/src/draw/sw/blend/lv_draw_sw_blend_to_i1.c ****                         uint8_t dest = get_bit(dest_buf_i1, x + bit_ofs) * 255;
 6079              		.loc 1 770 71 is_stmt 0 view .LVU1971
 6080 014c 04EB8709 		add	r9, r4, r7, lsl #2
 770:Drivers/lvgl/src/draw/sw/blend/lv_draw_sw_blend_to_i1.c ****                         uint8_t dest = get_bit(dest_buf_i1, x + bit_ofs) * 255;
 6081              		.loc 1 770 39 view .LVU1972
 6082 0150 54F82700 		ldr	r0, [r4, r7, lsl #2]	@ unaligned
 6083 0154 FFF7FEFF 		bl	lv_color32_luminance
 6084              	.LVL648:
 771:Drivers/lvgl/src/draw/sw/blend/lv_draw_sw_blend_to_i1.c ****                         lv_color_8_8_mix(src, &dest, LV_OPA_MIX2(opa, src_buf_c32[x].alpha));
 6085              		.loc 1 771 25 is_stmt 1 view .LVU1973
 771:Drivers/lvgl/src/draw/sw/blend/lv_draw_sw_blend_to_i1.c ****                         lv_color_8_8_mix(src, &dest, LV_OPA_MIX2(opa, src_buf_c32[x].alpha));
 6086              		.loc 1 771 40 is_stmt 0 view .LVU1974
 6087 0158 07EB0A05 		add	r5, r7, r10
 6088              	.LVL649:
 6089              	.LBB817:
 6090              	.LBI812:
1271:Drivers/lvgl/src/draw/sw/blend/lv_draw_sw_blend_to_i1.c **** {
 6091              		.loc 1 1271 45 is_stmt 1 view .LVU1975
 6092              	.LBB814:
1273:Drivers/lvgl/src/draw/sw/blend/lv_draw_sw_blend_to_i1.c **** }
 6093              		.loc 1 1273 5 view .LVU1976
1273:Drivers/lvgl/src/draw/sw/blend/lv_draw_sw_blend_to_i1.c **** }
 6094              		.loc 1 1273 25 is_stmt 0 view .LVU1977
 6095 015c A846     		mov	r8, r5
 6096 015e 002D     		cmp	r5, #0
 6097 0160 E5DB     		blt	.L371
 6098              	.L333:
1273:Drivers/lvgl/src/draw/sw/blend/lv_draw_sw_blend_to_i1.c **** }
 6099              		.loc 1 1273 25 view .LVU1978
 6100 0162 4FEAE808 		asr	r8, r8, #3
1273:Drivers/lvgl/src/draw/sw/blend/lv_draw_sw_blend_to_i1.c **** }
 6101              		.loc 1 1273 16 view .LVU1979
 6102 0166 16F80830 		ldrb	r3, [r6, r8]	@ zero_extendqisi2
1273:Drivers/lvgl/src/draw/sw/blend/lv_draw_sw_blend_to_i1.c **** }
 6103              		.loc 1 1273 47 view .LVU1980
 6104 016a 6A42     		rsbs	r2, r5, #0
 6105 016c 05F00705 		and	r5, r5, #7
 6106              	.LVL650:
1273:Drivers/lvgl/src/draw/sw/blend/lv_draw_sw_blend_to_i1.c **** }
 6107              		.loc 1 1273 47 view .LVU1981
 6108 0170 02F00702 		and	r2, r2, #7
 6109 0174 58BF     		it	pl
 6110 0176 5542     		rsbpl	r5, r2, #0
1273:Drivers/lvgl/src/draw/sw/blend/lv_draw_sw_blend_to_i1.c **** }
 6111              		.loc 1 1273 36 view .LVU1982
 6112 0178 C5F10705 		rsb	r5, r5, #7
1273:Drivers/lvgl/src/draw/sw/blend/lv_draw_sw_blend_to_i1.c **** }
 6113              		.loc 1 1273 30 view .LVU1983
 6114 017c 2B41     		asrs	r3, r3, r5
 6115              	.LVL651:
ARM GAS  /var/folders/qx/2_175_4n2s19vhvtspjhb3qh0000gn/T//ccaVas4T.s 			page 172


1273:Drivers/lvgl/src/draw/sw/blend/lv_draw_sw_blend_to_i1.c **** }
 6116              		.loc 1 1273 30 view .LVU1984
 6117              	.LBE814:
 6118              	.LBE817:
 771:Drivers/lvgl/src/draw/sw/blend/lv_draw_sw_blend_to_i1.c ****                         lv_color_8_8_mix(src, &dest, LV_OPA_MIX2(opa, src_buf_c32[x].alpha));
 6119              		.loc 1 771 33 discriminator 1 view .LVU1985
 6120 017e 43F30003 		sbfx	r3, r3, #0, #1
 6121 0182 8DF82430 		strb	r3, [sp, #36]
 772:Drivers/lvgl/src/draw/sw/blend/lv_draw_sw_blend_to_i1.c ****                         if(dest > I1_LUM_THRESHOLD) {
 6122              		.loc 1 772 25 is_stmt 1 view .LVU1986
 772:Drivers/lvgl/src/draw/sw/blend/lv_draw_sw_blend_to_i1.c ****                         if(dest > I1_LUM_THRESHOLD) {
 6123              		.loc 1 772 54 is_stmt 0 view .LVU1987
 6124 0186 99F80320 		ldrb	r2, [r9, #3]	@ zero_extendqisi2
 6125 018a 009B     		ldr	r3, [sp]
 6126 018c 03FB02F2 		mul	r2, r3, r2
 772:Drivers/lvgl/src/draw/sw/blend/lv_draw_sw_blend_to_i1.c ****                         if(dest > I1_LUM_THRESHOLD) {
 6127              		.loc 1 772 25 view .LVU1988
 6128 0190 120A     		lsrs	r2, r2, #8
 6129 0192 09A9     		add	r1, sp, #36
 6130 0194 FFF7FEFF 		bl	lv_color_8_8_mix
 6131              	.LVL652:
 773:Drivers/lvgl/src/draw/sw/blend/lv_draw_sw_blend_to_i1.c ****                             set_bit(dest_buf_i1, x + bit_ofs);
 6132              		.loc 1 773 25 is_stmt 1 view .LVU1989
 773:Drivers/lvgl/src/draw/sw/blend/lv_draw_sw_blend_to_i1.c ****                             set_bit(dest_buf_i1, x + bit_ofs);
 6133              		.loc 1 773 33 is_stmt 0 view .LVU1990
 6134 0198 9DF92430 		ldrsb	r3, [sp, #36]
 773:Drivers/lvgl/src/draw/sw/blend/lv_draw_sw_blend_to_i1.c ****                             set_bit(dest_buf_i1, x + bit_ofs);
 6135              		.loc 1 773 27 view .LVU1991
 6136 019c 002B     		cmp	r3, #0
 6137 019e C9DA     		bge	.L334
 774:Drivers/lvgl/src/draw/sw/blend/lv_draw_sw_blend_to_i1.c ****                         }
 6138              		.loc 1 774 29 is_stmt 1 view .LVU1992
 6139              	.LVL653:
 6140              	.LBB818:
 6141              	.LBI818:
1261:Drivers/lvgl/src/draw/sw/blend/lv_draw_sw_blend_to_i1.c **** {
 6142              		.loc 1 1261 42 view .LVU1993
 6143              	.LBB819:
1263:Drivers/lvgl/src/draw/sw/blend/lv_draw_sw_blend_to_i1.c **** }
 6144              		.loc 1 1263 5 view .LVU1994
1263:Drivers/lvgl/src/draw/sw/blend/lv_draw_sw_blend_to_i1.c **** }
 6145              		.loc 1 1263 8 is_stmt 0 view .LVU1995
 6146 01a0 16F80830 		ldrb	r3, [r6, r8]	@ zero_extendqisi2
1263:Drivers/lvgl/src/draw/sw/blend/lv_draw_sw_blend_to_i1.c **** }
 6147              		.loc 1 1263 28 view .LVU1996
 6148 01a4 0122     		movs	r2, #1
 6149 01a6 AA40     		lsls	r2, r2, r5
1263:Drivers/lvgl/src/draw/sw/blend/lv_draw_sw_blend_to_i1.c **** }
 6150              		.loc 1 1263 22 view .LVU1997
 6151 01a8 1343     		orrs	r3, r3, r2
 6152 01aa 06F80830 		strb	r3, [r6, r8]
 6153              	.LVL654:
1264:Drivers/lvgl/src/draw/sw/blend/lv_draw_sw_blend_to_i1.c **** 
 6154              		.loc 1 1264 1 view .LVU1998
 6155 01ae CAE7     		b	.L335
 6156              	.LVL655:
 6157              	.L370:
ARM GAS  /var/folders/qx/2_175_4n2s19vhvtspjhb3qh0000gn/T//ccaVas4T.s 			page 173


1264:Drivers/lvgl/src/draw/sw/blend/lv_draw_sw_blend_to_i1.c **** 
 6158              		.loc 1 1264 1 view .LVU1999
 6159              	.LBE819:
 6160              	.LBE818:
 6161              	.LBE820:
 6162              	.LBB821:
 6163              	.LBB822:
1258:Drivers/lvgl/src/draw/sw/blend/lv_draw_sw_blend_to_i1.c **** }
 6164              		.loc 1 1258 12 view .LVU2000
 6165 01b0 DDF80880 		ldr	r8, [sp, #8]
 6166              	.LBE822:
 6167              	.LBE821:
 780:Drivers/lvgl/src/draw/sw/blend/lv_draw_sw_blend_to_i1.c ****                     src_buf_c32 = drawbuf_next_row(src_buf_c32, src_stride);
 6168              		.loc 1 780 21 is_stmt 1 view .LVU2001
 6169              	.LVL656:
 6170              	.LBB824:
 6171              	.LBI821:
1256:Drivers/lvgl/src/draw/sw/blend/lv_draw_sw_blend_to_i1.c **** {
 6172              		.loc 1 1256 44 view .LVU2002
 6173              	.LBB823:
1258:Drivers/lvgl/src/draw/sw/blend/lv_draw_sw_blend_to_i1.c **** }
 6174              		.loc 1 1258 5 view .LVU2003
1258:Drivers/lvgl/src/draw/sw/blend/lv_draw_sw_blend_to_i1.c **** }
 6175              		.loc 1 1258 12 is_stmt 0 view .LVU2004
 6176 01b4 039B     		ldr	r3, [sp, #12]
 6177 01b6 1E44     		add	r6, r6, r3
 6178              	.LVL657:
1258:Drivers/lvgl/src/draw/sw/blend/lv_draw_sw_blend_to_i1.c **** }
 6179              		.loc 1 1258 12 view .LVU2005
 6180              	.LBE823:
 6181              	.LBE824:
 781:Drivers/lvgl/src/draw/sw/blend/lv_draw_sw_blend_to_i1.c ****                 }
 6182              		.loc 1 781 21 is_stmt 1 view .LVU2006
 6183              	.LBB825:
 6184              	.LBI825:
1256:Drivers/lvgl/src/draw/sw/blend/lv_draw_sw_blend_to_i1.c **** {
 6185              		.loc 1 1256 44 view .LVU2007
 6186              	.LBB826:
1258:Drivers/lvgl/src/draw/sw/blend/lv_draw_sw_blend_to_i1.c **** }
 6187              		.loc 1 1258 5 view .LVU2008
1258:Drivers/lvgl/src/draw/sw/blend/lv_draw_sw_blend_to_i1.c **** }
 6188              		.loc 1 1258 12 is_stmt 0 view .LVU2009
 6189 01b8 049B     		ldr	r3, [sp, #16]
 6190 01ba 1C44     		add	r4, r4, r3
 6191              	.LVL658:
1258:Drivers/lvgl/src/draw/sw/blend/lv_draw_sw_blend_to_i1.c **** }
 6192              		.loc 1 1258 12 view .LVU2010
 6193              	.LBE826:
 6194              	.LBE825:
 768:Drivers/lvgl/src/draw/sw/blend/lv_draw_sw_blend_to_i1.c ****                     for(x = 0; x < w; x++) {
 6195              		.loc 1 768 36 is_stmt 1 discriminator 2 view .LVU2011
 6196 01bc 08F10108 		add	r8, r8, #1
 6197              	.LVL659:
 6198              	.L326:
 768:Drivers/lvgl/src/draw/sw/blend/lv_draw_sw_blend_to_i1.c ****                     for(x = 0; x < w; x++) {
 6199              		.loc 1 768 30 discriminator 1 view .LVU2012
 6200 01c0 019B     		ldr	r3, [sp, #4]
ARM GAS  /var/folders/qx/2_175_4n2s19vhvtspjhb3qh0000gn/T//ccaVas4T.s 			page 174


 6201 01c2 9845     		cmp	r8, r3
 6202 01c4 80F2EA80 		bge	.L322
 769:Drivers/lvgl/src/draw/sw/blend/lv_draw_sw_blend_to_i1.c ****                         uint8_t src = lv_color32_luminance(src_buf_c32[x]);
 6203              		.loc 1 769 27 is_stmt 0 view .LVU2013
 6204 01c8 0027     		movs	r7, #0
 6205 01ca CDF80880 		str	r8, [sp, #8]
 6206 01ce BBE7     		b	.L337
 6207              	.LVL660:
 6208              	.L373:
 6209              	.LBB827:
 6210              	.LBB828:
 6211              	.LBB829:
1273:Drivers/lvgl/src/draw/sw/blend/lv_draw_sw_blend_to_i1.c **** }
 6212              		.loc 1 1273 25 view .LVU2014
 6213 01d0 E51D     		adds	r5, r4, #7
 6214 01d2 16E0     		b	.L340
 6215              	.LVL661:
 6216              	.L374:
1273:Drivers/lvgl/src/draw/sw/blend/lv_draw_sw_blend_to_i1.c **** }
 6217              		.loc 1 1273 25 view .LVU2015
 6218              	.LBE829:
 6219              	.LBE828:
 793:Drivers/lvgl/src/draw/sw/blend/lv_draw_sw_blend_to_i1.c ****                         }
 6220              		.loc 1 793 29 is_stmt 1 view .LVU2016
 6221              	.LBB831:
 6222              	.LBI831:
1261:Drivers/lvgl/src/draw/sw/blend/lv_draw_sw_blend_to_i1.c **** {
 6223              		.loc 1 1261 42 view .LVU2017
 6224              	.LBB832:
1263:Drivers/lvgl/src/draw/sw/blend/lv_draw_sw_blend_to_i1.c **** }
 6225              		.loc 1 1263 5 view .LVU2018
1263:Drivers/lvgl/src/draw/sw/blend/lv_draw_sw_blend_to_i1.c **** }
 6226              		.loc 1 1263 8 is_stmt 0 view .LVU2019
 6227 01d4 7B5D     		ldrb	r3, [r7, r5]	@ zero_extendqisi2
1263:Drivers/lvgl/src/draw/sw/blend/lv_draw_sw_blend_to_i1.c **** }
 6228              		.loc 1 1263 28 view .LVU2020
 6229 01d6 0122     		movs	r2, #1
 6230 01d8 A240     		lsls	r2, r2, r4
1263:Drivers/lvgl/src/draw/sw/blend/lv_draw_sw_blend_to_i1.c **** }
 6231              		.loc 1 1263 22 view .LVU2021
 6232 01da 1343     		orrs	r3, r3, r2
 6233 01dc 7B55     		strb	r3, [r7, r5]
 6234              	.LVL662:
 6235              	.L342:
1263:Drivers/lvgl/src/draw/sw/blend/lv_draw_sw_blend_to_i1.c **** }
 6236              		.loc 1 1263 22 view .LVU2022
 6237              	.LBE832:
 6238              	.LBE831:
 6239              	.LBE827:
 788:Drivers/lvgl/src/draw/sw/blend/lv_draw_sw_blend_to_i1.c ****                         uint8_t src = lv_color32_luminance(src_buf_c32[x]);
 6240              		.loc 1 788 40 is_stmt 1 discriminator 2 view .LVU2023
 6241 01de 09F10109 		add	r9, r9, #1
 6242              	.LVL663:
 6243              	.L344:
 788:Drivers/lvgl/src/draw/sw/blend/lv_draw_sw_blend_to_i1.c ****                         uint8_t src = lv_color32_luminance(src_buf_c32[x]);
 6244              		.loc 1 788 34 discriminator 1 view .LVU2024
 6245 01e2 009B     		ldr	r3, [sp]
ARM GAS  /var/folders/qx/2_175_4n2s19vhvtspjhb3qh0000gn/T//ccaVas4T.s 			page 175


 6246 01e4 9945     		cmp	r9, r3
 6247 01e6 31DA     		bge	.L372
 6248              	.LBB836:
 789:Drivers/lvgl/src/draw/sw/blend/lv_draw_sw_blend_to_i1.c ****                         uint8_t dest = get_bit(dest_buf_i1, x + bit_ofs) * 255;
 6249              		.loc 1 789 25 view .LVU2025
 789:Drivers/lvgl/src/draw/sw/blend/lv_draw_sw_blend_to_i1.c ****                         uint8_t dest = get_bit(dest_buf_i1, x + bit_ofs) * 255;
 6250              		.loc 1 789 71 is_stmt 0 view .LVU2026
 6251 01e8 C846     		mov	r8, r9
 6252 01ea 0AEB8906 		add	r6, r10, r9, lsl #2
 789:Drivers/lvgl/src/draw/sw/blend/lv_draw_sw_blend_to_i1.c ****                         uint8_t dest = get_bit(dest_buf_i1, x + bit_ofs) * 255;
 6253              		.loc 1 789 39 view .LVU2027
 6254 01ee 5AF82900 		ldr	r0, [r10, r9, lsl #2]	@ unaligned
 6255 01f2 FFF7FEFF 		bl	lv_color32_luminance
 6256              	.LVL664:
 790:Drivers/lvgl/src/draw/sw/blend/lv_draw_sw_blend_to_i1.c ****                         lv_color_8_8_mix(src, &dest, LV_OPA_MIX2(mask_buf[x], src_buf_c32[x].alpha)
 6257              		.loc 1 790 25 is_stmt 1 view .LVU2028
 790:Drivers/lvgl/src/draw/sw/blend/lv_draw_sw_blend_to_i1.c ****                         lv_color_8_8_mix(src, &dest, LV_OPA_MIX2(mask_buf[x], src_buf_c32[x].alpha)
 6258              		.loc 1 790 40 is_stmt 0 view .LVU2029
 6259 01f6 029B     		ldr	r3, [sp, #8]
 6260 01f8 09EB0304 		add	r4, r9, r3
 6261              	.LVL665:
 6262              	.LBB833:
 6263              	.LBI828:
1271:Drivers/lvgl/src/draw/sw/blend/lv_draw_sw_blend_to_i1.c **** {
 6264              		.loc 1 1271 45 is_stmt 1 view .LVU2030
 6265              	.LBB830:
1273:Drivers/lvgl/src/draw/sw/blend/lv_draw_sw_blend_to_i1.c **** }
 6266              		.loc 1 1273 5 view .LVU2031
1273:Drivers/lvgl/src/draw/sw/blend/lv_draw_sw_blend_to_i1.c **** }
 6267              		.loc 1 1273 25 is_stmt 0 view .LVU2032
 6268 01fc 2546     		mov	r5, r4
 6269 01fe 002C     		cmp	r4, #0
 6270 0200 E6DB     		blt	.L373
 6271              	.L340:
1273:Drivers/lvgl/src/draw/sw/blend/lv_draw_sw_blend_to_i1.c **** }
 6272              		.loc 1 1273 25 view .LVU2033
 6273 0202 ED10     		asrs	r5, r5, #3
1273:Drivers/lvgl/src/draw/sw/blend/lv_draw_sw_blend_to_i1.c **** }
 6274              		.loc 1 1273 16 view .LVU2034
 6275 0204 7B5D     		ldrb	r3, [r7, r5]	@ zero_extendqisi2
1273:Drivers/lvgl/src/draw/sw/blend/lv_draw_sw_blend_to_i1.c **** }
 6276              		.loc 1 1273 47 view .LVU2035
 6277 0206 6242     		rsbs	r2, r4, #0
 6278 0208 04F00704 		and	r4, r4, #7
 6279              	.LVL666:
1273:Drivers/lvgl/src/draw/sw/blend/lv_draw_sw_blend_to_i1.c **** }
 6280              		.loc 1 1273 47 view .LVU2036
 6281 020c 02F00702 		and	r2, r2, #7
 6282 0210 58BF     		it	pl
 6283 0212 5442     		rsbpl	r4, r2, #0
1273:Drivers/lvgl/src/draw/sw/blend/lv_draw_sw_blend_to_i1.c **** }
 6284              		.loc 1 1273 36 view .LVU2037
 6285 0214 C4F10704 		rsb	r4, r4, #7
1273:Drivers/lvgl/src/draw/sw/blend/lv_draw_sw_blend_to_i1.c **** }
 6286              		.loc 1 1273 30 view .LVU2038
 6287 0218 2341     		asrs	r3, r3, r4
 6288              	.LVL667:
ARM GAS  /var/folders/qx/2_175_4n2s19vhvtspjhb3qh0000gn/T//ccaVas4T.s 			page 176


1273:Drivers/lvgl/src/draw/sw/blend/lv_draw_sw_blend_to_i1.c **** }
 6289              		.loc 1 1273 30 view .LVU2039
 6290              	.LBE830:
 6291              	.LBE833:
 790:Drivers/lvgl/src/draw/sw/blend/lv_draw_sw_blend_to_i1.c ****                         lv_color_8_8_mix(src, &dest, LV_OPA_MIX2(mask_buf[x], src_buf_c32[x].alpha)
 6292              		.loc 1 790 33 discriminator 1 view .LVU2040
 6293 021a 43F30003 		sbfx	r3, r3, #0, #1
 6294 021e 8DF82430 		strb	r3, [sp, #36]
 791:Drivers/lvgl/src/draw/sw/blend/lv_draw_sw_blend_to_i1.c ****                         if(dest > I1_LUM_THRESHOLD) {
 6295              		.loc 1 791 25 is_stmt 1 view .LVU2041
 791:Drivers/lvgl/src/draw/sw/blend/lv_draw_sw_blend_to_i1.c ****                         if(dest > I1_LUM_THRESHOLD) {
 6296              		.loc 1 791 54 is_stmt 0 view .LVU2042
 6297 0222 1BF80820 		ldrb	r2, [fp, r8]	@ zero_extendqisi2
 6298 0226 F378     		ldrb	r3, [r6, #3]	@ zero_extendqisi2
 6299 0228 03FB02F2 		mul	r2, r3, r2
 791:Drivers/lvgl/src/draw/sw/blend/lv_draw_sw_blend_to_i1.c ****                         if(dest > I1_LUM_THRESHOLD) {
 6300              		.loc 1 791 25 view .LVU2043
 6301 022c 120A     		lsrs	r2, r2, #8
 6302 022e 09A9     		add	r1, sp, #36
 6303 0230 FFF7FEFF 		bl	lv_color_8_8_mix
 6304              	.LVL668:
 792:Drivers/lvgl/src/draw/sw/blend/lv_draw_sw_blend_to_i1.c ****                             set_bit(dest_buf_i1, x + bit_ofs);
 6305              		.loc 1 792 25 is_stmt 1 view .LVU2044
 792:Drivers/lvgl/src/draw/sw/blend/lv_draw_sw_blend_to_i1.c ****                             set_bit(dest_buf_i1, x + bit_ofs);
 6306              		.loc 1 792 33 is_stmt 0 view .LVU2045
 6307 0234 9DF92430 		ldrsb	r3, [sp, #36]
 792:Drivers/lvgl/src/draw/sw/blend/lv_draw_sw_blend_to_i1.c ****                             set_bit(dest_buf_i1, x + bit_ofs);
 6308              		.loc 1 792 27 view .LVU2046
 6309 0238 002B     		cmp	r3, #0
 6310 023a CBDB     		blt	.L374
 796:Drivers/lvgl/src/draw/sw/blend/lv_draw_sw_blend_to_i1.c ****                         }
 6311              		.loc 1 796 29 is_stmt 1 view .LVU2047
 6312              	.LVL669:
 6313              	.LBB834:
 6314              	.LBI834:
1266:Drivers/lvgl/src/draw/sw/blend/lv_draw_sw_blend_to_i1.c **** {
 6315              		.loc 1 1266 42 view .LVU2048
 6316              	.LBB835:
1268:Drivers/lvgl/src/draw/sw/blend/lv_draw_sw_blend_to_i1.c **** }
 6317              		.loc 1 1268 5 view .LVU2049
1268:Drivers/lvgl/src/draw/sw/blend/lv_draw_sw_blend_to_i1.c **** }
 6318              		.loc 1 1268 8 is_stmt 0 view .LVU2050
 6319 023c 7A5D     		ldrb	r2, [r7, r5]	@ zero_extendqisi2
1268:Drivers/lvgl/src/draw/sw/blend/lv_draw_sw_blend_to_i1.c **** }
 6320              		.loc 1 1268 29 view .LVU2051
 6321 023e 0123     		movs	r3, #1
 6322 0240 A340     		lsls	r3, r3, r4
1268:Drivers/lvgl/src/draw/sw/blend/lv_draw_sw_blend_to_i1.c **** }
 6323              		.loc 1 1268 22 view .LVU2052
 6324 0242 DB43     		mvns	r3, r3
 6325 0244 5BB2     		sxtb	r3, r3
 6326 0246 1340     		ands	r3, r3, r2
 6327 0248 7B55     		strb	r3, [r7, r5]
 6328              	.LVL670:
1269:Drivers/lvgl/src/draw/sw/blend/lv_draw_sw_blend_to_i1.c **** 
 6329              		.loc 1 1269 1 view .LVU2053
 6330 024a C8E7     		b	.L342
ARM GAS  /var/folders/qx/2_175_4n2s19vhvtspjhb3qh0000gn/T//ccaVas4T.s 			page 177


 6331              	.LVL671:
 6332              	.L372:
1269:Drivers/lvgl/src/draw/sw/blend/lv_draw_sw_blend_to_i1.c **** 
 6333              		.loc 1 1269 1 view .LVU2054
 6334              	.LBE835:
 6335              	.LBE834:
 6336              	.LBE836:
 6337              	.LBB837:
 6338              	.LBB838:
1258:Drivers/lvgl/src/draw/sw/blend/lv_draw_sw_blend_to_i1.c **** }
 6339              		.loc 1 1258 12 view .LVU2055
 6340 024c 059D     		ldr	r5, [sp, #20]
 6341              	.LBE838:
 6342              	.LBE837:
 799:Drivers/lvgl/src/draw/sw/blend/lv_draw_sw_blend_to_i1.c ****                     src_buf_c32 = drawbuf_next_row(src_buf_c32, src_stride);
 6343              		.loc 1 799 21 is_stmt 1 view .LVU2056
 6344              	.LVL672:
 6345              	.LBB840:
 6346              	.LBI837:
1256:Drivers/lvgl/src/draw/sw/blend/lv_draw_sw_blend_to_i1.c **** {
 6347              		.loc 1 1256 44 view .LVU2057
 6348              	.LBB839:
1258:Drivers/lvgl/src/draw/sw/blend/lv_draw_sw_blend_to_i1.c **** }
 6349              		.loc 1 1258 5 view .LVU2058
1258:Drivers/lvgl/src/draw/sw/blend/lv_draw_sw_blend_to_i1.c **** }
 6350              		.loc 1 1258 12 is_stmt 0 view .LVU2059
 6351 024e 039B     		ldr	r3, [sp, #12]
 6352 0250 1F44     		add	r7, r7, r3
 6353              	.LVL673:
1258:Drivers/lvgl/src/draw/sw/blend/lv_draw_sw_blend_to_i1.c **** }
 6354              		.loc 1 1258 12 view .LVU2060
 6355              	.LBE839:
 6356              	.LBE840:
 800:Drivers/lvgl/src/draw/sw/blend/lv_draw_sw_blend_to_i1.c ****                     mask_buf += mask_stride;
 6357              		.loc 1 800 21 is_stmt 1 view .LVU2061
 6358              	.LBB841:
 6359              	.LBI841:
1256:Drivers/lvgl/src/draw/sw/blend/lv_draw_sw_blend_to_i1.c **** {
 6360              		.loc 1 1256 44 view .LVU2062
 6361              	.LBB842:
1258:Drivers/lvgl/src/draw/sw/blend/lv_draw_sw_blend_to_i1.c **** }
 6362              		.loc 1 1258 5 view .LVU2063
1258:Drivers/lvgl/src/draw/sw/blend/lv_draw_sw_blend_to_i1.c **** }
 6363              		.loc 1 1258 12 is_stmt 0 view .LVU2064
 6364 0252 049B     		ldr	r3, [sp, #16]
 6365 0254 9A44     		add	r10, r10, r3
 6366              	.LVL674:
1258:Drivers/lvgl/src/draw/sw/blend/lv_draw_sw_blend_to_i1.c **** }
 6367              		.loc 1 1258 12 view .LVU2065
 6368              	.LBE842:
 6369              	.LBE841:
 801:Drivers/lvgl/src/draw/sw/blend/lv_draw_sw_blend_to_i1.c ****                 }
 6370              		.loc 1 801 21 is_stmt 1 view .LVU2066
 801:Drivers/lvgl/src/draw/sw/blend/lv_draw_sw_blend_to_i1.c ****                 }
 6371              		.loc 1 801 30 is_stmt 0 view .LVU2067
 6372 0256 069B     		ldr	r3, [sp, #24]
 6373 0258 9B44     		add	fp, fp, r3
ARM GAS  /var/folders/qx/2_175_4n2s19vhvtspjhb3qh0000gn/T//ccaVas4T.s 			page 178


 6374              	.LVL675:
 787:Drivers/lvgl/src/draw/sw/blend/lv_draw_sw_blend_to_i1.c ****                     for(x = 0; x < w; x++) {
 6375              		.loc 1 787 36 is_stmt 1 discriminator 2 view .LVU2068
 6376 025a 0135     		adds	r5, r5, #1
 6377              	.LVL676:
 6378              	.L338:
 787:Drivers/lvgl/src/draw/sw/blend/lv_draw_sw_blend_to_i1.c ****                     for(x = 0; x < w; x++) {
 6379              		.loc 1 787 30 discriminator 1 view .LVU2069
 6380 025c 019B     		ldr	r3, [sp, #4]
 6381 025e 9D42     		cmp	r5, r3
 6382 0260 80F29C80 		bge	.L322
 788:Drivers/lvgl/src/draw/sw/blend/lv_draw_sw_blend_to_i1.c ****                         uint8_t src = lv_color32_luminance(src_buf_c32[x]);
 6383              		.loc 1 788 27 is_stmt 0 view .LVU2070
 6384 0264 4FF00009 		mov	r9, #0
 6385 0268 0595     		str	r5, [sp, #20]
 6386 026a BAE7     		b	.L344
 6387              	.LVL677:
 6388              	.L360:
 787:Drivers/lvgl/src/draw/sw/blend/lv_draw_sw_blend_to_i1.c ****                     for(x = 0; x < w; x++) {
 6389              		.loc 1 787 23 view .LVU2071
 6390 026c 0025     		movs	r5, #0
 6391 026e CDF800B0 		str	fp, [sp]
 6392 0272 BB46     		mov	fp, r7
 6393              	.LVL678:
 787:Drivers/lvgl/src/draw/sw/blend/lv_draw_sw_blend_to_i1.c ****                     for(x = 0; x < w; x++) {
 6394              		.loc 1 787 23 view .LVU2072
 6395 0274 2746     		mov	r7, r4
 6396              	.LVL679:
 787:Drivers/lvgl/src/draw/sw/blend/lv_draw_sw_blend_to_i1.c ****                     for(x = 0; x < w; x++) {
 6397              		.loc 1 787 23 view .LVU2073
 6398 0276 0693     		str	r3, [sp, #24]
 6399 0278 CDF808A0 		str	r10, [sp, #8]
 6400 027c B246     		mov	r10, r6
 6401              	.LVL680:
 787:Drivers/lvgl/src/draw/sw/blend/lv_draw_sw_blend_to_i1.c ****                     for(x = 0; x < w; x++) {
 6402              		.loc 1 787 23 view .LVU2074
 6403 027e EDE7     		b	.L338
 6404              	.LVL681:
 6405              	.L376:
 6406              	.LBB843:
 6407              	.LBB844:
 6408              	.LBB845:
1273:Drivers/lvgl/src/draw/sw/blend/lv_draw_sw_blend_to_i1.c **** }
 6409              		.loc 1 1273 25 view .LVU2075
 6410 0280 E71D     		adds	r7, r4, #7
 6411 0282 14E0     		b	.L346
 6412              	.LVL682:
 6413              	.L377:
1273:Drivers/lvgl/src/draw/sw/blend/lv_draw_sw_blend_to_i1.c **** }
 6414              		.loc 1 1273 25 view .LVU2076
 6415              	.LBE845:
 6416              	.LBE844:
 813:Drivers/lvgl/src/draw/sw/blend/lv_draw_sw_blend_to_i1.c ****                         }
 6417              		.loc 1 813 29 is_stmt 1 view .LVU2077
 6418              	.LBB847:
 6419              	.LBI847:
1261:Drivers/lvgl/src/draw/sw/blend/lv_draw_sw_blend_to_i1.c **** {
ARM GAS  /var/folders/qx/2_175_4n2s19vhvtspjhb3qh0000gn/T//ccaVas4T.s 			page 179


 6420              		.loc 1 1261 42 view .LVU2078
 6421              	.LBB848:
1263:Drivers/lvgl/src/draw/sw/blend/lv_draw_sw_blend_to_i1.c **** }
 6422              		.loc 1 1263 5 view .LVU2079
1263:Drivers/lvgl/src/draw/sw/blend/lv_draw_sw_blend_to_i1.c **** }
 6423              		.loc 1 1263 8 is_stmt 0 view .LVU2080
 6424 0284 F35D     		ldrb	r3, [r6, r7]	@ zero_extendqisi2
1263:Drivers/lvgl/src/draw/sw/blend/lv_draw_sw_blend_to_i1.c **** }
 6425              		.loc 1 1263 28 view .LVU2081
 6426 0286 0122     		movs	r2, #1
 6427 0288 A240     		lsls	r2, r2, r4
1263:Drivers/lvgl/src/draw/sw/blend/lv_draw_sw_blend_to_i1.c **** }
 6428              		.loc 1 1263 22 view .LVU2082
 6429 028a 1343     		orrs	r3, r3, r2
 6430 028c F355     		strb	r3, [r6, r7]
 6431              	.LVL683:
 6432              	.L348:
1263:Drivers/lvgl/src/draw/sw/blend/lv_draw_sw_blend_to_i1.c **** }
 6433              		.loc 1 1263 22 view .LVU2083
 6434              	.LBE848:
 6435              	.LBE847:
 6436              	.LBE843:
 808:Drivers/lvgl/src/draw/sw/blend/lv_draw_sw_blend_to_i1.c ****                         uint8_t src = lv_color32_luminance(src_buf_c32[x]);
 6437              		.loc 1 808 40 is_stmt 1 discriminator 2 view .LVU2084
 6438 028e 0135     		adds	r5, r5, #1
 6439              	.LVL684:
 6440              	.L350:
 808:Drivers/lvgl/src/draw/sw/blend/lv_draw_sw_blend_to_i1.c ****                         uint8_t src = lv_color32_luminance(src_buf_c32[x]);
 6441              		.loc 1 808 34 discriminator 1 view .LVU2085
 6442 0290 009B     		ldr	r3, [sp]
 6443 0292 9D42     		cmp	r5, r3
 6444 0294 34DA     		bge	.L375
 6445              	.LBB852:
 809:Drivers/lvgl/src/draw/sw/blend/lv_draw_sw_blend_to_i1.c ****                         uint8_t dest = get_bit(dest_buf_i1, x + bit_ofs) * 255;
 6446              		.loc 1 809 25 view .LVU2086
 809:Drivers/lvgl/src/draw/sw/blend/lv_draw_sw_blend_to_i1.c ****                         uint8_t dest = get_bit(dest_buf_i1, x + bit_ofs) * 255;
 6447              		.loc 1 809 71 is_stmt 0 view .LVU2087
 6448 0296 A946     		mov	r9, r5
 6449 0298 0AEB8508 		add	r8, r10, r5, lsl #2
 809:Drivers/lvgl/src/draw/sw/blend/lv_draw_sw_blend_to_i1.c ****                         uint8_t dest = get_bit(dest_buf_i1, x + bit_ofs) * 255;
 6450              		.loc 1 809 39 view .LVU2088
 6451 029c 5AF82500 		ldr	r0, [r10, r5, lsl #2]	@ unaligned
 6452 02a0 FFF7FEFF 		bl	lv_color32_luminance
 6453              	.LVL685:
 810:Drivers/lvgl/src/draw/sw/blend/lv_draw_sw_blend_to_i1.c ****                         lv_color_8_8_mix(src, &dest, LV_OPA_MIX3(opa, mask_buf[x], src_buf_c32[x].a
 6454              		.loc 1 810 25 is_stmt 1 view .LVU2089
 810:Drivers/lvgl/src/draw/sw/blend/lv_draw_sw_blend_to_i1.c ****                         lv_color_8_8_mix(src, &dest, LV_OPA_MIX3(opa, mask_buf[x], src_buf_c32[x].a
 6455              		.loc 1 810 40 is_stmt 0 view .LVU2090
 6456 02a4 059B     		ldr	r3, [sp, #20]
 6457 02a6 EC18     		adds	r4, r5, r3
 6458              	.LVL686:
 6459              	.LBB849:
 6460              	.LBI844:
1271:Drivers/lvgl/src/draw/sw/blend/lv_draw_sw_blend_to_i1.c **** {
 6461              		.loc 1 1271 45 is_stmt 1 view .LVU2091
 6462              	.LBB846:
1273:Drivers/lvgl/src/draw/sw/blend/lv_draw_sw_blend_to_i1.c **** }
ARM GAS  /var/folders/qx/2_175_4n2s19vhvtspjhb3qh0000gn/T//ccaVas4T.s 			page 180


 6463              		.loc 1 1273 5 view .LVU2092
1273:Drivers/lvgl/src/draw/sw/blend/lv_draw_sw_blend_to_i1.c **** }
 6464              		.loc 1 1273 25 is_stmt 0 view .LVU2093
 6465 02a8 2746     		mov	r7, r4
 6466 02aa 002C     		cmp	r4, #0
 6467 02ac E8DB     		blt	.L376
 6468              	.L346:
1273:Drivers/lvgl/src/draw/sw/blend/lv_draw_sw_blend_to_i1.c **** }
 6469              		.loc 1 1273 25 view .LVU2094
 6470 02ae FF10     		asrs	r7, r7, #3
1273:Drivers/lvgl/src/draw/sw/blend/lv_draw_sw_blend_to_i1.c **** }
 6471              		.loc 1 1273 16 view .LVU2095
 6472 02b0 F35D     		ldrb	r3, [r6, r7]	@ zero_extendqisi2
1273:Drivers/lvgl/src/draw/sw/blend/lv_draw_sw_blend_to_i1.c **** }
 6473              		.loc 1 1273 47 view .LVU2096
 6474 02b2 6242     		rsbs	r2, r4, #0
 6475 02b4 04F00704 		and	r4, r4, #7
 6476              	.LVL687:
1273:Drivers/lvgl/src/draw/sw/blend/lv_draw_sw_blend_to_i1.c **** }
 6477              		.loc 1 1273 47 view .LVU2097
 6478 02b8 02F00702 		and	r2, r2, #7
 6479 02bc 58BF     		it	pl
 6480 02be 5442     		rsbpl	r4, r2, #0
1273:Drivers/lvgl/src/draw/sw/blend/lv_draw_sw_blend_to_i1.c **** }
 6481              		.loc 1 1273 36 view .LVU2098
 6482 02c0 C4F10704 		rsb	r4, r4, #7
1273:Drivers/lvgl/src/draw/sw/blend/lv_draw_sw_blend_to_i1.c **** }
 6483              		.loc 1 1273 30 view .LVU2099
 6484 02c4 2341     		asrs	r3, r3, r4
 6485              	.LVL688:
1273:Drivers/lvgl/src/draw/sw/blend/lv_draw_sw_blend_to_i1.c **** }
 6486              		.loc 1 1273 30 view .LVU2100
 6487              	.LBE846:
 6488              	.LBE849:
 810:Drivers/lvgl/src/draw/sw/blend/lv_draw_sw_blend_to_i1.c ****                         lv_color_8_8_mix(src, &dest, LV_OPA_MIX3(opa, mask_buf[x], src_buf_c32[x].a
 6489              		.loc 1 810 33 discriminator 1 view .LVU2101
 6490 02c6 43F30003 		sbfx	r3, r3, #0, #1
 6491 02ca 8DF82430 		strb	r3, [sp, #36]
 811:Drivers/lvgl/src/draw/sw/blend/lv_draw_sw_blend_to_i1.c ****                         if(dest > I1_LUM_THRESHOLD) {
 6492              		.loc 1 811 25 is_stmt 1 view .LVU2102
 811:Drivers/lvgl/src/draw/sw/blend/lv_draw_sw_blend_to_i1.c ****                         if(dest > I1_LUM_THRESHOLD) {
 6493              		.loc 1 811 54 is_stmt 0 view .LVU2103
 6494 02ce 1BF80920 		ldrb	r2, [fp, r9]	@ zero_extendqisi2
 6495 02d2 029B     		ldr	r3, [sp, #8]
 6496 02d4 03FB02F2 		mul	r2, r3, r2
 6497 02d8 98F80330 		ldrb	r3, [r8, #3]	@ zero_extendqisi2
 6498 02dc 03FB02F2 		mul	r2, r3, r2
 811:Drivers/lvgl/src/draw/sw/blend/lv_draw_sw_blend_to_i1.c ****                         if(dest > I1_LUM_THRESHOLD) {
 6499              		.loc 1 811 25 view .LVU2104
 6500 02e0 120C     		lsrs	r2, r2, #16
 6501 02e2 09A9     		add	r1, sp, #36
 6502 02e4 FFF7FEFF 		bl	lv_color_8_8_mix
 6503              	.LVL689:
 812:Drivers/lvgl/src/draw/sw/blend/lv_draw_sw_blend_to_i1.c ****                             set_bit(dest_buf_i1, x + bit_ofs);
 6504              		.loc 1 812 25 is_stmt 1 view .LVU2105
 812:Drivers/lvgl/src/draw/sw/blend/lv_draw_sw_blend_to_i1.c ****                             set_bit(dest_buf_i1, x + bit_ofs);
 6505              		.loc 1 812 33 is_stmt 0 view .LVU2106
ARM GAS  /var/folders/qx/2_175_4n2s19vhvtspjhb3qh0000gn/T//ccaVas4T.s 			page 181


 6506 02e8 9DF92430 		ldrsb	r3, [sp, #36]
 812:Drivers/lvgl/src/draw/sw/blend/lv_draw_sw_blend_to_i1.c ****                             set_bit(dest_buf_i1, x + bit_ofs);
 6507              		.loc 1 812 27 view .LVU2107
 6508 02ec 002B     		cmp	r3, #0
 6509 02ee C9DB     		blt	.L377
 816:Drivers/lvgl/src/draw/sw/blend/lv_draw_sw_blend_to_i1.c ****                         }
 6510              		.loc 1 816 29 is_stmt 1 view .LVU2108
 6511              	.LVL690:
 6512              	.LBB850:
 6513              	.LBI850:
1266:Drivers/lvgl/src/draw/sw/blend/lv_draw_sw_blend_to_i1.c **** {
 6514              		.loc 1 1266 42 view .LVU2109
 6515              	.LBB851:
1268:Drivers/lvgl/src/draw/sw/blend/lv_draw_sw_blend_to_i1.c **** }
 6516              		.loc 1 1268 5 view .LVU2110
1268:Drivers/lvgl/src/draw/sw/blend/lv_draw_sw_blend_to_i1.c **** }
 6517              		.loc 1 1268 8 is_stmt 0 view .LVU2111
 6518 02f0 F25D     		ldrb	r2, [r6, r7]	@ zero_extendqisi2
1268:Drivers/lvgl/src/draw/sw/blend/lv_draw_sw_blend_to_i1.c **** }
 6519              		.loc 1 1268 29 view .LVU2112
 6520 02f2 0123     		movs	r3, #1
 6521 02f4 A340     		lsls	r3, r3, r4
1268:Drivers/lvgl/src/draw/sw/blend/lv_draw_sw_blend_to_i1.c **** }
 6522              		.loc 1 1268 22 view .LVU2113
 6523 02f6 DB43     		mvns	r3, r3
 6524 02f8 5BB2     		sxtb	r3, r3
 6525 02fa 1340     		ands	r3, r3, r2
 6526 02fc F355     		strb	r3, [r6, r7]
 6527              	.LVL691:
1269:Drivers/lvgl/src/draw/sw/blend/lv_draw_sw_blend_to_i1.c **** 
 6528              		.loc 1 1269 1 view .LVU2114
 6529 02fe C6E7     		b	.L348
 6530              	.LVL692:
 6531              	.L375:
1269:Drivers/lvgl/src/draw/sw/blend/lv_draw_sw_blend_to_i1.c **** 
 6532              		.loc 1 1269 1 view .LVU2115
 6533              	.LBE851:
 6534              	.LBE850:
 6535              	.LBE852:
 6536              	.LBB853:
 6537              	.LBB854:
1258:Drivers/lvgl/src/draw/sw/blend/lv_draw_sw_blend_to_i1.c **** }
 6538              		.loc 1 1258 12 view .LVU2116
 6539 0300 069C     		ldr	r4, [sp, #24]
 6540              	.LBE854:
 6541              	.LBE853:
 819:Drivers/lvgl/src/draw/sw/blend/lv_draw_sw_blend_to_i1.c ****                     src_buf_c32 = drawbuf_next_row(src_buf_c32, src_stride);
 6542              		.loc 1 819 21 is_stmt 1 view .LVU2117
 6543              	.LVL693:
 6544              	.LBB856:
 6545              	.LBI853:
1256:Drivers/lvgl/src/draw/sw/blend/lv_draw_sw_blend_to_i1.c **** {
 6546              		.loc 1 1256 44 view .LVU2118
 6547              	.LBB855:
1258:Drivers/lvgl/src/draw/sw/blend/lv_draw_sw_blend_to_i1.c **** }
 6548              		.loc 1 1258 5 view .LVU2119
1258:Drivers/lvgl/src/draw/sw/blend/lv_draw_sw_blend_to_i1.c **** }
ARM GAS  /var/folders/qx/2_175_4n2s19vhvtspjhb3qh0000gn/T//ccaVas4T.s 			page 182


 6549              		.loc 1 1258 12 is_stmt 0 view .LVU2120
 6550 0302 039B     		ldr	r3, [sp, #12]
 6551 0304 1E44     		add	r6, r6, r3
 6552              	.LVL694:
1258:Drivers/lvgl/src/draw/sw/blend/lv_draw_sw_blend_to_i1.c **** }
 6553              		.loc 1 1258 12 view .LVU2121
 6554              	.LBE855:
 6555              	.LBE856:
 820:Drivers/lvgl/src/draw/sw/blend/lv_draw_sw_blend_to_i1.c ****                     mask_buf += mask_stride;
 6556              		.loc 1 820 21 is_stmt 1 view .LVU2122
 6557              	.LBB857:
 6558              	.LBI857:
1256:Drivers/lvgl/src/draw/sw/blend/lv_draw_sw_blend_to_i1.c **** {
 6559              		.loc 1 1256 44 view .LVU2123
 6560              	.LBB858:
1258:Drivers/lvgl/src/draw/sw/blend/lv_draw_sw_blend_to_i1.c **** }
 6561              		.loc 1 1258 5 view .LVU2124
1258:Drivers/lvgl/src/draw/sw/blend/lv_draw_sw_blend_to_i1.c **** }
 6562              		.loc 1 1258 12 is_stmt 0 view .LVU2125
 6563 0306 049B     		ldr	r3, [sp, #16]
 6564 0308 9A44     		add	r10, r10, r3
 6565              	.LVL695:
1258:Drivers/lvgl/src/draw/sw/blend/lv_draw_sw_blend_to_i1.c **** }
 6566              		.loc 1 1258 12 view .LVU2126
 6567              	.LBE858:
 6568              	.LBE857:
 821:Drivers/lvgl/src/draw/sw/blend/lv_draw_sw_blend_to_i1.c ****                 }
 6569              		.loc 1 821 21 is_stmt 1 view .LVU2127
 821:Drivers/lvgl/src/draw/sw/blend/lv_draw_sw_blend_to_i1.c ****                 }
 6570              		.loc 1 821 30 is_stmt 0 view .LVU2128
 6571 030a 079B     		ldr	r3, [sp, #28]
 6572 030c 9B44     		add	fp, fp, r3
 6573              	.LVL696:
 807:Drivers/lvgl/src/draw/sw/blend/lv_draw_sw_blend_to_i1.c ****                     for(x = 0; x < w; x++) {
 6574              		.loc 1 807 36 is_stmt 1 discriminator 2 view .LVU2129
 6575 030e 0134     		adds	r4, r4, #1
 6576              	.LVL697:
 6577              	.L345:
 807:Drivers/lvgl/src/draw/sw/blend/lv_draw_sw_blend_to_i1.c ****                     for(x = 0; x < w; x++) {
 6578              		.loc 1 807 30 discriminator 1 view .LVU2130
 6579 0310 019B     		ldr	r3, [sp, #4]
 6580 0312 9C42     		cmp	r4, r3
 6581 0314 42DA     		bge	.L322
 808:Drivers/lvgl/src/draw/sw/blend/lv_draw_sw_blend_to_i1.c ****                         uint8_t src = lv_color32_luminance(src_buf_c32[x]);
 6582              		.loc 1 808 27 is_stmt 0 view .LVU2131
 6583 0316 0025     		movs	r5, #0
 6584 0318 0694     		str	r4, [sp, #24]
 6585 031a B9E7     		b	.L350
 6586              	.LVL698:
 6587              	.L351:
 6588              	.LBB859:
 831:Drivers/lvgl/src/draw/sw/blend/lv_draw_sw_blend_to_i1.c ****                 blend_non_normal_pixel(dest_buf_i1, x + bit_ofs, color_argb, dsc->blend_mode);
 6589              		.loc 1 831 22 is_stmt 1 view .LVU2132
 831:Drivers/lvgl/src/draw/sw/blend/lv_draw_sw_blend_to_i1.c ****                 blend_non_normal_pixel(dest_buf_i1, x + bit_ofs, color_argb, dsc->blend_mode);
 6590              		.loc 1 831 41 is_stmt 0 view .LVU2133
 6591 031c 9DF82730 		ldrb	r3, [sp, #39]	@ zero_extendqisi2
 6592 0320 725D     		ldrb	r2, [r6, r5]	@ zero_extendqisi2
ARM GAS  /var/folders/qx/2_175_4n2s19vhvtspjhb3qh0000gn/T//ccaVas4T.s 			page 183


 6593 0322 02FB03F3 		mul	r3, r2, r3
 6594 0326 04FB03F3 		mul	r3, r4, r3
 6595 032a 1B0C     		lsrs	r3, r3, #16
 831:Drivers/lvgl/src/draw/sw/blend/lv_draw_sw_blend_to_i1.c ****                 blend_non_normal_pixel(dest_buf_i1, x + bit_ofs, color_argb, dsc->blend_mode);
 6596              		.loc 1 831 39 view .LVU2134
 6597 032c 8DF82730 		strb	r3, [sp, #39]
 6598              	.L352:
 832:Drivers/lvgl/src/draw/sw/blend/lv_draw_sw_blend_to_i1.c ****             }
 6599              		.loc 1 832 17 is_stmt 1 view .LVU2135
 6600 0330 98F82230 		ldrb	r3, [r8, #34]	@ zero_extendqisi2
 6601 0334 099A     		ldr	r2, [sp, #36]
 6602 0336 05EB0A01 		add	r1, r5, r10
 6603 033a 4846     		mov	r0, r9
 6604 033c FFF7FEFF 		bl	blend_non_normal_pixel
 6605              	.LVL699:
 6606              	.LBE859:
 828:Drivers/lvgl/src/draw/sw/blend/lv_draw_sw_blend_to_i1.c ****                 lv_color32_t color_argb = src_buf_c32[x];
 6607              		.loc 1 828 32 discriminator 2 view .LVU2136
 6608 0340 0135     		adds	r5, r5, #1
 6609              	.LVL700:
 6610              	.L355:
 828:Drivers/lvgl/src/draw/sw/blend/lv_draw_sw_blend_to_i1.c ****                 lv_color32_t color_argb = src_buf_c32[x];
 6611              		.loc 1 828 26 discriminator 1 view .LVU2137
 6612 0342 5D45     		cmp	r5, fp
 6613 0344 0CDA     		bge	.L378
 6614              	.LBB860:
 829:Drivers/lvgl/src/draw/sw/blend/lv_draw_sw_blend_to_i1.c ****                 if(mask_buf == NULL) color_argb.alpha = LV_OPA_MIX2(color_argb.alpha, opa);
 6615              		.loc 1 829 17 view .LVU2138
 829:Drivers/lvgl/src/draw/sw/blend/lv_draw_sw_blend_to_i1.c ****                 if(mask_buf == NULL) color_argb.alpha = LV_OPA_MIX2(color_argb.alpha, opa);
 6616              		.loc 1 829 30 is_stmt 0 view .LVU2139
 6617 0346 57F82500 		ldr	r0, [r7, r5, lsl #2]	@ unaligned
 6618 034a 0990     		str	r0, [sp, #36]
 830:Drivers/lvgl/src/draw/sw/blend/lv_draw_sw_blend_to_i1.c ****                 else color_argb.alpha = LV_OPA_MIX3(color_argb.alpha, mask_buf[x], opa);
 6619              		.loc 1 830 17 is_stmt 1 view .LVU2140
 830:Drivers/lvgl/src/draw/sw/blend/lv_draw_sw_blend_to_i1.c ****                 else color_argb.alpha = LV_OPA_MIX3(color_argb.alpha, mask_buf[x], opa);
 6620              		.loc 1 830 19 is_stmt 0 view .LVU2141
 6621 034c 002E     		cmp	r6, #0
 6622 034e E5D1     		bne	.L351
 830:Drivers/lvgl/src/draw/sw/blend/lv_draw_sw_blend_to_i1.c ****                 else color_argb.alpha = LV_OPA_MIX3(color_argb.alpha, mask_buf[x], opa);
 6623              		.loc 1 830 38 is_stmt 1 discriminator 1 view .LVU2142
 830:Drivers/lvgl/src/draw/sw/blend/lv_draw_sw_blend_to_i1.c ****                 else color_argb.alpha = LV_OPA_MIX3(color_argb.alpha, mask_buf[x], opa);
 6624              		.loc 1 830 57 is_stmt 0 discriminator 1 view .LVU2143
 6625 0350 9DF82730 		ldrb	r3, [sp, #39]	@ zero_extendqisi2
 6626 0354 04FB03F3 		mul	r3, r4, r3
 6627 0358 1B0A     		lsrs	r3, r3, #8
 830:Drivers/lvgl/src/draw/sw/blend/lv_draw_sw_blend_to_i1.c ****                 else color_argb.alpha = LV_OPA_MIX3(color_argb.alpha, mask_buf[x], opa);
 6628              		.loc 1 830 55 discriminator 1 view .LVU2144
 6629 035a 8DF82730 		strb	r3, [sp, #39]
 6630 035e E7E7     		b	.L352
 6631              	.L378:
 830:Drivers/lvgl/src/draw/sw/blend/lv_draw_sw_blend_to_i1.c ****                 else color_argb.alpha = LV_OPA_MIX3(color_argb.alpha, mask_buf[x], opa);
 6632              		.loc 1 830 55 discriminator 1 view .LVU2145
 6633              	.LBE860:
 834:Drivers/lvgl/src/draw/sw/blend/lv_draw_sw_blend_to_i1.c ****             dest_buf_i1 = drawbuf_next_row(dest_buf_i1, dest_stride);
 6634              		.loc 1 834 15 view .LVU2146
 6635 0360 DDF800C0 		ldr	ip, [sp]
 834:Drivers/lvgl/src/draw/sw/blend/lv_draw_sw_blend_to_i1.c ****             dest_buf_i1 = drawbuf_next_row(dest_buf_i1, dest_stride);
ARM GAS  /var/folders/qx/2_175_4n2s19vhvtspjhb3qh0000gn/T//ccaVas4T.s 			page 184


 6636              		.loc 1 834 13 is_stmt 1 view .LVU2147
 834:Drivers/lvgl/src/draw/sw/blend/lv_draw_sw_blend_to_i1.c ****             dest_buf_i1 = drawbuf_next_row(dest_buf_i1, dest_stride);
 6637              		.loc 1 834 15 is_stmt 0 view .LVU2148
 6638 0364 0EB1     		cbz	r6, .L354
 834:Drivers/lvgl/src/draw/sw/blend/lv_draw_sw_blend_to_i1.c ****             dest_buf_i1 = drawbuf_next_row(dest_buf_i1, dest_stride);
 6639              		.loc 1 834 26 is_stmt 1 discriminator 1 view .LVU2149
 834:Drivers/lvgl/src/draw/sw/blend/lv_draw_sw_blend_to_i1.c ****             dest_buf_i1 = drawbuf_next_row(dest_buf_i1, dest_stride);
 6640              		.loc 1 834 35 is_stmt 0 discriminator 1 view .LVU2150
 6641 0366 029B     		ldr	r3, [sp, #8]
 6642 0368 1E44     		add	r6, r6, r3
 6643              	.LVL701:
 6644              	.L354:
 835:Drivers/lvgl/src/draw/sw/blend/lv_draw_sw_blend_to_i1.c ****             src_buf_c32 = drawbuf_next_row(src_buf_c32, src_stride);
 6645              		.loc 1 835 13 is_stmt 1 view .LVU2151
 6646              	.LBB861:
 6647              	.LBI861:
1256:Drivers/lvgl/src/draw/sw/blend/lv_draw_sw_blend_to_i1.c **** {
 6648              		.loc 1 1256 44 view .LVU2152
 6649              	.LBB862:
1258:Drivers/lvgl/src/draw/sw/blend/lv_draw_sw_blend_to_i1.c **** }
 6650              		.loc 1 1258 5 view .LVU2153
1258:Drivers/lvgl/src/draw/sw/blend/lv_draw_sw_blend_to_i1.c **** }
 6651              		.loc 1 1258 12 is_stmt 0 view .LVU2154
 6652 036a 039B     		ldr	r3, [sp, #12]
 6653 036c 9944     		add	r9, r9, r3
 6654              	.LVL702:
1258:Drivers/lvgl/src/draw/sw/blend/lv_draw_sw_blend_to_i1.c **** }
 6655              		.loc 1 1258 12 view .LVU2155
 6656              	.LBE862:
 6657              	.LBE861:
 836:Drivers/lvgl/src/draw/sw/blend/lv_draw_sw_blend_to_i1.c ****         }
 6658              		.loc 1 836 13 is_stmt 1 view .LVU2156
 6659              	.LBB863:
 6660              	.LBI863:
1256:Drivers/lvgl/src/draw/sw/blend/lv_draw_sw_blend_to_i1.c **** {
 6661              		.loc 1 1256 44 view .LVU2157
 6662              	.LBB864:
1258:Drivers/lvgl/src/draw/sw/blend/lv_draw_sw_blend_to_i1.c **** }
 6663              		.loc 1 1258 5 view .LVU2158
1258:Drivers/lvgl/src/draw/sw/blend/lv_draw_sw_blend_to_i1.c **** }
 6664              		.loc 1 1258 12 is_stmt 0 view .LVU2159
 6665 036e 049B     		ldr	r3, [sp, #16]
 6666 0370 1F44     		add	r7, r7, r3
 6667              	.LVL703:
1258:Drivers/lvgl/src/draw/sw/blend/lv_draw_sw_blend_to_i1.c **** }
 6668              		.loc 1 1258 12 view .LVU2160
 6669              	.LBE864:
 6670              	.LBE863:
 827:Drivers/lvgl/src/draw/sw/blend/lv_draw_sw_blend_to_i1.c ****             for(x = 0; x < w; x++) {
 6671              		.loc 1 827 28 is_stmt 1 discriminator 2 view .LVU2161
 6672 0372 0CF1010C 		add	ip, ip, #1
 6673              	.LVL704:
 6674              	.L323:
 827:Drivers/lvgl/src/draw/sw/blend/lv_draw_sw_blend_to_i1.c ****             for(x = 0; x < w; x++) {
 6675              		.loc 1 827 22 discriminator 1 view .LVU2162
 6676 0376 019B     		ldr	r3, [sp, #4]
 6677 0378 9C45     		cmp	ip, r3
ARM GAS  /var/folders/qx/2_175_4n2s19vhvtspjhb3qh0000gn/T//ccaVas4T.s 			page 185


 6678 037a 0FDA     		bge	.L322
 828:Drivers/lvgl/src/draw/sw/blend/lv_draw_sw_blend_to_i1.c ****                 lv_color32_t color_argb = src_buf_c32[x];
 6679              		.loc 1 828 19 is_stmt 0 view .LVU2163
 6680 037c 0025     		movs	r5, #0
 6681 037e CDF800C0 		str	ip, [sp]
 6682 0382 DEE7     		b	.L355
 6683              	.LVL705:
 6684              	.L356:
 828:Drivers/lvgl/src/draw/sw/blend/lv_draw_sw_blend_to_i1.c ****                 lv_color32_t color_argb = src_buf_c32[x];
 6685              		.loc 1 828 19 view .LVU2164
 6686 0384 8046     		mov	r8, r0
 827:Drivers/lvgl/src/draw/sw/blend/lv_draw_sw_blend_to_i1.c ****             for(x = 0; x < w; x++) {
 6687              		.loc 1 827 15 view .LVU2165
 6688 0386 4FF00009 		mov	r9, #0
 6689 038a 3946     		mov	r1, r7
 6690 038c 3746     		mov	r7, r6
 6691              	.LVL706:
 827:Drivers/lvgl/src/draw/sw/blend/lv_draw_sw_blend_to_i1.c ****             for(x = 0; x < w; x++) {
 6692              		.loc 1 827 15 view .LVU2166
 6693 038e 6246     		mov	r2, ip
 6694 0390 CC46     		mov	ip, r9
 6695              	.LVL707:
 827:Drivers/lvgl/src/draw/sw/blend/lv_draw_sw_blend_to_i1.c ****             for(x = 0; x < w; x++) {
 6696              		.loc 1 827 15 view .LVU2167
 6697 0392 A146     		mov	r9, r4
 6698 0394 0293     		str	r3, [sp, #8]
 6699 0396 1446     		mov	r4, r2
 6700              	.LVL708:
 827:Drivers/lvgl/src/draw/sw/blend/lv_draw_sw_blend_to_i1.c ****             for(x = 0; x < w; x++) {
 6701              		.loc 1 827 15 view .LVU2168
 6702 0398 0E46     		mov	r6, r1
 6703              	.LVL709:
 827:Drivers/lvgl/src/draw/sw/blend/lv_draw_sw_blend_to_i1.c ****             for(x = 0; x < w; x++) {
 6704              		.loc 1 827 15 view .LVU2169
 6705 039a ECE7     		b	.L323
 6706              	.LVL710:
 6707              	.L322:
 839:Drivers/lvgl/src/draw/sw/blend/lv_draw_sw_blend_to_i1.c **** #endif
 6708              		.loc 1 839 1 view .LVU2170
 6709 039c 0BB0     		add	sp, sp, #44
 6710              	.LCFI21:
 6711              		.cfi_def_cfa_offset 36
 6712              		@ sp needed
 6713 039e BDE8F08F 		pop	{r4, r5, r6, r7, r8, r9, r10, fp, pc}
 839:Drivers/lvgl/src/draw/sw/blend/lv_draw_sw_blend_to_i1.c **** #endif
 6714              		.loc 1 839 1 view .LVU2171
 6715              		.cfi_endproc
 6716              	.LFE186:
 6718              		.section	.text.rgb888_image_blend,"ax",%progbits
 6719              		.align	1
 6720              		.syntax unified
 6721              		.thumb
 6722              		.thumb_func
 6724              	rgb888_image_blend:
 6725              	.LVL711:
 6726              	.LFB187:
 845:Drivers/lvgl/src/draw/sw/blend/lv_draw_sw_blend_to_i1.c ****     int32_t w = dsc->dest_w;
ARM GAS  /var/folders/qx/2_175_4n2s19vhvtspjhb3qh0000gn/T//ccaVas4T.s 			page 186


 6727              		.loc 1 845 1 is_stmt 1 view -0
 6728              		.cfi_startproc
 6729              		@ args = 0, pretend = 0, frame = 48
 6730              		@ frame_needed = 0, uses_anonymous_args = 0
 845:Drivers/lvgl/src/draw/sw/blend/lv_draw_sw_blend_to_i1.c ****     int32_t w = dsc->dest_w;
 6731              		.loc 1 845 1 is_stmt 0 view .LVU2173
 6732 0000 2DE9F04F 		push	{r4, r5, r6, r7, r8, r9, r10, fp, lr}
 6733              	.LCFI22:
 6734              		.cfi_def_cfa_offset 36
 6735              		.cfi_offset 4, -36
 6736              		.cfi_offset 5, -32
 6737              		.cfi_offset 6, -28
 6738              		.cfi_offset 7, -24
 6739              		.cfi_offset 8, -20
 6740              		.cfi_offset 9, -16
 6741              		.cfi_offset 10, -12
 6742              		.cfi_offset 11, -8
 6743              		.cfi_offset 14, -4
 6744 0004 8DB0     		sub	sp, sp, #52
 6745              	.LCFI23:
 6746              		.cfi_def_cfa_offset 88
 6747 0006 0191     		str	r1, [sp, #4]
 846:Drivers/lvgl/src/draw/sw/blend/lv_draw_sw_blend_to_i1.c ****     int32_t h = dsc->dest_h;
 6748              		.loc 1 846 5 is_stmt 1 view .LVU2174
 846:Drivers/lvgl/src/draw/sw/blend/lv_draw_sw_blend_to_i1.c ****     int32_t h = dsc->dest_h;
 6749              		.loc 1 846 13 is_stmt 0 view .LVU2175
 6750 0008 D0F80480 		ldr	r8, [r0, #4]
 6751              	.LVL712:
 847:Drivers/lvgl/src/draw/sw/blend/lv_draw_sw_blend_to_i1.c ****     lv_opa_t opa = dsc->opa;
 6752              		.loc 1 847 5 is_stmt 1 view .LVU2176
 847:Drivers/lvgl/src/draw/sw/blend/lv_draw_sw_blend_to_i1.c ****     lv_opa_t opa = dsc->opa;
 6753              		.loc 1 847 13 is_stmt 0 view .LVU2177
 6754 000c D0F808C0 		ldr	ip, [r0, #8]
 6755              	.LVL713:
 848:Drivers/lvgl/src/draw/sw/blend/lv_draw_sw_blend_to_i1.c ****     uint8_t * dest_buf_i1 = dsc->dest_buf;
 6756              		.loc 1 848 5 is_stmt 1 view .LVU2178
 848:Drivers/lvgl/src/draw/sw/blend/lv_draw_sw_blend_to_i1.c ****     uint8_t * dest_buf_i1 = dsc->dest_buf;
 6757              		.loc 1 848 14 is_stmt 0 view .LVU2179
 6758 0010 90F82130 		ldrb	r3, [r0, #33]	@ zero_extendqisi2
 6759 0014 0293     		str	r3, [sp, #8]
 6760              	.LVL714:
 849:Drivers/lvgl/src/draw/sw/blend/lv_draw_sw_blend_to_i1.c ****     int32_t dest_stride = dsc->dest_stride;
 6761              		.loc 1 849 5 is_stmt 1 view .LVU2180
 849:Drivers/lvgl/src/draw/sw/blend/lv_draw_sw_blend_to_i1.c ****     int32_t dest_stride = dsc->dest_stride;
 6762              		.loc 1 849 15 is_stmt 0 view .LVU2181
 6763 0016 0568     		ldr	r5, [r0]
 6764              	.LVL715:
 850:Drivers/lvgl/src/draw/sw/blend/lv_draw_sw_blend_to_i1.c ****     const uint8_t * src_buf_rgb888 = dsc->src_buf;
 6765              		.loc 1 850 5 is_stmt 1 view .LVU2182
 850:Drivers/lvgl/src/draw/sw/blend/lv_draw_sw_blend_to_i1.c ****     const uint8_t * src_buf_rgb888 = dsc->src_buf;
 6766              		.loc 1 850 13 is_stmt 0 view .LVU2183
 6767 0018 C368     		ldr	r3, [r0, #12]
 6768 001a 0593     		str	r3, [sp, #20]
 6769              	.LVL716:
 851:Drivers/lvgl/src/draw/sw/blend/lv_draw_sw_blend_to_i1.c ****     int32_t src_stride = dsc->src_stride;
 6770              		.loc 1 851 5 is_stmt 1 view .LVU2184
 851:Drivers/lvgl/src/draw/sw/blend/lv_draw_sw_blend_to_i1.c ****     int32_t src_stride = dsc->src_stride;
ARM GAS  /var/folders/qx/2_175_4n2s19vhvtspjhb3qh0000gn/T//ccaVas4T.s 			page 187


 6771              		.loc 1 851 21 is_stmt 0 view .LVU2185
 6772 001c 8769     		ldr	r7, [r0, #24]
 6773              	.LVL717:
 852:Drivers/lvgl/src/draw/sw/blend/lv_draw_sw_blend_to_i1.c ****     const lv_opa_t * mask_buf = dsc->mask_buf;
 6774              		.loc 1 852 5 is_stmt 1 view .LVU2186
 852:Drivers/lvgl/src/draw/sw/blend/lv_draw_sw_blend_to_i1.c ****     const lv_opa_t * mask_buf = dsc->mask_buf;
 6775              		.loc 1 852 13 is_stmt 0 view .LVU2187
 6776 001e C369     		ldr	r3, [r0, #28]
 6777              	.LVL718:
 852:Drivers/lvgl/src/draw/sw/blend/lv_draw_sw_blend_to_i1.c ****     const lv_opa_t * mask_buf = dsc->mask_buf;
 6778              		.loc 1 852 13 view .LVU2188
 6779 0020 0693     		str	r3, [sp, #24]
 6780              	.LVL719:
 853:Drivers/lvgl/src/draw/sw/blend/lv_draw_sw_blend_to_i1.c ****     int32_t mask_stride = dsc->mask_stride;
 6781              		.loc 1 853 5 is_stmt 1 view .LVU2189
 853:Drivers/lvgl/src/draw/sw/blend/lv_draw_sw_blend_to_i1.c ****     int32_t mask_stride = dsc->mask_stride;
 6782              		.loc 1 853 22 is_stmt 0 view .LVU2190
 6783 0022 0269     		ldr	r2, [r0, #16]
 6784              	.LVL720:
 854:Drivers/lvgl/src/draw/sw/blend/lv_draw_sw_blend_to_i1.c **** 
 6785              		.loc 1 854 5 is_stmt 1 view .LVU2191
 854:Drivers/lvgl/src/draw/sw/blend/lv_draw_sw_blend_to_i1.c **** 
 6786              		.loc 1 854 13 is_stmt 0 view .LVU2192
 6787 0024 D0F814E0 		ldr	lr, [r0, #20]
 6788              	.LVL721:
 856:Drivers/lvgl/src/draw/sw/blend/lv_draw_sw_blend_to_i1.c ****     int32_t src_x;
 6789              		.loc 1 856 5 is_stmt 1 view .LVU2193
 857:Drivers/lvgl/src/draw/sw/blend/lv_draw_sw_blend_to_i1.c ****     int32_t y;
 6790              		.loc 1 857 5 view .LVU2194
 858:Drivers/lvgl/src/draw/sw/blend/lv_draw_sw_blend_to_i1.c **** 
 6791              		.loc 1 858 5 view .LVU2195
 860:Drivers/lvgl/src/draw/sw/blend/lv_draw_sw_blend_to_i1.c **** 
 6792              		.loc 1 860 5 view .LVU2196
 860:Drivers/lvgl/src/draw/sw/blend/lv_draw_sw_blend_to_i1.c **** 
 6793              		.loc 1 860 41 is_stmt 0 view .LVU2197
 6794 0028 416A     		ldr	r1, [r0, #36]
 6795              	.LVL722:
 860:Drivers/lvgl/src/draw/sw/blend/lv_draw_sw_blend_to_i1.c **** 
 6796              		.loc 1 860 13 view .LVU2198
 6797 002a 4B42     		rsbs	r3, r1, #0
 6798              	.LVL723:
 860:Drivers/lvgl/src/draw/sw/blend/lv_draw_sw_blend_to_i1.c **** 
 6799              		.loc 1 860 13 view .LVU2199
 6800 002c 01F00701 		and	r1, r1, #7
 6801 0030 03F00703 		and	r3, r3, #7
 6802 0034 58BF     		it	pl
 6803 0036 5942     		rsbpl	r1, r3, #0
 6804              	.LVL724:
 863:Drivers/lvgl/src/draw/sw/blend/lv_draw_sw_blend_to_i1.c ****         /*Special case*/
 6805              		.loc 1 863 5 is_stmt 1 view .LVU2200
 863:Drivers/lvgl/src/draw/sw/blend/lv_draw_sw_blend_to_i1.c ****         /*Special case*/
 6806              		.loc 1 863 11 is_stmt 0 view .LVU2201
 6807 0038 90F82230 		ldrb	r3, [r0, #34]	@ zero_extendqisi2
 863:Drivers/lvgl/src/draw/sw/blend/lv_draw_sw_blend_to_i1.c ****         /*Special case*/
 6808              		.loc 1 863 7 view .LVU2202
 6809 003c 002B     		cmp	r3, #0
 6810 003e 40F0B581 		bne	.L379
ARM GAS  /var/folders/qx/2_175_4n2s19vhvtspjhb3qh0000gn/T//ccaVas4T.s 			page 188


 6811 0042 8146     		mov	r9, r0
 865:Drivers/lvgl/src/draw/sw/blend/lv_draw_sw_blend_to_i1.c ****             if(LV_RESULT_INVALID == LV_DRAW_SW_RGB888_BLEND_NORMAL_TO_I1(dsc)) {
 6812              		.loc 1 865 9 is_stmt 1 view .LVU2203
 865:Drivers/lvgl/src/draw/sw/blend/lv_draw_sw_blend_to_i1.c ****             if(LV_RESULT_INVALID == LV_DRAW_SW_RGB888_BLEND_NORMAL_TO_I1(dsc)) {
 6813              		.loc 1 865 11 is_stmt 0 view .LVU2204
 6814 0044 B2B1     		cbz	r2, .L425
 901:Drivers/lvgl/src/draw/sw/blend/lv_draw_sw_blend_to_i1.c ****             if(LV_RESULT_INVALID == LV_DRAW_SW_RGB888_BLEND_NORMAL_TO_I1_WITH_MASK(dsc)) {
 6815              		.loc 1 901 14 is_stmt 1 view .LVU2205
 901:Drivers/lvgl/src/draw/sw/blend/lv_draw_sw_blend_to_i1.c ****             if(LV_RESULT_INVALID == LV_DRAW_SW_RGB888_BLEND_NORMAL_TO_I1_WITH_MASK(dsc)) {
 6816              		.loc 1 901 16 is_stmt 0 view .LVU2206
 6817 0046 1AB1     		cbz	r2, .L395
 901:Drivers/lvgl/src/draw/sw/blend/lv_draw_sw_blend_to_i1.c ****             if(LV_RESULT_INVALID == LV_DRAW_SW_RGB888_BLEND_NORMAL_TO_I1_WITH_MASK(dsc)) {
 6818              		.loc 1 901 26 discriminator 1 view .LVU2207
 6819 0048 029B     		ldr	r3, [sp, #8]
 6820 004a FC2B     		cmp	r3, #252
 6821 004c 00F20781 		bhi	.L418
 6822              	.L395:
 922:Drivers/lvgl/src/draw/sw/blend/lv_draw_sw_blend_to_i1.c ****             if(LV_RESULT_INVALID == LV_DRAW_SW_RGB888_BLEND_NORMAL_TO_I1_MIX_MASK_OPA(dsc)) {
 6823              		.loc 1 922 14 is_stmt 1 view .LVU2208
 922:Drivers/lvgl/src/draw/sw/blend/lv_draw_sw_blend_to_i1.c ****             if(LV_RESULT_INVALID == LV_DRAW_SW_RGB888_BLEND_NORMAL_TO_I1_MIX_MASK_OPA(dsc)) {
 6824              		.loc 1 922 16 is_stmt 0 view .LVU2209
 6825 0050 002A     		cmp	r2, #0
 6826 0052 00F0A081 		beq	.L420
 922:Drivers/lvgl/src/draw/sw/blend/lv_draw_sw_blend_to_i1.c ****             if(LV_RESULT_INVALID == LV_DRAW_SW_RGB888_BLEND_NORMAL_TO_I1_MIX_MASK_OPA(dsc)) {
 6827              		.loc 1 922 26 discriminator 1 view .LVU2210
 6828 0056 029B     		ldr	r3, [sp, #8]
 6829 0058 FC2B     		cmp	r3, #252
 6830 005a 40F25A81 		bls	.L421
 6831 005e 4FF0000A 		mov	r10, #0
 6832 0062 5046     		mov	r0, r10
 6833              	.LVL725:
 922:Drivers/lvgl/src/draw/sw/blend/lv_draw_sw_blend_to_i1.c ****             if(LV_RESULT_INVALID == LV_DRAW_SW_RGB888_BLEND_NORMAL_TO_I1_MIX_MASK_OPA(dsc)) {
 6834              		.loc 1 922 26 discriminator 1 view .LVU2211
 6835 0064 AA46     		mov	r10, r5
 6836 0066 1546     		mov	r5, r2
 6837              	.LVL726:
 922:Drivers/lvgl/src/draw/sw/blend/lv_draw_sw_blend_to_i1.c ****             if(LV_RESULT_INVALID == LV_DRAW_SW_RGB888_BLEND_NORMAL_TO_I1_MIX_MASK_OPA(dsc)) {
 6838              		.loc 1 922 26 discriminator 1 view .LVU2212
 6839 0068 CDF810C0 		str	ip, [sp, #16]
 6840 006c CDF81CE0 		str	lr, [sp, #28]
 6841 0070 8B46     		mov	fp, r1
 6842 0072 89E1     		b	.L413
 6843              	.LVL727:
 6844              	.L425:
 865:Drivers/lvgl/src/draw/sw/blend/lv_draw_sw_blend_to_i1.c ****             if(LV_RESULT_INVALID == LV_DRAW_SW_RGB888_BLEND_NORMAL_TO_I1(dsc)) {
 6845              		.loc 1 865 29 discriminator 1 view .LVU2213
 6846 0074 029B     		ldr	r3, [sp, #8]
 6847 0076 FC2B     		cmp	r3, #252
 6848 0078 4ED8     		bhi	.L415
 884:Drivers/lvgl/src/draw/sw/blend/lv_draw_sw_blend_to_i1.c ****                     for(dest_x = 0, src_x = 0; dest_x < w; dest_x++, src_x += src_px_size) {
 6849              		.loc 1 884 23 view .LVU2214
 6850 007a 4FF0000B 		mov	fp, #0
 6851 007e AA46     		mov	r10, r5
 6852 0080 CDF810C0 		str	ip, [sp, #16]
 6853 0084 0D46     		mov	r5, r1
 6854              	.LVL728:
 884:Drivers/lvgl/src/draw/sw/blend/lv_draw_sw_blend_to_i1.c ****                     for(dest_x = 0, src_x = 0; dest_x < w; dest_x++, src_x += src_px_size) {
ARM GAS  /var/folders/qx/2_175_4n2s19vhvtspjhb3qh0000gn/T//ccaVas4T.s 			page 189


 6855              		.loc 1 884 23 view .LVU2215
 6856 0086 95E0     		b	.L383
 6857              	.LVL729:
 6858              	.L428:
 6859              	.LBB865:
 871:Drivers/lvgl/src/draw/sw/blend/lv_draw_sw_blend_to_i1.c ****                         }
 6860              		.loc 1 871 29 is_stmt 1 view .LVU2216
 6861 0088 04EB0A03 		add	r3, r4, r10
 6862              	.LVL730:
 6863              	.LBB866:
 6864              	.LBI866:
1261:Drivers/lvgl/src/draw/sw/blend/lv_draw_sw_blend_to_i1.c **** {
 6865              		.loc 1 1261 42 view .LVU2217
 6866              	.LBB867:
1263:Drivers/lvgl/src/draw/sw/blend/lv_draw_sw_blend_to_i1.c **** }
 6867              		.loc 1 1263 5 view .LVU2218
1263:Drivers/lvgl/src/draw/sw/blend/lv_draw_sw_blend_to_i1.c **** }
 6868              		.loc 1 1263 17 is_stmt 0 view .LVU2219
 6869 008c 1A46     		mov	r2, r3
 6870 008e 002B     		cmp	r3, #0
 6871 0090 10DB     		blt	.L426
 6872              	.L385:
1263:Drivers/lvgl/src/draw/sw/blend/lv_draw_sw_blend_to_i1.c **** }
 6873              		.loc 1 1263 17 view .LVU2220
 6874 0092 D210     		asrs	r2, r2, #3
1263:Drivers/lvgl/src/draw/sw/blend/lv_draw_sw_blend_to_i1.c **** }
 6875              		.loc 1 1263 8 view .LVU2221
 6876 0094 A95C     		ldrb	r1, [r5, r2]	@ zero_extendqisi2
1263:Drivers/lvgl/src/draw/sw/blend/lv_draw_sw_blend_to_i1.c **** }
 6877              		.loc 1 1263 45 view .LVU2222
 6878 0096 5842     		rsbs	r0, r3, #0
 6879              	.LVL731:
1263:Drivers/lvgl/src/draw/sw/blend/lv_draw_sw_blend_to_i1.c **** }
 6880              		.loc 1 1263 45 view .LVU2223
 6881 0098 03F00703 		and	r3, r3, #7
 6882              	.LVL732:
1263:Drivers/lvgl/src/draw/sw/blend/lv_draw_sw_blend_to_i1.c **** }
 6883              		.loc 1 1263 45 view .LVU2224
 6884 009c 00F00700 		and	r0, r0, #7
 6885 00a0 58BF     		it	pl
 6886 00a2 4342     		rsbpl	r3, r0, #0
1263:Drivers/lvgl/src/draw/sw/blend/lv_draw_sw_blend_to_i1.c **** }
 6887              		.loc 1 1263 34 view .LVU2225
 6888 00a4 C3F10703 		rsb	r3, r3, #7
1263:Drivers/lvgl/src/draw/sw/blend/lv_draw_sw_blend_to_i1.c **** }
 6889              		.loc 1 1263 28 view .LVU2226
 6890 00a8 0120     		movs	r0, #1
 6891 00aa 00FA03F3 		lsl	r3, r0, r3
1263:Drivers/lvgl/src/draw/sw/blend/lv_draw_sw_blend_to_i1.c **** }
 6892              		.loc 1 1263 22 view .LVU2227
 6893 00ae 0B43     		orrs	r3, r3, r1
 6894 00b0 AB54     		strb	r3, [r5, r2]
 6895              	.LVL733:
1264:Drivers/lvgl/src/draw/sw/blend/lv_draw_sw_blend_to_i1.c **** 
 6896              		.loc 1 1264 1 view .LVU2228
 6897 00b2 13E0     		b	.L386
 6898              	.LVL734:
ARM GAS  /var/folders/qx/2_175_4n2s19vhvtspjhb3qh0000gn/T//ccaVas4T.s 			page 190


 6899              	.L426:
1263:Drivers/lvgl/src/draw/sw/blend/lv_draw_sw_blend_to_i1.c **** }
 6900              		.loc 1 1263 17 view .LVU2229
 6901 00b4 DA1D     		adds	r2, r3, #7
 6902              	.LVL735:
1263:Drivers/lvgl/src/draw/sw/blend/lv_draw_sw_blend_to_i1.c **** }
 6903              		.loc 1 1263 17 view .LVU2230
 6904 00b6 ECE7     		b	.L385
 6905              	.LVL736:
 6906              	.L387:
1263:Drivers/lvgl/src/draw/sw/blend/lv_draw_sw_blend_to_i1.c **** }
 6907              		.loc 1 1263 17 view .LVU2231
 6908              	.LBE867:
 6909              	.LBE866:
 6910              	.LBB868:
 6911              	.LBB869:
1268:Drivers/lvgl/src/draw/sw/blend/lv_draw_sw_blend_to_i1.c **** }
 6912              		.loc 1 1268 17 view .LVU2232
 6913 00b8 D210     		asrs	r2, r2, #3
1268:Drivers/lvgl/src/draw/sw/blend/lv_draw_sw_blend_to_i1.c **** }
 6914              		.loc 1 1268 8 view .LVU2233
 6915 00ba A95C     		ldrb	r1, [r5, r2]	@ zero_extendqisi2
1268:Drivers/lvgl/src/draw/sw/blend/lv_draw_sw_blend_to_i1.c **** }
 6916              		.loc 1 1268 46 view .LVU2234
 6917 00bc 5842     		rsbs	r0, r3, #0
 6918              	.LVL737:
1268:Drivers/lvgl/src/draw/sw/blend/lv_draw_sw_blend_to_i1.c **** }
 6919              		.loc 1 1268 46 view .LVU2235
 6920 00be 03F00703 		and	r3, r3, #7
 6921              	.LVL738:
1268:Drivers/lvgl/src/draw/sw/blend/lv_draw_sw_blend_to_i1.c **** }
 6922              		.loc 1 1268 46 view .LVU2236
 6923 00c2 00F00700 		and	r0, r0, #7
 6924 00c6 58BF     		it	pl
 6925 00c8 4342     		rsbpl	r3, r0, #0
1268:Drivers/lvgl/src/draw/sw/blend/lv_draw_sw_blend_to_i1.c **** }
 6926              		.loc 1 1268 35 view .LVU2237
 6927 00ca C3F10703 		rsb	r3, r3, #7
1268:Drivers/lvgl/src/draw/sw/blend/lv_draw_sw_blend_to_i1.c **** }
 6928              		.loc 1 1268 29 view .LVU2238
 6929 00ce 0120     		movs	r0, #1
 6930 00d0 00FA03F3 		lsl	r3, r0, r3
1268:Drivers/lvgl/src/draw/sw/blend/lv_draw_sw_blend_to_i1.c **** }
 6931              		.loc 1 1268 22 view .LVU2239
 6932 00d4 DB43     		mvns	r3, r3
 6933 00d6 5BB2     		sxtb	r3, r3
 6934 00d8 1940     		ands	r1, r1, r3
 6935 00da A954     		strb	r1, [r5, r2]
 6936              	.LVL739:
 6937              	.L386:
1268:Drivers/lvgl/src/draw/sw/blend/lv_draw_sw_blend_to_i1.c **** }
 6938              		.loc 1 1268 22 view .LVU2240
 6939              	.LBE869:
 6940              	.LBE868:
 6941              	.LBE865:
 868:Drivers/lvgl/src/draw/sw/blend/lv_draw_sw_blend_to_i1.c ****                         uint8_t src = lv_color24_luminance(&src_buf_rgb888[src_x]);
 6942              		.loc 1 868 68 is_stmt 1 discriminator 2 view .LVU2241
ARM GAS  /var/folders/qx/2_175_4n2s19vhvtspjhb3qh0000gn/T//ccaVas4T.s 			page 191


 868:Drivers/lvgl/src/draw/sw/blend/lv_draw_sw_blend_to_i1.c ****                         uint8_t src = lv_color24_luminance(&src_buf_rgb888[src_x]);
 6943              		.loc 1 868 66 is_stmt 0 discriminator 2 view .LVU2242
 6944 00dc 0134     		adds	r4, r4, #1
 6945              	.LVL740:
 868:Drivers/lvgl/src/draw/sw/blend/lv_draw_sw_blend_to_i1.c ****                         uint8_t src = lv_color24_luminance(&src_buf_rgb888[src_x]);
 6946              		.loc 1 868 76 discriminator 2 view .LVU2243
 6947 00de 5E44     		add	r6, r6, fp
 6948              	.LVL741:
 6949              	.L389:
 868:Drivers/lvgl/src/draw/sw/blend/lv_draw_sw_blend_to_i1.c ****                         uint8_t src = lv_color24_luminance(&src_buf_rgb888[src_x]);
 6950              		.loc 1 868 55 is_stmt 1 discriminator 1 view .LVU2244
 6951 00e0 4445     		cmp	r4, r8
 6952 00e2 0DDA     		bge	.L427
 6953              	.LBB872:
 869:Drivers/lvgl/src/draw/sw/blend/lv_draw_sw_blend_to_i1.c ****                         if(src > I1_LUM_THRESHOLD) {
 6954              		.loc 1 869 25 view .LVU2245
 869:Drivers/lvgl/src/draw/sw/blend/lv_draw_sw_blend_to_i1.c ****                         if(src > I1_LUM_THRESHOLD) {
 6955              		.loc 1 869 39 is_stmt 0 view .LVU2246
 6956 00e4 09EB0600 		add	r0, r9, r6
 6957 00e8 FFF7FEFF 		bl	lv_color24_luminance
 6958              	.LVL742:
 870:Drivers/lvgl/src/draw/sw/blend/lv_draw_sw_blend_to_i1.c ****                             set_bit(dest_buf_i1, dest_x + bit_ofs);
 6959              		.loc 1 870 25 is_stmt 1 view .LVU2247
 870:Drivers/lvgl/src/draw/sw/blend/lv_draw_sw_blend_to_i1.c ****                             set_bit(dest_buf_i1, dest_x + bit_ofs);
 6960              		.loc 1 870 27 is_stmt 0 view .LVU2248
 6961 00ec 10F0800F 		tst	r0, #128
 6962 00f0 CAD1     		bne	.L428
 874:Drivers/lvgl/src/draw/sw/blend/lv_draw_sw_blend_to_i1.c ****                         }
 6963              		.loc 1 874 29 is_stmt 1 view .LVU2249
 6964 00f2 04EB0A03 		add	r3, r4, r10
 6965              	.LVL743:
 6966              	.LBB871:
 6967              	.LBI868:
1266:Drivers/lvgl/src/draw/sw/blend/lv_draw_sw_blend_to_i1.c **** {
 6968              		.loc 1 1266 42 view .LVU2250
 6969              	.LBB870:
1268:Drivers/lvgl/src/draw/sw/blend/lv_draw_sw_blend_to_i1.c **** }
 6970              		.loc 1 1268 5 view .LVU2251
1268:Drivers/lvgl/src/draw/sw/blend/lv_draw_sw_blend_to_i1.c **** }
 6971              		.loc 1 1268 17 is_stmt 0 view .LVU2252
 6972 00f6 1A46     		mov	r2, r3
 6973 00f8 002B     		cmp	r3, #0
 6974 00fa DDDA     		bge	.L387
1268:Drivers/lvgl/src/draw/sw/blend/lv_draw_sw_blend_to_i1.c **** }
 6975              		.loc 1 1268 17 view .LVU2253
 6976 00fc DA1D     		adds	r2, r3, #7
 6977 00fe DBE7     		b	.L387
 6978              	.LVL744:
 6979              	.L427:
1268:Drivers/lvgl/src/draw/sw/blend/lv_draw_sw_blend_to_i1.c **** }
 6980              		.loc 1 1268 17 view .LVU2254
 6981              	.LBE870:
 6982              	.LBE871:
 6983              	.LBE872:
 877:Drivers/lvgl/src/draw/sw/blend/lv_draw_sw_blend_to_i1.c ****                     src_buf_rgb888 = drawbuf_next_row(src_buf_rgb888, src_stride);
 6984              		.loc 1 877 21 is_stmt 1 view .LVU2255
 6985              	.LBB873:
ARM GAS  /var/folders/qx/2_175_4n2s19vhvtspjhb3qh0000gn/T//ccaVas4T.s 			page 192


 6986              	.LBI873:
1256:Drivers/lvgl/src/draw/sw/blend/lv_draw_sw_blend_to_i1.c **** {
 6987              		.loc 1 1256 44 view .LVU2256
 6988              	.LBB874:
1258:Drivers/lvgl/src/draw/sw/blend/lv_draw_sw_blend_to_i1.c **** }
 6989              		.loc 1 1258 5 view .LVU2257
1258:Drivers/lvgl/src/draw/sw/blend/lv_draw_sw_blend_to_i1.c **** }
 6990              		.loc 1 1258 12 is_stmt 0 view .LVU2258
 6991 0100 059B     		ldr	r3, [sp, #20]
 6992 0102 1D44     		add	r5, r5, r3
 6993              	.LVL745:
1258:Drivers/lvgl/src/draw/sw/blend/lv_draw_sw_blend_to_i1.c **** }
 6994              		.loc 1 1258 12 view .LVU2259
 6995              	.LBE874:
 6996              	.LBE873:
 878:Drivers/lvgl/src/draw/sw/blend/lv_draw_sw_blend_to_i1.c ****                 }
 6997              		.loc 1 878 21 is_stmt 1 view .LVU2260
 6998              	.LBB875:
 6999              	.LBI875:
1256:Drivers/lvgl/src/draw/sw/blend/lv_draw_sw_blend_to_i1.c **** {
 7000              		.loc 1 1256 44 view .LVU2261
 7001              	.LBB876:
1258:Drivers/lvgl/src/draw/sw/blend/lv_draw_sw_blend_to_i1.c **** }
 7002              		.loc 1 1258 5 view .LVU2262
1258:Drivers/lvgl/src/draw/sw/blend/lv_draw_sw_blend_to_i1.c **** }
 7003              		.loc 1 1258 12 is_stmt 0 view .LVU2263
 7004 0104 069B     		ldr	r3, [sp, #24]
 7005 0106 9944     		add	r9, r9, r3
 7006              	.LVL746:
1258:Drivers/lvgl/src/draw/sw/blend/lv_draw_sw_blend_to_i1.c **** }
 7007              		.loc 1 1258 12 view .LVU2264
 7008              	.LBE876:
 7009              	.LBE875:
 867:Drivers/lvgl/src/draw/sw/blend/lv_draw_sw_blend_to_i1.c ****                     for(dest_x = 0, src_x = 0; dest_x < w; dest_x++, src_x += src_px_size) {
 7010              		.loc 1 867 36 is_stmt 1 discriminator 2 view .LVU2265
 7011 0108 0137     		adds	r7, r7, #1
 7012              	.LVL747:
 7013              	.L382:
 867:Drivers/lvgl/src/draw/sw/blend/lv_draw_sw_blend_to_i1.c ****                     for(dest_x = 0, src_x = 0; dest_x < w; dest_x++, src_x += src_px_size) {
 7014              		.loc 1 867 30 discriminator 1 view .LVU2266
 7015 010a 029B     		ldr	r3, [sp, #8]
 7016 010c 9F42     		cmp	r7, r3
 7017 010e 80F24D81 		bge	.L379
 868:Drivers/lvgl/src/draw/sw/blend/lv_draw_sw_blend_to_i1.c ****                         uint8_t src = lv_color24_luminance(&src_buf_rgb888[src_x]);
 7018              		.loc 1 868 43 is_stmt 0 view .LVU2267
 7019 0112 0026     		movs	r6, #0
 868:Drivers/lvgl/src/draw/sw/blend/lv_draw_sw_blend_to_i1.c ****                         uint8_t src = lv_color24_luminance(&src_buf_rgb888[src_x]);
 7020              		.loc 1 868 32 view .LVU2268
 7021 0114 3446     		mov	r4, r6
 7022 0116 E3E7     		b	.L389
 7023              	.LVL748:
 7024              	.L415:
 867:Drivers/lvgl/src/draw/sw/blend/lv_draw_sw_blend_to_i1.c ****                     for(dest_x = 0, src_x = 0; dest_x < w; dest_x++, src_x += src_px_size) {
 7025              		.loc 1 867 23 view .LVU2269
 7026 0118 4FF00009 		mov	r9, #0
 7027 011c 4B46     		mov	r3, r9
 7028 011e B946     		mov	r9, r7
ARM GAS  /var/folders/qx/2_175_4n2s19vhvtspjhb3qh0000gn/T//ccaVas4T.s 			page 193


 7029 0120 CDF808C0 		str	ip, [sp, #8]
 7030              	.LVL749:
 867:Drivers/lvgl/src/draw/sw/blend/lv_draw_sw_blend_to_i1.c ****                     for(dest_x = 0, src_x = 0; dest_x < w; dest_x++, src_x += src_px_size) {
 7031              		.loc 1 867 23 view .LVU2270
 7032 0124 8A46     		mov	r10, r1
 7033 0126 DDF804B0 		ldr	fp, [sp, #4]
 7034 012a 1F46     		mov	r7, r3
 7035              	.LVL750:
 867:Drivers/lvgl/src/draw/sw/blend/lv_draw_sw_blend_to_i1.c ****                     for(dest_x = 0, src_x = 0; dest_x < w; dest_x++, src_x += src_px_size) {
 7036              		.loc 1 867 23 view .LVU2271
 7037 012c EDE7     		b	.L382
 7038              	.LVL751:
 7039              	.L430:
 7040              	.LBB877:
 7041              	.LBB878:
 7042              	.LBB879:
1273:Drivers/lvgl/src/draw/sw/blend/lv_draw_sw_blend_to_i1.c **** }
 7043              		.loc 1 1273 25 view .LVU2272
 7044 012e 04F1070B 		add	fp, r4, #7
 7045 0132 13E0     		b	.L390
 7046              	.LVL752:
 7047              	.L431:
1273:Drivers/lvgl/src/draw/sw/blend/lv_draw_sw_blend_to_i1.c **** }
 7048              		.loc 1 1273 25 view .LVU2273
 7049              	.LBE879:
 7050              	.LBE878:
 890:Drivers/lvgl/src/draw/sw/blend/lv_draw_sw_blend_to_i1.c ****                         }
 7051              		.loc 1 890 29 is_stmt 1 view .LVU2274
 7052              	.LBB881:
 7053              	.LBI881:
1261:Drivers/lvgl/src/draw/sw/blend/lv_draw_sw_blend_to_i1.c **** {
 7054              		.loc 1 1261 42 view .LVU2275
 7055              	.LBB882:
1263:Drivers/lvgl/src/draw/sw/blend/lv_draw_sw_blend_to_i1.c **** }
 7056              		.loc 1 1263 5 view .LVU2276
1263:Drivers/lvgl/src/draw/sw/blend/lv_draw_sw_blend_to_i1.c **** }
 7057              		.loc 1 1263 8 is_stmt 0 view .LVU2277
 7058 0134 1AF80B30 		ldrb	r3, [r10, fp]	@ zero_extendqisi2
1263:Drivers/lvgl/src/draw/sw/blend/lv_draw_sw_blend_to_i1.c **** }
 7059              		.loc 1 1263 28 view .LVU2278
 7060 0138 0122     		movs	r2, #1
 7061 013a A240     		lsls	r2, r2, r4
1263:Drivers/lvgl/src/draw/sw/blend/lv_draw_sw_blend_to_i1.c **** }
 7062              		.loc 1 1263 22 view .LVU2279
 7063 013c 1343     		orrs	r3, r3, r2
 7064 013e 0AF80B30 		strb	r3, [r10, fp]
 7065              	.LVL753:
 7066              	.L392:
1263:Drivers/lvgl/src/draw/sw/blend/lv_draw_sw_blend_to_i1.c **** }
 7067              		.loc 1 1263 22 view .LVU2280
 7068              	.LBE882:
 7069              	.LBE881:
 7070              	.LBE877:
 885:Drivers/lvgl/src/draw/sw/blend/lv_draw_sw_blend_to_i1.c ****                         uint8_t src = lv_color24_luminance(&src_buf_rgb888[src_x]);
 7071              		.loc 1 885 68 is_stmt 1 discriminator 2 view .LVU2281
 885:Drivers/lvgl/src/draw/sw/blend/lv_draw_sw_blend_to_i1.c ****                         uint8_t src = lv_color24_luminance(&src_buf_rgb888[src_x]);
 7072              		.loc 1 885 66 is_stmt 0 discriminator 2 view .LVU2282
ARM GAS  /var/folders/qx/2_175_4n2s19vhvtspjhb3qh0000gn/T//ccaVas4T.s 			page 194


 7073 0142 0136     		adds	r6, r6, #1
 7074              	.LVL754:
 885:Drivers/lvgl/src/draw/sw/blend/lv_draw_sw_blend_to_i1.c ****                         uint8_t src = lv_color24_luminance(&src_buf_rgb888[src_x]);
 7075              		.loc 1 885 76 discriminator 2 view .LVU2283
 7076 0144 019B     		ldr	r3, [sp, #4]
 7077 0146 9944     		add	r9, r9, r3
 7078              	.LVL755:
 7079              	.L394:
 885:Drivers/lvgl/src/draw/sw/blend/lv_draw_sw_blend_to_i1.c ****                         uint8_t src = lv_color24_luminance(&src_buf_rgb888[src_x]);
 7080              		.loc 1 885 55 is_stmt 1 discriminator 1 view .LVU2284
 7081 0148 4645     		cmp	r6, r8
 7082 014a 2BDA     		bge	.L429
 7083              	.LBB886:
 886:Drivers/lvgl/src/draw/sw/blend/lv_draw_sw_blend_to_i1.c ****                         uint8_t dest = get_bit(dest_buf_i1, dest_x + bit_ofs) * 255;
 7084              		.loc 1 886 25 view .LVU2285
 886:Drivers/lvgl/src/draw/sw/blend/lv_draw_sw_blend_to_i1.c ****                         uint8_t dest = get_bit(dest_buf_i1, dest_x + bit_ofs) * 255;
 7085              		.loc 1 886 39 is_stmt 0 view .LVU2286
 7086 014c 07EB0900 		add	r0, r7, r9
 7087 0150 FFF7FEFF 		bl	lv_color24_luminance
 7088              	.LVL756:
 887:Drivers/lvgl/src/draw/sw/blend/lv_draw_sw_blend_to_i1.c ****                         lv_color_8_8_mix(src, &dest, opa);
 7089              		.loc 1 887 25 is_stmt 1 view .LVU2287
 887:Drivers/lvgl/src/draw/sw/blend/lv_draw_sw_blend_to_i1.c ****                         lv_color_8_8_mix(src, &dest, opa);
 7090              		.loc 1 887 40 is_stmt 0 view .LVU2288
 7091 0154 7419     		adds	r4, r6, r5
 7092              	.LVL757:
 7093              	.LBB883:
 7094              	.LBI878:
1271:Drivers/lvgl/src/draw/sw/blend/lv_draw_sw_blend_to_i1.c **** {
 7095              		.loc 1 1271 45 is_stmt 1 view .LVU2289
 7096              	.LBB880:
1273:Drivers/lvgl/src/draw/sw/blend/lv_draw_sw_blend_to_i1.c **** }
 7097              		.loc 1 1273 5 view .LVU2290
1273:Drivers/lvgl/src/draw/sw/blend/lv_draw_sw_blend_to_i1.c **** }
 7098              		.loc 1 1273 25 is_stmt 0 view .LVU2291
 7099 0156 A346     		mov	fp, r4
 7100 0158 002C     		cmp	r4, #0
 7101 015a E8DB     		blt	.L430
 7102              	.L390:
1273:Drivers/lvgl/src/draw/sw/blend/lv_draw_sw_blend_to_i1.c **** }
 7103              		.loc 1 1273 25 view .LVU2292
 7104 015c 4FEAEB0B 		asr	fp, fp, #3
1273:Drivers/lvgl/src/draw/sw/blend/lv_draw_sw_blend_to_i1.c **** }
 7105              		.loc 1 1273 16 view .LVU2293
 7106 0160 1AF80B30 		ldrb	r3, [r10, fp]	@ zero_extendqisi2
1273:Drivers/lvgl/src/draw/sw/blend/lv_draw_sw_blend_to_i1.c **** }
 7107              		.loc 1 1273 47 view .LVU2294
 7108 0164 6242     		rsbs	r2, r4, #0
 7109 0166 04F00704 		and	r4, r4, #7
 7110              	.LVL758:
1273:Drivers/lvgl/src/draw/sw/blend/lv_draw_sw_blend_to_i1.c **** }
 7111              		.loc 1 1273 47 view .LVU2295
 7112 016a 02F00702 		and	r2, r2, #7
 7113 016e 58BF     		it	pl
 7114 0170 5442     		rsbpl	r4, r2, #0
1273:Drivers/lvgl/src/draw/sw/blend/lv_draw_sw_blend_to_i1.c **** }
 7115              		.loc 1 1273 36 view .LVU2296
ARM GAS  /var/folders/qx/2_175_4n2s19vhvtspjhb3qh0000gn/T//ccaVas4T.s 			page 195


 7116 0172 C4F10704 		rsb	r4, r4, #7
1273:Drivers/lvgl/src/draw/sw/blend/lv_draw_sw_blend_to_i1.c **** }
 7117              		.loc 1 1273 30 view .LVU2297
 7118 0176 2341     		asrs	r3, r3, r4
 7119              	.LVL759:
1273:Drivers/lvgl/src/draw/sw/blend/lv_draw_sw_blend_to_i1.c **** }
 7120              		.loc 1 1273 30 view .LVU2298
 7121              	.LBE880:
 7122              	.LBE883:
 887:Drivers/lvgl/src/draw/sw/blend/lv_draw_sw_blend_to_i1.c ****                         lv_color_8_8_mix(src, &dest, opa);
 7123              		.loc 1 887 33 discriminator 1 view .LVU2299
 7124 0178 43F30003 		sbfx	r3, r3, #0, #1
 7125 017c 8DF82C30 		strb	r3, [sp, #44]
 888:Drivers/lvgl/src/draw/sw/blend/lv_draw_sw_blend_to_i1.c ****                         if(dest > I1_LUM_THRESHOLD) {
 7126              		.loc 1 888 25 is_stmt 1 view .LVU2300
 7127 0180 029A     		ldr	r2, [sp, #8]
 7128 0182 0BA9     		add	r1, sp, #44
 7129 0184 FFF7FEFF 		bl	lv_color_8_8_mix
 7130              	.LVL760:
 889:Drivers/lvgl/src/draw/sw/blend/lv_draw_sw_blend_to_i1.c ****                             set_bit(dest_buf_i1, dest_x + bit_ofs);
 7131              		.loc 1 889 25 view .LVU2301
 889:Drivers/lvgl/src/draw/sw/blend/lv_draw_sw_blend_to_i1.c ****                             set_bit(dest_buf_i1, dest_x + bit_ofs);
 7132              		.loc 1 889 33 is_stmt 0 view .LVU2302
 7133 0188 9DF92C30 		ldrsb	r3, [sp, #44]
 889:Drivers/lvgl/src/draw/sw/blend/lv_draw_sw_blend_to_i1.c ****                             set_bit(dest_buf_i1, dest_x + bit_ofs);
 7134              		.loc 1 889 27 view .LVU2303
 7135 018c 002B     		cmp	r3, #0
 7136 018e D1DB     		blt	.L431
 893:Drivers/lvgl/src/draw/sw/blend/lv_draw_sw_blend_to_i1.c ****                         }
 7137              		.loc 1 893 29 is_stmt 1 view .LVU2304
 7138              	.LVL761:
 7139              	.LBB884:
 7140              	.LBI884:
1266:Drivers/lvgl/src/draw/sw/blend/lv_draw_sw_blend_to_i1.c **** {
 7141              		.loc 1 1266 42 view .LVU2305
 7142              	.LBB885:
1268:Drivers/lvgl/src/draw/sw/blend/lv_draw_sw_blend_to_i1.c **** }
 7143              		.loc 1 1268 5 view .LVU2306
1268:Drivers/lvgl/src/draw/sw/blend/lv_draw_sw_blend_to_i1.c **** }
 7144              		.loc 1 1268 8 is_stmt 0 view .LVU2307
 7145 0190 1AF80B20 		ldrb	r2, [r10, fp]	@ zero_extendqisi2
1268:Drivers/lvgl/src/draw/sw/blend/lv_draw_sw_blend_to_i1.c **** }
 7146              		.loc 1 1268 29 view .LVU2308
 7147 0194 0123     		movs	r3, #1
 7148 0196 A340     		lsls	r3, r3, r4
1268:Drivers/lvgl/src/draw/sw/blend/lv_draw_sw_blend_to_i1.c **** }
 7149              		.loc 1 1268 22 view .LVU2309
 7150 0198 DB43     		mvns	r3, r3
 7151 019a 5BB2     		sxtb	r3, r3
 7152 019c 1340     		ands	r3, r3, r2
 7153 019e 0AF80B30 		strb	r3, [r10, fp]
 7154              	.LVL762:
1269:Drivers/lvgl/src/draw/sw/blend/lv_draw_sw_blend_to_i1.c **** 
 7155              		.loc 1 1269 1 view .LVU2310
 7156 01a2 CEE7     		b	.L392
 7157              	.LVL763:
 7158              	.L429:
ARM GAS  /var/folders/qx/2_175_4n2s19vhvtspjhb3qh0000gn/T//ccaVas4T.s 			page 196


1269:Drivers/lvgl/src/draw/sw/blend/lv_draw_sw_blend_to_i1.c **** 
 7159              		.loc 1 1269 1 view .LVU2311
 7160              	.LBE885:
 7161              	.LBE884:
 7162              	.LBE886:
 7163              	.LBB887:
 7164              	.LBB888:
1258:Drivers/lvgl/src/draw/sw/blend/lv_draw_sw_blend_to_i1.c **** }
 7165              		.loc 1 1258 12 view .LVU2312
 7166 01a4 DDF80CB0 		ldr	fp, [sp, #12]
 7167              	.LBE888:
 7168              	.LBE887:
 896:Drivers/lvgl/src/draw/sw/blend/lv_draw_sw_blend_to_i1.c ****                     src_buf_rgb888 = drawbuf_next_row(src_buf_rgb888, src_stride);
 7169              		.loc 1 896 21 is_stmt 1 view .LVU2313
 7170              	.LVL764:
 7171              	.LBB890:
 7172              	.LBI887:
1256:Drivers/lvgl/src/draw/sw/blend/lv_draw_sw_blend_to_i1.c **** {
 7173              		.loc 1 1256 44 view .LVU2314
 7174              	.LBB889:
1258:Drivers/lvgl/src/draw/sw/blend/lv_draw_sw_blend_to_i1.c **** }
 7175              		.loc 1 1258 5 view .LVU2315
1258:Drivers/lvgl/src/draw/sw/blend/lv_draw_sw_blend_to_i1.c **** }
 7176              		.loc 1 1258 12 is_stmt 0 view .LVU2316
 7177 01a8 059B     		ldr	r3, [sp, #20]
 7178 01aa 9A44     		add	r10, r10, r3
 7179              	.LVL765:
1258:Drivers/lvgl/src/draw/sw/blend/lv_draw_sw_blend_to_i1.c **** }
 7180              		.loc 1 1258 12 view .LVU2317
 7181              	.LBE889:
 7182              	.LBE890:
 897:Drivers/lvgl/src/draw/sw/blend/lv_draw_sw_blend_to_i1.c ****                 }
 7183              		.loc 1 897 21 is_stmt 1 view .LVU2318
 7184              	.LBB891:
 7185              	.LBI891:
1256:Drivers/lvgl/src/draw/sw/blend/lv_draw_sw_blend_to_i1.c **** {
 7186              		.loc 1 1256 44 view .LVU2319
 7187              	.LBB892:
1258:Drivers/lvgl/src/draw/sw/blend/lv_draw_sw_blend_to_i1.c **** }
 7188              		.loc 1 1258 5 view .LVU2320
1258:Drivers/lvgl/src/draw/sw/blend/lv_draw_sw_blend_to_i1.c **** }
 7189              		.loc 1 1258 12 is_stmt 0 view .LVU2321
 7190 01ac 069B     		ldr	r3, [sp, #24]
 7191 01ae 1F44     		add	r7, r7, r3
 7192              	.LVL766:
1258:Drivers/lvgl/src/draw/sw/blend/lv_draw_sw_blend_to_i1.c **** }
 7193              		.loc 1 1258 12 view .LVU2322
 7194              	.LBE892:
 7195              	.LBE891:
 884:Drivers/lvgl/src/draw/sw/blend/lv_draw_sw_blend_to_i1.c ****                     for(dest_x = 0, src_x = 0; dest_x < w; dest_x++, src_x += src_px_size) {
 7196              		.loc 1 884 36 is_stmt 1 discriminator 2 view .LVU2323
 7197 01b0 0BF1010B 		add	fp, fp, #1
 7198              	.LVL767:
 7199              	.L383:
 884:Drivers/lvgl/src/draw/sw/blend/lv_draw_sw_blend_to_i1.c ****                     for(dest_x = 0, src_x = 0; dest_x < w; dest_x++, src_x += src_px_size) {
 7200              		.loc 1 884 30 discriminator 1 view .LVU2324
 7201 01b4 049B     		ldr	r3, [sp, #16]
ARM GAS  /var/folders/qx/2_175_4n2s19vhvtspjhb3qh0000gn/T//ccaVas4T.s 			page 197


 7202 01b6 9B45     		cmp	fp, r3
 7203 01b8 80F2F880 		bge	.L379
 885:Drivers/lvgl/src/draw/sw/blend/lv_draw_sw_blend_to_i1.c ****                         uint8_t src = lv_color24_luminance(&src_buf_rgb888[src_x]);
 7204              		.loc 1 885 43 is_stmt 0 view .LVU2325
 7205 01bc 4FF00009 		mov	r9, #0
 885:Drivers/lvgl/src/draw/sw/blend/lv_draw_sw_blend_to_i1.c ****                         uint8_t src = lv_color24_luminance(&src_buf_rgb888[src_x]);
 7206              		.loc 1 885 32 view .LVU2326
 7207 01c0 4E46     		mov	r6, r9
 7208 01c2 CDF80CB0 		str	fp, [sp, #12]
 7209 01c6 BFE7     		b	.L394
 7210              	.LVL768:
 7211              	.L433:
 7212              	.LBB893:
 7213              	.LBB894:
 7214              	.LBB895:
 7215              	.LBB896:
1273:Drivers/lvgl/src/draw/sw/blend/lv_draw_sw_blend_to_i1.c **** }
 7216              		.loc 1 1273 25 view .LVU2327
 7217 01c8 E71D     		adds	r7, r4, #7
 7218 01ca 15E0     		b	.L397
 7219              	.LVL769:
 7220              	.L434:
1273:Drivers/lvgl/src/draw/sw/blend/lv_draw_sw_blend_to_i1.c **** }
 7221              		.loc 1 1273 25 view .LVU2328
 7222              	.LBE896:
 7223              	.LBE895:
 910:Drivers/lvgl/src/draw/sw/blend/lv_draw_sw_blend_to_i1.c ****                         }
 7224              		.loc 1 910 29 is_stmt 1 view .LVU2329
 7225              	.LBB898:
 7226              	.LBI898:
1261:Drivers/lvgl/src/draw/sw/blend/lv_draw_sw_blend_to_i1.c **** {
 7227              		.loc 1 1261 42 view .LVU2330
 7228              	.LBB899:
1263:Drivers/lvgl/src/draw/sw/blend/lv_draw_sw_blend_to_i1.c **** }
 7229              		.loc 1 1263 5 view .LVU2331
1263:Drivers/lvgl/src/draw/sw/blend/lv_draw_sw_blend_to_i1.c **** }
 7230              		.loc 1 1263 8 is_stmt 0 view .LVU2332
 7231 01cc EB5D     		ldrb	r3, [r5, r7]	@ zero_extendqisi2
1263:Drivers/lvgl/src/draw/sw/blend/lv_draw_sw_blend_to_i1.c **** }
 7232              		.loc 1 1263 28 view .LVU2333
 7233 01ce 0122     		movs	r2, #1
 7234 01d0 A240     		lsls	r2, r2, r4
1263:Drivers/lvgl/src/draw/sw/blend/lv_draw_sw_blend_to_i1.c **** }
 7235              		.loc 1 1263 22 view .LVU2334
 7236 01d2 1343     		orrs	r3, r3, r2
 7237 01d4 EB55     		strb	r3, [r5, r7]
 7238              	.LVL770:
 7239              	.L399:
1263:Drivers/lvgl/src/draw/sw/blend/lv_draw_sw_blend_to_i1.c **** }
 7240              		.loc 1 1263 22 view .LVU2335
 7241              	.LBE899:
 7242              	.LBE898:
 7243              	.LBE894:
 905:Drivers/lvgl/src/draw/sw/blend/lv_draw_sw_blend_to_i1.c ****                         uint8_t src = lv_color24_luminance(&src_buf_rgb888[src_x]);
 7244              		.loc 1 905 90 is_stmt 1 discriminator 2 view .LVU2336
 905:Drivers/lvgl/src/draw/sw/blend/lv_draw_sw_blend_to_i1.c ****                         uint8_t src = lv_color24_luminance(&src_buf_rgb888[src_x]);
 7245              		.loc 1 905 78 is_stmt 0 discriminator 2 view .LVU2337
ARM GAS  /var/folders/qx/2_175_4n2s19vhvtspjhb3qh0000gn/T//ccaVas4T.s 			page 198


 7246 01d6 09F10109 		add	r9, r9, #1
 7247              	.LVL771:
 905:Drivers/lvgl/src/draw/sw/blend/lv_draw_sw_blend_to_i1.c ****                         uint8_t src = lv_color24_luminance(&src_buf_rgb888[src_x]);
 7248              		.loc 1 905 88 discriminator 2 view .LVU2338
 7249 01da 0136     		adds	r6, r6, #1
 7250              	.LVL772:
 905:Drivers/lvgl/src/draw/sw/blend/lv_draw_sw_blend_to_i1.c ****                         uint8_t src = lv_color24_luminance(&src_buf_rgb888[src_x]);
 7251              		.loc 1 905 98 discriminator 2 view .LVU2339
 7252 01dc 019B     		ldr	r3, [sp, #4]
 7253 01de 9A44     		add	r10, r10, r3
 7254              	.LVL773:
 7255              	.L401:
 905:Drivers/lvgl/src/draw/sw/blend/lv_draw_sw_blend_to_i1.c ****                         uint8_t src = lv_color24_luminance(&src_buf_rgb888[src_x]);
 7256              		.loc 1 905 67 is_stmt 1 discriminator 1 view .LVU2340
 7257 01e0 029B     		ldr	r3, [sp, #8]
 7258 01e2 9E42     		cmp	r6, r3
 7259 01e4 29DA     		bge	.L432
 7260              	.LBB903:
 906:Drivers/lvgl/src/draw/sw/blend/lv_draw_sw_blend_to_i1.c ****                         uint8_t dest = get_bit(dest_buf_i1, dest_x + bit_ofs) * 255;
 7261              		.loc 1 906 25 view .LVU2341
 906:Drivers/lvgl/src/draw/sw/blend/lv_draw_sw_blend_to_i1.c ****                         uint8_t dest = get_bit(dest_buf_i1, dest_x + bit_ofs) * 255;
 7262              		.loc 1 906 39 is_stmt 0 view .LVU2342
 7263 01e6 0BEB0A00 		add	r0, fp, r10
 7264 01ea FFF7FEFF 		bl	lv_color24_luminance
 7265              	.LVL774:
 907:Drivers/lvgl/src/draw/sw/blend/lv_draw_sw_blend_to_i1.c ****                         lv_color_8_8_mix(src, &dest, mask_buf[mask_x]);
 7266              		.loc 1 907 25 is_stmt 1 view .LVU2343
 907:Drivers/lvgl/src/draw/sw/blend/lv_draw_sw_blend_to_i1.c ****                         lv_color_8_8_mix(src, &dest, mask_buf[mask_x]);
 7267              		.loc 1 907 40 is_stmt 0 view .LVU2344
 7268 01ee 039B     		ldr	r3, [sp, #12]
 7269 01f0 F418     		adds	r4, r6, r3
 7270              	.LVL775:
 7271              	.LBB900:
 7272              	.LBI895:
1271:Drivers/lvgl/src/draw/sw/blend/lv_draw_sw_blend_to_i1.c **** {
 7273              		.loc 1 1271 45 is_stmt 1 view .LVU2345
 7274              	.LBB897:
1273:Drivers/lvgl/src/draw/sw/blend/lv_draw_sw_blend_to_i1.c **** }
 7275              		.loc 1 1273 5 view .LVU2346
1273:Drivers/lvgl/src/draw/sw/blend/lv_draw_sw_blend_to_i1.c **** }
 7276              		.loc 1 1273 25 is_stmt 0 view .LVU2347
 7277 01f2 2746     		mov	r7, r4
 7278 01f4 002C     		cmp	r4, #0
 7279 01f6 E7DB     		blt	.L433
 7280              	.L397:
1273:Drivers/lvgl/src/draw/sw/blend/lv_draw_sw_blend_to_i1.c **** }
 7281              		.loc 1 1273 25 view .LVU2348
 7282 01f8 FF10     		asrs	r7, r7, #3
1273:Drivers/lvgl/src/draw/sw/blend/lv_draw_sw_blend_to_i1.c **** }
 7283              		.loc 1 1273 16 view .LVU2349
 7284 01fa EB5D     		ldrb	r3, [r5, r7]	@ zero_extendqisi2
1273:Drivers/lvgl/src/draw/sw/blend/lv_draw_sw_blend_to_i1.c **** }
 7285              		.loc 1 1273 47 view .LVU2350
 7286 01fc 6242     		rsbs	r2, r4, #0
 7287 01fe 04F00704 		and	r4, r4, #7
 7288              	.LVL776:
1273:Drivers/lvgl/src/draw/sw/blend/lv_draw_sw_blend_to_i1.c **** }
ARM GAS  /var/folders/qx/2_175_4n2s19vhvtspjhb3qh0000gn/T//ccaVas4T.s 			page 199


 7289              		.loc 1 1273 47 view .LVU2351
 7290 0202 02F00702 		and	r2, r2, #7
 7291 0206 58BF     		it	pl
 7292 0208 5442     		rsbpl	r4, r2, #0
1273:Drivers/lvgl/src/draw/sw/blend/lv_draw_sw_blend_to_i1.c **** }
 7293              		.loc 1 1273 36 view .LVU2352
 7294 020a C4F10704 		rsb	r4, r4, #7
1273:Drivers/lvgl/src/draw/sw/blend/lv_draw_sw_blend_to_i1.c **** }
 7295              		.loc 1 1273 30 view .LVU2353
 7296 020e 2341     		asrs	r3, r3, r4
 7297              	.LVL777:
1273:Drivers/lvgl/src/draw/sw/blend/lv_draw_sw_blend_to_i1.c **** }
 7298              		.loc 1 1273 30 view .LVU2354
 7299              	.LBE897:
 7300              	.LBE900:
 907:Drivers/lvgl/src/draw/sw/blend/lv_draw_sw_blend_to_i1.c ****                         lv_color_8_8_mix(src, &dest, mask_buf[mask_x]);
 7301              		.loc 1 907 33 discriminator 1 view .LVU2355
 7302 0210 43F30003 		sbfx	r3, r3, #0, #1
 7303 0214 8DF82C30 		strb	r3, [sp, #44]
 908:Drivers/lvgl/src/draw/sw/blend/lv_draw_sw_blend_to_i1.c ****                         if(dest > I1_LUM_THRESHOLD) {
 7304              		.loc 1 908 25 is_stmt 1 view .LVU2356
 7305 0218 18F80920 		ldrb	r2, [r8, r9]	@ zero_extendqisi2
 7306 021c 0BA9     		add	r1, sp, #44
 7307 021e FFF7FEFF 		bl	lv_color_8_8_mix
 7308              	.LVL778:
 909:Drivers/lvgl/src/draw/sw/blend/lv_draw_sw_blend_to_i1.c ****                             set_bit(dest_buf_i1, dest_x + bit_ofs);
 7309              		.loc 1 909 25 view .LVU2357
 909:Drivers/lvgl/src/draw/sw/blend/lv_draw_sw_blend_to_i1.c ****                             set_bit(dest_buf_i1, dest_x + bit_ofs);
 7310              		.loc 1 909 33 is_stmt 0 view .LVU2358
 7311 0222 9DF92C30 		ldrsb	r3, [sp, #44]
 909:Drivers/lvgl/src/draw/sw/blend/lv_draw_sw_blend_to_i1.c ****                             set_bit(dest_buf_i1, dest_x + bit_ofs);
 7312              		.loc 1 909 27 view .LVU2359
 7313 0226 002B     		cmp	r3, #0
 7314 0228 D0DB     		blt	.L434
 913:Drivers/lvgl/src/draw/sw/blend/lv_draw_sw_blend_to_i1.c ****                         }
 7315              		.loc 1 913 29 is_stmt 1 view .LVU2360
 7316              	.LVL779:
 7317              	.LBB901:
 7318              	.LBI901:
1266:Drivers/lvgl/src/draw/sw/blend/lv_draw_sw_blend_to_i1.c **** {
 7319              		.loc 1 1266 42 view .LVU2361
 7320              	.LBB902:
1268:Drivers/lvgl/src/draw/sw/blend/lv_draw_sw_blend_to_i1.c **** }
 7321              		.loc 1 1268 5 view .LVU2362
1268:Drivers/lvgl/src/draw/sw/blend/lv_draw_sw_blend_to_i1.c **** }
 7322              		.loc 1 1268 8 is_stmt 0 view .LVU2363
 7323 022a EA5D     		ldrb	r2, [r5, r7]	@ zero_extendqisi2
1268:Drivers/lvgl/src/draw/sw/blend/lv_draw_sw_blend_to_i1.c **** }
 7324              		.loc 1 1268 29 view .LVU2364
 7325 022c 0123     		movs	r3, #1
 7326 022e A340     		lsls	r3, r3, r4
1268:Drivers/lvgl/src/draw/sw/blend/lv_draw_sw_blend_to_i1.c **** }
 7327              		.loc 1 1268 22 view .LVU2365
 7328 0230 DB43     		mvns	r3, r3
 7329 0232 5BB2     		sxtb	r3, r3
 7330 0234 1340     		ands	r3, r3, r2
 7331 0236 EB55     		strb	r3, [r5, r7]
ARM GAS  /var/folders/qx/2_175_4n2s19vhvtspjhb3qh0000gn/T//ccaVas4T.s 			page 200


 7332              	.LVL780:
1269:Drivers/lvgl/src/draw/sw/blend/lv_draw_sw_blend_to_i1.c **** 
 7333              		.loc 1 1269 1 view .LVU2366
 7334 0238 CDE7     		b	.L399
 7335              	.LVL781:
 7336              	.L432:
1269:Drivers/lvgl/src/draw/sw/blend/lv_draw_sw_blend_to_i1.c **** 
 7337              		.loc 1 1269 1 view .LVU2367
 7338              	.LBE902:
 7339              	.LBE901:
 7340              	.LBE903:
 7341              	.LBB904:
 7342              	.LBB905:
1258:Drivers/lvgl/src/draw/sw/blend/lv_draw_sw_blend_to_i1.c **** }
 7343              		.loc 1 1258 12 view .LVU2368
 7344 023a 049F     		ldr	r7, [sp, #16]
 7345              	.LBE905:
 7346              	.LBE904:
 916:Drivers/lvgl/src/draw/sw/blend/lv_draw_sw_blend_to_i1.c ****                     src_buf_rgb888 = drawbuf_next_row(src_buf_rgb888, src_stride);
 7347              		.loc 1 916 21 is_stmt 1 view .LVU2369
 7348              	.LVL782:
 7349              	.LBB907:
 7350              	.LBI904:
1256:Drivers/lvgl/src/draw/sw/blend/lv_draw_sw_blend_to_i1.c **** {
 7351              		.loc 1 1256 44 view .LVU2370
 7352              	.LBB906:
1258:Drivers/lvgl/src/draw/sw/blend/lv_draw_sw_blend_to_i1.c **** }
 7353              		.loc 1 1258 5 view .LVU2371
1258:Drivers/lvgl/src/draw/sw/blend/lv_draw_sw_blend_to_i1.c **** }
 7354              		.loc 1 1258 12 is_stmt 0 view .LVU2372
 7355 023c 059B     		ldr	r3, [sp, #20]
 7356 023e 1D44     		add	r5, r5, r3
 7357              	.LVL783:
1258:Drivers/lvgl/src/draw/sw/blend/lv_draw_sw_blend_to_i1.c **** }
 7358              		.loc 1 1258 12 view .LVU2373
 7359              	.LBE906:
 7360              	.LBE907:
 917:Drivers/lvgl/src/draw/sw/blend/lv_draw_sw_blend_to_i1.c ****                     mask_buf += mask_stride;
 7361              		.loc 1 917 21 is_stmt 1 view .LVU2374
 7362              	.LBB908:
 7363              	.LBI908:
1256:Drivers/lvgl/src/draw/sw/blend/lv_draw_sw_blend_to_i1.c **** {
 7364              		.loc 1 1256 44 view .LVU2375
 7365              	.LBB909:
1258:Drivers/lvgl/src/draw/sw/blend/lv_draw_sw_blend_to_i1.c **** }
 7366              		.loc 1 1258 5 view .LVU2376
1258:Drivers/lvgl/src/draw/sw/blend/lv_draw_sw_blend_to_i1.c **** }
 7367              		.loc 1 1258 12 is_stmt 0 view .LVU2377
 7368 0240 069B     		ldr	r3, [sp, #24]
 7369 0242 9B44     		add	fp, fp, r3
 7370              	.LVL784:
1258:Drivers/lvgl/src/draw/sw/blend/lv_draw_sw_blend_to_i1.c **** }
 7371              		.loc 1 1258 12 view .LVU2378
 7372              	.LBE909:
 7373              	.LBE908:
 918:Drivers/lvgl/src/draw/sw/blend/lv_draw_sw_blend_to_i1.c ****                 }
 7374              		.loc 1 918 21 is_stmt 1 view .LVU2379
ARM GAS  /var/folders/qx/2_175_4n2s19vhvtspjhb3qh0000gn/T//ccaVas4T.s 			page 201


 918:Drivers/lvgl/src/draw/sw/blend/lv_draw_sw_blend_to_i1.c ****                 }
 7375              		.loc 1 918 30 is_stmt 0 view .LVU2380
 7376 0244 089B     		ldr	r3, [sp, #32]
 7377 0246 9844     		add	r8, r8, r3
 7378              	.LVL785:
 904:Drivers/lvgl/src/draw/sw/blend/lv_draw_sw_blend_to_i1.c ****                     for(mask_x = 0, dest_x = 0, src_x = 0; dest_x < w; mask_x++, dest_x++, src_x +=
 7379              		.loc 1 904 36 is_stmt 1 discriminator 2 view .LVU2381
 7380 0248 0137     		adds	r7, r7, #1
 7381              	.LVL786:
 7382              	.L396:
 904:Drivers/lvgl/src/draw/sw/blend/lv_draw_sw_blend_to_i1.c ****                     for(mask_x = 0, dest_x = 0, src_x = 0; dest_x < w; mask_x++, dest_x++, src_x +=
 7383              		.loc 1 904 30 discriminator 1 view .LVU2382
 7384 024a 079B     		ldr	r3, [sp, #28]
 7385 024c 9F42     		cmp	r7, r3
 7386 024e 80F2AD80 		bge	.L379
 905:Drivers/lvgl/src/draw/sw/blend/lv_draw_sw_blend_to_i1.c ****                         uint8_t src = lv_color24_luminance(&src_buf_rgb888[src_x]);
 7387              		.loc 1 905 32 is_stmt 0 view .LVU2383
 7388 0252 4FF00009 		mov	r9, #0
 905:Drivers/lvgl/src/draw/sw/blend/lv_draw_sw_blend_to_i1.c ****                         uint8_t src = lv_color24_luminance(&src_buf_rgb888[src_x]);
 7389              		.loc 1 905 55 view .LVU2384
 7390 0256 CA46     		mov	r10, r9
 905:Drivers/lvgl/src/draw/sw/blend/lv_draw_sw_blend_to_i1.c ****                         uint8_t src = lv_color24_luminance(&src_buf_rgb888[src_x]);
 7391              		.loc 1 905 44 view .LVU2385
 7392 0258 4E46     		mov	r6, r9
 7393 025a 0497     		str	r7, [sp, #16]
 7394 025c C0E7     		b	.L401
 7395              	.LVL787:
 7396              	.L418:
 904:Drivers/lvgl/src/draw/sw/blend/lv_draw_sw_blend_to_i1.c ****                     for(mask_x = 0, dest_x = 0, src_x = 0; dest_x < w; mask_x++, dest_x++, src_x +=
 7397              		.loc 1 904 23 view .LVU2386
 7398 025e 0024     		movs	r4, #0
 7399 0260 BB46     		mov	fp, r7
 7400 0262 2746     		mov	r7, r4
 7401              	.LVL788:
 904:Drivers/lvgl/src/draw/sw/blend/lv_draw_sw_blend_to_i1.c ****                     for(mask_x = 0, dest_x = 0, src_x = 0; dest_x < w; mask_x++, dest_x++, src_x +=
 7402              		.loc 1 904 23 view .LVU2387
 7403 0264 CDF80880 		str	r8, [sp, #8]
 7404              	.LVL789:
 904:Drivers/lvgl/src/draw/sw/blend/lv_draw_sw_blend_to_i1.c ****                     for(mask_x = 0, dest_x = 0, src_x = 0; dest_x < w; mask_x++, dest_x++, src_x +=
 7405              		.loc 1 904 23 view .LVU2388
 7406 0268 9046     		mov	r8, r2
 7407              	.LVL790:
 904:Drivers/lvgl/src/draw/sw/blend/lv_draw_sw_blend_to_i1.c ****                     for(mask_x = 0, dest_x = 0, src_x = 0; dest_x < w; mask_x++, dest_x++, src_x +=
 7408              		.loc 1 904 23 view .LVU2389
 7409 026a CDF81CC0 		str	ip, [sp, #28]
 7410 026e CDF820E0 		str	lr, [sp, #32]
 7411 0272 0391     		str	r1, [sp, #12]
 7412 0274 E9E7     		b	.L396
 7413              	.LVL791:
 7414              	.L436:
 904:Drivers/lvgl/src/draw/sw/blend/lv_draw_sw_blend_to_i1.c ****                     for(mask_x = 0, dest_x = 0, src_x = 0; dest_x < w; mask_x++, dest_x++, src_x +=
 7415              		.loc 1 904 23 view .LVU2390
 7416              	.LBE893:
 7417              	.LBB910:
 7418              	.LBB911:
 7419              	.LBB912:
 7420              	.LBB913:
ARM GAS  /var/folders/qx/2_175_4n2s19vhvtspjhb3qh0000gn/T//ccaVas4T.s 			page 202


1273:Drivers/lvgl/src/draw/sw/blend/lv_draw_sw_blend_to_i1.c **** }
 7421              		.loc 1 1273 25 view .LVU2391
 7422 0276 E71D     		adds	r7, r4, #7
 7423 0278 15E0     		b	.L404
 7424              	.LVL792:
 7425              	.L437:
1273:Drivers/lvgl/src/draw/sw/blend/lv_draw_sw_blend_to_i1.c **** }
 7426              		.loc 1 1273 25 view .LVU2392
 7427              	.LBE913:
 7428              	.LBE912:
 931:Drivers/lvgl/src/draw/sw/blend/lv_draw_sw_blend_to_i1.c ****                         }
 7429              		.loc 1 931 29 is_stmt 1 view .LVU2393
 7430              	.LBB915:
 7431              	.LBI915:
1261:Drivers/lvgl/src/draw/sw/blend/lv_draw_sw_blend_to_i1.c **** {
 7432              		.loc 1 1261 42 view .LVU2394
 7433              	.LBB916:
1263:Drivers/lvgl/src/draw/sw/blend/lv_draw_sw_blend_to_i1.c **** }
 7434              		.loc 1 1263 5 view .LVU2395
1263:Drivers/lvgl/src/draw/sw/blend/lv_draw_sw_blend_to_i1.c **** }
 7435              		.loc 1 1263 8 is_stmt 0 view .LVU2396
 7436 027a EB5D     		ldrb	r3, [r5, r7]	@ zero_extendqisi2
1263:Drivers/lvgl/src/draw/sw/blend/lv_draw_sw_blend_to_i1.c **** }
 7437              		.loc 1 1263 28 view .LVU2397
 7438 027c 0122     		movs	r2, #1
 7439 027e A240     		lsls	r2, r2, r4
1263:Drivers/lvgl/src/draw/sw/blend/lv_draw_sw_blend_to_i1.c **** }
 7440              		.loc 1 1263 22 view .LVU2398
 7441 0280 1343     		orrs	r3, r3, r2
 7442 0282 EB55     		strb	r3, [r5, r7]
 7443              	.LVL793:
 7444              	.L406:
1263:Drivers/lvgl/src/draw/sw/blend/lv_draw_sw_blend_to_i1.c **** }
 7445              		.loc 1 1263 22 view .LVU2399
 7446              	.LBE916:
 7447              	.LBE915:
 7448              	.LBE911:
 926:Drivers/lvgl/src/draw/sw/blend/lv_draw_sw_blend_to_i1.c ****                         uint8_t src = lv_color24_luminance(&src_buf_rgb888[src_x]);
 7449              		.loc 1 926 90 is_stmt 1 discriminator 2 view .LVU2400
 926:Drivers/lvgl/src/draw/sw/blend/lv_draw_sw_blend_to_i1.c ****                         uint8_t src = lv_color24_luminance(&src_buf_rgb888[src_x]);
 7450              		.loc 1 926 78 is_stmt 0 discriminator 2 view .LVU2401
 7451 0284 09F10109 		add	r9, r9, #1
 7452              	.LVL794:
 926:Drivers/lvgl/src/draw/sw/blend/lv_draw_sw_blend_to_i1.c ****                         uint8_t src = lv_color24_luminance(&src_buf_rgb888[src_x]);
 7453              		.loc 1 926 88 discriminator 2 view .LVU2402
 7454 0288 0136     		adds	r6, r6, #1
 7455              	.LVL795:
 926:Drivers/lvgl/src/draw/sw/blend/lv_draw_sw_blend_to_i1.c ****                         uint8_t src = lv_color24_luminance(&src_buf_rgb888[src_x]);
 7456              		.loc 1 926 98 discriminator 2 view .LVU2403
 7457 028a 019B     		ldr	r3, [sp, #4]
 7458 028c 9A44     		add	r10, r10, r3
 7459              	.LVL796:
 7460              	.L408:
 926:Drivers/lvgl/src/draw/sw/blend/lv_draw_sw_blend_to_i1.c ****                         uint8_t src = lv_color24_luminance(&src_buf_rgb888[src_x]);
 7461              		.loc 1 926 67 is_stmt 1 discriminator 1 view .LVU2404
 7462 028e 039B     		ldr	r3, [sp, #12]
 7463 0290 9E42     		cmp	r6, r3
ARM GAS  /var/folders/qx/2_175_4n2s19vhvtspjhb3qh0000gn/T//ccaVas4T.s 			page 203


 7464 0292 2DDA     		bge	.L435
 7465              	.LBB920:
 927:Drivers/lvgl/src/draw/sw/blend/lv_draw_sw_blend_to_i1.c ****                         uint8_t dest = get_bit(dest_buf_i1, dest_x + bit_ofs) * 255;
 7466              		.loc 1 927 25 view .LVU2405
 927:Drivers/lvgl/src/draw/sw/blend/lv_draw_sw_blend_to_i1.c ****                         uint8_t dest = get_bit(dest_buf_i1, dest_x + bit_ofs) * 255;
 7467              		.loc 1 927 39 is_stmt 0 view .LVU2406
 7468 0294 0BEB0A00 		add	r0, fp, r10
 7469 0298 FFF7FEFF 		bl	lv_color24_luminance
 7470              	.LVL797:
 928:Drivers/lvgl/src/draw/sw/blend/lv_draw_sw_blend_to_i1.c ****                         lv_color_8_8_mix(src, &dest, LV_OPA_MIX2(mask_buf[mask_x], opa));
 7471              		.loc 1 928 25 is_stmt 1 view .LVU2407
 928:Drivers/lvgl/src/draw/sw/blend/lv_draw_sw_blend_to_i1.c ****                         lv_color_8_8_mix(src, &dest, LV_OPA_MIX2(mask_buf[mask_x], opa));
 7472              		.loc 1 928 40 is_stmt 0 view .LVU2408
 7473 029c 049B     		ldr	r3, [sp, #16]
 7474 029e F418     		adds	r4, r6, r3
 7475              	.LVL798:
 7476              	.LBB917:
 7477              	.LBI912:
1271:Drivers/lvgl/src/draw/sw/blend/lv_draw_sw_blend_to_i1.c **** {
 7478              		.loc 1 1271 45 is_stmt 1 view .LVU2409
 7479              	.LBB914:
1273:Drivers/lvgl/src/draw/sw/blend/lv_draw_sw_blend_to_i1.c **** }
 7480              		.loc 1 1273 5 view .LVU2410
1273:Drivers/lvgl/src/draw/sw/blend/lv_draw_sw_blend_to_i1.c **** }
 7481              		.loc 1 1273 25 is_stmt 0 view .LVU2411
 7482 02a0 2746     		mov	r7, r4
 7483 02a2 002C     		cmp	r4, #0
 7484 02a4 E7DB     		blt	.L436
 7485              	.L404:
1273:Drivers/lvgl/src/draw/sw/blend/lv_draw_sw_blend_to_i1.c **** }
 7486              		.loc 1 1273 25 view .LVU2412
 7487 02a6 FF10     		asrs	r7, r7, #3
1273:Drivers/lvgl/src/draw/sw/blend/lv_draw_sw_blend_to_i1.c **** }
 7488              		.loc 1 1273 16 view .LVU2413
 7489 02a8 EB5D     		ldrb	r3, [r5, r7]	@ zero_extendqisi2
1273:Drivers/lvgl/src/draw/sw/blend/lv_draw_sw_blend_to_i1.c **** }
 7490              		.loc 1 1273 47 view .LVU2414
 7491 02aa 6242     		rsbs	r2, r4, #0
 7492 02ac 04F00704 		and	r4, r4, #7
 7493              	.LVL799:
1273:Drivers/lvgl/src/draw/sw/blend/lv_draw_sw_blend_to_i1.c **** }
 7494              		.loc 1 1273 47 view .LVU2415
 7495 02b0 02F00702 		and	r2, r2, #7
 7496 02b4 58BF     		it	pl
 7497 02b6 5442     		rsbpl	r4, r2, #0
1273:Drivers/lvgl/src/draw/sw/blend/lv_draw_sw_blend_to_i1.c **** }
 7498              		.loc 1 1273 36 view .LVU2416
 7499 02b8 C4F10704 		rsb	r4, r4, #7
1273:Drivers/lvgl/src/draw/sw/blend/lv_draw_sw_blend_to_i1.c **** }
 7500              		.loc 1 1273 30 view .LVU2417
 7501 02bc 2341     		asrs	r3, r3, r4
 7502              	.LVL800:
1273:Drivers/lvgl/src/draw/sw/blend/lv_draw_sw_blend_to_i1.c **** }
 7503              		.loc 1 1273 30 view .LVU2418
 7504              	.LBE914:
 7505              	.LBE917:
 928:Drivers/lvgl/src/draw/sw/blend/lv_draw_sw_blend_to_i1.c ****                         lv_color_8_8_mix(src, &dest, LV_OPA_MIX2(mask_buf[mask_x], opa));
ARM GAS  /var/folders/qx/2_175_4n2s19vhvtspjhb3qh0000gn/T//ccaVas4T.s 			page 204


 7506              		.loc 1 928 33 discriminator 1 view .LVU2419
 7507 02be 43F30003 		sbfx	r3, r3, #0, #1
 7508 02c2 8DF82C30 		strb	r3, [sp, #44]
 929:Drivers/lvgl/src/draw/sw/blend/lv_draw_sw_blend_to_i1.c ****                         if(dest > I1_LUM_THRESHOLD) {
 7509              		.loc 1 929 25 is_stmt 1 view .LVU2420
 929:Drivers/lvgl/src/draw/sw/blend/lv_draw_sw_blend_to_i1.c ****                         if(dest > I1_LUM_THRESHOLD) {
 7510              		.loc 1 929 54 is_stmt 0 view .LVU2421
 7511 02c6 18F80920 		ldrb	r2, [r8, r9]	@ zero_extendqisi2
 7512 02ca 029B     		ldr	r3, [sp, #8]
 7513 02cc 03FB02F2 		mul	r2, r3, r2
 929:Drivers/lvgl/src/draw/sw/blend/lv_draw_sw_blend_to_i1.c ****                         if(dest > I1_LUM_THRESHOLD) {
 7514              		.loc 1 929 25 view .LVU2422
 7515 02d0 120A     		lsrs	r2, r2, #8
 7516 02d2 0BA9     		add	r1, sp, #44
 7517 02d4 FFF7FEFF 		bl	lv_color_8_8_mix
 7518              	.LVL801:
 930:Drivers/lvgl/src/draw/sw/blend/lv_draw_sw_blend_to_i1.c ****                             set_bit(dest_buf_i1, dest_x + bit_ofs);
 7519              		.loc 1 930 25 is_stmt 1 view .LVU2423
 930:Drivers/lvgl/src/draw/sw/blend/lv_draw_sw_blend_to_i1.c ****                             set_bit(dest_buf_i1, dest_x + bit_ofs);
 7520              		.loc 1 930 33 is_stmt 0 view .LVU2424
 7521 02d8 9DF92C30 		ldrsb	r3, [sp, #44]
 930:Drivers/lvgl/src/draw/sw/blend/lv_draw_sw_blend_to_i1.c ****                             set_bit(dest_buf_i1, dest_x + bit_ofs);
 7522              		.loc 1 930 27 view .LVU2425
 7523 02dc 002B     		cmp	r3, #0
 7524 02de CCDB     		blt	.L437
 934:Drivers/lvgl/src/draw/sw/blend/lv_draw_sw_blend_to_i1.c ****                         }
 7525              		.loc 1 934 29 is_stmt 1 view .LVU2426
 7526              	.LVL802:
 7527              	.LBB918:
 7528              	.LBI918:
1266:Drivers/lvgl/src/draw/sw/blend/lv_draw_sw_blend_to_i1.c **** {
 7529              		.loc 1 1266 42 view .LVU2427
 7530              	.LBB919:
1268:Drivers/lvgl/src/draw/sw/blend/lv_draw_sw_blend_to_i1.c **** }
 7531              		.loc 1 1268 5 view .LVU2428
1268:Drivers/lvgl/src/draw/sw/blend/lv_draw_sw_blend_to_i1.c **** }
 7532              		.loc 1 1268 8 is_stmt 0 view .LVU2429
 7533 02e0 EA5D     		ldrb	r2, [r5, r7]	@ zero_extendqisi2
1268:Drivers/lvgl/src/draw/sw/blend/lv_draw_sw_blend_to_i1.c **** }
 7534              		.loc 1 1268 29 view .LVU2430
 7535 02e2 0123     		movs	r3, #1
 7536 02e4 A340     		lsls	r3, r3, r4
1268:Drivers/lvgl/src/draw/sw/blend/lv_draw_sw_blend_to_i1.c **** }
 7537              		.loc 1 1268 22 view .LVU2431
 7538 02e6 DB43     		mvns	r3, r3
 7539 02e8 5BB2     		sxtb	r3, r3
 7540 02ea 1340     		ands	r3, r3, r2
 7541 02ec EB55     		strb	r3, [r5, r7]
 7542              	.LVL803:
1269:Drivers/lvgl/src/draw/sw/blend/lv_draw_sw_blend_to_i1.c **** 
 7543              		.loc 1 1269 1 view .LVU2432
 7544 02ee C9E7     		b	.L406
 7545              	.LVL804:
 7546              	.L435:
1269:Drivers/lvgl/src/draw/sw/blend/lv_draw_sw_blend_to_i1.c **** 
 7547              		.loc 1 1269 1 view .LVU2433
 7548              	.LBE919:
ARM GAS  /var/folders/qx/2_175_4n2s19vhvtspjhb3qh0000gn/T//ccaVas4T.s 			page 205


 7549              	.LBE918:
 7550              	.LBE920:
 7551              	.LBB921:
 7552              	.LBB922:
1258:Drivers/lvgl/src/draw/sw/blend/lv_draw_sw_blend_to_i1.c **** }
 7553              		.loc 1 1258 12 view .LVU2434
 7554 02f0 079F     		ldr	r7, [sp, #28]
 7555              	.LBE922:
 7556              	.LBE921:
 937:Drivers/lvgl/src/draw/sw/blend/lv_draw_sw_blend_to_i1.c ****                     src_buf_rgb888 = drawbuf_next_row(src_buf_rgb888, src_stride);
 7557              		.loc 1 937 21 is_stmt 1 view .LVU2435
 7558              	.LVL805:
 7559              	.LBB924:
 7560              	.LBI921:
1256:Drivers/lvgl/src/draw/sw/blend/lv_draw_sw_blend_to_i1.c **** {
 7561              		.loc 1 1256 44 view .LVU2436
 7562              	.LBB923:
1258:Drivers/lvgl/src/draw/sw/blend/lv_draw_sw_blend_to_i1.c **** }
 7563              		.loc 1 1258 5 view .LVU2437
1258:Drivers/lvgl/src/draw/sw/blend/lv_draw_sw_blend_to_i1.c **** }
 7564              		.loc 1 1258 12 is_stmt 0 view .LVU2438
 7565 02f2 059B     		ldr	r3, [sp, #20]
 7566 02f4 1D44     		add	r5, r5, r3
 7567              	.LVL806:
1258:Drivers/lvgl/src/draw/sw/blend/lv_draw_sw_blend_to_i1.c **** }
 7568              		.loc 1 1258 12 view .LVU2439
 7569              	.LBE923:
 7570              	.LBE924:
 938:Drivers/lvgl/src/draw/sw/blend/lv_draw_sw_blend_to_i1.c ****                     mask_buf += mask_stride;
 7571              		.loc 1 938 21 is_stmt 1 view .LVU2440
 7572              	.LBB925:
 7573              	.LBI925:
1256:Drivers/lvgl/src/draw/sw/blend/lv_draw_sw_blend_to_i1.c **** {
 7574              		.loc 1 1256 44 view .LVU2441
 7575              	.LBB926:
1258:Drivers/lvgl/src/draw/sw/blend/lv_draw_sw_blend_to_i1.c **** }
 7576              		.loc 1 1258 5 view .LVU2442
1258:Drivers/lvgl/src/draw/sw/blend/lv_draw_sw_blend_to_i1.c **** }
 7577              		.loc 1 1258 12 is_stmt 0 view .LVU2443
 7578 02f6 069B     		ldr	r3, [sp, #24]
 7579 02f8 9B44     		add	fp, fp, r3
 7580              	.LVL807:
1258:Drivers/lvgl/src/draw/sw/blend/lv_draw_sw_blend_to_i1.c **** }
 7581              		.loc 1 1258 12 view .LVU2444
 7582              	.LBE926:
 7583              	.LBE925:
 939:Drivers/lvgl/src/draw/sw/blend/lv_draw_sw_blend_to_i1.c ****                 }
 7584              		.loc 1 939 21 is_stmt 1 view .LVU2445
 939:Drivers/lvgl/src/draw/sw/blend/lv_draw_sw_blend_to_i1.c ****                 }
 7585              		.loc 1 939 30 is_stmt 0 view .LVU2446
 7586 02fa 099B     		ldr	r3, [sp, #36]
 7587 02fc 9844     		add	r8, r8, r3
 7588              	.LVL808:
 925:Drivers/lvgl/src/draw/sw/blend/lv_draw_sw_blend_to_i1.c ****                     for(mask_x = 0, dest_x = 0, src_x = 0; dest_x < w; mask_x++, dest_x++, src_x +=
 7589              		.loc 1 925 36 is_stmt 1 discriminator 2 view .LVU2447
 7590 02fe 0137     		adds	r7, r7, #1
 7591              	.LVL809:
ARM GAS  /var/folders/qx/2_175_4n2s19vhvtspjhb3qh0000gn/T//ccaVas4T.s 			page 206


 7592              	.L403:
 925:Drivers/lvgl/src/draw/sw/blend/lv_draw_sw_blend_to_i1.c ****                     for(mask_x = 0, dest_x = 0, src_x = 0; dest_x < w; mask_x++, dest_x++, src_x +=
 7593              		.loc 1 925 30 discriminator 1 view .LVU2448
 7594 0300 089B     		ldr	r3, [sp, #32]
 7595 0302 9F42     		cmp	r7, r3
 7596 0304 52DA     		bge	.L379
 926:Drivers/lvgl/src/draw/sw/blend/lv_draw_sw_blend_to_i1.c ****                         uint8_t src = lv_color24_luminance(&src_buf_rgb888[src_x]);
 7597              		.loc 1 926 32 is_stmt 0 view .LVU2449
 7598 0306 4FF00009 		mov	r9, #0
 926:Drivers/lvgl/src/draw/sw/blend/lv_draw_sw_blend_to_i1.c ****                         uint8_t src = lv_color24_luminance(&src_buf_rgb888[src_x]);
 7599              		.loc 1 926 55 view .LVU2450
 7600 030a CA46     		mov	r10, r9
 926:Drivers/lvgl/src/draw/sw/blend/lv_draw_sw_blend_to_i1.c ****                         uint8_t src = lv_color24_luminance(&src_buf_rgb888[src_x]);
 7601              		.loc 1 926 44 view .LVU2451
 7602 030c 4E46     		mov	r6, r9
 7603 030e 0797     		str	r7, [sp, #28]
 7604 0310 BDE7     		b	.L408
 7605              	.LVL810:
 7606              	.L421:
 925:Drivers/lvgl/src/draw/sw/blend/lv_draw_sw_blend_to_i1.c ****                     for(mask_x = 0, dest_x = 0, src_x = 0; dest_x < w; mask_x++, dest_x++, src_x +=
 7607              		.loc 1 925 23 view .LVU2452
 7608 0312 4FF0000B 		mov	fp, #0
 7609 0316 5B46     		mov	r3, fp
 7610 0318 BB46     		mov	fp, r7
 7611 031a CDF80C80 		str	r8, [sp, #12]
 7612 031e 9046     		mov	r8, r2
 7613              	.LVL811:
 925:Drivers/lvgl/src/draw/sw/blend/lv_draw_sw_blend_to_i1.c ****                     for(mask_x = 0, dest_x = 0, src_x = 0; dest_x < w; mask_x++, dest_x++, src_x +=
 7614              		.loc 1 925 23 view .LVU2453
 7615 0320 CDF820C0 		str	ip, [sp, #32]
 7616 0324 CDF824E0 		str	lr, [sp, #36]
 7617 0328 0491     		str	r1, [sp, #16]
 7618 032a 1F46     		mov	r7, r3
 7619              	.LVL812:
 925:Drivers/lvgl/src/draw/sw/blend/lv_draw_sw_blend_to_i1.c ****                     for(mask_x = 0, dest_x = 0, src_x = 0; dest_x < w; mask_x++, dest_x++, src_x +=
 7620              		.loc 1 925 23 view .LVU2454
 7621 032c E8E7     		b	.L403
 7622              	.LVL813:
 7623              	.L439:
 925:Drivers/lvgl/src/draw/sw/blend/lv_draw_sw_blend_to_i1.c ****                     for(mask_x = 0, dest_x = 0, src_x = 0; dest_x < w; mask_x++, dest_x++, src_x +=
 7624              		.loc 1 925 23 view .LVU2455
 7625              	.LBE910:
 7626              	.LBB927:
 950:Drivers/lvgl/src/draw/sw/blend/lv_draw_sw_blend_to_i1.c ****                     else src_argb.alpha = LV_OPA_MIX2(mask_buf[dest_x], opa);
 7627              		.loc 1 950 42 is_stmt 1 discriminator 1 view .LVU2456
 950:Drivers/lvgl/src/draw/sw/blend/lv_draw_sw_blend_to_i1.c ****                     else src_argb.alpha = LV_OPA_MIX2(mask_buf[dest_x], opa);
 7628              		.loc 1 950 57 is_stmt 0 discriminator 1 view .LVU2457
 7629 032e 029B     		ldr	r3, [sp, #8]
 7630 0330 8DF82F30 		strb	r3, [sp, #47]
 7631              	.L410:
 953:Drivers/lvgl/src/draw/sw/blend/lv_draw_sw_blend_to_i1.c ****                 }
 7632              		.loc 1 953 21 is_stmt 1 view .LVU2458
 7633 0334 99F82230 		ldrb	r3, [r9, #34]	@ zero_extendqisi2
 7634 0338 0B9A     		ldr	r2, [sp, #44]
 7635 033a 04EB0B01 		add	r1, r4, fp
 7636 033e 5046     		mov	r0, r10
 7637 0340 FFF7FEFF 		bl	blend_non_normal_pixel
ARM GAS  /var/folders/qx/2_175_4n2s19vhvtspjhb3qh0000gn/T//ccaVas4T.s 			page 207


 7638              	.LVL814:
 946:Drivers/lvgl/src/draw/sw/blend/lv_draw_sw_blend_to_i1.c ****                     src_argb.red = src_buf_rgb888[src_x + 2];
 7639              		.loc 1 946 64 discriminator 2 view .LVU2459
 946:Drivers/lvgl/src/draw/sw/blend/lv_draw_sw_blend_to_i1.c ****                     src_argb.red = src_buf_rgb888[src_x + 2];
 7640              		.loc 1 946 62 is_stmt 0 discriminator 2 view .LVU2460
 7641 0344 0134     		adds	r4, r4, #1
 7642              	.LVL815:
 946:Drivers/lvgl/src/draw/sw/blend/lv_draw_sw_blend_to_i1.c ****                     src_argb.red = src_buf_rgb888[src_x + 2];
 7643              		.loc 1 946 72 discriminator 2 view .LVU2461
 7644 0346 019B     		ldr	r3, [sp, #4]
 7645 0348 1E44     		add	r6, r6, r3
 7646              	.LVL816:
 7647              	.L414:
 946:Drivers/lvgl/src/draw/sw/blend/lv_draw_sw_blend_to_i1.c ****                     src_argb.red = src_buf_rgb888[src_x + 2];
 7648              		.loc 1 946 51 is_stmt 1 discriminator 1 view .LVU2462
 7649 034a 4445     		cmp	r4, r8
 7650 034c 13DA     		bge	.L438
 947:Drivers/lvgl/src/draw/sw/blend/lv_draw_sw_blend_to_i1.c ****                     src_argb.green = src_buf_rgb888[src_x + 1];
 7651              		.loc 1 947 21 view .LVU2463
 947:Drivers/lvgl/src/draw/sw/blend/lv_draw_sw_blend_to_i1.c ****                     src_argb.green = src_buf_rgb888[src_x + 1];
 7652              		.loc 1 947 50 is_stmt 0 view .LVU2464
 7653 034e BB19     		adds	r3, r7, r6
 7654 0350 9A78     		ldrb	r2, [r3, #2]	@ zero_extendqisi2
 947:Drivers/lvgl/src/draw/sw/blend/lv_draw_sw_blend_to_i1.c ****                     src_argb.green = src_buf_rgb888[src_x + 1];
 7655              		.loc 1 947 34 view .LVU2465
 7656 0352 8DF82E20 		strb	r2, [sp, #46]
 948:Drivers/lvgl/src/draw/sw/blend/lv_draw_sw_blend_to_i1.c ****                     src_argb.blue = src_buf_rgb888[src_x + 0];
 7657              		.loc 1 948 21 is_stmt 1 view .LVU2466
 948:Drivers/lvgl/src/draw/sw/blend/lv_draw_sw_blend_to_i1.c ****                     src_argb.blue = src_buf_rgb888[src_x + 0];
 7658              		.loc 1 948 52 is_stmt 0 view .LVU2467
 7659 0356 5B78     		ldrb	r3, [r3, #1]	@ zero_extendqisi2
 948:Drivers/lvgl/src/draw/sw/blend/lv_draw_sw_blend_to_i1.c ****                     src_argb.blue = src_buf_rgb888[src_x + 0];
 7660              		.loc 1 948 36 view .LVU2468
 7661 0358 8DF82D30 		strb	r3, [sp, #45]
 949:Drivers/lvgl/src/draw/sw/blend/lv_draw_sw_blend_to_i1.c ****                     if(mask_buf == NULL) src_argb.alpha = opa;
 7662              		.loc 1 949 21 is_stmt 1 view .LVU2469
 949:Drivers/lvgl/src/draw/sw/blend/lv_draw_sw_blend_to_i1.c ****                     if(mask_buf == NULL) src_argb.alpha = opa;
 7663              		.loc 1 949 51 is_stmt 0 view .LVU2470
 7664 035c BB5D     		ldrb	r3, [r7, r6]	@ zero_extendqisi2
 949:Drivers/lvgl/src/draw/sw/blend/lv_draw_sw_blend_to_i1.c ****                     if(mask_buf == NULL) src_argb.alpha = opa;
 7665              		.loc 1 949 35 view .LVU2471
 7666 035e 8DF82C30 		strb	r3, [sp, #44]
 950:Drivers/lvgl/src/draw/sw/blend/lv_draw_sw_blend_to_i1.c ****                     else src_argb.alpha = LV_OPA_MIX2(mask_buf[dest_x], opa);
 7667              		.loc 1 950 21 is_stmt 1 view .LVU2472
 950:Drivers/lvgl/src/draw/sw/blend/lv_draw_sw_blend_to_i1.c ****                     else src_argb.alpha = LV_OPA_MIX2(mask_buf[dest_x], opa);
 7668              		.loc 1 950 23 is_stmt 0 view .LVU2473
 7669 0362 002D     		cmp	r5, #0
 7670 0364 E3D0     		beq	.L439
 951:Drivers/lvgl/src/draw/sw/blend/lv_draw_sw_blend_to_i1.c **** 
 7671              		.loc 1 951 26 is_stmt 1 view .LVU2474
 951:Drivers/lvgl/src/draw/sw/blend/lv_draw_sw_blend_to_i1.c **** 
 7672              		.loc 1 951 43 is_stmt 0 view .LVU2475
 7673 0366 2B5D     		ldrb	r3, [r5, r4]	@ zero_extendqisi2
 7674 0368 029A     		ldr	r2, [sp, #8]
 7675 036a 02FB03F3 		mul	r3, r2, r3
 7676 036e 1B0A     		lsrs	r3, r3, #8
 951:Drivers/lvgl/src/draw/sw/blend/lv_draw_sw_blend_to_i1.c **** 
ARM GAS  /var/folders/qx/2_175_4n2s19vhvtspjhb3qh0000gn/T//ccaVas4T.s 			page 208


 7677              		.loc 1 951 41 view .LVU2476
 7678 0370 8DF82F30 		strb	r3, [sp, #47]
 7679 0374 DEE7     		b	.L410
 7680              	.L438:
 955:Drivers/lvgl/src/draw/sw/blend/lv_draw_sw_blend_to_i1.c ****                 dest_buf_i1 = drawbuf_next_row(dest_buf_i1, dest_stride);
 7681              		.loc 1 955 19 view .LVU2477
 7682 0376 0398     		ldr	r0, [sp, #12]
 955:Drivers/lvgl/src/draw/sw/blend/lv_draw_sw_blend_to_i1.c ****                 dest_buf_i1 = drawbuf_next_row(dest_buf_i1, dest_stride);
 7683              		.loc 1 955 17 is_stmt 1 view .LVU2478
 955:Drivers/lvgl/src/draw/sw/blend/lv_draw_sw_blend_to_i1.c ****                 dest_buf_i1 = drawbuf_next_row(dest_buf_i1, dest_stride);
 7684              		.loc 1 955 19 is_stmt 0 view .LVU2479
 7685 0378 0DB1     		cbz	r5, .L412
 955:Drivers/lvgl/src/draw/sw/blend/lv_draw_sw_blend_to_i1.c ****                 dest_buf_i1 = drawbuf_next_row(dest_buf_i1, dest_stride);
 7686              		.loc 1 955 30 is_stmt 1 discriminator 1 view .LVU2480
 955:Drivers/lvgl/src/draw/sw/blend/lv_draw_sw_blend_to_i1.c ****                 dest_buf_i1 = drawbuf_next_row(dest_buf_i1, dest_stride);
 7687              		.loc 1 955 39 is_stmt 0 discriminator 1 view .LVU2481
 7688 037a 079B     		ldr	r3, [sp, #28]
 7689 037c 1D44     		add	r5, r5, r3
 7690              	.LVL817:
 7691              	.L412:
 956:Drivers/lvgl/src/draw/sw/blend/lv_draw_sw_blend_to_i1.c ****                 src_buf_rgb888 = drawbuf_next_row(src_buf_rgb888, src_stride);
 7692              		.loc 1 956 17 is_stmt 1 view .LVU2482
 7693              	.LBB928:
 7694              	.LBI928:
1256:Drivers/lvgl/src/draw/sw/blend/lv_draw_sw_blend_to_i1.c **** {
 7695              		.loc 1 1256 44 view .LVU2483
 7696              	.LBB929:
1258:Drivers/lvgl/src/draw/sw/blend/lv_draw_sw_blend_to_i1.c **** }
 7697              		.loc 1 1258 5 view .LVU2484
1258:Drivers/lvgl/src/draw/sw/blend/lv_draw_sw_blend_to_i1.c **** }
 7698              		.loc 1 1258 12 is_stmt 0 view .LVU2485
 7699 037e 059B     		ldr	r3, [sp, #20]
 7700 0380 9A44     		add	r10, r10, r3
 7701              	.LVL818:
1258:Drivers/lvgl/src/draw/sw/blend/lv_draw_sw_blend_to_i1.c **** }
 7702              		.loc 1 1258 12 view .LVU2486
 7703              	.LBE929:
 7704              	.LBE928:
 957:Drivers/lvgl/src/draw/sw/blend/lv_draw_sw_blend_to_i1.c ****             }
 7705              		.loc 1 957 17 is_stmt 1 view .LVU2487
 7706              	.LBB930:
 7707              	.LBI930:
1256:Drivers/lvgl/src/draw/sw/blend/lv_draw_sw_blend_to_i1.c **** {
 7708              		.loc 1 1256 44 view .LVU2488
 7709              	.LBB931:
1258:Drivers/lvgl/src/draw/sw/blend/lv_draw_sw_blend_to_i1.c **** }
 7710              		.loc 1 1258 5 view .LVU2489
1258:Drivers/lvgl/src/draw/sw/blend/lv_draw_sw_blend_to_i1.c **** }
 7711              		.loc 1 1258 12 is_stmt 0 view .LVU2490
 7712 0382 069B     		ldr	r3, [sp, #24]
 7713 0384 1F44     		add	r7, r7, r3
 7714              	.LVL819:
1258:Drivers/lvgl/src/draw/sw/blend/lv_draw_sw_blend_to_i1.c **** }
 7715              		.loc 1 1258 12 view .LVU2491
 7716              	.LBE931:
 7717              	.LBE930:
 945:Drivers/lvgl/src/draw/sw/blend/lv_draw_sw_blend_to_i1.c ****                 for(dest_x = 0, src_x = 0; dest_x < w; dest_x++, src_x += src_px_size) {
ARM GAS  /var/folders/qx/2_175_4n2s19vhvtspjhb3qh0000gn/T//ccaVas4T.s 			page 209


 7718              		.loc 1 945 32 is_stmt 1 discriminator 2 view .LVU2492
 7719 0386 0130     		adds	r0, r0, #1
 7720              	.LVL820:
 7721              	.L413:
 945:Drivers/lvgl/src/draw/sw/blend/lv_draw_sw_blend_to_i1.c ****                 for(dest_x = 0, src_x = 0; dest_x < w; dest_x++, src_x += src_px_size) {
 7722              		.loc 1 945 26 discriminator 1 view .LVU2493
 7723 0388 049B     		ldr	r3, [sp, #16]
 7724 038a 9842     		cmp	r0, r3
 7725 038c 0EDA     		bge	.L379
 946:Drivers/lvgl/src/draw/sw/blend/lv_draw_sw_blend_to_i1.c ****                     src_argb.red = src_buf_rgb888[src_x + 2];
 7726              		.loc 1 946 39 is_stmt 0 view .LVU2494
 7727 038e 0026     		movs	r6, #0
 946:Drivers/lvgl/src/draw/sw/blend/lv_draw_sw_blend_to_i1.c ****                     src_argb.red = src_buf_rgb888[src_x + 2];
 7728              		.loc 1 946 28 view .LVU2495
 7729 0390 3446     		mov	r4, r6
 7730 0392 0390     		str	r0, [sp, #12]
 7731 0394 D9E7     		b	.L414
 7732              	.LVL821:
 7733              	.L420:
 946:Drivers/lvgl/src/draw/sw/blend/lv_draw_sw_blend_to_i1.c ****                     src_argb.red = src_buf_rgb888[src_x + 2];
 7734              		.loc 1 946 28 view .LVU2496
 7735              	.LBE927:
 7736 0396 4FF0000A 		mov	r10, #0
 7737 039a 5046     		mov	r0, r10
 7738              	.LVL822:
 946:Drivers/lvgl/src/draw/sw/blend/lv_draw_sw_blend_to_i1.c ****                     src_argb.red = src_buf_rgb888[src_x + 2];
 7739              		.loc 1 946 28 view .LVU2497
 7740 039c AA46     		mov	r10, r5
 7741 039e 1546     		mov	r5, r2
 7742              	.LVL823:
 946:Drivers/lvgl/src/draw/sw/blend/lv_draw_sw_blend_to_i1.c ****                     src_argb.red = src_buf_rgb888[src_x + 2];
 7743              		.loc 1 946 28 view .LVU2498
 7744 03a0 CDF810C0 		str	ip, [sp, #16]
 7745 03a4 CDF81CE0 		str	lr, [sp, #28]
 7746 03a8 8B46     		mov	fp, r1
 7747 03aa EDE7     		b	.L413
 7748              	.LVL824:
 7749              	.L379:
 961:Drivers/lvgl/src/draw/sw/blend/lv_draw_sw_blend_to_i1.c **** #endif
 7750              		.loc 1 961 1 view .LVU2499
 7751 03ac 0DB0     		add	sp, sp, #52
 7752              	.LCFI24:
 7753              		.cfi_def_cfa_offset 36
 7754              		@ sp needed
 7755 03ae BDE8F08F 		pop	{r4, r5, r6, r7, r8, r9, r10, fp, pc}
 961:Drivers/lvgl/src/draw/sw/blend/lv_draw_sw_blend_to_i1.c **** #endif
 7756              		.loc 1 961 1 view .LVU2500
 7757              		.cfi_endproc
 7758              	.LFE187:
 7760              		.section	.text.lv_draw_sw_blend_color_to_i1,"ax",%progbits
 7761              		.align	1
 7762              		.global	lv_draw_sw_blend_color_to_i1
 7763              		.syntax unified
 7764              		.thumb
 7765              		.thumb_func
 7767              	lv_draw_sw_blend_color_to_i1:
 7768              	.LVL825:
ARM GAS  /var/folders/qx/2_175_4n2s19vhvtspjhb3qh0000gn/T//ccaVas4T.s 			page 210


 7769              	.LFB181:
 228:Drivers/lvgl/src/draw/sw/blend/lv_draw_sw_blend_to_i1.c ****     int32_t w = dsc->dest_w;
 7770              		.loc 1 228 1 is_stmt 1 view -0
 7771              		.cfi_startproc
 7772              		@ args = 0, pretend = 0, frame = 24
 7773              		@ frame_needed = 0, uses_anonymous_args = 0
 228:Drivers/lvgl/src/draw/sw/blend/lv_draw_sw_blend_to_i1.c ****     int32_t w = dsc->dest_w;
 7774              		.loc 1 228 1 is_stmt 0 view .LVU2502
 7775 0000 2DE9F04F 		push	{r4, r5, r6, r7, r8, r9, r10, fp, lr}
 7776              	.LCFI25:
 7777              		.cfi_def_cfa_offset 36
 7778              		.cfi_offset 4, -36
 7779              		.cfi_offset 5, -32
 7780              		.cfi_offset 6, -28
 7781              		.cfi_offset 7, -24
 7782              		.cfi_offset 8, -20
 7783              		.cfi_offset 9, -16
 7784              		.cfi_offset 10, -12
 7785              		.cfi_offset 11, -8
 7786              		.cfi_offset 14, -4
 7787 0004 87B0     		sub	sp, sp, #28
 7788              	.LCFI26:
 7789              		.cfi_def_cfa_offset 64
 7790 0006 8046     		mov	r8, r0
 229:Drivers/lvgl/src/draw/sw/blend/lv_draw_sw_blend_to_i1.c ****     int32_t h = dsc->dest_h;
 7791              		.loc 1 229 5 is_stmt 1 view .LVU2503
 229:Drivers/lvgl/src/draw/sw/blend/lv_draw_sw_blend_to_i1.c ****     int32_t h = dsc->dest_h;
 7792              		.loc 1 229 13 is_stmt 0 view .LVU2504
 7793 0008 4468     		ldr	r4, [r0, #4]
 7794              	.LVL826:
 230:Drivers/lvgl/src/draw/sw/blend/lv_draw_sw_blend_to_i1.c ****     lv_opa_t opa = dsc->opa;
 7795              		.loc 1 230 5 is_stmt 1 view .LVU2505
 230:Drivers/lvgl/src/draw/sw/blend/lv_draw_sw_blend_to_i1.c ****     lv_opa_t opa = dsc->opa;
 7796              		.loc 1 230 13 is_stmt 0 view .LVU2506
 7797 000a D0F80890 		ldr	r9, [r0, #8]
 7798              	.LVL827:
 231:Drivers/lvgl/src/draw/sw/blend/lv_draw_sw_blend_to_i1.c ****     const lv_opa_t * mask = dsc->mask_buf;
 7799              		.loc 1 231 5 is_stmt 1 view .LVU2507
 231:Drivers/lvgl/src/draw/sw/blend/lv_draw_sw_blend_to_i1.c ****     const lv_opa_t * mask = dsc->mask_buf;
 7800              		.loc 1 231 14 is_stmt 0 view .LVU2508
 7801 000e C67E     		ldrb	r6, [r0, #27]	@ zero_extendqisi2
 7802              	.LVL828:
 232:Drivers/lvgl/src/draw/sw/blend/lv_draw_sw_blend_to_i1.c ****     int32_t mask_stride = dsc->mask_stride;
 7803              		.loc 1 232 5 is_stmt 1 view .LVU2509
 232:Drivers/lvgl/src/draw/sw/blend/lv_draw_sw_blend_to_i1.c ****     int32_t mask_stride = dsc->mask_stride;
 7804              		.loc 1 232 22 is_stmt 0 view .LVU2510
 7805 0010 0569     		ldr	r5, [r0, #16]
 7806              	.LVL829:
 233:Drivers/lvgl/src/draw/sw/blend/lv_draw_sw_blend_to_i1.c ****     int32_t dest_stride = dsc->dest_stride;
 7807              		.loc 1 233 5 is_stmt 1 view .LVU2511
 233:Drivers/lvgl/src/draw/sw/blend/lv_draw_sw_blend_to_i1.c ****     int32_t dest_stride = dsc->dest_stride;
 7808              		.loc 1 233 13 is_stmt 0 view .LVU2512
 7809 0012 4369     		ldr	r3, [r0, #20]
 7810 0014 0393     		str	r3, [sp, #12]
 7811              	.LVL830:
 234:Drivers/lvgl/src/draw/sw/blend/lv_draw_sw_blend_to_i1.c **** 
 7812              		.loc 1 234 5 is_stmt 1 view .LVU2513
ARM GAS  /var/folders/qx/2_175_4n2s19vhvtspjhb3qh0000gn/T//ccaVas4T.s 			page 211


 234:Drivers/lvgl/src/draw/sw/blend/lv_draw_sw_blend_to_i1.c **** 
 7813              		.loc 1 234 13 is_stmt 0 view .LVU2514
 7814 0016 C368     		ldr	r3, [r0, #12]
 7815              	.LVL831:
 234:Drivers/lvgl/src/draw/sw/blend/lv_draw_sw_blend_to_i1.c **** 
 7816              		.loc 1 234 13 view .LVU2515
 7817 0018 0493     		str	r3, [sp, #16]
 7818              	.LVL832:
 236:Drivers/lvgl/src/draw/sw/blend/lv_draw_sw_blend_to_i1.c ****     uint8_t * dest_buf = dsc->dest_buf;
 7819              		.loc 1 236 5 is_stmt 1 view .LVU2516
 236:Drivers/lvgl/src/draw/sw/blend/lv_draw_sw_blend_to_i1.c ****     uint8_t * dest_buf = dsc->dest_buf;
 7820              		.loc 1 236 25 is_stmt 0 view .LVU2517
 7821 001a 8069     		ldr	r0, [r0, #24]
 7822              	.LVL833:
 236:Drivers/lvgl/src/draw/sw/blend/lv_draw_sw_blend_to_i1.c ****     uint8_t * dest_buf = dsc->dest_buf;
 7823              		.loc 1 236 25 view .LVU2518
 7824 001c FFF7FEFF 		bl	lv_color_luminance
 7825              	.LVL834:
 236:Drivers/lvgl/src/draw/sw/blend/lv_draw_sw_blend_to_i1.c ****     uint8_t * dest_buf = dsc->dest_buf;
 7826              		.loc 1 236 13 discriminator 1 view .LVU2519
 7827 0020 C0F3C71B 		ubfx	fp, r0, #7, #8
 7828              	.LVL835:
 237:Drivers/lvgl/src/draw/sw/blend/lv_draw_sw_blend_to_i1.c **** 
 7829              		.loc 1 237 5 is_stmt 1 view .LVU2520
 237:Drivers/lvgl/src/draw/sw/blend/lv_draw_sw_blend_to_i1.c **** 
 7830              		.loc 1 237 15 is_stmt 0 view .LVU2521
 7831 0024 D8F80070 		ldr	r7, [r8]
 7832              	.LVL836:
 239:Drivers/lvgl/src/draw/sw/blend/lv_draw_sw_blend_to_i1.c **** 
 7833              		.loc 1 239 5 is_stmt 1 view .LVU2522
 239:Drivers/lvgl/src/draw/sw/blend/lv_draw_sw_blend_to_i1.c **** 
 7834              		.loc 1 239 41 is_stmt 0 view .LVU2523
 7835 0028 D8F81C20 		ldr	r2, [r8, #28]
 239:Drivers/lvgl/src/draw/sw/blend/lv_draw_sw_blend_to_i1.c **** 
 7836              		.loc 1 239 13 view .LVU2524
 7837 002c 5342     		rsbs	r3, r2, #0
 7838 002e 02F0070A 		and	r10, r2, #7
 7839 0032 03F00703 		and	r3, r3, #7
 7840 0036 58BF     		it	pl
 7841 0038 C3F1000A 		rsbpl	r10, r3, #0
 7842              	.LVL837:
 242:Drivers/lvgl/src/draw/sw/blend/lv_draw_sw_blend_to_i1.c ****         if(LV_RESULT_INVALID == LV_DRAW_SW_COLOR_BLEND_TO_I1(dsc)) {
 7843              		.loc 1 242 5 is_stmt 1 view .LVU2525
 242:Drivers/lvgl/src/draw/sw/blend/lv_draw_sw_blend_to_i1.c ****         if(LV_RESULT_INVALID == LV_DRAW_SW_COLOR_BLEND_TO_I1(dsc)) {
 7844              		.loc 1 242 7 is_stmt 0 view .LVU2526
 7845 003c 5DB1     		cbz	r5, .L481
 277:Drivers/lvgl/src/draw/sw/blend/lv_draw_sw_blend_to_i1.c ****         if(LV_RESULT_INVALID == LV_DRAW_SW_COLOR_BLEND_TO_I1_WITH_MASK(dsc)) {
 7846              		.loc 1 277 10 is_stmt 1 view .LVU2527
 277:Drivers/lvgl/src/draw/sw/blend/lv_draw_sw_blend_to_i1.c ****         if(LV_RESULT_INVALID == LV_DRAW_SW_COLOR_BLEND_TO_I1_WITH_MASK(dsc)) {
 7847              		.loc 1 277 12 is_stmt 0 view .LVU2528
 7848 003e 002D     		cmp	r5, #0
 7849 0040 00F08481 		beq	.L476
 277:Drivers/lvgl/src/draw/sw/blend/lv_draw_sw_blend_to_i1.c ****         if(LV_RESULT_INVALID == LV_DRAW_SW_COLOR_BLEND_TO_I1_WITH_MASK(dsc)) {
 7850              		.loc 1 277 18 discriminator 1 view .LVU2529
 7851 0044 FC2E     		cmp	r6, #252
 7852 0046 00F22681 		bhi	.L477
 7853 004a 0023     		movs	r3, #0
ARM GAS  /var/folders/qx/2_175_4n2s19vhvtspjhb3qh0000gn/T//ccaVas4T.s 			page 212


 7854 004c CDF81490 		str	r9, [sp, #20]
 7855 0050 9946     		mov	r9, r3
 7856              	.LVL838:
 277:Drivers/lvgl/src/draw/sw/blend/lv_draw_sw_blend_to_i1.c ****         if(LV_RESULT_INVALID == LV_DRAW_SW_COLOR_BLEND_TO_I1_WITH_MASK(dsc)) {
 7857              		.loc 1 277 18 discriminator 1 view .LVU2530
 7858 0052 0196     		str	r6, [sp, #4]
 7859 0054 73E1     		b	.L471
 7860              	.LVL839:
 7861              	.L481:
 242:Drivers/lvgl/src/draw/sw/blend/lv_draw_sw_blend_to_i1.c ****         if(LV_RESULT_INVALID == LV_DRAW_SW_COLOR_BLEND_TO_I1(dsc)) {
 7862              		.loc 1 242 21 discriminator 1 view .LVU2531
 7863 0056 FC2E     		cmp	r6, #252
 7864 0058 4CD8     		bhi	.L473
 7865              	.LBB932:
 260:Drivers/lvgl/src/draw/sw/blend/lv_draw_sw_blend_to_i1.c ****                 for(int32_t x = 0; x < w; x++) {
 7866              		.loc 1 260 25 view .LVU2532
 7867 005a 4FF00008 		mov	r8, #0
 7868              	.LVL840:
 260:Drivers/lvgl/src/draw/sw/blend/lv_draw_sw_blend_to_i1.c ****                 for(int32_t x = 0; x < w; x++) {
 7869              		.loc 1 260 25 view .LVU2533
 7870 005e DDF810C0 		ldr	ip, [sp, #16]
 7871 0062 87E0     		b	.L443
 7872              	.LVL841:
 7873              	.L445:
 260:Drivers/lvgl/src/draw/sw/blend/lv_draw_sw_blend_to_i1.c ****                 for(int32_t x = 0; x < w; x++) {
 7874              		.loc 1 260 25 view .LVU2534
 7875              	.LBE932:
 7876              	.LBB945:
 7877              	.LBB946:
 7878              	.LBB947:
 7879              	.LBB948:
1263:Drivers/lvgl/src/draw/sw/blend/lv_draw_sw_blend_to_i1.c **** }
 7880              		.loc 1 1263 17 view .LVU2535
 7881 0064 F610     		asrs	r6, r6, #3
1263:Drivers/lvgl/src/draw/sw/blend/lv_draw_sw_blend_to_i1.c **** }
 7882              		.loc 1 1263 8 view .LVU2536
 7883 0066 17F806C0 		ldrb	ip, [r7, r6]	@ zero_extendqisi2
1263:Drivers/lvgl/src/draw/sw/blend/lv_draw_sw_blend_to_i1.c **** }
 7884              		.loc 1 1263 45 view .LVU2537
 7885 006a D3F1000E 		rsbs	lr, r3, #0
 7886 006e 03F00703 		and	r3, r3, #7
 7887              	.LVL842:
1263:Drivers/lvgl/src/draw/sw/blend/lv_draw_sw_blend_to_i1.c **** }
 7888              		.loc 1 1263 45 view .LVU2538
 7889 0072 0EF0070E 		and	lr, lr, #7
 7890 0076 58BF     		it	pl
 7891 0078 CEF10003 		rsbpl	r3, lr, #0
1263:Drivers/lvgl/src/draw/sw/blend/lv_draw_sw_blend_to_i1.c **** }
 7892              		.loc 1 1263 34 view .LVU2539
 7893 007c C3F10703 		rsb	r3, r3, #7
1263:Drivers/lvgl/src/draw/sw/blend/lv_draw_sw_blend_to_i1.c **** }
 7894              		.loc 1 1263 28 view .LVU2540
 7895 0080 4FF0010E 		mov	lr, #1
 7896 0084 0EFA03F3 		lsl	r3, lr, r3
1263:Drivers/lvgl/src/draw/sw/blend/lv_draw_sw_blend_to_i1.c **** }
 7897              		.loc 1 1263 22 view .LVU2541
 7898 0088 4CEA0303 		orr	r3, ip, r3
ARM GAS  /var/folders/qx/2_175_4n2s19vhvtspjhb3qh0000gn/T//ccaVas4T.s 			page 213


 7899 008c BB55     		strb	r3, [r7, r6]
 7900              	.LVL843:
 7901              	.L446:
1263:Drivers/lvgl/src/draw/sw/blend/lv_draw_sw_blend_to_i1.c **** }
 7902              		.loc 1 1263 22 view .LVU2542
 7903              	.LBE948:
 7904              	.LBE947:
 245:Drivers/lvgl/src/draw/sw/blend/lv_draw_sw_blend_to_i1.c ****                     if(src_color) {
 7905              		.loc 1 245 44 is_stmt 1 discriminator 2 view .LVU2543
 7906 008e 0132     		adds	r2, r2, #1
 7907              	.LVL844:
 7908              	.L449:
 245:Drivers/lvgl/src/draw/sw/blend/lv_draw_sw_blend_to_i1.c ****                     if(src_color) {
 7909              		.loc 1 245 38 discriminator 1 view .LVU2544
 7910 0090 A242     		cmp	r2, r4
 7911 0092 28DA     		bge	.L482
 246:Drivers/lvgl/src/draw/sw/blend/lv_draw_sw_blend_to_i1.c ****                         set_bit(dest_buf, x + bit_ofs);
 7912              		.loc 1 246 21 view .LVU2545
 246:Drivers/lvgl/src/draw/sw/blend/lv_draw_sw_blend_to_i1.c ****                         set_bit(dest_buf, x + bit_ofs);
 7913              		.loc 1 246 23 is_stmt 0 view .LVU2546
 7914 0094 7F28     		cmp	r0, #127
 7915 0096 06D9     		bls	.L444
 247:Drivers/lvgl/src/draw/sw/blend/lv_draw_sw_blend_to_i1.c ****                     }
 7916              		.loc 1 247 25 is_stmt 1 view .LVU2547
 7917 0098 02EB0A03 		add	r3, r2, r10
 7918              	.LVL845:
 7919              	.LBB950:
 7920              	.LBI947:
1261:Drivers/lvgl/src/draw/sw/blend/lv_draw_sw_blend_to_i1.c **** {
 7921              		.loc 1 1261 42 view .LVU2548
 7922              	.LBB949:
1263:Drivers/lvgl/src/draw/sw/blend/lv_draw_sw_blend_to_i1.c **** }
 7923              		.loc 1 1263 5 view .LVU2549
1263:Drivers/lvgl/src/draw/sw/blend/lv_draw_sw_blend_to_i1.c **** }
 7924              		.loc 1 1263 17 is_stmt 0 view .LVU2550
 7925 009c 1E46     		mov	r6, r3
 7926 009e 002B     		cmp	r3, #0
 7927 00a0 E0DA     		bge	.L445
1263:Drivers/lvgl/src/draw/sw/blend/lv_draw_sw_blend_to_i1.c **** }
 7928              		.loc 1 1263 17 view .LVU2551
 7929 00a2 DE1D     		adds	r6, r3, #7
 7930 00a4 DEE7     		b	.L445
 7931              	.LVL846:
 7932              	.L444:
1263:Drivers/lvgl/src/draw/sw/blend/lv_draw_sw_blend_to_i1.c **** }
 7933              		.loc 1 1263 17 view .LVU2552
 7934              	.LBE949:
 7935              	.LBE950:
 250:Drivers/lvgl/src/draw/sw/blend/lv_draw_sw_blend_to_i1.c ****                     }
 7936              		.loc 1 250 25 is_stmt 1 view .LVU2553
 7937 00a6 02EB0A03 		add	r3, r2, r10
 7938              	.LVL847:
 7939              	.LBB951:
 7940              	.LBI951:
1266:Drivers/lvgl/src/draw/sw/blend/lv_draw_sw_blend_to_i1.c **** {
 7941              		.loc 1 1266 42 view .LVU2554
 7942              	.LBB952:
ARM GAS  /var/folders/qx/2_175_4n2s19vhvtspjhb3qh0000gn/T//ccaVas4T.s 			page 214


1268:Drivers/lvgl/src/draw/sw/blend/lv_draw_sw_blend_to_i1.c **** }
 7943              		.loc 1 1268 5 view .LVU2555
1268:Drivers/lvgl/src/draw/sw/blend/lv_draw_sw_blend_to_i1.c **** }
 7944              		.loc 1 1268 17 is_stmt 0 view .LVU2556
 7945 00aa 1E46     		mov	r6, r3
 7946 00ac 002B     		cmp	r3, #0
 7947 00ae 18DB     		blt	.L483
 7948              	.L447:
1268:Drivers/lvgl/src/draw/sw/blend/lv_draw_sw_blend_to_i1.c **** }
 7949              		.loc 1 1268 17 view .LVU2557
 7950 00b0 F610     		asrs	r6, r6, #3
1268:Drivers/lvgl/src/draw/sw/blend/lv_draw_sw_blend_to_i1.c **** }
 7951              		.loc 1 1268 8 view .LVU2558
 7952 00b2 17F806C0 		ldrb	ip, [r7, r6]	@ zero_extendqisi2
1268:Drivers/lvgl/src/draw/sw/blend/lv_draw_sw_blend_to_i1.c **** }
 7953              		.loc 1 1268 46 view .LVU2559
 7954 00b6 D3F1000E 		rsbs	lr, r3, #0
 7955 00ba 03F00703 		and	r3, r3, #7
 7956              	.LVL848:
1268:Drivers/lvgl/src/draw/sw/blend/lv_draw_sw_blend_to_i1.c **** }
 7957              		.loc 1 1268 46 view .LVU2560
 7958 00be 0EF0070E 		and	lr, lr, #7
 7959 00c2 58BF     		it	pl
 7960 00c4 CEF10003 		rsbpl	r3, lr, #0
1268:Drivers/lvgl/src/draw/sw/blend/lv_draw_sw_blend_to_i1.c **** }
 7961              		.loc 1 1268 35 view .LVU2561
 7962 00c8 C3F10703 		rsb	r3, r3, #7
1268:Drivers/lvgl/src/draw/sw/blend/lv_draw_sw_blend_to_i1.c **** }
 7963              		.loc 1 1268 29 view .LVU2562
 7964 00cc 4FF0010E 		mov	lr, #1
 7965 00d0 0EFA03F3 		lsl	r3, lr, r3
1268:Drivers/lvgl/src/draw/sw/blend/lv_draw_sw_blend_to_i1.c **** }
 7966              		.loc 1 1268 22 view .LVU2563
 7967 00d4 DB43     		mvns	r3, r3
 7968 00d6 5BB2     		sxtb	r3, r3
 7969 00d8 0CEA030C 		and	ip, ip, r3
 7970 00dc 07F806C0 		strb	ip, [r7, r6]
 7971              	.LVL849:
1269:Drivers/lvgl/src/draw/sw/blend/lv_draw_sw_blend_to_i1.c **** 
 7972              		.loc 1 1269 1 view .LVU2564
 7973 00e0 D5E7     		b	.L446
 7974              	.LVL850:
 7975              	.L483:
1268:Drivers/lvgl/src/draw/sw/blend/lv_draw_sw_blend_to_i1.c **** }
 7976              		.loc 1 1268 17 view .LVU2565
 7977 00e2 DE1D     		adds	r6, r3, #7
 7978 00e4 E4E7     		b	.L447
 7979              	.LVL851:
 7980              	.L482:
1268:Drivers/lvgl/src/draw/sw/blend/lv_draw_sw_blend_to_i1.c **** }
 7981              		.loc 1 1268 17 view .LVU2566
 7982              	.LBE952:
 7983              	.LBE951:
 7984              	.LBE946:
 253:Drivers/lvgl/src/draw/sw/blend/lv_draw_sw_blend_to_i1.c ****             }
 7985              		.loc 1 253 17 is_stmt 1 view .LVU2567
 7986              	.LBB953:
ARM GAS  /var/folders/qx/2_175_4n2s19vhvtspjhb3qh0000gn/T//ccaVas4T.s 			page 215


 7987              	.LBI953:
1256:Drivers/lvgl/src/draw/sw/blend/lv_draw_sw_blend_to_i1.c **** {
 7988              		.loc 1 1256 44 view .LVU2568
 7989              	.LBB954:
1258:Drivers/lvgl/src/draw/sw/blend/lv_draw_sw_blend_to_i1.c **** }
 7990              		.loc 1 1258 5 view .LVU2569
1258:Drivers/lvgl/src/draw/sw/blend/lv_draw_sw_blend_to_i1.c **** }
 7991              		.loc 1 1258 12 is_stmt 0 view .LVU2570
 7992 00e6 2F44     		add	r7, r7, r5
 7993              	.LVL852:
1258:Drivers/lvgl/src/draw/sw/blend/lv_draw_sw_blend_to_i1.c **** }
 7994              		.loc 1 1258 12 view .LVU2571
 7995              	.LBE954:
 7996              	.LBE953:
 244:Drivers/lvgl/src/draw/sw/blend/lv_draw_sw_blend_to_i1.c ****                 for(int32_t x = 0; x < w; x++) {
 7997              		.loc 1 244 40 is_stmt 1 discriminator 2 view .LVU2572
 7998 00e8 0131     		adds	r1, r1, #1
 7999              	.LVL853:
 8000              	.L442:
 244:Drivers/lvgl/src/draw/sw/blend/lv_draw_sw_blend_to_i1.c ****                 for(int32_t x = 0; x < w; x++) {
 8001              		.loc 1 244 34 discriminator 1 view .LVU2573
 8002 00ea 4945     		cmp	r1, r9
 8003 00ec 80F23481 		bge	.L440
 8004              	.LBB955:
 245:Drivers/lvgl/src/draw/sw/blend/lv_draw_sw_blend_to_i1.c ****                     if(src_color) {
 8005              		.loc 1 245 29 is_stmt 0 view .LVU2574
 8006 00f0 0022     		movs	r2, #0
 8007 00f2 CDE7     		b	.L449
 8008              	.LVL854:
 8009              	.L473:
 245:Drivers/lvgl/src/draw/sw/blend/lv_draw_sw_blend_to_i1.c ****                     if(src_color) {
 8010              		.loc 1 245 29 view .LVU2575
 8011              	.LBE955:
 244:Drivers/lvgl/src/draw/sw/blend/lv_draw_sw_blend_to_i1.c ****                 for(int32_t x = 0; x < w; x++) {
 8012              		.loc 1 244 25 view .LVU2576
 8013 00f4 0021     		movs	r1, #0
 8014 00f6 049D     		ldr	r5, [sp, #16]
 8015              	.LVL855:
 244:Drivers/lvgl/src/draw/sw/blend/lv_draw_sw_blend_to_i1.c ****                 for(int32_t x = 0; x < w; x++) {
 8016              		.loc 1 244 25 view .LVU2577
 8017 00f8 F7E7     		b	.L442
 8018              	.LVL856:
 8019              	.L485:
 244:Drivers/lvgl/src/draw/sw/blend/lv_draw_sw_blend_to_i1.c ****                 for(int32_t x = 0; x < w; x++) {
 8020              		.loc 1 244 25 view .LVU2578
 8021              	.LBE945:
 8022              	.LBB956:
 8023              	.LBB933:
 8024              	.LBB934:
 262:Drivers/lvgl/src/draw/sw/blend/lv_draw_sw_blend_to_i1.c ****                     uint8_t current_bit = (*dest_bit >> (7 - ((x + bit_ofs) % 8))) & 0x01;
 8025              		.loc 1 262 66 view .LVU2579
 8026 00fa D11D     		adds	r1, r2, #7
 8027 00fc 0FE0     		b	.L451
 8028              	.LVL857:
 8029              	.L452:
 269:Drivers/lvgl/src/draw/sw/blend/lv_draw_sw_blend_to_i1.c ****                     }
 8030              		.loc 1 269 25 is_stmt 1 view .LVU2580
ARM GAS  /var/folders/qx/2_175_4n2s19vhvtspjhb3qh0000gn/T//ccaVas4T.s 			page 216


 8031              	.LBB935:
 8032              	.LBI935:
1266:Drivers/lvgl/src/draw/sw/blend/lv_draw_sw_blend_to_i1.c **** {
 8033              		.loc 1 1266 42 view .LVU2581
 8034              	.LBB936:
1268:Drivers/lvgl/src/draw/sw/blend/lv_draw_sw_blend_to_i1.c **** }
 8035              		.loc 1 1268 5 view .LVU2582
1268:Drivers/lvgl/src/draw/sw/blend/lv_draw_sw_blend_to_i1.c **** }
 8036              		.loc 1 1268 29 is_stmt 0 view .LVU2583
 8037 00fe 0123     		movs	r3, #1
 8038              	.LVL858:
1268:Drivers/lvgl/src/draw/sw/blend/lv_draw_sw_blend_to_i1.c **** }
 8039              		.loc 1 1268 29 view .LVU2584
 8040 0100 9340     		lsls	r3, r3, r2
1268:Drivers/lvgl/src/draw/sw/blend/lv_draw_sw_blend_to_i1.c **** }
 8041              		.loc 1 1268 22 view .LVU2585
 8042 0102 DB43     		mvns	r3, r3
 8043 0104 5BB2     		sxtb	r3, r3
 8044 0106 0EEA030E 		and	lr, lr, r3
 8045              	.LVL859:
1268:Drivers/lvgl/src/draw/sw/blend/lv_draw_sw_blend_to_i1.c **** }
 8046              		.loc 1 1268 22 view .LVU2586
 8047 010a 07F801E0 		strb	lr, [r7, r1]
 8048              	.LVL860:
 8049              	.L453:
1268:Drivers/lvgl/src/draw/sw/blend/lv_draw_sw_blend_to_i1.c **** }
 8050              		.loc 1 1268 22 view .LVU2587
 8051              	.LBE936:
 8052              	.LBE935:
 8053              	.LBE934:
 261:Drivers/lvgl/src/draw/sw/blend/lv_draw_sw_blend_to_i1.c ****                     uint8_t * dest_bit = &dest_buf[(x + bit_ofs) / 8];
 8054              		.loc 1 261 44 is_stmt 1 discriminator 2 view .LVU2588
 8055 010e 0130     		adds	r0, r0, #1
 8056              	.LVL861:
 8057              	.L455:
 261:Drivers/lvgl/src/draw/sw/blend/lv_draw_sw_blend_to_i1.c ****                     uint8_t * dest_bit = &dest_buf[(x + bit_ofs) / 8];
 8058              		.loc 1 261 38 discriminator 1 view .LVU2589
 8059 0110 A042     		cmp	r0, r4
 8060 0112 2ADA     		bge	.L484
 8061              	.LBB939:
 262:Drivers/lvgl/src/draw/sw/blend/lv_draw_sw_blend_to_i1.c ****                     uint8_t current_bit = (*dest_bit >> (7 - ((x + bit_ofs) % 8))) & 0x01;
 8062              		.loc 1 262 21 view .LVU2590
 262:Drivers/lvgl/src/draw/sw/blend/lv_draw_sw_blend_to_i1.c ****                     uint8_t current_bit = (*dest_bit >> (7 - ((x + bit_ofs) % 8))) & 0x01;
 8063              		.loc 1 262 55 is_stmt 0 view .LVU2591
 8064 0114 00EB0A02 		add	r2, r0, r10
 262:Drivers/lvgl/src/draw/sw/blend/lv_draw_sw_blend_to_i1.c ****                     uint8_t current_bit = (*dest_bit >> (7 - ((x + bit_ofs) % 8))) & 0x01;
 8065              		.loc 1 262 66 view .LVU2592
 8066 0118 1146     		mov	r1, r2
 8067 011a 002A     		cmp	r2, #0
 8068 011c EDDB     		blt	.L485
 8069              	.L451:
 8070 011e C910     		asrs	r1, r1, #3
 8071              	.LVL862:
 263:Drivers/lvgl/src/draw/sw/blend/lv_draw_sw_blend_to_i1.c ****                     uint8_t new_bit = (opa * src_color + (255 - opa) * current_bit) / 255;
 8072              		.loc 1 263 21 is_stmt 1 view .LVU2593
 263:Drivers/lvgl/src/draw/sw/blend/lv_draw_sw_blend_to_i1.c ****                     uint8_t new_bit = (opa * src_color + (255 - opa) * current_bit) / 255;
 8073              		.loc 1 263 44 is_stmt 0 view .LVU2594
ARM GAS  /var/folders/qx/2_175_4n2s19vhvtspjhb3qh0000gn/T//ccaVas4T.s 			page 217


 8074 0120 17F801E0 		ldrb	lr, [r7, r1]	@ zero_extendqisi2
 263:Drivers/lvgl/src/draw/sw/blend/lv_draw_sw_blend_to_i1.c ****                     uint8_t new_bit = (opa * src_color + (255 - opa) * current_bit) / 255;
 8075              		.loc 1 263 77 view .LVU2595
 8076 0124 5342     		rsbs	r3, r2, #0
 8077 0126 02F00702 		and	r2, r2, #7
 8078 012a 03F00703 		and	r3, r3, #7
 8079 012e 58BF     		it	pl
 8080 0130 5A42     		rsbpl	r2, r3, #0
 263:Drivers/lvgl/src/draw/sw/blend/lv_draw_sw_blend_to_i1.c ****                     uint8_t new_bit = (opa * src_color + (255 - opa) * current_bit) / 255;
 8081              		.loc 1 263 60 view .LVU2596
 8082 0132 C2F10702 		rsb	r2, r2, #7
 263:Drivers/lvgl/src/draw/sw/blend/lv_draw_sw_blend_to_i1.c ****                     uint8_t new_bit = (opa * src_color + (255 - opa) * current_bit) / 255;
 8083              		.loc 1 263 54 view .LVU2597
 8084 0136 4EFA02F3 		asr	r3, lr, r2
 263:Drivers/lvgl/src/draw/sw/blend/lv_draw_sw_blend_to_i1.c ****                     uint8_t new_bit = (opa * src_color + (255 - opa) * current_bit) / 255;
 8085              		.loc 1 263 29 view .LVU2598
 8086 013a 03F00103 		and	r3, r3, #1
 8087              	.LVL863:
 264:Drivers/lvgl/src/draw/sw/blend/lv_draw_sw_blend_to_i1.c ****                     if(new_bit) {
 8088              		.loc 1 264 21 is_stmt 1 view .LVU2599
 264:Drivers/lvgl/src/draw/sw/blend/lv_draw_sw_blend_to_i1.c ****                     if(new_bit) {
 8089              		.loc 1 264 63 is_stmt 0 view .LVU2600
 8090 013e C6F1FF05 		rsb	r5, r6, #255
 264:Drivers/lvgl/src/draw/sw/blend/lv_draw_sw_blend_to_i1.c ****                     if(new_bit) {
 8091              		.loc 1 264 70 view .LVU2601
 8092 0142 05FB03F3 		mul	r3, r5, r3
 8093              	.LVL864:
 264:Drivers/lvgl/src/draw/sw/blend/lv_draw_sw_blend_to_i1.c ****                     if(new_bit) {
 8094              		.loc 1 264 56 view .LVU2602
 8095 0146 06FB0B33 		mla	r3, r6, fp, r3
 264:Drivers/lvgl/src/draw/sw/blend/lv_draw_sw_blend_to_i1.c ****                     if(new_bit) {
 8096              		.loc 1 264 85 view .LVU2603
 8097 014a 854D     		ldr	r5, .L493
 8098 014c 85FB0385 		smull	r8, r5, r5, r3
 8099 0150 1D44     		add	r5, r5, r3
 8100 0152 DB17     		asrs	r3, r3, #31
 8101 0154 C3EBE513 		rsb	r3, r3, r5, asr #7
 8102              	.LVL865:
 265:Drivers/lvgl/src/draw/sw/blend/lv_draw_sw_blend_to_i1.c ****                         set_bit(dest_buf, x + bit_ofs);
 8103              		.loc 1 265 21 is_stmt 1 view .LVU2604
 265:Drivers/lvgl/src/draw/sw/blend/lv_draw_sw_blend_to_i1.c ****                         set_bit(dest_buf, x + bit_ofs);
 8104              		.loc 1 265 23 is_stmt 0 view .LVU2605
 8105 0158 13F0FF0F 		tst	r3, #255
 8106 015c CFD0     		beq	.L452
 266:Drivers/lvgl/src/draw/sw/blend/lv_draw_sw_blend_to_i1.c ****                     }
 8107              		.loc 1 266 25 is_stmt 1 view .LVU2606
 8108              	.LVL866:
 8109              	.LBB937:
 8110              	.LBI937:
1261:Drivers/lvgl/src/draw/sw/blend/lv_draw_sw_blend_to_i1.c **** {
 8111              		.loc 1 1261 42 view .LVU2607
 8112              	.LBB938:
1263:Drivers/lvgl/src/draw/sw/blend/lv_draw_sw_blend_to_i1.c **** }
 8113              		.loc 1 1263 5 view .LVU2608
1263:Drivers/lvgl/src/draw/sw/blend/lv_draw_sw_blend_to_i1.c **** }
 8114              		.loc 1 1263 28 is_stmt 0 view .LVU2609
 8115 015e 0123     		movs	r3, #1
ARM GAS  /var/folders/qx/2_175_4n2s19vhvtspjhb3qh0000gn/T//ccaVas4T.s 			page 218


 8116              	.LVL867:
1263:Drivers/lvgl/src/draw/sw/blend/lv_draw_sw_blend_to_i1.c **** }
 8117              		.loc 1 1263 28 view .LVU2610
 8118 0160 9340     		lsls	r3, r3, r2
1263:Drivers/lvgl/src/draw/sw/blend/lv_draw_sw_blend_to_i1.c **** }
 8119              		.loc 1 1263 22 view .LVU2611
 8120 0162 4EEA0303 		orr	r3, lr, r3
 8121 0166 7B54     		strb	r3, [r7, r1]
 8122              	.LVL868:
1264:Drivers/lvgl/src/draw/sw/blend/lv_draw_sw_blend_to_i1.c **** 
 8123              		.loc 1 1264 1 view .LVU2612
 8124 0168 D1E7     		b	.L453
 8125              	.LVL869:
 8126              	.L484:
1264:Drivers/lvgl/src/draw/sw/blend/lv_draw_sw_blend_to_i1.c **** 
 8127              		.loc 1 1264 1 view .LVU2613
 8128              	.LBE938:
 8129              	.LBE937:
 8130              	.LBE939:
 8131              	.LBE933:
 8132              	.LBB940:
 8133              	.LBB941:
1258:Drivers/lvgl/src/draw/sw/blend/lv_draw_sw_blend_to_i1.c **** }
 8134              		.loc 1 1258 12 view .LVU2614
 8135 016a DDF80480 		ldr	r8, [sp, #4]
 8136              	.LBE941:
 8137              	.LBE940:
 272:Drivers/lvgl/src/draw/sw/blend/lv_draw_sw_blend_to_i1.c ****             }
 8138              		.loc 1 272 17 is_stmt 1 view .LVU2615
 8139              	.LVL870:
 8140              	.LBB943:
 8141              	.LBI940:
1256:Drivers/lvgl/src/draw/sw/blend/lv_draw_sw_blend_to_i1.c **** {
 8142              		.loc 1 1256 44 view .LVU2616
 8143              	.LBB942:
1258:Drivers/lvgl/src/draw/sw/blend/lv_draw_sw_blend_to_i1.c **** }
 8144              		.loc 1 1258 5 view .LVU2617
1258:Drivers/lvgl/src/draw/sw/blend/lv_draw_sw_blend_to_i1.c **** }
 8145              		.loc 1 1258 12 is_stmt 0 view .LVU2618
 8146 016e 6744     		add	r7, r7, ip
 8147              	.LVL871:
1258:Drivers/lvgl/src/draw/sw/blend/lv_draw_sw_blend_to_i1.c **** }
 8148              		.loc 1 1258 12 view .LVU2619
 8149              	.LBE942:
 8150              	.LBE943:
 260:Drivers/lvgl/src/draw/sw/blend/lv_draw_sw_blend_to_i1.c ****                 for(int32_t x = 0; x < w; x++) {
 8151              		.loc 1 260 40 is_stmt 1 discriminator 2 view .LVU2620
 8152 0170 08F10108 		add	r8, r8, #1
 8153              	.LVL872:
 8154              	.L443:
 260:Drivers/lvgl/src/draw/sw/blend/lv_draw_sw_blend_to_i1.c ****                 for(int32_t x = 0; x < w; x++) {
 8155              		.loc 1 260 34 discriminator 1 view .LVU2621
 8156 0174 C845     		cmp	r8, r9
 8157 0176 80F2EF80 		bge	.L440
 8158              	.LBB944:
 261:Drivers/lvgl/src/draw/sw/blend/lv_draw_sw_blend_to_i1.c ****                     uint8_t * dest_bit = &dest_buf[(x + bit_ofs) / 8];
 8159              		.loc 1 261 29 is_stmt 0 view .LVU2622
ARM GAS  /var/folders/qx/2_175_4n2s19vhvtspjhb3qh0000gn/T//ccaVas4T.s 			page 219


 8160 017a 0020     		movs	r0, #0
 8161 017c CDF80480 		str	r8, [sp, #4]
 8162 0180 C6E7     		b	.L455
 8163              	.LVL873:
 8164              	.L489:
 261:Drivers/lvgl/src/draw/sw/blend/lv_draw_sw_blend_to_i1.c ****                     uint8_t * dest_bit = &dest_buf[(x + bit_ofs) / 8];
 8165              		.loc 1 261 29 view .LVU2623
 8166              	.LBE944:
 8167              	.LBE956:
 8168              	.LBB957:
 8169              	.LBB958:
 8170              	.LBB959:
 284:Drivers/lvgl/src/draw/sw/blend/lv_draw_sw_blend_to_i1.c ****                             set_bit(dest_buf, x + bit_ofs);
 8171              		.loc 1 284 25 is_stmt 1 view .LVU2624
 284:Drivers/lvgl/src/draw/sw/blend/lv_draw_sw_blend_to_i1.c ****                             set_bit(dest_buf, x + bit_ofs);
 8172              		.loc 1 284 27 is_stmt 0 view .LVU2625
 8173 0182 7F28     		cmp	r0, #127
 8174 0184 1BD9     		bls	.L460
 285:Drivers/lvgl/src/draw/sw/blend/lv_draw_sw_blend_to_i1.c ****                         }
 8175              		.loc 1 285 29 is_stmt 1 view .LVU2626
 8176 0186 01EB0A03 		add	r3, r1, r10
 8177              	.LVL874:
 8178              	.LBB960:
 8179              	.LBI960:
1261:Drivers/lvgl/src/draw/sw/blend/lv_draw_sw_blend_to_i1.c **** {
 8180              		.loc 1 1261 42 view .LVU2627
 8181              	.LBB961:
1263:Drivers/lvgl/src/draw/sw/blend/lv_draw_sw_blend_to_i1.c **** }
 8182              		.loc 1 1263 5 view .LVU2628
1263:Drivers/lvgl/src/draw/sw/blend/lv_draw_sw_blend_to_i1.c **** }
 8183              		.loc 1 1263 17 is_stmt 0 view .LVU2629
 8184 018a 1A46     		mov	r2, r3
 8185              	.LVL875:
1263:Drivers/lvgl/src/draw/sw/blend/lv_draw_sw_blend_to_i1.c **** }
 8186              		.loc 1 1263 17 view .LVU2630
 8187 018c 002B     		cmp	r3, #0
 8188 018e 14DB     		blt	.L486
 8189              	.L461:
1263:Drivers/lvgl/src/draw/sw/blend/lv_draw_sw_blend_to_i1.c **** }
 8190              		.loc 1 1263 17 view .LVU2631
 8191 0190 D210     		asrs	r2, r2, #3
1263:Drivers/lvgl/src/draw/sw/blend/lv_draw_sw_blend_to_i1.c **** }
 8192              		.loc 1 1263 8 view .LVU2632
 8193 0192 BE5C     		ldrb	r6, [r7, r2]	@ zero_extendqisi2
1263:Drivers/lvgl/src/draw/sw/blend/lv_draw_sw_blend_to_i1.c **** }
 8194              		.loc 1 1263 45 view .LVU2633
 8195 0194 D3F1000C 		rsbs	ip, r3, #0
 8196 0198 03F00703 		and	r3, r3, #7
 8197              	.LVL876:
1263:Drivers/lvgl/src/draw/sw/blend/lv_draw_sw_blend_to_i1.c **** }
 8198              		.loc 1 1263 45 view .LVU2634
 8199 019c 0CF0070C 		and	ip, ip, #7
 8200 01a0 58BF     		it	pl
 8201 01a2 CCF10003 		rsbpl	r3, ip, #0
1263:Drivers/lvgl/src/draw/sw/blend/lv_draw_sw_blend_to_i1.c **** }
 8202              		.loc 1 1263 34 view .LVU2635
 8203 01a6 C3F10703 		rsb	r3, r3, #7
ARM GAS  /var/folders/qx/2_175_4n2s19vhvtspjhb3qh0000gn/T//ccaVas4T.s 			page 220


1263:Drivers/lvgl/src/draw/sw/blend/lv_draw_sw_blend_to_i1.c **** }
 8204              		.loc 1 1263 28 view .LVU2636
 8205 01aa 4FF0010C 		mov	ip, #1
 8206 01ae 0CFA03FC 		lsl	ip, ip, r3
1263:Drivers/lvgl/src/draw/sw/blend/lv_draw_sw_blend_to_i1.c **** }
 8207              		.loc 1 1263 22 view .LVU2637
 8208 01b2 46EA0C06 		orr	r6, r6, ip
 8209 01b6 BE54     		strb	r6, [r7, r2]
 8210              	.LVL877:
1264:Drivers/lvgl/src/draw/sw/blend/lv_draw_sw_blend_to_i1.c **** 
 8211              		.loc 1 1264 1 view .LVU2638
 8212 01b8 28E0     		b	.L458
 8213              	.LVL878:
 8214              	.L486:
1263:Drivers/lvgl/src/draw/sw/blend/lv_draw_sw_blend_to_i1.c **** }
 8215              		.loc 1 1263 17 view .LVU2639
 8216 01ba DA1D     		adds	r2, r3, #7
 8217              	.LVL879:
1263:Drivers/lvgl/src/draw/sw/blend/lv_draw_sw_blend_to_i1.c **** }
 8218              		.loc 1 1263 17 view .LVU2640
 8219 01bc E8E7     		b	.L461
 8220              	.LVL880:
 8221              	.L460:
1263:Drivers/lvgl/src/draw/sw/blend/lv_draw_sw_blend_to_i1.c **** }
 8222              		.loc 1 1263 17 view .LVU2641
 8223              	.LBE961:
 8224              	.LBE960:
 288:Drivers/lvgl/src/draw/sw/blend/lv_draw_sw_blend_to_i1.c ****                         }
 8225              		.loc 1 288 29 is_stmt 1 view .LVU2642
 8226 01be 01EB0A03 		add	r3, r1, r10
 8227              	.LVL881:
 8228              	.LBB962:
 8229              	.LBI962:
1266:Drivers/lvgl/src/draw/sw/blend/lv_draw_sw_blend_to_i1.c **** {
 8230              		.loc 1 1266 42 view .LVU2643
 8231              	.LBB963:
1268:Drivers/lvgl/src/draw/sw/blend/lv_draw_sw_blend_to_i1.c **** }
 8232              		.loc 1 1268 5 view .LVU2644
1268:Drivers/lvgl/src/draw/sw/blend/lv_draw_sw_blend_to_i1.c **** }
 8233              		.loc 1 1268 17 is_stmt 0 view .LVU2645
 8234 01c2 1A46     		mov	r2, r3
 8235              	.LVL882:
1268:Drivers/lvgl/src/draw/sw/blend/lv_draw_sw_blend_to_i1.c **** }
 8236              		.loc 1 1268 17 view .LVU2646
 8237 01c4 002B     		cmp	r3, #0
 8238 01c6 14DB     		blt	.L487
 8239              	.L462:
1268:Drivers/lvgl/src/draw/sw/blend/lv_draw_sw_blend_to_i1.c **** }
 8240              		.loc 1 1268 17 view .LVU2647
 8241 01c8 D210     		asrs	r2, r2, #3
1268:Drivers/lvgl/src/draw/sw/blend/lv_draw_sw_blend_to_i1.c **** }
 8242              		.loc 1 1268 8 view .LVU2648
 8243 01ca BE5C     		ldrb	r6, [r7, r2]	@ zero_extendqisi2
1268:Drivers/lvgl/src/draw/sw/blend/lv_draw_sw_blend_to_i1.c **** }
 8244              		.loc 1 1268 46 view .LVU2649
 8245 01cc D3F1000C 		rsbs	ip, r3, #0
 8246 01d0 03F00703 		and	r3, r3, #7
ARM GAS  /var/folders/qx/2_175_4n2s19vhvtspjhb3qh0000gn/T//ccaVas4T.s 			page 221


 8247              	.LVL883:
1268:Drivers/lvgl/src/draw/sw/blend/lv_draw_sw_blend_to_i1.c **** }
 8248              		.loc 1 1268 46 view .LVU2650
 8249 01d4 0CF0070C 		and	ip, ip, #7
 8250 01d8 58BF     		it	pl
 8251 01da CCF10003 		rsbpl	r3, ip, #0
1268:Drivers/lvgl/src/draw/sw/blend/lv_draw_sw_blend_to_i1.c **** }
 8252              		.loc 1 1268 35 view .LVU2651
 8253 01de C3F1070C 		rsb	ip, r3, #7
1268:Drivers/lvgl/src/draw/sw/blend/lv_draw_sw_blend_to_i1.c **** }
 8254              		.loc 1 1268 29 view .LVU2652
 8255 01e2 0123     		movs	r3, #1
 8256 01e4 03FA0CF3 		lsl	r3, r3, ip
1268:Drivers/lvgl/src/draw/sw/blend/lv_draw_sw_blend_to_i1.c **** }
 8257              		.loc 1 1268 22 view .LVU2653
 8258 01e8 DB43     		mvns	r3, r3
 8259 01ea 5BB2     		sxtb	r3, r3
 8260 01ec 1E40     		ands	r6, r6, r3
 8261 01ee BE54     		strb	r6, [r7, r2]
 8262              	.LVL884:
1269:Drivers/lvgl/src/draw/sw/blend/lv_draw_sw_blend_to_i1.c **** 
 8263              		.loc 1 1269 1 view .LVU2654
 8264 01f0 0CE0     		b	.L458
 8265              	.LVL885:
 8266              	.L487:
1268:Drivers/lvgl/src/draw/sw/blend/lv_draw_sw_blend_to_i1.c **** }
 8267              		.loc 1 1268 17 view .LVU2655
 8268 01f2 DA1D     		adds	r2, r3, #7
 8269              	.LVL886:
1268:Drivers/lvgl/src/draw/sw/blend/lv_draw_sw_blend_to_i1.c **** }
 8270              		.loc 1 1268 17 view .LVU2656
 8271 01f4 E8E7     		b	.L462
 8272              	.LVL887:
 8273              	.L490:
1268:Drivers/lvgl/src/draw/sw/blend/lv_draw_sw_blend_to_i1.c **** }
 8274              		.loc 1 1268 17 view .LVU2657
 8275              	.LBE963:
 8276              	.LBE962:
 8277              	.LBB964:
 292:Drivers/lvgl/src/draw/sw/blend/lv_draw_sw_blend_to_i1.c ****                         uint8_t current_bit = (*dest_bit >> (7 - ((x + bit_ofs) % 8))) & 0x01;
 8278              		.loc 1 292 70 view .LVU2658
 8279 01f6 06F1070C 		add	ip, r6, #7
 8280 01fa 14E0     		b	.L463
 8281              	.LVL888:
 8282              	.L464:
 299:Drivers/lvgl/src/draw/sw/blend/lv_draw_sw_blend_to_i1.c ****                         }
 8283              		.loc 1 299 29 is_stmt 1 view .LVU2659
 8284              	.LBB965:
 8285              	.LBI965:
1266:Drivers/lvgl/src/draw/sw/blend/lv_draw_sw_blend_to_i1.c **** {
 8286              		.loc 1 1266 42 view .LVU2660
 8287              	.LBB966:
1268:Drivers/lvgl/src/draw/sw/blend/lv_draw_sw_blend_to_i1.c **** }
 8288              		.loc 1 1268 5 view .LVU2661
1268:Drivers/lvgl/src/draw/sw/blend/lv_draw_sw_blend_to_i1.c **** }
 8289              		.loc 1 1268 29 is_stmt 0 view .LVU2662
 8290 01fc 0123     		movs	r3, #1
ARM GAS  /var/folders/qx/2_175_4n2s19vhvtspjhb3qh0000gn/T//ccaVas4T.s 			page 222


 8291              	.LVL889:
1268:Drivers/lvgl/src/draw/sw/blend/lv_draw_sw_blend_to_i1.c **** }
 8292              		.loc 1 1268 29 view .LVU2663
 8293 01fe B340     		lsls	r3, r3, r6
1268:Drivers/lvgl/src/draw/sw/blend/lv_draw_sw_blend_to_i1.c **** }
 8294              		.loc 1 1268 22 view .LVU2664
 8295 0200 DB43     		mvns	r3, r3
 8296 0202 5BB2     		sxtb	r3, r3
 8297 0204 0EEA030E 		and	lr, lr, r3
 8298              	.LVL890:
1268:Drivers/lvgl/src/draw/sw/blend/lv_draw_sw_blend_to_i1.c **** }
 8299              		.loc 1 1268 22 view .LVU2665
 8300 0208 07F80CE0 		strb	lr, [r7, ip]
 8301              	.LVL891:
 8302              	.L458:
1268:Drivers/lvgl/src/draw/sw/blend/lv_draw_sw_blend_to_i1.c **** }
 8303              		.loc 1 1268 22 view .LVU2666
 8304              	.LBE966:
 8305              	.LBE965:
 8306              	.LBE964:
 8307              	.LBE959:
 280:Drivers/lvgl/src/draw/sw/blend/lv_draw_sw_blend_to_i1.c ****                     uint8_t mask_val = mask[x];
 8308              		.loc 1 280 44 is_stmt 1 discriminator 2 view .LVU2667
 8309 020c 0131     		adds	r1, r1, #1
 8310              	.LVL892:
 8311              	.L466:
 280:Drivers/lvgl/src/draw/sw/blend/lv_draw_sw_blend_to_i1.c ****                     uint8_t mask_val = mask[x];
 8312              		.loc 1 280 38 discriminator 1 view .LVU2668
 8313 020e A142     		cmp	r1, r4
 8314 0210 31DA     		bge	.L488
 8315              	.LBB970:
 281:Drivers/lvgl/src/draw/sw/blend/lv_draw_sw_blend_to_i1.c ****                     if(mask_val == LV_OPA_TRANSP) continue;
 8316              		.loc 1 281 21 view .LVU2669
 281:Drivers/lvgl/src/draw/sw/blend/lv_draw_sw_blend_to_i1.c ****                     if(mask_val == LV_OPA_TRANSP) continue;
 8317              		.loc 1 281 29 is_stmt 0 view .LVU2670
 8318 0212 6A5C     		ldrb	r2, [r5, r1]	@ zero_extendqisi2
 8319              	.LVL893:
 282:Drivers/lvgl/src/draw/sw/blend/lv_draw_sw_blend_to_i1.c ****                     if(mask_val == LV_OPA_COVER) {
 8320              		.loc 1 282 21 is_stmt 1 view .LVU2671
 282:Drivers/lvgl/src/draw/sw/blend/lv_draw_sw_blend_to_i1.c ****                     if(mask_val == LV_OPA_COVER) {
 8321              		.loc 1 282 23 is_stmt 0 view .LVU2672
 8322 0214 002A     		cmp	r2, #0
 8323 0216 F9D0     		beq	.L458
 283:Drivers/lvgl/src/draw/sw/blend/lv_draw_sw_blend_to_i1.c ****                         if(src_color) {
 8324              		.loc 1 283 21 is_stmt 1 view .LVU2673
 283:Drivers/lvgl/src/draw/sw/blend/lv_draw_sw_blend_to_i1.c ****                         if(src_color) {
 8325              		.loc 1 283 23 is_stmt 0 view .LVU2674
 8326 0218 FF2A     		cmp	r2, #255
 8327 021a B2D0     		beq	.L489
 8328              	.LBB969:
 292:Drivers/lvgl/src/draw/sw/blend/lv_draw_sw_blend_to_i1.c ****                         uint8_t current_bit = (*dest_bit >> (7 - ((x + bit_ofs) % 8))) & 0x01;
 8329              		.loc 1 292 25 is_stmt 1 view .LVU2675
 292:Drivers/lvgl/src/draw/sw/blend/lv_draw_sw_blend_to_i1.c ****                         uint8_t current_bit = (*dest_bit >> (7 - ((x + bit_ofs) % 8))) & 0x01;
 8330              		.loc 1 292 59 is_stmt 0 view .LVU2676
 8331 021c 01EB0A06 		add	r6, r1, r10
 292:Drivers/lvgl/src/draw/sw/blend/lv_draw_sw_blend_to_i1.c ****                         uint8_t current_bit = (*dest_bit >> (7 - ((x + bit_ofs) % 8))) & 0x01;
 8332              		.loc 1 292 70 view .LVU2677
ARM GAS  /var/folders/qx/2_175_4n2s19vhvtspjhb3qh0000gn/T//ccaVas4T.s 			page 223


 8333 0220 B446     		mov	ip, r6
 8334 0222 002E     		cmp	r6, #0
 8335 0224 E7DB     		blt	.L490
 8336              	.L463:
 292:Drivers/lvgl/src/draw/sw/blend/lv_draw_sw_blend_to_i1.c ****                         uint8_t current_bit = (*dest_bit >> (7 - ((x + bit_ofs) % 8))) & 0x01;
 8337              		.loc 1 292 70 view .LVU2678
 8338 0226 4FEAEC0C 		asr	ip, ip, #3
 8339              	.LVL894:
 293:Drivers/lvgl/src/draw/sw/blend/lv_draw_sw_blend_to_i1.c ****                         uint8_t new_bit = (mask_val * src_color + (255 - mask_val) * current_bit) /
 8340              		.loc 1 293 25 is_stmt 1 view .LVU2679
 293:Drivers/lvgl/src/draw/sw/blend/lv_draw_sw_blend_to_i1.c ****                         uint8_t new_bit = (mask_val * src_color + (255 - mask_val) * current_bit) /
 8341              		.loc 1 293 48 is_stmt 0 view .LVU2680
 8342 022a 17F80CE0 		ldrb	lr, [r7, ip]	@ zero_extendqisi2
 293:Drivers/lvgl/src/draw/sw/blend/lv_draw_sw_blend_to_i1.c ****                         uint8_t new_bit = (mask_val * src_color + (255 - mask_val) * current_bit) /
 8343              		.loc 1 293 81 view .LVU2681
 8344 022e 7342     		rsbs	r3, r6, #0
 8345 0230 06F00706 		and	r6, r6, #7
 8346 0234 03F00703 		and	r3, r3, #7
 8347 0238 58BF     		it	pl
 8348 023a 5E42     		rsbpl	r6, r3, #0
 293:Drivers/lvgl/src/draw/sw/blend/lv_draw_sw_blend_to_i1.c ****                         uint8_t new_bit = (mask_val * src_color + (255 - mask_val) * current_bit) /
 8349              		.loc 1 293 64 view .LVU2682
 8350 023c C6F10706 		rsb	r6, r6, #7
 293:Drivers/lvgl/src/draw/sw/blend/lv_draw_sw_blend_to_i1.c ****                         uint8_t new_bit = (mask_val * src_color + (255 - mask_val) * current_bit) /
 8351              		.loc 1 293 58 view .LVU2683
 8352 0240 4EFA06F3 		asr	r3, lr, r6
 293:Drivers/lvgl/src/draw/sw/blend/lv_draw_sw_blend_to_i1.c ****                         uint8_t new_bit = (mask_val * src_color + (255 - mask_val) * current_bit) /
 8353              		.loc 1 293 33 view .LVU2684
 8354 0244 03F00103 		and	r3, r3, #1
 8355              	.LVL895:
 294:Drivers/lvgl/src/draw/sw/blend/lv_draw_sw_blend_to_i1.c ****                         if(new_bit) {
 8356              		.loc 1 294 25 is_stmt 1 view .LVU2685
 294:Drivers/lvgl/src/draw/sw/blend/lv_draw_sw_blend_to_i1.c ****                         if(new_bit) {
 8357              		.loc 1 294 72 is_stmt 0 view .LVU2686
 8358 0248 C2F1FF09 		rsb	r9, r2, #255
 294:Drivers/lvgl/src/draw/sw/blend/lv_draw_sw_blend_to_i1.c ****                         if(new_bit) {
 8359              		.loc 1 294 84 view .LVU2687
 8360 024c 09FB03F3 		mul	r3, r9, r3
 8361              	.LVL896:
 294:Drivers/lvgl/src/draw/sw/blend/lv_draw_sw_blend_to_i1.c ****                         if(new_bit) {
 8362              		.loc 1 294 65 view .LVU2688
 8363 0250 02FB0B33 		mla	r3, r2, fp, r3
 294:Drivers/lvgl/src/draw/sw/blend/lv_draw_sw_blend_to_i1.c ****                         if(new_bit) {
 8364              		.loc 1 294 99 view .LVU2689
 8365 0254 424A     		ldr	r2, .L493
 8366              	.LVL897:
 294:Drivers/lvgl/src/draw/sw/blend/lv_draw_sw_blend_to_i1.c ****                         if(new_bit) {
 8367              		.loc 1 294 99 view .LVU2690
 8368 0256 82FB0392 		smull	r9, r2, r2, r3
 8369 025a 1A44     		add	r2, r2, r3
 8370 025c DB17     		asrs	r3, r3, #31
 8371 025e C3EBE213 		rsb	r3, r3, r2, asr #7
 8372              	.LVL898:
 295:Drivers/lvgl/src/draw/sw/blend/lv_draw_sw_blend_to_i1.c ****                             set_bit(dest_buf, x + bit_ofs);
 8373              		.loc 1 295 25 is_stmt 1 view .LVU2691
 295:Drivers/lvgl/src/draw/sw/blend/lv_draw_sw_blend_to_i1.c ****                             set_bit(dest_buf, x + bit_ofs);
 8374              		.loc 1 295 27 is_stmt 0 view .LVU2692
ARM GAS  /var/folders/qx/2_175_4n2s19vhvtspjhb3qh0000gn/T//ccaVas4T.s 			page 224


 8375 0262 13F0FF0F 		tst	r3, #255
 8376 0266 C9D0     		beq	.L464
 296:Drivers/lvgl/src/draw/sw/blend/lv_draw_sw_blend_to_i1.c ****                         }
 8377              		.loc 1 296 29 is_stmt 1 view .LVU2693
 8378              	.LVL899:
 8379              	.LBB967:
 8380              	.LBI967:
1261:Drivers/lvgl/src/draw/sw/blend/lv_draw_sw_blend_to_i1.c **** {
 8381              		.loc 1 1261 42 view .LVU2694
 8382              	.LBB968:
1263:Drivers/lvgl/src/draw/sw/blend/lv_draw_sw_blend_to_i1.c **** }
 8383              		.loc 1 1263 5 view .LVU2695
1263:Drivers/lvgl/src/draw/sw/blend/lv_draw_sw_blend_to_i1.c **** }
 8384              		.loc 1 1263 28 is_stmt 0 view .LVU2696
 8385 0268 0123     		movs	r3, #1
 8386              	.LVL900:
1263:Drivers/lvgl/src/draw/sw/blend/lv_draw_sw_blend_to_i1.c **** }
 8387              		.loc 1 1263 28 view .LVU2697
 8388 026a B340     		lsls	r3, r3, r6
1263:Drivers/lvgl/src/draw/sw/blend/lv_draw_sw_blend_to_i1.c **** }
 8389              		.loc 1 1263 22 view .LVU2698
 8390 026c 4EEA0303 		orr	r3, lr, r3
 8391 0270 07F80C30 		strb	r3, [r7, ip]
 8392              	.LVL901:
1264:Drivers/lvgl/src/draw/sw/blend/lv_draw_sw_blend_to_i1.c **** 
 8393              		.loc 1 1264 1 view .LVU2699
 8394 0274 CAE7     		b	.L458
 8395              	.LVL902:
 8396              	.L488:
1264:Drivers/lvgl/src/draw/sw/blend/lv_draw_sw_blend_to_i1.c **** 
 8397              		.loc 1 1264 1 view .LVU2700
 8398              	.LBE968:
 8399              	.LBE967:
 8400              	.LBE969:
 8401              	.LBE970:
 8402              	.LBE958:
 8403              	.LBB971:
 8404              	.LBB972:
1258:Drivers/lvgl/src/draw/sw/blend/lv_draw_sw_blend_to_i1.c **** }
 8405              		.loc 1 1258 12 view .LVU2701
 8406 0276 4246     		mov	r2, r8
 8407 0278 DDF80480 		ldr	r8, [sp, #4]
 8408              	.LBE972:
 8409              	.LBE971:
 303:Drivers/lvgl/src/draw/sw/blend/lv_draw_sw_blend_to_i1.c ****                 mask += mask_stride;
 8410              		.loc 1 303 17 is_stmt 1 view .LVU2702
 8411              	.LVL903:
 8412              	.LBB974:
 8413              	.LBI971:
1256:Drivers/lvgl/src/draw/sw/blend/lv_draw_sw_blend_to_i1.c **** {
 8414              		.loc 1 1256 44 view .LVU2703
 8415              	.LBB973:
1258:Drivers/lvgl/src/draw/sw/blend/lv_draw_sw_blend_to_i1.c **** }
 8416              		.loc 1 1258 5 view .LVU2704
1258:Drivers/lvgl/src/draw/sw/blend/lv_draw_sw_blend_to_i1.c **** }
 8417              		.loc 1 1258 12 is_stmt 0 view .LVU2705
 8418 027c 1744     		add	r7, r7, r2
ARM GAS  /var/folders/qx/2_175_4n2s19vhvtspjhb3qh0000gn/T//ccaVas4T.s 			page 225


 8419              	.LVL904:
1258:Drivers/lvgl/src/draw/sw/blend/lv_draw_sw_blend_to_i1.c **** }
 8420              		.loc 1 1258 12 view .LVU2706
 8421              	.LBE973:
 8422              	.LBE974:
 304:Drivers/lvgl/src/draw/sw/blend/lv_draw_sw_blend_to_i1.c ****             }
 8423              		.loc 1 304 17 is_stmt 1 view .LVU2707
 304:Drivers/lvgl/src/draw/sw/blend/lv_draw_sw_blend_to_i1.c ****             }
 8424              		.loc 1 304 22 is_stmt 0 view .LVU2708
 8425 027e 039B     		ldr	r3, [sp, #12]
 8426 0280 1D44     		add	r5, r5, r3
 8427              	.LVL905:
 279:Drivers/lvgl/src/draw/sw/blend/lv_draw_sw_blend_to_i1.c ****                 for(int32_t x = 0; x < w; x++) {
 8428              		.loc 1 279 40 is_stmt 1 discriminator 2 view .LVU2709
 8429 0282 08F10108 		add	r8, r8, #1
 8430              	.LVL906:
 8431              	.L457:
 279:Drivers/lvgl/src/draw/sw/blend/lv_draw_sw_blend_to_i1.c ****                 for(int32_t x = 0; x < w; x++) {
 8432              		.loc 1 279 34 discriminator 1 view .LVU2710
 8433 0286 029B     		ldr	r3, [sp, #8]
 8434 0288 9845     		cmp	r8, r3
 8435 028a 65DA     		bge	.L440
 8436              	.LBB975:
 280:Drivers/lvgl/src/draw/sw/blend/lv_draw_sw_blend_to_i1.c ****                     uint8_t mask_val = mask[x];
 8437              		.loc 1 280 29 is_stmt 0 view .LVU2711
 8438 028c 0021     		movs	r1, #0
 8439 028e CDF80480 		str	r8, [sp, #4]
 8440 0292 9046     		mov	r8, r2
 8441              	.LVL907:
 280:Drivers/lvgl/src/draw/sw/blend/lv_draw_sw_blend_to_i1.c ****                     uint8_t mask_val = mask[x];
 8442              		.loc 1 280 29 view .LVU2712
 8443 0294 BBE7     		b	.L466
 8444              	.LVL908:
 8445              	.L477:
 280:Drivers/lvgl/src/draw/sw/blend/lv_draw_sw_blend_to_i1.c ****                     uint8_t mask_val = mask[x];
 8446              		.loc 1 280 29 view .LVU2713
 8447              	.LBE975:
 279:Drivers/lvgl/src/draw/sw/blend/lv_draw_sw_blend_to_i1.c ****                 for(int32_t x = 0; x < w; x++) {
 8448              		.loc 1 279 25 view .LVU2714
 8449 0296 4FF00008 		mov	r8, #0
 8450              	.LVL909:
 279:Drivers/lvgl/src/draw/sw/blend/lv_draw_sw_blend_to_i1.c ****                 for(int32_t x = 0; x < w; x++) {
 8451              		.loc 1 279 25 view .LVU2715
 8452 029a CDF80890 		str	r9, [sp, #8]
 8453 029e 049A     		ldr	r2, [sp, #16]
 8454 02a0 F1E7     		b	.L457
 8455              	.LVL910:
 8456              	.L492:
 279:Drivers/lvgl/src/draw/sw/blend/lv_draw_sw_blend_to_i1.c ****                 for(int32_t x = 0; x < w; x++) {
 8457              		.loc 1 279 25 view .LVU2716
 8458              	.LBE957:
 8459              	.LBB976:
 8460              	.LBB977:
 8461              	.LBB978:
 315:Drivers/lvgl/src/draw/sw/blend/lv_draw_sw_blend_to_i1.c ****                     uint8_t current_bit = (*dest_bit >> (7 - ((x  + bit_ofs) % 8))) & 0x01;
 8462              		.loc 1 315 66 view .LVU2717
 8463 02a2 02F1070E 		add	lr, r2, #7
ARM GAS  /var/folders/qx/2_175_4n2s19vhvtspjhb3qh0000gn/T//ccaVas4T.s 			page 226


 8464 02a6 12E0     		b	.L468
 8465              	.LVL911:
 8466              	.L469:
 323:Drivers/lvgl/src/draw/sw/blend/lv_draw_sw_blend_to_i1.c ****                     }
 8467              		.loc 1 323 25 is_stmt 1 view .LVU2718
 8468              	.LBB979:
 8469              	.LBI979:
1266:Drivers/lvgl/src/draw/sw/blend/lv_draw_sw_blend_to_i1.c **** {
 8470              		.loc 1 1266 42 view .LVU2719
 8471              	.LBB980:
1268:Drivers/lvgl/src/draw/sw/blend/lv_draw_sw_blend_to_i1.c **** }
 8472              		.loc 1 1268 5 view .LVU2720
1268:Drivers/lvgl/src/draw/sw/blend/lv_draw_sw_blend_to_i1.c **** }
 8473              		.loc 1 1268 29 is_stmt 0 view .LVU2721
 8474 02a8 0123     		movs	r3, #1
 8475              	.LVL912:
1268:Drivers/lvgl/src/draw/sw/blend/lv_draw_sw_blend_to_i1.c **** }
 8476              		.loc 1 1268 29 view .LVU2722
 8477 02aa 9340     		lsls	r3, r3, r2
1268:Drivers/lvgl/src/draw/sw/blend/lv_draw_sw_blend_to_i1.c **** }
 8478              		.loc 1 1268 22 view .LVU2723
 8479 02ac DB43     		mvns	r3, r3
 8480 02ae 5BB2     		sxtb	r3, r3
 8481 02b0 08EA0308 		and	r8, r8, r3
 8482              	.LVL913:
1268:Drivers/lvgl/src/draw/sw/blend/lv_draw_sw_blend_to_i1.c **** }
 8483              		.loc 1 1268 22 view .LVU2724
 8484 02b4 07F80E80 		strb	r8, [r7, lr]
 8485              	.LVL914:
 8486              	.L467:
1268:Drivers/lvgl/src/draw/sw/blend/lv_draw_sw_blend_to_i1.c **** }
 8487              		.loc 1 1268 22 view .LVU2725
 8488              	.LBE980:
 8489              	.LBE979:
 8490              	.LBE978:
 312:Drivers/lvgl/src/draw/sw/blend/lv_draw_sw_blend_to_i1.c ****                     uint8_t mask_val = mask[x];
 8491              		.loc 1 312 44 is_stmt 1 discriminator 2 view .LVU2726
 8492 02b8 0131     		adds	r1, r1, #1
 8493              	.LVL915:
 8494              	.L472:
 312:Drivers/lvgl/src/draw/sw/blend/lv_draw_sw_blend_to_i1.c ****                     uint8_t mask_val = mask[x];
 8495              		.loc 1 312 38 discriminator 1 view .LVU2727
 8496 02ba A142     		cmp	r1, r4
 8497 02bc 37DA     		bge	.L491
 8498              	.LBB983:
 313:Drivers/lvgl/src/draw/sw/blend/lv_draw_sw_blend_to_i1.c ****                     if(mask_val == LV_OPA_TRANSP) continue;
 8499              		.loc 1 313 21 view .LVU2728
 313:Drivers/lvgl/src/draw/sw/blend/lv_draw_sw_blend_to_i1.c ****                     if(mask_val == LV_OPA_TRANSP) continue;
 8500              		.loc 1 313 29 is_stmt 0 view .LVU2729
 8501 02be 685C     		ldrb	r0, [r5, r1]	@ zero_extendqisi2
 8502              	.LVL916:
 314:Drivers/lvgl/src/draw/sw/blend/lv_draw_sw_blend_to_i1.c ****                     uint8_t * dest_bit = &dest_buf[(x + bit_ofs) / 8];
 8503              		.loc 1 314 21 is_stmt 1 view .LVU2730
 314:Drivers/lvgl/src/draw/sw/blend/lv_draw_sw_blend_to_i1.c ****                     uint8_t * dest_bit = &dest_buf[(x + bit_ofs) / 8];
 8504              		.loc 1 314 23 is_stmt 0 view .LVU2731
 8505 02c0 0028     		cmp	r0, #0
 8506 02c2 F9D0     		beq	.L467
ARM GAS  /var/folders/qx/2_175_4n2s19vhvtspjhb3qh0000gn/T//ccaVas4T.s 			page 227


 315:Drivers/lvgl/src/draw/sw/blend/lv_draw_sw_blend_to_i1.c ****                     uint8_t current_bit = (*dest_bit >> (7 - ((x  + bit_ofs) % 8))) & 0x01;
 8507              		.loc 1 315 21 is_stmt 1 view .LVU2732
 315:Drivers/lvgl/src/draw/sw/blend/lv_draw_sw_blend_to_i1.c ****                     uint8_t current_bit = (*dest_bit >> (7 - ((x  + bit_ofs) % 8))) & 0x01;
 8508              		.loc 1 315 55 is_stmt 0 view .LVU2733
 8509 02c4 01EB0A02 		add	r2, r1, r10
 315:Drivers/lvgl/src/draw/sw/blend/lv_draw_sw_blend_to_i1.c ****                     uint8_t current_bit = (*dest_bit >> (7 - ((x  + bit_ofs) % 8))) & 0x01;
 8510              		.loc 1 315 66 view .LVU2734
 8511 02c8 9646     		mov	lr, r2
 8512 02ca 002A     		cmp	r2, #0
 8513 02cc E9DB     		blt	.L492
 8514              	.L468:
 315:Drivers/lvgl/src/draw/sw/blend/lv_draw_sw_blend_to_i1.c ****                     uint8_t current_bit = (*dest_bit >> (7 - ((x  + bit_ofs) % 8))) & 0x01;
 8515              		.loc 1 315 66 view .LVU2735
 8516 02ce 4FEAEE0E 		asr	lr, lr, #3
 8517              	.LVL917:
 316:Drivers/lvgl/src/draw/sw/blend/lv_draw_sw_blend_to_i1.c ****                     uint8_t blended_opa = (mask_val * opa) / 255;
 8518              		.loc 1 316 21 is_stmt 1 view .LVU2736
 316:Drivers/lvgl/src/draw/sw/blend/lv_draw_sw_blend_to_i1.c ****                     uint8_t blended_opa = (mask_val * opa) / 255;
 8519              		.loc 1 316 44 is_stmt 0 view .LVU2737
 8520 02d2 17F80E80 		ldrb	r8, [r7, lr]	@ zero_extendqisi2
 316:Drivers/lvgl/src/draw/sw/blend/lv_draw_sw_blend_to_i1.c ****                     uint8_t blended_opa = (mask_val * opa) / 255;
 8521              		.loc 1 316 78 view .LVU2738
 8522 02d6 5342     		rsbs	r3, r2, #0
 8523 02d8 02F00702 		and	r2, r2, #7
 8524 02dc 03F00703 		and	r3, r3, #7
 8525 02e0 58BF     		it	pl
 8526 02e2 5A42     		rsbpl	r2, r3, #0
 316:Drivers/lvgl/src/draw/sw/blend/lv_draw_sw_blend_to_i1.c ****                     uint8_t blended_opa = (mask_val * opa) / 255;
 8527              		.loc 1 316 60 view .LVU2739
 8528 02e4 C2F10702 		rsb	r2, r2, #7
 316:Drivers/lvgl/src/draw/sw/blend/lv_draw_sw_blend_to_i1.c ****                     uint8_t blended_opa = (mask_val * opa) / 255;
 8529              		.loc 1 316 54 view .LVU2740
 8530 02e8 48FA02F3 		asr	r3, r8, r2
 316:Drivers/lvgl/src/draw/sw/blend/lv_draw_sw_blend_to_i1.c ****                     uint8_t blended_opa = (mask_val * opa) / 255;
 8531              		.loc 1 316 29 view .LVU2741
 8532 02ec 03F00103 		and	r3, r3, #1
 8533              	.LVL918:
 317:Drivers/lvgl/src/draw/sw/blend/lv_draw_sw_blend_to_i1.c ****                     uint8_t new_bit = (blended_opa * src_color + (255 - blended_opa) * current_bit)
 8534              		.loc 1 317 21 is_stmt 1 view .LVU2742
 317:Drivers/lvgl/src/draw/sw/blend/lv_draw_sw_blend_to_i1.c ****                     uint8_t new_bit = (blended_opa * src_color + (255 - blended_opa) * current_bit)
 8535              		.loc 1 317 53 is_stmt 0 view .LVU2743
 8536 02f0 019E     		ldr	r6, [sp, #4]
 8537 02f2 06FB00FC 		mul	ip, r6, r0
 317:Drivers/lvgl/src/draw/sw/blend/lv_draw_sw_blend_to_i1.c ****                     uint8_t new_bit = (blended_opa * src_color + (255 - blended_opa) * current_bit)
 8538              		.loc 1 317 60 view .LVU2744
 8539 02f6 1A48     		ldr	r0, .L493
 8540              	.LVL919:
 317:Drivers/lvgl/src/draw/sw/blend/lv_draw_sw_blend_to_i1.c ****                     uint8_t new_bit = (blended_opa * src_color + (255 - blended_opa) * current_bit)
 8541              		.loc 1 317 60 view .LVU2745
 8542 02f8 80FB0C96 		smull	r9, r6, r0, ip
 8543 02fc 6644     		add	r6, r6, ip
 8544              	.LVL920:
 318:Drivers/lvgl/src/draw/sw/blend/lv_draw_sw_blend_to_i1.c ****                     if(new_bit) {
 8545              		.loc 1 318 21 is_stmt 1 view .LVU2746
 8546 02fe C6F3C716 		ubfx	r6, r6, #7, #8
 8547              	.LVL921:
 318:Drivers/lvgl/src/draw/sw/blend/lv_draw_sw_blend_to_i1.c ****                     if(new_bit) {
ARM GAS  /var/folders/qx/2_175_4n2s19vhvtspjhb3qh0000gn/T//ccaVas4T.s 			page 228


 8548              		.loc 1 318 71 is_stmt 0 view .LVU2747
 8549 0302 C6F1FF0C 		rsb	ip, r6, #255
 8550              	.LVL922:
 318:Drivers/lvgl/src/draw/sw/blend/lv_draw_sw_blend_to_i1.c ****                     if(new_bit) {
 8551              		.loc 1 318 86 view .LVU2748
 8552 0306 0CFB03F3 		mul	r3, ip, r3
 8553              	.LVL923:
 318:Drivers/lvgl/src/draw/sw/blend/lv_draw_sw_blend_to_i1.c ****                     if(new_bit) {
 8554              		.loc 1 318 64 view .LVU2749
 8555 030a 06FB0B33 		mla	r3, r6, fp, r3
 318:Drivers/lvgl/src/draw/sw/blend/lv_draw_sw_blend_to_i1.c ****                     if(new_bit) {
 8556              		.loc 1 318 101 view .LVU2750
 8557 030e 80FB0360 		smull	r6, r0, r0, r3
 8558              	.LVL924:
 318:Drivers/lvgl/src/draw/sw/blend/lv_draw_sw_blend_to_i1.c ****                     if(new_bit) {
 8559              		.loc 1 318 101 view .LVU2751
 8560 0312 1844     		add	r0, r0, r3
 8561 0314 DB17     		asrs	r3, r3, #31
 8562 0316 C3EBE013 		rsb	r3, r3, r0, asr #7
 8563              	.LVL925:
 319:Drivers/lvgl/src/draw/sw/blend/lv_draw_sw_blend_to_i1.c ****                         set_bit(dest_buf, x + bit_ofs);
 8564              		.loc 1 319 21 is_stmt 1 view .LVU2752
 319:Drivers/lvgl/src/draw/sw/blend/lv_draw_sw_blend_to_i1.c ****                         set_bit(dest_buf, x + bit_ofs);
 8565              		.loc 1 319 23 is_stmt 0 view .LVU2753
 8566 031a 13F0FF0F 		tst	r3, #255
 8567 031e C3D0     		beq	.L469
 320:Drivers/lvgl/src/draw/sw/blend/lv_draw_sw_blend_to_i1.c ****                     }
 8568              		.loc 1 320 25 is_stmt 1 view .LVU2754
 8569              	.LVL926:
 8570              	.LBB981:
 8571              	.LBI981:
1261:Drivers/lvgl/src/draw/sw/blend/lv_draw_sw_blend_to_i1.c **** {
 8572              		.loc 1 1261 42 view .LVU2755
 8573              	.LBB982:
1263:Drivers/lvgl/src/draw/sw/blend/lv_draw_sw_blend_to_i1.c **** }
 8574              		.loc 1 1263 5 view .LVU2756
1263:Drivers/lvgl/src/draw/sw/blend/lv_draw_sw_blend_to_i1.c **** }
 8575              		.loc 1 1263 28 is_stmt 0 view .LVU2757
 8576 0320 0123     		movs	r3, #1
 8577              	.LVL927:
1263:Drivers/lvgl/src/draw/sw/blend/lv_draw_sw_blend_to_i1.c **** }
 8578              		.loc 1 1263 28 view .LVU2758
 8579 0322 9340     		lsls	r3, r3, r2
1263:Drivers/lvgl/src/draw/sw/blend/lv_draw_sw_blend_to_i1.c **** }
 8580              		.loc 1 1263 22 view .LVU2759
 8581 0324 48EA0303 		orr	r3, r8, r3
 8582 0328 07F80E30 		strb	r3, [r7, lr]
 8583              	.LVL928:
1264:Drivers/lvgl/src/draw/sw/blend/lv_draw_sw_blend_to_i1.c **** 
 8584              		.loc 1 1264 1 view .LVU2760
 8585 032c C4E7     		b	.L467
 8586              	.LVL929:
 8587              	.L491:
1264:Drivers/lvgl/src/draw/sw/blend/lv_draw_sw_blend_to_i1.c **** 
 8588              		.loc 1 1264 1 view .LVU2761
 8589              	.LBE982:
 8590              	.LBE981:
ARM GAS  /var/folders/qx/2_175_4n2s19vhvtspjhb3qh0000gn/T//ccaVas4T.s 			page 229


 8591              	.LBE983:
 8592              	.LBE977:
 8593              	.LBB984:
 8594              	.LBB985:
1258:Drivers/lvgl/src/draw/sw/blend/lv_draw_sw_blend_to_i1.c **** }
 8595              		.loc 1 1258 12 view .LVU2762
 8596 032e DDF80890 		ldr	r9, [sp, #8]
 8597              	.LBE985:
 8598              	.LBE984:
 326:Drivers/lvgl/src/draw/sw/blend/lv_draw_sw_blend_to_i1.c ****                 mask += mask_stride;
 8599              		.loc 1 326 17 is_stmt 1 view .LVU2763
 8600              	.LVL930:
 8601              	.LBB987:
 8602              	.LBI984:
1256:Drivers/lvgl/src/draw/sw/blend/lv_draw_sw_blend_to_i1.c **** {
 8603              		.loc 1 1256 44 view .LVU2764
 8604              	.LBB986:
1258:Drivers/lvgl/src/draw/sw/blend/lv_draw_sw_blend_to_i1.c **** }
 8605              		.loc 1 1258 5 view .LVU2765
1258:Drivers/lvgl/src/draw/sw/blend/lv_draw_sw_blend_to_i1.c **** }
 8606              		.loc 1 1258 12 is_stmt 0 view .LVU2766
 8607 0332 049B     		ldr	r3, [sp, #16]
 8608 0334 1F44     		add	r7, r7, r3
 8609              	.LVL931:
1258:Drivers/lvgl/src/draw/sw/blend/lv_draw_sw_blend_to_i1.c **** }
 8610              		.loc 1 1258 12 view .LVU2767
 8611              	.LBE986:
 8612              	.LBE987:
 327:Drivers/lvgl/src/draw/sw/blend/lv_draw_sw_blend_to_i1.c ****             }
 8613              		.loc 1 327 17 is_stmt 1 view .LVU2768
 327:Drivers/lvgl/src/draw/sw/blend/lv_draw_sw_blend_to_i1.c ****             }
 8614              		.loc 1 327 22 is_stmt 0 view .LVU2769
 8615 0336 039B     		ldr	r3, [sp, #12]
 8616 0338 1D44     		add	r5, r5, r3
 8617              	.LVL932:
 311:Drivers/lvgl/src/draw/sw/blend/lv_draw_sw_blend_to_i1.c ****                 for(int32_t x = 0; x < w; x++) {
 8618              		.loc 1 311 40 is_stmt 1 discriminator 2 view .LVU2770
 8619 033a 09F10109 		add	r9, r9, #1
 8620              	.LVL933:
 8621              	.L471:
 311:Drivers/lvgl/src/draw/sw/blend/lv_draw_sw_blend_to_i1.c ****                 for(int32_t x = 0; x < w; x++) {
 8622              		.loc 1 311 34 discriminator 1 view .LVU2771
 8623 033e 059B     		ldr	r3, [sp, #20]
 8624 0340 9945     		cmp	r9, r3
 8625 0342 09DA     		bge	.L440
 8626              	.LBB988:
 312:Drivers/lvgl/src/draw/sw/blend/lv_draw_sw_blend_to_i1.c ****                     uint8_t mask_val = mask[x];
 8627              		.loc 1 312 29 is_stmt 0 view .LVU2772
 8628 0344 0021     		movs	r1, #0
 8629 0346 CDF80890 		str	r9, [sp, #8]
 8630 034a B6E7     		b	.L472
 8631              	.LVL934:
 8632              	.L476:
 312:Drivers/lvgl/src/draw/sw/blend/lv_draw_sw_blend_to_i1.c ****                     uint8_t mask_val = mask[x];
 8633              		.loc 1 312 29 view .LVU2773
 8634              	.LBE988:
 8635              	.LBE976:
ARM GAS  /var/folders/qx/2_175_4n2s19vhvtspjhb3qh0000gn/T//ccaVas4T.s 			page 230


 8636 034c 0023     		movs	r3, #0
 8637 034e CDF81490 		str	r9, [sp, #20]
 8638 0352 9946     		mov	r9, r3
 8639              	.LVL935:
 312:Drivers/lvgl/src/draw/sw/blend/lv_draw_sw_blend_to_i1.c ****                     uint8_t mask_val = mask[x];
 8640              		.loc 1 312 29 view .LVU2774
 8641 0354 0196     		str	r6, [sp, #4]
 8642 0356 F2E7     		b	.L471
 8643              	.LVL936:
 8644              	.L440:
 331:Drivers/lvgl/src/draw/sw/blend/lv_draw_sw_blend_to_i1.c **** 
 8645              		.loc 1 331 1 view .LVU2775
 8646 0358 07B0     		add	sp, sp, #28
 8647              	.LCFI27:
 8648              		.cfi_def_cfa_offset 36
 8649              		@ sp needed
 8650 035a BDE8F08F 		pop	{r4, r5, r6, r7, r8, r9, r10, fp, pc}
 8651              	.LVL937:
 8652              	.L494:
 331:Drivers/lvgl/src/draw/sw/blend/lv_draw_sw_blend_to_i1.c **** 
 8653              		.loc 1 331 1 view .LVU2776
 8654 035e 00BF     		.align	2
 8655              	.L493:
 8656 0360 81808080 		.word	-2139062143
 8657              		.cfi_endproc
 8658              	.LFE181:
 8660              		.section	.text.lv_draw_sw_blend_image_to_i1,"ax",%progbits
 8661              		.align	1
 8662              		.global	lv_draw_sw_blend_image_to_i1
 8663              		.syntax unified
 8664              		.thumb
 8665              		.thumb_func
 8667              	lv_draw_sw_blend_image_to_i1:
 8668              	.LVL938:
 8669              	.LFB182:
 334:Drivers/lvgl/src/draw/sw/blend/lv_draw_sw_blend_to_i1.c ****     switch(dsc->src_color_format) {
 8670              		.loc 1 334 1 is_stmt 1 view -0
 8671              		.cfi_startproc
 8672              		@ args = 0, pretend = 0, frame = 0
 8673              		@ frame_needed = 0, uses_anonymous_args = 0
 334:Drivers/lvgl/src/draw/sw/blend/lv_draw_sw_blend_to_i1.c ****     switch(dsc->src_color_format) {
 8674              		.loc 1 334 1 is_stmt 0 view .LVU2778
 8675 0000 08B5     		push	{r3, lr}
 8676              	.LCFI28:
 8677              		.cfi_def_cfa_offset 8
 8678              		.cfi_offset 3, -8
 8679              		.cfi_offset 14, -4
 335:Drivers/lvgl/src/draw/sw/blend/lv_draw_sw_blend_to_i1.c **** #if LV_DRAW_SW_SUPPORT_RGB565
 8680              		.loc 1 335 5 is_stmt 1 view .LVU2779
 335:Drivers/lvgl/src/draw/sw/blend/lv_draw_sw_blend_to_i1.c **** #if LV_DRAW_SW_SUPPORT_RGB565
 8681              		.loc 1 335 15 is_stmt 0 view .LVU2780
 8682 0002 90F82030 		ldrb	r3, [r0, #32]	@ zero_extendqisi2
 335:Drivers/lvgl/src/draw/sw/blend/lv_draw_sw_blend_to_i1.c **** #if LV_DRAW_SW_SUPPORT_RGB565
 8683              		.loc 1 335 5 view .LVU2781
 8684 0006 063B     		subs	r3, r3, #6
 8685 0008 152B     		cmp	r3, #21
 8686 000a 0ED8     		bhi	.L495
ARM GAS  /var/folders/qx/2_175_4n2s19vhvtspjhb3qh0000gn/T//ccaVas4T.s 			page 231


 8687 000c DFE803F0 		tbb	[pc, r3]
 8688              	.L498:
 8689 0010 1C       		.byte	(.L505-.L498)/2
 8690 0011 22       		.byte	(.L504-.L498)/2
 8691 0012 0D       		.byte	(.L495-.L498)/2
 8692 0013 0D       		.byte	(.L495-.L498)/2
 8693 0014 0D       		.byte	(.L495-.L498)/2
 8694 0015 0D       		.byte	(.L495-.L498)/2
 8695 0016 0D       		.byte	(.L495-.L498)/2
 8696 0017 0D       		.byte	(.L495-.L498)/2
 8697 0018 0D       		.byte	(.L495-.L498)/2
 8698 0019 11       		.byte	(.L503-.L498)/2
 8699 001a 19       		.byte	(.L502-.L498)/2
 8700 001b 15       		.byte	(.L501-.L498)/2
 8701 001c 0B       		.byte	(.L500-.L498)/2
 8702 001d 0D       		.byte	(.L495-.L498)/2
 8703 001e 0D       		.byte	(.L495-.L498)/2
 8704 001f 1F       		.byte	(.L499-.L498)/2
 8705 0020 0D       		.byte	(.L495-.L498)/2
 8706 0021 0D       		.byte	(.L495-.L498)/2
 8707 0022 0D       		.byte	(.L495-.L498)/2
 8708 0023 0D       		.byte	(.L495-.L498)/2
 8709 0024 0D       		.byte	(.L495-.L498)/2
 8710 0025 0E       		.byte	(.L497-.L498)/2
 8711              		.p2align 1
 8712              	.L500:
 338:Drivers/lvgl/src/draw/sw/blend/lv_draw_sw_blend_to_i1.c ****             break;
 8713              		.loc 1 338 13 is_stmt 1 view .LVU2782
 8714 0026 FFF7FEFF 		bl	rgb565_image_blend
 8715              	.LVL939:
 339:Drivers/lvgl/src/draw/sw/blend/lv_draw_sw_blend_to_i1.c **** #endif
 8716              		.loc 1 339 13 view .LVU2783
 8717              	.L495:
 378:Drivers/lvgl/src/draw/sw/blend/lv_draw_sw_blend_to_i1.c **** 
 8718              		.loc 1 378 1 is_stmt 0 view .LVU2784
 8719 002a 08BD     		pop	{r3, pc}
 8720              	.LVL940:
 8721              	.L497:
 343:Drivers/lvgl/src/draw/sw/blend/lv_draw_sw_blend_to_i1.c ****             break;
 8722              		.loc 1 343 13 is_stmt 1 view .LVU2785
 8723 002c FFF7FEFF 		bl	rgb565_swapped_image_blend
 8724              	.LVL941:
 344:Drivers/lvgl/src/draw/sw/blend/lv_draw_sw_blend_to_i1.c **** #endif
 8725              		.loc 1 344 13 view .LVU2786
 8726 0030 FBE7     		b	.L495
 8727              	.LVL942:
 8728              	.L503:
 348:Drivers/lvgl/src/draw/sw/blend/lv_draw_sw_blend_to_i1.c ****             break;
 8729              		.loc 1 348 13 view .LVU2787
 8730 0032 0321     		movs	r1, #3
 8731 0034 FFF7FEFF 		bl	rgb888_image_blend
 8732              	.LVL943:
 349:Drivers/lvgl/src/draw/sw/blend/lv_draw_sw_blend_to_i1.c **** #endif
 8733              		.loc 1 349 13 view .LVU2788
 8734 0038 F7E7     		b	.L495
 8735              	.LVL944:
 8736              	.L501:
ARM GAS  /var/folders/qx/2_175_4n2s19vhvtspjhb3qh0000gn/T//ccaVas4T.s 			page 232


 353:Drivers/lvgl/src/draw/sw/blend/lv_draw_sw_blend_to_i1.c ****             break;
 8737              		.loc 1 353 13 view .LVU2789
 8738 003a 0421     		movs	r1, #4
 8739 003c FFF7FEFF 		bl	rgb888_image_blend
 8740              	.LVL945:
 354:Drivers/lvgl/src/draw/sw/blend/lv_draw_sw_blend_to_i1.c **** #endif
 8741              		.loc 1 354 13 view .LVU2790
 8742 0040 F3E7     		b	.L495
 8743              	.LVL946:
 8744              	.L502:
 358:Drivers/lvgl/src/draw/sw/blend/lv_draw_sw_blend_to_i1.c ****             break;
 8745              		.loc 1 358 13 view .LVU2791
 8746 0042 FFF7FEFF 		bl	argb8888_image_blend
 8747              	.LVL947:
 359:Drivers/lvgl/src/draw/sw/blend/lv_draw_sw_blend_to_i1.c **** #endif
 8748              		.loc 1 359 13 view .LVU2792
 8749 0046 F0E7     		b	.L495
 8750              	.LVL948:
 8751              	.L505:
 363:Drivers/lvgl/src/draw/sw/blend/lv_draw_sw_blend_to_i1.c ****             break;
 8752              		.loc 1 363 13 view .LVU2793
 8753 0048 FFF7FEFF 		bl	l8_image_blend
 8754              	.LVL949:
 364:Drivers/lvgl/src/draw/sw/blend/lv_draw_sw_blend_to_i1.c **** #endif
 8755              		.loc 1 364 13 view .LVU2794
 8756 004c EDE7     		b	.L495
 8757              	.LVL950:
 8758              	.L499:
 368:Drivers/lvgl/src/draw/sw/blend/lv_draw_sw_blend_to_i1.c ****             break;
 8759              		.loc 1 368 13 view .LVU2795
 8760 004e FFF7FEFF 		bl	al88_image_blend
 8761              	.LVL951:
 369:Drivers/lvgl/src/draw/sw/blend/lv_draw_sw_blend_to_i1.c **** #endif
 8762              		.loc 1 369 13 view .LVU2796
 8763 0052 EAE7     		b	.L495
 8764              	.LVL952:
 8765              	.L504:
 372:Drivers/lvgl/src/draw/sw/blend/lv_draw_sw_blend_to_i1.c ****             break;
 8766              		.loc 1 372 13 view .LVU2797
 8767 0054 FFF7FEFF 		bl	i1_image_blend
 8768              	.LVL953:
 373:Drivers/lvgl/src/draw/sw/blend/lv_draw_sw_blend_to_i1.c ****         default:
 8769              		.loc 1 373 13 view .LVU2798
 378:Drivers/lvgl/src/draw/sw/blend/lv_draw_sw_blend_to_i1.c **** 
 8770              		.loc 1 378 1 is_stmt 0 view .LVU2799
 8771 0058 E7E7     		b	.L495
 8772              		.cfi_endproc
 8773              	.LFE182:
 8775              		.text
 8776              	.Letext0:
 8777              		.file 3 "/Applications/ArmGNUToolchain/14.3.rel1/arm-none-eabi/arm-none-eabi/include/machine/_defa
 8778              		.file 4 "/Applications/ArmGNUToolchain/14.3.rel1/arm-none-eabi/arm-none-eabi/include/sys/_stdint.h
 8779              		.file 5 "Drivers/lvgl/src/draw/sw/blend/../../../misc/lv_types.h"
 8780              		.file 6 "Drivers/lvgl/src/draw/sw/blend/lv_draw_sw_blend_private.h"
 8781              		.file 7 "Drivers/lvgl/src/draw/sw/blend/../../../misc/../font/../draw/../misc/lv_area.h"
 8782              		.file 8 "Drivers/lvgl/src/draw/sw/blend/../../../misc/lv_style.h"
ARM GAS  /var/folders/qx/2_175_4n2s19vhvtspjhb3qh0000gn/T//ccaVas4T.s 			page 233


DEFINED SYMBOLS
                            *ABS*:00000000 lv_draw_sw_blend_to_i1.c
/var/folders/qx/2_175_4n2s19vhvtspjhb3qh0000gn/T//ccaVas4T.s:21     .text.lv_color_8_8_mix:00000000 $t
/var/folders/qx/2_175_4n2s19vhvtspjhb3qh0000gn/T//ccaVas4T.s:26     .text.lv_color_8_8_mix:00000000 lv_color_8_8_mix
/var/folders/qx/2_175_4n2s19vhvtspjhb3qh0000gn/T//ccaVas4T.s:76     .text.blend_non_normal_pixel:00000000 $t
/var/folders/qx/2_175_4n2s19vhvtspjhb3qh0000gn/T//ccaVas4T.s:81     .text.blend_non_normal_pixel:00000000 blend_non_normal_pixel
/var/folders/qx/2_175_4n2s19vhvtspjhb3qh0000gn/T//ccaVas4T.s:155    .text.blend_non_normal_pixel:00000044 $d
/var/folders/qx/2_175_4n2s19vhvtspjhb3qh0000gn/T//ccaVas4T.s:160    .text.blend_non_normal_pixel:00000048 $t
/var/folders/qx/2_175_4n2s19vhvtspjhb3qh0000gn/T//ccaVas4T.s:292    .text.rgb565_image_blend:00000000 $t
/var/folders/qx/2_175_4n2s19vhvtspjhb3qh0000gn/T//ccaVas4T.s:297    .text.rgb565_image_blend:00000000 rgb565_image_blend
/var/folders/qx/2_175_4n2s19vhvtspjhb3qh0000gn/T//ccaVas4T.s:1334   .text.rgb565_swapped_image_blend:00000000 $t
/var/folders/qx/2_175_4n2s19vhvtspjhb3qh0000gn/T//ccaVas4T.s:1339   .text.rgb565_swapped_image_blend:00000000 rgb565_swapped_image_blend
/var/folders/qx/2_175_4n2s19vhvtspjhb3qh0000gn/T//ccaVas4T.s:2577   .text.l8_image_blend:00000000 $t
/var/folders/qx/2_175_4n2s19vhvtspjhb3qh0000gn/T//ccaVas4T.s:2582   .text.l8_image_blend:00000000 l8_image_blend
/var/folders/qx/2_175_4n2s19vhvtspjhb3qh0000gn/T//ccaVas4T.s:3547   .text.al88_image_blend:00000000 $t
/var/folders/qx/2_175_4n2s19vhvtspjhb3qh0000gn/T//ccaVas4T.s:3552   .text.al88_image_blend:00000000 al88_image_blend
/var/folders/qx/2_175_4n2s19vhvtspjhb3qh0000gn/T//ccaVas4T.s:4547   .text.i1_image_blend:00000000 $t
/var/folders/qx/2_175_4n2s19vhvtspjhb3qh0000gn/T//ccaVas4T.s:4552   .text.i1_image_blend:00000000 i1_image_blend
/var/folders/qx/2_175_4n2s19vhvtspjhb3qh0000gn/T//ccaVas4T.s:5712   .text.argb8888_image_blend:00000000 $t
/var/folders/qx/2_175_4n2s19vhvtspjhb3qh0000gn/T//ccaVas4T.s:5717   .text.argb8888_image_blend:00000000 argb8888_image_blend
/var/folders/qx/2_175_4n2s19vhvtspjhb3qh0000gn/T//ccaVas4T.s:6719   .text.rgb888_image_blend:00000000 $t
/var/folders/qx/2_175_4n2s19vhvtspjhb3qh0000gn/T//ccaVas4T.s:6724   .text.rgb888_image_blend:00000000 rgb888_image_blend
/var/folders/qx/2_175_4n2s19vhvtspjhb3qh0000gn/T//ccaVas4T.s:7761   .text.lv_draw_sw_blend_color_to_i1:00000000 $t
/var/folders/qx/2_175_4n2s19vhvtspjhb3qh0000gn/T//ccaVas4T.s:7767   .text.lv_draw_sw_blend_color_to_i1:00000000 lv_draw_sw_blend_color_to_i1
/var/folders/qx/2_175_4n2s19vhvtspjhb3qh0000gn/T//ccaVas4T.s:8656   .text.lv_draw_sw_blend_color_to_i1:00000360 $d
/var/folders/qx/2_175_4n2s19vhvtspjhb3qh0000gn/T//ccaVas4T.s:8661   .text.lv_draw_sw_blend_image_to_i1:00000000 $t
/var/folders/qx/2_175_4n2s19vhvtspjhb3qh0000gn/T//ccaVas4T.s:8667   .text.lv_draw_sw_blend_image_to_i1:00000000 lv_draw_sw_blend_image_to_i1
/var/folders/qx/2_175_4n2s19vhvtspjhb3qh0000gn/T//ccaVas4T.s:8689   .text.lv_draw_sw_blend_image_to_i1:00000010 $d
/var/folders/qx/2_175_4n2s19vhvtspjhb3qh0000gn/T//ccaVas4T.s:8711   .text.lv_draw_sw_blend_image_to_i1:00000026 $t

UNDEFINED SYMBOLS
lv_color32_luminance
lv_color16_luminance
lv_color24_luminance
lv_color_luminance
