ARM GAS  C:\Users\moham\AppData\Local\Temp\ccnv69Rb.s 			page 1


   1              		.cpu cortex-m4
   2              		.arch armv7e-m
   3              		.fpu fpv4-sp-d16
   4              		.eabi_attribute 27, 1
   5              		.eabi_attribute 28, 1
   6              		.eabi_attribute 20, 1
   7              		.eabi_attribute 21, 1
   8              		.eabi_attribute 23, 3
   9              		.eabi_attribute 24, 1
  10              		.eabi_attribute 25, 1
  11              		.eabi_attribute 26, 1
  12              		.eabi_attribute 30, 1
  13              		.eabi_attribute 34, 1
  14              		.eabi_attribute 18, 4
  15              		.file	"freertos.c"
  16              		.text
  17              	.Ltext0:
  18              		.cfi_sections	.debug_frame
  19              		.file 1 "Core/Src/freertos.c"
  20              		.section	.text.StartDefaultTask,"ax",%progbits
  21              		.align	1
  22              		.global	StartDefaultTask
  23              		.syntax unified
  24              		.thumb
  25              		.thumb_func
  27              	StartDefaultTask:
  28              	.LVL0:
  29              	.LFB252:
   1:Core/Src/freertos.c **** /* USER CODE BEGIN Header */
   2:Core/Src/freertos.c **** /**
   3:Core/Src/freertos.c ****   ******************************************************************************
   4:Core/Src/freertos.c ****   * File Name          : freertos.c
   5:Core/Src/freertos.c ****   * Description        : Code for freertos applications
   6:Core/Src/freertos.c ****   ******************************************************************************
   7:Core/Src/freertos.c ****   * @attention
   8:Core/Src/freertos.c ****   *
   9:Core/Src/freertos.c ****   * Copyright (c) 2025 STMicroelectronics.
  10:Core/Src/freertos.c ****   * All rights reserved.
  11:Core/Src/freertos.c ****   *
  12:Core/Src/freertos.c ****   * This software is licensed under terms that can be found in the LICENSE file
  13:Core/Src/freertos.c ****   * in the root directory of this software component.
  14:Core/Src/freertos.c ****   * If no LICENSE file comes with this software, it is provided AS-IS.
  15:Core/Src/freertos.c ****   *
  16:Core/Src/freertos.c ****   ******************************************************************************
  17:Core/Src/freertos.c ****   */
  18:Core/Src/freertos.c **** /* USER CODE END Header */
  19:Core/Src/freertos.c **** 
  20:Core/Src/freertos.c **** /* Includes ------------------------------------------------------------------*/
  21:Core/Src/freertos.c **** #include "FreeRTOS.h"
  22:Core/Src/freertos.c **** #include "task.h"
  23:Core/Src/freertos.c **** #include "main.h"
  24:Core/Src/freertos.c **** #include "cmsis_os.h"
  25:Core/Src/freertos.c **** 
  26:Core/Src/freertos.c **** /* Private includes ----------------------------------------------------------*/
  27:Core/Src/freertos.c **** /* USER CODE BEGIN Includes */
  28:Core/Src/freertos.c **** #include <string.h>
  29:Core/Src/freertos.c **** #include "usart.h"
ARM GAS  C:\Users\moham\AppData\Local\Temp\ccnv69Rb.s 			page 2


  30:Core/Src/freertos.c **** #include <stdio.h>
  31:Core/Src/freertos.c **** #include "ili9341.h"
  32:Core/Src/freertos.c **** 
  33:Core/Src/freertos.c **** extern ADC_HandleTypeDef hadc1;
  34:Core/Src/freertos.c **** 
  35:Core/Src/freertos.c **** /* USER CODE END Includes */
  36:Core/Src/freertos.c **** 
  37:Core/Src/freertos.c **** /* Private typedef -----------------------------------------------------------*/
  38:Core/Src/freertos.c **** /* USER CODE BEGIN PTD */
  39:Core/Src/freertos.c **** 
  40:Core/Src/freertos.c **** /* USER CODE END PTD */
  41:Core/Src/freertos.c **** 
  42:Core/Src/freertos.c **** /* Private define ------------------------------------------------------------*/
  43:Core/Src/freertos.c **** /* USER CODE BEGIN PD */
  44:Core/Src/freertos.c **** 
  45:Core/Src/freertos.c **** /* USER CODE END PD */
  46:Core/Src/freertos.c **** 
  47:Core/Src/freertos.c **** /* Private macro -------------------------------------------------------------*/
  48:Core/Src/freertos.c **** /* USER CODE BEGIN PM */
  49:Core/Src/freertos.c **** 
  50:Core/Src/freertos.c **** /* USER CODE END PM */
  51:Core/Src/freertos.c **** 
  52:Core/Src/freertos.c **** /* Private variables ---------------------------------------------------------*/
  53:Core/Src/freertos.c **** /* USER CODE BEGIN Variables */
  54:Core/Src/freertos.c **** 
  55:Core/Src/freertos.c **** 
  56:Core/Src/freertos.c **** // LED definitions for STM32F429I-Discovery
  57:Core/Src/freertos.c **** #define LED_PORT        GPIOG
  58:Core/Src/freertos.c **** #define LED_GREEN_PIN   GPIO_PIN_13  // Green LED
  59:Core/Src/freertos.c **** #define LED_RED_PIN     GPIO_PIN_14  // Red LED
  60:Core/Src/freertos.c ****      // Keep for ADC
  61:Core/Src/freertos.c **** 
  62:Core/Src/freertos.c **** 
  63:Core/Src/freertos.c **** 
  64:Core/Src/freertos.c **** 
  65:Core/Src/freertos.c **** SemaphoreHandle_t ButtonSemaphore;
  66:Core/Src/freertos.c **** 
  67:Core/Src/freertos.c **** 
  68:Core/Src/freertos.c **** osThreadId EventTaskHandle;
  69:Core/Src/freertos.c **** /* USER CODE END Variables */
  70:Core/Src/freertos.c **** osThreadId defaultTaskHandle;
  71:Core/Src/freertos.c **** 
  72:Core/Src/freertos.c **** /* Private function prototypes -----------------------------------------------*/
  73:Core/Src/freertos.c **** /* USER CODE BEGIN FunctionPrototypes */
  74:Core/Src/freertos.c **** void EventTask(void const * argument);
  75:Core/Src/freertos.c **** void LcdTask(void const * argument);
  76:Core/Src/freertos.c **** /* USER CODE END FunctionPrototypes */
  77:Core/Src/freertos.c **** 
  78:Core/Src/freertos.c **** void StartDefaultTask(void const * argument);
  79:Core/Src/freertos.c **** 
  80:Core/Src/freertos.c **** extern void MX_USB_HOST_Init(void);
  81:Core/Src/freertos.c **** void MX_FREERTOS_Init(void); /* (MISRA C 2004 rule 8.1) */
  82:Core/Src/freertos.c **** 
  83:Core/Src/freertos.c **** /* GetIdleTaskMemory prototype (linked to static allocation support) */
  84:Core/Src/freertos.c **** void vApplicationGetIdleTaskMemory( StaticTask_t **ppxIdleTaskTCBBuffer, StackType_t **ppxIdleTaskS
  85:Core/Src/freertos.c **** 
  86:Core/Src/freertos.c **** /* Hook prototypes */
ARM GAS  C:\Users\moham\AppData\Local\Temp\ccnv69Rb.s 			page 3


  87:Core/Src/freertos.c **** void vApplicationIdleHook(void);
  88:Core/Src/freertos.c **** void vApplicationStackOverflowHook(xTaskHandle xTask, signed char *pcTaskName);
  89:Core/Src/freertos.c **** void vApplicationMallocFailedHook(void);
  90:Core/Src/freertos.c **** 
  91:Core/Src/freertos.c **** /* USER CODE BEGIN 2 */
  92:Core/Src/freertos.c **** __weak void vApplicationIdleHook( void )
  93:Core/Src/freertos.c **** {
  94:Core/Src/freertos.c ****    /* vApplicationIdleHook() will only be called if configUSE_IDLE_HOOK is set
  95:Core/Src/freertos.c ****    to 1 in FreeRTOSConfig.h. It will be called on each iteration of the idle
  96:Core/Src/freertos.c ****    task. It is essential that code added to this hook function never attempts
  97:Core/Src/freertos.c ****    to block in any way (for example, call xQueueReceive() with a block time
  98:Core/Src/freertos.c ****    specified, or call vTaskDelay()). If the application makes use of the
  99:Core/Src/freertos.c ****    vTaskDelete() API function (as this demo application does) then it is also
 100:Core/Src/freertos.c ****    important that vApplicationIdleHook() is permitted to return to its calling
 101:Core/Src/freertos.c ****    function, because it is the responsibility of the idle task to clean up
 102:Core/Src/freertos.c ****    memory allocated by the kernel to any task that has since been deleted. */
 103:Core/Src/freertos.c **** }
 104:Core/Src/freertos.c **** /* USER CODE END 2 */
 105:Core/Src/freertos.c **** 
 106:Core/Src/freertos.c **** /* USER CODE BEGIN 4 */
 107:Core/Src/freertos.c **** void vApplicationStackOverflowHook(xTaskHandle xTask, signed char *pcTaskName)
 108:Core/Src/freertos.c **** {
 109:Core/Src/freertos.c ****    /* Run time stack overflow checking is performed if
 110:Core/Src/freertos.c ****    configCHECK_FOR_STACK_OVERFLOW is defined to 1 or 2. This hook function is
 111:Core/Src/freertos.c ****    called if a stack overflow is detected. */
 112:Core/Src/freertos.c **** 
 113:Core/Src/freertos.c ****    // CRITICAL: Cannot use printf() in hooks! ISR context - not safe!
 114:Core/Src/freertos.c ****    // Just blink red LED rapidly to indicate stack overflow
 115:Core/Src/freertos.c ****    (void)xTask;        // Unused parameter
 116:Core/Src/freertos.c ****    (void)pcTaskName;   // Unused parameter
 117:Core/Src/freertos.c **** 
 118:Core/Src/freertos.c ****    while(1) {
 119:Core/Src/freertos.c ****       HAL_GPIO_TogglePin(GPIOG, GPIO_PIN_14);  // Red LED
 120:Core/Src/freertos.c ****       for(volatile uint32_t i = 0; i < 500000; i++);  // Delay
 121:Core/Src/freertos.c ****    }
 122:Core/Src/freertos.c **** }
 123:Core/Src/freertos.c **** 
 124:Core/Src/freertos.c **** /* USER CODE END 4 */
 125:Core/Src/freertos.c **** 
 126:Core/Src/freertos.c **** /* USER CODE BEGIN 5 */
 127:Core/Src/freertos.c **** __weak void vApplicationMallocFailedHook(void)
 128:Core/Src/freertos.c **** {
 129:Core/Src/freertos.c ****    /* vApplicationMallocFailedHook() will only be called if
 130:Core/Src/freertos.c ****    configUSE_MALLOC_FAILED_HOOK is set to 1 in FreeRTOSConfig.h. It is a hook
 131:Core/Src/freertos.c ****    function that will get called if a call to pvPortMalloc() fails.
 132:Core/Src/freertos.c ****    pvPortMalloc() is called internally by the kernel whenever a task, queue,
 133:Core/Src/freertos.c ****    timer or semaphore is created. It is also called by various parts of the
 134:Core/Src/freertos.c ****    demo application. If heap_1.c or heap_2.c are used, then the size of the
 135:Core/Src/freertos.c ****    heap available to pvPortMalloc() is defined by configTOTAL_HEAP_SIZE in
 136:Core/Src/freertos.c ****    FreeRTOSConfig.h, and the xPortGetFreeHeapSize() API function can be used
 137:Core/Src/freertos.c ****    to query the size of free heap space that remains (although it does not
 138:Core/Src/freertos.c ****    provide information on how the remaining heap might be fragmented). */
 139:Core/Src/freertos.c **** }
 140:Core/Src/freertos.c **** /* USER CODE END 5 */
 141:Core/Src/freertos.c **** 
 142:Core/Src/freertos.c **** /* USER CODE BEGIN GET_IDLE_TASK_MEMORY */
 143:Core/Src/freertos.c **** static StaticTask_t xIdleTaskTCBBuffer;
ARM GAS  C:\Users\moham\AppData\Local\Temp\ccnv69Rb.s 			page 4


 144:Core/Src/freertos.c **** static StackType_t xIdleStack[configMINIMAL_STACK_SIZE];
 145:Core/Src/freertos.c **** 
 146:Core/Src/freertos.c **** void vApplicationGetIdleTaskMemory( StaticTask_t **ppxIdleTaskTCBBuffer, StackType_t **ppxIdleTaskS
 147:Core/Src/freertos.c **** {
 148:Core/Src/freertos.c ****   *ppxIdleTaskTCBBuffer = &xIdleTaskTCBBuffer;
 149:Core/Src/freertos.c ****   *ppxIdleTaskStackBuffer = &xIdleStack[0];
 150:Core/Src/freertos.c ****   *pulIdleTaskStackSize = configMINIMAL_STACK_SIZE;
 151:Core/Src/freertos.c ****   /* place for user code */
 152:Core/Src/freertos.c **** }
 153:Core/Src/freertos.c **** /* USER CODE END GET_IDLE_TASK_MEMORY */
 154:Core/Src/freertos.c **** 
 155:Core/Src/freertos.c **** /**
 156:Core/Src/freertos.c ****   * @brief  FreeRTOS initialization
 157:Core/Src/freertos.c ****   * @param  None
 158:Core/Src/freertos.c ****   * @retval None
 159:Core/Src/freertos.c ****   */
 160:Core/Src/freertos.c **** void MX_FREERTOS_Init(void) {
 161:Core/Src/freertos.c ****   /* USER CODE BEGIN Init */
 162:Core/Src/freertos.c **** 
 163:Core/Src/freertos.c ****   /* USER CODE END Init */
 164:Core/Src/freertos.c **** 
 165:Core/Src/freertos.c ****   /* USER CODE BEGIN RTOS_MUTEX */
 166:Core/Src/freertos.c ****   /* add mutexes, ... */
 167:Core/Src/freertos.c ****   /* USER CODE END RTOS_MUTEX */
 168:Core/Src/freertos.c **** 
 169:Core/Src/freertos.c ****   /* USER CODE BEGIN RTOS_SEMAPHORES */
 170:Core/Src/freertos.c ****   /* add semaphores, ... */
 171:Core/Src/freertos.c ****     ButtonSemaphore = xSemaphoreCreateBinary();
 172:Core/Src/freertos.c ****   /* USER CODE END RTOS_SEMAPHORES */
 173:Core/Src/freertos.c **** 
 174:Core/Src/freertos.c ****   /* USER CODE BEGIN RTOS_TIMERS */
 175:Core/Src/freertos.c ****   /* start timers, add new ones, ... */
 176:Core/Src/freertos.c ****   /* USER CODE END RTOS_TIMERS */
 177:Core/Src/freertos.c **** 
 178:Core/Src/freertos.c ****   /* USER CODE BEGIN RTOS_QUEUES */
 179:Core/Src/freertos.c ****   /* add queues, ... */
 180:Core/Src/freertos.c **** 
 181:Core/Src/freertos.c ****   /* USER CODE END RTOS_QUEUES */
 182:Core/Src/freertos.c **** 
 183:Core/Src/freertos.c ****   /* Create the thread(s) */
 184:Core/Src/freertos.c ****   /* definition and creation of defaultTask */
 185:Core/Src/freertos.c ****   osThreadDef(defaultTask, StartDefaultTask, osPriorityNormal, 0, 4096);
 186:Core/Src/freertos.c ****   defaultTaskHandle = osThreadCreate(osThread(defaultTask), NULL);
 187:Core/Src/freertos.c **** 
 188:Core/Src/freertos.c **** 
 189:Core/Src/freertos.c ****   osThreadDef(draw, LcdTask, osPriorityNormal, 0, 256);
 190:Core/Src/freertos.c ****   osThreadCreate(osThread(draw), NULL);
 191:Core/Src/freertos.c ****   printf("✓ LCD TASK\n");
 192:Core/Src/freertos.c **** 
 193:Core/Src/freertos.c ****   /* USER CODE BEGIN RTOS_THREADS */
 194:Core/Src/freertos.c ****   /* add threads, ... */
 195:Core/Src/freertos.c **** 
 196:Core/Src/freertos.c **** 
 197:Core/Src/freertos.c **** 
 198:Core/Src/freertos.c ****   /* USER CODE END RTOS_THREADS */
 199:Core/Src/freertos.c **** 
 200:Core/Src/freertos.c **** }
ARM GAS  C:\Users\moham\AppData\Local\Temp\ccnv69Rb.s 			page 5


 201:Core/Src/freertos.c **** 
 202:Core/Src/freertos.c **** /* USER CODE BEGIN Header_StartDefaultTask */
 203:Core/Src/freertos.c **** /**
 204:Core/Src/freertos.c ****   * @brief  Function implementing the defaultTask thread.
 205:Core/Src/freertos.c ****   * @param  argument: Not used
 206:Core/Src/freertos.c ****   * @retval None
 207:Core/Src/freertos.c ****   */
 208:Core/Src/freertos.c **** /* USER CODE END Header_StartDefaultTask */
 209:Core/Src/freertos.c **** void StartDefaultTask(void const * argument)
 210:Core/Src/freertos.c **** {
  30              		.loc 1 210 1 view -0
  31              		.cfi_startproc
  32              		@ Volatile: function does not return.
  33              		@ args = 0, pretend = 0, frame = 0
  34              		@ frame_needed = 0, uses_anonymous_args = 0
  35              		.loc 1 210 1 is_stmt 0 view .LVU1
  36 0000 08B5     		push	{r3, lr}
  37              	.LCFI0:
  38              		.cfi_def_cfa_offset 8
  39              		.cfi_offset 3, -8
  40              		.cfi_offset 14, -4
 211:Core/Src/freertos.c ****   /* init code for USB_HOST */
 212:Core/Src/freertos.c ****   MX_USB_HOST_Init();
  41              		.loc 1 212 3 is_stmt 1 view .LVU2
  42 0002 FFF7FEFF 		bl	MX_USB_HOST_Init
  43              	.LVL1:
  44              	.L2:
 213:Core/Src/freertos.c ****   /* USER CODE BEGIN StartDefaultTask */
 214:Core/Src/freertos.c ****   /* Infinite loop */
 215:Core/Src/freertos.c ****   for(;;)
  45              		.loc 1 215 3 view .LVU3
 216:Core/Src/freertos.c ****   {
 217:Core/Src/freertos.c ****     osDelay(1);  // Yield to other tasks
  46              		.loc 1 217 5 discriminator 1 view .LVU4
  47 0006 0120     		movs	r0, #1
  48 0008 FFF7FEFF 		bl	osDelay
  49              	.LVL2:
 215:Core/Src/freertos.c ****   {
  50              		.loc 1 215 3 view .LVU5
  51 000c FBE7     		b	.L2
  52              		.cfi_endproc
  53              	.LFE252:
  55              		.section	.rodata.LcdTask.str1.4,"aMS",%progbits,1
  56              		.align	2
  57              	.LC4:
  58 0000 436F756E 		.ascii	"Count: %lu\000"
  58      743A2025 
  58      6C7500
  59              		.section	.text.LcdTask,"ax",%progbits
  60              		.align	1
  61              		.global	LcdTask
  62              		.syntax unified
  63              		.thumb
  64              		.thumb_func
  66              	LcdTask:
  67              	.LVL3:
  68              	.LFB254:
ARM GAS  C:\Users\moham\AppData\Local\Temp\ccnv69Rb.s 			page 6


 218:Core/Src/freertos.c ****   }
 219:Core/Src/freertos.c ****   /* USER CODE END StartDefaultTask */
 220:Core/Src/freertos.c **** }
 221:Core/Src/freertos.c **** 
 222:Core/Src/freertos.c **** /* Private application code --------------------------------------------------*/
 223:Core/Src/freertos.c **** /* USER CODE BEGIN Application */
 224:Core/Src/freertos.c **** 
 225:Core/Src/freertos.c **** 
 226:Core/Src/freertos.c ****   void EventTask(void const * argument)
 227:Core/Src/freertos.c ****   {
 228:Core/Src/freertos.c ****       uint32_t count = 0;
 229:Core/Src/freertos.c **** 
 230:Core/Src/freertos.c ****       for(;;)
 231:Core/Src/freertos.c ****       {
 232:Core/Src/freertos.c ****           // Block until semaphore given (button pressed)
 233:Core/Src/freertos.c ****           xSemaphoreTake(ButtonSemaphore, portMAX_DELAY);
 234:Core/Src/freertos.c **** 
 235:Core/Src/freertos.c ****           // Instant response!
 236:Core/Src/freertos.c ****           count++;
 237:Core/Src/freertos.c ****           printf("[%lu] Button event! Count: %lu\r\n", HAL_GetTick(), count);
 238:Core/Src/freertos.c **** 
 239:Core/Src/freertos.c ****           // Simulate slow processing work (100ms as per Task 3.4)
 240:Core/Src/freertos.c ****           vTaskDelay(pdMS_TO_TICKS(100));
 241:Core/Src/freertos.c **** 
 242:Core/Src/freertos.c ****           HAL_GPIO_TogglePin(LED_PORT, LED_RED_PIN);
 243:Core/Src/freertos.c ****           
 244:Core/Src/freertos.c ****       }
 245:Core/Src/freertos.c ****   }
 246:Core/Src/freertos.c **** 
 247:Core/Src/freertos.c **** 
 248:Core/Src/freertos.c **** void LcdTask(void const *argument)
 249:Core/Src/freertos.c **** {
  69              		.loc 1 249 1 view -0
  70              		.cfi_startproc
  71              		@ args = 0, pretend = 0, frame = 32
  72              		@ frame_needed = 0, uses_anonymous_args = 0
  73              		.loc 1 249 1 is_stmt 0 view .LVU7
  74 0000 70B5     		push	{r4, r5, r6, lr}
  75              	.LCFI1:
  76              		.cfi_def_cfa_offset 16
  77              		.cfi_offset 4, -16
  78              		.cfi_offset 5, -12
  79              		.cfi_offset 6, -8
  80              		.cfi_offset 14, -4
  81 0002 8AB0     		sub	sp, sp, #40
  82              	.LCFI2:
  83              		.cfi_def_cfa_offset 56
 250:Core/Src/freertos.c ****     uint32_t counter = 0;
  84              		.loc 1 250 5 is_stmt 1 view .LVU8
  85              	.LVL4:
  86              		.loc 1 250 14 is_stmt 0 view .LVU9
  87 0004 0024     		movs	r4, #0
  88              	.LVL5:
  89              	.L5:
 251:Core/Src/freertos.c ****     char buffer[32];
  90              		.loc 1 251 5 is_stmt 1 view .LVU10
 252:Core/Src/freertos.c ****     
ARM GAS  C:\Users\moham\AppData\Local\Temp\ccnv69Rb.s 			page 7


 253:Core/Src/freertos.c ****     for(;;)
  91              		.loc 1 253 5 view .LVU11
 254:Core/Src/freertos.c ****     {
 255:Core/Src/freertos.c ****         counter++;
  92              		.loc 1 255 9 view .LVU12
  93              		.loc 1 255 16 is_stmt 0 view .LVU13
  94 0006 0134     		adds	r4, r4, #1
  95              	.LVL6:
 256:Core/Src/freertos.c ****         
 257:Core/Src/freertos.c ****         // Clear counter area
 258:Core/Src/freertos.c ****         ILI9341_FillRect(10, 200, 200, 20, COLOR_BLACK);
  96              		.loc 1 258 9 is_stmt 1 view .LVU14
  97 0008 0026     		movs	r6, #0
  98 000a 0096     		str	r6, [sp]
  99 000c 1423     		movs	r3, #20
 100 000e C822     		movs	r2, #200
 101 0010 1146     		mov	r1, r2
 102 0012 0A20     		movs	r0, #10
 103 0014 FFF7FEFF 		bl	ILI9341_FillRect
 104              	.LVL7:
 259:Core/Src/freertos.c ****         
 260:Core/Src/freertos.c ****         // Display counter
 261:Core/Src/freertos.c ****         sprintf(buffer, "Count: %lu", counter);
 105              		.loc 1 261 9 view .LVU15
 106 0018 02AD     		add	r5, sp, #8
 107 001a 2246     		mov	r2, r4
 108 001c 0949     		ldr	r1, .L7
 109 001e 2846     		mov	r0, r5
 110 0020 FFF7FEFF 		bl	sprintf
 111              	.LVL8:
 262:Core/Src/freertos.c ****         ILI9341_DrawString(10, 200, buffer, COLOR_YELLOW, COLOR_BLACK, 2);
 112              		.loc 1 262 9 view .LVU16
 113 0024 0223     		movs	r3, #2
 114 0026 0193     		str	r3, [sp, #4]
 115 0028 0096     		str	r6, [sp]
 116 002a 4FF6E073 		movw	r3, #65504
 117 002e 2A46     		mov	r2, r5
 118 0030 C821     		movs	r1, #200
 119 0032 0A20     		movs	r0, #10
 120 0034 FFF7FEFF 		bl	ILI9341_DrawString
 121              	.LVL9:
 263:Core/Src/freertos.c ****         
 264:Core/Src/freertos.c ****         vTaskDelay(pdMS_TO_TICKS(1000));
 122              		.loc 1 264 9 discriminator 1 view .LVU17
 123 0038 4FF47A70 		mov	r0, #1000
 124 003c FFF7FEFF 		bl	vTaskDelay
 125              	.LVL10:
 253:Core/Src/freertos.c ****     {
 126              		.loc 1 253 5 view .LVU18
 127 0040 E1E7     		b	.L5
 128              	.L8:
 129 0042 00BF     		.align	2
 130              	.L7:
 131 0044 00000000 		.word	.LC4
 132              		.cfi_endproc
 133              	.LFE254:
 135              		.section	.text.vApplicationIdleHook,"ax",%progbits
ARM GAS  C:\Users\moham\AppData\Local\Temp\ccnv69Rb.s 			page 8


 136              		.align	1
 137              		.weak	vApplicationIdleHook
 138              		.syntax unified
 139              		.thumb
 140              		.thumb_func
 142              	vApplicationIdleHook:
 143              	.LFB247:
  93:Core/Src/freertos.c ****    /* vApplicationIdleHook() will only be called if configUSE_IDLE_HOOK is set
 144              		.loc 1 93 1 view -0
 145              		.cfi_startproc
 146              		@ args = 0, pretend = 0, frame = 0
 147              		@ frame_needed = 0, uses_anonymous_args = 0
 148              		@ link register save eliminated.
 103:Core/Src/freertos.c **** /* USER CODE END 2 */
 149              		.loc 1 103 1 view .LVU20
 150 0000 7047     		bx	lr
 151              		.cfi_endproc
 152              	.LFE247:
 154              		.section	.text.vApplicationStackOverflowHook,"ax",%progbits
 155              		.align	1
 156              		.global	vApplicationStackOverflowHook
 157              		.syntax unified
 158              		.thumb
 159              		.thumb_func
 161              	vApplicationStackOverflowHook:
 162              	.LFB248:
 108:Core/Src/freertos.c ****    /* Run time stack overflow checking is performed if
 163              		.loc 1 108 1 view -0
 164              		.cfi_startproc
 165              		@ Volatile: function does not return.
 166              		@ args = 0, pretend = 0, frame = 8
 167              		@ frame_needed = 0, uses_anonymous_args = 0
 168              	.LVL11:
 108:Core/Src/freertos.c ****    /* Run time stack overflow checking is performed if
 169              		.loc 1 108 1 is_stmt 0 view .LVU22
 170 0000 00B5     		push	{lr}
 171              	.LCFI3:
 172              		.cfi_def_cfa_offset 4
 173              		.cfi_offset 14, -4
 174 0002 83B0     		sub	sp, sp, #12
 175              	.LCFI4:
 176              		.cfi_def_cfa_offset 16
 177              	.LVL12:
 178              	.L13:
 115:Core/Src/freertos.c ****    (void)pcTaskName;   // Unused parameter
 179              		.loc 1 115 4 is_stmt 1 view .LVU23
 116:Core/Src/freertos.c **** 
 180              		.loc 1 116 4 view .LVU24
 118:Core/Src/freertos.c ****       HAL_GPIO_TogglePin(GPIOG, GPIO_PIN_14);  // Red LED
 181              		.loc 1 118 4 view .LVU25
 119:Core/Src/freertos.c ****       for(volatile uint32_t i = 0; i < 500000; i++);  // Delay
 182              		.loc 1 119 7 view .LVU26
 183 0004 4FF48041 		mov	r1, #16384
 184 0008 0648     		ldr	r0, .L15
 185 000a FFF7FEFF 		bl	HAL_GPIO_TogglePin
 186              	.LVL13:
 120:Core/Src/freertos.c ****    }
ARM GAS  C:\Users\moham\AppData\Local\Temp\ccnv69Rb.s 			page 9


 187              		.loc 1 120 7 view .LVU27
 188              	.LBB2:
 120:Core/Src/freertos.c ****    }
 189              		.loc 1 120 11 view .LVU28
 120:Core/Src/freertos.c ****    }
 190              		.loc 1 120 29 is_stmt 0 view .LVU29
 191 000e 0023     		movs	r3, #0
 192 0010 0193     		str	r3, [sp, #4]
 193              	.L11:
 120:Core/Src/freertos.c ****    }
 194              		.loc 1 120 38 is_stmt 1 discriminator 1 view .LVU30
 195 0012 019A     		ldr	r2, [sp, #4]
 196 0014 044B     		ldr	r3, .L15+4
 197 0016 9A42     		cmp	r2, r3
 198 0018 F4D8     		bhi	.L13
 120:Core/Src/freertos.c ****    }
 199              		.loc 1 120 49 discriminator 3 view .LVU31
 200 001a 019B     		ldr	r3, [sp, #4]
 201 001c 0133     		adds	r3, r3, #1
 202 001e 0193     		str	r3, [sp, #4]
 203 0020 F7E7     		b	.L11
 204              	.L16:
 205 0022 00BF     		.align	2
 206              	.L15:
 207 0024 00180240 		.word	1073879040
 208 0028 1FA10700 		.word	499999
 209              	.LBE2:
 210              		.cfi_endproc
 211              	.LFE248:
 213              		.section	.text.vApplicationMallocFailedHook,"ax",%progbits
 214              		.align	1
 215              		.weak	vApplicationMallocFailedHook
 216              		.syntax unified
 217              		.thumb
 218              		.thumb_func
 220              	vApplicationMallocFailedHook:
 221              	.LFB249:
 128:Core/Src/freertos.c ****    /* vApplicationMallocFailedHook() will only be called if
 222              		.loc 1 128 1 view -0
 223              		.cfi_startproc
 224              		@ args = 0, pretend = 0, frame = 0
 225              		@ frame_needed = 0, uses_anonymous_args = 0
 226              		@ link register save eliminated.
 139:Core/Src/freertos.c **** /* USER CODE END 5 */
 227              		.loc 1 139 1 view .LVU33
 228 0000 7047     		bx	lr
 229              		.cfi_endproc
 230              	.LFE249:
 232              		.section	.text.vApplicationGetIdleTaskMemory,"ax",%progbits
 233              		.align	1
 234              		.global	vApplicationGetIdleTaskMemory
 235              		.syntax unified
 236              		.thumb
 237              		.thumb_func
 239              	vApplicationGetIdleTaskMemory:
 240              	.LVL14:
 241              	.LFB250:
ARM GAS  C:\Users\moham\AppData\Local\Temp\ccnv69Rb.s 			page 10


 147:Core/Src/freertos.c ****   *ppxIdleTaskTCBBuffer = &xIdleTaskTCBBuffer;
 242              		.loc 1 147 1 view -0
 243              		.cfi_startproc
 244              		@ args = 0, pretend = 0, frame = 0
 245              		@ frame_needed = 0, uses_anonymous_args = 0
 246              		@ link register save eliminated.
 148:Core/Src/freertos.c ****   *ppxIdleTaskStackBuffer = &xIdleStack[0];
 247              		.loc 1 148 3 view .LVU35
 148:Core/Src/freertos.c ****   *ppxIdleTaskStackBuffer = &xIdleStack[0];
 248              		.loc 1 148 25 is_stmt 0 view .LVU36
 249 0000 034B     		ldr	r3, .L19
 250 0002 0360     		str	r3, [r0]
 149:Core/Src/freertos.c ****   *pulIdleTaskStackSize = configMINIMAL_STACK_SIZE;
 251              		.loc 1 149 3 is_stmt 1 view .LVU37
 149:Core/Src/freertos.c ****   *pulIdleTaskStackSize = configMINIMAL_STACK_SIZE;
 252              		.loc 1 149 27 is_stmt 0 view .LVU38
 253 0004 034B     		ldr	r3, .L19+4
 254 0006 0B60     		str	r3, [r1]
 150:Core/Src/freertos.c ****   /* place for user code */
 255              		.loc 1 150 3 is_stmt 1 view .LVU39
 150:Core/Src/freertos.c ****   /* place for user code */
 256              		.loc 1 150 25 is_stmt 0 view .LVU40
 257 0008 8023     		movs	r3, #128
 258 000a 1360     		str	r3, [r2]
 152:Core/Src/freertos.c **** /* USER CODE END GET_IDLE_TASK_MEMORY */
 259              		.loc 1 152 1 view .LVU41
 260 000c 7047     		bx	lr
 261              	.L20:
 262 000e 00BF     		.align	2
 263              	.L19:
 264 0010 00000000 		.word	xIdleTaskTCBBuffer
 265 0014 00000000 		.word	xIdleStack
 266              		.cfi_endproc
 267              	.LFE250:
 269              		.section	.rodata.MX_FREERTOS_Init.str1.4,"aMS",%progbits,1
 270              		.align	2
 271              	.LC7:
 272 0000 E29C9320 		.ascii	"\342\234\223 LCD TASK\000"
 272      4C434420 
 272      5441534B 
 272      00
 273              		.section	.text.MX_FREERTOS_Init,"ax",%progbits
 274              		.align	1
 275              		.global	MX_FREERTOS_Init
 276              		.syntax unified
 277              		.thumb
 278              		.thumb_func
 280              	MX_FREERTOS_Init:
 281              	.LFB251:
 160:Core/Src/freertos.c ****   /* USER CODE BEGIN Init */
 282              		.loc 1 160 29 is_stmt 1 view -0
 283              		.cfi_startproc
 284              		@ args = 0, pretend = 0, frame = 56
 285              		@ frame_needed = 0, uses_anonymous_args = 0
 286 0000 10B5     		push	{r4, lr}
 287              	.LCFI5:
 288              		.cfi_def_cfa_offset 8
ARM GAS  C:\Users\moham\AppData\Local\Temp\ccnv69Rb.s 			page 11


 289              		.cfi_offset 4, -8
 290              		.cfi_offset 14, -4
 291 0002 8EB0     		sub	sp, sp, #56
 292              	.LCFI6:
 293              		.cfi_def_cfa_offset 64
 171:Core/Src/freertos.c ****   /* USER CODE END RTOS_SEMAPHORES */
 294              		.loc 1 171 5 view .LVU43
 171:Core/Src/freertos.c ****   /* USER CODE END RTOS_SEMAPHORES */
 295              		.loc 1 171 23 is_stmt 0 view .LVU44
 296 0004 0322     		movs	r2, #3
 297 0006 0021     		movs	r1, #0
 298 0008 0120     		movs	r0, #1
 299 000a FFF7FEFF 		bl	xQueueGenericCreate
 300              	.LVL15:
 171:Core/Src/freertos.c ****   /* USER CODE END RTOS_SEMAPHORES */
 301              		.loc 1 171 21 discriminator 1 view .LVU45
 302 000e 144B     		ldr	r3, .L23
 303 0010 1860     		str	r0, [r3]
 185:Core/Src/freertos.c ****   defaultTaskHandle = osThreadCreate(osThread(defaultTask), NULL);
 304              		.loc 1 185 3 is_stmt 1 view .LVU46
 305 0012 144C     		ldr	r4, .L23+4
 306 0014 0DF11C0C 		add	ip, sp, #28
 307 0018 A646     		mov	lr, r4
 308 001a BEE80F00 		ldmia	lr!, {r0, r1, r2, r3}
 309 001e ACE80F00 		stmia	ip!, {r0, r1, r2, r3}
 310 0022 9EE80700 		ldm	lr, {r0, r1, r2}
 311 0026 8CE80700 		stm	ip, {r0, r1, r2}
 186:Core/Src/freertos.c **** 
 312              		.loc 1 186 3 view .LVU47
 186:Core/Src/freertos.c **** 
 313              		.loc 1 186 23 is_stmt 0 view .LVU48
 314 002a 0021     		movs	r1, #0
 315 002c 07A8     		add	r0, sp, #28
 316 002e FFF7FEFF 		bl	osThreadCreate
 317              	.LVL16:
 186:Core/Src/freertos.c **** 
 318              		.loc 1 186 21 discriminator 1 view .LVU49
 319 0032 0D4B     		ldr	r3, .L23+8
 320 0034 1860     		str	r0, [r3]
 189:Core/Src/freertos.c ****   osThreadCreate(osThread(draw), NULL);
 321              		.loc 1 189 3 is_stmt 1 view .LVU50
 322 0036 EE46     		mov	lr, sp
 323 0038 04F11C0C 		add	ip, r4, #28
 324 003c BCE80F00 		ldmia	ip!, {r0, r1, r2, r3}
 325 0040 AEE80F00 		stmia	lr!, {r0, r1, r2, r3}
 326 0044 9CE80700 		ldm	ip, {r0, r1, r2}
 327 0048 8EE80700 		stm	lr, {r0, r1, r2}
 190:Core/Src/freertos.c ****   printf("✓ LCD TASK\n");
 328              		.loc 1 190 3 view .LVU51
 329 004c 0021     		movs	r1, #0
 330 004e 6846     		mov	r0, sp
 331 0050 FFF7FEFF 		bl	osThreadCreate
 332              	.LVL17:
 191:Core/Src/freertos.c **** 
 333              		.loc 1 191 3 view .LVU52
 334 0054 0548     		ldr	r0, .L23+12
 335 0056 FFF7FEFF 		bl	puts
ARM GAS  C:\Users\moham\AppData\Local\Temp\ccnv69Rb.s 			page 12


 336              	.LVL18:
 200:Core/Src/freertos.c **** 
 337              		.loc 1 200 1 is_stmt 0 view .LVU53
 338 005a 0EB0     		add	sp, sp, #56
 339              	.LCFI7:
 340              		.cfi_def_cfa_offset 8
 341              		@ sp needed
 342 005c 10BD     		pop	{r4, pc}
 343              	.L24:
 344 005e 00BF     		.align	2
 345              	.L23:
 346 0060 00000000 		.word	ButtonSemaphore
 347 0064 00000000 		.word	.LANCHOR0
 348 0068 00000000 		.word	defaultTaskHandle
 349 006c 00000000 		.word	.LC7
 350              		.cfi_endproc
 351              	.LFE251:
 353              		.section	.rodata.EventTask.str1.4,"aMS",%progbits,1
 354              		.align	2
 355              	.LC8:
 356 0000 5B256C75 		.ascii	"[%lu] Button event! Count: %lu\015\012\000"
 356      5D204275 
 356      74746F6E 
 356      20657665 
 356      6E742120 
 357              		.section	.text.EventTask,"ax",%progbits
 358              		.align	1
 359              		.global	EventTask
 360              		.syntax unified
 361              		.thumb
 362              		.thumb_func
 364              	EventTask:
 365              	.LVL19:
 366              	.LFB253:
 227:Core/Src/freertos.c ****       uint32_t count = 0;
 367              		.loc 1 227 3 is_stmt 1 view -0
 368              		.cfi_startproc
 369              		@ args = 0, pretend = 0, frame = 0
 370              		@ frame_needed = 0, uses_anonymous_args = 0
 227:Core/Src/freertos.c ****       uint32_t count = 0;
 371              		.loc 1 227 3 is_stmt 0 view .LVU55
 372 0000 10B5     		push	{r4, lr}
 373              	.LCFI8:
 374              		.cfi_def_cfa_offset 8
 375              		.cfi_offset 4, -8
 376              		.cfi_offset 14, -4
 228:Core/Src/freertos.c **** 
 377              		.loc 1 228 7 is_stmt 1 view .LVU56
 378              	.LVL20:
 228:Core/Src/freertos.c **** 
 379              		.loc 1 228 16 is_stmt 0 view .LVU57
 380 0002 0024     		movs	r4, #0
 381              	.LVL21:
 382              	.L26:
 230:Core/Src/freertos.c ****       {
 383              		.loc 1 230 7 is_stmt 1 view .LVU58
 233:Core/Src/freertos.c **** 
ARM GAS  C:\Users\moham\AppData\Local\Temp\ccnv69Rb.s 			page 13


 384              		.loc 1 233 11 view .LVU59
 385 0004 4FF0FF31 		mov	r1, #-1
 386 0008 0A4B     		ldr	r3, .L28
 387 000a 1868     		ldr	r0, [r3]
 388 000c FFF7FEFF 		bl	xQueueSemaphoreTake
 389              	.LVL22:
 236:Core/Src/freertos.c ****           printf("[%lu] Button event! Count: %lu\r\n", HAL_GetTick(), count);
 390              		.loc 1 236 11 view .LVU60
 236:Core/Src/freertos.c ****           printf("[%lu] Button event! Count: %lu\r\n", HAL_GetTick(), count);
 391              		.loc 1 236 16 is_stmt 0 view .LVU61
 392 0010 0134     		adds	r4, r4, #1
 393              	.LVL23:
 237:Core/Src/freertos.c **** 
 394              		.loc 1 237 11 is_stmt 1 view .LVU62
 395 0012 FFF7FEFF 		bl	HAL_GetTick
 396              	.LVL24:
 397 0016 0146     		mov	r1, r0
 237:Core/Src/freertos.c **** 
 398              		.loc 1 237 11 is_stmt 0 discriminator 1 view .LVU63
 399 0018 2246     		mov	r2, r4
 400 001a 0748     		ldr	r0, .L28+4
 401 001c FFF7FEFF 		bl	printf
 402              	.LVL25:
 240:Core/Src/freertos.c **** 
 403              		.loc 1 240 11 is_stmt 1 view .LVU64
 404 0020 6420     		movs	r0, #100
 405 0022 FFF7FEFF 		bl	vTaskDelay
 406              	.LVL26:
 242:Core/Src/freertos.c ****           
 407              		.loc 1 242 11 discriminator 1 view .LVU65
 408 0026 4FF48041 		mov	r1, #16384
 409 002a 0448     		ldr	r0, .L28+8
 410 002c FFF7FEFF 		bl	HAL_GPIO_TogglePin
 411              	.LVL27:
 230:Core/Src/freertos.c ****       {
 412              		.loc 1 230 7 view .LVU66
 413 0030 E8E7     		b	.L26
 414              	.L29:
 415 0032 00BF     		.align	2
 416              	.L28:
 417 0034 00000000 		.word	ButtonSemaphore
 418 0038 00000000 		.word	.LC8
 419 003c 00180240 		.word	1073879040
 420              		.cfi_endproc
 421              	.LFE253:
 423              		.section	.rodata.str1.4,"aMS",%progbits,1
 424              		.align	2
 425              	.LC2:
 426 0000 64726177 		.ascii	"draw\000"
 426      00
 427 0005 000000   		.align	2
 428              	.LC0:
 429 0008 64656661 		.ascii	"defaultTask\000"
 429      756C7454 
 429      61736B00 
 430              		.section	.bss.xIdleStack,"aw",%nobits
 431              		.align	2
ARM GAS  C:\Users\moham\AppData\Local\Temp\ccnv69Rb.s 			page 14


 434              	xIdleStack:
 435 0000 00000000 		.space	512
 435      00000000 
 435      00000000 
 435      00000000 
 435      00000000 
 436              		.section	.bss.xIdleTaskTCBBuffer,"aw",%nobits
 437              		.align	2
 440              	xIdleTaskTCBBuffer:
 441 0000 00000000 		.space	88
 441      00000000 
 441      00000000 
 441      00000000 
 441      00000000 
 442              		.global	defaultTaskHandle
 443              		.section	.bss.defaultTaskHandle,"aw",%nobits
 444              		.align	2
 447              	defaultTaskHandle:
 448 0000 00000000 		.space	4
 449              		.global	EventTaskHandle
 450              		.section	.bss.EventTaskHandle,"aw",%nobits
 451              		.align	2
 454              	EventTaskHandle:
 455 0000 00000000 		.space	4
 456              		.global	ButtonSemaphore
 457              		.section	.bss.ButtonSemaphore,"aw",%nobits
 458              		.align	2
 461              	ButtonSemaphore:
 462 0000 00000000 		.space	4
 463              		.section	.rodata
 464              		.align	2
 465              		.set	.LANCHOR0,. + 0
 466              	.LC5:
 467 0000 08000000 		.word	.LC0
 468 0004 00000000 		.word	StartDefaultTask
 469 0008 0000     		.short	0
 470 000a 0000     		.space	2
 471 000c 00000000 		.word	0
 472 0010 00100000 		.word	4096
 473 0014 00000000 		.word	0
 474 0018 00000000 		.word	0
 475              	.LC6:
 476 001c 00000000 		.word	.LC2
 477 0020 00000000 		.word	LcdTask
 478 0024 0000     		.short	0
 479 0026 0000     		.space	2
 480 0028 00000000 		.word	0
 481 002c 00010000 		.word	256
 482 0030 00000000 		.word	0
 483 0034 00000000 		.word	0
 484              		.text
 485              	.Letext0:
 486              		.file 2 "C:/Program Files (x86)/Arm GNU Toolchain arm-none-eabi/14.3 rel1/arm-none-eabi/include/ma
 487              		.file 3 "C:/Program Files (x86)/Arm GNU Toolchain arm-none-eabi/14.3 rel1/arm-none-eabi/include/sy
 488              		.file 4 "Middlewares/Third_Party/FreeRTOS/Source/portable/GCC/ARM_CM4F/portmacro.h"
 489              		.file 5 "Middlewares/Third_Party/FreeRTOS/Source/include/FreeRTOS.h"
 490              		.file 6 "Middlewares/Third_Party/FreeRTOS/Source/include/task.h"
ARM GAS  C:\Users\moham\AppData\Local\Temp\ccnv69Rb.s 			page 15


 491              		.file 7 "Drivers/CMSIS/Device/ST/STM32F4xx/Include/stm32f429xx.h"
 492              		.file 8 "Middlewares/Third_Party/FreeRTOS/Source/include/queue.h"
 493              		.file 9 "Middlewares/Third_Party/FreeRTOS/Source/include/semphr.h"
 494              		.file 10 "Middlewares/Third_Party/FreeRTOS/Source/CMSIS_RTOS/cmsis_os.h"
 495              		.file 11 "Core/Inc/ili9341.h"
 496              		.file 12 "C:/Program Files (x86)/Arm GNU Toolchain arm-none-eabi/14.3 rel1/arm-none-eabi/include/s
 497              		.file 13 "Drivers/STM32F4xx_HAL_Driver/Inc/stm32f4xx_hal_gpio.h"
 498              		.file 14 "Drivers/STM32F4xx_HAL_Driver/Inc/stm32f4xx_hal.h"
 499              		.file 15 "<built-in>"
ARM GAS  C:\Users\moham\AppData\Local\Temp\ccnv69Rb.s 			page 16

