ARM GAS  /var/folders/qx/2_175_4n2s19vhvtspjhb3qh0000gn/T//ccxF66nk.s 			page 1


   1              		.cpu cortex-m4
   2              		.arch armv7e-m
   3              		.fpu fpv4-sp-d16
   4              		.eabi_attribute 27, 1
   5              		.eabi_attribute 28, 1
   6              		.eabi_attribute 20, 1
   7              		.eabi_attribute 21, 1
   8              		.eabi_attribute 23, 3
   9              		.eabi_attribute 24, 1
  10              		.eabi_attribute 25, 1
  11              		.eabi_attribute 26, 1
  12              		.eabi_attribute 30, 1
  13              		.eabi_attribute 34, 1
  14              		.eabi_attribute 18, 4
  15              		.file	"lv_draw_buf.c"
  16              		.text
  17              	.Ltext0:
  18              		.cfi_sections	.debug_frame
  19              		.file 1 "Drivers/lvgl/src/draw/lv_draw_buf.c"
  20              		.section	.text.buf_align,"ax",%progbits
  21              		.align	1
  22              		.syntax unified
  23              		.thumb
  24              		.thumb_func
  26              	buf_align:
  27              	.LVL0:
  28              	.LFB225:
   1:Drivers/lvgl/src/draw/lv_draw_buf.c **** /**
   2:Drivers/lvgl/src/draw/lv_draw_buf.c ****  * @file lv_draw_buf.c
   3:Drivers/lvgl/src/draw/lv_draw_buf.c ****  *
   4:Drivers/lvgl/src/draw/lv_draw_buf.c ****  */
   5:Drivers/lvgl/src/draw/lv_draw_buf.c **** 
   6:Drivers/lvgl/src/draw/lv_draw_buf.c **** /*********************
   7:Drivers/lvgl/src/draw/lv_draw_buf.c ****  *      INCLUDES
   8:Drivers/lvgl/src/draw/lv_draw_buf.c ****  *********************/
   9:Drivers/lvgl/src/draw/lv_draw_buf.c **** #include "lv_draw_buf_private.h"
  10:Drivers/lvgl/src/draw/lv_draw_buf.c **** #include "../misc/lv_types.h"
  11:Drivers/lvgl/src/draw/lv_draw_buf.c **** #include "../stdlib/lv_string.h"
  12:Drivers/lvgl/src/draw/lv_draw_buf.c **** #include "../core/lv_global.h"
  13:Drivers/lvgl/src/draw/lv_draw_buf.c **** #include "../misc/lv_math.h"
  14:Drivers/lvgl/src/draw/lv_draw_buf.c **** #include "../misc/lv_area_private.h"
  15:Drivers/lvgl/src/draw/lv_draw_buf.c **** #include "convert/lv_draw_buf_convert.h"
  16:Drivers/lvgl/src/draw/lv_draw_buf.c **** 
  17:Drivers/lvgl/src/draw/lv_draw_buf.c **** /*********************
  18:Drivers/lvgl/src/draw/lv_draw_buf.c ****  *      DEFINES
  19:Drivers/lvgl/src/draw/lv_draw_buf.c ****  *********************/
  20:Drivers/lvgl/src/draw/lv_draw_buf.c **** #define default_handlers LV_GLOBAL_DEFAULT()->draw_buf_handlers
  21:Drivers/lvgl/src/draw/lv_draw_buf.c **** #define font_draw_buf_handlers LV_GLOBAL_DEFAULT()->font_draw_buf_handlers
  22:Drivers/lvgl/src/draw/lv_draw_buf.c **** #define image_cache_draw_buf_handlers LV_GLOBAL_DEFAULT()->image_cache_draw_buf_handlers
  23:Drivers/lvgl/src/draw/lv_draw_buf.c **** 
  24:Drivers/lvgl/src/draw/lv_draw_buf.c **** /**********************
  25:Drivers/lvgl/src/draw/lv_draw_buf.c ****  *      TYPEDEFS
  26:Drivers/lvgl/src/draw/lv_draw_buf.c ****  **********************/
  27:Drivers/lvgl/src/draw/lv_draw_buf.c **** 
  28:Drivers/lvgl/src/draw/lv_draw_buf.c **** /**********************
  29:Drivers/lvgl/src/draw/lv_draw_buf.c ****  *  STATIC PROTOTYPES
  30:Drivers/lvgl/src/draw/lv_draw_buf.c ****  **********************/
ARM GAS  /var/folders/qx/2_175_4n2s19vhvtspjhb3qh0000gn/T//ccxF66nk.s 			page 2


  31:Drivers/lvgl/src/draw/lv_draw_buf.c **** static void * buf_malloc(size_t size, lv_color_format_t color_format);
  32:Drivers/lvgl/src/draw/lv_draw_buf.c **** static void buf_free(void * buf);
  33:Drivers/lvgl/src/draw/lv_draw_buf.c **** static void buf_copy(lv_draw_buf_t * dest, const lv_area_t * dest_area,
  34:Drivers/lvgl/src/draw/lv_draw_buf.c ****                      const lv_draw_buf_t * src, const lv_area_t * src_area);
  35:Drivers/lvgl/src/draw/lv_draw_buf.c **** static void * buf_align(void * buf, lv_color_format_t color_format);
  36:Drivers/lvgl/src/draw/lv_draw_buf.c **** static void * draw_buf_malloc(const lv_draw_buf_handlers_t * handler, size_t size_bytes,
  37:Drivers/lvgl/src/draw/lv_draw_buf.c ****                               lv_color_format_t color_format);
  38:Drivers/lvgl/src/draw/lv_draw_buf.c **** static void draw_buf_free(const lv_draw_buf_handlers_t * handler, void * buf);
  39:Drivers/lvgl/src/draw/lv_draw_buf.c **** static uint32_t width_to_stride(uint32_t w, lv_color_format_t color_format);
  40:Drivers/lvgl/src/draw/lv_draw_buf.c **** static uint32_t _calculate_draw_buf_size(uint32_t w, uint32_t h, lv_color_format_t cf, uint32_t str
  41:Drivers/lvgl/src/draw/lv_draw_buf.c **** static void draw_buf_get_full_area(const lv_draw_buf_t * draw_buf, lv_area_t * full_area);
  42:Drivers/lvgl/src/draw/lv_draw_buf.c **** 
  43:Drivers/lvgl/src/draw/lv_draw_buf.c **** /**********************
  44:Drivers/lvgl/src/draw/lv_draw_buf.c ****  *  STATIC VARIABLES
  45:Drivers/lvgl/src/draw/lv_draw_buf.c ****  **********************/
  46:Drivers/lvgl/src/draw/lv_draw_buf.c **** 
  47:Drivers/lvgl/src/draw/lv_draw_buf.c **** /**********************
  48:Drivers/lvgl/src/draw/lv_draw_buf.c ****  *      MACROS
  49:Drivers/lvgl/src/draw/lv_draw_buf.c ****  **********************/
  50:Drivers/lvgl/src/draw/lv_draw_buf.c **** 
  51:Drivers/lvgl/src/draw/lv_draw_buf.c **** /**********************
  52:Drivers/lvgl/src/draw/lv_draw_buf.c ****  *   GLOBAL FUNCTIONS
  53:Drivers/lvgl/src/draw/lv_draw_buf.c ****  **********************/
  54:Drivers/lvgl/src/draw/lv_draw_buf.c **** 
  55:Drivers/lvgl/src/draw/lv_draw_buf.c **** void lv_draw_buf_init_handlers(void)
  56:Drivers/lvgl/src/draw/lv_draw_buf.c **** {
  57:Drivers/lvgl/src/draw/lv_draw_buf.c ****     lv_draw_buf_init_with_default_handlers(&default_handlers);
  58:Drivers/lvgl/src/draw/lv_draw_buf.c ****     lv_draw_buf_init_with_default_handlers(&font_draw_buf_handlers);
  59:Drivers/lvgl/src/draw/lv_draw_buf.c ****     lv_draw_buf_init_with_default_handlers(&image_cache_draw_buf_handlers);
  60:Drivers/lvgl/src/draw/lv_draw_buf.c **** }
  61:Drivers/lvgl/src/draw/lv_draw_buf.c **** 
  62:Drivers/lvgl/src/draw/lv_draw_buf.c **** void lv_draw_buf_init_with_default_handlers(lv_draw_buf_handlers_t * handlers)
  63:Drivers/lvgl/src/draw/lv_draw_buf.c **** {
  64:Drivers/lvgl/src/draw/lv_draw_buf.c ****     lv_draw_buf_handlers_init(handlers, buf_malloc, buf_free, buf_copy, buf_align, NULL, NULL, widt
  65:Drivers/lvgl/src/draw/lv_draw_buf.c **** }
  66:Drivers/lvgl/src/draw/lv_draw_buf.c **** 
  67:Drivers/lvgl/src/draw/lv_draw_buf.c **** void lv_draw_buf_handlers_init(lv_draw_buf_handlers_t * handlers,
  68:Drivers/lvgl/src/draw/lv_draw_buf.c ****                                lv_draw_buf_malloc_cb_t buf_malloc_cb,
  69:Drivers/lvgl/src/draw/lv_draw_buf.c ****                                lv_draw_buf_free_cb_t buf_free_cb,
  70:Drivers/lvgl/src/draw/lv_draw_buf.c ****                                lv_draw_buf_copy_cb_t buf_copy_cb,
  71:Drivers/lvgl/src/draw/lv_draw_buf.c ****                                lv_draw_buf_align_cb_t align_pointer_cb,
  72:Drivers/lvgl/src/draw/lv_draw_buf.c ****                                lv_draw_buf_cache_operation_cb_t invalidate_cache_cb,
  73:Drivers/lvgl/src/draw/lv_draw_buf.c ****                                lv_draw_buf_cache_operation_cb_t flush_cache_cb,
  74:Drivers/lvgl/src/draw/lv_draw_buf.c ****                                lv_draw_buf_width_to_stride_cb_t width_to_stride_cb)
  75:Drivers/lvgl/src/draw/lv_draw_buf.c **** {
  76:Drivers/lvgl/src/draw/lv_draw_buf.c ****     lv_memzero(handlers, sizeof(lv_draw_buf_handlers_t));
  77:Drivers/lvgl/src/draw/lv_draw_buf.c ****     handlers->buf_malloc_cb = buf_malloc_cb;
  78:Drivers/lvgl/src/draw/lv_draw_buf.c ****     handlers->buf_free_cb = buf_free_cb;
  79:Drivers/lvgl/src/draw/lv_draw_buf.c ****     handlers->buf_copy_cb = buf_copy_cb;
  80:Drivers/lvgl/src/draw/lv_draw_buf.c ****     handlers->align_pointer_cb = align_pointer_cb;
  81:Drivers/lvgl/src/draw/lv_draw_buf.c ****     handlers->invalidate_cache_cb = invalidate_cache_cb;
  82:Drivers/lvgl/src/draw/lv_draw_buf.c ****     handlers->flush_cache_cb = flush_cache_cb;
  83:Drivers/lvgl/src/draw/lv_draw_buf.c ****     handlers->width_to_stride_cb = width_to_stride_cb;
  84:Drivers/lvgl/src/draw/lv_draw_buf.c **** }
  85:Drivers/lvgl/src/draw/lv_draw_buf.c **** 
  86:Drivers/lvgl/src/draw/lv_draw_buf.c **** lv_draw_buf_handlers_t * lv_draw_buf_get_handlers(void)
  87:Drivers/lvgl/src/draw/lv_draw_buf.c **** {
ARM GAS  /var/folders/qx/2_175_4n2s19vhvtspjhb3qh0000gn/T//ccxF66nk.s 			page 3


  88:Drivers/lvgl/src/draw/lv_draw_buf.c ****     return &default_handlers;
  89:Drivers/lvgl/src/draw/lv_draw_buf.c **** }
  90:Drivers/lvgl/src/draw/lv_draw_buf.c **** 
  91:Drivers/lvgl/src/draw/lv_draw_buf.c **** lv_draw_buf_handlers_t * lv_draw_buf_get_font_handlers(void)
  92:Drivers/lvgl/src/draw/lv_draw_buf.c **** {
  93:Drivers/lvgl/src/draw/lv_draw_buf.c ****     return &font_draw_buf_handlers;
  94:Drivers/lvgl/src/draw/lv_draw_buf.c **** }
  95:Drivers/lvgl/src/draw/lv_draw_buf.c **** 
  96:Drivers/lvgl/src/draw/lv_draw_buf.c **** lv_draw_buf_handlers_t * lv_draw_buf_get_image_handlers(void)
  97:Drivers/lvgl/src/draw/lv_draw_buf.c **** {
  98:Drivers/lvgl/src/draw/lv_draw_buf.c ****     return &image_cache_draw_buf_handlers;
  99:Drivers/lvgl/src/draw/lv_draw_buf.c **** }
 100:Drivers/lvgl/src/draw/lv_draw_buf.c **** 
 101:Drivers/lvgl/src/draw/lv_draw_buf.c **** uint32_t lv_draw_buf_width_to_stride(uint32_t w, lv_color_format_t color_format)
 102:Drivers/lvgl/src/draw/lv_draw_buf.c **** {
 103:Drivers/lvgl/src/draw/lv_draw_buf.c ****     return lv_draw_buf_width_to_stride_ex(&default_handlers, w, color_format);
 104:Drivers/lvgl/src/draw/lv_draw_buf.c **** }
 105:Drivers/lvgl/src/draw/lv_draw_buf.c **** 
 106:Drivers/lvgl/src/draw/lv_draw_buf.c **** uint32_t lv_draw_buf_width_to_stride_ex(const lv_draw_buf_handlers_t * handlers, uint32_t w,
 107:Drivers/lvgl/src/draw/lv_draw_buf.c ****                                         lv_color_format_t color_format)
 108:Drivers/lvgl/src/draw/lv_draw_buf.c **** {
 109:Drivers/lvgl/src/draw/lv_draw_buf.c ****     if(handlers->width_to_stride_cb) return handlers->width_to_stride_cb(w, color_format);
 110:Drivers/lvgl/src/draw/lv_draw_buf.c ****     else return 0;
 111:Drivers/lvgl/src/draw/lv_draw_buf.c **** }
 112:Drivers/lvgl/src/draw/lv_draw_buf.c **** 
 113:Drivers/lvgl/src/draw/lv_draw_buf.c **** void * lv_draw_buf_align(void * data, lv_color_format_t color_format)
 114:Drivers/lvgl/src/draw/lv_draw_buf.c **** {
 115:Drivers/lvgl/src/draw/lv_draw_buf.c ****     return lv_draw_buf_align_ex(&default_handlers, data, color_format);
 116:Drivers/lvgl/src/draw/lv_draw_buf.c **** }
 117:Drivers/lvgl/src/draw/lv_draw_buf.c **** 
 118:Drivers/lvgl/src/draw/lv_draw_buf.c **** void * lv_draw_buf_align_ex(const lv_draw_buf_handlers_t * handlers, void * data, lv_color_format_t
 119:Drivers/lvgl/src/draw/lv_draw_buf.c **** {
 120:Drivers/lvgl/src/draw/lv_draw_buf.c ****     if(handlers->align_pointer_cb) return handlers->align_pointer_cb(data, color_format);
 121:Drivers/lvgl/src/draw/lv_draw_buf.c ****     else return NULL;
 122:Drivers/lvgl/src/draw/lv_draw_buf.c **** }
 123:Drivers/lvgl/src/draw/lv_draw_buf.c **** 
 124:Drivers/lvgl/src/draw/lv_draw_buf.c **** void lv_draw_buf_invalidate_cache(const lv_draw_buf_t * draw_buf, const lv_area_t * area)
 125:Drivers/lvgl/src/draw/lv_draw_buf.c **** {
 126:Drivers/lvgl/src/draw/lv_draw_buf.c ****     LV_ASSERT_NULL(draw_buf);
 127:Drivers/lvgl/src/draw/lv_draw_buf.c ****     LV_ASSERT_NULL(draw_buf->handlers);
 128:Drivers/lvgl/src/draw/lv_draw_buf.c **** 
 129:Drivers/lvgl/src/draw/lv_draw_buf.c ****     const lv_draw_buf_handlers_t * handlers = draw_buf->handlers;
 130:Drivers/lvgl/src/draw/lv_draw_buf.c ****     if(!handlers->invalidate_cache_cb) {
 131:Drivers/lvgl/src/draw/lv_draw_buf.c ****         return;
 132:Drivers/lvgl/src/draw/lv_draw_buf.c ****     }
 133:Drivers/lvgl/src/draw/lv_draw_buf.c **** 
 134:Drivers/lvgl/src/draw/lv_draw_buf.c ****     LV_PROFILER_DRAW_BEGIN;
 135:Drivers/lvgl/src/draw/lv_draw_buf.c **** 
 136:Drivers/lvgl/src/draw/lv_draw_buf.c ****     lv_area_t full;
 137:Drivers/lvgl/src/draw/lv_draw_buf.c ****     if(area == NULL) {
 138:Drivers/lvgl/src/draw/lv_draw_buf.c ****         draw_buf_get_full_area(draw_buf, &full);
 139:Drivers/lvgl/src/draw/lv_draw_buf.c ****         area = &full;
 140:Drivers/lvgl/src/draw/lv_draw_buf.c ****     }
 141:Drivers/lvgl/src/draw/lv_draw_buf.c **** 
 142:Drivers/lvgl/src/draw/lv_draw_buf.c ****     handlers->invalidate_cache_cb(draw_buf, area);
 143:Drivers/lvgl/src/draw/lv_draw_buf.c ****     LV_PROFILER_DRAW_END;
 144:Drivers/lvgl/src/draw/lv_draw_buf.c **** }
ARM GAS  /var/folders/qx/2_175_4n2s19vhvtspjhb3qh0000gn/T//ccxF66nk.s 			page 4


 145:Drivers/lvgl/src/draw/lv_draw_buf.c **** 
 146:Drivers/lvgl/src/draw/lv_draw_buf.c **** void lv_draw_buf_flush_cache(const lv_draw_buf_t * draw_buf, const lv_area_t * area)
 147:Drivers/lvgl/src/draw/lv_draw_buf.c **** {
 148:Drivers/lvgl/src/draw/lv_draw_buf.c ****     LV_ASSERT_NULL(draw_buf);
 149:Drivers/lvgl/src/draw/lv_draw_buf.c ****     LV_ASSERT_NULL(draw_buf->handlers);
 150:Drivers/lvgl/src/draw/lv_draw_buf.c **** 
 151:Drivers/lvgl/src/draw/lv_draw_buf.c ****     const lv_draw_buf_handlers_t * handlers = draw_buf->handlers;
 152:Drivers/lvgl/src/draw/lv_draw_buf.c ****     if(!handlers->flush_cache_cb) {
 153:Drivers/lvgl/src/draw/lv_draw_buf.c ****         return;
 154:Drivers/lvgl/src/draw/lv_draw_buf.c ****     }
 155:Drivers/lvgl/src/draw/lv_draw_buf.c **** 
 156:Drivers/lvgl/src/draw/lv_draw_buf.c ****     LV_PROFILER_DRAW_BEGIN;
 157:Drivers/lvgl/src/draw/lv_draw_buf.c **** 
 158:Drivers/lvgl/src/draw/lv_draw_buf.c ****     lv_area_t full;
 159:Drivers/lvgl/src/draw/lv_draw_buf.c ****     if(area == NULL) {
 160:Drivers/lvgl/src/draw/lv_draw_buf.c ****         draw_buf_get_full_area(draw_buf, &full);
 161:Drivers/lvgl/src/draw/lv_draw_buf.c ****         area = &full;
 162:Drivers/lvgl/src/draw/lv_draw_buf.c ****     }
 163:Drivers/lvgl/src/draw/lv_draw_buf.c **** 
 164:Drivers/lvgl/src/draw/lv_draw_buf.c ****     handlers->flush_cache_cb(draw_buf, area);
 165:Drivers/lvgl/src/draw/lv_draw_buf.c ****     LV_PROFILER_DRAW_END;
 166:Drivers/lvgl/src/draw/lv_draw_buf.c **** }
 167:Drivers/lvgl/src/draw/lv_draw_buf.c **** 
 168:Drivers/lvgl/src/draw/lv_draw_buf.c **** void lv_draw_buf_clear(lv_draw_buf_t * draw_buf, const lv_area_t * a)
 169:Drivers/lvgl/src/draw/lv_draw_buf.c **** {
 170:Drivers/lvgl/src/draw/lv_draw_buf.c ****     LV_ASSERT_NULL(draw_buf);
 171:Drivers/lvgl/src/draw/lv_draw_buf.c ****     LV_PROFILER_DRAW_BEGIN;
 172:Drivers/lvgl/src/draw/lv_draw_buf.c **** 
 173:Drivers/lvgl/src/draw/lv_draw_buf.c ****     const lv_image_header_t * header = &draw_buf->header;
 174:Drivers/lvgl/src/draw/lv_draw_buf.c ****     uint32_t stride = header->stride;
 175:Drivers/lvgl/src/draw/lv_draw_buf.c **** 
 176:Drivers/lvgl/src/draw/lv_draw_buf.c ****     if(a == NULL) {
 177:Drivers/lvgl/src/draw/lv_draw_buf.c ****         uint8_t * buf = lv_draw_buf_goto_xy(draw_buf, 0, 0);
 178:Drivers/lvgl/src/draw/lv_draw_buf.c ****         lv_memzero(buf, header->h * stride);
 179:Drivers/lvgl/src/draw/lv_draw_buf.c ****         lv_draw_buf_flush_cache(draw_buf, a);
 180:Drivers/lvgl/src/draw/lv_draw_buf.c ****         LV_PROFILER_DRAW_END;
 181:Drivers/lvgl/src/draw/lv_draw_buf.c ****         return;
 182:Drivers/lvgl/src/draw/lv_draw_buf.c ****     }
 183:Drivers/lvgl/src/draw/lv_draw_buf.c **** 
 184:Drivers/lvgl/src/draw/lv_draw_buf.c ****     lv_area_t a_draw_buf;
 185:Drivers/lvgl/src/draw/lv_draw_buf.c ****     a_draw_buf.x1 = 0;
 186:Drivers/lvgl/src/draw/lv_draw_buf.c ****     a_draw_buf.y1 = 0;
 187:Drivers/lvgl/src/draw/lv_draw_buf.c ****     a_draw_buf.x2 = draw_buf->header.w - 1;
 188:Drivers/lvgl/src/draw/lv_draw_buf.c ****     a_draw_buf.y2 = draw_buf->header.h - 1;
 189:Drivers/lvgl/src/draw/lv_draw_buf.c **** 
 190:Drivers/lvgl/src/draw/lv_draw_buf.c ****     lv_area_t a_clipped;
 191:Drivers/lvgl/src/draw/lv_draw_buf.c ****     if(!lv_area_intersect(&a_clipped, a, &a_draw_buf)) {
 192:Drivers/lvgl/src/draw/lv_draw_buf.c ****         LV_PROFILER_DRAW_END;
 193:Drivers/lvgl/src/draw/lv_draw_buf.c ****         return;
 194:Drivers/lvgl/src/draw/lv_draw_buf.c ****     }
 195:Drivers/lvgl/src/draw/lv_draw_buf.c **** 
 196:Drivers/lvgl/src/draw/lv_draw_buf.c ****     if(lv_area_get_width(&a_clipped) <= 0) {
 197:Drivers/lvgl/src/draw/lv_draw_buf.c ****         LV_PROFILER_DRAW_END;
 198:Drivers/lvgl/src/draw/lv_draw_buf.c ****         return;
 199:Drivers/lvgl/src/draw/lv_draw_buf.c ****     }
 200:Drivers/lvgl/src/draw/lv_draw_buf.c **** 
 201:Drivers/lvgl/src/draw/lv_draw_buf.c ****     if(lv_area_get_height(&a_clipped) <= 0) {
ARM GAS  /var/folders/qx/2_175_4n2s19vhvtspjhb3qh0000gn/T//ccxF66nk.s 			page 5


 202:Drivers/lvgl/src/draw/lv_draw_buf.c ****         LV_PROFILER_DRAW_END;
 203:Drivers/lvgl/src/draw/lv_draw_buf.c ****         return;
 204:Drivers/lvgl/src/draw/lv_draw_buf.c ****     }
 205:Drivers/lvgl/src/draw/lv_draw_buf.c **** 
 206:Drivers/lvgl/src/draw/lv_draw_buf.c ****     uint8_t * buf = lv_draw_buf_goto_xy(draw_buf, a_clipped.x1, a_clipped.y1);
 207:Drivers/lvgl/src/draw/lv_draw_buf.c ****     uint8_t bpp = lv_color_format_get_bpp(header->cf);
 208:Drivers/lvgl/src/draw/lv_draw_buf.c ****     uint32_t line_length = (lv_area_get_width(&a_clipped) * bpp + 7) >> 3;
 209:Drivers/lvgl/src/draw/lv_draw_buf.c ****     int32_t y;
 210:Drivers/lvgl/src/draw/lv_draw_buf.c ****     for(y = a_clipped.y1; y <= a_clipped.y2; y++) {
 211:Drivers/lvgl/src/draw/lv_draw_buf.c ****         lv_memzero(buf, line_length);
 212:Drivers/lvgl/src/draw/lv_draw_buf.c ****         buf += stride;
 213:Drivers/lvgl/src/draw/lv_draw_buf.c ****     }
 214:Drivers/lvgl/src/draw/lv_draw_buf.c ****     lv_draw_buf_flush_cache(draw_buf, a);
 215:Drivers/lvgl/src/draw/lv_draw_buf.c ****     LV_PROFILER_DRAW_END;
 216:Drivers/lvgl/src/draw/lv_draw_buf.c **** }
 217:Drivers/lvgl/src/draw/lv_draw_buf.c **** 
 218:Drivers/lvgl/src/draw/lv_draw_buf.c **** lv_result_t lv_draw_buf_init(lv_draw_buf_t * draw_buf, uint32_t w, uint32_t h, lv_color_format_t cf
 219:Drivers/lvgl/src/draw/lv_draw_buf.c ****                              void * data, uint32_t data_size)
 220:Drivers/lvgl/src/draw/lv_draw_buf.c **** {
 221:Drivers/lvgl/src/draw/lv_draw_buf.c ****     LV_ASSERT_NULL(draw_buf);
 222:Drivers/lvgl/src/draw/lv_draw_buf.c ****     if(draw_buf == NULL) return LV_RESULT_INVALID;
 223:Drivers/lvgl/src/draw/lv_draw_buf.c **** 
 224:Drivers/lvgl/src/draw/lv_draw_buf.c ****     lv_memzero(draw_buf, sizeof(lv_draw_buf_t));
 225:Drivers/lvgl/src/draw/lv_draw_buf.c ****     if(stride == 0) stride = lv_draw_buf_width_to_stride(w, cf);
 226:Drivers/lvgl/src/draw/lv_draw_buf.c ****     if(stride * h > data_size) {
 227:Drivers/lvgl/src/draw/lv_draw_buf.c ****         LV_LOG_WARN("Data size too small, required: %" LV_PRId32 ", provided: %" LV_PRId32, stride 
 228:Drivers/lvgl/src/draw/lv_draw_buf.c ****                     data_size);
 229:Drivers/lvgl/src/draw/lv_draw_buf.c ****         return LV_RESULT_INVALID;
 230:Drivers/lvgl/src/draw/lv_draw_buf.c ****     }
 231:Drivers/lvgl/src/draw/lv_draw_buf.c **** 
 232:Drivers/lvgl/src/draw/lv_draw_buf.c ****     lv_image_header_t * header = &draw_buf->header;
 233:Drivers/lvgl/src/draw/lv_draw_buf.c ****     header->w = w;
 234:Drivers/lvgl/src/draw/lv_draw_buf.c ****     header->h = h;
 235:Drivers/lvgl/src/draw/lv_draw_buf.c ****     header->cf = cf;
 236:Drivers/lvgl/src/draw/lv_draw_buf.c ****     header->stride = stride;
 237:Drivers/lvgl/src/draw/lv_draw_buf.c ****     header->flags = 0;
 238:Drivers/lvgl/src/draw/lv_draw_buf.c ****     header->magic = LV_IMAGE_HEADER_MAGIC;
 239:Drivers/lvgl/src/draw/lv_draw_buf.c **** 
 240:Drivers/lvgl/src/draw/lv_draw_buf.c ****     draw_buf->data = data;
 241:Drivers/lvgl/src/draw/lv_draw_buf.c ****     draw_buf->unaligned_data = data;
 242:Drivers/lvgl/src/draw/lv_draw_buf.c ****     draw_buf->handlers = &default_handlers;
 243:Drivers/lvgl/src/draw/lv_draw_buf.c ****     draw_buf->data_size = data_size;
 244:Drivers/lvgl/src/draw/lv_draw_buf.c ****     if(lv_draw_buf_align(data, cf) != draw_buf->unaligned_data) {
 245:Drivers/lvgl/src/draw/lv_draw_buf.c ****         LV_LOG_INFO("Data is not aligned, ignored");
 246:Drivers/lvgl/src/draw/lv_draw_buf.c ****     }
 247:Drivers/lvgl/src/draw/lv_draw_buf.c ****     return LV_RESULT_OK;
 248:Drivers/lvgl/src/draw/lv_draw_buf.c **** }
 249:Drivers/lvgl/src/draw/lv_draw_buf.c **** 
 250:Drivers/lvgl/src/draw/lv_draw_buf.c **** lv_draw_buf_t * lv_draw_buf_create(uint32_t w, uint32_t h, lv_color_format_t cf, uint32_t stride)
 251:Drivers/lvgl/src/draw/lv_draw_buf.c **** {
 252:Drivers/lvgl/src/draw/lv_draw_buf.c ****     return lv_draw_buf_create_ex(&default_handlers, w, h, cf, stride);
 253:Drivers/lvgl/src/draw/lv_draw_buf.c **** }
 254:Drivers/lvgl/src/draw/lv_draw_buf.c **** 
 255:Drivers/lvgl/src/draw/lv_draw_buf.c **** lv_draw_buf_t * lv_draw_buf_create_ex(const lv_draw_buf_handlers_t * handlers, uint32_t w, uint32_t
 256:Drivers/lvgl/src/draw/lv_draw_buf.c ****                                       lv_color_format_t cf, uint32_t stride)
 257:Drivers/lvgl/src/draw/lv_draw_buf.c **** {
 258:Drivers/lvgl/src/draw/lv_draw_buf.c ****     LV_PROFILER_DRAW_BEGIN;
ARM GAS  /var/folders/qx/2_175_4n2s19vhvtspjhb3qh0000gn/T//ccxF66nk.s 			page 6


 259:Drivers/lvgl/src/draw/lv_draw_buf.c ****     lv_draw_buf_t * draw_buf = lv_malloc_zeroed(sizeof(lv_draw_buf_t));
 260:Drivers/lvgl/src/draw/lv_draw_buf.c ****     LV_ASSERT_MALLOC(draw_buf);
 261:Drivers/lvgl/src/draw/lv_draw_buf.c ****     if(draw_buf == NULL) {
 262:Drivers/lvgl/src/draw/lv_draw_buf.c ****         LV_PROFILER_DRAW_END;
 263:Drivers/lvgl/src/draw/lv_draw_buf.c ****         return NULL;
 264:Drivers/lvgl/src/draw/lv_draw_buf.c ****     }
 265:Drivers/lvgl/src/draw/lv_draw_buf.c ****     if(stride == 0) stride = lv_draw_buf_width_to_stride(w, cf);
 266:Drivers/lvgl/src/draw/lv_draw_buf.c **** 
 267:Drivers/lvgl/src/draw/lv_draw_buf.c ****     uint32_t size = _calculate_draw_buf_size(w, h, cf, stride);
 268:Drivers/lvgl/src/draw/lv_draw_buf.c **** 
 269:Drivers/lvgl/src/draw/lv_draw_buf.c ****     void * buf = draw_buf_malloc(handlers, size, cf);
 270:Drivers/lvgl/src/draw/lv_draw_buf.c ****     /*Do not assert here as LVGL or the app might just want to try creating a draw_buf*/
 271:Drivers/lvgl/src/draw/lv_draw_buf.c ****     if(buf == NULL) {
 272:Drivers/lvgl/src/draw/lv_draw_buf.c ****         LV_LOG_WARN("No memory: %"LV_PRIu32"x%"LV_PRIu32", cf: %d, stride: %"LV_PRIu32", %"LV_PRIu3
 273:Drivers/lvgl/src/draw/lv_draw_buf.c ****                     w, h, cf, stride, size);
 274:Drivers/lvgl/src/draw/lv_draw_buf.c ****         lv_free(draw_buf);
 275:Drivers/lvgl/src/draw/lv_draw_buf.c ****         LV_PROFILER_DRAW_END;
 276:Drivers/lvgl/src/draw/lv_draw_buf.c ****         return NULL;
 277:Drivers/lvgl/src/draw/lv_draw_buf.c ****     }
 278:Drivers/lvgl/src/draw/lv_draw_buf.c **** 
 279:Drivers/lvgl/src/draw/lv_draw_buf.c ****     draw_buf->header.w = w;
 280:Drivers/lvgl/src/draw/lv_draw_buf.c ****     draw_buf->header.h = h;
 281:Drivers/lvgl/src/draw/lv_draw_buf.c ****     draw_buf->header.cf = cf;
 282:Drivers/lvgl/src/draw/lv_draw_buf.c ****     draw_buf->header.flags = LV_IMAGE_FLAGS_MODIFIABLE | LV_IMAGE_FLAGS_ALLOCATED;
 283:Drivers/lvgl/src/draw/lv_draw_buf.c ****     draw_buf->header.stride = stride;
 284:Drivers/lvgl/src/draw/lv_draw_buf.c ****     draw_buf->header.magic = LV_IMAGE_HEADER_MAGIC;
 285:Drivers/lvgl/src/draw/lv_draw_buf.c ****     draw_buf->data = lv_draw_buf_align(buf, cf);
 286:Drivers/lvgl/src/draw/lv_draw_buf.c ****     draw_buf->unaligned_data = buf;
 287:Drivers/lvgl/src/draw/lv_draw_buf.c ****     draw_buf->data_size = size;
 288:Drivers/lvgl/src/draw/lv_draw_buf.c ****     draw_buf->handlers = handlers;
 289:Drivers/lvgl/src/draw/lv_draw_buf.c ****     LV_PROFILER_DRAW_END;
 290:Drivers/lvgl/src/draw/lv_draw_buf.c ****     return draw_buf;
 291:Drivers/lvgl/src/draw/lv_draw_buf.c **** }
 292:Drivers/lvgl/src/draw/lv_draw_buf.c **** 
 293:Drivers/lvgl/src/draw/lv_draw_buf.c **** lv_draw_buf_t * lv_draw_buf_dup(const lv_draw_buf_t * draw_buf)
 294:Drivers/lvgl/src/draw/lv_draw_buf.c **** {
 295:Drivers/lvgl/src/draw/lv_draw_buf.c ****     return lv_draw_buf_dup_ex(&default_handlers, draw_buf);
 296:Drivers/lvgl/src/draw/lv_draw_buf.c **** }
 297:Drivers/lvgl/src/draw/lv_draw_buf.c **** 
 298:Drivers/lvgl/src/draw/lv_draw_buf.c **** lv_draw_buf_t * lv_draw_buf_dup_ex(const lv_draw_buf_handlers_t * handlers, const lv_draw_buf_t * d
 299:Drivers/lvgl/src/draw/lv_draw_buf.c **** {
 300:Drivers/lvgl/src/draw/lv_draw_buf.c ****     LV_PROFILER_DRAW_BEGIN;
 301:Drivers/lvgl/src/draw/lv_draw_buf.c ****     const lv_image_header_t * header = &draw_buf->header;
 302:Drivers/lvgl/src/draw/lv_draw_buf.c ****     lv_draw_buf_t * new_buf = lv_draw_buf_create_ex(handlers, header->w, header->h, header->cf, hea
 303:Drivers/lvgl/src/draw/lv_draw_buf.c ****     if(new_buf == NULL) {
 304:Drivers/lvgl/src/draw/lv_draw_buf.c ****         LV_PROFILER_DRAW_END;
 305:Drivers/lvgl/src/draw/lv_draw_buf.c ****         return NULL;
 306:Drivers/lvgl/src/draw/lv_draw_buf.c ****     }
 307:Drivers/lvgl/src/draw/lv_draw_buf.c **** 
 308:Drivers/lvgl/src/draw/lv_draw_buf.c ****     lv_draw_buf_set_flag(new_buf, draw_buf->header.flags | LV_IMAGE_FLAGS_MODIFIABLE | LV_IMAGE_FLA
 309:Drivers/lvgl/src/draw/lv_draw_buf.c **** 
 310:Drivers/lvgl/src/draw/lv_draw_buf.c ****     /*Choose the smaller size to copy*/
 311:Drivers/lvgl/src/draw/lv_draw_buf.c ****     uint32_t size = LV_MIN(draw_buf->data_size, new_buf->data_size);
 312:Drivers/lvgl/src/draw/lv_draw_buf.c **** 
 313:Drivers/lvgl/src/draw/lv_draw_buf.c ****     /*Copy image data*/
 314:Drivers/lvgl/src/draw/lv_draw_buf.c ****     lv_memcpy(new_buf->data, draw_buf->data, size);
 315:Drivers/lvgl/src/draw/lv_draw_buf.c ****     LV_PROFILER_DRAW_END;
ARM GAS  /var/folders/qx/2_175_4n2s19vhvtspjhb3qh0000gn/T//ccxF66nk.s 			page 7


 316:Drivers/lvgl/src/draw/lv_draw_buf.c ****     return new_buf;
 317:Drivers/lvgl/src/draw/lv_draw_buf.c **** }
 318:Drivers/lvgl/src/draw/lv_draw_buf.c **** 
 319:Drivers/lvgl/src/draw/lv_draw_buf.c **** lv_draw_buf_t * lv_draw_buf_reshape(lv_draw_buf_t * draw_buf, lv_color_format_t cf, uint32_t w, uin
 320:Drivers/lvgl/src/draw/lv_draw_buf.c ****                                     uint32_t stride)
 321:Drivers/lvgl/src/draw/lv_draw_buf.c **** {
 322:Drivers/lvgl/src/draw/lv_draw_buf.c ****     if(draw_buf == NULL) return NULL;
 323:Drivers/lvgl/src/draw/lv_draw_buf.c ****     LV_PROFILER_DRAW_BEGIN;
 324:Drivers/lvgl/src/draw/lv_draw_buf.c **** 
 325:Drivers/lvgl/src/draw/lv_draw_buf.c ****     /*If color format is unknown, keep using the original color format.*/
 326:Drivers/lvgl/src/draw/lv_draw_buf.c ****     if(cf == LV_COLOR_FORMAT_UNKNOWN) cf = draw_buf->header.cf;
 327:Drivers/lvgl/src/draw/lv_draw_buf.c ****     if(stride == 0) stride = lv_draw_buf_width_to_stride(w, cf);
 328:Drivers/lvgl/src/draw/lv_draw_buf.c **** 
 329:Drivers/lvgl/src/draw/lv_draw_buf.c ****     uint32_t size = _calculate_draw_buf_size(w, h, cf, stride);
 330:Drivers/lvgl/src/draw/lv_draw_buf.c **** 
 331:Drivers/lvgl/src/draw/lv_draw_buf.c ****     if(size > draw_buf->data_size) {
 332:Drivers/lvgl/src/draw/lv_draw_buf.c ****         LV_LOG_TRACE("Draw buf too small for new shape");
 333:Drivers/lvgl/src/draw/lv_draw_buf.c ****         LV_PROFILER_DRAW_END;
 334:Drivers/lvgl/src/draw/lv_draw_buf.c ****         return NULL;
 335:Drivers/lvgl/src/draw/lv_draw_buf.c ****     }
 336:Drivers/lvgl/src/draw/lv_draw_buf.c **** 
 337:Drivers/lvgl/src/draw/lv_draw_buf.c ****     draw_buf->header.cf = cf;
 338:Drivers/lvgl/src/draw/lv_draw_buf.c ****     draw_buf->header.w = w;
 339:Drivers/lvgl/src/draw/lv_draw_buf.c ****     draw_buf->header.h = h;
 340:Drivers/lvgl/src/draw/lv_draw_buf.c ****     draw_buf->header.stride = stride;
 341:Drivers/lvgl/src/draw/lv_draw_buf.c **** 
 342:Drivers/lvgl/src/draw/lv_draw_buf.c ****     LV_PROFILER_DRAW_END;
 343:Drivers/lvgl/src/draw/lv_draw_buf.c ****     return draw_buf;
 344:Drivers/lvgl/src/draw/lv_draw_buf.c **** }
 345:Drivers/lvgl/src/draw/lv_draw_buf.c **** 
 346:Drivers/lvgl/src/draw/lv_draw_buf.c **** void lv_draw_buf_destroy(lv_draw_buf_t * draw_buf)
 347:Drivers/lvgl/src/draw/lv_draw_buf.c **** {
 348:Drivers/lvgl/src/draw/lv_draw_buf.c ****     LV_ASSERT_NULL(draw_buf);
 349:Drivers/lvgl/src/draw/lv_draw_buf.c ****     if(draw_buf == NULL) return;
 350:Drivers/lvgl/src/draw/lv_draw_buf.c ****     LV_PROFILER_DRAW_BEGIN;
 351:Drivers/lvgl/src/draw/lv_draw_buf.c ****     if(lv_draw_buf_has_flag(draw_buf, LV_IMAGE_FLAGS_ALLOCATED)) {
 352:Drivers/lvgl/src/draw/lv_draw_buf.c ****         LV_ASSERT_NULL(draw_buf->handlers);
 353:Drivers/lvgl/src/draw/lv_draw_buf.c **** 
 354:Drivers/lvgl/src/draw/lv_draw_buf.c ****         const lv_draw_buf_handlers_t * handlers = draw_buf->handlers;
 355:Drivers/lvgl/src/draw/lv_draw_buf.c ****         draw_buf_free(handlers, draw_buf->unaligned_data);
 356:Drivers/lvgl/src/draw/lv_draw_buf.c ****         lv_free(draw_buf);
 357:Drivers/lvgl/src/draw/lv_draw_buf.c ****     }
 358:Drivers/lvgl/src/draw/lv_draw_buf.c ****     else {
 359:Drivers/lvgl/src/draw/lv_draw_buf.c ****         LV_LOG_ERROR("draw buffer is not allocated, ignored");
 360:Drivers/lvgl/src/draw/lv_draw_buf.c ****     }
 361:Drivers/lvgl/src/draw/lv_draw_buf.c ****     LV_PROFILER_DRAW_END;
 362:Drivers/lvgl/src/draw/lv_draw_buf.c **** }
 363:Drivers/lvgl/src/draw/lv_draw_buf.c **** 
 364:Drivers/lvgl/src/draw/lv_draw_buf.c **** void lv_draw_buf_copy(lv_draw_buf_t * dest, const lv_area_t * dest_area,
 365:Drivers/lvgl/src/draw/lv_draw_buf.c ****                       const lv_draw_buf_t * src, const lv_area_t * src_area)
 366:Drivers/lvgl/src/draw/lv_draw_buf.c **** {
 367:Drivers/lvgl/src/draw/lv_draw_buf.c ****     LV_ASSERT_NULL(dest);
 368:Drivers/lvgl/src/draw/lv_draw_buf.c ****     LV_ASSERT_NULL(dest->handlers);
 369:Drivers/lvgl/src/draw/lv_draw_buf.c ****     LV_ASSERT_NULL(dest->handlers->buf_copy_cb);
 370:Drivers/lvgl/src/draw/lv_draw_buf.c ****     LV_ASSERT_NULL(src);
 371:Drivers/lvgl/src/draw/lv_draw_buf.c **** 
 372:Drivers/lvgl/src/draw/lv_draw_buf.c ****     dest->handlers->buf_copy_cb(dest, dest_area, src, src_area);
ARM GAS  /var/folders/qx/2_175_4n2s19vhvtspjhb3qh0000gn/T//ccxF66nk.s 			page 8


 373:Drivers/lvgl/src/draw/lv_draw_buf.c **** }
 374:Drivers/lvgl/src/draw/lv_draw_buf.c **** 
 375:Drivers/lvgl/src/draw/lv_draw_buf.c **** void * lv_draw_buf_goto_xy(const lv_draw_buf_t * buf, uint32_t x, uint32_t y)
 376:Drivers/lvgl/src/draw/lv_draw_buf.c **** {
 377:Drivers/lvgl/src/draw/lv_draw_buf.c ****     LV_ASSERT_NULL(buf);
 378:Drivers/lvgl/src/draw/lv_draw_buf.c ****     if(buf == NULL) return NULL;
 379:Drivers/lvgl/src/draw/lv_draw_buf.c **** 
 380:Drivers/lvgl/src/draw/lv_draw_buf.c ****     if(x >= buf->header.w || y >= buf->header.h) {
 381:Drivers/lvgl/src/draw/lv_draw_buf.c ****         LV_LOG_ERROR("coordinates out of range, x: %" LV_PRIu32 ", y: %"LV_PRIu32", w: %"LV_PRIu32"
 382:Drivers/lvgl/src/draw/lv_draw_buf.c ****                      (uint32_t)buf->header.w, (uint32_t)buf->header.h);
 383:Drivers/lvgl/src/draw/lv_draw_buf.c ****         return NULL;
 384:Drivers/lvgl/src/draw/lv_draw_buf.c ****     }
 385:Drivers/lvgl/src/draw/lv_draw_buf.c **** 
 386:Drivers/lvgl/src/draw/lv_draw_buf.c ****     uint8_t * data = buf->data;
 387:Drivers/lvgl/src/draw/lv_draw_buf.c **** 
 388:Drivers/lvgl/src/draw/lv_draw_buf.c ****     /*Skip palette*/
 389:Drivers/lvgl/src/draw/lv_draw_buf.c ****     data += LV_COLOR_INDEXED_PALETTE_SIZE(buf->header.cf) * sizeof(lv_color32_t);
 390:Drivers/lvgl/src/draw/lv_draw_buf.c ****     data += buf->header.stride * y;
 391:Drivers/lvgl/src/draw/lv_draw_buf.c **** 
 392:Drivers/lvgl/src/draw/lv_draw_buf.c ****     if(x == 0) return data;
 393:Drivers/lvgl/src/draw/lv_draw_buf.c **** 
 394:Drivers/lvgl/src/draw/lv_draw_buf.c ****     return data + x * lv_color_format_get_bpp(buf->header.cf) / 8;
 395:Drivers/lvgl/src/draw/lv_draw_buf.c **** }
 396:Drivers/lvgl/src/draw/lv_draw_buf.c **** 
 397:Drivers/lvgl/src/draw/lv_draw_buf.c **** lv_result_t lv_draw_buf_adjust_stride(lv_draw_buf_t * src, uint32_t stride)
 398:Drivers/lvgl/src/draw/lv_draw_buf.c **** {
 399:Drivers/lvgl/src/draw/lv_draw_buf.c ****     LV_ASSERT_NULL(src);
 400:Drivers/lvgl/src/draw/lv_draw_buf.c ****     LV_ASSERT_NULL(src->data);
 401:Drivers/lvgl/src/draw/lv_draw_buf.c ****     if(src == NULL) return LV_RESULT_INVALID;
 402:Drivers/lvgl/src/draw/lv_draw_buf.c ****     if(src->data == NULL) return LV_RESULT_INVALID;
 403:Drivers/lvgl/src/draw/lv_draw_buf.c ****     LV_PROFILER_DRAW_BEGIN;
 404:Drivers/lvgl/src/draw/lv_draw_buf.c **** 
 405:Drivers/lvgl/src/draw/lv_draw_buf.c ****     const lv_image_header_t * header = &src->header;
 406:Drivers/lvgl/src/draw/lv_draw_buf.c ****     uint32_t w = header->w;
 407:Drivers/lvgl/src/draw/lv_draw_buf.c ****     uint32_t h = header->h;
 408:Drivers/lvgl/src/draw/lv_draw_buf.c **** 
 409:Drivers/lvgl/src/draw/lv_draw_buf.c ****     if(!lv_draw_buf_has_flag(src, LV_IMAGE_FLAGS_MODIFIABLE)) {
 410:Drivers/lvgl/src/draw/lv_draw_buf.c ****         LV_PROFILER_DRAW_END;
 411:Drivers/lvgl/src/draw/lv_draw_buf.c ****         return LV_RESULT_INVALID;
 412:Drivers/lvgl/src/draw/lv_draw_buf.c ****     }
 413:Drivers/lvgl/src/draw/lv_draw_buf.c **** 
 414:Drivers/lvgl/src/draw/lv_draw_buf.c ****     /*Use global stride*/
 415:Drivers/lvgl/src/draw/lv_draw_buf.c ****     if(stride == 0) stride = lv_draw_buf_width_to_stride(w, header->cf);
 416:Drivers/lvgl/src/draw/lv_draw_buf.c **** 
 417:Drivers/lvgl/src/draw/lv_draw_buf.c ****     /*Check if stride already match*/
 418:Drivers/lvgl/src/draw/lv_draw_buf.c ****     if(header->stride == stride) {
 419:Drivers/lvgl/src/draw/lv_draw_buf.c ****         LV_PROFILER_DRAW_END;
 420:Drivers/lvgl/src/draw/lv_draw_buf.c ****         return LV_RESULT_OK;
 421:Drivers/lvgl/src/draw/lv_draw_buf.c ****     }
 422:Drivers/lvgl/src/draw/lv_draw_buf.c **** 
 423:Drivers/lvgl/src/draw/lv_draw_buf.c ****     /*Calculate the minimal stride allowed from bpp*/
 424:Drivers/lvgl/src/draw/lv_draw_buf.c ****     uint32_t bpp = lv_color_format_get_bpp(header->cf);
 425:Drivers/lvgl/src/draw/lv_draw_buf.c ****     uint32_t min_stride = (w * bpp + 7) >> 3;
 426:Drivers/lvgl/src/draw/lv_draw_buf.c ****     if(stride < min_stride) {
 427:Drivers/lvgl/src/draw/lv_draw_buf.c ****         LV_LOG_WARN("New stride is too small. min: %" LV_PRId32, min_stride);
 428:Drivers/lvgl/src/draw/lv_draw_buf.c ****         LV_PROFILER_DRAW_END;
 429:Drivers/lvgl/src/draw/lv_draw_buf.c ****         return LV_RESULT_INVALID;
ARM GAS  /var/folders/qx/2_175_4n2s19vhvtspjhb3qh0000gn/T//ccxF66nk.s 			page 9


 430:Drivers/lvgl/src/draw/lv_draw_buf.c ****     }
 431:Drivers/lvgl/src/draw/lv_draw_buf.c **** 
 432:Drivers/lvgl/src/draw/lv_draw_buf.c ****     /*Check if buffer has enough space. */
 433:Drivers/lvgl/src/draw/lv_draw_buf.c ****     uint32_t new_size = _calculate_draw_buf_size(w, h, header->cf, stride);
 434:Drivers/lvgl/src/draw/lv_draw_buf.c ****     if(new_size > src->data_size) {
 435:Drivers/lvgl/src/draw/lv_draw_buf.c ****         LV_PROFILER_DRAW_END;
 436:Drivers/lvgl/src/draw/lv_draw_buf.c ****         return LV_RESULT_INVALID;
 437:Drivers/lvgl/src/draw/lv_draw_buf.c ****     }
 438:Drivers/lvgl/src/draw/lv_draw_buf.c **** 
 439:Drivers/lvgl/src/draw/lv_draw_buf.c ****     uint32_t offset = LV_COLOR_INDEXED_PALETTE_SIZE(header->cf) * 4;
 440:Drivers/lvgl/src/draw/lv_draw_buf.c **** 
 441:Drivers/lvgl/src/draw/lv_draw_buf.c ****     if(stride > header->stride) {
 442:Drivers/lvgl/src/draw/lv_draw_buf.c ****         /*Copy from the last line to the first*/
 443:Drivers/lvgl/src/draw/lv_draw_buf.c ****         uint8_t * src_data = src->data + offset + header->stride * (h - 1);
 444:Drivers/lvgl/src/draw/lv_draw_buf.c ****         uint8_t * dst_data = src->data + offset + stride * (h - 1);
 445:Drivers/lvgl/src/draw/lv_draw_buf.c ****         for(uint32_t y = 0; y < h; y++) {
 446:Drivers/lvgl/src/draw/lv_draw_buf.c ****             lv_memmove(dst_data, src_data, min_stride);
 447:Drivers/lvgl/src/draw/lv_draw_buf.c ****             src_data -= header->stride;
 448:Drivers/lvgl/src/draw/lv_draw_buf.c ****             dst_data -= stride;
 449:Drivers/lvgl/src/draw/lv_draw_buf.c ****         }
 450:Drivers/lvgl/src/draw/lv_draw_buf.c ****     }
 451:Drivers/lvgl/src/draw/lv_draw_buf.c ****     else {
 452:Drivers/lvgl/src/draw/lv_draw_buf.c ****         /*Copy from the first line to the last*/
 453:Drivers/lvgl/src/draw/lv_draw_buf.c ****         uint8_t * src_data = src->data + offset;
 454:Drivers/lvgl/src/draw/lv_draw_buf.c ****         uint8_t * dst_data = src->data + offset;
 455:Drivers/lvgl/src/draw/lv_draw_buf.c ****         for(uint32_t y = 0; y < h; y++) {
 456:Drivers/lvgl/src/draw/lv_draw_buf.c ****             lv_memmove(dst_data, src_data, min_stride);
 457:Drivers/lvgl/src/draw/lv_draw_buf.c ****             src_data += header->stride;
 458:Drivers/lvgl/src/draw/lv_draw_buf.c ****             dst_data += stride;
 459:Drivers/lvgl/src/draw/lv_draw_buf.c ****         }
 460:Drivers/lvgl/src/draw/lv_draw_buf.c ****     }
 461:Drivers/lvgl/src/draw/lv_draw_buf.c **** 
 462:Drivers/lvgl/src/draw/lv_draw_buf.c ****     src->header.stride = stride;
 463:Drivers/lvgl/src/draw/lv_draw_buf.c **** 
 464:Drivers/lvgl/src/draw/lv_draw_buf.c ****     LV_PROFILER_DRAW_END;
 465:Drivers/lvgl/src/draw/lv_draw_buf.c ****     return LV_RESULT_OK;
 466:Drivers/lvgl/src/draw/lv_draw_buf.c **** }
 467:Drivers/lvgl/src/draw/lv_draw_buf.c **** 
 468:Drivers/lvgl/src/draw/lv_draw_buf.c **** lv_result_t lv_draw_buf_premultiply(lv_draw_buf_t * draw_buf)
 469:Drivers/lvgl/src/draw/lv_draw_buf.c **** {
 470:Drivers/lvgl/src/draw/lv_draw_buf.c ****     LV_ASSERT_NULL(draw_buf);
 471:Drivers/lvgl/src/draw/lv_draw_buf.c ****     if(draw_buf == NULL) return LV_RESULT_INVALID;
 472:Drivers/lvgl/src/draw/lv_draw_buf.c **** 
 473:Drivers/lvgl/src/draw/lv_draw_buf.c ****     if(lv_draw_buf_has_flag(draw_buf, LV_IMAGE_FLAGS_PREMULTIPLIED)) return LV_RESULT_INVALID;
 474:Drivers/lvgl/src/draw/lv_draw_buf.c **** 
 475:Drivers/lvgl/src/draw/lv_draw_buf.c ****     if(!lv_draw_buf_has_flag(draw_buf, LV_IMAGE_FLAGS_MODIFIABLE)) {
 476:Drivers/lvgl/src/draw/lv_draw_buf.c ****         LV_LOG_WARN("draw buf is not modifiable: 0x%04x", draw_buf->header.flags);
 477:Drivers/lvgl/src/draw/lv_draw_buf.c ****         return LV_RESULT_INVALID;
 478:Drivers/lvgl/src/draw/lv_draw_buf.c ****     }
 479:Drivers/lvgl/src/draw/lv_draw_buf.c **** 
 480:Drivers/lvgl/src/draw/lv_draw_buf.c ****     LV_PROFILER_DRAW_BEGIN;
 481:Drivers/lvgl/src/draw/lv_draw_buf.c **** 
 482:Drivers/lvgl/src/draw/lv_draw_buf.c ****     lv_result_t res = lv_draw_buf_convert_premultiply(draw_buf);
 483:Drivers/lvgl/src/draw/lv_draw_buf.c ****     if(res == LV_RESULT_OK) {
 484:Drivers/lvgl/src/draw/lv_draw_buf.c ****         lv_area_t area = {0, 0, draw_buf->header.w - 1, draw_buf->header.h - 1};
 485:Drivers/lvgl/src/draw/lv_draw_buf.c ****         if(LV_COLOR_FORMAT_IS_INDEXED(draw_buf->header.cf)) {
 486:Drivers/lvgl/src/draw/lv_draw_buf.c ****             /**
ARM GAS  /var/folders/qx/2_175_4n2s19vhvtspjhb3qh0000gn/T//ccxF66nk.s 			page 10


 487:Drivers/lvgl/src/draw/lv_draw_buf.c ****              * We only need to flush the palette table, so we set y2 equal to y1 to improve perform
 488:Drivers/lvgl/src/draw/lv_draw_buf.c ****              * and reduce cache flush overhead.
 489:Drivers/lvgl/src/draw/lv_draw_buf.c ****              */
 490:Drivers/lvgl/src/draw/lv_draw_buf.c ****             area.y2 = 0;
 491:Drivers/lvgl/src/draw/lv_draw_buf.c ****         }
 492:Drivers/lvgl/src/draw/lv_draw_buf.c **** 
 493:Drivers/lvgl/src/draw/lv_draw_buf.c ****         lv_draw_buf_set_flag(draw_buf, LV_IMAGE_FLAGS_PREMULTIPLIED);
 494:Drivers/lvgl/src/draw/lv_draw_buf.c ****         lv_draw_buf_flush_cache(draw_buf, &area);
 495:Drivers/lvgl/src/draw/lv_draw_buf.c ****     }
 496:Drivers/lvgl/src/draw/lv_draw_buf.c **** 
 497:Drivers/lvgl/src/draw/lv_draw_buf.c ****     LV_PROFILER_DRAW_END;
 498:Drivers/lvgl/src/draw/lv_draw_buf.c ****     return res;
 499:Drivers/lvgl/src/draw/lv_draw_buf.c **** }
 500:Drivers/lvgl/src/draw/lv_draw_buf.c **** 
 501:Drivers/lvgl/src/draw/lv_draw_buf.c **** void lv_draw_buf_set_palette(lv_draw_buf_t * draw_buf, uint8_t index, lv_color32_t color)
 502:Drivers/lvgl/src/draw/lv_draw_buf.c **** {
 503:Drivers/lvgl/src/draw/lv_draw_buf.c ****     LV_ASSERT_NULL(draw_buf);
 504:Drivers/lvgl/src/draw/lv_draw_buf.c ****     if(draw_buf == NULL) return;
 505:Drivers/lvgl/src/draw/lv_draw_buf.c **** 
 506:Drivers/lvgl/src/draw/lv_draw_buf.c ****     if(!LV_COLOR_FORMAT_IS_INDEXED(draw_buf->header.cf)) {
 507:Drivers/lvgl/src/draw/lv_draw_buf.c ****         LV_LOG_WARN("Not indexed color format");
 508:Drivers/lvgl/src/draw/lv_draw_buf.c ****         return;
 509:Drivers/lvgl/src/draw/lv_draw_buf.c ****     }
 510:Drivers/lvgl/src/draw/lv_draw_buf.c **** 
 511:Drivers/lvgl/src/draw/lv_draw_buf.c ****     lv_color32_t * palette = (lv_color32_t *)draw_buf->data;
 512:Drivers/lvgl/src/draw/lv_draw_buf.c ****     palette[index] = color;
 513:Drivers/lvgl/src/draw/lv_draw_buf.c **** }
 514:Drivers/lvgl/src/draw/lv_draw_buf.c **** 
 515:Drivers/lvgl/src/draw/lv_draw_buf.c **** lv_result_t lv_draw_buf_from_image(lv_draw_buf_t * buf, const lv_image_dsc_t * img)
 516:Drivers/lvgl/src/draw/lv_draw_buf.c **** {
 517:Drivers/lvgl/src/draw/lv_draw_buf.c ****     const lv_result_t res = lv_draw_buf_init(buf, img->header.w, img->header.h, img->header.cf, img
 518:Drivers/lvgl/src/draw/lv_draw_buf.c ****                                              (void *)img->data, img->data_size);
 519:Drivers/lvgl/src/draw/lv_draw_buf.c ****     if(res != LV_RESULT_OK) {
 520:Drivers/lvgl/src/draw/lv_draw_buf.c ****         return res;
 521:Drivers/lvgl/src/draw/lv_draw_buf.c ****     }
 522:Drivers/lvgl/src/draw/lv_draw_buf.c **** 
 523:Drivers/lvgl/src/draw/lv_draw_buf.c ****     buf->header.flags = img->header.flags;
 524:Drivers/lvgl/src/draw/lv_draw_buf.c ****     return res;
 525:Drivers/lvgl/src/draw/lv_draw_buf.c **** }
 526:Drivers/lvgl/src/draw/lv_draw_buf.c **** 
 527:Drivers/lvgl/src/draw/lv_draw_buf.c **** void lv_draw_buf_to_image(const lv_draw_buf_t * buf, lv_image_dsc_t * img)
 528:Drivers/lvgl/src/draw/lv_draw_buf.c **** {
 529:Drivers/lvgl/src/draw/lv_draw_buf.c ****     lv_memcpy((void *)img, buf, sizeof(lv_image_dsc_t));
 530:Drivers/lvgl/src/draw/lv_draw_buf.c **** }
 531:Drivers/lvgl/src/draw/lv_draw_buf.c **** 
 532:Drivers/lvgl/src/draw/lv_draw_buf.c **** void lv_image_buf_set_palette(lv_image_dsc_t * dsc, uint8_t id, lv_color32_t c)
 533:Drivers/lvgl/src/draw/lv_draw_buf.c **** {
 534:Drivers/lvgl/src/draw/lv_draw_buf.c ****     LV_LOG_WARN("Deprecated API, use lv_draw_buf_set_palette instead.");
 535:Drivers/lvgl/src/draw/lv_draw_buf.c ****     lv_draw_buf_set_palette((lv_draw_buf_t *)dsc, id, c);
 536:Drivers/lvgl/src/draw/lv_draw_buf.c **** }
 537:Drivers/lvgl/src/draw/lv_draw_buf.c **** 
 538:Drivers/lvgl/src/draw/lv_draw_buf.c **** void lv_image_buf_free(lv_image_dsc_t * dsc)
 539:Drivers/lvgl/src/draw/lv_draw_buf.c **** {
 540:Drivers/lvgl/src/draw/lv_draw_buf.c ****     LV_LOG_WARN("Deprecated API, use lv_draw_buf_destroy instead.");
 541:Drivers/lvgl/src/draw/lv_draw_buf.c ****     if(dsc != NULL) {
 542:Drivers/lvgl/src/draw/lv_draw_buf.c ****         if(dsc->data != NULL)
 543:Drivers/lvgl/src/draw/lv_draw_buf.c ****             lv_free((void *)dsc->data);
ARM GAS  /var/folders/qx/2_175_4n2s19vhvtspjhb3qh0000gn/T//ccxF66nk.s 			page 11


 544:Drivers/lvgl/src/draw/lv_draw_buf.c **** 
 545:Drivers/lvgl/src/draw/lv_draw_buf.c ****         lv_free((void *)dsc);
 546:Drivers/lvgl/src/draw/lv_draw_buf.c ****     }
 547:Drivers/lvgl/src/draw/lv_draw_buf.c **** }
 548:Drivers/lvgl/src/draw/lv_draw_buf.c **** 
 549:Drivers/lvgl/src/draw/lv_draw_buf.c **** /**********************
 550:Drivers/lvgl/src/draw/lv_draw_buf.c ****  *   STATIC FUNCTIONS
 551:Drivers/lvgl/src/draw/lv_draw_buf.c ****  **********************/
 552:Drivers/lvgl/src/draw/lv_draw_buf.c **** 
 553:Drivers/lvgl/src/draw/lv_draw_buf.c **** static void * buf_malloc(size_t size_bytes, lv_color_format_t color_format)
 554:Drivers/lvgl/src/draw/lv_draw_buf.c **** {
 555:Drivers/lvgl/src/draw/lv_draw_buf.c ****     LV_UNUSED(color_format);
 556:Drivers/lvgl/src/draw/lv_draw_buf.c **** 
 557:Drivers/lvgl/src/draw/lv_draw_buf.c ****     /*Allocate larger memory to be sure it can be aligned as needed*/
 558:Drivers/lvgl/src/draw/lv_draw_buf.c ****     size_bytes += LV_DRAW_BUF_ALIGN - 1;
 559:Drivers/lvgl/src/draw/lv_draw_buf.c ****     return lv_malloc(size_bytes);
 560:Drivers/lvgl/src/draw/lv_draw_buf.c **** }
 561:Drivers/lvgl/src/draw/lv_draw_buf.c **** 
 562:Drivers/lvgl/src/draw/lv_draw_buf.c **** static void buf_free(void * buf)
 563:Drivers/lvgl/src/draw/lv_draw_buf.c **** {
 564:Drivers/lvgl/src/draw/lv_draw_buf.c ****     lv_free(buf);
 565:Drivers/lvgl/src/draw/lv_draw_buf.c **** }
 566:Drivers/lvgl/src/draw/lv_draw_buf.c **** 
 567:Drivers/lvgl/src/draw/lv_draw_buf.c **** static void buf_copy(lv_draw_buf_t * dest, const lv_area_t * dest_area,
 568:Drivers/lvgl/src/draw/lv_draw_buf.c ****                      const lv_draw_buf_t * src, const lv_area_t * src_area)
 569:Drivers/lvgl/src/draw/lv_draw_buf.c **** {
 570:Drivers/lvgl/src/draw/lv_draw_buf.c ****     LV_PROFILER_DRAW_BEGIN;
 571:Drivers/lvgl/src/draw/lv_draw_buf.c ****     uint8_t * dest_bufc;
 572:Drivers/lvgl/src/draw/lv_draw_buf.c ****     uint8_t * src_bufc;
 573:Drivers/lvgl/src/draw/lv_draw_buf.c ****     int32_t line_width;
 574:Drivers/lvgl/src/draw/lv_draw_buf.c **** 
 575:Drivers/lvgl/src/draw/lv_draw_buf.c ****     /*Source and dest color format must be same. Color conversion is not supported yet.*/
 576:Drivers/lvgl/src/draw/lv_draw_buf.c ****     LV_ASSERT_FORMAT_MSG(dest->header.cf == src->header.cf, "Color format mismatch: %d != %d",
 577:Drivers/lvgl/src/draw/lv_draw_buf.c ****                          dest->header.cf, src->header.cf);
 578:Drivers/lvgl/src/draw/lv_draw_buf.c **** 
 579:Drivers/lvgl/src/draw/lv_draw_buf.c ****     if(dest_area == NULL) line_width = dest->header.w;
 580:Drivers/lvgl/src/draw/lv_draw_buf.c ****     else line_width = lv_area_get_width(dest_area);
 581:Drivers/lvgl/src/draw/lv_draw_buf.c **** 
 582:Drivers/lvgl/src/draw/lv_draw_buf.c ****     /* For indexed image, copy the palette if we are copying full image area*/
 583:Drivers/lvgl/src/draw/lv_draw_buf.c ****     if(dest_area == NULL || src_area == NULL) {
 584:Drivers/lvgl/src/draw/lv_draw_buf.c ****         if(LV_COLOR_FORMAT_IS_INDEXED(dest->header.cf)) {
 585:Drivers/lvgl/src/draw/lv_draw_buf.c ****             lv_memcpy(dest->data, src->data, LV_COLOR_INDEXED_PALETTE_SIZE(dest->header.cf) * sizeo
 586:Drivers/lvgl/src/draw/lv_draw_buf.c ****         }
 587:Drivers/lvgl/src/draw/lv_draw_buf.c ****     }
 588:Drivers/lvgl/src/draw/lv_draw_buf.c **** 
 589:Drivers/lvgl/src/draw/lv_draw_buf.c ****     /*Check source and dest area have same width*/
 590:Drivers/lvgl/src/draw/lv_draw_buf.c ****     if((src_area == NULL && line_width != src->header.w) || \
 591:Drivers/lvgl/src/draw/lv_draw_buf.c ****        (src_area != NULL && line_width != lv_area_get_width(src_area))) {
 592:Drivers/lvgl/src/draw/lv_draw_buf.c ****         LV_ASSERT_MSG(0, "Source and destination areas have different width");
 593:Drivers/lvgl/src/draw/lv_draw_buf.c ****         LV_PROFILER_DRAW_END;
 594:Drivers/lvgl/src/draw/lv_draw_buf.c ****         return;
 595:Drivers/lvgl/src/draw/lv_draw_buf.c ****     }
 596:Drivers/lvgl/src/draw/lv_draw_buf.c **** 
 597:Drivers/lvgl/src/draw/lv_draw_buf.c ****     if(src_area) src_bufc = lv_draw_buf_goto_xy(src, src_area->x1, src_area->y1);
 598:Drivers/lvgl/src/draw/lv_draw_buf.c ****     else src_bufc = lv_draw_buf_goto_xy(src, 0, 0);
 599:Drivers/lvgl/src/draw/lv_draw_buf.c **** 
 600:Drivers/lvgl/src/draw/lv_draw_buf.c ****     if(dest_area) dest_bufc = lv_draw_buf_goto_xy(dest, dest_area->x1, dest_area->y1);
ARM GAS  /var/folders/qx/2_175_4n2s19vhvtspjhb3qh0000gn/T//ccxF66nk.s 			page 12


 601:Drivers/lvgl/src/draw/lv_draw_buf.c ****     else dest_bufc = lv_draw_buf_goto_xy(dest, 0, 0);
 602:Drivers/lvgl/src/draw/lv_draw_buf.c **** 
 603:Drivers/lvgl/src/draw/lv_draw_buf.c ****     int32_t start_y, end_y;
 604:Drivers/lvgl/src/draw/lv_draw_buf.c ****     if(dest_area) {
 605:Drivers/lvgl/src/draw/lv_draw_buf.c ****         start_y = dest_area->y1;
 606:Drivers/lvgl/src/draw/lv_draw_buf.c ****         end_y = dest_area->y2;
 607:Drivers/lvgl/src/draw/lv_draw_buf.c ****     }
 608:Drivers/lvgl/src/draw/lv_draw_buf.c ****     else {
 609:Drivers/lvgl/src/draw/lv_draw_buf.c ****         start_y = 0;
 610:Drivers/lvgl/src/draw/lv_draw_buf.c ****         end_y = dest->header.h - 1;
 611:Drivers/lvgl/src/draw/lv_draw_buf.c ****     }
 612:Drivers/lvgl/src/draw/lv_draw_buf.c **** 
 613:Drivers/lvgl/src/draw/lv_draw_buf.c ****     uint32_t dest_stride = dest->header.stride;
 614:Drivers/lvgl/src/draw/lv_draw_buf.c ****     uint32_t src_stride = src->header.stride;
 615:Drivers/lvgl/src/draw/lv_draw_buf.c ****     uint32_t line_bytes = (line_width * lv_color_format_get_bpp(dest->header.cf) + 7) >> 3;
 616:Drivers/lvgl/src/draw/lv_draw_buf.c **** 
 617:Drivers/lvgl/src/draw/lv_draw_buf.c ****     for(; start_y <= end_y; start_y++) {
 618:Drivers/lvgl/src/draw/lv_draw_buf.c ****         lv_memcpy(dest_bufc, src_bufc, line_bytes);
 619:Drivers/lvgl/src/draw/lv_draw_buf.c ****         dest_bufc += dest_stride;
 620:Drivers/lvgl/src/draw/lv_draw_buf.c ****         src_bufc += src_stride;
 621:Drivers/lvgl/src/draw/lv_draw_buf.c ****     }
 622:Drivers/lvgl/src/draw/lv_draw_buf.c ****     LV_PROFILER_DRAW_END;
 623:Drivers/lvgl/src/draw/lv_draw_buf.c **** }
 624:Drivers/lvgl/src/draw/lv_draw_buf.c **** 
 625:Drivers/lvgl/src/draw/lv_draw_buf.c **** static void * buf_align(void * buf, lv_color_format_t color_format)
 626:Drivers/lvgl/src/draw/lv_draw_buf.c **** {
  29              		.loc 1 626 1 view -0
  30              		.cfi_startproc
  31              		@ args = 0, pretend = 0, frame = 0
  32              		@ frame_needed = 0, uses_anonymous_args = 0
  33              		@ link register save eliminated.
 627:Drivers/lvgl/src/draw/lv_draw_buf.c ****     LV_UNUSED(color_format);
  34              		.loc 1 627 5 view .LVU1
 628:Drivers/lvgl/src/draw/lv_draw_buf.c **** 
 629:Drivers/lvgl/src/draw/lv_draw_buf.c ****     uint8_t * buf_u8 = buf;
  35              		.loc 1 629 5 view .LVU2
 630:Drivers/lvgl/src/draw/lv_draw_buf.c ****     if(buf_u8) {
  36              		.loc 1 630 5 view .LVU3
  37              		.loc 1 630 7 is_stmt 0 view .LVU4
  38 0000 0346     		mov	r3, r0
  39 0002 18B1     		cbz	r0, .L3
 631:Drivers/lvgl/src/draw/lv_draw_buf.c ****         buf_u8 = (uint8_t *)LV_ROUND_UP((lv_uintptr_t)buf_u8, LV_DRAW_BUF_ALIGN);
  40              		.loc 1 631 9 is_stmt 1 view .LVU5
  41              		.loc 1 631 29 is_stmt 0 view .LVU6
  42 0004 0333     		adds	r3, r3, #3
  43 0006 23F00300 		bic	r0, r3, #3
  44              	.LVL1:
  45              		.loc 1 631 29 view .LVU7
  46 000a 7047     		bx	lr
  47              	.LVL2:
  48              	.L3:
 632:Drivers/lvgl/src/draw/lv_draw_buf.c ****     }
 633:Drivers/lvgl/src/draw/lv_draw_buf.c ****     return buf_u8;
  49              		.loc 1 633 5 is_stmt 1 view .LVU8
 634:Drivers/lvgl/src/draw/lv_draw_buf.c **** }
  50              		.loc 1 634 1 is_stmt 0 view .LVU9
  51 000c 7047     		bx	lr
ARM GAS  /var/folders/qx/2_175_4n2s19vhvtspjhb3qh0000gn/T//ccxF66nk.s 			page 13


  52              		.cfi_endproc
  53              	.LFE225:
  55              		.section	.text.draw_buf_malloc,"ax",%progbits
  56              		.align	1
  57              		.syntax unified
  58              		.thumb
  59              		.thumb_func
  61              	draw_buf_malloc:
  62              	.LVL3:
  63              	.LFB227:
 635:Drivers/lvgl/src/draw/lv_draw_buf.c **** 
 636:Drivers/lvgl/src/draw/lv_draw_buf.c **** static uint32_t width_to_stride(uint32_t w, lv_color_format_t color_format)
 637:Drivers/lvgl/src/draw/lv_draw_buf.c **** {
 638:Drivers/lvgl/src/draw/lv_draw_buf.c ****     uint32_t width_byte;
 639:Drivers/lvgl/src/draw/lv_draw_buf.c ****     width_byte = w * lv_color_format_get_bpp(color_format);
 640:Drivers/lvgl/src/draw/lv_draw_buf.c ****     width_byte = (width_byte + 7) >> 3; /*Round up*/
 641:Drivers/lvgl/src/draw/lv_draw_buf.c **** 
 642:Drivers/lvgl/src/draw/lv_draw_buf.c ****     return LV_ROUND_UP(width_byte, LV_DRAW_BUF_STRIDE_ALIGN);
 643:Drivers/lvgl/src/draw/lv_draw_buf.c **** }
 644:Drivers/lvgl/src/draw/lv_draw_buf.c **** 
 645:Drivers/lvgl/src/draw/lv_draw_buf.c **** static void * draw_buf_malloc(const lv_draw_buf_handlers_t * handlers, size_t size_bytes,
 646:Drivers/lvgl/src/draw/lv_draw_buf.c ****                               lv_color_format_t color_format)
 647:Drivers/lvgl/src/draw/lv_draw_buf.c **** {
  64              		.loc 1 647 1 is_stmt 1 view -0
  65              		.cfi_startproc
  66              		@ args = 0, pretend = 0, frame = 0
  67              		@ frame_needed = 0, uses_anonymous_args = 0
  68              		.loc 1 647 1 is_stmt 0 view .LVU11
  69 0000 08B5     		push	{r3, lr}
  70              	.LCFI0:
  71              		.cfi_def_cfa_offset 8
  72              		.cfi_offset 3, -8
  73              		.cfi_offset 14, -4
  74 0002 0B46     		mov	r3, r1
  75 0004 1146     		mov	r1, r2
  76              	.LVL4:
 648:Drivers/lvgl/src/draw/lv_draw_buf.c ****     if(handlers->buf_malloc_cb) return handlers->buf_malloc_cb(size_bytes, color_format);
  77              		.loc 1 648 5 is_stmt 1 view .LVU12
  78              		.loc 1 648 16 is_stmt 0 view .LVU13
  79 0006 0268     		ldr	r2, [r0]
  80              	.LVL5:
  81              		.loc 1 648 7 view .LVU14
  82 0008 12B1     		cbz	r2, .L6
  83              		.loc 1 648 33 is_stmt 1 discriminator 1 view .LVU15
  84              		.loc 1 648 40 is_stmt 0 discriminator 1 view .LVU16
  85 000a 1846     		mov	r0, r3
  86              	.LVL6:
  87              		.loc 1 648 40 discriminator 1 view .LVU17
  88 000c 9047     		blx	r2
  89              	.LVL7:
  90              	.L4:
 649:Drivers/lvgl/src/draw/lv_draw_buf.c ****     else return NULL;
 650:Drivers/lvgl/src/draw/lv_draw_buf.c **** }
  91              		.loc 1 650 1 view .LVU18
  92 000e 08BD     		pop	{r3, pc}
  93              	.LVL8:
  94              	.L6:
ARM GAS  /var/folders/qx/2_175_4n2s19vhvtspjhb3qh0000gn/T//ccxF66nk.s 			page 14


 649:Drivers/lvgl/src/draw/lv_draw_buf.c ****     else return NULL;
  95              		.loc 1 649 17 view .LVU19
  96 0010 0020     		movs	r0, #0
  97              	.LVL9:
 649:Drivers/lvgl/src/draw/lv_draw_buf.c ****     else return NULL;
  98              		.loc 1 649 17 view .LVU20
  99 0012 FCE7     		b	.L4
 100              		.cfi_endproc
 101              	.LFE227:
 103              		.section	.text.draw_buf_free,"ax",%progbits
 104              		.align	1
 105              		.syntax unified
 106              		.thumb
 107              		.thumb_func
 109              	draw_buf_free:
 110              	.LVL10:
 111              	.LFB228:
 651:Drivers/lvgl/src/draw/lv_draw_buf.c **** 
 652:Drivers/lvgl/src/draw/lv_draw_buf.c **** static void draw_buf_free(const lv_draw_buf_handlers_t * handlers, void * buf)
 653:Drivers/lvgl/src/draw/lv_draw_buf.c **** {
 112              		.loc 1 653 1 is_stmt 1 view -0
 113              		.cfi_startproc
 114              		@ args = 0, pretend = 0, frame = 0
 115              		@ frame_needed = 0, uses_anonymous_args = 0
 116              		.loc 1 653 1 is_stmt 0 view .LVU22
 117 0000 08B5     		push	{r3, lr}
 118              	.LCFI1:
 119              		.cfi_def_cfa_offset 8
 120              		.cfi_offset 3, -8
 121              		.cfi_offset 14, -4
 654:Drivers/lvgl/src/draw/lv_draw_buf.c ****     if(handlers->buf_free_cb)
 122              		.loc 1 654 5 is_stmt 1 view .LVU23
 123              		.loc 1 654 16 is_stmt 0 view .LVU24
 124 0002 4368     		ldr	r3, [r0, #4]
 125              		.loc 1 654 7 view .LVU25
 126 0004 0BB1     		cbz	r3, .L8
 655:Drivers/lvgl/src/draw/lv_draw_buf.c ****         handlers->buf_free_cb(buf);
 127              		.loc 1 655 9 is_stmt 1 view .LVU26
 128 0006 0846     		mov	r0, r1
 129              	.LVL11:
 130              		.loc 1 655 9 is_stmt 0 view .LVU27
 131 0008 9847     		blx	r3
 132              	.LVL12:
 133              	.L8:
 656:Drivers/lvgl/src/draw/lv_draw_buf.c **** }
 134              		.loc 1 656 1 view .LVU28
 135 000a 08BD     		pop	{r3, pc}
 136              		.cfi_endproc
 137              	.LFE228:
 139              		.section	.text.width_to_stride,"ax",%progbits
 140              		.align	1
 141              		.syntax unified
 142              		.thumb
 143              		.thumb_func
 145              	width_to_stride:
 146              	.LVL13:
 147              	.LFB226:
ARM GAS  /var/folders/qx/2_175_4n2s19vhvtspjhb3qh0000gn/T//ccxF66nk.s 			page 15


 637:Drivers/lvgl/src/draw/lv_draw_buf.c ****     uint32_t width_byte;
 148              		.loc 1 637 1 is_stmt 1 view -0
 149              		.cfi_startproc
 150              		@ args = 0, pretend = 0, frame = 0
 151              		@ frame_needed = 0, uses_anonymous_args = 0
 637:Drivers/lvgl/src/draw/lv_draw_buf.c ****     uint32_t width_byte;
 152              		.loc 1 637 1 is_stmt 0 view .LVU30
 153 0000 10B5     		push	{r4, lr}
 154              	.LCFI2:
 155              		.cfi_def_cfa_offset 8
 156              		.cfi_offset 4, -8
 157              		.cfi_offset 14, -4
 158 0002 0446     		mov	r4, r0
 638:Drivers/lvgl/src/draw/lv_draw_buf.c ****     width_byte = w * lv_color_format_get_bpp(color_format);
 159              		.loc 1 638 5 is_stmt 1 view .LVU31
 639:Drivers/lvgl/src/draw/lv_draw_buf.c ****     width_byte = (width_byte + 7) >> 3; /*Round up*/
 160              		.loc 1 639 5 view .LVU32
 639:Drivers/lvgl/src/draw/lv_draw_buf.c ****     width_byte = (width_byte + 7) >> 3; /*Round up*/
 161              		.loc 1 639 22 is_stmt 0 view .LVU33
 162 0004 0846     		mov	r0, r1
 163              	.LVL14:
 639:Drivers/lvgl/src/draw/lv_draw_buf.c ****     width_byte = (width_byte + 7) >> 3; /*Round up*/
 164              		.loc 1 639 22 view .LVU34
 165 0006 FFF7FEFF 		bl	lv_color_format_get_bpp
 166              	.LVL15:
 639:Drivers/lvgl/src/draw/lv_draw_buf.c ****     width_byte = (width_byte + 7) >> 3; /*Round up*/
 167              		.loc 1 639 16 discriminator 1 view .LVU35
 168 000a 04FB00F0 		mul	r0, r4, r0
 169              	.LVL16:
 640:Drivers/lvgl/src/draw/lv_draw_buf.c **** 
 170              		.loc 1 640 5 is_stmt 1 view .LVU36
 640:Drivers/lvgl/src/draw/lv_draw_buf.c **** 
 171              		.loc 1 640 30 is_stmt 0 view .LVU37
 172 000e 0730     		adds	r0, r0, #7
 173              	.LVL17:
 642:Drivers/lvgl/src/draw/lv_draw_buf.c **** }
 174              		.loc 1 642 5 is_stmt 1 view .LVU38
 643:Drivers/lvgl/src/draw/lv_draw_buf.c **** 
 175              		.loc 1 643 1 is_stmt 0 view .LVU39
 176 0010 C008     		lsrs	r0, r0, #3
 177              	.LVL18:
 643:Drivers/lvgl/src/draw/lv_draw_buf.c **** 
 178              		.loc 1 643 1 view .LVU40
 179 0012 10BD     		pop	{r4, pc}
 643:Drivers/lvgl/src/draw/lv_draw_buf.c **** 
 180              		.loc 1 643 1 view .LVU41
 181              		.cfi_endproc
 182              	.LFE226:
 184              		.section	.text.buf_free,"ax",%progbits
 185              		.align	1
 186              		.syntax unified
 187              		.thumb
 188              		.thumb_func
 190              	buf_free:
 191              	.LVL19:
 192              	.LFB223:
 563:Drivers/lvgl/src/draw/lv_draw_buf.c ****     lv_free(buf);
ARM GAS  /var/folders/qx/2_175_4n2s19vhvtspjhb3qh0000gn/T//ccxF66nk.s 			page 16


 193              		.loc 1 563 1 is_stmt 1 view -0
 194              		.cfi_startproc
 195              		@ args = 0, pretend = 0, frame = 0
 196              		@ frame_needed = 0, uses_anonymous_args = 0
 563:Drivers/lvgl/src/draw/lv_draw_buf.c ****     lv_free(buf);
 197              		.loc 1 563 1 is_stmt 0 view .LVU43
 198 0000 08B5     		push	{r3, lr}
 199              	.LCFI3:
 200              		.cfi_def_cfa_offset 8
 201              		.cfi_offset 3, -8
 202              		.cfi_offset 14, -4
 564:Drivers/lvgl/src/draw/lv_draw_buf.c **** }
 203              		.loc 1 564 5 is_stmt 1 view .LVU44
 204 0002 FFF7FEFF 		bl	lv_free
 205              	.LVL20:
 565:Drivers/lvgl/src/draw/lv_draw_buf.c **** 
 206              		.loc 1 565 1 is_stmt 0 view .LVU45
 207 0006 08BD     		pop	{r3, pc}
 208              		.cfi_endproc
 209              	.LFE223:
 211              		.section	.text.buf_malloc,"ax",%progbits
 212              		.align	1
 213              		.syntax unified
 214              		.thumb
 215              		.thumb_func
 217              	buf_malloc:
 218              	.LVL21:
 219              	.LFB222:
 554:Drivers/lvgl/src/draw/lv_draw_buf.c ****     LV_UNUSED(color_format);
 220              		.loc 1 554 1 is_stmt 1 view -0
 221              		.cfi_startproc
 222              		@ args = 0, pretend = 0, frame = 0
 223              		@ frame_needed = 0, uses_anonymous_args = 0
 554:Drivers/lvgl/src/draw/lv_draw_buf.c ****     LV_UNUSED(color_format);
 224              		.loc 1 554 1 is_stmt 0 view .LVU47
 225 0000 08B5     		push	{r3, lr}
 226              	.LCFI4:
 227              		.cfi_def_cfa_offset 8
 228              		.cfi_offset 3, -8
 229              		.cfi_offset 14, -4
 555:Drivers/lvgl/src/draw/lv_draw_buf.c **** 
 230              		.loc 1 555 5 is_stmt 1 view .LVU48
 558:Drivers/lvgl/src/draw/lv_draw_buf.c ****     return lv_malloc(size_bytes);
 231              		.loc 1 558 5 view .LVU49
 232              	.LVL22:
 559:Drivers/lvgl/src/draw/lv_draw_buf.c **** }
 233              		.loc 1 559 5 view .LVU50
 559:Drivers/lvgl/src/draw/lv_draw_buf.c **** }
 234              		.loc 1 559 12 is_stmt 0 view .LVU51
 235 0002 0330     		adds	r0, r0, #3
 236              	.LVL23:
 559:Drivers/lvgl/src/draw/lv_draw_buf.c **** }
 237              		.loc 1 559 12 view .LVU52
 238 0004 FFF7FEFF 		bl	lv_malloc
 239              	.LVL24:
 560:Drivers/lvgl/src/draw/lv_draw_buf.c **** 
 240              		.loc 1 560 1 view .LVU53
ARM GAS  /var/folders/qx/2_175_4n2s19vhvtspjhb3qh0000gn/T//ccxF66nk.s 			page 17


 241 0008 08BD     		pop	{r3, pc}
 242              		.cfi_endproc
 243              	.LFE222:
 245              		.section	.text.draw_buf_get_full_area,"ax",%progbits
 246              		.align	1
 247              		.syntax unified
 248              		.thumb
 249              		.thumb_func
 251              	draw_buf_get_full_area:
 252              	.LVL25:
 253              	.LFB230:
 657:Drivers/lvgl/src/draw/lv_draw_buf.c **** 
 658:Drivers/lvgl/src/draw/lv_draw_buf.c **** /**
 659:Drivers/lvgl/src/draw/lv_draw_buf.c ****  * For given width, height, color format, and stride, calculate the size needed for a new draw buff
 660:Drivers/lvgl/src/draw/lv_draw_buf.c ****  */
 661:Drivers/lvgl/src/draw/lv_draw_buf.c **** static uint32_t _calculate_draw_buf_size(uint32_t w, uint32_t h, lv_color_format_t cf, uint32_t str
 662:Drivers/lvgl/src/draw/lv_draw_buf.c **** {
 663:Drivers/lvgl/src/draw/lv_draw_buf.c ****     uint32_t size;
 664:Drivers/lvgl/src/draw/lv_draw_buf.c **** 
 665:Drivers/lvgl/src/draw/lv_draw_buf.c ****     if(stride == 0) stride = lv_draw_buf_width_to_stride(w, cf);
 666:Drivers/lvgl/src/draw/lv_draw_buf.c **** 
 667:Drivers/lvgl/src/draw/lv_draw_buf.c ****     size = stride * h;
 668:Drivers/lvgl/src/draw/lv_draw_buf.c ****     if(cf == LV_COLOR_FORMAT_RGB565A8) {
 669:Drivers/lvgl/src/draw/lv_draw_buf.c ****         size += (stride / 2) * h; /*A8 mask*/
 670:Drivers/lvgl/src/draw/lv_draw_buf.c ****     }
 671:Drivers/lvgl/src/draw/lv_draw_buf.c ****     else if(LV_COLOR_FORMAT_IS_INDEXED(cf)) {
 672:Drivers/lvgl/src/draw/lv_draw_buf.c ****         /*@todo we have to include palette right before image data*/
 673:Drivers/lvgl/src/draw/lv_draw_buf.c ****         size += LV_COLOR_INDEXED_PALETTE_SIZE(cf) * 4;
 674:Drivers/lvgl/src/draw/lv_draw_buf.c ****     }
 675:Drivers/lvgl/src/draw/lv_draw_buf.c **** 
 676:Drivers/lvgl/src/draw/lv_draw_buf.c ****     return size;
 677:Drivers/lvgl/src/draw/lv_draw_buf.c **** }
 678:Drivers/lvgl/src/draw/lv_draw_buf.c **** 
 679:Drivers/lvgl/src/draw/lv_draw_buf.c **** static void draw_buf_get_full_area(const lv_draw_buf_t * draw_buf, lv_area_t * full_area)
 680:Drivers/lvgl/src/draw/lv_draw_buf.c **** {
 254              		.loc 1 680 1 is_stmt 1 view -0
 255              		.cfi_startproc
 256              		@ args = 0, pretend = 0, frame = 0
 257              		@ frame_needed = 0, uses_anonymous_args = 0
 258              		.loc 1 680 1 is_stmt 0 view .LVU55
 259 0000 00B5     		push	{lr}
 260              	.LCFI5:
 261              		.cfi_def_cfa_offset 4
 262              		.cfi_offset 14, -4
 263 0002 83B0     		sub	sp, sp, #12
 264              	.LCFI6:
 265              		.cfi_def_cfa_offset 16
 266 0004 0246     		mov	r2, r0
 267 0006 0846     		mov	r0, r1
 268              	.LVL26:
 681:Drivers/lvgl/src/draw/lv_draw_buf.c ****     const lv_image_header_t * header = &draw_buf->header;
 269              		.loc 1 681 5 is_stmt 1 view .LVU56
 682:Drivers/lvgl/src/draw/lv_draw_buf.c ****     lv_area_set(full_area, 0, 0, header->w - 1, header->h - 1);
 270              		.loc 1 682 5 view .LVU57
 271              		.loc 1 682 40 is_stmt 0 view .LVU58
 272 0008 9388     		ldrh	r3, [r2, #4]
 273              		.loc 1 682 55 view .LVU59
ARM GAS  /var/folders/qx/2_175_4n2s19vhvtspjhb3qh0000gn/T//ccxF66nk.s 			page 18


 274 000a D288     		ldrh	r2, [r2, #6]
 275              	.LVL27:
 276              		.loc 1 682 59 view .LVU60
 277 000c 013A     		subs	r2, r2, #1
 278              		.loc 1 682 5 view .LVU61
 279 000e 0092     		str	r2, [sp]
 280 0010 013B     		subs	r3, r3, #1
 281 0012 0022     		movs	r2, #0
 282 0014 1146     		mov	r1, r2
 283              	.LVL28:
 284              		.loc 1 682 5 view .LVU62
 285 0016 FFF7FEFF 		bl	lv_area_set
 286              	.LVL29:
 683:Drivers/lvgl/src/draw/lv_draw_buf.c **** }
 287              		.loc 1 683 1 view .LVU63
 288 001a 03B0     		add	sp, sp, #12
 289              	.LCFI7:
 290              		.cfi_def_cfa_offset 4
 291              		@ sp needed
 292 001c 5DF804FB 		ldr	pc, [sp], #4
 293              		.cfi_endproc
 294              	.LFE230:
 296              		.section	.text.lv_draw_buf_handlers_init,"ax",%progbits
 297              		.align	1
 298              		.global	lv_draw_buf_handlers_init
 299              		.syntax unified
 300              		.thumb
 301              		.thumb_func
 303              	lv_draw_buf_handlers_init:
 304              	.LVL30:
 305              	.LFB195:
  75:Drivers/lvgl/src/draw/lv_draw_buf.c ****     lv_memzero(handlers, sizeof(lv_draw_buf_handlers_t));
 306              		.loc 1 75 1 is_stmt 1 view -0
 307              		.cfi_startproc
 308              		@ args = 16, pretend = 0, frame = 0
 309              		@ frame_needed = 0, uses_anonymous_args = 0
  75:Drivers/lvgl/src/draw/lv_draw_buf.c ****     lv_memzero(handlers, sizeof(lv_draw_buf_handlers_t));
 310              		.loc 1 75 1 is_stmt 0 view .LVU65
 311 0000 F8B5     		push	{r3, r4, r5, r6, r7, lr}
 312              	.LCFI8:
 313              		.cfi_def_cfa_offset 24
 314              		.cfi_offset 3, -24
 315              		.cfi_offset 4, -20
 316              		.cfi_offset 5, -16
 317              		.cfi_offset 6, -12
 318              		.cfi_offset 7, -8
 319              		.cfi_offset 14, -4
 320 0002 0446     		mov	r4, r0
 321 0004 0F46     		mov	r7, r1
 322 0006 1646     		mov	r6, r2
 323 0008 1D46     		mov	r5, r3
  76:Drivers/lvgl/src/draw/lv_draw_buf.c ****     handlers->buf_malloc_cb = buf_malloc_cb;
 324              		.loc 1 76 5 is_stmt 1 view .LVU66
 325              	.LVL31:
 326              	.LBB29:
 327              	.LBI29:
 328              		.file 2 "Drivers/lvgl/src/draw/../misc/../stdlib/lv_string.h"
ARM GAS  /var/folders/qx/2_175_4n2s19vhvtspjhb3qh0000gn/T//ccxF66nk.s 			page 19


   1:Drivers/lvgl/src/draw/../misc/../stdlib/lv_string.h **** /**
   2:Drivers/lvgl/src/draw/../misc/../stdlib/lv_string.h ****  * @file lv_string.h
   3:Drivers/lvgl/src/draw/../misc/../stdlib/lv_string.h ****  *
   4:Drivers/lvgl/src/draw/../misc/../stdlib/lv_string.h ****  */
   5:Drivers/lvgl/src/draw/../misc/../stdlib/lv_string.h **** 
   6:Drivers/lvgl/src/draw/../misc/../stdlib/lv_string.h **** #ifndef LV_STRING_H
   7:Drivers/lvgl/src/draw/../misc/../stdlib/lv_string.h **** #define LV_STRING_H
   8:Drivers/lvgl/src/draw/../misc/../stdlib/lv_string.h **** 
   9:Drivers/lvgl/src/draw/../misc/../stdlib/lv_string.h **** #ifdef __cplusplus
  10:Drivers/lvgl/src/draw/../misc/../stdlib/lv_string.h **** extern "C" {
  11:Drivers/lvgl/src/draw/../misc/../stdlib/lv_string.h **** #endif
  12:Drivers/lvgl/src/draw/../misc/../stdlib/lv_string.h **** 
  13:Drivers/lvgl/src/draw/../misc/../stdlib/lv_string.h **** /*********************
  14:Drivers/lvgl/src/draw/../misc/../stdlib/lv_string.h ****  *      INCLUDES
  15:Drivers/lvgl/src/draw/../misc/../stdlib/lv_string.h ****  *********************/
  16:Drivers/lvgl/src/draw/../misc/../stdlib/lv_string.h **** #include "../lv_conf_internal.h"
  17:Drivers/lvgl/src/draw/../misc/../stdlib/lv_string.h **** #include "../misc/lv_types.h"
  18:Drivers/lvgl/src/draw/../misc/../stdlib/lv_string.h **** 
  19:Drivers/lvgl/src/draw/../misc/../stdlib/lv_string.h **** /*********************
  20:Drivers/lvgl/src/draw/../misc/../stdlib/lv_string.h ****  *      DEFINES
  21:Drivers/lvgl/src/draw/../misc/../stdlib/lv_string.h ****  *********************/
  22:Drivers/lvgl/src/draw/../misc/../stdlib/lv_string.h **** 
  23:Drivers/lvgl/src/draw/../misc/../stdlib/lv_string.h **** /**********************
  24:Drivers/lvgl/src/draw/../misc/../stdlib/lv_string.h ****  *      TYPEDEFS
  25:Drivers/lvgl/src/draw/../misc/../stdlib/lv_string.h ****  **********************/
  26:Drivers/lvgl/src/draw/../misc/../stdlib/lv_string.h **** 
  27:Drivers/lvgl/src/draw/../misc/../stdlib/lv_string.h **** /**********************
  28:Drivers/lvgl/src/draw/../misc/../stdlib/lv_string.h ****  * GLOBAL PROTOTYPES
  29:Drivers/lvgl/src/draw/../misc/../stdlib/lv_string.h ****  **********************/
  30:Drivers/lvgl/src/draw/../misc/../stdlib/lv_string.h **** 
  31:Drivers/lvgl/src/draw/../misc/../stdlib/lv_string.h **** /**
  32:Drivers/lvgl/src/draw/../misc/../stdlib/lv_string.h ****  * @brief Copies a block of memory from a source address to a destination address.
  33:Drivers/lvgl/src/draw/../misc/../stdlib/lv_string.h ****  * @param dst Pointer to the destination array where the content is to be copied.
  34:Drivers/lvgl/src/draw/../misc/../stdlib/lv_string.h ****  * @param src Pointer to the source of data to be copied.
  35:Drivers/lvgl/src/draw/../misc/../stdlib/lv_string.h ****  * @param len Number of bytes to copy.
  36:Drivers/lvgl/src/draw/../misc/../stdlib/lv_string.h ****  * @return Pointer to the destination array.
  37:Drivers/lvgl/src/draw/../misc/../stdlib/lv_string.h ****  * @note The function does not check for any overlapping of the source and destination memory block
  38:Drivers/lvgl/src/draw/../misc/../stdlib/lv_string.h ****  */
  39:Drivers/lvgl/src/draw/../misc/../stdlib/lv_string.h **** void * lv_memcpy(void * dst, const void * src, size_t len);
  40:Drivers/lvgl/src/draw/../misc/../stdlib/lv_string.h **** 
  41:Drivers/lvgl/src/draw/../misc/../stdlib/lv_string.h **** /**
  42:Drivers/lvgl/src/draw/../misc/../stdlib/lv_string.h ****  * @brief Fills a block of memory with a specified value.
  43:Drivers/lvgl/src/draw/../misc/../stdlib/lv_string.h ****  * @param dst Pointer to the destination array to fill with the specified value.
  44:Drivers/lvgl/src/draw/../misc/../stdlib/lv_string.h ****  * @param v Value to be set. The value is passed as an int, but the function fills
  45:Drivers/lvgl/src/draw/../misc/../stdlib/lv_string.h ****  *          the block of memory using the unsigned char conversion of this value.
  46:Drivers/lvgl/src/draw/../misc/../stdlib/lv_string.h ****  * @param len Number of bytes to be set to the value.
  47:Drivers/lvgl/src/draw/../misc/../stdlib/lv_string.h ****  */
  48:Drivers/lvgl/src/draw/../misc/../stdlib/lv_string.h **** void lv_memset(void * dst, uint8_t v, size_t len);
  49:Drivers/lvgl/src/draw/../misc/../stdlib/lv_string.h **** 
  50:Drivers/lvgl/src/draw/../misc/../stdlib/lv_string.h **** /**
  51:Drivers/lvgl/src/draw/../misc/../stdlib/lv_string.h ****  * @brief Move a block of memory from source to destination
  52:Drivers/lvgl/src/draw/../misc/../stdlib/lv_string.h ****  * @param dst Pointer to the destination array where the content is to be copied.
  53:Drivers/lvgl/src/draw/../misc/../stdlib/lv_string.h ****  * @param src Pointer to the source of data to be copied.
  54:Drivers/lvgl/src/draw/../misc/../stdlib/lv_string.h ****  * @param len Number of bytes to copy
  55:Drivers/lvgl/src/draw/../misc/../stdlib/lv_string.h ****  * @return Pointer to the destination array.
  56:Drivers/lvgl/src/draw/../misc/../stdlib/lv_string.h ****  */
  57:Drivers/lvgl/src/draw/../misc/../stdlib/lv_string.h **** void * lv_memmove(void * dst, const void * src, size_t len);
ARM GAS  /var/folders/qx/2_175_4n2s19vhvtspjhb3qh0000gn/T//ccxF66nk.s 			page 20


  58:Drivers/lvgl/src/draw/../misc/../stdlib/lv_string.h **** 
  59:Drivers/lvgl/src/draw/../misc/../stdlib/lv_string.h **** /**
  60:Drivers/lvgl/src/draw/../misc/../stdlib/lv_string.h ****  * @brief This function will compare two memory blocks
  61:Drivers/lvgl/src/draw/../misc/../stdlib/lv_string.h ****  * @param p1 Pointer to the first memory block
  62:Drivers/lvgl/src/draw/../misc/../stdlib/lv_string.h ****  * @param p2 Pointer to the second memory block
  63:Drivers/lvgl/src/draw/../misc/../stdlib/lv_string.h ****  * @param len Number of bytes to compare
  64:Drivers/lvgl/src/draw/../misc/../stdlib/lv_string.h ****  * @return The difference between the value of the first unmatching byte.
  65:Drivers/lvgl/src/draw/../misc/../stdlib/lv_string.h ****  */
  66:Drivers/lvgl/src/draw/../misc/../stdlib/lv_string.h **** int lv_memcmp(const void * p1, const void * p2, size_t len);
  67:Drivers/lvgl/src/draw/../misc/../stdlib/lv_string.h **** 
  68:Drivers/lvgl/src/draw/../misc/../stdlib/lv_string.h **** /**
  69:Drivers/lvgl/src/draw/../misc/../stdlib/lv_string.h ****  * Same as `memset(dst, 0x00, len)`.
  70:Drivers/lvgl/src/draw/../misc/../stdlib/lv_string.h ****  * @param dst pointer to the destination buffer
  71:Drivers/lvgl/src/draw/../misc/../stdlib/lv_string.h ****  * @param len number of byte to set
  72:Drivers/lvgl/src/draw/../misc/../stdlib/lv_string.h ****  */
  73:Drivers/lvgl/src/draw/../misc/../stdlib/lv_string.h **** static inline void lv_memzero(void * dst, size_t len)
 329              		.loc 2 73 20 view .LVU67
 330              	.LBB30:
  74:Drivers/lvgl/src/draw/../misc/../stdlib/lv_string.h **** {
  75:Drivers/lvgl/src/draw/../misc/../stdlib/lv_string.h ****     lv_memset(dst, 0x00, len);
 331              		.loc 2 75 5 view .LVU68
 332 000a 1C22     		movs	r2, #28
 333              	.LVL32:
 334              		.loc 2 75 5 is_stmt 0 view .LVU69
 335 000c 0021     		movs	r1, #0
 336              	.LVL33:
 337              		.loc 2 75 5 view .LVU70
 338 000e FFF7FEFF 		bl	lv_memset
 339              	.LVL34:
 340              		.loc 2 75 5 view .LVU71
 341              	.LBE30:
 342              	.LBE29:
  77:Drivers/lvgl/src/draw/lv_draw_buf.c ****     handlers->buf_free_cb = buf_free_cb;
 343              		.loc 1 77 5 is_stmt 1 view .LVU72
  77:Drivers/lvgl/src/draw/lv_draw_buf.c ****     handlers->buf_free_cb = buf_free_cb;
 344              		.loc 1 77 29 is_stmt 0 view .LVU73
 345 0012 2760     		str	r7, [r4]
  78:Drivers/lvgl/src/draw/lv_draw_buf.c ****     handlers->buf_copy_cb = buf_copy_cb;
 346              		.loc 1 78 5 is_stmt 1 view .LVU74
  78:Drivers/lvgl/src/draw/lv_draw_buf.c ****     handlers->buf_copy_cb = buf_copy_cb;
 347              		.loc 1 78 27 is_stmt 0 view .LVU75
 348 0014 6660     		str	r6, [r4, #4]
  79:Drivers/lvgl/src/draw/lv_draw_buf.c ****     handlers->align_pointer_cb = align_pointer_cb;
 349              		.loc 1 79 5 is_stmt 1 view .LVU76
  79:Drivers/lvgl/src/draw/lv_draw_buf.c ****     handlers->align_pointer_cb = align_pointer_cb;
 350              		.loc 1 79 27 is_stmt 0 view .LVU77
 351 0016 A560     		str	r5, [r4, #8]
  80:Drivers/lvgl/src/draw/lv_draw_buf.c ****     handlers->invalidate_cache_cb = invalidate_cache_cb;
 352              		.loc 1 80 5 is_stmt 1 view .LVU78
  80:Drivers/lvgl/src/draw/lv_draw_buf.c ****     handlers->invalidate_cache_cb = invalidate_cache_cb;
 353              		.loc 1 80 32 is_stmt 0 view .LVU79
 354 0018 069B     		ldr	r3, [sp, #24]
 355 001a E360     		str	r3, [r4, #12]
  81:Drivers/lvgl/src/draw/lv_draw_buf.c ****     handlers->flush_cache_cb = flush_cache_cb;
 356              		.loc 1 81 5 is_stmt 1 view .LVU80
  81:Drivers/lvgl/src/draw/lv_draw_buf.c ****     handlers->flush_cache_cb = flush_cache_cb;
 357              		.loc 1 81 35 is_stmt 0 view .LVU81
ARM GAS  /var/folders/qx/2_175_4n2s19vhvtspjhb3qh0000gn/T//ccxF66nk.s 			page 21


 358 001c 079B     		ldr	r3, [sp, #28]
 359 001e 2361     		str	r3, [r4, #16]
  82:Drivers/lvgl/src/draw/lv_draw_buf.c ****     handlers->width_to_stride_cb = width_to_stride_cb;
 360              		.loc 1 82 5 is_stmt 1 view .LVU82
  82:Drivers/lvgl/src/draw/lv_draw_buf.c ****     handlers->width_to_stride_cb = width_to_stride_cb;
 361              		.loc 1 82 30 is_stmt 0 view .LVU83
 362 0020 089B     		ldr	r3, [sp, #32]
 363 0022 6361     		str	r3, [r4, #20]
  83:Drivers/lvgl/src/draw/lv_draw_buf.c **** }
 364              		.loc 1 83 5 is_stmt 1 view .LVU84
  83:Drivers/lvgl/src/draw/lv_draw_buf.c **** }
 365              		.loc 1 83 34 is_stmt 0 view .LVU85
 366 0024 099B     		ldr	r3, [sp, #36]
 367 0026 A361     		str	r3, [r4, #24]
  84:Drivers/lvgl/src/draw/lv_draw_buf.c **** 
 368              		.loc 1 84 1 view .LVU86
 369 0028 F8BD     		pop	{r3, r4, r5, r6, r7, pc}
  84:Drivers/lvgl/src/draw/lv_draw_buf.c **** 
 370              		.loc 1 84 1 view .LVU87
 371              		.cfi_endproc
 372              	.LFE195:
 374              		.section	.text.lv_draw_buf_init_with_default_handlers,"ax",%progbits
 375              		.align	1
 376              		.global	lv_draw_buf_init_with_default_handlers
 377              		.syntax unified
 378              		.thumb
 379              		.thumb_func
 381              	lv_draw_buf_init_with_default_handlers:
 382              	.LVL35:
 383              	.LFB194:
  63:Drivers/lvgl/src/draw/lv_draw_buf.c ****     lv_draw_buf_handlers_init(handlers, buf_malloc, buf_free, buf_copy, buf_align, NULL, NULL, widt
 384              		.loc 1 63 1 is_stmt 1 view -0
 385              		.cfi_startproc
 386              		@ args = 0, pretend = 0, frame = 0
 387              		@ frame_needed = 0, uses_anonymous_args = 0
  63:Drivers/lvgl/src/draw/lv_draw_buf.c ****     lv_draw_buf_handlers_init(handlers, buf_malloc, buf_free, buf_copy, buf_align, NULL, NULL, widt
 388              		.loc 1 63 1 is_stmt 0 view .LVU89
 389 0000 00B5     		push	{lr}
 390              	.LCFI9:
 391              		.cfi_def_cfa_offset 4
 392              		.cfi_offset 14, -4
 393 0002 85B0     		sub	sp, sp, #20
 394              	.LCFI10:
 395              		.cfi_def_cfa_offset 24
  64:Drivers/lvgl/src/draw/lv_draw_buf.c **** }
 396              		.loc 1 64 5 is_stmt 1 view .LVU90
 397 0004 074B     		ldr	r3, .L23
 398 0006 0393     		str	r3, [sp, #12]
 399 0008 0023     		movs	r3, #0
 400 000a 0293     		str	r3, [sp, #8]
 401 000c 0193     		str	r3, [sp, #4]
 402 000e 064B     		ldr	r3, .L23+4
 403 0010 0093     		str	r3, [sp]
 404 0012 064B     		ldr	r3, .L23+8
 405 0014 064A     		ldr	r2, .L23+12
 406 0016 0749     		ldr	r1, .L23+16
 407 0018 FFF7FEFF 		bl	lv_draw_buf_handlers_init
ARM GAS  /var/folders/qx/2_175_4n2s19vhvtspjhb3qh0000gn/T//ccxF66nk.s 			page 22


 408              	.LVL36:
  65:Drivers/lvgl/src/draw/lv_draw_buf.c **** 
 409              		.loc 1 65 1 is_stmt 0 view .LVU91
 410 001c 05B0     		add	sp, sp, #20
 411              	.LCFI11:
 412              		.cfi_def_cfa_offset 4
 413              		@ sp needed
 414 001e 5DF804FB 		ldr	pc, [sp], #4
 415              	.L24:
 416 0022 00BF     		.align	2
 417              	.L23:
 418 0024 00000000 		.word	width_to_stride
 419 0028 00000000 		.word	buf_align
 420 002c 00000000 		.word	buf_copy
 421 0030 00000000 		.word	buf_free
 422 0034 00000000 		.word	buf_malloc
 423              		.cfi_endproc
 424              	.LFE194:
 426              		.section	.text.lv_draw_buf_init_handlers,"ax",%progbits
 427              		.align	1
 428              		.global	lv_draw_buf_init_handlers
 429              		.syntax unified
 430              		.thumb
 431              		.thumb_func
 433              	lv_draw_buf_init_handlers:
 434              	.LFB193:
  56:Drivers/lvgl/src/draw/lv_draw_buf.c ****     lv_draw_buf_init_with_default_handlers(&default_handlers);
 435              		.loc 1 56 1 is_stmt 1 view -0
 436              		.cfi_startproc
 437              		@ args = 0, pretend = 0, frame = 0
 438              		@ frame_needed = 0, uses_anonymous_args = 0
 439 0000 10B5     		push	{r4, lr}
 440              	.LCFI12:
 441              		.cfi_def_cfa_offset 8
 442              		.cfi_offset 4, -8
 443              		.cfi_offset 14, -4
  57:Drivers/lvgl/src/draw/lv_draw_buf.c ****     lv_draw_buf_init_with_default_handlers(&font_draw_buf_handlers);
 444              		.loc 1 57 5 view .LVU93
 445 0002 064C     		ldr	r4, .L27
 446 0004 2046     		mov	r0, r4
 447 0006 FFF7FEFF 		bl	lv_draw_buf_init_with_default_handlers
 448              	.LVL37:
  58:Drivers/lvgl/src/draw/lv_draw_buf.c ****     lv_draw_buf_init_with_default_handlers(&image_cache_draw_buf_handlers);
 449              		.loc 1 58 5 view .LVU94
 450 000a 04F11C00 		add	r0, r4, #28
 451 000e FFF7FEFF 		bl	lv_draw_buf_init_with_default_handlers
 452              	.LVL38:
  59:Drivers/lvgl/src/draw/lv_draw_buf.c **** }
 453              		.loc 1 59 5 view .LVU95
 454 0012 04F13800 		add	r0, r4, #56
 455 0016 FFF7FEFF 		bl	lv_draw_buf_init_with_default_handlers
 456              	.LVL39:
  60:Drivers/lvgl/src/draw/lv_draw_buf.c **** 
 457              		.loc 1 60 1 is_stmt 0 view .LVU96
 458 001a 10BD     		pop	{r4, pc}
 459              	.L28:
 460              		.align	2
ARM GAS  /var/folders/qx/2_175_4n2s19vhvtspjhb3qh0000gn/T//ccxF66nk.s 			page 23


 461              	.L27:
 462 001c CC000000 		.word	lv_global+204
 463              		.cfi_endproc
 464              	.LFE193:
 466              		.section	.text.lv_draw_buf_get_handlers,"ax",%progbits
 467              		.align	1
 468              		.global	lv_draw_buf_get_handlers
 469              		.syntax unified
 470              		.thumb
 471              		.thumb_func
 473              	lv_draw_buf_get_handlers:
 474              	.LFB196:
  87:Drivers/lvgl/src/draw/lv_draw_buf.c ****     return &default_handlers;
 475              		.loc 1 87 1 is_stmt 1 view -0
 476              		.cfi_startproc
 477              		@ args = 0, pretend = 0, frame = 0
 478              		@ frame_needed = 0, uses_anonymous_args = 0
 479              		@ link register save eliminated.
  88:Drivers/lvgl/src/draw/lv_draw_buf.c **** }
 480              		.loc 1 88 5 view .LVU98
  89:Drivers/lvgl/src/draw/lv_draw_buf.c **** 
 481              		.loc 1 89 1 is_stmt 0 view .LVU99
 482 0000 0048     		ldr	r0, .L30
 483 0002 7047     		bx	lr
 484              	.L31:
 485              		.align	2
 486              	.L30:
 487 0004 CC000000 		.word	lv_global+204
 488              		.cfi_endproc
 489              	.LFE196:
 491              		.section	.text.lv_draw_buf_get_font_handlers,"ax",%progbits
 492              		.align	1
 493              		.global	lv_draw_buf_get_font_handlers
 494              		.syntax unified
 495              		.thumb
 496              		.thumb_func
 498              	lv_draw_buf_get_font_handlers:
 499              	.LFB197:
  92:Drivers/lvgl/src/draw/lv_draw_buf.c ****     return &font_draw_buf_handlers;
 500              		.loc 1 92 1 is_stmt 1 view -0
 501              		.cfi_startproc
 502              		@ args = 0, pretend = 0, frame = 0
 503              		@ frame_needed = 0, uses_anonymous_args = 0
 504              		@ link register save eliminated.
  93:Drivers/lvgl/src/draw/lv_draw_buf.c **** }
 505              		.loc 1 93 5 view .LVU101
  94:Drivers/lvgl/src/draw/lv_draw_buf.c **** 
 506              		.loc 1 94 1 is_stmt 0 view .LVU102
 507 0000 0048     		ldr	r0, .L33
 508 0002 7047     		bx	lr
 509              	.L34:
 510              		.align	2
 511              	.L33:
 512 0004 E8000000 		.word	lv_global+232
 513              		.cfi_endproc
 514              	.LFE197:
 516              		.section	.text.lv_draw_buf_get_image_handlers,"ax",%progbits
ARM GAS  /var/folders/qx/2_175_4n2s19vhvtspjhb3qh0000gn/T//ccxF66nk.s 			page 24


 517              		.align	1
 518              		.global	lv_draw_buf_get_image_handlers
 519              		.syntax unified
 520              		.thumb
 521              		.thumb_func
 523              	lv_draw_buf_get_image_handlers:
 524              	.LFB198:
  97:Drivers/lvgl/src/draw/lv_draw_buf.c ****     return &image_cache_draw_buf_handlers;
 525              		.loc 1 97 1 is_stmt 1 view -0
 526              		.cfi_startproc
 527              		@ args = 0, pretend = 0, frame = 0
 528              		@ frame_needed = 0, uses_anonymous_args = 0
 529              		@ link register save eliminated.
  98:Drivers/lvgl/src/draw/lv_draw_buf.c **** }
 530              		.loc 1 98 5 view .LVU104
  99:Drivers/lvgl/src/draw/lv_draw_buf.c **** 
 531              		.loc 1 99 1 is_stmt 0 view .LVU105
 532 0000 0048     		ldr	r0, .L36
 533 0002 7047     		bx	lr
 534              	.L37:
 535              		.align	2
 536              	.L36:
 537 0004 04010000 		.word	lv_global+260
 538              		.cfi_endproc
 539              	.LFE198:
 541              		.section	.text.lv_draw_buf_width_to_stride_ex,"ax",%progbits
 542              		.align	1
 543              		.global	lv_draw_buf_width_to_stride_ex
 544              		.syntax unified
 545              		.thumb
 546              		.thumb_func
 548              	lv_draw_buf_width_to_stride_ex:
 549              	.LVL40:
 550              	.LFB200:
 108:Drivers/lvgl/src/draw/lv_draw_buf.c ****     if(handlers->width_to_stride_cb) return handlers->width_to_stride_cb(w, color_format);
 551              		.loc 1 108 1 is_stmt 1 view -0
 552              		.cfi_startproc
 553              		@ args = 0, pretend = 0, frame = 0
 554              		@ frame_needed = 0, uses_anonymous_args = 0
 108:Drivers/lvgl/src/draw/lv_draw_buf.c ****     if(handlers->width_to_stride_cb) return handlers->width_to_stride_cb(w, color_format);
 555              		.loc 1 108 1 is_stmt 0 view .LVU107
 556 0000 08B5     		push	{r3, lr}
 557              	.LCFI13:
 558              		.cfi_def_cfa_offset 8
 559              		.cfi_offset 3, -8
 560              		.cfi_offset 14, -4
 561 0002 0B46     		mov	r3, r1
 562 0004 1146     		mov	r1, r2
 563              	.LVL41:
 109:Drivers/lvgl/src/draw/lv_draw_buf.c ****     else return 0;
 564              		.loc 1 109 5 is_stmt 1 view .LVU108
 109:Drivers/lvgl/src/draw/lv_draw_buf.c ****     else return 0;
 565              		.loc 1 109 16 is_stmt 0 view .LVU109
 566 0006 8269     		ldr	r2, [r0, #24]
 567              	.LVL42:
 109:Drivers/lvgl/src/draw/lv_draw_buf.c ****     else return 0;
 568              		.loc 1 109 7 view .LVU110
ARM GAS  /var/folders/qx/2_175_4n2s19vhvtspjhb3qh0000gn/T//ccxF66nk.s 			page 25


 569 0008 12B1     		cbz	r2, .L40
 109:Drivers/lvgl/src/draw/lv_draw_buf.c ****     else return 0;
 570              		.loc 1 109 38 is_stmt 1 discriminator 1 view .LVU111
 109:Drivers/lvgl/src/draw/lv_draw_buf.c ****     else return 0;
 571              		.loc 1 109 45 is_stmt 0 discriminator 1 view .LVU112
 572 000a 1846     		mov	r0, r3
 573              	.LVL43:
 109:Drivers/lvgl/src/draw/lv_draw_buf.c ****     else return 0;
 574              		.loc 1 109 45 discriminator 1 view .LVU113
 575 000c 9047     		blx	r2
 576              	.LVL44:
 577              	.L38:
 111:Drivers/lvgl/src/draw/lv_draw_buf.c **** 
 578              		.loc 1 111 1 view .LVU114
 579 000e 08BD     		pop	{r3, pc}
 580              	.LVL45:
 581              	.L40:
 110:Drivers/lvgl/src/draw/lv_draw_buf.c **** }
 582              		.loc 1 110 17 view .LVU115
 583 0010 0020     		movs	r0, #0
 584              	.LVL46:
 110:Drivers/lvgl/src/draw/lv_draw_buf.c **** }
 585              		.loc 1 110 17 view .LVU116
 586 0012 FCE7     		b	.L38
 587              		.cfi_endproc
 588              	.LFE200:
 590              		.section	.text.lv_draw_buf_width_to_stride,"ax",%progbits
 591              		.align	1
 592              		.global	lv_draw_buf_width_to_stride
 593              		.syntax unified
 594              		.thumb
 595              		.thumb_func
 597              	lv_draw_buf_width_to_stride:
 598              	.LVL47:
 599              	.LFB199:
 102:Drivers/lvgl/src/draw/lv_draw_buf.c ****     return lv_draw_buf_width_to_stride_ex(&default_handlers, w, color_format);
 600              		.loc 1 102 1 is_stmt 1 view -0
 601              		.cfi_startproc
 602              		@ args = 0, pretend = 0, frame = 0
 603              		@ frame_needed = 0, uses_anonymous_args = 0
 102:Drivers/lvgl/src/draw/lv_draw_buf.c ****     return lv_draw_buf_width_to_stride_ex(&default_handlers, w, color_format);
 604              		.loc 1 102 1 is_stmt 0 view .LVU118
 605 0000 08B5     		push	{r3, lr}
 606              	.LCFI14:
 607              		.cfi_def_cfa_offset 8
 608              		.cfi_offset 3, -8
 609              		.cfi_offset 14, -4
 610 0002 0A46     		mov	r2, r1
 103:Drivers/lvgl/src/draw/lv_draw_buf.c **** }
 611              		.loc 1 103 5 is_stmt 1 view .LVU119
 103:Drivers/lvgl/src/draw/lv_draw_buf.c **** }
 612              		.loc 1 103 12 is_stmt 0 view .LVU120
 613 0004 0146     		mov	r1, r0
 614              	.LVL48:
 103:Drivers/lvgl/src/draw/lv_draw_buf.c **** }
 615              		.loc 1 103 12 view .LVU121
 616 0006 0248     		ldr	r0, .L44
ARM GAS  /var/folders/qx/2_175_4n2s19vhvtspjhb3qh0000gn/T//ccxF66nk.s 			page 26


 617              	.LVL49:
 103:Drivers/lvgl/src/draw/lv_draw_buf.c **** }
 618              		.loc 1 103 12 view .LVU122
 619 0008 FFF7FEFF 		bl	lv_draw_buf_width_to_stride_ex
 620              	.LVL50:
 104:Drivers/lvgl/src/draw/lv_draw_buf.c **** 
 621              		.loc 1 104 1 view .LVU123
 622 000c 08BD     		pop	{r3, pc}
 623              	.L45:
 624 000e 00BF     		.align	2
 625              	.L44:
 626 0010 CC000000 		.word	lv_global+204
 627              		.cfi_endproc
 628              	.LFE199:
 630              		.section	.text._calculate_draw_buf_size,"ax",%progbits
 631              		.align	1
 632              		.syntax unified
 633              		.thumb
 634              		.thumb_func
 636              	_calculate_draw_buf_size:
 637              	.LVL51:
 638              	.LFB229:
 662:Drivers/lvgl/src/draw/lv_draw_buf.c ****     uint32_t size;
 639              		.loc 1 662 1 is_stmt 1 view -0
 640              		.cfi_startproc
 641              		@ args = 0, pretend = 0, frame = 0
 642              		@ frame_needed = 0, uses_anonymous_args = 0
 662:Drivers/lvgl/src/draw/lv_draw_buf.c ****     uint32_t size;
 643              		.loc 1 662 1 is_stmt 0 view .LVU125
 644 0000 38B5     		push	{r3, r4, r5, lr}
 645              	.LCFI15:
 646              		.cfi_def_cfa_offset 16
 647              		.cfi_offset 3, -16
 648              		.cfi_offset 4, -12
 649              		.cfi_offset 5, -8
 650              		.cfi_offset 14, -4
 651 0002 0D46     		mov	r5, r1
 652 0004 1446     		mov	r4, r2
 663:Drivers/lvgl/src/draw/lv_draw_buf.c **** 
 653              		.loc 1 663 5 is_stmt 1 view .LVU126
 665:Drivers/lvgl/src/draw/lv_draw_buf.c **** 
 654              		.loc 1 665 5 view .LVU127
 665:Drivers/lvgl/src/draw/lv_draw_buf.c **** 
 655              		.loc 1 665 7 is_stmt 0 view .LVU128
 656 0006 1A46     		mov	r2, r3
 657              	.LVL52:
 665:Drivers/lvgl/src/draw/lv_draw_buf.c **** 
 658              		.loc 1 665 7 view .LVU129
 659 0008 73B1     		cbz	r3, .L58
 660              	.LVL53:
 661              	.L47:
 667:Drivers/lvgl/src/draw/lv_draw_buf.c ****     if(cf == LV_COLOR_FORMAT_RGB565A8) {
 662              		.loc 1 667 5 is_stmt 1 view .LVU130
 667:Drivers/lvgl/src/draw/lv_draw_buf.c ****     if(cf == LV_COLOR_FORMAT_RGB565A8) {
 663              		.loc 1 667 10 is_stmt 0 view .LVU131
 664 000a 05FB02F0 		mul	r0, r5, r2
 665              	.LVL54:
ARM GAS  /var/folders/qx/2_175_4n2s19vhvtspjhb3qh0000gn/T//ccxF66nk.s 			page 27


 668:Drivers/lvgl/src/draw/lv_draw_buf.c ****         size += (stride / 2) * h; /*A8 mask*/
 666              		.loc 1 668 5 is_stmt 1 view .LVU132
 668:Drivers/lvgl/src/draw/lv_draw_buf.c ****         size += (stride / 2) * h; /*A8 mask*/
 667              		.loc 1 668 7 is_stmt 0 view .LVU133
 668 000e 142C     		cmp	r4, #20
 669 0010 0FD0     		beq	.L59
 671:Drivers/lvgl/src/draw/lv_draw_buf.c ****         /*@todo we have to include palette right before image data*/
 670              		.loc 1 671 10 is_stmt 1 view .LVU134
 671:Drivers/lvgl/src/draw/lv_draw_buf.c ****         /*@todo we have to include palette right before image data*/
 671              		.loc 1 671 13 is_stmt 0 view .LVU135
 672 0012 E31F     		subs	r3, r4, #7
 673 0014 DBB2     		uxtb	r3, r3
 671:Drivers/lvgl/src/draw/lv_draw_buf.c ****         /*@todo we have to include palette right before image data*/
 674              		.loc 1 671 12 view .LVU136
 675 0016 032B     		cmp	r3, #3
 676 0018 0ED8     		bhi	.L46
 673:Drivers/lvgl/src/draw/lv_draw_buf.c ****     }
 677              		.loc 1 673 9 is_stmt 1 view .LVU137
 678 001a 073C     		subs	r4, r4, #7
 679              	.LVL55:
 673:Drivers/lvgl/src/draw/lv_draw_buf.c ****     }
 680              		.loc 1 673 9 is_stmt 0 view .LVU138
 681 001c 032C     		cmp	r4, #3
 682 001e 0CD8     		bhi	.L50
 683 0020 DFE804F0 		tbb	[pc, r4]
 684              	.L52:
 685 0024 15       		.byte	(.L56-.L52)/2
 686 0025 0D       		.byte	(.L54-.L52)/2
 687 0026 10       		.byte	(.L53-.L52)/2
 688 0027 12       		.byte	(.L51-.L52)/2
 689              	.LVL56:
 690              		.p2align 1
 691              	.L58:
 665:Drivers/lvgl/src/draw/lv_draw_buf.c **** 
 692              		.loc 1 665 21 is_stmt 1 discriminator 1 view .LVU139
 665:Drivers/lvgl/src/draw/lv_draw_buf.c **** 
 693              		.loc 1 665 30 is_stmt 0 discriminator 1 view .LVU140
 694 0028 2146     		mov	r1, r4
 695              	.LVL57:
 665:Drivers/lvgl/src/draw/lv_draw_buf.c **** 
 696              		.loc 1 665 30 discriminator 1 view .LVU141
 697 002a FFF7FEFF 		bl	lv_draw_buf_width_to_stride
 698              	.LVL58:
 665:Drivers/lvgl/src/draw/lv_draw_buf.c **** 
 699              		.loc 1 665 30 discriminator 1 view .LVU142
 700 002e 0246     		mov	r2, r0
 701 0030 EBE7     		b	.L47
 702              	.LVL59:
 703              	.L59:
 669:Drivers/lvgl/src/draw/lv_draw_buf.c ****     }
 704              		.loc 1 669 9 is_stmt 1 view .LVU143
 669:Drivers/lvgl/src/draw/lv_draw_buf.c ****     }
 705              		.loc 1 669 25 is_stmt 0 view .LVU144
 706 0032 5208     		lsrs	r2, r2, #1
 707              	.LVL60:
 669:Drivers/lvgl/src/draw/lv_draw_buf.c ****     }
 708              		.loc 1 669 14 view .LVU145
ARM GAS  /var/folders/qx/2_175_4n2s19vhvtspjhb3qh0000gn/T//ccxF66nk.s 			page 28


 709 0034 05FB0200 		mla	r0, r5, r2, r0
 710              	.LVL61:
 711              	.L46:
 677:Drivers/lvgl/src/draw/lv_draw_buf.c **** 
 712              		.loc 1 677 1 view .LVU146
 713 0038 38BD     		pop	{r3, r4, r5, pc}
 714              	.LVL62:
 715              	.L50:
 671:Drivers/lvgl/src/draw/lv_draw_buf.c ****         /*@todo we have to include palette right before image data*/
 716              		.loc 1 671 12 view .LVU147
 717 003a 0023     		movs	r3, #0
 718 003c 00E0     		b	.L55
 719              	.L54:
 720 003e 1023     		movs	r3, #16
 721              	.L55:
 673:Drivers/lvgl/src/draw/lv_draw_buf.c ****     }
 722              		.loc 1 673 14 discriminator 16 view .LVU148
 723 0040 1844     		add	r0, r0, r3
 724              	.LVL63:
 676:Drivers/lvgl/src/draw/lv_draw_buf.c **** }
 725              		.loc 1 676 5 is_stmt 1 view .LVU149
 676:Drivers/lvgl/src/draw/lv_draw_buf.c **** }
 726              		.loc 1 676 12 is_stmt 0 view .LVU150
 727 0042 F9E7     		b	.L46
 728              	.L53:
 671:Drivers/lvgl/src/draw/lv_draw_buf.c ****         /*@todo we have to include palette right before image data*/
 729              		.loc 1 671 12 view .LVU151
 730 0044 4023     		movs	r3, #64
 731 0046 FBE7     		b	.L55
 732              	.L51:
 733 0048 4FF48063 		mov	r3, #1024
 734 004c F8E7     		b	.L55
 735              	.L56:
 736 004e 0823     		movs	r3, #8
 737 0050 F6E7     		b	.L55
 738              		.cfi_endproc
 739              	.LFE229:
 741              		.section	.text.lv_draw_buf_align_ex,"ax",%progbits
 742              		.align	1
 743              		.global	lv_draw_buf_align_ex
 744              		.syntax unified
 745              		.thumb
 746              		.thumb_func
 748              	lv_draw_buf_align_ex:
 749              	.LVL64:
 750              	.LFB202:
 119:Drivers/lvgl/src/draw/lv_draw_buf.c ****     if(handlers->align_pointer_cb) return handlers->align_pointer_cb(data, color_format);
 751              		.loc 1 119 1 is_stmt 1 view -0
 752              		.cfi_startproc
 753              		@ args = 0, pretend = 0, frame = 0
 754              		@ frame_needed = 0, uses_anonymous_args = 0
 119:Drivers/lvgl/src/draw/lv_draw_buf.c ****     if(handlers->align_pointer_cb) return handlers->align_pointer_cb(data, color_format);
 755              		.loc 1 119 1 is_stmt 0 view .LVU153
 756 0000 08B5     		push	{r3, lr}
 757              	.LCFI16:
 758              		.cfi_def_cfa_offset 8
 759              		.cfi_offset 3, -8
ARM GAS  /var/folders/qx/2_175_4n2s19vhvtspjhb3qh0000gn/T//ccxF66nk.s 			page 29


 760              		.cfi_offset 14, -4
 761 0002 0B46     		mov	r3, r1
 762 0004 1146     		mov	r1, r2
 763              	.LVL65:
 120:Drivers/lvgl/src/draw/lv_draw_buf.c ****     else return NULL;
 764              		.loc 1 120 5 is_stmt 1 view .LVU154
 120:Drivers/lvgl/src/draw/lv_draw_buf.c ****     else return NULL;
 765              		.loc 1 120 16 is_stmt 0 view .LVU155
 766 0006 C268     		ldr	r2, [r0, #12]
 767              	.LVL66:
 120:Drivers/lvgl/src/draw/lv_draw_buf.c ****     else return NULL;
 768              		.loc 1 120 7 view .LVU156
 769 0008 12B1     		cbz	r2, .L62
 120:Drivers/lvgl/src/draw/lv_draw_buf.c ****     else return NULL;
 770              		.loc 1 120 36 is_stmt 1 discriminator 1 view .LVU157
 120:Drivers/lvgl/src/draw/lv_draw_buf.c ****     else return NULL;
 771              		.loc 1 120 43 is_stmt 0 discriminator 1 view .LVU158
 772 000a 1846     		mov	r0, r3
 773              	.LVL67:
 120:Drivers/lvgl/src/draw/lv_draw_buf.c ****     else return NULL;
 774              		.loc 1 120 43 discriminator 1 view .LVU159
 775 000c 9047     		blx	r2
 776              	.LVL68:
 777              	.L60:
 122:Drivers/lvgl/src/draw/lv_draw_buf.c **** 
 778              		.loc 1 122 1 view .LVU160
 779 000e 08BD     		pop	{r3, pc}
 780              	.LVL69:
 781              	.L62:
 121:Drivers/lvgl/src/draw/lv_draw_buf.c **** }
 782              		.loc 1 121 17 view .LVU161
 783 0010 0020     		movs	r0, #0
 784              	.LVL70:
 121:Drivers/lvgl/src/draw/lv_draw_buf.c **** }
 785              		.loc 1 121 17 view .LVU162
 786 0012 FCE7     		b	.L60
 787              		.cfi_endproc
 788              	.LFE202:
 790              		.section	.text.lv_draw_buf_align,"ax",%progbits
 791              		.align	1
 792              		.global	lv_draw_buf_align
 793              		.syntax unified
 794              		.thumb
 795              		.thumb_func
 797              	lv_draw_buf_align:
 798              	.LVL71:
 799              	.LFB201:
 114:Drivers/lvgl/src/draw/lv_draw_buf.c ****     return lv_draw_buf_align_ex(&default_handlers, data, color_format);
 800              		.loc 1 114 1 is_stmt 1 view -0
 801              		.cfi_startproc
 802              		@ args = 0, pretend = 0, frame = 0
 803              		@ frame_needed = 0, uses_anonymous_args = 0
 114:Drivers/lvgl/src/draw/lv_draw_buf.c ****     return lv_draw_buf_align_ex(&default_handlers, data, color_format);
 804              		.loc 1 114 1 is_stmt 0 view .LVU164
 805 0000 08B5     		push	{r3, lr}
 806              	.LCFI17:
 807              		.cfi_def_cfa_offset 8
ARM GAS  /var/folders/qx/2_175_4n2s19vhvtspjhb3qh0000gn/T//ccxF66nk.s 			page 30


 808              		.cfi_offset 3, -8
 809              		.cfi_offset 14, -4
 810 0002 0A46     		mov	r2, r1
 115:Drivers/lvgl/src/draw/lv_draw_buf.c **** }
 811              		.loc 1 115 5 is_stmt 1 view .LVU165
 115:Drivers/lvgl/src/draw/lv_draw_buf.c **** }
 812              		.loc 1 115 12 is_stmt 0 view .LVU166
 813 0004 0146     		mov	r1, r0
 814              	.LVL72:
 115:Drivers/lvgl/src/draw/lv_draw_buf.c **** }
 815              		.loc 1 115 12 view .LVU167
 816 0006 0248     		ldr	r0, .L66
 817              	.LVL73:
 115:Drivers/lvgl/src/draw/lv_draw_buf.c **** }
 818              		.loc 1 115 12 view .LVU168
 819 0008 FFF7FEFF 		bl	lv_draw_buf_align_ex
 820              	.LVL74:
 116:Drivers/lvgl/src/draw/lv_draw_buf.c **** 
 821              		.loc 1 116 1 view .LVU169
 822 000c 08BD     		pop	{r3, pc}
 823              	.L67:
 824 000e 00BF     		.align	2
 825              	.L66:
 826 0010 CC000000 		.word	lv_global+204
 827              		.cfi_endproc
 828              	.LFE201:
 830              		.section	.text.lv_draw_buf_invalidate_cache,"ax",%progbits
 831              		.align	1
 832              		.global	lv_draw_buf_invalidate_cache
 833              		.syntax unified
 834              		.thumb
 835              		.thumb_func
 837              	lv_draw_buf_invalidate_cache:
 838              	.LVL75:
 839              	.LFB203:
 125:Drivers/lvgl/src/draw/lv_draw_buf.c ****     LV_ASSERT_NULL(draw_buf);
 840              		.loc 1 125 1 is_stmt 1 view -0
 841              		.cfi_startproc
 842              		@ args = 0, pretend = 0, frame = 16
 843              		@ frame_needed = 0, uses_anonymous_args = 0
 126:Drivers/lvgl/src/draw/lv_draw_buf.c ****     LV_ASSERT_NULL(draw_buf->handlers);
 844              		.loc 1 126 5 view .LVU171
 126:Drivers/lvgl/src/draw/lv_draw_buf.c ****     LV_ASSERT_NULL(draw_buf->handlers);
 845              		.loc 1 126 5 view .LVU172
 846 0000 60B1     		cbz	r0, .L70
 125:Drivers/lvgl/src/draw/lv_draw_buf.c ****     LV_ASSERT_NULL(draw_buf);
 847              		.loc 1 125 1 is_stmt 0 view .LVU173
 848 0002 70B5     		push	{r4, r5, r6, lr}
 849              	.LCFI18:
 850              		.cfi_def_cfa_offset 16
 851              		.cfi_offset 4, -16
 852              		.cfi_offset 5, -12
 853              		.cfi_offset 6, -8
 854              		.cfi_offset 14, -4
 855 0004 84B0     		sub	sp, sp, #16
 856              	.LCFI19:
 857              		.cfi_def_cfa_offset 32
ARM GAS  /var/folders/qx/2_175_4n2s19vhvtspjhb3qh0000gn/T//ccxF66nk.s 			page 31


 858 0006 0646     		mov	r6, r0
 126:Drivers/lvgl/src/draw/lv_draw_buf.c ****     LV_ASSERT_NULL(draw_buf->handlers);
 859              		.loc 1 126 5 is_stmt 1 view .LVU174
 126:Drivers/lvgl/src/draw/lv_draw_buf.c ****     LV_ASSERT_NULL(draw_buf->handlers);
 860              		.loc 1 126 29 view .LVU175
 127:Drivers/lvgl/src/draw/lv_draw_buf.c **** 
 861              		.loc 1 127 5 view .LVU176
 127:Drivers/lvgl/src/draw/lv_draw_buf.c **** 
 862              		.loc 1 127 5 view .LVU177
 863 0008 8569     		ldr	r5, [r0, #24]
 864 000a 45B1     		cbz	r5, .L72
 127:Drivers/lvgl/src/draw/lv_draw_buf.c **** 
 865              		.loc 1 127 5 view .LVU178
 127:Drivers/lvgl/src/draw/lv_draw_buf.c **** 
 866              		.loc 1 127 39 view .LVU179
 129:Drivers/lvgl/src/draw/lv_draw_buf.c ****     if(!handlers->invalidate_cache_cb) {
 867              		.loc 1 129 5 view .LVU180
 868              	.LVL76:
 130:Drivers/lvgl/src/draw/lv_draw_buf.c ****         return;
 869              		.loc 1 130 5 view .LVU181
 130:Drivers/lvgl/src/draw/lv_draw_buf.c ****         return;
 870              		.loc 1 130 17 is_stmt 0 view .LVU182
 871 000c 2B69     		ldr	r3, [r5, #16]
 130:Drivers/lvgl/src/draw/lv_draw_buf.c ****         return;
 872              		.loc 1 130 7 view .LVU183
 873 000e 1BB1     		cbz	r3, .L68
 134:Drivers/lvgl/src/draw/lv_draw_buf.c **** 
 874              		.loc 1 134 27 is_stmt 1 view .LVU184
 136:Drivers/lvgl/src/draw/lv_draw_buf.c ****     if(area == NULL) {
 875              		.loc 1 136 5 view .LVU185
 137:Drivers/lvgl/src/draw/lv_draw_buf.c ****         draw_buf_get_full_area(draw_buf, &full);
 876              		.loc 1 137 5 view .LVU186
 137:Drivers/lvgl/src/draw/lv_draw_buf.c ****         draw_buf_get_full_area(draw_buf, &full);
 877              		.loc 1 137 7 is_stmt 0 view .LVU187
 878 0010 31B1     		cbz	r1, .L78
 879              	.LVL77:
 880              	.L75:
 142:Drivers/lvgl/src/draw/lv_draw_buf.c ****     LV_PROFILER_DRAW_END;
 881              		.loc 1 142 5 is_stmt 1 view .LVU188
 142:Drivers/lvgl/src/draw/lv_draw_buf.c ****     LV_PROFILER_DRAW_END;
 882              		.loc 1 142 13 is_stmt 0 view .LVU189
 883 0012 2B69     		ldr	r3, [r5, #16]
 142:Drivers/lvgl/src/draw/lv_draw_buf.c ****     LV_PROFILER_DRAW_END;
 884              		.loc 1 142 5 view .LVU190
 885 0014 3046     		mov	r0, r6
 886 0016 9847     		blx	r3
 887              	.LVL78:
 143:Drivers/lvgl/src/draw/lv_draw_buf.c **** }
 888              		.loc 1 143 25 is_stmt 1 view .LVU191
 889              	.L68:
 144:Drivers/lvgl/src/draw/lv_draw_buf.c **** 
 890              		.loc 1 144 1 is_stmt 0 view .LVU192
 891 0018 04B0     		add	sp, sp, #16
 892              	.LCFI20:
 893              		.cfi_def_cfa_offset 16
 894              		@ sp needed
 895 001a 70BD     		pop	{r4, r5, r6, pc}
ARM GAS  /var/folders/qx/2_175_4n2s19vhvtspjhb3qh0000gn/T//ccxF66nk.s 			page 32


 896              	.LVL79:
 897              	.L70:
 898              	.LCFI21:
 899              		.cfi_def_cfa_offset 0
 900              		.cfi_restore 4
 901              		.cfi_restore 5
 902              		.cfi_restore 6
 903              		.cfi_restore 14
 126:Drivers/lvgl/src/draw/lv_draw_buf.c ****     LV_ASSERT_NULL(draw_buf->handlers);
 904              		.loc 1 126 5 is_stmt 1 view .LVU193
 126:Drivers/lvgl/src/draw/lv_draw_buf.c ****     LV_ASSERT_NULL(draw_buf->handlers);
 905              		.loc 1 126 5 view .LVU194
 126:Drivers/lvgl/src/draw/lv_draw_buf.c ****     LV_ASSERT_NULL(draw_buf->handlers);
 906              		.loc 1 126 5 view .LVU195
 126:Drivers/lvgl/src/draw/lv_draw_buf.c ****     LV_ASSERT_NULL(draw_buf->handlers);
 907              		.loc 1 126 5 view .LVU196
 126:Drivers/lvgl/src/draw/lv_draw_buf.c ****     LV_ASSERT_NULL(draw_buf->handlers);
 908              		.loc 1 126 5 view .LVU197
 909 001c FEE7     		b	.L70
 910              	.L72:
 911              	.LCFI22:
 912              		.cfi_def_cfa_offset 32
 913              		.cfi_offset 4, -16
 914              		.cfi_offset 5, -12
 915              		.cfi_offset 6, -8
 916              		.cfi_offset 14, -4
 127:Drivers/lvgl/src/draw/lv_draw_buf.c **** 
 917              		.loc 1 127 5 view .LVU198
 127:Drivers/lvgl/src/draw/lv_draw_buf.c **** 
 918              		.loc 1 127 5 view .LVU199
 127:Drivers/lvgl/src/draw/lv_draw_buf.c **** 
 919              		.loc 1 127 5 view .LVU200
 127:Drivers/lvgl/src/draw/lv_draw_buf.c **** 
 920              		.loc 1 127 5 view .LVU201
 127:Drivers/lvgl/src/draw/lv_draw_buf.c **** 
 921              		.loc 1 127 5 view .LVU202
 922 001e FEE7     		b	.L72
 923              	.LVL80:
 924              	.L78:
 138:Drivers/lvgl/src/draw/lv_draw_buf.c ****         area = &full;
 925              		.loc 1 138 9 view .LVU203
 926 0020 6946     		mov	r1, sp
 927              	.LVL81:
 138:Drivers/lvgl/src/draw/lv_draw_buf.c ****         area = &full;
 928              		.loc 1 138 9 is_stmt 0 view .LVU204
 929 0022 FFF7FEFF 		bl	draw_buf_get_full_area
 930              	.LVL82:
 139:Drivers/lvgl/src/draw/lv_draw_buf.c ****     }
 931              		.loc 1 139 9 is_stmt 1 view .LVU205
 139:Drivers/lvgl/src/draw/lv_draw_buf.c ****     }
 932              		.loc 1 139 14 is_stmt 0 view .LVU206
 933 0026 6946     		mov	r1, sp
 934 0028 F3E7     		b	.L75
 935              		.cfi_endproc
 936              	.LFE203:
 938              		.section	.text.lv_draw_buf_flush_cache,"ax",%progbits
 939              		.align	1
ARM GAS  /var/folders/qx/2_175_4n2s19vhvtspjhb3qh0000gn/T//ccxF66nk.s 			page 33


 940              		.global	lv_draw_buf_flush_cache
 941              		.syntax unified
 942              		.thumb
 943              		.thumb_func
 945              	lv_draw_buf_flush_cache:
 946              	.LVL83:
 947              	.LFB204:
 147:Drivers/lvgl/src/draw/lv_draw_buf.c ****     LV_ASSERT_NULL(draw_buf);
 948              		.loc 1 147 1 is_stmt 1 view -0
 949              		.cfi_startproc
 950              		@ args = 0, pretend = 0, frame = 16
 951              		@ frame_needed = 0, uses_anonymous_args = 0
 148:Drivers/lvgl/src/draw/lv_draw_buf.c ****     LV_ASSERT_NULL(draw_buf->handlers);
 952              		.loc 1 148 5 view .LVU208
 148:Drivers/lvgl/src/draw/lv_draw_buf.c ****     LV_ASSERT_NULL(draw_buf->handlers);
 953              		.loc 1 148 5 view .LVU209
 954 0000 60B1     		cbz	r0, .L81
 147:Drivers/lvgl/src/draw/lv_draw_buf.c ****     LV_ASSERT_NULL(draw_buf);
 955              		.loc 1 147 1 is_stmt 0 view .LVU210
 956 0002 70B5     		push	{r4, r5, r6, lr}
 957              	.LCFI23:
 958              		.cfi_def_cfa_offset 16
 959              		.cfi_offset 4, -16
 960              		.cfi_offset 5, -12
 961              		.cfi_offset 6, -8
 962              		.cfi_offset 14, -4
 963 0004 84B0     		sub	sp, sp, #16
 964              	.LCFI24:
 965              		.cfi_def_cfa_offset 32
 966 0006 0646     		mov	r6, r0
 148:Drivers/lvgl/src/draw/lv_draw_buf.c ****     LV_ASSERT_NULL(draw_buf->handlers);
 967              		.loc 1 148 5 is_stmt 1 view .LVU211
 148:Drivers/lvgl/src/draw/lv_draw_buf.c ****     LV_ASSERT_NULL(draw_buf->handlers);
 968              		.loc 1 148 29 view .LVU212
 149:Drivers/lvgl/src/draw/lv_draw_buf.c **** 
 969              		.loc 1 149 5 view .LVU213
 149:Drivers/lvgl/src/draw/lv_draw_buf.c **** 
 970              		.loc 1 149 5 view .LVU214
 971 0008 8569     		ldr	r5, [r0, #24]
 972 000a 45B1     		cbz	r5, .L83
 149:Drivers/lvgl/src/draw/lv_draw_buf.c **** 
 973              		.loc 1 149 5 view .LVU215
 149:Drivers/lvgl/src/draw/lv_draw_buf.c **** 
 974              		.loc 1 149 39 view .LVU216
 151:Drivers/lvgl/src/draw/lv_draw_buf.c ****     if(!handlers->flush_cache_cb) {
 975              		.loc 1 151 5 view .LVU217
 976              	.LVL84:
 152:Drivers/lvgl/src/draw/lv_draw_buf.c ****         return;
 977              		.loc 1 152 5 view .LVU218
 152:Drivers/lvgl/src/draw/lv_draw_buf.c ****         return;
 978              		.loc 1 152 17 is_stmt 0 view .LVU219
 979 000c 6B69     		ldr	r3, [r5, #20]
 152:Drivers/lvgl/src/draw/lv_draw_buf.c ****         return;
 980              		.loc 1 152 7 view .LVU220
 981 000e 1BB1     		cbz	r3, .L79
 156:Drivers/lvgl/src/draw/lv_draw_buf.c **** 
 982              		.loc 1 156 27 is_stmt 1 view .LVU221
ARM GAS  /var/folders/qx/2_175_4n2s19vhvtspjhb3qh0000gn/T//ccxF66nk.s 			page 34


 158:Drivers/lvgl/src/draw/lv_draw_buf.c ****     if(area == NULL) {
 983              		.loc 1 158 5 view .LVU222
 159:Drivers/lvgl/src/draw/lv_draw_buf.c ****         draw_buf_get_full_area(draw_buf, &full);
 984              		.loc 1 159 5 view .LVU223
 159:Drivers/lvgl/src/draw/lv_draw_buf.c ****         draw_buf_get_full_area(draw_buf, &full);
 985              		.loc 1 159 7 is_stmt 0 view .LVU224
 986 0010 31B1     		cbz	r1, .L89
 987              	.LVL85:
 988              	.L86:
 164:Drivers/lvgl/src/draw/lv_draw_buf.c ****     LV_PROFILER_DRAW_END;
 989              		.loc 1 164 5 is_stmt 1 view .LVU225
 164:Drivers/lvgl/src/draw/lv_draw_buf.c ****     LV_PROFILER_DRAW_END;
 990              		.loc 1 164 13 is_stmt 0 view .LVU226
 991 0012 6B69     		ldr	r3, [r5, #20]
 164:Drivers/lvgl/src/draw/lv_draw_buf.c ****     LV_PROFILER_DRAW_END;
 992              		.loc 1 164 5 view .LVU227
 993 0014 3046     		mov	r0, r6
 994 0016 9847     		blx	r3
 995              	.LVL86:
 165:Drivers/lvgl/src/draw/lv_draw_buf.c **** }
 996              		.loc 1 165 25 is_stmt 1 view .LVU228
 997              	.L79:
 166:Drivers/lvgl/src/draw/lv_draw_buf.c **** 
 998              		.loc 1 166 1 is_stmt 0 view .LVU229
 999 0018 04B0     		add	sp, sp, #16
 1000              	.LCFI25:
 1001              		.cfi_def_cfa_offset 16
 1002              		@ sp needed
 1003 001a 70BD     		pop	{r4, r5, r6, pc}
 1004              	.LVL87:
 1005              	.L81:
 1006              	.LCFI26:
 1007              		.cfi_def_cfa_offset 0
 1008              		.cfi_restore 4
 1009              		.cfi_restore 5
 1010              		.cfi_restore 6
 1011              		.cfi_restore 14
 148:Drivers/lvgl/src/draw/lv_draw_buf.c ****     LV_ASSERT_NULL(draw_buf->handlers);
 1012              		.loc 1 148 5 is_stmt 1 view .LVU230
 148:Drivers/lvgl/src/draw/lv_draw_buf.c ****     LV_ASSERT_NULL(draw_buf->handlers);
 1013              		.loc 1 148 5 view .LVU231
 148:Drivers/lvgl/src/draw/lv_draw_buf.c ****     LV_ASSERT_NULL(draw_buf->handlers);
 1014              		.loc 1 148 5 view .LVU232
 148:Drivers/lvgl/src/draw/lv_draw_buf.c ****     LV_ASSERT_NULL(draw_buf->handlers);
 1015              		.loc 1 148 5 view .LVU233
 148:Drivers/lvgl/src/draw/lv_draw_buf.c ****     LV_ASSERT_NULL(draw_buf->handlers);
 1016              		.loc 1 148 5 view .LVU234
 1017 001c FEE7     		b	.L81
 1018              	.L83:
 1019              	.LCFI27:
 1020              		.cfi_def_cfa_offset 32
 1021              		.cfi_offset 4, -16
 1022              		.cfi_offset 5, -12
 1023              		.cfi_offset 6, -8
 1024              		.cfi_offset 14, -4
 149:Drivers/lvgl/src/draw/lv_draw_buf.c **** 
 1025              		.loc 1 149 5 view .LVU235
ARM GAS  /var/folders/qx/2_175_4n2s19vhvtspjhb3qh0000gn/T//ccxF66nk.s 			page 35


 149:Drivers/lvgl/src/draw/lv_draw_buf.c **** 
 1026              		.loc 1 149 5 view .LVU236
 149:Drivers/lvgl/src/draw/lv_draw_buf.c **** 
 1027              		.loc 1 149 5 view .LVU237
 149:Drivers/lvgl/src/draw/lv_draw_buf.c **** 
 1028              		.loc 1 149 5 view .LVU238
 149:Drivers/lvgl/src/draw/lv_draw_buf.c **** 
 1029              		.loc 1 149 5 view .LVU239
 1030 001e FEE7     		b	.L83
 1031              	.LVL88:
 1032              	.L89:
 160:Drivers/lvgl/src/draw/lv_draw_buf.c ****         area = &full;
 1033              		.loc 1 160 9 view .LVU240
 1034 0020 6946     		mov	r1, sp
 1035              	.LVL89:
 160:Drivers/lvgl/src/draw/lv_draw_buf.c ****         area = &full;
 1036              		.loc 1 160 9 is_stmt 0 view .LVU241
 1037 0022 FFF7FEFF 		bl	draw_buf_get_full_area
 1038              	.LVL90:
 161:Drivers/lvgl/src/draw/lv_draw_buf.c ****     }
 1039              		.loc 1 161 9 is_stmt 1 view .LVU242
 161:Drivers/lvgl/src/draw/lv_draw_buf.c ****     }
 1040              		.loc 1 161 14 is_stmt 0 view .LVU243
 1041 0026 6946     		mov	r1, sp
 1042 0028 F3E7     		b	.L86
 1043              		.cfi_endproc
 1044              	.LFE204:
 1046              		.section	.text.lv_draw_buf_init,"ax",%progbits
 1047              		.align	1
 1048              		.global	lv_draw_buf_init
 1049              		.syntax unified
 1050              		.thumb
 1051              		.thumb_func
 1053              	lv_draw_buf_init:
 1054              	.LVL91:
 1055              	.LFB206:
 220:Drivers/lvgl/src/draw/lv_draw_buf.c ****     LV_ASSERT_NULL(draw_buf);
 1056              		.loc 1 220 1 is_stmt 1 view -0
 1057              		.cfi_startproc
 1058              		@ args = 12, pretend = 0, frame = 0
 1059              		@ frame_needed = 0, uses_anonymous_args = 0
 220:Drivers/lvgl/src/draw/lv_draw_buf.c ****     LV_ASSERT_NULL(draw_buf);
 1060              		.loc 1 220 1 is_stmt 0 view .LVU245
 1061 0000 2DE9F041 		push	{r4, r5, r6, r7, r8, lr}
 1062              	.LCFI28:
 1063              		.cfi_def_cfa_offset 24
 1064              		.cfi_offset 4, -24
 1065              		.cfi_offset 5, -20
 1066              		.cfi_offset 6, -16
 1067              		.cfi_offset 7, -12
 1068              		.cfi_offset 8, -8
 1069              		.cfi_offset 14, -4
 1070 0004 069E     		ldr	r6, [sp, #24]
 221:Drivers/lvgl/src/draw/lv_draw_buf.c ****     if(draw_buf == NULL) return LV_RESULT_INVALID;
 1071              		.loc 1 221 5 is_stmt 1 view .LVU246
 221:Drivers/lvgl/src/draw/lv_draw_buf.c ****     if(draw_buf == NULL) return LV_RESULT_INVALID;
 1072              		.loc 1 221 5 view .LVU247
ARM GAS  /var/folders/qx/2_175_4n2s19vhvtspjhb3qh0000gn/T//ccxF66nk.s 			page 36


 1073 0006 80B1     		cbz	r0, .L92
 1074 0008 8846     		mov	r8, r1
 1075 000a 1546     		mov	r5, r2
 1076 000c 1F46     		mov	r7, r3
 1077 000e 0446     		mov	r4, r0
 221:Drivers/lvgl/src/draw/lv_draw_buf.c ****     if(draw_buf == NULL) return LV_RESULT_INVALID;
 1078              		.loc 1 221 5 view .LVU248
 221:Drivers/lvgl/src/draw/lv_draw_buf.c ****     if(draw_buf == NULL) return LV_RESULT_INVALID;
 1079              		.loc 1 221 29 view .LVU249
 222:Drivers/lvgl/src/draw/lv_draw_buf.c **** 
 1080              		.loc 1 222 5 view .LVU250
 224:Drivers/lvgl/src/draw/lv_draw_buf.c ****     if(stride == 0) stride = lv_draw_buf_width_to_stride(w, cf);
 1081              		.loc 1 224 5 view .LVU251
 1082              	.LVL92:
 1083              	.LBB31:
 1084              	.LBI31:
  73:Drivers/lvgl/src/draw/../misc/../stdlib/lv_string.h **** {
 1085              		.loc 2 73 20 view .LVU252
 1086              	.LBB32:
 1087              		.loc 2 75 5 view .LVU253
 1088 0010 1C22     		movs	r2, #28
 1089              	.LVL93:
 1090              		.loc 2 75 5 is_stmt 0 view .LVU254
 1091 0012 0021     		movs	r1, #0
 1092              	.LVL94:
 1093              		.loc 2 75 5 view .LVU255
 1094 0014 FFF7FEFF 		bl	lv_memset
 1095              	.LVL95:
 1096              		.loc 2 75 5 view .LVU256
 1097              	.LBE32:
 1098              	.LBE31:
 225:Drivers/lvgl/src/draw/lv_draw_buf.c ****     if(stride * h > data_size) {
 1099              		.loc 1 225 5 is_stmt 1 view .LVU257
 225:Drivers/lvgl/src/draw/lv_draw_buf.c ****     if(stride * h > data_size) {
 1100              		.loc 1 225 7 is_stmt 0 view .LVU258
 1101 0018 46B1     		cbz	r6, .L97
 1102              	.L93:
 1103              	.LVL96:
 226:Drivers/lvgl/src/draw/lv_draw_buf.c ****         LV_LOG_WARN("Data size too small, required: %" LV_PRId32 ", provided: %" LV_PRId32, stride 
 1104              		.loc 1 226 5 is_stmt 1 view .LVU259
 226:Drivers/lvgl/src/draw/lv_draw_buf.c ****         LV_LOG_WARN("Data size too small, required: %" LV_PRId32 ", provided: %" LV_PRId32, stride 
 1105              		.loc 1 226 15 is_stmt 0 view .LVU260
 1106 001a 05FB06F3 		mul	r3, r5, r6
 226:Drivers/lvgl/src/draw/lv_draw_buf.c ****         LV_LOG_WARN("Data size too small, required: %" LV_PRId32 ", provided: %" LV_PRId32, stride 
 1107              		.loc 1 226 7 view .LVU261
 1108 001e 089A     		ldr	r2, [sp, #32]
 1109 0020 9342     		cmp	r3, r2
 1110 0022 09D9     		bls	.L98
 229:Drivers/lvgl/src/draw/lv_draw_buf.c ****     }
 1111              		.loc 1 229 16 view .LVU262
 1112 0024 0020     		movs	r0, #0
 1113              	.L94:
 248:Drivers/lvgl/src/draw/lv_draw_buf.c **** 
 1114              		.loc 1 248 1 view .LVU263
 1115 0026 BDE8F081 		pop	{r4, r5, r6, r7, r8, pc}
 1116              	.LVL97:
 1117              	.L92:
ARM GAS  /var/folders/qx/2_175_4n2s19vhvtspjhb3qh0000gn/T//ccxF66nk.s 			page 37


 221:Drivers/lvgl/src/draw/lv_draw_buf.c ****     if(draw_buf == NULL) return LV_RESULT_INVALID;
 1118              		.loc 1 221 5 is_stmt 1 view .LVU264
 221:Drivers/lvgl/src/draw/lv_draw_buf.c ****     if(draw_buf == NULL) return LV_RESULT_INVALID;
 1119              		.loc 1 221 5 view .LVU265
 221:Drivers/lvgl/src/draw/lv_draw_buf.c ****     if(draw_buf == NULL) return LV_RESULT_INVALID;
 1120              		.loc 1 221 5 view .LVU266
 221:Drivers/lvgl/src/draw/lv_draw_buf.c ****     if(draw_buf == NULL) return LV_RESULT_INVALID;
 1121              		.loc 1 221 5 view .LVU267
 221:Drivers/lvgl/src/draw/lv_draw_buf.c ****     if(draw_buf == NULL) return LV_RESULT_INVALID;
 1122              		.loc 1 221 5 view .LVU268
 1123 002a FEE7     		b	.L92
 1124              	.LVL98:
 1125              	.L97:
 225:Drivers/lvgl/src/draw/lv_draw_buf.c ****     if(stride * h > data_size) {
 1126              		.loc 1 225 21 discriminator 1 view .LVU269
 225:Drivers/lvgl/src/draw/lv_draw_buf.c ****     if(stride * h > data_size) {
 1127              		.loc 1 225 30 is_stmt 0 discriminator 1 view .LVU270
 1128 002c 3946     		mov	r1, r7
 1129 002e 4046     		mov	r0, r8
 1130 0030 FFF7FEFF 		bl	lv_draw_buf_width_to_stride
 1131              	.LVL99:
 1132 0034 0646     		mov	r6, r0
 1133 0036 F0E7     		b	.L93
 1134              	.LVL100:
 1135              	.L98:
 232:Drivers/lvgl/src/draw/lv_draw_buf.c ****     header->w = w;
 1136              		.loc 1 232 5 is_stmt 1 view .LVU271
 233:Drivers/lvgl/src/draw/lv_draw_buf.c ****     header->h = h;
 1137              		.loc 1 233 5 view .LVU272
 233:Drivers/lvgl/src/draw/lv_draw_buf.c ****     header->h = h;
 1138              		.loc 1 233 15 is_stmt 0 view .LVU273
 1139 0038 A4F80480 		strh	r8, [r4, #4]	@ movhi
 234:Drivers/lvgl/src/draw/lv_draw_buf.c ****     header->cf = cf;
 1140              		.loc 1 234 5 is_stmt 1 view .LVU274
 234:Drivers/lvgl/src/draw/lv_draw_buf.c ****     header->cf = cf;
 1141              		.loc 1 234 15 is_stmt 0 view .LVU275
 1142 003c E580     		strh	r5, [r4, #6]	@ movhi
 235:Drivers/lvgl/src/draw/lv_draw_buf.c ****     header->stride = stride;
 1143              		.loc 1 235 5 is_stmt 1 view .LVU276
 235:Drivers/lvgl/src/draw/lv_draw_buf.c ****     header->stride = stride;
 1144              		.loc 1 235 16 is_stmt 0 view .LVU277
 1145 003e 6770     		strb	r7, [r4, #1]
 236:Drivers/lvgl/src/draw/lv_draw_buf.c ****     header->flags = 0;
 1146              		.loc 1 236 5 is_stmt 1 view .LVU278
 236:Drivers/lvgl/src/draw/lv_draw_buf.c ****     header->flags = 0;
 1147              		.loc 1 236 20 is_stmt 0 view .LVU279
 1148 0040 2681     		strh	r6, [r4, #8]	@ movhi
 237:Drivers/lvgl/src/draw/lv_draw_buf.c ****     header->magic = LV_IMAGE_HEADER_MAGIC;
 1149              		.loc 1 237 5 is_stmt 1 view .LVU280
 237:Drivers/lvgl/src/draw/lv_draw_buf.c ****     header->magic = LV_IMAGE_HEADER_MAGIC;
 1150              		.loc 1 237 19 is_stmt 0 view .LVU281
 1151 0042 0023     		movs	r3, #0
 1152 0044 6380     		strh	r3, [r4, #2]	@ movhi
 238:Drivers/lvgl/src/draw/lv_draw_buf.c **** 
 1153              		.loc 1 238 5 is_stmt 1 view .LVU282
 238:Drivers/lvgl/src/draw/lv_draw_buf.c **** 
 1154              		.loc 1 238 19 is_stmt 0 view .LVU283
ARM GAS  /var/folders/qx/2_175_4n2s19vhvtspjhb3qh0000gn/T//ccxF66nk.s 			page 38


 1155 0046 1923     		movs	r3, #25
 1156 0048 2370     		strb	r3, [r4]
 240:Drivers/lvgl/src/draw/lv_draw_buf.c ****     draw_buf->unaligned_data = data;
 1157              		.loc 1 240 5 is_stmt 1 view .LVU284
 240:Drivers/lvgl/src/draw/lv_draw_buf.c ****     draw_buf->unaligned_data = data;
 1158              		.loc 1 240 20 is_stmt 0 view .LVU285
 1159 004a 079B     		ldr	r3, [sp, #28]
 1160 004c 2361     		str	r3, [r4, #16]
 241:Drivers/lvgl/src/draw/lv_draw_buf.c ****     draw_buf->handlers = &default_handlers;
 1161              		.loc 1 241 5 is_stmt 1 view .LVU286
 241:Drivers/lvgl/src/draw/lv_draw_buf.c ****     draw_buf->handlers = &default_handlers;
 1162              		.loc 1 241 30 is_stmt 0 view .LVU287
 1163 004e 6361     		str	r3, [r4, #20]
 242:Drivers/lvgl/src/draw/lv_draw_buf.c ****     draw_buf->data_size = data_size;
 1164              		.loc 1 242 5 is_stmt 1 view .LVU288
 242:Drivers/lvgl/src/draw/lv_draw_buf.c ****     draw_buf->data_size = data_size;
 1165              		.loc 1 242 24 is_stmt 0 view .LVU289
 1166 0050 044B     		ldr	r3, .L99
 1167 0052 A361     		str	r3, [r4, #24]
 243:Drivers/lvgl/src/draw/lv_draw_buf.c ****     if(lv_draw_buf_align(data, cf) != draw_buf->unaligned_data) {
 1168              		.loc 1 243 5 is_stmt 1 view .LVU290
 243:Drivers/lvgl/src/draw/lv_draw_buf.c ****     if(lv_draw_buf_align(data, cf) != draw_buf->unaligned_data) {
 1169              		.loc 1 243 25 is_stmt 0 view .LVU291
 1170 0054 E260     		str	r2, [r4, #12]
 244:Drivers/lvgl/src/draw/lv_draw_buf.c ****         LV_LOG_INFO("Data is not aligned, ignored");
 1171              		.loc 1 244 5 is_stmt 1 view .LVU292
 244:Drivers/lvgl/src/draw/lv_draw_buf.c ****         LV_LOG_INFO("Data is not aligned, ignored");
 1172              		.loc 1 244 8 is_stmt 0 view .LVU293
 1173 0056 3946     		mov	r1, r7
 1174 0058 0798     		ldr	r0, [sp, #28]
 1175 005a FFF7FEFF 		bl	lv_draw_buf_align
 1176              	.LVL101:
 245:Drivers/lvgl/src/draw/lv_draw_buf.c ****     }
 1177              		.loc 1 245 9 is_stmt 1 view .LVU294
 245:Drivers/lvgl/src/draw/lv_draw_buf.c ****     }
 1178              		.loc 1 245 9 view .LVU295
 245:Drivers/lvgl/src/draw/lv_draw_buf.c ****     }
 1179              		.loc 1 245 9 view .LVU296
 247:Drivers/lvgl/src/draw/lv_draw_buf.c **** }
 1180              		.loc 1 247 5 view .LVU297
 247:Drivers/lvgl/src/draw/lv_draw_buf.c **** }
 1181              		.loc 1 247 12 is_stmt 0 view .LVU298
 1182 005e 0120     		movs	r0, #1
 1183 0060 E1E7     		b	.L94
 1184              	.L100:
 1185 0062 00BF     		.align	2
 1186              	.L99:
 1187 0064 CC000000 		.word	lv_global+204
 1188              		.cfi_endproc
 1189              	.LFE206:
 1191              		.section	.text.lv_draw_buf_create_ex,"ax",%progbits
 1192              		.align	1
 1193              		.global	lv_draw_buf_create_ex
 1194              		.syntax unified
 1195              		.thumb
 1196              		.thumb_func
 1198              	lv_draw_buf_create_ex:
ARM GAS  /var/folders/qx/2_175_4n2s19vhvtspjhb3qh0000gn/T//ccxF66nk.s 			page 39


 1199              	.LVL102:
 1200              	.LFB208:
 257:Drivers/lvgl/src/draw/lv_draw_buf.c ****     LV_PROFILER_DRAW_BEGIN;
 1201              		.loc 1 257 1 is_stmt 1 view -0
 1202              		.cfi_startproc
 1203              		@ args = 4, pretend = 0, frame = 0
 1204              		@ frame_needed = 0, uses_anonymous_args = 0
 257:Drivers/lvgl/src/draw/lv_draw_buf.c ****     LV_PROFILER_DRAW_BEGIN;
 1205              		.loc 1 257 1 is_stmt 0 view .LVU300
 1206 0000 2DE9F84F 		push	{r3, r4, r5, r6, r7, r8, r9, r10, fp, lr}
 1207              	.LCFI29:
 1208              		.cfi_def_cfa_offset 40
 1209              		.cfi_offset 3, -40
 1210              		.cfi_offset 4, -36
 1211              		.cfi_offset 5, -32
 1212              		.cfi_offset 6, -28
 1213              		.cfi_offset 7, -24
 1214              		.cfi_offset 8, -20
 1215              		.cfi_offset 9, -16
 1216              		.cfi_offset 10, -12
 1217              		.cfi_offset 11, -8
 1218              		.cfi_offset 14, -4
 1219 0004 0746     		mov	r7, r0
 1220 0006 0E46     		mov	r6, r1
 1221 0008 9046     		mov	r8, r2
 1222 000a 1D46     		mov	r5, r3
 1223 000c DDF82890 		ldr	r9, [sp, #40]
 258:Drivers/lvgl/src/draw/lv_draw_buf.c ****     lv_draw_buf_t * draw_buf = lv_malloc_zeroed(sizeof(lv_draw_buf_t));
 1224              		.loc 1 258 27 is_stmt 1 view .LVU301
 259:Drivers/lvgl/src/draw/lv_draw_buf.c ****     LV_ASSERT_MALLOC(draw_buf);
 1225              		.loc 1 259 5 view .LVU302
 259:Drivers/lvgl/src/draw/lv_draw_buf.c ****     LV_ASSERT_MALLOC(draw_buf);
 1226              		.loc 1 259 32 is_stmt 0 view .LVU303
 1227 0010 1C20     		movs	r0, #28
 1228              	.LVL103:
 259:Drivers/lvgl/src/draw/lv_draw_buf.c ****     LV_ASSERT_MALLOC(draw_buf);
 1229              		.loc 1 259 32 view .LVU304
 1230 0012 FFF7FEFF 		bl	lv_malloc_zeroed
 1231              	.LVL104:
 260:Drivers/lvgl/src/draw/lv_draw_buf.c ****     if(draw_buf == NULL) {
 1232              		.loc 1 260 5 is_stmt 1 view .LVU305
 260:Drivers/lvgl/src/draw/lv_draw_buf.c ****     if(draw_buf == NULL) {
 1233              		.loc 1 260 5 view .LVU306
 1234 0016 38B3     		cbz	r0, .L103
 1235 0018 0446     		mov	r4, r0
 260:Drivers/lvgl/src/draw/lv_draw_buf.c ****     if(draw_buf == NULL) {
 1236              		.loc 1 260 5 view .LVU307
 260:Drivers/lvgl/src/draw/lv_draw_buf.c ****     if(draw_buf == NULL) {
 1237              		.loc 1 260 31 view .LVU308
 261:Drivers/lvgl/src/draw/lv_draw_buf.c ****         LV_PROFILER_DRAW_END;
 1238              		.loc 1 261 5 view .LVU309
 265:Drivers/lvgl/src/draw/lv_draw_buf.c **** 
 1239              		.loc 1 265 5 view .LVU310
 265:Drivers/lvgl/src/draw/lv_draw_buf.c **** 
 1240              		.loc 1 265 7 is_stmt 0 view .LVU311
 1241 001a B9F1000F 		cmp	r9, #0
 1242 001e 24D0     		beq	.L108
ARM GAS  /var/folders/qx/2_175_4n2s19vhvtspjhb3qh0000gn/T//ccxF66nk.s 			page 40


 1243              	.LVL105:
 1244              	.L104:
 267:Drivers/lvgl/src/draw/lv_draw_buf.c **** 
 1245              		.loc 1 267 5 is_stmt 1 view .LVU312
 267:Drivers/lvgl/src/draw/lv_draw_buf.c **** 
 1246              		.loc 1 267 21 is_stmt 0 view .LVU313
 1247 0020 4B46     		mov	r3, r9
 1248 0022 2A46     		mov	r2, r5
 1249 0024 4146     		mov	r1, r8
 1250 0026 3046     		mov	r0, r6
 1251 0028 FFF7FEFF 		bl	_calculate_draw_buf_size
 1252              	.LVL106:
 1253 002c 8246     		mov	r10, r0
 1254              	.LVL107:
 269:Drivers/lvgl/src/draw/lv_draw_buf.c ****     /*Do not assert here as LVGL or the app might just want to try creating a draw_buf*/
 1255              		.loc 1 269 5 is_stmt 1 view .LVU314
 269:Drivers/lvgl/src/draw/lv_draw_buf.c ****     /*Do not assert here as LVGL or the app might just want to try creating a draw_buf*/
 1256              		.loc 1 269 18 is_stmt 0 view .LVU315
 1257 002e 2A46     		mov	r2, r5
 1258 0030 0146     		mov	r1, r0
 1259 0032 3846     		mov	r0, r7
 1260              	.LVL108:
 269:Drivers/lvgl/src/draw/lv_draw_buf.c ****     /*Do not assert here as LVGL or the app might just want to try creating a draw_buf*/
 1261              		.loc 1 269 18 view .LVU316
 1262 0034 FFF7FEFF 		bl	draw_buf_malloc
 1263              	.LVL109:
 271:Drivers/lvgl/src/draw/lv_draw_buf.c ****         LV_LOG_WARN("No memory: %"LV_PRIu32"x%"LV_PRIu32", cf: %d, stride: %"LV_PRIu32", %"LV_PRIu3
 1264              		.loc 1 271 5 is_stmt 1 view .LVU317
 271:Drivers/lvgl/src/draw/lv_draw_buf.c ****         LV_LOG_WARN("No memory: %"LV_PRIu32"x%"LV_PRIu32", cf: %d, stride: %"LV_PRIu32", %"LV_PRIu3
 1265              		.loc 1 271 7 is_stmt 0 view .LVU318
 1266 0038 8346     		mov	fp, r0
 1267 003a E0B1     		cbz	r0, .L109
 279:Drivers/lvgl/src/draw/lv_draw_buf.c ****     draw_buf->header.h = h;
 1268              		.loc 1 279 5 is_stmt 1 view .LVU319
 279:Drivers/lvgl/src/draw/lv_draw_buf.c ****     draw_buf->header.h = h;
 1269              		.loc 1 279 24 is_stmt 0 view .LVU320
 1270 003c A680     		strh	r6, [r4, #4]	@ movhi
 280:Drivers/lvgl/src/draw/lv_draw_buf.c ****     draw_buf->header.cf = cf;
 1271              		.loc 1 280 5 is_stmt 1 view .LVU321
 280:Drivers/lvgl/src/draw/lv_draw_buf.c ****     draw_buf->header.cf = cf;
 1272              		.loc 1 280 24 is_stmt 0 view .LVU322
 1273 003e A4F80680 		strh	r8, [r4, #6]	@ movhi
 281:Drivers/lvgl/src/draw/lv_draw_buf.c ****     draw_buf->header.flags = LV_IMAGE_FLAGS_MODIFIABLE | LV_IMAGE_FLAGS_ALLOCATED;
 1274              		.loc 1 281 5 is_stmt 1 view .LVU323
 281:Drivers/lvgl/src/draw/lv_draw_buf.c ****     draw_buf->header.flags = LV_IMAGE_FLAGS_MODIFIABLE | LV_IMAGE_FLAGS_ALLOCATED;
 1275              		.loc 1 281 25 is_stmt 0 view .LVU324
 1276 0042 6570     		strb	r5, [r4, #1]
 282:Drivers/lvgl/src/draw/lv_draw_buf.c ****     draw_buf->header.stride = stride;
 1277              		.loc 1 282 5 is_stmt 1 view .LVU325
 282:Drivers/lvgl/src/draw/lv_draw_buf.c ****     draw_buf->header.stride = stride;
 1278              		.loc 1 282 28 is_stmt 0 view .LVU326
 1279 0044 3023     		movs	r3, #48
 1280 0046 6380     		strh	r3, [r4, #2]	@ movhi
 283:Drivers/lvgl/src/draw/lv_draw_buf.c ****     draw_buf->header.magic = LV_IMAGE_HEADER_MAGIC;
 1281              		.loc 1 283 5 is_stmt 1 view .LVU327
 283:Drivers/lvgl/src/draw/lv_draw_buf.c ****     draw_buf->header.magic = LV_IMAGE_HEADER_MAGIC;
 1282              		.loc 1 283 29 is_stmt 0 view .LVU328
ARM GAS  /var/folders/qx/2_175_4n2s19vhvtspjhb3qh0000gn/T//ccxF66nk.s 			page 41


 1283 0048 A4F80890 		strh	r9, [r4, #8]	@ movhi
 284:Drivers/lvgl/src/draw/lv_draw_buf.c ****     draw_buf->data = lv_draw_buf_align(buf, cf);
 1284              		.loc 1 284 5 is_stmt 1 view .LVU329
 284:Drivers/lvgl/src/draw/lv_draw_buf.c ****     draw_buf->data = lv_draw_buf_align(buf, cf);
 1285              		.loc 1 284 28 is_stmt 0 view .LVU330
 1286 004c 1923     		movs	r3, #25
 1287 004e 2370     		strb	r3, [r4]
 285:Drivers/lvgl/src/draw/lv_draw_buf.c ****     draw_buf->unaligned_data = buf;
 1288              		.loc 1 285 5 is_stmt 1 view .LVU331
 285:Drivers/lvgl/src/draw/lv_draw_buf.c ****     draw_buf->unaligned_data = buf;
 1289              		.loc 1 285 22 is_stmt 0 view .LVU332
 1290 0050 2946     		mov	r1, r5
 1291 0052 FFF7FEFF 		bl	lv_draw_buf_align
 1292              	.LVL110:
 285:Drivers/lvgl/src/draw/lv_draw_buf.c ****     draw_buf->unaligned_data = buf;
 1293              		.loc 1 285 20 discriminator 1 view .LVU333
 1294 0056 2061     		str	r0, [r4, #16]
 286:Drivers/lvgl/src/draw/lv_draw_buf.c ****     draw_buf->data_size = size;
 1295              		.loc 1 286 5 is_stmt 1 view .LVU334
 286:Drivers/lvgl/src/draw/lv_draw_buf.c ****     draw_buf->data_size = size;
 1296              		.loc 1 286 30 is_stmt 0 view .LVU335
 1297 0058 C4F814B0 		str	fp, [r4, #20]
 287:Drivers/lvgl/src/draw/lv_draw_buf.c ****     draw_buf->handlers = handlers;
 1298              		.loc 1 287 5 is_stmt 1 view .LVU336
 287:Drivers/lvgl/src/draw/lv_draw_buf.c ****     draw_buf->handlers = handlers;
 1299              		.loc 1 287 25 is_stmt 0 view .LVU337
 1300 005c C4F80CA0 		str	r10, [r4, #12]
 288:Drivers/lvgl/src/draw/lv_draw_buf.c ****     LV_PROFILER_DRAW_END;
 1301              		.loc 1 288 5 is_stmt 1 view .LVU338
 288:Drivers/lvgl/src/draw/lv_draw_buf.c ****     LV_PROFILER_DRAW_END;
 1302              		.loc 1 288 24 is_stmt 0 view .LVU339
 1303 0060 A761     		str	r7, [r4, #24]
 289:Drivers/lvgl/src/draw/lv_draw_buf.c ****     return draw_buf;
 1304              		.loc 1 289 25 is_stmt 1 view .LVU340
 290:Drivers/lvgl/src/draw/lv_draw_buf.c **** }
 1305              		.loc 1 290 5 view .LVU341
 1306              	.LVL111:
 1307              	.L101:
 291:Drivers/lvgl/src/draw/lv_draw_buf.c **** 
 1308              		.loc 1 291 1 is_stmt 0 view .LVU342
 1309 0062 2046     		mov	r0, r4
 1310 0064 BDE8F88F 		pop	{r3, r4, r5, r6, r7, r8, r9, r10, fp, pc}
 1311              	.LVL112:
 1312              	.L103:
 260:Drivers/lvgl/src/draw/lv_draw_buf.c ****     if(draw_buf == NULL) {
 1313              		.loc 1 260 5 is_stmt 1 view .LVU343
 260:Drivers/lvgl/src/draw/lv_draw_buf.c ****     if(draw_buf == NULL) {
 1314              		.loc 1 260 5 view .LVU344
 260:Drivers/lvgl/src/draw/lv_draw_buf.c ****     if(draw_buf == NULL) {
 1315              		.loc 1 260 5 view .LVU345
 260:Drivers/lvgl/src/draw/lv_draw_buf.c ****     if(draw_buf == NULL) {
 1316              		.loc 1 260 5 view .LVU346
 260:Drivers/lvgl/src/draw/lv_draw_buf.c ****     if(draw_buf == NULL) {
 1317              		.loc 1 260 5 view .LVU347
 1318 0068 FEE7     		b	.L103
 1319              	.L108:
 265:Drivers/lvgl/src/draw/lv_draw_buf.c **** 
ARM GAS  /var/folders/qx/2_175_4n2s19vhvtspjhb3qh0000gn/T//ccxF66nk.s 			page 42


 1320              		.loc 1 265 21 discriminator 1 view .LVU348
 265:Drivers/lvgl/src/draw/lv_draw_buf.c **** 
 1321              		.loc 1 265 30 is_stmt 0 discriminator 1 view .LVU349
 1322 006a 2946     		mov	r1, r5
 1323 006c 3046     		mov	r0, r6
 1324              	.LVL113:
 265:Drivers/lvgl/src/draw/lv_draw_buf.c **** 
 1325              		.loc 1 265 30 discriminator 1 view .LVU350
 1326 006e FFF7FEFF 		bl	lv_draw_buf_width_to_stride
 1327              	.LVL114:
 1328 0072 8146     		mov	r9, r0
 1329 0074 D4E7     		b	.L104
 1330              	.LVL115:
 1331              	.L109:
 272:Drivers/lvgl/src/draw/lv_draw_buf.c ****                     w, h, cf, stride, size);
 1332              		.loc 1 272 9 is_stmt 1 view .LVU351
 272:Drivers/lvgl/src/draw/lv_draw_buf.c ****                     w, h, cf, stride, size);
 1333              		.loc 1 272 9 view .LVU352
 272:Drivers/lvgl/src/draw/lv_draw_buf.c ****                     w, h, cf, stride, size);
 1334              		.loc 1 272 9 view .LVU353
 274:Drivers/lvgl/src/draw/lv_draw_buf.c ****         LV_PROFILER_DRAW_END;
 1335              		.loc 1 274 9 view .LVU354
 1336 0076 2046     		mov	r0, r4
 1337              	.LVL116:
 274:Drivers/lvgl/src/draw/lv_draw_buf.c ****         LV_PROFILER_DRAW_END;
 1338              		.loc 1 274 9 is_stmt 0 view .LVU355
 1339 0078 FFF7FEFF 		bl	lv_free
 1340              	.LVL117:
 275:Drivers/lvgl/src/draw/lv_draw_buf.c ****         return NULL;
 1341              		.loc 1 275 29 is_stmt 1 view .LVU356
 276:Drivers/lvgl/src/draw/lv_draw_buf.c ****     }
 1342              		.loc 1 276 9 view .LVU357
 276:Drivers/lvgl/src/draw/lv_draw_buf.c ****     }
 1343              		.loc 1 276 16 is_stmt 0 view .LVU358
 1344 007c 5C46     		mov	r4, fp
 1345              	.LVL118:
 276:Drivers/lvgl/src/draw/lv_draw_buf.c ****     }
 1346              		.loc 1 276 16 view .LVU359
 1347 007e F0E7     		b	.L101
 1348              		.cfi_endproc
 1349              	.LFE208:
 1351              		.section	.text.lv_draw_buf_create,"ax",%progbits
 1352              		.align	1
 1353              		.global	lv_draw_buf_create
 1354              		.syntax unified
 1355              		.thumb
 1356              		.thumb_func
 1358              	lv_draw_buf_create:
 1359              	.LVL119:
 1360              	.LFB207:
 251:Drivers/lvgl/src/draw/lv_draw_buf.c ****     return lv_draw_buf_create_ex(&default_handlers, w, h, cf, stride);
 1361              		.loc 1 251 1 is_stmt 1 view -0
 1362              		.cfi_startproc
 1363              		@ args = 0, pretend = 0, frame = 0
 1364              		@ frame_needed = 0, uses_anonymous_args = 0
 251:Drivers/lvgl/src/draw/lv_draw_buf.c ****     return lv_draw_buf_create_ex(&default_handlers, w, h, cf, stride);
 1365              		.loc 1 251 1 is_stmt 0 view .LVU361
ARM GAS  /var/folders/qx/2_175_4n2s19vhvtspjhb3qh0000gn/T//ccxF66nk.s 			page 43


 1366 0000 00B5     		push	{lr}
 1367              	.LCFI30:
 1368              		.cfi_def_cfa_offset 4
 1369              		.cfi_offset 14, -4
 1370 0002 83B0     		sub	sp, sp, #12
 1371              	.LCFI31:
 1372              		.cfi_def_cfa_offset 16
 252:Drivers/lvgl/src/draw/lv_draw_buf.c **** }
 1373              		.loc 1 252 5 is_stmt 1 view .LVU362
 252:Drivers/lvgl/src/draw/lv_draw_buf.c **** }
 1374              		.loc 1 252 12 is_stmt 0 view .LVU363
 1375 0004 0093     		str	r3, [sp]
 1376 0006 1346     		mov	r3, r2
 1377              	.LVL120:
 252:Drivers/lvgl/src/draw/lv_draw_buf.c **** }
 1378              		.loc 1 252 12 view .LVU364
 1379 0008 0A46     		mov	r2, r1
 1380              	.LVL121:
 252:Drivers/lvgl/src/draw/lv_draw_buf.c **** }
 1381              		.loc 1 252 12 view .LVU365
 1382 000a 0146     		mov	r1, r0
 1383              	.LVL122:
 252:Drivers/lvgl/src/draw/lv_draw_buf.c **** }
 1384              		.loc 1 252 12 view .LVU366
 1385 000c 0248     		ldr	r0, .L112
 1386              	.LVL123:
 252:Drivers/lvgl/src/draw/lv_draw_buf.c **** }
 1387              		.loc 1 252 12 view .LVU367
 1388 000e FFF7FEFF 		bl	lv_draw_buf_create_ex
 1389              	.LVL124:
 253:Drivers/lvgl/src/draw/lv_draw_buf.c **** 
 1390              		.loc 1 253 1 view .LVU368
 1391 0012 03B0     		add	sp, sp, #12
 1392              	.LCFI32:
 1393              		.cfi_def_cfa_offset 4
 1394              		@ sp needed
 1395 0014 5DF804FB 		ldr	pc, [sp], #4
 1396              	.L113:
 1397              		.align	2
 1398              	.L112:
 1399 0018 CC000000 		.word	lv_global+204
 1400              		.cfi_endproc
 1401              	.LFE207:
 1403              		.section	.text.lv_draw_buf_dup_ex,"ax",%progbits
 1404              		.align	1
 1405              		.global	lv_draw_buf_dup_ex
 1406              		.syntax unified
 1407              		.thumb
 1408              		.thumb_func
 1410              	lv_draw_buf_dup_ex:
 1411              	.LVL125:
 1412              	.LFB210:
 299:Drivers/lvgl/src/draw/lv_draw_buf.c ****     LV_PROFILER_DRAW_BEGIN;
 1413              		.loc 1 299 1 is_stmt 1 view -0
 1414              		.cfi_startproc
 1415              		@ args = 0, pretend = 0, frame = 0
 1416              		@ frame_needed = 0, uses_anonymous_args = 0
ARM GAS  /var/folders/qx/2_175_4n2s19vhvtspjhb3qh0000gn/T//ccxF66nk.s 			page 44


 299:Drivers/lvgl/src/draw/lv_draw_buf.c ****     LV_PROFILER_DRAW_BEGIN;
 1417              		.loc 1 299 1 is_stmt 0 view .LVU370
 1418 0000 30B5     		push	{r4, r5, lr}
 1419              	.LCFI33:
 1420              		.cfi_def_cfa_offset 12
 1421              		.cfi_offset 4, -12
 1422              		.cfi_offset 5, -8
 1423              		.cfi_offset 14, -4
 1424 0002 83B0     		sub	sp, sp, #12
 1425              	.LCFI34:
 1426              		.cfi_def_cfa_offset 24
 1427 0004 0C46     		mov	r4, r1
 300:Drivers/lvgl/src/draw/lv_draw_buf.c ****     const lv_image_header_t * header = &draw_buf->header;
 1428              		.loc 1 300 27 is_stmt 1 view .LVU371
 301:Drivers/lvgl/src/draw/lv_draw_buf.c ****     lv_draw_buf_t * new_buf = lv_draw_buf_create_ex(handlers, header->w, header->h, header->cf, hea
 1429              		.loc 1 301 5 view .LVU372
 1430              	.LVL126:
 302:Drivers/lvgl/src/draw/lv_draw_buf.c ****     if(new_buf == NULL) {
 1431              		.loc 1 302 5 view .LVU373
 302:Drivers/lvgl/src/draw/lv_draw_buf.c ****     if(new_buf == NULL) {
 1432              		.loc 1 302 103 is_stmt 0 view .LVU374
 1433 0006 0B89     		ldrh	r3, [r1, #8]
 302:Drivers/lvgl/src/draw/lv_draw_buf.c ****     if(new_buf == NULL) {
 1434              		.loc 1 302 31 view .LVU375
 1435 0008 0093     		str	r3, [sp]
 1436 000a 4B78     		ldrb	r3, [r1, #1]	@ zero_extendqisi2
 1437 000c CA88     		ldrh	r2, [r1, #6]
 1438 000e 8988     		ldrh	r1, [r1, #4]
 1439              	.LVL127:
 302:Drivers/lvgl/src/draw/lv_draw_buf.c ****     if(new_buf == NULL) {
 1440              		.loc 1 302 31 view .LVU376
 1441 0010 FFF7FEFF 		bl	lv_draw_buf_create_ex
 1442              	.LVL128:
 303:Drivers/lvgl/src/draw/lv_draw_buf.c ****         LV_PROFILER_DRAW_END;
 1443              		.loc 1 303 5 is_stmt 1 view .LVU377
 303:Drivers/lvgl/src/draw/lv_draw_buf.c ****         LV_PROFILER_DRAW_END;
 1444              		.loc 1 303 7 is_stmt 0 view .LVU378
 1445 0014 0546     		mov	r5, r0
 1446 0016 70B1     		cbz	r0, .L114
 308:Drivers/lvgl/src/draw/lv_draw_buf.c **** 
 1447              		.loc 1 308 5 is_stmt 1 view .LVU379
 308:Drivers/lvgl/src/draw/lv_draw_buf.c **** 
 1448              		.loc 1 308 51 is_stmt 0 view .LVU380
 1449 0018 6388     		ldrh	r3, [r4, #2]
 308:Drivers/lvgl/src/draw/lv_draw_buf.c **** 
 1450              		.loc 1 308 5 view .LVU381
 1451 001a 43F03003 		orr	r3, r3, #48
 1452              	.LVL129:
 1453              	.LBB33:
 1454              	.LBI33:
 1455              		.file 3 "Drivers/lvgl/src/draw/lv_draw_buf.h"
   1:Drivers/lvgl/src/draw/lv_draw_buf.h **** /**
   2:Drivers/lvgl/src/draw/lv_draw_buf.h ****  * @file lv_draw_buf.h
   3:Drivers/lvgl/src/draw/lv_draw_buf.h ****  *
   4:Drivers/lvgl/src/draw/lv_draw_buf.h ****  */
   5:Drivers/lvgl/src/draw/lv_draw_buf.h **** 
   6:Drivers/lvgl/src/draw/lv_draw_buf.h **** #ifndef LV_DRAW_BUF_H
ARM GAS  /var/folders/qx/2_175_4n2s19vhvtspjhb3qh0000gn/T//ccxF66nk.s 			page 45


   7:Drivers/lvgl/src/draw/lv_draw_buf.h **** #define LV_DRAW_BUF_H
   8:Drivers/lvgl/src/draw/lv_draw_buf.h **** 
   9:Drivers/lvgl/src/draw/lv_draw_buf.h **** #ifdef __cplusplus
  10:Drivers/lvgl/src/draw/lv_draw_buf.h **** extern "C" {
  11:Drivers/lvgl/src/draw/lv_draw_buf.h **** #endif
  12:Drivers/lvgl/src/draw/lv_draw_buf.h **** 
  13:Drivers/lvgl/src/draw/lv_draw_buf.h **** /*********************
  14:Drivers/lvgl/src/draw/lv_draw_buf.h ****  *      INCLUDES
  15:Drivers/lvgl/src/draw/lv_draw_buf.h ****  *********************/
  16:Drivers/lvgl/src/draw/lv_draw_buf.h **** #include "../misc/lv_types.h"
  17:Drivers/lvgl/src/draw/lv_draw_buf.h **** #include "../misc/lv_area.h"
  18:Drivers/lvgl/src/draw/lv_draw_buf.h **** #include "../misc/lv_color.h"
  19:Drivers/lvgl/src/draw/lv_draw_buf.h **** #include "../stdlib/lv_string.h"
  20:Drivers/lvgl/src/draw/lv_draw_buf.h **** #include "lv_image_dsc.h"
  21:Drivers/lvgl/src/draw/lv_draw_buf.h **** 
  22:Drivers/lvgl/src/draw/lv_draw_buf.h **** /*********************
  23:Drivers/lvgl/src/draw/lv_draw_buf.h ****  *      DEFINES
  24:Drivers/lvgl/src/draw/lv_draw_buf.h ****  *********************/
  25:Drivers/lvgl/src/draw/lv_draw_buf.h **** 
  26:Drivers/lvgl/src/draw/lv_draw_buf.h **** /** Use this value to let LVGL calculate stride automatically */
  27:Drivers/lvgl/src/draw/lv_draw_buf.h **** #define LV_STRIDE_AUTO 0
  28:Drivers/lvgl/src/draw/lv_draw_buf.h **** LV_EXPORT_CONST_INT(LV_STRIDE_AUTO);
  29:Drivers/lvgl/src/draw/lv_draw_buf.h **** 
  30:Drivers/lvgl/src/draw/lv_draw_buf.h **** /**
  31:Drivers/lvgl/src/draw/lv_draw_buf.h ****  * Stride alignment for draw buffers.
  32:Drivers/lvgl/src/draw/lv_draw_buf.h ****  * It may vary between different color formats and hardware.
  33:Drivers/lvgl/src/draw/lv_draw_buf.h ****  * Refine it to suit your needs.
  34:Drivers/lvgl/src/draw/lv_draw_buf.h ****  */
  35:Drivers/lvgl/src/draw/lv_draw_buf.h **** 
  36:Drivers/lvgl/src/draw/lv_draw_buf.h **** #define LV_DRAW_BUF_STRIDE(w, cf) \
  37:Drivers/lvgl/src/draw/lv_draw_buf.h ****     LV_ROUND_UP(((w) * LV_COLOR_FORMAT_GET_BPP(cf) + 7) / 8, LV_DRAW_BUF_STRIDE_ALIGN)
  38:Drivers/lvgl/src/draw/lv_draw_buf.h **** 
  39:Drivers/lvgl/src/draw/lv_draw_buf.h **** /** Allocate a slightly larger buffer, so we can adjust the start address to meet alignment */
  40:Drivers/lvgl/src/draw/lv_draw_buf.h **** #define LV_DRAW_BUF_SIZE(w, h, cf) \
  41:Drivers/lvgl/src/draw/lv_draw_buf.h ****     (LV_DRAW_BUF_STRIDE(w, cf) * (h) + LV_DRAW_BUF_ALIGN + \
  42:Drivers/lvgl/src/draw/lv_draw_buf.h ****      LV_COLOR_INDEXED_PALETTE_SIZE(cf) * sizeof(lv_color32_t))
  43:Drivers/lvgl/src/draw/lv_draw_buf.h **** 
  44:Drivers/lvgl/src/draw/lv_draw_buf.h **** /**
  45:Drivers/lvgl/src/draw/lv_draw_buf.h ****  * Define a static draw buffer with the given width, height, and color format.
  46:Drivers/lvgl/src/draw/lv_draw_buf.h ****  * Stride alignment is set to LV_DRAW_BUF_STRIDE_ALIGN.
  47:Drivers/lvgl/src/draw/lv_draw_buf.h ****  *
  48:Drivers/lvgl/src/draw/lv_draw_buf.h ****  * For platform that needs special buffer alignment, call LV_DRAW_BUF_INIT_STATIC.
  49:Drivers/lvgl/src/draw/lv_draw_buf.h ****  */
  50:Drivers/lvgl/src/draw/lv_draw_buf.h **** #define LV_DRAW_BUF_DEFINE_STATIC(name, _w, _h, _cf) \
  51:Drivers/lvgl/src/draw/lv_draw_buf.h ****     static LV_ATTRIBUTE_MEM_ALIGN uint8_t buf_##name[LV_DRAW_BUF_SIZE(_w, _h, _cf)]; \
  52:Drivers/lvgl/src/draw/lv_draw_buf.h ****     static lv_draw_buf_t name = { \
  53:Drivers/lvgl/src/draw/lv_draw_buf.h ****                                   .header = { \
  54:Drivers/lvgl/src/draw/lv_draw_buf.h ****                                               .magic = LV_IMAGE_HEADER_MAGIC, \
  55:Drivers/lvgl/src/draw/lv_draw_buf.h ****                                               .cf = (_cf), \
  56:Drivers/lvgl/src/draw/lv_draw_buf.h ****                                               .flags = LV_IMAGE_FLAGS_MODIFIABLE, \
  57:Drivers/lvgl/src/draw/lv_draw_buf.h ****                                               .w = (_w), \
  58:Drivers/lvgl/src/draw/lv_draw_buf.h ****                                               .h = (_h), \
  59:Drivers/lvgl/src/draw/lv_draw_buf.h ****                                               .stride = LV_DRAW_BUF_STRIDE(_w, _cf), \
  60:Drivers/lvgl/src/draw/lv_draw_buf.h ****                                               .reserved_2 = 0, \
  61:Drivers/lvgl/src/draw/lv_draw_buf.h ****                                             }, \
  62:Drivers/lvgl/src/draw/lv_draw_buf.h ****                                   .data_size = sizeof(buf_##name), \
  63:Drivers/lvgl/src/draw/lv_draw_buf.h ****                                   .data = buf_##name, \
ARM GAS  /var/folders/qx/2_175_4n2s19vhvtspjhb3qh0000gn/T//ccxF66nk.s 			page 46


  64:Drivers/lvgl/src/draw/lv_draw_buf.h ****                                   .unaligned_data = buf_##name, \
  65:Drivers/lvgl/src/draw/lv_draw_buf.h ****                                 }
  66:Drivers/lvgl/src/draw/lv_draw_buf.h **** 
  67:Drivers/lvgl/src/draw/lv_draw_buf.h **** #define LV_DRAW_BUF_INIT_STATIC(name) \
  68:Drivers/lvgl/src/draw/lv_draw_buf.h ****     do { \
  69:Drivers/lvgl/src/draw/lv_draw_buf.h ****         lv_image_header_t * header = &name.header; \
  70:Drivers/lvgl/src/draw/lv_draw_buf.h ****         lv_draw_buf_init(&name, header->w, header->h, (lv_color_format_t)header->cf, header->stride
  71:Drivers/lvgl/src/draw/lv_draw_buf.h ****         lv_draw_buf_set_flag(&name, LV_IMAGE_FLAGS_MODIFIABLE); \
  72:Drivers/lvgl/src/draw/lv_draw_buf.h ****     } while(0)
  73:Drivers/lvgl/src/draw/lv_draw_buf.h **** 
  74:Drivers/lvgl/src/draw/lv_draw_buf.h **** /**********************
  75:Drivers/lvgl/src/draw/lv_draw_buf.h ****  *      TYPEDEFS
  76:Drivers/lvgl/src/draw/lv_draw_buf.h ****  **********************/
  77:Drivers/lvgl/src/draw/lv_draw_buf.h **** 
  78:Drivers/lvgl/src/draw/lv_draw_buf.h **** typedef void * (*lv_draw_buf_malloc_cb_t)(size_t size, lv_color_format_t color_format);
  79:Drivers/lvgl/src/draw/lv_draw_buf.h **** 
  80:Drivers/lvgl/src/draw/lv_draw_buf.h **** typedef void (*lv_draw_buf_free_cb_t)(void * draw_buf);
  81:Drivers/lvgl/src/draw/lv_draw_buf.h **** 
  82:Drivers/lvgl/src/draw/lv_draw_buf.h **** typedef void (*lv_draw_buf_copy_cb_t)(lv_draw_buf_t * dest, const lv_area_t * dest_area,
  83:Drivers/lvgl/src/draw/lv_draw_buf.h ****                                       const lv_draw_buf_t * src, const lv_area_t * src_area);
  84:Drivers/lvgl/src/draw/lv_draw_buf.h **** 
  85:Drivers/lvgl/src/draw/lv_draw_buf.h **** typedef void * (*lv_draw_buf_align_cb_t)(void * buf, lv_color_format_t color_format);
  86:Drivers/lvgl/src/draw/lv_draw_buf.h **** 
  87:Drivers/lvgl/src/draw/lv_draw_buf.h **** typedef void (*lv_draw_buf_cache_operation_cb_t)(const lv_draw_buf_t * draw_buf, const lv_area_t * 
  88:Drivers/lvgl/src/draw/lv_draw_buf.h **** 
  89:Drivers/lvgl/src/draw/lv_draw_buf.h **** typedef uint32_t (*lv_draw_buf_width_to_stride_cb_t)(uint32_t w, lv_color_format_t color_format);
  90:Drivers/lvgl/src/draw/lv_draw_buf.h **** 
  91:Drivers/lvgl/src/draw/lv_draw_buf.h **** struct _lv_draw_buf_t {
  92:Drivers/lvgl/src/draw/lv_draw_buf.h ****     lv_image_header_t header;
  93:Drivers/lvgl/src/draw/lv_draw_buf.h ****     uint32_t data_size;       /**< Total buf size in bytes */
  94:Drivers/lvgl/src/draw/lv_draw_buf.h ****     uint8_t * data;
  95:Drivers/lvgl/src/draw/lv_draw_buf.h ****     void * unaligned_data;    /**< Unaligned address of `data`, used internally by lvgl */
  96:Drivers/lvgl/src/draw/lv_draw_buf.h ****     const lv_draw_buf_handlers_t * handlers; /**< draw buffer alloc/free ops. */
  97:Drivers/lvgl/src/draw/lv_draw_buf.h **** };
  98:Drivers/lvgl/src/draw/lv_draw_buf.h **** 
  99:Drivers/lvgl/src/draw/lv_draw_buf.h **** /**********************
 100:Drivers/lvgl/src/draw/lv_draw_buf.h ****  * GLOBAL PROTOTYPES
 101:Drivers/lvgl/src/draw/lv_draw_buf.h ****  **********************/
 102:Drivers/lvgl/src/draw/lv_draw_buf.h **** 
 103:Drivers/lvgl/src/draw/lv_draw_buf.h **** /**
 104:Drivers/lvgl/src/draw/lv_draw_buf.h ****  * Initialize the draw buffer with the default handlers.
 105:Drivers/lvgl/src/draw/lv_draw_buf.h ****  *
 106:Drivers/lvgl/src/draw/lv_draw_buf.h ****  * @param handlers  the draw buffer handlers to set
 107:Drivers/lvgl/src/draw/lv_draw_buf.h ****  */
 108:Drivers/lvgl/src/draw/lv_draw_buf.h **** void lv_draw_buf_init_with_default_handlers(lv_draw_buf_handlers_t * handlers);
 109:Drivers/lvgl/src/draw/lv_draw_buf.h **** 
 110:Drivers/lvgl/src/draw/lv_draw_buf.h **** /**
 111:Drivers/lvgl/src/draw/lv_draw_buf.h ****  * Initialize the draw buffer with given handlers.
 112:Drivers/lvgl/src/draw/lv_draw_buf.h ****  *
 113:Drivers/lvgl/src/draw/lv_draw_buf.h ****  * @param handlers             the draw buffer handlers to set
 114:Drivers/lvgl/src/draw/lv_draw_buf.h ****  * @param buf_malloc_cb        the callback to allocate memory for the buffer
 115:Drivers/lvgl/src/draw/lv_draw_buf.h ****  * @param buf_free_cb          the callback to free memory of the buffer
 116:Drivers/lvgl/src/draw/lv_draw_buf.h ****  * @param buf_copy_cb          the callback to copy a draw buffer to an other
 117:Drivers/lvgl/src/draw/lv_draw_buf.h ****  * @param align_pointer_cb     the callback to align the buffer
 118:Drivers/lvgl/src/draw/lv_draw_buf.h ****  * @param invalidate_cache_cb  the callback to invalidate the cache of the buffer
 119:Drivers/lvgl/src/draw/lv_draw_buf.h ****  * @param flush_cache_cb       the callback to flush buffer
 120:Drivers/lvgl/src/draw/lv_draw_buf.h ****  * @param width_to_stride_cb   the callback to calculate the stride based on the width and color fo
ARM GAS  /var/folders/qx/2_175_4n2s19vhvtspjhb3qh0000gn/T//ccxF66nk.s 			page 47


 121:Drivers/lvgl/src/draw/lv_draw_buf.h ****  */
 122:Drivers/lvgl/src/draw/lv_draw_buf.h **** void lv_draw_buf_handlers_init(lv_draw_buf_handlers_t * handlers,
 123:Drivers/lvgl/src/draw/lv_draw_buf.h ****                                lv_draw_buf_malloc_cb_t buf_malloc_cb,
 124:Drivers/lvgl/src/draw/lv_draw_buf.h ****                                lv_draw_buf_free_cb_t buf_free_cb,
 125:Drivers/lvgl/src/draw/lv_draw_buf.h ****                                lv_draw_buf_copy_cb_t buf_copy_cb,
 126:Drivers/lvgl/src/draw/lv_draw_buf.h ****                                lv_draw_buf_align_cb_t align_pointer_cb,
 127:Drivers/lvgl/src/draw/lv_draw_buf.h ****                                lv_draw_buf_cache_operation_cb_t invalidate_cache_cb,
 128:Drivers/lvgl/src/draw/lv_draw_buf.h ****                                lv_draw_buf_cache_operation_cb_t flush_cache_cb,
 129:Drivers/lvgl/src/draw/lv_draw_buf.h ****                                lv_draw_buf_width_to_stride_cb_t width_to_stride_cb);
 130:Drivers/lvgl/src/draw/lv_draw_buf.h **** 
 131:Drivers/lvgl/src/draw/lv_draw_buf.h **** /**
 132:Drivers/lvgl/src/draw/lv_draw_buf.h ****  * Get the struct which holds the callbacks for draw buf management.
 133:Drivers/lvgl/src/draw/lv_draw_buf.h ****  * Custom callback can be set on the returned value
 134:Drivers/lvgl/src/draw/lv_draw_buf.h ****  * @return                  pointer to the struct of handlers
 135:Drivers/lvgl/src/draw/lv_draw_buf.h ****  */
 136:Drivers/lvgl/src/draw/lv_draw_buf.h **** lv_draw_buf_handlers_t * lv_draw_buf_get_handlers(void);
 137:Drivers/lvgl/src/draw/lv_draw_buf.h **** lv_draw_buf_handlers_t * lv_draw_buf_get_font_handlers(void);
 138:Drivers/lvgl/src/draw/lv_draw_buf.h **** lv_draw_buf_handlers_t * lv_draw_buf_get_image_handlers(void);
 139:Drivers/lvgl/src/draw/lv_draw_buf.h **** 
 140:Drivers/lvgl/src/draw/lv_draw_buf.h **** 
 141:Drivers/lvgl/src/draw/lv_draw_buf.h **** /**
 142:Drivers/lvgl/src/draw/lv_draw_buf.h ****  * Align the address of a buffer. The buffer needs to be large enough for the real data after align
 143:Drivers/lvgl/src/draw/lv_draw_buf.h ****  * @param buf           the data to align
 144:Drivers/lvgl/src/draw/lv_draw_buf.h ****  * @param color_format  the color format of the buffer
 145:Drivers/lvgl/src/draw/lv_draw_buf.h ****  * @return              the aligned buffer
 146:Drivers/lvgl/src/draw/lv_draw_buf.h ****  */
 147:Drivers/lvgl/src/draw/lv_draw_buf.h **** void * lv_draw_buf_align(void * buf, lv_color_format_t color_format);
 148:Drivers/lvgl/src/draw/lv_draw_buf.h **** 
 149:Drivers/lvgl/src/draw/lv_draw_buf.h **** /**
 150:Drivers/lvgl/src/draw/lv_draw_buf.h ****  * Align the address of a buffer with custom draw buffer handlers.
 151:Drivers/lvgl/src/draw/lv_draw_buf.h ****  * The buffer needs to be large enough for the real data after alignment
 152:Drivers/lvgl/src/draw/lv_draw_buf.h ****  * @param handlers      the draw buffer handlers
 153:Drivers/lvgl/src/draw/lv_draw_buf.h ****  * @param buf           the data to align
 154:Drivers/lvgl/src/draw/lv_draw_buf.h ****  * @param color_format  the color format of the buffer
 155:Drivers/lvgl/src/draw/lv_draw_buf.h ****  * @return              the aligned buffer
 156:Drivers/lvgl/src/draw/lv_draw_buf.h ****  */
 157:Drivers/lvgl/src/draw/lv_draw_buf.h **** void * lv_draw_buf_align_ex(const lv_draw_buf_handlers_t * handlers, void * buf, lv_color_format_t 
 158:Drivers/lvgl/src/draw/lv_draw_buf.h **** 
 159:Drivers/lvgl/src/draw/lv_draw_buf.h **** /**
 160:Drivers/lvgl/src/draw/lv_draw_buf.h ****  * Invalidate the cache of the buffer
 161:Drivers/lvgl/src/draw/lv_draw_buf.h ****  * @param draw_buf     the draw buffer needs to be invalidated
 162:Drivers/lvgl/src/draw/lv_draw_buf.h ****  * @param area         the area to invalidate in the buffer,
 163:Drivers/lvgl/src/draw/lv_draw_buf.h ****  *                     use NULL to invalidate the whole draw buffer address range
 164:Drivers/lvgl/src/draw/lv_draw_buf.h ****  */
 165:Drivers/lvgl/src/draw/lv_draw_buf.h **** void lv_draw_buf_invalidate_cache(const lv_draw_buf_t * draw_buf, const lv_area_t * area);
 166:Drivers/lvgl/src/draw/lv_draw_buf.h **** 
 167:Drivers/lvgl/src/draw/lv_draw_buf.h **** /**
 168:Drivers/lvgl/src/draw/lv_draw_buf.h ****  * Flush the cache of the buffer
 169:Drivers/lvgl/src/draw/lv_draw_buf.h ****  * @param draw_buf     the draw buffer needs to be flushed
 170:Drivers/lvgl/src/draw/lv_draw_buf.h ****  * @param area         the area to flush in the buffer,
 171:Drivers/lvgl/src/draw/lv_draw_buf.h ****  *                     use NULL to flush the whole draw buffer address range
 172:Drivers/lvgl/src/draw/lv_draw_buf.h ****  */
 173:Drivers/lvgl/src/draw/lv_draw_buf.h **** void lv_draw_buf_flush_cache(const lv_draw_buf_t * draw_buf, const lv_area_t * area);
 174:Drivers/lvgl/src/draw/lv_draw_buf.h **** 
 175:Drivers/lvgl/src/draw/lv_draw_buf.h **** /**
 176:Drivers/lvgl/src/draw/lv_draw_buf.h ****  * Calculate the stride in bytes based on a width and color format
 177:Drivers/lvgl/src/draw/lv_draw_buf.h ****  * @param w                 the width in pixels
ARM GAS  /var/folders/qx/2_175_4n2s19vhvtspjhb3qh0000gn/T//ccxF66nk.s 			page 48


 178:Drivers/lvgl/src/draw/lv_draw_buf.h ****  * @param color_format      the color format
 179:Drivers/lvgl/src/draw/lv_draw_buf.h ****  * @return                  the stride in bytes
 180:Drivers/lvgl/src/draw/lv_draw_buf.h ****  */
 181:Drivers/lvgl/src/draw/lv_draw_buf.h **** uint32_t lv_draw_buf_width_to_stride(uint32_t w, lv_color_format_t color_format);
 182:Drivers/lvgl/src/draw/lv_draw_buf.h **** 
 183:Drivers/lvgl/src/draw/lv_draw_buf.h **** /**
 184:Drivers/lvgl/src/draw/lv_draw_buf.h ****  * Calculate the stride in bytes based on a width and color format
 185:Drivers/lvgl/src/draw/lv_draw_buf.h ****  * @param handlers          the draw buffer handlers
 186:Drivers/lvgl/src/draw/lv_draw_buf.h ****  * @param w                 the width in pixels
 187:Drivers/lvgl/src/draw/lv_draw_buf.h ****  * @param color_format      the color format
 188:Drivers/lvgl/src/draw/lv_draw_buf.h ****  * @return                  the stride in bytes
 189:Drivers/lvgl/src/draw/lv_draw_buf.h ****  */
 190:Drivers/lvgl/src/draw/lv_draw_buf.h **** uint32_t lv_draw_buf_width_to_stride_ex(const lv_draw_buf_handlers_t * handlers, uint32_t w,
 191:Drivers/lvgl/src/draw/lv_draw_buf.h ****                                         lv_color_format_t color_format);
 192:Drivers/lvgl/src/draw/lv_draw_buf.h **** 
 193:Drivers/lvgl/src/draw/lv_draw_buf.h **** /**
 194:Drivers/lvgl/src/draw/lv_draw_buf.h ****  * Clear an area on the buffer
 195:Drivers/lvgl/src/draw/lv_draw_buf.h ****  * @param draw_buf          pointer to draw buffer
 196:Drivers/lvgl/src/draw/lv_draw_buf.h ****  * @param a                 the area to clear, or NULL to clear the whole buffer
 197:Drivers/lvgl/src/draw/lv_draw_buf.h ****  */
 198:Drivers/lvgl/src/draw/lv_draw_buf.h **** void lv_draw_buf_clear(lv_draw_buf_t * draw_buf, const lv_area_t * a);
 199:Drivers/lvgl/src/draw/lv_draw_buf.h **** 
 200:Drivers/lvgl/src/draw/lv_draw_buf.h **** 
 201:Drivers/lvgl/src/draw/lv_draw_buf.h **** /**
 202:Drivers/lvgl/src/draw/lv_draw_buf.h ****  * Note: Eventually, lv_draw_buf_malloc/free will be kept as private.
 203:Drivers/lvgl/src/draw/lv_draw_buf.h ****  *       For now, we use `create` to distinguish with malloc.
 204:Drivers/lvgl/src/draw/lv_draw_buf.h ****  *
 205:Drivers/lvgl/src/draw/lv_draw_buf.h ****  * Create an draw buf by allocating struct for `lv_draw_buf_t` and allocating a buffer for it
 206:Drivers/lvgl/src/draw/lv_draw_buf.h ****  * that meets specified requirements.
 207:Drivers/lvgl/src/draw/lv_draw_buf.h ****  *
 208:Drivers/lvgl/src/draw/lv_draw_buf.h ****  * @param w         the buffer width in pixels
 209:Drivers/lvgl/src/draw/lv_draw_buf.h ****  * @param h         the buffer height in pixels
 210:Drivers/lvgl/src/draw/lv_draw_buf.h ****  * @param cf        the color format for image
 211:Drivers/lvgl/src/draw/lv_draw_buf.h ****  * @param stride    the stride in bytes for image. Use 0 for automatic calculation based on
 212:Drivers/lvgl/src/draw/lv_draw_buf.h ****  *                  w, cf, and global stride alignment configuration.
 213:Drivers/lvgl/src/draw/lv_draw_buf.h ****  */
 214:Drivers/lvgl/src/draw/lv_draw_buf.h **** lv_draw_buf_t * lv_draw_buf_create(uint32_t w, uint32_t h, lv_color_format_t cf, uint32_t stride);
 215:Drivers/lvgl/src/draw/lv_draw_buf.h **** 
 216:Drivers/lvgl/src/draw/lv_draw_buf.h **** /**
 217:Drivers/lvgl/src/draw/lv_draw_buf.h ****  * Note: Eventually, lv_draw_buf_malloc/free will be kept as private.
 218:Drivers/lvgl/src/draw/lv_draw_buf.h ****  *       For now, we use `create` to distinguish with malloc.
 219:Drivers/lvgl/src/draw/lv_draw_buf.h ****  *
 220:Drivers/lvgl/src/draw/lv_draw_buf.h ****  * Create an draw buf by allocating struct for `lv_draw_buf_t` and allocating a buffer for it
 221:Drivers/lvgl/src/draw/lv_draw_buf.h ****  * that meets specified requirements.
 222:Drivers/lvgl/src/draw/lv_draw_buf.h ****  *
 223:Drivers/lvgl/src/draw/lv_draw_buf.h ****  * @param handlers  the draw buffer handlers
 224:Drivers/lvgl/src/draw/lv_draw_buf.h ****  * @param w         the buffer width in pixels
 225:Drivers/lvgl/src/draw/lv_draw_buf.h ****  * @param h         the buffer height in pixels
 226:Drivers/lvgl/src/draw/lv_draw_buf.h ****  * @param cf        the color format for image
 227:Drivers/lvgl/src/draw/lv_draw_buf.h ****  * @param stride    the stride in bytes for image. Use 0 for automatic calculation based on
 228:Drivers/lvgl/src/draw/lv_draw_buf.h ****  *                  w, cf, and global stride alignment configuration.
 229:Drivers/lvgl/src/draw/lv_draw_buf.h ****  */
 230:Drivers/lvgl/src/draw/lv_draw_buf.h **** lv_draw_buf_t * lv_draw_buf_create_ex(const lv_draw_buf_handlers_t * handlers, uint32_t w, uint32_t
 231:Drivers/lvgl/src/draw/lv_draw_buf.h ****                                       lv_color_format_t cf, uint32_t stride);
 232:Drivers/lvgl/src/draw/lv_draw_buf.h **** 
 233:Drivers/lvgl/src/draw/lv_draw_buf.h **** /**
 234:Drivers/lvgl/src/draw/lv_draw_buf.h ****  * Duplicate a draw buf with same image size, stride and color format. Copy the image data too.
ARM GAS  /var/folders/qx/2_175_4n2s19vhvtspjhb3qh0000gn/T//ccxF66nk.s 			page 49


 235:Drivers/lvgl/src/draw/lv_draw_buf.h ****  * @param draw_buf  the draw buf to duplicate
 236:Drivers/lvgl/src/draw/lv_draw_buf.h ****  * @return          the duplicated draw buf on success, NULL if failed
 237:Drivers/lvgl/src/draw/lv_draw_buf.h ****  */
 238:Drivers/lvgl/src/draw/lv_draw_buf.h **** lv_draw_buf_t * lv_draw_buf_dup(const lv_draw_buf_t * draw_buf);
 239:Drivers/lvgl/src/draw/lv_draw_buf.h **** 
 240:Drivers/lvgl/src/draw/lv_draw_buf.h **** /**
 241:Drivers/lvgl/src/draw/lv_draw_buf.h ****  * Duplicate a draw buf with same image size, stride and color format. Copy the image data too.
 242:Drivers/lvgl/src/draw/lv_draw_buf.h ****  * @param handlers  the draw buffer handlers
 243:Drivers/lvgl/src/draw/lv_draw_buf.h ****  * @param draw_buf  the draw buf to duplicate
 244:Drivers/lvgl/src/draw/lv_draw_buf.h ****  * @return          the duplicated draw buf on success, NULL if failed
 245:Drivers/lvgl/src/draw/lv_draw_buf.h ****  */
 246:Drivers/lvgl/src/draw/lv_draw_buf.h **** lv_draw_buf_t * lv_draw_buf_dup_ex(const lv_draw_buf_handlers_t * handlers, const lv_draw_buf_t * d
 247:Drivers/lvgl/src/draw/lv_draw_buf.h **** 
 248:Drivers/lvgl/src/draw/lv_draw_buf.h **** /**
 249:Drivers/lvgl/src/draw/lv_draw_buf.h ****  * Initialize a draw buf with the given buffer and parameters. Clear draw buffer flag to zero.
 250:Drivers/lvgl/src/draw/lv_draw_buf.h ****  * @param draw_buf  the draw buf to initialize
 251:Drivers/lvgl/src/draw/lv_draw_buf.h ****  * @param w         the buffer width in pixels
 252:Drivers/lvgl/src/draw/lv_draw_buf.h ****  * @param h         the buffer height in pixels
 253:Drivers/lvgl/src/draw/lv_draw_buf.h ****  * @param cf        the color format
 254:Drivers/lvgl/src/draw/lv_draw_buf.h ****  * @param stride    the stride in bytes. Use 0 for automatic calculation
 255:Drivers/lvgl/src/draw/lv_draw_buf.h ****  * @param data      the buffer used for drawing. Unaligned `data` will be aligned internally
 256:Drivers/lvgl/src/draw/lv_draw_buf.h ****  * @param data_size the size of the buffer in bytes
 257:Drivers/lvgl/src/draw/lv_draw_buf.h ****  * @return          return LV_RESULT_OK on success, LV_RESULT_INVALID otherwise
 258:Drivers/lvgl/src/draw/lv_draw_buf.h ****  */
 259:Drivers/lvgl/src/draw/lv_draw_buf.h **** lv_result_t lv_draw_buf_init(lv_draw_buf_t * draw_buf, uint32_t w, uint32_t h, lv_color_format_t cf
 260:Drivers/lvgl/src/draw/lv_draw_buf.h ****                              void * data, uint32_t data_size);
 261:Drivers/lvgl/src/draw/lv_draw_buf.h **** 
 262:Drivers/lvgl/src/draw/lv_draw_buf.h **** /**
 263:Drivers/lvgl/src/draw/lv_draw_buf.h ****  * Keep using the existing memory, reshape the draw buffer to the given width and height.
 264:Drivers/lvgl/src/draw/lv_draw_buf.h ****  * Return NULL if data_size is smaller than the required size.
 265:Drivers/lvgl/src/draw/lv_draw_buf.h ****  * @param draw_buf  pointer to a draw buffer
 266:Drivers/lvgl/src/draw/lv_draw_buf.h ****  * @param cf        the new color format, use 0 or LV_COLOR_FORMAT_UNKNOWN to keep using the origin
 267:Drivers/lvgl/src/draw/lv_draw_buf.h ****  * @param w         the new width in pixels
 268:Drivers/lvgl/src/draw/lv_draw_buf.h ****  * @param h         the new height in pixels
 269:Drivers/lvgl/src/draw/lv_draw_buf.h ****  * @param stride    the stride in bytes for image. Use 0 for automatic calculation.
 270:Drivers/lvgl/src/draw/lv_draw_buf.h ****  */
 271:Drivers/lvgl/src/draw/lv_draw_buf.h **** lv_draw_buf_t * lv_draw_buf_reshape(lv_draw_buf_t * draw_buf, lv_color_format_t cf, uint32_t w, uin
 272:Drivers/lvgl/src/draw/lv_draw_buf.h ****                                     uint32_t stride);
 273:Drivers/lvgl/src/draw/lv_draw_buf.h **** 
 274:Drivers/lvgl/src/draw/lv_draw_buf.h **** /**
 275:Drivers/lvgl/src/draw/lv_draw_buf.h ****  * Destroy a draw buf by freeing the actual buffer if it's marked as LV_IMAGE_FLAGS_ALLOCATED in he
 276:Drivers/lvgl/src/draw/lv_draw_buf.h ****  * Then free the lv_draw_buf_t struct.
 277:Drivers/lvgl/src/draw/lv_draw_buf.h ****  *
 278:Drivers/lvgl/src/draw/lv_draw_buf.h ****  * @param draw_buf  the draw buffer to destroy
 279:Drivers/lvgl/src/draw/lv_draw_buf.h ****  */
 280:Drivers/lvgl/src/draw/lv_draw_buf.h **** void lv_draw_buf_destroy(lv_draw_buf_t * draw_buf);
 281:Drivers/lvgl/src/draw/lv_draw_buf.h **** 
 282:Drivers/lvgl/src/draw/lv_draw_buf.h **** /**
 283:Drivers/lvgl/src/draw/lv_draw_buf.h ****  * Copy an area from a buffer to another
 284:Drivers/lvgl/src/draw/lv_draw_buf.h ****  * @param dest      pointer to the destination draw buffer
 285:Drivers/lvgl/src/draw/lv_draw_buf.h ****  * @param dest_area the area to copy from the destination buffer, if NULL, use the whole buffer
 286:Drivers/lvgl/src/draw/lv_draw_buf.h ****  * @param src       pointer to the source draw buffer
 287:Drivers/lvgl/src/draw/lv_draw_buf.h ****  * @param src_area  the area to copy from the destination buffer, if NULL, use the whole buffer
 288:Drivers/lvgl/src/draw/lv_draw_buf.h ****  * @note `dest_area` and `src_area` should have the same width and height
 289:Drivers/lvgl/src/draw/lv_draw_buf.h ****  * @note  The default copy function required `dest` and `src` to have the same color format.
 290:Drivers/lvgl/src/draw/lv_draw_buf.h ****  * Overwriting dest->handlers->buf_copy_cb can resolve this limitation.
 291:Drivers/lvgl/src/draw/lv_draw_buf.h ****  */
ARM GAS  /var/folders/qx/2_175_4n2s19vhvtspjhb3qh0000gn/T//ccxF66nk.s 			page 50


 292:Drivers/lvgl/src/draw/lv_draw_buf.h **** void lv_draw_buf_copy(lv_draw_buf_t * dest, const lv_area_t * dest_area,
 293:Drivers/lvgl/src/draw/lv_draw_buf.h ****                       const lv_draw_buf_t * src, const lv_area_t * src_area);
 294:Drivers/lvgl/src/draw/lv_draw_buf.h **** 
 295:Drivers/lvgl/src/draw/lv_draw_buf.h **** /**
 296:Drivers/lvgl/src/draw/lv_draw_buf.h ****  * Return pointer to the buffer at the given coordinates
 297:Drivers/lvgl/src/draw/lv_draw_buf.h ****  */
 298:Drivers/lvgl/src/draw/lv_draw_buf.h **** void * lv_draw_buf_goto_xy(const lv_draw_buf_t * buf, uint32_t x, uint32_t y);
 299:Drivers/lvgl/src/draw/lv_draw_buf.h **** 
 300:Drivers/lvgl/src/draw/lv_draw_buf.h **** /**
 301:Drivers/lvgl/src/draw/lv_draw_buf.h ****  * Adjust the stride of a draw buf in place.
 302:Drivers/lvgl/src/draw/lv_draw_buf.h ****  * @param src       pointer to a draw buffer
 303:Drivers/lvgl/src/draw/lv_draw_buf.h ****  * @param stride    the new stride in bytes for image. Use LV_STRIDE_AUTO for automatic calculation
 304:Drivers/lvgl/src/draw/lv_draw_buf.h ****  * @return          LV_RESULT_OK: success or LV_RESULT_INVALID: failed
 305:Drivers/lvgl/src/draw/lv_draw_buf.h ****  */
 306:Drivers/lvgl/src/draw/lv_draw_buf.h **** lv_result_t lv_draw_buf_adjust_stride(lv_draw_buf_t * src, uint32_t stride);
 307:Drivers/lvgl/src/draw/lv_draw_buf.h **** 
 308:Drivers/lvgl/src/draw/lv_draw_buf.h **** /**
 309:Drivers/lvgl/src/draw/lv_draw_buf.h ****  * Premultiply draw buffer color with alpha channel.
 310:Drivers/lvgl/src/draw/lv_draw_buf.h ****  * If it's already premultiplied, return directly.
 311:Drivers/lvgl/src/draw/lv_draw_buf.h ****  * Only color formats with alpha channel will be processed.
 312:Drivers/lvgl/src/draw/lv_draw_buf.h ****  *
 313:Drivers/lvgl/src/draw/lv_draw_buf.h ****  * @return LV_RESULT_OK: premultiply success
 314:Drivers/lvgl/src/draw/lv_draw_buf.h ****  */
 315:Drivers/lvgl/src/draw/lv_draw_buf.h **** lv_result_t lv_draw_buf_premultiply(lv_draw_buf_t * draw_buf);
 316:Drivers/lvgl/src/draw/lv_draw_buf.h **** 
 317:Drivers/lvgl/src/draw/lv_draw_buf.h **** 
 318:Drivers/lvgl/src/draw/lv_draw_buf.h **** /**
 319:Drivers/lvgl/src/draw/lv_draw_buf.h ****  * Check if a draw buffer has a given flag.
 320:Drivers/lvgl/src/draw/lv_draw_buf.h ****  * @param draw_buf  pointer to a draw buffer
 321:Drivers/lvgl/src/draw/lv_draw_buf.h ****  * @param flag      the flag to check
 322:Drivers/lvgl/src/draw/lv_draw_buf.h ****  * @return true: the flag is set, false: the flag is not set
 323:Drivers/lvgl/src/draw/lv_draw_buf.h ****  */
 324:Drivers/lvgl/src/draw/lv_draw_buf.h **** static inline bool lv_draw_buf_has_flag(const lv_draw_buf_t * draw_buf, lv_image_flags_t flag)
 325:Drivers/lvgl/src/draw/lv_draw_buf.h **** {
 326:Drivers/lvgl/src/draw/lv_draw_buf.h ****     return draw_buf->header.flags & flag;
 327:Drivers/lvgl/src/draw/lv_draw_buf.h **** }
 328:Drivers/lvgl/src/draw/lv_draw_buf.h **** 
 329:Drivers/lvgl/src/draw/lv_draw_buf.h **** /**
 330:Drivers/lvgl/src/draw/lv_draw_buf.h ****  * Set a flag to a draw buffer.
 331:Drivers/lvgl/src/draw/lv_draw_buf.h ****  * @param draw_buf  pointer to a draw buffer
 332:Drivers/lvgl/src/draw/lv_draw_buf.h ****  * @param flag      the flag to set
 333:Drivers/lvgl/src/draw/lv_draw_buf.h ****  */
 334:Drivers/lvgl/src/draw/lv_draw_buf.h **** static inline void lv_draw_buf_set_flag(lv_draw_buf_t * draw_buf, lv_image_flags_t flag)
 1456              		.loc 3 334 20 is_stmt 1 view .LVU382
 1457              	.LBB34:
 335:Drivers/lvgl/src/draw/lv_draw_buf.h **** {
 336:Drivers/lvgl/src/draw/lv_draw_buf.h ****     draw_buf->header.flags |= flag;
 1458              		.loc 3 336 5 view .LVU383
 1459              		.loc 3 336 21 is_stmt 0 view .LVU384
 1460 001e 4288     		ldrh	r2, [r0, #2]
 1461              		.loc 3 336 28 view .LVU385
 1462 0020 1343     		orrs	r3, r3, r2
 1463              	.LVL130:
 1464              		.loc 3 336 28 view .LVU386
 1465 0022 4380     		strh	r3, [r0, #2]	@ movhi
 1466              	.LVL131:
 1467              		.loc 3 336 28 view .LVU387
ARM GAS  /var/folders/qx/2_175_4n2s19vhvtspjhb3qh0000gn/T//ccxF66nk.s 			page 51


 1468              	.LBE34:
 1469              	.LBE33:
 311:Drivers/lvgl/src/draw/lv_draw_buf.c **** 
 1470              		.loc 1 311 5 is_stmt 1 view .LVU388
 311:Drivers/lvgl/src/draw/lv_draw_buf.c **** 
 1471              		.loc 1 311 21 is_stmt 0 view .LVU389
 1472 0024 C268     		ldr	r2, [r0, #12]
 1473 0026 E368     		ldr	r3, [r4, #12]
 1474              	.LVL132:
 314:Drivers/lvgl/src/draw/lv_draw_buf.c ****     LV_PROFILER_DRAW_END;
 1475              		.loc 1 314 5 is_stmt 1 view .LVU390
 1476 0028 9A42     		cmp	r2, r3
 1477 002a 28BF     		it	cs
 1478 002c 1A46     		movcs	r2, r3
 1479              	.LVL133:
 314:Drivers/lvgl/src/draw/lv_draw_buf.c ****     LV_PROFILER_DRAW_END;
 1480              		.loc 1 314 5 is_stmt 0 view .LVU391
 1481 002e 2169     		ldr	r1, [r4, #16]
 1482 0030 0069     		ldr	r0, [r0, #16]
 1483              	.LVL134:
 314:Drivers/lvgl/src/draw/lv_draw_buf.c ****     LV_PROFILER_DRAW_END;
 1484              		.loc 1 314 5 view .LVU392
 1485 0032 FFF7FEFF 		bl	lv_memcpy
 1486              	.LVL135:
 315:Drivers/lvgl/src/draw/lv_draw_buf.c ****     return new_buf;
 1487              		.loc 1 315 25 is_stmt 1 view .LVU393
 316:Drivers/lvgl/src/draw/lv_draw_buf.c **** }
 1488              		.loc 1 316 5 view .LVU394
 1489              	.L114:
 317:Drivers/lvgl/src/draw/lv_draw_buf.c **** 
 1490              		.loc 1 317 1 is_stmt 0 view .LVU395
 1491 0036 2846     		mov	r0, r5
 1492 0038 03B0     		add	sp, sp, #12
 1493              	.LCFI35:
 1494              		.cfi_def_cfa_offset 12
 1495              		@ sp needed
 1496 003a 30BD     		pop	{r4, r5, pc}
 317:Drivers/lvgl/src/draw/lv_draw_buf.c **** 
 1497              		.loc 1 317 1 view .LVU396
 1498              		.cfi_endproc
 1499              	.LFE210:
 1501              		.section	.text.lv_draw_buf_dup,"ax",%progbits
 1502              		.align	1
 1503              		.global	lv_draw_buf_dup
 1504              		.syntax unified
 1505              		.thumb
 1506              		.thumb_func
 1508              	lv_draw_buf_dup:
 1509              	.LVL136:
 1510              	.LFB209:
 294:Drivers/lvgl/src/draw/lv_draw_buf.c ****     return lv_draw_buf_dup_ex(&default_handlers, draw_buf);
 1511              		.loc 1 294 1 is_stmt 1 view -0
 1512              		.cfi_startproc
 1513              		@ args = 0, pretend = 0, frame = 0
 1514              		@ frame_needed = 0, uses_anonymous_args = 0
 294:Drivers/lvgl/src/draw/lv_draw_buf.c ****     return lv_draw_buf_dup_ex(&default_handlers, draw_buf);
 1515              		.loc 1 294 1 is_stmt 0 view .LVU398
ARM GAS  /var/folders/qx/2_175_4n2s19vhvtspjhb3qh0000gn/T//ccxF66nk.s 			page 52


 1516 0000 08B5     		push	{r3, lr}
 1517              	.LCFI36:
 1518              		.cfi_def_cfa_offset 8
 1519              		.cfi_offset 3, -8
 1520              		.cfi_offset 14, -4
 1521 0002 0146     		mov	r1, r0
 295:Drivers/lvgl/src/draw/lv_draw_buf.c **** }
 1522              		.loc 1 295 5 is_stmt 1 view .LVU399
 295:Drivers/lvgl/src/draw/lv_draw_buf.c **** }
 1523              		.loc 1 295 12 is_stmt 0 view .LVU400
 1524 0004 0148     		ldr	r0, .L119
 1525              	.LVL137:
 295:Drivers/lvgl/src/draw/lv_draw_buf.c **** }
 1526              		.loc 1 295 12 view .LVU401
 1527 0006 FFF7FEFF 		bl	lv_draw_buf_dup_ex
 1528              	.LVL138:
 296:Drivers/lvgl/src/draw/lv_draw_buf.c **** 
 1529              		.loc 1 296 1 view .LVU402
 1530 000a 08BD     		pop	{r3, pc}
 1531              	.L120:
 1532              		.align	2
 1533              	.L119:
 1534 000c CC000000 		.word	lv_global+204
 1535              		.cfi_endproc
 1536              	.LFE209:
 1538              		.section	.text.lv_draw_buf_reshape,"ax",%progbits
 1539              		.align	1
 1540              		.global	lv_draw_buf_reshape
 1541              		.syntax unified
 1542              		.thumb
 1543              		.thumb_func
 1545              	lv_draw_buf_reshape:
 1546              	.LVL139:
 1547              	.LFB211:
 321:Drivers/lvgl/src/draw/lv_draw_buf.c ****     if(draw_buf == NULL) return NULL;
 1548              		.loc 1 321 1 is_stmt 1 view -0
 1549              		.cfi_startproc
 1550              		@ args = 4, pretend = 0, frame = 0
 1551              		@ frame_needed = 0, uses_anonymous_args = 0
 321:Drivers/lvgl/src/draw/lv_draw_buf.c ****     if(draw_buf == NULL) return NULL;
 1552              		.loc 1 321 1 is_stmt 0 view .LVU404
 1553 0000 2DE9F041 		push	{r4, r5, r6, r7, r8, lr}
 1554              	.LCFI37:
 1555              		.cfi_def_cfa_offset 24
 1556              		.cfi_offset 4, -24
 1557              		.cfi_offset 5, -20
 1558              		.cfi_offset 6, -16
 1559              		.cfi_offset 7, -12
 1560              		.cfi_offset 8, -8
 1561              		.cfi_offset 14, -4
 1562 0004 DDF81880 		ldr	r8, [sp, #24]
 322:Drivers/lvgl/src/draw/lv_draw_buf.c ****     LV_PROFILER_DRAW_BEGIN;
 1563              		.loc 1 322 5 is_stmt 1 view .LVU405
 322:Drivers/lvgl/src/draw/lv_draw_buf.c ****     LV_PROFILER_DRAW_BEGIN;
 1564              		.loc 1 322 7 is_stmt 0 view .LVU406
 1565 0008 0446     		mov	r4, r0
 1566 000a B0B1     		cbz	r0, .L121
ARM GAS  /var/folders/qx/2_175_4n2s19vhvtspjhb3qh0000gn/T//ccxF66nk.s 			page 53


 1567 000c 0D46     		mov	r5, r1
 1568 000e 1646     		mov	r6, r2
 1569 0010 1F46     		mov	r7, r3
 323:Drivers/lvgl/src/draw/lv_draw_buf.c **** 
 1570              		.loc 1 323 27 is_stmt 1 view .LVU407
 326:Drivers/lvgl/src/draw/lv_draw_buf.c ****     if(stride == 0) stride = lv_draw_buf_width_to_stride(w, cf);
 1571              		.loc 1 326 5 view .LVU408
 326:Drivers/lvgl/src/draw/lv_draw_buf.c ****     if(stride == 0) stride = lv_draw_buf_width_to_stride(w, cf);
 1572              		.loc 1 326 7 is_stmt 0 view .LVU409
 1573 0012 01B9     		cbnz	r1, .L123
 326:Drivers/lvgl/src/draw/lv_draw_buf.c ****     if(stride == 0) stride = lv_draw_buf_width_to_stride(w, cf);
 1574              		.loc 1 326 39 is_stmt 1 discriminator 1 view .LVU410
 326:Drivers/lvgl/src/draw/lv_draw_buf.c ****     if(stride == 0) stride = lv_draw_buf_width_to_stride(w, cf);
 1575              		.loc 1 326 42 is_stmt 0 discriminator 1 view .LVU411
 1576 0014 4578     		ldrb	r5, [r0, #1]	@ zero_extendqisi2
 1577              	.L123:
 1578              	.LVL140:
 327:Drivers/lvgl/src/draw/lv_draw_buf.c **** 
 1579              		.loc 1 327 5 is_stmt 1 view .LVU412
 327:Drivers/lvgl/src/draw/lv_draw_buf.c **** 
 1580              		.loc 1 327 7 is_stmt 0 view .LVU413
 1581 0016 B8F1000F 		cmp	r8, #0
 1582 001a 10D0     		beq	.L128
 1583              	.LVL141:
 1584              	.L124:
 329:Drivers/lvgl/src/draw/lv_draw_buf.c **** 
 1585              		.loc 1 329 5 is_stmt 1 view .LVU414
 329:Drivers/lvgl/src/draw/lv_draw_buf.c **** 
 1586              		.loc 1 329 21 is_stmt 0 view .LVU415
 1587 001c 4346     		mov	r3, r8
 1588 001e 2A46     		mov	r2, r5
 1589 0020 3946     		mov	r1, r7
 1590 0022 3046     		mov	r0, r6
 1591 0024 FFF7FEFF 		bl	_calculate_draw_buf_size
 1592              	.LVL142:
 331:Drivers/lvgl/src/draw/lv_draw_buf.c ****         LV_LOG_TRACE("Draw buf too small for new shape");
 1593              		.loc 1 331 5 is_stmt 1 view .LVU416
 331:Drivers/lvgl/src/draw/lv_draw_buf.c ****         LV_LOG_TRACE("Draw buf too small for new shape");
 1594              		.loc 1 331 23 is_stmt 0 view .LVU417
 1595 0028 E368     		ldr	r3, [r4, #12]
 331:Drivers/lvgl/src/draw/lv_draw_buf.c ****         LV_LOG_TRACE("Draw buf too small for new shape");
 1596              		.loc 1 331 7 view .LVU418
 1597 002a 8342     		cmp	r3, r0
 1598 002c 0DD3     		bcc	.L126
 337:Drivers/lvgl/src/draw/lv_draw_buf.c ****     draw_buf->header.w = w;
 1599              		.loc 1 337 5 is_stmt 1 view .LVU419
 337:Drivers/lvgl/src/draw/lv_draw_buf.c ****     draw_buf->header.w = w;
 1600              		.loc 1 337 25 is_stmt 0 view .LVU420
 1601 002e 6570     		strb	r5, [r4, #1]
 338:Drivers/lvgl/src/draw/lv_draw_buf.c ****     draw_buf->header.h = h;
 1602              		.loc 1 338 5 is_stmt 1 view .LVU421
 338:Drivers/lvgl/src/draw/lv_draw_buf.c ****     draw_buf->header.h = h;
 1603              		.loc 1 338 24 is_stmt 0 view .LVU422
 1604 0030 A680     		strh	r6, [r4, #4]	@ movhi
 339:Drivers/lvgl/src/draw/lv_draw_buf.c ****     draw_buf->header.stride = stride;
 1605              		.loc 1 339 5 is_stmt 1 view .LVU423
 339:Drivers/lvgl/src/draw/lv_draw_buf.c ****     draw_buf->header.stride = stride;
ARM GAS  /var/folders/qx/2_175_4n2s19vhvtspjhb3qh0000gn/T//ccxF66nk.s 			page 54


 1606              		.loc 1 339 24 is_stmt 0 view .LVU424
 1607 0032 E780     		strh	r7, [r4, #6]	@ movhi
 340:Drivers/lvgl/src/draw/lv_draw_buf.c **** 
 1608              		.loc 1 340 5 is_stmt 1 view .LVU425
 340:Drivers/lvgl/src/draw/lv_draw_buf.c **** 
 1609              		.loc 1 340 29 is_stmt 0 view .LVU426
 1610 0034 A4F80880 		strh	r8, [r4, #8]	@ movhi
 342:Drivers/lvgl/src/draw/lv_draw_buf.c ****     return draw_buf;
 1611              		.loc 1 342 25 is_stmt 1 view .LVU427
 343:Drivers/lvgl/src/draw/lv_draw_buf.c **** }
 1612              		.loc 1 343 5 view .LVU428
 343:Drivers/lvgl/src/draw/lv_draw_buf.c **** }
 1613              		.loc 1 343 12 is_stmt 0 view .LVU429
 1614 0038 2046     		mov	r0, r4
 1615              	.LVL143:
 1616              	.L121:
 344:Drivers/lvgl/src/draw/lv_draw_buf.c **** 
 1617              		.loc 1 344 1 view .LVU430
 1618 003a BDE8F081 		pop	{r4, r5, r6, r7, r8, pc}
 1619              	.LVL144:
 1620              	.L128:
 327:Drivers/lvgl/src/draw/lv_draw_buf.c **** 
 1621              		.loc 1 327 21 is_stmt 1 discriminator 1 view .LVU431
 327:Drivers/lvgl/src/draw/lv_draw_buf.c **** 
 1622              		.loc 1 327 30 is_stmt 0 discriminator 1 view .LVU432
 1623 003e 2946     		mov	r1, r5
 1624 0040 3046     		mov	r0, r6
 1625              	.LVL145:
 327:Drivers/lvgl/src/draw/lv_draw_buf.c **** 
 1626              		.loc 1 327 30 discriminator 1 view .LVU433
 1627 0042 FFF7FEFF 		bl	lv_draw_buf_width_to_stride
 1628              	.LVL146:
 327:Drivers/lvgl/src/draw/lv_draw_buf.c **** 
 1629              		.loc 1 327 30 discriminator 1 view .LVU434
 1630 0046 8046     		mov	r8, r0
 1631 0048 E8E7     		b	.L124
 1632              	.LVL147:
 1633              	.L126:
 334:Drivers/lvgl/src/draw/lv_draw_buf.c ****     }
 1634              		.loc 1 334 16 view .LVU435
 1635 004a 0020     		movs	r0, #0
 1636              	.LVL148:
 334:Drivers/lvgl/src/draw/lv_draw_buf.c ****     }
 1637              		.loc 1 334 16 view .LVU436
 1638 004c F5E7     		b	.L121
 1639              		.cfi_endproc
 1640              	.LFE211:
 1642              		.section	.text.lv_draw_buf_destroy,"ax",%progbits
 1643              		.align	1
 1644              		.global	lv_draw_buf_destroy
 1645              		.syntax unified
 1646              		.thumb
 1647              		.thumb_func
 1649              	lv_draw_buf_destroy:
 1650              	.LVL149:
 1651              	.LFB212:
 347:Drivers/lvgl/src/draw/lv_draw_buf.c ****     LV_ASSERT_NULL(draw_buf);
ARM GAS  /var/folders/qx/2_175_4n2s19vhvtspjhb3qh0000gn/T//ccxF66nk.s 			page 55


 1652              		.loc 1 347 1 is_stmt 1 view -0
 1653              		.cfi_startproc
 1654              		@ args = 0, pretend = 0, frame = 0
 1655              		@ frame_needed = 0, uses_anonymous_args = 0
 348:Drivers/lvgl/src/draw/lv_draw_buf.c ****     if(draw_buf == NULL) return;
 1656              		.loc 1 348 5 view .LVU438
 348:Drivers/lvgl/src/draw/lv_draw_buf.c ****     if(draw_buf == NULL) return;
 1657              		.loc 1 348 5 view .LVU439
 1658 0000 70B1     		cbz	r0, .L131
 347:Drivers/lvgl/src/draw/lv_draw_buf.c ****     LV_ASSERT_NULL(draw_buf);
 1659              		.loc 1 347 1 is_stmt 0 view .LVU440
 1660 0002 10B5     		push	{r4, lr}
 1661              	.LCFI38:
 1662              		.cfi_def_cfa_offset 8
 1663              		.cfi_offset 4, -8
 1664              		.cfi_offset 14, -4
 1665 0004 0446     		mov	r4, r0
 348:Drivers/lvgl/src/draw/lv_draw_buf.c ****     if(draw_buf == NULL) return;
 1666              		.loc 1 348 5 is_stmt 1 view .LVU441
 348:Drivers/lvgl/src/draw/lv_draw_buf.c ****     if(draw_buf == NULL) return;
 1667              		.loc 1 348 29 view .LVU442
 349:Drivers/lvgl/src/draw/lv_draw_buf.c ****     LV_PROFILER_DRAW_BEGIN;
 1668              		.loc 1 349 5 view .LVU443
 350:Drivers/lvgl/src/draw/lv_draw_buf.c ****     if(lv_draw_buf_has_flag(draw_buf, LV_IMAGE_FLAGS_ALLOCATED)) {
 1669              		.loc 1 350 27 view .LVU444
 351:Drivers/lvgl/src/draw/lv_draw_buf.c ****         LV_ASSERT_NULL(draw_buf->handlers);
 1670              		.loc 1 351 5 view .LVU445
 1671              	.LVL150:
 1672              	.LBB35:
 1673              	.LBI35:
 324:Drivers/lvgl/src/draw/lv_draw_buf.h **** {
 1674              		.loc 3 324 20 view .LVU446
 1675              	.LBB36:
 326:Drivers/lvgl/src/draw/lv_draw_buf.h **** }
 1676              		.loc 3 326 5 view .LVU447
 326:Drivers/lvgl/src/draw/lv_draw_buf.h **** }
 1677              		.loc 3 326 28 is_stmt 0 view .LVU448
 1678 0006 4388     		ldrh	r3, [r0, #2]
 1679              	.LVL151:
 326:Drivers/lvgl/src/draw/lv_draw_buf.h **** }
 1680              		.loc 3 326 28 view .LVU449
 1681              	.LBE36:
 1682              	.LBE35:
 351:Drivers/lvgl/src/draw/lv_draw_buf.c ****         LV_ASSERT_NULL(draw_buf->handlers);
 1683              		.loc 1 351 7 discriminator 1 view .LVU450
 1684 0008 13F0100F 		tst	r3, #16
 1685 000c 07D0     		beq	.L129
 1686              	.LBB37:
 352:Drivers/lvgl/src/draw/lv_draw_buf.c **** 
 1687              		.loc 1 352 9 is_stmt 1 view .LVU451
 352:Drivers/lvgl/src/draw/lv_draw_buf.c **** 
 1688              		.loc 1 352 9 view .LVU452
 1689 000e 8069     		ldr	r0, [r0, #24]
 1690              	.LVL152:
 352:Drivers/lvgl/src/draw/lv_draw_buf.c **** 
 1691              		.loc 1 352 9 is_stmt 0 view .LVU453
 1692 0010 38B1     		cbz	r0, .L134
ARM GAS  /var/folders/qx/2_175_4n2s19vhvtspjhb3qh0000gn/T//ccxF66nk.s 			page 56


 352:Drivers/lvgl/src/draw/lv_draw_buf.c **** 
 1693              		.loc 1 352 9 is_stmt 1 view .LVU454
 352:Drivers/lvgl/src/draw/lv_draw_buf.c **** 
 1694              		.loc 1 352 43 view .LVU455
 354:Drivers/lvgl/src/draw/lv_draw_buf.c ****         draw_buf_free(handlers, draw_buf->unaligned_data);
 1695              		.loc 1 354 9 view .LVU456
 1696              	.LVL153:
 355:Drivers/lvgl/src/draw/lv_draw_buf.c ****         lv_free(draw_buf);
 1697              		.loc 1 355 9 view .LVU457
 1698 0012 6169     		ldr	r1, [r4, #20]
 1699 0014 FFF7FEFF 		bl	draw_buf_free
 1700              	.LVL154:
 356:Drivers/lvgl/src/draw/lv_draw_buf.c ****     }
 1701              		.loc 1 356 9 view .LVU458
 1702 0018 2046     		mov	r0, r4
 1703 001a FFF7FEFF 		bl	lv_free
 1704              	.LVL155:
 1705              	.LBE37:
 359:Drivers/lvgl/src/draw/lv_draw_buf.c ****     }
 1706              		.loc 1 359 9 view .LVU459
 359:Drivers/lvgl/src/draw/lv_draw_buf.c ****     }
 1707              		.loc 1 359 9 view .LVU460
 359:Drivers/lvgl/src/draw/lv_draw_buf.c ****     }
 1708              		.loc 1 359 9 view .LVU461
 361:Drivers/lvgl/src/draw/lv_draw_buf.c **** }
 1709              		.loc 1 361 25 view .LVU462
 1710              	.L129:
 362:Drivers/lvgl/src/draw/lv_draw_buf.c **** 
 1711              		.loc 1 362 1 is_stmt 0 view .LVU463
 1712 001e 10BD     		pop	{r4, pc}
 1713              	.LVL156:
 1714              	.L131:
 1715              	.LCFI39:
 1716              		.cfi_def_cfa_offset 0
 1717              		.cfi_restore 4
 1718              		.cfi_restore 14
 348:Drivers/lvgl/src/draw/lv_draw_buf.c ****     if(draw_buf == NULL) return;
 1719              		.loc 1 348 5 is_stmt 1 view .LVU464
 348:Drivers/lvgl/src/draw/lv_draw_buf.c ****     if(draw_buf == NULL) return;
 1720              		.loc 1 348 5 view .LVU465
 348:Drivers/lvgl/src/draw/lv_draw_buf.c ****     if(draw_buf == NULL) return;
 1721              		.loc 1 348 5 view .LVU466
 348:Drivers/lvgl/src/draw/lv_draw_buf.c ****     if(draw_buf == NULL) return;
 1722              		.loc 1 348 5 view .LVU467
 348:Drivers/lvgl/src/draw/lv_draw_buf.c ****     if(draw_buf == NULL) return;
 1723              		.loc 1 348 5 view .LVU468
 1724 0020 FEE7     		b	.L131
 1725              	.LVL157:
 1726              	.L134:
 1727              	.LCFI40:
 1728              		.cfi_def_cfa_offset 8
 1729              		.cfi_offset 4, -8
 1730              		.cfi_offset 14, -4
 1731              	.LBB38:
 352:Drivers/lvgl/src/draw/lv_draw_buf.c **** 
 1732              		.loc 1 352 9 view .LVU469
 352:Drivers/lvgl/src/draw/lv_draw_buf.c **** 
ARM GAS  /var/folders/qx/2_175_4n2s19vhvtspjhb3qh0000gn/T//ccxF66nk.s 			page 57


 1733              		.loc 1 352 9 view .LVU470
 352:Drivers/lvgl/src/draw/lv_draw_buf.c **** 
 1734              		.loc 1 352 9 view .LVU471
 352:Drivers/lvgl/src/draw/lv_draw_buf.c **** 
 1735              		.loc 1 352 9 view .LVU472
 352:Drivers/lvgl/src/draw/lv_draw_buf.c **** 
 1736              		.loc 1 352 9 view .LVU473
 1737 0022 FEE7     		b	.L134
 1738              	.LBE38:
 1739              		.cfi_endproc
 1740              	.LFE212:
 1742              		.section	.text.lv_draw_buf_copy,"ax",%progbits
 1743              		.align	1
 1744              		.global	lv_draw_buf_copy
 1745              		.syntax unified
 1746              		.thumb
 1747              		.thumb_func
 1749              	lv_draw_buf_copy:
 1750              	.LVL158:
 1751              	.LFB213:
 366:Drivers/lvgl/src/draw/lv_draw_buf.c ****     LV_ASSERT_NULL(dest);
 1752              		.loc 1 366 1 view -0
 1753              		.cfi_startproc
 1754              		@ args = 0, pretend = 0, frame = 0
 1755              		@ frame_needed = 0, uses_anonymous_args = 0
 367:Drivers/lvgl/src/draw/lv_draw_buf.c ****     LV_ASSERT_NULL(dest->handlers);
 1756              		.loc 1 367 5 view .LVU475
 367:Drivers/lvgl/src/draw/lv_draw_buf.c ****     LV_ASSERT_NULL(dest->handlers);
 1757              		.loc 1 367 5 view .LVU476
 1758 0000 48B1     		cbz	r0, .L139
 1759 0002 8446     		mov	ip, r0
 367:Drivers/lvgl/src/draw/lv_draw_buf.c ****     LV_ASSERT_NULL(dest->handlers);
 1760              		.loc 1 367 5 view .LVU477
 367:Drivers/lvgl/src/draw/lv_draw_buf.c ****     LV_ASSERT_NULL(dest->handlers);
 1761              		.loc 1 367 25 view .LVU478
 368:Drivers/lvgl/src/draw/lv_draw_buf.c ****     LV_ASSERT_NULL(dest->handlers->buf_copy_cb);
 1762              		.loc 1 368 5 view .LVU479
 368:Drivers/lvgl/src/draw/lv_draw_buf.c ****     LV_ASSERT_NULL(dest->handlers->buf_copy_cb);
 1763              		.loc 1 368 5 view .LVU480
 1764 0004 8069     		ldr	r0, [r0, #24]
 1765              	.LVL159:
 368:Drivers/lvgl/src/draw/lv_draw_buf.c ****     LV_ASSERT_NULL(dest->handlers->buf_copy_cb);
 1766              		.loc 1 368 5 is_stmt 0 view .LVU481
 1767 0006 38B1     		cbz	r0, .L141
 366:Drivers/lvgl/src/draw/lv_draw_buf.c ****     LV_ASSERT_NULL(dest);
 1768              		.loc 1 366 1 view .LVU482
 1769 0008 10B5     		push	{r4, lr}
 1770              	.LCFI41:
 1771              		.cfi_def_cfa_offset 8
 1772              		.cfi_offset 4, -8
 1773              		.cfi_offset 14, -4
 368:Drivers/lvgl/src/draw/lv_draw_buf.c ****     LV_ASSERT_NULL(dest->handlers->buf_copy_cb);
 1774              		.loc 1 368 5 is_stmt 1 view .LVU483
 368:Drivers/lvgl/src/draw/lv_draw_buf.c ****     LV_ASSERT_NULL(dest->handlers->buf_copy_cb);
 1775              		.loc 1 368 35 view .LVU484
 369:Drivers/lvgl/src/draw/lv_draw_buf.c ****     LV_ASSERT_NULL(src);
 1776              		.loc 1 369 5 view .LVU485
ARM GAS  /var/folders/qx/2_175_4n2s19vhvtspjhb3qh0000gn/T//ccxF66nk.s 			page 58


 369:Drivers/lvgl/src/draw/lv_draw_buf.c ****     LV_ASSERT_NULL(src);
 1777              		.loc 1 369 5 view .LVU486
 1778 000a 8468     		ldr	r4, [r0, #8]
 1779 000c 2CB1     		cbz	r4, .L143
 369:Drivers/lvgl/src/draw/lv_draw_buf.c ****     LV_ASSERT_NULL(src);
 1780              		.loc 1 369 5 view .LVU487
 369:Drivers/lvgl/src/draw/lv_draw_buf.c ****     LV_ASSERT_NULL(src);
 1781              		.loc 1 369 48 view .LVU488
 370:Drivers/lvgl/src/draw/lv_draw_buf.c **** 
 1782              		.loc 1 370 5 view .LVU489
 370:Drivers/lvgl/src/draw/lv_draw_buf.c **** 
 1783              		.loc 1 370 5 view .LVU490
 1784 000e 2AB1     		cbz	r2, .L145
 370:Drivers/lvgl/src/draw/lv_draw_buf.c **** 
 1785              		.loc 1 370 5 view .LVU491
 370:Drivers/lvgl/src/draw/lv_draw_buf.c **** 
 1786              		.loc 1 370 24 view .LVU492
 372:Drivers/lvgl/src/draw/lv_draw_buf.c **** }
 1787              		.loc 1 372 5 view .LVU493
 1788 0010 6046     		mov	r0, ip
 1789 0012 A047     		blx	r4
 1790              	.LVL160:
 373:Drivers/lvgl/src/draw/lv_draw_buf.c **** 
 1791              		.loc 1 373 1 is_stmt 0 view .LVU494
 1792 0014 10BD     		pop	{r4, pc}
 1793              	.LVL161:
 1794              	.L139:
 1795              	.LCFI42:
 1796              		.cfi_def_cfa_offset 0
 1797              		.cfi_restore 4
 1798              		.cfi_restore 14
 367:Drivers/lvgl/src/draw/lv_draw_buf.c ****     LV_ASSERT_NULL(dest->handlers);
 1799              		.loc 1 367 5 is_stmt 1 view .LVU495
 367:Drivers/lvgl/src/draw/lv_draw_buf.c ****     LV_ASSERT_NULL(dest->handlers);
 1800              		.loc 1 367 5 view .LVU496
 367:Drivers/lvgl/src/draw/lv_draw_buf.c ****     LV_ASSERT_NULL(dest->handlers);
 1801              		.loc 1 367 5 view .LVU497
 367:Drivers/lvgl/src/draw/lv_draw_buf.c ****     LV_ASSERT_NULL(dest->handlers);
 1802              		.loc 1 367 5 view .LVU498
 367:Drivers/lvgl/src/draw/lv_draw_buf.c ****     LV_ASSERT_NULL(dest->handlers);
 1803              		.loc 1 367 5 view .LVU499
 1804 0016 FEE7     		b	.L139
 1805              	.LVL162:
 1806              	.L141:
 368:Drivers/lvgl/src/draw/lv_draw_buf.c ****     LV_ASSERT_NULL(dest->handlers->buf_copy_cb);
 1807              		.loc 1 368 5 view .LVU500
 368:Drivers/lvgl/src/draw/lv_draw_buf.c ****     LV_ASSERT_NULL(dest->handlers->buf_copy_cb);
 1808              		.loc 1 368 5 view .LVU501
 368:Drivers/lvgl/src/draw/lv_draw_buf.c ****     LV_ASSERT_NULL(dest->handlers->buf_copy_cb);
 1809              		.loc 1 368 5 view .LVU502
 368:Drivers/lvgl/src/draw/lv_draw_buf.c ****     LV_ASSERT_NULL(dest->handlers->buf_copy_cb);
 1810              		.loc 1 368 5 view .LVU503
 368:Drivers/lvgl/src/draw/lv_draw_buf.c ****     LV_ASSERT_NULL(dest->handlers->buf_copy_cb);
 1811              		.loc 1 368 5 view .LVU504
 1812 0018 FEE7     		b	.L141
 1813              	.L143:
 1814              	.LCFI43:
ARM GAS  /var/folders/qx/2_175_4n2s19vhvtspjhb3qh0000gn/T//ccxF66nk.s 			page 59


 1815              		.cfi_def_cfa_offset 8
 1816              		.cfi_offset 4, -8
 1817              		.cfi_offset 14, -4
 369:Drivers/lvgl/src/draw/lv_draw_buf.c ****     LV_ASSERT_NULL(src);
 1818              		.loc 1 369 5 view .LVU505
 369:Drivers/lvgl/src/draw/lv_draw_buf.c ****     LV_ASSERT_NULL(src);
 1819              		.loc 1 369 5 view .LVU506
 369:Drivers/lvgl/src/draw/lv_draw_buf.c ****     LV_ASSERT_NULL(src);
 1820              		.loc 1 369 5 view .LVU507
 369:Drivers/lvgl/src/draw/lv_draw_buf.c ****     LV_ASSERT_NULL(src);
 1821              		.loc 1 369 5 view .LVU508
 369:Drivers/lvgl/src/draw/lv_draw_buf.c ****     LV_ASSERT_NULL(src);
 1822              		.loc 1 369 5 view .LVU509
 1823 001a FEE7     		b	.L143
 1824              	.L145:
 370:Drivers/lvgl/src/draw/lv_draw_buf.c **** 
 1825              		.loc 1 370 5 view .LVU510
 370:Drivers/lvgl/src/draw/lv_draw_buf.c **** 
 1826              		.loc 1 370 5 view .LVU511
 370:Drivers/lvgl/src/draw/lv_draw_buf.c **** 
 1827              		.loc 1 370 5 view .LVU512
 370:Drivers/lvgl/src/draw/lv_draw_buf.c **** 
 1828              		.loc 1 370 5 view .LVU513
 370:Drivers/lvgl/src/draw/lv_draw_buf.c **** 
 1829              		.loc 1 370 5 view .LVU514
 1830 001c FEE7     		b	.L145
 1831              		.cfi_endproc
 1832              	.LFE213:
 1834              		.section	.text.lv_draw_buf_goto_xy,"ax",%progbits
 1835              		.align	1
 1836              		.global	lv_draw_buf_goto_xy
 1837              		.syntax unified
 1838              		.thumb
 1839              		.thumb_func
 1841              	lv_draw_buf_goto_xy:
 1842              	.LVL163:
 1843              	.LFB214:
 376:Drivers/lvgl/src/draw/lv_draw_buf.c ****     LV_ASSERT_NULL(buf);
 1844              		.loc 1 376 1 view -0
 1845              		.cfi_startproc
 1846              		@ args = 0, pretend = 0, frame = 0
 1847              		@ frame_needed = 0, uses_anonymous_args = 0
 377:Drivers/lvgl/src/draw/lv_draw_buf.c ****     if(buf == NULL) return NULL;
 1848              		.loc 1 377 5 view .LVU516
 377:Drivers/lvgl/src/draw/lv_draw_buf.c ****     if(buf == NULL) return NULL;
 1849              		.loc 1 377 5 view .LVU517
 1850 0000 88B1     		cbz	r0, .L150
 376:Drivers/lvgl/src/draw/lv_draw_buf.c ****     LV_ASSERT_NULL(buf);
 1851              		.loc 1 376 1 is_stmt 0 view .LVU518
 1852 0002 38B5     		push	{r3, r4, r5, lr}
 1853              	.LCFI44:
 1854              		.cfi_def_cfa_offset 16
 1855              		.cfi_offset 3, -16
 1856              		.cfi_offset 4, -12
 1857              		.cfi_offset 5, -8
 1858              		.cfi_offset 14, -4
 1859 0004 0C46     		mov	r4, r1
ARM GAS  /var/folders/qx/2_175_4n2s19vhvtspjhb3qh0000gn/T//ccxF66nk.s 			page 60


 1860 0006 0346     		mov	r3, r0
 377:Drivers/lvgl/src/draw/lv_draw_buf.c ****     if(buf == NULL) return NULL;
 1861              		.loc 1 377 5 is_stmt 1 view .LVU519
 377:Drivers/lvgl/src/draw/lv_draw_buf.c ****     if(buf == NULL) return NULL;
 1862              		.loc 1 377 24 view .LVU520
 378:Drivers/lvgl/src/draw/lv_draw_buf.c **** 
 1863              		.loc 1 378 5 view .LVU521
 380:Drivers/lvgl/src/draw/lv_draw_buf.c ****         LV_LOG_ERROR("coordinates out of range, x: %" LV_PRIu32 ", y: %"LV_PRIu32", w: %"LV_PRIu32"
 1864              		.loc 1 380 5 view .LVU522
 380:Drivers/lvgl/src/draw/lv_draw_buf.c ****         LV_LOG_ERROR("coordinates out of range, x: %" LV_PRIu32 ", y: %"LV_PRIu32", w: %"LV_PRIu32"
 1865              		.loc 1 380 24 is_stmt 0 view .LVU523
 1866 0008 8188     		ldrh	r1, [r0, #4]
 1867              	.LVL164:
 380:Drivers/lvgl/src/draw/lv_draw_buf.c ****         LV_LOG_ERROR("coordinates out of range, x: %" LV_PRIu32 ", y: %"LV_PRIu32", w: %"LV_PRIu32"
 1868              		.loc 1 380 7 view .LVU524
 1869 000a A142     		cmp	r1, r4
 1870 000c 24D9     		bls	.L158
 380:Drivers/lvgl/src/draw/lv_draw_buf.c ****         LV_LOG_ERROR("coordinates out of range, x: %" LV_PRIu32 ", y: %"LV_PRIu32", w: %"LV_PRIu32"
 1871              		.loc 1 380 46 discriminator 1 view .LVU525
 1872 000e C188     		ldrh	r1, [r0, #6]
 380:Drivers/lvgl/src/draw/lv_draw_buf.c ****         LV_LOG_ERROR("coordinates out of range, x: %" LV_PRIu32 ", y: %"LV_PRIu32", w: %"LV_PRIu32"
 1873              		.loc 1 380 27 discriminator 1 view .LVU526
 1874 0010 9142     		cmp	r1, r2
 1875 0012 23D9     		bls	.L159
 386:Drivers/lvgl/src/draw/lv_draw_buf.c **** 
 1876              		.loc 1 386 5 is_stmt 1 view .LVU527
 386:Drivers/lvgl/src/draw/lv_draw_buf.c **** 
 1877              		.loc 1 386 15 is_stmt 0 view .LVU528
 1878 0014 0569     		ldr	r5, [r0, #16]
 1879              	.LVL165:
 389:Drivers/lvgl/src/draw/lv_draw_buf.c ****     data += buf->header.stride * y;
 1880              		.loc 1 389 5 is_stmt 1 view .LVU529
 389:Drivers/lvgl/src/draw/lv_draw_buf.c ****     data += buf->header.stride * y;
 1881              		.loc 1 389 13 is_stmt 0 view .LVU530
 1882 0016 4078     		ldrb	r0, [r0, #1]	@ zero_extendqisi2
 1883              	.LVL166:
 389:Drivers/lvgl/src/draw/lv_draw_buf.c ****     data += buf->header.stride * y;
 1884              		.loc 1 389 13 view .LVU531
 1885 0018 C11F     		subs	r1, r0, #7
 1886 001a 0329     		cmp	r1, #3
 1887 001c 04D8     		bhi	.L152
 1888 001e DFE801F0 		tbb	[pc, r1]
 1889              	.L154:
 1890 0022 12       		.byte	(.L160-.L154)/2
 1891 0023 05       		.byte	(.L156-.L154)/2
 1892 0024 0D       		.byte	(.L155-.L154)/2
 1893 0025 0F       		.byte	(.L153-.L154)/2
 1894              	.LVL167:
 1895              		.p2align 1
 1896              	.L150:
 1897              	.LCFI45:
 1898              		.cfi_def_cfa_offset 0
 1899              		.cfi_restore 3
 1900              		.cfi_restore 4
 1901              		.cfi_restore 5
 1902              		.cfi_restore 14
 377:Drivers/lvgl/src/draw/lv_draw_buf.c ****     if(buf == NULL) return NULL;
ARM GAS  /var/folders/qx/2_175_4n2s19vhvtspjhb3qh0000gn/T//ccxF66nk.s 			page 61


 1903              		.loc 1 377 5 is_stmt 1 view .LVU532
 377:Drivers/lvgl/src/draw/lv_draw_buf.c ****     if(buf == NULL) return NULL;
 1904              		.loc 1 377 5 view .LVU533
 377:Drivers/lvgl/src/draw/lv_draw_buf.c ****     if(buf == NULL) return NULL;
 1905              		.loc 1 377 5 view .LVU534
 377:Drivers/lvgl/src/draw/lv_draw_buf.c ****     if(buf == NULL) return NULL;
 1906              		.loc 1 377 5 view .LVU535
 377:Drivers/lvgl/src/draw/lv_draw_buf.c ****     if(buf == NULL) return NULL;
 1907              		.loc 1 377 5 view .LVU536
 1908 0026 FEE7     		b	.L150
 1909              	.LVL168:
 1910              	.L152:
 1911              	.LCFI46:
 1912              		.cfi_def_cfa_offset 16
 1913              		.cfi_offset 3, -16
 1914              		.cfi_offset 4, -12
 1915              		.cfi_offset 5, -8
 1916              		.cfi_offset 14, -4
 389:Drivers/lvgl/src/draw/lv_draw_buf.c ****     data += buf->header.stride * y;
 1917              		.loc 1 389 13 is_stmt 0 view .LVU537
 1918 0028 0021     		movs	r1, #0
 1919 002a 00E0     		b	.L157
 1920              	.L156:
 1921 002c 1021     		movs	r1, #16
 1922              	.L157:
 1923              	.LVL169:
 390:Drivers/lvgl/src/draw/lv_draw_buf.c **** 
 1924              		.loc 1 390 5 is_stmt 1 view .LVU538
 390:Drivers/lvgl/src/draw/lv_draw_buf.c **** 
 1925              		.loc 1 390 24 is_stmt 0 view .LVU539
 1926 002e 1B89     		ldrh	r3, [r3, #8]
 1927              	.LVL170:
 390:Drivers/lvgl/src/draw/lv_draw_buf.c **** 
 1928              		.loc 1 390 10 view .LVU540
 1929 0030 02FB0313 		mla	r3, r2, r3, r1
 1930 0034 1D44     		add	r5, r5, r3
 1931              	.LVL171:
 392:Drivers/lvgl/src/draw/lv_draw_buf.c **** 
 1932              		.loc 1 392 5 is_stmt 1 view .LVU541
 392:Drivers/lvgl/src/draw/lv_draw_buf.c **** 
 1933              		.loc 1 392 7 is_stmt 0 view .LVU542
 1934 0036 44B9     		cbnz	r4, .L163
 1935              	.LVL172:
 1936              	.L148:
 395:Drivers/lvgl/src/draw/lv_draw_buf.c **** 
 1937              		.loc 1 395 1 view .LVU543
 1938 0038 2846     		mov	r0, r5
 1939 003a 38BD     		pop	{r3, r4, r5, pc}
 1940              	.LVL173:
 1941              	.L155:
 389:Drivers/lvgl/src/draw/lv_draw_buf.c ****     data += buf->header.stride * y;
 1942              		.loc 1 389 13 view .LVU544
 1943 003c 4021     		movs	r1, #64
 1944 003e F6E7     		b	.L157
 1945              	.L153:
 1946 0040 4FF48061 		mov	r1, #1024
 1947 0044 F3E7     		b	.L157
ARM GAS  /var/folders/qx/2_175_4n2s19vhvtspjhb3qh0000gn/T//ccxF66nk.s 			page 62


 1948              	.L160:
 1949 0046 0821     		movs	r1, #8
 1950 0048 F1E7     		b	.L157
 1951              	.LVL174:
 1952              	.L163:
 394:Drivers/lvgl/src/draw/lv_draw_buf.c **** }
 1953              		.loc 1 394 5 is_stmt 1 view .LVU545
 394:Drivers/lvgl/src/draw/lv_draw_buf.c **** }
 1954              		.loc 1 394 23 is_stmt 0 view .LVU546
 1955 004a FFF7FEFF 		bl	lv_color_format_get_bpp
 1956              	.LVL175:
 394:Drivers/lvgl/src/draw/lv_draw_buf.c **** }
 1957              		.loc 1 394 21 discriminator 1 view .LVU547
 1958 004e 04FB00F3 		mul	r3, r4, r0
 394:Drivers/lvgl/src/draw/lv_draw_buf.c **** }
 1959              		.loc 1 394 17 discriminator 1 view .LVU548
 1960 0052 05EBD305 		add	r5, r5, r3, lsr #3
 1961              	.LVL176:
 394:Drivers/lvgl/src/draw/lv_draw_buf.c **** }
 1962              		.loc 1 394 17 view .LVU549
 1963 0056 EFE7     		b	.L148
 1964              	.LVL177:
 1965              	.L158:
 383:Drivers/lvgl/src/draw/lv_draw_buf.c ****     }
 1966              		.loc 1 383 16 view .LVU550
 1967 0058 0025     		movs	r5, #0
 1968 005a EDE7     		b	.L148
 1969              	.L159:
 1970 005c 0025     		movs	r5, #0
 1971 005e EBE7     		b	.L148
 1972              		.cfi_endproc
 1973              	.LFE214:
 1975              		.section	.text.buf_copy,"ax",%progbits
 1976              		.align	1
 1977              		.syntax unified
 1978              		.thumb
 1979              		.thumb_func
 1981              	buf_copy:
 1982              	.LVL178:
 1983              	.LFB224:
 569:Drivers/lvgl/src/draw/lv_draw_buf.c ****     LV_PROFILER_DRAW_BEGIN;
 1984              		.loc 1 569 1 is_stmt 1 view -0
 1985              		.cfi_startproc
 1986              		@ args = 0, pretend = 0, frame = 0
 1987              		@ frame_needed = 0, uses_anonymous_args = 0
 569:Drivers/lvgl/src/draw/lv_draw_buf.c ****     LV_PROFILER_DRAW_BEGIN;
 1988              		.loc 1 569 1 is_stmt 0 view .LVU552
 1989 0000 2DE9F84F 		push	{r3, r4, r5, r6, r7, r8, r9, r10, fp, lr}
 1990              	.LCFI47:
 1991              		.cfi_def_cfa_offset 40
 1992              		.cfi_offset 3, -40
 1993              		.cfi_offset 4, -36
 1994              		.cfi_offset 5, -32
 1995              		.cfi_offset 6, -28
 1996              		.cfi_offset 7, -24
 1997              		.cfi_offset 8, -20
 1998              		.cfi_offset 9, -16
ARM GAS  /var/folders/qx/2_175_4n2s19vhvtspjhb3qh0000gn/T//ccxF66nk.s 			page 63


 1999              		.cfi_offset 10, -12
 2000              		.cfi_offset 11, -8
 2001              		.cfi_offset 14, -4
 2002 0004 0E46     		mov	r6, r1
 2003 0006 1546     		mov	r5, r2
 570:Drivers/lvgl/src/draw/lv_draw_buf.c ****     uint8_t * dest_bufc;
 2004              		.loc 1 570 27 is_stmt 1 view .LVU553
 571:Drivers/lvgl/src/draw/lv_draw_buf.c ****     uint8_t * src_bufc;
 2005              		.loc 1 571 5 view .LVU554
 572:Drivers/lvgl/src/draw/lv_draw_buf.c ****     int32_t line_width;
 2006              		.loc 1 572 5 view .LVU555
 573:Drivers/lvgl/src/draw/lv_draw_buf.c **** 
 2007              		.loc 1 573 5 view .LVU556
 576:Drivers/lvgl/src/draw/lv_draw_buf.c ****                          dest->header.cf, src->header.cf);
 2008              		.loc 1 576 5 view .LVU557
 576:Drivers/lvgl/src/draw/lv_draw_buf.c ****                          dest->header.cf, src->header.cf);
 2009              		.loc 1 576 5 view .LVU558
 2010 0008 4178     		ldrb	r1, [r0, #1]	@ zero_extendqisi2
 2011              	.LVL179:
 576:Drivers/lvgl/src/draw/lv_draw_buf.c ****                          dest->header.cf, src->header.cf);
 2012              		.loc 1 576 5 is_stmt 0 view .LVU559
 2013 000a 5278     		ldrb	r2, [r2, #1]	@ zero_extendqisi2
 2014              	.LVL180:
 576:Drivers/lvgl/src/draw/lv_draw_buf.c ****                          dest->header.cf, src->header.cf);
 2015              		.loc 1 576 5 view .LVU560
 2016 000c 9142     		cmp	r1, r2
 2017 000e 00D0     		beq	.L165
 2018              	.L166:
 576:Drivers/lvgl/src/draw/lv_draw_buf.c ****                          dest->header.cf, src->header.cf);
 2019              		.loc 1 576 5 is_stmt 1 view .LVU561
 576:Drivers/lvgl/src/draw/lv_draw_buf.c ****                          dest->header.cf, src->header.cf);
 2020              		.loc 1 576 5 view .LVU562
 576:Drivers/lvgl/src/draw/lv_draw_buf.c ****                          dest->header.cf, src->header.cf);
 2021              		.loc 1 576 5 view .LVU563
 576:Drivers/lvgl/src/draw/lv_draw_buf.c ****                          dest->header.cf, src->header.cf);
 2022              		.loc 1 576 5 view .LVU564
 576:Drivers/lvgl/src/draw/lv_draw_buf.c ****                          dest->header.cf, src->header.cf);
 2023              		.loc 1 576 5 view .LVU565
 2024 0010 FEE7     		b	.L166
 2025              	.L165:
 2026 0012 0446     		mov	r4, r0
 2027 0014 1F46     		mov	r7, r3
 576:Drivers/lvgl/src/draw/lv_draw_buf.c ****                          dest->header.cf, src->header.cf);
 2028              		.loc 1 576 5 view .LVU566
 579:Drivers/lvgl/src/draw/lv_draw_buf.c ****     else line_width = lv_area_get_width(dest_area);
 2029              		.loc 1 579 5 view .LVU567
 579:Drivers/lvgl/src/draw/lv_draw_buf.c ****     else line_width = lv_area_get_width(dest_area);
 2030              		.loc 1 579 7 is_stmt 0 view .LVU568
 2031 0016 2EB1     		cbz	r6, .L189
 580:Drivers/lvgl/src/draw/lv_draw_buf.c **** 
 2032              		.loc 1 580 10 is_stmt 1 view .LVU569
 580:Drivers/lvgl/src/draw/lv_draw_buf.c **** 
 2033              		.loc 1 580 23 is_stmt 0 view .LVU570
 2034 0018 3046     		mov	r0, r6
 2035              	.LVL181:
 580:Drivers/lvgl/src/draw/lv_draw_buf.c **** 
 2036              		.loc 1 580 23 view .LVU571
ARM GAS  /var/folders/qx/2_175_4n2s19vhvtspjhb3qh0000gn/T//ccxF66nk.s 			page 64


 2037 001a FFF7FEFF 		bl	lv_area_get_width
 2038              	.LVL182:
 580:Drivers/lvgl/src/draw/lv_draw_buf.c **** 
 2039              		.loc 1 580 23 view .LVU572
 2040 001e 8246     		mov	r10, r0
 2041              	.LVL183:
 583:Drivers/lvgl/src/draw/lv_draw_buf.c ****         if(LV_COLOR_FORMAT_IS_INDEXED(dest->header.cf)) {
 2042              		.loc 1 583 5 is_stmt 1 view .LVU573
 583:Drivers/lvgl/src/draw/lv_draw_buf.c ****         if(LV_COLOR_FORMAT_IS_INDEXED(dest->header.cf)) {
 2043              		.loc 1 583 26 is_stmt 0 discriminator 1 view .LVU574
 2044 0020 B7B9     		cbnz	r7, .L169
 2045 0022 01E0     		b	.L168
 2046              	.LVL184:
 2047              	.L189:
 579:Drivers/lvgl/src/draw/lv_draw_buf.c ****     else line_width = lv_area_get_width(dest_area);
 2048              		.loc 1 579 27 is_stmt 1 discriminator 1 view .LVU575
 579:Drivers/lvgl/src/draw/lv_draw_buf.c ****     else line_width = lv_area_get_width(dest_area);
 2049              		.loc 1 579 52 is_stmt 0 discriminator 1 view .LVU576
 2050 0024 B0F804A0 		ldrh	r10, [r0, #4]
 2051              	.LVL185:
 583:Drivers/lvgl/src/draw/lv_draw_buf.c ****         if(LV_COLOR_FORMAT_IS_INDEXED(dest->header.cf)) {
 2052              		.loc 1 583 5 is_stmt 1 view .LVU577
 2053              	.L168:
 584:Drivers/lvgl/src/draw/lv_draw_buf.c ****             lv_memcpy(dest->data, src->data, LV_COLOR_INDEXED_PALETTE_SIZE(dest->header.cf) * sizeo
 2054              		.loc 1 584 9 view .LVU578
 584:Drivers/lvgl/src/draw/lv_draw_buf.c ****             lv_memcpy(dest->data, src->data, LV_COLOR_INDEXED_PALETTE_SIZE(dest->header.cf) * sizeo
 2055              		.loc 1 584 12 is_stmt 0 view .LVU579
 2056 0028 6278     		ldrb	r2, [r4, #1]	@ zero_extendqisi2
 2057 002a D31F     		subs	r3, r2, #7
 2058 002c DBB2     		uxtb	r3, r3
 584:Drivers/lvgl/src/draw/lv_draw_buf.c ****             lv_memcpy(dest->data, src->data, LV_COLOR_INDEXED_PALETTE_SIZE(dest->header.cf) * sizeo
 2059              		.loc 1 584 11 view .LVU580
 2060 002e 032B     		cmp	r3, #3
 2061 0030 0DD8     		bhi	.L170
 585:Drivers/lvgl/src/draw/lv_draw_buf.c ****         }
 2062              		.loc 1 585 13 is_stmt 1 view .LVU581
 585:Drivers/lvgl/src/draw/lv_draw_buf.c ****         }
 2063              		.loc 1 585 27 is_stmt 0 view .LVU582
 2064 0032 2069     		ldr	r0, [r4, #16]
 585:Drivers/lvgl/src/draw/lv_draw_buf.c ****         }
 2065              		.loc 1 585 38 view .LVU583
 2066 0034 2969     		ldr	r1, [r5, #16]
 2067 0036 073A     		subs	r2, r2, #7
 2068 0038 032A     		cmp	r2, #3
 2069 003a 03D8     		bhi	.L171
 2070 003c DFE802F0 		tbb	[pc, r2]
 2071              	.L173:
 2072 0040 13       		.byte	(.L186-.L173)/2
 2073 0041 04       		.byte	(.L175-.L173)/2
 2074 0042 0E       		.byte	(.L174-.L173)/2
 2075 0043 10       		.byte	(.L172-.L173)/2
 2076              		.p2align 1
 2077              	.L171:
 2078 0044 0022     		movs	r2, #0
 2079 0046 00E0     		b	.L176
 2080              	.L175:
 2081 0048 1022     		movs	r2, #16
ARM GAS  /var/folders/qx/2_175_4n2s19vhvtspjhb3qh0000gn/T//ccxF66nk.s 			page 65


 2082              	.L176:
 585:Drivers/lvgl/src/draw/lv_draw_buf.c ****         }
 2083              		.loc 1 585 13 discriminator 16 view .LVU584
 2084 004a FFF7FEFF 		bl	lv_memcpy
 2085              	.LVL186:
 2086              	.L170:
 590:Drivers/lvgl/src/draw/lv_draw_buf.c ****        (src_area != NULL && line_width != lv_area_get_width(src_area))) {
 2087              		.loc 1 590 5 is_stmt 1 view .LVU585
 590:Drivers/lvgl/src/draw/lv_draw_buf.c ****        (src_area != NULL && line_width != lv_area_get_width(src_area))) {
 2088              		.loc 1 590 7 is_stmt 0 view .LVU586
 2089 004e 67B1     		cbz	r7, .L177
 2090              	.L169:
 591:Drivers/lvgl/src/draw/lv_draw_buf.c ****         LV_ASSERT_MSG(0, "Source and destination areas have different width");
 2091              		.loc 1 591 43 view .LVU587
 2092 0050 3846     		mov	r0, r7
 2093 0052 FFF7FEFF 		bl	lv_area_get_width
 2094              	.LVL187:
 591:Drivers/lvgl/src/draw/lv_draw_buf.c ****         LV_ASSERT_MSG(0, "Source and destination areas have different width");
 2095              		.loc 1 591 26 discriminator 1 view .LVU588
 2096 0056 5045     		cmp	r0, r10
 2097 0058 25D0     		beq	.L190
 2098              	.L178:
 592:Drivers/lvgl/src/draw/lv_draw_buf.c ****         LV_PROFILER_DRAW_END;
 2099              		.loc 1 592 9 is_stmt 1 view .LVU589
 592:Drivers/lvgl/src/draw/lv_draw_buf.c ****         LV_PROFILER_DRAW_END;
 2100              		.loc 1 592 9 view .LVU590
 592:Drivers/lvgl/src/draw/lv_draw_buf.c ****         LV_PROFILER_DRAW_END;
 2101              		.loc 1 592 9 view .LVU591
 592:Drivers/lvgl/src/draw/lv_draw_buf.c ****         LV_PROFILER_DRAW_END;
 2102              		.loc 1 592 9 view .LVU592
 592:Drivers/lvgl/src/draw/lv_draw_buf.c ****         LV_PROFILER_DRAW_END;
 2103              		.loc 1 592 9 view .LVU593
 2104 005a FEE7     		b	.L178
 2105              	.L174:
 585:Drivers/lvgl/src/draw/lv_draw_buf.c ****         }
 2106              		.loc 1 585 38 is_stmt 0 view .LVU594
 2107 005c 4022     		movs	r2, #64
 2108 005e F4E7     		b	.L176
 2109              	.L172:
 2110 0060 4FF48062 		mov	r2, #1024
 2111 0064 F1E7     		b	.L176
 2112              	.L186:
 2113 0066 0822     		movs	r2, #8
 2114 0068 EFE7     		b	.L176
 2115              	.L177:
 590:Drivers/lvgl/src/draw/lv_draw_buf.c ****        (src_area != NULL && line_width != lv_area_get_width(src_area))) {
 2116              		.loc 1 590 54 discriminator 1 view .LVU595
 2117 006a AB88     		ldrh	r3, [r5, #4]
 590:Drivers/lvgl/src/draw/lv_draw_buf.c ****        (src_area != NULL && line_width != lv_area_get_width(src_area))) {
 2118              		.loc 1 590 26 discriminator 1 view .LVU596
 2119 006c 5345     		cmp	r3, r10
 2120 006e F4D1     		bne	.L178
 2121              	.L180:
 598:Drivers/lvgl/src/draw/lv_draw_buf.c **** 
 2122              		.loc 1 598 10 is_stmt 1 view .LVU597
 598:Drivers/lvgl/src/draw/lv_draw_buf.c **** 
 2123              		.loc 1 598 21 is_stmt 0 view .LVU598
ARM GAS  /var/folders/qx/2_175_4n2s19vhvtspjhb3qh0000gn/T//ccxF66nk.s 			page 66


 2124 0070 0022     		movs	r2, #0
 2125 0072 1146     		mov	r1, r2
 2126 0074 2846     		mov	r0, r5
 2127 0076 FFF7FEFF 		bl	lv_draw_buf_goto_xy
 2128              	.LVL188:
 2129 007a 8046     		mov	r8, r0
 2130              	.L181:
 2131              	.LVL189:
 600:Drivers/lvgl/src/draw/lv_draw_buf.c ****     else dest_bufc = lv_draw_buf_goto_xy(dest, 0, 0);
 2132              		.loc 1 600 5 is_stmt 1 view .LVU599
 600:Drivers/lvgl/src/draw/lv_draw_buf.c ****     else dest_bufc = lv_draw_buf_goto_xy(dest, 0, 0);
 2133              		.loc 1 600 7 is_stmt 0 view .LVU600
 2134 007c E6B1     		cbz	r6, .L182
 600:Drivers/lvgl/src/draw/lv_draw_buf.c ****     else dest_bufc = lv_draw_buf_goto_xy(dest, 0, 0);
 2135              		.loc 1 600 19 is_stmt 1 discriminator 1 view .LVU601
 600:Drivers/lvgl/src/draw/lv_draw_buf.c ****     else dest_bufc = lv_draw_buf_goto_xy(dest, 0, 0);
 2136              		.loc 1 600 31 is_stmt 0 discriminator 1 view .LVU602
 2137 007e 7268     		ldr	r2, [r6, #4]
 2138 0080 3168     		ldr	r1, [r6]
 2139 0082 2046     		mov	r0, r4
 2140 0084 FFF7FEFF 		bl	lv_draw_buf_goto_xy
 2141              	.LVL190:
 2142 0088 0746     		mov	r7, r0
 2143              	.LVL191:
 603:Drivers/lvgl/src/draw/lv_draw_buf.c ****     if(dest_area) {
 2144              		.loc 1 603 5 is_stmt 1 view .LVU603
 604:Drivers/lvgl/src/draw/lv_draw_buf.c ****         start_y = dest_area->y1;
 2145              		.loc 1 604 5 view .LVU604
 605:Drivers/lvgl/src/draw/lv_draw_buf.c ****         end_y = dest_area->y2;
 2146              		.loc 1 605 9 view .LVU605
 605:Drivers/lvgl/src/draw/lv_draw_buf.c ****         end_y = dest_area->y2;
 2147              		.loc 1 605 17 is_stmt 0 view .LVU606
 2148 008a D6F80490 		ldr	r9, [r6, #4]
 2149              	.LVL192:
 606:Drivers/lvgl/src/draw/lv_draw_buf.c ****     }
 2150              		.loc 1 606 9 is_stmt 1 view .LVU607
 606:Drivers/lvgl/src/draw/lv_draw_buf.c ****     }
 2151              		.loc 1 606 15 is_stmt 0 view .LVU608
 2152 008e F668     		ldr	r6, [r6, #12]
 2153              	.LVL193:
 2154              	.L183:
 613:Drivers/lvgl/src/draw/lv_draw_buf.c ****     uint32_t src_stride = src->header.stride;
 2155              		.loc 1 613 5 is_stmt 1 view .LVU609
 613:Drivers/lvgl/src/draw/lv_draw_buf.c ****     uint32_t src_stride = src->header.stride;
 2156              		.loc 1 613 40 is_stmt 0 view .LVU610
 2157 0090 B4F808B0 		ldrh	fp, [r4, #8]
 2158              	.LVL194:
 614:Drivers/lvgl/src/draw/lv_draw_buf.c ****     uint32_t line_bytes = (line_width * lv_color_format_get_bpp(dest->header.cf) + 7) >> 3;
 2159              		.loc 1 614 5 is_stmt 1 view .LVU611
 614:Drivers/lvgl/src/draw/lv_draw_buf.c ****     uint32_t line_bytes = (line_width * lv_color_format_get_bpp(dest->header.cf) + 7) >> 3;
 2160              		.loc 1 614 38 is_stmt 0 view .LVU612
 2161 0094 2D89     		ldrh	r5, [r5, #8]
 2162              	.LVL195:
 615:Drivers/lvgl/src/draw/lv_draw_buf.c **** 
 2163              		.loc 1 615 5 is_stmt 1 view .LVU613
 615:Drivers/lvgl/src/draw/lv_draw_buf.c **** 
 2164              		.loc 1 615 41 is_stmt 0 view .LVU614
ARM GAS  /var/folders/qx/2_175_4n2s19vhvtspjhb3qh0000gn/T//ccxF66nk.s 			page 67


 2165 0096 6078     		ldrb	r0, [r4, #1]	@ zero_extendqisi2
 2166              	.LVL196:
 615:Drivers/lvgl/src/draw/lv_draw_buf.c **** 
 2167              		.loc 1 615 41 view .LVU615
 2168 0098 FFF7FEFF 		bl	lv_color_format_get_bpp
 2169              	.LVL197:
 615:Drivers/lvgl/src/draw/lv_draw_buf.c **** 
 2170              		.loc 1 615 39 discriminator 1 view .LVU616
 2171 009c 0AFB00F4 		mul	r4, r10, r0
 2172              	.LVL198:
 615:Drivers/lvgl/src/draw/lv_draw_buf.c **** 
 2173              		.loc 1 615 82 discriminator 1 view .LVU617
 2174 00a0 0734     		adds	r4, r4, #7
 615:Drivers/lvgl/src/draw/lv_draw_buf.c **** 
 2175              		.loc 1 615 87 discriminator 1 view .LVU618
 2176 00a2 E410     		asrs	r4, r4, #3
 2177              	.LVL199:
 617:Drivers/lvgl/src/draw/lv_draw_buf.c ****         lv_memcpy(dest_bufc, src_bufc, line_bytes);
 2178              		.loc 1 617 5 is_stmt 1 view .LVU619
 2179 00a4 1CE0     		b	.L184
 2180              	.LVL200:
 2181              	.L190:
 597:Drivers/lvgl/src/draw/lv_draw_buf.c ****     else src_bufc = lv_draw_buf_goto_xy(src, 0, 0);
 2182              		.loc 1 597 5 view .LVU620
 597:Drivers/lvgl/src/draw/lv_draw_buf.c ****     else src_bufc = lv_draw_buf_goto_xy(src, 0, 0);
 2183              		.loc 1 597 7 is_stmt 0 view .LVU621
 2184 00a6 002F     		cmp	r7, #0
 2185 00a8 E2D0     		beq	.L180
 597:Drivers/lvgl/src/draw/lv_draw_buf.c ****     else src_bufc = lv_draw_buf_goto_xy(src, 0, 0);
 2186              		.loc 1 597 18 is_stmt 1 discriminator 1 view .LVU622
 597:Drivers/lvgl/src/draw/lv_draw_buf.c ****     else src_bufc = lv_draw_buf_goto_xy(src, 0, 0);
 2187              		.loc 1 597 29 is_stmt 0 discriminator 1 view .LVU623
 2188 00aa 7A68     		ldr	r2, [r7, #4]
 2189 00ac 3968     		ldr	r1, [r7]
 2190 00ae 2846     		mov	r0, r5
 2191 00b0 FFF7FEFF 		bl	lv_draw_buf_goto_xy
 2192              	.LVL201:
 2193 00b4 8046     		mov	r8, r0
 2194              	.LVL202:
 597:Drivers/lvgl/src/draw/lv_draw_buf.c ****     else src_bufc = lv_draw_buf_goto_xy(src, 0, 0);
 2195              		.loc 1 597 29 discriminator 1 view .LVU624
 2196 00b6 E1E7     		b	.L181
 2197              	.LVL203:
 2198              	.L182:
 601:Drivers/lvgl/src/draw/lv_draw_buf.c **** 
 2199              		.loc 1 601 10 is_stmt 1 view .LVU625
 601:Drivers/lvgl/src/draw/lv_draw_buf.c **** 
 2200              		.loc 1 601 22 is_stmt 0 view .LVU626
 2201 00b8 0022     		movs	r2, #0
 2202 00ba 1146     		mov	r1, r2
 2203 00bc 2046     		mov	r0, r4
 2204 00be FFF7FEFF 		bl	lv_draw_buf_goto_xy
 2205              	.LVL204:
 2206 00c2 0746     		mov	r7, r0
 2207              	.LVL205:
 603:Drivers/lvgl/src/draw/lv_draw_buf.c ****     if(dest_area) {
 2208              		.loc 1 603 5 is_stmt 1 view .LVU627
ARM GAS  /var/folders/qx/2_175_4n2s19vhvtspjhb3qh0000gn/T//ccxF66nk.s 			page 68


 604:Drivers/lvgl/src/draw/lv_draw_buf.c ****         start_y = dest_area->y1;
 2209              		.loc 1 604 5 view .LVU628
 609:Drivers/lvgl/src/draw/lv_draw_buf.c ****         end_y = dest->header.h - 1;
 2210              		.loc 1 609 9 view .LVU629
 610:Drivers/lvgl/src/draw/lv_draw_buf.c ****     }
 2211              		.loc 1 610 9 view .LVU630
 610:Drivers/lvgl/src/draw/lv_draw_buf.c ****     }
 2212              		.loc 1 610 29 is_stmt 0 view .LVU631
 2213 00c4 E688     		ldrh	r6, [r4, #6]
 2214              	.LVL206:
 610:Drivers/lvgl/src/draw/lv_draw_buf.c ****     }
 2215              		.loc 1 610 15 view .LVU632
 2216 00c6 013E     		subs	r6, r6, #1
 2217              	.LVL207:
 609:Drivers/lvgl/src/draw/lv_draw_buf.c ****         end_y = dest->header.h - 1;
 2218              		.loc 1 609 17 view .LVU633
 2219 00c8 4FF00009 		mov	r9, #0
 2220 00cc E0E7     		b	.L183
 2221              	.LVL208:
 2222              	.L185:
 618:Drivers/lvgl/src/draw/lv_draw_buf.c ****         dest_bufc += dest_stride;
 2223              		.loc 1 618 9 is_stmt 1 view .LVU634
 2224 00ce 2246     		mov	r2, r4
 2225 00d0 4146     		mov	r1, r8
 2226 00d2 3846     		mov	r0, r7
 2227 00d4 FFF7FEFF 		bl	lv_memcpy
 2228              	.LVL209:
 619:Drivers/lvgl/src/draw/lv_draw_buf.c ****         src_bufc += src_stride;
 2229              		.loc 1 619 9 view .LVU635
 619:Drivers/lvgl/src/draw/lv_draw_buf.c ****         src_bufc += src_stride;
 2230              		.loc 1 619 19 is_stmt 0 view .LVU636
 2231 00d8 5F44     		add	r7, r7, fp
 2232              	.LVL210:
 620:Drivers/lvgl/src/draw/lv_draw_buf.c ****     }
 2233              		.loc 1 620 9 is_stmt 1 view .LVU637
 620:Drivers/lvgl/src/draw/lv_draw_buf.c ****     }
 2234              		.loc 1 620 18 is_stmt 0 view .LVU638
 2235 00da A844     		add	r8, r8, r5
 2236              	.LVL211:
 617:Drivers/lvgl/src/draw/lv_draw_buf.c ****         lv_memcpy(dest_bufc, src_bufc, line_bytes);
 2237              		.loc 1 617 36 is_stmt 1 discriminator 2 view .LVU639
 2238 00dc 09F10109 		add	r9, r9, #1
 2239              	.LVL212:
 2240              	.L184:
 617:Drivers/lvgl/src/draw/lv_draw_buf.c ****         lv_memcpy(dest_bufc, src_bufc, line_bytes);
 2241              		.loc 1 617 19 discriminator 1 view .LVU640
 2242 00e0 B145     		cmp	r9, r6
 2243 00e2 F4DD     		ble	.L185
 623:Drivers/lvgl/src/draw/lv_draw_buf.c **** 
 2244              		.loc 1 623 1 is_stmt 0 view .LVU641
 2245 00e4 BDE8F88F 		pop	{r3, r4, r5, r6, r7, r8, r9, r10, fp, pc}
 623:Drivers/lvgl/src/draw/lv_draw_buf.c **** 
 2246              		.loc 1 623 1 view .LVU642
 2247              		.cfi_endproc
 2248              	.LFE224:
 2250              		.section	.text.lv_draw_buf_clear,"ax",%progbits
 2251              		.align	1
ARM GAS  /var/folders/qx/2_175_4n2s19vhvtspjhb3qh0000gn/T//ccxF66nk.s 			page 69


 2252              		.global	lv_draw_buf_clear
 2253              		.syntax unified
 2254              		.thumb
 2255              		.thumb_func
 2257              	lv_draw_buf_clear:
 2258              	.LVL213:
 2259              	.LFB205:
 169:Drivers/lvgl/src/draw/lv_draw_buf.c ****     LV_ASSERT_NULL(draw_buf);
 2260              		.loc 1 169 1 is_stmt 1 view -0
 2261              		.cfi_startproc
 2262              		@ args = 0, pretend = 0, frame = 32
 2263              		@ frame_needed = 0, uses_anonymous_args = 0
 170:Drivers/lvgl/src/draw/lv_draw_buf.c ****     LV_PROFILER_DRAW_BEGIN;
 2264              		.loc 1 170 5 view .LVU644
 170:Drivers/lvgl/src/draw/lv_draw_buf.c ****     LV_PROFILER_DRAW_BEGIN;
 2265              		.loc 1 170 5 view .LVU645
 2266 0000 C0B1     		cbz	r0, .L193
 169:Drivers/lvgl/src/draw/lv_draw_buf.c ****     LV_ASSERT_NULL(draw_buf);
 2267              		.loc 1 169 1 is_stmt 0 view .LVU646
 2268 0002 2DE9F043 		push	{r4, r5, r6, r7, r8, r9, lr}
 2269              	.LCFI48:
 2270              		.cfi_def_cfa_offset 28
 2271              		.cfi_offset 4, -28
 2272              		.cfi_offset 5, -24
 2273              		.cfi_offset 6, -20
 2274              		.cfi_offset 7, -16
 2275              		.cfi_offset 8, -12
 2276              		.cfi_offset 9, -8
 2277              		.cfi_offset 14, -4
 2278 0006 89B0     		sub	sp, sp, #36
 2279              	.LCFI49:
 2280              		.cfi_def_cfa_offset 64
 2281 0008 0C46     		mov	r4, r1
 2282 000a 0546     		mov	r5, r0
 170:Drivers/lvgl/src/draw/lv_draw_buf.c ****     LV_PROFILER_DRAW_BEGIN;
 2283              		.loc 1 170 5 is_stmt 1 view .LVU647
 170:Drivers/lvgl/src/draw/lv_draw_buf.c ****     LV_PROFILER_DRAW_BEGIN;
 2284              		.loc 1 170 29 view .LVU648
 171:Drivers/lvgl/src/draw/lv_draw_buf.c **** 
 2285              		.loc 1 171 27 view .LVU649
 173:Drivers/lvgl/src/draw/lv_draw_buf.c ****     uint32_t stride = header->stride;
 2286              		.loc 1 173 5 view .LVU650
 2287              	.LVL214:
 174:Drivers/lvgl/src/draw/lv_draw_buf.c **** 
 2288              		.loc 1 174 5 view .LVU651
 174:Drivers/lvgl/src/draw/lv_draw_buf.c **** 
 2289              		.loc 1 174 29 is_stmt 0 view .LVU652
 2290 000c B0F80880 		ldrh	r8, [r0, #8]
 2291              	.LVL215:
 176:Drivers/lvgl/src/draw/lv_draw_buf.c ****         uint8_t * buf = lv_draw_buf_goto_xy(draw_buf, 0, 0);
 2292              		.loc 1 176 5 is_stmt 1 view .LVU653
 176:Drivers/lvgl/src/draw/lv_draw_buf.c ****         uint8_t * buf = lv_draw_buf_goto_xy(draw_buf, 0, 0);
 2293              		.loc 1 176 7 is_stmt 0 view .LVU654
 2294 0010 89B1     		cbz	r1, .L201
 184:Drivers/lvgl/src/draw/lv_draw_buf.c ****     a_draw_buf.x1 = 0;
 2295              		.loc 1 184 5 is_stmt 1 view .LVU655
 185:Drivers/lvgl/src/draw/lv_draw_buf.c ****     a_draw_buf.y1 = 0;
ARM GAS  /var/folders/qx/2_175_4n2s19vhvtspjhb3qh0000gn/T//ccxF66nk.s 			page 70


 2296              		.loc 1 185 5 view .LVU656
 185:Drivers/lvgl/src/draw/lv_draw_buf.c ****     a_draw_buf.y1 = 0;
 2297              		.loc 1 185 19 is_stmt 0 view .LVU657
 2298 0012 0023     		movs	r3, #0
 2299 0014 0493     		str	r3, [sp, #16]
 186:Drivers/lvgl/src/draw/lv_draw_buf.c ****     a_draw_buf.x2 = draw_buf->header.w - 1;
 2300              		.loc 1 186 5 is_stmt 1 view .LVU658
 186:Drivers/lvgl/src/draw/lv_draw_buf.c ****     a_draw_buf.x2 = draw_buf->header.w - 1;
 2301              		.loc 1 186 19 is_stmt 0 view .LVU659
 2302 0016 0593     		str	r3, [sp, #20]
 187:Drivers/lvgl/src/draw/lv_draw_buf.c ****     a_draw_buf.y2 = draw_buf->header.h - 1;
 2303              		.loc 1 187 5 is_stmt 1 view .LVU660
 187:Drivers/lvgl/src/draw/lv_draw_buf.c ****     a_draw_buf.y2 = draw_buf->header.h - 1;
 2304              		.loc 1 187 37 is_stmt 0 view .LVU661
 2305 0018 8388     		ldrh	r3, [r0, #4]
 187:Drivers/lvgl/src/draw/lv_draw_buf.c ****     a_draw_buf.y2 = draw_buf->header.h - 1;
 2306              		.loc 1 187 40 view .LVU662
 2307 001a 013B     		subs	r3, r3, #1
 187:Drivers/lvgl/src/draw/lv_draw_buf.c ****     a_draw_buf.y2 = draw_buf->header.h - 1;
 2308              		.loc 1 187 19 view .LVU663
 2309 001c 0693     		str	r3, [sp, #24]
 188:Drivers/lvgl/src/draw/lv_draw_buf.c **** 
 2310              		.loc 1 188 5 is_stmt 1 view .LVU664
 188:Drivers/lvgl/src/draw/lv_draw_buf.c **** 
 2311              		.loc 1 188 37 is_stmt 0 view .LVU665
 2312 001e C388     		ldrh	r3, [r0, #6]
 188:Drivers/lvgl/src/draw/lv_draw_buf.c **** 
 2313              		.loc 1 188 40 view .LVU666
 2314 0020 013B     		subs	r3, r3, #1
 188:Drivers/lvgl/src/draw/lv_draw_buf.c **** 
 2315              		.loc 1 188 19 view .LVU667
 2316 0022 0793     		str	r3, [sp, #28]
 190:Drivers/lvgl/src/draw/lv_draw_buf.c ****     if(!lv_area_intersect(&a_clipped, a, &a_draw_buf)) {
 2317              		.loc 1 190 5 is_stmt 1 view .LVU668
 191:Drivers/lvgl/src/draw/lv_draw_buf.c ****         LV_PROFILER_DRAW_END;
 2318              		.loc 1 191 5 view .LVU669
 191:Drivers/lvgl/src/draw/lv_draw_buf.c ****         LV_PROFILER_DRAW_END;
 2319              		.loc 1 191 9 is_stmt 0 view .LVU670
 2320 0024 04AA     		add	r2, sp, #16
 2321 0026 6846     		mov	r0, sp
 2322              	.LVL216:
 191:Drivers/lvgl/src/draw/lv_draw_buf.c ****         LV_PROFILER_DRAW_END;
 2323              		.loc 1 191 9 view .LVU671
 2324 0028 FFF7FEFF 		bl	lv_area_intersect
 2325              	.LVL217:
 191:Drivers/lvgl/src/draw/lv_draw_buf.c ****         LV_PROFILER_DRAW_END;
 2326              		.loc 1 191 7 discriminator 1 view .LVU672
 2327 002c 90B9     		cbnz	r0, .L202
 2328              	.L191:
 216:Drivers/lvgl/src/draw/lv_draw_buf.c **** 
 2329              		.loc 1 216 1 view .LVU673
 2330 002e 09B0     		add	sp, sp, #36
 2331              	.LCFI50:
 2332              		.cfi_def_cfa_offset 28
 2333              		@ sp needed
 2334 0030 BDE8F083 		pop	{r4, r5, r6, r7, r8, r9, pc}
 2335              	.LVL218:
ARM GAS  /var/folders/qx/2_175_4n2s19vhvtspjhb3qh0000gn/T//ccxF66nk.s 			page 71


 2336              	.L193:
 2337              	.LCFI51:
 2338              		.cfi_def_cfa_offset 0
 2339              		.cfi_restore 4
 2340              		.cfi_restore 5
 2341              		.cfi_restore 6
 2342              		.cfi_restore 7
 2343              		.cfi_restore 8
 2344              		.cfi_restore 9
 2345              		.cfi_restore 14
 170:Drivers/lvgl/src/draw/lv_draw_buf.c ****     LV_PROFILER_DRAW_BEGIN;
 2346              		.loc 1 170 5 is_stmt 1 view .LVU674
 170:Drivers/lvgl/src/draw/lv_draw_buf.c ****     LV_PROFILER_DRAW_BEGIN;
 2347              		.loc 1 170 5 view .LVU675
 170:Drivers/lvgl/src/draw/lv_draw_buf.c ****     LV_PROFILER_DRAW_BEGIN;
 2348              		.loc 1 170 5 view .LVU676
 170:Drivers/lvgl/src/draw/lv_draw_buf.c ****     LV_PROFILER_DRAW_BEGIN;
 2349              		.loc 1 170 5 view .LVU677
 170:Drivers/lvgl/src/draw/lv_draw_buf.c ****     LV_PROFILER_DRAW_BEGIN;
 2350              		.loc 1 170 5 view .LVU678
 2351 0034 FEE7     		b	.L193
 2352              	.LVL219:
 2353              	.L201:
 2354              	.LCFI52:
 2355              		.cfi_def_cfa_offset 64
 2356              		.cfi_offset 4, -28
 2357              		.cfi_offset 5, -24
 2358              		.cfi_offset 6, -20
 2359              		.cfi_offset 7, -16
 2360              		.cfi_offset 8, -12
 2361              		.cfi_offset 9, -8
 2362              		.cfi_offset 14, -4
 2363              	.LBB39:
 177:Drivers/lvgl/src/draw/lv_draw_buf.c ****         lv_memzero(buf, header->h * stride);
 2364              		.loc 1 177 9 view .LVU679
 177:Drivers/lvgl/src/draw/lv_draw_buf.c ****         lv_memzero(buf, header->h * stride);
 2365              		.loc 1 177 25 is_stmt 0 view .LVU680
 2366 0036 0022     		movs	r2, #0
 2367 0038 1146     		mov	r1, r2
 2368              	.LVL220:
 177:Drivers/lvgl/src/draw/lv_draw_buf.c ****         lv_memzero(buf, header->h * stride);
 2369              		.loc 1 177 25 view .LVU681
 2370 003a FFF7FEFF 		bl	lv_draw_buf_goto_xy
 2371              	.LVL221:
 178:Drivers/lvgl/src/draw/lv_draw_buf.c ****         lv_draw_buf_flush_cache(draw_buf, a);
 2372              		.loc 1 178 9 is_stmt 1 view .LVU682
 178:Drivers/lvgl/src/draw/lv_draw_buf.c ****         lv_draw_buf_flush_cache(draw_buf, a);
 2373              		.loc 1 178 31 is_stmt 0 view .LVU683
 2374 003e EA88     		ldrh	r2, [r5, #6]
 2375              	.LVL222:
 2376              	.LBB40:
 2377              	.LBI40:
  73:Drivers/lvgl/src/draw/../misc/../stdlib/lv_string.h **** {
 2378              		.loc 2 73 20 is_stmt 1 view .LVU684
 2379              	.LBB41:
 2380              		.loc 2 75 5 view .LVU685
 2381 0040 08FB02F2 		mul	r2, r8, r2
ARM GAS  /var/folders/qx/2_175_4n2s19vhvtspjhb3qh0000gn/T//ccxF66nk.s 			page 72


 2382              	.LVL223:
 2383              		.loc 2 75 5 is_stmt 0 view .LVU686
 2384 0044 0021     		movs	r1, #0
 2385 0046 FFF7FEFF 		bl	lv_memset
 2386              	.LVL224:
 2387              		.loc 2 75 5 view .LVU687
 2388              	.LBE41:
 2389              	.LBE40:
 179:Drivers/lvgl/src/draw/lv_draw_buf.c ****         LV_PROFILER_DRAW_END;
 2390              		.loc 1 179 9 is_stmt 1 view .LVU688
 2391 004a 2146     		mov	r1, r4
 2392 004c 2846     		mov	r0, r5
 2393 004e FFF7FEFF 		bl	lv_draw_buf_flush_cache
 2394              	.LVL225:
 180:Drivers/lvgl/src/draw/lv_draw_buf.c ****         return;
 2395              		.loc 1 180 29 view .LVU689
 181:Drivers/lvgl/src/draw/lv_draw_buf.c ****     }
 2396              		.loc 1 181 9 view .LVU690
 2397 0052 ECE7     		b	.L191
 2398              	.LVL226:
 2399              	.L202:
 181:Drivers/lvgl/src/draw/lv_draw_buf.c ****     }
 2400              		.loc 1 181 9 is_stmt 0 view .LVU691
 2401              	.LBE39:
 196:Drivers/lvgl/src/draw/lv_draw_buf.c ****         LV_PROFILER_DRAW_END;
 2402              		.loc 1 196 5 is_stmt 1 view .LVU692
 196:Drivers/lvgl/src/draw/lv_draw_buf.c ****         LV_PROFILER_DRAW_END;
 2403              		.loc 1 196 8 is_stmt 0 view .LVU693
 2404 0054 6846     		mov	r0, sp
 2405 0056 FFF7FEFF 		bl	lv_area_get_width
 2406              	.LVL227:
 196:Drivers/lvgl/src/draw/lv_draw_buf.c ****         LV_PROFILER_DRAW_END;
 2407              		.loc 1 196 7 discriminator 1 view .LVU694
 2408 005a 0028     		cmp	r0, #0
 2409 005c E7DD     		ble	.L191
 201:Drivers/lvgl/src/draw/lv_draw_buf.c ****         LV_PROFILER_DRAW_END;
 2410              		.loc 1 201 5 is_stmt 1 view .LVU695
 201:Drivers/lvgl/src/draw/lv_draw_buf.c ****         LV_PROFILER_DRAW_END;
 2411              		.loc 1 201 8 is_stmt 0 view .LVU696
 2412 005e 6846     		mov	r0, sp
 2413 0060 FFF7FEFF 		bl	lv_area_get_height
 2414              	.LVL228:
 201:Drivers/lvgl/src/draw/lv_draw_buf.c ****         LV_PROFILER_DRAW_END;
 2415              		.loc 1 201 7 discriminator 1 view .LVU697
 2416 0064 0028     		cmp	r0, #0
 2417 0066 E2DD     		ble	.L191
 206:Drivers/lvgl/src/draw/lv_draw_buf.c ****     uint8_t bpp = lv_color_format_get_bpp(header->cf);
 2418              		.loc 1 206 5 is_stmt 1 view .LVU698
 206:Drivers/lvgl/src/draw/lv_draw_buf.c ****     uint8_t bpp = lv_color_format_get_bpp(header->cf);
 2419              		.loc 1 206 21 is_stmt 0 view .LVU699
 2420 0068 019A     		ldr	r2, [sp, #4]
 2421 006a 0099     		ldr	r1, [sp]
 2422 006c 2846     		mov	r0, r5
 2423 006e FFF7FEFF 		bl	lv_draw_buf_goto_xy
 2424              	.LVL229:
 2425 0072 0646     		mov	r6, r0
 2426              	.LVL230:
ARM GAS  /var/folders/qx/2_175_4n2s19vhvtspjhb3qh0000gn/T//ccxF66nk.s 			page 73


 207:Drivers/lvgl/src/draw/lv_draw_buf.c ****     uint32_t line_length = (lv_area_get_width(&a_clipped) * bpp + 7) >> 3;
 2427              		.loc 1 207 5 is_stmt 1 view .LVU700
 207:Drivers/lvgl/src/draw/lv_draw_buf.c ****     uint32_t line_length = (lv_area_get_width(&a_clipped) * bpp + 7) >> 3;
 2428              		.loc 1 207 19 is_stmt 0 view .LVU701
 2429 0074 6878     		ldrb	r0, [r5, #1]	@ zero_extendqisi2
 2430              	.LVL231:
 207:Drivers/lvgl/src/draw/lv_draw_buf.c ****     uint32_t line_length = (lv_area_get_width(&a_clipped) * bpp + 7) >> 3;
 2431              		.loc 1 207 19 view .LVU702
 2432 0076 FFF7FEFF 		bl	lv_color_format_get_bpp
 2433              	.LVL232:
 2434 007a 8146     		mov	r9, r0
 2435              	.LVL233:
 208:Drivers/lvgl/src/draw/lv_draw_buf.c ****     int32_t y;
 2436              		.loc 1 208 5 is_stmt 1 view .LVU703
 208:Drivers/lvgl/src/draw/lv_draw_buf.c ****     int32_t y;
 2437              		.loc 1 208 29 is_stmt 0 view .LVU704
 2438 007c 6846     		mov	r0, sp
 2439 007e FFF7FEFF 		bl	lv_area_get_width
 2440              	.LVL234:
 208:Drivers/lvgl/src/draw/lv_draw_buf.c ****     int32_t y;
 2441              		.loc 1 208 59 discriminator 1 view .LVU705
 2442 0082 00FB09F9 		mul	r9, r0, r9
 2443              	.LVL235:
 208:Drivers/lvgl/src/draw/lv_draw_buf.c ****     int32_t y;
 2444              		.loc 1 208 65 discriminator 1 view .LVU706
 2445 0086 09F10709 		add	r9, r9, #7
 208:Drivers/lvgl/src/draw/lv_draw_buf.c ****     int32_t y;
 2446              		.loc 1 208 70 discriminator 1 view .LVU707
 2447 008a 4FEAE909 		asr	r9, r9, #3
 2448              	.LVL236:
 209:Drivers/lvgl/src/draw/lv_draw_buf.c ****     for(y = a_clipped.y1; y <= a_clipped.y2; y++) {
 2449              		.loc 1 209 5 is_stmt 1 view .LVU708
 210:Drivers/lvgl/src/draw/lv_draw_buf.c ****         lv_memzero(buf, line_length);
 2450              		.loc 1 210 5 view .LVU709
 210:Drivers/lvgl/src/draw/lv_draw_buf.c ****         lv_memzero(buf, line_length);
 2451              		.loc 1 210 11 is_stmt 0 view .LVU710
 2452 008e 019F     		ldr	r7, [sp, #4]
 2453              	.LVL237:
 210:Drivers/lvgl/src/draw/lv_draw_buf.c ****         lv_memzero(buf, line_length);
 2454              		.loc 1 210 5 view .LVU711
 2455 0090 06E0     		b	.L196
 2456              	.L197:
 211:Drivers/lvgl/src/draw/lv_draw_buf.c ****         buf += stride;
 2457              		.loc 1 211 9 is_stmt 1 view .LVU712
 2458              	.LVL238:
 2459              	.LBB42:
 2460              	.LBI42:
  73:Drivers/lvgl/src/draw/../misc/../stdlib/lv_string.h **** {
 2461              		.loc 2 73 20 view .LVU713
 2462              	.LBB43:
 2463              		.loc 2 75 5 view .LVU714
 2464 0092 4A46     		mov	r2, r9
 2465 0094 0021     		movs	r1, #0
 2466 0096 3046     		mov	r0, r6
 2467 0098 FFF7FEFF 		bl	lv_memset
 2468              	.LVL239:
 2469              		.loc 2 75 5 is_stmt 0 view .LVU715
ARM GAS  /var/folders/qx/2_175_4n2s19vhvtspjhb3qh0000gn/T//ccxF66nk.s 			page 74


 2470              	.LBE43:
 2471              	.LBE42:
 212:Drivers/lvgl/src/draw/lv_draw_buf.c ****     }
 2472              		.loc 1 212 9 is_stmt 1 view .LVU716
 212:Drivers/lvgl/src/draw/lv_draw_buf.c ****     }
 2473              		.loc 1 212 13 is_stmt 0 view .LVU717
 2474 009c 4644     		add	r6, r6, r8
 2475              	.LVL240:
 210:Drivers/lvgl/src/draw/lv_draw_buf.c ****         lv_memzero(buf, line_length);
 2476              		.loc 1 210 47 is_stmt 1 discriminator 3 view .LVU718
 2477 009e 0137     		adds	r7, r7, #1
 2478              	.LVL241:
 2479              	.L196:
 210:Drivers/lvgl/src/draw/lv_draw_buf.c ****         lv_memzero(buf, line_length);
 2480              		.loc 1 210 29 discriminator 1 view .LVU719
 210:Drivers/lvgl/src/draw/lv_draw_buf.c ****         lv_memzero(buf, line_length);
 2481              		.loc 1 210 41 is_stmt 0 discriminator 1 view .LVU720
 2482 00a0 039B     		ldr	r3, [sp, #12]
 210:Drivers/lvgl/src/draw/lv_draw_buf.c ****         lv_memzero(buf, line_length);
 2483              		.loc 1 210 29 discriminator 1 view .LVU721
 2484 00a2 BB42     		cmp	r3, r7
 2485 00a4 F5DA     		bge	.L197
 214:Drivers/lvgl/src/draw/lv_draw_buf.c ****     LV_PROFILER_DRAW_END;
 2486              		.loc 1 214 5 is_stmt 1 view .LVU722
 2487 00a6 2146     		mov	r1, r4
 2488 00a8 2846     		mov	r0, r5
 2489 00aa FFF7FEFF 		bl	lv_draw_buf_flush_cache
 2490              	.LVL242:
 215:Drivers/lvgl/src/draw/lv_draw_buf.c **** }
 2491              		.loc 1 215 25 view .LVU723
 2492 00ae BEE7     		b	.L191
 2493              		.cfi_endproc
 2494              	.LFE205:
 2496              		.section	.text.lv_draw_buf_adjust_stride,"ax",%progbits
 2497              		.align	1
 2498              		.global	lv_draw_buf_adjust_stride
 2499              		.syntax unified
 2500              		.thumb
 2501              		.thumb_func
 2503              	lv_draw_buf_adjust_stride:
 2504              	.LVL243:
 2505              	.LFB215:
 398:Drivers/lvgl/src/draw/lv_draw_buf.c ****     LV_ASSERT_NULL(src);
 2506              		.loc 1 398 1 view -0
 2507              		.cfi_startproc
 2508              		@ args = 0, pretend = 0, frame = 0
 2509              		@ frame_needed = 0, uses_anonymous_args = 0
 399:Drivers/lvgl/src/draw/lv_draw_buf.c ****     LV_ASSERT_NULL(src->data);
 2510              		.loc 1 399 5 view .LVU725
 399:Drivers/lvgl/src/draw/lv_draw_buf.c ****     LV_ASSERT_NULL(src->data);
 2511              		.loc 1 399 5 view .LVU726
 2512 0000 E0B1     		cbz	r0, .L205
 398:Drivers/lvgl/src/draw/lv_draw_buf.c ****     LV_ASSERT_NULL(src);
 2513              		.loc 1 398 1 is_stmt 0 view .LVU727
 2514 0002 2DE9F047 		push	{r4, r5, r6, r7, r8, r9, r10, lr}
 2515              	.LCFI53:
 2516              		.cfi_def_cfa_offset 32
ARM GAS  /var/folders/qx/2_175_4n2s19vhvtspjhb3qh0000gn/T//ccxF66nk.s 			page 75


 2517              		.cfi_offset 4, -32
 2518              		.cfi_offset 5, -28
 2519              		.cfi_offset 6, -24
 2520              		.cfi_offset 7, -20
 2521              		.cfi_offset 8, -16
 2522              		.cfi_offset 9, -12
 2523              		.cfi_offset 10, -8
 2524              		.cfi_offset 14, -4
 2525 0006 0C46     		mov	r4, r1
 2526 0008 0546     		mov	r5, r0
 399:Drivers/lvgl/src/draw/lv_draw_buf.c ****     LV_ASSERT_NULL(src->data);
 2527              		.loc 1 399 5 is_stmt 1 view .LVU728
 399:Drivers/lvgl/src/draw/lv_draw_buf.c ****     LV_ASSERT_NULL(src->data);
 2528              		.loc 1 399 24 view .LVU729
 400:Drivers/lvgl/src/draw/lv_draw_buf.c ****     if(src == NULL) return LV_RESULT_INVALID;
 2529              		.loc 1 400 5 view .LVU730
 400:Drivers/lvgl/src/draw/lv_draw_buf.c ****     if(src == NULL) return LV_RESULT_INVALID;
 2530              		.loc 1 400 5 view .LVU731
 2531 000a 0369     		ldr	r3, [r0, #16]
 2532 000c BBB1     		cbz	r3, .L207
 400:Drivers/lvgl/src/draw/lv_draw_buf.c ****     if(src == NULL) return LV_RESULT_INVALID;
 2533              		.loc 1 400 5 view .LVU732
 400:Drivers/lvgl/src/draw/lv_draw_buf.c ****     if(src == NULL) return LV_RESULT_INVALID;
 2534              		.loc 1 400 30 view .LVU733
 401:Drivers/lvgl/src/draw/lv_draw_buf.c ****     if(src->data == NULL) return LV_RESULT_INVALID;
 2535              		.loc 1 401 5 view .LVU734
 402:Drivers/lvgl/src/draw/lv_draw_buf.c ****     LV_PROFILER_DRAW_BEGIN;
 2536              		.loc 1 402 5 view .LVU735
 403:Drivers/lvgl/src/draw/lv_draw_buf.c **** 
 2537              		.loc 1 403 27 view .LVU736
 405:Drivers/lvgl/src/draw/lv_draw_buf.c ****     uint32_t w = header->w;
 2538              		.loc 1 405 5 view .LVU737
 2539              	.LVL244:
 406:Drivers/lvgl/src/draw/lv_draw_buf.c ****     uint32_t h = header->h;
 2540              		.loc 1 406 5 view .LVU738
 406:Drivers/lvgl/src/draw/lv_draw_buf.c ****     uint32_t h = header->h;
 2541              		.loc 1 406 24 is_stmt 0 view .LVU739
 2542 000e 8788     		ldrh	r7, [r0, #4]
 2543              	.LVL245:
 407:Drivers/lvgl/src/draw/lv_draw_buf.c **** 
 2544              		.loc 1 407 5 is_stmt 1 view .LVU740
 407:Drivers/lvgl/src/draw/lv_draw_buf.c **** 
 2545              		.loc 1 407 24 is_stmt 0 view .LVU741
 2546 0010 C688     		ldrh	r6, [r0, #6]
 2547              	.LVL246:
 409:Drivers/lvgl/src/draw/lv_draw_buf.c ****         LV_PROFILER_DRAW_END;
 2548              		.loc 1 409 5 is_stmt 1 view .LVU742
 2549              	.LBB44:
 2550              	.LBI44:
 324:Drivers/lvgl/src/draw/lv_draw_buf.h **** {
 2551              		.loc 3 324 20 view .LVU743
 2552              	.LBB45:
 326:Drivers/lvgl/src/draw/lv_draw_buf.h **** }
 2553              		.loc 3 326 5 view .LVU744
 326:Drivers/lvgl/src/draw/lv_draw_buf.h **** }
 2554              		.loc 3 326 28 is_stmt 0 view .LVU745
 2555 0012 4388     		ldrh	r3, [r0, #2]
ARM GAS  /var/folders/qx/2_175_4n2s19vhvtspjhb3qh0000gn/T//ccxF66nk.s 			page 76


 2556              	.LVL247:
 326:Drivers/lvgl/src/draw/lv_draw_buf.h **** }
 2557              		.loc 3 326 28 view .LVU746
 2558              	.LBE45:
 2559              	.LBE44:
 409:Drivers/lvgl/src/draw/lv_draw_buf.c ****         LV_PROFILER_DRAW_END;
 2560              		.loc 1 409 7 discriminator 1 view .LVU747
 2561 0014 13F0200F 		tst	r3, #32
 2562 0018 65D0     		beq	.L222
 415:Drivers/lvgl/src/draw/lv_draw_buf.c **** 
 2563              		.loc 1 415 5 is_stmt 1 view .LVU748
 415:Drivers/lvgl/src/draw/lv_draw_buf.c **** 
 2564              		.loc 1 415 7 is_stmt 0 view .LVU749
 2565 001a 89B1     		cbz	r1, .L229
 2566              	.LVL248:
 2567              	.L209:
 418:Drivers/lvgl/src/draw/lv_draw_buf.c ****         LV_PROFILER_DRAW_END;
 2568              		.loc 1 418 5 is_stmt 1 view .LVU750
 418:Drivers/lvgl/src/draw/lv_draw_buf.c ****         LV_PROFILER_DRAW_END;
 2569              		.loc 1 418 14 is_stmt 0 view .LVU751
 2570 001c 2B89     		ldrh	r3, [r5, #8]
 418:Drivers/lvgl/src/draw/lv_draw_buf.c ****         LV_PROFILER_DRAW_END;
 2571              		.loc 1 418 7 view .LVU752
 2572 001e A342     		cmp	r3, r4
 2573 0020 64D0     		beq	.L223
 424:Drivers/lvgl/src/draw/lv_draw_buf.c ****     uint32_t min_stride = (w * bpp + 7) >> 3;
 2574              		.loc 1 424 5 is_stmt 1 view .LVU753
 424:Drivers/lvgl/src/draw/lv_draw_buf.c ****     uint32_t min_stride = (w * bpp + 7) >> 3;
