ARM GAS  /var/folders/qx/2_175_4n2s19vhvtspjhb3qh0000gn/T//ccRXOHgw.s 			page 1


   1              		.cpu cortex-m4
   2              		.arch armv7e-m
   3              		.fpu fpv4-sp-d16
   4              		.eabi_attribute 27, 1
   5              		.eabi_attribute 28, 1
   6              		.eabi_attribute 20, 1
   7              		.eabi_attribute 21, 1
   8              		.eabi_attribute 23, 3
   9              		.eabi_attribute 24, 1
  10              		.eabi_attribute 25, 1
  11              		.eabi_attribute 26, 1
  12              		.eabi_attribute 30, 1
  13              		.eabi_attribute 34, 1
  14              		.eabi_attribute 18, 4
  15              		.file	"lv_draw.c"
  16              		.text
  17              	.Ltext0:
  18              		.cfi_sections	.debug_frame
  19              		.file 1 "Drivers/lvgl/src/draw/lv_draw.c"
  20              		.section	.text.get_draw_dsc_size,"ax",%progbits
  21              		.align	1
  22              		.syntax unified
  23              		.thumb
  24              		.thumb_func
  26              	get_draw_dsc_size:
  27              	.LVL0:
  28              	.LFB218:
   1:Drivers/lvgl/src/draw/lv_draw.c **** /**
   2:Drivers/lvgl/src/draw/lv_draw.c ****  * @file lv_draw.c
   3:Drivers/lvgl/src/draw/lv_draw.c ****  *
   4:Drivers/lvgl/src/draw/lv_draw.c ****  */
   5:Drivers/lvgl/src/draw/lv_draw.c **** 
   6:Drivers/lvgl/src/draw/lv_draw.c **** /**
   7:Drivers/lvgl/src/draw/lv_draw.c ****  * Modified by NXP in 2024
   8:Drivers/lvgl/src/draw/lv_draw.c ****  */
   9:Drivers/lvgl/src/draw/lv_draw.c **** 
  10:Drivers/lvgl/src/draw/lv_draw.c **** /*********************
  11:Drivers/lvgl/src/draw/lv_draw.c ****  *      INCLUDES
  12:Drivers/lvgl/src/draw/lv_draw.c ****  *********************/
  13:Drivers/lvgl/src/draw/lv_draw.c **** #include "../misc/lv_area_private.h"
  14:Drivers/lvgl/src/draw/lv_draw.c **** #include "../misc/lv_assert.h"
  15:Drivers/lvgl/src/draw/lv_draw.c **** #include "../misc/lv_event_private.h"
  16:Drivers/lvgl/src/draw/lv_draw.c **** #include "lv_draw_private.h"
  17:Drivers/lvgl/src/draw/lv_draw.c **** #include "lv_draw_mask_private.h"
  18:Drivers/lvgl/src/draw/lv_draw.c **** #include "lv_draw_vector_private.h"
  19:Drivers/lvgl/src/draw/lv_draw.c **** #include "lv_draw_3d.h"
  20:Drivers/lvgl/src/draw/lv_draw.c **** #include "sw/lv_draw_sw.h"
  21:Drivers/lvgl/src/draw/lv_draw.c **** #include "../display/lv_display_private.h"
  22:Drivers/lvgl/src/draw/lv_draw.c **** #include "../core/lv_global.h"
  23:Drivers/lvgl/src/draw/lv_draw.c **** #include "../core/lv_refr_private.h"
  24:Drivers/lvgl/src/draw/lv_draw.c **** #include "../stdlib/lv_string.h"
  25:Drivers/lvgl/src/draw/lv_draw.c **** 
  26:Drivers/lvgl/src/draw/lv_draw.c **** /*********************
  27:Drivers/lvgl/src/draw/lv_draw.c ****  *      DEFINES
  28:Drivers/lvgl/src/draw/lv_draw.c ****  *********************/
  29:Drivers/lvgl/src/draw/lv_draw.c **** #define _draw_info LV_GLOBAL_DEFAULT()->draw_info
  30:Drivers/lvgl/src/draw/lv_draw.c **** 
ARM GAS  /var/folders/qx/2_175_4n2s19vhvtspjhb3qh0000gn/T//ccRXOHgw.s 			page 2


  31:Drivers/lvgl/src/draw/lv_draw.c **** /**********************
  32:Drivers/lvgl/src/draw/lv_draw.c ****  *      TYPEDEFS
  33:Drivers/lvgl/src/draw/lv_draw.c ****  **********************/
  34:Drivers/lvgl/src/draw/lv_draw.c **** 
  35:Drivers/lvgl/src/draw/lv_draw.c **** /**********************
  36:Drivers/lvgl/src/draw/lv_draw.c ****  *  STATIC PROTOTYPES
  37:Drivers/lvgl/src/draw/lv_draw.c ****  **********************/
  38:Drivers/lvgl/src/draw/lv_draw.c **** static bool is_independent(lv_layer_t * layer, lv_draw_task_t * t_check, uint8_t draw_unit_id);
  39:Drivers/lvgl/src/draw/lv_draw.c **** static void cleanup_task(lv_draw_task_t * t, lv_display_t * disp);
  40:Drivers/lvgl/src/draw/lv_draw.c **** static inline size_t get_draw_dsc_size(lv_draw_task_type_t type);
  41:Drivers/lvgl/src/draw/lv_draw.c **** static lv_draw_task_t * get_first_available_task(lv_layer_t * layer);
  42:Drivers/lvgl/src/draw/lv_draw.c **** 
  43:Drivers/lvgl/src/draw/lv_draw.c **** #if LV_LOG_LEVEL <= LV_LOG_LEVEL_INFO
  44:Drivers/lvgl/src/draw/lv_draw.c **** static inline uint32_t get_layer_size_kb(uint32_t size_byte)
  45:Drivers/lvgl/src/draw/lv_draw.c **** {
  46:Drivers/lvgl/src/draw/lv_draw.c ****     return (size_byte + 1023) >> 10;
  47:Drivers/lvgl/src/draw/lv_draw.c **** }
  48:Drivers/lvgl/src/draw/lv_draw.c **** #endif
  49:Drivers/lvgl/src/draw/lv_draw.c **** 
  50:Drivers/lvgl/src/draw/lv_draw.c **** /**********************
  51:Drivers/lvgl/src/draw/lv_draw.c ****  *  STATIC VARIABLES
  52:Drivers/lvgl/src/draw/lv_draw.c ****  **********************/
  53:Drivers/lvgl/src/draw/lv_draw.c **** 
  54:Drivers/lvgl/src/draw/lv_draw.c **** /**********************
  55:Drivers/lvgl/src/draw/lv_draw.c ****  *      MACROS
  56:Drivers/lvgl/src/draw/lv_draw.c ****  **********************/
  57:Drivers/lvgl/src/draw/lv_draw.c **** 
  58:Drivers/lvgl/src/draw/lv_draw.c **** /**********************
  59:Drivers/lvgl/src/draw/lv_draw.c ****  *   GLOBAL FUNCTIONS
  60:Drivers/lvgl/src/draw/lv_draw.c ****  **********************/
  61:Drivers/lvgl/src/draw/lv_draw.c **** 
  62:Drivers/lvgl/src/draw/lv_draw.c **** void lv_draw_init(void)
  63:Drivers/lvgl/src/draw/lv_draw.c **** {
  64:Drivers/lvgl/src/draw/lv_draw.c **** #if LV_USE_OS
  65:Drivers/lvgl/src/draw/lv_draw.c ****     lv_thread_sync_init(&_draw_info.sync);
  66:Drivers/lvgl/src/draw/lv_draw.c **** #endif
  67:Drivers/lvgl/src/draw/lv_draw.c **** }
  68:Drivers/lvgl/src/draw/lv_draw.c **** 
  69:Drivers/lvgl/src/draw/lv_draw.c **** void lv_draw_deinit(void)
  70:Drivers/lvgl/src/draw/lv_draw.c **** {
  71:Drivers/lvgl/src/draw/lv_draw.c **** #if LV_USE_OS
  72:Drivers/lvgl/src/draw/lv_draw.c ****     lv_thread_sync_delete(&_draw_info.sync);
  73:Drivers/lvgl/src/draw/lv_draw.c **** #endif
  74:Drivers/lvgl/src/draw/lv_draw.c **** 
  75:Drivers/lvgl/src/draw/lv_draw.c ****     lv_draw_unit_t * u = _draw_info.unit_head;
  76:Drivers/lvgl/src/draw/lv_draw.c ****     while(u) {
  77:Drivers/lvgl/src/draw/lv_draw.c ****         lv_draw_unit_t * cur_unit = u;
  78:Drivers/lvgl/src/draw/lv_draw.c ****         u = u->next;
  79:Drivers/lvgl/src/draw/lv_draw.c **** 
  80:Drivers/lvgl/src/draw/lv_draw.c ****         if(cur_unit->delete_cb) cur_unit->delete_cb(cur_unit);
  81:Drivers/lvgl/src/draw/lv_draw.c ****         lv_free(cur_unit);
  82:Drivers/lvgl/src/draw/lv_draw.c ****     }
  83:Drivers/lvgl/src/draw/lv_draw.c ****     _draw_info.unit_head = NULL;
  84:Drivers/lvgl/src/draw/lv_draw.c **** }
  85:Drivers/lvgl/src/draw/lv_draw.c **** 
  86:Drivers/lvgl/src/draw/lv_draw.c **** void * lv_draw_create_unit(size_t size)
  87:Drivers/lvgl/src/draw/lv_draw.c **** {
ARM GAS  /var/folders/qx/2_175_4n2s19vhvtspjhb3qh0000gn/T//ccRXOHgw.s 			page 3


  88:Drivers/lvgl/src/draw/lv_draw.c ****     lv_draw_unit_t * new_unit = lv_malloc_zeroed(size);
  89:Drivers/lvgl/src/draw/lv_draw.c ****     LV_ASSERT_MALLOC(new_unit);
  90:Drivers/lvgl/src/draw/lv_draw.c ****     new_unit->next = _draw_info.unit_head;
  91:Drivers/lvgl/src/draw/lv_draw.c **** 
  92:Drivers/lvgl/src/draw/lv_draw.c ****     _draw_info.unit_head = new_unit;
  93:Drivers/lvgl/src/draw/lv_draw.c ****     _draw_info.unit_cnt++;
  94:Drivers/lvgl/src/draw/lv_draw.c **** 
  95:Drivers/lvgl/src/draw/lv_draw.c ****     new_unit->idx = _draw_info.unit_cnt;
  96:Drivers/lvgl/src/draw/lv_draw.c **** 
  97:Drivers/lvgl/src/draw/lv_draw.c ****     return new_unit;
  98:Drivers/lvgl/src/draw/lv_draw.c **** }
  99:Drivers/lvgl/src/draw/lv_draw.c **** 
 100:Drivers/lvgl/src/draw/lv_draw.c **** lv_draw_task_t * lv_draw_add_task(lv_layer_t * layer, const lv_area_t * coords, lv_draw_task_type_t
 101:Drivers/lvgl/src/draw/lv_draw.c **** {
 102:Drivers/lvgl/src/draw/lv_draw.c ****     LV_PROFILER_DRAW_BEGIN;
 103:Drivers/lvgl/src/draw/lv_draw.c ****     size_t dsc_size = get_draw_dsc_size(type);
 104:Drivers/lvgl/src/draw/lv_draw.c ****     LV_ASSERT_FORMAT_MSG(dsc_size > 0, "Draw task size is 0 for type %d", type);
 105:Drivers/lvgl/src/draw/lv_draw.c ****     lv_draw_task_t * new_task = lv_malloc_zeroed(LV_ALIGN_UP(sizeof(lv_draw_task_t), 8) + dsc_size)
 106:Drivers/lvgl/src/draw/lv_draw.c ****     LV_ASSERT_MALLOC(new_task);
 107:Drivers/lvgl/src/draw/lv_draw.c ****     new_task->area = *coords;
 108:Drivers/lvgl/src/draw/lv_draw.c ****     new_task->_real_area = *coords;
 109:Drivers/lvgl/src/draw/lv_draw.c ****     new_task->target_layer = layer;
 110:Drivers/lvgl/src/draw/lv_draw.c ****     new_task->clip_area = layer->_clip_area;
 111:Drivers/lvgl/src/draw/lv_draw.c **** #if LV_DRAW_TRANSFORM_USE_MATRIX
 112:Drivers/lvgl/src/draw/lv_draw.c ****     new_task->matrix = layer->matrix;
 113:Drivers/lvgl/src/draw/lv_draw.c **** #endif
 114:Drivers/lvgl/src/draw/lv_draw.c ****     new_task->opa = layer->opa;
 115:Drivers/lvgl/src/draw/lv_draw.c ****     new_task->type = type;
 116:Drivers/lvgl/src/draw/lv_draw.c ****     new_task->draw_dsc = (uint8_t *)new_task + LV_ALIGN_UP(sizeof(lv_draw_task_t), 8);
 117:Drivers/lvgl/src/draw/lv_draw.c ****     new_task->state = LV_DRAW_TASK_STATE_WAITING;
 118:Drivers/lvgl/src/draw/lv_draw.c **** 
 119:Drivers/lvgl/src/draw/lv_draw.c ****     /*Find the tail*/
 120:Drivers/lvgl/src/draw/lv_draw.c ****     if(layer->draw_task_head == NULL) {
 121:Drivers/lvgl/src/draw/lv_draw.c ****         layer->draw_task_head = new_task;
 122:Drivers/lvgl/src/draw/lv_draw.c ****     }
 123:Drivers/lvgl/src/draw/lv_draw.c ****     else {
 124:Drivers/lvgl/src/draw/lv_draw.c ****         lv_draw_task_t * tail = layer->draw_task_head;
 125:Drivers/lvgl/src/draw/lv_draw.c ****         while(tail->next) tail = tail->next;
 126:Drivers/lvgl/src/draw/lv_draw.c **** 
 127:Drivers/lvgl/src/draw/lv_draw.c ****         tail->next = new_task;
 128:Drivers/lvgl/src/draw/lv_draw.c ****     }
 129:Drivers/lvgl/src/draw/lv_draw.c **** 
 130:Drivers/lvgl/src/draw/lv_draw.c ****     LV_PROFILER_DRAW_END;
 131:Drivers/lvgl/src/draw/lv_draw.c ****     return new_task;
 132:Drivers/lvgl/src/draw/lv_draw.c **** }
 133:Drivers/lvgl/src/draw/lv_draw.c **** 
 134:Drivers/lvgl/src/draw/lv_draw.c **** void lv_draw_finalize_task_creation(lv_layer_t * layer, lv_draw_task_t * t)
 135:Drivers/lvgl/src/draw/lv_draw.c **** {
 136:Drivers/lvgl/src/draw/lv_draw.c ****     LV_PROFILER_DRAW_BEGIN;
 137:Drivers/lvgl/src/draw/lv_draw.c ****     lv_draw_dsc_base_t * base_dsc = t->draw_dsc;
 138:Drivers/lvgl/src/draw/lv_draw.c ****     base_dsc->layer = layer;
 139:Drivers/lvgl/src/draw/lv_draw.c **** 
 140:Drivers/lvgl/src/draw/lv_draw.c ****     lv_draw_global_info_t * info = &_draw_info;
 141:Drivers/lvgl/src/draw/lv_draw.c **** 
 142:Drivers/lvgl/src/draw/lv_draw.c ****     /*Send LV_EVENT_DRAW_TASK_ADDED and dispatch only on the "main" draw_task
 143:Drivers/lvgl/src/draw/lv_draw.c ****      *and not on the draw tasks added in the event.
 144:Drivers/lvgl/src/draw/lv_draw.c ****      *Sending LV_EVENT_DRAW_TASK_ADDED events might cause recursive event sends and besides
ARM GAS  /var/folders/qx/2_175_4n2s19vhvtspjhb3qh0000gn/T//ccRXOHgw.s 			page 4


 145:Drivers/lvgl/src/draw/lv_draw.c ****      *dispatching might remove the "main" draw task while it's still being used in the event*/
 146:Drivers/lvgl/src/draw/lv_draw.c **** 
 147:Drivers/lvgl/src/draw/lv_draw.c ****     if(info->task_running == false) {
 148:Drivers/lvgl/src/draw/lv_draw.c ****         if(base_dsc->obj && lv_obj_has_flag(base_dsc->obj, LV_OBJ_FLAG_SEND_DRAW_TASK_EVENTS)) {
 149:Drivers/lvgl/src/draw/lv_draw.c ****             info->task_running = true;
 150:Drivers/lvgl/src/draw/lv_draw.c ****             lv_obj_send_event(base_dsc->obj, LV_EVENT_DRAW_TASK_ADDED, t);
 151:Drivers/lvgl/src/draw/lv_draw.c ****             info->task_running = false;
 152:Drivers/lvgl/src/draw/lv_draw.c ****         }
 153:Drivers/lvgl/src/draw/lv_draw.c **** 
 154:Drivers/lvgl/src/draw/lv_draw.c ****         /*Let the draw units set their preference score*/
 155:Drivers/lvgl/src/draw/lv_draw.c ****         t->preference_score = 100;
 156:Drivers/lvgl/src/draw/lv_draw.c ****         t->preferred_draw_unit_id = 0;
 157:Drivers/lvgl/src/draw/lv_draw.c ****         lv_draw_unit_t * u = info->unit_head;
 158:Drivers/lvgl/src/draw/lv_draw.c ****         while(u) {
 159:Drivers/lvgl/src/draw/lv_draw.c ****             if(u->evaluate_cb) {
 160:Drivers/lvgl/src/draw/lv_draw.c ****                 LV_PROFILER_DRAW_BEGIN_TAG("evaluate_cb");
 161:Drivers/lvgl/src/draw/lv_draw.c ****                 LV_PROFILER_DRAW_BEGIN_TAG(u->name);
 162:Drivers/lvgl/src/draw/lv_draw.c ****                 u->evaluate_cb(u, t);
 163:Drivers/lvgl/src/draw/lv_draw.c ****                 LV_PROFILER_DRAW_END_TAG(u->name);
 164:Drivers/lvgl/src/draw/lv_draw.c ****                 LV_PROFILER_DRAW_END_TAG("evaluate_cb");
 165:Drivers/lvgl/src/draw/lv_draw.c ****             }
 166:Drivers/lvgl/src/draw/lv_draw.c ****             u = u->next;
 167:Drivers/lvgl/src/draw/lv_draw.c ****         }
 168:Drivers/lvgl/src/draw/lv_draw.c ****         if(t->preferred_draw_unit_id == LV_DRAW_UNIT_NONE) {
 169:Drivers/lvgl/src/draw/lv_draw.c ****             LV_LOG_WARN("the draw task was not taken by any units");
 170:Drivers/lvgl/src/draw/lv_draw.c ****             t->state = LV_DRAW_TASK_STATE_FINISHED;
 171:Drivers/lvgl/src/draw/lv_draw.c ****         }
 172:Drivers/lvgl/src/draw/lv_draw.c ****         else {
 173:Drivers/lvgl/src/draw/lv_draw.c ****             lv_draw_dispatch();
 174:Drivers/lvgl/src/draw/lv_draw.c ****         }
 175:Drivers/lvgl/src/draw/lv_draw.c ****     }
 176:Drivers/lvgl/src/draw/lv_draw.c ****     else {
 177:Drivers/lvgl/src/draw/lv_draw.c ****         /*Let the draw units set their preference score*/
 178:Drivers/lvgl/src/draw/lv_draw.c ****         t->preference_score = 100;
 179:Drivers/lvgl/src/draw/lv_draw.c ****         t->preferred_draw_unit_id = 0;
 180:Drivers/lvgl/src/draw/lv_draw.c ****         lv_draw_unit_t * u = info->unit_head;
 181:Drivers/lvgl/src/draw/lv_draw.c ****         while(u) {
 182:Drivers/lvgl/src/draw/lv_draw.c ****             if(u->evaluate_cb) {
 183:Drivers/lvgl/src/draw/lv_draw.c ****                 LV_PROFILER_DRAW_BEGIN_TAG("evaluate_cb");
 184:Drivers/lvgl/src/draw/lv_draw.c ****                 LV_PROFILER_DRAW_BEGIN_TAG(u->name);
 185:Drivers/lvgl/src/draw/lv_draw.c ****                 u->evaluate_cb(u, t);
 186:Drivers/lvgl/src/draw/lv_draw.c ****                 LV_PROFILER_DRAW_END_TAG(u->name);
 187:Drivers/lvgl/src/draw/lv_draw.c ****                 LV_PROFILER_DRAW_END_TAG("evaluate_cb");
 188:Drivers/lvgl/src/draw/lv_draw.c ****             }
 189:Drivers/lvgl/src/draw/lv_draw.c ****             u = u->next;
 190:Drivers/lvgl/src/draw/lv_draw.c ****         }
 191:Drivers/lvgl/src/draw/lv_draw.c ****     }
 192:Drivers/lvgl/src/draw/lv_draw.c ****     LV_PROFILER_DRAW_END;
 193:Drivers/lvgl/src/draw/lv_draw.c **** }
 194:Drivers/lvgl/src/draw/lv_draw.c **** 
 195:Drivers/lvgl/src/draw/lv_draw.c **** void lv_draw_wait_for_finish(void)
 196:Drivers/lvgl/src/draw/lv_draw.c **** {
 197:Drivers/lvgl/src/draw/lv_draw.c **** #if LV_USE_OS
 198:Drivers/lvgl/src/draw/lv_draw.c ****     LV_PROFILER_DRAW_BEGIN;
 199:Drivers/lvgl/src/draw/lv_draw.c ****     lv_draw_unit_t * u = _draw_info.unit_head;
 200:Drivers/lvgl/src/draw/lv_draw.c ****     while(u) {
 201:Drivers/lvgl/src/draw/lv_draw.c ****         if(u->wait_for_finish_cb) {
ARM GAS  /var/folders/qx/2_175_4n2s19vhvtspjhb3qh0000gn/T//ccRXOHgw.s 			page 5


 202:Drivers/lvgl/src/draw/lv_draw.c ****             LV_PROFILER_DRAW_BEGIN_TAG("wait_for_finish_cb");
 203:Drivers/lvgl/src/draw/lv_draw.c ****             LV_PROFILER_DRAW_BEGIN_TAG(u->name);
 204:Drivers/lvgl/src/draw/lv_draw.c ****             u->wait_for_finish_cb(u);
 205:Drivers/lvgl/src/draw/lv_draw.c ****             LV_PROFILER_DRAW_END_TAG(u->name);
 206:Drivers/lvgl/src/draw/lv_draw.c ****             LV_PROFILER_DRAW_END_TAG("wait_for_finish_cb");
 207:Drivers/lvgl/src/draw/lv_draw.c ****         }
 208:Drivers/lvgl/src/draw/lv_draw.c ****         u = u->next;
 209:Drivers/lvgl/src/draw/lv_draw.c ****     }
 210:Drivers/lvgl/src/draw/lv_draw.c ****     LV_PROFILER_DRAW_END;
 211:Drivers/lvgl/src/draw/lv_draw.c **** #endif
 212:Drivers/lvgl/src/draw/lv_draw.c **** }
 213:Drivers/lvgl/src/draw/lv_draw.c **** 
 214:Drivers/lvgl/src/draw/lv_draw.c **** void lv_draw_dispatch(void)
 215:Drivers/lvgl/src/draw/lv_draw.c **** {
 216:Drivers/lvgl/src/draw/lv_draw.c ****     LV_PROFILER_DRAW_BEGIN;
 217:Drivers/lvgl/src/draw/lv_draw.c ****     bool task_dispatched = false;
 218:Drivers/lvgl/src/draw/lv_draw.c ****     lv_display_t * disp = lv_refr_get_disp_refreshing();
 219:Drivers/lvgl/src/draw/lv_draw.c ****     if(disp != NULL) {
 220:Drivers/lvgl/src/draw/lv_draw.c ****         lv_layer_t * layer = disp->layer_head;
 221:Drivers/lvgl/src/draw/lv_draw.c ****         while(layer) {
 222:Drivers/lvgl/src/draw/lv_draw.c ****             if(lv_draw_dispatch_layer(disp, layer))
 223:Drivers/lvgl/src/draw/lv_draw.c ****                 task_dispatched = true;
 224:Drivers/lvgl/src/draw/lv_draw.c ****             layer = layer->next;
 225:Drivers/lvgl/src/draw/lv_draw.c ****         }
 226:Drivers/lvgl/src/draw/lv_draw.c ****     }
 227:Drivers/lvgl/src/draw/lv_draw.c ****     if(!task_dispatched) {
 228:Drivers/lvgl/src/draw/lv_draw.c ****         lv_draw_wait_for_finish();
 229:Drivers/lvgl/src/draw/lv_draw.c ****         lv_draw_dispatch_request();
 230:Drivers/lvgl/src/draw/lv_draw.c ****     }
 231:Drivers/lvgl/src/draw/lv_draw.c ****     LV_PROFILER_DRAW_END;
 232:Drivers/lvgl/src/draw/lv_draw.c **** }
 233:Drivers/lvgl/src/draw/lv_draw.c **** 
 234:Drivers/lvgl/src/draw/lv_draw.c **** bool lv_draw_dispatch_layer(lv_display_t * disp, lv_layer_t * layer)
 235:Drivers/lvgl/src/draw/lv_draw.c **** {
 236:Drivers/lvgl/src/draw/lv_draw.c ****     LV_PROFILER_DRAW_BEGIN;
 237:Drivers/lvgl/src/draw/lv_draw.c ****     /*Remove the finished tasks first*/
 238:Drivers/lvgl/src/draw/lv_draw.c ****     lv_draw_task_t * t_prev = NULL;
 239:Drivers/lvgl/src/draw/lv_draw.c ****     lv_draw_task_t * t = layer->draw_task_head;
 240:Drivers/lvgl/src/draw/lv_draw.c ****     lv_draw_task_t * t_next;
 241:Drivers/lvgl/src/draw/lv_draw.c ****     bool remove_task = false;
 242:Drivers/lvgl/src/draw/lv_draw.c ****     while(t) {
 243:Drivers/lvgl/src/draw/lv_draw.c ****         t_next = t->next;
 244:Drivers/lvgl/src/draw/lv_draw.c ****         if(t->state == LV_DRAW_TASK_STATE_FINISHED) {
 245:Drivers/lvgl/src/draw/lv_draw.c ****             cleanup_task(t, disp);
 246:Drivers/lvgl/src/draw/lv_draw.c ****             remove_task = true;
 247:Drivers/lvgl/src/draw/lv_draw.c ****             if(t_prev != NULL)
 248:Drivers/lvgl/src/draw/lv_draw.c ****                 t_prev->next = t_next;
 249:Drivers/lvgl/src/draw/lv_draw.c ****             else
 250:Drivers/lvgl/src/draw/lv_draw.c ****                 layer->draw_task_head = t_next;
 251:Drivers/lvgl/src/draw/lv_draw.c ****         }
 252:Drivers/lvgl/src/draw/lv_draw.c ****         else {
 253:Drivers/lvgl/src/draw/lv_draw.c ****             t_prev = t;
 254:Drivers/lvgl/src/draw/lv_draw.c ****         }
 255:Drivers/lvgl/src/draw/lv_draw.c ****         t = t_next;
 256:Drivers/lvgl/src/draw/lv_draw.c ****     }
 257:Drivers/lvgl/src/draw/lv_draw.c **** 
 258:Drivers/lvgl/src/draw/lv_draw.c ****     bool task_dispatched = false;
ARM GAS  /var/folders/qx/2_175_4n2s19vhvtspjhb3qh0000gn/T//ccRXOHgw.s 			page 6


 259:Drivers/lvgl/src/draw/lv_draw.c **** 
 260:Drivers/lvgl/src/draw/lv_draw.c ****     /*This layer is ready, enable blending its buffer*/
 261:Drivers/lvgl/src/draw/lv_draw.c ****     if(layer->parent && layer->all_tasks_added && layer->draw_task_head == NULL) {
 262:Drivers/lvgl/src/draw/lv_draw.c ****         /*Find a draw task with TYPE_LAYER in the layer where the src is this layer*/
 263:Drivers/lvgl/src/draw/lv_draw.c ****         lv_draw_task_t * t_src = layer->parent->draw_task_head;
 264:Drivers/lvgl/src/draw/lv_draw.c ****         while(t_src) {
 265:Drivers/lvgl/src/draw/lv_draw.c ****             if(t_src->type == LV_DRAW_TASK_TYPE_LAYER && t_src->state == LV_DRAW_TASK_STATE_BLOCKED
 266:Drivers/lvgl/src/draw/lv_draw.c ****                 lv_draw_image_dsc_t * draw_dsc = t_src->draw_dsc;
 267:Drivers/lvgl/src/draw/lv_draw.c ****                 if(draw_dsc->src == layer) {
 268:Drivers/lvgl/src/draw/lv_draw.c ****                     t_src->state = LV_DRAW_TASK_STATE_WAITING;
 269:Drivers/lvgl/src/draw/lv_draw.c ****                     lv_draw_dispatch_request();
 270:Drivers/lvgl/src/draw/lv_draw.c ****                     break;
 271:Drivers/lvgl/src/draw/lv_draw.c ****                 }
 272:Drivers/lvgl/src/draw/lv_draw.c ****             }
 273:Drivers/lvgl/src/draw/lv_draw.c ****             t_src = t_src->next;
 274:Drivers/lvgl/src/draw/lv_draw.c ****         }
 275:Drivers/lvgl/src/draw/lv_draw.c ****     }
 276:Drivers/lvgl/src/draw/lv_draw.c ****     /*Assign draw tasks to the draw_units*/
 277:Drivers/lvgl/src/draw/lv_draw.c ****     else if(remove_task || layer->draw_task_head) {
 278:Drivers/lvgl/src/draw/lv_draw.c ****         /*Find a draw unit which is not busy and can take at least one task*/
 279:Drivers/lvgl/src/draw/lv_draw.c ****         /*Let all draw units to pick draw tasks*/
 280:Drivers/lvgl/src/draw/lv_draw.c ****         lv_draw_unit_t * u = _draw_info.unit_head;
 281:Drivers/lvgl/src/draw/lv_draw.c ****         while(u) {
 282:Drivers/lvgl/src/draw/lv_draw.c ****             LV_PROFILER_DRAW_BEGIN_TAG("dispatch_cb");
 283:Drivers/lvgl/src/draw/lv_draw.c ****             LV_PROFILER_DRAW_BEGIN_TAG(u->name);
 284:Drivers/lvgl/src/draw/lv_draw.c ****             int32_t taken_cnt = u->dispatch_cb(u, layer);
 285:Drivers/lvgl/src/draw/lv_draw.c ****             LV_PROFILER_DRAW_END_TAG(u->name);
 286:Drivers/lvgl/src/draw/lv_draw.c ****             LV_PROFILER_DRAW_END_TAG("dispatch_cb");
 287:Drivers/lvgl/src/draw/lv_draw.c ****             if(taken_cnt != LV_DRAW_UNIT_IDLE) task_dispatched = true;
 288:Drivers/lvgl/src/draw/lv_draw.c ****             u = u->next;
 289:Drivers/lvgl/src/draw/lv_draw.c ****         }
 290:Drivers/lvgl/src/draw/lv_draw.c ****     }
 291:Drivers/lvgl/src/draw/lv_draw.c **** 
 292:Drivers/lvgl/src/draw/lv_draw.c ****     LV_PROFILER_DRAW_END;
 293:Drivers/lvgl/src/draw/lv_draw.c ****     return task_dispatched;
 294:Drivers/lvgl/src/draw/lv_draw.c **** }
 295:Drivers/lvgl/src/draw/lv_draw.c **** 
 296:Drivers/lvgl/src/draw/lv_draw.c **** void lv_draw_dispatch_wait_for_request(void)
 297:Drivers/lvgl/src/draw/lv_draw.c **** {
 298:Drivers/lvgl/src/draw/lv_draw.c ****     LV_PROFILER_DRAW_BEGIN;
 299:Drivers/lvgl/src/draw/lv_draw.c **** #if LV_USE_OS
 300:Drivers/lvgl/src/draw/lv_draw.c ****     lv_thread_sync_wait(&_draw_info.sync);
 301:Drivers/lvgl/src/draw/lv_draw.c **** #else
 302:Drivers/lvgl/src/draw/lv_draw.c ****     while(!_draw_info.dispatch_req);
 303:Drivers/lvgl/src/draw/lv_draw.c ****     _draw_info.dispatch_req = 0;
 304:Drivers/lvgl/src/draw/lv_draw.c **** #endif
 305:Drivers/lvgl/src/draw/lv_draw.c ****     LV_PROFILER_DRAW_END;
 306:Drivers/lvgl/src/draw/lv_draw.c **** }
 307:Drivers/lvgl/src/draw/lv_draw.c **** 
 308:Drivers/lvgl/src/draw/lv_draw.c **** void lv_draw_dispatch_request(void)
 309:Drivers/lvgl/src/draw/lv_draw.c **** {
 310:Drivers/lvgl/src/draw/lv_draw.c ****     LV_PROFILER_DRAW_BEGIN;
 311:Drivers/lvgl/src/draw/lv_draw.c **** #if LV_USE_OS
 312:Drivers/lvgl/src/draw/lv_draw.c ****     lv_thread_sync_signal(&_draw_info.sync);
 313:Drivers/lvgl/src/draw/lv_draw.c **** #else
 314:Drivers/lvgl/src/draw/lv_draw.c ****     _draw_info.dispatch_req = 1;
 315:Drivers/lvgl/src/draw/lv_draw.c **** #endif
ARM GAS  /var/folders/qx/2_175_4n2s19vhvtspjhb3qh0000gn/T//ccRXOHgw.s 			page 7


 316:Drivers/lvgl/src/draw/lv_draw.c ****     LV_PROFILER_DRAW_END;
 317:Drivers/lvgl/src/draw/lv_draw.c **** }
 318:Drivers/lvgl/src/draw/lv_draw.c **** 
 319:Drivers/lvgl/src/draw/lv_draw.c **** uint32_t lv_draw_get_unit_count(void)
 320:Drivers/lvgl/src/draw/lv_draw.c **** {
 321:Drivers/lvgl/src/draw/lv_draw.c ****     return _draw_info.unit_cnt;
 322:Drivers/lvgl/src/draw/lv_draw.c **** }
 323:Drivers/lvgl/src/draw/lv_draw.c **** 
 324:Drivers/lvgl/src/draw/lv_draw.c **** lv_draw_task_t * lv_draw_get_available_task(lv_layer_t * layer, lv_draw_task_t * t_prev, uint8_t dr
 325:Drivers/lvgl/src/draw/lv_draw.c **** {
 326:Drivers/lvgl/src/draw/lv_draw.c ****     if(_draw_info.unit_cnt == 1) {
 327:Drivers/lvgl/src/draw/lv_draw.c ****         return get_first_available_task(layer);
 328:Drivers/lvgl/src/draw/lv_draw.c ****     }
 329:Drivers/lvgl/src/draw/lv_draw.c ****     else {
 330:Drivers/lvgl/src/draw/lv_draw.c ****         return lv_draw_get_next_available_task(layer, t_prev, draw_unit_id);
 331:Drivers/lvgl/src/draw/lv_draw.c ****     }
 332:Drivers/lvgl/src/draw/lv_draw.c **** }
 333:Drivers/lvgl/src/draw/lv_draw.c **** 
 334:Drivers/lvgl/src/draw/lv_draw.c **** lv_draw_task_t * lv_draw_get_next_available_task(lv_layer_t * layer, lv_draw_task_t * t_prev, uint8
 335:Drivers/lvgl/src/draw/lv_draw.c **** {
 336:Drivers/lvgl/src/draw/lv_draw.c ****     LV_PROFILER_DRAW_BEGIN;
 337:Drivers/lvgl/src/draw/lv_draw.c **** 
 338:Drivers/lvgl/src/draw/lv_draw.c ****     /*If the first task is screen sized, there cannot be independent areas*/
 339:Drivers/lvgl/src/draw/lv_draw.c ****     if(layer->draw_task_head) {
 340:Drivers/lvgl/src/draw/lv_draw.c ****         int32_t hor_res = lv_display_get_horizontal_resolution(lv_refr_get_disp_refreshing());
 341:Drivers/lvgl/src/draw/lv_draw.c ****         int32_t ver_res = lv_display_get_vertical_resolution(lv_refr_get_disp_refreshing());
 342:Drivers/lvgl/src/draw/lv_draw.c ****         lv_draw_task_t * t = layer->draw_task_head;
 343:Drivers/lvgl/src/draw/lv_draw.c ****         if(t->state != LV_DRAW_TASK_STATE_WAITING &&
 344:Drivers/lvgl/src/draw/lv_draw.c ****            t->area.x1 <= 0 && t->area.x2 >= hor_res - 1 &&
 345:Drivers/lvgl/src/draw/lv_draw.c ****            t->area.y1 <= 0 && t->area.y2 >= ver_res - 1) {
 346:Drivers/lvgl/src/draw/lv_draw.c ****             LV_PROFILER_DRAW_END;
 347:Drivers/lvgl/src/draw/lv_draw.c ****             return NULL;
 348:Drivers/lvgl/src/draw/lv_draw.c ****         }
 349:Drivers/lvgl/src/draw/lv_draw.c ****     }
 350:Drivers/lvgl/src/draw/lv_draw.c **** 
 351:Drivers/lvgl/src/draw/lv_draw.c ****     lv_draw_task_t * t = t_prev ? t_prev->next : layer->draw_task_head;
 352:Drivers/lvgl/src/draw/lv_draw.c ****     while(t) {
 353:Drivers/lvgl/src/draw/lv_draw.c ****         /*Find a draw task for this draw unit which is waiting and independent?*/
 354:Drivers/lvgl/src/draw/lv_draw.c ****         if((t->preferred_draw_unit_id == draw_unit_id || t->preferred_draw_unit_id == LV_DRAW_UNIT_
 355:Drivers/lvgl/src/draw/lv_draw.c ****            t->state == LV_DRAW_TASK_STATE_WAITING &&
 356:Drivers/lvgl/src/draw/lv_draw.c ****            is_independent(layer, t, draw_unit_id)) {
 357:Drivers/lvgl/src/draw/lv_draw.c ****             LV_PROFILER_DRAW_END;
 358:Drivers/lvgl/src/draw/lv_draw.c ****             return t;
 359:Drivers/lvgl/src/draw/lv_draw.c ****         }
 360:Drivers/lvgl/src/draw/lv_draw.c **** 
 361:Drivers/lvgl/src/draw/lv_draw.c ****         t = t->next;
 362:Drivers/lvgl/src/draw/lv_draw.c ****     }
 363:Drivers/lvgl/src/draw/lv_draw.c **** 
 364:Drivers/lvgl/src/draw/lv_draw.c ****     LV_PROFILER_DRAW_END;
 365:Drivers/lvgl/src/draw/lv_draw.c ****     return NULL;
 366:Drivers/lvgl/src/draw/lv_draw.c **** }
 367:Drivers/lvgl/src/draw/lv_draw.c **** 
 368:Drivers/lvgl/src/draw/lv_draw.c **** uint32_t lv_draw_get_dependent_count(lv_draw_task_t * t_check)
 369:Drivers/lvgl/src/draw/lv_draw.c **** {
 370:Drivers/lvgl/src/draw/lv_draw.c ****     if(t_check == NULL) return 0;
 371:Drivers/lvgl/src/draw/lv_draw.c ****     if(t_check->next == NULL) return 0;
 372:Drivers/lvgl/src/draw/lv_draw.c **** 
ARM GAS  /var/folders/qx/2_175_4n2s19vhvtspjhb3qh0000gn/T//ccRXOHgw.s 			page 8


 373:Drivers/lvgl/src/draw/lv_draw.c ****     LV_PROFILER_DRAW_BEGIN;
 374:Drivers/lvgl/src/draw/lv_draw.c ****     uint32_t cnt = 0;
 375:Drivers/lvgl/src/draw/lv_draw.c **** 
 376:Drivers/lvgl/src/draw/lv_draw.c ****     lv_draw_task_t * t = t_check->next;
 377:Drivers/lvgl/src/draw/lv_draw.c ****     while(t) {
 378:Drivers/lvgl/src/draw/lv_draw.c ****         if((t->state == LV_DRAW_TASK_STATE_WAITING || t->state == LV_DRAW_TASK_STATE_BLOCKED) &&
 379:Drivers/lvgl/src/draw/lv_draw.c ****            lv_area_is_on(&t_check->area, &t->area)) {
 380:Drivers/lvgl/src/draw/lv_draw.c ****             cnt++;
 381:Drivers/lvgl/src/draw/lv_draw.c ****         }
 382:Drivers/lvgl/src/draw/lv_draw.c **** 
 383:Drivers/lvgl/src/draw/lv_draw.c ****         t = t->next;
 384:Drivers/lvgl/src/draw/lv_draw.c ****     }
 385:Drivers/lvgl/src/draw/lv_draw.c ****     LV_PROFILER_DRAW_END;
 386:Drivers/lvgl/src/draw/lv_draw.c ****     return cnt;
 387:Drivers/lvgl/src/draw/lv_draw.c **** }
 388:Drivers/lvgl/src/draw/lv_draw.c **** 
 389:Drivers/lvgl/src/draw/lv_draw.c **** void lv_draw_unit_send_event(const char * name, lv_event_code_t code, void * param)
 390:Drivers/lvgl/src/draw/lv_draw.c **** {
 391:Drivers/lvgl/src/draw/lv_draw.c ****     LV_PROFILER_DRAW_BEGIN;
 392:Drivers/lvgl/src/draw/lv_draw.c **** 
 393:Drivers/lvgl/src/draw/lv_draw.c ****     lv_event_t event = { 0 };
 394:Drivers/lvgl/src/draw/lv_draw.c ****     event.code = code;
 395:Drivers/lvgl/src/draw/lv_draw.c ****     event.param = param;
 396:Drivers/lvgl/src/draw/lv_draw.c ****     lv_draw_unit_t * u = _draw_info.unit_head;
 397:Drivers/lvgl/src/draw/lv_draw.c ****     while(u) {
 398:Drivers/lvgl/src/draw/lv_draw.c ****         if(u->event_cb && (!name || lv_strcmp(name, u->name) == 0)) {
 399:Drivers/lvgl/src/draw/lv_draw.c ****             event.current_target = event.original_target = u;
 400:Drivers/lvgl/src/draw/lv_draw.c ****             LV_PROFILER_DRAW_BEGIN_TAG("event_cb");
 401:Drivers/lvgl/src/draw/lv_draw.c ****             LV_PROFILER_DRAW_BEGIN_TAG(u->name);
 402:Drivers/lvgl/src/draw/lv_draw.c ****             u->event_cb(&event);
 403:Drivers/lvgl/src/draw/lv_draw.c ****             LV_PROFILER_DRAW_END_TAG(u->name);
 404:Drivers/lvgl/src/draw/lv_draw.c ****             LV_PROFILER_DRAW_END_TAG("event_cb");
 405:Drivers/lvgl/src/draw/lv_draw.c ****         }
 406:Drivers/lvgl/src/draw/lv_draw.c ****         u = u->next;
 407:Drivers/lvgl/src/draw/lv_draw.c ****     }
 408:Drivers/lvgl/src/draw/lv_draw.c **** 
 409:Drivers/lvgl/src/draw/lv_draw.c ****     LV_PROFILER_DRAW_END;
 410:Drivers/lvgl/src/draw/lv_draw.c **** }
 411:Drivers/lvgl/src/draw/lv_draw.c **** 
 412:Drivers/lvgl/src/draw/lv_draw.c **** void lv_layer_init(lv_layer_t * layer)
 413:Drivers/lvgl/src/draw/lv_draw.c **** {
 414:Drivers/lvgl/src/draw/lv_draw.c ****     LV_ASSERT_NULL(layer);
 415:Drivers/lvgl/src/draw/lv_draw.c ****     lv_memzero(layer, sizeof(lv_layer_t));
 416:Drivers/lvgl/src/draw/lv_draw.c ****     lv_layer_reset(layer);
 417:Drivers/lvgl/src/draw/lv_draw.c **** }
 418:Drivers/lvgl/src/draw/lv_draw.c **** 
 419:Drivers/lvgl/src/draw/lv_draw.c **** void lv_layer_reset(lv_layer_t * layer)
 420:Drivers/lvgl/src/draw/lv_draw.c **** {
 421:Drivers/lvgl/src/draw/lv_draw.c ****     LV_ASSERT_NULL(layer);
 422:Drivers/lvgl/src/draw/lv_draw.c **** #if LV_DRAW_TRANSFORM_USE_MATRIX
 423:Drivers/lvgl/src/draw/lv_draw.c ****     lv_matrix_identity(&layer->matrix);
 424:Drivers/lvgl/src/draw/lv_draw.c **** #endif
 425:Drivers/lvgl/src/draw/lv_draw.c ****     layer->opa = LV_OPA_COVER;
 426:Drivers/lvgl/src/draw/lv_draw.c ****     layer->recolor = lv_color32_make(0, 0, 0, 0);
 427:Drivers/lvgl/src/draw/lv_draw.c **** }
 428:Drivers/lvgl/src/draw/lv_draw.c **** 
 429:Drivers/lvgl/src/draw/lv_draw.c **** lv_layer_t * lv_draw_layer_create(lv_layer_t * parent_layer, lv_color_format_t color_format, const 
ARM GAS  /var/folders/qx/2_175_4n2s19vhvtspjhb3qh0000gn/T//ccRXOHgw.s 			page 9


 430:Drivers/lvgl/src/draw/lv_draw.c **** {
 431:Drivers/lvgl/src/draw/lv_draw.c ****     LV_PROFILER_DRAW_BEGIN;
 432:Drivers/lvgl/src/draw/lv_draw.c ****     lv_layer_t * new_layer = lv_malloc_zeroed(sizeof(lv_layer_t));
 433:Drivers/lvgl/src/draw/lv_draw.c ****     LV_ASSERT_MALLOC(new_layer);
 434:Drivers/lvgl/src/draw/lv_draw.c ****     if(new_layer == NULL) {
 435:Drivers/lvgl/src/draw/lv_draw.c ****         LV_PROFILER_DRAW_END;
 436:Drivers/lvgl/src/draw/lv_draw.c ****         return NULL;
 437:Drivers/lvgl/src/draw/lv_draw.c ****     }
 438:Drivers/lvgl/src/draw/lv_draw.c **** 
 439:Drivers/lvgl/src/draw/lv_draw.c ****     lv_draw_layer_init(new_layer, parent_layer, color_format, area);
 440:Drivers/lvgl/src/draw/lv_draw.c **** 
 441:Drivers/lvgl/src/draw/lv_draw.c ****     /*Inherits transparency from parent*/
 442:Drivers/lvgl/src/draw/lv_draw.c ****     if(parent_layer) {
 443:Drivers/lvgl/src/draw/lv_draw.c ****         new_layer->opa = parent_layer->opa;
 444:Drivers/lvgl/src/draw/lv_draw.c ****         new_layer->recolor = parent_layer->recolor;
 445:Drivers/lvgl/src/draw/lv_draw.c ****     }
 446:Drivers/lvgl/src/draw/lv_draw.c **** 
 447:Drivers/lvgl/src/draw/lv_draw.c ****     LV_PROFILER_DRAW_END;
 448:Drivers/lvgl/src/draw/lv_draw.c ****     return new_layer;
 449:Drivers/lvgl/src/draw/lv_draw.c **** }
 450:Drivers/lvgl/src/draw/lv_draw.c **** 
 451:Drivers/lvgl/src/draw/lv_draw.c **** void lv_draw_layer_init(lv_layer_t * layer, lv_layer_t * parent_layer, lv_color_format_t color_form
 452:Drivers/lvgl/src/draw/lv_draw.c ****                         const lv_area_t * area)
 453:Drivers/lvgl/src/draw/lv_draw.c **** {
 454:Drivers/lvgl/src/draw/lv_draw.c ****     LV_PROFILER_DRAW_BEGIN;
 455:Drivers/lvgl/src/draw/lv_draw.c ****     lv_layer_init(layer);
 456:Drivers/lvgl/src/draw/lv_draw.c ****     lv_display_t * disp = lv_refr_get_disp_refreshing();
 457:Drivers/lvgl/src/draw/lv_draw.c **** 
 458:Drivers/lvgl/src/draw/lv_draw.c ****     layer->parent = parent_layer;
 459:Drivers/lvgl/src/draw/lv_draw.c ****     layer->_clip_area = *area;
 460:Drivers/lvgl/src/draw/lv_draw.c ****     layer->buf_area = *area;
 461:Drivers/lvgl/src/draw/lv_draw.c ****     layer->phy_clip_area = *area;
 462:Drivers/lvgl/src/draw/lv_draw.c ****     layer->color_format = color_format;
 463:Drivers/lvgl/src/draw/lv_draw.c **** 
 464:Drivers/lvgl/src/draw/lv_draw.c ****     if(disp->layer_init) disp->layer_init(disp, layer);
 465:Drivers/lvgl/src/draw/lv_draw.c **** 
 466:Drivers/lvgl/src/draw/lv_draw.c ****     if(disp->layer_head) {
 467:Drivers/lvgl/src/draw/lv_draw.c ****         lv_layer_t * tail = disp->layer_head;
 468:Drivers/lvgl/src/draw/lv_draw.c ****         while(tail->next) tail = tail->next;
 469:Drivers/lvgl/src/draw/lv_draw.c ****         tail->next = layer;
 470:Drivers/lvgl/src/draw/lv_draw.c ****     }
 471:Drivers/lvgl/src/draw/lv_draw.c ****     else {
 472:Drivers/lvgl/src/draw/lv_draw.c ****         disp->layer_head = layer;
 473:Drivers/lvgl/src/draw/lv_draw.c ****     }
 474:Drivers/lvgl/src/draw/lv_draw.c **** 
 475:Drivers/lvgl/src/draw/lv_draw.c ****     LV_PROFILER_DRAW_END;
 476:Drivers/lvgl/src/draw/lv_draw.c **** }
 477:Drivers/lvgl/src/draw/lv_draw.c **** 
 478:Drivers/lvgl/src/draw/lv_draw.c **** void * lv_draw_layer_alloc_buf(lv_layer_t * layer)
 479:Drivers/lvgl/src/draw/lv_draw.c **** {
 480:Drivers/lvgl/src/draw/lv_draw.c ****     LV_PROFILER_DRAW_BEGIN;
 481:Drivers/lvgl/src/draw/lv_draw.c ****     /*If the buffer of the layer is already allocated return it*/
 482:Drivers/lvgl/src/draw/lv_draw.c ****     if(layer->draw_buf != NULL) {
 483:Drivers/lvgl/src/draw/lv_draw.c ****         LV_PROFILER_DRAW_END;
 484:Drivers/lvgl/src/draw/lv_draw.c ****         return layer->draw_buf->data;
 485:Drivers/lvgl/src/draw/lv_draw.c ****     }
 486:Drivers/lvgl/src/draw/lv_draw.c **** 
ARM GAS  /var/folders/qx/2_175_4n2s19vhvtspjhb3qh0000gn/T//ccRXOHgw.s 			page 10


 487:Drivers/lvgl/src/draw/lv_draw.c ****     /*If the buffer of the layer is not allocated yet, allocate it now*/
 488:Drivers/lvgl/src/draw/lv_draw.c ****     int32_t w = lv_area_get_width(&layer->buf_area);
 489:Drivers/lvgl/src/draw/lv_draw.c ****     int32_t h = lv_area_get_height(&layer->buf_area);
 490:Drivers/lvgl/src/draw/lv_draw.c ****     uint32_t layer_size_byte = h * lv_draw_buf_width_to_stride(w, layer->color_format);
 491:Drivers/lvgl/src/draw/lv_draw.c **** 
 492:Drivers/lvgl/src/draw/lv_draw.c **** #if LV_DRAW_LAYER_MAX_MEMORY > 0
 493:Drivers/lvgl/src/draw/lv_draw.c ****     /* Do not allocate the layer if the sum of allocated layer sizes
 494:Drivers/lvgl/src/draw/lv_draw.c ****      * will exceed `LV_DRAW_LAYER_MAX_MEMORY` */
 495:Drivers/lvgl/src/draw/lv_draw.c ****     if((_draw_info.used_memory_for_layers + layer_size_byte) > LV_DRAW_LAYER_MAX_MEMORY) {
 496:Drivers/lvgl/src/draw/lv_draw.c ****         LV_LOG_WARN("LV_DRAW_LAYER_MAX_MEMORY was reached when allocating the layer.");
 497:Drivers/lvgl/src/draw/lv_draw.c ****         return NULL;
 498:Drivers/lvgl/src/draw/lv_draw.c ****     }
 499:Drivers/lvgl/src/draw/lv_draw.c **** #endif
 500:Drivers/lvgl/src/draw/lv_draw.c **** 
 501:Drivers/lvgl/src/draw/lv_draw.c ****     layer->draw_buf = lv_draw_buf_create(w, h, layer->color_format, 0);
 502:Drivers/lvgl/src/draw/lv_draw.c **** 
 503:Drivers/lvgl/src/draw/lv_draw.c ****     if(layer->draw_buf == NULL) {
 504:Drivers/lvgl/src/draw/lv_draw.c ****         LV_LOG_WARN("Allocating layer buffer failed. Try later");
 505:Drivers/lvgl/src/draw/lv_draw.c ****         LV_PROFILER_DRAW_END;
 506:Drivers/lvgl/src/draw/lv_draw.c ****         return NULL;
 507:Drivers/lvgl/src/draw/lv_draw.c ****     }
 508:Drivers/lvgl/src/draw/lv_draw.c **** 
 509:Drivers/lvgl/src/draw/lv_draw.c ****     _draw_info.used_memory_for_layers += layer_size_byte;
 510:Drivers/lvgl/src/draw/lv_draw.c ****     LV_LOG_INFO("Layer memory used: %" LV_PRIu32 " kB", get_layer_size_kb(_draw_info.used_memory_fo
 511:Drivers/lvgl/src/draw/lv_draw.c **** 
 512:Drivers/lvgl/src/draw/lv_draw.c ****     if(lv_color_format_has_alpha(layer->color_format)) {
 513:Drivers/lvgl/src/draw/lv_draw.c ****         lv_draw_buf_clear(layer->draw_buf, NULL);
 514:Drivers/lvgl/src/draw/lv_draw.c ****     }
 515:Drivers/lvgl/src/draw/lv_draw.c **** 
 516:Drivers/lvgl/src/draw/lv_draw.c ****     LV_PROFILER_DRAW_END;
 517:Drivers/lvgl/src/draw/lv_draw.c ****     return layer->draw_buf->data;
 518:Drivers/lvgl/src/draw/lv_draw.c **** }
 519:Drivers/lvgl/src/draw/lv_draw.c **** 
 520:Drivers/lvgl/src/draw/lv_draw.c **** void * lv_draw_layer_go_to_xy(lv_layer_t * layer, int32_t x, int32_t y)
 521:Drivers/lvgl/src/draw/lv_draw.c **** {
 522:Drivers/lvgl/src/draw/lv_draw.c ****     return lv_draw_buf_goto_xy(layer->draw_buf, x, y);
 523:Drivers/lvgl/src/draw/lv_draw.c **** }
 524:Drivers/lvgl/src/draw/lv_draw.c **** 
 525:Drivers/lvgl/src/draw/lv_draw.c **** lv_draw_task_type_t lv_draw_task_get_type(const lv_draw_task_t * t)
 526:Drivers/lvgl/src/draw/lv_draw.c **** {
 527:Drivers/lvgl/src/draw/lv_draw.c ****     return t->type;
 528:Drivers/lvgl/src/draw/lv_draw.c **** }
 529:Drivers/lvgl/src/draw/lv_draw.c **** 
 530:Drivers/lvgl/src/draw/lv_draw.c **** void * lv_draw_task_get_draw_dsc(const lv_draw_task_t * t)
 531:Drivers/lvgl/src/draw/lv_draw.c **** {
 532:Drivers/lvgl/src/draw/lv_draw.c ****     return t->draw_dsc;
 533:Drivers/lvgl/src/draw/lv_draw.c **** }
 534:Drivers/lvgl/src/draw/lv_draw.c **** 
 535:Drivers/lvgl/src/draw/lv_draw.c **** void lv_draw_task_get_area(const lv_draw_task_t * t, lv_area_t * area)
 536:Drivers/lvgl/src/draw/lv_draw.c **** {
 537:Drivers/lvgl/src/draw/lv_draw.c ****     *area = t->area;
 538:Drivers/lvgl/src/draw/lv_draw.c **** }
 539:Drivers/lvgl/src/draw/lv_draw.c **** 
 540:Drivers/lvgl/src/draw/lv_draw.c **** /**********************
 541:Drivers/lvgl/src/draw/lv_draw.c ****  *   STATIC FUNCTIONS
 542:Drivers/lvgl/src/draw/lv_draw.c ****  **********************/
 543:Drivers/lvgl/src/draw/lv_draw.c **** 
ARM GAS  /var/folders/qx/2_175_4n2s19vhvtspjhb3qh0000gn/T//ccRXOHgw.s 			page 11


 544:Drivers/lvgl/src/draw/lv_draw.c **** /**
 545:Drivers/lvgl/src/draw/lv_draw.c ****  * Check if there are older draw task overlapping the area of `t_check`
 546:Drivers/lvgl/src/draw/lv_draw.c ****  * @param layer         the draw ctx to search in
 547:Drivers/lvgl/src/draw/lv_draw.c ****  * @param t_check       check this task if it overlaps with the older ones
 548:Drivers/lvgl/src/draw/lv_draw.c ****  * @param draw_unit_id  draw unit ID for which the independence check is called
 549:Drivers/lvgl/src/draw/lv_draw.c ****  * @return              true: `t_check` is not overlapping with older tasks so it's independent
 550:Drivers/lvgl/src/draw/lv_draw.c ****  */
 551:Drivers/lvgl/src/draw/lv_draw.c **** static bool is_independent(lv_layer_t * layer, lv_draw_task_t * t_check, uint8_t draw_unit_id)
 552:Drivers/lvgl/src/draw/lv_draw.c **** {
 553:Drivers/lvgl/src/draw/lv_draw.c ****     LV_PROFILER_DRAW_BEGIN;
 554:Drivers/lvgl/src/draw/lv_draw.c ****     lv_draw_task_t * t = layer->draw_task_head;
 555:Drivers/lvgl/src/draw/lv_draw.c **** 
 556:Drivers/lvgl/src/draw/lv_draw.c ****     /*If t_check is outside of the older tasks then it's independent*/
 557:Drivers/lvgl/src/draw/lv_draw.c ****     while(t && t != t_check) {
 558:Drivers/lvgl/src/draw/lv_draw.c ****         /*It's independent of finished draw tasks, and queued draw tasks of the same draw unit,
 559:Drivers/lvgl/src/draw/lv_draw.c ****          *so no need to check it*/
 560:Drivers/lvgl/src/draw/lv_draw.c ****         if(t->state == LV_DRAW_TASK_STATE_FINISHED ||
 561:Drivers/lvgl/src/draw/lv_draw.c ****            (t->state == LV_DRAW_TASK_STATE_QUEUED && t->preferred_draw_unit_id == draw_unit_id)) {
 562:Drivers/lvgl/src/draw/lv_draw.c ****             t = t->next;
 563:Drivers/lvgl/src/draw/lv_draw.c ****             continue;
 564:Drivers/lvgl/src/draw/lv_draw.c ****         }
 565:Drivers/lvgl/src/draw/lv_draw.c **** 
 566:Drivers/lvgl/src/draw/lv_draw.c ****         lv_area_t a;
 567:Drivers/lvgl/src/draw/lv_draw.c ****         if(lv_area_intersect(&a, &t->_real_area, &t_check->_real_area)) {
 568:Drivers/lvgl/src/draw/lv_draw.c ****             LV_PROFILER_DRAW_END;
 569:Drivers/lvgl/src/draw/lv_draw.c ****             return false;
 570:Drivers/lvgl/src/draw/lv_draw.c ****         }
 571:Drivers/lvgl/src/draw/lv_draw.c ****         t = t->next;
 572:Drivers/lvgl/src/draw/lv_draw.c ****     }
 573:Drivers/lvgl/src/draw/lv_draw.c ****     LV_PROFILER_DRAW_END;
 574:Drivers/lvgl/src/draw/lv_draw.c **** 
 575:Drivers/lvgl/src/draw/lv_draw.c ****     return true;
 576:Drivers/lvgl/src/draw/lv_draw.c **** }
 577:Drivers/lvgl/src/draw/lv_draw.c **** 
 578:Drivers/lvgl/src/draw/lv_draw.c **** /**
 579:Drivers/lvgl/src/draw/lv_draw.c ****  * Get the size of the draw descriptor of a draw task
 580:Drivers/lvgl/src/draw/lv_draw.c ****  * @param type      type of the draw task
 581:Drivers/lvgl/src/draw/lv_draw.c ****  * @return          size of the draw descriptor in bytes
 582:Drivers/lvgl/src/draw/lv_draw.c ****  */
 583:Drivers/lvgl/src/draw/lv_draw.c **** static inline size_t get_draw_dsc_size(lv_draw_task_type_t type)
 584:Drivers/lvgl/src/draw/lv_draw.c **** {
  29              		.loc 1 584 1 view -0
  30              		.cfi_startproc
  31              		@ args = 0, pretend = 0, frame = 0
  32              		@ frame_needed = 0, uses_anonymous_args = 0
  33              		@ link register save eliminated.
 585:Drivers/lvgl/src/draw/lv_draw.c ****     switch(type) {
  34              		.loc 1 585 5 view .LVU1
  35 0000 0138     		subs	r0, r0, #1
  36              	.LVL1:
  37              		.loc 1 585 5 is_stmt 0 view .LVU2
  38 0002 0C28     		cmp	r0, #12
  39 0004 08D8     		bhi	.L2
  40 0006 DFE800F0 		tbb	[pc, r0]
  41              	.L4:
  42 000a 1F       		.byte	(.L16-.L4)/2
  43 000b 09       		.byte	(.L14-.L4)/2
ARM GAS  /var/folders/qx/2_175_4n2s19vhvtspjhb3qh0000gn/T//ccRXOHgw.s 			page 12


  44 000c 0B       		.byte	(.L13-.L4)/2
  45 000d 0D       		.byte	(.L12-.L4)/2
  46 000e 0F       		.byte	(.L11-.L4)/2
  47 000f 11       		.byte	(.L10-.L4)/2
  48 0010 13       		.byte	(.L9-.L4)/2
  49 0011 15       		.byte	(.L8-.L4)/2
  50 0012 17       		.byte	(.L7-.L4)/2
  51 0013 19       		.byte	(.L6-.L4)/2
  52 0014 1D       		.byte	(.L5-.L4)/2
  53 0015 07       		.byte	(.L2-.L4)/2
  54 0016 1B       		.byte	(.L3-.L4)/2
  55 0017 00       		.p2align 1
  56              	.L2:
  57 0018 0020     		movs	r0, #0
  58              	.LVL2:
  59              		.loc 1 585 5 view .LVU3
  60 001a 7047     		bx	lr
  61              	.L14:
 586:Drivers/lvgl/src/draw/lv_draw.c ****         case LV_DRAW_TASK_TYPE_NONE:
 587:Drivers/lvgl/src/draw/lv_draw.c ****             return 0;
 588:Drivers/lvgl/src/draw/lv_draw.c ****         case LV_DRAW_TASK_TYPE_FILL:
 589:Drivers/lvgl/src/draw/lv_draw.c ****             return sizeof(lv_draw_fill_dsc_t);
 590:Drivers/lvgl/src/draw/lv_draw.c ****         case LV_DRAW_TASK_TYPE_BORDER:
 591:Drivers/lvgl/src/draw/lv_draw.c ****             return sizeof(lv_draw_border_dsc_t);
  62              		.loc 1 591 13 is_stmt 1 view .LVU4
  63              		.loc 1 591 20 is_stmt 0 view .LVU5
  64 001c 2C20     		movs	r0, #44
  65 001e 7047     		bx	lr
  66              	.L13:
 592:Drivers/lvgl/src/draw/lv_draw.c ****         case LV_DRAW_TASK_TYPE_BOX_SHADOW:
 593:Drivers/lvgl/src/draw/lv_draw.c ****             return sizeof(lv_draw_box_shadow_dsc_t);
  67              		.loc 1 593 13 is_stmt 1 view .LVU6
  68              		.loc 1 593 20 is_stmt 0 view .LVU7
  69 0020 3820     		movs	r0, #56
  70 0022 7047     		bx	lr
  71              	.L12:
 594:Drivers/lvgl/src/draw/lv_draw.c ****         case LV_DRAW_TASK_TYPE_LETTER:
 595:Drivers/lvgl/src/draw/lv_draw.c ****             return sizeof(lv_draw_letter_dsc_t);
  72              		.loc 1 595 13 is_stmt 1 view .LVU8
  73              		.loc 1 595 20 is_stmt 0 view .LVU9
  74 0024 5020     		movs	r0, #80
  75 0026 7047     		bx	lr
  76              	.L11:
 596:Drivers/lvgl/src/draw/lv_draw.c ****         case LV_DRAW_TASK_TYPE_LABEL:
 597:Drivers/lvgl/src/draw/lv_draw.c ****             return sizeof(lv_draw_label_dsc_t);
  77              		.loc 1 597 13 is_stmt 1 view .LVU10
  78              		.loc 1 597 20 is_stmt 0 view .LVU11
  79 0028 6C20     		movs	r0, #108
  80 002a 7047     		bx	lr
  81              	.L10:
 598:Drivers/lvgl/src/draw/lv_draw.c ****         case LV_DRAW_TASK_TYPE_IMAGE:
 599:Drivers/lvgl/src/draw/lv_draw.c ****             return sizeof(lv_draw_image_dsc_t);
  82              		.loc 1 599 13 is_stmt 1 view .LVU12
  83              		.loc 1 599 20 is_stmt 0 view .LVU13
  84 002c 7020     		movs	r0, #112
  85 002e 7047     		bx	lr
  86              	.L9:
ARM GAS  /var/folders/qx/2_175_4n2s19vhvtspjhb3qh0000gn/T//ccRXOHgw.s 			page 13


 600:Drivers/lvgl/src/draw/lv_draw.c ****         case LV_DRAW_TASK_TYPE_LAYER:
 601:Drivers/lvgl/src/draw/lv_draw.c ****             return sizeof(lv_draw_image_dsc_t);
  87              		.loc 1 601 13 is_stmt 1 view .LVU14
  88              		.loc 1 601 20 is_stmt 0 view .LVU15
  89 0030 7020     		movs	r0, #112
  90 0032 7047     		bx	lr
  91              	.L8:
 602:Drivers/lvgl/src/draw/lv_draw.c ****         case LV_DRAW_TASK_TYPE_LINE:
 603:Drivers/lvgl/src/draw/lv_draw.c ****             return sizeof(lv_draw_line_dsc_t);
  92              		.loc 1 603 13 is_stmt 1 view .LVU16
  93              		.loc 1 603 20 is_stmt 0 view .LVU17
  94 0034 4020     		movs	r0, #64
  95 0036 7047     		bx	lr
  96              	.L7:
 604:Drivers/lvgl/src/draw/lv_draw.c ****         case LV_DRAW_TASK_TYPE_ARC:
 605:Drivers/lvgl/src/draw/lv_draw.c ****             return sizeof(lv_draw_arc_dsc_t);
  97              		.loc 1 605 13 is_stmt 1 view .LVU18
  98              		.loc 1 605 20 is_stmt 0 view .LVU19
  99 0038 3C20     		movs	r0, #60
 100 003a 7047     		bx	lr
 101              	.L6:
 606:Drivers/lvgl/src/draw/lv_draw.c ****         case LV_DRAW_TASK_TYPE_TRIANGLE:
 607:Drivers/lvgl/src/draw/lv_draw.c ****             return sizeof(lv_draw_triangle_dsc_t);
 102              		.loc 1 607 13 is_stmt 1 view .LVU20
 103              		.loc 1 607 20 is_stmt 0 view .LVU21
 104 003c 6820     		movs	r0, #104
 105 003e 7047     		bx	lr
 106              	.L3:
 608:Drivers/lvgl/src/draw/lv_draw.c ****         case LV_DRAW_TASK_TYPE_BLUR:
 609:Drivers/lvgl/src/draw/lv_draw.c ****             return sizeof(lv_draw_blur_dsc_t);
 107              		.loc 1 609 13 is_stmt 1 view .LVU22
 108              		.loc 1 609 20 is_stmt 0 view .LVU23
 109 0040 2820     		movs	r0, #40
 110 0042 7047     		bx	lr
 111              	.L5:
 610:Drivers/lvgl/src/draw/lv_draw.c ****         case LV_DRAW_TASK_TYPE_MASK_RECTANGLE:
 611:Drivers/lvgl/src/draw/lv_draw.c ****             return sizeof(lv_draw_mask_rect_dsc_t);
 112              		.loc 1 611 13 is_stmt 1 view .LVU24
 113              		.loc 1 611 20 is_stmt 0 view .LVU25
 114 0044 3420     		movs	r0, #52
 115 0046 7047     		bx	lr
 116              	.L16:
 589:Drivers/lvgl/src/draw/lv_draw.c ****         case LV_DRAW_TASK_TYPE_BORDER:
 117              		.loc 1 589 20 view .LVU26
 118 0048 5420     		movs	r0, #84
 612:Drivers/lvgl/src/draw/lv_draw.c **** 
 613:Drivers/lvgl/src/draw/lv_draw.c ****         /* no struct match for LV_DRAW_TASK_TYPE_MASK_BITMAP, set it to zero now */
 614:Drivers/lvgl/src/draw/lv_draw.c ****         case LV_DRAW_TASK_TYPE_MASK_BITMAP:
 615:Drivers/lvgl/src/draw/lv_draw.c ****             return 0;
 616:Drivers/lvgl/src/draw/lv_draw.c **** #if LV_USE_VECTOR_GRAPHIC
 617:Drivers/lvgl/src/draw/lv_draw.c ****         case LV_DRAW_TASK_TYPE_VECTOR:
 618:Drivers/lvgl/src/draw/lv_draw.c ****             return sizeof(lv_draw_vector_dsc_t);
 619:Drivers/lvgl/src/draw/lv_draw.c **** #endif
 620:Drivers/lvgl/src/draw/lv_draw.c **** #if LV_USE_3DTEXTURE
 621:Drivers/lvgl/src/draw/lv_draw.c ****         case LV_DRAW_TASK_TYPE_3D:
 622:Drivers/lvgl/src/draw/lv_draw.c ****             return sizeof(lv_draw_3d_dsc_t);
 623:Drivers/lvgl/src/draw/lv_draw.c **** #endif
ARM GAS  /var/folders/qx/2_175_4n2s19vhvtspjhb3qh0000gn/T//ccRXOHgw.s 			page 14


 624:Drivers/lvgl/src/draw/lv_draw.c ****             /* Note that default is not added here because when adding new draw task type,
 625:Drivers/lvgl/src/draw/lv_draw.c ****              * if forget to add case, the compiler will automatically report a warning.
 626:Drivers/lvgl/src/draw/lv_draw.c ****              */
 627:Drivers/lvgl/src/draw/lv_draw.c ****     }
 628:Drivers/lvgl/src/draw/lv_draw.c **** 
 629:Drivers/lvgl/src/draw/lv_draw.c ****     return 0;
 630:Drivers/lvgl/src/draw/lv_draw.c **** }
 119              		.loc 1 630 1 view .LVU27
 120 004a 7047     		bx	lr
 121              		.cfi_endproc
 122              	.LFE218:
 124              		.section	.text.get_first_available_task,"ax",%progbits
 125              		.align	1
 126              		.syntax unified
 127              		.thumb
 128              		.thumb_func
 130              	get_first_available_task:
 131              	.LVL3:
 132              	.LFB220:
 631:Drivers/lvgl/src/draw/lv_draw.c **** 
 632:Drivers/lvgl/src/draw/lv_draw.c **** /**
 633:Drivers/lvgl/src/draw/lv_draw.c ****  * Clean-up resources allocated by a finished task
 634:Drivers/lvgl/src/draw/lv_draw.c ****  * @param t         pointer to a draw task
 635:Drivers/lvgl/src/draw/lv_draw.c ****  * @param disp      pointer to a display on which the task was drawn
 636:Drivers/lvgl/src/draw/lv_draw.c ****  */
 637:Drivers/lvgl/src/draw/lv_draw.c **** static void cleanup_task(lv_draw_task_t * t, lv_display_t * disp)
 638:Drivers/lvgl/src/draw/lv_draw.c **** {
 639:Drivers/lvgl/src/draw/lv_draw.c ****     LV_PROFILER_DRAW_BEGIN;
 640:Drivers/lvgl/src/draw/lv_draw.c ****     /*If it was layer drawing free the layer too*/
 641:Drivers/lvgl/src/draw/lv_draw.c ****     if(t->type == LV_DRAW_TASK_TYPE_LAYER) {
 642:Drivers/lvgl/src/draw/lv_draw.c ****         lv_draw_image_dsc_t * draw_image_dsc = t->draw_dsc;
 643:Drivers/lvgl/src/draw/lv_draw.c ****         lv_layer_t * layer_drawn = (lv_layer_t *)draw_image_dsc->src;
 644:Drivers/lvgl/src/draw/lv_draw.c **** 
 645:Drivers/lvgl/src/draw/lv_draw.c ****         if(layer_drawn->draw_buf) {
 646:Drivers/lvgl/src/draw/lv_draw.c ****             int32_t h = lv_area_get_height(&layer_drawn->buf_area);
 647:Drivers/lvgl/src/draw/lv_draw.c ****             uint32_t layer_size_byte = h * layer_drawn->draw_buf->header.stride;
 648:Drivers/lvgl/src/draw/lv_draw.c **** 
 649:Drivers/lvgl/src/draw/lv_draw.c ****             if(_draw_info.used_memory_for_layers >= layer_size_byte) {
 650:Drivers/lvgl/src/draw/lv_draw.c ****                 _draw_info.used_memory_for_layers -= layer_size_byte;
 651:Drivers/lvgl/src/draw/lv_draw.c ****             }
 652:Drivers/lvgl/src/draw/lv_draw.c ****             else {
 653:Drivers/lvgl/src/draw/lv_draw.c ****                 _draw_info.used_memory_for_layers = 0;
 654:Drivers/lvgl/src/draw/lv_draw.c ****                 LV_LOG_WARN("More layers were freed than allocated");
 655:Drivers/lvgl/src/draw/lv_draw.c ****             }
 656:Drivers/lvgl/src/draw/lv_draw.c ****             LV_LOG_INFO("Layer memory used: %" LV_PRIu32 " kB", get_layer_size_kb(_draw_info.used_m
 657:Drivers/lvgl/src/draw/lv_draw.c ****             lv_draw_buf_destroy(layer_drawn->draw_buf);
 658:Drivers/lvgl/src/draw/lv_draw.c ****             layer_drawn->draw_buf = NULL;
 659:Drivers/lvgl/src/draw/lv_draw.c ****         }
 660:Drivers/lvgl/src/draw/lv_draw.c **** 
 661:Drivers/lvgl/src/draw/lv_draw.c ****         /*Remove the layer from  the display's*/
 662:Drivers/lvgl/src/draw/lv_draw.c ****         if(disp) {
 663:Drivers/lvgl/src/draw/lv_draw.c ****             lv_layer_t * l2 = disp->layer_head;
 664:Drivers/lvgl/src/draw/lv_draw.c ****             while(l2) {
 665:Drivers/lvgl/src/draw/lv_draw.c ****                 if(l2->next == layer_drawn) {
 666:Drivers/lvgl/src/draw/lv_draw.c ****                     l2->next = layer_drawn->next;
 667:Drivers/lvgl/src/draw/lv_draw.c ****                     break;
 668:Drivers/lvgl/src/draw/lv_draw.c ****                 }
ARM GAS  /var/folders/qx/2_175_4n2s19vhvtspjhb3qh0000gn/T//ccRXOHgw.s 			page 15


 669:Drivers/lvgl/src/draw/lv_draw.c ****                 l2 = l2->next;
 670:Drivers/lvgl/src/draw/lv_draw.c ****             }
 671:Drivers/lvgl/src/draw/lv_draw.c **** 
 672:Drivers/lvgl/src/draw/lv_draw.c ****             if(disp->layer_deinit) {
 673:Drivers/lvgl/src/draw/lv_draw.c ****                 LV_PROFILER_DRAW_BEGIN_TAG("layer_deinit");
 674:Drivers/lvgl/src/draw/lv_draw.c ****                 disp->layer_deinit(disp, layer_drawn);
 675:Drivers/lvgl/src/draw/lv_draw.c ****                 LV_PROFILER_DRAW_END_TAG("layer_deinit");
 676:Drivers/lvgl/src/draw/lv_draw.c ****             }
 677:Drivers/lvgl/src/draw/lv_draw.c ****             lv_free(layer_drawn);
 678:Drivers/lvgl/src/draw/lv_draw.c ****         }
 679:Drivers/lvgl/src/draw/lv_draw.c ****     }
 680:Drivers/lvgl/src/draw/lv_draw.c ****     lv_draw_label_dsc_t * draw_label_dsc = lv_draw_task_get_label_dsc(t);
 681:Drivers/lvgl/src/draw/lv_draw.c ****     if(draw_label_dsc && draw_label_dsc->text_local) {
 682:Drivers/lvgl/src/draw/lv_draw.c ****         lv_free((void *)draw_label_dsc->text);
 683:Drivers/lvgl/src/draw/lv_draw.c ****         draw_label_dsc->text = NULL;
 684:Drivers/lvgl/src/draw/lv_draw.c ****     }
 685:Drivers/lvgl/src/draw/lv_draw.c **** 
 686:Drivers/lvgl/src/draw/lv_draw.c ****     lv_free(t);
 687:Drivers/lvgl/src/draw/lv_draw.c ****     LV_PROFILER_DRAW_END;
 688:Drivers/lvgl/src/draw/lv_draw.c **** }
 689:Drivers/lvgl/src/draw/lv_draw.c **** 
 690:Drivers/lvgl/src/draw/lv_draw.c **** static lv_draw_task_t * get_first_available_task(lv_layer_t * layer)
 691:Drivers/lvgl/src/draw/lv_draw.c **** {
 133              		.loc 1 691 1 is_stmt 1 view -0
 134              		.cfi_startproc
 135              		@ args = 0, pretend = 0, frame = 0
 136              		@ frame_needed = 0, uses_anonymous_args = 0
 137              		@ link register save eliminated.
 692:Drivers/lvgl/src/draw/lv_draw.c ****     LV_PROFILER_DRAW_BEGIN;
 138              		.loc 1 692 27 view .LVU29
 693:Drivers/lvgl/src/draw/lv_draw.c ****     /* If there is only 1 draw unit the task can be consumed linearly as
 694:Drivers/lvgl/src/draw/lv_draw.c ****      * they are added in the correct order. However, it can happen that
 695:Drivers/lvgl/src/draw/lv_draw.c ****      * there is a `LV_DRAW_TASK_TYPE_LAYER` which can be blended only when
 696:Drivers/lvgl/src/draw/lv_draw.c ****      * all its tasks are ready. As other areas might be on top of that
 697:Drivers/lvgl/src/draw/lv_draw.c ****      * layer-to-blend don't skip it. Instead stop there, so that the
 698:Drivers/lvgl/src/draw/lv_draw.c ****      * draw tasks of that layer can be consumed and can be finished.
 699:Drivers/lvgl/src/draw/lv_draw.c ****      * After that this layer-to-blenf will have `LV_DRAW_TASK_STATE_WAITING`
 700:Drivers/lvgl/src/draw/lv_draw.c ****      * so it can be blended normally.*/
 701:Drivers/lvgl/src/draw/lv_draw.c ****     lv_draw_task_t * t = layer->draw_task_head;
 139              		.loc 1 701 5 view .LVU30
 140              		.loc 1 701 22 is_stmt 0 view .LVU31
 141 0000 4068     		ldr	r0, [r0, #4]
 142              	.LVL4:
 702:Drivers/lvgl/src/draw/lv_draw.c ****     while(t) {
 143              		.loc 1 702 5 is_stmt 1 view .LVU32
 144              		.loc 1 702 11 view .LVU33
 145 0002 10B1     		cbz	r0, .L17
 703:Drivers/lvgl/src/draw/lv_draw.c ****         /*Not waiting to be rendered, leave this layer while the first task is ready (i.e. not bloc
 704:Drivers/lvgl/src/draw/lv_draw.c ****         if(t->state != LV_DRAW_TASK_STATE_WAITING) {
 146              		.loc 1 704 9 view .LVU34
 147              		.loc 1 704 13 is_stmt 0 view .LVU35
 148 0004 036D     		ldr	r3, [r0, #80]
 149              		.loc 1 704 11 view .LVU36
 150 0006 012B     		cmp	r3, #1
 151 0008 00D1     		bne	.L20
 152              	.LVL5:
 153              	.L17:
ARM GAS  /var/folders/qx/2_175_4n2s19vhvtspjhb3qh0000gn/T//ccRXOHgw.s 			page 16


 705:Drivers/lvgl/src/draw/lv_draw.c ****             t = NULL;
 706:Drivers/lvgl/src/draw/lv_draw.c ****             break;
 707:Drivers/lvgl/src/draw/lv_draw.c ****         }
 708:Drivers/lvgl/src/draw/lv_draw.c ****         /*Waiting to be rendered, use it*/
 709:Drivers/lvgl/src/draw/lv_draw.c ****         else {
 710:Drivers/lvgl/src/draw/lv_draw.c ****             break;
 711:Drivers/lvgl/src/draw/lv_draw.c ****         }
 712:Drivers/lvgl/src/draw/lv_draw.c ****         t = t->next;
 713:Drivers/lvgl/src/draw/lv_draw.c ****     }
 714:Drivers/lvgl/src/draw/lv_draw.c **** 
 715:Drivers/lvgl/src/draw/lv_draw.c ****     LV_PROFILER_DRAW_END;
 716:Drivers/lvgl/src/draw/lv_draw.c ****     return t;
 717:Drivers/lvgl/src/draw/lv_draw.c **** }
 154              		.loc 1 717 1 view .LVU37
 155 000a 7047     		bx	lr
 156              	.LVL6:
 157              	.L20:
 705:Drivers/lvgl/src/draw/lv_draw.c ****             t = NULL;
 158              		.loc 1 705 15 view .LVU38
 159 000c 0020     		movs	r0, #0
 160              	.LVL7:
 715:Drivers/lvgl/src/draw/lv_draw.c ****     return t;
 161              		.loc 1 715 25 is_stmt 1 view .LVU39
 716:Drivers/lvgl/src/draw/lv_draw.c **** }
 162              		.loc 1 716 5 view .LVU40
 716:Drivers/lvgl/src/draw/lv_draw.c **** }
 163              		.loc 1 716 12 is_stmt 0 view .LVU41
 164 000e FCE7     		b	.L17
 165              		.cfi_endproc
 166              	.LFE220:
 168              		.section	.text.cleanup_task,"ax",%progbits
 169              		.align	1
 170              		.syntax unified
 171              		.thumb
 172              		.thumb_func
 174              	cleanup_task:
 175              	.LVL8:
 176              	.LFB219:
 638:Drivers/lvgl/src/draw/lv_draw.c ****     LV_PROFILER_DRAW_BEGIN;
 177              		.loc 1 638 1 is_stmt 1 view -0
 178              		.cfi_startproc
 179              		@ args = 0, pretend = 0, frame = 0
 180              		@ frame_needed = 0, uses_anonymous_args = 0
 638:Drivers/lvgl/src/draw/lv_draw.c ****     LV_PROFILER_DRAW_BEGIN;
 181              		.loc 1 638 1 is_stmt 0 view .LVU43
 182 0000 70B5     		push	{r4, r5, r6, lr}
 183              	.LCFI0:
 184              		.cfi_def_cfa_offset 16
 185              		.cfi_offset 4, -16
 186              		.cfi_offset 5, -12
 187              		.cfi_offset 6, -8
 188              		.cfi_offset 14, -4
 189 0002 0446     		mov	r4, r0
 639:Drivers/lvgl/src/draw/lv_draw.c ****     /*If it was layer drawing free the layer too*/
 190              		.loc 1 639 27 is_stmt 1 view .LVU44
 641:Drivers/lvgl/src/draw/lv_draw.c ****         lv_draw_image_dsc_t * draw_image_dsc = t->draw_dsc;
 191              		.loc 1 641 5 view .LVU45
ARM GAS  /var/folders/qx/2_175_4n2s19vhvtspjhb3qh0000gn/T//ccRXOHgw.s 			page 17


 641:Drivers/lvgl/src/draw/lv_draw.c ****         lv_draw_image_dsc_t * draw_image_dsc = t->draw_dsc;
 192              		.loc 1 641 9 is_stmt 0 view .LVU46
 193 0004 0379     		ldrb	r3, [r0, #4]	@ zero_extendqisi2
 641:Drivers/lvgl/src/draw/lv_draw.c ****         lv_draw_image_dsc_t * draw_image_dsc = t->draw_dsc;
 194              		.loc 1 641 7 view .LVU47
 195 0006 072B     		cmp	r3, #7
 196 0008 0DD0     		beq	.L33
 197              	.LVL9:
 198              	.L22:
 680:Drivers/lvgl/src/draw/lv_draw.c ****     if(draw_label_dsc && draw_label_dsc->text_local) {
 199              		.loc 1 680 5 is_stmt 1 view .LVU48
 680:Drivers/lvgl/src/draw/lv_draw.c ****     if(draw_label_dsc && draw_label_dsc->text_local) {
 200              		.loc 1 680 44 is_stmt 0 view .LVU49
 201 000a 2046     		mov	r0, r4
 202 000c FFF7FEFF 		bl	lv_draw_task_get_label_dsc
 203              	.LVL10:
 681:Drivers/lvgl/src/draw/lv_draw.c ****         lv_free((void *)draw_label_dsc->text);
 204              		.loc 1 681 5 is_stmt 1 view .LVU50
 681:Drivers/lvgl/src/draw/lv_draw.c ****         lv_free((void *)draw_label_dsc->text);
 205              		.loc 1 681 7 is_stmt 0 view .LVU51
 206 0010 0546     		mov	r5, r0
 207 0012 20B1     		cbz	r0, .L30
 681:Drivers/lvgl/src/draw/lv_draw.c ****         lv_free((void *)draw_label_dsc->text);
 208              		.loc 1 681 23 discriminator 1 view .LVU52
 209 0014 90F85D30 		ldrb	r3, [r0, #93]	@ zero_extendqisi2
 210 0018 13F0010F 		tst	r3, #1
 211 001c 39D1     		bne	.L34
 212              	.LVL11:
 213              	.L30:
 686:Drivers/lvgl/src/draw/lv_draw.c ****     LV_PROFILER_DRAW_END;
 214              		.loc 1 686 5 is_stmt 1 view .LVU53
 215 001e 2046     		mov	r0, r4
 216 0020 FFF7FEFF 		bl	lv_free
 217              	.LVL12:
 687:Drivers/lvgl/src/draw/lv_draw.c **** }
 218              		.loc 1 687 25 view .LVU54
 688:Drivers/lvgl/src/draw/lv_draw.c **** 
 219              		.loc 1 688 1 is_stmt 0 view .LVU55
 220 0024 70BD     		pop	{r4, r5, r6, pc}
 221              	.LVL13:
 222              	.L33:
 688:Drivers/lvgl/src/draw/lv_draw.c **** 
 223              		.loc 1 688 1 view .LVU56
 224 0026 0E46     		mov	r6, r1
 225              	.LBB4:
 642:Drivers/lvgl/src/draw/lv_draw.c ****         lv_layer_t * layer_drawn = (lv_layer_t *)draw_image_dsc->src;
 226              		.loc 1 642 9 is_stmt 1 view .LVU57
 642:Drivers/lvgl/src/draw/lv_draw.c ****         lv_layer_t * layer_drawn = (lv_layer_t *)draw_image_dsc->src;
 227              		.loc 1 642 31 is_stmt 0 view .LVU58
 228 0028 436D     		ldr	r3, [r0, #84]
 229              	.LVL14:
 643:Drivers/lvgl/src/draw/lv_draw.c **** 
 230              		.loc 1 643 9 is_stmt 1 view .LVU59
 643:Drivers/lvgl/src/draw/lv_draw.c **** 
 231              		.loc 1 643 22 is_stmt 0 view .LVU60
 232 002a DD69     		ldr	r5, [r3, #28]
 233              	.LVL15:
ARM GAS  /var/folders/qx/2_175_4n2s19vhvtspjhb3qh0000gn/T//ccRXOHgw.s 			page 18


 645:Drivers/lvgl/src/draw/lv_draw.c ****             int32_t h = lv_area_get_height(&layer_drawn->buf_area);
 234              		.loc 1 645 9 is_stmt 1 view .LVU61
 645:Drivers/lvgl/src/draw/lv_draw.c ****             int32_t h = lv_area_get_height(&layer_drawn->buf_area);
 235              		.loc 1 645 23 is_stmt 0 view .LVU62
 236 002c 2B68     		ldr	r3, [r5]
 237              	.LVL16:
 645:Drivers/lvgl/src/draw/lv_draw.c ****             int32_t h = lv_area_get_height(&layer_drawn->buf_area);
 238              		.loc 1 645 11 view .LVU63
 239 002e ABB1     		cbz	r3, .L23
 240              	.LBB5:
 646:Drivers/lvgl/src/draw/lv_draw.c ****             uint32_t layer_size_byte = h * layer_drawn->draw_buf->header.stride;
 241              		.loc 1 646 13 is_stmt 1 view .LVU64
 646:Drivers/lvgl/src/draw/lv_draw.c ****             uint32_t layer_size_byte = h * layer_drawn->draw_buf->header.stride;
 242              		.loc 1 646 25 is_stmt 0 view .LVU65
 243 0030 05F11400 		add	r0, r5, #20
 244              	.LVL17:
 646:Drivers/lvgl/src/draw/lv_draw.c ****             uint32_t layer_size_byte = h * layer_drawn->draw_buf->header.stride;
 245              		.loc 1 646 25 view .LVU66
 246 0034 FFF7FEFF 		bl	lv_area_get_height
 247              	.LVL18:
 647:Drivers/lvgl/src/draw/lv_draw.c **** 
 248              		.loc 1 647 13 is_stmt 1 view .LVU67
 647:Drivers/lvgl/src/draw/lv_draw.c **** 
 249              		.loc 1 647 55 is_stmt 0 view .LVU68
 250 0038 2B68     		ldr	r3, [r5]
 647:Drivers/lvgl/src/draw/lv_draw.c **** 
 251              		.loc 1 647 73 view .LVU69
 252 003a 1B89     		ldrh	r3, [r3, #8]
 647:Drivers/lvgl/src/draw/lv_draw.c **** 
 253              		.loc 1 647 42 view .LVU70
 254 003c 03FB00F0 		mul	r0, r3, r0
 255              	.LVL19:
 649:Drivers/lvgl/src/draw/lv_draw.c ****                 _draw_info.used_memory_for_layers -= layer_size_byte;
 256              		.loc 1 649 13 is_stmt 1 view .LVU71
 649:Drivers/lvgl/src/draw/lv_draw.c ****                 _draw_info.used_memory_for_layers -= layer_size_byte;
 257              		.loc 1 649 26 is_stmt 0 view .LVU72
 258 0040 174B     		ldr	r3, .L36
 259 0042 D3F83C31 		ldr	r3, [r3, #316]
 649:Drivers/lvgl/src/draw/lv_draw.c ****                 _draw_info.used_memory_for_layers -= layer_size_byte;
 260              		.loc 1 649 15 view .LVU73
 261 0046 8342     		cmp	r3, r0
 262 0048 12D3     		bcc	.L24
 650:Drivers/lvgl/src/draw/lv_draw.c ****             }
 263              		.loc 1 650 17 is_stmt 1 view .LVU74
 650:Drivers/lvgl/src/draw/lv_draw.c ****             }
 264              		.loc 1 650 51 is_stmt 0 view .LVU75
 265 004a 1B1A     		subs	r3, r3, r0
 266 004c 144A     		ldr	r2, .L36
 267 004e C2F83C31 		str	r3, [r2, #316]
 268              	.L25:
 654:Drivers/lvgl/src/draw/lv_draw.c ****             }
 269              		.loc 1 654 17 is_stmt 1 view .LVU76
 654:Drivers/lvgl/src/draw/lv_draw.c ****             }
 270              		.loc 1 654 17 view .LVU77
 654:Drivers/lvgl/src/draw/lv_draw.c ****             }
 271              		.loc 1 654 17 view .LVU78
 656:Drivers/lvgl/src/draw/lv_draw.c ****             lv_draw_buf_destroy(layer_drawn->draw_buf);
ARM GAS  /var/folders/qx/2_175_4n2s19vhvtspjhb3qh0000gn/T//ccRXOHgw.s 			page 19


 272              		.loc 1 656 13 view .LVU79
 656:Drivers/lvgl/src/draw/lv_draw.c ****             lv_draw_buf_destroy(layer_drawn->draw_buf);
 273              		.loc 1 656 13 view .LVU80
 656:Drivers/lvgl/src/draw/lv_draw.c ****             lv_draw_buf_destroy(layer_drawn->draw_buf);
 274              		.loc 1 656 13 view .LVU81
 657:Drivers/lvgl/src/draw/lv_draw.c ****             layer_drawn->draw_buf = NULL;
 275              		.loc 1 657 13 view .LVU82
 276 0052 2868     		ldr	r0, [r5]
 277              	.LVL20:
 657:Drivers/lvgl/src/draw/lv_draw.c ****             layer_drawn->draw_buf = NULL;
 278              		.loc 1 657 13 is_stmt 0 view .LVU83
 279 0054 FFF7FEFF 		bl	lv_draw_buf_destroy
 280              	.LVL21:
 658:Drivers/lvgl/src/draw/lv_draw.c ****         }
 281              		.loc 1 658 13 is_stmt 1 view .LVU84
 658:Drivers/lvgl/src/draw/lv_draw.c ****         }
 282              		.loc 1 658 35 is_stmt 0 view .LVU85
 283 0058 0023     		movs	r3, #0
 284 005a 2B60     		str	r3, [r5]
 285              	.LVL22:
 286              	.L23:
 658:Drivers/lvgl/src/draw/lv_draw.c ****         }
 287              		.loc 1 658 35 view .LVU86
 288              	.LBE5:
 662:Drivers/lvgl/src/draw/lv_draw.c ****             lv_layer_t * l2 = disp->layer_head;
 289              		.loc 1 662 9 is_stmt 1 view .LVU87
 662:Drivers/lvgl/src/draw/lv_draw.c ****             lv_layer_t * l2 = disp->layer_head;
 290              		.loc 1 662 11 is_stmt 0 view .LVU88
 291 005c 002E     		cmp	r6, #0
 292 005e D4D0     		beq	.L22
 293              	.LBB6:
 663:Drivers/lvgl/src/draw/lv_draw.c ****             while(l2) {
 294              		.loc 1 663 13 is_stmt 1 view .LVU89
 663:Drivers/lvgl/src/draw/lv_draw.c ****             while(l2) {
 295              		.loc 1 663 26 is_stmt 0 view .LVU90
 296 0060 D6F8B032 		ldr	r3, [r6, #688]
 297              	.LVL23:
 664:Drivers/lvgl/src/draw/lv_draw.c ****                 if(l2->next == layer_drawn) {
 298              		.loc 1 664 13 is_stmt 1 view .LVU91
 299              	.L26:
 664:Drivers/lvgl/src/draw/lv_draw.c ****                 if(l2->next == layer_drawn) {
 300              		.loc 1 664 19 view .LVU92
 301 0064 5BB1     		cbz	r3, .L27
 665:Drivers/lvgl/src/draw/lv_draw.c ****                     l2->next = layer_drawn->next;
 302              		.loc 1 665 17 view .LVU93
 665:Drivers/lvgl/src/draw/lv_draw.c ****                     l2->next = layer_drawn->next;
 303              		.loc 1 665 22 is_stmt 0 view .LVU94
 304 0066 DA68     		ldr	r2, [r3, #12]
 665:Drivers/lvgl/src/draw/lv_draw.c ****                     l2->next = layer_drawn->next;
 305              		.loc 1 665 19 view .LVU95
 306 0068 AA42     		cmp	r2, r5
 307 006a 06D0     		beq	.L35
 669:Drivers/lvgl/src/draw/lv_draw.c ****             }
 308              		.loc 1 669 20 view .LVU96
 309 006c 1346     		mov	r3, r2
 310              	.LVL24:
 669:Drivers/lvgl/src/draw/lv_draw.c ****             }
ARM GAS  /var/folders/qx/2_175_4n2s19vhvtspjhb3qh0000gn/T//ccRXOHgw.s 			page 20


 311              		.loc 1 669 20 view .LVU97
 312 006e F9E7     		b	.L26
 313              	.LVL25:
 314              	.L24:
 669:Drivers/lvgl/src/draw/lv_draw.c ****             }
 315              		.loc 1 669 20 view .LVU98
 316              	.LBE6:
 317              	.LBB7:
 653:Drivers/lvgl/src/draw/lv_draw.c ****                 LV_LOG_WARN("More layers were freed than allocated");
 318              		.loc 1 653 17 is_stmt 1 view .LVU99
 653:Drivers/lvgl/src/draw/lv_draw.c ****                 LV_LOG_WARN("More layers were freed than allocated");
 319              		.loc 1 653 51 is_stmt 0 view .LVU100
 320 0070 0B4B     		ldr	r3, .L36
 321 0072 0022     		movs	r2, #0
 322 0074 C3F83C21 		str	r2, [r3, #316]
 323 0078 EBE7     		b	.L25
 324              	.LVL26:
 325              	.L35:
 653:Drivers/lvgl/src/draw/lv_draw.c ****                 LV_LOG_WARN("More layers were freed than allocated");
 326              		.loc 1 653 51 view .LVU101
 327              	.LBE7:
 328              	.LBB8:
 666:Drivers/lvgl/src/draw/lv_draw.c ****                     break;
 329              		.loc 1 666 21 is_stmt 1 view .LVU102
 666:Drivers/lvgl/src/draw/lv_draw.c ****                     break;
 330              		.loc 1 666 43 is_stmt 0 view .LVU103
 331 007a EA68     		ldr	r2, [r5, #12]
 666:Drivers/lvgl/src/draw/lv_draw.c ****                     break;
 332              		.loc 1 666 30 view .LVU104
 333 007c DA60     		str	r2, [r3, #12]
 667:Drivers/lvgl/src/draw/lv_draw.c ****                 }
 334              		.loc 1 667 21 is_stmt 1 view .LVU105
 335              	.L27:
 672:Drivers/lvgl/src/draw/lv_draw.c ****                 LV_PROFILER_DRAW_BEGIN_TAG("layer_deinit");
 336              		.loc 1 672 13 view .LVU106
 672:Drivers/lvgl/src/draw/lv_draw.c ****                 LV_PROFILER_DRAW_BEGIN_TAG("layer_deinit");
 337              		.loc 1 672 20 is_stmt 0 view .LVU107
 338 007e D6F8B832 		ldr	r3, [r6, #696]
 339              	.LVL27:
 672:Drivers/lvgl/src/draw/lv_draw.c ****                 LV_PROFILER_DRAW_BEGIN_TAG("layer_deinit");
 340              		.loc 1 672 15 view .LVU108
 341 0082 13B1     		cbz	r3, .L29
 673:Drivers/lvgl/src/draw/lv_draw.c ****                 disp->layer_deinit(disp, layer_drawn);
 342              		.loc 1 673 59 is_stmt 1 view .LVU109
 674:Drivers/lvgl/src/draw/lv_draw.c ****                 LV_PROFILER_DRAW_END_TAG("layer_deinit");
 343              		.loc 1 674 17 view .LVU110
 344 0084 2946     		mov	r1, r5
 345 0086 3046     		mov	r0, r6
 346 0088 9847     		blx	r3
 347              	.LVL28:
 348              	.L29:
 675:Drivers/lvgl/src/draw/lv_draw.c ****             }
 349              		.loc 1 675 57 view .LVU111
 677:Drivers/lvgl/src/draw/lv_draw.c ****         }
 350              		.loc 1 677 13 view .LVU112
 351 008a 2846     		mov	r0, r5
 352 008c FFF7FEFF 		bl	lv_free
ARM GAS  /var/folders/qx/2_175_4n2s19vhvtspjhb3qh0000gn/T//ccRXOHgw.s 			page 21


 353              	.LVL29:
 354 0090 BBE7     		b	.L22
 355              	.LVL30:
 356              	.L34:
 677:Drivers/lvgl/src/draw/lv_draw.c ****         }
 357              		.loc 1 677 13 is_stmt 0 view .LVU113
 358              	.LBE8:
 359              	.LBE4:
 682:Drivers/lvgl/src/draw/lv_draw.c ****         draw_label_dsc->text = NULL;
 360              		.loc 1 682 9 is_stmt 1 view .LVU114
 361 0092 C069     		ldr	r0, [r0, #28]
 362              	.LVL31:
 682:Drivers/lvgl/src/draw/lv_draw.c ****         draw_label_dsc->text = NULL;
 363              		.loc 1 682 9 is_stmt 0 view .LVU115
 364 0094 FFF7FEFF 		bl	lv_free
 365              	.LVL32:
 683:Drivers/lvgl/src/draw/lv_draw.c ****     }
 366              		.loc 1 683 9 is_stmt 1 view .LVU116
 683:Drivers/lvgl/src/draw/lv_draw.c ****     }
 367              		.loc 1 683 30 is_stmt 0 view .LVU117
 368 0098 0023     		movs	r3, #0
 369 009a EB61     		str	r3, [r5, #28]
 370 009c BFE7     		b	.L30
 371              	.L37:
 372 009e 00BF     		.align	2
 373              	.L36:
 374 00a0 00000000 		.word	lv_global
 375              		.cfi_endproc
 376              	.LFE219:
 378              		.section	.text.is_independent,"ax",%progbits
 379              		.align	1
 380              		.syntax unified
 381              		.thumb
 382              		.thumb_func
 384              	is_independent:
 385              	.LVL33:
 386              	.LFB217:
 552:Drivers/lvgl/src/draw/lv_draw.c ****     LV_PROFILER_DRAW_BEGIN;
 387              		.loc 1 552 1 is_stmt 1 view -0
 388              		.cfi_startproc
 389              		@ args = 0, pretend = 0, frame = 16
 390              		@ frame_needed = 0, uses_anonymous_args = 0
 552:Drivers/lvgl/src/draw/lv_draw.c ****     LV_PROFILER_DRAW_BEGIN;
 391              		.loc 1 552 1 is_stmt 0 view .LVU119
 392 0000 70B5     		push	{r4, r5, r6, lr}
 393              	.LCFI1:
 394              		.cfi_def_cfa_offset 16
 395              		.cfi_offset 4, -16
 396              		.cfi_offset 5, -12
 397              		.cfi_offset 6, -8
 398              		.cfi_offset 14, -4
 399 0002 84B0     		sub	sp, sp, #16
 400              	.LCFI2:
 401              		.cfi_def_cfa_offset 32
 402 0004 0D46     		mov	r5, r1
 403 0006 1646     		mov	r6, r2
 553:Drivers/lvgl/src/draw/lv_draw.c ****     lv_draw_task_t * t = layer->draw_task_head;
ARM GAS  /var/folders/qx/2_175_4n2s19vhvtspjhb3qh0000gn/T//ccRXOHgw.s 			page 22


 404              		.loc 1 553 27 is_stmt 1 view .LVU120
 554:Drivers/lvgl/src/draw/lv_draw.c **** 
 405              		.loc 1 554 5 view .LVU121
 554:Drivers/lvgl/src/draw/lv_draw.c **** 
 406              		.loc 1 554 22 is_stmt 0 view .LVU122
 407 0008 4468     		ldr	r4, [r0, #4]
 408              	.LVL34:
 557:Drivers/lvgl/src/draw/lv_draw.c ****         /*It's independent of finished draw tasks, and queued draw tasks of the same draw unit,
 409              		.loc 1 557 5 is_stmt 1 view .LVU123
 557:Drivers/lvgl/src/draw/lv_draw.c ****         /*It's independent of finished draw tasks, and queued draw tasks of the same draw unit,
 410              		.loc 1 557 10 is_stmt 0 view .LVU124
 411 000a 08E0     		b	.L39
 412              	.LVL35:
 413              	.L41:
 414              	.LBB9:
 566:Drivers/lvgl/src/draw/lv_draw.c ****         if(lv_area_intersect(&a, &t->_real_area, &t_check->_real_area)) {
 415              		.loc 1 566 9 is_stmt 1 view .LVU125
 567:Drivers/lvgl/src/draw/lv_draw.c ****             LV_PROFILER_DRAW_END;
 416              		.loc 1 567 9 view .LVU126
 567:Drivers/lvgl/src/draw/lv_draw.c ****             LV_PROFILER_DRAW_END;
 417              		.loc 1 567 12 is_stmt 0 view .LVU127
 418 000c 05F11802 		add	r2, r5, #24
 419 0010 04F11801 		add	r1, r4, #24
 420 0014 6846     		mov	r0, sp
 421 0016 FFF7FEFF 		bl	lv_area_intersect
 422              	.LVL36:
 567:Drivers/lvgl/src/draw/lv_draw.c ****             LV_PROFILER_DRAW_END;
 423              		.loc 1 567 11 discriminator 1 view .LVU128
 424 001a 78B9     		cbnz	r0, .L48
 571:Drivers/lvgl/src/draw/lv_draw.c ****     }
 425              		.loc 1 571 9 is_stmt 1 view .LVU129
 571:Drivers/lvgl/src/draw/lv_draw.c ****     }
 426              		.loc 1 571 11 is_stmt 0 view .LVU130
 427 001c 2468     		ldr	r4, [r4]
 428              	.LVL37:
 429              	.L39:
 571:Drivers/lvgl/src/draw/lv_draw.c ****     }
 430              		.loc 1 571 11 view .LVU131
 431              	.LBE9:
 557:Drivers/lvgl/src/draw/lv_draw.c ****         /*It's independent of finished draw tasks, and queued draw tasks of the same draw unit,
 432              		.loc 1 557 13 is_stmt 1 view .LVU132
 433 001e 8CB1     		cbz	r4, .L46
 557:Drivers/lvgl/src/draw/lv_draw.c ****         /*It's independent of finished draw tasks, and queued draw tasks of the same draw unit,
 434              		.loc 1 557 13 is_stmt 0 discriminator 1 view .LVU133
 435 0020 AC42     		cmp	r4, r5
 436 0022 0DD0     		beq	.L49
 437              	.LBB10:
 560:Drivers/lvgl/src/draw/lv_draw.c ****            (t->state == LV_DRAW_TASK_STATE_QUEUED && t->preferred_draw_unit_id == draw_unit_id)) {
 438              		.loc 1 560 9 is_stmt 1 view .LVU134
 560:Drivers/lvgl/src/draw/lv_draw.c ****            (t->state == LV_DRAW_TASK_STATE_QUEUED && t->preferred_draw_unit_id == draw_unit_id)) {
 439              		.loc 1 560 13 is_stmt 0 view .LVU135
 440 0024 236D     		ldr	r3, [r4, #80]
 560:Drivers/lvgl/src/draw/lv_draw.c ****            (t->state == LV_DRAW_TASK_STATE_QUEUED && t->preferred_draw_unit_id == draw_unit_id)) {
 441              		.loc 1 560 11 view .LVU136
 442 0026 042B     		cmp	r3, #4
 443 0028 06D0     		beq	.L40
 561:Drivers/lvgl/src/draw/lv_draw.c ****             t = t->next;
ARM GAS  /var/folders/qx/2_175_4n2s19vhvtspjhb3qh0000gn/T//ccRXOHgw.s 			page 23


 444              		.loc 1 561 14 view .LVU137
 445 002a 236D     		ldr	r3, [r4, #80]
 560:Drivers/lvgl/src/draw/lv_draw.c ****            (t->state == LV_DRAW_TASK_STATE_QUEUED && t->preferred_draw_unit_id == draw_unit_id)) {
 446              		.loc 1 560 52 discriminator 2 view .LVU138
 447 002c 022B     		cmp	r3, #2
 448 002e EDD1     		bne	.L41
 561:Drivers/lvgl/src/draw/lv_draw.c ****             t = t->next;
 449              		.loc 1 561 55 view .LVU139
 450 0030 94F85930 		ldrb	r3, [r4, #89]	@ zero_extendqisi2
 561:Drivers/lvgl/src/draw/lv_draw.c ****             t = t->next;
 451              		.loc 1 561 51 view .LVU140
 452 0034 B342     		cmp	r3, r6
 453 0036 E9D1     		bne	.L41
 454              	.L40:
 562:Drivers/lvgl/src/draw/lv_draw.c ****             continue;
 455              		.loc 1 562 13 is_stmt 1 view .LVU141
 562:Drivers/lvgl/src/draw/lv_draw.c ****             continue;
 456              		.loc 1 562 15 is_stmt 0 view .LVU142
 457 0038 2468     		ldr	r4, [r4]
 458              	.LVL38:
 563:Drivers/lvgl/src/draw/lv_draw.c ****         }
 459              		.loc 1 563 13 is_stmt 1 view .LVU143
 460 003a F0E7     		b	.L39
 461              	.L48:
 568:Drivers/lvgl/src/draw/lv_draw.c ****             return false;
 462              		.loc 1 568 33 view .LVU144
 569:Drivers/lvgl/src/draw/lv_draw.c ****         }
 463              		.loc 1 569 13 view .LVU145
 569:Drivers/lvgl/src/draw/lv_draw.c ****         }
 464              		.loc 1 569 20 is_stmt 0 view .LVU146
 465 003c 0020     		movs	r0, #0
 466 003e 02E0     		b	.L44
 467              	.L49:
 569:Drivers/lvgl/src/draw/lv_draw.c ****         }
 468              		.loc 1 569 20 view .LVU147
 469              	.LBE10:
 575:Drivers/lvgl/src/draw/lv_draw.c **** }
 470              		.loc 1 575 12 view .LVU148
 471 0040 0120     		movs	r0, #1
 472 0042 00E0     		b	.L44
 473              	.L46:
 575:Drivers/lvgl/src/draw/lv_draw.c **** }
 474              		.loc 1 575 12 view .LVU149
 475 0044 0120     		movs	r0, #1
 476              	.L44:
 576:Drivers/lvgl/src/draw/lv_draw.c **** 
 477              		.loc 1 576 1 view .LVU150
 478 0046 04B0     		add	sp, sp, #16
 479              	.LCFI3:
 480              		.cfi_def_cfa_offset 16
 481              		@ sp needed
 482 0048 70BD     		pop	{r4, r5, r6, pc}
 576:Drivers/lvgl/src/draw/lv_draw.c **** 
 483              		.loc 1 576 1 view .LVU151
 484              		.cfi_endproc
 485              	.LFE217:
 487              		.section	.text.lv_draw_init,"ax",%progbits
ARM GAS  /var/folders/qx/2_175_4n2s19vhvtspjhb3qh0000gn/T//ccRXOHgw.s 			page 24


 488              		.align	1
 489              		.global	lv_draw_init
 490              		.syntax unified
 491              		.thumb
 492              		.thumb_func
 494              	lv_draw_init:
 495              	.LFB193:
  63:Drivers/lvgl/src/draw/lv_draw.c **** #if LV_USE_OS
 496              		.loc 1 63 1 is_stmt 1 view -0
 497              		.cfi_startproc
 498              		@ args = 0, pretend = 0, frame = 0
 499              		@ frame_needed = 0, uses_anonymous_args = 0
 500              		@ link register save eliminated.
  67:Drivers/lvgl/src/draw/lv_draw.c **** 
 501              		.loc 1 67 1 view .LVU153
 502 0000 7047     		bx	lr
 503              		.cfi_endproc
 504              	.LFE193:
 506              		.section	.text.lv_draw_deinit,"ax",%progbits
 507              		.align	1
 508              		.global	lv_draw_deinit
 509              		.syntax unified
 510              		.thumb
 511              		.thumb_func
 513              	lv_draw_deinit:
 514              	.LFB194:
  70:Drivers/lvgl/src/draw/lv_draw.c **** #if LV_USE_OS
 515              		.loc 1 70 1 view -0
 516              		.cfi_startproc
 517              		@ args = 0, pretend = 0, frame = 0
 518              		@ frame_needed = 0, uses_anonymous_args = 0
 519 0000 38B5     		push	{r3, r4, r5, lr}
 520              	.LCFI4:
 521              		.cfi_def_cfa_offset 16
 522              		.cfi_offset 3, -16
 523              		.cfi_offset 4, -12
 524              		.cfi_offset 5, -8
 525              		.cfi_offset 14, -4
  75:Drivers/lvgl/src/draw/lv_draw.c ****     while(u) {
 526              		.loc 1 75 5 view .LVU155
  75:Drivers/lvgl/src/draw/lv_draw.c ****     while(u) {
 527              		.loc 1 75 22 is_stmt 0 view .LVU156
 528 0002 0A4B     		ldr	r3, .L57
 529 0004 D3F83441 		ldr	r4, [r3, #308]
 530              	.LVL39:
  76:Drivers/lvgl/src/draw/lv_draw.c ****         lv_draw_unit_t * cur_unit = u;
 531              		.loc 1 76 5 is_stmt 1 view .LVU157
  76:Drivers/lvgl/src/draw/lv_draw.c ****         lv_draw_unit_t * cur_unit = u;
 532              		.loc 1 76 10 is_stmt 0 view .LVU158
 533 0008 03E0     		b	.L52
 534              	.LVL40:
 535              	.L53:
 536              	.LBB11:
  81:Drivers/lvgl/src/draw/lv_draw.c ****     }
 537              		.loc 1 81 9 is_stmt 1 view .LVU159
 538 000a 2046     		mov	r0, r4
 539 000c FFF7FEFF 		bl	lv_free
ARM GAS  /var/folders/qx/2_175_4n2s19vhvtspjhb3qh0000gn/T//ccRXOHgw.s 			page 25


 540              	.LVL41:
  78:Drivers/lvgl/src/draw/lv_draw.c **** 
 541              		.loc 1 78 11 is_stmt 0 view .LVU160
 542 0010 2C46     		mov	r4, r5
 543              	.LVL42:
 544              	.L52:
  78:Drivers/lvgl/src/draw/lv_draw.c **** 
 545              		.loc 1 78 11 view .LVU161
 546              	.LBE11:
  76:Drivers/lvgl/src/draw/lv_draw.c ****         lv_draw_unit_t * cur_unit = u;
 547              		.loc 1 76 11 is_stmt 1 view .LVU162
 548 0012 34B1     		cbz	r4, .L56
 549              	.LBB12:
  77:Drivers/lvgl/src/draw/lv_draw.c ****         u = u->next;
 550              		.loc 1 77 9 view .LVU163
 551              	.LVL43:
  78:Drivers/lvgl/src/draw/lv_draw.c **** 
 552              		.loc 1 78 9 view .LVU164
  78:Drivers/lvgl/src/draw/lv_draw.c **** 
 553              		.loc 1 78 11 is_stmt 0 view .LVU165
 554 0014 2568     		ldr	r5, [r4]
 555              	.LVL44:
  80:Drivers/lvgl/src/draw/lv_draw.c ****         lv_free(cur_unit);
 556              		.loc 1 80 9 is_stmt 1 view .LVU166
  80:Drivers/lvgl/src/draw/lv_draw.c ****         lv_free(cur_unit);
 557              		.loc 1 80 20 is_stmt 0 view .LVU167
 558 0016 A369     		ldr	r3, [r4, #24]
  80:Drivers/lvgl/src/draw/lv_draw.c ****         lv_free(cur_unit);
 559              		.loc 1 80 11 view .LVU168
 560 0018 002B     		cmp	r3, #0
 561 001a F6D0     		beq	.L53
  80:Drivers/lvgl/src/draw/lv_draw.c ****         lv_free(cur_unit);
 562              		.loc 1 80 33 is_stmt 1 discriminator 1 view .LVU169
 563 001c 2046     		mov	r0, r4
 564 001e 9847     		blx	r3
 565              	.LVL45:
 566 0020 F3E7     		b	.L53
 567              	.LVL46:
 568              	.L56:
  80:Drivers/lvgl/src/draw/lv_draw.c ****         lv_free(cur_unit);
 569              		.loc 1 80 33 is_stmt 0 discriminator 1 view .LVU170
 570              	.LBE12:
  83:Drivers/lvgl/src/draw/lv_draw.c **** }
 571              		.loc 1 83 5 is_stmt 1 view .LVU171
  83:Drivers/lvgl/src/draw/lv_draw.c **** }
 572              		.loc 1 83 26 is_stmt 0 view .LVU172
 573 0022 024B     		ldr	r3, .L57
 574 0024 0022     		movs	r2, #0
 575 0026 C3F83421 		str	r2, [r3, #308]
  84:Drivers/lvgl/src/draw/lv_draw.c **** 
 576              		.loc 1 84 1 view .LVU173
 577 002a 38BD     		pop	{r3, r4, r5, pc}
 578              	.LVL47:
 579              	.L58:
  84:Drivers/lvgl/src/draw/lv_draw.c **** 
 580              		.loc 1 84 1 view .LVU174
 581              		.align	2
ARM GAS  /var/folders/qx/2_175_4n2s19vhvtspjhb3qh0000gn/T//ccRXOHgw.s 			page 26


 582              	.L57:
 583 002c 00000000 		.word	lv_global
 584              		.cfi_endproc
 585              	.LFE194:
 587              		.section	.text.lv_draw_create_unit,"ax",%progbits
 588              		.align	1
 589              		.global	lv_draw_create_unit
 590              		.syntax unified
 591              		.thumb
 592              		.thumb_func
 594              	lv_draw_create_unit:
 595              	.LVL48:
 596              	.LFB195:
  87:Drivers/lvgl/src/draw/lv_draw.c ****     lv_draw_unit_t * new_unit = lv_malloc_zeroed(size);
 597              		.loc 1 87 1 is_stmt 1 view -0
 598              		.cfi_startproc
 599              		@ args = 0, pretend = 0, frame = 0
 600              		@ frame_needed = 0, uses_anonymous_args = 0
  87:Drivers/lvgl/src/draw/lv_draw.c ****     lv_draw_unit_t * new_unit = lv_malloc_zeroed(size);
 601              		.loc 1 87 1 is_stmt 0 view .LVU176
 602 0000 08B5     		push	{r3, lr}
 603              	.LCFI5:
 604              		.cfi_def_cfa_offset 8
 605              		.cfi_offset 3, -8
 606              		.cfi_offset 14, -4
  88:Drivers/lvgl/src/draw/lv_draw.c ****     LV_ASSERT_MALLOC(new_unit);
 607              		.loc 1 88 5 is_stmt 1 view .LVU177
  88:Drivers/lvgl/src/draw/lv_draw.c ****     LV_ASSERT_MALLOC(new_unit);
 608              		.loc 1 88 33 is_stmt 0 view .LVU178
 609 0002 FFF7FEFF 		bl	lv_malloc_zeroed
 610              	.LVL49:
  89:Drivers/lvgl/src/draw/lv_draw.c ****     new_unit->next = _draw_info.unit_head;
 611              		.loc 1 89 5 is_stmt 1 view .LVU179
  89:Drivers/lvgl/src/draw/lv_draw.c ****     new_unit->next = _draw_info.unit_head;
 612              		.loc 1 89 5 view .LVU180
 613 0006 60B1     		cbz	r0, .L61
  89:Drivers/lvgl/src/draw/lv_draw.c ****     new_unit->next = _draw_info.unit_head;
 614              		.loc 1 89 5 view .LVU181
  89:Drivers/lvgl/src/draw/lv_draw.c ****     new_unit->next = _draw_info.unit_head;
 615              		.loc 1 89 31 view .LVU182
  90:Drivers/lvgl/src/draw/lv_draw.c **** 
 616              		.loc 1 90 5 view .LVU183
  90:Drivers/lvgl/src/draw/lv_draw.c **** 
 617              		.loc 1 90 32 is_stmt 0 view .LVU184
 618 0008 0649     		ldr	r1, .L63
 619 000a D1F83421 		ldr	r2, [r1, #308]
  90:Drivers/lvgl/src/draw/lv_draw.c **** 
 620              		.loc 1 90 20 view .LVU185
 621 000e 0260     		str	r2, [r0]
  92:Drivers/lvgl/src/draw/lv_draw.c ****     _draw_info.unit_cnt++;
 622              		.loc 1 92 5 is_stmt 1 view .LVU186
  92:Drivers/lvgl/src/draw/lv_draw.c ****     _draw_info.unit_cnt++;
 623              		.loc 1 92 26 is_stmt 0 view .LVU187
 624 0010 C1F83401 		str	r0, [r1, #308]
  93:Drivers/lvgl/src/draw/lv_draw.c **** 
 625              		.loc 1 93 5 is_stmt 1 view .LVU188
  93:Drivers/lvgl/src/draw/lv_draw.c **** 
ARM GAS  /var/folders/qx/2_175_4n2s19vhvtspjhb3qh0000gn/T//ccRXOHgw.s 			page 27


 626              		.loc 1 93 15 is_stmt 0 view .LVU189
 627 0014 D1F83821 		ldr	r2, [r1, #312]
  93:Drivers/lvgl/src/draw/lv_draw.c **** 
 628              		.loc 1 93 24 view .LVU190
 629 0018 0132     		adds	r2, r2, #1
 630 001a C1F83821 		str	r2, [r1, #312]
  95:Drivers/lvgl/src/draw/lv_draw.c **** 
 631              		.loc 1 95 5 is_stmt 1 view .LVU191
  95:Drivers/lvgl/src/draw/lv_draw.c **** 
 632              		.loc 1 95 19 is_stmt 0 view .LVU192
 633 001e 8260     		str	r2, [r0, #8]
  97:Drivers/lvgl/src/draw/lv_draw.c **** }
 634              		.loc 1 97 5 is_stmt 1 view .LVU193
  98:Drivers/lvgl/src/draw/lv_draw.c **** 
 635              		.loc 1 98 1 is_stmt 0 view .LVU194
 636 0020 08BD     		pop	{r3, pc}
 637              	.L61:
  89:Drivers/lvgl/src/draw/lv_draw.c ****     new_unit->next = _draw_info.unit_head;
 638              		.loc 1 89 5 is_stmt 1 view .LVU195
  89:Drivers/lvgl/src/draw/lv_draw.c ****     new_unit->next = _draw_info.unit_head;
 639              		.loc 1 89 5 view .LVU196
  89:Drivers/lvgl/src/draw/lv_draw.c ****     new_unit->next = _draw_info.unit_head;
 640              		.loc 1 89 5 view .LVU197
  89:Drivers/lvgl/src/draw/lv_draw.c ****     new_unit->next = _draw_info.unit_head;
 641              		.loc 1 89 5 view .LVU198
  89:Drivers/lvgl/src/draw/lv_draw.c ****     new_unit->next = _draw_info.unit_head;
 642              		.loc 1 89 5 view .LVU199
 643 0022 FEE7     		b	.L61
 644              	.L64:
 645              		.align	2
 646              	.L63:
 647 0024 00000000 		.word	lv_global
 648              		.cfi_endproc
 649              	.LFE195:
 651              		.section	.text.lv_draw_add_task,"ax",%progbits
 652              		.align	1
 653              		.global	lv_draw_add_task
 654              		.syntax unified
 655              		.thumb
 656              		.thumb_func
 658              	lv_draw_add_task:
 659              	.LVL50:
 660              	.LFB196:
 101:Drivers/lvgl/src/draw/lv_draw.c ****     LV_PROFILER_DRAW_BEGIN;
 661              		.loc 1 101 1 view -0
 662              		.cfi_startproc
 663              		@ args = 0, pretend = 0, frame = 0
 664              		@ frame_needed = 0, uses_anonymous_args = 0
 101:Drivers/lvgl/src/draw/lv_draw.c ****     LV_PROFILER_DRAW_BEGIN;
 665              		.loc 1 101 1 is_stmt 0 view .LVU201
 666 0000 70B5     		push	{r4, r5, r6, lr}
 667              	.LCFI6:
 668              		.cfi_def_cfa_offset 16
 669              		.cfi_offset 4, -16
 670              		.cfi_offset 5, -12
 671              		.cfi_offset 6, -8
 672              		.cfi_offset 14, -4
ARM GAS  /var/folders/qx/2_175_4n2s19vhvtspjhb3qh0000gn/T//ccRXOHgw.s 			page 28


 673 0002 0646     		mov	r6, r0
 674 0004 0C46     		mov	r4, r1
 675 0006 1546     		mov	r5, r2
 102:Drivers/lvgl/src/draw/lv_draw.c ****     size_t dsc_size = get_draw_dsc_size(type);
 676              		.loc 1 102 27 is_stmt 1 view .LVU202
 103:Drivers/lvgl/src/draw/lv_draw.c ****     LV_ASSERT_FORMAT_MSG(dsc_size > 0, "Draw task size is 0 for type %d", type);
 677              		.loc 1 103 5 view .LVU203
 103:Drivers/lvgl/src/draw/lv_draw.c ****     LV_ASSERT_FORMAT_MSG(dsc_size > 0, "Draw task size is 0 for type %d", type);
 678              		.loc 1 103 23 is_stmt 0 view .LVU204
 679 0008 1046     		mov	r0, r2
 680              	.LVL51:
 103:Drivers/lvgl/src/draw/lv_draw.c ****     LV_ASSERT_FORMAT_MSG(dsc_size > 0, "Draw task size is 0 for type %d", type);
 681              		.loc 1 103 23 view .LVU205
 682 000a FFF7FEFF 		bl	get_draw_dsc_size
 683              	.LVL52:
 104:Drivers/lvgl/src/draw/lv_draw.c ****     lv_draw_task_t * new_task = lv_malloc_zeroed(LV_ALIGN_UP(sizeof(lv_draw_task_t), 8) + dsc_size)
 684              		.loc 1 104 5 is_stmt 1 view .LVU206
 104:Drivers/lvgl/src/draw/lv_draw.c ****     lv_draw_task_t * new_task = lv_malloc_zeroed(LV_ALIGN_UP(sizeof(lv_draw_task_t), 8) + dsc_size)
 685              		.loc 1 104 5 view .LVU207
 686 000e 00B9     		cbnz	r0, .L66
 687              	.L67:
 104:Drivers/lvgl/src/draw/lv_draw.c ****     lv_draw_task_t * new_task = lv_malloc_zeroed(LV_ALIGN_UP(sizeof(lv_draw_task_t), 8) + dsc_size)
 688              		.loc 1 104 5 view .LVU208
 104:Drivers/lvgl/src/draw/lv_draw.c ****     lv_draw_task_t * new_task = lv_malloc_zeroed(LV_ALIGN_UP(sizeof(lv_draw_task_t), 8) + dsc_size)
 689              		.loc 1 104 5 view .LVU209
 104:Drivers/lvgl/src/draw/lv_draw.c ****     lv_draw_task_t * new_task = lv_malloc_zeroed(LV_ALIGN_UP(sizeof(lv_draw_task_t), 8) + dsc_size)
 690              		.loc 1 104 5 view .LVU210
 104:Drivers/lvgl/src/draw/lv_draw.c ****     lv_draw_task_t * new_task = lv_malloc_zeroed(LV_ALIGN_UP(sizeof(lv_draw_task_t), 8) + dsc_size)
 691              		.loc 1 104 5 view .LVU211
 104:Drivers/lvgl/src/draw/lv_draw.c ****     lv_draw_task_t * new_task = lv_malloc_zeroed(LV_ALIGN_UP(sizeof(lv_draw_task_t), 8) + dsc_size)
 692              		.loc 1 104 5 view .LVU212
 693 0010 FEE7     		b	.L67
 694              	.L66:
 104:Drivers/lvgl/src/draw/lv_draw.c ****     lv_draw_task_t * new_task = lv_malloc_zeroed(LV_ALIGN_UP(sizeof(lv_draw_task_t), 8) + dsc_size)
 695              		.loc 1 104 5 view .LVU213
 105:Drivers/lvgl/src/draw/lv_draw.c ****     LV_ASSERT_MALLOC(new_task);
 696              		.loc 1 105 5 view .LVU214
 105:Drivers/lvgl/src/draw/lv_draw.c ****     LV_ASSERT_MALLOC(new_task);
 697              		.loc 1 105 33 is_stmt 0 view .LVU215
 698 0012 6030     		adds	r0, r0, #96
 699              	.LVL53:
 105:Drivers/lvgl/src/draw/lv_draw.c ****     LV_ASSERT_MALLOC(new_task);
 700              		.loc 1 105 33 view .LVU216
 701 0014 FFF7FEFF 		bl	lv_malloc_zeroed
 702              	.LVL54:
 106:Drivers/lvgl/src/draw/lv_draw.c ****     new_task->area = *coords;
 703              		.loc 1 106 5 is_stmt 1 view .LVU217
 106:Drivers/lvgl/src/draw/lv_draw.c ****     new_task->area = *coords;
 704              		.loc 1 106 5 view .LVU218
 705 0018 8446     		mov	ip, r0
 706 001a 58B3     		cbz	r0, .L69
 106:Drivers/lvgl/src/draw/lv_draw.c ****     new_task->area = *coords;
 707              		.loc 1 106 5 view .LVU219
 106:Drivers/lvgl/src/draw/lv_draw.c ****     new_task->area = *coords;
 708              		.loc 1 106 31 view .LVU220
 107:Drivers/lvgl/src/draw/lv_draw.c ****     new_task->_real_area = *coords;
 709              		.loc 1 107 5 view .LVU221
ARM GAS  /var/folders/qx/2_175_4n2s19vhvtspjhb3qh0000gn/T//ccRXOHgw.s 			page 29


 107:Drivers/lvgl/src/draw/lv_draw.c ****     new_task->_real_area = *coords;
 710              		.loc 1 107 20 is_stmt 0 view .LVU222
 711 001c 00F1080E 		add	lr, r0, #8
 712 0020 94E80F00 		ldm	r4, {r0, r1, r2, r3}
 713              	.LVL55:
 107:Drivers/lvgl/src/draw/lv_draw.c ****     new_task->_real_area = *coords;
 714              		.loc 1 107 20 view .LVU223
 715 0024 8EE80F00 		stm	lr, {r0, r1, r2, r3}
 108:Drivers/lvgl/src/draw/lv_draw.c ****     new_task->target_layer = layer;
 716              		.loc 1 108 5 is_stmt 1 view .LVU224
 108:Drivers/lvgl/src/draw/lv_draw.c ****     new_task->target_layer = layer;
 717              		.loc 1 108 26 is_stmt 0 view .LVU225
 718 0028 0CF1180E 		add	lr, ip, #24
 719 002c 94E80F00 		ldm	r4, {r0, r1, r2, r3}
 720 0030 8EE80F00 		stm	lr, {r0, r1, r2, r3}
 109:Drivers/lvgl/src/draw/lv_draw.c ****     new_task->clip_area = layer->_clip_area;
 721              		.loc 1 109 5 is_stmt 1 view .LVU226
 109:Drivers/lvgl/src/draw/lv_draw.c ****     new_task->clip_area = layer->_clip_area;
 722              		.loc 1 109 28 is_stmt 0 view .LVU227
 723 0034 CCF84860 		str	r6, [ip, #72]
 110:Drivers/lvgl/src/draw/lv_draw.c **** #if LV_DRAW_TRANSFORM_USE_MATRIX
 724              		.loc 1 110 5 is_stmt 1 view .LVU228
 110:Drivers/lvgl/src/draw/lv_draw.c **** #if LV_DRAW_TRANSFORM_USE_MATRIX
 725              		.loc 1 110 25 is_stmt 0 view .LVU229
 726 0038 0CF13804 		add	r4, ip, #56
 727              	.LVL56:
 110:Drivers/lvgl/src/draw/lv_draw.c **** #if LV_DRAW_TRANSFORM_USE_MATRIX
 728              		.loc 1 110 25 view .LVU230
 729 003c 06F13403 		add	r3, r6, #52
 730 0040 0FCB     		ldm	r3, {r0, r1, r2, r3}
 731 0042 84E80F00 		stm	r4, {r0, r1, r2, r3}
 114:Drivers/lvgl/src/draw/lv_draw.c ****     new_task->type = type;
 732              		.loc 1 114 5 is_stmt 1 view .LVU231
 114:Drivers/lvgl/src/draw/lv_draw.c ****     new_task->type = type;
 733              		.loc 1 114 26 is_stmt 0 view .LVU232
 734 0046 96F84E30 		ldrb	r3, [r6, #78]	@ zero_extendqisi2
 114:Drivers/lvgl/src/draw/lv_draw.c ****     new_task->type = type;
 735              		.loc 1 114 19 view .LVU233
 736 004a 8CF85830 		strb	r3, [ip, #88]
 115:Drivers/lvgl/src/draw/lv_draw.c ****     new_task->draw_dsc = (uint8_t *)new_task + LV_ALIGN_UP(sizeof(lv_draw_task_t), 8);
 737              		.loc 1 115 5 is_stmt 1 view .LVU234
 115:Drivers/lvgl/src/draw/lv_draw.c ****     new_task->draw_dsc = (uint8_t *)new_task + LV_ALIGN_UP(sizeof(lv_draw_task_t), 8);
 738              		.loc 1 115 20 is_stmt 0 view .LVU235
 739 004e 8CF80450 		strb	r5, [ip, #4]
 116:Drivers/lvgl/src/draw/lv_draw.c ****     new_task->state = LV_DRAW_TASK_STATE_WAITING;
 740              		.loc 1 116 5 is_stmt 1 view .LVU236
 116:Drivers/lvgl/src/draw/lv_draw.c ****     new_task->state = LV_DRAW_TASK_STATE_WAITING;
 741              		.loc 1 116 46 is_stmt 0 view .LVU237
 742 0052 0CF16003 		add	r3, ip, #96
 116:Drivers/lvgl/src/draw/lv_draw.c ****     new_task->state = LV_DRAW_TASK_STATE_WAITING;
 743              		.loc 1 116 24 view .LVU238
 744 0056 CCF85430 		str	r3, [ip, #84]
 117:Drivers/lvgl/src/draw/lv_draw.c **** 
 745              		.loc 1 117 5 is_stmt 1 view .LVU239
 117:Drivers/lvgl/src/draw/lv_draw.c **** 
 746              		.loc 1 117 21 is_stmt 0 view .LVU240
 747 005a 0123     		movs	r3, #1
ARM GAS  /var/folders/qx/2_175_4n2s19vhvtspjhb3qh0000gn/T//ccRXOHgw.s 			page 30


 748 005c CCF85030 		str	r3, [ip, #80]
 120:Drivers/lvgl/src/draw/lv_draw.c ****         layer->draw_task_head = new_task;
 749              		.loc 1 120 5 is_stmt 1 view .LVU241
 120:Drivers/lvgl/src/draw/lv_draw.c ****         layer->draw_task_head = new_task;
 750              		.loc 1 120 13 is_stmt 0 view .LVU242
 751 0060 7368     		ldr	r3, [r6, #4]
 120:Drivers/lvgl/src/draw/lv_draw.c ****         layer->draw_task_head = new_task;
 752              		.loc 1 120 7 view .LVU243
 753 0062 43B1     		cbz	r3, .L73
 754              	.L70:
 755              	.LVL57:
 756              	.LBB13:
 125:Drivers/lvgl/src/draw/lv_draw.c **** 
 757              		.loc 1 125 15 is_stmt 1 discriminator 1 view .LVU244
 758 0064 1A46     		mov	r2, r3
 125:Drivers/lvgl/src/draw/lv_draw.c **** 
 759              		.loc 1 125 19 is_stmt 0 discriminator 1 view .LVU245
 760 0066 1B68     		ldr	r3, [r3]
 761              	.LVL58:
 125:Drivers/lvgl/src/draw/lv_draw.c **** 
 762              		.loc 1 125 15 discriminator 1 view .LVU246
 763 0068 002B     		cmp	r3, #0
 764 006a FBD1     		bne	.L70
 127:Drivers/lvgl/src/draw/lv_draw.c ****     }
 765              		.loc 1 127 9 is_stmt 1 view .LVU247
 127:Drivers/lvgl/src/draw/lv_draw.c ****     }
 766              		.loc 1 127 20 is_stmt 0 view .LVU248
 767 006c C2F800C0 		str	ip, [r2]
 768              	.LBE13:
 130:Drivers/lvgl/src/draw/lv_draw.c ****     return new_task;
 769              		.loc 1 130 25 is_stmt 1 view .LVU249
 131:Drivers/lvgl/src/draw/lv_draw.c **** }
 770              		.loc 1 131 5 view .LVU250
 771              	.LVL59:
 772              	.L65:
 132:Drivers/lvgl/src/draw/lv_draw.c **** 
 773              		.loc 1 132 1 is_stmt 0 view .LVU251
 774 0070 6046     		mov	r0, ip
 775 0072 70BD     		pop	{r4, r5, r6, pc}
 776              	.LVL60:
 777              	.L69:
 106:Drivers/lvgl/src/draw/lv_draw.c ****     new_task->area = *coords;
 778              		.loc 1 106 5 is_stmt 1 view .LVU252
 106:Drivers/lvgl/src/draw/lv_draw.c ****     new_task->area = *coords;
 779              		.loc 1 106 5 view .LVU253
 106:Drivers/lvgl/src/draw/lv_draw.c ****     new_task->area = *coords;
 780              		.loc 1 106 5 view .LVU254
 106:Drivers/lvgl/src/draw/lv_draw.c ****     new_task->area = *coords;
 781              		.loc 1 106 5 view .LVU255
 106:Drivers/lvgl/src/draw/lv_draw.c ****     new_task->area = *coords;
 782              		.loc 1 106 5 view .LVU256
 783 0074 FEE7     		b	.L69
 784              	.LVL61:
 785              	.L73:
 121:Drivers/lvgl/src/draw/lv_draw.c ****     }
 786              		.loc 1 121 9 view .LVU257
 121:Drivers/lvgl/src/draw/lv_draw.c ****     }
ARM GAS  /var/folders/qx/2_175_4n2s19vhvtspjhb3qh0000gn/T//ccRXOHgw.s 			page 31


 787              		.loc 1 121 31 is_stmt 0 view .LVU258
 788 0076 C6F804C0 		str	ip, [r6, #4]
 789 007a F9E7     		b	.L65
 790              		.cfi_endproc
 791              	.LFE196:
 793              		.section	.text.lv_draw_wait_for_finish,"ax",%progbits
 794              		.align	1
 795              		.global	lv_draw_wait_for_finish
 796              		.syntax unified
 797              		.thumb
 798              		.thumb_func
 800              	lv_draw_wait_for_finish:
 801              	.LFB198:
 196:Drivers/lvgl/src/draw/lv_draw.c **** #if LV_USE_OS
 802              		.loc 1 196 1 is_stmt 1 view -0
 803              		.cfi_startproc
 804              		@ args = 0, pretend = 0, frame = 0
 805              		@ frame_needed = 0, uses_anonymous_args = 0
 806              		@ link register save eliminated.
 212:Drivers/lvgl/src/draw/lv_draw.c **** 
 807              		.loc 1 212 1 view .LVU260
 808 0000 7047     		bx	lr
 809              		.cfi_endproc
 810              	.LFE198:
 812              		.section	.text.lv_draw_dispatch_wait_for_request,"ax",%progbits
 813              		.align	1
 814              		.global	lv_draw_dispatch_wait_for_request
 815              		.syntax unified
 816              		.thumb
 817              		.thumb_func
 819              	lv_draw_dispatch_wait_for_request:
 820              	.LFB201:
 297:Drivers/lvgl/src/draw/lv_draw.c ****     LV_PROFILER_DRAW_BEGIN;
 821              		.loc 1 297 1 view -0
 822              		.cfi_startproc
 823              		@ args = 0, pretend = 0, frame = 0
 824              		@ frame_needed = 0, uses_anonymous_args = 0
 825              		@ link register save eliminated.
 826              	.L76:
 302:Drivers/lvgl/src/draw/lv_draw.c ****     _draw_info.dispatch_req = 0;
 827              		.loc 1 302 11 discriminator 1 view .LVU262
 302:Drivers/lvgl/src/draw/lv_draw.c ****     _draw_info.dispatch_req = 0;
 828              		.loc 1 302 22 is_stmt 0 discriminator 1 view .LVU263
 829 0000 044B     		ldr	r3, .L77
 830 0002 D3F84031 		ldr	r3, [r3, #320]
 302:Drivers/lvgl/src/draw/lv_draw.c ****     _draw_info.dispatch_req = 0;
 831              		.loc 1 302 11 discriminator 1 view .LVU264
 832 0006 002B     		cmp	r3, #0
 833 0008 FAD0     		beq	.L76
 303:Drivers/lvgl/src/draw/lv_draw.c **** #endif
 834              		.loc 1 303 5 is_stmt 1 view .LVU265
 303:Drivers/lvgl/src/draw/lv_draw.c **** #endif
 835              		.loc 1 303 29 is_stmt 0 view .LVU266
 836 000a 024B     		ldr	r3, .L77
 837 000c 0022     		movs	r2, #0
 838 000e C3F84021 		str	r2, [r3, #320]
 305:Drivers/lvgl/src/draw/lv_draw.c **** }
ARM GAS  /var/folders/qx/2_175_4n2s19vhvtspjhb3qh0000gn/T//ccRXOHgw.s 			page 32


 839              		.loc 1 305 25 is_stmt 1 view .LVU267
 306:Drivers/lvgl/src/draw/lv_draw.c **** 
 840              		.loc 1 306 1 is_stmt 0 view .LVU268
 841 0012 7047     		bx	lr
 842              	.L78:
 843              		.align	2
 844              	.L77:
 845 0014 00000000 		.word	lv_global
 846              		.cfi_endproc
 847              	.LFE201:
 849              		.section	.text.lv_draw_dispatch_request,"ax",%progbits
 850              		.align	1
 851              		.global	lv_draw_dispatch_request
 852              		.syntax unified
 853              		.thumb
 854              		.thumb_func
 856              	lv_draw_dispatch_request:
 857              	.LFB202:
 309:Drivers/lvgl/src/draw/lv_draw.c ****     LV_PROFILER_DRAW_BEGIN;
 858              		.loc 1 309 1 is_stmt 1 view -0
 859              		.cfi_startproc
 860              		@ args = 0, pretend = 0, frame = 0
 861              		@ frame_needed = 0, uses_anonymous_args = 0
 862              		@ link register save eliminated.
 310:Drivers/lvgl/src/draw/lv_draw.c **** #if LV_USE_OS
 863              		.loc 1 310 27 view .LVU270
 314:Drivers/lvgl/src/draw/lv_draw.c **** #endif
 864              		.loc 1 314 5 view .LVU271
 314:Drivers/lvgl/src/draw/lv_draw.c **** #endif
 865              		.loc 1 314 29 is_stmt 0 view .LVU272
 866 0000 024B     		ldr	r3, .L80
 867 0002 0122     		movs	r2, #1
 868 0004 C3F84021 		str	r2, [r3, #320]
 316:Drivers/lvgl/src/draw/lv_draw.c **** }
 869              		.loc 1 316 25 is_stmt 1 view .LVU273
 317:Drivers/lvgl/src/draw/lv_draw.c **** 
 870              		.loc 1 317 1 is_stmt 0 view .LVU274
 871 0008 7047     		bx	lr
 872              	.L81:
 873 000a 00BF     		.align	2
 874              	.L80:
 875 000c 00000000 		.word	lv_global
 876              		.cfi_endproc
 877              	.LFE202:
 879              		.section	.text.lv_draw_dispatch_layer,"ax",%progbits
 880              		.align	1
 881              		.global	lv_draw_dispatch_layer
 882              		.syntax unified
 883              		.thumb
 884              		.thumb_func
 886              	lv_draw_dispatch_layer:
 887              	.LVL62:
 888              	.LFB200:
 235:Drivers/lvgl/src/draw/lv_draw.c ****     LV_PROFILER_DRAW_BEGIN;
 889              		.loc 1 235 1 is_stmt 1 view -0
 890              		.cfi_startproc
 891              		@ args = 0, pretend = 0, frame = 0
ARM GAS  /var/folders/qx/2_175_4n2s19vhvtspjhb3qh0000gn/T//ccRXOHgw.s 			page 33


 892              		@ frame_needed = 0, uses_anonymous_args = 0
 235:Drivers/lvgl/src/draw/lv_draw.c ****     LV_PROFILER_DRAW_BEGIN;
 893              		.loc 1 235 1 is_stmt 0 view .LVU276
 894 0000 2DE9F041 		push	{r4, r5, r6, r7, r8, lr}
 895              	.LCFI7:
 896              		.cfi_def_cfa_offset 24
 897              		.cfi_offset 4, -24
 898              		.cfi_offset 5, -20
 899              		.cfi_offset 6, -16
 900              		.cfi_offset 7, -12
 901              		.cfi_offset 8, -8
 902              		.cfi_offset 14, -4
 903 0004 8046     		mov	r8, r0
 904 0006 0E46     		mov	r6, r1
 236:Drivers/lvgl/src/draw/lv_draw.c ****     /*Remove the finished tasks first*/
 905              		.loc 1 236 27 is_stmt 1 view .LVU277
 238:Drivers/lvgl/src/draw/lv_draw.c ****     lv_draw_task_t * t = layer->draw_task_head;
 906              		.loc 1 238 5 view .LVU278
 907              	.LVL63:
 239:Drivers/lvgl/src/draw/lv_draw.c ****     lv_draw_task_t * t_next;
 908              		.loc 1 239 5 view .LVU279
 239:Drivers/lvgl/src/draw/lv_draw.c ****     lv_draw_task_t * t_next;
 909              		.loc 1 239 22 is_stmt 0 view .LVU280
 910 0008 4868     		ldr	r0, [r1, #4]
 911              	.LVL64:
 240:Drivers/lvgl/src/draw/lv_draw.c ****     bool remove_task = false;
 912              		.loc 1 240 5 is_stmt 1 view .LVU281
 241:Drivers/lvgl/src/draw/lv_draw.c ****     while(t) {
 913              		.loc 1 241 5 view .LVU282
 242:Drivers/lvgl/src/draw/lv_draw.c ****         t_next = t->next;
 914              		.loc 1 242 5 view .LVU283
 241:Drivers/lvgl/src/draw/lv_draw.c ****     while(t) {
 915              		.loc 1 241 10 is_stmt 0 view .LVU284
 916 000a 0027     		movs	r7, #0
 238:Drivers/lvgl/src/draw/lv_draw.c ****     lv_draw_task_t * t = layer->draw_task_head;
 917              		.loc 1 238 22 view .LVU285
 918 000c 3D46     		mov	r5, r7
 242:Drivers/lvgl/src/draw/lv_draw.c ****         t_next = t->next;
 919              		.loc 1 242 10 view .LVU286
 920 000e 04E0     		b	.L83
 921              	.LVL65:
 922              	.L85:
 250:Drivers/lvgl/src/draw/lv_draw.c ****         }
 923              		.loc 1 250 17 is_stmt 1 view .LVU287
 250:Drivers/lvgl/src/draw/lv_draw.c ****         }
 924              		.loc 1 250 39 is_stmt 0 view .LVU288
 925 0010 7460     		str	r4, [r6, #4]
 926 0012 2846     		mov	r0, r5
 246:Drivers/lvgl/src/draw/lv_draw.c ****             if(t_prev != NULL)
 927              		.loc 1 246 25 view .LVU289
 928 0014 0127     		movs	r7, #1
 929              	.LVL66:
 930              	.L84:
 246:Drivers/lvgl/src/draw/lv_draw.c ****             if(t_prev != NULL)
 931              		.loc 1 246 25 view .LVU290
 932 0016 0546     		mov	r5, r0
 933              	.LVL67:
ARM GAS  /var/folders/qx/2_175_4n2s19vhvtspjhb3qh0000gn/T//ccRXOHgw.s 			page 34


 246:Drivers/lvgl/src/draw/lv_draw.c ****             if(t_prev != NULL)
 934              		.loc 1 246 25 view .LVU291
 935 0018 2046     		mov	r0, r4
 936              	.LVL68:
 937              	.L83:
 242:Drivers/lvgl/src/draw/lv_draw.c ****         t_next = t->next;
 938              		.loc 1 242 11 is_stmt 1 view .LVU292
 939 001a 60B1     		cbz	r0, .L98
 243:Drivers/lvgl/src/draw/lv_draw.c ****         if(t->state == LV_DRAW_TASK_STATE_FINISHED) {
 940              		.loc 1 243 9 view .LVU293
 243:Drivers/lvgl/src/draw/lv_draw.c ****         if(t->state == LV_DRAW_TASK_STATE_FINISHED) {
 941              		.loc 1 243 16 is_stmt 0 view .LVU294
 942 001c 0468     		ldr	r4, [r0]
 943              	.LVL69:
 244:Drivers/lvgl/src/draw/lv_draw.c ****             cleanup_task(t, disp);
 944              		.loc 1 244 9 is_stmt 1 view .LVU295
 244:Drivers/lvgl/src/draw/lv_draw.c ****             cleanup_task(t, disp);
 945              		.loc 1 244 13 is_stmt 0 view .LVU296
 946 001e 036D     		ldr	r3, [r0, #80]
 244:Drivers/lvgl/src/draw/lv_draw.c ****             cleanup_task(t, disp);
 947              		.loc 1 244 11 view .LVU297
 948 0020 042B     		cmp	r3, #4
 949 0022 F8D1     		bne	.L84
 245:Drivers/lvgl/src/draw/lv_draw.c ****             remove_task = true;
 950              		.loc 1 245 13 is_stmt 1 view .LVU298
 951 0024 4146     		mov	r1, r8
 952 0026 FFF7FEFF 		bl	cleanup_task
 953              	.LVL70:
 246:Drivers/lvgl/src/draw/lv_draw.c ****             if(t_prev != NULL)
 954              		.loc 1 246 13 view .LVU299
 247:Drivers/lvgl/src/draw/lv_draw.c ****                 t_prev->next = t_next;
 955              		.loc 1 247 13 view .LVU300
 247:Drivers/lvgl/src/draw/lv_draw.c ****                 t_prev->next = t_next;
 956              		.loc 1 247 15 is_stmt 0 view .LVU301
 957 002a 002D     		cmp	r5, #0
 958 002c F0D0     		beq	.L85
 248:Drivers/lvgl/src/draw/lv_draw.c ****             else
 959              		.loc 1 248 17 is_stmt 1 view .LVU302
 248:Drivers/lvgl/src/draw/lv_draw.c ****             else
 960              		.loc 1 248 30 is_stmt 0 view .LVU303
 961 002e 2C60     		str	r4, [r5]
 962 0030 2846     		mov	r0, r5
 246:Drivers/lvgl/src/draw/lv_draw.c ****             if(t_prev != NULL)
 963              		.loc 1 246 25 view .LVU304
 964 0032 0127     		movs	r7, #1
 965 0034 EFE7     		b	.L84
 966              	.LVL71:
 967              	.L98:
 258:Drivers/lvgl/src/draw/lv_draw.c **** 
 968              		.loc 1 258 5 is_stmt 1 view .LVU305
 261:Drivers/lvgl/src/draw/lv_draw.c ****         /*Find a draw task with TYPE_LAYER in the layer where the src is this layer*/
 969              		.loc 1 261 5 view .LVU306
 261:Drivers/lvgl/src/draw/lv_draw.c ****         /*Find a draw task with TYPE_LAYER in the layer where the src is this layer*/
 970              		.loc 1 261 13 is_stmt 0 view .LVU307
 971 0036 B368     		ldr	r3, [r6, #8]
 261:Drivers/lvgl/src/draw/lv_draw.c ****         /*Find a draw task with TYPE_LAYER in the layer where the src is this layer*/
 972              		.loc 1 261 7 view .LVU308
ARM GAS  /var/folders/qx/2_175_4n2s19vhvtspjhb3qh0000gn/T//ccRXOHgw.s 			page 35


 973 0038 23B1     		cbz	r3, .L87
 261:Drivers/lvgl/src/draw/lv_draw.c ****         /*Find a draw task with TYPE_LAYER in the layer where the src is this layer*/
 974              		.loc 1 261 30 discriminator 1 view .LVU309
 975 003a 96F84D20 		ldrb	r2, [r6, #77]	@ zero_extendqisi2
 261:Drivers/lvgl/src/draw/lv_draw.c ****         /*Find a draw task with TYPE_LAYER in the layer where the src is this layer*/
 976              		.loc 1 261 22 discriminator 1 view .LVU310
 977 003e 0AB1     		cbz	r2, .L87
 261:Drivers/lvgl/src/draw/lv_draw.c ****         /*Find a draw task with TYPE_LAYER in the layer where the src is this layer*/
 978              		.loc 1 261 56 discriminator 2 view .LVU311
 979 0040 7268     		ldr	r2, [r6, #4]
 261:Drivers/lvgl/src/draw/lv_draw.c ****         /*Find a draw task with TYPE_LAYER in the layer where the src is this layer*/
 980              		.loc 1 261 48 discriminator 2 view .LVU312
 981 0042 3AB1     		cbz	r2, .L99
 982              	.L87:
 277:Drivers/lvgl/src/draw/lv_draw.c ****         /*Find a draw unit which is not busy and can take at least one task*/
 983              		.loc 1 277 10 is_stmt 1 view .LVU313
 277:Drivers/lvgl/src/draw/lv_draw.c ****         /*Find a draw unit which is not busy and can take at least one task*/
 984              		.loc 1 277 12 is_stmt 0 view .LVU314
 985 0044 0FB9     		cbnz	r7, .L92
 277:Drivers/lvgl/src/draw/lv_draw.c ****         /*Find a draw unit which is not busy and can take at least one task*/
 986              		.loc 1 277 33 discriminator 1 view .LVU315
 987 0046 7368     		ldr	r3, [r6, #4]
 277:Drivers/lvgl/src/draw/lv_draw.c ****         /*Find a draw unit which is not busy and can take at least one task*/
 988              		.loc 1 277 25 discriminator 1 view .LVU316
 989 0048 CBB1     		cbz	r3, .L90
 990              	.L92:
 991              	.LBB14:
 280:Drivers/lvgl/src/draw/lv_draw.c ****         while(u) {
 992              		.loc 1 280 9 is_stmt 1 view .LVU317
 280:Drivers/lvgl/src/draw/lv_draw.c ****         while(u) {
 993              		.loc 1 280 26 is_stmt 0 view .LVU318
 994 004a 144B     		ldr	r3, .L101
 995 004c D3F83441 		ldr	r4, [r3, #308]
 996              	.LVL72:
 281:Drivers/lvgl/src/draw/lv_draw.c ****             LV_PROFILER_DRAW_BEGIN_TAG("dispatch_cb");
 997              		.loc 1 281 9 is_stmt 1 view .LVU319
 998              	.LBE14:
 258:Drivers/lvgl/src/draw/lv_draw.c **** 
 999              		.loc 1 258 10 is_stmt 0 view .LVU320
 1000 0050 0027     		movs	r7, #0
 1001              	.LVL73:
 1002              	.LBB17:
 281:Drivers/lvgl/src/draw/lv_draw.c ****             LV_PROFILER_DRAW_BEGIN_TAG("dispatch_cb");
 1003              		.loc 1 281 14 view .LVU321
 1004 0052 18E0     		b	.L93
 1005              	.LVL74:
 1006              	.L99:
 281:Drivers/lvgl/src/draw/lv_draw.c ****             LV_PROFILER_DRAW_BEGIN_TAG("dispatch_cb");
 1007              		.loc 1 281 14 view .LVU322
 1008              	.LBE17:
 1009              	.LBB18:
 263:Drivers/lvgl/src/draw/lv_draw.c ****         while(t_src) {
 1010              		.loc 1 263 9 is_stmt 1 view .LVU323
 263:Drivers/lvgl/src/draw/lv_draw.c ****         while(t_src) {
 1011              		.loc 1 263 26 is_stmt 0 view .LVU324
 1012 0054 5B68     		ldr	r3, [r3, #4]
 1013              	.LVL75:
ARM GAS  /var/folders/qx/2_175_4n2s19vhvtspjhb3qh0000gn/T//ccRXOHgw.s 			page 36


 264:Drivers/lvgl/src/draw/lv_draw.c ****             if(t_src->type == LV_DRAW_TASK_TYPE_LAYER && t_src->state == LV_DRAW_TASK_STATE_BLOCKED
 1014              		.loc 1 264 9 is_stmt 1 view .LVU325
 264:Drivers/lvgl/src/draw/lv_draw.c ****             if(t_src->type == LV_DRAW_TASK_TYPE_LAYER && t_src->state == LV_DRAW_TASK_STATE_BLOCKED
 1015              		.loc 1 264 14 is_stmt 0 view .LVU326
 1016 0056 00E0     		b	.L88
 1017              	.L89:
 273:Drivers/lvgl/src/draw/lv_draw.c ****         }
 1018              		.loc 1 273 13 is_stmt 1 view .LVU327
 273:Drivers/lvgl/src/draw/lv_draw.c ****         }
 1019              		.loc 1 273 19 is_stmt 0 view .LVU328
 1020 0058 1B68     		ldr	r3, [r3]
 1021              	.LVL76:
 1022              	.L88:
 264:Drivers/lvgl/src/draw/lv_draw.c ****             if(t_src->type == LV_DRAW_TASK_TYPE_LAYER && t_src->state == LV_DRAW_TASK_STATE_BLOCKED
 1023              		.loc 1 264 15 is_stmt 1 view .LVU329
 1024 005a 7BB1     		cbz	r3, .L100
 265:Drivers/lvgl/src/draw/lv_draw.c ****                 lv_draw_image_dsc_t * draw_dsc = t_src->draw_dsc;
 1025              		.loc 1 265 13 view .LVU330
 265:Drivers/lvgl/src/draw/lv_draw.c ****                 lv_draw_image_dsc_t * draw_dsc = t_src->draw_dsc;
 1026              		.loc 1 265 21 is_stmt 0 view .LVU331
 1027 005c 1A79     		ldrb	r2, [r3, #4]	@ zero_extendqisi2
 265:Drivers/lvgl/src/draw/lv_draw.c ****                 lv_draw_image_dsc_t * draw_dsc = t_src->draw_dsc;
 1028              		.loc 1 265 15 view .LVU332
 1029 005e 072A     		cmp	r2, #7
 1030 0060 FAD1     		bne	.L89
 265:Drivers/lvgl/src/draw/lv_draw.c ****                 lv_draw_image_dsc_t * draw_dsc = t_src->draw_dsc;
 1031              		.loc 1 265 63 discriminator 1 view .LVU333
 1032 0062 1A6D     		ldr	r2, [r3, #80]
 265:Drivers/lvgl/src/draw/lv_draw.c ****                 lv_draw_image_dsc_t * draw_dsc = t_src->draw_dsc;
 1033              		.loc 1 265 55 discriminator 1 view .LVU334
 1034 0064 002A     		cmp	r2, #0
 1035 0066 F7D1     		bne	.L89
 1036              	.LBB19:
 266:Drivers/lvgl/src/draw/lv_draw.c ****                 if(draw_dsc->src == layer) {
 1037              		.loc 1 266 17 is_stmt 1 view .LVU335
 266:Drivers/lvgl/src/draw/lv_draw.c ****                 if(draw_dsc->src == layer) {
 1038              		.loc 1 266 39 is_stmt 0 view .LVU336
 1039 0068 5A6D     		ldr	r2, [r3, #84]
 1040              	.LVL77:
 267:Drivers/lvgl/src/draw/lv_draw.c ****                     t_src->state = LV_DRAW_TASK_STATE_WAITING;
 1041              		.loc 1 267 17 is_stmt 1 view .LVU337
 267:Drivers/lvgl/src/draw/lv_draw.c ****                     t_src->state = LV_DRAW_TASK_STATE_WAITING;
 1042              		.loc 1 267 28 is_stmt 0 view .LVU338
 1043 006a D269     		ldr	r2, [r2, #28]
 1044              	.LVL78:
 267:Drivers/lvgl/src/draw/lv_draw.c ****                     t_src->state = LV_DRAW_TASK_STATE_WAITING;
 1045              		.loc 1 267 19 view .LVU339
 1046 006c B242     		cmp	r2, r6
 1047 006e F3D1     		bne	.L89
 268:Drivers/lvgl/src/draw/lv_draw.c ****                     lv_draw_dispatch_request();
 1048              		.loc 1 268 21 is_stmt 1 view .LVU340
 268:Drivers/lvgl/src/draw/lv_draw.c ****                     lv_draw_dispatch_request();
 1049              		.loc 1 268 34 is_stmt 0 view .LVU341
 1050 0070 0122     		movs	r2, #1
 1051 0072 1A65     		str	r2, [r3, #80]
 269:Drivers/lvgl/src/draw/lv_draw.c ****                     break;
 1052              		.loc 1 269 21 is_stmt 1 view .LVU342
ARM GAS  /var/folders/qx/2_175_4n2s19vhvtspjhb3qh0000gn/T//ccRXOHgw.s 			page 37


 1053 0074 FFF7FEFF 		bl	lv_draw_dispatch_request
 1054              	.LVL79:
 270:Drivers/lvgl/src/draw/lv_draw.c ****                 }
 1055              		.loc 1 270 21 view .LVU343
 1056              	.LBE19:
 1057              	.LBE18:
 258:Drivers/lvgl/src/draw/lv_draw.c **** 
 1058              		.loc 1 258 10 is_stmt 0 view .LVU344
 1059 0078 0027     		movs	r7, #0
 1060              	.LVL80:
 1061              	.LBB21:
 1062              	.LBB20:
 270:Drivers/lvgl/src/draw/lv_draw.c ****                 }
 1063              		.loc 1 270 21 view .LVU345
 1064 007a 00E0     		b	.L90
 1065              	.LVL81:
 1066              	.L100:
 270:Drivers/lvgl/src/draw/lv_draw.c ****                 }
 1067              		.loc 1 270 21 view .LVU346
 1068              	.LBE20:
 1069              	.LBE21:
 258:Drivers/lvgl/src/draw/lv_draw.c **** 
 1070              		.loc 1 258 10 view .LVU347
 1071 007c 0027     		movs	r7, #0
 1072              	.LVL82:
 1073              	.L90:
 292:Drivers/lvgl/src/draw/lv_draw.c ****     return task_dispatched;
 1074              		.loc 1 292 25 is_stmt 1 view .LVU348
 293:Drivers/lvgl/src/draw/lv_draw.c **** }
 1075              		.loc 1 293 5 view .LVU349
 294:Drivers/lvgl/src/draw/lv_draw.c **** 
 1076              		.loc 1 294 1 is_stmt 0 view .LVU350
 1077 007e 3846     		mov	r0, r7
 1078 0080 BDE8F081 		pop	{r4, r5, r6, r7, r8, pc}
 1079              	.LVL83:
 1080              	.L94:
 1081              	.LBB22:
 1082              	.LBB15:
 288:Drivers/lvgl/src/draw/lv_draw.c ****         }
 1083              		.loc 1 288 13 is_stmt 1 view .LVU351
 288:Drivers/lvgl/src/draw/lv_draw.c ****         }
 1084              		.loc 1 288 15 is_stmt 0 view .LVU352
 1085 0084 2468     		ldr	r4, [r4]
 1086              	.LVL84:
 1087              	.L93:
 288:Drivers/lvgl/src/draw/lv_draw.c ****         }
 1088              		.loc 1 288 15 view .LVU353
 1089              	.LBE15:
 281:Drivers/lvgl/src/draw/lv_draw.c ****             LV_PROFILER_DRAW_BEGIN_TAG("dispatch_cb");
 1090              		.loc 1 281 15 is_stmt 1 view .LVU354
 1091 0086 002C     		cmp	r4, #0
 1092 0088 F9D0     		beq	.L90
 1093              	.LBB16:
 282:Drivers/lvgl/src/draw/lv_draw.c ****             LV_PROFILER_DRAW_BEGIN_TAG(u->name);
 1094              		.loc 1 282 54 view .LVU355
 283:Drivers/lvgl/src/draw/lv_draw.c ****             int32_t taken_cnt = u->dispatch_cb(u, layer);
 1095              		.loc 1 283 48 view .LVU356
ARM GAS  /var/folders/qx/2_175_4n2s19vhvtspjhb3qh0000gn/T//ccRXOHgw.s 			page 38


 284:Drivers/lvgl/src/draw/lv_draw.c ****             LV_PROFILER_DRAW_END_TAG(u->name);
 1096              		.loc 1 284 13 view .LVU357
 284:Drivers/lvgl/src/draw/lv_draw.c ****             LV_PROFILER_DRAW_END_TAG(u->name);
 1097              		.loc 1 284 34 is_stmt 0 view .LVU358
 1098 008a E368     		ldr	r3, [r4, #12]
 284:Drivers/lvgl/src/draw/lv_draw.c ****             LV_PROFILER_DRAW_END_TAG(u->name);
 1099              		.loc 1 284 33 view .LVU359
 1100 008c 3146     		mov	r1, r6
 1101 008e 2046     		mov	r0, r4
 1102 0090 9847     		blx	r3
 1103              	.LVL85:
 285:Drivers/lvgl/src/draw/lv_draw.c ****             LV_PROFILER_DRAW_END_TAG("dispatch_cb");
 1104              		.loc 1 285 46 is_stmt 1 view .LVU360
 286:Drivers/lvgl/src/draw/lv_draw.c ****             if(taken_cnt != LV_DRAW_UNIT_IDLE) task_dispatched = true;
 1105              		.loc 1 286 52 view .LVU361
 287:Drivers/lvgl/src/draw/lv_draw.c ****             u = u->next;
 1106              		.loc 1 287 13 view .LVU362
 287:Drivers/lvgl/src/draw/lv_draw.c ****             u = u->next;
 1107              		.loc 1 287 15 is_stmt 0 view .LVU363
 1108 0092 B0F1FF3F 		cmp	r0, #-1
 1109 0096 F5D0     		beq	.L94
 287:Drivers/lvgl/src/draw/lv_draw.c ****             u = u->next;
 1110              		.loc 1 287 64 discriminator 1 view .LVU364
 1111 0098 0127     		movs	r7, #1
 1112              	.LVL86:
 287:Drivers/lvgl/src/draw/lv_draw.c ****             u = u->next;
 1113              		.loc 1 287 64 discriminator 1 view .LVU365
 1114 009a F3E7     		b	.L94
 1115              	.L102:
 1116              		.align	2
 1117              	.L101:
 1118 009c 00000000 		.word	lv_global
 1119              	.LBE16:
 1120              	.LBE22:
 1121              		.cfi_endproc
 1122              	.LFE200:
 1124              		.section	.text.lv_draw_dispatch,"ax",%progbits
 1125              		.align	1
 1126              		.global	lv_draw_dispatch
 1127              		.syntax unified
 1128              		.thumb
 1129              		.thumb_func
 1131              	lv_draw_dispatch:
 1132              	.LFB199:
 215:Drivers/lvgl/src/draw/lv_draw.c ****     LV_PROFILER_DRAW_BEGIN;
 1133              		.loc 1 215 1 is_stmt 1 view -0
 1134              		.cfi_startproc
 1135              		@ args = 0, pretend = 0, frame = 0
 1136              		@ frame_needed = 0, uses_anonymous_args = 0
 1137 0000 70B5     		push	{r4, r5, r6, lr}
 1138              	.LCFI8:
 1139              		.cfi_def_cfa_offset 16
 1140              		.cfi_offset 4, -16
 1141              		.cfi_offset 5, -12
 1142              		.cfi_offset 6, -8
 1143              		.cfi_offset 14, -4
 216:Drivers/lvgl/src/draw/lv_draw.c ****     bool task_dispatched = false;
ARM GAS  /var/folders/qx/2_175_4n2s19vhvtspjhb3qh0000gn/T//ccRXOHgw.s 			page 39


 1144              		.loc 1 216 27 view .LVU367
 217:Drivers/lvgl/src/draw/lv_draw.c ****     lv_display_t * disp = lv_refr_get_disp_refreshing();
 1145              		.loc 1 217 5 view .LVU368
 1146              	.LVL87:
 218:Drivers/lvgl/src/draw/lv_draw.c ****     if(disp != NULL) {
 1147              		.loc 1 218 5 view .LVU369
 218:Drivers/lvgl/src/draw/lv_draw.c ****     if(disp != NULL) {
 1148              		.loc 1 218 27 is_stmt 0 view .LVU370
 1149 0002 FFF7FEFF 		bl	lv_refr_get_disp_refreshing
 1150              	.LVL88:
 219:Drivers/lvgl/src/draw/lv_draw.c ****         lv_layer_t * layer = disp->layer_head;
 1151              		.loc 1 219 5 is_stmt 1 view .LVU371
 219:Drivers/lvgl/src/draw/lv_draw.c ****         lv_layer_t * layer = disp->layer_head;
 1152              		.loc 1 219 7 is_stmt 0 view .LVU372
 1153 0006 78B1     		cbz	r0, .L104
 1154 0008 0546     		mov	r5, r0
 1155              	.LBB23:
 220:Drivers/lvgl/src/draw/lv_draw.c ****         while(layer) {
 1156              		.loc 1 220 9 is_stmt 1 view .LVU373
 220:Drivers/lvgl/src/draw/lv_draw.c ****         while(layer) {
 1157              		.loc 1 220 22 is_stmt 0 view .LVU374
 1158 000a D0F8B042 		ldr	r4, [r0, #688]
 1159              	.LVL89:
 221:Drivers/lvgl/src/draw/lv_draw.c ****             if(lv_draw_dispatch_layer(disp, layer))
 1160              		.loc 1 221 9 is_stmt 1 view .LVU375
 1161              	.LBE23:
 217:Drivers/lvgl/src/draw/lv_draw.c ****     lv_display_t * disp = lv_refr_get_disp_refreshing();
 1162              		.loc 1 217 10 is_stmt 0 view .LVU376
 1163 000e 0026     		movs	r6, #0
 1164              	.LBB24:
 221:Drivers/lvgl/src/draw/lv_draw.c ****             if(lv_draw_dispatch_layer(disp, layer))
 1165              		.loc 1 221 14 view .LVU377
 1166 0010 00E0     		b	.L105
 1167              	.LVL90:
 1168              	.L106:
 224:Drivers/lvgl/src/draw/lv_draw.c ****         }
 1169              		.loc 1 224 13 is_stmt 1 view .LVU378
 224:Drivers/lvgl/src/draw/lv_draw.c ****         }
 1170              		.loc 1 224 19 is_stmt 0 view .LVU379
 1171 0012 E468     		ldr	r4, [r4, #12]
 1172              	.LVL91:
 1173              	.L105:
 221:Drivers/lvgl/src/draw/lv_draw.c ****             if(lv_draw_dispatch_layer(disp, layer))
 1174              		.loc 1 221 15 is_stmt 1 view .LVU380
 1175 0014 3CB1     		cbz	r4, .L111
 222:Drivers/lvgl/src/draw/lv_draw.c ****                 task_dispatched = true;
 1176              		.loc 1 222 13 view .LVU381
 222:Drivers/lvgl/src/draw/lv_draw.c ****                 task_dispatched = true;
 1177              		.loc 1 222 16 is_stmt 0 view .LVU382
 1178 0016 2146     		mov	r1, r4
 1179 0018 2846     		mov	r0, r5
 1180 001a FFF7FEFF 		bl	lv_draw_dispatch_layer
 1181              	.LVL92:
 222:Drivers/lvgl/src/draw/lv_draw.c ****                 task_dispatched = true;
 1182              		.loc 1 222 15 discriminator 1 view .LVU383
 1183 001e 0028     		cmp	r0, #0
 1184 0020 F7D0     		beq	.L106
ARM GAS  /var/folders/qx/2_175_4n2s19vhvtspjhb3qh0000gn/T//ccRXOHgw.s 			page 40


 223:Drivers/lvgl/src/draw/lv_draw.c ****             layer = layer->next;
 1185              		.loc 1 223 33 view .LVU384
 1186 0022 0646     		mov	r6, r0
 1187              	.LVL93:
 223:Drivers/lvgl/src/draw/lv_draw.c ****             layer = layer->next;
 1188              		.loc 1 223 33 view .LVU385
 1189 0024 F5E7     		b	.L106
 1190              	.LVL94:
 1191              	.L111:
 223:Drivers/lvgl/src/draw/lv_draw.c ****             layer = layer->next;
 1192              		.loc 1 223 33 view .LVU386
 1193              	.LBE24:
 227:Drivers/lvgl/src/draw/lv_draw.c ****         lv_draw_wait_for_finish();
 1194              		.loc 1 227 5 is_stmt 1 view .LVU387
 227:Drivers/lvgl/src/draw/lv_draw.c ****         lv_draw_wait_for_finish();
 1195              		.loc 1 227 7 is_stmt 0 view .LVU388
 1196 0026 0EB9     		cbnz	r6, .L103
 1197              	.LVL95:
 1198              	.L104:
 228:Drivers/lvgl/src/draw/lv_draw.c ****         lv_draw_dispatch_request();
 1199              		.loc 1 228 9 is_stmt 1 view .LVU389
 229:Drivers/lvgl/src/draw/lv_draw.c ****     }
 1200              		.loc 1 229 9 view .LVU390
 1201 0028 FFF7FEFF 		bl	lv_draw_dispatch_request
 1202              	.LVL96:
 231:Drivers/lvgl/src/draw/lv_draw.c **** }
 1203              		.loc 1 231 25 view .LVU391
 1204              	.L103:
 232:Drivers/lvgl/src/draw/lv_draw.c **** 
 1205              		.loc 1 232 1 is_stmt 0 view .LVU392
 1206 002c 70BD     		pop	{r4, r5, r6, pc}
 1207              		.cfi_endproc
 1208              	.LFE199:
 1210              		.section	.text.lv_draw_finalize_task_creation,"ax",%progbits
 1211              		.align	1
 1212              		.global	lv_draw_finalize_task_creation
 1213              		.syntax unified
 1214              		.thumb
 1215              		.thumb_func
 1217              	lv_draw_finalize_task_creation:
 1218              	.LVL97:
 1219              	.LFB197:
 135:Drivers/lvgl/src/draw/lv_draw.c ****     LV_PROFILER_DRAW_BEGIN;
 1220              		.loc 1 135 1 is_stmt 1 view -0
 1221              		.cfi_startproc
 1222              		@ args = 0, pretend = 0, frame = 0
 1223              		@ frame_needed = 0, uses_anonymous_args = 0
 135:Drivers/lvgl/src/draw/lv_draw.c ****     LV_PROFILER_DRAW_BEGIN;
 1224              		.loc 1 135 1 is_stmt 0 view .LVU394
 1225 0000 70B5     		push	{r4, r5, r6, lr}
 1226              	.LCFI9:
 1227              		.cfi_def_cfa_offset 16
 1228              		.cfi_offset 4, -16
 1229              		.cfi_offset 5, -12
 1230              		.cfi_offset 6, -8
 1231              		.cfi_offset 14, -4
 1232 0002 0D46     		mov	r5, r1
ARM GAS  /var/folders/qx/2_175_4n2s19vhvtspjhb3qh0000gn/T//ccRXOHgw.s 			page 41


 136:Drivers/lvgl/src/draw/lv_draw.c ****     lv_draw_dsc_base_t * base_dsc = t->draw_dsc;
 1233              		.loc 1 136 27 is_stmt 1 view .LVU395
 137:Drivers/lvgl/src/draw/lv_draw.c ****     base_dsc->layer = layer;
 1234              		.loc 1 137 5 view .LVU396
 137:Drivers/lvgl/src/draw/lv_draw.c ****     base_dsc->layer = layer;
 1235              		.loc 1 137 26 is_stmt 0 view .LVU397
 1236 0004 4C6D     		ldr	r4, [r1, #84]
 1237              	.LVL98:
 138:Drivers/lvgl/src/draw/lv_draw.c **** 
 1238              		.loc 1 138 5 is_stmt 1 view .LVU398
 138:Drivers/lvgl/src/draw/lv_draw.c **** 
 1239              		.loc 1 138 21 is_stmt 0 view .LVU399
 1240 0006 2061     		str	r0, [r4, #16]
 140:Drivers/lvgl/src/draw/lv_draw.c **** 
 1241              		.loc 1 140 5 is_stmt 1 view .LVU400
 1242              	.LVL99:
 147:Drivers/lvgl/src/draw/lv_draw.c ****         if(base_dsc->obj && lv_obj_has_flag(base_dsc->obj, LV_OBJ_FLAG_SEND_DRAW_TASK_EVENTS)) {
 1243              		.loc 1 147 5 view .LVU401
 147:Drivers/lvgl/src/draw/lv_draw.c ****         if(base_dsc->obj && lv_obj_has_flag(base_dsc->obj, LV_OBJ_FLAG_SEND_DRAW_TASK_EVENTS)) {
 1244              		.loc 1 147 12 is_stmt 0 view .LVU402
 1245 0008 234B     		ldr	r3, .L126
 1246 000a 93F84831 		ldrb	r3, [r3, #328]	@ zero_extendqisi2
 147:Drivers/lvgl/src/draw/lv_draw.c ****         if(base_dsc->obj && lv_obj_has_flag(base_dsc->obj, LV_OBJ_FLAG_SEND_DRAW_TASK_EVENTS)) {
 1247              		.loc 1 147 7 view .LVU403
 1248 000e 7BBB     		cbnz	r3, .L113
 1249              	.LBB25:
 148:Drivers/lvgl/src/draw/lv_draw.c ****             info->task_running = true;
 1250              		.loc 1 148 9 is_stmt 1 view .LVU404
 148:Drivers/lvgl/src/draw/lv_draw.c ****             info->task_running = true;
 1251              		.loc 1 148 20 is_stmt 0 view .LVU405
 1252 0010 2068     		ldr	r0, [r4]
 1253              	.LVL100:
 148:Drivers/lvgl/src/draw/lv_draw.c ****             info->task_running = true;
 1254              		.loc 1 148 11 view .LVU406
 1255 0012 20B1     		cbz	r0, .L114
 148:Drivers/lvgl/src/draw/lv_draw.c ****             info->task_running = true;
 1256              		.loc 1 148 29 discriminator 1 view .LVU407
 1257 0014 4FF40021 		mov	r1, #524288
 1258              	.LVL101:
 148:Drivers/lvgl/src/draw/lv_draw.c ****             info->task_running = true;
 1259              		.loc 1 148 29 discriminator 1 view .LVU408
 1260 0018 FFF7FEFF 		bl	lv_obj_has_flag
 1261              	.LVL102:
 148:Drivers/lvgl/src/draw/lv_draw.c ****             info->task_running = true;
 1262              		.loc 1 148 26 discriminator 1 view .LVU409
 1263 001c 48B9     		cbnz	r0, .L124
 1264              	.L114:
 155:Drivers/lvgl/src/draw/lv_draw.c ****         t->preferred_draw_unit_id = 0;
 1265              		.loc 1 155 9 is_stmt 1 view .LVU410
 155:Drivers/lvgl/src/draw/lv_draw.c ****         t->preferred_draw_unit_id = 0;
 1266              		.loc 1 155 29 is_stmt 0 view .LVU411
 1267 001e 6423     		movs	r3, #100
 1268 0020 85F85A30 		strb	r3, [r5, #90]
 156:Drivers/lvgl/src/draw/lv_draw.c ****         lv_draw_unit_t * u = info->unit_head;
 1269              		.loc 1 156 9 is_stmt 1 view .LVU412
 156:Drivers/lvgl/src/draw/lv_draw.c ****         lv_draw_unit_t * u = info->unit_head;
 1270              		.loc 1 156 35 is_stmt 0 view .LVU413
ARM GAS  /var/folders/qx/2_175_4n2s19vhvtspjhb3qh0000gn/T//ccRXOHgw.s 			page 42


 1271 0024 0023     		movs	r3, #0
 1272 0026 85F85930 		strb	r3, [r5, #89]
 157:Drivers/lvgl/src/draw/lv_draw.c ****         while(u) {
 1273              		.loc 1 157 9 is_stmt 1 view .LVU414
 157:Drivers/lvgl/src/draw/lv_draw.c ****         while(u) {
 1274              		.loc 1 157 26 is_stmt 0 view .LVU415
 1275 002a 1B4B     		ldr	r3, .L126
 1276 002c D3F83441 		ldr	r4, [r3, #308]
 1277              	.LVL103:
 158:Drivers/lvgl/src/draw/lv_draw.c ****             if(u->evaluate_cb) {
 1278              		.loc 1 158 9 is_stmt 1 view .LVU416
 158:Drivers/lvgl/src/draw/lv_draw.c ****             if(u->evaluate_cb) {
 1279              		.loc 1 158 14 is_stmt 0 view .LVU417
 1280 0030 0DE0     		b	.L115
 1281              	.LVL104:
 1282              	.L124:
 149:Drivers/lvgl/src/draw/lv_draw.c ****             lv_obj_send_event(base_dsc->obj, LV_EVENT_DRAW_TASK_ADDED, t);
 1283              		.loc 1 149 13 is_stmt 1 view .LVU418
 149:Drivers/lvgl/src/draw/lv_draw.c ****             lv_obj_send_event(base_dsc->obj, LV_EVENT_DRAW_TASK_ADDED, t);
 1284              		.loc 1 149 32 is_stmt 0 view .LVU419
 1285 0032 194E     		ldr	r6, .L126
 1286 0034 0123     		movs	r3, #1
 1287 0036 86F84831 		strb	r3, [r6, #328]
 150:Drivers/lvgl/src/draw/lv_draw.c ****             info->task_running = false;
 1288              		.loc 1 150 13 is_stmt 1 view .LVU420
 1289 003a 2A46     		mov	r2, r5
 1290 003c 2221     		movs	r1, #34
 1291 003e 2068     		ldr	r0, [r4]
 1292 0040 FFF7FEFF 		bl	lv_obj_send_event
 1293              	.LVL105:
 151:Drivers/lvgl/src/draw/lv_draw.c ****         }
 1294              		.loc 1 151 13 view .LVU421
 151:Drivers/lvgl/src/draw/lv_draw.c ****         }
 1295              		.loc 1 151 32 is_stmt 0 view .LVU422
 1296 0044 0023     		movs	r3, #0
 1297 0046 86F84831 		strb	r3, [r6, #328]
 1298 004a E8E7     		b	.L114
 1299              	.LVL106:
 1300              	.L116:
 163:Drivers/lvgl/src/draw/lv_draw.c ****                 LV_PROFILER_DRAW_END_TAG("evaluate_cb");
 1301              		.loc 1 163 50 is_stmt 1 view .LVU423
 164:Drivers/lvgl/src/draw/lv_draw.c ****             }
 1302              		.loc 1 164 56 view .LVU424
 166:Drivers/lvgl/src/draw/lv_draw.c ****         }
 1303              		.loc 1 166 13 view .LVU425
 166:Drivers/lvgl/src/draw/lv_draw.c ****         }
 1304              		.loc 1 166 15 is_stmt 0 view .LVU426
 1305 004c 2468     		ldr	r4, [r4]
 1306              	.LVL107:
 1307              	.L115:
 158:Drivers/lvgl/src/draw/lv_draw.c ****             if(u->evaluate_cb) {
 1308              		.loc 1 158 15 is_stmt 1 view .LVU427
 1309 004e 34B1     		cbz	r4, .L125
 159:Drivers/lvgl/src/draw/lv_draw.c ****                 LV_PROFILER_DRAW_BEGIN_TAG("evaluate_cb");
 1310              		.loc 1 159 13 view .LVU428
 159:Drivers/lvgl/src/draw/lv_draw.c ****                 LV_PROFILER_DRAW_BEGIN_TAG("evaluate_cb");
 1311              		.loc 1 159 17 is_stmt 0 view .LVU429
ARM GAS  /var/folders/qx/2_175_4n2s19vhvtspjhb3qh0000gn/T//ccRXOHgw.s 			page 43


 1312 0050 2369     		ldr	r3, [r4, #16]
 159:Drivers/lvgl/src/draw/lv_draw.c ****                 LV_PROFILER_DRAW_BEGIN_TAG("evaluate_cb");
 1313              		.loc 1 159 15 view .LVU430
 1314 0052 002B     		cmp	r3, #0
 1315 0054 FAD0     		beq	.L116
 160:Drivers/lvgl/src/draw/lv_draw.c ****                 LV_PROFILER_DRAW_BEGIN_TAG(u->name);
 1316              		.loc 1 160 58 is_stmt 1 view .LVU431
 161:Drivers/lvgl/src/draw/lv_draw.c ****                 u->evaluate_cb(u, t);
 1317              		.loc 1 161 52 view .LVU432
 162:Drivers/lvgl/src/draw/lv_draw.c ****                 LV_PROFILER_DRAW_END_TAG(u->name);
 1318              		.loc 1 162 17 view .LVU433
 1319 0056 2946     		mov	r1, r5
 1320 0058 2046     		mov	r0, r4
 1321 005a 9847     		blx	r3
 1322              	.LVL108:
 1323 005c F6E7     		b	.L116
 1324              	.L125:
 168:Drivers/lvgl/src/draw/lv_draw.c ****             LV_LOG_WARN("the draw task was not taken by any units");
 1325              		.loc 1 168 9 view .LVU434
 168:Drivers/lvgl/src/draw/lv_draw.c ****             LV_LOG_WARN("the draw task was not taken by any units");
 1326              		.loc 1 168 13 is_stmt 0 view .LVU435
 1327 005e 95F85930 		ldrb	r3, [r5, #89]	@ zero_extendqisi2
 168:Drivers/lvgl/src/draw/lv_draw.c ****             LV_LOG_WARN("the draw task was not taken by any units");
 1328              		.loc 1 168 11 view .LVU436
 1329 0062 13B9     		cbnz	r3, .L118
 169:Drivers/lvgl/src/draw/lv_draw.c ****             t->state = LV_DRAW_TASK_STATE_FINISHED;
 1330              		.loc 1 169 13 is_stmt 1 view .LVU437
 169:Drivers/lvgl/src/draw/lv_draw.c ****             t->state = LV_DRAW_TASK_STATE_FINISHED;
 1331              		.loc 1 169 13 view .LVU438
 169:Drivers/lvgl/src/draw/lv_draw.c ****             t->state = LV_DRAW_TASK_STATE_FINISHED;
 1332              		.loc 1 169 13 view .LVU439
 170:Drivers/lvgl/src/draw/lv_draw.c ****         }
 1333              		.loc 1 170 13 view .LVU440
 170:Drivers/lvgl/src/draw/lv_draw.c ****         }
 1334              		.loc 1 170 22 is_stmt 0 view .LVU441
 1335 0064 0423     		movs	r3, #4
 1336 0066 2B65     		str	r3, [r5, #80]
 1337              	.LVL109:
 1338              	.L112:
 170:Drivers/lvgl/src/draw/lv_draw.c ****         }
 1339              		.loc 1 170 22 view .LVU442
 1340              	.LBE25:
 193:Drivers/lvgl/src/draw/lv_draw.c **** 
 1341              		.loc 1 193 1 view .LVU443
 1342 0068 70BD     		pop	{r4, r5, r6, pc}
 1343              	.LVL110:
 1344              	.L118:
 1345              	.LBB26:
 173:Drivers/lvgl/src/draw/lv_draw.c ****         }
 1346              		.loc 1 173 13 is_stmt 1 view .LVU444
 1347 006a FFF7FEFF 		bl	lv_draw_dispatch
 1348              	.LVL111:
 1349 006e FBE7     		b	.L112
 1350              	.LVL112:
 1351              	.L113:
 173:Drivers/lvgl/src/draw/lv_draw.c ****         }
 1352              		.loc 1 173 13 is_stmt 0 view .LVU445
ARM GAS  /var/folders/qx/2_175_4n2s19vhvtspjhb3qh0000gn/T//ccRXOHgw.s 			page 44


 1353              	.LBE26:
 1354              	.LBB27:
 178:Drivers/lvgl/src/draw/lv_draw.c ****         t->preferred_draw_unit_id = 0;
 1355              		.loc 1 178 9 is_stmt 1 view .LVU446
 178:Drivers/lvgl/src/draw/lv_draw.c ****         t->preferred_draw_unit_id = 0;
 1356              		.loc 1 178 29 is_stmt 0 view .LVU447
 1357 0070 6423     		movs	r3, #100
 1358 0072 81F85A30 		strb	r3, [r1, #90]
 179:Drivers/lvgl/src/draw/lv_draw.c ****         lv_draw_unit_t * u = info->unit_head;
 1359              		.loc 1 179 9 is_stmt 1 view .LVU448
 179:Drivers/lvgl/src/draw/lv_draw.c ****         lv_draw_unit_t * u = info->unit_head;
 1360              		.loc 1 179 35 is_stmt 0 view .LVU449
 1361 0076 0023     		movs	r3, #0
 1362 0078 81F85930 		strb	r3, [r1, #89]
 180:Drivers/lvgl/src/draw/lv_draw.c ****         while(u) {
 1363              		.loc 1 180 9 is_stmt 1 view .LVU450
 180:Drivers/lvgl/src/draw/lv_draw.c ****         while(u) {
 1364              		.loc 1 180 26 is_stmt 0 view .LVU451
 1365 007c 064B     		ldr	r3, .L126
 1366 007e D3F83441 		ldr	r4, [r3, #308]
 1367              	.LVL113:
 181:Drivers/lvgl/src/draw/lv_draw.c ****             if(u->evaluate_cb) {
 1368              		.loc 1 181 9 is_stmt 1 view .LVU452
 181:Drivers/lvgl/src/draw/lv_draw.c ****             if(u->evaluate_cb) {
 1369              		.loc 1 181 14 is_stmt 0 view .LVU453
 1370 0082 00E0     		b	.L120
 1371              	.LVL114:
 1372              	.L121:
 186:Drivers/lvgl/src/draw/lv_draw.c ****                 LV_PROFILER_DRAW_END_TAG("evaluate_cb");
 1373              		.loc 1 186 50 is_stmt 1 view .LVU454
 187:Drivers/lvgl/src/draw/lv_draw.c ****             }
 1374              		.loc 1 187 56 view .LVU455
 189:Drivers/lvgl/src/draw/lv_draw.c ****         }
 1375              		.loc 1 189 13 view .LVU456
 189:Drivers/lvgl/src/draw/lv_draw.c ****         }
 1376              		.loc 1 189 15 is_stmt 0 view .LVU457
 1377 0084 2468     		ldr	r4, [r4]
 1378              	.LVL115:
 1379              	.L120:
 181:Drivers/lvgl/src/draw/lv_draw.c ****             if(u->evaluate_cb) {
 1380              		.loc 1 181 15 is_stmt 1 view .LVU458
 1381 0086 002C     		cmp	r4, #0
 1382 0088 EED0     		beq	.L112
 182:Drivers/lvgl/src/draw/lv_draw.c ****                 LV_PROFILER_DRAW_BEGIN_TAG("evaluate_cb");
 1383              		.loc 1 182 13 view .LVU459
 182:Drivers/lvgl/src/draw/lv_draw.c ****                 LV_PROFILER_DRAW_BEGIN_TAG("evaluate_cb");
 1384              		.loc 1 182 17 is_stmt 0 view .LVU460
 1385 008a 2369     		ldr	r3, [r4, #16]
 182:Drivers/lvgl/src/draw/lv_draw.c ****                 LV_PROFILER_DRAW_BEGIN_TAG("evaluate_cb");
 1386              		.loc 1 182 15 view .LVU461
 1387 008c 002B     		cmp	r3, #0
 1388 008e F9D0     		beq	.L121
 183:Drivers/lvgl/src/draw/lv_draw.c ****                 LV_PROFILER_DRAW_BEGIN_TAG(u->name);
 1389              		.loc 1 183 58 is_stmt 1 view .LVU462
 184:Drivers/lvgl/src/draw/lv_draw.c ****                 u->evaluate_cb(u, t);
 1390              		.loc 1 184 52 view .LVU463
 185:Drivers/lvgl/src/draw/lv_draw.c ****                 LV_PROFILER_DRAW_END_TAG(u->name);
ARM GAS  /var/folders/qx/2_175_4n2s19vhvtspjhb3qh0000gn/T//ccRXOHgw.s 			page 45


 1391              		.loc 1 185 17 view .LVU464
 1392 0090 2946     		mov	r1, r5
 1393 0092 2046     		mov	r0, r4
 1394 0094 9847     		blx	r3
 1395              	.LVL116:
 1396 0096 F5E7     		b	.L121
 1397              	.L127:
 1398              		.align	2
 1399              	.L126:
 1400 0098 00000000 		.word	lv_global
 1401              	.LBE27:
 1402              		.cfi_endproc
 1403              	.LFE197:
 1405              		.section	.text.lv_draw_get_unit_count,"ax",%progbits
 1406              		.align	1
 1407              		.global	lv_draw_get_unit_count
 1408              		.syntax unified
 1409              		.thumb
 1410              		.thumb_func
 1412              	lv_draw_get_unit_count:
 1413              	.LFB203:
 320:Drivers/lvgl/src/draw/lv_draw.c ****     return _draw_info.unit_cnt;
 1414              		.loc 1 320 1 view -0
 1415              		.cfi_startproc
 1416              		@ args = 0, pretend = 0, frame = 0
 1417              		@ frame_needed = 0, uses_anonymous_args = 0
 1418              		@ link register save eliminated.
 321:Drivers/lvgl/src/draw/lv_draw.c **** }
 1419              		.loc 1 321 5 view .LVU466
 322:Drivers/lvgl/src/draw/lv_draw.c **** 
 1420              		.loc 1 322 1 is_stmt 0 view .LVU467
 1421 0000 014B     		ldr	r3, .L129
 1422 0002 D3F83801 		ldr	r0, [r3, #312]
 1423 0006 7047     		bx	lr
 1424              	.L130:
 1425              		.align	2
 1426              	.L129:
 1427 0008 00000000 		.word	lv_global
 1428              		.cfi_endproc
 1429              	.LFE203:
 1431              		.section	.text.lv_draw_get_next_available_task,"ax",%progbits
 1432              		.align	1
 1433              		.global	lv_draw_get_next_available_task
 1434              		.syntax unified
 1435              		.thumb
 1436              		.thumb_func
 1438              	lv_draw_get_next_available_task:
 1439              	.LVL117:
 1440              	.LFB205:
 335:Drivers/lvgl/src/draw/lv_draw.c ****     LV_PROFILER_DRAW_BEGIN;
 1441              		.loc 1 335 1 is_stmt 1 view -0
 1442              		.cfi_startproc
 1443              		@ args = 0, pretend = 0, frame = 0
 1444              		@ frame_needed = 0, uses_anonymous_args = 0
 335:Drivers/lvgl/src/draw/lv_draw.c ****     LV_PROFILER_DRAW_BEGIN;
 1445              		.loc 1 335 1 is_stmt 0 view .LVU469
 1446 0000 F8B5     		push	{r3, r4, r5, r6, r7, lr}
ARM GAS  /var/folders/qx/2_175_4n2s19vhvtspjhb3qh0000gn/T//ccRXOHgw.s 			page 46


 1447              	.LCFI10:
 1448              		.cfi_def_cfa_offset 24
 1449              		.cfi_offset 3, -24
 1450              		.cfi_offset 4, -20
 1451              		.cfi_offset 5, -16
 1452              		.cfi_offset 6, -12
 1453              		.cfi_offset 7, -8
 1454              		.cfi_offset 14, -4
 1455 0002 0646     		mov	r6, r0
 1456 0004 0C46     		mov	r4, r1
 1457 0006 1546     		mov	r5, r2
 336:Drivers/lvgl/src/draw/lv_draw.c **** 
 1458              		.loc 1 336 27 is_stmt 1 view .LVU470
 339:Drivers/lvgl/src/draw/lv_draw.c ****         int32_t hor_res = lv_display_get_horizontal_resolution(lv_refr_get_disp_refreshing());
 1459              		.loc 1 339 5 view .LVU471
 339:Drivers/lvgl/src/draw/lv_draw.c ****         int32_t hor_res = lv_display_get_horizontal_resolution(lv_refr_get_disp_refreshing());
 1460              		.loc 1 339 13 is_stmt 0 view .LVU472
 1461 0008 4368     		ldr	r3, [r0, #4]
 339:Drivers/lvgl/src/draw/lv_draw.c ****         int32_t hor_res = lv_display_get_horizontal_resolution(lv_refr_get_disp_refreshing());
 1462              		.loc 1 339 7 view .LVU473
 1463 000a 7BB1     		cbz	r3, .L132
 1464              	.LBB28:
 340:Drivers/lvgl/src/draw/lv_draw.c ****         int32_t ver_res = lv_display_get_vertical_resolution(lv_refr_get_disp_refreshing());
 1465              		.loc 1 340 9 is_stmt 1 view .LVU474
 340:Drivers/lvgl/src/draw/lv_draw.c ****         int32_t ver_res = lv_display_get_vertical_resolution(lv_refr_get_disp_refreshing());
 1466              		.loc 1 340 64 is_stmt 0 view .LVU475
 1467 000c FFF7FEFF 		bl	lv_refr_get_disp_refreshing
 1468              	.LVL118:
 340:Drivers/lvgl/src/draw/lv_draw.c ****         int32_t ver_res = lv_display_get_vertical_resolution(lv_refr_get_disp_refreshing());
 1469              		.loc 1 340 27 discriminator 1 view .LVU476
 1470 0010 FFF7FEFF 		bl	lv_display_get_horizontal_resolution
 1471              	.LVL119:
 1472 0014 0746     		mov	r7, r0
 1473              	.LVL120:
 341:Drivers/lvgl/src/draw/lv_draw.c ****         lv_draw_task_t * t = layer->draw_task_head;
 1474              		.loc 1 341 9 is_stmt 1 view .LVU477
 341:Drivers/lvgl/src/draw/lv_draw.c ****         lv_draw_task_t * t = layer->draw_task_head;
 1475              		.loc 1 341 62 is_stmt 0 view .LVU478
 1476 0016 FFF7FEFF 		bl	lv_refr_get_disp_refreshing
 1477              	.LVL121:
 341:Drivers/lvgl/src/draw/lv_draw.c ****         lv_draw_task_t * t = layer->draw_task_head;
 1478              		.loc 1 341 27 discriminator 1 view .LVU479
 1479 001a FFF7FEFF 		bl	lv_display_get_vertical_resolution
 1480              	.LVL122:
 342:Drivers/lvgl/src/draw/lv_draw.c ****         if(t->state != LV_DRAW_TASK_STATE_WAITING &&
 1481              		.loc 1 342 9 is_stmt 1 view .LVU480
 342:Drivers/lvgl/src/draw/lv_draw.c ****         if(t->state != LV_DRAW_TASK_STATE_WAITING &&
 1482              		.loc 1 342 26 is_stmt 0 view .LVU481
 1483 001e 7368     		ldr	r3, [r6, #4]
 1484              	.LVL123:
 343:Drivers/lvgl/src/draw/lv_draw.c ****            t->area.x1 <= 0 && t->area.x2 >= hor_res - 1 &&
 1485              		.loc 1 343 9 is_stmt 1 view .LVU482
 343:Drivers/lvgl/src/draw/lv_draw.c ****            t->area.x1 <= 0 && t->area.x2 >= hor_res - 1 &&
 1486              		.loc 1 343 13 is_stmt 0 view .LVU483
 1487 0020 1A6D     		ldr	r2, [r3, #80]
 343:Drivers/lvgl/src/draw/lv_draw.c ****            t->area.x1 <= 0 && t->area.x2 >= hor_res - 1 &&
 1488              		.loc 1 343 11 view .LVU484
ARM GAS  /var/folders/qx/2_175_4n2s19vhvtspjhb3qh0000gn/T//ccRXOHgw.s 			page 47


 1489 0022 012A     		cmp	r2, #1
 1490 0024 02D0     		beq	.L132
 344:Drivers/lvgl/src/draw/lv_draw.c ****            t->area.y1 <= 0 && t->area.y2 >= ver_res - 1) {
 1491              		.loc 1 344 19 view .LVU485
 1492 0026 9A68     		ldr	r2, [r3, #8]
 343:Drivers/lvgl/src/draw/lv_draw.c ****            t->area.x1 <= 0 && t->area.x2 >= hor_res - 1 &&
 1493              		.loc 1 343 51 discriminator 1 view .LVU486
 1494 0028 002A     		cmp	r2, #0
 1495 002a 02DD     		ble	.L142
 1496              	.LVL124:
 1497              	.L132:
 343:Drivers/lvgl/src/draw/lv_draw.c ****            t->area.x1 <= 0 && t->area.x2 >= hor_res - 1 &&
 1498              		.loc 1 343 51 discriminator 1 view .LVU487
 1499              	.LBE28:
 351:Drivers/lvgl/src/draw/lv_draw.c ****     while(t) {
 1500              		.loc 1 351 5 is_stmt 1 view .LVU488
 351:Drivers/lvgl/src/draw/lv_draw.c ****     while(t) {
 1501              		.loc 1 351 48 is_stmt 0 view .LVU489
 1502 002c 74B1     		cbz	r4, .L134
 351:Drivers/lvgl/src/draw/lv_draw.c ****     while(t) {
 1503              		.loc 1 351 48 discriminator 1 view .LVU490
 1504 002e 2468     		ldr	r4, [r4]
 1505              	.LVL125:
 351:Drivers/lvgl/src/draw/lv_draw.c ****     while(t) {
 1506              		.loc 1 351 48 discriminator 1 view .LVU491
 1507 0030 12E0     		b	.L138
 1508              	.LVL126:
 1509              	.L142:
 1510              	.LBB29:
 344:Drivers/lvgl/src/draw/lv_draw.c ****            t->area.y1 <= 0 && t->area.y2 >= ver_res - 1) {
 1511              		.loc 1 344 38 view .LVU492
 1512 0032 1A69     		ldr	r2, [r3, #16]
 344:Drivers/lvgl/src/draw/lv_draw.c ****            t->area.y1 <= 0 && t->area.y2 >= ver_res - 1) {
 1513              		.loc 1 344 53 view .LVU493
 1514 0034 013F     		subs	r7, r7, #1
 1515              	.LVL127:
 344:Drivers/lvgl/src/draw/lv_draw.c ****            t->area.y1 <= 0 && t->area.y2 >= ver_res - 1) {
 1516              		.loc 1 344 28 view .LVU494
 1517 0036 BA42     		cmp	r2, r7
 1518 0038 F8DB     		blt	.L132
 345:Drivers/lvgl/src/draw/lv_draw.c ****             LV_PROFILER_DRAW_END;
 1519              		.loc 1 345 19 view .LVU495
 1520 003a DA68     		ldr	r2, [r3, #12]
 344:Drivers/lvgl/src/draw/lv_draw.c ****            t->area.y1 <= 0 && t->area.y2 >= ver_res - 1) {
 1521              		.loc 1 344 57 discriminator 1 view .LVU496
 1522 003c 002A     		cmp	r2, #0
 1523 003e F5DC     		bgt	.L132
 345:Drivers/lvgl/src/draw/lv_draw.c ****             LV_PROFILER_DRAW_END;
 1524              		.loc 1 345 38 view .LVU497
 1525 0040 5B69     		ldr	r3, [r3, #20]
 1526              	.LVL128:
 345:Drivers/lvgl/src/draw/lv_draw.c ****             LV_PROFILER_DRAW_END;
 1527              		.loc 1 345 53 view .LVU498
 1528 0042 0138     		subs	r0, r0, #1
 1529              	.LVL129:
 345:Drivers/lvgl/src/draw/lv_draw.c ****             LV_PROFILER_DRAW_END;
 1530              		.loc 1 345 28 view .LVU499
ARM GAS  /var/folders/qx/2_175_4n2s19vhvtspjhb3qh0000gn/T//ccRXOHgw.s 			page 48


 1531 0044 8342     		cmp	r3, r0
 1532 0046 F1DB     		blt	.L132
 347:Drivers/lvgl/src/draw/lv_draw.c ****         }
 1533              		.loc 1 347 20 view .LVU500
 1534 0048 0024     		movs	r4, #0
 1535              	.LVL130:
 347:Drivers/lvgl/src/draw/lv_draw.c ****         }
 1536              		.loc 1 347 20 view .LVU501
 1537 004a 14E0     		b	.L131
 1538              	.LVL131:
 1539              	.L134:
 347:Drivers/lvgl/src/draw/lv_draw.c ****         }
 1540              		.loc 1 347 20 view .LVU502
 1541              	.LBE29:
 351:Drivers/lvgl/src/draw/lv_draw.c ****     while(t) {
 1542              		.loc 1 351 48 discriminator 2 view .LVU503
 1543 004c 7468     		ldr	r4, [r6, #4]
 1544              	.LVL132:
 351:Drivers/lvgl/src/draw/lv_draw.c ****     while(t) {
 1545              		.loc 1 351 48 discriminator 2 view .LVU504
 1546 004e 03E0     		b	.L138
 1547              	.LVL133:
 1548              	.L136:
 355:Drivers/lvgl/src/draw/lv_draw.c ****            is_independent(layer, t, draw_unit_id)) {
 1549              		.loc 1 355 13 view .LVU505
 1550 0050 236D     		ldr	r3, [r4, #80]
 354:Drivers/lvgl/src/draw/lv_draw.c ****            t->state == LV_DRAW_TASK_STATE_WAITING &&
 1551              		.loc 1 354 106 discriminator 3 view .LVU506
 1552 0052 012B     		cmp	r3, #1
 1553 0054 08D0     		beq	.L143
 1554              	.L137:
 361:Drivers/lvgl/src/draw/lv_draw.c ****     }
 1555              		.loc 1 361 9 is_stmt 1 view .LVU507
 361:Drivers/lvgl/src/draw/lv_draw.c ****     }
 1556              		.loc 1 361 11 is_stmt 0 view .LVU508
 1557 0056 2468     		ldr	r4, [r4]
 1558              	.LVL134:
 1559              	.L138:
 352:Drivers/lvgl/src/draw/lv_draw.c ****         /*Find a draw task for this draw unit which is waiting and independent?*/
 1560              		.loc 1 352 11 is_stmt 1 view .LVU509
 1561 0058 6CB1     		cbz	r4, .L131
 354:Drivers/lvgl/src/draw/lv_draw.c ****            t->state == LV_DRAW_TASK_STATE_WAITING &&
 1562              		.loc 1 354 9 view .LVU510
 354:Drivers/lvgl/src/draw/lv_draw.c ****            t->state == LV_DRAW_TASK_STATE_WAITING &&
 1563              		.loc 1 354 14 is_stmt 0 view .LVU511
 1564 005a 94F85930 		ldrb	r3, [r4, #89]	@ zero_extendqisi2
 354:Drivers/lvgl/src/draw/lv_draw.c ****            t->state == LV_DRAW_TASK_STATE_WAITING &&
 1565              		.loc 1 354 11 view .LVU512
 1566 005e AB42     		cmp	r3, r5
 1567 0060 F6D0     		beq	.L136
 354:Drivers/lvgl/src/draw/lv_draw.c ****            t->state == LV_DRAW_TASK_STATE_WAITING &&
 1568              		.loc 1 354 55 discriminator 2 view .LVU513
 1569 0062 002B     		cmp	r3, #0
 1570 0064 F7D1     		bne	.L137
 1571 0066 F3E7     		b	.L136
 1572              	.L143:
 356:Drivers/lvgl/src/draw/lv_draw.c ****             LV_PROFILER_DRAW_END;
ARM GAS  /var/folders/qx/2_175_4n2s19vhvtspjhb3qh0000gn/T//ccRXOHgw.s 			page 49


 1573              		.loc 1 356 12 view .LVU514
 1574 0068 2A46     		mov	r2, r5
 1575 006a 2146     		mov	r1, r4
 1576 006c 3046     		mov	r0, r6
 1577 006e FFF7FEFF 		bl	is_independent
 1578              	.LVL135:
 355:Drivers/lvgl/src/draw/lv_draw.c ****            is_independent(layer, t, draw_unit_id)) {
 1579              		.loc 1 355 51 view .LVU515
 1580 0072 0028     		cmp	r0, #0
 1581 0074 EFD0     		beq	.L137
 1582              	.LVL136:
 1583              	.L131:
 366:Drivers/lvgl/src/draw/lv_draw.c **** 
 1584              		.loc 1 366 1 view .LVU516
 1585 0076 2046     		mov	r0, r4
 1586 0078 F8BD     		pop	{r3, r4, r5, r6, r7, pc}
 366:Drivers/lvgl/src/draw/lv_draw.c **** 
 1587              		.loc 1 366 1 view .LVU517
 1588              		.cfi_endproc
 1589              	.LFE205:
 1591              		.section	.text.lv_draw_get_available_task,"ax",%progbits
 1592              		.align	1
 1593              		.global	lv_draw_get_available_task
 1594              		.syntax unified
 1595              		.thumb
 1596              		.thumb_func
 1598              	lv_draw_get_available_task:
 1599              	.LVL137:
 1600              	.LFB204:
 325:Drivers/lvgl/src/draw/lv_draw.c ****     if(_draw_info.unit_cnt == 1) {
 1601              		.loc 1 325 1 is_stmt 1 view -0
 1602              		.cfi_startproc
 1603              		@ args = 0, pretend = 0, frame = 0
 1604              		@ frame_needed = 0, uses_anonymous_args = 0
 325:Drivers/lvgl/src/draw/lv_draw.c ****     if(_draw_info.unit_cnt == 1) {
 1605              		.loc 1 325 1 is_stmt 0 view .LVU519
 1606 0000 08B5     		push	{r3, lr}
 1607              	.LCFI11:
 1608              		.cfi_def_cfa_offset 8
 1609              		.cfi_offset 3, -8
 1610              		.cfi_offset 14, -4
 326:Drivers/lvgl/src/draw/lv_draw.c ****         return get_first_available_task(layer);
 1611              		.loc 1 326 5 is_stmt 1 view .LVU520
 326:Drivers/lvgl/src/draw/lv_draw.c ****         return get_first_available_task(layer);
 1612              		.loc 1 326 18 is_stmt 0 view .LVU521
 1613 0002 054B     		ldr	r3, .L149
 1614 0004 D3F83831 		ldr	r3, [r3, #312]
 326:Drivers/lvgl/src/draw/lv_draw.c ****         return get_first_available_task(layer);
 1615              		.loc 1 326 7 view .LVU522
 1616 0008 012B     		cmp	r3, #1
 1617 000a 02D0     		beq	.L148
 330:Drivers/lvgl/src/draw/lv_draw.c ****     }
 1618              		.loc 1 330 9 is_stmt 1 view .LVU523
 330:Drivers/lvgl/src/draw/lv_draw.c ****     }
 1619              		.loc 1 330 16 is_stmt 0 view .LVU524
 1620 000c FFF7FEFF 		bl	lv_draw_get_next_available_task
 1621              	.LVL138:
ARM GAS  /var/folders/qx/2_175_4n2s19vhvtspjhb3qh0000gn/T//ccRXOHgw.s 			page 50


 1622              	.L144:
 332:Drivers/lvgl/src/draw/lv_draw.c **** 
 1623              		.loc 1 332 1 view .LVU525
 1624 0010 08BD     		pop	{r3, pc}
 1625              	.LVL139:
 1626              	.L148:
 327:Drivers/lvgl/src/draw/lv_draw.c ****     }
 1627              		.loc 1 327 9 is_stmt 1 view .LVU526
 327:Drivers/lvgl/src/draw/lv_draw.c ****     }
 1628              		.loc 1 327 16 is_stmt 0 view .LVU527
 1629 0012 FFF7FEFF 		bl	get_first_available_task
 1630              	.LVL140:
 327:Drivers/lvgl/src/draw/lv_draw.c ****     }
 1631              		.loc 1 327 16 view .LVU528
 1632 0016 FBE7     		b	.L144
 1633              	.L150:
 1634              		.align	2
 1635              	.L149:
 1636 0018 00000000 		.word	lv_global
 1637              		.cfi_endproc
 1638              	.LFE204:
 1640              		.section	.text.lv_draw_get_dependent_count,"ax",%progbits
 1641              		.align	1
 1642              		.global	lv_draw_get_dependent_count
 1643              		.syntax unified
 1644              		.thumb
 1645              		.thumb_func
 1647              	lv_draw_get_dependent_count:
 1648              	.LVL141:
 1649              	.LFB206:
 369:Drivers/lvgl/src/draw/lv_draw.c ****     if(t_check == NULL) return 0;
 1650              		.loc 1 369 1 is_stmt 1 view -0
 1651              		.cfi_startproc
 1652              		@ args = 0, pretend = 0, frame = 0
 1653              		@ frame_needed = 0, uses_anonymous_args = 0
 369:Drivers/lvgl/src/draw/lv_draw.c ****     if(t_check == NULL) return 0;
 1654              		.loc 1 369 1 is_stmt 0 view .LVU530
 1655 0000 70B5     		push	{r4, r5, r6, lr}
 1656              	.LCFI12:
 1657              		.cfi_def_cfa_offset 16
 1658              		.cfi_offset 4, -16
 1659              		.cfi_offset 5, -12
 1660              		.cfi_offset 6, -8
 1661              		.cfi_offset 14, -4
 370:Drivers/lvgl/src/draw/lv_draw.c ****     if(t_check->next == NULL) return 0;
 1662              		.loc 1 370 5 is_stmt 1 view .LVU531
 370:Drivers/lvgl/src/draw/lv_draw.c ****     if(t_check->next == NULL) return 0;
 1663              		.loc 1 370 7 is_stmt 0 view .LVU532
 1664 0002 B0B1     		cbz	r0, .L157
 1665 0004 0646     		mov	r6, r0
 371:Drivers/lvgl/src/draw/lv_draw.c **** 
 1666              		.loc 1 371 5 is_stmt 1 view .LVU533
 371:Drivers/lvgl/src/draw/lv_draw.c **** 
 1667              		.loc 1 371 15 is_stmt 0 view .LVU534
 1668 0006 0468     		ldr	r4, [r0]
 371:Drivers/lvgl/src/draw/lv_draw.c **** 
 1669              		.loc 1 371 7 view .LVU535
ARM GAS  /var/folders/qx/2_175_4n2s19vhvtspjhb3qh0000gn/T//ccRXOHgw.s 			page 51


 1670 0008 B4B1     		cbz	r4, .L158
 374:Drivers/lvgl/src/draw/lv_draw.c **** 
 1671              		.loc 1 374 14 view .LVU536
 1672 000a 0025     		movs	r5, #0
 1673 000c 00E0     		b	.L153
 1674              	.LVL142:
 1675              	.L155:
 383:Drivers/lvgl/src/draw/lv_draw.c ****     }
 1676              		.loc 1 383 9 is_stmt 1 view .LVU537
 383:Drivers/lvgl/src/draw/lv_draw.c ****     }
 1677              		.loc 1 383 11 is_stmt 0 view .LVU538
 1678 000e 2468     		ldr	r4, [r4]
 1679              	.LVL143:
 1680              	.L153:
 377:Drivers/lvgl/src/draw/lv_draw.c ****         if((t->state == LV_DRAW_TASK_STATE_WAITING || t->state == LV_DRAW_TASK_STATE_BLOCKED) &&
 1681              		.loc 1 377 11 is_stmt 1 view .LVU539
 1682 0010 84B1     		cbz	r4, .L151
 378:Drivers/lvgl/src/draw/lv_draw.c ****            lv_area_is_on(&t_check->area, &t->area)) {
 1683              		.loc 1 378 9 view .LVU540
 378:Drivers/lvgl/src/draw/lv_draw.c ****            lv_area_is_on(&t_check->area, &t->area)) {
 1684              		.loc 1 378 14 is_stmt 0 view .LVU541
 1685 0012 236D     		ldr	r3, [r4, #80]
 378:Drivers/lvgl/src/draw/lv_draw.c ****            lv_area_is_on(&t_check->area, &t->area)) {
 1686              		.loc 1 378 11 view .LVU542
 1687 0014 012B     		cmp	r3, #1
 1688 0016 02D0     		beq	.L154
 378:Drivers/lvgl/src/draw/lv_draw.c ****            lv_area_is_on(&t_check->area, &t->area)) {
 1689              		.loc 1 378 56 discriminator 2 view .LVU543
 1690 0018 236D     		ldr	r3, [r4, #80]
 378:Drivers/lvgl/src/draw/lv_draw.c ****            lv_area_is_on(&t_check->area, &t->area)) {
 1691              		.loc 1 378 52 discriminator 2 view .LVU544
 1692 001a 002B     		cmp	r3, #0
 1693 001c F7D1     		bne	.L155
 1694              	.L154:
 379:Drivers/lvgl/src/draw/lv_draw.c ****             cnt++;
 1695              		.loc 1 379 12 view .LVU545
 1696 001e 04F10801 		add	r1, r4, #8
 1697 0022 06F10800 		add	r0, r6, #8
 1698 0026 FFF7FEFF 		bl	lv_area_is_on
 1699              	.LVL144:
 378:Drivers/lvgl/src/draw/lv_draw.c ****            lv_area_is_on(&t_check->area, &t->area)) {
 1700              		.loc 1 378 95 discriminator 3 view .LVU546
 1701 002a 0028     		cmp	r0, #0
 1702 002c EFD0     		beq	.L155
 380:Drivers/lvgl/src/draw/lv_draw.c ****         }
 1703              		.loc 1 380 13 is_stmt 1 view .LVU547
 380:Drivers/lvgl/src/draw/lv_draw.c ****         }
 1704              		.loc 1 380 16 is_stmt 0 view .LVU548
 1705 002e 0135     		adds	r5, r5, #1
 1706              	.LVL145:
 380:Drivers/lvgl/src/draw/lv_draw.c ****         }
 1707              		.loc 1 380 16 view .LVU549
 1708 0030 EDE7     		b	.L155
 1709              	.LVL146:
 1710              	.L157:
 370:Drivers/lvgl/src/draw/lv_draw.c ****     if(t_check->next == NULL) return 0;
 1711              		.loc 1 370 32 discriminator 1 view .LVU550
ARM GAS  /var/folders/qx/2_175_4n2s19vhvtspjhb3qh0000gn/T//ccRXOHgw.s 			page 52


 1712 0032 0025     		movs	r5, #0
 1713              	.LVL147:
 1714              	.L151:
 387:Drivers/lvgl/src/draw/lv_draw.c **** 
 1715              		.loc 1 387 1 view .LVU551
 1716 0034 2846     		mov	r0, r5
 1717 0036 70BD     		pop	{r4, r5, r6, pc}
 1718              	.LVL148:
 1719              	.L158:
 371:Drivers/lvgl/src/draw/lv_draw.c **** 
 1720              		.loc 1 371 38 discriminator 1 view .LVU552
 1721 0038 0025     		movs	r5, #0
 1722 003a FBE7     		b	.L151
 1723              		.cfi_endproc
 1724              	.LFE206:
 1726              		.section	.text.lv_draw_unit_send_event,"ax",%progbits
 1727              		.align	1
 1728              		.global	lv_draw_unit_send_event
 1729              		.syntax unified
 1730              		.thumb
 1731              		.thumb_func
 1733              	lv_draw_unit_send_event:
 1734              	.LVL149:
 1735              	.LFB207:
 390:Drivers/lvgl/src/draw/lv_draw.c ****     LV_PROFILER_DRAW_BEGIN;
 1736              		.loc 1 390 1 is_stmt 1 view -0
 1737              		.cfi_startproc
 1738              		@ args = 0, pretend = 0, frame = 32
 1739              		@ frame_needed = 0, uses_anonymous_args = 0
 390:Drivers/lvgl/src/draw/lv_draw.c ****     LV_PROFILER_DRAW_BEGIN;
 1740              		.loc 1 390 1 is_stmt 0 view .LVU554
 1741 0000 30B5     		push	{r4, r5, lr}
 1742              	.LCFI13:
 1743              		.cfi_def_cfa_offset 12
 1744              		.cfi_offset 4, -12
 1745              		.cfi_offset 5, -8
 1746              		.cfi_offset 14, -4
 1747 0002 89B0     		sub	sp, sp, #36
 1748              	.LCFI14:
 1749              		.cfi_def_cfa_offset 48
 1750 0004 0546     		mov	r5, r0
 391:Drivers/lvgl/src/draw/lv_draw.c **** 
 1751              		.loc 1 391 27 is_stmt 1 view .LVU555
 393:Drivers/lvgl/src/draw/lv_draw.c ****     event.code = code;
 1752              		.loc 1 393 5 view .LVU556
 393:Drivers/lvgl/src/draw/lv_draw.c ****     event.code = code;
 1753              		.loc 1 393 16 is_stmt 0 view .LVU557
 1754 0006 0023     		movs	r3, #0
 1755 0008 0193     		str	r3, [sp, #4]
 1756 000a 0293     		str	r3, [sp, #8]
 1757 000c 0393     		str	r3, [sp, #12]
 1758 000e 0493     		str	r3, [sp, #16]
 1759 0010 0593     		str	r3, [sp, #20]
 1760 0012 0693     		str	r3, [sp, #24]
 1761 0014 0793     		str	r3, [sp, #28]
 394:Drivers/lvgl/src/draw/lv_draw.c ****     event.param = param;
 1762              		.loc 1 394 5 is_stmt 1 view .LVU558
ARM GAS  /var/folders/qx/2_175_4n2s19vhvtspjhb3qh0000gn/T//ccRXOHgw.s 			page 53


 394:Drivers/lvgl/src/draw/lv_draw.c ****     event.param = param;
 1763              		.loc 1 394 16 is_stmt 0 view .LVU559
 1764 0016 0391     		str	r1, [sp, #12]
 395:Drivers/lvgl/src/draw/lv_draw.c ****     lv_draw_unit_t * u = _draw_info.unit_head;
 1765              		.loc 1 395 5 is_stmt 1 view .LVU560
 395:Drivers/lvgl/src/draw/lv_draw.c ****     lv_draw_unit_t * u = _draw_info.unit_head;
 1766              		.loc 1 395 17 is_stmt 0 view .LVU561
 1767 0018 0592     		str	r2, [sp, #20]
 396:Drivers/lvgl/src/draw/lv_draw.c ****     while(u) {
 1768              		.loc 1 396 5 is_stmt 1 view .LVU562
 396:Drivers/lvgl/src/draw/lv_draw.c ****     while(u) {
 1769              		.loc 1 396 22 is_stmt 0 view .LVU563
 1770 001a 0C4B     		ldr	r3, .L167
 1771 001c D3F83441 		ldr	r4, [r3, #308]
 1772              	.LVL150:
 397:Drivers/lvgl/src/draw/lv_draw.c ****         if(u->event_cb && (!name || lv_strcmp(name, u->name) == 0)) {
 1773              		.loc 1 397 5 is_stmt 1 view .LVU564
 397:Drivers/lvgl/src/draw/lv_draw.c ****         if(u->event_cb && (!name || lv_strcmp(name, u->name) == 0)) {
 1774              		.loc 1 397 10 is_stmt 0 view .LVU565
 1775 0020 05E0     		b	.L161
 1776              	.LVL151:
 1777              	.L163:
 399:Drivers/lvgl/src/draw/lv_draw.c ****             LV_PROFILER_DRAW_BEGIN_TAG("event_cb");
 1778              		.loc 1 399 13 is_stmt 1 view .LVU566
 399:Drivers/lvgl/src/draw/lv_draw.c ****             LV_PROFILER_DRAW_BEGIN_TAG("event_cb");
 1779              		.loc 1 399 58 is_stmt 0 view .LVU567
 1780 0022 0294     		str	r4, [sp, #8]
 399:Drivers/lvgl/src/draw/lv_draw.c ****             LV_PROFILER_DRAW_BEGIN_TAG("event_cb");
 1781              		.loc 1 399 34 view .LVU568
 1782 0024 0194     		str	r4, [sp, #4]
 400:Drivers/lvgl/src/draw/lv_draw.c ****             LV_PROFILER_DRAW_BEGIN_TAG(u->name);
 1783              		.loc 1 400 51 is_stmt 1 view .LVU569
 401:Drivers/lvgl/src/draw/lv_draw.c ****             u->event_cb(&event);
 1784              		.loc 1 401 48 view .LVU570
 402:Drivers/lvgl/src/draw/lv_draw.c ****             LV_PROFILER_DRAW_END_TAG(u->name);
 1785              		.loc 1 402 13 view .LVU571
 402:Drivers/lvgl/src/draw/lv_draw.c ****             LV_PROFILER_DRAW_END_TAG(u->name);
 1786              		.loc 1 402 14 is_stmt 0 view .LVU572
 1787 0026 E369     		ldr	r3, [r4, #28]
 402:Drivers/lvgl/src/draw/lv_draw.c ****             LV_PROFILER_DRAW_END_TAG(u->name);
 1788              		.loc 1 402 13 view .LVU573
 1789 0028 01A8     		add	r0, sp, #4
 1790 002a 9847     		blx	r3
 1791              	.LVL152:
 1792              	.L162:
 403:Drivers/lvgl/src/draw/lv_draw.c ****             LV_PROFILER_DRAW_END_TAG("event_cb");
 1793              		.loc 1 403 46 is_stmt 1 view .LVU574
 404:Drivers/lvgl/src/draw/lv_draw.c ****         }
 1794              		.loc 1 404 49 view .LVU575
 406:Drivers/lvgl/src/draw/lv_draw.c ****     }
 1795              		.loc 1 406 9 view .LVU576
 406:Drivers/lvgl/src/draw/lv_draw.c ****     }
 1796              		.loc 1 406 11 is_stmt 0 view .LVU577
 1797 002c 2468     		ldr	r4, [r4]
 1798              	.LVL153:
 1799              	.L161:
 397:Drivers/lvgl/src/draw/lv_draw.c ****         if(u->event_cb && (!name || lv_strcmp(name, u->name) == 0)) {
ARM GAS  /var/folders/qx/2_175_4n2s19vhvtspjhb3qh0000gn/T//ccRXOHgw.s 			page 54


 1800              		.loc 1 397 11 is_stmt 1 view .LVU578
 1801 002e 5CB1     		cbz	r4, .L166
 398:Drivers/lvgl/src/draw/lv_draw.c ****             event.current_target = event.original_target = u;
 1802              		.loc 1 398 9 view .LVU579
 398:Drivers/lvgl/src/draw/lv_draw.c ****             event.current_target = event.original_target = u;
 1803              		.loc 1 398 13 is_stmt 0 view .LVU580
 1804 0030 E369     		ldr	r3, [r4, #28]
 398:Drivers/lvgl/src/draw/lv_draw.c ****             event.current_target = event.original_target = u;
 1805              		.loc 1 398 11 view .LVU581
 1806 0032 002B     		cmp	r3, #0
 1807 0034 FAD0     		beq	.L162
 398:Drivers/lvgl/src/draw/lv_draw.c ****             event.current_target = event.original_target = u;
 1808              		.loc 1 398 24 discriminator 1 view .LVU582
 1809 0036 002D     		cmp	r5, #0
 1810 0038 F3D0     		beq	.L163
 398:Drivers/lvgl/src/draw/lv_draw.c ****             event.current_target = event.original_target = u;
 1811              		.loc 1 398 37 discriminator 2 view .LVU583
 1812 003a 6168     		ldr	r1, [r4, #4]
 1813 003c 2846     		mov	r0, r5
 1814 003e FFF7FEFF 		bl	lv_strcmp
 1815              	.LVL154:
 398:Drivers/lvgl/src/draw/lv_draw.c ****             event.current_target = event.original_target = u;
 1816              		.loc 1 398 34 discriminator 1 view .LVU584
 1817 0042 0028     		cmp	r0, #0
 1818 0044 F2D1     		bne	.L162
 1819 0046 ECE7     		b	.L163
 1820              	.L166:
 410:Drivers/lvgl/src/draw/lv_draw.c **** 
 1821              		.loc 1 410 1 view .LVU585
 1822 0048 09B0     		add	sp, sp, #36
 1823              	.LCFI15:
 1824              		.cfi_def_cfa_offset 12
 1825              		@ sp needed
 1826 004a 30BD     		pop	{r4, r5, pc}
 1827              	.LVL155:
 1828              	.L168:
 410:Drivers/lvgl/src/draw/lv_draw.c **** 
 1829              		.loc 1 410 1 view .LVU586
 1830              		.align	2
 1831              	.L167:
 1832 004c 00000000 		.word	lv_global
 1833              		.cfi_endproc
 1834              	.LFE207:
 1836              		.section	.text.lv_layer_reset,"ax",%progbits
 1837              		.align	1
 1838              		.global	lv_layer_reset
 1839              		.syntax unified
 1840              		.thumb
 1841              		.thumb_func
 1843              	lv_layer_reset:
 1844              	.LVL156:
 1845              	.LFB209:
 420:Drivers/lvgl/src/draw/lv_draw.c ****     LV_ASSERT_NULL(layer);
 1846              		.loc 1 420 1 is_stmt 1 view -0
 1847              		.cfi_startproc
 1848              		@ args = 0, pretend = 0, frame = 0
 1849              		@ frame_needed = 0, uses_anonymous_args = 0
ARM GAS  /var/folders/qx/2_175_4n2s19vhvtspjhb3qh0000gn/T//ccRXOHgw.s 			page 55


 421:Drivers/lvgl/src/draw/lv_draw.c **** #if LV_DRAW_TRANSFORM_USE_MATRIX
 1850              		.loc 1 421 5 view .LVU588
 421:Drivers/lvgl/src/draw/lv_draw.c **** #if LV_DRAW_TRANSFORM_USE_MATRIX
 1851              		.loc 1 421 5 view .LVU589
 1852 0000 60B1     		cbz	r0, .L171
 420:Drivers/lvgl/src/draw/lv_draw.c ****     LV_ASSERT_NULL(layer);
 1853              		.loc 1 420 1 is_stmt 0 view .LVU590
 1854 0002 10B5     		push	{r4, lr}
 1855              	.LCFI16:
 1856              		.cfi_def_cfa_offset 8
 1857              		.cfi_offset 4, -8
 1858              		.cfi_offset 14, -4
 1859 0004 0446     		mov	r4, r0
 421:Drivers/lvgl/src/draw/lv_draw.c **** #if LV_DRAW_TRANSFORM_USE_MATRIX
 1860              		.loc 1 421 5 is_stmt 1 view .LVU591
 421:Drivers/lvgl/src/draw/lv_draw.c **** #if LV_DRAW_TRANSFORM_USE_MATRIX
 1861              		.loc 1 421 26 view .LVU592
 425:Drivers/lvgl/src/draw/lv_draw.c ****     layer->recolor = lv_color32_make(0, 0, 0, 0);
 1862              		.loc 1 425 5 view .LVU593
 425:Drivers/lvgl/src/draw/lv_draw.c ****     layer->recolor = lv_color32_make(0, 0, 0, 0);
 1863              		.loc 1 425 16 is_stmt 0 view .LVU594
 1864 0006 FF23     		movs	r3, #255
 1865 0008 80F84E30 		strb	r3, [r0, #78]
 426:Drivers/lvgl/src/draw/lv_draw.c **** }
 1866              		.loc 1 426 5 is_stmt 1 view .LVU595
 426:Drivers/lvgl/src/draw/lv_draw.c **** }
 1867              		.loc 1 426 22 is_stmt 0 view .LVU596
 1868 000c 0023     		movs	r3, #0
 1869 000e 1A46     		mov	r2, r3
 1870 0010 1946     		mov	r1, r3
 1871 0012 1846     		mov	r0, r3
 1872              	.LVL157:
 426:Drivers/lvgl/src/draw/lv_draw.c **** }
 1873              		.loc 1 426 22 view .LVU597
 1874 0014 FFF7FEFF 		bl	lv_color32_make
 1875              	.LVL158:
 1876 0018 A064     		str	r0, [r4, #72]
 427:Drivers/lvgl/src/draw/lv_draw.c **** 
 1877              		.loc 1 427 1 view .LVU598
 1878 001a 10BD     		pop	{r4, pc}
 1879              	.LVL159:
 1880              	.L171:
 1881              	.LCFI17:
 1882              		.cfi_def_cfa_offset 0
 1883              		.cfi_restore 4
 1884              		.cfi_restore 14
 421:Drivers/lvgl/src/draw/lv_draw.c **** #if LV_DRAW_TRANSFORM_USE_MATRIX
 1885              		.loc 1 421 5 is_stmt 1 view .LVU599
 421:Drivers/lvgl/src/draw/lv_draw.c **** #if LV_DRAW_TRANSFORM_USE_MATRIX
 1886              		.loc 1 421 5 view .LVU600
 421:Drivers/lvgl/src/draw/lv_draw.c **** #if LV_DRAW_TRANSFORM_USE_MATRIX
 1887              		.loc 1 421 5 view .LVU601
 421:Drivers/lvgl/src/draw/lv_draw.c **** #if LV_DRAW_TRANSFORM_USE_MATRIX
 1888              		.loc 1 421 5 view .LVU602
 421:Drivers/lvgl/src/draw/lv_draw.c **** #if LV_DRAW_TRANSFORM_USE_MATRIX
 1889              		.loc 1 421 5 view .LVU603
 1890 001c FEE7     		b	.L171
ARM GAS  /var/folders/qx/2_175_4n2s19vhvtspjhb3qh0000gn/T//ccRXOHgw.s 			page 56


 1891              		.cfi_endproc
 1892              	.LFE209:
 1894              		.section	.text.lv_layer_init,"ax",%progbits
 1895              		.align	1
 1896              		.global	lv_layer_init
 1897              		.syntax unified
 1898              		.thumb
 1899              		.thumb_func
 1901              	lv_layer_init:
 1902              	.LVL160:
 1903              	.LFB208:
 413:Drivers/lvgl/src/draw/lv_draw.c ****     LV_ASSERT_NULL(layer);
 1904              		.loc 1 413 1 view -0
 1905              		.cfi_startproc
 1906              		@ args = 0, pretend = 0, frame = 0
 1907              		@ frame_needed = 0, uses_anonymous_args = 0
 414:Drivers/lvgl/src/draw/lv_draw.c ****     lv_memzero(layer, sizeof(lv_layer_t));
 1908              		.loc 1 414 5 view .LVU605
 414:Drivers/lvgl/src/draw/lv_draw.c ****     lv_memzero(layer, sizeof(lv_layer_t));
 1909              		.loc 1 414 5 view .LVU606
 1910 0000 48B1     		cbz	r0, .L176
 413:Drivers/lvgl/src/draw/lv_draw.c ****     LV_ASSERT_NULL(layer);
 1911              		.loc 1 413 1 is_stmt 0 view .LVU607
 1912 0002 10B5     		push	{r4, lr}
 1913              	.LCFI18:
 1914              		.cfi_def_cfa_offset 8
 1915              		.cfi_offset 4, -8
 1916              		.cfi_offset 14, -4
 1917 0004 0446     		mov	r4, r0
 414:Drivers/lvgl/src/draw/lv_draw.c ****     lv_memzero(layer, sizeof(lv_layer_t));
 1918              		.loc 1 414 5 is_stmt 1 view .LVU608
 414:Drivers/lvgl/src/draw/lv_draw.c ****     lv_memzero(layer, sizeof(lv_layer_t));
 1919              		.loc 1 414 26 view .LVU609
 415:Drivers/lvgl/src/draw/lv_draw.c ****     lv_layer_reset(layer);
 1920              		.loc 1 415 5 view .LVU610
 1921              	.LVL161:
 1922              	.LBB30:
 1923              	.LBI30:
 1924              		.file 2 "Drivers/lvgl/src/draw/../misc/../stdlib/lv_string.h"
   1:Drivers/lvgl/src/draw/../misc/../stdlib/lv_string.h **** /**
   2:Drivers/lvgl/src/draw/../misc/../stdlib/lv_string.h ****  * @file lv_string.h
   3:Drivers/lvgl/src/draw/../misc/../stdlib/lv_string.h ****  *
   4:Drivers/lvgl/src/draw/../misc/../stdlib/lv_string.h ****  */
   5:Drivers/lvgl/src/draw/../misc/../stdlib/lv_string.h **** 
   6:Drivers/lvgl/src/draw/../misc/../stdlib/lv_string.h **** #ifndef LV_STRING_H
   7:Drivers/lvgl/src/draw/../misc/../stdlib/lv_string.h **** #define LV_STRING_H
   8:Drivers/lvgl/src/draw/../misc/../stdlib/lv_string.h **** 
   9:Drivers/lvgl/src/draw/../misc/../stdlib/lv_string.h **** #ifdef __cplusplus
  10:Drivers/lvgl/src/draw/../misc/../stdlib/lv_string.h **** extern "C" {
  11:Drivers/lvgl/src/draw/../misc/../stdlib/lv_string.h **** #endif
  12:Drivers/lvgl/src/draw/../misc/../stdlib/lv_string.h **** 
  13:Drivers/lvgl/src/draw/../misc/../stdlib/lv_string.h **** /*********************
  14:Drivers/lvgl/src/draw/../misc/../stdlib/lv_string.h ****  *      INCLUDES
  15:Drivers/lvgl/src/draw/../misc/../stdlib/lv_string.h ****  *********************/
  16:Drivers/lvgl/src/draw/../misc/../stdlib/lv_string.h **** #include "../lv_conf_internal.h"
  17:Drivers/lvgl/src/draw/../misc/../stdlib/lv_string.h **** #include "../misc/lv_types.h"
  18:Drivers/lvgl/src/draw/../misc/../stdlib/lv_string.h **** 
ARM GAS  /var/folders/qx/2_175_4n2s19vhvtspjhb3qh0000gn/T//ccRXOHgw.s 			page 57


  19:Drivers/lvgl/src/draw/../misc/../stdlib/lv_string.h **** /*********************
  20:Drivers/lvgl/src/draw/../misc/../stdlib/lv_string.h ****  *      DEFINES
  21:Drivers/lvgl/src/draw/../misc/../stdlib/lv_string.h ****  *********************/
  22:Drivers/lvgl/src/draw/../misc/../stdlib/lv_string.h **** 
  23:Drivers/lvgl/src/draw/../misc/../stdlib/lv_string.h **** /**********************
  24:Drivers/lvgl/src/draw/../misc/../stdlib/lv_string.h ****  *      TYPEDEFS
  25:Drivers/lvgl/src/draw/../misc/../stdlib/lv_string.h ****  **********************/
  26:Drivers/lvgl/src/draw/../misc/../stdlib/lv_string.h **** 
  27:Drivers/lvgl/src/draw/../misc/../stdlib/lv_string.h **** /**********************
  28:Drivers/lvgl/src/draw/../misc/../stdlib/lv_string.h ****  * GLOBAL PROTOTYPES
  29:Drivers/lvgl/src/draw/../misc/../stdlib/lv_string.h ****  **********************/
  30:Drivers/lvgl/src/draw/../misc/../stdlib/lv_string.h **** 
  31:Drivers/lvgl/src/draw/../misc/../stdlib/lv_string.h **** /**
  32:Drivers/lvgl/src/draw/../misc/../stdlib/lv_string.h ****  * @brief Copies a block of memory from a source address to a destination address.
  33:Drivers/lvgl/src/draw/../misc/../stdlib/lv_string.h ****  * @param dst Pointer to the destination array where the content is to be copied.
  34:Drivers/lvgl/src/draw/../misc/../stdlib/lv_string.h ****  * @param src Pointer to the source of data to be copied.
  35:Drivers/lvgl/src/draw/../misc/../stdlib/lv_string.h ****  * @param len Number of bytes to copy.
  36:Drivers/lvgl/src/draw/../misc/../stdlib/lv_string.h ****  * @return Pointer to the destination array.
  37:Drivers/lvgl/src/draw/../misc/../stdlib/lv_string.h ****  * @note The function does not check for any overlapping of the source and destination memory block
  38:Drivers/lvgl/src/draw/../misc/../stdlib/lv_string.h ****  */
  39:Drivers/lvgl/src/draw/../misc/../stdlib/lv_string.h **** void * lv_memcpy(void * dst, const void * src, size_t len);
  40:Drivers/lvgl/src/draw/../misc/../stdlib/lv_string.h **** 
  41:Drivers/lvgl/src/draw/../misc/../stdlib/lv_string.h **** /**
  42:Drivers/lvgl/src/draw/../misc/../stdlib/lv_string.h ****  * @brief Fills a block of memory with a specified value.
  43:Drivers/lvgl/src/draw/../misc/../stdlib/lv_string.h ****  * @param dst Pointer to the destination array to fill with the specified value.
  44:Drivers/lvgl/src/draw/../misc/../stdlib/lv_string.h ****  * @param v Value to be set. The value is passed as an int, but the function fills
  45:Drivers/lvgl/src/draw/../misc/../stdlib/lv_string.h ****  *          the block of memory using the unsigned char conversion of this value.
  46:Drivers/lvgl/src/draw/../misc/../stdlib/lv_string.h ****  * @param len Number of bytes to be set to the value.
  47:Drivers/lvgl/src/draw/../misc/../stdlib/lv_string.h ****  */
  48:Drivers/lvgl/src/draw/../misc/../stdlib/lv_string.h **** void lv_memset(void * dst, uint8_t v, size_t len);
  49:Drivers/lvgl/src/draw/../misc/../stdlib/lv_string.h **** 
  50:Drivers/lvgl/src/draw/../misc/../stdlib/lv_string.h **** /**
  51:Drivers/lvgl/src/draw/../misc/../stdlib/lv_string.h ****  * @brief Move a block of memory from source to destination
  52:Drivers/lvgl/src/draw/../misc/../stdlib/lv_string.h ****  * @param dst Pointer to the destination array where the content is to be copied.
  53:Drivers/lvgl/src/draw/../misc/../stdlib/lv_string.h ****  * @param src Pointer to the source of data to be copied.
  54:Drivers/lvgl/src/draw/../misc/../stdlib/lv_string.h ****  * @param len Number of bytes to copy
  55:Drivers/lvgl/src/draw/../misc/../stdlib/lv_string.h ****  * @return Pointer to the destination array.
  56:Drivers/lvgl/src/draw/../misc/../stdlib/lv_string.h ****  */
  57:Drivers/lvgl/src/draw/../misc/../stdlib/lv_string.h **** void * lv_memmove(void * dst, const void * src, size_t len);
  58:Drivers/lvgl/src/draw/../misc/../stdlib/lv_string.h **** 
  59:Drivers/lvgl/src/draw/../misc/../stdlib/lv_string.h **** /**
  60:Drivers/lvgl/src/draw/../misc/../stdlib/lv_string.h ****  * @brief This function will compare two memory blocks
  61:Drivers/lvgl/src/draw/../misc/../stdlib/lv_string.h ****  * @param p1 Pointer to the first memory block
  62:Drivers/lvgl/src/draw/../misc/../stdlib/lv_string.h ****  * @param p2 Pointer to the second memory block
  63:Drivers/lvgl/src/draw/../misc/../stdlib/lv_string.h ****  * @param len Number of bytes to compare
  64:Drivers/lvgl/src/draw/../misc/../stdlib/lv_string.h ****  * @return The difference between the value of the first unmatching byte.
  65:Drivers/lvgl/src/draw/../misc/../stdlib/lv_string.h ****  */
  66:Drivers/lvgl/src/draw/../misc/../stdlib/lv_string.h **** int lv_memcmp(const void * p1, const void * p2, size_t len);
  67:Drivers/lvgl/src/draw/../misc/../stdlib/lv_string.h **** 
  68:Drivers/lvgl/src/draw/../misc/../stdlib/lv_string.h **** /**
  69:Drivers/lvgl/src/draw/../misc/../stdlib/lv_string.h ****  * Same as `memset(dst, 0x00, len)`.
  70:Drivers/lvgl/src/draw/../misc/../stdlib/lv_string.h ****  * @param dst pointer to the destination buffer
  71:Drivers/lvgl/src/draw/../misc/../stdlib/lv_string.h ****  * @param len number of byte to set
  72:Drivers/lvgl/src/draw/../misc/../stdlib/lv_string.h ****  */
  73:Drivers/lvgl/src/draw/../misc/../stdlib/lv_string.h **** static inline void lv_memzero(void * dst, size_t len)
 1925              		.loc 2 73 20 view .LVU611
 1926              	.LBB31:
ARM GAS  /var/folders/qx/2_175_4n2s19vhvtspjhb3qh0000gn/T//ccRXOHgw.s 			page 58


  74:Drivers/lvgl/src/draw/../misc/../stdlib/lv_string.h **** {
  75:Drivers/lvgl/src/draw/../misc/../stdlib/lv_string.h ****     lv_memset(dst, 0x00, len);
 1927              		.loc 2 75 5 view .LVU612
 1928 0006 5022     		movs	r2, #80
 1929 0008 0021     		movs	r1, #0
 1930 000a FFF7FEFF 		bl	lv_memset
 1931              	.LVL162:
 1932              		.loc 2 75 5 is_stmt 0 view .LVU613
 1933              	.LBE31:
 1934              	.LBE30:
 416:Drivers/lvgl/src/draw/lv_draw.c **** }
 1935              		.loc 1 416 5 is_stmt 1 view .LVU614
 1936 000e 2046     		mov	r0, r4
 1937 0010 FFF7FEFF 		bl	lv_layer_reset
 1938              	.LVL163:
 417:Drivers/lvgl/src/draw/lv_draw.c **** 
 1939              		.loc 1 417 1 is_stmt 0 view .LVU615
 1940 0014 10BD     		pop	{r4, pc}
 1941              	.LVL164:
 1942              	.L176:
 1943              	.LCFI19:
 1944              		.cfi_def_cfa_offset 0
 1945              		.cfi_restore 4
 1946              		.cfi_restore 14
 414:Drivers/lvgl/src/draw/lv_draw.c ****     lv_memzero(layer, sizeof(lv_layer_t));
 1947              		.loc 1 414 5 is_stmt 1 view .LVU616
 414:Drivers/lvgl/src/draw/lv_draw.c ****     lv_memzero(layer, sizeof(lv_layer_t));
 1948              		.loc 1 414 5 view .LVU617
 414:Drivers/lvgl/src/draw/lv_draw.c ****     lv_memzero(layer, sizeof(lv_layer_t));
 1949              		.loc 1 414 5 view .LVU618
 414:Drivers/lvgl/src/draw/lv_draw.c ****     lv_memzero(layer, sizeof(lv_layer_t));
 1950              		.loc 1 414 5 view .LVU619
 414:Drivers/lvgl/src/draw/lv_draw.c ****     lv_memzero(layer, sizeof(lv_layer_t));
 1951              		.loc 1 414 5 view .LVU620
 1952 0016 FEE7     		b	.L176
 1953              		.cfi_endproc
 1954              	.LFE208:
 1956              		.section	.text.lv_draw_layer_init,"ax",%progbits
 1957              		.align	1
 1958              		.global	lv_draw_layer_init
 1959              		.syntax unified
 1960              		.thumb
 1961              		.thumb_func
 1963              	lv_draw_layer_init:
 1964              	.LVL165:
 1965              	.LFB211:
 453:Drivers/lvgl/src/draw/lv_draw.c ****     LV_PROFILER_DRAW_BEGIN;
 1966              		.loc 1 453 1 view -0
 1967              		.cfi_startproc
 1968              		@ args = 0, pretend = 0, frame = 0
 1969              		@ frame_needed = 0, uses_anonymous_args = 0
 453:Drivers/lvgl/src/draw/lv_draw.c ****     LV_PROFILER_DRAW_BEGIN;
 1970              		.loc 1 453 1 is_stmt 0 view .LVU622
 1971 0000 2DE9F041 		push	{r4, r5, r6, r7, r8, lr}
 1972              	.LCFI20:
 1973              		.cfi_def_cfa_offset 24
 1974              		.cfi_offset 4, -24
ARM GAS  /var/folders/qx/2_175_4n2s19vhvtspjhb3qh0000gn/T//ccRXOHgw.s 			page 59


 1975              		.cfi_offset 5, -20
 1976              		.cfi_offset 6, -16
 1977              		.cfi_offset 7, -12
 1978              		.cfi_offset 8, -8
 1979              		.cfi_offset 14, -4
 1980 0004 0546     		mov	r5, r0
 1981 0006 8846     		mov	r8, r1
 1982 0008 1746     		mov	r7, r2
 1983 000a 1C46     		mov	r4, r3
 454:Drivers/lvgl/src/draw/lv_draw.c ****     lv_layer_init(layer);
 1984              		.loc 1 454 27 is_stmt 1 view .LVU623
 455:Drivers/lvgl/src/draw/lv_draw.c ****     lv_display_t * disp = lv_refr_get_disp_refreshing();
 1985              		.loc 1 455 5 view .LVU624
 1986 000c FFF7FEFF 		bl	lv_layer_init
 1987              	.LVL166:
 456:Drivers/lvgl/src/draw/lv_draw.c **** 
 1988              		.loc 1 456 5 view .LVU625
 456:Drivers/lvgl/src/draw/lv_draw.c **** 
 1989              		.loc 1 456 27 is_stmt 0 view .LVU626
 1990 0010 FFF7FEFF 		bl	lv_refr_get_disp_refreshing
 1991              	.LVL167:
 1992 0014 0646     		mov	r6, r0
 1993              	.LVL168:
 458:Drivers/lvgl/src/draw/lv_draw.c ****     layer->_clip_area = *area;
 1994              		.loc 1 458 5 is_stmt 1 view .LVU627
 458:Drivers/lvgl/src/draw/lv_draw.c ****     layer->_clip_area = *area;
 1995              		.loc 1 458 19 is_stmt 0 view .LVU628
 1996 0016 C5F80880 		str	r8, [r5, #8]
 459:Drivers/lvgl/src/draw/lv_draw.c ****     layer->buf_area = *area;
 1997              		.loc 1 459 5 is_stmt 1 view .LVU629
 459:Drivers/lvgl/src/draw/lv_draw.c ****     layer->buf_area = *area;
 1998              		.loc 1 459 23 is_stmt 0 view .LVU630
 1999 001a 05F1340C 		add	ip, r5, #52
 2000 001e 94E80F00 		ldm	r4, {r0, r1, r2, r3}
 2001              	.LVL169:
 459:Drivers/lvgl/src/draw/lv_draw.c ****     layer->buf_area = *area;
 2002              		.loc 1 459 23 view .LVU631
 2003 0022 8CE80F00 		stm	ip, {r0, r1, r2, r3}
 460:Drivers/lvgl/src/draw/lv_draw.c ****     layer->phy_clip_area = *area;
 2004              		.loc 1 460 5 is_stmt 1 view .LVU632
 460:Drivers/lvgl/src/draw/lv_draw.c ****     layer->phy_clip_area = *area;
 2005              		.loc 1 460 21 is_stmt 0 view .LVU633
 2006 0026 05F1140C 		add	ip, r5, #20
 2007 002a 94E80F00 		ldm	r4, {r0, r1, r2, r3}
 2008 002e 8CE80F00 		stm	ip, {r0, r1, r2, r3}
 461:Drivers/lvgl/src/draw/lv_draw.c ****     layer->color_format = color_format;
 2009              		.loc 1 461 5 is_stmt 1 view .LVU634
 461:Drivers/lvgl/src/draw/lv_draw.c ****     layer->color_format = color_format;
 2010              		.loc 1 461 26 is_stmt 0 view .LVU635
 2011 0032 05F1240C 		add	ip, r5, #36
 2012 0036 94E80F00 		ldm	r4, {r0, r1, r2, r3}
 2013 003a 8CE80F00 		stm	ip, {r0, r1, r2, r3}
 462:Drivers/lvgl/src/draw/lv_draw.c **** 
 2014              		.loc 1 462 5 is_stmt 1 view .LVU636
 462:Drivers/lvgl/src/draw/lv_draw.c **** 
 2015              		.loc 1 462 25 is_stmt 0 view .LVU637
 2016 003e 85F84C70 		strb	r7, [r5, #76]
ARM GAS  /var/folders/qx/2_175_4n2s19vhvtspjhb3qh0000gn/T//ccRXOHgw.s 			page 60


 464:Drivers/lvgl/src/draw/lv_draw.c **** 
 2017              		.loc 1 464 5 is_stmt 1 view .LVU638
 464:Drivers/lvgl/src/draw/lv_draw.c **** 
 2018              		.loc 1 464 12 is_stmt 0 view .LVU639
 2019 0042 D6F8B432 		ldr	r3, [r6, #692]
 464:Drivers/lvgl/src/draw/lv_draw.c **** 
 2020              		.loc 1 464 7 view .LVU640
 2021 0046 13B1     		cbz	r3, .L180
 464:Drivers/lvgl/src/draw/lv_draw.c **** 
 2022              		.loc 1 464 26 is_stmt 1 discriminator 1 view .LVU641
 2023 0048 2946     		mov	r1, r5
 2024 004a 3046     		mov	r0, r6
 2025 004c 9847     		blx	r3
 2026              	.LVL170:
 2027              	.L180:
 466:Drivers/lvgl/src/draw/lv_draw.c ****         lv_layer_t * tail = disp->layer_head;
 2028              		.loc 1 466 5 view .LVU642
 466:Drivers/lvgl/src/draw/lv_draw.c ****         lv_layer_t * tail = disp->layer_head;
 2029              		.loc 1 466 12 is_stmt 0 view .LVU643
 2030 004e D6F8B032 		ldr	r3, [r6, #688]
 466:Drivers/lvgl/src/draw/lv_draw.c ****         lv_layer_t * tail = disp->layer_head;
 2031              		.loc 1 466 7 view .LVU644
 2032 0052 33B1     		cbz	r3, .L181
 2033              	.L182:
 2034              	.LVL171:
 2035              	.LBB32:
 468:Drivers/lvgl/src/draw/lv_draw.c ****         tail->next = layer;
 2036              		.loc 1 468 15 is_stmt 1 discriminator 1 view .LVU645
 2037 0054 1A46     		mov	r2, r3
 468:Drivers/lvgl/src/draw/lv_draw.c ****         tail->next = layer;
 2038              		.loc 1 468 19 is_stmt 0 discriminator 1 view .LVU646
 2039 0056 DB68     		ldr	r3, [r3, #12]
 2040              	.LVL172:
 468:Drivers/lvgl/src/draw/lv_draw.c ****         tail->next = layer;
 2041              		.loc 1 468 15 discriminator 1 view .LVU647
 2042 0058 002B     		cmp	r3, #0
 2043 005a FBD1     		bne	.L182
 469:Drivers/lvgl/src/draw/lv_draw.c ****     }
 2044              		.loc 1 469 9 is_stmt 1 view .LVU648
 469:Drivers/lvgl/src/draw/lv_draw.c ****     }
 2045              		.loc 1 469 20 is_stmt 0 view .LVU649
 2046 005c D560     		str	r5, [r2, #12]
 2047              	.LVL173:
 2048              	.L179:
 469:Drivers/lvgl/src/draw/lv_draw.c ****     }
 2049              		.loc 1 469 20 view .LVU650
 2050              	.LBE32:
 476:Drivers/lvgl/src/draw/lv_draw.c **** 
 2051              		.loc 1 476 1 view .LVU651
 2052 005e BDE8F081 		pop	{r4, r5, r6, r7, r8, pc}
 2053              	.LVL174:
 2054              	.L181:
 472:Drivers/lvgl/src/draw/lv_draw.c ****     }
 2055              		.loc 1 472 9 is_stmt 1 view .LVU652
 472:Drivers/lvgl/src/draw/lv_draw.c ****     }
 2056              		.loc 1 472 26 is_stmt 0 view .LVU653
 2057 0062 C6F8B052 		str	r5, [r6, #688]
ARM GAS  /var/folders/qx/2_175_4n2s19vhvtspjhb3qh0000gn/T//ccRXOHgw.s 			page 61


 475:Drivers/lvgl/src/draw/lv_draw.c **** }
 2058              		.loc 1 475 25 is_stmt 1 view .LVU654
 476:Drivers/lvgl/src/draw/lv_draw.c **** 
 2059              		.loc 1 476 1 is_stmt 0 view .LVU655
 2060 0066 FAE7     		b	.L179
 2061              		.cfi_endproc
 2062              	.LFE211:
 2064              		.section	.text.lv_draw_layer_create,"ax",%progbits
 2065              		.align	1
 2066              		.global	lv_draw_layer_create
 2067              		.syntax unified
 2068              		.thumb
 2069              		.thumb_func
 2071              	lv_draw_layer_create:
 2072              	.LVL175:
 2073              	.LFB210:
 430:Drivers/lvgl/src/draw/lv_draw.c ****     LV_PROFILER_DRAW_BEGIN;
 2074              		.loc 1 430 1 is_stmt 1 view -0
 2075              		.cfi_startproc
 2076              		@ args = 0, pretend = 0, frame = 0
 2077              		@ frame_needed = 0, uses_anonymous_args = 0
 430:Drivers/lvgl/src/draw/lv_draw.c ****     LV_PROFILER_DRAW_BEGIN;
 2078              		.loc 1 430 1 is_stmt 0 view .LVU657
 2079 0000 F8B5     		push	{r3, r4, r5, r6, r7, lr}
 2080              	.LCFI21:
 2081              		.cfi_def_cfa_offset 24
 2082              		.cfi_offset 3, -24
 2083              		.cfi_offset 4, -20
 2084              		.cfi_offset 5, -16
 2085              		.cfi_offset 6, -12
 2086              		.cfi_offset 7, -8
 2087              		.cfi_offset 14, -4
 2088 0002 0446     		mov	r4, r0
 2089 0004 0D46     		mov	r5, r1
 2090 0006 1646     		mov	r6, r2
 431:Drivers/lvgl/src/draw/lv_draw.c ****     lv_layer_t * new_layer = lv_malloc_zeroed(sizeof(lv_layer_t));
 2091              		.loc 1 431 27 is_stmt 1 view .LVU658
 432:Drivers/lvgl/src/draw/lv_draw.c ****     LV_ASSERT_MALLOC(new_layer);
 2092              		.loc 1 432 5 view .LVU659
 432:Drivers/lvgl/src/draw/lv_draw.c ****     LV_ASSERT_MALLOC(new_layer);
 2093              		.loc 1 432 30 is_stmt 0 view .LVU660
 2094 0008 5020     		movs	r0, #80
 2095              	.LVL176:
 432:Drivers/lvgl/src/draw/lv_draw.c ****     LV_ASSERT_MALLOC(new_layer);
 2096              		.loc 1 432 30 view .LVU661
 2097 000a FFF7FEFF 		bl	lv_malloc_zeroed
 2098              	.LVL177:
 433:Drivers/lvgl/src/draw/lv_draw.c ****     if(new_layer == NULL) {
 2099              		.loc 1 433 5 is_stmt 1 view .LVU662
 433:Drivers/lvgl/src/draw/lv_draw.c ****     if(new_layer == NULL) {
 2100              		.loc 1 433 5 view .LVU663
 2101 000e 70B1     		cbz	r0, .L187
 2102 0010 0746     		mov	r7, r0
 433:Drivers/lvgl/src/draw/lv_draw.c ****     if(new_layer == NULL) {
 2103              		.loc 1 433 5 view .LVU664
 433:Drivers/lvgl/src/draw/lv_draw.c ****     if(new_layer == NULL) {
 2104              		.loc 1 433 32 view .LVU665
ARM GAS  /var/folders/qx/2_175_4n2s19vhvtspjhb3qh0000gn/T//ccRXOHgw.s 			page 62


 434:Drivers/lvgl/src/draw/lv_draw.c ****         LV_PROFILER_DRAW_END;
 2105              		.loc 1 434 5 view .LVU666
 439:Drivers/lvgl/src/draw/lv_draw.c **** 
 2106              		.loc 1 439 5 view .LVU667
 2107 0012 3346     		mov	r3, r6
 2108 0014 2A46     		mov	r2, r5
 2109 0016 2146     		mov	r1, r4
 2110 0018 FFF7FEFF 		bl	lv_draw_layer_init
 2111              	.LVL178:
 442:Drivers/lvgl/src/draw/lv_draw.c ****         new_layer->opa = parent_layer->opa;
 2112              		.loc 1 442 5 view .LVU668
 442:Drivers/lvgl/src/draw/lv_draw.c ****         new_layer->opa = parent_layer->opa;
 2113              		.loc 1 442 7 is_stmt 0 view .LVU669
 2114 001c 2CB1     		cbz	r4, .L185
 443:Drivers/lvgl/src/draw/lv_draw.c ****         new_layer->recolor = parent_layer->recolor;
 2115              		.loc 1 443 9 is_stmt 1 view .LVU670
 443:Drivers/lvgl/src/draw/lv_draw.c ****         new_layer->recolor = parent_layer->recolor;
 2116              		.loc 1 443 38 is_stmt 0 view .LVU671
 2117 001e 94F84E30 		ldrb	r3, [r4, #78]	@ zero_extendqisi2
 443:Drivers/lvgl/src/draw/lv_draw.c ****         new_layer->recolor = parent_layer->recolor;
 2118              		.loc 1 443 24 view .LVU672
 2119 0022 87F84E30 		strb	r3, [r7, #78]
 444:Drivers/lvgl/src/draw/lv_draw.c ****     }
 2120              		.loc 1 444 9 is_stmt 1 view .LVU673
 444:Drivers/lvgl/src/draw/lv_draw.c ****     }
 2121              		.loc 1 444 28 is_stmt 0 view .LVU674
 2122 0026 A36C     		ldr	r3, [r4, #72]
 2123 0028 BB64     		str	r3, [r7, #72]
 447:Drivers/lvgl/src/draw/lv_draw.c ****     return new_layer;
 2124              		.loc 1 447 25 is_stmt 1 view .LVU675
 448:Drivers/lvgl/src/draw/lv_draw.c **** }
 2125              		.loc 1 448 5 view .LVU676
 2126              	.L185:
 449:Drivers/lvgl/src/draw/lv_draw.c **** 
 2127              		.loc 1 449 1 is_stmt 0 view .LVU677
 2128 002a 3846     		mov	r0, r7
 2129 002c F8BD     		pop	{r3, r4, r5, r6, r7, pc}
 2130              	.LVL179:
 2131              	.L187:
 433:Drivers/lvgl/src/draw/lv_draw.c ****     if(new_layer == NULL) {
 2132              		.loc 1 433 5 is_stmt 1 view .LVU678
 433:Drivers/lvgl/src/draw/lv_draw.c ****     if(new_layer == NULL) {
 2133              		.loc 1 433 5 view .LVU679
 433:Drivers/lvgl/src/draw/lv_draw.c ****     if(new_layer == NULL) {
 2134              		.loc 1 433 5 view .LVU680
 433:Drivers/lvgl/src/draw/lv_draw.c ****     if(new_layer == NULL) {
 2135              		.loc 1 433 5 view .LVU681
 433:Drivers/lvgl/src/draw/lv_draw.c ****     if(new_layer == NULL) {
 2136              		.loc 1 433 5 view .LVU682
 2137 002e FEE7     		b	.L187
 2138              		.cfi_endproc
 2139              	.LFE210:
 2141              		.section	.text.lv_draw_layer_alloc_buf,"ax",%progbits
 2142              		.align	1
 2143              		.global	lv_draw_layer_alloc_buf
 2144              		.syntax unified
 2145              		.thumb
ARM GAS  /var/folders/qx/2_175_4n2s19vhvtspjhb3qh0000gn/T//ccRXOHgw.s 			page 63


 2146              		.thumb_func
 2148              	lv_draw_layer_alloc_buf:
 2149              	.LVL180:
 2150              	.LFB212:
 479:Drivers/lvgl/src/draw/lv_draw.c ****     LV_PROFILER_DRAW_BEGIN;
 2151              		.loc 1 479 1 view -0
 2152              		.cfi_startproc
 2153              		@ args = 0, pretend = 0, frame = 0
 2154              		@ frame_needed = 0, uses_anonymous_args = 0
 479:Drivers/lvgl/src/draw/lv_draw.c ****     LV_PROFILER_DRAW_BEGIN;
 2155              		.loc 1 479 1 is_stmt 0 view .LVU684
 2156 0000 F8B5     		push	{r3, r4, r5, r6, r7, lr}
 2157              	.LCFI22:
 2158              		.cfi_def_cfa_offset 24
 2159              		.cfi_offset 3, -24
 2160              		.cfi_offset 4, -20
 2161              		.cfi_offset 5, -16
 2162              		.cfi_offset 6, -12
 2163              		.cfi_offset 7, -8
 2164              		.cfi_offset 14, -4
 480:Drivers/lvgl/src/draw/lv_draw.c ****     /*If the buffer of the layer is already allocated return it*/
 2165              		.loc 1 480 27 is_stmt 1 view .LVU685
 482:Drivers/lvgl/src/draw/lv_draw.c ****         LV_PROFILER_DRAW_END;
 2166              		.loc 1 482 5 view .LVU686
 482:Drivers/lvgl/src/draw/lv_draw.c ****         LV_PROFILER_DRAW_END;
 2167              		.loc 1 482 13 is_stmt 0 view .LVU687
 2168 0002 0368     		ldr	r3, [r0]
 482:Drivers/lvgl/src/draw/lv_draw.c ****         LV_PROFILER_DRAW_END;
 2169              		.loc 1 482 7 view .LVU688
 2170 0004 0BB1     		cbz	r3, .L191
 483:Drivers/lvgl/src/draw/lv_draw.c ****         return layer->draw_buf->data;
 2171              		.loc 1 483 29 is_stmt 1 view .LVU689
 484:Drivers/lvgl/src/draw/lv_draw.c ****     }
 2172              		.loc 1 484 9 view .LVU690
 484:Drivers/lvgl/src/draw/lv_draw.c ****     }
 2173              		.loc 1 484 31 is_stmt 0 view .LVU691
 2174 0006 1869     		ldr	r0, [r3, #16]
 2175              	.LVL181:
 2176              	.L190:
 518:Drivers/lvgl/src/draw/lv_draw.c **** 
 2177              		.loc 1 518 1 view .LVU692
 2178 0008 F8BD     		pop	{r3, r4, r5, r6, r7, pc}
 2179              	.LVL182:
 2180              	.L191:
 518:Drivers/lvgl/src/draw/lv_draw.c **** 
 2181              		.loc 1 518 1 view .LVU693
 2182 000a 0446     		mov	r4, r0
 488:Drivers/lvgl/src/draw/lv_draw.c ****     int32_t h = lv_area_get_height(&layer->buf_area);
 2183              		.loc 1 488 5 is_stmt 1 view .LVU694
 488:Drivers/lvgl/src/draw/lv_draw.c ****     int32_t h = lv_area_get_height(&layer->buf_area);
 2184              		.loc 1 488 35 is_stmt 0 view .LVU695
 2185 000c 00F11406 		add	r6, r0, #20
 488:Drivers/lvgl/src/draw/lv_draw.c ****     int32_t h = lv_area_get_height(&layer->buf_area);
 2186              		.loc 1 488 17 view .LVU696
 2187 0010 3046     		mov	r0, r6
 2188              	.LVL183:
 488:Drivers/lvgl/src/draw/lv_draw.c ****     int32_t h = lv_area_get_height(&layer->buf_area);
ARM GAS  /var/folders/qx/2_175_4n2s19vhvtspjhb3qh0000gn/T//ccRXOHgw.s 			page 64


 2189              		.loc 1 488 17 view .LVU697
 2190 0012 FFF7FEFF 		bl	lv_area_get_width
 2191              	.LVL184:
 2192 0016 0546     		mov	r5, r0
 2193              	.LVL185:
 489:Drivers/lvgl/src/draw/lv_draw.c ****     uint32_t layer_size_byte = h * lv_draw_buf_width_to_stride(w, layer->color_format);
 2194              		.loc 1 489 5 is_stmt 1 view .LVU698
 489:Drivers/lvgl/src/draw/lv_draw.c ****     uint32_t layer_size_byte = h * lv_draw_buf_width_to_stride(w, layer->color_format);
 2195              		.loc 1 489 17 is_stmt 0 view .LVU699
 2196 0018 3046     		mov	r0, r6
 2197              	.LVL186:
 489:Drivers/lvgl/src/draw/lv_draw.c ****     uint32_t layer_size_byte = h * lv_draw_buf_width_to_stride(w, layer->color_format);
 2198              		.loc 1 489 17 view .LVU700
 2199 001a FFF7FEFF 		bl	lv_area_get_height
 2200              	.LVL187:
 2201 001e 0646     		mov	r6, r0
 2202              	.LVL188:
 490:Drivers/lvgl/src/draw/lv_draw.c **** 
 2203              		.loc 1 490 5 is_stmt 1 view .LVU701
 490:Drivers/lvgl/src/draw/lv_draw.c **** 
 2204              		.loc 1 490 36 is_stmt 0 view .LVU702
 2205 0020 94F84C10 		ldrb	r1, [r4, #76]	@ zero_extendqisi2
 2206 0024 2846     		mov	r0, r5
 2207              	.LVL189:
 490:Drivers/lvgl/src/draw/lv_draw.c **** 
 2208              		.loc 1 490 36 view .LVU703
 2209 0026 FFF7FEFF 		bl	lv_draw_buf_width_to_stride
 2210              	.LVL190:
 490:Drivers/lvgl/src/draw/lv_draw.c **** 
 2211              		.loc 1 490 14 discriminator 1 view .LVU704
 2212 002a 06FB00F7 		mul	r7, r6, r0
 2213              	.LVL191:
 501:Drivers/lvgl/src/draw/lv_draw.c **** 
 2214              		.loc 1 501 5 is_stmt 1 view .LVU705
 501:Drivers/lvgl/src/draw/lv_draw.c **** 
 2215              		.loc 1 501 23 is_stmt 0 view .LVU706
 2216 002e 0023     		movs	r3, #0
 2217 0030 94F84C20 		ldrb	r2, [r4, #76]	@ zero_extendqisi2
 2218 0034 3146     		mov	r1, r6
 2219 0036 2846     		mov	r0, r5
 2220 0038 FFF7FEFF 		bl	lv_draw_buf_create
 2221              	.LVL192:
 501:Drivers/lvgl/src/draw/lv_draw.c **** 
 2222              		.loc 1 501 21 discriminator 1 view .LVU707
 2223 003c 2060     		str	r0, [r4]
 503:Drivers/lvgl/src/draw/lv_draw.c ****         LV_LOG_WARN("Allocating layer buffer failed. Try later");
 2224              		.loc 1 503 5 is_stmt 1 view .LVU708
 503:Drivers/lvgl/src/draw/lv_draw.c ****         LV_LOG_WARN("Allocating layer buffer failed. Try later");
 2225              		.loc 1 503 7 is_stmt 0 view .LVU709
 2226 003e 0028     		cmp	r0, #0
 2227 0040 E2D0     		beq	.L190
 509:Drivers/lvgl/src/draw/lv_draw.c ****     LV_LOG_INFO("Layer memory used: %" LV_PRIu32 " kB", get_layer_size_kb(_draw_info.used_memory_fo
 2228              		.loc 1 509 5 is_stmt 1 view .LVU710
 509:Drivers/lvgl/src/draw/lv_draw.c ****     LV_LOG_INFO("Layer memory used: %" LV_PRIu32 " kB", get_layer_size_kb(_draw_info.used_memory_fo
 2229              		.loc 1 509 15 is_stmt 0 view .LVU711
 2230 0042 094A     		ldr	r2, .L196
 2231 0044 D2F83C31 		ldr	r3, [r2, #316]
ARM GAS  /var/folders/qx/2_175_4n2s19vhvtspjhb3qh0000gn/T//ccRXOHgw.s 			page 65


 509:Drivers/lvgl/src/draw/lv_draw.c ****     LV_LOG_INFO("Layer memory used: %" LV_PRIu32 " kB", get_layer_size_kb(_draw_info.used_memory_fo
 2232              		.loc 1 509 39 view .LVU712
 2233 0048 3B44     		add	r3, r3, r7
 2234 004a C2F83C31 		str	r3, [r2, #316]
 510:Drivers/lvgl/src/draw/lv_draw.c **** 
 2235              		.loc 1 510 5 is_stmt 1 view .LVU713
 510:Drivers/lvgl/src/draw/lv_draw.c **** 
 2236              		.loc 1 510 5 view .LVU714
 510:Drivers/lvgl/src/draw/lv_draw.c **** 
 2237              		.loc 1 510 5 view .LVU715
 512:Drivers/lvgl/src/draw/lv_draw.c ****         lv_draw_buf_clear(layer->draw_buf, NULL);
 2238              		.loc 1 512 5 view .LVU716
 512:Drivers/lvgl/src/draw/lv_draw.c ****         lv_draw_buf_clear(layer->draw_buf, NULL);
 2239              		.loc 1 512 8 is_stmt 0 view .LVU717
 2240 004e 94F84C00 		ldrb	r0, [r4, #76]	@ zero_extendqisi2
 2241 0052 FFF7FEFF 		bl	lv_color_format_has_alpha
 2242              	.LVL193:
 512:Drivers/lvgl/src/draw/lv_draw.c ****         lv_draw_buf_clear(layer->draw_buf, NULL);
 2243              		.loc 1 512 7 discriminator 1 view .LVU718
 2244 0056 10B9     		cbnz	r0, .L195
 2245              	.L193:
 516:Drivers/lvgl/src/draw/lv_draw.c ****     return layer->draw_buf->data;
 2246              		.loc 1 516 25 is_stmt 1 view .LVU719
 517:Drivers/lvgl/src/draw/lv_draw.c **** }
 2247              		.loc 1 517 5 view .LVU720
 517:Drivers/lvgl/src/draw/lv_draw.c **** }
 2248              		.loc 1 517 17 is_stmt 0 view .LVU721
 2249 0058 2368     		ldr	r3, [r4]
 517:Drivers/lvgl/src/draw/lv_draw.c **** }
 2250              		.loc 1 517 27 view .LVU722
 2251 005a 1869     		ldr	r0, [r3, #16]
 2252 005c D4E7     		b	.L190
 2253              	.L195:
 513:Drivers/lvgl/src/draw/lv_draw.c ****     }
 2254              		.loc 1 513 9 is_stmt 1 view .LVU723
 2255 005e 0021     		movs	r1, #0
 2256 0060 2068     		ldr	r0, [r4]
 2257 0062 FFF7FEFF 		bl	lv_draw_buf_clear
 2258              	.LVL194:
 2259 0066 F7E7     		b	.L193
 2260              	.L197:
 2261              		.align	2
 2262              	.L196:
 2263 0068 00000000 		.word	lv_global
 2264              		.cfi_endproc
 2265              	.LFE212:
 2267              		.section	.text.lv_draw_layer_go_to_xy,"ax",%progbits
 2268              		.align	1
 2269              		.global	lv_draw_layer_go_to_xy
 2270              		.syntax unified
 2271              		.thumb
 2272              		.thumb_func
 2274              	lv_draw_layer_go_to_xy:
 2275              	.LVL195:
 2276              	.LFB213:
 521:Drivers/lvgl/src/draw/lv_draw.c ****     return lv_draw_buf_goto_xy(layer->draw_buf, x, y);
 2277              		.loc 1 521 1 view -0
ARM GAS  /var/folders/qx/2_175_4n2s19vhvtspjhb3qh0000gn/T//ccRXOHgw.s 			page 66


 2278              		.cfi_startproc
 2279              		@ args = 0, pretend = 0, frame = 0
 2280              		@ frame_needed = 0, uses_anonymous_args = 0
 521:Drivers/lvgl/src/draw/lv_draw.c ****     return lv_draw_buf_goto_xy(layer->draw_buf, x, y);
 2281              		.loc 1 521 1 is_stmt 0 view .LVU725
 2282 0000 08B5     		push	{r3, lr}
 2283              	.LCFI23:
 2284              		.cfi_def_cfa_offset 8
 2285              		.cfi_offset 3, -8
 2286              		.cfi_offset 14, -4
 522:Drivers/lvgl/src/draw/lv_draw.c **** }
 2287              		.loc 1 522 5 is_stmt 1 view .LVU726
 522:Drivers/lvgl/src/draw/lv_draw.c **** }
 2288              		.loc 1 522 12 is_stmt 0 view .LVU727
 2289 0002 0068     		ldr	r0, [r0]
 2290              	.LVL196:
 522:Drivers/lvgl/src/draw/lv_draw.c **** }
 2291              		.loc 1 522 12 view .LVU728
 2292 0004 FFF7FEFF 		bl	lv_draw_buf_goto_xy
 2293              	.LVL197:
 523:Drivers/lvgl/src/draw/lv_draw.c **** 
 2294              		.loc 1 523 1 view .LVU729
 2295 0008 08BD     		pop	{r3, pc}
 2296              		.cfi_endproc
 2297              	.LFE213:
 2299              		.section	.text.lv_draw_task_get_type,"ax",%progbits
 2300              		.align	1
 2301              		.global	lv_draw_task_get_type
 2302              		.syntax unified
 2303              		.thumb
 2304              		.thumb_func
 2306              	lv_draw_task_get_type:
 2307              	.LVL198:
 2308              	.LFB214:
 526:Drivers/lvgl/src/draw/lv_draw.c ****     return t->type;
 2309              		.loc 1 526 1 is_stmt 1 view -0
 2310              		.cfi_startproc
 2311              		@ args = 0, pretend = 0, frame = 0
 2312              		@ frame_needed = 0, uses_anonymous_args = 0
 2313              		@ link register save eliminated.
 527:Drivers/lvgl/src/draw/lv_draw.c **** }
 2314              		.loc 1 527 5 view .LVU731
 528:Drivers/lvgl/src/draw/lv_draw.c **** 
 2315              		.loc 1 528 1 is_stmt 0 view .LVU732
 2316 0000 0079     		ldrb	r0, [r0, #4]	@ zero_extendqisi2
 2317              	.LVL199:
 528:Drivers/lvgl/src/draw/lv_draw.c **** 
 2318              		.loc 1 528 1 view .LVU733
 2319 0002 7047     		bx	lr
 2320              		.cfi_endproc
 2321              	.LFE214:
 2323              		.section	.text.lv_draw_task_get_draw_dsc,"ax",%progbits
 2324              		.align	1
 2325              		.global	lv_draw_task_get_draw_dsc
 2326              		.syntax unified
 2327              		.thumb
 2328              		.thumb_func
ARM GAS  /var/folders/qx/2_175_4n2s19vhvtspjhb3qh0000gn/T//ccRXOHgw.s 			page 67


 2330              	lv_draw_task_get_draw_dsc:
 2331              	.LVL200:
 2332              	.LFB215:
 531:Drivers/lvgl/src/draw/lv_draw.c ****     return t->draw_dsc;
 2333              		.loc 1 531 1 is_stmt 1 view -0
 2334              		.cfi_startproc
 2335              		@ args = 0, pretend = 0, frame = 0
 2336              		@ frame_needed = 0, uses_anonymous_args = 0
 2337              		@ link register save eliminated.
 532:Drivers/lvgl/src/draw/lv_draw.c **** }
 2338              		.loc 1 532 5 view .LVU735
 533:Drivers/lvgl/src/draw/lv_draw.c **** 
 2339              		.loc 1 533 1 is_stmt 0 view .LVU736
 2340 0000 406D     		ldr	r0, [r0, #84]
 2341              	.LVL201:
 533:Drivers/lvgl/src/draw/lv_draw.c **** 
 2342              		.loc 1 533 1 view .LVU737
 2343 0002 7047     		bx	lr
 2344              		.cfi_endproc
 2345              	.LFE215:
 2347              		.section	.text.lv_draw_task_get_area,"ax",%progbits
 2348              		.align	1
 2349              		.global	lv_draw_task_get_area
 2350              		.syntax unified
 2351              		.thumb
 2352              		.thumb_func
 2354              	lv_draw_task_get_area:
 2355              	.LVL202:
 2356              	.LFB216:
 536:Drivers/lvgl/src/draw/lv_draw.c ****     *area = t->area;
 2357              		.loc 1 536 1 is_stmt 1 view -0
 2358              		.cfi_startproc
 2359              		@ args = 0, pretend = 0, frame = 0
 2360              		@ frame_needed = 0, uses_anonymous_args = 0
 2361              		@ link register save eliminated.
 536:Drivers/lvgl/src/draw/lv_draw.c ****     *area = t->area;
 2362              		.loc 1 536 1 is_stmt 0 view .LVU739
 2363 0000 8C46     		mov	ip, r1
 537:Drivers/lvgl/src/draw/lv_draw.c **** }
 2364              		.loc 1 537 5 is_stmt 1 view .LVU740
 537:Drivers/lvgl/src/draw/lv_draw.c **** }
 2365              		.loc 1 537 11 is_stmt 0 view .LVU741
 2366 0002 0830     		adds	r0, r0, #8
 2367              	.LVL203:
 537:Drivers/lvgl/src/draw/lv_draw.c **** }
 2368              		.loc 1 537 11 view .LVU742
 2369 0004 0FC8     		ldm	r0, {r0, r1, r2, r3}
 2370              	.LVL204:
 537:Drivers/lvgl/src/draw/lv_draw.c **** }
 2371              		.loc 1 537 11 view .LVU743
 2372 0006 8CE80F00 		stm	ip, {r0, r1, r2, r3}
 538:Drivers/lvgl/src/draw/lv_draw.c **** 
 2373              		.loc 1 538 1 view .LVU744
 2374 000a 7047     		bx	lr
 2375              		.cfi_endproc
 2376              	.LFE216:
 2378              		.text
ARM GAS  /var/folders/qx/2_175_4n2s19vhvtspjhb3qh0000gn/T//ccRXOHgw.s 			page 68


 2379              	.Letext0:
 2380              		.file 3 "/Applications/ArmGNUToolchain/14.3.rel1/arm-none-eabi/arm-none-eabi/include/machine/_defa
 2381              		.file 4 "/Applications/ArmGNUToolchain/14.3.rel1/arm-none-eabi/arm-none-eabi/include/sys/_stdint.h
 2382              		.file 5 "/Applications/ArmGNUToolchain/14.3.rel1/arm-none-eabi/lib/gcc/arm-none-eabi/14.3.1/includ
 2383              		.file 6 "Drivers/lvgl/src/draw/../misc/lv_types.h"
 2384              		.file 7 "Drivers/lvgl/src/draw/../display/lv_display_private.h"
 2385              		.file 8 "Drivers/lvgl/src/draw/lv_draw.h"
 2386              		.file 9 "Drivers/lvgl/src/draw/lv_draw_private.h"
 2387              		.file 10 "Drivers/lvgl/src/draw/../misc/lv_event_private.h"
 2388              		.file 11 "Drivers/lvgl/src/draw/../core/../misc/lv_timer_private.h"
 2389              		.file 12 "Drivers/lvgl/src/draw/../misc/../font/lv_font.h"
 2390              		.file 13 "Drivers/lvgl/src/draw/lv_draw_image.h"
 2391              		.file 14 "Drivers/lvgl/src/draw/../misc/cache/class/../lv_cache_private.h"
 2392              		.file 15 "Drivers/lvgl/src/draw/../core/../draw/lv_draw_buf_private.h"
 2393              		.file 16 "Drivers/lvgl/src/draw/../misc/lv_array.h"
 2394              		.file 17 "Drivers/lvgl/src/draw/../misc/../font/../draw/lv_draw_buf.h"
 2395              		.file 18 "Drivers/lvgl/src/draw/../misc/lv_area.h"
 2396              		.file 19 "Drivers/lvgl/src/draw/../misc/lv_event.h"
 2397              		.file 20 "Drivers/lvgl/src/draw/../misc/../font/../draw/../misc/lv_color.h"
 2398              		.file 21 "Drivers/lvgl/src/draw/../misc/../font/../draw/lv_image_dsc.h"
 2399              		.file 22 "Drivers/lvgl/src/draw/../misc/../tick/lv_tick.h"
 2400              		.file 23 "Drivers/lvgl/src/draw/../misc/lv_ll.h"
 2401              		.file 24 "Drivers/lvgl/src/draw/../misc/lv_timer.h"
 2402              		.file 25 "Drivers/lvgl/src/draw/../misc/lv_text.h"
 2403              		.file 26 "Drivers/lvgl/src/draw/../misc/lv_bidi.h"
 2404              		.file 27 "Drivers/lvgl/src/draw/../misc/../layouts/lv_layout.h"
 2405              		.file 28 "Drivers/lvgl/src/draw/../misc/lv_style.h"
 2406              		.file 29 "Drivers/lvgl/src/draw/../osal/lv_os_none.h"
 2407              		.file 30 "Drivers/lvgl/src/draw/sw/../../display/lv_display.h"
 2408              		.file 31 "Drivers/lvgl/src/draw/sw/../lv_draw_label.h"
 2409              		.file 32 "Drivers/lvgl/src/draw/../display/../core/lv_obj.h"
 2410              		.file 33 "Drivers/lvgl/src/draw/../core/../stdlib/builtin/lv_tlsf.h"
 2411              		.file 34 "Drivers/lvgl/src/draw/../core/../misc/lv_anim_private.h"
 2412              		.file 35 "Drivers/lvgl/src/draw/../core/../tick/lv_tick_private.h"
 2413              		.file 36 "Drivers/lvgl/src/draw/../core/../draw/sw/lv_draw_sw_mask_private.h"
 2414              		.file 37 "Drivers/lvgl/src/draw/../core/../stdlib/builtin/lv_tlsf_private.h"
 2415              		.file 38 "Drivers/lvgl/src/draw/../core/../layouts/lv_layout_private.h"
 2416              		.file 39 "Drivers/lvgl/src/draw/../core/lv_global.h"
 2417              		.file 40 "Drivers/lvgl/src/draw/../misc/lv_area_private.h"
 2418              		.file 41 "Drivers/lvgl/src/draw/../display/../core/lv_obj_event.h"
 2419              		.file 42 "Drivers/lvgl/src/draw/../misc/../stdlib/lv_mem.h"
 2420              		.file 43 "Drivers/lvgl/src/draw/../core/lv_refr_private.h"
ARM GAS  /var/folders/qx/2_175_4n2s19vhvtspjhb3qh0000gn/T//ccRXOHgw.s 			page 69

