ARM GAS  /var/folders/qx/2_175_4n2s19vhvtspjhb3qh0000gn/T//ccspqae8.s 			page 1


   1              		.cpu cortex-m4
   2              		.arch armv7e-m
   3              		.fpu fpv4-sp-d16
   4              		.eabi_attribute 27, 1
   5              		.eabi_attribute 28, 1
   6              		.eabi_attribute 20, 1
   7              		.eabi_attribute 21, 1
   8              		.eabi_attribute 23, 3
   9              		.eabi_attribute 24, 1
  10              		.eabi_attribute 25, 1
  11              		.eabi_attribute 26, 1
  12              		.eabi_attribute 30, 1
  13              		.eabi_attribute 34, 1
  14              		.eabi_attribute 18, 4
  15              		.file	"lv_indev_scroll.c"
  16              		.text
  17              	.Ltext0:
  18              		.cfi_sections	.debug_frame
  19              		.file 1 "Drivers/lvgl/src/indev/lv_indev_scroll.c"
  20              		.section	.text.scroll_limit_diff,"ax",%progbits
  21              		.align	1
  22              		.syntax unified
  23              		.thumb
  24              		.thumb_func
  26              	scroll_limit_diff:
  27              	.LVL0:
  28              	.LFB189:
   1:Drivers/lvgl/src/indev/lv_indev_scroll.c **** /**
   2:Drivers/lvgl/src/indev/lv_indev_scroll.c ****  * @file lv_indev_scroll.c
   3:Drivers/lvgl/src/indev/lv_indev_scroll.c ****  *
   4:Drivers/lvgl/src/indev/lv_indev_scroll.c ****  */
   5:Drivers/lvgl/src/indev/lv_indev_scroll.c **** 
   6:Drivers/lvgl/src/indev/lv_indev_scroll.c **** /*********************
   7:Drivers/lvgl/src/indev/lv_indev_scroll.c ****  *      INCLUDES
   8:Drivers/lvgl/src/indev/lv_indev_scroll.c ****  *********************/
   9:Drivers/lvgl/src/indev/lv_indev_scroll.c **** #include "../core/lv_obj_scroll_private.h"
  10:Drivers/lvgl/src/indev/lv_indev_scroll.c **** #include "../core/lv_obj_private.h"
  11:Drivers/lvgl/src/indev/lv_indev_scroll.c **** #include "lv_indev.h"
  12:Drivers/lvgl/src/indev/lv_indev_scroll.c **** #include "lv_indev_private.h"
  13:Drivers/lvgl/src/indev/lv_indev_scroll.c **** #include "lv_indev_scroll.h"
  14:Drivers/lvgl/src/indev/lv_indev_scroll.c **** 
  15:Drivers/lvgl/src/indev/lv_indev_scroll.c **** /*********************
  16:Drivers/lvgl/src/indev/lv_indev_scroll.c ****  *      DEFINES
  17:Drivers/lvgl/src/indev/lv_indev_scroll.c ****  *********************/
  18:Drivers/lvgl/src/indev/lv_indev_scroll.c **** #define ELASTIC_SLOWNESS_FACTOR 4   /*Scrolling on elastic parts are slower by this factor*/
  19:Drivers/lvgl/src/indev/lv_indev_scroll.c **** 
  20:Drivers/lvgl/src/indev/lv_indev_scroll.c **** /**********************
  21:Drivers/lvgl/src/indev/lv_indev_scroll.c ****  *      TYPEDEFS
  22:Drivers/lvgl/src/indev/lv_indev_scroll.c ****  **********************/
  23:Drivers/lvgl/src/indev/lv_indev_scroll.c **** 
  24:Drivers/lvgl/src/indev/lv_indev_scroll.c **** /**********************
  25:Drivers/lvgl/src/indev/lv_indev_scroll.c ****  *  STATIC PROTOTYPES
  26:Drivers/lvgl/src/indev/lv_indev_scroll.c ****  **********************/
  27:Drivers/lvgl/src/indev/lv_indev_scroll.c **** static void init_scroll_limits(lv_indev_t * indev);
  28:Drivers/lvgl/src/indev/lv_indev_scroll.c **** static int32_t find_snap_point_x(const lv_obj_t * obj, int32_t min, int32_t max, int32_t ofs);
  29:Drivers/lvgl/src/indev/lv_indev_scroll.c **** static int32_t find_snap_point_y(const lv_obj_t * obj, int32_t min, int32_t max, int32_t ofs);
  30:Drivers/lvgl/src/indev/lv_indev_scroll.c **** static void scroll_limit_diff(lv_indev_t * indev, int32_t * diff_x, int32_t * diff_y);
ARM GAS  /var/folders/qx/2_175_4n2s19vhvtspjhb3qh0000gn/T//ccspqae8.s 			page 2


  31:Drivers/lvgl/src/indev/lv_indev_scroll.c **** static int32_t elastic_diff(lv_obj_t * scroll_obj, int32_t diff, int32_t scroll_start, int32_t scro
  32:Drivers/lvgl/src/indev/lv_indev_scroll.c ****                             lv_dir_t dir);
  33:Drivers/lvgl/src/indev/lv_indev_scroll.c **** static void has_more_snap_points(lv_obj_t * scroll_obj, lv_dir_t dir, bool * has_start_snap, bool *
  34:Drivers/lvgl/src/indev/lv_indev_scroll.c **** 
  35:Drivers/lvgl/src/indev/lv_indev_scroll.c **** /**********************
  36:Drivers/lvgl/src/indev/lv_indev_scroll.c ****  *  STATIC VARIABLES
  37:Drivers/lvgl/src/indev/lv_indev_scroll.c ****  **********************/
  38:Drivers/lvgl/src/indev/lv_indev_scroll.c **** 
  39:Drivers/lvgl/src/indev/lv_indev_scroll.c **** /**********************
  40:Drivers/lvgl/src/indev/lv_indev_scroll.c ****  *      MACROS
  41:Drivers/lvgl/src/indev/lv_indev_scroll.c ****  **********************/
  42:Drivers/lvgl/src/indev/lv_indev_scroll.c **** 
  43:Drivers/lvgl/src/indev/lv_indev_scroll.c **** /**********************
  44:Drivers/lvgl/src/indev/lv_indev_scroll.c ****  *   GLOBAL FUNCTIONS
  45:Drivers/lvgl/src/indev/lv_indev_scroll.c ****  **********************/
  46:Drivers/lvgl/src/indev/lv_indev_scroll.c **** 
  47:Drivers/lvgl/src/indev/lv_indev_scroll.c **** void lv_indev_scroll_handler(lv_indev_t * indev)
  48:Drivers/lvgl/src/indev/lv_indev_scroll.c **** {
  49:Drivers/lvgl/src/indev/lv_indev_scroll.c ****     if(indev->pointer.vect.x == 0 && indev->pointer.vect.y == 0) {
  50:Drivers/lvgl/src/indev/lv_indev_scroll.c ****         return;
  51:Drivers/lvgl/src/indev/lv_indev_scroll.c ****     }
  52:Drivers/lvgl/src/indev/lv_indev_scroll.c **** 
  53:Drivers/lvgl/src/indev/lv_indev_scroll.c ****     lv_obj_t * scroll_obj = indev->pointer.scroll_obj;
  54:Drivers/lvgl/src/indev/lv_indev_scroll.c ****     /*If there is no scroll object yet try to find one*/
  55:Drivers/lvgl/src/indev/lv_indev_scroll.c ****     if(scroll_obj == NULL) {
  56:Drivers/lvgl/src/indev/lv_indev_scroll.c ****         scroll_obj = lv_indev_find_scroll_obj(indev);
  57:Drivers/lvgl/src/indev/lv_indev_scroll.c ****         if(scroll_obj == NULL) return;
  58:Drivers/lvgl/src/indev/lv_indev_scroll.c **** 
  59:Drivers/lvgl/src/indev/lv_indev_scroll.c ****         init_scroll_limits(indev);
  60:Drivers/lvgl/src/indev/lv_indev_scroll.c **** 
  61:Drivers/lvgl/src/indev/lv_indev_scroll.c ****         lv_obj_remove_state(indev->pointer.act_obj, LV_STATE_PRESSED);
  62:Drivers/lvgl/src/indev/lv_indev_scroll.c ****         lv_obj_send_event(scroll_obj, LV_EVENT_SCROLL_BEGIN, NULL);
  63:Drivers/lvgl/src/indev/lv_indev_scroll.c ****         if(indev->reset_query) return;
  64:Drivers/lvgl/src/indev/lv_indev_scroll.c ****     }
  65:Drivers/lvgl/src/indev/lv_indev_scroll.c **** 
  66:Drivers/lvgl/src/indev/lv_indev_scroll.c ****     /*Set new position or scroll if the vector is not zero*/
  67:Drivers/lvgl/src/indev/lv_indev_scroll.c ****     int16_t angle = 0;
  68:Drivers/lvgl/src/indev/lv_indev_scroll.c ****     int16_t scale_x = 256;
  69:Drivers/lvgl/src/indev/lv_indev_scroll.c ****     int16_t scale_y = 256;
  70:Drivers/lvgl/src/indev/lv_indev_scroll.c ****     lv_obj_t * parent = scroll_obj;
  71:Drivers/lvgl/src/indev/lv_indev_scroll.c ****     while(parent) {
  72:Drivers/lvgl/src/indev/lv_indev_scroll.c ****         angle += lv_obj_get_style_transform_rotation(parent, LV_PART_MAIN);
  73:Drivers/lvgl/src/indev/lv_indev_scroll.c ****         int32_t zoom_act_x = lv_obj_get_style_transform_scale_x_safe(parent, LV_PART_MAIN);
  74:Drivers/lvgl/src/indev/lv_indev_scroll.c ****         int32_t zoom_act_y = lv_obj_get_style_transform_scale_y_safe(parent, LV_PART_MAIN);
  75:Drivers/lvgl/src/indev/lv_indev_scroll.c ****         scale_x = (scale_x * zoom_act_x) >> 8;
  76:Drivers/lvgl/src/indev/lv_indev_scroll.c ****         scale_y = (scale_y * zoom_act_y) >> 8;
  77:Drivers/lvgl/src/indev/lv_indev_scroll.c ****         parent = lv_obj_get_parent(parent);
  78:Drivers/lvgl/src/indev/lv_indev_scroll.c ****     }
  79:Drivers/lvgl/src/indev/lv_indev_scroll.c **** 
  80:Drivers/lvgl/src/indev/lv_indev_scroll.c ****     if(scale_x == 0) {
  81:Drivers/lvgl/src/indev/lv_indev_scroll.c ****         scale_x = 1;
  82:Drivers/lvgl/src/indev/lv_indev_scroll.c ****     }
  83:Drivers/lvgl/src/indev/lv_indev_scroll.c **** 
  84:Drivers/lvgl/src/indev/lv_indev_scroll.c ****     if(scale_y == 0) {
  85:Drivers/lvgl/src/indev/lv_indev_scroll.c ****         scale_y = 1;
  86:Drivers/lvgl/src/indev/lv_indev_scroll.c ****     }
  87:Drivers/lvgl/src/indev/lv_indev_scroll.c **** 
ARM GAS  /var/folders/qx/2_175_4n2s19vhvtspjhb3qh0000gn/T//ccspqae8.s 			page 3


  88:Drivers/lvgl/src/indev/lv_indev_scroll.c ****     if(angle != 0 || scale_x != LV_SCALE_NONE || scale_y != LV_SCALE_NONE) {
  89:Drivers/lvgl/src/indev/lv_indev_scroll.c ****         angle = -angle;
  90:Drivers/lvgl/src/indev/lv_indev_scroll.c ****         scale_x = (256 * 256) / scale_x;
  91:Drivers/lvgl/src/indev/lv_indev_scroll.c ****         scale_y = (256 * 256) / scale_y;
  92:Drivers/lvgl/src/indev/lv_indev_scroll.c ****         lv_point_t pivot = { 0, 0 };
  93:Drivers/lvgl/src/indev/lv_indev_scroll.c ****         lv_point_transform(&indev->pointer.vect, angle, scale_x, scale_y, &pivot, false);
  94:Drivers/lvgl/src/indev/lv_indev_scroll.c ****     }
  95:Drivers/lvgl/src/indev/lv_indev_scroll.c **** 
  96:Drivers/lvgl/src/indev/lv_indev_scroll.c ****     int32_t diff_x = 0;
  97:Drivers/lvgl/src/indev/lv_indev_scroll.c ****     int32_t diff_y = 0;
  98:Drivers/lvgl/src/indev/lv_indev_scroll.c ****     if(indev->pointer.scroll_dir == LV_DIR_HOR) {
  99:Drivers/lvgl/src/indev/lv_indev_scroll.c ****         int32_t sr = lv_obj_get_scroll_right(scroll_obj);
 100:Drivers/lvgl/src/indev/lv_indev_scroll.c ****         int32_t sl = lv_obj_get_scroll_left(scroll_obj);
 101:Drivers/lvgl/src/indev/lv_indev_scroll.c ****         diff_x = elastic_diff(scroll_obj, indev->pointer.vect.x, sl, sr, LV_DIR_HOR);
 102:Drivers/lvgl/src/indev/lv_indev_scroll.c ****     }
 103:Drivers/lvgl/src/indev/lv_indev_scroll.c ****     else {
 104:Drivers/lvgl/src/indev/lv_indev_scroll.c ****         int32_t st = lv_obj_get_scroll_top(scroll_obj);
 105:Drivers/lvgl/src/indev/lv_indev_scroll.c ****         int32_t sb = lv_obj_get_scroll_bottom(scroll_obj);
 106:Drivers/lvgl/src/indev/lv_indev_scroll.c ****         diff_y = elastic_diff(scroll_obj, indev->pointer.vect.y, st, sb, LV_DIR_VER);
 107:Drivers/lvgl/src/indev/lv_indev_scroll.c ****     }
 108:Drivers/lvgl/src/indev/lv_indev_scroll.c **** 
 109:Drivers/lvgl/src/indev/lv_indev_scroll.c ****     lv_dir_t scroll_dir = lv_obj_get_scroll_dir(scroll_obj);
 110:Drivers/lvgl/src/indev/lv_indev_scroll.c ****     if((scroll_dir & LV_DIR_LEFT)   == 0 && diff_x > 0) diff_x = 0;
 111:Drivers/lvgl/src/indev/lv_indev_scroll.c ****     if((scroll_dir & LV_DIR_RIGHT)  == 0 && diff_x < 0) diff_x = 0;
 112:Drivers/lvgl/src/indev/lv_indev_scroll.c ****     if((scroll_dir & LV_DIR_TOP)    == 0 && diff_y > 0) diff_y = 0;
 113:Drivers/lvgl/src/indev/lv_indev_scroll.c ****     if((scroll_dir & LV_DIR_BOTTOM) == 0 && diff_y < 0) diff_y = 0;
 114:Drivers/lvgl/src/indev/lv_indev_scroll.c **** 
 115:Drivers/lvgl/src/indev/lv_indev_scroll.c ****     /*Respect the scroll limit area*/
 116:Drivers/lvgl/src/indev/lv_indev_scroll.c ****     scroll_limit_diff(indev, &diff_x, &diff_y);
 117:Drivers/lvgl/src/indev/lv_indev_scroll.c **** 
 118:Drivers/lvgl/src/indev/lv_indev_scroll.c ****     lv_obj_scroll_by_raw(scroll_obj, diff_x, diff_y);
 119:Drivers/lvgl/src/indev/lv_indev_scroll.c ****     if(indev->reset_query) return;
 120:Drivers/lvgl/src/indev/lv_indev_scroll.c ****     indev->pointer.scroll_sum.x += diff_x;
 121:Drivers/lvgl/src/indev/lv_indev_scroll.c ****     indev->pointer.scroll_sum.y += diff_y;
 122:Drivers/lvgl/src/indev/lv_indev_scroll.c **** }
 123:Drivers/lvgl/src/indev/lv_indev_scroll.c **** 
 124:Drivers/lvgl/src/indev/lv_indev_scroll.c **** void lv_indev_scroll_throw_handler(lv_indev_t * indev)
 125:Drivers/lvgl/src/indev/lv_indev_scroll.c **** {
 126:Drivers/lvgl/src/indev/lv_indev_scroll.c ****     lv_obj_t * scroll_obj = indev->pointer.scroll_obj;
 127:Drivers/lvgl/src/indev/lv_indev_scroll.c ****     if(scroll_obj == NULL) return;
 128:Drivers/lvgl/src/indev/lv_indev_scroll.c ****     if(indev->pointer.scroll_dir == LV_DIR_NONE) return;
 129:Drivers/lvgl/src/indev/lv_indev_scroll.c **** 
 130:Drivers/lvgl/src/indev/lv_indev_scroll.c ****     int32_t scroll_throw = indev->scroll_throw;
 131:Drivers/lvgl/src/indev/lv_indev_scroll.c **** 
 132:Drivers/lvgl/src/indev/lv_indev_scroll.c ****     if(lv_obj_has_flag(scroll_obj, LV_OBJ_FLAG_SCROLL_MOMENTUM) == false) {
 133:Drivers/lvgl/src/indev/lv_indev_scroll.c ****         indev->pointer.scroll_throw_vect.y = 0;
 134:Drivers/lvgl/src/indev/lv_indev_scroll.c ****         indev->pointer.scroll_throw_vect.x = 0;
 135:Drivers/lvgl/src/indev/lv_indev_scroll.c ****     }
 136:Drivers/lvgl/src/indev/lv_indev_scroll.c **** 
 137:Drivers/lvgl/src/indev/lv_indev_scroll.c ****     lv_scroll_snap_t align_x = lv_obj_get_scroll_snap_x(scroll_obj);
 138:Drivers/lvgl/src/indev/lv_indev_scroll.c ****     lv_scroll_snap_t align_y = lv_obj_get_scroll_snap_y(scroll_obj);
 139:Drivers/lvgl/src/indev/lv_indev_scroll.c **** 
 140:Drivers/lvgl/src/indev/lv_indev_scroll.c ****     if(indev->pointer.scroll_dir == LV_DIR_VER) {
 141:Drivers/lvgl/src/indev/lv_indev_scroll.c ****         indev->pointer.scroll_throw_vect.x = 0;
 142:Drivers/lvgl/src/indev/lv_indev_scroll.c ****         /*If no snapping "throw"*/
 143:Drivers/lvgl/src/indev/lv_indev_scroll.c ****         if(align_y == LV_SCROLL_SNAP_NONE) {
 144:Drivers/lvgl/src/indev/lv_indev_scroll.c ****             indev->pointer.scroll_throw_vect.y =
ARM GAS  /var/folders/qx/2_175_4n2s19vhvtspjhb3qh0000gn/T//ccspqae8.s 			page 4


 145:Drivers/lvgl/src/indev/lv_indev_scroll.c ****                 indev->pointer.scroll_throw_vect.y * (100 - scroll_throw) / 100;
 146:Drivers/lvgl/src/indev/lv_indev_scroll.c **** 
 147:Drivers/lvgl/src/indev/lv_indev_scroll.c ****             int32_t sb = lv_obj_get_scroll_bottom(scroll_obj);
 148:Drivers/lvgl/src/indev/lv_indev_scroll.c ****             int32_t st = lv_obj_get_scroll_top(scroll_obj);
 149:Drivers/lvgl/src/indev/lv_indev_scroll.c **** 
 150:Drivers/lvgl/src/indev/lv_indev_scroll.c ****             indev->pointer.scroll_throw_vect.y = elastic_diff(scroll_obj, indev->pointer.scroll_thr
 151:Drivers/lvgl/src/indev/lv_indev_scroll.c ****                                                               LV_DIR_VER);
 152:Drivers/lvgl/src/indev/lv_indev_scroll.c **** 
 153:Drivers/lvgl/src/indev/lv_indev_scroll.c ****             lv_obj_scroll_by_raw(scroll_obj, 0,  indev->pointer.scroll_throw_vect.y);
 154:Drivers/lvgl/src/indev/lv_indev_scroll.c ****             if(indev->reset_query) return;
 155:Drivers/lvgl/src/indev/lv_indev_scroll.c ****         }
 156:Drivers/lvgl/src/indev/lv_indev_scroll.c ****         /*With snapping find the nearest snap point and scroll there*/
 157:Drivers/lvgl/src/indev/lv_indev_scroll.c ****         else {
 158:Drivers/lvgl/src/indev/lv_indev_scroll.c ****             int32_t diff_y = lv_indev_scroll_throw_predict(indev, LV_DIR_VER);
 159:Drivers/lvgl/src/indev/lv_indev_scroll.c ****             indev->pointer.scroll_throw_vect.y = 0;
 160:Drivers/lvgl/src/indev/lv_indev_scroll.c ****             scroll_limit_diff(indev, NULL, &diff_y);
 161:Drivers/lvgl/src/indev/lv_indev_scroll.c ****             int32_t y = find_snap_point_y(scroll_obj, LV_COORD_MIN, LV_COORD_MAX, diff_y);
 162:Drivers/lvgl/src/indev/lv_indev_scroll.c ****             lv_obj_scroll_by(scroll_obj, 0, diff_y + y, LV_ANIM_ON);
 163:Drivers/lvgl/src/indev/lv_indev_scroll.c ****             if(indev->reset_query) return;
 164:Drivers/lvgl/src/indev/lv_indev_scroll.c ****         }
 165:Drivers/lvgl/src/indev/lv_indev_scroll.c ****     }
 166:Drivers/lvgl/src/indev/lv_indev_scroll.c ****     else if(indev->pointer.scroll_dir == LV_DIR_HOR) {
 167:Drivers/lvgl/src/indev/lv_indev_scroll.c ****         indev->pointer.scroll_throw_vect.y = 0;
 168:Drivers/lvgl/src/indev/lv_indev_scroll.c ****         /*If no snapping "throw"*/
 169:Drivers/lvgl/src/indev/lv_indev_scroll.c ****         if(align_x == LV_SCROLL_SNAP_NONE) {
 170:Drivers/lvgl/src/indev/lv_indev_scroll.c ****             indev->pointer.scroll_throw_vect.x =
 171:Drivers/lvgl/src/indev/lv_indev_scroll.c ****                 indev->pointer.scroll_throw_vect.x * (100 - scroll_throw) / 100;
 172:Drivers/lvgl/src/indev/lv_indev_scroll.c **** 
 173:Drivers/lvgl/src/indev/lv_indev_scroll.c ****             int32_t sl = lv_obj_get_scroll_left(scroll_obj);
 174:Drivers/lvgl/src/indev/lv_indev_scroll.c ****             int32_t sr = lv_obj_get_scroll_right(scroll_obj);
 175:Drivers/lvgl/src/indev/lv_indev_scroll.c **** 
 176:Drivers/lvgl/src/indev/lv_indev_scroll.c ****             indev->pointer.scroll_throw_vect.x = elastic_diff(scroll_obj, indev->pointer.scroll_thr
 177:Drivers/lvgl/src/indev/lv_indev_scroll.c ****                                                               LV_DIR_HOR);
 178:Drivers/lvgl/src/indev/lv_indev_scroll.c **** 
 179:Drivers/lvgl/src/indev/lv_indev_scroll.c ****             lv_obj_scroll_by_raw(scroll_obj, indev->pointer.scroll_throw_vect.x, 0);
 180:Drivers/lvgl/src/indev/lv_indev_scroll.c ****             if(indev->reset_query) return;
 181:Drivers/lvgl/src/indev/lv_indev_scroll.c ****         }
 182:Drivers/lvgl/src/indev/lv_indev_scroll.c ****         /*With snapping find the nearest snap point and scroll there*/
 183:Drivers/lvgl/src/indev/lv_indev_scroll.c ****         else {
 184:Drivers/lvgl/src/indev/lv_indev_scroll.c ****             int32_t diff_x = lv_indev_scroll_throw_predict(indev, LV_DIR_HOR);
 185:Drivers/lvgl/src/indev/lv_indev_scroll.c ****             indev->pointer.scroll_throw_vect.x = 0;
 186:Drivers/lvgl/src/indev/lv_indev_scroll.c ****             scroll_limit_diff(indev, &diff_x, NULL);
 187:Drivers/lvgl/src/indev/lv_indev_scroll.c ****             int32_t x = find_snap_point_x(scroll_obj, LV_COORD_MIN, LV_COORD_MAX, diff_x);
 188:Drivers/lvgl/src/indev/lv_indev_scroll.c ****             lv_obj_scroll_by(scroll_obj, x + diff_x, 0, LV_ANIM_ON);
 189:Drivers/lvgl/src/indev/lv_indev_scroll.c ****             if(indev->reset_query) return;
 190:Drivers/lvgl/src/indev/lv_indev_scroll.c ****         }
 191:Drivers/lvgl/src/indev/lv_indev_scroll.c ****     }
 192:Drivers/lvgl/src/indev/lv_indev_scroll.c **** 
 193:Drivers/lvgl/src/indev/lv_indev_scroll.c ****     /*Check if the scroll has finished*/
 194:Drivers/lvgl/src/indev/lv_indev_scroll.c ****     if(indev->pointer.scroll_throw_vect.x == 0 && indev->pointer.scroll_throw_vect.y == 0) {
 195:Drivers/lvgl/src/indev/lv_indev_scroll.c ****         /*Revert if scrolled in*/
 196:Drivers/lvgl/src/indev/lv_indev_scroll.c ****         /*If vertically scrollable and not controlled by snap*/
 197:Drivers/lvgl/src/indev/lv_indev_scroll.c ****         if(align_y == LV_SCROLL_SNAP_NONE) {
 198:Drivers/lvgl/src/indev/lv_indev_scroll.c ****             int32_t st = lv_obj_get_scroll_top(scroll_obj);
 199:Drivers/lvgl/src/indev/lv_indev_scroll.c ****             int32_t sb = lv_obj_get_scroll_bottom(scroll_obj);
 200:Drivers/lvgl/src/indev/lv_indev_scroll.c ****             if(st > 0 || sb > 0) {
 201:Drivers/lvgl/src/indev/lv_indev_scroll.c ****                 if(st < 0) {
ARM GAS  /var/folders/qx/2_175_4n2s19vhvtspjhb3qh0000gn/T//ccspqae8.s 			page 5


 202:Drivers/lvgl/src/indev/lv_indev_scroll.c ****                     lv_obj_scroll_by(scroll_obj, 0, st, LV_ANIM_ON);
 203:Drivers/lvgl/src/indev/lv_indev_scroll.c ****                     if(indev->reset_query) return;
 204:Drivers/lvgl/src/indev/lv_indev_scroll.c ****                 }
 205:Drivers/lvgl/src/indev/lv_indev_scroll.c ****                 else if(sb < 0) {
 206:Drivers/lvgl/src/indev/lv_indev_scroll.c ****                     lv_obj_scroll_by(scroll_obj, 0, -sb, LV_ANIM_ON);
 207:Drivers/lvgl/src/indev/lv_indev_scroll.c ****                     if(indev->reset_query) return;
 208:Drivers/lvgl/src/indev/lv_indev_scroll.c ****                 }
 209:Drivers/lvgl/src/indev/lv_indev_scroll.c ****             }
 210:Drivers/lvgl/src/indev/lv_indev_scroll.c ****         }
 211:Drivers/lvgl/src/indev/lv_indev_scroll.c **** 
 212:Drivers/lvgl/src/indev/lv_indev_scroll.c ****         /*If horizontally scrollable and not controlled by snap*/
 213:Drivers/lvgl/src/indev/lv_indev_scroll.c ****         if(align_x == LV_SCROLL_SNAP_NONE) {
 214:Drivers/lvgl/src/indev/lv_indev_scroll.c ****             int32_t sl = lv_obj_get_scroll_left(scroll_obj);
 215:Drivers/lvgl/src/indev/lv_indev_scroll.c ****             int32_t sr = lv_obj_get_scroll_right(scroll_obj);
 216:Drivers/lvgl/src/indev/lv_indev_scroll.c ****             if(sl > 0 || sr > 0) {
 217:Drivers/lvgl/src/indev/lv_indev_scroll.c ****                 if(sl < 0) {
 218:Drivers/lvgl/src/indev/lv_indev_scroll.c ****                     lv_obj_scroll_by(scroll_obj, sl, 0, LV_ANIM_ON);
 219:Drivers/lvgl/src/indev/lv_indev_scroll.c ****                     if(indev->reset_query) return;
 220:Drivers/lvgl/src/indev/lv_indev_scroll.c ****                 }
 221:Drivers/lvgl/src/indev/lv_indev_scroll.c ****                 else if(sr < 0) {
 222:Drivers/lvgl/src/indev/lv_indev_scroll.c ****                     lv_obj_scroll_by(scroll_obj, -sr, 0, LV_ANIM_ON);
 223:Drivers/lvgl/src/indev/lv_indev_scroll.c ****                     if(indev->reset_query) return;
 224:Drivers/lvgl/src/indev/lv_indev_scroll.c ****                 }
 225:Drivers/lvgl/src/indev/lv_indev_scroll.c ****             }
 226:Drivers/lvgl/src/indev/lv_indev_scroll.c ****         }
 227:Drivers/lvgl/src/indev/lv_indev_scroll.c **** 
 228:Drivers/lvgl/src/indev/lv_indev_scroll.c ****         lv_obj_send_event(scroll_obj, LV_EVENT_SCROLL_END, indev);
 229:Drivers/lvgl/src/indev/lv_indev_scroll.c ****         if(indev->reset_query) return;
 230:Drivers/lvgl/src/indev/lv_indev_scroll.c **** 
 231:Drivers/lvgl/src/indev/lv_indev_scroll.c ****         indev->pointer.scroll_dir = LV_DIR_NONE;
 232:Drivers/lvgl/src/indev/lv_indev_scroll.c ****         indev->pointer.scroll_obj = NULL;
 233:Drivers/lvgl/src/indev/lv_indev_scroll.c ****     }
 234:Drivers/lvgl/src/indev/lv_indev_scroll.c **** }
 235:Drivers/lvgl/src/indev/lv_indev_scroll.c **** 
 236:Drivers/lvgl/src/indev/lv_indev_scroll.c **** int32_t lv_indev_scroll_throw_predict(lv_indev_t * indev, lv_dir_t dir)
 237:Drivers/lvgl/src/indev/lv_indev_scroll.c **** {
 238:Drivers/lvgl/src/indev/lv_indev_scroll.c ****     if(indev == NULL) return 0;
 239:Drivers/lvgl/src/indev/lv_indev_scroll.c ****     int32_t v;
 240:Drivers/lvgl/src/indev/lv_indev_scroll.c ****     switch(dir) {
 241:Drivers/lvgl/src/indev/lv_indev_scroll.c ****         case LV_DIR_VER:
 242:Drivers/lvgl/src/indev/lv_indev_scroll.c ****             v = indev->pointer.scroll_throw_vect_ori.y;
 243:Drivers/lvgl/src/indev/lv_indev_scroll.c ****             break;
 244:Drivers/lvgl/src/indev/lv_indev_scroll.c ****         case LV_DIR_HOR:
 245:Drivers/lvgl/src/indev/lv_indev_scroll.c ****             v = indev->pointer.scroll_throw_vect_ori.x;
 246:Drivers/lvgl/src/indev/lv_indev_scroll.c ****             break;
 247:Drivers/lvgl/src/indev/lv_indev_scroll.c ****         default:
 248:Drivers/lvgl/src/indev/lv_indev_scroll.c ****             return 0;
 249:Drivers/lvgl/src/indev/lv_indev_scroll.c ****     }
 250:Drivers/lvgl/src/indev/lv_indev_scroll.c **** 
 251:Drivers/lvgl/src/indev/lv_indev_scroll.c ****     int32_t scroll_throw = indev->scroll_throw;
 252:Drivers/lvgl/src/indev/lv_indev_scroll.c ****     int32_t sum = 0;
 253:Drivers/lvgl/src/indev/lv_indev_scroll.c ****     while(v) {
 254:Drivers/lvgl/src/indev/lv_indev_scroll.c ****         sum += v;
 255:Drivers/lvgl/src/indev/lv_indev_scroll.c ****         v = v * (100 - scroll_throw) / 100;
 256:Drivers/lvgl/src/indev/lv_indev_scroll.c ****     }
 257:Drivers/lvgl/src/indev/lv_indev_scroll.c **** 
 258:Drivers/lvgl/src/indev/lv_indev_scroll.c ****     return sum;
ARM GAS  /var/folders/qx/2_175_4n2s19vhvtspjhb3qh0000gn/T//ccspqae8.s 			page 6


 259:Drivers/lvgl/src/indev/lv_indev_scroll.c **** }
 260:Drivers/lvgl/src/indev/lv_indev_scroll.c **** 
 261:Drivers/lvgl/src/indev/lv_indev_scroll.c **** void lv_indev_scroll_get_snap_dist(lv_obj_t * obj, lv_point_t * p)
 262:Drivers/lvgl/src/indev/lv_indev_scroll.c **** {
 263:Drivers/lvgl/src/indev/lv_indev_scroll.c ****     p->x = find_snap_point_x(obj, obj->coords.x1, obj->coords.x2, 0);
 264:Drivers/lvgl/src/indev/lv_indev_scroll.c ****     p->y = find_snap_point_y(obj, obj->coords.y1, obj->coords.y2, 0);
 265:Drivers/lvgl/src/indev/lv_indev_scroll.c **** }
 266:Drivers/lvgl/src/indev/lv_indev_scroll.c **** 
 267:Drivers/lvgl/src/indev/lv_indev_scroll.c **** lv_obj_t * lv_indev_find_scroll_obj(lv_indev_t * indev)
 268:Drivers/lvgl/src/indev/lv_indev_scroll.c **** {
 269:Drivers/lvgl/src/indev/lv_indev_scroll.c ****     lv_obj_t * obj_candidate = NULL;
 270:Drivers/lvgl/src/indev/lv_indev_scroll.c ****     lv_dir_t dir_candidate = LV_DIR_NONE;
 271:Drivers/lvgl/src/indev/lv_indev_scroll.c ****     int32_t scroll_limit = indev->scroll_limit;
 272:Drivers/lvgl/src/indev/lv_indev_scroll.c **** 
 273:Drivers/lvgl/src/indev/lv_indev_scroll.c ****     /*Go until find a scrollable object in the current direction
 274:Drivers/lvgl/src/indev/lv_indev_scroll.c ****      *More precisely:
 275:Drivers/lvgl/src/indev/lv_indev_scroll.c ****      * 1. Check the pressed object and all of its ancestors and try to find an object which is scro
 276:Drivers/lvgl/src/indev/lv_indev_scroll.c ****      * 2. Scrollable means it has some content out of its area
 277:Drivers/lvgl/src/indev/lv_indev_scroll.c ****      * 3. If an object can be scrolled into the current direction then use it ("real match"")
 278:Drivers/lvgl/src/indev/lv_indev_scroll.c ****      * 4. If can be scrolled on the current axis (hor/ver) save it as candidate (at least show an e
 279:Drivers/lvgl/src/indev/lv_indev_scroll.c ****      * 5. Use the last candidate. Always the "deepest" parent or the object from point 3*/
 280:Drivers/lvgl/src/indev/lv_indev_scroll.c ****     lv_obj_t * obj_act = indev->pointer.act_obj;
 281:Drivers/lvgl/src/indev/lv_indev_scroll.c **** 
 282:Drivers/lvgl/src/indev/lv_indev_scroll.c ****     /*Decide if it's a horizontal or vertical scroll*/
 283:Drivers/lvgl/src/indev/lv_indev_scroll.c ****     bool hor_en = false;
 284:Drivers/lvgl/src/indev/lv_indev_scroll.c ****     bool ver_en = false;
 285:Drivers/lvgl/src/indev/lv_indev_scroll.c ****     indev->pointer.scroll_sum.x += indev->pointer.vect.x;
 286:Drivers/lvgl/src/indev/lv_indev_scroll.c ****     indev->pointer.scroll_sum.y += indev->pointer.vect.y;
 287:Drivers/lvgl/src/indev/lv_indev_scroll.c **** 
 288:Drivers/lvgl/src/indev/lv_indev_scroll.c ****     while(obj_act) {
 289:Drivers/lvgl/src/indev/lv_indev_scroll.c ****         /*Get the transformed scroll_sum with this object*/
 290:Drivers/lvgl/src/indev/lv_indev_scroll.c ****         int16_t angle = 0;
 291:Drivers/lvgl/src/indev/lv_indev_scroll.c ****         int32_t scale_x = 256;
 292:Drivers/lvgl/src/indev/lv_indev_scroll.c ****         int32_t scale_y = 256;
 293:Drivers/lvgl/src/indev/lv_indev_scroll.c ****         lv_point_t pivot = { 0, 0 };
 294:Drivers/lvgl/src/indev/lv_indev_scroll.c ****         lv_obj_t * parent = obj_act;
 295:Drivers/lvgl/src/indev/lv_indev_scroll.c ****         while(parent) {
 296:Drivers/lvgl/src/indev/lv_indev_scroll.c ****             angle += lv_obj_get_style_transform_rotation(parent, LV_PART_MAIN);
 297:Drivers/lvgl/src/indev/lv_indev_scroll.c ****             int32_t zoom_act_x = lv_obj_get_style_transform_scale_x_safe(parent, LV_PART_MAIN);
 298:Drivers/lvgl/src/indev/lv_indev_scroll.c ****             int32_t zoom_act_y = lv_obj_get_style_transform_scale_y_safe(parent, LV_PART_MAIN);
 299:Drivers/lvgl/src/indev/lv_indev_scroll.c ****             scale_x = (scale_x * zoom_act_x) >> 8;
 300:Drivers/lvgl/src/indev/lv_indev_scroll.c ****             scale_y = (scale_y * zoom_act_y) >> 8;
 301:Drivers/lvgl/src/indev/lv_indev_scroll.c ****             parent = lv_obj_get_parent(parent);
 302:Drivers/lvgl/src/indev/lv_indev_scroll.c ****         }
 303:Drivers/lvgl/src/indev/lv_indev_scroll.c **** 
 304:Drivers/lvgl/src/indev/lv_indev_scroll.c ****         if(scale_x == 0) {
 305:Drivers/lvgl/src/indev/lv_indev_scroll.c ****             scale_x = 1;
 306:Drivers/lvgl/src/indev/lv_indev_scroll.c ****         }
 307:Drivers/lvgl/src/indev/lv_indev_scroll.c **** 
 308:Drivers/lvgl/src/indev/lv_indev_scroll.c ****         if(scale_y == 0) {
 309:Drivers/lvgl/src/indev/lv_indev_scroll.c ****             scale_y = 1;
 310:Drivers/lvgl/src/indev/lv_indev_scroll.c ****         }
 311:Drivers/lvgl/src/indev/lv_indev_scroll.c **** 
 312:Drivers/lvgl/src/indev/lv_indev_scroll.c ****         lv_point_t obj_scroll_sum = indev->pointer.scroll_sum;
 313:Drivers/lvgl/src/indev/lv_indev_scroll.c ****         if(angle != 0 || scale_x != LV_SCALE_NONE || scale_y != LV_SCALE_NONE) {
 314:Drivers/lvgl/src/indev/lv_indev_scroll.c ****             angle = -angle;
 315:Drivers/lvgl/src/indev/lv_indev_scroll.c ****             scale_x = (256 * 256) / scale_x;
ARM GAS  /var/folders/qx/2_175_4n2s19vhvtspjhb3qh0000gn/T//ccspqae8.s 			page 7


 316:Drivers/lvgl/src/indev/lv_indev_scroll.c ****             scale_y = (256 * 256) / scale_y;
 317:Drivers/lvgl/src/indev/lv_indev_scroll.c ****             lv_point_transform(&obj_scroll_sum, angle, scale_x, scale_y, &pivot, false);
 318:Drivers/lvgl/src/indev/lv_indev_scroll.c ****         }
 319:Drivers/lvgl/src/indev/lv_indev_scroll.c **** 
 320:Drivers/lvgl/src/indev/lv_indev_scroll.c ****         if(LV_ABS(obj_scroll_sum.x) > LV_ABS(obj_scroll_sum.y)) {
 321:Drivers/lvgl/src/indev/lv_indev_scroll.c ****             hor_en = true;
 322:Drivers/lvgl/src/indev/lv_indev_scroll.c ****         }
 323:Drivers/lvgl/src/indev/lv_indev_scroll.c ****         else {
 324:Drivers/lvgl/src/indev/lv_indev_scroll.c ****             ver_en = true;
 325:Drivers/lvgl/src/indev/lv_indev_scroll.c ****         }
 326:Drivers/lvgl/src/indev/lv_indev_scroll.c **** 
 327:Drivers/lvgl/src/indev/lv_indev_scroll.c ****         if(lv_obj_has_flag(obj_act, LV_OBJ_FLAG_SCROLLABLE) == false) {
 328:Drivers/lvgl/src/indev/lv_indev_scroll.c ****             /*If this object don't want to chain the scroll to the parent stop searching*/
 329:Drivers/lvgl/src/indev/lv_indev_scroll.c ****             if(lv_obj_has_flag(obj_act, LV_OBJ_FLAG_SCROLL_CHAIN_HOR) == false && hor_en) break;
 330:Drivers/lvgl/src/indev/lv_indev_scroll.c ****             if(lv_obj_has_flag(obj_act, LV_OBJ_FLAG_SCROLL_CHAIN_VER) == false && ver_en) break;
 331:Drivers/lvgl/src/indev/lv_indev_scroll.c **** 
 332:Drivers/lvgl/src/indev/lv_indev_scroll.c ****             obj_act = lv_obj_get_parent(obj_act);
 333:Drivers/lvgl/src/indev/lv_indev_scroll.c ****             continue;
 334:Drivers/lvgl/src/indev/lv_indev_scroll.c ****         }
 335:Drivers/lvgl/src/indev/lv_indev_scroll.c **** 
 336:Drivers/lvgl/src/indev/lv_indev_scroll.c ****         /*Consider both up-down or left/right scrollable according to the current direction*/
 337:Drivers/lvgl/src/indev/lv_indev_scroll.c ****         bool up_en = ver_en;
 338:Drivers/lvgl/src/indev/lv_indev_scroll.c ****         bool down_en = ver_en;
 339:Drivers/lvgl/src/indev/lv_indev_scroll.c ****         bool left_en = hor_en;
 340:Drivers/lvgl/src/indev/lv_indev_scroll.c ****         bool right_en = hor_en;
 341:Drivers/lvgl/src/indev/lv_indev_scroll.c **** 
 342:Drivers/lvgl/src/indev/lv_indev_scroll.c ****         /*The object might have disabled some directions.*/
 343:Drivers/lvgl/src/indev/lv_indev_scroll.c ****         lv_dir_t scroll_dir = lv_obj_get_scroll_dir(obj_act);
 344:Drivers/lvgl/src/indev/lv_indev_scroll.c ****         if((scroll_dir & LV_DIR_LEFT) == 0) left_en = false;
 345:Drivers/lvgl/src/indev/lv_indev_scroll.c ****         if((scroll_dir & LV_DIR_RIGHT) == 0) right_en = false;
 346:Drivers/lvgl/src/indev/lv_indev_scroll.c ****         if((scroll_dir & LV_DIR_TOP) == 0) up_en = false;
 347:Drivers/lvgl/src/indev/lv_indev_scroll.c ****         if((scroll_dir & LV_DIR_BOTTOM) == 0) down_en = false;
 348:Drivers/lvgl/src/indev/lv_indev_scroll.c **** 
 349:Drivers/lvgl/src/indev/lv_indev_scroll.c ****         /*Horizontal scroll*/
 350:Drivers/lvgl/src/indev/lv_indev_scroll.c ****         int32_t sl = 0;
 351:Drivers/lvgl/src/indev/lv_indev_scroll.c ****         int32_t sr = 0;
 352:Drivers/lvgl/src/indev/lv_indev_scroll.c ****         lv_scroll_snap_t snap_x = lv_obj_get_scroll_snap_x(obj_act);
 353:Drivers/lvgl/src/indev/lv_indev_scroll.c ****         if(snap_x == LV_SCROLL_SNAP_NONE) {
 354:Drivers/lvgl/src/indev/lv_indev_scroll.c ****             sl = lv_obj_get_scroll_left(obj_act);
 355:Drivers/lvgl/src/indev/lv_indev_scroll.c ****             sr = lv_obj_get_scroll_right(obj_act);
 356:Drivers/lvgl/src/indev/lv_indev_scroll.c ****         }
 357:Drivers/lvgl/src/indev/lv_indev_scroll.c ****         else {
 358:Drivers/lvgl/src/indev/lv_indev_scroll.c ****             bool has_start_snap;
 359:Drivers/lvgl/src/indev/lv_indev_scroll.c ****             bool has_end_snap;
 360:Drivers/lvgl/src/indev/lv_indev_scroll.c ****             has_more_snap_points(obj_act, LV_DIR_HOR, &has_start_snap, &has_end_snap);
 361:Drivers/lvgl/src/indev/lv_indev_scroll.c **** 
 362:Drivers/lvgl/src/indev/lv_indev_scroll.c ****             /*Assume scrolling is there are more snap point
 363:Drivers/lvgl/src/indev/lv_indev_scroll.c ****              *Assumed scroll in if there are NO more nap points*/
 364:Drivers/lvgl/src/indev/lv_indev_scroll.c ****             sl = has_start_snap ? 1 : -1;
 365:Drivers/lvgl/src/indev/lv_indev_scroll.c ****             sr = has_end_snap ? 1 : -1;
 366:Drivers/lvgl/src/indev/lv_indev_scroll.c ****         }
 367:Drivers/lvgl/src/indev/lv_indev_scroll.c **** 
 368:Drivers/lvgl/src/indev/lv_indev_scroll.c ****         /*Vertical scroll*/
 369:Drivers/lvgl/src/indev/lv_indev_scroll.c ****         int32_t st = 0;
 370:Drivers/lvgl/src/indev/lv_indev_scroll.c ****         int32_t sb = 0;
 371:Drivers/lvgl/src/indev/lv_indev_scroll.c ****         lv_scroll_snap_t snap_y = lv_obj_get_scroll_snap_y(obj_act);
 372:Drivers/lvgl/src/indev/lv_indev_scroll.c ****         if(snap_y == LV_SCROLL_SNAP_NONE) {
ARM GAS  /var/folders/qx/2_175_4n2s19vhvtspjhb3qh0000gn/T//ccspqae8.s 			page 8


 373:Drivers/lvgl/src/indev/lv_indev_scroll.c ****             st = lv_obj_get_scroll_top(obj_act);
 374:Drivers/lvgl/src/indev/lv_indev_scroll.c ****             sb = lv_obj_get_scroll_bottom(obj_act);
 375:Drivers/lvgl/src/indev/lv_indev_scroll.c ****         }
 376:Drivers/lvgl/src/indev/lv_indev_scroll.c ****         else {
 377:Drivers/lvgl/src/indev/lv_indev_scroll.c ****             bool has_start_snap;
 378:Drivers/lvgl/src/indev/lv_indev_scroll.c ****             bool has_end_snap;
 379:Drivers/lvgl/src/indev/lv_indev_scroll.c ****             has_more_snap_points(obj_act, LV_DIR_VER, &has_start_snap, &has_end_snap);
 380:Drivers/lvgl/src/indev/lv_indev_scroll.c **** 
 381:Drivers/lvgl/src/indev/lv_indev_scroll.c ****             /*Assume scrolling is there are more snap point
 382:Drivers/lvgl/src/indev/lv_indev_scroll.c ****              *Assumed scroll in if there are NO more nap points*/
 383:Drivers/lvgl/src/indev/lv_indev_scroll.c ****             st = has_start_snap ? 1 : -1;
 384:Drivers/lvgl/src/indev/lv_indev_scroll.c ****             sb = has_end_snap ? 1 : -1;
 385:Drivers/lvgl/src/indev/lv_indev_scroll.c ****         }
 386:Drivers/lvgl/src/indev/lv_indev_scroll.c **** 
 387:Drivers/lvgl/src/indev/lv_indev_scroll.c ****         /*If this object is scrollable into the current scroll direction then save it as a candidat
 388:Drivers/lvgl/src/indev/lv_indev_scroll.c ****          *It's important only to be scrollable on the current axis (hor/ver) because if the scroll
 389:Drivers/lvgl/src/indev/lv_indev_scroll.c ****          *is propagated to this object it can show at least elastic scroll effect.
 390:Drivers/lvgl/src/indev/lv_indev_scroll.c ****          *But if not hor/ver scrollable do not scroll it at all (so it's not a good candidate)*/
 391:Drivers/lvgl/src/indev/lv_indev_scroll.c ****         if((st > 0 || sb > 0)  &&
 392:Drivers/lvgl/src/indev/lv_indev_scroll.c ****            ((up_en    && obj_scroll_sum.y >=   scroll_limit) ||
 393:Drivers/lvgl/src/indev/lv_indev_scroll.c ****             (down_en  && obj_scroll_sum.y <= - scroll_limit))) {
 394:Drivers/lvgl/src/indev/lv_indev_scroll.c ****             obj_candidate = obj_act;
 395:Drivers/lvgl/src/indev/lv_indev_scroll.c ****             dir_candidate = LV_DIR_VER;
 396:Drivers/lvgl/src/indev/lv_indev_scroll.c ****         }
 397:Drivers/lvgl/src/indev/lv_indev_scroll.c **** 
 398:Drivers/lvgl/src/indev/lv_indev_scroll.c ****         if((sl > 0 || sr > 0)  &&
 399:Drivers/lvgl/src/indev/lv_indev_scroll.c ****            ((left_en   && obj_scroll_sum.x >=   scroll_limit) ||
 400:Drivers/lvgl/src/indev/lv_indev_scroll.c ****             (right_en  && obj_scroll_sum.x <= - scroll_limit))) {
 401:Drivers/lvgl/src/indev/lv_indev_scroll.c ****             obj_candidate = obj_act;
 402:Drivers/lvgl/src/indev/lv_indev_scroll.c ****             dir_candidate = LV_DIR_HOR;
 403:Drivers/lvgl/src/indev/lv_indev_scroll.c ****         }
 404:Drivers/lvgl/src/indev/lv_indev_scroll.c **** 
 405:Drivers/lvgl/src/indev/lv_indev_scroll.c ****         if(st <= 0) up_en = false;
 406:Drivers/lvgl/src/indev/lv_indev_scroll.c ****         if(sb <= 0) down_en = false;
 407:Drivers/lvgl/src/indev/lv_indev_scroll.c ****         if(sl <= 0) left_en = false;
 408:Drivers/lvgl/src/indev/lv_indev_scroll.c ****         if(sr <= 0) right_en = false;
 409:Drivers/lvgl/src/indev/lv_indev_scroll.c **** 
 410:Drivers/lvgl/src/indev/lv_indev_scroll.c ****         /*If the object really can be scrolled into the current direction then use it.*/
 411:Drivers/lvgl/src/indev/lv_indev_scroll.c ****         if((left_en  && obj_scroll_sum.x >=   scroll_limit) ||
 412:Drivers/lvgl/src/indev/lv_indev_scroll.c ****            (right_en && obj_scroll_sum.x <= - scroll_limit) ||
 413:Drivers/lvgl/src/indev/lv_indev_scroll.c ****            (up_en    && obj_scroll_sum.y >=   scroll_limit) ||
 414:Drivers/lvgl/src/indev/lv_indev_scroll.c ****            (down_en  && obj_scroll_sum.y <= - scroll_limit)) {
 415:Drivers/lvgl/src/indev/lv_indev_scroll.c ****             indev->pointer.scroll_dir = hor_en ? LV_DIR_HOR : LV_DIR_VER;
 416:Drivers/lvgl/src/indev/lv_indev_scroll.c ****             break;
 417:Drivers/lvgl/src/indev/lv_indev_scroll.c ****         }
 418:Drivers/lvgl/src/indev/lv_indev_scroll.c **** 
 419:Drivers/lvgl/src/indev/lv_indev_scroll.c ****         /*If this object don't want to chain the scroll to the parent stop searching*/
 420:Drivers/lvgl/src/indev/lv_indev_scroll.c ****         if(lv_obj_has_flag(obj_act, LV_OBJ_FLAG_SCROLL_CHAIN_HOR) == false && hor_en) break;
 421:Drivers/lvgl/src/indev/lv_indev_scroll.c ****         if(lv_obj_has_flag(obj_act, LV_OBJ_FLAG_SCROLL_CHAIN_VER) == false && ver_en) break;
 422:Drivers/lvgl/src/indev/lv_indev_scroll.c **** 
 423:Drivers/lvgl/src/indev/lv_indev_scroll.c ****         /*Try the parent*/
 424:Drivers/lvgl/src/indev/lv_indev_scroll.c ****         obj_act = lv_obj_get_parent(obj_act);
 425:Drivers/lvgl/src/indev/lv_indev_scroll.c ****     }
 426:Drivers/lvgl/src/indev/lv_indev_scroll.c **** 
 427:Drivers/lvgl/src/indev/lv_indev_scroll.c ****     /*Use the last candidate*/
 428:Drivers/lvgl/src/indev/lv_indev_scroll.c ****     if(obj_candidate) {
 429:Drivers/lvgl/src/indev/lv_indev_scroll.c ****         indev->pointer.scroll_dir = dir_candidate;
ARM GAS  /var/folders/qx/2_175_4n2s19vhvtspjhb3qh0000gn/T//ccspqae8.s 			page 9


 430:Drivers/lvgl/src/indev/lv_indev_scroll.c ****         indev->pointer.scroll_obj = obj_candidate;
 431:Drivers/lvgl/src/indev/lv_indev_scroll.c ****         indev->pointer.scroll_sum.x = 0;
 432:Drivers/lvgl/src/indev/lv_indev_scroll.c ****         indev->pointer.scroll_sum.y = 0;
 433:Drivers/lvgl/src/indev/lv_indev_scroll.c ****     }
 434:Drivers/lvgl/src/indev/lv_indev_scroll.c **** 
 435:Drivers/lvgl/src/indev/lv_indev_scroll.c ****     return obj_candidate;
 436:Drivers/lvgl/src/indev/lv_indev_scroll.c **** }
 437:Drivers/lvgl/src/indev/lv_indev_scroll.c **** 
 438:Drivers/lvgl/src/indev/lv_indev_scroll.c **** /**********************
 439:Drivers/lvgl/src/indev/lv_indev_scroll.c ****  *   STATIC FUNCTIONS
 440:Drivers/lvgl/src/indev/lv_indev_scroll.c ****  **********************/
 441:Drivers/lvgl/src/indev/lv_indev_scroll.c **** 
 442:Drivers/lvgl/src/indev/lv_indev_scroll.c **** static void init_scroll_limits(lv_indev_t * indev)
 443:Drivers/lvgl/src/indev/lv_indev_scroll.c **** {
 444:Drivers/lvgl/src/indev/lv_indev_scroll.c ****     lv_obj_t * obj = indev->pointer.scroll_obj;
 445:Drivers/lvgl/src/indev/lv_indev_scroll.c ****     /*If there no STOP allow scrolling anywhere*/
 446:Drivers/lvgl/src/indev/lv_indev_scroll.c ****     if(lv_obj_has_flag(obj, LV_OBJ_FLAG_SCROLL_ONE) == false) {
 447:Drivers/lvgl/src/indev/lv_indev_scroll.c ****         lv_area_set(&indev->pointer.scroll_area, LV_COORD_MIN, LV_COORD_MIN, LV_COORD_MAX, LV_COORD
 448:Drivers/lvgl/src/indev/lv_indev_scroll.c ****     }
 449:Drivers/lvgl/src/indev/lv_indev_scroll.c ****     /*With STOP limit the scrolling to the perv and next snap point*/
 450:Drivers/lvgl/src/indev/lv_indev_scroll.c ****     else {
 451:Drivers/lvgl/src/indev/lv_indev_scroll.c ****         switch(lv_obj_get_scroll_snap_y(obj)) {
 452:Drivers/lvgl/src/indev/lv_indev_scroll.c ****             case LV_SCROLL_SNAP_START:
 453:Drivers/lvgl/src/indev/lv_indev_scroll.c ****                 indev->pointer.scroll_area.y1 = find_snap_point_y(obj, obj->coords.y1 + 1, LV_COORD
 454:Drivers/lvgl/src/indev/lv_indev_scroll.c ****                 indev->pointer.scroll_area.y2 = find_snap_point_y(obj, LV_COORD_MIN, obj->coords.y1
 455:Drivers/lvgl/src/indev/lv_indev_scroll.c ****                 break;
 456:Drivers/lvgl/src/indev/lv_indev_scroll.c ****             case LV_SCROLL_SNAP_END:
 457:Drivers/lvgl/src/indev/lv_indev_scroll.c ****                 indev->pointer.scroll_area.y1 = find_snap_point_y(obj, obj->coords.y2, LV_COORD_MAX
 458:Drivers/lvgl/src/indev/lv_indev_scroll.c ****                 indev->pointer.scroll_area.y2 = find_snap_point_y(obj, LV_COORD_MIN, obj->coords.y2
 459:Drivers/lvgl/src/indev/lv_indev_scroll.c ****                 break;
 460:Drivers/lvgl/src/indev/lv_indev_scroll.c ****             case LV_SCROLL_SNAP_CENTER: {
 461:Drivers/lvgl/src/indev/lv_indev_scroll.c ****                     int32_t y_mid = obj->coords.y1 + lv_area_get_height(&obj->coords) / 2;
 462:Drivers/lvgl/src/indev/lv_indev_scroll.c ****                     indev->pointer.scroll_area.y1 = find_snap_point_y(obj, y_mid + 1, LV_COORD_MAX,
 463:Drivers/lvgl/src/indev/lv_indev_scroll.c ****                     indev->pointer.scroll_area.y2 = find_snap_point_y(obj, LV_COORD_MIN, y_mid - 1,
 464:Drivers/lvgl/src/indev/lv_indev_scroll.c ****                     break;
 465:Drivers/lvgl/src/indev/lv_indev_scroll.c ****                 }
 466:Drivers/lvgl/src/indev/lv_indev_scroll.c ****             default:
 467:Drivers/lvgl/src/indev/lv_indev_scroll.c ****                 indev->pointer.scroll_area.y1 = LV_COORD_MIN;
 468:Drivers/lvgl/src/indev/lv_indev_scroll.c ****                 indev->pointer.scroll_area.y2 = LV_COORD_MAX;
 469:Drivers/lvgl/src/indev/lv_indev_scroll.c ****                 break;
 470:Drivers/lvgl/src/indev/lv_indev_scroll.c ****         }
 471:Drivers/lvgl/src/indev/lv_indev_scroll.c **** 
 472:Drivers/lvgl/src/indev/lv_indev_scroll.c ****         switch(lv_obj_get_scroll_snap_x(obj)) {
 473:Drivers/lvgl/src/indev/lv_indev_scroll.c ****             case LV_SCROLL_SNAP_START:
 474:Drivers/lvgl/src/indev/lv_indev_scroll.c ****                 indev->pointer.scroll_area.x1 = find_snap_point_x(obj, obj->coords.x1, LV_COORD_MAX
 475:Drivers/lvgl/src/indev/lv_indev_scroll.c ****                 indev->pointer.scroll_area.x2 = find_snap_point_x(obj, LV_COORD_MIN, obj->coords.x1
 476:Drivers/lvgl/src/indev/lv_indev_scroll.c ****                 break;
 477:Drivers/lvgl/src/indev/lv_indev_scroll.c ****             case LV_SCROLL_SNAP_END:
 478:Drivers/lvgl/src/indev/lv_indev_scroll.c ****                 indev->pointer.scroll_area.x1 = find_snap_point_x(obj, obj->coords.x2, LV_COORD_MAX
 479:Drivers/lvgl/src/indev/lv_indev_scroll.c ****                 indev->pointer.scroll_area.x2 = find_snap_point_x(obj, LV_COORD_MIN, obj->coords.x2
 480:Drivers/lvgl/src/indev/lv_indev_scroll.c ****                 break;
 481:Drivers/lvgl/src/indev/lv_indev_scroll.c ****             case LV_SCROLL_SNAP_CENTER: {
 482:Drivers/lvgl/src/indev/lv_indev_scroll.c ****                     int32_t x_mid = obj->coords.x1 + lv_area_get_width(&obj->coords) / 2;
 483:Drivers/lvgl/src/indev/lv_indev_scroll.c ****                     indev->pointer.scroll_area.x1 = find_snap_point_x(obj, x_mid + 1, LV_COORD_MAX,
 484:Drivers/lvgl/src/indev/lv_indev_scroll.c ****                     indev->pointer.scroll_area.x2 = find_snap_point_x(obj, LV_COORD_MIN, x_mid - 1,
 485:Drivers/lvgl/src/indev/lv_indev_scroll.c ****                     break;
 486:Drivers/lvgl/src/indev/lv_indev_scroll.c ****                 }
ARM GAS  /var/folders/qx/2_175_4n2s19vhvtspjhb3qh0000gn/T//ccspqae8.s 			page 10


 487:Drivers/lvgl/src/indev/lv_indev_scroll.c ****             default:
 488:Drivers/lvgl/src/indev/lv_indev_scroll.c ****                 indev->pointer.scroll_area.x1 = LV_COORD_MIN;
 489:Drivers/lvgl/src/indev/lv_indev_scroll.c ****                 indev->pointer.scroll_area.x2 = LV_COORD_MAX;
 490:Drivers/lvgl/src/indev/lv_indev_scroll.c ****                 break;
 491:Drivers/lvgl/src/indev/lv_indev_scroll.c ****         }
 492:Drivers/lvgl/src/indev/lv_indev_scroll.c ****     }
 493:Drivers/lvgl/src/indev/lv_indev_scroll.c **** 
 494:Drivers/lvgl/src/indev/lv_indev_scroll.c ****     /*`find_snap_point_x/y()` return LV_COORD_MAX is not snap point was found,
 495:Drivers/lvgl/src/indev/lv_indev_scroll.c ****      *but x1/y1 should be small. */
 496:Drivers/lvgl/src/indev/lv_indev_scroll.c ****     if(indev->pointer.scroll_area.x1 == LV_COORD_MAX) indev->pointer.scroll_area.x1 = LV_COORD_MIN;
 497:Drivers/lvgl/src/indev/lv_indev_scroll.c ****     if(indev->pointer.scroll_area.y1 == LV_COORD_MAX) indev->pointer.scroll_area.y1 = LV_COORD_MIN;
 498:Drivers/lvgl/src/indev/lv_indev_scroll.c **** 
 499:Drivers/lvgl/src/indev/lv_indev_scroll.c ****     /*Allow scrolling on the edges. It will be reverted to the edge due to snapping anyway*/
 500:Drivers/lvgl/src/indev/lv_indev_scroll.c ****     if(indev->pointer.scroll_area.x1 == 0) indev->pointer.scroll_area.x1 = LV_COORD_MIN;
 501:Drivers/lvgl/src/indev/lv_indev_scroll.c ****     if(indev->pointer.scroll_area.x2 == 0) indev->pointer.scroll_area.x2 = LV_COORD_MAX;
 502:Drivers/lvgl/src/indev/lv_indev_scroll.c ****     if(indev->pointer.scroll_area.y1 == 0) indev->pointer.scroll_area.y1 = LV_COORD_MIN;
 503:Drivers/lvgl/src/indev/lv_indev_scroll.c ****     if(indev->pointer.scroll_area.y2 == 0) indev->pointer.scroll_area.y2 = LV_COORD_MAX;
 504:Drivers/lvgl/src/indev/lv_indev_scroll.c **** }
 505:Drivers/lvgl/src/indev/lv_indev_scroll.c **** 
 506:Drivers/lvgl/src/indev/lv_indev_scroll.c **** /**
 507:Drivers/lvgl/src/indev/lv_indev_scroll.c ****  * Search for snap point in the min..max range.
 508:Drivers/lvgl/src/indev/lv_indev_scroll.c ****  * @param obj the object on which snap point should be found
 509:Drivers/lvgl/src/indev/lv_indev_scroll.c ****  * @param min ignore snap points smaller than this. (Absolute coordinate)
 510:Drivers/lvgl/src/indev/lv_indev_scroll.c ****  * @param max ignore snap points greater than this. (Absolute coordinate)
 511:Drivers/lvgl/src/indev/lv_indev_scroll.c ****  * @param ofs offset to snap points. Useful the get a snap point in an imagined case
 512:Drivers/lvgl/src/indev/lv_indev_scroll.c ****  *            what if children are already moved by this value
 513:Drivers/lvgl/src/indev/lv_indev_scroll.c ****  * @return the absolute x coordinate of the nearest snap point
 514:Drivers/lvgl/src/indev/lv_indev_scroll.c ****  *         or `LV_COORD_MAX` if there is no snap point in the min..max range
 515:Drivers/lvgl/src/indev/lv_indev_scroll.c ****  */
 516:Drivers/lvgl/src/indev/lv_indev_scroll.c **** static int32_t find_snap_point_x(const lv_obj_t * obj, int32_t min, int32_t max, int32_t ofs)
 517:Drivers/lvgl/src/indev/lv_indev_scroll.c **** {
 518:Drivers/lvgl/src/indev/lv_indev_scroll.c ****     lv_scroll_snap_t align = lv_obj_get_scroll_snap_x(obj);
 519:Drivers/lvgl/src/indev/lv_indev_scroll.c ****     if(align == LV_SCROLL_SNAP_NONE) return LV_COORD_MAX;
 520:Drivers/lvgl/src/indev/lv_indev_scroll.c **** 
 521:Drivers/lvgl/src/indev/lv_indev_scroll.c ****     int32_t dist = LV_COORD_MAX;
 522:Drivers/lvgl/src/indev/lv_indev_scroll.c **** 
 523:Drivers/lvgl/src/indev/lv_indev_scroll.c ****     int32_t pad_left = lv_obj_get_style_pad_left(obj, LV_PART_MAIN);
 524:Drivers/lvgl/src/indev/lv_indev_scroll.c ****     int32_t pad_right = lv_obj_get_style_pad_right(obj, LV_PART_MAIN);
 525:Drivers/lvgl/src/indev/lv_indev_scroll.c **** 
 526:Drivers/lvgl/src/indev/lv_indev_scroll.c ****     uint32_t i;
 527:Drivers/lvgl/src/indev/lv_indev_scroll.c ****     uint32_t child_cnt = lv_obj_get_child_count(obj);
 528:Drivers/lvgl/src/indev/lv_indev_scroll.c ****     for(i = 0; i < child_cnt; i++) {
 529:Drivers/lvgl/src/indev/lv_indev_scroll.c ****         lv_obj_t * child = obj->spec_attr->children[i];
 530:Drivers/lvgl/src/indev/lv_indev_scroll.c ****         if(lv_obj_has_flag_any(child, LV_OBJ_FLAG_HIDDEN | LV_OBJ_FLAG_FLOATING)) continue;
 531:Drivers/lvgl/src/indev/lv_indev_scroll.c ****         if(lv_obj_has_flag(child, LV_OBJ_FLAG_SNAPPABLE)) {
 532:Drivers/lvgl/src/indev/lv_indev_scroll.c ****             int32_t x_child = 0;
 533:Drivers/lvgl/src/indev/lv_indev_scroll.c ****             int32_t x_parent = 0;
 534:Drivers/lvgl/src/indev/lv_indev_scroll.c ****             switch(align) {
 535:Drivers/lvgl/src/indev/lv_indev_scroll.c ****                 case LV_SCROLL_SNAP_START:
 536:Drivers/lvgl/src/indev/lv_indev_scroll.c ****                     x_child = child->coords.x1;
 537:Drivers/lvgl/src/indev/lv_indev_scroll.c ****                     x_parent = obj->coords.x1 + pad_left;
 538:Drivers/lvgl/src/indev/lv_indev_scroll.c ****                     break;
 539:Drivers/lvgl/src/indev/lv_indev_scroll.c ****                 case LV_SCROLL_SNAP_END:
 540:Drivers/lvgl/src/indev/lv_indev_scroll.c ****                     x_child = child->coords.x2;
 541:Drivers/lvgl/src/indev/lv_indev_scroll.c ****                     x_parent = obj->coords.x2 - pad_right;
 542:Drivers/lvgl/src/indev/lv_indev_scroll.c ****                     break;
 543:Drivers/lvgl/src/indev/lv_indev_scroll.c ****                 case LV_SCROLL_SNAP_CENTER:
ARM GAS  /var/folders/qx/2_175_4n2s19vhvtspjhb3qh0000gn/T//ccspqae8.s 			page 11


 544:Drivers/lvgl/src/indev/lv_indev_scroll.c ****                     x_child = child->coords.x1 + lv_area_get_width(&child->coords) / 2;
 545:Drivers/lvgl/src/indev/lv_indev_scroll.c ****                     x_parent = obj->coords.x1 + pad_left + (lv_area_get_width(&obj->coords) - pad_l
 546:Drivers/lvgl/src/indev/lv_indev_scroll.c ****                     break;
 547:Drivers/lvgl/src/indev/lv_indev_scroll.c ****                 default:
 548:Drivers/lvgl/src/indev/lv_indev_scroll.c ****                     continue;
 549:Drivers/lvgl/src/indev/lv_indev_scroll.c ****             }
 550:Drivers/lvgl/src/indev/lv_indev_scroll.c **** 
 551:Drivers/lvgl/src/indev/lv_indev_scroll.c ****             x_child += ofs;
 552:Drivers/lvgl/src/indev/lv_indev_scroll.c ****             if(x_child >= min && x_child <= max) {
 553:Drivers/lvgl/src/indev/lv_indev_scroll.c ****                 int32_t x = x_child -  x_parent;
 554:Drivers/lvgl/src/indev/lv_indev_scroll.c ****                 if(LV_ABS(x) < LV_ABS(dist)) dist = x;
 555:Drivers/lvgl/src/indev/lv_indev_scroll.c ****             }
 556:Drivers/lvgl/src/indev/lv_indev_scroll.c ****         }
 557:Drivers/lvgl/src/indev/lv_indev_scroll.c ****     }
 558:Drivers/lvgl/src/indev/lv_indev_scroll.c **** 
 559:Drivers/lvgl/src/indev/lv_indev_scroll.c ****     return dist == LV_COORD_MAX ? LV_COORD_MAX : -dist;
 560:Drivers/lvgl/src/indev/lv_indev_scroll.c **** }
 561:Drivers/lvgl/src/indev/lv_indev_scroll.c **** 
 562:Drivers/lvgl/src/indev/lv_indev_scroll.c **** /**
 563:Drivers/lvgl/src/indev/lv_indev_scroll.c ****  * Search for snap point in the min..max range.
 564:Drivers/lvgl/src/indev/lv_indev_scroll.c ****  * @param obj the object on which snap point should be found
 565:Drivers/lvgl/src/indev/lv_indev_scroll.c ****  * @param min ignore snap points smaller than this. (Absolute coordinate)
 566:Drivers/lvgl/src/indev/lv_indev_scroll.c ****  * @param max ignore snap points greater than this. (Absolute coordinate)
 567:Drivers/lvgl/src/indev/lv_indev_scroll.c ****  * @param ofs offset to snap points. Useful to get a snap point in an imagined case
 568:Drivers/lvgl/src/indev/lv_indev_scroll.c ****  *            what if children are already moved by this value
 569:Drivers/lvgl/src/indev/lv_indev_scroll.c ****  * @return the absolute y coordinate of the nearest snap point
 570:Drivers/lvgl/src/indev/lv_indev_scroll.c ****  *         or `LV_COORD_MAX` if there is no snap point in the min..max range
 571:Drivers/lvgl/src/indev/lv_indev_scroll.c ****  */
 572:Drivers/lvgl/src/indev/lv_indev_scroll.c **** static int32_t find_snap_point_y(const lv_obj_t * obj, int32_t min, int32_t max, int32_t ofs)
 573:Drivers/lvgl/src/indev/lv_indev_scroll.c **** {
 574:Drivers/lvgl/src/indev/lv_indev_scroll.c ****     lv_scroll_snap_t align = lv_obj_get_scroll_snap_y(obj);
 575:Drivers/lvgl/src/indev/lv_indev_scroll.c ****     if(align == LV_SCROLL_SNAP_NONE) return LV_COORD_MAX;
 576:Drivers/lvgl/src/indev/lv_indev_scroll.c **** 
 577:Drivers/lvgl/src/indev/lv_indev_scroll.c ****     int32_t dist = LV_COORD_MAX;
 578:Drivers/lvgl/src/indev/lv_indev_scroll.c **** 
 579:Drivers/lvgl/src/indev/lv_indev_scroll.c ****     int32_t pad_top = lv_obj_get_style_pad_top(obj, LV_PART_MAIN);
 580:Drivers/lvgl/src/indev/lv_indev_scroll.c ****     int32_t pad_bottom = lv_obj_get_style_pad_bottom(obj, LV_PART_MAIN);
 581:Drivers/lvgl/src/indev/lv_indev_scroll.c **** 
 582:Drivers/lvgl/src/indev/lv_indev_scroll.c ****     uint32_t i;
 583:Drivers/lvgl/src/indev/lv_indev_scroll.c ****     uint32_t child_cnt = lv_obj_get_child_count(obj);
 584:Drivers/lvgl/src/indev/lv_indev_scroll.c ****     for(i = 0; i < child_cnt; i++) {
 585:Drivers/lvgl/src/indev/lv_indev_scroll.c ****         lv_obj_t * child = obj->spec_attr->children[i];
 586:Drivers/lvgl/src/indev/lv_indev_scroll.c ****         if(lv_obj_has_flag_any(child, LV_OBJ_FLAG_HIDDEN | LV_OBJ_FLAG_FLOATING)) continue;
 587:Drivers/lvgl/src/indev/lv_indev_scroll.c ****         if(lv_obj_has_flag(child, LV_OBJ_FLAG_SNAPPABLE)) {
 588:Drivers/lvgl/src/indev/lv_indev_scroll.c ****             int32_t y_child = 0;
 589:Drivers/lvgl/src/indev/lv_indev_scroll.c ****             int32_t y_parent = 0;
 590:Drivers/lvgl/src/indev/lv_indev_scroll.c ****             switch(align) {
 591:Drivers/lvgl/src/indev/lv_indev_scroll.c ****                 case LV_SCROLL_SNAP_START:
 592:Drivers/lvgl/src/indev/lv_indev_scroll.c ****                     y_child = child->coords.y1;
 593:Drivers/lvgl/src/indev/lv_indev_scroll.c ****                     y_parent = obj->coords.y1 + pad_top;
 594:Drivers/lvgl/src/indev/lv_indev_scroll.c ****                     break;
 595:Drivers/lvgl/src/indev/lv_indev_scroll.c ****                 case LV_SCROLL_SNAP_END:
 596:Drivers/lvgl/src/indev/lv_indev_scroll.c ****                     y_child = child->coords.y2;
 597:Drivers/lvgl/src/indev/lv_indev_scroll.c ****                     y_parent = obj->coords.y2 - pad_bottom;
 598:Drivers/lvgl/src/indev/lv_indev_scroll.c ****                     break;
 599:Drivers/lvgl/src/indev/lv_indev_scroll.c ****                 case LV_SCROLL_SNAP_CENTER:
 600:Drivers/lvgl/src/indev/lv_indev_scroll.c ****                     y_child = child->coords.y1 + lv_area_get_height(&child->coords) / 2;
ARM GAS  /var/folders/qx/2_175_4n2s19vhvtspjhb3qh0000gn/T//ccspqae8.s 			page 12


 601:Drivers/lvgl/src/indev/lv_indev_scroll.c ****                     y_parent = obj->coords.y1 + pad_top + (lv_area_get_height(&obj->coords) - pad_t
 602:Drivers/lvgl/src/indev/lv_indev_scroll.c ****                     break;
 603:Drivers/lvgl/src/indev/lv_indev_scroll.c ****                 default:
 604:Drivers/lvgl/src/indev/lv_indev_scroll.c ****                     continue;
 605:Drivers/lvgl/src/indev/lv_indev_scroll.c ****             }
 606:Drivers/lvgl/src/indev/lv_indev_scroll.c **** 
 607:Drivers/lvgl/src/indev/lv_indev_scroll.c ****             y_child += ofs;
 608:Drivers/lvgl/src/indev/lv_indev_scroll.c ****             if(y_child >= min && y_child <= max) {
 609:Drivers/lvgl/src/indev/lv_indev_scroll.c ****                 int32_t y = y_child -  y_parent;
 610:Drivers/lvgl/src/indev/lv_indev_scroll.c ****                 if(LV_ABS(y) < LV_ABS(dist)) dist = y;
 611:Drivers/lvgl/src/indev/lv_indev_scroll.c ****             }
 612:Drivers/lvgl/src/indev/lv_indev_scroll.c ****         }
 613:Drivers/lvgl/src/indev/lv_indev_scroll.c ****     }
 614:Drivers/lvgl/src/indev/lv_indev_scroll.c **** 
 615:Drivers/lvgl/src/indev/lv_indev_scroll.c ****     return dist == LV_COORD_MAX ? LV_COORD_MAX : -dist;
 616:Drivers/lvgl/src/indev/lv_indev_scroll.c **** }
 617:Drivers/lvgl/src/indev/lv_indev_scroll.c **** 
 618:Drivers/lvgl/src/indev/lv_indev_scroll.c **** static void scroll_limit_diff(lv_indev_t * indev, int32_t * diff_x, int32_t * diff_y)
 619:Drivers/lvgl/src/indev/lv_indev_scroll.c **** {
  29              		.loc 1 619 1 view -0
  30              		.cfi_startproc
  31              		@ args = 0, pretend = 0, frame = 0
  32              		@ frame_needed = 0, uses_anonymous_args = 0
  33              		@ link register save eliminated.
  34              		.loc 1 619 1 is_stmt 0 view .LVU1
  35 0000 30B4     		push	{r4, r5}
  36              	.LCFI0:
  37              		.cfi_def_cfa_offset 8
  38              		.cfi_offset 4, -8
  39              		.cfi_offset 5, -4
 620:Drivers/lvgl/src/indev/lv_indev_scroll.c ****     if(diff_y) {
  40              		.loc 1 620 5 is_stmt 1 view .LVU2
  41              		.loc 1 620 7 is_stmt 0 view .LVU3
  42 0002 A2B1     		cbz	r2, .L2
  43 0004 1346     		mov	r3, r2
 621:Drivers/lvgl/src/indev/lv_indev_scroll.c ****         if(indev->pointer.scroll_sum.y + *diff_y < indev->pointer.scroll_area.y1) {
  44              		.loc 1 621 9 is_stmt 1 view .LVU4
  45              		.loc 1 621 37 is_stmt 0 view .LVU5
  46 0006 D0F8BC50 		ldr	r5, [r0, #188]
  47              		.loc 1 621 42 view .LVU6
  48 000a 1268     		ldr	r2, [r2]
  49              	.LVL1:
  50              		.loc 1 621 40 view .LVU7
  51 000c 2A44     		add	r2, r2, r5
  52              		.loc 1 621 78 view .LVU8
  53 000e D0F8E440 		ldr	r4, [r0, #228]
  54              		.loc 1 621 11 view .LVU9
  55 0012 A242     		cmp	r2, r4
  56 0014 01DA     		bge	.L3
 622:Drivers/lvgl/src/indev/lv_indev_scroll.c ****             *diff_y = indev->pointer.scroll_area.y1 - indev->pointer.scroll_sum.y;
  57              		.loc 1 622 13 is_stmt 1 view .LVU10
  58              		.loc 1 622 53 is_stmt 0 view .LVU11
  59 0016 641B     		subs	r4, r4, r5
  60              		.loc 1 622 21 view .LVU12
  61 0018 1C60     		str	r4, [r3]
  62              	.L3:
 623:Drivers/lvgl/src/indev/lv_indev_scroll.c ****         }
ARM GAS  /var/folders/qx/2_175_4n2s19vhvtspjhb3qh0000gn/T//ccspqae8.s 			page 13


 624:Drivers/lvgl/src/indev/lv_indev_scroll.c **** 
 625:Drivers/lvgl/src/indev/lv_indev_scroll.c ****         if(indev->pointer.scroll_sum.y + *diff_y > indev->pointer.scroll_area.y2) {
  63              		.loc 1 625 9 is_stmt 1 view .LVU13
  64              		.loc 1 625 37 is_stmt 0 view .LVU14
  65 001a D0F8BC50 		ldr	r5, [r0, #188]
  66              		.loc 1 625 42 view .LVU15
  67 001e 1A68     		ldr	r2, [r3]
  68              		.loc 1 625 40 view .LVU16
  69 0020 2A44     		add	r2, r2, r5
  70              		.loc 1 625 78 view .LVU17
  71 0022 D0F8EC40 		ldr	r4, [r0, #236]
  72              		.loc 1 625 11 view .LVU18
  73 0026 A242     		cmp	r2, r4
  74 0028 01DD     		ble	.L2
 626:Drivers/lvgl/src/indev/lv_indev_scroll.c ****             *diff_y = indev->pointer.scroll_area.y2 - indev->pointer.scroll_sum.y;
  75              		.loc 1 626 13 is_stmt 1 view .LVU19
  76              		.loc 1 626 53 is_stmt 0 view .LVU20
  77 002a 641B     		subs	r4, r4, r5
  78              		.loc 1 626 21 view .LVU21
  79 002c 1C60     		str	r4, [r3]
  80              	.LVL2:
  81              	.L2:
 627:Drivers/lvgl/src/indev/lv_indev_scroll.c ****         }
 628:Drivers/lvgl/src/indev/lv_indev_scroll.c ****     }
 629:Drivers/lvgl/src/indev/lv_indev_scroll.c **** 
 630:Drivers/lvgl/src/indev/lv_indev_scroll.c ****     if(diff_x) {
  82              		.loc 1 630 5 is_stmt 1 view .LVU22
  83              		.loc 1 630 7 is_stmt 0 view .LVU23
  84 002e 99B1     		cbz	r1, .L1
 631:Drivers/lvgl/src/indev/lv_indev_scroll.c ****         if(indev->pointer.scroll_sum.x + *diff_x < indev->pointer.scroll_area.x1) {
  85              		.loc 1 631 9 is_stmt 1 view .LVU24
  86              		.loc 1 631 37 is_stmt 0 view .LVU25
  87 0030 D0F8B840 		ldr	r4, [r0, #184]
  88              		.loc 1 631 42 view .LVU26
  89 0034 0B68     		ldr	r3, [r1]
  90              		.loc 1 631 40 view .LVU27
  91 0036 2344     		add	r3, r3, r4
  92              		.loc 1 631 78 view .LVU28
  93 0038 D0F8E020 		ldr	r2, [r0, #224]
  94              		.loc 1 631 11 view .LVU29
  95 003c 9342     		cmp	r3, r2
  96 003e 01DA     		bge	.L5
 632:Drivers/lvgl/src/indev/lv_indev_scroll.c ****             *diff_x = indev->pointer.scroll_area.x1 - indev->pointer.scroll_sum.x;
  97              		.loc 1 632 13 is_stmt 1 view .LVU30
  98              		.loc 1 632 53 is_stmt 0 view .LVU31
  99 0040 121B     		subs	r2, r2, r4
 100              		.loc 1 632 21 view .LVU32
 101 0042 0A60     		str	r2, [r1]
 102              	.L5:
 633:Drivers/lvgl/src/indev/lv_indev_scroll.c ****         }
 634:Drivers/lvgl/src/indev/lv_indev_scroll.c **** 
 635:Drivers/lvgl/src/indev/lv_indev_scroll.c ****         if(indev->pointer.scroll_sum.x + *diff_x > indev->pointer.scroll_area.x2) {
 103              		.loc 1 635 9 is_stmt 1 view .LVU33
 104              		.loc 1 635 37 is_stmt 0 view .LVU34
 105 0044 D0F8B840 		ldr	r4, [r0, #184]
 106              		.loc 1 635 42 view .LVU35
 107 0048 0B68     		ldr	r3, [r1]
ARM GAS  /var/folders/qx/2_175_4n2s19vhvtspjhb3qh0000gn/T//ccspqae8.s 			page 14


 108              		.loc 1 635 40 view .LVU36
 109 004a 2344     		add	r3, r3, r4
 110              		.loc 1 635 78 view .LVU37
 111 004c D0F8E820 		ldr	r2, [r0, #232]
 112              		.loc 1 635 11 view .LVU38
 113 0050 9342     		cmp	r3, r2
 114 0052 01DD     		ble	.L1
 636:Drivers/lvgl/src/indev/lv_indev_scroll.c ****             *diff_x = indev->pointer.scroll_area.x2 - indev->pointer.scroll_sum.x;
 115              		.loc 1 636 13 is_stmt 1 view .LVU39
 116              		.loc 1 636 53 is_stmt 0 view .LVU40
 117 0054 121B     		subs	r2, r2, r4
 118              		.loc 1 636 21 view .LVU41
 119 0056 0A60     		str	r2, [r1]
 120              	.L1:
 637:Drivers/lvgl/src/indev/lv_indev_scroll.c ****         }
 638:Drivers/lvgl/src/indev/lv_indev_scroll.c ****     }
 639:Drivers/lvgl/src/indev/lv_indev_scroll.c **** }
 121              		.loc 1 639 1 view .LVU42
 122 0058 30BC     		pop	{r4, r5}
 123              	.LCFI1:
 124              		.cfi_restore 5
 125              		.cfi_restore 4
 126              		.cfi_def_cfa_offset 0
 127 005a 7047     		bx	lr
 128              		.cfi_endproc
 129              	.LFE189:
 131              		.section	.text.find_snap_point_y,"ax",%progbits
 132              		.align	1
 133              		.syntax unified
 134              		.thumb
 135              		.thumb_func
 137              	find_snap_point_y:
 138              	.LVL3:
 139              	.LFB188:
 573:Drivers/lvgl/src/indev/lv_indev_scroll.c ****     lv_scroll_snap_t align = lv_obj_get_scroll_snap_y(obj);
 140              		.loc 1 573 1 is_stmt 1 view -0
 141              		.cfi_startproc
 142              		@ args = 0, pretend = 0, frame = 24
 143              		@ frame_needed = 0, uses_anonymous_args = 0
 573:Drivers/lvgl/src/indev/lv_indev_scroll.c ****     lv_scroll_snap_t align = lv_obj_get_scroll_snap_y(obj);
 144              		.loc 1 573 1 is_stmt 0 view .LVU44
 145 0000 2DE9F04F 		push	{r4, r5, r6, r7, r8, r9, r10, fp, lr}
 146              	.LCFI2:
 147              		.cfi_def_cfa_offset 36
 148              		.cfi_offset 4, -36
 149              		.cfi_offset 5, -32
 150              		.cfi_offset 6, -28
 151              		.cfi_offset 7, -24
 152              		.cfi_offset 8, -20
 153              		.cfi_offset 9, -16
 154              		.cfi_offset 10, -12
 155              		.cfi_offset 11, -8
 156              		.cfi_offset 14, -4
 157 0004 87B0     		sub	sp, sp, #28
 158              	.LCFI3:
 159              		.cfi_def_cfa_offset 64
 160 0006 0646     		mov	r6, r0
ARM GAS  /var/folders/qx/2_175_4n2s19vhvtspjhb3qh0000gn/T//ccspqae8.s 			page 15


 161 0008 0091     		str	r1, [sp]
 162 000a 0292     		str	r2, [sp, #8]
 163 000c 0193     		str	r3, [sp, #4]
 574:Drivers/lvgl/src/indev/lv_indev_scroll.c ****     if(align == LV_SCROLL_SNAP_NONE) return LV_COORD_MAX;
 164              		.loc 1 574 5 is_stmt 1 view .LVU45
 574:Drivers/lvgl/src/indev/lv_indev_scroll.c ****     if(align == LV_SCROLL_SNAP_NONE) return LV_COORD_MAX;
 165              		.loc 1 574 30 is_stmt 0 view .LVU46
 166 000e FFF7FEFF 		bl	lv_obj_get_scroll_snap_y
 167              	.LVL4:
 575:Drivers/lvgl/src/indev/lv_indev_scroll.c **** 
 168              		.loc 1 575 5 is_stmt 1 view .LVU47
 575:Drivers/lvgl/src/indev/lv_indev_scroll.c **** 
 169              		.loc 1 575 7 is_stmt 0 view .LVU48
 170 0012 0028     		cmp	r0, #0
 171 0014 77D0     		beq	.L15
 172 0016 8046     		mov	r8, r0
 577:Drivers/lvgl/src/indev/lv_indev_scroll.c **** 
 173              		.loc 1 577 5 is_stmt 1 view .LVU49
 174              	.LVL5:
 579:Drivers/lvgl/src/indev/lv_indev_scroll.c ****     int32_t pad_bottom = lv_obj_get_style_pad_bottom(obj, LV_PART_MAIN);
 175              		.loc 1 579 5 view .LVU50
 176              	.LBB68:
 177              	.LBI68:
 178              		.file 2 "Drivers/lvgl/src/indev/../core/lv_obj_style_gen.h"
   1:Drivers/lvgl/src/indev/../core/lv_obj_style_gen.h **** 
   2:Drivers/lvgl/src/indev/../core/lv_obj_style_gen.h **** /*
   3:Drivers/lvgl/src/indev/../core/lv_obj_style_gen.h ****  **********************************************************************
   4:Drivers/lvgl/src/indev/../core/lv_obj_style_gen.h ****  *                            DO NOT EDIT
   5:Drivers/lvgl/src/indev/../core/lv_obj_style_gen.h ****  * This file is automatically generated by "style_api_gen.py"
   6:Drivers/lvgl/src/indev/../core/lv_obj_style_gen.h ****  **********************************************************************
   7:Drivers/lvgl/src/indev/../core/lv_obj_style_gen.h ****  */
   8:Drivers/lvgl/src/indev/../core/lv_obj_style_gen.h **** 
   9:Drivers/lvgl/src/indev/../core/lv_obj_style_gen.h **** 
  10:Drivers/lvgl/src/indev/../core/lv_obj_style_gen.h **** #ifndef LV_OBJ_STYLE_GEN_H
  11:Drivers/lvgl/src/indev/../core/lv_obj_style_gen.h **** #define LV_OBJ_STYLE_GEN_H
  12:Drivers/lvgl/src/indev/../core/lv_obj_style_gen.h **** 
  13:Drivers/lvgl/src/indev/../core/lv_obj_style_gen.h **** #ifdef __cplusplus
  14:Drivers/lvgl/src/indev/../core/lv_obj_style_gen.h **** extern "C" {
  15:Drivers/lvgl/src/indev/../core/lv_obj_style_gen.h **** #endif
  16:Drivers/lvgl/src/indev/../core/lv_obj_style_gen.h **** 
  17:Drivers/lvgl/src/indev/../core/lv_obj_style_gen.h **** #include "../misc/lv_area.h"
  18:Drivers/lvgl/src/indev/../core/lv_obj_style_gen.h **** #include "../misc/lv_style.h"
  19:Drivers/lvgl/src/indev/../core/lv_obj_style_gen.h **** #include "../core/lv_obj_style.h"
  20:Drivers/lvgl/src/indev/../core/lv_obj_style_gen.h **** #include "../misc/lv_types.h"
  21:Drivers/lvgl/src/indev/../core/lv_obj_style_gen.h **** 
  22:Drivers/lvgl/src/indev/../core/lv_obj_style_gen.h **** static inline int32_t lv_obj_get_style_width(const lv_obj_t * obj, lv_part_t part)
  23:Drivers/lvgl/src/indev/../core/lv_obj_style_gen.h **** {
  24:Drivers/lvgl/src/indev/../core/lv_obj_style_gen.h ****     lv_style_value_t v = lv_obj_get_style_prop(obj, part, LV_STYLE_WIDTH);
  25:Drivers/lvgl/src/indev/../core/lv_obj_style_gen.h ****     return (int32_t)v.num;
  26:Drivers/lvgl/src/indev/../core/lv_obj_style_gen.h **** }
  27:Drivers/lvgl/src/indev/../core/lv_obj_style_gen.h **** 
  28:Drivers/lvgl/src/indev/../core/lv_obj_style_gen.h **** static inline int32_t lv_obj_get_style_min_width(const lv_obj_t * obj, lv_part_t part)
  29:Drivers/lvgl/src/indev/../core/lv_obj_style_gen.h **** {
  30:Drivers/lvgl/src/indev/../core/lv_obj_style_gen.h ****     lv_style_value_t v = lv_obj_get_style_prop(obj, part, LV_STYLE_MIN_WIDTH);
  31:Drivers/lvgl/src/indev/../core/lv_obj_style_gen.h ****     return (int32_t)v.num;
  32:Drivers/lvgl/src/indev/../core/lv_obj_style_gen.h **** }
  33:Drivers/lvgl/src/indev/../core/lv_obj_style_gen.h **** 
ARM GAS  /var/folders/qx/2_175_4n2s19vhvtspjhb3qh0000gn/T//ccspqae8.s 			page 16


  34:Drivers/lvgl/src/indev/../core/lv_obj_style_gen.h **** static inline int32_t lv_obj_get_style_max_width(const lv_obj_t * obj, lv_part_t part)
  35:Drivers/lvgl/src/indev/../core/lv_obj_style_gen.h **** {
  36:Drivers/lvgl/src/indev/../core/lv_obj_style_gen.h ****     lv_style_value_t v = lv_obj_get_style_prop(obj, part, LV_STYLE_MAX_WIDTH);
  37:Drivers/lvgl/src/indev/../core/lv_obj_style_gen.h ****     return (int32_t)v.num;
  38:Drivers/lvgl/src/indev/../core/lv_obj_style_gen.h **** }
  39:Drivers/lvgl/src/indev/../core/lv_obj_style_gen.h **** 
  40:Drivers/lvgl/src/indev/../core/lv_obj_style_gen.h **** static inline int32_t lv_obj_get_style_height(const lv_obj_t * obj, lv_part_t part)
  41:Drivers/lvgl/src/indev/../core/lv_obj_style_gen.h **** {
  42:Drivers/lvgl/src/indev/../core/lv_obj_style_gen.h ****     lv_style_value_t v = lv_obj_get_style_prop(obj, part, LV_STYLE_HEIGHT);
  43:Drivers/lvgl/src/indev/../core/lv_obj_style_gen.h ****     return (int32_t)v.num;
  44:Drivers/lvgl/src/indev/../core/lv_obj_style_gen.h **** }
  45:Drivers/lvgl/src/indev/../core/lv_obj_style_gen.h **** 
  46:Drivers/lvgl/src/indev/../core/lv_obj_style_gen.h **** static inline int32_t lv_obj_get_style_min_height(const lv_obj_t * obj, lv_part_t part)
  47:Drivers/lvgl/src/indev/../core/lv_obj_style_gen.h **** {
  48:Drivers/lvgl/src/indev/../core/lv_obj_style_gen.h ****     lv_style_value_t v = lv_obj_get_style_prop(obj, part, LV_STYLE_MIN_HEIGHT);
  49:Drivers/lvgl/src/indev/../core/lv_obj_style_gen.h ****     return (int32_t)v.num;
  50:Drivers/lvgl/src/indev/../core/lv_obj_style_gen.h **** }
  51:Drivers/lvgl/src/indev/../core/lv_obj_style_gen.h **** 
  52:Drivers/lvgl/src/indev/../core/lv_obj_style_gen.h **** static inline int32_t lv_obj_get_style_max_height(const lv_obj_t * obj, lv_part_t part)
  53:Drivers/lvgl/src/indev/../core/lv_obj_style_gen.h **** {
  54:Drivers/lvgl/src/indev/../core/lv_obj_style_gen.h ****     lv_style_value_t v = lv_obj_get_style_prop(obj, part, LV_STYLE_MAX_HEIGHT);
  55:Drivers/lvgl/src/indev/../core/lv_obj_style_gen.h ****     return (int32_t)v.num;
  56:Drivers/lvgl/src/indev/../core/lv_obj_style_gen.h **** }
  57:Drivers/lvgl/src/indev/../core/lv_obj_style_gen.h **** 
  58:Drivers/lvgl/src/indev/../core/lv_obj_style_gen.h **** static inline int32_t lv_obj_get_style_length(const lv_obj_t * obj, lv_part_t part)
  59:Drivers/lvgl/src/indev/../core/lv_obj_style_gen.h **** {
  60:Drivers/lvgl/src/indev/../core/lv_obj_style_gen.h ****     lv_style_value_t v = lv_obj_get_style_prop(obj, part, LV_STYLE_LENGTH);
  61:Drivers/lvgl/src/indev/../core/lv_obj_style_gen.h ****     return (int32_t)v.num;
  62:Drivers/lvgl/src/indev/../core/lv_obj_style_gen.h **** }
  63:Drivers/lvgl/src/indev/../core/lv_obj_style_gen.h **** 
  64:Drivers/lvgl/src/indev/../core/lv_obj_style_gen.h **** static inline int32_t lv_obj_get_style_x(const lv_obj_t * obj, lv_part_t part)
  65:Drivers/lvgl/src/indev/../core/lv_obj_style_gen.h **** {
  66:Drivers/lvgl/src/indev/../core/lv_obj_style_gen.h ****     lv_style_value_t v = lv_obj_get_style_prop(obj, part, LV_STYLE_X);
  67:Drivers/lvgl/src/indev/../core/lv_obj_style_gen.h ****     return (int32_t)v.num;
  68:Drivers/lvgl/src/indev/../core/lv_obj_style_gen.h **** }
  69:Drivers/lvgl/src/indev/../core/lv_obj_style_gen.h **** 
  70:Drivers/lvgl/src/indev/../core/lv_obj_style_gen.h **** static inline int32_t lv_obj_get_style_y(const lv_obj_t * obj, lv_part_t part)
  71:Drivers/lvgl/src/indev/../core/lv_obj_style_gen.h **** {
  72:Drivers/lvgl/src/indev/../core/lv_obj_style_gen.h ****     lv_style_value_t v = lv_obj_get_style_prop(obj, part, LV_STYLE_Y);
  73:Drivers/lvgl/src/indev/../core/lv_obj_style_gen.h ****     return (int32_t)v.num;
  74:Drivers/lvgl/src/indev/../core/lv_obj_style_gen.h **** }
  75:Drivers/lvgl/src/indev/../core/lv_obj_style_gen.h **** 
  76:Drivers/lvgl/src/indev/../core/lv_obj_style_gen.h **** static inline lv_align_t lv_obj_get_style_align(const lv_obj_t * obj, lv_part_t part)
  77:Drivers/lvgl/src/indev/../core/lv_obj_style_gen.h **** {
  78:Drivers/lvgl/src/indev/../core/lv_obj_style_gen.h ****     lv_style_value_t v = lv_obj_get_style_prop(obj, part, LV_STYLE_ALIGN);
  79:Drivers/lvgl/src/indev/../core/lv_obj_style_gen.h ****     return (lv_align_t)v.num;
  80:Drivers/lvgl/src/indev/../core/lv_obj_style_gen.h **** }
  81:Drivers/lvgl/src/indev/../core/lv_obj_style_gen.h **** 
  82:Drivers/lvgl/src/indev/../core/lv_obj_style_gen.h **** static inline int32_t lv_obj_get_style_transform_width(const lv_obj_t * obj, lv_part_t part)
  83:Drivers/lvgl/src/indev/../core/lv_obj_style_gen.h **** {
  84:Drivers/lvgl/src/indev/../core/lv_obj_style_gen.h ****     lv_style_value_t v = lv_obj_get_style_prop(obj, part, LV_STYLE_TRANSFORM_WIDTH);
  85:Drivers/lvgl/src/indev/../core/lv_obj_style_gen.h ****     return (int32_t)v.num;
  86:Drivers/lvgl/src/indev/../core/lv_obj_style_gen.h **** }
  87:Drivers/lvgl/src/indev/../core/lv_obj_style_gen.h **** 
  88:Drivers/lvgl/src/indev/../core/lv_obj_style_gen.h **** static inline int32_t lv_obj_get_style_transform_height(const lv_obj_t * obj, lv_part_t part)
  89:Drivers/lvgl/src/indev/../core/lv_obj_style_gen.h **** {
  90:Drivers/lvgl/src/indev/../core/lv_obj_style_gen.h ****     lv_style_value_t v = lv_obj_get_style_prop(obj, part, LV_STYLE_TRANSFORM_HEIGHT);
ARM GAS  /var/folders/qx/2_175_4n2s19vhvtspjhb3qh0000gn/T//ccspqae8.s 			page 17


  91:Drivers/lvgl/src/indev/../core/lv_obj_style_gen.h ****     return (int32_t)v.num;
  92:Drivers/lvgl/src/indev/../core/lv_obj_style_gen.h **** }
  93:Drivers/lvgl/src/indev/../core/lv_obj_style_gen.h **** 
  94:Drivers/lvgl/src/indev/../core/lv_obj_style_gen.h **** static inline int32_t lv_obj_get_style_translate_x(const lv_obj_t * obj, lv_part_t part)
  95:Drivers/lvgl/src/indev/../core/lv_obj_style_gen.h **** {
  96:Drivers/lvgl/src/indev/../core/lv_obj_style_gen.h ****     lv_style_value_t v = lv_obj_get_style_prop(obj, part, LV_STYLE_TRANSLATE_X);
  97:Drivers/lvgl/src/indev/../core/lv_obj_style_gen.h ****     return (int32_t)v.num;
  98:Drivers/lvgl/src/indev/../core/lv_obj_style_gen.h **** }
  99:Drivers/lvgl/src/indev/../core/lv_obj_style_gen.h **** 
 100:Drivers/lvgl/src/indev/../core/lv_obj_style_gen.h **** static inline int32_t lv_obj_get_style_translate_y(const lv_obj_t * obj, lv_part_t part)
 101:Drivers/lvgl/src/indev/../core/lv_obj_style_gen.h **** {
 102:Drivers/lvgl/src/indev/../core/lv_obj_style_gen.h ****     lv_style_value_t v = lv_obj_get_style_prop(obj, part, LV_STYLE_TRANSLATE_Y);
 103:Drivers/lvgl/src/indev/../core/lv_obj_style_gen.h ****     return (int32_t)v.num;
 104:Drivers/lvgl/src/indev/../core/lv_obj_style_gen.h **** }
 105:Drivers/lvgl/src/indev/../core/lv_obj_style_gen.h **** 
 106:Drivers/lvgl/src/indev/../core/lv_obj_style_gen.h **** static inline int32_t lv_obj_get_style_translate_radial(const lv_obj_t * obj, lv_part_t part)
 107:Drivers/lvgl/src/indev/../core/lv_obj_style_gen.h **** {
 108:Drivers/lvgl/src/indev/../core/lv_obj_style_gen.h ****     lv_style_value_t v = lv_obj_get_style_prop(obj, part, LV_STYLE_TRANSLATE_RADIAL);
 109:Drivers/lvgl/src/indev/../core/lv_obj_style_gen.h ****     return (int32_t)v.num;
 110:Drivers/lvgl/src/indev/../core/lv_obj_style_gen.h **** }
 111:Drivers/lvgl/src/indev/../core/lv_obj_style_gen.h **** 
 112:Drivers/lvgl/src/indev/../core/lv_obj_style_gen.h **** static inline int32_t lv_obj_get_style_transform_scale_x(const lv_obj_t * obj, lv_part_t part)
 113:Drivers/lvgl/src/indev/../core/lv_obj_style_gen.h **** {
 114:Drivers/lvgl/src/indev/../core/lv_obj_style_gen.h ****     lv_style_value_t v = lv_obj_get_style_prop(obj, part, LV_STYLE_TRANSFORM_SCALE_X);
 115:Drivers/lvgl/src/indev/../core/lv_obj_style_gen.h ****     return (int32_t)v.num;
 116:Drivers/lvgl/src/indev/../core/lv_obj_style_gen.h **** }
 117:Drivers/lvgl/src/indev/../core/lv_obj_style_gen.h **** 
 118:Drivers/lvgl/src/indev/../core/lv_obj_style_gen.h **** static inline int32_t lv_obj_get_style_transform_scale_y(const lv_obj_t * obj, lv_part_t part)
 119:Drivers/lvgl/src/indev/../core/lv_obj_style_gen.h **** {
 120:Drivers/lvgl/src/indev/../core/lv_obj_style_gen.h ****     lv_style_value_t v = lv_obj_get_style_prop(obj, part, LV_STYLE_TRANSFORM_SCALE_Y);
 121:Drivers/lvgl/src/indev/../core/lv_obj_style_gen.h ****     return (int32_t)v.num;
 122:Drivers/lvgl/src/indev/../core/lv_obj_style_gen.h **** }
 123:Drivers/lvgl/src/indev/../core/lv_obj_style_gen.h **** 
 124:Drivers/lvgl/src/indev/../core/lv_obj_style_gen.h **** static inline int32_t lv_obj_get_style_transform_rotation(const lv_obj_t * obj, lv_part_t part)
 125:Drivers/lvgl/src/indev/../core/lv_obj_style_gen.h **** {
 126:Drivers/lvgl/src/indev/../core/lv_obj_style_gen.h ****     lv_style_value_t v = lv_obj_get_style_prop(obj, part, LV_STYLE_TRANSFORM_ROTATION);
 127:Drivers/lvgl/src/indev/../core/lv_obj_style_gen.h ****     return (int32_t)v.num;
 128:Drivers/lvgl/src/indev/../core/lv_obj_style_gen.h **** }
 129:Drivers/lvgl/src/indev/../core/lv_obj_style_gen.h **** 
 130:Drivers/lvgl/src/indev/../core/lv_obj_style_gen.h **** static inline int32_t lv_obj_get_style_transform_pivot_x(const lv_obj_t * obj, lv_part_t part)
 131:Drivers/lvgl/src/indev/../core/lv_obj_style_gen.h **** {
 132:Drivers/lvgl/src/indev/../core/lv_obj_style_gen.h ****     lv_style_value_t v = lv_obj_get_style_prop(obj, part, LV_STYLE_TRANSFORM_PIVOT_X);
 133:Drivers/lvgl/src/indev/../core/lv_obj_style_gen.h ****     return (int32_t)v.num;
 134:Drivers/lvgl/src/indev/../core/lv_obj_style_gen.h **** }
 135:Drivers/lvgl/src/indev/../core/lv_obj_style_gen.h **** 
 136:Drivers/lvgl/src/indev/../core/lv_obj_style_gen.h **** static inline int32_t lv_obj_get_style_transform_pivot_y(const lv_obj_t * obj, lv_part_t part)
 137:Drivers/lvgl/src/indev/../core/lv_obj_style_gen.h **** {
 138:Drivers/lvgl/src/indev/../core/lv_obj_style_gen.h ****     lv_style_value_t v = lv_obj_get_style_prop(obj, part, LV_STYLE_TRANSFORM_PIVOT_Y);
 139:Drivers/lvgl/src/indev/../core/lv_obj_style_gen.h ****     return (int32_t)v.num;
 140:Drivers/lvgl/src/indev/../core/lv_obj_style_gen.h **** }
 141:Drivers/lvgl/src/indev/../core/lv_obj_style_gen.h **** 
 142:Drivers/lvgl/src/indev/../core/lv_obj_style_gen.h **** static inline int32_t lv_obj_get_style_transform_skew_x(const lv_obj_t * obj, lv_part_t part)
 143:Drivers/lvgl/src/indev/../core/lv_obj_style_gen.h **** {
 144:Drivers/lvgl/src/indev/../core/lv_obj_style_gen.h ****     lv_style_value_t v = lv_obj_get_style_prop(obj, part, LV_STYLE_TRANSFORM_SKEW_X);
 145:Drivers/lvgl/src/indev/../core/lv_obj_style_gen.h ****     return (int32_t)v.num;
 146:Drivers/lvgl/src/indev/../core/lv_obj_style_gen.h **** }
 147:Drivers/lvgl/src/indev/../core/lv_obj_style_gen.h **** 
ARM GAS  /var/folders/qx/2_175_4n2s19vhvtspjhb3qh0000gn/T//ccspqae8.s 			page 18


 148:Drivers/lvgl/src/indev/../core/lv_obj_style_gen.h **** static inline int32_t lv_obj_get_style_transform_skew_y(const lv_obj_t * obj, lv_part_t part)
 149:Drivers/lvgl/src/indev/../core/lv_obj_style_gen.h **** {
 150:Drivers/lvgl/src/indev/../core/lv_obj_style_gen.h ****     lv_style_value_t v = lv_obj_get_style_prop(obj, part, LV_STYLE_TRANSFORM_SKEW_Y);
 151:Drivers/lvgl/src/indev/../core/lv_obj_style_gen.h ****     return (int32_t)v.num;
 152:Drivers/lvgl/src/indev/../core/lv_obj_style_gen.h **** }
 153:Drivers/lvgl/src/indev/../core/lv_obj_style_gen.h **** 
 154:Drivers/lvgl/src/indev/../core/lv_obj_style_gen.h **** static inline int32_t lv_obj_get_style_pad_top(const lv_obj_t * obj, lv_part_t part)
 179              		.loc 2 154 23 view .LVU51
 180              	.LBB69:
 155:Drivers/lvgl/src/indev/../core/lv_obj_style_gen.h **** {
 156:Drivers/lvgl/src/indev/../core/lv_obj_style_gen.h ****     lv_style_value_t v = lv_obj_get_style_prop(obj, part, LV_STYLE_PAD_TOP);
 181              		.loc 2 156 5 view .LVU52
 182              		.loc 2 156 26 is_stmt 0 view .LVU53
 183 0018 1022     		movs	r2, #16
 184 001a 0021     		movs	r1, #0
 185 001c 3046     		mov	r0, r6
 186              	.LVL6:
 187              		.loc 2 156 26 view .LVU54
 188 001e FFF7FEFF 		bl	lv_obj_get_style_prop
 189              	.LVL7:
 190 0022 8146     		mov	r9, r0
 191 0024 0590     		str	r0, [sp, #20]
 157:Drivers/lvgl/src/indev/../core/lv_obj_style_gen.h ****     return (int32_t)v.num;
 192              		.loc 2 157 5 is_stmt 1 view .LVU55
 193              	.LVL8:
 194              		.loc 2 157 5 is_stmt 0 view .LVU56
 195              	.LBE69:
 196              	.LBE68:
 580:Drivers/lvgl/src/indev/lv_indev_scroll.c **** 
 197              		.loc 1 580 5 is_stmt 1 view .LVU57
 198              	.LBB70:
 199              	.LBI70:
 158:Drivers/lvgl/src/indev/../core/lv_obj_style_gen.h **** }
 159:Drivers/lvgl/src/indev/../core/lv_obj_style_gen.h **** 
 160:Drivers/lvgl/src/indev/../core/lv_obj_style_gen.h **** static inline int32_t lv_obj_get_style_pad_bottom(const lv_obj_t * obj, lv_part_t part)
 200              		.loc 2 160 23 view .LVU58
 201              	.LBB71:
 161:Drivers/lvgl/src/indev/../core/lv_obj_style_gen.h **** {
 162:Drivers/lvgl/src/indev/../core/lv_obj_style_gen.h ****     lv_style_value_t v = lv_obj_get_style_prop(obj, part, LV_STYLE_PAD_BOTTOM);
 202              		.loc 2 162 5 view .LVU59
 203              		.loc 2 162 26 is_stmt 0 view .LVU60
 204 0026 1122     		movs	r2, #17
 205 0028 0021     		movs	r1, #0
 206 002a 3046     		mov	r0, r6
 207              	.LVL9:
 208              		.loc 2 162 26 view .LVU61
 209 002c FFF7FEFF 		bl	lv_obj_get_style_prop
 210              	.LVL10:
 211 0030 0390     		str	r0, [sp, #12]
 212 0032 0590     		str	r0, [sp, #20]
 163:Drivers/lvgl/src/indev/../core/lv_obj_style_gen.h ****     return (int32_t)v.num;
 213              		.loc 2 163 5 is_stmt 1 view .LVU62
 214              	.LVL11:
 215              		.loc 2 163 5 is_stmt 0 view .LVU63
 216              	.LBE71:
 217              	.LBE70:
 582:Drivers/lvgl/src/indev/lv_indev_scroll.c ****     uint32_t child_cnt = lv_obj_get_child_count(obj);
ARM GAS  /var/folders/qx/2_175_4n2s19vhvtspjhb3qh0000gn/T//ccspqae8.s 			page 19


 218              		.loc 1 582 5 is_stmt 1 view .LVU64
 583:Drivers/lvgl/src/indev/lv_indev_scroll.c ****     for(i = 0; i < child_cnt; i++) {
 219              		.loc 1 583 5 view .LVU65
 583:Drivers/lvgl/src/indev/lv_indev_scroll.c ****     for(i = 0; i < child_cnt; i++) {
 220              		.loc 1 583 26 is_stmt 0 view .LVU66
 221 0034 3046     		mov	r0, r6
 222              	.LVL12:
 583:Drivers/lvgl/src/indev/lv_indev_scroll.c ****     for(i = 0; i < child_cnt; i++) {
 223              		.loc 1 583 26 view .LVU67
 224 0036 FFF7FEFF 		bl	lv_obj_get_child_count
 225              	.LVL13:
 583:Drivers/lvgl/src/indev/lv_indev_scroll.c ****     for(i = 0; i < child_cnt; i++) {
 226              		.loc 1 583 26 view .LVU68
 227 003a 0746     		mov	r7, r0
 228              	.LVL14:
 584:Drivers/lvgl/src/indev/lv_indev_scroll.c ****         lv_obj_t * child = obj->spec_attr->children[i];
 229              		.loc 1 584 5 is_stmt 1 view .LVU69
 584:Drivers/lvgl/src/indev/lv_indev_scroll.c ****         lv_obj_t * child = obj->spec_attr->children[i];
 230              		.loc 1 584 11 is_stmt 0 view .LVU70
 231 003c 0024     		movs	r4, #0
 577:Drivers/lvgl/src/indev/lv_indev_scroll.c **** 
 232              		.loc 1 577 13 view .LVU71
 233 003e 6FF0604A 		mvn	r10, #-536870912
 584:Drivers/lvgl/src/indev/lv_indev_scroll.c ****         lv_obj_t * child = obj->spec_attr->children[i];
 234              		.loc 1 584 5 view .LVU72
 235 0042 20E0     		b	.L9
 236              	.LVL15:
 237              	.L11:
 238              	.LBB72:
 239              	.LBB73:
 596:Drivers/lvgl/src/indev/lv_indev_scroll.c ****                     y_parent = obj->coords.y2 - pad_bottom;
 240              		.loc 1 596 21 is_stmt 1 view .LVU73
 596:Drivers/lvgl/src/indev/lv_indev_scroll.c ****                     y_parent = obj->coords.y2 - pad_bottom;
 241              		.loc 1 596 29 is_stmt 0 view .LVU74
 242 0044 2D6A     		ldr	r5, [r5, #32]
 243              	.LVL16:
 597:Drivers/lvgl/src/indev/lv_indev_scroll.c ****                     break;
 244              		.loc 1 597 21 is_stmt 1 view .LVU75
 597:Drivers/lvgl/src/indev/lv_indev_scroll.c ****                     break;
 245              		.loc 1 597 43 is_stmt 0 view .LVU76
 246 0046 336A     		ldr	r3, [r6, #32]
 597:Drivers/lvgl/src/indev/lv_indev_scroll.c ****                     break;
 247              		.loc 1 597 30 view .LVU77
 248 0048 039A     		ldr	r2, [sp, #12]
 249 004a A3EB020B 		sub	fp, r3, r2
 250              	.LVL17:
 598:Drivers/lvgl/src/indev/lv_indev_scroll.c ****                 case LV_SCROLL_SNAP_CENTER:
 251              		.loc 1 598 21 is_stmt 1 view .LVU78
 252 004e 3AE0     		b	.L13
 253              	.LVL18:
 254              	.L12:
 600:Drivers/lvgl/src/indev/lv_indev_scroll.c ****                     y_parent = obj->coords.y1 + pad_top + (lv_area_get_height(&obj->coords) - pad_t
 255              		.loc 1 600 21 view .LVU79
 600:Drivers/lvgl/src/indev/lv_indev_scroll.c ****                     y_parent = obj->coords.y1 + pad_top + (lv_area_get_height(&obj->coords) - pad_t
 256              		.loc 1 600 44 is_stmt 0 view .LVU80
 257 0050 D5F818B0 		ldr	fp, [r5, #24]
 600:Drivers/lvgl/src/indev/lv_indev_scroll.c ****                     y_parent = obj->coords.y1 + pad_top + (lv_area_get_height(&obj->coords) - pad_t
ARM GAS  /var/folders/qx/2_175_4n2s19vhvtspjhb3qh0000gn/T//ccspqae8.s 			page 20


 258              		.loc 1 600 50 view .LVU81
 259 0054 05F11400 		add	r0, r5, #20
 260 0058 FFF7FEFF 		bl	lv_area_get_height
 261              	.LVL19:
 600:Drivers/lvgl/src/indev/lv_indev_scroll.c ****                     y_parent = obj->coords.y1 + pad_top + (lv_area_get_height(&obj->coords) - pad_t
 262              		.loc 1 600 85 discriminator 1 view .LVU82
 263 005c 00EBD070 		add	r0, r0, r0, lsr #31
 600:Drivers/lvgl/src/indev/lv_indev_scroll.c ****                     y_parent = obj->coords.y1 + pad_top + (lv_area_get_height(&obj->coords) - pad_t
 264              		.loc 1 600 29 discriminator 1 view .LVU83
 265 0060 0BEB6005 		add	r5, fp, r0, asr #1
 266              	.LVL20:
 601:Drivers/lvgl/src/indev/lv_indev_scroll.c ****                     break;
 267              		.loc 1 601 21 is_stmt 1 view .LVU84
 601:Drivers/lvgl/src/indev/lv_indev_scroll.c ****                     break;
 268              		.loc 1 601 43 is_stmt 0 view .LVU85
 269 0064 B369     		ldr	r3, [r6, #24]
 601:Drivers/lvgl/src/indev/lv_indev_scroll.c ****                     break;
 270              		.loc 1 601 47 view .LVU86
 271 0066 03EB090B 		add	fp, r3, r9
 601:Drivers/lvgl/src/indev/lv_indev_scroll.c ****                     break;
 272              		.loc 1 601 60 view .LVU87
 273 006a 06F11400 		add	r0, r6, #20
 274 006e FFF7FEFF 		bl	lv_area_get_height
 275              	.LVL21:
 601:Drivers/lvgl/src/indev/lv_indev_scroll.c ****                     break;
 276              		.loc 1 601 93 discriminator 1 view .LVU88
 277 0072 A0EB0903 		sub	r3, r0, r9
 601:Drivers/lvgl/src/indev/lv_indev_scroll.c ****                     break;
 278              		.loc 1 601 103 discriminator 1 view .LVU89
 279 0076 039A     		ldr	r2, [sp, #12]
 280 0078 9B1A     		subs	r3, r3, r2
 601:Drivers/lvgl/src/indev/lv_indev_scroll.c ****                     break;
 281              		.loc 1 601 117 discriminator 1 view .LVU90
 282 007a 03EBD373 		add	r3, r3, r3, lsr #31
 601:Drivers/lvgl/src/indev/lv_indev_scroll.c ****                     break;
 283              		.loc 1 601 30 discriminator 1 view .LVU91
 284 007e 0BEB630B 		add	fp, fp, r3, asr #1
 285              	.LVL22:
 602:Drivers/lvgl/src/indev/lv_indev_scroll.c ****                 default:
 286              		.loc 1 602 21 is_stmt 1 view .LVU92
 287 0082 20E0     		b	.L13
 288              	.LVL23:
 289              	.L10:
 602:Drivers/lvgl/src/indev/lv_indev_scroll.c ****                 default:
 290              		.loc 1 602 21 is_stmt 0 view .LVU93
 291              	.LBE73:
 292              	.LBE72:
 584:Drivers/lvgl/src/indev/lv_indev_scroll.c ****         lv_obj_t * child = obj->spec_attr->children[i];
 293              		.loc 1 584 32 is_stmt 1 discriminator 2 view .LVU94
 294 0084 0134     		adds	r4, r4, #1
 295              	.LVL24:
 296              	.L9:
 584:Drivers/lvgl/src/indev/lv_indev_scroll.c ****         lv_obj_t * child = obj->spec_attr->children[i];
 297              		.loc 1 584 18 discriminator 1 view .LVU95
 298 0086 BC42     		cmp	r4, r7
 299 0088 33D2     		bcs	.L18
 300              	.LBB76:
ARM GAS  /var/folders/qx/2_175_4n2s19vhvtspjhb3qh0000gn/T//ccspqae8.s 			page 21


 585:Drivers/lvgl/src/indev/lv_indev_scroll.c ****         if(lv_obj_has_flag_any(child, LV_OBJ_FLAG_HIDDEN | LV_OBJ_FLAG_FLOATING)) continue;
 301              		.loc 1 585 9 view .LVU96
 585:Drivers/lvgl/src/indev/lv_indev_scroll.c ****         if(lv_obj_has_flag_any(child, LV_OBJ_FLAG_HIDDEN | LV_OBJ_FLAG_FLOATING)) continue;
 302              		.loc 1 585 31 is_stmt 0 view .LVU97
 303 008a B368     		ldr	r3, [r6, #8]
 585:Drivers/lvgl/src/indev/lv_indev_scroll.c ****         if(lv_obj_has_flag_any(child, LV_OBJ_FLAG_HIDDEN | LV_OBJ_FLAG_FLOATING)) continue;
 304              		.loc 1 585 42 view .LVU98
 305 008c 1B68     		ldr	r3, [r3]
 585:Drivers/lvgl/src/indev/lv_indev_scroll.c ****         if(lv_obj_has_flag_any(child, LV_OBJ_FLAG_HIDDEN | LV_OBJ_FLAG_FLOATING)) continue;
 306              		.loc 1 585 20 view .LVU99
 307 008e 53F82450 		ldr	r5, [r3, r4, lsl #2]
 308              	.LVL25:
 586:Drivers/lvgl/src/indev/lv_indev_scroll.c ****         if(lv_obj_has_flag(child, LV_OBJ_FLAG_SNAPPABLE)) {
 309              		.loc 1 586 9 is_stmt 1 view .LVU100
 586:Drivers/lvgl/src/indev/lv_indev_scroll.c ****         if(lv_obj_has_flag(child, LV_OBJ_FLAG_SNAPPABLE)) {
 310              		.loc 1 586 12 is_stmt 0 view .LVU101
 311 0092 1E49     		ldr	r1, .L19
 312 0094 2846     		mov	r0, r5
 313 0096 FFF7FEFF 		bl	lv_obj_has_flag_any
 314              	.LVL26:
 586:Drivers/lvgl/src/indev/lv_indev_scroll.c ****         if(lv_obj_has_flag(child, LV_OBJ_FLAG_SNAPPABLE)) {
 315              		.loc 1 586 11 discriminator 1 view .LVU102
 316 009a 0028     		cmp	r0, #0
 317 009c F2D1     		bne	.L10
 587:Drivers/lvgl/src/indev/lv_indev_scroll.c ****             int32_t y_child = 0;
 318              		.loc 1 587 9 is_stmt 1 view .LVU103
 587:Drivers/lvgl/src/indev/lv_indev_scroll.c ****             int32_t y_child = 0;
 319              		.loc 1 587 12 is_stmt 0 view .LVU104
 320 009e 4FF48051 		mov	r1, #4096
 321 00a2 2846     		mov	r0, r5
 322 00a4 FFF7FEFF 		bl	lv_obj_has_flag
 323              	.LVL27:
 587:Drivers/lvgl/src/indev/lv_indev_scroll.c ****             int32_t y_child = 0;
 324              		.loc 1 587 11 discriminator 1 view .LVU105
 325 00a8 0028     		cmp	r0, #0
 326 00aa EBD0     		beq	.L10
 327              	.LBB75:
 588:Drivers/lvgl/src/indev/lv_indev_scroll.c ****             int32_t y_parent = 0;
 328              		.loc 1 588 13 is_stmt 1 view .LVU106
 329              	.LVL28:
 589:Drivers/lvgl/src/indev/lv_indev_scroll.c ****             switch(align) {
 330              		.loc 1 589 13 view .LVU107
 590:Drivers/lvgl/src/indev/lv_indev_scroll.c ****                 case LV_SCROLL_SNAP_START:
 331              		.loc 1 590 13 view .LVU108
 332 00ac B8F1020F 		cmp	r8, #2
 333 00b0 C8D0     		beq	.L11
 334 00b2 B8F1030F 		cmp	r8, #3
 335 00b6 CBD0     		beq	.L12
 336 00b8 B8F1010F 		cmp	r8, #1
 337 00bc E2D1     		bne	.L10
 592:Drivers/lvgl/src/indev/lv_indev_scroll.c ****                     y_parent = obj->coords.y1 + pad_top;
 338              		.loc 1 592 21 view .LVU109
 592:Drivers/lvgl/src/indev/lv_indev_scroll.c ****                     y_parent = obj->coords.y1 + pad_top;
 339              		.loc 1 592 29 is_stmt 0 view .LVU110
 340 00be AD69     		ldr	r5, [r5, #24]
 341              	.LVL29:
 593:Drivers/lvgl/src/indev/lv_indev_scroll.c ****                     break;
ARM GAS  /var/folders/qx/2_175_4n2s19vhvtspjhb3qh0000gn/T//ccspqae8.s 			page 22


 342              		.loc 1 593 21 is_stmt 1 view .LVU111
 593:Drivers/lvgl/src/indev/lv_indev_scroll.c ****                     break;
 343              		.loc 1 593 43 is_stmt 0 view .LVU112
 344 00c0 B369     		ldr	r3, [r6, #24]
 593:Drivers/lvgl/src/indev/lv_indev_scroll.c ****                     break;
 345              		.loc 1 593 30 view .LVU113
 346 00c2 03EB090B 		add	fp, r3, r9
 347              	.LVL30:
 594:Drivers/lvgl/src/indev/lv_indev_scroll.c ****                 case LV_SCROLL_SNAP_END:
 348              		.loc 1 594 21 is_stmt 1 view .LVU114
 349              	.L13:
 607:Drivers/lvgl/src/indev/lv_indev_scroll.c ****             if(y_child >= min && y_child <= max) {
 350              		.loc 1 607 13 view .LVU115
 607:Drivers/lvgl/src/indev/lv_indev_scroll.c ****             if(y_child >= min && y_child <= max) {
 351              		.loc 1 607 21 is_stmt 0 view .LVU116
 352 00c6 019B     		ldr	r3, [sp, #4]
 353 00c8 1D44     		add	r5, r5, r3
 354              	.LVL31:
 608:Drivers/lvgl/src/indev/lv_indev_scroll.c ****                 int32_t y = y_child -  y_parent;
 355              		.loc 1 608 13 is_stmt 1 view .LVU117
 608:Drivers/lvgl/src/indev/lv_indev_scroll.c ****                 int32_t y = y_child -  y_parent;
 356              		.loc 1 608 15 is_stmt 0 view .LVU118
 357 00ca 009B     		ldr	r3, [sp]
 358 00cc 9D42     		cmp	r5, r3
 359 00ce D9DB     		blt	.L10
 608:Drivers/lvgl/src/indev/lv_indev_scroll.c ****                 int32_t y = y_child -  y_parent;
 360              		.loc 1 608 31 discriminator 1 view .LVU119
 361 00d0 029B     		ldr	r3, [sp, #8]
 362 00d2 9D42     		cmp	r5, r3
 363 00d4 D6DC     		bgt	.L10
 364              	.LBB74:
 609:Drivers/lvgl/src/indev/lv_indev_scroll.c ****                 if(LV_ABS(y) < LV_ABS(dist)) dist = y;
 365              		.loc 1 609 17 is_stmt 1 view .LVU120
 609:Drivers/lvgl/src/indev/lv_indev_scroll.c ****                 if(LV_ABS(y) < LV_ABS(dist)) dist = y;
 366              		.loc 1 609 25 is_stmt 0 view .LVU121
 367 00d6 A5EB0B05 		sub	r5, r5, fp
 368              	.LVL32:
 610:Drivers/lvgl/src/indev/lv_indev_scroll.c ****             }
 369              		.loc 1 610 17 is_stmt 1 view .LVU122
 610:Drivers/lvgl/src/indev/lv_indev_scroll.c ****             }
 370              		.loc 1 610 20 is_stmt 0 view .LVU123
 371 00da 85EAE572 		eor	r2, r5, r5, asr #31
 372 00de A2EBE572 		sub	r2, r2, r5, asr #31
 610:Drivers/lvgl/src/indev/lv_indev_scroll.c ****             }
 373              		.loc 1 610 32 view .LVU124
 374 00e2 8AEAEA73 		eor	r3, r10, r10, asr #31
 375 00e6 A3EBEA73 		sub	r3, r3, r10, asr #31
 610:Drivers/lvgl/src/indev/lv_indev_scroll.c ****             }
 376              		.loc 1 610 19 view .LVU125
 377 00ea 9A42     		cmp	r2, r3
 378 00ec CADA     		bge	.L10
 610:Drivers/lvgl/src/indev/lv_indev_scroll.c ****             }
 379              		.loc 1 610 51 discriminator 1 view .LVU126
 380 00ee AA46     		mov	r10, r5
 381              	.LVL33:
 610:Drivers/lvgl/src/indev/lv_indev_scroll.c ****             }
 382              		.loc 1 610 51 discriminator 1 view .LVU127
ARM GAS  /var/folders/qx/2_175_4n2s19vhvtspjhb3qh0000gn/T//ccspqae8.s 			page 23


 383 00f0 C8E7     		b	.L10
 384              	.LVL34:
 385              	.L18:
 610:Drivers/lvgl/src/indev/lv_indev_scroll.c ****             }
 386              		.loc 1 610 51 discriminator 1 view .LVU128
 387              	.LBE74:
 388              	.LBE75:
 389              	.LBE76:
 615:Drivers/lvgl/src/indev/lv_indev_scroll.c **** }
 390              		.loc 1 615 5 is_stmt 1 view .LVU129
 615:Drivers/lvgl/src/indev/lv_indev_scroll.c **** }
 391              		.loc 1 615 48 is_stmt 0 view .LVU130
 392 00f2 6FF06043 		mvn	r3, #-536870912
 393 00f6 9A45     		cmp	r10, r3
 394 00f8 01D0     		beq	.L7
 615:Drivers/lvgl/src/indev/lv_indev_scroll.c **** }
 395              		.loc 1 615 48 discriminator 1 view .LVU131
 396 00fa CAF1000A 		rsb	r10, r10, #0
 397              	.LVL35:
 398              	.L7:
 616:Drivers/lvgl/src/indev/lv_indev_scroll.c **** 
 399              		.loc 1 616 1 view .LVU132
 400 00fe 5046     		mov	r0, r10
 401 0100 07B0     		add	sp, sp, #28
 402              	.LCFI4:
 403              		.cfi_remember_state
 404              		.cfi_def_cfa_offset 36
 405              	.LVL36:
 616:Drivers/lvgl/src/indev/lv_indev_scroll.c **** 
 406              		.loc 1 616 1 view .LVU133
 407              		@ sp needed
 408 0102 BDE8F08F 		pop	{r4, r5, r6, r7, r8, r9, r10, fp, pc}
 409              	.LVL37:
 410              	.L15:
 411              	.LCFI5:
 412              		.cfi_restore_state
 575:Drivers/lvgl/src/indev/lv_indev_scroll.c **** 
 413              		.loc 1 575 45 discriminator 1 view .LVU134
 414 0106 6FF0604A 		mvn	r10, #-536870912
 415 010a F8E7     		b	.L7
 416              	.L20:
 417              		.align	2
 418              	.L19:
 419 010c 01000400 		.word	262145
 420              		.cfi_endproc
 421              	.LFE188:
 423              		.section	.text.find_snap_point_x,"ax",%progbits
 424              		.align	1
 425              		.syntax unified
 426              		.thumb
 427              		.thumb_func
 429              	find_snap_point_x:
 430              	.LVL38:
 431              	.LFB187:
 517:Drivers/lvgl/src/indev/lv_indev_scroll.c ****     lv_scroll_snap_t align = lv_obj_get_scroll_snap_x(obj);
 432              		.loc 1 517 1 is_stmt 1 view -0
 433              		.cfi_startproc
ARM GAS  /var/folders/qx/2_175_4n2s19vhvtspjhb3qh0000gn/T//ccspqae8.s 			page 24


 434              		@ args = 0, pretend = 0, frame = 24
 435              		@ frame_needed = 0, uses_anonymous_args = 0
 517:Drivers/lvgl/src/indev/lv_indev_scroll.c ****     lv_scroll_snap_t align = lv_obj_get_scroll_snap_x(obj);
 436              		.loc 1 517 1 is_stmt 0 view .LVU136
 437 0000 2DE9F04F 		push	{r4, r5, r6, r7, r8, r9, r10, fp, lr}
 438              	.LCFI6:
 439              		.cfi_def_cfa_offset 36
 440              		.cfi_offset 4, -36
 441              		.cfi_offset 5, -32
 442              		.cfi_offset 6, -28
 443              		.cfi_offset 7, -24
 444              		.cfi_offset 8, -20
 445              		.cfi_offset 9, -16
 446              		.cfi_offset 10, -12
 447              		.cfi_offset 11, -8
 448              		.cfi_offset 14, -4
 449 0004 87B0     		sub	sp, sp, #28
 450              	.LCFI7:
 451              		.cfi_def_cfa_offset 64
 452 0006 0546     		mov	r5, r0
 453 0008 0091     		str	r1, [sp]
 454 000a 0292     		str	r2, [sp, #8]
 455 000c 0193     		str	r3, [sp, #4]
 518:Drivers/lvgl/src/indev/lv_indev_scroll.c ****     if(align == LV_SCROLL_SNAP_NONE) return LV_COORD_MAX;
 456              		.loc 1 518 5 is_stmt 1 view .LVU137
 518:Drivers/lvgl/src/indev/lv_indev_scroll.c ****     if(align == LV_SCROLL_SNAP_NONE) return LV_COORD_MAX;
 457              		.loc 1 518 30 is_stmt 0 view .LVU138
 458 000e FFF7FEFF 		bl	lv_obj_get_scroll_snap_x
 459              	.LVL39:
 519:Drivers/lvgl/src/indev/lv_indev_scroll.c **** 
 460              		.loc 1 519 5 is_stmt 1 view .LVU139
 519:Drivers/lvgl/src/indev/lv_indev_scroll.c **** 
 461              		.loc 1 519 7 is_stmt 0 view .LVU140
 462 0012 0028     		cmp	r0, #0
 463 0014 76D0     		beq	.L29
 464 0016 8046     		mov	r8, r0
 521:Drivers/lvgl/src/indev/lv_indev_scroll.c **** 
 465              		.loc 1 521 5 is_stmt 1 view .LVU141
 466              	.LVL40:
 523:Drivers/lvgl/src/indev/lv_indev_scroll.c ****     int32_t pad_right = lv_obj_get_style_pad_right(obj, LV_PART_MAIN);
 467              		.loc 1 523 5 view .LVU142
 468              	.LBB77:
 469              	.LBI77:
 164:Drivers/lvgl/src/indev/../core/lv_obj_style_gen.h **** }
 165:Drivers/lvgl/src/indev/../core/lv_obj_style_gen.h **** 
 166:Drivers/lvgl/src/indev/../core/lv_obj_style_gen.h **** static inline int32_t lv_obj_get_style_pad_left(const lv_obj_t * obj, lv_part_t part)
 470              		.loc 2 166 23 view .LVU143
 471              	.LBB78:
 167:Drivers/lvgl/src/indev/../core/lv_obj_style_gen.h **** {
 168:Drivers/lvgl/src/indev/../core/lv_obj_style_gen.h ****     lv_style_value_t v = lv_obj_get_style_prop(obj, part, LV_STYLE_PAD_LEFT);
 472              		.loc 2 168 5 view .LVU144
 473              		.loc 2 168 26 is_stmt 0 view .LVU145
 474 0018 1222     		movs	r2, #18
 475 001a 0021     		movs	r1, #0
 476 001c 2846     		mov	r0, r5
 477              	.LVL41:
 478              		.loc 2 168 26 view .LVU146
ARM GAS  /var/folders/qx/2_175_4n2s19vhvtspjhb3qh0000gn/T//ccspqae8.s 			page 25


 479 001e FFF7FEFF 		bl	lv_obj_get_style_prop
 480              	.LVL42:
 481 0022 8246     		mov	r10, r0
 482 0024 0590     		str	r0, [sp, #20]
 169:Drivers/lvgl/src/indev/../core/lv_obj_style_gen.h ****     return (int32_t)v.num;
 483              		.loc 2 169 5 is_stmt 1 view .LVU147
 484              	.LVL43:
 485              		.loc 2 169 5 is_stmt 0 view .LVU148
 486              	.LBE78:
 487              	.LBE77:
 524:Drivers/lvgl/src/indev/lv_indev_scroll.c **** 
 488              		.loc 1 524 5 is_stmt 1 view .LVU149
 489              	.LBB79:
 490              	.LBI79:
 170:Drivers/lvgl/src/indev/../core/lv_obj_style_gen.h **** }
 171:Drivers/lvgl/src/indev/../core/lv_obj_style_gen.h **** 
 172:Drivers/lvgl/src/indev/../core/lv_obj_style_gen.h **** static inline int32_t lv_obj_get_style_pad_right(const lv_obj_t * obj, lv_part_t part)
 491              		.loc 2 172 23 view .LVU150
 492              	.LBB80:
 173:Drivers/lvgl/src/indev/../core/lv_obj_style_gen.h **** {
 174:Drivers/lvgl/src/indev/../core/lv_obj_style_gen.h ****     lv_style_value_t v = lv_obj_get_style_prop(obj, part, LV_STYLE_PAD_RIGHT);
 493              		.loc 2 174 5 view .LVU151
 494              		.loc 2 174 26 is_stmt 0 view .LVU152
 495 0026 1322     		movs	r2, #19
 496 0028 0021     		movs	r1, #0
 497 002a 2846     		mov	r0, r5
 498              	.LVL44:
 499              		.loc 2 174 26 view .LVU153
 500 002c FFF7FEFF 		bl	lv_obj_get_style_prop
 501              	.LVL45:
 502 0030 0390     		str	r0, [sp, #12]
 503 0032 0590     		str	r0, [sp, #20]
 175:Drivers/lvgl/src/indev/../core/lv_obj_style_gen.h ****     return (int32_t)v.num;
 504              		.loc 2 175 5 is_stmt 1 view .LVU154
 505              	.LVL46:
 506              		.loc 2 175 5 is_stmt 0 view .LVU155
 507              	.LBE80:
 508              	.LBE79:
 526:Drivers/lvgl/src/indev/lv_indev_scroll.c ****     uint32_t child_cnt = lv_obj_get_child_count(obj);
 509              		.loc 1 526 5 is_stmt 1 view .LVU156
 527:Drivers/lvgl/src/indev/lv_indev_scroll.c ****     for(i = 0; i < child_cnt; i++) {
 510              		.loc 1 527 5 view .LVU157
 527:Drivers/lvgl/src/indev/lv_indev_scroll.c ****     for(i = 0; i < child_cnt; i++) {
 511              		.loc 1 527 26 is_stmt 0 view .LVU158
 512 0034 2846     		mov	r0, r5
 513              	.LVL47:
 527:Drivers/lvgl/src/indev/lv_indev_scroll.c ****     for(i = 0; i < child_cnt; i++) {
 514              		.loc 1 527 26 view .LVU159
 515 0036 FFF7FEFF 		bl	lv_obj_get_child_count
 516              	.LVL48:
 527:Drivers/lvgl/src/indev/lv_indev_scroll.c ****     for(i = 0; i < child_cnt; i++) {
 517              		.loc 1 527 26 view .LVU160
 518 003a 0646     		mov	r6, r0
 519              	.LVL49:
 528:Drivers/lvgl/src/indev/lv_indev_scroll.c ****         lv_obj_t * child = obj->spec_attr->children[i];
 520              		.loc 1 528 5 is_stmt 1 view .LVU161
 528:Drivers/lvgl/src/indev/lv_indev_scroll.c ****         lv_obj_t * child = obj->spec_attr->children[i];
ARM GAS  /var/folders/qx/2_175_4n2s19vhvtspjhb3qh0000gn/T//ccspqae8.s 			page 26


 521              		.loc 1 528 11 is_stmt 0 view .LVU162
 522 003c 0024     		movs	r4, #0
 521:Drivers/lvgl/src/indev/lv_indev_scroll.c **** 
 523              		.loc 1 521 13 view .LVU163
 524 003e 6FF0604B 		mvn	fp, #-536870912
 528:Drivers/lvgl/src/indev/lv_indev_scroll.c ****         lv_obj_t * child = obj->spec_attr->children[i];
 525              		.loc 1 528 5 view .LVU164
 526 0042 1FE0     		b	.L23
 527              	.LVL50:
 528              	.L25:
 529              	.LBB81:
 530              	.LBB82:
 540:Drivers/lvgl/src/indev/lv_indev_scroll.c ****                     x_parent = obj->coords.x2 - pad_right;
 531              		.loc 1 540 21 is_stmt 1 view .LVU165
 540:Drivers/lvgl/src/indev/lv_indev_scroll.c ****                     x_parent = obj->coords.x2 - pad_right;
 532              		.loc 1 540 29 is_stmt 0 view .LVU166
 533 0044 FF69     		ldr	r7, [r7, #28]
 534              	.LVL51:
 541:Drivers/lvgl/src/indev/lv_indev_scroll.c ****                     break;
 535              		.loc 1 541 21 is_stmt 1 view .LVU167
 541:Drivers/lvgl/src/indev/lv_indev_scroll.c ****                     break;
 536              		.loc 1 541 43 is_stmt 0 view .LVU168
 537 0046 EB69     		ldr	r3, [r5, #28]
 541:Drivers/lvgl/src/indev/lv_indev_scroll.c ****                     break;
 538              		.loc 1 541 30 view .LVU169
 539 0048 039A     		ldr	r2, [sp, #12]
 540 004a A3EB0209 		sub	r9, r3, r2
 541              	.LVL52:
 542:Drivers/lvgl/src/indev/lv_indev_scroll.c ****                 case LV_SCROLL_SNAP_CENTER:
 542              		.loc 1 542 21 is_stmt 1 view .LVU170
 543 004e 39E0     		b	.L27
 544              	.LVL53:
 545              	.L26:
 544:Drivers/lvgl/src/indev/lv_indev_scroll.c ****                     x_parent = obj->coords.x1 + pad_left + (lv_area_get_width(&obj->coords) - pad_l
 546              		.loc 1 544 21 view .LVU171
 544:Drivers/lvgl/src/indev/lv_indev_scroll.c ****                     x_parent = obj->coords.x1 + pad_left + (lv_area_get_width(&obj->coords) - pad_l
 547              		.loc 1 544 44 is_stmt 0 view .LVU172
 548 0050 3846     		mov	r0, r7
 549 0052 50F8147F 		ldr	r7, [r0, #20]!
 550              	.LVL54:
 544:Drivers/lvgl/src/indev/lv_indev_scroll.c ****                     x_parent = obj->coords.x1 + pad_left + (lv_area_get_width(&obj->coords) - pad_l
 551              		.loc 1 544 50 view .LVU173
 552 0056 FFF7FEFF 		bl	lv_area_get_width
 553              	.LVL55:
 544:Drivers/lvgl/src/indev/lv_indev_scroll.c ****                     x_parent = obj->coords.x1 + pad_left + (lv_area_get_width(&obj->coords) - pad_l
 554              		.loc 1 544 84 discriminator 1 view .LVU174
 555 005a 00EBD070 		add	r0, r0, r0, lsr #31
 544:Drivers/lvgl/src/indev/lv_indev_scroll.c ****                     x_parent = obj->coords.x1 + pad_left + (lv_area_get_width(&obj->coords) - pad_l
 556              		.loc 1 544 29 discriminator 1 view .LVU175
 557 005e 07EB6007 		add	r7, r7, r0, asr #1
 558              	.LVL56:
 545:Drivers/lvgl/src/indev/lv_indev_scroll.c ****                     break;
 559              		.loc 1 545 21 is_stmt 1 view .LVU176
 545:Drivers/lvgl/src/indev/lv_indev_scroll.c ****                     break;
 560              		.loc 1 545 43 is_stmt 0 view .LVU177
 561 0062 2846     		mov	r0, r5
 562 0064 50F8143F 		ldr	r3, [r0, #20]!
ARM GAS  /var/folders/qx/2_175_4n2s19vhvtspjhb3qh0000gn/T//ccspqae8.s 			page 27


 545:Drivers/lvgl/src/indev/lv_indev_scroll.c ****                     break;
 563              		.loc 1 545 47 view .LVU178
 564 0068 03EB0A09 		add	r9, r3, r10
 545:Drivers/lvgl/src/indev/lv_indev_scroll.c ****                     break;
 565              		.loc 1 545 61 view .LVU179
 566 006c FFF7FEFF 		bl	lv_area_get_width
 567              	.LVL57:
 545:Drivers/lvgl/src/indev/lv_indev_scroll.c ****                     break;
 568              		.loc 1 545 93 discriminator 1 view .LVU180
 569 0070 A0EB0A03 		sub	r3, r0, r10
 545:Drivers/lvgl/src/indev/lv_indev_scroll.c ****                     break;
 570              		.loc 1 545 104 discriminator 1 view .LVU181
 571 0074 039A     		ldr	r2, [sp, #12]
 572 0076 9B1A     		subs	r3, r3, r2
 545:Drivers/lvgl/src/indev/lv_indev_scroll.c ****                     break;
 573              		.loc 1 545 117 discriminator 1 view .LVU182
 574 0078 03EBD373 		add	r3, r3, r3, lsr #31
 545:Drivers/lvgl/src/indev/lv_indev_scroll.c ****                     break;
 575              		.loc 1 545 30 discriminator 1 view .LVU183
 576 007c 09EB6309 		add	r9, r9, r3, asr #1
 577              	.LVL58:
 546:Drivers/lvgl/src/indev/lv_indev_scroll.c ****                 default:
 578              		.loc 1 546 21 is_stmt 1 view .LVU184
 579 0080 20E0     		b	.L27
 580              	.LVL59:
 581              	.L24:
 546:Drivers/lvgl/src/indev/lv_indev_scroll.c ****                 default:
 582              		.loc 1 546 21 is_stmt 0 view .LVU185
 583              	.LBE82:
 584              	.LBE81:
 528:Drivers/lvgl/src/indev/lv_indev_scroll.c ****         lv_obj_t * child = obj->spec_attr->children[i];
 585              		.loc 1 528 32 is_stmt 1 discriminator 2 view .LVU186
 586 0082 0134     		adds	r4, r4, #1
 587              	.LVL60:
 588              	.L23:
 528:Drivers/lvgl/src/indev/lv_indev_scroll.c ****         lv_obj_t * child = obj->spec_attr->children[i];
 589              		.loc 1 528 18 discriminator 1 view .LVU187
 590 0084 B442     		cmp	r4, r6
 591 0086 33D2     		bcs	.L32
 592              	.LBB85:
 529:Drivers/lvgl/src/indev/lv_indev_scroll.c ****         if(lv_obj_has_flag_any(child, LV_OBJ_FLAG_HIDDEN | LV_OBJ_FLAG_FLOATING)) continue;
 593              		.loc 1 529 9 view .LVU188
 529:Drivers/lvgl/src/indev/lv_indev_scroll.c ****         if(lv_obj_has_flag_any(child, LV_OBJ_FLAG_HIDDEN | LV_OBJ_FLAG_FLOATING)) continue;
 594              		.loc 1 529 31 is_stmt 0 view .LVU189
 595 0088 AB68     		ldr	r3, [r5, #8]
 529:Drivers/lvgl/src/indev/lv_indev_scroll.c ****         if(lv_obj_has_flag_any(child, LV_OBJ_FLAG_HIDDEN | LV_OBJ_FLAG_FLOATING)) continue;
 596              		.loc 1 529 42 view .LVU190
 597 008a 1B68     		ldr	r3, [r3]
 529:Drivers/lvgl/src/indev/lv_indev_scroll.c ****         if(lv_obj_has_flag_any(child, LV_OBJ_FLAG_HIDDEN | LV_OBJ_FLAG_FLOATING)) continue;
 598              		.loc 1 529 20 view .LVU191
 599 008c 53F82470 		ldr	r7, [r3, r4, lsl #2]
 600              	.LVL61:
 530:Drivers/lvgl/src/indev/lv_indev_scroll.c ****         if(lv_obj_has_flag(child, LV_OBJ_FLAG_SNAPPABLE)) {
 601              		.loc 1 530 9 is_stmt 1 view .LVU192
 530:Drivers/lvgl/src/indev/lv_indev_scroll.c ****         if(lv_obj_has_flag(child, LV_OBJ_FLAG_SNAPPABLE)) {
 602              		.loc 1 530 12 is_stmt 0 view .LVU193
 603 0090 1E49     		ldr	r1, .L33
ARM GAS  /var/folders/qx/2_175_4n2s19vhvtspjhb3qh0000gn/T//ccspqae8.s 			page 28


 604 0092 3846     		mov	r0, r7
 605 0094 FFF7FEFF 		bl	lv_obj_has_flag_any
 606              	.LVL62:
 530:Drivers/lvgl/src/indev/lv_indev_scroll.c ****         if(lv_obj_has_flag(child, LV_OBJ_FLAG_SNAPPABLE)) {
 607              		.loc 1 530 11 discriminator 1 view .LVU194
 608 0098 0028     		cmp	r0, #0
 609 009a F2D1     		bne	.L24
 531:Drivers/lvgl/src/indev/lv_indev_scroll.c ****             int32_t x_child = 0;
 610              		.loc 1 531 9 is_stmt 1 view .LVU195
 531:Drivers/lvgl/src/indev/lv_indev_scroll.c ****             int32_t x_child = 0;
 611              		.loc 1 531 12 is_stmt 0 view .LVU196
 612 009c 4FF48051 		mov	r1, #4096
 613 00a0 3846     		mov	r0, r7
 614 00a2 FFF7FEFF 		bl	lv_obj_has_flag
 615              	.LVL63:
 531:Drivers/lvgl/src/indev/lv_indev_scroll.c ****             int32_t x_child = 0;
 616              		.loc 1 531 11 discriminator 1 view .LVU197
 617 00a6 0028     		cmp	r0, #0
 618 00a8 EBD0     		beq	.L24
 619              	.LBB84:
 532:Drivers/lvgl/src/indev/lv_indev_scroll.c ****             int32_t x_parent = 0;
 620              		.loc 1 532 13 is_stmt 1 view .LVU198
 621              	.LVL64:
 533:Drivers/lvgl/src/indev/lv_indev_scroll.c ****             switch(align) {
 622              		.loc 1 533 13 view .LVU199
 534:Drivers/lvgl/src/indev/lv_indev_scroll.c ****                 case LV_SCROLL_SNAP_START:
 623              		.loc 1 534 13 view .LVU200
 624 00aa B8F1020F 		cmp	r8, #2
 625 00ae C9D0     		beq	.L25
 626 00b0 B8F1030F 		cmp	r8, #3
 627 00b4 CCD0     		beq	.L26
 628 00b6 B8F1010F 		cmp	r8, #1
 629 00ba E2D1     		bne	.L24
 536:Drivers/lvgl/src/indev/lv_indev_scroll.c ****                     x_parent = obj->coords.x1 + pad_left;
 630              		.loc 1 536 21 view .LVU201
 536:Drivers/lvgl/src/indev/lv_indev_scroll.c ****                     x_parent = obj->coords.x1 + pad_left;
 631              		.loc 1 536 29 is_stmt 0 view .LVU202
 632 00bc 7F69     		ldr	r7, [r7, #20]
 633              	.LVL65:
 537:Drivers/lvgl/src/indev/lv_indev_scroll.c ****                     break;
 634              		.loc 1 537 21 is_stmt 1 view .LVU203
 537:Drivers/lvgl/src/indev/lv_indev_scroll.c ****                     break;
 635              		.loc 1 537 43 is_stmt 0 view .LVU204
 636 00be 6B69     		ldr	r3, [r5, #20]
 537:Drivers/lvgl/src/indev/lv_indev_scroll.c ****                     break;
 637              		.loc 1 537 30 view .LVU205
 638 00c0 03EB0A09 		add	r9, r3, r10
 639              	.LVL66:
 538:Drivers/lvgl/src/indev/lv_indev_scroll.c ****                 case LV_SCROLL_SNAP_END:
 640              		.loc 1 538 21 is_stmt 1 view .LVU206
 641              	.L27:
 551:Drivers/lvgl/src/indev/lv_indev_scroll.c ****             if(x_child >= min && x_child <= max) {
 642              		.loc 1 551 13 view .LVU207
 551:Drivers/lvgl/src/indev/lv_indev_scroll.c ****             if(x_child >= min && x_child <= max) {
 643              		.loc 1 551 21 is_stmt 0 view .LVU208
 644 00c4 019B     		ldr	r3, [sp, #4]
 645 00c6 1F44     		add	r7, r7, r3
ARM GAS  /var/folders/qx/2_175_4n2s19vhvtspjhb3qh0000gn/T//ccspqae8.s 			page 29


 646              	.LVL67:
 552:Drivers/lvgl/src/indev/lv_indev_scroll.c ****                 int32_t x = x_child -  x_parent;
 647              		.loc 1 552 13 is_stmt 1 view .LVU209
 552:Drivers/lvgl/src/indev/lv_indev_scroll.c ****                 int32_t x = x_child -  x_parent;
 648              		.loc 1 552 15 is_stmt 0 view .LVU210
 649 00c8 009B     		ldr	r3, [sp]
 650 00ca 9F42     		cmp	r7, r3
 651 00cc D9DB     		blt	.L24
 552:Drivers/lvgl/src/indev/lv_indev_scroll.c ****                 int32_t x = x_child -  x_parent;
 652              		.loc 1 552 31 discriminator 1 view .LVU211
 653 00ce 029B     		ldr	r3, [sp, #8]
 654 00d0 9F42     		cmp	r7, r3
 655 00d2 D6DC     		bgt	.L24
 656              	.LBB83:
 553:Drivers/lvgl/src/indev/lv_indev_scroll.c ****                 if(LV_ABS(x) < LV_ABS(dist)) dist = x;
 657              		.loc 1 553 17 is_stmt 1 view .LVU212
 553:Drivers/lvgl/src/indev/lv_indev_scroll.c ****                 if(LV_ABS(x) < LV_ABS(dist)) dist = x;
 658              		.loc 1 553 25 is_stmt 0 view .LVU213
 659 00d4 A7EB0907 		sub	r7, r7, r9
 660              	.LVL68:
 554:Drivers/lvgl/src/indev/lv_indev_scroll.c ****             }
 661              		.loc 1 554 17 is_stmt 1 view .LVU214
 554:Drivers/lvgl/src/indev/lv_indev_scroll.c ****             }
 662              		.loc 1 554 20 is_stmt 0 view .LVU215
 663 00d8 87EAE772 		eor	r2, r7, r7, asr #31
 664 00dc A2EBE772 		sub	r2, r2, r7, asr #31
 554:Drivers/lvgl/src/indev/lv_indev_scroll.c ****             }
 665              		.loc 1 554 32 view .LVU216
 666 00e0 8BEAEB73 		eor	r3, fp, fp, asr #31
 667 00e4 A3EBEB73 		sub	r3, r3, fp, asr #31
 554:Drivers/lvgl/src/indev/lv_indev_scroll.c ****             }
 668              		.loc 1 554 19 view .LVU217
 669 00e8 9A42     		cmp	r2, r3
 670 00ea CADA     		bge	.L24
 554:Drivers/lvgl/src/indev/lv_indev_scroll.c ****             }
 671              		.loc 1 554 51 discriminator 1 view .LVU218
 672 00ec BB46     		mov	fp, r7
 673              	.LVL69:
 554:Drivers/lvgl/src/indev/lv_indev_scroll.c ****             }
 674              		.loc 1 554 51 discriminator 1 view .LVU219
 675 00ee C8E7     		b	.L24
 676              	.LVL70:
 677              	.L32:
 554:Drivers/lvgl/src/indev/lv_indev_scroll.c ****             }
 678              		.loc 1 554 51 discriminator 1 view .LVU220
 679              	.LBE83:
 680              	.LBE84:
 681              	.LBE85:
 559:Drivers/lvgl/src/indev/lv_indev_scroll.c **** }
 682              		.loc 1 559 5 is_stmt 1 view .LVU221
 559:Drivers/lvgl/src/indev/lv_indev_scroll.c **** }
 683              		.loc 1 559 48 is_stmt 0 view .LVU222
 684 00f0 6FF06043 		mvn	r3, #-536870912
 685 00f4 9B45     		cmp	fp, r3
 686 00f6 01D0     		beq	.L21
 559:Drivers/lvgl/src/indev/lv_indev_scroll.c **** }
 687              		.loc 1 559 48 discriminator 1 view .LVU223
ARM GAS  /var/folders/qx/2_175_4n2s19vhvtspjhb3qh0000gn/T//ccspqae8.s 			page 30


 688 00f8 CBF1000B 		rsb	fp, fp, #0
 689              	.LVL71:
 690              	.L21:
 560:Drivers/lvgl/src/indev/lv_indev_scroll.c **** 
 691              		.loc 1 560 1 view .LVU224
 692 00fc 5846     		mov	r0, fp
 693 00fe 07B0     		add	sp, sp, #28
 694              	.LCFI8:
 695              		.cfi_remember_state
 696              		.cfi_def_cfa_offset 36
 697              	.LVL72:
 560:Drivers/lvgl/src/indev/lv_indev_scroll.c **** 
 698              		.loc 1 560 1 view .LVU225
 699              		@ sp needed
 700 0100 BDE8F08F 		pop	{r4, r5, r6, r7, r8, r9, r10, fp, pc}
 701              	.LVL73:
 702              	.L29:
 703              	.LCFI9:
 704              		.cfi_restore_state
 519:Drivers/lvgl/src/indev/lv_indev_scroll.c **** 
 705              		.loc 1 519 45 discriminator 1 view .LVU226
 706 0104 6FF0604B 		mvn	fp, #-536870912
 707 0108 F8E7     		b	.L21
 708              	.L34:
 709 010a 00BF     		.align	2
 710              	.L33:
 711 010c 01000400 		.word	262145
 712              		.cfi_endproc
 713              	.LFE187:
 715              		.section	.text.init_scroll_limits,"ax",%progbits
 716              		.align	1
 717              		.syntax unified
 718              		.thumb
 719              		.thumb_func
 721              	init_scroll_limits:
 722              	.LVL74:
 723              	.LFB186:
 443:Drivers/lvgl/src/indev/lv_indev_scroll.c ****     lv_obj_t * obj = indev->pointer.scroll_obj;
 724              		.loc 1 443 1 is_stmt 1 view -0
 725              		.cfi_startproc
 726              		@ args = 0, pretend = 0, frame = 0
 727              		@ frame_needed = 0, uses_anonymous_args = 0
 443:Drivers/lvgl/src/indev/lv_indev_scroll.c ****     lv_obj_t * obj = indev->pointer.scroll_obj;
 728              		.loc 1 443 1 is_stmt 0 view .LVU228
 729 0000 70B5     		push	{r4, r5, r6, lr}
 730              	.LCFI10:
 731              		.cfi_def_cfa_offset 16
 732              		.cfi_offset 4, -16
 733              		.cfi_offset 5, -12
 734              		.cfi_offset 6, -8
 735              		.cfi_offset 14, -4
 736 0002 82B0     		sub	sp, sp, #8
 737              	.LCFI11:
 738              		.cfi_def_cfa_offset 24
 739 0004 0446     		mov	r4, r0
 444:Drivers/lvgl/src/indev/lv_indev_scroll.c ****     /*If there no STOP allow scrolling anywhere*/
 740              		.loc 1 444 5 is_stmt 1 view .LVU229
ARM GAS  /var/folders/qx/2_175_4n2s19vhvtspjhb3qh0000gn/T//ccspqae8.s 			page 31


 444:Drivers/lvgl/src/indev/lv_indev_scroll.c ****     /*If there no STOP allow scrolling anywhere*/
 741              		.loc 1 444 16 is_stmt 0 view .LVU230
 742 0006 D0F8D450 		ldr	r5, [r0, #212]
 743              	.LVL75:
 446:Drivers/lvgl/src/indev/lv_indev_scroll.c ****         lv_area_set(&indev->pointer.scroll_area, LV_COORD_MIN, LV_COORD_MIN, LV_COORD_MAX, LV_COORD
 744              		.loc 1 446 5 is_stmt 1 view .LVU231
 446:Drivers/lvgl/src/indev/lv_indev_scroll.c ****         lv_area_set(&indev->pointer.scroll_area, LV_COORD_MIN, LV_COORD_MIN, LV_COORD_MAX, LV_COORD
 745              		.loc 1 446 8 is_stmt 0 view .LVU232
 746 000a 8021     		movs	r1, #128
 747 000c 2846     		mov	r0, r5
 748              	.LVL76:
 446:Drivers/lvgl/src/indev/lv_indev_scroll.c ****         lv_area_set(&indev->pointer.scroll_area, LV_COORD_MIN, LV_COORD_MIN, LV_COORD_MAX, LV_COORD
 749              		.loc 1 446 8 view .LVU233
 750 000e FFF7FEFF 		bl	lv_obj_has_flag
 751              	.LVL77:
 446:Drivers/lvgl/src/indev/lv_indev_scroll.c ****         lv_area_set(&indev->pointer.scroll_area, LV_COORD_MIN, LV_COORD_MIN, LV_COORD_MAX, LV_COORD
 752              		.loc 1 446 7 discriminator 1 view .LVU234
 753 0012 90BB     		cbnz	r0, .L36
 447:Drivers/lvgl/src/indev/lv_indev_scroll.c ****     }
 754              		.loc 1 447 9 is_stmt 1 view .LVU235
 755 0014 6D49     		ldr	r1, .L54
 756 0016 6FF06043 		mvn	r3, #-536870912
 757 001a 0093     		str	r3, [sp]
 758 001c 0A46     		mov	r2, r1
 759 001e 04F1E000 		add	r0, r4, #224
 760 0022 FFF7FEFF 		bl	lv_area_set
 761              	.LVL78:
 762              	.L37:
 496:Drivers/lvgl/src/indev/lv_indev_scroll.c ****     if(indev->pointer.scroll_area.y1 == LV_COORD_MAX) indev->pointer.scroll_area.y1 = LV_COORD_MIN;
 763              		.loc 1 496 5 view .LVU236
 496:Drivers/lvgl/src/indev/lv_indev_scroll.c ****     if(indev->pointer.scroll_area.y1 == LV_COORD_MAX) indev->pointer.scroll_area.y1 = LV_COORD_MIN;
 764              		.loc 1 496 34 is_stmt 0 view .LVU237
 765 0026 D4F8E020 		ldr	r2, [r4, #224]
 496:Drivers/lvgl/src/indev/lv_indev_scroll.c ****     if(indev->pointer.scroll_area.y1 == LV_COORD_MAX) indev->pointer.scroll_area.y1 = LV_COORD_MIN;
 766              		.loc 1 496 7 view .LVU238
 767 002a 6FF06043 		mvn	r3, #-536870912
 768 002e 9A42     		cmp	r2, r3
 769 0030 00F0C480 		beq	.L52
 770              	.L45:
 497:Drivers/lvgl/src/indev/lv_indev_scroll.c **** 
 771              		.loc 1 497 5 is_stmt 1 view .LVU239
 497:Drivers/lvgl/src/indev/lv_indev_scroll.c **** 
 772              		.loc 1 497 34 is_stmt 0 view .LVU240
 773 0034 D4F8E420 		ldr	r2, [r4, #228]
 497:Drivers/lvgl/src/indev/lv_indev_scroll.c **** 
 774              		.loc 1 497 7 view .LVU241
 775 0038 6FF06043 		mvn	r3, #-536870912
 776 003c 9A42     		cmp	r2, r3
 777 003e 00F0C180 		beq	.L53
 778              	.L46:
 500:Drivers/lvgl/src/indev/lv_indev_scroll.c ****     if(indev->pointer.scroll_area.x2 == 0) indev->pointer.scroll_area.x2 = LV_COORD_MAX;
 779              		.loc 1 500 5 is_stmt 1 view .LVU242
 500:Drivers/lvgl/src/indev/lv_indev_scroll.c ****     if(indev->pointer.scroll_area.x2 == 0) indev->pointer.scroll_area.x2 = LV_COORD_MAX;
 780              		.loc 1 500 34 is_stmt 0 view .LVU243
 781 0042 D4F8E030 		ldr	r3, [r4, #224]
 500:Drivers/lvgl/src/indev/lv_indev_scroll.c ****     if(indev->pointer.scroll_area.x2 == 0) indev->pointer.scroll_area.x2 = LV_COORD_MAX;
 782              		.loc 1 500 7 view .LVU244
ARM GAS  /var/folders/qx/2_175_4n2s19vhvtspjhb3qh0000gn/T//ccspqae8.s 			page 32


 783 0046 13B9     		cbnz	r3, .L47
 500:Drivers/lvgl/src/indev/lv_indev_scroll.c ****     if(indev->pointer.scroll_area.x2 == 0) indev->pointer.scroll_area.x2 = LV_COORD_MAX;
 784              		.loc 1 500 44 is_stmt 1 discriminator 1 view .LVU245
 500:Drivers/lvgl/src/indev/lv_indev_scroll.c ****     if(indev->pointer.scroll_area.x2 == 0) indev->pointer.scroll_area.x2 = LV_COORD_MAX;
 785              		.loc 1 500 74 is_stmt 0 discriminator 1 view .LVU246
 786 0048 604B     		ldr	r3, .L54
 787 004a C4F8E030 		str	r3, [r4, #224]
 788              	.L47:
 501:Drivers/lvgl/src/indev/lv_indev_scroll.c ****     if(indev->pointer.scroll_area.y1 == 0) indev->pointer.scroll_area.y1 = LV_COORD_MIN;
 789              		.loc 1 501 5 is_stmt 1 view .LVU247
 501:Drivers/lvgl/src/indev/lv_indev_scroll.c ****     if(indev->pointer.scroll_area.y1 == 0) indev->pointer.scroll_area.y1 = LV_COORD_MIN;
 790              		.loc 1 501 34 is_stmt 0 view .LVU248
 791 004e D4F8E830 		ldr	r3, [r4, #232]
 501:Drivers/lvgl/src/indev/lv_indev_scroll.c ****     if(indev->pointer.scroll_area.y1 == 0) indev->pointer.scroll_area.y1 = LV_COORD_MIN;
 792              		.loc 1 501 7 view .LVU249
 793 0052 1BB9     		cbnz	r3, .L48
 501:Drivers/lvgl/src/indev/lv_indev_scroll.c ****     if(indev->pointer.scroll_area.y1 == 0) indev->pointer.scroll_area.y1 = LV_COORD_MIN;
 794              		.loc 1 501 44 is_stmt 1 discriminator 1 view .LVU250
 501:Drivers/lvgl/src/indev/lv_indev_scroll.c ****     if(indev->pointer.scroll_area.y1 == 0) indev->pointer.scroll_area.y1 = LV_COORD_MIN;
 795              		.loc 1 501 74 is_stmt 0 discriminator 1 view .LVU251
 796 0054 6FF06043 		mvn	r3, #-536870912
 797 0058 C4F8E830 		str	r3, [r4, #232]
 798              	.L48:
 502:Drivers/lvgl/src/indev/lv_indev_scroll.c ****     if(indev->pointer.scroll_area.y2 == 0) indev->pointer.scroll_area.y2 = LV_COORD_MAX;
 799              		.loc 1 502 5 is_stmt 1 view .LVU252
 502:Drivers/lvgl/src/indev/lv_indev_scroll.c ****     if(indev->pointer.scroll_area.y2 == 0) indev->pointer.scroll_area.y2 = LV_COORD_MAX;
 800              		.loc 1 502 34 is_stmt 0 view .LVU253
 801 005c D4F8E430 		ldr	r3, [r4, #228]
 502:Drivers/lvgl/src/indev/lv_indev_scroll.c ****     if(indev->pointer.scroll_area.y2 == 0) indev->pointer.scroll_area.y2 = LV_COORD_MAX;
 802              		.loc 1 502 7 view .LVU254
 803 0060 13B9     		cbnz	r3, .L49
 502:Drivers/lvgl/src/indev/lv_indev_scroll.c ****     if(indev->pointer.scroll_area.y2 == 0) indev->pointer.scroll_area.y2 = LV_COORD_MAX;
 804              		.loc 1 502 44 is_stmt 1 discriminator 1 view .LVU255
 502:Drivers/lvgl/src/indev/lv_indev_scroll.c ****     if(indev->pointer.scroll_area.y2 == 0) indev->pointer.scroll_area.y2 = LV_COORD_MAX;
 805              		.loc 1 502 74 is_stmt 0 discriminator 1 view .LVU256
 806 0062 5A4B     		ldr	r3, .L54
 807 0064 C4F8E430 		str	r3, [r4, #228]
 808              	.L49:
 503:Drivers/lvgl/src/indev/lv_indev_scroll.c **** }
 809              		.loc 1 503 5 is_stmt 1 view .LVU257
 503:Drivers/lvgl/src/indev/lv_indev_scroll.c **** }
 810              		.loc 1 503 34 is_stmt 0 view .LVU258
 811 0068 D4F8EC30 		ldr	r3, [r4, #236]
 503:Drivers/lvgl/src/indev/lv_indev_scroll.c **** }
 812              		.loc 1 503 7 view .LVU259
 813 006c 1BB9     		cbnz	r3, .L35
 503:Drivers/lvgl/src/indev/lv_indev_scroll.c **** }
 814              		.loc 1 503 44 is_stmt 1 discriminator 1 view .LVU260
 503:Drivers/lvgl/src/indev/lv_indev_scroll.c **** }
 815              		.loc 1 503 74 is_stmt 0 discriminator 1 view .LVU261
 816 006e 6FF06043 		mvn	r3, #-536870912
 817 0072 C4F8EC30 		str	r3, [r4, #236]
 818              	.L35:
 504:Drivers/lvgl/src/indev/lv_indev_scroll.c **** 
 819              		.loc 1 504 1 view .LVU262
 820 0076 02B0     		add	sp, sp, #8
 821              	.LCFI12:
ARM GAS  /var/folders/qx/2_175_4n2s19vhvtspjhb3qh0000gn/T//ccspqae8.s 			page 33


 822              		.cfi_remember_state
 823              		.cfi_def_cfa_offset 16
 824              		@ sp needed
 825 0078 70BD     		pop	{r4, r5, r6, pc}
 826              	.LVL79:
 827              	.L36:
 828              	.LCFI13:
 829              		.cfi_restore_state
 451:Drivers/lvgl/src/indev/lv_indev_scroll.c ****             case LV_SCROLL_SNAP_START:
 830              		.loc 1 451 9 is_stmt 1 view .LVU263
 451:Drivers/lvgl/src/indev/lv_indev_scroll.c ****             case LV_SCROLL_SNAP_START:
 831              		.loc 1 451 16 is_stmt 0 view .LVU264
 832 007a 2846     		mov	r0, r5
 833 007c FFF7FEFF 		bl	lv_obj_get_scroll_snap_y
 834              	.LVL80:
 451:Drivers/lvgl/src/indev/lv_indev_scroll.c ****             case LV_SCROLL_SNAP_START:
 835              		.loc 1 451 9 discriminator 1 view .LVU265
 836 0080 0228     		cmp	r0, #2
 837 0082 31D0     		beq	.L38
 838 0084 0328     		cmp	r0, #3
 839 0086 41D0     		beq	.L39
 840 0088 0128     		cmp	r0, #1
 841 008a 5AD1     		bne	.L40
 453:Drivers/lvgl/src/indev/lv_indev_scroll.c ****                 indev->pointer.scroll_area.y2 = find_snap_point_y(obj, LV_COORD_MIN, obj->coords.y1
 842              		.loc 1 453 17 is_stmt 1 view .LVU266
 453:Drivers/lvgl/src/indev/lv_indev_scroll.c ****                 indev->pointer.scroll_area.y2 = find_snap_point_y(obj, LV_COORD_MIN, obj->coords.y1
 843              		.loc 1 453 83 is_stmt 0 view .LVU267
 844 008c A969     		ldr	r1, [r5, #24]
 453:Drivers/lvgl/src/indev/lv_indev_scroll.c ****                 indev->pointer.scroll_area.y2 = find_snap_point_y(obj, LV_COORD_MIN, obj->coords.y1
 845              		.loc 1 453 49 view .LVU268
 846 008e 0023     		movs	r3, #0
 847 0090 6FF06042 		mvn	r2, #-536870912
 848 0094 0131     		adds	r1, r1, #1
 849 0096 2846     		mov	r0, r5
 850 0098 FFF7FEFF 		bl	find_snap_point_y
 851              	.LVL81:
 453:Drivers/lvgl/src/indev/lv_indev_scroll.c ****                 indev->pointer.scroll_area.y2 = find_snap_point_y(obj, LV_COORD_MIN, obj->coords.y1
 852              		.loc 1 453 47 discriminator 1 view .LVU269
 853 009c C4F8E400 		str	r0, [r4, #228]
 454:Drivers/lvgl/src/indev/lv_indev_scroll.c ****                 break;
 854              		.loc 1 454 17 is_stmt 1 view .LVU270
 454:Drivers/lvgl/src/indev/lv_indev_scroll.c ****                 break;
 855              		.loc 1 454 97 is_stmt 0 view .LVU271
 856 00a0 AA69     		ldr	r2, [r5, #24]
 454:Drivers/lvgl/src/indev/lv_indev_scroll.c ****                 break;
 857              		.loc 1 454 49 view .LVU272
 858 00a2 0023     		movs	r3, #0
 859 00a4 013A     		subs	r2, r2, #1
 860 00a6 4949     		ldr	r1, .L54
 861 00a8 2846     		mov	r0, r5
 862 00aa FFF7FEFF 		bl	find_snap_point_y
 863              	.LVL82:
 454:Drivers/lvgl/src/indev/lv_indev_scroll.c ****                 break;
 864              		.loc 1 454 47 discriminator 1 view .LVU273
 865 00ae C4F8EC00 		str	r0, [r4, #236]
 455:Drivers/lvgl/src/indev/lv_indev_scroll.c ****             case LV_SCROLL_SNAP_END:
 866              		.loc 1 455 17 is_stmt 1 view .LVU274
ARM GAS  /var/folders/qx/2_175_4n2s19vhvtspjhb3qh0000gn/T//ccspqae8.s 			page 34


 867              	.L41:
 472:Drivers/lvgl/src/indev/lv_indev_scroll.c ****             case LV_SCROLL_SNAP_START:
 868              		.loc 1 472 9 view .LVU275
 472:Drivers/lvgl/src/indev/lv_indev_scroll.c ****             case LV_SCROLL_SNAP_START:
 869              		.loc 1 472 16 is_stmt 0 view .LVU276
 870 00b2 2846     		mov	r0, r5
 871 00b4 FFF7FEFF 		bl	lv_obj_get_scroll_snap_x
 872              	.LVL83:
 472:Drivers/lvgl/src/indev/lv_indev_scroll.c ****             case LV_SCROLL_SNAP_START:
 873              		.loc 1 472 9 discriminator 1 view .LVU277
 874 00b8 0228     		cmp	r0, #2
 875 00ba 4AD0     		beq	.L42
 876 00bc 0328     		cmp	r0, #3
 877 00be 5AD0     		beq	.L43
 878 00c0 0128     		cmp	r0, #1
 879 00c2 73D1     		bne	.L44
 474:Drivers/lvgl/src/indev/lv_indev_scroll.c ****                 indev->pointer.scroll_area.x2 = find_snap_point_x(obj, LV_COORD_MIN, obj->coords.x1
 880              		.loc 1 474 17 is_stmt 1 view .LVU278
 474:Drivers/lvgl/src/indev/lv_indev_scroll.c ****                 indev->pointer.scroll_area.x2 = find_snap_point_x(obj, LV_COORD_MIN, obj->coords.x1
 881              		.loc 1 474 49 is_stmt 0 view .LVU279
 882 00c4 0023     		movs	r3, #0
 883 00c6 6FF06042 		mvn	r2, #-536870912
 884 00ca 6969     		ldr	r1, [r5, #20]
 885 00cc 2846     		mov	r0, r5
 886 00ce FFF7FEFF 		bl	find_snap_point_x
 887              	.LVL84:
 474:Drivers/lvgl/src/indev/lv_indev_scroll.c ****                 indev->pointer.scroll_area.x2 = find_snap_point_x(obj, LV_COORD_MIN, obj->coords.x1
 888              		.loc 1 474 47 discriminator 1 view .LVU280
 889 00d2 C4F8E000 		str	r0, [r4, #224]
 475:Drivers/lvgl/src/indev/lv_indev_scroll.c ****                 break;
 890              		.loc 1 475 17 is_stmt 1 view .LVU281
 475:Drivers/lvgl/src/indev/lv_indev_scroll.c ****                 break;
 891              		.loc 1 475 49 is_stmt 0 view .LVU282
 892 00d6 0023     		movs	r3, #0
 893 00d8 6A69     		ldr	r2, [r5, #20]
 894 00da 3C49     		ldr	r1, .L54
 895 00dc 2846     		mov	r0, r5
 896 00de FFF7FEFF 		bl	find_snap_point_x
 897              	.LVL85:
 475:Drivers/lvgl/src/indev/lv_indev_scroll.c ****                 break;
 898              		.loc 1 475 47 discriminator 1 view .LVU283
 899 00e2 C4F8E800 		str	r0, [r4, #232]
 476:Drivers/lvgl/src/indev/lv_indev_scroll.c ****             case LV_SCROLL_SNAP_END:
 900              		.loc 1 476 17 is_stmt 1 view .LVU284
 901 00e6 9EE7     		b	.L37
 902              	.L38:
 457:Drivers/lvgl/src/indev/lv_indev_scroll.c ****                 indev->pointer.scroll_area.y2 = find_snap_point_y(obj, LV_COORD_MIN, obj->coords.y2
 903              		.loc 1 457 17 view .LVU285
 457:Drivers/lvgl/src/indev/lv_indev_scroll.c ****                 indev->pointer.scroll_area.y2 = find_snap_point_y(obj, LV_COORD_MIN, obj->coords.y2
 904              		.loc 1 457 49 is_stmt 0 view .LVU286
 905 00e8 0023     		movs	r3, #0
 906 00ea 6FF06042 		mvn	r2, #-536870912
 907 00ee 296A     		ldr	r1, [r5, #32]
 908 00f0 2846     		mov	r0, r5
 909 00f2 FFF7FEFF 		bl	find_snap_point_y
 910              	.LVL86:
 457:Drivers/lvgl/src/indev/lv_indev_scroll.c ****                 indev->pointer.scroll_area.y2 = find_snap_point_y(obj, LV_COORD_MIN, obj->coords.y2
ARM GAS  /var/folders/qx/2_175_4n2s19vhvtspjhb3qh0000gn/T//ccspqae8.s 			page 35


 911              		.loc 1 457 47 discriminator 1 view .LVU287
 912 00f6 C4F8E400 		str	r0, [r4, #228]
 458:Drivers/lvgl/src/indev/lv_indev_scroll.c ****                 break;
 913              		.loc 1 458 17 is_stmt 1 view .LVU288
 458:Drivers/lvgl/src/indev/lv_indev_scroll.c ****                 break;
 914              		.loc 1 458 49 is_stmt 0 view .LVU289
 915 00fa 0023     		movs	r3, #0
 916 00fc 2A6A     		ldr	r2, [r5, #32]
 917 00fe 3349     		ldr	r1, .L54
 918 0100 2846     		mov	r0, r5
 919 0102 FFF7FEFF 		bl	find_snap_point_y
 920              	.LVL87:
 458:Drivers/lvgl/src/indev/lv_indev_scroll.c ****                 break;
 921              		.loc 1 458 47 discriminator 1 view .LVU290
 922 0106 C4F8EC00 		str	r0, [r4, #236]
 459:Drivers/lvgl/src/indev/lv_indev_scroll.c ****             case LV_SCROLL_SNAP_CENTER: {
 923              		.loc 1 459 17 is_stmt 1 view .LVU291
 924 010a D2E7     		b	.L41
 925              	.L39:
 926              	.LBB86:
 461:Drivers/lvgl/src/indev/lv_indev_scroll.c ****                     indev->pointer.scroll_area.y1 = find_snap_point_y(obj, y_mid + 1, LV_COORD_MAX,
 927              		.loc 1 461 21 view .LVU292
 461:Drivers/lvgl/src/indev/lv_indev_scroll.c ****                     indev->pointer.scroll_area.y1 = find_snap_point_y(obj, y_mid + 1, LV_COORD_MAX,
 928              		.loc 1 461 48 is_stmt 0 view .LVU293
 929 010c AE69     		ldr	r6, [r5, #24]
 461:Drivers/lvgl/src/indev/lv_indev_scroll.c ****                     indev->pointer.scroll_area.y1 = find_snap_point_y(obj, y_mid + 1, LV_COORD_MAX,
 930              		.loc 1 461 54 view .LVU294
 931 010e 05F11400 		add	r0, r5, #20
 932 0112 FFF7FEFF 		bl	lv_area_get_height
 933              	.LVL88:
 461:Drivers/lvgl/src/indev/lv_indev_scroll.c ****                     indev->pointer.scroll_area.y1 = find_snap_point_y(obj, y_mid + 1, LV_COORD_MAX,
 934              		.loc 1 461 87 discriminator 1 view .LVU295
 935 0116 00EBD070 		add	r0, r0, r0, lsr #31
 461:Drivers/lvgl/src/indev/lv_indev_scroll.c ****                     indev->pointer.scroll_area.y1 = find_snap_point_y(obj, y_mid + 1, LV_COORD_MAX,
 936              		.loc 1 461 29 discriminator 1 view .LVU296
 937 011a 06EB6006 		add	r6, r6, r0, asr #1
 938              	.LVL89:
 462:Drivers/lvgl/src/indev/lv_indev_scroll.c ****                     indev->pointer.scroll_area.y2 = find_snap_point_y(obj, LV_COORD_MIN, y_mid - 1,
 939              		.loc 1 462 21 is_stmt 1 view .LVU297
 462:Drivers/lvgl/src/indev/lv_indev_scroll.c ****                     indev->pointer.scroll_area.y2 = find_snap_point_y(obj, LV_COORD_MIN, y_mid - 1,
 940              		.loc 1 462 53 is_stmt 0 view .LVU298
 941 011e 0023     		movs	r3, #0
 942 0120 6FF06042 		mvn	r2, #-536870912
 943 0124 711C     		adds	r1, r6, #1
 944 0126 2846     		mov	r0, r5
 945 0128 FFF7FEFF 		bl	find_snap_point_y
 946              	.LVL90:
 462:Drivers/lvgl/src/indev/lv_indev_scroll.c ****                     indev->pointer.scroll_area.y2 = find_snap_point_y(obj, LV_COORD_MIN, y_mid - 1,
 947              		.loc 1 462 51 discriminator 1 view .LVU299
 948 012c C4F8E400 		str	r0, [r4, #228]
 463:Drivers/lvgl/src/indev/lv_indev_scroll.c ****                     break;
 949              		.loc 1 463 21 is_stmt 1 view .LVU300
 463:Drivers/lvgl/src/indev/lv_indev_scroll.c ****                     break;
 950              		.loc 1 463 53 is_stmt 0 view .LVU301
 951 0130 0023     		movs	r3, #0
 952 0132 721E     		subs	r2, r6, #1
 953 0134 2549     		ldr	r1, .L54
ARM GAS  /var/folders/qx/2_175_4n2s19vhvtspjhb3qh0000gn/T//ccspqae8.s 			page 36


 954 0136 2846     		mov	r0, r5
 955 0138 FFF7FEFF 		bl	find_snap_point_y
 956              	.LVL91:
 463:Drivers/lvgl/src/indev/lv_indev_scroll.c ****                     break;
 957              		.loc 1 463 51 discriminator 1 view .LVU302
 958 013c C4F8EC00 		str	r0, [r4, #236]
 464:Drivers/lvgl/src/indev/lv_indev_scroll.c ****                 }
 959              		.loc 1 464 21 is_stmt 1 view .LVU303
 960 0140 B7E7     		b	.L41
 961              	.LVL92:
 962              	.L40:
 464:Drivers/lvgl/src/indev/lv_indev_scroll.c ****                 }
 963              		.loc 1 464 21 is_stmt 0 view .LVU304
 964              	.LBE86:
 467:Drivers/lvgl/src/indev/lv_indev_scroll.c ****                 indev->pointer.scroll_area.y2 = LV_COORD_MAX;
 965              		.loc 1 467 17 is_stmt 1 view .LVU305
 467:Drivers/lvgl/src/indev/lv_indev_scroll.c ****                 indev->pointer.scroll_area.y2 = LV_COORD_MAX;
 966              		.loc 1 467 47 is_stmt 0 view .LVU306
 967 0142 224B     		ldr	r3, .L54
 968 0144 C4F8E430 		str	r3, [r4, #228]
 468:Drivers/lvgl/src/indev/lv_indev_scroll.c ****                 break;
 969              		.loc 1 468 17 is_stmt 1 view .LVU307
 468:Drivers/lvgl/src/indev/lv_indev_scroll.c ****                 break;
 970              		.loc 1 468 47 is_stmt 0 view .LVU308
 971 0148 6FF06043 		mvn	r3, #-536870912
 972 014c C4F8EC30 		str	r3, [r4, #236]
 469:Drivers/lvgl/src/indev/lv_indev_scroll.c ****         }
 973              		.loc 1 469 17 is_stmt 1 view .LVU309
 974 0150 AFE7     		b	.L41
 975              	.L42:
 478:Drivers/lvgl/src/indev/lv_indev_scroll.c ****                 indev->pointer.scroll_area.x2 = find_snap_point_x(obj, LV_COORD_MIN, obj->coords.x2
 976              		.loc 1 478 17 view .LVU310
 478:Drivers/lvgl/src/indev/lv_indev_scroll.c ****                 indev->pointer.scroll_area.x2 = find_snap_point_x(obj, LV_COORD_MIN, obj->coords.x2
 977              		.loc 1 478 49 is_stmt 0 view .LVU311
 978 0152 0023     		movs	r3, #0
 979 0154 6FF06042 		mvn	r2, #-536870912
 980 0158 E969     		ldr	r1, [r5, #28]
 981 015a 2846     		mov	r0, r5
 982 015c FFF7FEFF 		bl	find_snap_point_x
 983              	.LVL93:
 478:Drivers/lvgl/src/indev/lv_indev_scroll.c ****                 indev->pointer.scroll_area.x2 = find_snap_point_x(obj, LV_COORD_MIN, obj->coords.x2
 984              		.loc 1 478 47 discriminator 1 view .LVU312
 985 0160 C4F8E000 		str	r0, [r4, #224]
 479:Drivers/lvgl/src/indev/lv_indev_scroll.c ****                 break;
 986              		.loc 1 479 17 is_stmt 1 view .LVU313
 479:Drivers/lvgl/src/indev/lv_indev_scroll.c ****                 break;
 987              		.loc 1 479 49 is_stmt 0 view .LVU314
 988 0164 0023     		movs	r3, #0
 989 0166 EA69     		ldr	r2, [r5, #28]
 990 0168 1849     		ldr	r1, .L54
 991 016a 2846     		mov	r0, r5
 992 016c FFF7FEFF 		bl	find_snap_point_x
 993              	.LVL94:
 479:Drivers/lvgl/src/indev/lv_indev_scroll.c ****                 break;
 994              		.loc 1 479 47 discriminator 1 view .LVU315
 995 0170 C4F8E800 		str	r0, [r4, #232]
 480:Drivers/lvgl/src/indev/lv_indev_scroll.c ****             case LV_SCROLL_SNAP_CENTER: {
ARM GAS  /var/folders/qx/2_175_4n2s19vhvtspjhb3qh0000gn/T//ccspqae8.s 			page 37


 996              		.loc 1 480 17 is_stmt 1 view .LVU316
 997 0174 57E7     		b	.L37
 998              	.L43:
 999              	.LBB87:
 482:Drivers/lvgl/src/indev/lv_indev_scroll.c ****                     indev->pointer.scroll_area.x1 = find_snap_point_x(obj, x_mid + 1, LV_COORD_MAX,
 1000              		.loc 1 482 21 view .LVU317
 482:Drivers/lvgl/src/indev/lv_indev_scroll.c ****                     indev->pointer.scroll_area.x1 = find_snap_point_x(obj, x_mid + 1, LV_COORD_MAX,
 1001              		.loc 1 482 48 is_stmt 0 view .LVU318
 1002 0176 2846     		mov	r0, r5
 1003 0178 50F8146F 		ldr	r6, [r0, #20]!
 482:Drivers/lvgl/src/indev/lv_indev_scroll.c ****                     indev->pointer.scroll_area.x1 = find_snap_point_x(obj, x_mid + 1, LV_COORD_MAX,
 1004              		.loc 1 482 54 view .LVU319
 1005 017c FFF7FEFF 		bl	lv_area_get_width
 1006              	.LVL95:
 482:Drivers/lvgl/src/indev/lv_indev_scroll.c ****                     indev->pointer.scroll_area.x1 = find_snap_point_x(obj, x_mid + 1, LV_COORD_MAX,
 1007              		.loc 1 482 86 discriminator 1 view .LVU320
 1008 0180 00EBD070 		add	r0, r0, r0, lsr #31
 482:Drivers/lvgl/src/indev/lv_indev_scroll.c ****                     indev->pointer.scroll_area.x1 = find_snap_point_x(obj, x_mid + 1, LV_COORD_MAX,
 1009              		.loc 1 482 29 discriminator 1 view .LVU321
 1010 0184 06EB6006 		add	r6, r6, r0, asr #1
 1011              	.LVL96:
 483:Drivers/lvgl/src/indev/lv_indev_scroll.c ****                     indev->pointer.scroll_area.x2 = find_snap_point_x(obj, LV_COORD_MIN, x_mid - 1,
 1012              		.loc 1 483 21 is_stmt 1 view .LVU322
 483:Drivers/lvgl/src/indev/lv_indev_scroll.c ****                     indev->pointer.scroll_area.x2 = find_snap_point_x(obj, LV_COORD_MIN, x_mid - 1,
 1013              		.loc 1 483 53 is_stmt 0 view .LVU323
 1014 0188 0023     		movs	r3, #0
 1015 018a 6FF06042 		mvn	r2, #-536870912
 1016 018e 711C     		adds	r1, r6, #1
 1017 0190 2846     		mov	r0, r5
 1018 0192 FFF7FEFF 		bl	find_snap_point_x
 1019              	.LVL97:
 483:Drivers/lvgl/src/indev/lv_indev_scroll.c ****                     indev->pointer.scroll_area.x2 = find_snap_point_x(obj, LV_COORD_MIN, x_mid - 1,
 1020              		.loc 1 483 51 discriminator 1 view .LVU324
 1021 0196 C4F8E000 		str	r0, [r4, #224]
 484:Drivers/lvgl/src/indev/lv_indev_scroll.c ****                     break;
 1022              		.loc 1 484 21 is_stmt 1 view .LVU325
 484:Drivers/lvgl/src/indev/lv_indev_scroll.c ****                     break;
 1023              		.loc 1 484 53 is_stmt 0 view .LVU326
 1024 019a 0023     		movs	r3, #0
 1025 019c 721E     		subs	r2, r6, #1
 1026 019e 0B49     		ldr	r1, .L54
 1027 01a0 2846     		mov	r0, r5
 1028 01a2 FFF7FEFF 		bl	find_snap_point_x
 1029              	.LVL98:
 484:Drivers/lvgl/src/indev/lv_indev_scroll.c ****                     break;
 1030              		.loc 1 484 51 discriminator 1 view .LVU327
 1031 01a6 C4F8E800 		str	r0, [r4, #232]
 485:Drivers/lvgl/src/indev/lv_indev_scroll.c ****                 }
 1032              		.loc 1 485 21 is_stmt 1 view .LVU328
 1033 01aa 3CE7     		b	.L37
 1034              	.LVL99:
 1035              	.L44:
 485:Drivers/lvgl/src/indev/lv_indev_scroll.c ****                 }
 1036              		.loc 1 485 21 is_stmt 0 view .LVU329
 1037              	.LBE87:
 488:Drivers/lvgl/src/indev/lv_indev_scroll.c ****                 indev->pointer.scroll_area.x2 = LV_COORD_MAX;
 1038              		.loc 1 488 17 is_stmt 1 view .LVU330
ARM GAS  /var/folders/qx/2_175_4n2s19vhvtspjhb3qh0000gn/T//ccspqae8.s 			page 38


 488:Drivers/lvgl/src/indev/lv_indev_scroll.c ****                 indev->pointer.scroll_area.x2 = LV_COORD_MAX;
 1039              		.loc 1 488 47 is_stmt 0 view .LVU331
 1040 01ac 074B     		ldr	r3, .L54
 1041 01ae C4F8E030 		str	r3, [r4, #224]
 489:Drivers/lvgl/src/indev/lv_indev_scroll.c ****                 break;
 1042              		.loc 1 489 17 is_stmt 1 view .LVU332
 489:Drivers/lvgl/src/indev/lv_indev_scroll.c ****                 break;
 1043              		.loc 1 489 47 is_stmt 0 view .LVU333
 1044 01b2 6FF06043 		mvn	r3, #-536870912
 1045 01b6 C4F8E830 		str	r3, [r4, #232]
 490:Drivers/lvgl/src/indev/lv_indev_scroll.c ****         }
 1046              		.loc 1 490 17 is_stmt 1 view .LVU334
 1047 01ba 34E7     		b	.L37
 1048              	.L52:
 496:Drivers/lvgl/src/indev/lv_indev_scroll.c ****     if(indev->pointer.scroll_area.y1 == LV_COORD_MAX) indev->pointer.scroll_area.y1 = LV_COORD_MIN;
 1049              		.loc 1 496 55 discriminator 1 view .LVU335
 496:Drivers/lvgl/src/indev/lv_indev_scroll.c ****     if(indev->pointer.scroll_area.y1 == LV_COORD_MAX) indev->pointer.scroll_area.y1 = LV_COORD_MIN;
 1050              		.loc 1 496 85 is_stmt 0 discriminator 1 view .LVU336
 1051 01bc 034B     		ldr	r3, .L54
 1052 01be C4F8E030 		str	r3, [r4, #224]
 1053 01c2 37E7     		b	.L45
 1054              	.L53:
 497:Drivers/lvgl/src/indev/lv_indev_scroll.c **** 
 1055              		.loc 1 497 55 is_stmt 1 discriminator 1 view .LVU337
 497:Drivers/lvgl/src/indev/lv_indev_scroll.c **** 
 1056              		.loc 1 497 85 is_stmt 0 discriminator 1 view .LVU338
 1057 01c4 014B     		ldr	r3, .L54
 1058 01c6 C4F8E430 		str	r3, [r4, #228]
 1059 01ca 3AE7     		b	.L46
 1060              	.L55:
 1061              		.align	2
 1062              	.L54:
 1063 01cc 010000E0 		.word	-536870911
 1064              		.cfi_endproc
 1065              	.LFE186:
 1067              		.section	.text.has_more_snap_points,"ax",%progbits
 1068              		.align	1
 1069              		.syntax unified
 1070              		.thumb
 1071              		.thumb_func
 1073              	has_more_snap_points:
 1074              	.LVL100:
 1075              	.LFB191:
 640:Drivers/lvgl/src/indev/lv_indev_scroll.c **** 
 641:Drivers/lvgl/src/indev/lv_indev_scroll.c **** static int32_t elastic_diff(lv_obj_t * scroll_obj, int32_t diff, int32_t scroll_start, int32_t scro
 642:Drivers/lvgl/src/indev/lv_indev_scroll.c ****                             lv_dir_t dir)
 643:Drivers/lvgl/src/indev/lv_indev_scroll.c **** {
 644:Drivers/lvgl/src/indev/lv_indev_scroll.c ****     if(diff == 0) return 0;
 645:Drivers/lvgl/src/indev/lv_indev_scroll.c **** 
 646:Drivers/lvgl/src/indev/lv_indev_scroll.c ****     /*Scroll back to the edge if required*/
 647:Drivers/lvgl/src/indev/lv_indev_scroll.c ****     if(!lv_obj_has_flag(scroll_obj, LV_OBJ_FLAG_SCROLL_ELASTIC)) {
 648:Drivers/lvgl/src/indev/lv_indev_scroll.c ****         /*
 649:Drivers/lvgl/src/indev/lv_indev_scroll.c ****          * If the scrolling object does not set the `LV_OBJ_FLAG_SCROLL_ELASTIC` flag,
 650:Drivers/lvgl/src/indev/lv_indev_scroll.c ****          * make sure that `diff` will not cause the scroll to exceed the `start` or `end` boundary 
 651:Drivers/lvgl/src/indev/lv_indev_scroll.c ****          * If the content has exceeded the boundary due to external factors like `LV_SCROLL_SNAP_CE
 652:Drivers/lvgl/src/indev/lv_indev_scroll.c ****          * then respect the current position instead of going straight back to 0.
 653:Drivers/lvgl/src/indev/lv_indev_scroll.c ****          */
ARM GAS  /var/folders/qx/2_175_4n2s19vhvtspjhb3qh0000gn/T//ccspqae8.s 			page 39


 654:Drivers/lvgl/src/indev/lv_indev_scroll.c ****         const int32_t scroll_ended = diff > 0 ? scroll_start : scroll_end;
 655:Drivers/lvgl/src/indev/lv_indev_scroll.c ****         if(scroll_ended <= 0) diff = 0;
 656:Drivers/lvgl/src/indev/lv_indev_scroll.c ****         else if(scroll_ended - diff < 0) diff = scroll_ended;
 657:Drivers/lvgl/src/indev/lv_indev_scroll.c ****     }
 658:Drivers/lvgl/src/indev/lv_indev_scroll.c ****     /*Handle elastic scrolling*/
 659:Drivers/lvgl/src/indev/lv_indev_scroll.c ****     else {
 660:Drivers/lvgl/src/indev/lv_indev_scroll.c **** 
 661:Drivers/lvgl/src/indev/lv_indev_scroll.c ****         lv_scroll_snap_t snap;
 662:Drivers/lvgl/src/indev/lv_indev_scroll.c ****         snap = dir == LV_DIR_HOR ? lv_obj_get_scroll_snap_x(scroll_obj) : lv_obj_get_scroll_snap_y(
 663:Drivers/lvgl/src/indev/lv_indev_scroll.c **** 
 664:Drivers/lvgl/src/indev/lv_indev_scroll.c ****         /*Without snapping just scale down the diff when scrolled out*/
 665:Drivers/lvgl/src/indev/lv_indev_scroll.c ****         if(snap == LV_SCROLL_SNAP_NONE) {
 666:Drivers/lvgl/src/indev/lv_indev_scroll.c ****             if(scroll_end < 0 || scroll_start < 0) {
 667:Drivers/lvgl/src/indev/lv_indev_scroll.c ****                 /*Rounding*/
 668:Drivers/lvgl/src/indev/lv_indev_scroll.c ****                 if(diff < 0) diff -= ELASTIC_SLOWNESS_FACTOR / 2;
 669:Drivers/lvgl/src/indev/lv_indev_scroll.c ****                 if(diff > 0) diff += ELASTIC_SLOWNESS_FACTOR / 2;
 670:Drivers/lvgl/src/indev/lv_indev_scroll.c ****                 return diff / ELASTIC_SLOWNESS_FACTOR;
 671:Drivers/lvgl/src/indev/lv_indev_scroll.c ****             }
 672:Drivers/lvgl/src/indev/lv_indev_scroll.c ****             else {
 673:Drivers/lvgl/src/indev/lv_indev_scroll.c ****                 return diff;
 674:Drivers/lvgl/src/indev/lv_indev_scroll.c ****             }
 675:Drivers/lvgl/src/indev/lv_indev_scroll.c ****         }
 676:Drivers/lvgl/src/indev/lv_indev_scroll.c **** 
 677:Drivers/lvgl/src/indev/lv_indev_scroll.c ****         /*With snapping the widget is scrolled out if there are no more snap points
 678:Drivers/lvgl/src/indev/lv_indev_scroll.c ****          *at least in one direction (start or end)*/
 679:Drivers/lvgl/src/indev/lv_indev_scroll.c ****         bool has_start_snap;
 680:Drivers/lvgl/src/indev/lv_indev_scroll.c ****         bool has_end_snap;
 681:Drivers/lvgl/src/indev/lv_indev_scroll.c ****         has_more_snap_points(scroll_obj, dir, &has_start_snap, &has_end_snap);
 682:Drivers/lvgl/src/indev/lv_indev_scroll.c **** 
 683:Drivers/lvgl/src/indev/lv_indev_scroll.c ****         if(!has_start_snap || !has_end_snap) {
 684:Drivers/lvgl/src/indev/lv_indev_scroll.c ****             /*Rounding*/
 685:Drivers/lvgl/src/indev/lv_indev_scroll.c ****             if(diff < 0) diff -= ELASTIC_SLOWNESS_FACTOR / 2;
 686:Drivers/lvgl/src/indev/lv_indev_scroll.c ****             if(diff > 0) diff += ELASTIC_SLOWNESS_FACTOR / 2;
 687:Drivers/lvgl/src/indev/lv_indev_scroll.c ****             return diff / ELASTIC_SLOWNESS_FACTOR;
 688:Drivers/lvgl/src/indev/lv_indev_scroll.c ****         }
 689:Drivers/lvgl/src/indev/lv_indev_scroll.c ****         else {
 690:Drivers/lvgl/src/indev/lv_indev_scroll.c ****             return diff;
 691:Drivers/lvgl/src/indev/lv_indev_scroll.c ****         }
 692:Drivers/lvgl/src/indev/lv_indev_scroll.c ****     }
 693:Drivers/lvgl/src/indev/lv_indev_scroll.c **** 
 694:Drivers/lvgl/src/indev/lv_indev_scroll.c ****     return diff;
 695:Drivers/lvgl/src/indev/lv_indev_scroll.c **** }
 696:Drivers/lvgl/src/indev/lv_indev_scroll.c **** 
 697:Drivers/lvgl/src/indev/lv_indev_scroll.c **** /**
 698:Drivers/lvgl/src/indev/lv_indev_scroll.c ****  * Tell is there are more snap point in a given direction considering snap position.
 699:Drivers/lvgl/src/indev/lv_indev_scroll.c ****  * There is a snap point if there is a snapanble object in the given direction
 700:Drivers/lvgl/src/indev/lv_indev_scroll.c ****  * @param scroll_obj        the object on which snap points should be found
 701:Drivers/lvgl/src/indev/lv_indev_scroll.c ****  * @param dir               LV_DIR_HOR or LV_DIR_VER
 702:Drivers/lvgl/src/indev/lv_indev_scroll.c ****  * @param has_start_snap    true: there is snap point in the start direction (top or left depending
 703:Drivers/lvgl/src/indev/lv_indev_scroll.c ****  * @param has_end_snap      true: there is snap point in the end direction (bottom or right dependi
 704:Drivers/lvgl/src/indev/lv_indev_scroll.c ****  * @note snap points will be searched relative to the
 705:Drivers/lvgl/src/indev/lv_indev_scroll.c ****  *       center point in case of LV_SCROLL_SNAP_CENTER
 706:Drivers/lvgl/src/indev/lv_indev_scroll.c ****  *       start point (top or left) in case of LV_SCROLL_SNAP_START
 707:Drivers/lvgl/src/indev/lv_indev_scroll.c ****  *       end point (bottom or right) in case of LV_SCROLL_SNAP_END
 708:Drivers/lvgl/src/indev/lv_indev_scroll.c ****  */
 709:Drivers/lvgl/src/indev/lv_indev_scroll.c **** static void has_more_snap_points(lv_obj_t * scroll_obj, lv_dir_t dir, bool * has_start_snap, bool *
 710:Drivers/lvgl/src/indev/lv_indev_scroll.c **** {
ARM GAS  /var/folders/qx/2_175_4n2s19vhvtspjhb3qh0000gn/T//ccspqae8.s 			page 40


 1076              		.loc 1 710 1 is_stmt 1 view -0
 1077              		.cfi_startproc
 1078              		@ args = 0, pretend = 0, frame = 8
 1079              		@ frame_needed = 0, uses_anonymous_args = 0
 1080              		.loc 1 710 1 is_stmt 0 view .LVU340
 1081 0000 2DE9F043 		push	{r4, r5, r6, r7, r8, r9, lr}
 1082              	.LCFI14:
 1083              		.cfi_def_cfa_offset 28
 1084              		.cfi_offset 4, -28
 1085              		.cfi_offset 5, -24
 1086              		.cfi_offset 6, -20
 1087              		.cfi_offset 7, -16
 1088              		.cfi_offset 8, -12
 1089              		.cfi_offset 9, -8
 1090              		.cfi_offset 14, -4
 1091 0004 83B0     		sub	sp, sp, #12
 1092              	.LCFI15:
 1093              		.cfi_def_cfa_offset 40
 1094 0006 0446     		mov	r4, r0
 1095 0008 0D46     		mov	r5, r1
 1096 000a 1646     		mov	r6, r2
 1097 000c 1F46     		mov	r7, r3
 711:Drivers/lvgl/src/indev/lv_indev_scroll.c ****     *has_start_snap = true;
 1098              		.loc 1 711 5 is_stmt 1 view .LVU341
 1099              		.loc 1 711 21 is_stmt 0 view .LVU342
 1100 000e 0123     		movs	r3, #1
 1101              	.LVL101:
 1102              		.loc 1 711 21 view .LVU343
 1103 0010 1370     		strb	r3, [r2]
 712:Drivers/lvgl/src/indev/lv_indev_scroll.c ****     *has_end_snap = true;
 1104              		.loc 1 712 5 is_stmt 1 view .LVU344
 1105              		.loc 1 712 19 is_stmt 0 view .LVU345
 1106 0012 3B70     		strb	r3, [r7]
 713:Drivers/lvgl/src/indev/lv_indev_scroll.c ****     lv_scroll_snap_t snap;
 1107              		.loc 1 713 5 is_stmt 1 view .LVU346
 714:Drivers/lvgl/src/indev/lv_indev_scroll.c ****     snap = dir == LV_DIR_HOR ? lv_obj_get_scroll_snap_x(scroll_obj) : lv_obj_get_scroll_snap_y(scro
 1108              		.loc 1 714 5 view .LVU347
 1109              		.loc 1 714 69 is_stmt 0 view .LVU348
 1110 0014 0329     		cmp	r1, #3
 1111 0016 0DD0     		beq	.L72
 1112              		.loc 1 714 71 discriminator 2 view .LVU349
 1113 0018 FFF7FEFF 		bl	lv_obj_get_scroll_snap_y
 1114              	.LVL102:
 1115              	.L58:
 715:Drivers/lvgl/src/indev/lv_indev_scroll.c **** 
 716:Drivers/lvgl/src/indev/lv_indev_scroll.c ****     if(dir == LV_DIR_HOR) {
 1116              		.loc 1 716 5 is_stmt 1 view .LVU350
 1117              		.loc 1 716 7 is_stmt 0 view .LVU351
 1118 001c 032D     		cmp	r5, #3
 1119 001e 0CD0     		beq	.L73
 1120              	.LBB88:
 717:Drivers/lvgl/src/indev/lv_indev_scroll.c ****         int32_t x = 0;
 718:Drivers/lvgl/src/indev/lv_indev_scroll.c ****         switch(snap) {
 719:Drivers/lvgl/src/indev/lv_indev_scroll.c ****             case LV_SCROLL_SNAP_CENTER: {
 720:Drivers/lvgl/src/indev/lv_indev_scroll.c ****                     int32_t pad_left = lv_obj_get_style_pad_left(scroll_obj, LV_PART_MAIN);
 721:Drivers/lvgl/src/indev/lv_indev_scroll.c ****                     int32_t pad_right = lv_obj_get_style_pad_right(scroll_obj, LV_PART_MAIN);
 722:Drivers/lvgl/src/indev/lv_indev_scroll.c ****                     x = scroll_obj->coords.x1;
ARM GAS  /var/folders/qx/2_175_4n2s19vhvtspjhb3qh0000gn/T//ccspqae8.s 			page 41


 723:Drivers/lvgl/src/indev/lv_indev_scroll.c ****                     x += (lv_area_get_width(&scroll_obj->coords) - pad_left - pad_right) / 2;
 724:Drivers/lvgl/src/indev/lv_indev_scroll.c ****                     x += pad_left;
 725:Drivers/lvgl/src/indev/lv_indev_scroll.c ****                 }
 726:Drivers/lvgl/src/indev/lv_indev_scroll.c ****                 break;
 727:Drivers/lvgl/src/indev/lv_indev_scroll.c ****             case LV_SCROLL_SNAP_START:
 728:Drivers/lvgl/src/indev/lv_indev_scroll.c ****                 x = scroll_obj->coords.x1 + lv_obj_get_style_pad_left(scroll_obj, LV_PART_MAIN);
 729:Drivers/lvgl/src/indev/lv_indev_scroll.c ****                 break;
 730:Drivers/lvgl/src/indev/lv_indev_scroll.c ****             case LV_SCROLL_SNAP_END:
 731:Drivers/lvgl/src/indev/lv_indev_scroll.c ****                 x = scroll_obj->coords.x2 - lv_obj_get_style_pad_right(scroll_obj, LV_PART_MAIN);
 732:Drivers/lvgl/src/indev/lv_indev_scroll.c ****                 break;
 733:Drivers/lvgl/src/indev/lv_indev_scroll.c ****             default:
 734:Drivers/lvgl/src/indev/lv_indev_scroll.c ****                 break;
 735:Drivers/lvgl/src/indev/lv_indev_scroll.c ****         }
 736:Drivers/lvgl/src/indev/lv_indev_scroll.c ****         int32_t d;
 737:Drivers/lvgl/src/indev/lv_indev_scroll.c ****         d = find_snap_point_x(scroll_obj, x + 1, LV_COORD_MAX, 0);
 738:Drivers/lvgl/src/indev/lv_indev_scroll.c ****         if(d == LV_COORD_MAX) *has_end_snap = false;
 739:Drivers/lvgl/src/indev/lv_indev_scroll.c ****         d = find_snap_point_x(scroll_obj, LV_COORD_MIN, x - 1, 0);
 740:Drivers/lvgl/src/indev/lv_indev_scroll.c ****         if(d == LV_COORD_MAX) *has_start_snap = false;
 741:Drivers/lvgl/src/indev/lv_indev_scroll.c ****     }
 742:Drivers/lvgl/src/indev/lv_indev_scroll.c ****     else {
 743:Drivers/lvgl/src/indev/lv_indev_scroll.c ****         int32_t y = 0;
 1121              		.loc 1 743 9 is_stmt 1 view .LVU352
 1122              	.LVL103:
 744:Drivers/lvgl/src/indev/lv_indev_scroll.c ****         switch(snap) {
 1123              		.loc 1 744 9 view .LVU353
 1124 0020 0228     		cmp	r0, #2
 1125 0022 00F09880 		beq	.L66
 1126 0026 0328     		cmp	r0, #3
 1127 0028 58D0     		beq	.L67
 1128 002a 0128     		cmp	r0, #1
 1129 002c 00F08A80 		beq	.L68
 1130 0030 0025     		movs	r5, #0
 1131              	.LVL104:
 1132              		.loc 1 744 9 is_stmt 0 view .LVU354
 1133 0032 6FE0     		b	.L69
 1134              	.LVL105:
 1135              	.L72:
 1136              		.loc 1 744 9 view .LVU355
 1137              	.LBE88:
 714:Drivers/lvgl/src/indev/lv_indev_scroll.c **** 
 1138              		.loc 1 714 32 discriminator 1 view .LVU356
 1139 0034 FFF7FEFF 		bl	lv_obj_get_scroll_snap_x
 1140              	.LVL106:
 714:Drivers/lvgl/src/indev/lv_indev_scroll.c **** 
 1141              		.loc 1 714 32 discriminator 1 view .LVU357
 1142 0038 F0E7     		b	.L58
 1143              	.LVL107:
 1144              	.L73:
 1145              	.LBB98:
 717:Drivers/lvgl/src/indev/lv_indev_scroll.c ****         int32_t x = 0;
 1146              		.loc 1 717 9 is_stmt 1 view .LVU358
 718:Drivers/lvgl/src/indev/lv_indev_scroll.c ****             case LV_SCROLL_SNAP_CENTER: {
 1147              		.loc 1 718 9 view .LVU359
 1148 003a 0228     		cmp	r0, #2
 1149 003c 42D0     		beq	.L60
 1150 003e 0328     		cmp	r0, #3
 1151 0040 1AD0     		beq	.L61
ARM GAS  /var/folders/qx/2_175_4n2s19vhvtspjhb3qh0000gn/T//ccspqae8.s 			page 42


 1152 0042 0128     		cmp	r0, #1
 1153 0044 35D0     		beq	.L62
 1154 0046 0025     		movs	r5, #0
 1155              	.LVL108:
 1156              	.L63:
 736:Drivers/lvgl/src/indev/lv_indev_scroll.c ****         d = find_snap_point_x(scroll_obj, x + 1, LV_COORD_MAX, 0);
 1157              		.loc 1 736 9 view .LVU360
 737:Drivers/lvgl/src/indev/lv_indev_scroll.c ****         if(d == LV_COORD_MAX) *has_end_snap = false;
 1158              		.loc 1 737 9 view .LVU361
 737:Drivers/lvgl/src/indev/lv_indev_scroll.c ****         if(d == LV_COORD_MAX) *has_end_snap = false;
 1159              		.loc 1 737 13 is_stmt 0 view .LVU362
 1160 0048 0023     		movs	r3, #0
 1161 004a 6FF06042 		mvn	r2, #-536870912
 1162 004e 691C     		adds	r1, r5, #1
 1163 0050 2046     		mov	r0, r4
 1164 0052 FFF7FEFF 		bl	find_snap_point_x
 1165              	.LVL109:
 738:Drivers/lvgl/src/indev/lv_indev_scroll.c ****         d = find_snap_point_x(scroll_obj, LV_COORD_MIN, x - 1, 0);
 1166              		.loc 1 738 9 is_stmt 1 view .LVU363
 738:Drivers/lvgl/src/indev/lv_indev_scroll.c ****         d = find_snap_point_x(scroll_obj, LV_COORD_MIN, x - 1, 0);
 1167              		.loc 1 738 11 is_stmt 0 view .LVU364
 1168 0056 6FF06043 		mvn	r3, #-536870912
 1169 005a 9842     		cmp	r0, r3
 1170 005c 3BD0     		beq	.L74
 1171              	.L64:
 739:Drivers/lvgl/src/indev/lv_indev_scroll.c ****         if(d == LV_COORD_MAX) *has_start_snap = false;
 1172              		.loc 1 739 9 is_stmt 1 view .LVU365
 739:Drivers/lvgl/src/indev/lv_indev_scroll.c ****         if(d == LV_COORD_MAX) *has_start_snap = false;
 1173              		.loc 1 739 13 is_stmt 0 view .LVU366
 1174 005e 0023     		movs	r3, #0
 1175 0060 6A1E     		subs	r2, r5, #1
 1176 0062 4449     		ldr	r1, .L77
 1177 0064 2046     		mov	r0, r4
 1178              	.LVL110:
 739:Drivers/lvgl/src/indev/lv_indev_scroll.c ****         if(d == LV_COORD_MAX) *has_start_snap = false;
 1179              		.loc 1 739 13 view .LVU367
 1180 0066 FFF7FEFF 		bl	find_snap_point_x
 1181              	.LVL111:
 740:Drivers/lvgl/src/indev/lv_indev_scroll.c ****     }
 1182              		.loc 1 740 9 is_stmt 1 view .LVU368
 740:Drivers/lvgl/src/indev/lv_indev_scroll.c ****     }
 1183              		.loc 1 740 11 is_stmt 0 view .LVU369
 1184 006a 6FF06043 		mvn	r3, #-536870912
 1185 006e 9842     		cmp	r0, r3
 1186 0070 65D1     		bne	.L56
 740:Drivers/lvgl/src/indev/lv_indev_scroll.c ****     }
 1187              		.loc 1 740 31 is_stmt 1 discriminator 1 view .LVU370
 740:Drivers/lvgl/src/indev/lv_indev_scroll.c ****     }
 1188              		.loc 1 740 47 is_stmt 0 discriminator 1 view .LVU371
 1189 0072 0023     		movs	r3, #0
 1190 0074 3370     		strb	r3, [r6]
 1191 0076 62E0     		b	.L56
 1192              	.LVL112:
 1193              	.L61:
 1194              	.LBB99:
 720:Drivers/lvgl/src/indev/lv_indev_scroll.c ****                     int32_t pad_right = lv_obj_get_style_pad_right(scroll_obj, LV_PART_MAIN);
 1195              		.loc 1 720 21 is_stmt 1 view .LVU372
ARM GAS  /var/folders/qx/2_175_4n2s19vhvtspjhb3qh0000gn/T//ccspqae8.s 			page 43


 1196              	.LBB100:
 1197              	.LBI100:
 166:Drivers/lvgl/src/indev/../core/lv_obj_style_gen.h **** {
 1198              		.loc 2 166 23 view .LVU373
 1199              	.LBB101:
 168:Drivers/lvgl/src/indev/../core/lv_obj_style_gen.h ****     return (int32_t)v.num;
 1200              		.loc 2 168 5 view .LVU374
 168:Drivers/lvgl/src/indev/../core/lv_obj_style_gen.h ****     return (int32_t)v.num;
 1201              		.loc 2 168 26 is_stmt 0 view .LVU375
 1202 0078 1222     		movs	r2, #18
 1203 007a 0021     		movs	r1, #0
 1204 007c 2046     		mov	r0, r4
 1205              	.LVL113:
 168:Drivers/lvgl/src/indev/../core/lv_obj_style_gen.h ****     return (int32_t)v.num;
 1206              		.loc 2 168 26 view .LVU376
 1207 007e FFF7FEFF 		bl	lv_obj_get_style_prop
 1208              	.LVL114:
 1209 0082 8046     		mov	r8, r0
 1210 0084 0190     		str	r0, [sp, #4]
 169:Drivers/lvgl/src/indev/../core/lv_obj_style_gen.h **** }
 1211              		.loc 2 169 5 is_stmt 1 view .LVU377
 1212              	.LVL115:
 169:Drivers/lvgl/src/indev/../core/lv_obj_style_gen.h **** }
 1213              		.loc 2 169 5 is_stmt 0 view .LVU378
 1214              	.LBE101:
 1215              	.LBE100:
 721:Drivers/lvgl/src/indev/lv_indev_scroll.c ****                     x = scroll_obj->coords.x1;
 1216              		.loc 1 721 21 is_stmt 1 view .LVU379
 1217              	.LBB102:
 1218              	.LBI102:
 172:Drivers/lvgl/src/indev/../core/lv_obj_style_gen.h **** {
 1219              		.loc 2 172 23 view .LVU380
 1220              	.LBB103:
 174:Drivers/lvgl/src/indev/../core/lv_obj_style_gen.h ****     return (int32_t)v.num;
 1221              		.loc 2 174 5 view .LVU381
 174:Drivers/lvgl/src/indev/../core/lv_obj_style_gen.h ****     return (int32_t)v.num;
 1222              		.loc 2 174 26 is_stmt 0 view .LVU382
 1223 0086 1322     		movs	r2, #19
 1224 0088 0021     		movs	r1, #0
 1225 008a 2046     		mov	r0, r4
 1226              	.LVL116:
 174:Drivers/lvgl/src/indev/../core/lv_obj_style_gen.h ****     return (int32_t)v.num;
 1227              		.loc 2 174 26 view .LVU383
 1228 008c FFF7FEFF 		bl	lv_obj_get_style_prop
 1229              	.LVL117:
 1230 0090 8146     		mov	r9, r0
 1231 0092 0190     		str	r0, [sp, #4]
 1232              		.loc 2 175 5 is_stmt 1 view .LVU384
 1233              	.LVL118:
 1234              		.loc 2 175 5 is_stmt 0 view .LVU385
 1235              	.LBE103:
 1236              	.LBE102:
 722:Drivers/lvgl/src/indev/lv_indev_scroll.c ****                     x += (lv_area_get_width(&scroll_obj->coords) - pad_left - pad_right) / 2;
 1237              		.loc 1 722 21 is_stmt 1 view .LVU386
 722:Drivers/lvgl/src/indev/lv_indev_scroll.c ****                     x += (lv_area_get_width(&scroll_obj->coords) - pad_left - pad_right) / 2;
 1238              		.loc 1 722 23 is_stmt 0 view .LVU387
 1239 0094 2046     		mov	r0, r4
ARM GAS  /var/folders/qx/2_175_4n2s19vhvtspjhb3qh0000gn/T//ccspqae8.s 			page 44


 1240              	.LVL119:
 722:Drivers/lvgl/src/indev/lv_indev_scroll.c ****                     x += (lv_area_get_width(&scroll_obj->coords) - pad_left - pad_right) / 2;
 1241              		.loc 1 722 23 view .LVU388
 1242 0096 50F8145F 		ldr	r5, [r0, #20]!
 1243              	.LVL120:
 723:Drivers/lvgl/src/indev/lv_indev_scroll.c ****                     x += pad_left;
 1244              		.loc 1 723 21 is_stmt 1 view .LVU389
 723:Drivers/lvgl/src/indev/lv_indev_scroll.c ****                     x += pad_left;
 1245              		.loc 1 723 27 is_stmt 0 view .LVU390
 1246 009a FFF7FEFF 		bl	lv_area_get_width
 1247              	.LVL121:
 723:Drivers/lvgl/src/indev/lv_indev_scroll.c ****                     x += pad_left;
 1248              		.loc 1 723 66 discriminator 1 view .LVU391
 1249 009e A0EB0803 		sub	r3, r0, r8
 723:Drivers/lvgl/src/indev/lv_indev_scroll.c ****                     x += pad_left;
 1250              		.loc 1 723 77 discriminator 1 view .LVU392
 1251 00a2 A3EB0903 		sub	r3, r3, r9
 723:Drivers/lvgl/src/indev/lv_indev_scroll.c ****                     x += pad_left;
 1252              		.loc 1 723 90 discriminator 1 view .LVU393
 1253 00a6 03EBD373 		add	r3, r3, r3, lsr #31
 723:Drivers/lvgl/src/indev/lv_indev_scroll.c ****                     x += pad_left;
 1254              		.loc 1 723 23 discriminator 1 view .LVU394
 1255 00aa 05EB6305 		add	r5, r5, r3, asr #1
 1256              	.LVL122:
 724:Drivers/lvgl/src/indev/lv_indev_scroll.c ****                 }
 1257              		.loc 1 724 21 is_stmt 1 view .LVU395
 724:Drivers/lvgl/src/indev/lv_indev_scroll.c ****                 }
 1258              		.loc 1 724 23 is_stmt 0 view .LVU396
 1259 00ae 4544     		add	r5, r5, r8
 1260              	.LVL123:
 724:Drivers/lvgl/src/indev/lv_indev_scroll.c ****                 }
 1261              		.loc 1 724 23 view .LVU397
 1262              	.LBE99:
 726:Drivers/lvgl/src/indev/lv_indev_scroll.c ****             case LV_SCROLL_SNAP_START:
 1263              		.loc 1 726 17 is_stmt 1 view .LVU398
 1264 00b0 CAE7     		b	.L63
 1265              	.LVL124:
 1266              	.L62:
 728:Drivers/lvgl/src/indev/lv_indev_scroll.c ****                 break;
 1267              		.loc 1 728 17 view .LVU399
 728:Drivers/lvgl/src/indev/lv_indev_scroll.c ****                 break;
 1268              		.loc 1 728 39 is_stmt 0 view .LVU400
 1269 00b2 6569     		ldr	r5, [r4, #20]
 1270              	.LVL125:
 1271              	.LBB104:
 1272              	.LBI104:
 166:Drivers/lvgl/src/indev/../core/lv_obj_style_gen.h **** {
 1273              		.loc 2 166 23 is_stmt 1 view .LVU401
 1274              	.LBB105:
 168:Drivers/lvgl/src/indev/../core/lv_obj_style_gen.h ****     return (int32_t)v.num;
 1275              		.loc 2 168 5 view .LVU402
 168:Drivers/lvgl/src/indev/../core/lv_obj_style_gen.h ****     return (int32_t)v.num;
 1276              		.loc 2 168 26 is_stmt 0 view .LVU403
 1277 00b4 1222     		movs	r2, #18
 1278 00b6 0021     		movs	r1, #0
 1279 00b8 2046     		mov	r0, r4
 1280              	.LVL126:
ARM GAS  /var/folders/qx/2_175_4n2s19vhvtspjhb3qh0000gn/T//ccspqae8.s 			page 45


 168:Drivers/lvgl/src/indev/../core/lv_obj_style_gen.h ****     return (int32_t)v.num;
 1281              		.loc 2 168 26 view .LVU404
 1282 00ba FFF7FEFF 		bl	lv_obj_get_style_prop
 1283              	.LVL127:
 1284 00be 0190     		str	r0, [sp, #4]
 169:Drivers/lvgl/src/indev/../core/lv_obj_style_gen.h **** }
 1285              		.loc 2 169 5 is_stmt 1 view .LVU405
 1286              	.LVL128:
 169:Drivers/lvgl/src/indev/../core/lv_obj_style_gen.h **** }
 1287              		.loc 2 169 5 is_stmt 0 view .LVU406
 1288              	.LBE105:
 1289              	.LBE104:
 728:Drivers/lvgl/src/indev/lv_indev_scroll.c ****                 break;
 1290              		.loc 1 728 19 discriminator 1 view .LVU407
 1291 00c0 0544     		add	r5, r5, r0
 1292              	.LVL129:
 729:Drivers/lvgl/src/indev/lv_indev_scroll.c ****             case LV_SCROLL_SNAP_END:
 1293              		.loc 1 729 17 is_stmt 1 view .LVU408
 1294 00c2 C1E7     		b	.L63
 1295              	.LVL130:
 1296              	.L60:
 731:Drivers/lvgl/src/indev/lv_indev_scroll.c ****                 break;
 1297              		.loc 1 731 17 view .LVU409
 731:Drivers/lvgl/src/indev/lv_indev_scroll.c ****                 break;
 1298              		.loc 1 731 39 is_stmt 0 view .LVU410
 1299 00c4 E569     		ldr	r5, [r4, #28]
 1300              	.LVL131:
 1301              	.LBB106:
 1302              	.LBI106:
 172:Drivers/lvgl/src/indev/../core/lv_obj_style_gen.h **** {
 1303              		.loc 2 172 23 is_stmt 1 view .LVU411
 1304              	.LBB107:
 174:Drivers/lvgl/src/indev/../core/lv_obj_style_gen.h ****     return (int32_t)v.num;
 1305              		.loc 2 174 5 view .LVU412
 174:Drivers/lvgl/src/indev/../core/lv_obj_style_gen.h ****     return (int32_t)v.num;
 1306              		.loc 2 174 26 is_stmt 0 view .LVU413
 1307 00c6 1322     		movs	r2, #19
 1308 00c8 0021     		movs	r1, #0
 1309 00ca 2046     		mov	r0, r4
 1310              	.LVL132:
 174:Drivers/lvgl/src/indev/../core/lv_obj_style_gen.h ****     return (int32_t)v.num;
 1311              		.loc 2 174 26 view .LVU414
 1312 00cc FFF7FEFF 		bl	lv_obj_get_style_prop
 1313              	.LVL133:
 1314 00d0 0190     		str	r0, [sp, #4]
 1315              		.loc 2 175 5 is_stmt 1 view .LVU415
 1316              	.LVL134:
 1317              		.loc 2 175 5 is_stmt 0 view .LVU416
 1318              	.LBE107:
 1319              	.LBE106:
 731:Drivers/lvgl/src/indev/lv_indev_scroll.c ****                 break;
 1320              		.loc 1 731 19 discriminator 1 view .LVU417
 1321 00d2 2D1A     		subs	r5, r5, r0
 1322              	.LVL135:
 732:Drivers/lvgl/src/indev/lv_indev_scroll.c ****             default:
 1323              		.loc 1 732 17 is_stmt 1 view .LVU418
 1324 00d4 B8E7     		b	.L63
ARM GAS  /var/folders/qx/2_175_4n2s19vhvtspjhb3qh0000gn/T//ccspqae8.s 			page 46


 1325              	.LVL136:
 1326              	.L74:
 738:Drivers/lvgl/src/indev/lv_indev_scroll.c ****         d = find_snap_point_x(scroll_obj, LV_COORD_MIN, x - 1, 0);
 1327              		.loc 1 738 31 discriminator 1 view .LVU419
 738:Drivers/lvgl/src/indev/lv_indev_scroll.c ****         d = find_snap_point_x(scroll_obj, LV_COORD_MIN, x - 1, 0);
 1328              		.loc 1 738 45 is_stmt 0 discriminator 1 view .LVU420
 1329 00d6 0023     		movs	r3, #0
 1330 00d8 3B70     		strb	r3, [r7]
 1331 00da C0E7     		b	.L64
 1332              	.LVL137:
 1333              	.L67:
 738:Drivers/lvgl/src/indev/lv_indev_scroll.c ****         d = find_snap_point_x(scroll_obj, LV_COORD_MIN, x - 1, 0);
 1334              		.loc 1 738 45 discriminator 1 view .LVU421
 1335              	.LBE98:
 1336              	.LBB108:
 1337              	.LBB89:
 745:Drivers/lvgl/src/indev/lv_indev_scroll.c ****             case LV_SCROLL_SNAP_CENTER: {
 746:Drivers/lvgl/src/indev/lv_indev_scroll.c ****                     int32_t pad_top = lv_obj_get_style_pad_top(scroll_obj, LV_PART_MAIN);
 1338              		.loc 1 746 21 is_stmt 1 view .LVU422
 1339              	.LBB90:
 1340              	.LBI90:
 154:Drivers/lvgl/src/indev/../core/lv_obj_style_gen.h **** {
 1341              		.loc 2 154 23 view .LVU423
 1342              	.LBB91:
 156:Drivers/lvgl/src/indev/../core/lv_obj_style_gen.h ****     return (int32_t)v.num;
 1343              		.loc 2 156 5 view .LVU424
 156:Drivers/lvgl/src/indev/../core/lv_obj_style_gen.h ****     return (int32_t)v.num;
 1344              		.loc 2 156 26 is_stmt 0 view .LVU425
 1345 00dc 1022     		movs	r2, #16
 1346 00de 0021     		movs	r1, #0
 1347 00e0 2046     		mov	r0, r4
 1348              	.LVL138:
 156:Drivers/lvgl/src/indev/../core/lv_obj_style_gen.h ****     return (int32_t)v.num;
 1349              		.loc 2 156 26 view .LVU426
 1350 00e2 FFF7FEFF 		bl	lv_obj_get_style_prop
 1351              	.LVL139:
 1352 00e6 8046     		mov	r8, r0
 1353 00e8 0190     		str	r0, [sp, #4]
 157:Drivers/lvgl/src/indev/../core/lv_obj_style_gen.h **** }
 1354              		.loc 2 157 5 is_stmt 1 view .LVU427
 1355              	.LVL140:
 157:Drivers/lvgl/src/indev/../core/lv_obj_style_gen.h **** }
 1356              		.loc 2 157 5 is_stmt 0 view .LVU428
 1357              	.LBE91:
 1358              	.LBE90:
 747:Drivers/lvgl/src/indev/lv_indev_scroll.c ****                     int32_t pad_bottom = lv_obj_get_style_pad_bottom(scroll_obj, LV_PART_MAIN);
 1359              		.loc 1 747 21 is_stmt 1 view .LVU429
 1360              	.LBB92:
 1361              	.LBI92:
 160:Drivers/lvgl/src/indev/../core/lv_obj_style_gen.h **** {
 1362              		.loc 2 160 23 view .LVU430
 1363              	.LBB93:
 162:Drivers/lvgl/src/indev/../core/lv_obj_style_gen.h ****     return (int32_t)v.num;
 1364              		.loc 2 162 5 view .LVU431
 162:Drivers/lvgl/src/indev/../core/lv_obj_style_gen.h ****     return (int32_t)v.num;
 1365              		.loc 2 162 26 is_stmt 0 view .LVU432
 1366 00ea 1122     		movs	r2, #17
ARM GAS  /var/folders/qx/2_175_4n2s19vhvtspjhb3qh0000gn/T//ccspqae8.s 			page 47


 1367 00ec 0021     		movs	r1, #0
 1368 00ee 2046     		mov	r0, r4
 1369              	.LVL141:
 162:Drivers/lvgl/src/indev/../core/lv_obj_style_gen.h ****     return (int32_t)v.num;
 1370              		.loc 2 162 26 view .LVU433
 1371 00f0 FFF7FEFF 		bl	lv_obj_get_style_prop
 1372              	.LVL142:
 1373 00f4 8146     		mov	r9, r0
 1374 00f6 0190     		str	r0, [sp, #4]
 163:Drivers/lvgl/src/indev/../core/lv_obj_style_gen.h **** }
 1375              		.loc 2 163 5 is_stmt 1 view .LVU434
 1376              	.LVL143:
 163:Drivers/lvgl/src/indev/../core/lv_obj_style_gen.h **** }
 1377              		.loc 2 163 5 is_stmt 0 view .LVU435
 1378              	.LBE93:
 1379              	.LBE92:
 748:Drivers/lvgl/src/indev/lv_indev_scroll.c ****                     y = scroll_obj->coords.y1;
 1380              		.loc 1 748 21 is_stmt 1 view .LVU436
 1381              		.loc 1 748 23 is_stmt 0 view .LVU437
 1382 00f8 A569     		ldr	r5, [r4, #24]
 1383              	.LVL144:
 749:Drivers/lvgl/src/indev/lv_indev_scroll.c ****                     y += (lv_area_get_height(&scroll_obj->coords) - pad_top - pad_bottom) / 2;
 1384              		.loc 1 749 21 is_stmt 1 view .LVU438
 1385              		.loc 1 749 27 is_stmt 0 view .LVU439
 1386 00fa 04F11400 		add	r0, r4, #20
 1387              	.LVL145:
 1388              		.loc 1 749 27 view .LVU440
 1389 00fe FFF7FEFF 		bl	lv_area_get_height
 1390              	.LVL146:
 1391              		.loc 1 749 67 discriminator 1 view .LVU441
 1392 0102 A0EB0803 		sub	r3, r0, r8
 1393              		.loc 1 749 77 discriminator 1 view .LVU442
 1394 0106 A3EB0903 		sub	r3, r3, r9
 1395              		.loc 1 749 91 discriminator 1 view .LVU443
 1396 010a 03EBD373 		add	r3, r3, r3, lsr #31
 1397              		.loc 1 749 23 discriminator 1 view .LVU444
 1398 010e 05EB6305 		add	r5, r5, r3, asr #1
 1399              	.LVL147:
 750:Drivers/lvgl/src/indev/lv_indev_scroll.c ****                     y += pad_top;
 1400              		.loc 1 750 21 is_stmt 1 view .LVU445
 1401              		.loc 1 750 23 is_stmt 0 view .LVU446
 1402 0112 4544     		add	r5, r5, r8
 1403              	.LVL148:
 1404              		.loc 1 750 23 view .LVU447
 1405              	.LBE89:
 751:Drivers/lvgl/src/indev/lv_indev_scroll.c ****                 }
 752:Drivers/lvgl/src/indev/lv_indev_scroll.c ****                 break;
 1406              		.loc 1 752 17 is_stmt 1 view .LVU448
 1407              	.L69:
 753:Drivers/lvgl/src/indev/lv_indev_scroll.c ****             case LV_SCROLL_SNAP_START:
 754:Drivers/lvgl/src/indev/lv_indev_scroll.c ****                 y = scroll_obj->coords.y1 + lv_obj_get_style_pad_top(scroll_obj, LV_PART_MAIN);
 755:Drivers/lvgl/src/indev/lv_indev_scroll.c ****                 break;
 756:Drivers/lvgl/src/indev/lv_indev_scroll.c ****             case LV_SCROLL_SNAP_END:
 757:Drivers/lvgl/src/indev/lv_indev_scroll.c ****                 y = scroll_obj->coords.y2 - lv_obj_get_style_pad_bottom(scroll_obj, LV_PART_MAIN);
 758:Drivers/lvgl/src/indev/lv_indev_scroll.c ****                 break;
 759:Drivers/lvgl/src/indev/lv_indev_scroll.c ****             default:
 760:Drivers/lvgl/src/indev/lv_indev_scroll.c ****                 break;
ARM GAS  /var/folders/qx/2_175_4n2s19vhvtspjhb3qh0000gn/T//ccspqae8.s 			page 48


 761:Drivers/lvgl/src/indev/lv_indev_scroll.c ****         }
 762:Drivers/lvgl/src/indev/lv_indev_scroll.c ****         int32_t d;
 1408              		.loc 1 762 9 view .LVU449
 763:Drivers/lvgl/src/indev/lv_indev_scroll.c ****         d = find_snap_point_y(scroll_obj, y + 1, LV_COORD_MAX, 0);
 1409              		.loc 1 763 9 view .LVU450
 1410              		.loc 1 763 13 is_stmt 0 view .LVU451
 1411 0114 0023     		movs	r3, #0
 1412 0116 6FF06042 		mvn	r2, #-536870912
 1413 011a 691C     		adds	r1, r5, #1
 1414 011c 2046     		mov	r0, r4
 1415 011e FFF7FEFF 		bl	find_snap_point_y
 1416              	.LVL149:
 764:Drivers/lvgl/src/indev/lv_indev_scroll.c ****         if(d == LV_COORD_MAX) *has_end_snap = false;
 1417              		.loc 1 764 9 is_stmt 1 view .LVU452
 1418              		.loc 1 764 11 is_stmt 0 view .LVU453
 1419 0122 6FF06043 		mvn	r3, #-536870912
 1420 0126 9842     		cmp	r0, r3
 1421 0128 1ED0     		beq	.L75
 1422              	.L70:
 765:Drivers/lvgl/src/indev/lv_indev_scroll.c ****         d = find_snap_point_y(scroll_obj, LV_COORD_MIN, y - 1, 0);
 1423              		.loc 1 765 9 is_stmt 1 view .LVU454
 1424              		.loc 1 765 13 is_stmt 0 view .LVU455
 1425 012a 0023     		movs	r3, #0
 1426 012c 6A1E     		subs	r2, r5, #1
 1427 012e 1149     		ldr	r1, .L77
 1428 0130 2046     		mov	r0, r4
 1429              	.LVL150:
 1430              		.loc 1 765 13 view .LVU456
 1431 0132 FFF7FEFF 		bl	find_snap_point_y
 1432              	.LVL151:
 766:Drivers/lvgl/src/indev/lv_indev_scroll.c ****         if(d == LV_COORD_MAX) *has_start_snap = false;
 1433              		.loc 1 766 9 is_stmt 1 view .LVU457
 1434              		.loc 1 766 11 is_stmt 0 view .LVU458
 1435 0136 6FF06043 		mvn	r3, #-536870912
 1436 013a 9842     		cmp	r0, r3
 1437 013c 17D0     		beq	.L76
 1438              	.LVL152:
 1439              	.L56:
 1440              		.loc 1 766 11 view .LVU459
 1441              	.LBE108:
 767:Drivers/lvgl/src/indev/lv_indev_scroll.c ****     }
 768:Drivers/lvgl/src/indev/lv_indev_scroll.c **** }
 1442              		.loc 1 768 1 view .LVU460
 1443 013e 03B0     		add	sp, sp, #12
 1444              	.LCFI16:
 1445              		.cfi_remember_state
 1446              		.cfi_def_cfa_offset 28
 1447              		@ sp needed
 1448 0140 BDE8F083 		pop	{r4, r5, r6, r7, r8, r9, pc}
 1449              	.LVL153:
 1450              	.L68:
 1451              	.LCFI17:
 1452              		.cfi_restore_state
 1453              	.LBB109:
 754:Drivers/lvgl/src/indev/lv_indev_scroll.c ****                 break;
 1454              		.loc 1 754 17 is_stmt 1 view .LVU461
 754:Drivers/lvgl/src/indev/lv_indev_scroll.c ****                 break;
ARM GAS  /var/folders/qx/2_175_4n2s19vhvtspjhb3qh0000gn/T//ccspqae8.s 			page 49


 1455              		.loc 1 754 39 is_stmt 0 view .LVU462
 1456 0144 A569     		ldr	r5, [r4, #24]
 1457              	.LVL154:
 1458              	.LBB94:
 1459              	.LBI94:
 154:Drivers/lvgl/src/indev/../core/lv_obj_style_gen.h **** {
 1460              		.loc 2 154 23 is_stmt 1 view .LVU463
 1461              	.LBB95:
 156:Drivers/lvgl/src/indev/../core/lv_obj_style_gen.h ****     return (int32_t)v.num;
 1462              		.loc 2 156 5 view .LVU464
 156:Drivers/lvgl/src/indev/../core/lv_obj_style_gen.h ****     return (int32_t)v.num;
 1463              		.loc 2 156 26 is_stmt 0 view .LVU465
 1464 0146 1022     		movs	r2, #16
 1465 0148 0021     		movs	r1, #0
 1466 014a 2046     		mov	r0, r4
 1467              	.LVL155:
 156:Drivers/lvgl/src/indev/../core/lv_obj_style_gen.h ****     return (int32_t)v.num;
 1468              		.loc 2 156 26 view .LVU466
 1469 014c FFF7FEFF 		bl	lv_obj_get_style_prop
 1470              	.LVL156:
 1471 0150 0190     		str	r0, [sp, #4]
 157:Drivers/lvgl/src/indev/../core/lv_obj_style_gen.h **** }
 1472              		.loc 2 157 5 is_stmt 1 view .LVU467
 1473              	.LVL157:
 157:Drivers/lvgl/src/indev/../core/lv_obj_style_gen.h **** }
 1474              		.loc 2 157 5 is_stmt 0 view .LVU468
 1475              	.LBE95:
 1476              	.LBE94:
 754:Drivers/lvgl/src/indev/lv_indev_scroll.c ****                 break;
 1477              		.loc 1 754 19 discriminator 1 view .LVU469
 1478 0152 0544     		add	r5, r5, r0
 1479              	.LVL158:
 755:Drivers/lvgl/src/indev/lv_indev_scroll.c ****             case LV_SCROLL_SNAP_END:
 1480              		.loc 1 755 17 is_stmt 1 view .LVU470
 1481 0154 DEE7     		b	.L69
 1482              	.LVL159:
 1483              	.L66:
 757:Drivers/lvgl/src/indev/lv_indev_scroll.c ****                 break;
 1484              		.loc 1 757 17 view .LVU471
 757:Drivers/lvgl/src/indev/lv_indev_scroll.c ****                 break;
 1485              		.loc 1 757 39 is_stmt 0 view .LVU472
 1486 0156 256A     		ldr	r5, [r4, #32]
 1487              	.LVL160:
 1488              	.LBB96:
 1489              	.LBI96:
 160:Drivers/lvgl/src/indev/../core/lv_obj_style_gen.h **** {
 1490              		.loc 2 160 23 is_stmt 1 view .LVU473
 1491              	.LBB97:
 162:Drivers/lvgl/src/indev/../core/lv_obj_style_gen.h ****     return (int32_t)v.num;
 1492              		.loc 2 162 5 view .LVU474
 162:Drivers/lvgl/src/indev/../core/lv_obj_style_gen.h ****     return (int32_t)v.num;
 1493              		.loc 2 162 26 is_stmt 0 view .LVU475
 1494 0158 1122     		movs	r2, #17
 1495 015a 0021     		movs	r1, #0
 1496 015c 2046     		mov	r0, r4
 1497              	.LVL161:
 162:Drivers/lvgl/src/indev/../core/lv_obj_style_gen.h ****     return (int32_t)v.num;
ARM GAS  /var/folders/qx/2_175_4n2s19vhvtspjhb3qh0000gn/T//ccspqae8.s 			page 50


 1498              		.loc 2 162 26 view .LVU476
 1499 015e FFF7FEFF 		bl	lv_obj_get_style_prop
 1500              	.LVL162:
 1501 0162 0190     		str	r0, [sp, #4]
 163:Drivers/lvgl/src/indev/../core/lv_obj_style_gen.h **** }
 1502              		.loc 2 163 5 is_stmt 1 view .LVU477
 1503              	.LVL163:
 163:Drivers/lvgl/src/indev/../core/lv_obj_style_gen.h **** }
 1504              		.loc 2 163 5 is_stmt 0 view .LVU478
 1505              	.LBE97:
 1506              	.LBE96:
 757:Drivers/lvgl/src/indev/lv_indev_scroll.c ****                 break;
 1507              		.loc 1 757 19 discriminator 1 view .LVU479
 1508 0164 2D1A     		subs	r5, r5, r0
 1509              	.LVL164:
 758:Drivers/lvgl/src/indev/lv_indev_scroll.c ****             default:
 1510              		.loc 1 758 17 is_stmt 1 view .LVU480
 1511 0166 D5E7     		b	.L69
 1512              	.LVL165:
 1513              	.L75:
 764:Drivers/lvgl/src/indev/lv_indev_scroll.c ****         d = find_snap_point_y(scroll_obj, LV_COORD_MIN, y - 1, 0);
 1514              		.loc 1 764 31 discriminator 1 view .LVU481
 764:Drivers/lvgl/src/indev/lv_indev_scroll.c ****         d = find_snap_point_y(scroll_obj, LV_COORD_MIN, y - 1, 0);
 1515              		.loc 1 764 45 is_stmt 0 discriminator 1 view .LVU482
 1516 0168 0023     		movs	r3, #0
 1517 016a 3B70     		strb	r3, [r7]
 1518 016c DDE7     		b	.L70
 1519              	.L76:
 766:Drivers/lvgl/src/indev/lv_indev_scroll.c ****     }
 1520              		.loc 1 766 31 is_stmt 1 discriminator 1 view .LVU483
 766:Drivers/lvgl/src/indev/lv_indev_scroll.c ****     }
 1521              		.loc 1 766 47 is_stmt 0 discriminator 1 view .LVU484
 1522 016e 0023     		movs	r3, #0
 1523 0170 3370     		strb	r3, [r6]
 1524              	.LBE109:
 1525              		.loc 1 768 1 view .LVU485
 1526 0172 E4E7     		b	.L56
 1527              	.L78:
 1528              		.align	2
 1529              	.L77:
 1530 0174 010000E0 		.word	-536870911
 1531              		.cfi_endproc
 1532              	.LFE191:
 1534              		.section	.text.elastic_diff,"ax",%progbits
 1535              		.align	1
 1536              		.syntax unified
 1537              		.thumb
 1538              		.thumb_func
 1540              	elastic_diff:
 1541              	.LVL166:
 1542              	.LFB190:
 643:Drivers/lvgl/src/indev/lv_indev_scroll.c ****     if(diff == 0) return 0;
 1543              		.loc 1 643 1 is_stmt 1 view -0
 1544              		.cfi_startproc
 1545              		@ args = 4, pretend = 0, frame = 8
 1546              		@ frame_needed = 0, uses_anonymous_args = 0
 643:Drivers/lvgl/src/indev/lv_indev_scroll.c ****     if(diff == 0) return 0;
ARM GAS  /var/folders/qx/2_175_4n2s19vhvtspjhb3qh0000gn/T//ccspqae8.s 			page 51


 1547              		.loc 1 643 1 is_stmt 0 view .LVU487
 1548 0000 2DE9F041 		push	{r4, r5, r6, r7, r8, lr}
 1549              	.LCFI18:
 1550              		.cfi_def_cfa_offset 24
 1551              		.cfi_offset 4, -24
 1552              		.cfi_offset 5, -20
 1553              		.cfi_offset 6, -16
 1554              		.cfi_offset 7, -12
 1555              		.cfi_offset 8, -8
 1556              		.cfi_offset 14, -4
 1557 0004 82B0     		sub	sp, sp, #8
 1558              	.LCFI19:
 1559              		.cfi_def_cfa_offset 32
 1560 0006 9DF82080 		ldrb	r8, [sp, #32]	@ zero_extendqisi2
 644:Drivers/lvgl/src/indev/lv_indev_scroll.c **** 
 1561              		.loc 1 644 5 is_stmt 1 view .LVU488
 644:Drivers/lvgl/src/indev/lv_indev_scroll.c **** 
 1562              		.loc 1 644 7 is_stmt 0 view .LVU489
 1563 000a 0C46     		mov	r4, r1
 1564 000c 19B9     		cbnz	r1, .L98
 1565              	.LVL167:
 1566              	.L80:
 695:Drivers/lvgl/src/indev/lv_indev_scroll.c **** 
 1567              		.loc 1 695 1 view .LVU490
 1568 000e 2046     		mov	r0, r4
 1569 0010 02B0     		add	sp, sp, #8
 1570              	.LCFI20:
 1571              		.cfi_remember_state
 1572              		.cfi_def_cfa_offset 24
 1573              		@ sp needed
 1574 0012 BDE8F081 		pop	{r4, r5, r6, r7, r8, pc}
 1575              	.LVL168:
 1576              	.L98:
 1577              	.LCFI21:
 1578              		.cfi_restore_state
 695:Drivers/lvgl/src/indev/lv_indev_scroll.c **** 
 1579              		.loc 1 695 1 view .LVU491
 1580 0016 0746     		mov	r7, r0
 1581 0018 1646     		mov	r6, r2
 1582 001a 1D46     		mov	r5, r3
 647:Drivers/lvgl/src/indev/lv_indev_scroll.c ****         /*
 1583              		.loc 1 647 5 is_stmt 1 view .LVU492
 647:Drivers/lvgl/src/indev/lv_indev_scroll.c ****         /*
 1584              		.loc 1 647 9 is_stmt 0 view .LVU493
 1585 001c 2021     		movs	r1, #32
 1586              	.LVL169:
 647:Drivers/lvgl/src/indev/lv_indev_scroll.c ****         /*
 1587              		.loc 1 647 9 view .LVU494
 1588 001e FFF7FEFF 		bl	lv_obj_has_flag
 1589              	.LVL170:
 647:Drivers/lvgl/src/indev/lv_indev_scroll.c ****         /*
 1590              		.loc 1 647 7 discriminator 1 view .LVU495
 1591 0022 48B9     		cbnz	r0, .L81
 1592              	.LBB110:
 654:Drivers/lvgl/src/indev/lv_indev_scroll.c ****         if(scroll_ended <= 0) diff = 0;
 1593              		.loc 1 654 9 is_stmt 1 view .LVU496
 654:Drivers/lvgl/src/indev/lv_indev_scroll.c ****         if(scroll_ended <= 0) diff = 0;
ARM GAS  /var/folders/qx/2_175_4n2s19vhvtspjhb3qh0000gn/T//ccspqae8.s 			page 52


 1594              		.loc 1 654 62 is_stmt 0 view .LVU497
 1595 0024 002C     		cmp	r4, #0
 1596 0026 00DD     		ble	.L82
 654:Drivers/lvgl/src/indev/lv_indev_scroll.c ****         if(scroll_ended <= 0) diff = 0;
 1597              		.loc 1 654 62 discriminator 1 view .LVU498
 1598 0028 3546     		mov	r5, r6
 1599              	.LVL171:
 1600              	.L82:
 655:Drivers/lvgl/src/indev/lv_indev_scroll.c ****         else if(scroll_ended - diff < 0) diff = scroll_ended;
 1601              		.loc 1 655 9 is_stmt 1 view .LVU499
 655:Drivers/lvgl/src/indev/lv_indev_scroll.c ****         else if(scroll_ended - diff < 0) diff = scroll_ended;
 1602              		.loc 1 655 11 is_stmt 0 view .LVU500
 1603 002a 002D     		cmp	r5, #0
 1604 002c 3EDD     		ble	.L95
 656:Drivers/lvgl/src/indev/lv_indev_scroll.c ****     }
 1605              		.loc 1 656 14 is_stmt 1 view .LVU501
 656:Drivers/lvgl/src/indev/lv_indev_scroll.c ****     }
 1606              		.loc 1 656 30 is_stmt 0 view .LVU502
 1607 002e 2B1B     		subs	r3, r5, r4
 656:Drivers/lvgl/src/indev/lv_indev_scroll.c ****     }
 1608              		.loc 1 656 16 view .LVU503
 1609 0030 002B     		cmp	r3, #0
 1610 0032 ECDA     		bge	.L80
 656:Drivers/lvgl/src/indev/lv_indev_scroll.c ****     }
 1611              		.loc 1 656 47 discriminator 1 view .LVU504
 1612 0034 2C46     		mov	r4, r5
 1613              	.LVL172:
 656:Drivers/lvgl/src/indev/lv_indev_scroll.c ****     }
 1614              		.loc 1 656 47 discriminator 1 view .LVU505
 1615 0036 EAE7     		b	.L80
 1616              	.LVL173:
 1617              	.L81:
 656:Drivers/lvgl/src/indev/lv_indev_scroll.c ****     }
 1618              		.loc 1 656 47 discriminator 1 view .LVU506
 1619              	.LBE110:
 1620              	.LBB111:
 661:Drivers/lvgl/src/indev/lv_indev_scroll.c ****         snap = dir == LV_DIR_HOR ? lv_obj_get_scroll_snap_x(scroll_obj) : lv_obj_get_scroll_snap_y(
 1621              		.loc 1 661 9 is_stmt 1 view .LVU507
 662:Drivers/lvgl/src/indev/lv_indev_scroll.c **** 
 1622              		.loc 1 662 9 view .LVU508
 662:Drivers/lvgl/src/indev/lv_indev_scroll.c **** 
 1623              		.loc 1 662 73 is_stmt 0 view .LVU509
 1624 0038 B8F1030F 		cmp	r8, #3
 1625 003c 0DD0     		beq	.L99
 662:Drivers/lvgl/src/indev/lv_indev_scroll.c **** 
 1626              		.loc 1 662 75 discriminator 2 view .LVU510
 1627 003e 3846     		mov	r0, r7
 1628 0040 FFF7FEFF 		bl	lv_obj_get_scroll_snap_y
 1629              	.LVL174:
 1630              	.L84:
 665:Drivers/lvgl/src/indev/lv_indev_scroll.c ****             if(scroll_end < 0 || scroll_start < 0) {
 1631              		.loc 1 665 9 is_stmt 1 view .LVU511
 665:Drivers/lvgl/src/indev/lv_indev_scroll.c ****             if(scroll_end < 0 || scroll_start < 0) {
 1632              		.loc 1 665 11 is_stmt 0 view .LVU512
 1633 0044 A8B9     		cbnz	r0, .L85
 666:Drivers/lvgl/src/indev/lv_indev_scroll.c ****                 /*Rounding*/
 1634              		.loc 1 666 13 is_stmt 1 view .LVU513
ARM GAS  /var/folders/qx/2_175_4n2s19vhvtspjhb3qh0000gn/T//ccspqae8.s 			page 53


 666:Drivers/lvgl/src/indev/lv_indev_scroll.c ****                 /*Rounding*/
 1635              		.loc 1 666 15 is_stmt 0 view .LVU514
 1636 0046 002D     		cmp	r5, #0
 1637 0048 01DB     		blt	.L86
 666:Drivers/lvgl/src/indev/lv_indev_scroll.c ****                 /*Rounding*/
 1638              		.loc 1 666 31 discriminator 1 view .LVU515
 1639 004a 002E     		cmp	r6, #0
 1640 004c DFDA     		bge	.L80
 1641              	.L86:
 668:Drivers/lvgl/src/indev/lv_indev_scroll.c ****                 if(diff > 0) diff += ELASTIC_SLOWNESS_FACTOR / 2;
 1642              		.loc 1 668 17 is_stmt 1 view .LVU516
 668:Drivers/lvgl/src/indev/lv_indev_scroll.c ****                 if(diff > 0) diff += ELASTIC_SLOWNESS_FACTOR / 2;
 1643              		.loc 1 668 19 is_stmt 0 view .LVU517
 1644 004e 002C     		cmp	r4, #0
 1645 0050 07DB     		blt	.L100
 669:Drivers/lvgl/src/indev/lv_indev_scroll.c ****                 return diff / ELASTIC_SLOWNESS_FACTOR;
 1646              		.loc 1 669 17 is_stmt 1 view .LVU518
 669:Drivers/lvgl/src/indev/lv_indev_scroll.c ****                 return diff / ELASTIC_SLOWNESS_FACTOR;
 1647              		.loc 1 669 19 is_stmt 0 view .LVU519
 1648 0052 002C     		cmp	r4, #0
 1649 0054 06DD     		ble	.L89
 669:Drivers/lvgl/src/indev/lv_indev_scroll.c ****                 return diff / ELASTIC_SLOWNESS_FACTOR;
 1650              		.loc 1 669 30 is_stmt 1 discriminator 1 view .LVU520
 669:Drivers/lvgl/src/indev/lv_indev_scroll.c ****                 return diff / ELASTIC_SLOWNESS_FACTOR;
 1651              		.loc 1 669 35 is_stmt 0 discriminator 1 view .LVU521
 1652 0056 0234     		adds	r4, r4, #2
 1653              	.LVL175:
 669:Drivers/lvgl/src/indev/lv_indev_scroll.c ****                 return diff / ELASTIC_SLOWNESS_FACTOR;
 1654              		.loc 1 669 35 discriminator 1 view .LVU522
 1655 0058 04E0     		b	.L89
 1656              	.LVL176:
 1657              	.L99:
 662:Drivers/lvgl/src/indev/lv_indev_scroll.c **** 
 1658              		.loc 1 662 36 discriminator 1 view .LVU523
 1659 005a 3846     		mov	r0, r7
 1660 005c FFF7FEFF 		bl	lv_obj_get_scroll_snap_x
 1661              	.LVL177:
 1662 0060 F0E7     		b	.L84
 1663              	.LVL178:
 1664              	.L100:
 668:Drivers/lvgl/src/indev/lv_indev_scroll.c ****                 if(diff > 0) diff += ELASTIC_SLOWNESS_FACTOR / 2;
 1665              		.loc 1 668 30 is_stmt 1 discriminator 1 view .LVU524
 668:Drivers/lvgl/src/indev/lv_indev_scroll.c ****                 if(diff > 0) diff += ELASTIC_SLOWNESS_FACTOR / 2;
 1666              		.loc 1 668 35 is_stmt 0 discriminator 1 view .LVU525
 1667 0062 023C     		subs	r4, r4, #2
 1668              	.LVL179:
 669:Drivers/lvgl/src/indev/lv_indev_scroll.c ****                 return diff / ELASTIC_SLOWNESS_FACTOR;
 1669              		.loc 1 669 17 is_stmt 1 view .LVU526
 1670              	.L89:
 670:Drivers/lvgl/src/indev/lv_indev_scroll.c ****             }
 1671              		.loc 1 670 17 view .LVU527
 670:Drivers/lvgl/src/indev/lv_indev_scroll.c ****             }
 1672              		.loc 1 670 29 is_stmt 0 view .LVU528
 1673 0064 2346     		mov	r3, r4
 1674 0066 002C     		cmp	r4, #0
 1675 0068 01DB     		blt	.L101
 1676              	.L90:
ARM GAS  /var/folders/qx/2_175_4n2s19vhvtspjhb3qh0000gn/T//ccspqae8.s 			page 54


 670:Drivers/lvgl/src/indev/lv_indev_scroll.c ****             }
 1677              		.loc 1 670 29 view .LVU529
 1678 006a 9C10     		asrs	r4, r3, #2
 1679              	.LVL180:
 670:Drivers/lvgl/src/indev/lv_indev_scroll.c ****             }
 1680              		.loc 1 670 29 view .LVU530
 1681 006c CFE7     		b	.L80
 1682              	.LVL181:
 1683              	.L101:
 670:Drivers/lvgl/src/indev/lv_indev_scroll.c ****             }
 1684              		.loc 1 670 29 view .LVU531
 1685 006e E31C     		adds	r3, r4, #3
 1686              	.LVL182:
 670:Drivers/lvgl/src/indev/lv_indev_scroll.c ****             }
 1687              		.loc 1 670 29 view .LVU532
 1688 0070 FBE7     		b	.L90
 1689              	.L85:
 679:Drivers/lvgl/src/indev/lv_indev_scroll.c ****         bool has_end_snap;
 1690              		.loc 1 679 9 is_stmt 1 view .LVU533
 680:Drivers/lvgl/src/indev/lv_indev_scroll.c ****         has_more_snap_points(scroll_obj, dir, &has_start_snap, &has_end_snap);
 1691              		.loc 1 680 9 view .LVU534
 681:Drivers/lvgl/src/indev/lv_indev_scroll.c **** 
 1692              		.loc 1 681 9 view .LVU535
 1693 0072 0DF10703 		add	r3, sp, #7
 1694 0076 0DF10602 		add	r2, sp, #6
 1695 007a 4146     		mov	r1, r8
 1696 007c 3846     		mov	r0, r7
 1697              	.LVL183:
 681:Drivers/lvgl/src/indev/lv_indev_scroll.c **** 
 1698              		.loc 1 681 9 is_stmt 0 view .LVU536
 1699 007e FFF7FEFF 		bl	has_more_snap_points
 1700              	.LVL184:
 683:Drivers/lvgl/src/indev/lv_indev_scroll.c ****             /*Rounding*/
 1701              		.loc 1 683 9 is_stmt 1 view .LVU537
 683:Drivers/lvgl/src/indev/lv_indev_scroll.c ****             /*Rounding*/
 1702              		.loc 1 683 12 is_stmt 0 view .LVU538
 1703 0082 9DF80630 		ldrb	r3, [sp, #6]	@ zero_extendqisi2
 683:Drivers/lvgl/src/indev/lv_indev_scroll.c ****             /*Rounding*/
 1704              		.loc 1 683 11 view .LVU539
 1705 0086 1BB1     		cbz	r3, .L91
 683:Drivers/lvgl/src/indev/lv_indev_scroll.c ****             /*Rounding*/
 1706              		.loc 1 683 31 discriminator 1 view .LVU540
 1707 0088 9DF80730 		ldrb	r3, [sp, #7]	@ zero_extendqisi2
 683:Drivers/lvgl/src/indev/lv_indev_scroll.c ****             /*Rounding*/
 1708              		.loc 1 683 28 discriminator 1 view .LVU541
 1709 008c 002B     		cmp	r3, #0
 1710 008e BED1     		bne	.L80
 1711              	.L91:
 685:Drivers/lvgl/src/indev/lv_indev_scroll.c ****             if(diff > 0) diff += ELASTIC_SLOWNESS_FACTOR / 2;
 1712              		.loc 1 685 13 is_stmt 1 view .LVU542
 685:Drivers/lvgl/src/indev/lv_indev_scroll.c ****             if(diff > 0) diff += ELASTIC_SLOWNESS_FACTOR / 2;
 1713              		.loc 1 685 15 is_stmt 0 view .LVU543
 1714 0090 002C     		cmp	r4, #0
 1715 0092 03DB     		blt	.L102
 686:Drivers/lvgl/src/indev/lv_indev_scroll.c ****             return diff / ELASTIC_SLOWNESS_FACTOR;
 1716              		.loc 1 686 13 is_stmt 1 view .LVU544
 686:Drivers/lvgl/src/indev/lv_indev_scroll.c ****             return diff / ELASTIC_SLOWNESS_FACTOR;
ARM GAS  /var/folders/qx/2_175_4n2s19vhvtspjhb3qh0000gn/T//ccspqae8.s 			page 55


 1717              		.loc 1 686 15 is_stmt 0 view .LVU545
 1718 0094 002C     		cmp	r4, #0
 1719 0096 02DD     		ble	.L93
 686:Drivers/lvgl/src/indev/lv_indev_scroll.c ****             return diff / ELASTIC_SLOWNESS_FACTOR;
 1720              		.loc 1 686 26 is_stmt 1 discriminator 1 view .LVU546
 686:Drivers/lvgl/src/indev/lv_indev_scroll.c ****             return diff / ELASTIC_SLOWNESS_FACTOR;
 1721              		.loc 1 686 31 is_stmt 0 discriminator 1 view .LVU547
 1722 0098 0234     		adds	r4, r4, #2
 1723              	.LVL185:
 686:Drivers/lvgl/src/indev/lv_indev_scroll.c ****             return diff / ELASTIC_SLOWNESS_FACTOR;
 1724              		.loc 1 686 31 discriminator 1 view .LVU548
 1725 009a 00E0     		b	.L93
 1726              	.LVL186:
 1727              	.L102:
 685:Drivers/lvgl/src/indev/lv_indev_scroll.c ****             if(diff > 0) diff += ELASTIC_SLOWNESS_FACTOR / 2;
 1728              		.loc 1 685 26 is_stmt 1 discriminator 1 view .LVU549
 685:Drivers/lvgl/src/indev/lv_indev_scroll.c ****             if(diff > 0) diff += ELASTIC_SLOWNESS_FACTOR / 2;
 1729              		.loc 1 685 31 is_stmt 0 discriminator 1 view .LVU550
 1730 009c 023C     		subs	r4, r4, #2
 1731              	.LVL187:
 686:Drivers/lvgl/src/indev/lv_indev_scroll.c ****             return diff / ELASTIC_SLOWNESS_FACTOR;
 1732              		.loc 1 686 13 is_stmt 1 view .LVU551
 1733              	.L93:
 687:Drivers/lvgl/src/indev/lv_indev_scroll.c ****         }
 1734              		.loc 1 687 13 view .LVU552
 687:Drivers/lvgl/src/indev/lv_indev_scroll.c ****         }
 1735              		.loc 1 687 25 is_stmt 0 view .LVU553
 1736 009e 2346     		mov	r3, r4
 1737 00a0 002C     		cmp	r4, #0
 1738 00a2 01DB     		blt	.L103
 1739              	.L94:
 687:Drivers/lvgl/src/indev/lv_indev_scroll.c ****         }
 1740              		.loc 1 687 25 view .LVU554
 1741 00a4 9C10     		asrs	r4, r3, #2
 1742              	.LVL188:
 687:Drivers/lvgl/src/indev/lv_indev_scroll.c ****         }
 1743              		.loc 1 687 25 view .LVU555
 1744 00a6 B2E7     		b	.L80
 1745              	.LVL189:
 1746              	.L103:
 687:Drivers/lvgl/src/indev/lv_indev_scroll.c ****         }
 1747              		.loc 1 687 25 view .LVU556
 1748 00a8 E31C     		adds	r3, r4, #3
 1749              	.LVL190:
 687:Drivers/lvgl/src/indev/lv_indev_scroll.c ****         }
 1750              		.loc 1 687 25 view .LVU557
 1751 00aa FBE7     		b	.L94
 1752              	.LVL191:
 1753              	.L95:
 687:Drivers/lvgl/src/indev/lv_indev_scroll.c ****         }
 1754              		.loc 1 687 25 view .LVU558
 1755              	.LBE111:
 1756              	.LBB112:
 655:Drivers/lvgl/src/indev/lv_indev_scroll.c ****         else if(scroll_ended - diff < 0) diff = scroll_ended;
 1757              		.loc 1 655 36 discriminator 1 view .LVU559
 1758 00ac 0024     		movs	r4, #0
 1759              	.LVL192:
ARM GAS  /var/folders/qx/2_175_4n2s19vhvtspjhb3qh0000gn/T//ccspqae8.s 			page 56


 655:Drivers/lvgl/src/indev/lv_indev_scroll.c ****         else if(scroll_ended - diff < 0) diff = scroll_ended;
 1760              		.loc 1 655 36 discriminator 1 view .LVU560
 1761 00ae AEE7     		b	.L80
 1762              	.LBE112:
 1763              		.cfi_endproc
 1764              	.LFE190:
 1766              		.section	.text.lv_indev_scroll_throw_predict,"ax",%progbits
 1767              		.align	1
 1768              		.global	lv_indev_scroll_throw_predict
 1769              		.syntax unified
 1770              		.thumb
 1771              		.thumb_func
 1773              	lv_indev_scroll_throw_predict:
 1774              	.LVL193:
 1775              	.LFB183:
 237:Drivers/lvgl/src/indev/lv_indev_scroll.c ****     if(indev == NULL) return 0;
 1776              		.loc 1 237 1 is_stmt 1 view -0
 1777              		.cfi_startproc
 1778              		@ args = 0, pretend = 0, frame = 0
 1779              		@ frame_needed = 0, uses_anonymous_args = 0
 1780              		@ link register save eliminated.
 238:Drivers/lvgl/src/indev/lv_indev_scroll.c ****     int32_t v;
 1781              		.loc 1 238 5 view .LVU562
 238:Drivers/lvgl/src/indev/lv_indev_scroll.c ****     int32_t v;
 1782              		.loc 1 238 7 is_stmt 0 view .LVU563
 1783 0000 0246     		mov	r2, r0
 1784 0002 D0B1     		cbz	r0, .L110
 239:Drivers/lvgl/src/indev/lv_indev_scroll.c ****     switch(dir) {
 1785              		.loc 1 239 5 is_stmt 1 view .LVU564
 240:Drivers/lvgl/src/indev/lv_indev_scroll.c ****         case LV_DIR_VER:
 1786              		.loc 1 240 5 view .LVU565
 1787 0004 0329     		cmp	r1, #3
 1788 0006 07D0     		beq	.L106
 1789 0008 0C29     		cmp	r1, #12
 1790 000a 18D1     		bne	.L111
 242:Drivers/lvgl/src/indev/lv_indev_scroll.c ****             break;
 1791              		.loc 1 242 13 view .LVU566
 242:Drivers/lvgl/src/indev/lv_indev_scroll.c ****             break;
 1792              		.loc 1 242 15 is_stmt 0 view .LVU567
 1793 000c D0F8CC30 		ldr	r3, [r0, #204]
 1794              	.LVL194:
 243:Drivers/lvgl/src/indev/lv_indev_scroll.c ****         case LV_DIR_HOR:
 1795              		.loc 1 243 13 is_stmt 1 view .LVU568
 1796              	.L107:
 251:Drivers/lvgl/src/indev/lv_indev_scroll.c ****     int32_t sum = 0;
 1797              		.loc 1 251 5 view .LVU569
 251:Drivers/lvgl/src/indev/lv_indev_scroll.c ****     int32_t sum = 0;
 1798              		.loc 1 251 33 is_stmt 0 view .LVU570
 1799 0010 92F82910 		ldrb	r1, [r2, #41]	@ zero_extendqisi2
 1800              	.LVL195:
 252:Drivers/lvgl/src/indev/lv_indev_scroll.c ****     while(v) {
 1801              		.loc 1 252 5 is_stmt 1 view .LVU571
 253:Drivers/lvgl/src/indev/lv_indev_scroll.c ****         sum += v;
 1802              		.loc 1 253 5 view .LVU572
 252:Drivers/lvgl/src/indev/lv_indev_scroll.c ****     while(v) {
 1803              		.loc 1 252 13 is_stmt 0 view .LVU573
 1804 0014 0020     		movs	r0, #0
ARM GAS  /var/folders/qx/2_175_4n2s19vhvtspjhb3qh0000gn/T//ccspqae8.s 			page 57


 1805              	.LVL196:
 253:Drivers/lvgl/src/indev/lv_indev_scroll.c ****         sum += v;
 1806              		.loc 1 253 10 view .LVU574
 1807 0016 0DE0     		b	.L108
 1808              	.LVL197:
 1809              	.L106:
 245:Drivers/lvgl/src/indev/lv_indev_scroll.c ****             break;
 1810              		.loc 1 245 13 is_stmt 1 view .LVU575
 245:Drivers/lvgl/src/indev/lv_indev_scroll.c ****             break;
 1811              		.loc 1 245 15 is_stmt 0 view .LVU576
 1812 0018 D0F8C830 		ldr	r3, [r0, #200]
 1813              	.LVL198:
 246:Drivers/lvgl/src/indev/lv_indev_scroll.c ****         default:
 1814              		.loc 1 246 13 is_stmt 1 view .LVU577
 1815 001c F8E7     		b	.L107
 1816              	.LVL199:
 1817              	.L109:
 254:Drivers/lvgl/src/indev/lv_indev_scroll.c ****         v = v * (100 - scroll_throw) / 100;
 1818              		.loc 1 254 9 view .LVU578
 254:Drivers/lvgl/src/indev/lv_indev_scroll.c ****         v = v * (100 - scroll_throw) / 100;
 1819              		.loc 1 254 13 is_stmt 0 view .LVU579
 1820 001e 1844     		add	r0, r0, r3
 1821              	.LVL200:
 255:Drivers/lvgl/src/indev/lv_indev_scroll.c ****     }
 1822              		.loc 1 255 9 is_stmt 1 view .LVU580
 255:Drivers/lvgl/src/indev/lv_indev_scroll.c ****     }
 1823              		.loc 1 255 22 is_stmt 0 view .LVU581
 1824 0020 C1F16402 		rsb	r2, r1, #100
 255:Drivers/lvgl/src/indev/lv_indev_scroll.c ****     }
 1825              		.loc 1 255 15 view .LVU582
 1826 0024 03FB02F2 		mul	r2, r3, r2
 255:Drivers/lvgl/src/indev/lv_indev_scroll.c ****     }
 1827              		.loc 1 255 11 view .LVU583
 1828 0028 064B     		ldr	r3, .L112
 1829              	.LVL201:
 255:Drivers/lvgl/src/indev/lv_indev_scroll.c ****     }
 1830              		.loc 1 255 11 view .LVU584
 1831 002a 83FB02C3 		smull	ip, r3, r3, r2
 1832 002e D217     		asrs	r2, r2, #31
 1833 0030 C2EB6313 		rsb	r3, r2, r3, asr #5
 1834              	.LVL202:
 1835              	.L108:
 253:Drivers/lvgl/src/indev/lv_indev_scroll.c ****         sum += v;
 1836              		.loc 1 253 11 is_stmt 1 view .LVU585
 1837 0034 002B     		cmp	r3, #0
 1838 0036 F2D1     		bne	.L109
 1839 0038 7047     		bx	lr
 1840              	.LVL203:
 1841              	.L110:
 238:Drivers/lvgl/src/indev/lv_indev_scroll.c ****     int32_t v;
 1842              		.loc 1 238 30 is_stmt 0 discriminator 1 view .LVU586
 1843 003a 0020     		movs	r0, #0
 1844              	.LVL204:
 238:Drivers/lvgl/src/indev/lv_indev_scroll.c ****     int32_t v;
 1845              		.loc 1 238 30 discriminator 1 view .LVU587
 1846 003c 7047     		bx	lr
 1847              	.LVL205:
ARM GAS  /var/folders/qx/2_175_4n2s19vhvtspjhb3qh0000gn/T//ccspqae8.s 			page 58


 1848              	.L111:
 240:Drivers/lvgl/src/indev/lv_indev_scroll.c ****         case LV_DIR_VER:
 1849              		.loc 1 240 5 view .LVU588
 1850 003e 0020     		movs	r0, #0
 1851              	.LVL206:
 259:Drivers/lvgl/src/indev/lv_indev_scroll.c **** 
 1852              		.loc 1 259 1 view .LVU589
 1853 0040 7047     		bx	lr
 1854              	.L113:
 1855 0042 00BF     		.align	2
 1856              	.L112:
 1857 0044 1F85EB51 		.word	1374389535
 1858              		.cfi_endproc
 1859              	.LFE183:
 1861              		.section	.text.lv_indev_scroll_throw_handler,"ax",%progbits
 1862              		.align	1
 1863              		.global	lv_indev_scroll_throw_handler
 1864              		.syntax unified
 1865              		.thumb
 1866              		.thumb_func
 1868              	lv_indev_scroll_throw_handler:
 1869              	.LVL207:
 1870              	.LFB182:
 125:Drivers/lvgl/src/indev/lv_indev_scroll.c ****     lv_obj_t * scroll_obj = indev->pointer.scroll_obj;
 1871              		.loc 1 125 1 is_stmt 1 view -0
 1872              		.cfi_startproc
 1873              		@ args = 0, pretend = 0, frame = 8
 1874              		@ frame_needed = 0, uses_anonymous_args = 0
 125:Drivers/lvgl/src/indev/lv_indev_scroll.c ****     lv_obj_t * scroll_obj = indev->pointer.scroll_obj;
 1875              		.loc 1 125 1 is_stmt 0 view .LVU591
 1876 0000 2DE9F041 		push	{r4, r5, r6, r7, r8, lr}
 1877              	.LCFI22:
 1878              		.cfi_def_cfa_offset 24
 1879              		.cfi_offset 4, -24
 1880              		.cfi_offset 5, -20
 1881              		.cfi_offset 6, -16
 1882              		.cfi_offset 7, -12
 1883              		.cfi_offset 8, -8
 1884              		.cfi_offset 14, -4
 1885 0004 84B0     		sub	sp, sp, #16
 1886              	.LCFI23:
 1887              		.cfi_def_cfa_offset 40
 126:Drivers/lvgl/src/indev/lv_indev_scroll.c ****     if(scroll_obj == NULL) return;
 1888              		.loc 1 126 5 is_stmt 1 view .LVU592
 126:Drivers/lvgl/src/indev/lv_indev_scroll.c ****     if(scroll_obj == NULL) return;
 1889              		.loc 1 126 16 is_stmt 0 view .LVU593
 1890 0006 D0F8D450 		ldr	r5, [r0, #212]
 1891              	.LVL208:
 127:Drivers/lvgl/src/indev/lv_indev_scroll.c ****     if(indev->pointer.scroll_dir == LV_DIR_NONE) return;
 1892              		.loc 1 127 5 is_stmt 1 view .LVU594
 127:Drivers/lvgl/src/indev/lv_indev_scroll.c ****     if(indev->pointer.scroll_dir == LV_DIR_NONE) return;
 1893              		.loc 1 127 7 is_stmt 0 view .LVU595
 1894 000a 2DB1     		cbz	r5, .L114
 1895 000c 0446     		mov	r4, r0
 128:Drivers/lvgl/src/indev/lv_indev_scroll.c **** 
 1896              		.loc 1 128 5 is_stmt 1 view .LVU596
 128:Drivers/lvgl/src/indev/lv_indev_scroll.c **** 
ARM GAS  /var/folders/qx/2_175_4n2s19vhvtspjhb3qh0000gn/T//ccspqae8.s 			page 59


 1897              		.loc 1 128 34 is_stmt 0 view .LVU597
 1898 000e 90F80C31 		ldrb	r3, [r0, #268]	@ zero_extendqisi2
 128:Drivers/lvgl/src/indev/lv_indev_scroll.c **** 
 1899              		.loc 1 128 7 view .LVU598
 1900 0012 13F00F0F 		tst	r3, #15
 1901 0016 02D1     		bne	.L128
 1902              	.LVL209:
 1903              	.L114:
 234:Drivers/lvgl/src/indev/lv_indev_scroll.c **** 
 1904              		.loc 1 234 1 view .LVU599
 1905 0018 04B0     		add	sp, sp, #16
 1906              	.LCFI24:
 1907              		.cfi_remember_state
 1908              		.cfi_def_cfa_offset 24
 1909              		@ sp needed
 1910 001a BDE8F081 		pop	{r4, r5, r6, r7, r8, pc}
 1911              	.LVL210:
 1912              	.L128:
 1913              	.LCFI25:
 1914              		.cfi_restore_state
 130:Drivers/lvgl/src/indev/lv_indev_scroll.c **** 
 1915              		.loc 1 130 5 is_stmt 1 view .LVU600
 130:Drivers/lvgl/src/indev/lv_indev_scroll.c **** 
 1916              		.loc 1 130 33 is_stmt 0 view .LVU601
 1917 001e 90F82970 		ldrb	r7, [r0, #41]	@ zero_extendqisi2
 1918              	.LVL211:
 132:Drivers/lvgl/src/indev/lv_indev_scroll.c ****         indev->pointer.scroll_throw_vect.y = 0;
 1919              		.loc 1 132 5 is_stmt 1 view .LVU602
 132:Drivers/lvgl/src/indev/lv_indev_scroll.c ****         indev->pointer.scroll_throw_vect.y = 0;
 1920              		.loc 1 132 8 is_stmt 0 view .LVU603
 1921 0022 4021     		movs	r1, #64
 1922 0024 2846     		mov	r0, r5
 1923              	.LVL212:
 132:Drivers/lvgl/src/indev/lv_indev_scroll.c ****         indev->pointer.scroll_throw_vect.y = 0;
 1924              		.loc 1 132 8 view .LVU604
 1925 0026 FFF7FEFF 		bl	lv_obj_has_flag
 1926              	.LVL213:
 132:Drivers/lvgl/src/indev/lv_indev_scroll.c ****         indev->pointer.scroll_throw_vect.y = 0;
 1927              		.loc 1 132 7 discriminator 1 view .LVU605
 1928 002a 20B9     		cbnz	r0, .L116
 133:Drivers/lvgl/src/indev/lv_indev_scroll.c ****         indev->pointer.scroll_throw_vect.x = 0;
 1929              		.loc 1 133 9 is_stmt 1 view .LVU606
 133:Drivers/lvgl/src/indev/lv_indev_scroll.c ****         indev->pointer.scroll_throw_vect.x = 0;
 1930              		.loc 1 133 44 is_stmt 0 view .LVU607
 1931 002c 0023     		movs	r3, #0
 1932 002e C4F8C430 		str	r3, [r4, #196]
 134:Drivers/lvgl/src/indev/lv_indev_scroll.c ****     }
 1933              		.loc 1 134 9 is_stmt 1 view .LVU608
 134:Drivers/lvgl/src/indev/lv_indev_scroll.c ****     }
 1934              		.loc 1 134 44 is_stmt 0 view .LVU609
 1935 0032 C4F8C030 		str	r3, [r4, #192]
 1936              	.L116:
 137:Drivers/lvgl/src/indev/lv_indev_scroll.c ****     lv_scroll_snap_t align_y = lv_obj_get_scroll_snap_y(scroll_obj);
 1937              		.loc 1 137 5 is_stmt 1 view .LVU610
 137:Drivers/lvgl/src/indev/lv_indev_scroll.c ****     lv_scroll_snap_t align_y = lv_obj_get_scroll_snap_y(scroll_obj);
 1938              		.loc 1 137 32 is_stmt 0 view .LVU611
 1939 0036 2846     		mov	r0, r5
ARM GAS  /var/folders/qx/2_175_4n2s19vhvtspjhb3qh0000gn/T//ccspqae8.s 			page 60


 1940 0038 FFF7FEFF 		bl	lv_obj_get_scroll_snap_x
 1941              	.LVL214:
 1942 003c 8046     		mov	r8, r0
 1943              	.LVL215:
 138:Drivers/lvgl/src/indev/lv_indev_scroll.c **** 
 1944              		.loc 1 138 5 is_stmt 1 view .LVU612
 138:Drivers/lvgl/src/indev/lv_indev_scroll.c **** 
 1945              		.loc 1 138 32 is_stmt 0 view .LVU613
 1946 003e 2846     		mov	r0, r5
 1947 0040 FFF7FEFF 		bl	lv_obj_get_scroll_snap_y
 1948              	.LVL216:
 1949 0044 0646     		mov	r6, r0
 1950              	.LVL217:
 140:Drivers/lvgl/src/indev/lv_indev_scroll.c ****         indev->pointer.scroll_throw_vect.x = 0;
 1951              		.loc 1 140 5 is_stmt 1 view .LVU614
 140:Drivers/lvgl/src/indev/lv_indev_scroll.c ****         indev->pointer.scroll_throw_vect.x = 0;
 1952              		.loc 1 140 34 is_stmt 0 view .LVU615
 1953 0046 94F80C31 		ldrb	r3, [r4, #268]	@ zero_extendqisi2
 1954 004a 03F00F03 		and	r3, r3, #15
 140:Drivers/lvgl/src/indev/lv_indev_scroll.c ****         indev->pointer.scroll_throw_vect.x = 0;
 1955              		.loc 1 140 7 view .LVU616
 1956 004e 0C2B     		cmp	r3, #12
 1957 0050 2FD0     		beq	.L129
 166:Drivers/lvgl/src/indev/lv_indev_scroll.c ****         indev->pointer.scroll_throw_vect.y = 0;
 1958              		.loc 1 166 10 is_stmt 1 view .LVU617
 166:Drivers/lvgl/src/indev/lv_indev_scroll.c ****         indev->pointer.scroll_throw_vect.y = 0;
 1959              		.loc 1 166 12 is_stmt 0 view .LVU618
 1960 0052 032B     		cmp	r3, #3
 1961 0054 7BD0     		beq	.L130
 1962              	.LVL218:
 1963              	.L119:
 194:Drivers/lvgl/src/indev/lv_indev_scroll.c ****         /*Revert if scrolled in*/
 1964              		.loc 1 194 5 is_stmt 1 view .LVU619
 194:Drivers/lvgl/src/indev/lv_indev_scroll.c ****         /*Revert if scrolled in*/
 1965              		.loc 1 194 40 is_stmt 0 view .LVU620
 1966 0056 D4F8C030 		ldr	r3, [r4, #192]
 194:Drivers/lvgl/src/indev/lv_indev_scroll.c ****         /*Revert if scrolled in*/
 1967              		.loc 1 194 7 view .LVU621
 1968 005a 002B     		cmp	r3, #0
 1969 005c DCD1     		bne	.L114
 194:Drivers/lvgl/src/indev/lv_indev_scroll.c ****         /*Revert if scrolled in*/
 1970              		.loc 1 194 83 discriminator 1 view .LVU622
 1971 005e D4F8C430 		ldr	r3, [r4, #196]
 194:Drivers/lvgl/src/indev/lv_indev_scroll.c ****         /*Revert if scrolled in*/
 1972              		.loc 1 194 48 discriminator 1 view .LVU623
 1973 0062 002B     		cmp	r3, #0
 1974 0064 D8D1     		bne	.L114
 197:Drivers/lvgl/src/indev/lv_indev_scroll.c ****             int32_t st = lv_obj_get_scroll_top(scroll_obj);
 1975              		.loc 1 197 9 is_stmt 1 view .LVU624
 197:Drivers/lvgl/src/indev/lv_indev_scroll.c ****             int32_t st = lv_obj_get_scroll_top(scroll_obj);
 1976              		.loc 1 197 11 is_stmt 0 view .LVU625
 1977 0066 002E     		cmp	r6, #0
 1978 0068 00F0C380 		beq	.L131
 1979              	.L123:
 213:Drivers/lvgl/src/indev/lv_indev_scroll.c ****             int32_t sl = lv_obj_get_scroll_left(scroll_obj);
 1980              		.loc 1 213 9 is_stmt 1 view .LVU626
 213:Drivers/lvgl/src/indev/lv_indev_scroll.c ****             int32_t sl = lv_obj_get_scroll_left(scroll_obj);
ARM GAS  /var/folders/qx/2_175_4n2s19vhvtspjhb3qh0000gn/T//ccspqae8.s 			page 61


 1981              		.loc 1 213 11 is_stmt 0 view .LVU627
 1982 006c B8F1000F 		cmp	r8, #0
 1983 0070 0CD1     		bne	.L125
 1984              	.LBB113:
 214:Drivers/lvgl/src/indev/lv_indev_scroll.c ****             int32_t sr = lv_obj_get_scroll_right(scroll_obj);
 1985              		.loc 1 214 13 is_stmt 1 view .LVU628
 214:Drivers/lvgl/src/indev/lv_indev_scroll.c ****             int32_t sr = lv_obj_get_scroll_right(scroll_obj);
 1986              		.loc 1 214 26 is_stmt 0 view .LVU629
 1987 0072 2846     		mov	r0, r5
 1988 0074 FFF7FEFF 		bl	lv_obj_get_scroll_left
 1989              	.LVL219:
 1990 0078 0646     		mov	r6, r0
 1991              	.LVL220:
 215:Drivers/lvgl/src/indev/lv_indev_scroll.c ****             if(sl > 0 || sr > 0) {
 1992              		.loc 1 215 13 is_stmt 1 view .LVU630
 215:Drivers/lvgl/src/indev/lv_indev_scroll.c ****             if(sl > 0 || sr > 0) {
 1993              		.loc 1 215 26 is_stmt 0 view .LVU631
 1994 007a 2846     		mov	r0, r5
 1995              	.LVL221:
 215:Drivers/lvgl/src/indev/lv_indev_scroll.c ****             if(sl > 0 || sr > 0) {
 1996              		.loc 1 215 26 view .LVU632
 1997 007c FFF7FEFF 		bl	lv_obj_get_scroll_right
 1998              	.LVL222:
 216:Drivers/lvgl/src/indev/lv_indev_scroll.c ****                 if(sl < 0) {
 1999              		.loc 1 216 13 is_stmt 1 view .LVU633
 216:Drivers/lvgl/src/indev/lv_indev_scroll.c ****                 if(sl < 0) {
 2000              		.loc 1 216 15 is_stmt 0 view .LVU634
 2001 0080 002E     		cmp	r6, #0
 2002 0082 40F3DF80 		ble	.L132
 2003              	.L126:
 221:Drivers/lvgl/src/indev/lv_indev_scroll.c ****                     lv_obj_scroll_by(scroll_obj, -sr, 0, LV_ANIM_ON);
 2004              		.loc 1 221 22 is_stmt 1 view .LVU635
 221:Drivers/lvgl/src/indev/lv_indev_scroll.c ****                     lv_obj_scroll_by(scroll_obj, -sr, 0, LV_ANIM_ON);
 2005              		.loc 1 221 24 is_stmt 0 view .LVU636
 2006 0086 0028     		cmp	r0, #0
 2007 0088 C0F2EE80 		blt	.L133
 2008              	.LVL223:
 2009              	.L125:
 221:Drivers/lvgl/src/indev/lv_indev_scroll.c ****                     lv_obj_scroll_by(scroll_obj, -sr, 0, LV_ANIM_ON);
 2010              		.loc 1 221 24 view .LVU637
 2011              	.LBE113:
 228:Drivers/lvgl/src/indev/lv_indev_scroll.c ****         if(indev->reset_query) return;
 2012              		.loc 1 228 9 is_stmt 1 view .LVU638
 2013 008c 2246     		mov	r2, r4
 2014 008e 0E21     		movs	r1, #14
 2015 0090 2846     		mov	r0, r5
 2016 0092 FFF7FEFF 		bl	lv_obj_send_event
 2017              	.LVL224:
 229:Drivers/lvgl/src/indev/lv_indev_scroll.c **** 
 2018              		.loc 1 229 9 view .LVU639
 229:Drivers/lvgl/src/indev/lv_indev_scroll.c **** 
 2019              		.loc 1 229 12 is_stmt 0 view .LVU640
 2020 0096 E37A     		ldrb	r3, [r4, #11]	@ zero_extendqisi2
 229:Drivers/lvgl/src/indev/lv_indev_scroll.c **** 
 2021              		.loc 1 229 11 view .LVU641
 2022 0098 13F0020F 		tst	r3, #2
 2023 009c BCD1     		bne	.L114
ARM GAS  /var/folders/qx/2_175_4n2s19vhvtspjhb3qh0000gn/T//ccspqae8.s 			page 62


 231:Drivers/lvgl/src/indev/lv_indev_scroll.c ****         indev->pointer.scroll_obj = NULL;
 2024              		.loc 1 231 9 is_stmt 1 view .LVU642
 231:Drivers/lvgl/src/indev/lv_indev_scroll.c ****         indev->pointer.scroll_obj = NULL;
 2025              		.loc 1 231 35 is_stmt 0 view .LVU643
 2026 009e 94F80C31 		ldrb	r3, [r4, #268]	@ zero_extendqisi2
 2027 00a2 23F00F03 		bic	r3, r3, #15
 2028 00a6 84F80C31 		strb	r3, [r4, #268]
 232:Drivers/lvgl/src/indev/lv_indev_scroll.c ****     }
 2029              		.loc 1 232 9 is_stmt 1 view .LVU644
 232:Drivers/lvgl/src/indev/lv_indev_scroll.c ****     }
 2030              		.loc 1 232 35 is_stmt 0 view .LVU645
 2031 00aa 0023     		movs	r3, #0
 2032 00ac C4F8D430 		str	r3, [r4, #212]
 2033 00b0 B2E7     		b	.L114
 2034              	.LVL225:
 2035              	.L129:
 141:Drivers/lvgl/src/indev/lv_indev_scroll.c ****         /*If no snapping "throw"*/
 2036              		.loc 1 141 9 is_stmt 1 view .LVU646
 141:Drivers/lvgl/src/indev/lv_indev_scroll.c ****         /*If no snapping "throw"*/
 2037              		.loc 1 141 44 is_stmt 0 view .LVU647
 2038 00b2 0023     		movs	r3, #0
 2039 00b4 C4F8C030 		str	r3, [r4, #192]
 143:Drivers/lvgl/src/indev/lv_indev_scroll.c ****             indev->pointer.scroll_throw_vect.y =
 2040              		.loc 1 143 9 is_stmt 1 view .LVU648
 143:Drivers/lvgl/src/indev/lv_indev_scroll.c ****             indev->pointer.scroll_throw_vect.y =
 2041              		.loc 1 143 11 is_stmt 0 view .LVU649
 2042 00b8 48BB     		cbnz	r0, .L118
 2043              	.LBB114:
 144:Drivers/lvgl/src/indev/lv_indev_scroll.c ****                 indev->pointer.scroll_throw_vect.y * (100 - scroll_throw) / 100;
 2044              		.loc 1 144 13 is_stmt 1 view .LVU650
 145:Drivers/lvgl/src/indev/lv_indev_scroll.c **** 
 2045              		.loc 1 145 49 is_stmt 0 view .LVU651
 2046 00ba D4F8C430 		ldr	r3, [r4, #196]
 145:Drivers/lvgl/src/indev/lv_indev_scroll.c **** 
 2047              		.loc 1 145 59 view .LVU652
 2048 00be C7F16407 		rsb	r7, r7, #100
 2049              	.LVL226:
 145:Drivers/lvgl/src/indev/lv_indev_scroll.c **** 
 2050              		.loc 1 145 52 view .LVU653
 2051 00c2 07FB03F3 		mul	r3, r7, r3
 145:Drivers/lvgl/src/indev/lv_indev_scroll.c **** 
 2052              		.loc 1 145 75 view .LVU654
 2053 00c6 6E4A     		ldr	r2, .L135
 2054 00c8 82FB0312 		smull	r1, r2, r2, r3
 2055 00cc DB17     		asrs	r3, r3, #31
 2056 00ce C3EB6213 		rsb	r3, r3, r2, asr #5
 144:Drivers/lvgl/src/indev/lv_indev_scroll.c ****                 indev->pointer.scroll_throw_vect.y * (100 - scroll_throw) / 100;
 2057              		.loc 1 144 48 view .LVU655
 2058 00d2 C4F8C430 		str	r3, [r4, #196]
 147:Drivers/lvgl/src/indev/lv_indev_scroll.c ****             int32_t st = lv_obj_get_scroll_top(scroll_obj);
 2059              		.loc 1 147 13 is_stmt 1 view .LVU656
 147:Drivers/lvgl/src/indev/lv_indev_scroll.c ****             int32_t st = lv_obj_get_scroll_top(scroll_obj);
 2060              		.loc 1 147 26 is_stmt 0 view .LVU657
 2061 00d6 2846     		mov	r0, r5
 2062              	.LVL227:
 147:Drivers/lvgl/src/indev/lv_indev_scroll.c ****             int32_t st = lv_obj_get_scroll_top(scroll_obj);
 2063              		.loc 1 147 26 view .LVU658
ARM GAS  /var/folders/qx/2_175_4n2s19vhvtspjhb3qh0000gn/T//ccspqae8.s 			page 63


 2064 00d8 FFF7FEFF 		bl	lv_obj_get_scroll_bottom
 2065              	.LVL228:
 2066 00dc 0746     		mov	r7, r0
 2067              	.LVL229:
 148:Drivers/lvgl/src/indev/lv_indev_scroll.c **** 
 2068              		.loc 1 148 13 is_stmt 1 view .LVU659
 148:Drivers/lvgl/src/indev/lv_indev_scroll.c **** 
 2069              		.loc 1 148 26 is_stmt 0 view .LVU660
 2070 00de 2846     		mov	r0, r5
 2071              	.LVL230:
 148:Drivers/lvgl/src/indev/lv_indev_scroll.c **** 
 2072              		.loc 1 148 26 view .LVU661
 2073 00e0 FFF7FEFF 		bl	lv_obj_get_scroll_top
 2074              	.LVL231:
 2075 00e4 0246     		mov	r2, r0
 2076              	.LVL232:
 150:Drivers/lvgl/src/indev/lv_indev_scroll.c ****                                                               LV_DIR_VER);
 2077              		.loc 1 150 13 is_stmt 1 view .LVU662
 150:Drivers/lvgl/src/indev/lv_indev_scroll.c ****                                                               LV_DIR_VER);
 2078              		.loc 1 150 50 is_stmt 0 view .LVU663
 2079 00e6 0C23     		movs	r3, #12
 2080 00e8 0093     		str	r3, [sp]
 2081 00ea 3B46     		mov	r3, r7
 2082 00ec D4F8C410 		ldr	r1, [r4, #196]
 2083 00f0 2846     		mov	r0, r5
 2084              	.LVL233:
 150:Drivers/lvgl/src/indev/lv_indev_scroll.c ****                                                               LV_DIR_VER);
 2085              		.loc 1 150 50 view .LVU664
 2086 00f2 FFF7FEFF 		bl	elastic_diff
 2087              	.LVL234:
 150:Drivers/lvgl/src/indev/lv_indev_scroll.c ****                                                               LV_DIR_VER);
 2088              		.loc 1 150 50 view .LVU665
 2089 00f6 0246     		mov	r2, r0
 150:Drivers/lvgl/src/indev/lv_indev_scroll.c ****                                                               LV_DIR_VER);
 2090              		.loc 1 150 48 discriminator 1 view .LVU666
 2091 00f8 C4F8C400 		str	r0, [r4, #196]
 153:Drivers/lvgl/src/indev/lv_indev_scroll.c ****             if(indev->reset_query) return;
 2092              		.loc 1 153 13 is_stmt 1 view .LVU667
 2093 00fc 0021     		movs	r1, #0
 2094 00fe 2846     		mov	r0, r5
 2095 0100 FFF7FEFF 		bl	lv_obj_scroll_by_raw
 2096              	.LVL235:
 154:Drivers/lvgl/src/indev/lv_indev_scroll.c ****         }
 2097              		.loc 1 154 13 view .LVU668
 154:Drivers/lvgl/src/indev/lv_indev_scroll.c ****         }
 2098              		.loc 1 154 16 is_stmt 0 view .LVU669
 2099 0104 E37A     		ldrb	r3, [r4, #11]	@ zero_extendqisi2
 154:Drivers/lvgl/src/indev/lv_indev_scroll.c ****         }
 2100              		.loc 1 154 15 view .LVU670
 2101 0106 13F0020F 		tst	r3, #2
 2102 010a A4D0     		beq	.L119
 2103 010c 84E7     		b	.L114
 2104              	.LVL236:
 2105              	.L118:
 154:Drivers/lvgl/src/indev/lv_indev_scroll.c ****         }
 2106              		.loc 1 154 15 view .LVU671
 2107              	.LBE114:
ARM GAS  /var/folders/qx/2_175_4n2s19vhvtspjhb3qh0000gn/T//ccspqae8.s 			page 64


 2108              	.LBB115:
 158:Drivers/lvgl/src/indev/lv_indev_scroll.c ****             indev->pointer.scroll_throw_vect.y = 0;
 2109              		.loc 1 158 13 is_stmt 1 view .LVU672
 158:Drivers/lvgl/src/indev/lv_indev_scroll.c ****             indev->pointer.scroll_throw_vect.y = 0;
 2110              		.loc 1 158 30 is_stmt 0 view .LVU673
 2111 010e 0C21     		movs	r1, #12
 2112 0110 2046     		mov	r0, r4
 2113              	.LVL237:
 158:Drivers/lvgl/src/indev/lv_indev_scroll.c ****             indev->pointer.scroll_throw_vect.y = 0;
 2114              		.loc 1 158 30 view .LVU674
 2115 0112 FFF7FEFF 		bl	lv_indev_scroll_throw_predict
 2116              	.LVL238:
 158:Drivers/lvgl/src/indev/lv_indev_scroll.c ****             indev->pointer.scroll_throw_vect.y = 0;
 2117              		.loc 1 158 21 discriminator 1 view .LVU675
 2118 0116 0390     		str	r0, [sp, #12]
 159:Drivers/lvgl/src/indev/lv_indev_scroll.c ****             scroll_limit_diff(indev, NULL, &diff_y);
 2119              		.loc 1 159 13 is_stmt 1 view .LVU676
 159:Drivers/lvgl/src/indev/lv_indev_scroll.c ****             scroll_limit_diff(indev, NULL, &diff_y);
 2120              		.loc 1 159 48 is_stmt 0 view .LVU677
 2121 0118 0027     		movs	r7, #0
 2122              	.LVL239:
 159:Drivers/lvgl/src/indev/lv_indev_scroll.c ****             scroll_limit_diff(indev, NULL, &diff_y);
 2123              		.loc 1 159 48 view .LVU678
 2124 011a C4F8C470 		str	r7, [r4, #196]
 160:Drivers/lvgl/src/indev/lv_indev_scroll.c ****             int32_t y = find_snap_point_y(scroll_obj, LV_COORD_MIN, LV_COORD_MAX, diff_y);
 2125              		.loc 1 160 13 is_stmt 1 view .LVU679
 2126 011e 03AA     		add	r2, sp, #12
 2127 0120 3946     		mov	r1, r7
 2128 0122 2046     		mov	r0, r4
 2129 0124 FFF7FEFF 		bl	scroll_limit_diff
 2130              	.LVL240:
 161:Drivers/lvgl/src/indev/lv_indev_scroll.c ****             lv_obj_scroll_by(scroll_obj, 0, diff_y + y, LV_ANIM_ON);
 2131              		.loc 1 161 13 view .LVU680
 161:Drivers/lvgl/src/indev/lv_indev_scroll.c ****             lv_obj_scroll_by(scroll_obj, 0, diff_y + y, LV_ANIM_ON);
 2132              		.loc 1 161 25 is_stmt 0 view .LVU681
 2133 0128 039B     		ldr	r3, [sp, #12]
 2134 012a 6FF06042 		mvn	r2, #-536870912
 2135 012e 5549     		ldr	r1, .L135+4
 2136 0130 2846     		mov	r0, r5
 2137 0132 FFF7FEFF 		bl	find_snap_point_y
 2138              	.LVL241:
 162:Drivers/lvgl/src/indev/lv_indev_scroll.c ****             if(indev->reset_query) return;
 2139              		.loc 1 162 13 is_stmt 1 view .LVU682
 2140 0136 0123     		movs	r3, #1
 2141 0138 039A     		ldr	r2, [sp, #12]
 2142 013a 0244     		add	r2, r2, r0
 2143 013c 3946     		mov	r1, r7
 2144 013e 2846     		mov	r0, r5
 2145              	.LVL242:
 162:Drivers/lvgl/src/indev/lv_indev_scroll.c ****             if(indev->reset_query) return;
 2146              		.loc 1 162 13 is_stmt 0 view .LVU683
 2147 0140 FFF7FEFF 		bl	lv_obj_scroll_by
 2148              	.LVL243:
 163:Drivers/lvgl/src/indev/lv_indev_scroll.c ****         }
 2149              		.loc 1 163 13 is_stmt 1 view .LVU684
 163:Drivers/lvgl/src/indev/lv_indev_scroll.c ****         }
 2150              		.loc 1 163 16 is_stmt 0 view .LVU685
ARM GAS  /var/folders/qx/2_175_4n2s19vhvtspjhb3qh0000gn/T//ccspqae8.s 			page 65


 2151 0144 E37A     		ldrb	r3, [r4, #11]	@ zero_extendqisi2
 163:Drivers/lvgl/src/indev/lv_indev_scroll.c ****         }
 2152              		.loc 1 163 15 view .LVU686
 2153 0146 13F0020F 		tst	r3, #2
 2154 014a 84D0     		beq	.L119
 2155 014c 64E7     		b	.L114
 2156              	.LVL244:
 2157              	.L130:
 163:Drivers/lvgl/src/indev/lv_indev_scroll.c ****         }
 2158              		.loc 1 163 15 view .LVU687
 2159              	.LBE115:
 167:Drivers/lvgl/src/indev/lv_indev_scroll.c ****         /*If no snapping "throw"*/
 2160              		.loc 1 167 9 is_stmt 1 view .LVU688
 167:Drivers/lvgl/src/indev/lv_indev_scroll.c ****         /*If no snapping "throw"*/
 2161              		.loc 1 167 44 is_stmt 0 view .LVU689
 2162 014e 0023     		movs	r3, #0
 2163 0150 C4F8C430 		str	r3, [r4, #196]
 169:Drivers/lvgl/src/indev/lv_indev_scroll.c ****             indev->pointer.scroll_throw_vect.x =
 2164              		.loc 1 169 9 is_stmt 1 view .LVU690
 169:Drivers/lvgl/src/indev/lv_indev_scroll.c ****             indev->pointer.scroll_throw_vect.x =
 2165              		.loc 1 169 11 is_stmt 0 view .LVU691
 2166 0154 B8F1000F 		cmp	r8, #0
 2167 0158 2AD1     		bne	.L121
 2168              	.LBB116:
 170:Drivers/lvgl/src/indev/lv_indev_scroll.c ****                 indev->pointer.scroll_throw_vect.x * (100 - scroll_throw) / 100;
 2169              		.loc 1 170 13 is_stmt 1 view .LVU692
 171:Drivers/lvgl/src/indev/lv_indev_scroll.c **** 
 2170              		.loc 1 171 49 is_stmt 0 view .LVU693
 2171 015a D4F8C030 		ldr	r3, [r4, #192]
 171:Drivers/lvgl/src/indev/lv_indev_scroll.c **** 
 2172              		.loc 1 171 59 view .LVU694
 2173 015e C7F16407 		rsb	r7, r7, #100
 2174              	.LVL245:
 171:Drivers/lvgl/src/indev/lv_indev_scroll.c **** 
 2175              		.loc 1 171 52 view .LVU695
 2176 0162 07FB03F3 		mul	r3, r7, r3
 171:Drivers/lvgl/src/indev/lv_indev_scroll.c **** 
 2177              		.loc 1 171 75 view .LVU696
 2178 0166 464A     		ldr	r2, .L135
 2179 0168 82FB0312 		smull	r1, r2, r2, r3
 2180 016c DB17     		asrs	r3, r3, #31
 2181 016e C3EB6213 		rsb	r3, r3, r2, asr #5
 170:Drivers/lvgl/src/indev/lv_indev_scroll.c ****                 indev->pointer.scroll_throw_vect.x * (100 - scroll_throw) / 100;
 2182              		.loc 1 170 48 view .LVU697
 2183 0172 C4F8C030 		str	r3, [r4, #192]
 173:Drivers/lvgl/src/indev/lv_indev_scroll.c ****             int32_t sr = lv_obj_get_scroll_right(scroll_obj);
 2184              		.loc 1 173 13 is_stmt 1 view .LVU698
 173:Drivers/lvgl/src/indev/lv_indev_scroll.c ****             int32_t sr = lv_obj_get_scroll_right(scroll_obj);
 2185              		.loc 1 173 26 is_stmt 0 view .LVU699
 2186 0176 2846     		mov	r0, r5
 2187              	.LVL246:
 173:Drivers/lvgl/src/indev/lv_indev_scroll.c ****             int32_t sr = lv_obj_get_scroll_right(scroll_obj);
 2188              		.loc 1 173 26 view .LVU700
 2189 0178 FFF7FEFF 		bl	lv_obj_get_scroll_left
 2190              	.LVL247:
 2191 017c 0746     		mov	r7, r0
 2192              	.LVL248:
ARM GAS  /var/folders/qx/2_175_4n2s19vhvtspjhb3qh0000gn/T//ccspqae8.s 			page 66


 174:Drivers/lvgl/src/indev/lv_indev_scroll.c **** 
 2193              		.loc 1 174 13 is_stmt 1 view .LVU701
 174:Drivers/lvgl/src/indev/lv_indev_scroll.c **** 
 2194              		.loc 1 174 26 is_stmt 0 view .LVU702
 2195 017e 2846     		mov	r0, r5
 2196              	.LVL249:
 174:Drivers/lvgl/src/indev/lv_indev_scroll.c **** 
 2197              		.loc 1 174 26 view .LVU703
 2198 0180 FFF7FEFF 		bl	lv_obj_get_scroll_right
 2199              	.LVL250:
 2200 0184 0346     		mov	r3, r0
 2201              	.LVL251:
 176:Drivers/lvgl/src/indev/lv_indev_scroll.c ****                                                               LV_DIR_HOR);
 2202              		.loc 1 176 13 is_stmt 1 view .LVU704
 176:Drivers/lvgl/src/indev/lv_indev_scroll.c ****                                                               LV_DIR_HOR);
 2203              		.loc 1 176 50 is_stmt 0 view .LVU705
 2204 0186 0322     		movs	r2, #3
 2205 0188 0092     		str	r2, [sp]
 2206 018a 3A46     		mov	r2, r7
 2207 018c D4F8C010 		ldr	r1, [r4, #192]
 2208 0190 2846     		mov	r0, r5
 2209              	.LVL252:
 176:Drivers/lvgl/src/indev/lv_indev_scroll.c ****                                                               LV_DIR_HOR);
 2210              		.loc 1 176 50 view .LVU706
 2211 0192 FFF7FEFF 		bl	elastic_diff
 2212              	.LVL253:
 176:Drivers/lvgl/src/indev/lv_indev_scroll.c ****                                                               LV_DIR_HOR);
 2213              		.loc 1 176 50 view .LVU707
 2214 0196 0146     		mov	r1, r0
 176:Drivers/lvgl/src/indev/lv_indev_scroll.c ****                                                               LV_DIR_HOR);
 2215              		.loc 1 176 48 discriminator 1 view .LVU708
 2216 0198 C4F8C000 		str	r0, [r4, #192]
 179:Drivers/lvgl/src/indev/lv_indev_scroll.c ****             if(indev->reset_query) return;
 2217              		.loc 1 179 13 is_stmt 1 view .LVU709
 2218 019c 0022     		movs	r2, #0
 2219 019e 2846     		mov	r0, r5
 2220 01a0 FFF7FEFF 		bl	lv_obj_scroll_by_raw
 2221              	.LVL254:
 180:Drivers/lvgl/src/indev/lv_indev_scroll.c ****         }
 2222              		.loc 1 180 13 view .LVU710
 180:Drivers/lvgl/src/indev/lv_indev_scroll.c ****         }
 2223              		.loc 1 180 16 is_stmt 0 view .LVU711
 2224 01a4 E37A     		ldrb	r3, [r4, #11]	@ zero_extendqisi2
 180:Drivers/lvgl/src/indev/lv_indev_scroll.c ****         }
 2225              		.loc 1 180 15 view .LVU712
 2226 01a6 13F0020F 		tst	r3, #2
 2227 01aa 3FF454AF 		beq	.L119
 2228 01ae 33E7     		b	.L114
 2229              	.LVL255:
 2230              	.L121:
 180:Drivers/lvgl/src/indev/lv_indev_scroll.c ****         }
 2231              		.loc 1 180 15 view .LVU713
 2232              	.LBE116:
 2233              	.LBB117:
 184:Drivers/lvgl/src/indev/lv_indev_scroll.c ****             indev->pointer.scroll_throw_vect.x = 0;
 2234              		.loc 1 184 13 is_stmt 1 view .LVU714
 184:Drivers/lvgl/src/indev/lv_indev_scroll.c ****             indev->pointer.scroll_throw_vect.x = 0;
ARM GAS  /var/folders/qx/2_175_4n2s19vhvtspjhb3qh0000gn/T//ccspqae8.s 			page 67


 2235              		.loc 1 184 30 is_stmt 0 view .LVU715
 2236 01b0 0321     		movs	r1, #3
 2237 01b2 2046     		mov	r0, r4
 2238              	.LVL256:
 184:Drivers/lvgl/src/indev/lv_indev_scroll.c ****             indev->pointer.scroll_throw_vect.x = 0;
 2239              		.loc 1 184 30 view .LVU716
 2240 01b4 FFF7FEFF 		bl	lv_indev_scroll_throw_predict
 2241              	.LVL257:
 184:Drivers/lvgl/src/indev/lv_indev_scroll.c ****             indev->pointer.scroll_throw_vect.x = 0;
 2242              		.loc 1 184 21 discriminator 1 view .LVU717
 2243 01b8 0390     		str	r0, [sp, #12]
 185:Drivers/lvgl/src/indev/lv_indev_scroll.c ****             scroll_limit_diff(indev, &diff_x, NULL);
 2244              		.loc 1 185 13 is_stmt 1 view .LVU718
 185:Drivers/lvgl/src/indev/lv_indev_scroll.c ****             scroll_limit_diff(indev, &diff_x, NULL);
 2245              		.loc 1 185 48 is_stmt 0 view .LVU719
 2246 01ba 0027     		movs	r7, #0
 2247              	.LVL258:
 185:Drivers/lvgl/src/indev/lv_indev_scroll.c ****             scroll_limit_diff(indev, &diff_x, NULL);
 2248              		.loc 1 185 48 view .LVU720
 2249 01bc C4F8C070 		str	r7, [r4, #192]
 186:Drivers/lvgl/src/indev/lv_indev_scroll.c ****             int32_t x = find_snap_point_x(scroll_obj, LV_COORD_MIN, LV_COORD_MAX, diff_x);
 2250              		.loc 1 186 13 is_stmt 1 view .LVU721
 2251 01c0 3A46     		mov	r2, r7
 2252 01c2 03A9     		add	r1, sp, #12
 2253 01c4 2046     		mov	r0, r4
 2254 01c6 FFF7FEFF 		bl	scroll_limit_diff
 2255              	.LVL259:
 187:Drivers/lvgl/src/indev/lv_indev_scroll.c ****             lv_obj_scroll_by(scroll_obj, x + diff_x, 0, LV_ANIM_ON);
 2256              		.loc 1 187 13 view .LVU722
 187:Drivers/lvgl/src/indev/lv_indev_scroll.c ****             lv_obj_scroll_by(scroll_obj, x + diff_x, 0, LV_ANIM_ON);
 2257              		.loc 1 187 25 is_stmt 0 view .LVU723
 2258 01ca 039B     		ldr	r3, [sp, #12]
 2259 01cc 6FF06042 		mvn	r2, #-536870912
 2260 01d0 2C49     		ldr	r1, .L135+4
 2261 01d2 2846     		mov	r0, r5
 2262 01d4 FFF7FEFF 		bl	find_snap_point_x
 2263              	.LVL260:
 188:Drivers/lvgl/src/indev/lv_indev_scroll.c ****             if(indev->reset_query) return;
 2264              		.loc 1 188 13 is_stmt 1 view .LVU724
 2265 01d8 0123     		movs	r3, #1
 2266 01da 3A46     		mov	r2, r7
 2267 01dc 0399     		ldr	r1, [sp, #12]
 2268 01de 0144     		add	r1, r1, r0
 2269 01e0 2846     		mov	r0, r5
 2270              	.LVL261:
 188:Drivers/lvgl/src/indev/lv_indev_scroll.c ****             if(indev->reset_query) return;
 2271              		.loc 1 188 13 is_stmt 0 view .LVU725
 2272 01e2 FFF7FEFF 		bl	lv_obj_scroll_by
 2273              	.LVL262:
 189:Drivers/lvgl/src/indev/lv_indev_scroll.c ****         }
 2274              		.loc 1 189 13 is_stmt 1 view .LVU726
 189:Drivers/lvgl/src/indev/lv_indev_scroll.c ****         }
 2275              		.loc 1 189 16 is_stmt 0 view .LVU727
 2276 01e6 E37A     		ldrb	r3, [r4, #11]	@ zero_extendqisi2
 189:Drivers/lvgl/src/indev/lv_indev_scroll.c ****         }
 2277              		.loc 1 189 15 view .LVU728
 2278 01e8 13F0020F 		tst	r3, #2
ARM GAS  /var/folders/qx/2_175_4n2s19vhvtspjhb3qh0000gn/T//ccspqae8.s 			page 68


 2279 01ec 3FF433AF 		beq	.L119
 2280 01f0 12E7     		b	.L114
 2281              	.LVL263:
 2282              	.L131:
 189:Drivers/lvgl/src/indev/lv_indev_scroll.c ****         }
 2283              		.loc 1 189 15 view .LVU729
 2284              	.LBE117:
 2285              	.LBB118:
 198:Drivers/lvgl/src/indev/lv_indev_scroll.c ****             int32_t sb = lv_obj_get_scroll_bottom(scroll_obj);
 2286              		.loc 1 198 13 is_stmt 1 view .LVU730
 198:Drivers/lvgl/src/indev/lv_indev_scroll.c ****             int32_t sb = lv_obj_get_scroll_bottom(scroll_obj);
 2287              		.loc 1 198 26 is_stmt 0 view .LVU731
 2288 01f2 2846     		mov	r0, r5
 2289 01f4 FFF7FEFF 		bl	lv_obj_get_scroll_top
 2290              	.LVL264:
 2291 01f8 0646     		mov	r6, r0
 2292              	.LVL265:
 199:Drivers/lvgl/src/indev/lv_indev_scroll.c ****             if(st > 0 || sb > 0) {
 2293              		.loc 1 199 13 is_stmt 1 view .LVU732
 199:Drivers/lvgl/src/indev/lv_indev_scroll.c ****             if(st > 0 || sb > 0) {
 2294              		.loc 1 199 26 is_stmt 0 view .LVU733
 2295 01fa 2846     		mov	r0, r5
 2296              	.LVL266:
 199:Drivers/lvgl/src/indev/lv_indev_scroll.c ****             if(st > 0 || sb > 0) {
 2297              		.loc 1 199 26 view .LVU734
 2298 01fc FFF7FEFF 		bl	lv_obj_get_scroll_bottom
 2299              	.LVL267:
 200:Drivers/lvgl/src/indev/lv_indev_scroll.c ****                 if(st < 0) {
 2300              		.loc 1 200 13 is_stmt 1 view .LVU735
 200:Drivers/lvgl/src/indev/lv_indev_scroll.c ****                 if(st < 0) {
 2301              		.loc 1 200 15 is_stmt 0 view .LVU736
 2302 0200 002E     		cmp	r6, #0
 2303 0202 0EDD     		ble	.L134
 2304              	.L124:
 205:Drivers/lvgl/src/indev/lv_indev_scroll.c ****                     lv_obj_scroll_by(scroll_obj, 0, -sb, LV_ANIM_ON);
 2305              		.loc 1 205 22 is_stmt 1 view .LVU737
 205:Drivers/lvgl/src/indev/lv_indev_scroll.c ****                     lv_obj_scroll_by(scroll_obj, 0, -sb, LV_ANIM_ON);
 2306              		.loc 1 205 24 is_stmt 0 view .LVU738
 2307 0204 0028     		cmp	r0, #0
 2308 0206 BFF631AF 		bge	.L123
 206:Drivers/lvgl/src/indev/lv_indev_scroll.c ****                     if(indev->reset_query) return;
 2309              		.loc 1 206 21 is_stmt 1 view .LVU739
 2310 020a 0123     		movs	r3, #1
 2311 020c 4242     		rsbs	r2, r0, #0
 2312 020e 0021     		movs	r1, #0
 2313 0210 2846     		mov	r0, r5
 2314              	.LVL268:
 206:Drivers/lvgl/src/indev/lv_indev_scroll.c ****                     if(indev->reset_query) return;
 2315              		.loc 1 206 21 is_stmt 0 view .LVU740
 2316 0212 FFF7FEFF 		bl	lv_obj_scroll_by
 2317              	.LVL269:
 207:Drivers/lvgl/src/indev/lv_indev_scroll.c ****                 }
 2318              		.loc 1 207 21 is_stmt 1 view .LVU741
 207:Drivers/lvgl/src/indev/lv_indev_scroll.c ****                 }
 2319              		.loc 1 207 24 is_stmt 0 view .LVU742
 2320 0216 E37A     		ldrb	r3, [r4, #11]	@ zero_extendqisi2
 207:Drivers/lvgl/src/indev/lv_indev_scroll.c ****                 }
ARM GAS  /var/folders/qx/2_175_4n2s19vhvtspjhb3qh0000gn/T//ccspqae8.s 			page 69


 2321              		.loc 1 207 23 view .LVU743
 2322 0218 13F0020F 		tst	r3, #2
 2323 021c 3FF426AF 		beq	.L123
 2324 0220 FAE6     		b	.L114
 2325              	.LVL270:
 2326              	.L134:
 200:Drivers/lvgl/src/indev/lv_indev_scroll.c ****                 if(st < 0) {
 2327              		.loc 1 200 23 discriminator 1 view .LVU744
 2328 0222 0028     		cmp	r0, #0
 2329 0224 7FF722AF 		ble	.L123
 201:Drivers/lvgl/src/indev/lv_indev_scroll.c ****                     lv_obj_scroll_by(scroll_obj, 0, st, LV_ANIM_ON);
 2330              		.loc 1 201 17 is_stmt 1 view .LVU745
 201:Drivers/lvgl/src/indev/lv_indev_scroll.c ****                     lv_obj_scroll_by(scroll_obj, 0, st, LV_ANIM_ON);
 2331              		.loc 1 201 19 is_stmt 0 view .LVU746
 2332 0228 002E     		cmp	r6, #0
 2333 022a EBDA     		bge	.L124
 202:Drivers/lvgl/src/indev/lv_indev_scroll.c ****                     if(indev->reset_query) return;
 2334              		.loc 1 202 21 is_stmt 1 view .LVU747
 2335 022c 0123     		movs	r3, #1
 2336 022e 3246     		mov	r2, r6
 2337 0230 0021     		movs	r1, #0
 2338 0232 2846     		mov	r0, r5
 2339              	.LVL271:
 202:Drivers/lvgl/src/indev/lv_indev_scroll.c ****                     if(indev->reset_query) return;
 2340              		.loc 1 202 21 is_stmt 0 view .LVU748
 2341 0234 FFF7FEFF 		bl	lv_obj_scroll_by
 2342              	.LVL272:
 203:Drivers/lvgl/src/indev/lv_indev_scroll.c ****                 }
 2343              		.loc 1 203 21 is_stmt 1 view .LVU749
 203:Drivers/lvgl/src/indev/lv_indev_scroll.c ****                 }
 2344              		.loc 1 203 24 is_stmt 0 view .LVU750
 2345 0238 E37A     		ldrb	r3, [r4, #11]	@ zero_extendqisi2
 203:Drivers/lvgl/src/indev/lv_indev_scroll.c ****                 }
 2346              		.loc 1 203 23 view .LVU751
 2347 023a 13F0020F 		tst	r3, #2
 2348 023e 3FF415AF 		beq	.L123
 2349 0242 E9E6     		b	.L114
 2350              	.LVL273:
 2351              	.L132:
 203:Drivers/lvgl/src/indev/lv_indev_scroll.c ****                 }
 2352              		.loc 1 203 23 view .LVU752
 2353              	.LBE118:
 2354              	.LBB119:
 216:Drivers/lvgl/src/indev/lv_indev_scroll.c ****                 if(sl < 0) {
 2355              		.loc 1 216 23 discriminator 1 view .LVU753
 2356 0244 0028     		cmp	r0, #0
 2357 0246 7FF721AF 		ble	.L125
 217:Drivers/lvgl/src/indev/lv_indev_scroll.c ****                     lv_obj_scroll_by(scroll_obj, sl, 0, LV_ANIM_ON);
 2358              		.loc 1 217 17 is_stmt 1 view .LVU754
 217:Drivers/lvgl/src/indev/lv_indev_scroll.c ****                     lv_obj_scroll_by(scroll_obj, sl, 0, LV_ANIM_ON);
 2359              		.loc 1 217 19 is_stmt 0 view .LVU755
 2360 024a 002E     		cmp	r6, #0
 2361 024c BFF61BAF 		bge	.L126
 218:Drivers/lvgl/src/indev/lv_indev_scroll.c ****                     if(indev->reset_query) return;
 2362              		.loc 1 218 21 is_stmt 1 view .LVU756
 2363 0250 0123     		movs	r3, #1
 2364 0252 0022     		movs	r2, #0
ARM GAS  /var/folders/qx/2_175_4n2s19vhvtspjhb3qh0000gn/T//ccspqae8.s 			page 70


 2365 0254 3146     		mov	r1, r6
 2366 0256 2846     		mov	r0, r5
 2367              	.LVL274:
 218:Drivers/lvgl/src/indev/lv_indev_scroll.c ****                     if(indev->reset_query) return;
 2368              		.loc 1 218 21 is_stmt 0 view .LVU757
 2369 0258 FFF7FEFF 		bl	lv_obj_scroll_by
 2370              	.LVL275:
 219:Drivers/lvgl/src/indev/lv_indev_scroll.c ****                 }
 2371              		.loc 1 219 21 is_stmt 1 view .LVU758
 219:Drivers/lvgl/src/indev/lv_indev_scroll.c ****                 }
 2372              		.loc 1 219 24 is_stmt 0 view .LVU759
 2373 025c E37A     		ldrb	r3, [r4, #11]	@ zero_extendqisi2
 219:Drivers/lvgl/src/indev/lv_indev_scroll.c ****                 }
 2374              		.loc 1 219 23 view .LVU760
 2375 025e 13F0020F 		tst	r3, #2
 2376 0262 3FF413AF 		beq	.L125
 2377 0266 D7E6     		b	.L114
 2378              	.LVL276:
 2379              	.L133:
 222:Drivers/lvgl/src/indev/lv_indev_scroll.c ****                     if(indev->reset_query) return;
 2380              		.loc 1 222 21 is_stmt 1 view .LVU761
 2381 0268 0123     		movs	r3, #1
 2382 026a 0022     		movs	r2, #0
 2383 026c 4142     		rsbs	r1, r0, #0
 2384 026e 2846     		mov	r0, r5
 2385              	.LVL277:
 222:Drivers/lvgl/src/indev/lv_indev_scroll.c ****                     if(indev->reset_query) return;
 2386              		.loc 1 222 21 is_stmt 0 view .LVU762
 2387 0270 FFF7FEFF 		bl	lv_obj_scroll_by
 2388              	.LVL278:
 223:Drivers/lvgl/src/indev/lv_indev_scroll.c ****                 }
 2389              		.loc 1 223 21 is_stmt 1 view .LVU763
 223:Drivers/lvgl/src/indev/lv_indev_scroll.c ****                 }
 2390              		.loc 1 223 24 is_stmt 0 view .LVU764
 2391 0274 E37A     		ldrb	r3, [r4, #11]	@ zero_extendqisi2
 223:Drivers/lvgl/src/indev/lv_indev_scroll.c ****                 }
 2392              		.loc 1 223 23 view .LVU765
 2393 0276 13F0020F 		tst	r3, #2
 2394 027a 3FF407AF 		beq	.L125
 2395 027e CBE6     		b	.L114
 2396              	.L136:
 2397              		.align	2
 2398              	.L135:
 2399 0280 1F85EB51 		.word	1374389535
 2400 0284 010000E0 		.word	-536870911
 2401              	.LBE119:
 2402              		.cfi_endproc
 2403              	.LFE182:
 2405              		.section	.text.lv_indev_scroll_get_snap_dist,"ax",%progbits
 2406              		.align	1
 2407              		.global	lv_indev_scroll_get_snap_dist
 2408              		.syntax unified
 2409              		.thumb
 2410              		.thumb_func
 2412              	lv_indev_scroll_get_snap_dist:
 2413              	.LVL279:
 2414              	.LFB184:
ARM GAS  /var/folders/qx/2_175_4n2s19vhvtspjhb3qh0000gn/T//ccspqae8.s 			page 71


 262:Drivers/lvgl/src/indev/lv_indev_scroll.c ****     p->x = find_snap_point_x(obj, obj->coords.x1, obj->coords.x2, 0);
 2415              		.loc 1 262 1 is_stmt 1 view -0
 2416              		.cfi_startproc
