ARM GAS  /var/folders/qx/2_175_4n2s19vhvtspjhb3qh0000gn/T//ccirZTpW.s 			page 1


   1              		.cpu cortex-m4
   2              		.arch armv7e-m
   3              		.fpu fpv4-sp-d16
   4              		.eabi_attribute 27, 1
   5              		.eabi_attribute 28, 1
   6              		.eabi_attribute 20, 1
   7              		.eabi_attribute 21, 1
   8              		.eabi_attribute 23, 3
   9              		.eabi_attribute 24, 1
  10              		.eabi_attribute 25, 1
  11              		.eabi_attribute 26, 1
  12              		.eabi_attribute 30, 1
  13              		.eabi_attribute 34, 1
  14              		.eabi_attribute 18, 4
  15              		.file	"lv_checkbox.c"
  16              		.text
  17              	.Ltext0:
  18              		.cfi_sections	.debug_frame
  19              		.file 1 "Drivers/lvgl/src/widgets/checkbox/lv_checkbox.c"
  20              		.section	.text.lv_checkbox_draw,"ax",%progbits
  21              		.align	1
  22              		.syntax unified
  23              		.thumb
  24              		.thumb_func
  26              	lv_checkbox_draw:
  27              	.LVL0:
  28              	.LFB191:
   1:Drivers/lvgl/src/widgets/checkbox/lv_checkbox.c **** /**
   2:Drivers/lvgl/src/widgets/checkbox/lv_checkbox.c ****  * @file lv_checkbox.c
   3:Drivers/lvgl/src/widgets/checkbox/lv_checkbox.c ****  *
   4:Drivers/lvgl/src/widgets/checkbox/lv_checkbox.c ****  */
   5:Drivers/lvgl/src/widgets/checkbox/lv_checkbox.c **** 
   6:Drivers/lvgl/src/widgets/checkbox/lv_checkbox.c **** /*********************
   7:Drivers/lvgl/src/widgets/checkbox/lv_checkbox.c ****  *      INCLUDES
   8:Drivers/lvgl/src/widgets/checkbox/lv_checkbox.c ****  *********************/
   9:Drivers/lvgl/src/widgets/checkbox/lv_checkbox.c **** #include "lv_checkbox_private.h"
  10:Drivers/lvgl/src/widgets/checkbox/lv_checkbox.c **** #include "../../core/lv_obj_private.h"
  11:Drivers/lvgl/src/widgets/checkbox/lv_checkbox.c **** #include "../../core/lv_obj_class_private.h"
  12:Drivers/lvgl/src/widgets/checkbox/lv_checkbox.c **** #if LV_USE_CHECKBOX != 0
  13:Drivers/lvgl/src/widgets/checkbox/lv_checkbox.c **** 
  14:Drivers/lvgl/src/widgets/checkbox/lv_checkbox.c **** #include "../../misc/lv_assert.h"
  15:Drivers/lvgl/src/widgets/checkbox/lv_checkbox.c **** #include "../../misc/lv_text_private.h"
  16:Drivers/lvgl/src/widgets/checkbox/lv_checkbox.c **** #include "../../misc/lv_text_ap.h"
  17:Drivers/lvgl/src/widgets/checkbox/lv_checkbox.c **** #include "../../core/lv_group.h"
  18:Drivers/lvgl/src/widgets/checkbox/lv_checkbox.c **** #include "../../draw/lv_draw.h"
  19:Drivers/lvgl/src/widgets/checkbox/lv_checkbox.c **** #include "../../stdlib/lv_string.h"
  20:Drivers/lvgl/src/widgets/checkbox/lv_checkbox.c **** 
  21:Drivers/lvgl/src/widgets/checkbox/lv_checkbox.c **** /*********************
  22:Drivers/lvgl/src/widgets/checkbox/lv_checkbox.c ****  *      DEFINES
  23:Drivers/lvgl/src/widgets/checkbox/lv_checkbox.c ****  *********************/
  24:Drivers/lvgl/src/widgets/checkbox/lv_checkbox.c **** #define MY_CLASS (&lv_checkbox_class)
  25:Drivers/lvgl/src/widgets/checkbox/lv_checkbox.c **** 
  26:Drivers/lvgl/src/widgets/checkbox/lv_checkbox.c **** /**********************
  27:Drivers/lvgl/src/widgets/checkbox/lv_checkbox.c ****  *      TYPEDEFS
  28:Drivers/lvgl/src/widgets/checkbox/lv_checkbox.c ****  **********************/
  29:Drivers/lvgl/src/widgets/checkbox/lv_checkbox.c **** 
  30:Drivers/lvgl/src/widgets/checkbox/lv_checkbox.c **** /**********************
ARM GAS  /var/folders/qx/2_175_4n2s19vhvtspjhb3qh0000gn/T//ccirZTpW.s 			page 2


  31:Drivers/lvgl/src/widgets/checkbox/lv_checkbox.c ****  *  STATIC PROTOTYPES
  32:Drivers/lvgl/src/widgets/checkbox/lv_checkbox.c ****  **********************/
  33:Drivers/lvgl/src/widgets/checkbox/lv_checkbox.c **** static void lv_checkbox_constructor(const lv_obj_class_t * class_p, lv_obj_t * obj);
  34:Drivers/lvgl/src/widgets/checkbox/lv_checkbox.c **** static void lv_checkbox_destructor(const lv_obj_class_t * class_p, lv_obj_t * obj);
  35:Drivers/lvgl/src/widgets/checkbox/lv_checkbox.c **** static void lv_checkbox_event(const lv_obj_class_t * class_p, lv_event_t * e);
  36:Drivers/lvgl/src/widgets/checkbox/lv_checkbox.c **** static void lv_checkbox_draw(lv_event_t * e);
  37:Drivers/lvgl/src/widgets/checkbox/lv_checkbox.c **** 
  38:Drivers/lvgl/src/widgets/checkbox/lv_checkbox.c **** /**********************
  39:Drivers/lvgl/src/widgets/checkbox/lv_checkbox.c ****  *  STATIC VARIABLES
  40:Drivers/lvgl/src/widgets/checkbox/lv_checkbox.c ****  **********************/
  41:Drivers/lvgl/src/widgets/checkbox/lv_checkbox.c **** 
  42:Drivers/lvgl/src/widgets/checkbox/lv_checkbox.c **** #if LV_USE_OBJ_PROPERTY
  43:Drivers/lvgl/src/widgets/checkbox/lv_checkbox.c **** static const lv_property_ops_t lv_checkbox_properties[] = {
  44:Drivers/lvgl/src/widgets/checkbox/lv_checkbox.c ****     {
  45:Drivers/lvgl/src/widgets/checkbox/lv_checkbox.c ****         .id = LV_PROPERTY_CHECKBOX_TEXT,
  46:Drivers/lvgl/src/widgets/checkbox/lv_checkbox.c ****         .setter = lv_checkbox_set_text,
  47:Drivers/lvgl/src/widgets/checkbox/lv_checkbox.c ****         .getter = lv_checkbox_get_text,
  48:Drivers/lvgl/src/widgets/checkbox/lv_checkbox.c ****     },
  49:Drivers/lvgl/src/widgets/checkbox/lv_checkbox.c **** };
  50:Drivers/lvgl/src/widgets/checkbox/lv_checkbox.c **** #endif
  51:Drivers/lvgl/src/widgets/checkbox/lv_checkbox.c **** 
  52:Drivers/lvgl/src/widgets/checkbox/lv_checkbox.c **** const lv_obj_class_t lv_checkbox_class = {
  53:Drivers/lvgl/src/widgets/checkbox/lv_checkbox.c ****     .constructor_cb = lv_checkbox_constructor,
  54:Drivers/lvgl/src/widgets/checkbox/lv_checkbox.c ****     .destructor_cb = lv_checkbox_destructor,
  55:Drivers/lvgl/src/widgets/checkbox/lv_checkbox.c ****     .event_cb = lv_checkbox_event,
  56:Drivers/lvgl/src/widgets/checkbox/lv_checkbox.c ****     .width_def = LV_SIZE_CONTENT,
  57:Drivers/lvgl/src/widgets/checkbox/lv_checkbox.c ****     .height_def = LV_SIZE_CONTENT,
  58:Drivers/lvgl/src/widgets/checkbox/lv_checkbox.c ****     .group_def = LV_OBJ_CLASS_GROUP_DEF_TRUE,
  59:Drivers/lvgl/src/widgets/checkbox/lv_checkbox.c ****     .instance_size = sizeof(lv_checkbox_t),
  60:Drivers/lvgl/src/widgets/checkbox/lv_checkbox.c ****     .base_class = &lv_obj_class,
  61:Drivers/lvgl/src/widgets/checkbox/lv_checkbox.c ****     .name = "lv_checkbox",
  62:Drivers/lvgl/src/widgets/checkbox/lv_checkbox.c ****     LV_PROPERTY_CLASS_FIELDS(checkbox, CHECKBOX)
  63:Drivers/lvgl/src/widgets/checkbox/lv_checkbox.c **** };
  64:Drivers/lvgl/src/widgets/checkbox/lv_checkbox.c **** 
  65:Drivers/lvgl/src/widgets/checkbox/lv_checkbox.c **** /**********************
  66:Drivers/lvgl/src/widgets/checkbox/lv_checkbox.c ****  *      MACROS
  67:Drivers/lvgl/src/widgets/checkbox/lv_checkbox.c ****  **********************/
  68:Drivers/lvgl/src/widgets/checkbox/lv_checkbox.c **** 
  69:Drivers/lvgl/src/widgets/checkbox/lv_checkbox.c **** /**********************
  70:Drivers/lvgl/src/widgets/checkbox/lv_checkbox.c ****  *   GLOBAL FUNCTIONS
  71:Drivers/lvgl/src/widgets/checkbox/lv_checkbox.c ****  **********************/
  72:Drivers/lvgl/src/widgets/checkbox/lv_checkbox.c **** 
  73:Drivers/lvgl/src/widgets/checkbox/lv_checkbox.c **** lv_obj_t * lv_checkbox_create(lv_obj_t * parent)
  74:Drivers/lvgl/src/widgets/checkbox/lv_checkbox.c **** {
  75:Drivers/lvgl/src/widgets/checkbox/lv_checkbox.c ****     LV_LOG_INFO("begin");
  76:Drivers/lvgl/src/widgets/checkbox/lv_checkbox.c ****     lv_obj_t * obj = lv_obj_class_create_obj(MY_CLASS, parent);
  77:Drivers/lvgl/src/widgets/checkbox/lv_checkbox.c ****     lv_obj_class_init_obj(obj);
  78:Drivers/lvgl/src/widgets/checkbox/lv_checkbox.c ****     return obj;
  79:Drivers/lvgl/src/widgets/checkbox/lv_checkbox.c **** }
  80:Drivers/lvgl/src/widgets/checkbox/lv_checkbox.c **** 
  81:Drivers/lvgl/src/widgets/checkbox/lv_checkbox.c **** /*=====================
  82:Drivers/lvgl/src/widgets/checkbox/lv_checkbox.c ****  * Setter functions
  83:Drivers/lvgl/src/widgets/checkbox/lv_checkbox.c ****  *====================*/
  84:Drivers/lvgl/src/widgets/checkbox/lv_checkbox.c **** 
  85:Drivers/lvgl/src/widgets/checkbox/lv_checkbox.c **** void lv_checkbox_set_text(lv_obj_t * obj, const char * txt)
  86:Drivers/lvgl/src/widgets/checkbox/lv_checkbox.c **** {
  87:Drivers/lvgl/src/widgets/checkbox/lv_checkbox.c ****     lv_checkbox_t * cb = (lv_checkbox_t *)obj;
ARM GAS  /var/folders/qx/2_175_4n2s19vhvtspjhb3qh0000gn/T//ccirZTpW.s 			page 3


  88:Drivers/lvgl/src/widgets/checkbox/lv_checkbox.c **** 
  89:Drivers/lvgl/src/widgets/checkbox/lv_checkbox.c ****     if(NULL != txt) {
  90:Drivers/lvgl/src/widgets/checkbox/lv_checkbox.c ****         size_t len;
  91:Drivers/lvgl/src/widgets/checkbox/lv_checkbox.c **** 
  92:Drivers/lvgl/src/widgets/checkbox/lv_checkbox.c **** #if LV_USE_ARABIC_PERSIAN_CHARS
  93:Drivers/lvgl/src/widgets/checkbox/lv_checkbox.c ****         len = lv_text_ap_calc_bytes_count(txt) + 1;
  94:Drivers/lvgl/src/widgets/checkbox/lv_checkbox.c **** #else
  95:Drivers/lvgl/src/widgets/checkbox/lv_checkbox.c ****         len = lv_strlen(txt) + 1;
  96:Drivers/lvgl/src/widgets/checkbox/lv_checkbox.c **** #endif
  97:Drivers/lvgl/src/widgets/checkbox/lv_checkbox.c **** 
  98:Drivers/lvgl/src/widgets/checkbox/lv_checkbox.c ****         if(!cb->static_txt) cb->txt = lv_realloc(cb->txt, len);
  99:Drivers/lvgl/src/widgets/checkbox/lv_checkbox.c ****         else cb->txt = lv_malloc(len);
 100:Drivers/lvgl/src/widgets/checkbox/lv_checkbox.c **** 
 101:Drivers/lvgl/src/widgets/checkbox/lv_checkbox.c ****         LV_ASSERT_MALLOC(cb->txt);
 102:Drivers/lvgl/src/widgets/checkbox/lv_checkbox.c ****         if(NULL == cb->txt) return;
 103:Drivers/lvgl/src/widgets/checkbox/lv_checkbox.c **** 
 104:Drivers/lvgl/src/widgets/checkbox/lv_checkbox.c **** #if LV_USE_ARABIC_PERSIAN_CHARS
 105:Drivers/lvgl/src/widgets/checkbox/lv_checkbox.c ****         lv_text_ap_proc(txt, cb->txt);
 106:Drivers/lvgl/src/widgets/checkbox/lv_checkbox.c **** #else
 107:Drivers/lvgl/src/widgets/checkbox/lv_checkbox.c ****         lv_strcpy(cb->txt, txt);
 108:Drivers/lvgl/src/widgets/checkbox/lv_checkbox.c **** #endif
 109:Drivers/lvgl/src/widgets/checkbox/lv_checkbox.c **** 
 110:Drivers/lvgl/src/widgets/checkbox/lv_checkbox.c ****         cb->static_txt = 0;
 111:Drivers/lvgl/src/widgets/checkbox/lv_checkbox.c ****     }
 112:Drivers/lvgl/src/widgets/checkbox/lv_checkbox.c **** 
 113:Drivers/lvgl/src/widgets/checkbox/lv_checkbox.c ****     lv_obj_refresh_self_size(obj);
 114:Drivers/lvgl/src/widgets/checkbox/lv_checkbox.c ****     lv_obj_invalidate(obj);
 115:Drivers/lvgl/src/widgets/checkbox/lv_checkbox.c **** }
 116:Drivers/lvgl/src/widgets/checkbox/lv_checkbox.c **** 
 117:Drivers/lvgl/src/widgets/checkbox/lv_checkbox.c **** void lv_checkbox_set_text_static(lv_obj_t * obj, const char * txt)
 118:Drivers/lvgl/src/widgets/checkbox/lv_checkbox.c **** {
 119:Drivers/lvgl/src/widgets/checkbox/lv_checkbox.c ****     lv_checkbox_t * cb = (lv_checkbox_t *)obj;
 120:Drivers/lvgl/src/widgets/checkbox/lv_checkbox.c **** 
 121:Drivers/lvgl/src/widgets/checkbox/lv_checkbox.c ****     if(!cb->static_txt) lv_free(cb->txt);
 122:Drivers/lvgl/src/widgets/checkbox/lv_checkbox.c **** 
 123:Drivers/lvgl/src/widgets/checkbox/lv_checkbox.c ****     cb->txt = (char *)txt;
 124:Drivers/lvgl/src/widgets/checkbox/lv_checkbox.c ****     cb->static_txt = 1;
 125:Drivers/lvgl/src/widgets/checkbox/lv_checkbox.c **** 
 126:Drivers/lvgl/src/widgets/checkbox/lv_checkbox.c ****     lv_obj_refresh_self_size(obj);
 127:Drivers/lvgl/src/widgets/checkbox/lv_checkbox.c ****     lv_obj_invalidate(obj);
 128:Drivers/lvgl/src/widgets/checkbox/lv_checkbox.c **** }
 129:Drivers/lvgl/src/widgets/checkbox/lv_checkbox.c **** 
 130:Drivers/lvgl/src/widgets/checkbox/lv_checkbox.c **** /*=====================
 131:Drivers/lvgl/src/widgets/checkbox/lv_checkbox.c ****  * Getter functions
 132:Drivers/lvgl/src/widgets/checkbox/lv_checkbox.c ****  *====================*/
 133:Drivers/lvgl/src/widgets/checkbox/lv_checkbox.c **** 
 134:Drivers/lvgl/src/widgets/checkbox/lv_checkbox.c **** const char * lv_checkbox_get_text(const lv_obj_t * obj)
 135:Drivers/lvgl/src/widgets/checkbox/lv_checkbox.c **** {
 136:Drivers/lvgl/src/widgets/checkbox/lv_checkbox.c ****     lv_checkbox_t * cb = (lv_checkbox_t *)obj;
 137:Drivers/lvgl/src/widgets/checkbox/lv_checkbox.c ****     return cb->txt;
 138:Drivers/lvgl/src/widgets/checkbox/lv_checkbox.c **** }
 139:Drivers/lvgl/src/widgets/checkbox/lv_checkbox.c **** 
 140:Drivers/lvgl/src/widgets/checkbox/lv_checkbox.c **** /**********************
 141:Drivers/lvgl/src/widgets/checkbox/lv_checkbox.c ****  *   STATIC FUNCTIONS
 142:Drivers/lvgl/src/widgets/checkbox/lv_checkbox.c ****  **********************/
 143:Drivers/lvgl/src/widgets/checkbox/lv_checkbox.c **** 
 144:Drivers/lvgl/src/widgets/checkbox/lv_checkbox.c **** static void lv_checkbox_constructor(const lv_obj_class_t * class_p, lv_obj_t * obj)
ARM GAS  /var/folders/qx/2_175_4n2s19vhvtspjhb3qh0000gn/T//ccirZTpW.s 			page 4


 145:Drivers/lvgl/src/widgets/checkbox/lv_checkbox.c **** {
 146:Drivers/lvgl/src/widgets/checkbox/lv_checkbox.c ****     LV_UNUSED(class_p);
 147:Drivers/lvgl/src/widgets/checkbox/lv_checkbox.c ****     LV_TRACE_OBJ_CREATE("begin");
 148:Drivers/lvgl/src/widgets/checkbox/lv_checkbox.c **** 
 149:Drivers/lvgl/src/widgets/checkbox/lv_checkbox.c ****     lv_checkbox_t * cb = (lv_checkbox_t *)obj;
 150:Drivers/lvgl/src/widgets/checkbox/lv_checkbox.c **** 
 151:Drivers/lvgl/src/widgets/checkbox/lv_checkbox.c **** #if LV_WIDGETS_HAS_DEFAULT_VALUE
 152:Drivers/lvgl/src/widgets/checkbox/lv_checkbox.c ****     cb->txt = (char *)"Check box";
 153:Drivers/lvgl/src/widgets/checkbox/lv_checkbox.c ****     cb->static_txt = 1;
 154:Drivers/lvgl/src/widgets/checkbox/lv_checkbox.c **** #else
 155:Drivers/lvgl/src/widgets/checkbox/lv_checkbox.c ****     cb->txt = (char *)"";
 156:Drivers/lvgl/src/widgets/checkbox/lv_checkbox.c ****     cb->static_txt = 1;
 157:Drivers/lvgl/src/widgets/checkbox/lv_checkbox.c **** #endif
 158:Drivers/lvgl/src/widgets/checkbox/lv_checkbox.c **** 
 159:Drivers/lvgl/src/widgets/checkbox/lv_checkbox.c ****     lv_obj_add_flag(obj, LV_OBJ_FLAG_CLICKABLE);
 160:Drivers/lvgl/src/widgets/checkbox/lv_checkbox.c ****     lv_obj_add_flag(obj, LV_OBJ_FLAG_CHECKABLE);
 161:Drivers/lvgl/src/widgets/checkbox/lv_checkbox.c ****     lv_obj_add_flag(obj, LV_OBJ_FLAG_SCROLL_ON_FOCUS);
 162:Drivers/lvgl/src/widgets/checkbox/lv_checkbox.c ****     lv_obj_remove_flag(obj, LV_OBJ_FLAG_SCROLLABLE);
 163:Drivers/lvgl/src/widgets/checkbox/lv_checkbox.c **** 
 164:Drivers/lvgl/src/widgets/checkbox/lv_checkbox.c ****     LV_TRACE_OBJ_CREATE("finished");
 165:Drivers/lvgl/src/widgets/checkbox/lv_checkbox.c **** }
 166:Drivers/lvgl/src/widgets/checkbox/lv_checkbox.c **** 
 167:Drivers/lvgl/src/widgets/checkbox/lv_checkbox.c **** static void lv_checkbox_destructor(const lv_obj_class_t * class_p, lv_obj_t * obj)
 168:Drivers/lvgl/src/widgets/checkbox/lv_checkbox.c **** {
 169:Drivers/lvgl/src/widgets/checkbox/lv_checkbox.c ****     LV_UNUSED(class_p);
 170:Drivers/lvgl/src/widgets/checkbox/lv_checkbox.c ****     LV_TRACE_OBJ_CREATE("begin");
 171:Drivers/lvgl/src/widgets/checkbox/lv_checkbox.c **** 
 172:Drivers/lvgl/src/widgets/checkbox/lv_checkbox.c ****     lv_checkbox_t * cb = (lv_checkbox_t *)obj;
 173:Drivers/lvgl/src/widgets/checkbox/lv_checkbox.c ****     if(!cb->static_txt) {
 174:Drivers/lvgl/src/widgets/checkbox/lv_checkbox.c ****         lv_free(cb->txt);
 175:Drivers/lvgl/src/widgets/checkbox/lv_checkbox.c ****         cb->txt = NULL;
 176:Drivers/lvgl/src/widgets/checkbox/lv_checkbox.c ****     }
 177:Drivers/lvgl/src/widgets/checkbox/lv_checkbox.c ****     LV_TRACE_OBJ_CREATE("finished");
 178:Drivers/lvgl/src/widgets/checkbox/lv_checkbox.c **** }
 179:Drivers/lvgl/src/widgets/checkbox/lv_checkbox.c **** 
 180:Drivers/lvgl/src/widgets/checkbox/lv_checkbox.c **** static void lv_checkbox_event(const lv_obj_class_t * class_p, lv_event_t * e)
 181:Drivers/lvgl/src/widgets/checkbox/lv_checkbox.c **** {
 182:Drivers/lvgl/src/widgets/checkbox/lv_checkbox.c ****     LV_UNUSED(class_p);
 183:Drivers/lvgl/src/widgets/checkbox/lv_checkbox.c **** 
 184:Drivers/lvgl/src/widgets/checkbox/lv_checkbox.c ****     lv_result_t res;
 185:Drivers/lvgl/src/widgets/checkbox/lv_checkbox.c ****     /*Call the ancestor's event handler*/
 186:Drivers/lvgl/src/widgets/checkbox/lv_checkbox.c ****     res = lv_obj_event_base(MY_CLASS, e);
 187:Drivers/lvgl/src/widgets/checkbox/lv_checkbox.c ****     if(res != LV_RESULT_OK) return;
 188:Drivers/lvgl/src/widgets/checkbox/lv_checkbox.c **** 
 189:Drivers/lvgl/src/widgets/checkbox/lv_checkbox.c ****     lv_event_code_t code = lv_event_get_code(e);
 190:Drivers/lvgl/src/widgets/checkbox/lv_checkbox.c ****     lv_obj_t * obj = lv_event_get_current_target(e);
 191:Drivers/lvgl/src/widgets/checkbox/lv_checkbox.c **** 
 192:Drivers/lvgl/src/widgets/checkbox/lv_checkbox.c ****     if(code == LV_EVENT_GET_SELF_SIZE) {
 193:Drivers/lvgl/src/widgets/checkbox/lv_checkbox.c ****         lv_point_t * p = lv_event_get_param(e);
 194:Drivers/lvgl/src/widgets/checkbox/lv_checkbox.c ****         lv_checkbox_t * cb = (lv_checkbox_t *)obj;
 195:Drivers/lvgl/src/widgets/checkbox/lv_checkbox.c **** 
 196:Drivers/lvgl/src/widgets/checkbox/lv_checkbox.c ****         const lv_font_t * font = lv_obj_get_style_text_font(obj, LV_PART_MAIN);
 197:Drivers/lvgl/src/widgets/checkbox/lv_checkbox.c ****         int32_t font_h = lv_font_get_line_height(font);
 198:Drivers/lvgl/src/widgets/checkbox/lv_checkbox.c ****         lv_text_attributes_t attributes = {0};
 199:Drivers/lvgl/src/widgets/checkbox/lv_checkbox.c **** 
 200:Drivers/lvgl/src/widgets/checkbox/lv_checkbox.c ****         attributes.line_space = lv_obj_get_style_text_line_space(obj, LV_PART_MAIN);
 201:Drivers/lvgl/src/widgets/checkbox/lv_checkbox.c ****         attributes.letter_space = lv_obj_get_style_text_letter_space(obj, LV_PART_MAIN);
ARM GAS  /var/folders/qx/2_175_4n2s19vhvtspjhb3qh0000gn/T//ccirZTpW.s 			page 5


 202:Drivers/lvgl/src/widgets/checkbox/lv_checkbox.c ****         attributes.max_width = LV_COORD_MAX;
 203:Drivers/lvgl/src/widgets/checkbox/lv_checkbox.c ****         attributes.text_flags = LV_TEXT_FLAG_NONE;
 204:Drivers/lvgl/src/widgets/checkbox/lv_checkbox.c **** 
 205:Drivers/lvgl/src/widgets/checkbox/lv_checkbox.c ****         lv_point_t txt_size;
 206:Drivers/lvgl/src/widgets/checkbox/lv_checkbox.c **** 
 207:Drivers/lvgl/src/widgets/checkbox/lv_checkbox.c ****         lv_text_get_size_attributes(&txt_size, cb->txt, font, &attributes);
 208:Drivers/lvgl/src/widgets/checkbox/lv_checkbox.c **** 
 209:Drivers/lvgl/src/widgets/checkbox/lv_checkbox.c ****         int32_t bg_colp = lv_obj_get_style_pad_column(obj, LV_PART_MAIN);
 210:Drivers/lvgl/src/widgets/checkbox/lv_checkbox.c ****         int32_t marker_leftp = lv_obj_get_style_pad_left(obj, LV_PART_INDICATOR);
 211:Drivers/lvgl/src/widgets/checkbox/lv_checkbox.c ****         int32_t marker_rightp = lv_obj_get_style_pad_right(obj, LV_PART_INDICATOR);
 212:Drivers/lvgl/src/widgets/checkbox/lv_checkbox.c ****         int32_t marker_topp = lv_obj_get_style_pad_top(obj, LV_PART_INDICATOR);
 213:Drivers/lvgl/src/widgets/checkbox/lv_checkbox.c ****         int32_t marker_bottomp = lv_obj_get_style_pad_bottom(obj, LV_PART_INDICATOR);
 214:Drivers/lvgl/src/widgets/checkbox/lv_checkbox.c ****         lv_point_t marker_size;
 215:Drivers/lvgl/src/widgets/checkbox/lv_checkbox.c ****         marker_size.x = font_h + marker_leftp + marker_rightp;
 216:Drivers/lvgl/src/widgets/checkbox/lv_checkbox.c ****         marker_size.y = font_h + marker_topp + marker_bottomp;
 217:Drivers/lvgl/src/widgets/checkbox/lv_checkbox.c **** 
 218:Drivers/lvgl/src/widgets/checkbox/lv_checkbox.c ****         p->x = marker_size.x + txt_size.x + bg_colp;
 219:Drivers/lvgl/src/widgets/checkbox/lv_checkbox.c ****         p->y = LV_MAX(marker_size.y, txt_size.y);
 220:Drivers/lvgl/src/widgets/checkbox/lv_checkbox.c ****     }
 221:Drivers/lvgl/src/widgets/checkbox/lv_checkbox.c ****     else if(code == LV_EVENT_REFR_EXT_DRAW_SIZE) {
 222:Drivers/lvgl/src/widgets/checkbox/lv_checkbox.c ****         int32_t * s = lv_event_get_param(e);
 223:Drivers/lvgl/src/widgets/checkbox/lv_checkbox.c ****         int32_t m = lv_obj_calculate_ext_draw_size(obj, LV_PART_INDICATOR);
 224:Drivers/lvgl/src/widgets/checkbox/lv_checkbox.c ****         *s = LV_MAX(*s, m);
 225:Drivers/lvgl/src/widgets/checkbox/lv_checkbox.c ****     }
 226:Drivers/lvgl/src/widgets/checkbox/lv_checkbox.c ****     else if(code == LV_EVENT_DRAW_MAIN) {
 227:Drivers/lvgl/src/widgets/checkbox/lv_checkbox.c ****         lv_checkbox_draw(e);
 228:Drivers/lvgl/src/widgets/checkbox/lv_checkbox.c ****     }
 229:Drivers/lvgl/src/widgets/checkbox/lv_checkbox.c **** }
 230:Drivers/lvgl/src/widgets/checkbox/lv_checkbox.c **** 
 231:Drivers/lvgl/src/widgets/checkbox/lv_checkbox.c **** static void lv_checkbox_draw(lv_event_t * e)
 232:Drivers/lvgl/src/widgets/checkbox/lv_checkbox.c **** {
  29              		.loc 1 232 1 view -0
  30              		.cfi_startproc
  31              		@ args = 0, pretend = 0, frame = 368
  32              		@ frame_needed = 0, uses_anonymous_args = 0
  33              		.loc 1 232 1 is_stmt 0 view .LVU1
  34 0000 2DE9F04F 		push	{r4, r5, r6, r7, r8, r9, r10, fp, lr}
  35              	.LCFI0:
  36              		.cfi_def_cfa_offset 36
  37              		.cfi_offset 4, -36
  38              		.cfi_offset 5, -32
  39              		.cfi_offset 6, -28
  40              		.cfi_offset 7, -24
  41              		.cfi_offset 8, -20
  42              		.cfi_offset 9, -16
  43              		.cfi_offset 10, -12
  44              		.cfi_offset 11, -8
  45              		.cfi_offset 14, -4
  46 0004 DDB0     		sub	sp, sp, #372
  47              	.LCFI1:
  48              		.cfi_def_cfa_offset 408
  49 0006 0546     		mov	r5, r0
 233:Drivers/lvgl/src/widgets/checkbox/lv_checkbox.c ****     lv_obj_t * obj = lv_event_get_current_target(e);
  50              		.loc 1 233 5 is_stmt 1 view .LVU2
  51              		.loc 1 233 22 is_stmt 0 view .LVU3
  52 0008 FFF7FEFF 		bl	lv_event_get_current_target
  53              	.LVL1:
ARM GAS  /var/folders/qx/2_175_4n2s19vhvtspjhb3qh0000gn/T//ccirZTpW.s 			page 6


  54              		.loc 1 233 22 view .LVU4
  55 000c 0446     		mov	r4, r0
  56              	.LVL2:
 234:Drivers/lvgl/src/widgets/checkbox/lv_checkbox.c ****     lv_checkbox_t * cb = (lv_checkbox_t *)obj;
  57              		.loc 1 234 5 is_stmt 1 view .LVU5
 235:Drivers/lvgl/src/widgets/checkbox/lv_checkbox.c **** 
 236:Drivers/lvgl/src/widgets/checkbox/lv_checkbox.c ****     lv_layer_t * layer = lv_event_get_layer(e);
  58              		.loc 1 236 5 view .LVU6
  59              		.loc 1 236 26 is_stmt 0 view .LVU7
  60 000e 2846     		mov	r0, r5
  61              	.LVL3:
  62              		.loc 1 236 26 view .LVU8
  63 0010 FFF7FEFF 		bl	lv_event_get_layer
  64              	.LVL4:
  65 0014 8046     		mov	r8, r0
  66              	.LVL5:
 237:Drivers/lvgl/src/widgets/checkbox/lv_checkbox.c ****     const lv_font_t * font = lv_obj_get_style_text_font(obj, LV_PART_MAIN);
  67              		.loc 1 237 5 is_stmt 1 view .LVU9
  68              	.LBB52:
  69              	.LBI52:
  70              		.file 2 "Drivers/lvgl/src/widgets/checkbox/../../core/lv_obj_style_gen.h"
   1:Drivers/lvgl/src/widgets/checkbox/../../core/lv_obj_style_gen.h **** 
   2:Drivers/lvgl/src/widgets/checkbox/../../core/lv_obj_style_gen.h **** /*
   3:Drivers/lvgl/src/widgets/checkbox/../../core/lv_obj_style_gen.h ****  **********************************************************************
   4:Drivers/lvgl/src/widgets/checkbox/../../core/lv_obj_style_gen.h ****  *                            DO NOT EDIT
   5:Drivers/lvgl/src/widgets/checkbox/../../core/lv_obj_style_gen.h ****  * This file is automatically generated by "style_api_gen.py"
   6:Drivers/lvgl/src/widgets/checkbox/../../core/lv_obj_style_gen.h ****  **********************************************************************
   7:Drivers/lvgl/src/widgets/checkbox/../../core/lv_obj_style_gen.h ****  */
   8:Drivers/lvgl/src/widgets/checkbox/../../core/lv_obj_style_gen.h **** 
   9:Drivers/lvgl/src/widgets/checkbox/../../core/lv_obj_style_gen.h **** 
  10:Drivers/lvgl/src/widgets/checkbox/../../core/lv_obj_style_gen.h **** #ifndef LV_OBJ_STYLE_GEN_H
  11:Drivers/lvgl/src/widgets/checkbox/../../core/lv_obj_style_gen.h **** #define LV_OBJ_STYLE_GEN_H
  12:Drivers/lvgl/src/widgets/checkbox/../../core/lv_obj_style_gen.h **** 
  13:Drivers/lvgl/src/widgets/checkbox/../../core/lv_obj_style_gen.h **** #ifdef __cplusplus
  14:Drivers/lvgl/src/widgets/checkbox/../../core/lv_obj_style_gen.h **** extern "C" {
  15:Drivers/lvgl/src/widgets/checkbox/../../core/lv_obj_style_gen.h **** #endif
  16:Drivers/lvgl/src/widgets/checkbox/../../core/lv_obj_style_gen.h **** 
  17:Drivers/lvgl/src/widgets/checkbox/../../core/lv_obj_style_gen.h **** #include "../misc/lv_area.h"
  18:Drivers/lvgl/src/widgets/checkbox/../../core/lv_obj_style_gen.h **** #include "../misc/lv_style.h"
  19:Drivers/lvgl/src/widgets/checkbox/../../core/lv_obj_style_gen.h **** #include "../core/lv_obj_style.h"
  20:Drivers/lvgl/src/widgets/checkbox/../../core/lv_obj_style_gen.h **** #include "../misc/lv_types.h"
  21:Drivers/lvgl/src/widgets/checkbox/../../core/lv_obj_style_gen.h **** 
  22:Drivers/lvgl/src/widgets/checkbox/../../core/lv_obj_style_gen.h **** static inline int32_t lv_obj_get_style_width(const lv_obj_t * obj, lv_part_t part)
  23:Drivers/lvgl/src/widgets/checkbox/../../core/lv_obj_style_gen.h **** {
  24:Drivers/lvgl/src/widgets/checkbox/../../core/lv_obj_style_gen.h ****     lv_style_value_t v = lv_obj_get_style_prop(obj, part, LV_STYLE_WIDTH);
  25:Drivers/lvgl/src/widgets/checkbox/../../core/lv_obj_style_gen.h ****     return (int32_t)v.num;
  26:Drivers/lvgl/src/widgets/checkbox/../../core/lv_obj_style_gen.h **** }
  27:Drivers/lvgl/src/widgets/checkbox/../../core/lv_obj_style_gen.h **** 
  28:Drivers/lvgl/src/widgets/checkbox/../../core/lv_obj_style_gen.h **** static inline int32_t lv_obj_get_style_min_width(const lv_obj_t * obj, lv_part_t part)
  29:Drivers/lvgl/src/widgets/checkbox/../../core/lv_obj_style_gen.h **** {
  30:Drivers/lvgl/src/widgets/checkbox/../../core/lv_obj_style_gen.h ****     lv_style_value_t v = lv_obj_get_style_prop(obj, part, LV_STYLE_MIN_WIDTH);
  31:Drivers/lvgl/src/widgets/checkbox/../../core/lv_obj_style_gen.h ****     return (int32_t)v.num;
  32:Drivers/lvgl/src/widgets/checkbox/../../core/lv_obj_style_gen.h **** }
  33:Drivers/lvgl/src/widgets/checkbox/../../core/lv_obj_style_gen.h **** 
  34:Drivers/lvgl/src/widgets/checkbox/../../core/lv_obj_style_gen.h **** static inline int32_t lv_obj_get_style_max_width(const lv_obj_t * obj, lv_part_t part)
  35:Drivers/lvgl/src/widgets/checkbox/../../core/lv_obj_style_gen.h **** {
  36:Drivers/lvgl/src/widgets/checkbox/../../core/lv_obj_style_gen.h ****     lv_style_value_t v = lv_obj_get_style_prop(obj, part, LV_STYLE_MAX_WIDTH);
ARM GAS  /var/folders/qx/2_175_4n2s19vhvtspjhb3qh0000gn/T//ccirZTpW.s 			page 7


  37:Drivers/lvgl/src/widgets/checkbox/../../core/lv_obj_style_gen.h ****     return (int32_t)v.num;
  38:Drivers/lvgl/src/widgets/checkbox/../../core/lv_obj_style_gen.h **** }
  39:Drivers/lvgl/src/widgets/checkbox/../../core/lv_obj_style_gen.h **** 
  40:Drivers/lvgl/src/widgets/checkbox/../../core/lv_obj_style_gen.h **** static inline int32_t lv_obj_get_style_height(const lv_obj_t * obj, lv_part_t part)
  41:Drivers/lvgl/src/widgets/checkbox/../../core/lv_obj_style_gen.h **** {
  42:Drivers/lvgl/src/widgets/checkbox/../../core/lv_obj_style_gen.h ****     lv_style_value_t v = lv_obj_get_style_prop(obj, part, LV_STYLE_HEIGHT);
  43:Drivers/lvgl/src/widgets/checkbox/../../core/lv_obj_style_gen.h ****     return (int32_t)v.num;
  44:Drivers/lvgl/src/widgets/checkbox/../../core/lv_obj_style_gen.h **** }
  45:Drivers/lvgl/src/widgets/checkbox/../../core/lv_obj_style_gen.h **** 
  46:Drivers/lvgl/src/widgets/checkbox/../../core/lv_obj_style_gen.h **** static inline int32_t lv_obj_get_style_min_height(const lv_obj_t * obj, lv_part_t part)
  47:Drivers/lvgl/src/widgets/checkbox/../../core/lv_obj_style_gen.h **** {
  48:Drivers/lvgl/src/widgets/checkbox/../../core/lv_obj_style_gen.h ****     lv_style_value_t v = lv_obj_get_style_prop(obj, part, LV_STYLE_MIN_HEIGHT);
  49:Drivers/lvgl/src/widgets/checkbox/../../core/lv_obj_style_gen.h ****     return (int32_t)v.num;
  50:Drivers/lvgl/src/widgets/checkbox/../../core/lv_obj_style_gen.h **** }
  51:Drivers/lvgl/src/widgets/checkbox/../../core/lv_obj_style_gen.h **** 
  52:Drivers/lvgl/src/widgets/checkbox/../../core/lv_obj_style_gen.h **** static inline int32_t lv_obj_get_style_max_height(const lv_obj_t * obj, lv_part_t part)
  53:Drivers/lvgl/src/widgets/checkbox/../../core/lv_obj_style_gen.h **** {
  54:Drivers/lvgl/src/widgets/checkbox/../../core/lv_obj_style_gen.h ****     lv_style_value_t v = lv_obj_get_style_prop(obj, part, LV_STYLE_MAX_HEIGHT);
  55:Drivers/lvgl/src/widgets/checkbox/../../core/lv_obj_style_gen.h ****     return (int32_t)v.num;
  56:Drivers/lvgl/src/widgets/checkbox/../../core/lv_obj_style_gen.h **** }
  57:Drivers/lvgl/src/widgets/checkbox/../../core/lv_obj_style_gen.h **** 
  58:Drivers/lvgl/src/widgets/checkbox/../../core/lv_obj_style_gen.h **** static inline int32_t lv_obj_get_style_length(const lv_obj_t * obj, lv_part_t part)
  59:Drivers/lvgl/src/widgets/checkbox/../../core/lv_obj_style_gen.h **** {
  60:Drivers/lvgl/src/widgets/checkbox/../../core/lv_obj_style_gen.h ****     lv_style_value_t v = lv_obj_get_style_prop(obj, part, LV_STYLE_LENGTH);
  61:Drivers/lvgl/src/widgets/checkbox/../../core/lv_obj_style_gen.h ****     return (int32_t)v.num;
  62:Drivers/lvgl/src/widgets/checkbox/../../core/lv_obj_style_gen.h **** }
  63:Drivers/lvgl/src/widgets/checkbox/../../core/lv_obj_style_gen.h **** 
  64:Drivers/lvgl/src/widgets/checkbox/../../core/lv_obj_style_gen.h **** static inline int32_t lv_obj_get_style_x(const lv_obj_t * obj, lv_part_t part)
  65:Drivers/lvgl/src/widgets/checkbox/../../core/lv_obj_style_gen.h **** {
  66:Drivers/lvgl/src/widgets/checkbox/../../core/lv_obj_style_gen.h ****     lv_style_value_t v = lv_obj_get_style_prop(obj, part, LV_STYLE_X);
  67:Drivers/lvgl/src/widgets/checkbox/../../core/lv_obj_style_gen.h ****     return (int32_t)v.num;
  68:Drivers/lvgl/src/widgets/checkbox/../../core/lv_obj_style_gen.h **** }
  69:Drivers/lvgl/src/widgets/checkbox/../../core/lv_obj_style_gen.h **** 
  70:Drivers/lvgl/src/widgets/checkbox/../../core/lv_obj_style_gen.h **** static inline int32_t lv_obj_get_style_y(const lv_obj_t * obj, lv_part_t part)
  71:Drivers/lvgl/src/widgets/checkbox/../../core/lv_obj_style_gen.h **** {
  72:Drivers/lvgl/src/widgets/checkbox/../../core/lv_obj_style_gen.h ****     lv_style_value_t v = lv_obj_get_style_prop(obj, part, LV_STYLE_Y);
  73:Drivers/lvgl/src/widgets/checkbox/../../core/lv_obj_style_gen.h ****     return (int32_t)v.num;
  74:Drivers/lvgl/src/widgets/checkbox/../../core/lv_obj_style_gen.h **** }
  75:Drivers/lvgl/src/widgets/checkbox/../../core/lv_obj_style_gen.h **** 
  76:Drivers/lvgl/src/widgets/checkbox/../../core/lv_obj_style_gen.h **** static inline lv_align_t lv_obj_get_style_align(const lv_obj_t * obj, lv_part_t part)
  77:Drivers/lvgl/src/widgets/checkbox/../../core/lv_obj_style_gen.h **** {
  78:Drivers/lvgl/src/widgets/checkbox/../../core/lv_obj_style_gen.h ****     lv_style_value_t v = lv_obj_get_style_prop(obj, part, LV_STYLE_ALIGN);
  79:Drivers/lvgl/src/widgets/checkbox/../../core/lv_obj_style_gen.h ****     return (lv_align_t)v.num;
  80:Drivers/lvgl/src/widgets/checkbox/../../core/lv_obj_style_gen.h **** }
  81:Drivers/lvgl/src/widgets/checkbox/../../core/lv_obj_style_gen.h **** 
  82:Drivers/lvgl/src/widgets/checkbox/../../core/lv_obj_style_gen.h **** static inline int32_t lv_obj_get_style_transform_width(const lv_obj_t * obj, lv_part_t part)
  83:Drivers/lvgl/src/widgets/checkbox/../../core/lv_obj_style_gen.h **** {
  84:Drivers/lvgl/src/widgets/checkbox/../../core/lv_obj_style_gen.h ****     lv_style_value_t v = lv_obj_get_style_prop(obj, part, LV_STYLE_TRANSFORM_WIDTH);
  85:Drivers/lvgl/src/widgets/checkbox/../../core/lv_obj_style_gen.h ****     return (int32_t)v.num;
  86:Drivers/lvgl/src/widgets/checkbox/../../core/lv_obj_style_gen.h **** }
  87:Drivers/lvgl/src/widgets/checkbox/../../core/lv_obj_style_gen.h **** 
  88:Drivers/lvgl/src/widgets/checkbox/../../core/lv_obj_style_gen.h **** static inline int32_t lv_obj_get_style_transform_height(const lv_obj_t * obj, lv_part_t part)
  89:Drivers/lvgl/src/widgets/checkbox/../../core/lv_obj_style_gen.h **** {
  90:Drivers/lvgl/src/widgets/checkbox/../../core/lv_obj_style_gen.h ****     lv_style_value_t v = lv_obj_get_style_prop(obj, part, LV_STYLE_TRANSFORM_HEIGHT);
  91:Drivers/lvgl/src/widgets/checkbox/../../core/lv_obj_style_gen.h ****     return (int32_t)v.num;
  92:Drivers/lvgl/src/widgets/checkbox/../../core/lv_obj_style_gen.h **** }
  93:Drivers/lvgl/src/widgets/checkbox/../../core/lv_obj_style_gen.h **** 
ARM GAS  /var/folders/qx/2_175_4n2s19vhvtspjhb3qh0000gn/T//ccirZTpW.s 			page 8


  94:Drivers/lvgl/src/widgets/checkbox/../../core/lv_obj_style_gen.h **** static inline int32_t lv_obj_get_style_translate_x(const lv_obj_t * obj, lv_part_t part)
  95:Drivers/lvgl/src/widgets/checkbox/../../core/lv_obj_style_gen.h **** {
  96:Drivers/lvgl/src/widgets/checkbox/../../core/lv_obj_style_gen.h ****     lv_style_value_t v = lv_obj_get_style_prop(obj, part, LV_STYLE_TRANSLATE_X);
  97:Drivers/lvgl/src/widgets/checkbox/../../core/lv_obj_style_gen.h ****     return (int32_t)v.num;
  98:Drivers/lvgl/src/widgets/checkbox/../../core/lv_obj_style_gen.h **** }
  99:Drivers/lvgl/src/widgets/checkbox/../../core/lv_obj_style_gen.h **** 
 100:Drivers/lvgl/src/widgets/checkbox/../../core/lv_obj_style_gen.h **** static inline int32_t lv_obj_get_style_translate_y(const lv_obj_t * obj, lv_part_t part)
 101:Drivers/lvgl/src/widgets/checkbox/../../core/lv_obj_style_gen.h **** {
 102:Drivers/lvgl/src/widgets/checkbox/../../core/lv_obj_style_gen.h ****     lv_style_value_t v = lv_obj_get_style_prop(obj, part, LV_STYLE_TRANSLATE_Y);
 103:Drivers/lvgl/src/widgets/checkbox/../../core/lv_obj_style_gen.h ****     return (int32_t)v.num;
 104:Drivers/lvgl/src/widgets/checkbox/../../core/lv_obj_style_gen.h **** }
 105:Drivers/lvgl/src/widgets/checkbox/../../core/lv_obj_style_gen.h **** 
 106:Drivers/lvgl/src/widgets/checkbox/../../core/lv_obj_style_gen.h **** static inline int32_t lv_obj_get_style_translate_radial(const lv_obj_t * obj, lv_part_t part)
 107:Drivers/lvgl/src/widgets/checkbox/../../core/lv_obj_style_gen.h **** {
 108:Drivers/lvgl/src/widgets/checkbox/../../core/lv_obj_style_gen.h ****     lv_style_value_t v = lv_obj_get_style_prop(obj, part, LV_STYLE_TRANSLATE_RADIAL);
 109:Drivers/lvgl/src/widgets/checkbox/../../core/lv_obj_style_gen.h ****     return (int32_t)v.num;
 110:Drivers/lvgl/src/widgets/checkbox/../../core/lv_obj_style_gen.h **** }
 111:Drivers/lvgl/src/widgets/checkbox/../../core/lv_obj_style_gen.h **** 
 112:Drivers/lvgl/src/widgets/checkbox/../../core/lv_obj_style_gen.h **** static inline int32_t lv_obj_get_style_transform_scale_x(const lv_obj_t * obj, lv_part_t part)
 113:Drivers/lvgl/src/widgets/checkbox/../../core/lv_obj_style_gen.h **** {
 114:Drivers/lvgl/src/widgets/checkbox/../../core/lv_obj_style_gen.h ****     lv_style_value_t v = lv_obj_get_style_prop(obj, part, LV_STYLE_TRANSFORM_SCALE_X);
 115:Drivers/lvgl/src/widgets/checkbox/../../core/lv_obj_style_gen.h ****     return (int32_t)v.num;
 116:Drivers/lvgl/src/widgets/checkbox/../../core/lv_obj_style_gen.h **** }
 117:Drivers/lvgl/src/widgets/checkbox/../../core/lv_obj_style_gen.h **** 
 118:Drivers/lvgl/src/widgets/checkbox/../../core/lv_obj_style_gen.h **** static inline int32_t lv_obj_get_style_transform_scale_y(const lv_obj_t * obj, lv_part_t part)
 119:Drivers/lvgl/src/widgets/checkbox/../../core/lv_obj_style_gen.h **** {
 120:Drivers/lvgl/src/widgets/checkbox/../../core/lv_obj_style_gen.h ****     lv_style_value_t v = lv_obj_get_style_prop(obj, part, LV_STYLE_TRANSFORM_SCALE_Y);
 121:Drivers/lvgl/src/widgets/checkbox/../../core/lv_obj_style_gen.h ****     return (int32_t)v.num;
 122:Drivers/lvgl/src/widgets/checkbox/../../core/lv_obj_style_gen.h **** }
 123:Drivers/lvgl/src/widgets/checkbox/../../core/lv_obj_style_gen.h **** 
 124:Drivers/lvgl/src/widgets/checkbox/../../core/lv_obj_style_gen.h **** static inline int32_t lv_obj_get_style_transform_rotation(const lv_obj_t * obj, lv_part_t part)
 125:Drivers/lvgl/src/widgets/checkbox/../../core/lv_obj_style_gen.h **** {
 126:Drivers/lvgl/src/widgets/checkbox/../../core/lv_obj_style_gen.h ****     lv_style_value_t v = lv_obj_get_style_prop(obj, part, LV_STYLE_TRANSFORM_ROTATION);
 127:Drivers/lvgl/src/widgets/checkbox/../../core/lv_obj_style_gen.h ****     return (int32_t)v.num;
 128:Drivers/lvgl/src/widgets/checkbox/../../core/lv_obj_style_gen.h **** }
 129:Drivers/lvgl/src/widgets/checkbox/../../core/lv_obj_style_gen.h **** 
 130:Drivers/lvgl/src/widgets/checkbox/../../core/lv_obj_style_gen.h **** static inline int32_t lv_obj_get_style_transform_pivot_x(const lv_obj_t * obj, lv_part_t part)
 131:Drivers/lvgl/src/widgets/checkbox/../../core/lv_obj_style_gen.h **** {
 132:Drivers/lvgl/src/widgets/checkbox/../../core/lv_obj_style_gen.h ****     lv_style_value_t v = lv_obj_get_style_prop(obj, part, LV_STYLE_TRANSFORM_PIVOT_X);
 133:Drivers/lvgl/src/widgets/checkbox/../../core/lv_obj_style_gen.h ****     return (int32_t)v.num;
 134:Drivers/lvgl/src/widgets/checkbox/../../core/lv_obj_style_gen.h **** }
 135:Drivers/lvgl/src/widgets/checkbox/../../core/lv_obj_style_gen.h **** 
 136:Drivers/lvgl/src/widgets/checkbox/../../core/lv_obj_style_gen.h **** static inline int32_t lv_obj_get_style_transform_pivot_y(const lv_obj_t * obj, lv_part_t part)
 137:Drivers/lvgl/src/widgets/checkbox/../../core/lv_obj_style_gen.h **** {
 138:Drivers/lvgl/src/widgets/checkbox/../../core/lv_obj_style_gen.h ****     lv_style_value_t v = lv_obj_get_style_prop(obj, part, LV_STYLE_TRANSFORM_PIVOT_Y);
 139:Drivers/lvgl/src/widgets/checkbox/../../core/lv_obj_style_gen.h ****     return (int32_t)v.num;
 140:Drivers/lvgl/src/widgets/checkbox/../../core/lv_obj_style_gen.h **** }
 141:Drivers/lvgl/src/widgets/checkbox/../../core/lv_obj_style_gen.h **** 
 142:Drivers/lvgl/src/widgets/checkbox/../../core/lv_obj_style_gen.h **** static inline int32_t lv_obj_get_style_transform_skew_x(const lv_obj_t * obj, lv_part_t part)
 143:Drivers/lvgl/src/widgets/checkbox/../../core/lv_obj_style_gen.h **** {
 144:Drivers/lvgl/src/widgets/checkbox/../../core/lv_obj_style_gen.h ****     lv_style_value_t v = lv_obj_get_style_prop(obj, part, LV_STYLE_TRANSFORM_SKEW_X);
 145:Drivers/lvgl/src/widgets/checkbox/../../core/lv_obj_style_gen.h ****     return (int32_t)v.num;
 146:Drivers/lvgl/src/widgets/checkbox/../../core/lv_obj_style_gen.h **** }
 147:Drivers/lvgl/src/widgets/checkbox/../../core/lv_obj_style_gen.h **** 
 148:Drivers/lvgl/src/widgets/checkbox/../../core/lv_obj_style_gen.h **** static inline int32_t lv_obj_get_style_transform_skew_y(const lv_obj_t * obj, lv_part_t part)
 149:Drivers/lvgl/src/widgets/checkbox/../../core/lv_obj_style_gen.h **** {
 150:Drivers/lvgl/src/widgets/checkbox/../../core/lv_obj_style_gen.h ****     lv_style_value_t v = lv_obj_get_style_prop(obj, part, LV_STYLE_TRANSFORM_SKEW_Y);
ARM GAS  /var/folders/qx/2_175_4n2s19vhvtspjhb3qh0000gn/T//ccirZTpW.s 			page 9


 151:Drivers/lvgl/src/widgets/checkbox/../../core/lv_obj_style_gen.h ****     return (int32_t)v.num;
 152:Drivers/lvgl/src/widgets/checkbox/../../core/lv_obj_style_gen.h **** }
 153:Drivers/lvgl/src/widgets/checkbox/../../core/lv_obj_style_gen.h **** 
 154:Drivers/lvgl/src/widgets/checkbox/../../core/lv_obj_style_gen.h **** static inline int32_t lv_obj_get_style_pad_top(const lv_obj_t * obj, lv_part_t part)
 155:Drivers/lvgl/src/widgets/checkbox/../../core/lv_obj_style_gen.h **** {
 156:Drivers/lvgl/src/widgets/checkbox/../../core/lv_obj_style_gen.h ****     lv_style_value_t v = lv_obj_get_style_prop(obj, part, LV_STYLE_PAD_TOP);
 157:Drivers/lvgl/src/widgets/checkbox/../../core/lv_obj_style_gen.h ****     return (int32_t)v.num;
 158:Drivers/lvgl/src/widgets/checkbox/../../core/lv_obj_style_gen.h **** }
 159:Drivers/lvgl/src/widgets/checkbox/../../core/lv_obj_style_gen.h **** 
 160:Drivers/lvgl/src/widgets/checkbox/../../core/lv_obj_style_gen.h **** static inline int32_t lv_obj_get_style_pad_bottom(const lv_obj_t * obj, lv_part_t part)
 161:Drivers/lvgl/src/widgets/checkbox/../../core/lv_obj_style_gen.h **** {
 162:Drivers/lvgl/src/widgets/checkbox/../../core/lv_obj_style_gen.h ****     lv_style_value_t v = lv_obj_get_style_prop(obj, part, LV_STYLE_PAD_BOTTOM);
 163:Drivers/lvgl/src/widgets/checkbox/../../core/lv_obj_style_gen.h ****     return (int32_t)v.num;
 164:Drivers/lvgl/src/widgets/checkbox/../../core/lv_obj_style_gen.h **** }
 165:Drivers/lvgl/src/widgets/checkbox/../../core/lv_obj_style_gen.h **** 
 166:Drivers/lvgl/src/widgets/checkbox/../../core/lv_obj_style_gen.h **** static inline int32_t lv_obj_get_style_pad_left(const lv_obj_t * obj, lv_part_t part)
 167:Drivers/lvgl/src/widgets/checkbox/../../core/lv_obj_style_gen.h **** {
 168:Drivers/lvgl/src/widgets/checkbox/../../core/lv_obj_style_gen.h ****     lv_style_value_t v = lv_obj_get_style_prop(obj, part, LV_STYLE_PAD_LEFT);
 169:Drivers/lvgl/src/widgets/checkbox/../../core/lv_obj_style_gen.h ****     return (int32_t)v.num;
 170:Drivers/lvgl/src/widgets/checkbox/../../core/lv_obj_style_gen.h **** }
 171:Drivers/lvgl/src/widgets/checkbox/../../core/lv_obj_style_gen.h **** 
 172:Drivers/lvgl/src/widgets/checkbox/../../core/lv_obj_style_gen.h **** static inline int32_t lv_obj_get_style_pad_right(const lv_obj_t * obj, lv_part_t part)
 173:Drivers/lvgl/src/widgets/checkbox/../../core/lv_obj_style_gen.h **** {
 174:Drivers/lvgl/src/widgets/checkbox/../../core/lv_obj_style_gen.h ****     lv_style_value_t v = lv_obj_get_style_prop(obj, part, LV_STYLE_PAD_RIGHT);
 175:Drivers/lvgl/src/widgets/checkbox/../../core/lv_obj_style_gen.h ****     return (int32_t)v.num;
 176:Drivers/lvgl/src/widgets/checkbox/../../core/lv_obj_style_gen.h **** }
 177:Drivers/lvgl/src/widgets/checkbox/../../core/lv_obj_style_gen.h **** 
 178:Drivers/lvgl/src/widgets/checkbox/../../core/lv_obj_style_gen.h **** static inline int32_t lv_obj_get_style_pad_row(const lv_obj_t * obj, lv_part_t part)
 179:Drivers/lvgl/src/widgets/checkbox/../../core/lv_obj_style_gen.h **** {
 180:Drivers/lvgl/src/widgets/checkbox/../../core/lv_obj_style_gen.h ****     lv_style_value_t v = lv_obj_get_style_prop(obj, part, LV_STYLE_PAD_ROW);
 181:Drivers/lvgl/src/widgets/checkbox/../../core/lv_obj_style_gen.h ****     return (int32_t)v.num;
 182:Drivers/lvgl/src/widgets/checkbox/../../core/lv_obj_style_gen.h **** }
 183:Drivers/lvgl/src/widgets/checkbox/../../core/lv_obj_style_gen.h **** 
 184:Drivers/lvgl/src/widgets/checkbox/../../core/lv_obj_style_gen.h **** static inline int32_t lv_obj_get_style_pad_column(const lv_obj_t * obj, lv_part_t part)
 185:Drivers/lvgl/src/widgets/checkbox/../../core/lv_obj_style_gen.h **** {
 186:Drivers/lvgl/src/widgets/checkbox/../../core/lv_obj_style_gen.h ****     lv_style_value_t v = lv_obj_get_style_prop(obj, part, LV_STYLE_PAD_COLUMN);
 187:Drivers/lvgl/src/widgets/checkbox/../../core/lv_obj_style_gen.h ****     return (int32_t)v.num;
 188:Drivers/lvgl/src/widgets/checkbox/../../core/lv_obj_style_gen.h **** }
 189:Drivers/lvgl/src/widgets/checkbox/../../core/lv_obj_style_gen.h **** 
 190:Drivers/lvgl/src/widgets/checkbox/../../core/lv_obj_style_gen.h **** static inline int32_t lv_obj_get_style_pad_radial(const lv_obj_t * obj, lv_part_t part)
 191:Drivers/lvgl/src/widgets/checkbox/../../core/lv_obj_style_gen.h **** {
 192:Drivers/lvgl/src/widgets/checkbox/../../core/lv_obj_style_gen.h ****     lv_style_value_t v = lv_obj_get_style_prop(obj, part, LV_STYLE_PAD_RADIAL);
 193:Drivers/lvgl/src/widgets/checkbox/../../core/lv_obj_style_gen.h ****     return (int32_t)v.num;
 194:Drivers/lvgl/src/widgets/checkbox/../../core/lv_obj_style_gen.h **** }
 195:Drivers/lvgl/src/widgets/checkbox/../../core/lv_obj_style_gen.h **** 
 196:Drivers/lvgl/src/widgets/checkbox/../../core/lv_obj_style_gen.h **** static inline int32_t lv_obj_get_style_margin_top(const lv_obj_t * obj, lv_part_t part)
 197:Drivers/lvgl/src/widgets/checkbox/../../core/lv_obj_style_gen.h **** {
 198:Drivers/lvgl/src/widgets/checkbox/../../core/lv_obj_style_gen.h ****     lv_style_value_t v = lv_obj_get_style_prop(obj, part, LV_STYLE_MARGIN_TOP);
 199:Drivers/lvgl/src/widgets/checkbox/../../core/lv_obj_style_gen.h ****     return (int32_t)v.num;
 200:Drivers/lvgl/src/widgets/checkbox/../../core/lv_obj_style_gen.h **** }
 201:Drivers/lvgl/src/widgets/checkbox/../../core/lv_obj_style_gen.h **** 
 202:Drivers/lvgl/src/widgets/checkbox/../../core/lv_obj_style_gen.h **** static inline int32_t lv_obj_get_style_margin_bottom(const lv_obj_t * obj, lv_part_t part)
 203:Drivers/lvgl/src/widgets/checkbox/../../core/lv_obj_style_gen.h **** {
 204:Drivers/lvgl/src/widgets/checkbox/../../core/lv_obj_style_gen.h ****     lv_style_value_t v = lv_obj_get_style_prop(obj, part, LV_STYLE_MARGIN_BOTTOM);
 205:Drivers/lvgl/src/widgets/checkbox/../../core/lv_obj_style_gen.h ****     return (int32_t)v.num;
 206:Drivers/lvgl/src/widgets/checkbox/../../core/lv_obj_style_gen.h **** }
 207:Drivers/lvgl/src/widgets/checkbox/../../core/lv_obj_style_gen.h **** 
ARM GAS  /var/folders/qx/2_175_4n2s19vhvtspjhb3qh0000gn/T//ccirZTpW.s 			page 10


 208:Drivers/lvgl/src/widgets/checkbox/../../core/lv_obj_style_gen.h **** static inline int32_t lv_obj_get_style_margin_left(const lv_obj_t * obj, lv_part_t part)
 209:Drivers/lvgl/src/widgets/checkbox/../../core/lv_obj_style_gen.h **** {
 210:Drivers/lvgl/src/widgets/checkbox/../../core/lv_obj_style_gen.h ****     lv_style_value_t v = lv_obj_get_style_prop(obj, part, LV_STYLE_MARGIN_LEFT);
 211:Drivers/lvgl/src/widgets/checkbox/../../core/lv_obj_style_gen.h ****     return (int32_t)v.num;
 212:Drivers/lvgl/src/widgets/checkbox/../../core/lv_obj_style_gen.h **** }
 213:Drivers/lvgl/src/widgets/checkbox/../../core/lv_obj_style_gen.h **** 
 214:Drivers/lvgl/src/widgets/checkbox/../../core/lv_obj_style_gen.h **** static inline int32_t lv_obj_get_style_margin_right(const lv_obj_t * obj, lv_part_t part)
 215:Drivers/lvgl/src/widgets/checkbox/../../core/lv_obj_style_gen.h **** {
 216:Drivers/lvgl/src/widgets/checkbox/../../core/lv_obj_style_gen.h ****     lv_style_value_t v = lv_obj_get_style_prop(obj, part, LV_STYLE_MARGIN_RIGHT);
 217:Drivers/lvgl/src/widgets/checkbox/../../core/lv_obj_style_gen.h ****     return (int32_t)v.num;
 218:Drivers/lvgl/src/widgets/checkbox/../../core/lv_obj_style_gen.h **** }
 219:Drivers/lvgl/src/widgets/checkbox/../../core/lv_obj_style_gen.h **** 
 220:Drivers/lvgl/src/widgets/checkbox/../../core/lv_obj_style_gen.h **** static inline lv_color_t lv_obj_get_style_bg_color(const lv_obj_t * obj, lv_part_t part)
 221:Drivers/lvgl/src/widgets/checkbox/../../core/lv_obj_style_gen.h **** {
 222:Drivers/lvgl/src/widgets/checkbox/../../core/lv_obj_style_gen.h ****     lv_style_value_t v = lv_obj_get_style_prop(obj, part, LV_STYLE_BG_COLOR);
 223:Drivers/lvgl/src/widgets/checkbox/../../core/lv_obj_style_gen.h ****     return v.color;
 224:Drivers/lvgl/src/widgets/checkbox/../../core/lv_obj_style_gen.h **** }
 225:Drivers/lvgl/src/widgets/checkbox/../../core/lv_obj_style_gen.h **** 
 226:Drivers/lvgl/src/widgets/checkbox/../../core/lv_obj_style_gen.h **** static inline lv_color_t lv_obj_get_style_bg_color_filtered(const lv_obj_t * obj, lv_part_t part)
 227:Drivers/lvgl/src/widgets/checkbox/../../core/lv_obj_style_gen.h **** {
 228:Drivers/lvgl/src/widgets/checkbox/../../core/lv_obj_style_gen.h ****     lv_style_value_t v = lv_obj_style_apply_color_filter(obj, part, lv_obj_get_style_prop(obj, part
 229:Drivers/lvgl/src/widgets/checkbox/../../core/lv_obj_style_gen.h ****     return v.color;
 230:Drivers/lvgl/src/widgets/checkbox/../../core/lv_obj_style_gen.h **** }
 231:Drivers/lvgl/src/widgets/checkbox/../../core/lv_obj_style_gen.h **** 
 232:Drivers/lvgl/src/widgets/checkbox/../../core/lv_obj_style_gen.h **** static inline lv_opa_t lv_obj_get_style_bg_opa(const lv_obj_t * obj, lv_part_t part)
 233:Drivers/lvgl/src/widgets/checkbox/../../core/lv_obj_style_gen.h **** {
 234:Drivers/lvgl/src/widgets/checkbox/../../core/lv_obj_style_gen.h ****     lv_style_value_t v = lv_obj_get_style_prop(obj, part, LV_STYLE_BG_OPA);
 235:Drivers/lvgl/src/widgets/checkbox/../../core/lv_obj_style_gen.h ****     return (lv_opa_t)v.num;
 236:Drivers/lvgl/src/widgets/checkbox/../../core/lv_obj_style_gen.h **** }
 237:Drivers/lvgl/src/widgets/checkbox/../../core/lv_obj_style_gen.h **** 
 238:Drivers/lvgl/src/widgets/checkbox/../../core/lv_obj_style_gen.h **** static inline lv_color_t lv_obj_get_style_bg_grad_color(const lv_obj_t * obj, lv_part_t part)
 239:Drivers/lvgl/src/widgets/checkbox/../../core/lv_obj_style_gen.h **** {
 240:Drivers/lvgl/src/widgets/checkbox/../../core/lv_obj_style_gen.h ****     lv_style_value_t v = lv_obj_get_style_prop(obj, part, LV_STYLE_BG_GRAD_COLOR);
 241:Drivers/lvgl/src/widgets/checkbox/../../core/lv_obj_style_gen.h ****     return v.color;
 242:Drivers/lvgl/src/widgets/checkbox/../../core/lv_obj_style_gen.h **** }
 243:Drivers/lvgl/src/widgets/checkbox/../../core/lv_obj_style_gen.h **** 
 244:Drivers/lvgl/src/widgets/checkbox/../../core/lv_obj_style_gen.h **** static inline lv_color_t lv_obj_get_style_bg_grad_color_filtered(const lv_obj_t * obj, lv_part_t pa
 245:Drivers/lvgl/src/widgets/checkbox/../../core/lv_obj_style_gen.h **** {
 246:Drivers/lvgl/src/widgets/checkbox/../../core/lv_obj_style_gen.h ****     lv_style_value_t v = lv_obj_style_apply_color_filter(obj, part, lv_obj_get_style_prop(obj, part
 247:Drivers/lvgl/src/widgets/checkbox/../../core/lv_obj_style_gen.h ****                                                                                           LV_STYLE_
 248:Drivers/lvgl/src/widgets/checkbox/../../core/lv_obj_style_gen.h ****     return v.color;
 249:Drivers/lvgl/src/widgets/checkbox/../../core/lv_obj_style_gen.h **** }
 250:Drivers/lvgl/src/widgets/checkbox/../../core/lv_obj_style_gen.h **** 
 251:Drivers/lvgl/src/widgets/checkbox/../../core/lv_obj_style_gen.h **** static inline lv_grad_dir_t lv_obj_get_style_bg_grad_dir(const lv_obj_t * obj, lv_part_t part)
 252:Drivers/lvgl/src/widgets/checkbox/../../core/lv_obj_style_gen.h **** {
 253:Drivers/lvgl/src/widgets/checkbox/../../core/lv_obj_style_gen.h ****     lv_style_value_t v = lv_obj_get_style_prop(obj, part, LV_STYLE_BG_GRAD_DIR);
 254:Drivers/lvgl/src/widgets/checkbox/../../core/lv_obj_style_gen.h ****     return (lv_grad_dir_t)v.num;
 255:Drivers/lvgl/src/widgets/checkbox/../../core/lv_obj_style_gen.h **** }
 256:Drivers/lvgl/src/widgets/checkbox/../../core/lv_obj_style_gen.h **** 
 257:Drivers/lvgl/src/widgets/checkbox/../../core/lv_obj_style_gen.h **** static inline int32_t lv_obj_get_style_bg_main_stop(const lv_obj_t * obj, lv_part_t part)
 258:Drivers/lvgl/src/widgets/checkbox/../../core/lv_obj_style_gen.h **** {
 259:Drivers/lvgl/src/widgets/checkbox/../../core/lv_obj_style_gen.h ****     lv_style_value_t v = lv_obj_get_style_prop(obj, part, LV_STYLE_BG_MAIN_STOP);
 260:Drivers/lvgl/src/widgets/checkbox/../../core/lv_obj_style_gen.h ****     return (int32_t)v.num;
 261:Drivers/lvgl/src/widgets/checkbox/../../core/lv_obj_style_gen.h **** }
 262:Drivers/lvgl/src/widgets/checkbox/../../core/lv_obj_style_gen.h **** 
 263:Drivers/lvgl/src/widgets/checkbox/../../core/lv_obj_style_gen.h **** static inline int32_t lv_obj_get_style_bg_grad_stop(const lv_obj_t * obj, lv_part_t part)
 264:Drivers/lvgl/src/widgets/checkbox/../../core/lv_obj_style_gen.h **** {
ARM GAS  /var/folders/qx/2_175_4n2s19vhvtspjhb3qh0000gn/T//ccirZTpW.s 			page 11


 265:Drivers/lvgl/src/widgets/checkbox/../../core/lv_obj_style_gen.h ****     lv_style_value_t v = lv_obj_get_style_prop(obj, part, LV_STYLE_BG_GRAD_STOP);
 266:Drivers/lvgl/src/widgets/checkbox/../../core/lv_obj_style_gen.h ****     return (int32_t)v.num;
 267:Drivers/lvgl/src/widgets/checkbox/../../core/lv_obj_style_gen.h **** }
 268:Drivers/lvgl/src/widgets/checkbox/../../core/lv_obj_style_gen.h **** 
 269:Drivers/lvgl/src/widgets/checkbox/../../core/lv_obj_style_gen.h **** static inline lv_opa_t lv_obj_get_style_bg_main_opa(const lv_obj_t * obj, lv_part_t part)
 270:Drivers/lvgl/src/widgets/checkbox/../../core/lv_obj_style_gen.h **** {
 271:Drivers/lvgl/src/widgets/checkbox/../../core/lv_obj_style_gen.h ****     lv_style_value_t v = lv_obj_get_style_prop(obj, part, LV_STYLE_BG_MAIN_OPA);
 272:Drivers/lvgl/src/widgets/checkbox/../../core/lv_obj_style_gen.h ****     return (lv_opa_t)v.num;
 273:Drivers/lvgl/src/widgets/checkbox/../../core/lv_obj_style_gen.h **** }
 274:Drivers/lvgl/src/widgets/checkbox/../../core/lv_obj_style_gen.h **** 
 275:Drivers/lvgl/src/widgets/checkbox/../../core/lv_obj_style_gen.h **** static inline lv_opa_t lv_obj_get_style_bg_grad_opa(const lv_obj_t * obj, lv_part_t part)
 276:Drivers/lvgl/src/widgets/checkbox/../../core/lv_obj_style_gen.h **** {
 277:Drivers/lvgl/src/widgets/checkbox/../../core/lv_obj_style_gen.h ****     lv_style_value_t v = lv_obj_get_style_prop(obj, part, LV_STYLE_BG_GRAD_OPA);
 278:Drivers/lvgl/src/widgets/checkbox/../../core/lv_obj_style_gen.h ****     return (lv_opa_t)v.num;
 279:Drivers/lvgl/src/widgets/checkbox/../../core/lv_obj_style_gen.h **** }
 280:Drivers/lvgl/src/widgets/checkbox/../../core/lv_obj_style_gen.h **** 
 281:Drivers/lvgl/src/widgets/checkbox/../../core/lv_obj_style_gen.h **** static inline const lv_grad_dsc_t * lv_obj_get_style_bg_grad(const lv_obj_t * obj, lv_part_t part)
 282:Drivers/lvgl/src/widgets/checkbox/../../core/lv_obj_style_gen.h **** {
 283:Drivers/lvgl/src/widgets/checkbox/../../core/lv_obj_style_gen.h ****     lv_style_value_t v = lv_obj_get_style_prop(obj, part, LV_STYLE_BG_GRAD);
 284:Drivers/lvgl/src/widgets/checkbox/../../core/lv_obj_style_gen.h ****     return (const lv_grad_dsc_t *)v.ptr;
 285:Drivers/lvgl/src/widgets/checkbox/../../core/lv_obj_style_gen.h **** }
 286:Drivers/lvgl/src/widgets/checkbox/../../core/lv_obj_style_gen.h **** 
 287:Drivers/lvgl/src/widgets/checkbox/../../core/lv_obj_style_gen.h **** static inline const void * lv_obj_get_style_bg_image_src(const lv_obj_t * obj, lv_part_t part)
 288:Drivers/lvgl/src/widgets/checkbox/../../core/lv_obj_style_gen.h **** {
 289:Drivers/lvgl/src/widgets/checkbox/../../core/lv_obj_style_gen.h ****     lv_style_value_t v = lv_obj_get_style_prop(obj, part, LV_STYLE_BG_IMAGE_SRC);
 290:Drivers/lvgl/src/widgets/checkbox/../../core/lv_obj_style_gen.h ****     return (const void *)v.ptr;
 291:Drivers/lvgl/src/widgets/checkbox/../../core/lv_obj_style_gen.h **** }
 292:Drivers/lvgl/src/widgets/checkbox/../../core/lv_obj_style_gen.h **** 
 293:Drivers/lvgl/src/widgets/checkbox/../../core/lv_obj_style_gen.h **** static inline lv_opa_t lv_obj_get_style_bg_image_opa(const lv_obj_t * obj, lv_part_t part)
 294:Drivers/lvgl/src/widgets/checkbox/../../core/lv_obj_style_gen.h **** {
 295:Drivers/lvgl/src/widgets/checkbox/../../core/lv_obj_style_gen.h ****     lv_style_value_t v = lv_obj_get_style_prop(obj, part, LV_STYLE_BG_IMAGE_OPA);
 296:Drivers/lvgl/src/widgets/checkbox/../../core/lv_obj_style_gen.h ****     return (lv_opa_t)v.num;
 297:Drivers/lvgl/src/widgets/checkbox/../../core/lv_obj_style_gen.h **** }
 298:Drivers/lvgl/src/widgets/checkbox/../../core/lv_obj_style_gen.h **** 
 299:Drivers/lvgl/src/widgets/checkbox/../../core/lv_obj_style_gen.h **** static inline lv_color_t lv_obj_get_style_bg_image_recolor(const lv_obj_t * obj, lv_part_t part)
 300:Drivers/lvgl/src/widgets/checkbox/../../core/lv_obj_style_gen.h **** {
 301:Drivers/lvgl/src/widgets/checkbox/../../core/lv_obj_style_gen.h ****     lv_style_value_t v = lv_obj_get_style_prop(obj, part, LV_STYLE_BG_IMAGE_RECOLOR);
 302:Drivers/lvgl/src/widgets/checkbox/../../core/lv_obj_style_gen.h ****     return v.color;
 303:Drivers/lvgl/src/widgets/checkbox/../../core/lv_obj_style_gen.h **** }
 304:Drivers/lvgl/src/widgets/checkbox/../../core/lv_obj_style_gen.h **** 
 305:Drivers/lvgl/src/widgets/checkbox/../../core/lv_obj_style_gen.h **** static inline lv_color_t lv_obj_get_style_bg_image_recolor_filtered(const lv_obj_t * obj, lv_part_t
 306:Drivers/lvgl/src/widgets/checkbox/../../core/lv_obj_style_gen.h **** {
 307:Drivers/lvgl/src/widgets/checkbox/../../core/lv_obj_style_gen.h ****     lv_style_value_t v = lv_obj_style_apply_color_filter(obj, part, lv_obj_get_style_prop(obj, part
 308:Drivers/lvgl/src/widgets/checkbox/../../core/lv_obj_style_gen.h ****                                                                                           LV_STYLE_
 309:Drivers/lvgl/src/widgets/checkbox/../../core/lv_obj_style_gen.h ****     return v.color;
 310:Drivers/lvgl/src/widgets/checkbox/../../core/lv_obj_style_gen.h **** }
 311:Drivers/lvgl/src/widgets/checkbox/../../core/lv_obj_style_gen.h **** 
 312:Drivers/lvgl/src/widgets/checkbox/../../core/lv_obj_style_gen.h **** static inline lv_opa_t lv_obj_get_style_bg_image_recolor_opa(const lv_obj_t * obj, lv_part_t part)
 313:Drivers/lvgl/src/widgets/checkbox/../../core/lv_obj_style_gen.h **** {
 314:Drivers/lvgl/src/widgets/checkbox/../../core/lv_obj_style_gen.h ****     lv_style_value_t v = lv_obj_get_style_prop(obj, part, LV_STYLE_BG_IMAGE_RECOLOR_OPA);
 315:Drivers/lvgl/src/widgets/checkbox/../../core/lv_obj_style_gen.h ****     return (lv_opa_t)v.num;
 316:Drivers/lvgl/src/widgets/checkbox/../../core/lv_obj_style_gen.h **** }
 317:Drivers/lvgl/src/widgets/checkbox/../../core/lv_obj_style_gen.h **** 
 318:Drivers/lvgl/src/widgets/checkbox/../../core/lv_obj_style_gen.h **** static inline bool lv_obj_get_style_bg_image_tiled(const lv_obj_t * obj, lv_part_t part)
 319:Drivers/lvgl/src/widgets/checkbox/../../core/lv_obj_style_gen.h **** {
 320:Drivers/lvgl/src/widgets/checkbox/../../core/lv_obj_style_gen.h ****     lv_style_value_t v = lv_obj_get_style_prop(obj, part, LV_STYLE_BG_IMAGE_TILED);
 321:Drivers/lvgl/src/widgets/checkbox/../../core/lv_obj_style_gen.h ****     return (bool)v.num;
ARM GAS  /var/folders/qx/2_175_4n2s19vhvtspjhb3qh0000gn/T//ccirZTpW.s 			page 12


 322:Drivers/lvgl/src/widgets/checkbox/../../core/lv_obj_style_gen.h **** }
 323:Drivers/lvgl/src/widgets/checkbox/../../core/lv_obj_style_gen.h **** 
 324:Drivers/lvgl/src/widgets/checkbox/../../core/lv_obj_style_gen.h **** static inline lv_color_t lv_obj_get_style_border_color(const lv_obj_t * obj, lv_part_t part)
 325:Drivers/lvgl/src/widgets/checkbox/../../core/lv_obj_style_gen.h **** {
 326:Drivers/lvgl/src/widgets/checkbox/../../core/lv_obj_style_gen.h ****     lv_style_value_t v = lv_obj_get_style_prop(obj, part, LV_STYLE_BORDER_COLOR);
 327:Drivers/lvgl/src/widgets/checkbox/../../core/lv_obj_style_gen.h ****     return v.color;
 328:Drivers/lvgl/src/widgets/checkbox/../../core/lv_obj_style_gen.h **** }
 329:Drivers/lvgl/src/widgets/checkbox/../../core/lv_obj_style_gen.h **** 
 330:Drivers/lvgl/src/widgets/checkbox/../../core/lv_obj_style_gen.h **** static inline lv_color_t lv_obj_get_style_border_color_filtered(const lv_obj_t * obj, lv_part_t par
 331:Drivers/lvgl/src/widgets/checkbox/../../core/lv_obj_style_gen.h **** {
 332:Drivers/lvgl/src/widgets/checkbox/../../core/lv_obj_style_gen.h ****     lv_style_value_t v = lv_obj_style_apply_color_filter(obj, part, lv_obj_get_style_prop(obj, part
 333:Drivers/lvgl/src/widgets/checkbox/../../core/lv_obj_style_gen.h ****                                                                                           LV_STYLE_
 334:Drivers/lvgl/src/widgets/checkbox/../../core/lv_obj_style_gen.h ****     return v.color;
 335:Drivers/lvgl/src/widgets/checkbox/../../core/lv_obj_style_gen.h **** }
 336:Drivers/lvgl/src/widgets/checkbox/../../core/lv_obj_style_gen.h **** 
 337:Drivers/lvgl/src/widgets/checkbox/../../core/lv_obj_style_gen.h **** static inline lv_opa_t lv_obj_get_style_border_opa(const lv_obj_t * obj, lv_part_t part)
 338:Drivers/lvgl/src/widgets/checkbox/../../core/lv_obj_style_gen.h **** {
 339:Drivers/lvgl/src/widgets/checkbox/../../core/lv_obj_style_gen.h ****     lv_style_value_t v = lv_obj_get_style_prop(obj, part, LV_STYLE_BORDER_OPA);
 340:Drivers/lvgl/src/widgets/checkbox/../../core/lv_obj_style_gen.h ****     return (lv_opa_t)v.num;
 341:Drivers/lvgl/src/widgets/checkbox/../../core/lv_obj_style_gen.h **** }
 342:Drivers/lvgl/src/widgets/checkbox/../../core/lv_obj_style_gen.h **** 
 343:Drivers/lvgl/src/widgets/checkbox/../../core/lv_obj_style_gen.h **** static inline int32_t lv_obj_get_style_border_width(const lv_obj_t * obj, lv_part_t part)
 344:Drivers/lvgl/src/widgets/checkbox/../../core/lv_obj_style_gen.h **** {
 345:Drivers/lvgl/src/widgets/checkbox/../../core/lv_obj_style_gen.h ****     lv_style_value_t v = lv_obj_get_style_prop(obj, part, LV_STYLE_BORDER_WIDTH);
 346:Drivers/lvgl/src/widgets/checkbox/../../core/lv_obj_style_gen.h ****     return (int32_t)v.num;
 347:Drivers/lvgl/src/widgets/checkbox/../../core/lv_obj_style_gen.h **** }
 348:Drivers/lvgl/src/widgets/checkbox/../../core/lv_obj_style_gen.h **** 
 349:Drivers/lvgl/src/widgets/checkbox/../../core/lv_obj_style_gen.h **** static inline lv_border_side_t lv_obj_get_style_border_side(const lv_obj_t * obj, lv_part_t part)
 350:Drivers/lvgl/src/widgets/checkbox/../../core/lv_obj_style_gen.h **** {
 351:Drivers/lvgl/src/widgets/checkbox/../../core/lv_obj_style_gen.h ****     lv_style_value_t v = lv_obj_get_style_prop(obj, part, LV_STYLE_BORDER_SIDE);
 352:Drivers/lvgl/src/widgets/checkbox/../../core/lv_obj_style_gen.h ****     return (lv_border_side_t)v.num;
 353:Drivers/lvgl/src/widgets/checkbox/../../core/lv_obj_style_gen.h **** }
 354:Drivers/lvgl/src/widgets/checkbox/../../core/lv_obj_style_gen.h **** 
 355:Drivers/lvgl/src/widgets/checkbox/../../core/lv_obj_style_gen.h **** static inline bool lv_obj_get_style_border_post(const lv_obj_t * obj, lv_part_t part)
 356:Drivers/lvgl/src/widgets/checkbox/../../core/lv_obj_style_gen.h **** {
 357:Drivers/lvgl/src/widgets/checkbox/../../core/lv_obj_style_gen.h ****     lv_style_value_t v = lv_obj_get_style_prop(obj, part, LV_STYLE_BORDER_POST);
 358:Drivers/lvgl/src/widgets/checkbox/../../core/lv_obj_style_gen.h ****     return (bool)v.num;
 359:Drivers/lvgl/src/widgets/checkbox/../../core/lv_obj_style_gen.h **** }
 360:Drivers/lvgl/src/widgets/checkbox/../../core/lv_obj_style_gen.h **** 
 361:Drivers/lvgl/src/widgets/checkbox/../../core/lv_obj_style_gen.h **** static inline int32_t lv_obj_get_style_outline_width(const lv_obj_t * obj, lv_part_t part)
 362:Drivers/lvgl/src/widgets/checkbox/../../core/lv_obj_style_gen.h **** {
 363:Drivers/lvgl/src/widgets/checkbox/../../core/lv_obj_style_gen.h ****     lv_style_value_t v = lv_obj_get_style_prop(obj, part, LV_STYLE_OUTLINE_WIDTH);
 364:Drivers/lvgl/src/widgets/checkbox/../../core/lv_obj_style_gen.h ****     return (int32_t)v.num;
 365:Drivers/lvgl/src/widgets/checkbox/../../core/lv_obj_style_gen.h **** }
 366:Drivers/lvgl/src/widgets/checkbox/../../core/lv_obj_style_gen.h **** 
 367:Drivers/lvgl/src/widgets/checkbox/../../core/lv_obj_style_gen.h **** static inline lv_color_t lv_obj_get_style_outline_color(const lv_obj_t * obj, lv_part_t part)
 368:Drivers/lvgl/src/widgets/checkbox/../../core/lv_obj_style_gen.h **** {
 369:Drivers/lvgl/src/widgets/checkbox/../../core/lv_obj_style_gen.h ****     lv_style_value_t v = lv_obj_get_style_prop(obj, part, LV_STYLE_OUTLINE_COLOR);
 370:Drivers/lvgl/src/widgets/checkbox/../../core/lv_obj_style_gen.h ****     return v.color;
 371:Drivers/lvgl/src/widgets/checkbox/../../core/lv_obj_style_gen.h **** }
 372:Drivers/lvgl/src/widgets/checkbox/../../core/lv_obj_style_gen.h **** 
 373:Drivers/lvgl/src/widgets/checkbox/../../core/lv_obj_style_gen.h **** static inline lv_color_t lv_obj_get_style_outline_color_filtered(const lv_obj_t * obj, lv_part_t pa
 374:Drivers/lvgl/src/widgets/checkbox/../../core/lv_obj_style_gen.h **** {
 375:Drivers/lvgl/src/widgets/checkbox/../../core/lv_obj_style_gen.h ****     lv_style_value_t v = lv_obj_style_apply_color_filter(obj, part, lv_obj_get_style_prop(obj, part
 376:Drivers/lvgl/src/widgets/checkbox/../../core/lv_obj_style_gen.h ****                                                                                           LV_STYLE_
 377:Drivers/lvgl/src/widgets/checkbox/../../core/lv_obj_style_gen.h ****     return v.color;
 378:Drivers/lvgl/src/widgets/checkbox/../../core/lv_obj_style_gen.h **** }
ARM GAS  /var/folders/qx/2_175_4n2s19vhvtspjhb3qh0000gn/T//ccirZTpW.s 			page 13


 379:Drivers/lvgl/src/widgets/checkbox/../../core/lv_obj_style_gen.h **** 
 380:Drivers/lvgl/src/widgets/checkbox/../../core/lv_obj_style_gen.h **** static inline lv_opa_t lv_obj_get_style_outline_opa(const lv_obj_t * obj, lv_part_t part)
 381:Drivers/lvgl/src/widgets/checkbox/../../core/lv_obj_style_gen.h **** {
 382:Drivers/lvgl/src/widgets/checkbox/../../core/lv_obj_style_gen.h ****     lv_style_value_t v = lv_obj_get_style_prop(obj, part, LV_STYLE_OUTLINE_OPA);
 383:Drivers/lvgl/src/widgets/checkbox/../../core/lv_obj_style_gen.h ****     return (lv_opa_t)v.num;
 384:Drivers/lvgl/src/widgets/checkbox/../../core/lv_obj_style_gen.h **** }
 385:Drivers/lvgl/src/widgets/checkbox/../../core/lv_obj_style_gen.h **** 
 386:Drivers/lvgl/src/widgets/checkbox/../../core/lv_obj_style_gen.h **** static inline int32_t lv_obj_get_style_outline_pad(const lv_obj_t * obj, lv_part_t part)
 387:Drivers/lvgl/src/widgets/checkbox/../../core/lv_obj_style_gen.h **** {
 388:Drivers/lvgl/src/widgets/checkbox/../../core/lv_obj_style_gen.h ****     lv_style_value_t v = lv_obj_get_style_prop(obj, part, LV_STYLE_OUTLINE_PAD);
 389:Drivers/lvgl/src/widgets/checkbox/../../core/lv_obj_style_gen.h ****     return (int32_t)v.num;
 390:Drivers/lvgl/src/widgets/checkbox/../../core/lv_obj_style_gen.h **** }
 391:Drivers/lvgl/src/widgets/checkbox/../../core/lv_obj_style_gen.h **** 
 392:Drivers/lvgl/src/widgets/checkbox/../../core/lv_obj_style_gen.h **** static inline int32_t lv_obj_get_style_shadow_width(const lv_obj_t * obj, lv_part_t part)
 393:Drivers/lvgl/src/widgets/checkbox/../../core/lv_obj_style_gen.h **** {
 394:Drivers/lvgl/src/widgets/checkbox/../../core/lv_obj_style_gen.h ****     lv_style_value_t v = lv_obj_get_style_prop(obj, part, LV_STYLE_SHADOW_WIDTH);
 395:Drivers/lvgl/src/widgets/checkbox/../../core/lv_obj_style_gen.h ****     return (int32_t)v.num;
 396:Drivers/lvgl/src/widgets/checkbox/../../core/lv_obj_style_gen.h **** }
 397:Drivers/lvgl/src/widgets/checkbox/../../core/lv_obj_style_gen.h **** 
 398:Drivers/lvgl/src/widgets/checkbox/../../core/lv_obj_style_gen.h **** static inline int32_t lv_obj_get_style_shadow_offset_x(const lv_obj_t * obj, lv_part_t part)
 399:Drivers/lvgl/src/widgets/checkbox/../../core/lv_obj_style_gen.h **** {
 400:Drivers/lvgl/src/widgets/checkbox/../../core/lv_obj_style_gen.h ****     lv_style_value_t v = lv_obj_get_style_prop(obj, part, LV_STYLE_SHADOW_OFFSET_X);
 401:Drivers/lvgl/src/widgets/checkbox/../../core/lv_obj_style_gen.h ****     return (int32_t)v.num;
 402:Drivers/lvgl/src/widgets/checkbox/../../core/lv_obj_style_gen.h **** }
 403:Drivers/lvgl/src/widgets/checkbox/../../core/lv_obj_style_gen.h **** 
 404:Drivers/lvgl/src/widgets/checkbox/../../core/lv_obj_style_gen.h **** static inline int32_t lv_obj_get_style_shadow_offset_y(const lv_obj_t * obj, lv_part_t part)
 405:Drivers/lvgl/src/widgets/checkbox/../../core/lv_obj_style_gen.h **** {
 406:Drivers/lvgl/src/widgets/checkbox/../../core/lv_obj_style_gen.h ****     lv_style_value_t v = lv_obj_get_style_prop(obj, part, LV_STYLE_SHADOW_OFFSET_Y);
 407:Drivers/lvgl/src/widgets/checkbox/../../core/lv_obj_style_gen.h ****     return (int32_t)v.num;
 408:Drivers/lvgl/src/widgets/checkbox/../../core/lv_obj_style_gen.h **** }
 409:Drivers/lvgl/src/widgets/checkbox/../../core/lv_obj_style_gen.h **** 
 410:Drivers/lvgl/src/widgets/checkbox/../../core/lv_obj_style_gen.h **** static inline int32_t lv_obj_get_style_shadow_spread(const lv_obj_t * obj, lv_part_t part)
 411:Drivers/lvgl/src/widgets/checkbox/../../core/lv_obj_style_gen.h **** {
 412:Drivers/lvgl/src/widgets/checkbox/../../core/lv_obj_style_gen.h ****     lv_style_value_t v = lv_obj_get_style_prop(obj, part, LV_STYLE_SHADOW_SPREAD);
 413:Drivers/lvgl/src/widgets/checkbox/../../core/lv_obj_style_gen.h ****     return (int32_t)v.num;
 414:Drivers/lvgl/src/widgets/checkbox/../../core/lv_obj_style_gen.h **** }
 415:Drivers/lvgl/src/widgets/checkbox/../../core/lv_obj_style_gen.h **** 
 416:Drivers/lvgl/src/widgets/checkbox/../../core/lv_obj_style_gen.h **** static inline lv_color_t lv_obj_get_style_shadow_color(const lv_obj_t * obj, lv_part_t part)
 417:Drivers/lvgl/src/widgets/checkbox/../../core/lv_obj_style_gen.h **** {
 418:Drivers/lvgl/src/widgets/checkbox/../../core/lv_obj_style_gen.h ****     lv_style_value_t v = lv_obj_get_style_prop(obj, part, LV_STYLE_SHADOW_COLOR);
 419:Drivers/lvgl/src/widgets/checkbox/../../core/lv_obj_style_gen.h ****     return v.color;
 420:Drivers/lvgl/src/widgets/checkbox/../../core/lv_obj_style_gen.h **** }
 421:Drivers/lvgl/src/widgets/checkbox/../../core/lv_obj_style_gen.h **** 
 422:Drivers/lvgl/src/widgets/checkbox/../../core/lv_obj_style_gen.h **** static inline lv_color_t lv_obj_get_style_shadow_color_filtered(const lv_obj_t * obj, lv_part_t par
 423:Drivers/lvgl/src/widgets/checkbox/../../core/lv_obj_style_gen.h **** {
 424:Drivers/lvgl/src/widgets/checkbox/../../core/lv_obj_style_gen.h ****     lv_style_value_t v = lv_obj_style_apply_color_filter(obj, part, lv_obj_get_style_prop(obj, part
 425:Drivers/lvgl/src/widgets/checkbox/../../core/lv_obj_style_gen.h ****                                                                                           LV_STYLE_
 426:Drivers/lvgl/src/widgets/checkbox/../../core/lv_obj_style_gen.h ****     return v.color;
 427:Drivers/lvgl/src/widgets/checkbox/../../core/lv_obj_style_gen.h **** }
 428:Drivers/lvgl/src/widgets/checkbox/../../core/lv_obj_style_gen.h **** 
 429:Drivers/lvgl/src/widgets/checkbox/../../core/lv_obj_style_gen.h **** static inline lv_opa_t lv_obj_get_style_shadow_opa(const lv_obj_t * obj, lv_part_t part)
 430:Drivers/lvgl/src/widgets/checkbox/../../core/lv_obj_style_gen.h **** {
 431:Drivers/lvgl/src/widgets/checkbox/../../core/lv_obj_style_gen.h ****     lv_style_value_t v = lv_obj_get_style_prop(obj, part, LV_STYLE_SHADOW_OPA);
 432:Drivers/lvgl/src/widgets/checkbox/../../core/lv_obj_style_gen.h ****     return (lv_opa_t)v.num;
 433:Drivers/lvgl/src/widgets/checkbox/../../core/lv_obj_style_gen.h **** }
 434:Drivers/lvgl/src/widgets/checkbox/../../core/lv_obj_style_gen.h **** 
 435:Drivers/lvgl/src/widgets/checkbox/../../core/lv_obj_style_gen.h **** static inline lv_opa_t lv_obj_get_style_image_opa(const lv_obj_t * obj, lv_part_t part)
ARM GAS  /var/folders/qx/2_175_4n2s19vhvtspjhb3qh0000gn/T//ccirZTpW.s 			page 14


 436:Drivers/lvgl/src/widgets/checkbox/../../core/lv_obj_style_gen.h **** {
 437:Drivers/lvgl/src/widgets/checkbox/../../core/lv_obj_style_gen.h ****     lv_style_value_t v = lv_obj_get_style_prop(obj, part, LV_STYLE_IMAGE_OPA);
 438:Drivers/lvgl/src/widgets/checkbox/../../core/lv_obj_style_gen.h ****     return (lv_opa_t)v.num;
 439:Drivers/lvgl/src/widgets/checkbox/../../core/lv_obj_style_gen.h **** }
 440:Drivers/lvgl/src/widgets/checkbox/../../core/lv_obj_style_gen.h **** 
 441:Drivers/lvgl/src/widgets/checkbox/../../core/lv_obj_style_gen.h **** static inline lv_color_t lv_obj_get_style_image_recolor(const lv_obj_t * obj, lv_part_t part)
 442:Drivers/lvgl/src/widgets/checkbox/../../core/lv_obj_style_gen.h **** {
 443:Drivers/lvgl/src/widgets/checkbox/../../core/lv_obj_style_gen.h ****     lv_style_value_t v = lv_obj_get_style_prop(obj, part, LV_STYLE_IMAGE_RECOLOR);
 444:Drivers/lvgl/src/widgets/checkbox/../../core/lv_obj_style_gen.h ****     return v.color;
 445:Drivers/lvgl/src/widgets/checkbox/../../core/lv_obj_style_gen.h **** }
 446:Drivers/lvgl/src/widgets/checkbox/../../core/lv_obj_style_gen.h **** 
 447:Drivers/lvgl/src/widgets/checkbox/../../core/lv_obj_style_gen.h **** static inline lv_color_t lv_obj_get_style_image_recolor_filtered(const lv_obj_t * obj, lv_part_t pa
 448:Drivers/lvgl/src/widgets/checkbox/../../core/lv_obj_style_gen.h **** {
 449:Drivers/lvgl/src/widgets/checkbox/../../core/lv_obj_style_gen.h ****     lv_style_value_t v = lv_obj_style_apply_color_filter(obj, part, lv_obj_get_style_prop(obj, part
 450:Drivers/lvgl/src/widgets/checkbox/../../core/lv_obj_style_gen.h ****                                                                                           LV_STYLE_
 451:Drivers/lvgl/src/widgets/checkbox/../../core/lv_obj_style_gen.h ****     return v.color;
 452:Drivers/lvgl/src/widgets/checkbox/../../core/lv_obj_style_gen.h **** }
 453:Drivers/lvgl/src/widgets/checkbox/../../core/lv_obj_style_gen.h **** 
 454:Drivers/lvgl/src/widgets/checkbox/../../core/lv_obj_style_gen.h **** static inline lv_opa_t lv_obj_get_style_image_recolor_opa(const lv_obj_t * obj, lv_part_t part)
 455:Drivers/lvgl/src/widgets/checkbox/../../core/lv_obj_style_gen.h **** {
 456:Drivers/lvgl/src/widgets/checkbox/../../core/lv_obj_style_gen.h ****     lv_style_value_t v = lv_obj_get_style_prop(obj, part, LV_STYLE_IMAGE_RECOLOR_OPA);
 457:Drivers/lvgl/src/widgets/checkbox/../../core/lv_obj_style_gen.h ****     return (lv_opa_t)v.num;
 458:Drivers/lvgl/src/widgets/checkbox/../../core/lv_obj_style_gen.h **** }
 459:Drivers/lvgl/src/widgets/checkbox/../../core/lv_obj_style_gen.h **** 
 460:Drivers/lvgl/src/widgets/checkbox/../../core/lv_obj_style_gen.h **** static inline const lv_image_colorkey_t * lv_obj_get_style_image_colorkey(const lv_obj_t * obj, lv_
 461:Drivers/lvgl/src/widgets/checkbox/../../core/lv_obj_style_gen.h **** {
 462:Drivers/lvgl/src/widgets/checkbox/../../core/lv_obj_style_gen.h ****     lv_style_value_t v = lv_obj_get_style_prop(obj, part, LV_STYLE_IMAGE_COLORKEY);
 463:Drivers/lvgl/src/widgets/checkbox/../../core/lv_obj_style_gen.h ****     return (const lv_image_colorkey_t *)v.ptr;
 464:Drivers/lvgl/src/widgets/checkbox/../../core/lv_obj_style_gen.h **** }
 465:Drivers/lvgl/src/widgets/checkbox/../../core/lv_obj_style_gen.h **** 
 466:Drivers/lvgl/src/widgets/checkbox/../../core/lv_obj_style_gen.h **** static inline int32_t lv_obj_get_style_line_width(const lv_obj_t * obj, lv_part_t part)
 467:Drivers/lvgl/src/widgets/checkbox/../../core/lv_obj_style_gen.h **** {
 468:Drivers/lvgl/src/widgets/checkbox/../../core/lv_obj_style_gen.h ****     lv_style_value_t v = lv_obj_get_style_prop(obj, part, LV_STYLE_LINE_WIDTH);
 469:Drivers/lvgl/src/widgets/checkbox/../../core/lv_obj_style_gen.h ****     return (int32_t)v.num;
 470:Drivers/lvgl/src/widgets/checkbox/../../core/lv_obj_style_gen.h **** }
 471:Drivers/lvgl/src/widgets/checkbox/../../core/lv_obj_style_gen.h **** 
 472:Drivers/lvgl/src/widgets/checkbox/../../core/lv_obj_style_gen.h **** static inline int32_t lv_obj_get_style_line_dash_width(const lv_obj_t * obj, lv_part_t part)
 473:Drivers/lvgl/src/widgets/checkbox/../../core/lv_obj_style_gen.h **** {
 474:Drivers/lvgl/src/widgets/checkbox/../../core/lv_obj_style_gen.h ****     lv_style_value_t v = lv_obj_get_style_prop(obj, part, LV_STYLE_LINE_DASH_WIDTH);
 475:Drivers/lvgl/src/widgets/checkbox/../../core/lv_obj_style_gen.h ****     return (int32_t)v.num;
 476:Drivers/lvgl/src/widgets/checkbox/../../core/lv_obj_style_gen.h **** }
 477:Drivers/lvgl/src/widgets/checkbox/../../core/lv_obj_style_gen.h **** 
 478:Drivers/lvgl/src/widgets/checkbox/../../core/lv_obj_style_gen.h **** static inline int32_t lv_obj_get_style_line_dash_gap(const lv_obj_t * obj, lv_part_t part)
 479:Drivers/lvgl/src/widgets/checkbox/../../core/lv_obj_style_gen.h **** {
 480:Drivers/lvgl/src/widgets/checkbox/../../core/lv_obj_style_gen.h ****     lv_style_value_t v = lv_obj_get_style_prop(obj, part, LV_STYLE_LINE_DASH_GAP);
 481:Drivers/lvgl/src/widgets/checkbox/../../core/lv_obj_style_gen.h ****     return (int32_t)v.num;
 482:Drivers/lvgl/src/widgets/checkbox/../../core/lv_obj_style_gen.h **** }
 483:Drivers/lvgl/src/widgets/checkbox/../../core/lv_obj_style_gen.h **** 
 484:Drivers/lvgl/src/widgets/checkbox/../../core/lv_obj_style_gen.h **** static inline bool lv_obj_get_style_line_rounded(const lv_obj_t * obj, lv_part_t part)
 485:Drivers/lvgl/src/widgets/checkbox/../../core/lv_obj_style_gen.h **** {
 486:Drivers/lvgl/src/widgets/checkbox/../../core/lv_obj_style_gen.h ****     lv_style_value_t v = lv_obj_get_style_prop(obj, part, LV_STYLE_LINE_ROUNDED);
 487:Drivers/lvgl/src/widgets/checkbox/../../core/lv_obj_style_gen.h ****     return (bool)v.num;
 488:Drivers/lvgl/src/widgets/checkbox/../../core/lv_obj_style_gen.h **** }
 489:Drivers/lvgl/src/widgets/checkbox/../../core/lv_obj_style_gen.h **** 
 490:Drivers/lvgl/src/widgets/checkbox/../../core/lv_obj_style_gen.h **** static inline lv_color_t lv_obj_get_style_line_color(const lv_obj_t * obj, lv_part_t part)
 491:Drivers/lvgl/src/widgets/checkbox/../../core/lv_obj_style_gen.h **** {
 492:Drivers/lvgl/src/widgets/checkbox/../../core/lv_obj_style_gen.h ****     lv_style_value_t v = lv_obj_get_style_prop(obj, part, LV_STYLE_LINE_COLOR);
ARM GAS  /var/folders/qx/2_175_4n2s19vhvtspjhb3qh0000gn/T//ccirZTpW.s 			page 15


 493:Drivers/lvgl/src/widgets/checkbox/../../core/lv_obj_style_gen.h ****     return v.color;
 494:Drivers/lvgl/src/widgets/checkbox/../../core/lv_obj_style_gen.h **** }
 495:Drivers/lvgl/src/widgets/checkbox/../../core/lv_obj_style_gen.h **** 
 496:Drivers/lvgl/src/widgets/checkbox/../../core/lv_obj_style_gen.h **** static inline lv_color_t lv_obj_get_style_line_color_filtered(const lv_obj_t * obj, lv_part_t part)
 497:Drivers/lvgl/src/widgets/checkbox/../../core/lv_obj_style_gen.h **** {
 498:Drivers/lvgl/src/widgets/checkbox/../../core/lv_obj_style_gen.h ****     lv_style_value_t v = lv_obj_style_apply_color_filter(obj, part, lv_obj_get_style_prop(obj, part
 499:Drivers/lvgl/src/widgets/checkbox/../../core/lv_obj_style_gen.h ****     return v.color;
 500:Drivers/lvgl/src/widgets/checkbox/../../core/lv_obj_style_gen.h **** }
 501:Drivers/lvgl/src/widgets/checkbox/../../core/lv_obj_style_gen.h **** 
 502:Drivers/lvgl/src/widgets/checkbox/../../core/lv_obj_style_gen.h **** static inline lv_opa_t lv_obj_get_style_line_opa(const lv_obj_t * obj, lv_part_t part)
 503:Drivers/lvgl/src/widgets/checkbox/../../core/lv_obj_style_gen.h **** {
 504:Drivers/lvgl/src/widgets/checkbox/../../core/lv_obj_style_gen.h ****     lv_style_value_t v = lv_obj_get_style_prop(obj, part, LV_STYLE_LINE_OPA);
 505:Drivers/lvgl/src/widgets/checkbox/../../core/lv_obj_style_gen.h ****     return (lv_opa_t)v.num;
 506:Drivers/lvgl/src/widgets/checkbox/../../core/lv_obj_style_gen.h **** }
 507:Drivers/lvgl/src/widgets/checkbox/../../core/lv_obj_style_gen.h **** 
 508:Drivers/lvgl/src/widgets/checkbox/../../core/lv_obj_style_gen.h **** static inline int32_t lv_obj_get_style_arc_width(const lv_obj_t * obj, lv_part_t part)
 509:Drivers/lvgl/src/widgets/checkbox/../../core/lv_obj_style_gen.h **** {
 510:Drivers/lvgl/src/widgets/checkbox/../../core/lv_obj_style_gen.h ****     lv_style_value_t v = lv_obj_get_style_prop(obj, part, LV_STYLE_ARC_WIDTH);
 511:Drivers/lvgl/src/widgets/checkbox/../../core/lv_obj_style_gen.h ****     return (int32_t)v.num;
 512:Drivers/lvgl/src/widgets/checkbox/../../core/lv_obj_style_gen.h **** }
 513:Drivers/lvgl/src/widgets/checkbox/../../core/lv_obj_style_gen.h **** 
 514:Drivers/lvgl/src/widgets/checkbox/../../core/lv_obj_style_gen.h **** static inline bool lv_obj_get_style_arc_rounded(const lv_obj_t * obj, lv_part_t part)
 515:Drivers/lvgl/src/widgets/checkbox/../../core/lv_obj_style_gen.h **** {
 516:Drivers/lvgl/src/widgets/checkbox/../../core/lv_obj_style_gen.h ****     lv_style_value_t v = lv_obj_get_style_prop(obj, part, LV_STYLE_ARC_ROUNDED);
 517:Drivers/lvgl/src/widgets/checkbox/../../core/lv_obj_style_gen.h ****     return (bool)v.num;
 518:Drivers/lvgl/src/widgets/checkbox/../../core/lv_obj_style_gen.h **** }
 519:Drivers/lvgl/src/widgets/checkbox/../../core/lv_obj_style_gen.h **** 
 520:Drivers/lvgl/src/widgets/checkbox/../../core/lv_obj_style_gen.h **** static inline lv_color_t lv_obj_get_style_arc_color(const lv_obj_t * obj, lv_part_t part)
 521:Drivers/lvgl/src/widgets/checkbox/../../core/lv_obj_style_gen.h **** {
 522:Drivers/lvgl/src/widgets/checkbox/../../core/lv_obj_style_gen.h ****     lv_style_value_t v = lv_obj_get_style_prop(obj, part, LV_STYLE_ARC_COLOR);
 523:Drivers/lvgl/src/widgets/checkbox/../../core/lv_obj_style_gen.h ****     return v.color;
 524:Drivers/lvgl/src/widgets/checkbox/../../core/lv_obj_style_gen.h **** }
 525:Drivers/lvgl/src/widgets/checkbox/../../core/lv_obj_style_gen.h **** 
 526:Drivers/lvgl/src/widgets/checkbox/../../core/lv_obj_style_gen.h **** static inline lv_color_t lv_obj_get_style_arc_color_filtered(const lv_obj_t * obj, lv_part_t part)
 527:Drivers/lvgl/src/widgets/checkbox/../../core/lv_obj_style_gen.h **** {
 528:Drivers/lvgl/src/widgets/checkbox/../../core/lv_obj_style_gen.h ****     lv_style_value_t v = lv_obj_style_apply_color_filter(obj, part, lv_obj_get_style_prop(obj, part
 529:Drivers/lvgl/src/widgets/checkbox/../../core/lv_obj_style_gen.h ****     return v.color;
 530:Drivers/lvgl/src/widgets/checkbox/../../core/lv_obj_style_gen.h **** }
 531:Drivers/lvgl/src/widgets/checkbox/../../core/lv_obj_style_gen.h **** 
 532:Drivers/lvgl/src/widgets/checkbox/../../core/lv_obj_style_gen.h **** static inline lv_opa_t lv_obj_get_style_arc_opa(const lv_obj_t * obj, lv_part_t part)
 533:Drivers/lvgl/src/widgets/checkbox/../../core/lv_obj_style_gen.h **** {
 534:Drivers/lvgl/src/widgets/checkbox/../../core/lv_obj_style_gen.h ****     lv_style_value_t v = lv_obj_get_style_prop(obj, part, LV_STYLE_ARC_OPA);
 535:Drivers/lvgl/src/widgets/checkbox/../../core/lv_obj_style_gen.h ****     return (lv_opa_t)v.num;
 536:Drivers/lvgl/src/widgets/checkbox/../../core/lv_obj_style_gen.h **** }
 537:Drivers/lvgl/src/widgets/checkbox/../../core/lv_obj_style_gen.h **** 
 538:Drivers/lvgl/src/widgets/checkbox/../../core/lv_obj_style_gen.h **** static inline const void * lv_obj_get_style_arc_image_src(const lv_obj_t * obj, lv_part_t part)
 539:Drivers/lvgl/src/widgets/checkbox/../../core/lv_obj_style_gen.h **** {
 540:Drivers/lvgl/src/widgets/checkbox/../../core/lv_obj_style_gen.h ****     lv_style_value_t v = lv_obj_get_style_prop(obj, part, LV_STYLE_ARC_IMAGE_SRC);
 541:Drivers/lvgl/src/widgets/checkbox/../../core/lv_obj_style_gen.h ****     return (const void *)v.ptr;
 542:Drivers/lvgl/src/widgets/checkbox/../../core/lv_obj_style_gen.h **** }
 543:Drivers/lvgl/src/widgets/checkbox/../../core/lv_obj_style_gen.h **** 
 544:Drivers/lvgl/src/widgets/checkbox/../../core/lv_obj_style_gen.h **** static inline lv_color_t lv_obj_get_style_text_color(const lv_obj_t * obj, lv_part_t part)
 545:Drivers/lvgl/src/widgets/checkbox/../../core/lv_obj_style_gen.h **** {
 546:Drivers/lvgl/src/widgets/checkbox/../../core/lv_obj_style_gen.h ****     lv_style_value_t v = lv_obj_get_style_prop(obj, part, LV_STYLE_TEXT_COLOR);
 547:Drivers/lvgl/src/widgets/checkbox/../../core/lv_obj_style_gen.h ****     return v.color;
 548:Drivers/lvgl/src/widgets/checkbox/../../core/lv_obj_style_gen.h **** }
 549:Drivers/lvgl/src/widgets/checkbox/../../core/lv_obj_style_gen.h **** 
ARM GAS  /var/folders/qx/2_175_4n2s19vhvtspjhb3qh0000gn/T//ccirZTpW.s 			page 16


 550:Drivers/lvgl/src/widgets/checkbox/../../core/lv_obj_style_gen.h **** static inline lv_color_t lv_obj_get_style_text_color_filtered(const lv_obj_t * obj, lv_part_t part)
 551:Drivers/lvgl/src/widgets/checkbox/../../core/lv_obj_style_gen.h **** {
 552:Drivers/lvgl/src/widgets/checkbox/../../core/lv_obj_style_gen.h ****     lv_style_value_t v = lv_obj_style_apply_color_filter(obj, part, lv_obj_get_style_prop(obj, part
 553:Drivers/lvgl/src/widgets/checkbox/../../core/lv_obj_style_gen.h ****     return v.color;
 554:Drivers/lvgl/src/widgets/checkbox/../../core/lv_obj_style_gen.h **** }
 555:Drivers/lvgl/src/widgets/checkbox/../../core/lv_obj_style_gen.h **** 
 556:Drivers/lvgl/src/widgets/checkbox/../../core/lv_obj_style_gen.h **** static inline lv_opa_t lv_obj_get_style_text_opa(const lv_obj_t * obj, lv_part_t part)
 557:Drivers/lvgl/src/widgets/checkbox/../../core/lv_obj_style_gen.h **** {
 558:Drivers/lvgl/src/widgets/checkbox/../../core/lv_obj_style_gen.h ****     lv_style_value_t v = lv_obj_get_style_prop(obj, part, LV_STYLE_TEXT_OPA);
 559:Drivers/lvgl/src/widgets/checkbox/../../core/lv_obj_style_gen.h ****     return (lv_opa_t)v.num;
 560:Drivers/lvgl/src/widgets/checkbox/../../core/lv_obj_style_gen.h **** }
 561:Drivers/lvgl/src/widgets/checkbox/../../core/lv_obj_style_gen.h **** 
 562:Drivers/lvgl/src/widgets/checkbox/../../core/lv_obj_style_gen.h **** static inline const lv_font_t * lv_obj_get_style_text_font(const lv_obj_t * obj, lv_part_t part)
  71              		.loc 2 562 33 view .LVU10
  72              	.LBB53:
 563:Drivers/lvgl/src/widgets/checkbox/../../core/lv_obj_style_gen.h **** {
 564:Drivers/lvgl/src/widgets/checkbox/../../core/lv_obj_style_gen.h ****     lv_style_value_t v = lv_obj_get_style_prop(obj, part, LV_STYLE_TEXT_FONT);
  73              		.loc 2 564 5 view .LVU11
  74              		.loc 2 564 26 is_stmt 0 view .LVU12
  75 0016 5A22     		movs	r2, #90
  76 0018 0021     		movs	r1, #0
  77 001a 2046     		mov	r0, r4
  78              	.LVL6:
  79              		.loc 2 564 26 view .LVU13
  80 001c FFF7FEFF 		bl	lv_obj_get_style_prop
  81              	.LVL7:
  82 0020 0290     		str	r0, [sp, #8]
  83 0022 0990     		str	r0, [sp, #36]
 565:Drivers/lvgl/src/widgets/checkbox/../../core/lv_obj_style_gen.h ****     return (const lv_font_t *)v.ptr;
  84              		.loc 2 565 5 is_stmt 1 view .LVU14
  85              	.LVL8:
  86              		.loc 2 565 5 is_stmt 0 view .LVU15
  87              	.LBE53:
  88              	.LBE52:
 238:Drivers/lvgl/src/widgets/checkbox/lv_checkbox.c ****     int32_t font_h = lv_font_get_line_height(font);
  89              		.loc 1 238 5 is_stmt 1 view .LVU16
  90              		.loc 1 238 22 is_stmt 0 view .LVU17
  91 0024 FFF7FEFF 		bl	lv_font_get_line_height
  92              	.LVL9:
  93              		.loc 1 238 22 view .LVU18
  94 0028 8146     		mov	r9, r0
  95              	.LVL10:
 239:Drivers/lvgl/src/widgets/checkbox/lv_checkbox.c **** 
 240:Drivers/lvgl/src/widgets/checkbox/lv_checkbox.c ****     const bool is_rtl = LV_BASE_DIR_RTL == lv_obj_get_style_base_dir(obj, LV_PART_MAIN);
  96              		.loc 1 240 5 is_stmt 1 view .LVU19
  97              	.LBB54:
  98              	.LBI54:
 566:Drivers/lvgl/src/widgets/checkbox/../../core/lv_obj_style_gen.h **** }
 567:Drivers/lvgl/src/widgets/checkbox/../../core/lv_obj_style_gen.h **** 
 568:Drivers/lvgl/src/widgets/checkbox/../../core/lv_obj_style_gen.h **** static inline int32_t lv_obj_get_style_text_letter_space(const lv_obj_t * obj, lv_part_t part)
 569:Drivers/lvgl/src/widgets/checkbox/../../core/lv_obj_style_gen.h **** {
 570:Drivers/lvgl/src/widgets/checkbox/../../core/lv_obj_style_gen.h ****     lv_style_value_t v = lv_obj_get_style_prop(obj, part, LV_STYLE_TEXT_LETTER_SPACE);
 571:Drivers/lvgl/src/widgets/checkbox/../../core/lv_obj_style_gen.h ****     return (int32_t)v.num;
 572:Drivers/lvgl/src/widgets/checkbox/../../core/lv_obj_style_gen.h **** }
 573:Drivers/lvgl/src/widgets/checkbox/../../core/lv_obj_style_gen.h **** 
 574:Drivers/lvgl/src/widgets/checkbox/../../core/lv_obj_style_gen.h **** static inline int32_t lv_obj_get_style_text_line_space(const lv_obj_t * obj, lv_part_t part)
 575:Drivers/lvgl/src/widgets/checkbox/../../core/lv_obj_style_gen.h **** {
ARM GAS  /var/folders/qx/2_175_4n2s19vhvtspjhb3qh0000gn/T//ccirZTpW.s 			page 17


 576:Drivers/lvgl/src/widgets/checkbox/../../core/lv_obj_style_gen.h ****     lv_style_value_t v = lv_obj_get_style_prop(obj, part, LV_STYLE_TEXT_LINE_SPACE);
 577:Drivers/lvgl/src/widgets/checkbox/../../core/lv_obj_style_gen.h ****     return (int32_t)v.num;
 578:Drivers/lvgl/src/widgets/checkbox/../../core/lv_obj_style_gen.h **** }
 579:Drivers/lvgl/src/widgets/checkbox/../../core/lv_obj_style_gen.h **** 
 580:Drivers/lvgl/src/widgets/checkbox/../../core/lv_obj_style_gen.h **** static inline lv_text_decor_t lv_obj_get_style_text_decor(const lv_obj_t * obj, lv_part_t part)
 581:Drivers/lvgl/src/widgets/checkbox/../../core/lv_obj_style_gen.h **** {
 582:Drivers/lvgl/src/widgets/checkbox/../../core/lv_obj_style_gen.h ****     lv_style_value_t v = lv_obj_get_style_prop(obj, part, LV_STYLE_TEXT_DECOR);
 583:Drivers/lvgl/src/widgets/checkbox/../../core/lv_obj_style_gen.h ****     return (lv_text_decor_t)v.num;
 584:Drivers/lvgl/src/widgets/checkbox/../../core/lv_obj_style_gen.h **** }
 585:Drivers/lvgl/src/widgets/checkbox/../../core/lv_obj_style_gen.h **** 
 586:Drivers/lvgl/src/widgets/checkbox/../../core/lv_obj_style_gen.h **** static inline lv_text_align_t lv_obj_get_style_text_align(const lv_obj_t * obj, lv_part_t part)
 587:Drivers/lvgl/src/widgets/checkbox/../../core/lv_obj_style_gen.h **** {
 588:Drivers/lvgl/src/widgets/checkbox/../../core/lv_obj_style_gen.h ****     lv_style_value_t v = lv_obj_get_style_prop(obj, part, LV_STYLE_TEXT_ALIGN);
 589:Drivers/lvgl/src/widgets/checkbox/../../core/lv_obj_style_gen.h ****     return (lv_text_align_t)v.num;
 590:Drivers/lvgl/src/widgets/checkbox/../../core/lv_obj_style_gen.h **** }
 591:Drivers/lvgl/src/widgets/checkbox/../../core/lv_obj_style_gen.h **** 
 592:Drivers/lvgl/src/widgets/checkbox/../../core/lv_obj_style_gen.h **** static inline lv_color_t lv_obj_get_style_text_outline_stroke_color(const lv_obj_t * obj, lv_part_t
 593:Drivers/lvgl/src/widgets/checkbox/../../core/lv_obj_style_gen.h **** {
 594:Drivers/lvgl/src/widgets/checkbox/../../core/lv_obj_style_gen.h ****     lv_style_value_t v = lv_obj_get_style_prop(obj, part, LV_STYLE_TEXT_OUTLINE_STROKE_COLOR);
 595:Drivers/lvgl/src/widgets/checkbox/../../core/lv_obj_style_gen.h ****     return v.color;
 596:Drivers/lvgl/src/widgets/checkbox/../../core/lv_obj_style_gen.h **** }
 597:Drivers/lvgl/src/widgets/checkbox/../../core/lv_obj_style_gen.h **** 
 598:Drivers/lvgl/src/widgets/checkbox/../../core/lv_obj_style_gen.h **** static inline lv_color_t lv_obj_get_style_text_outline_stroke_color_filtered(const lv_obj_t * obj, 
 599:Drivers/lvgl/src/widgets/checkbox/../../core/lv_obj_style_gen.h **** {
 600:Drivers/lvgl/src/widgets/checkbox/../../core/lv_obj_style_gen.h ****     lv_style_value_t v = lv_obj_style_apply_color_filter(obj, part, lv_obj_get_style_prop(obj, part
 601:Drivers/lvgl/src/widgets/checkbox/../../core/lv_obj_style_gen.h ****                                                                                           LV_STYLE_
 602:Drivers/lvgl/src/widgets/checkbox/../../core/lv_obj_style_gen.h ****     return v.color;
 603:Drivers/lvgl/src/widgets/checkbox/../../core/lv_obj_style_gen.h **** }
 604:Drivers/lvgl/src/widgets/checkbox/../../core/lv_obj_style_gen.h **** 
 605:Drivers/lvgl/src/widgets/checkbox/../../core/lv_obj_style_gen.h **** static inline int32_t lv_obj_get_style_text_outline_stroke_width(const lv_obj_t * obj, lv_part_t pa
 606:Drivers/lvgl/src/widgets/checkbox/../../core/lv_obj_style_gen.h **** {
 607:Drivers/lvgl/src/widgets/checkbox/../../core/lv_obj_style_gen.h ****     lv_style_value_t v = lv_obj_get_style_prop(obj, part, LV_STYLE_TEXT_OUTLINE_STROKE_WIDTH);
 608:Drivers/lvgl/src/widgets/checkbox/../../core/lv_obj_style_gen.h ****     return (int32_t)v.num;
 609:Drivers/lvgl/src/widgets/checkbox/../../core/lv_obj_style_gen.h **** }
 610:Drivers/lvgl/src/widgets/checkbox/../../core/lv_obj_style_gen.h **** 
 611:Drivers/lvgl/src/widgets/checkbox/../../core/lv_obj_style_gen.h **** static inline lv_opa_t lv_obj_get_style_text_outline_stroke_opa(const lv_obj_t * obj, lv_part_t par
 612:Drivers/lvgl/src/widgets/checkbox/../../core/lv_obj_style_gen.h **** {
 613:Drivers/lvgl/src/widgets/checkbox/../../core/lv_obj_style_gen.h ****     lv_style_value_t v = lv_obj_get_style_prop(obj, part, LV_STYLE_TEXT_OUTLINE_STROKE_OPA);
 614:Drivers/lvgl/src/widgets/checkbox/../../core/lv_obj_style_gen.h ****     return (lv_opa_t)v.num;
 615:Drivers/lvgl/src/widgets/checkbox/../../core/lv_obj_style_gen.h **** }
 616:Drivers/lvgl/src/widgets/checkbox/../../core/lv_obj_style_gen.h **** 
 617:Drivers/lvgl/src/widgets/checkbox/../../core/lv_obj_style_gen.h **** static inline int32_t lv_obj_get_style_radius(const lv_obj_t * obj, lv_part_t part)
 618:Drivers/lvgl/src/widgets/checkbox/../../core/lv_obj_style_gen.h **** {
 619:Drivers/lvgl/src/widgets/checkbox/../../core/lv_obj_style_gen.h ****     lv_style_value_t v = lv_obj_get_style_prop(obj, part, LV_STYLE_RADIUS);
 620:Drivers/lvgl/src/widgets/checkbox/../../core/lv_obj_style_gen.h ****     return (int32_t)v.num;
 621:Drivers/lvgl/src/widgets/checkbox/../../core/lv_obj_style_gen.h **** }
 622:Drivers/lvgl/src/widgets/checkbox/../../core/lv_obj_style_gen.h **** 
 623:Drivers/lvgl/src/widgets/checkbox/../../core/lv_obj_style_gen.h **** static inline int32_t lv_obj_get_style_radial_offset(const lv_obj_t * obj, lv_part_t part)
 624:Drivers/lvgl/src/widgets/checkbox/../../core/lv_obj_style_gen.h **** {
 625:Drivers/lvgl/src/widgets/checkbox/../../core/lv_obj_style_gen.h ****     lv_style_value_t v = lv_obj_get_style_prop(obj, part, LV_STYLE_RADIAL_OFFSET);
 626:Drivers/lvgl/src/widgets/checkbox/../../core/lv_obj_style_gen.h ****     return (int32_t)v.num;
 627:Drivers/lvgl/src/widgets/checkbox/../../core/lv_obj_style_gen.h **** }
 628:Drivers/lvgl/src/widgets/checkbox/../../core/lv_obj_style_gen.h **** 
 629:Drivers/lvgl/src/widgets/checkbox/../../core/lv_obj_style_gen.h **** static inline bool lv_obj_get_style_clip_corner(const lv_obj_t * obj, lv_part_t part)
 630:Drivers/lvgl/src/widgets/checkbox/../../core/lv_obj_style_gen.h **** {
 631:Drivers/lvgl/src/widgets/checkbox/../../core/lv_obj_style_gen.h ****     lv_style_value_t v = lv_obj_get_style_prop(obj, part, LV_STYLE_CLIP_CORNER);
 632:Drivers/lvgl/src/widgets/checkbox/../../core/lv_obj_style_gen.h ****     return (bool)v.num;
ARM GAS  /var/folders/qx/2_175_4n2s19vhvtspjhb3qh0000gn/T//ccirZTpW.s 			page 18


 633:Drivers/lvgl/src/widgets/checkbox/../../core/lv_obj_style_gen.h **** }
 634:Drivers/lvgl/src/widgets/checkbox/../../core/lv_obj_style_gen.h **** 
 635:Drivers/lvgl/src/widgets/checkbox/../../core/lv_obj_style_gen.h **** static inline lv_opa_t lv_obj_get_style_opa(const lv_obj_t * obj, lv_part_t part)
 636:Drivers/lvgl/src/widgets/checkbox/../../core/lv_obj_style_gen.h **** {
 637:Drivers/lvgl/src/widgets/checkbox/../../core/lv_obj_style_gen.h ****     lv_style_value_t v = lv_obj_get_style_prop(obj, part, LV_STYLE_OPA);
 638:Drivers/lvgl/src/widgets/checkbox/../../core/lv_obj_style_gen.h ****     return (lv_opa_t)v.num;
 639:Drivers/lvgl/src/widgets/checkbox/../../core/lv_obj_style_gen.h **** }
 640:Drivers/lvgl/src/widgets/checkbox/../../core/lv_obj_style_gen.h **** 
 641:Drivers/lvgl/src/widgets/checkbox/../../core/lv_obj_style_gen.h **** static inline lv_opa_t lv_obj_get_style_opa_layered(const lv_obj_t * obj, lv_part_t part)
 642:Drivers/lvgl/src/widgets/checkbox/../../core/lv_obj_style_gen.h **** {
 643:Drivers/lvgl/src/widgets/checkbox/../../core/lv_obj_style_gen.h ****     lv_style_value_t v = lv_obj_get_style_prop(obj, part, LV_STYLE_OPA_LAYERED);
 644:Drivers/lvgl/src/widgets/checkbox/../../core/lv_obj_style_gen.h ****     return (lv_opa_t)v.num;
 645:Drivers/lvgl/src/widgets/checkbox/../../core/lv_obj_style_gen.h **** }
 646:Drivers/lvgl/src/widgets/checkbox/../../core/lv_obj_style_gen.h **** 
 647:Drivers/lvgl/src/widgets/checkbox/../../core/lv_obj_style_gen.h **** static inline const lv_color_filter_dsc_t * lv_obj_get_style_color_filter_dsc(const lv_obj_t * obj,
 648:Drivers/lvgl/src/widgets/checkbox/../../core/lv_obj_style_gen.h **** {
 649:Drivers/lvgl/src/widgets/checkbox/../../core/lv_obj_style_gen.h ****     lv_style_value_t v = lv_obj_get_style_prop(obj, part, LV_STYLE_COLOR_FILTER_DSC);
 650:Drivers/lvgl/src/widgets/checkbox/../../core/lv_obj_style_gen.h ****     return (const lv_color_filter_dsc_t *)v.ptr;
 651:Drivers/lvgl/src/widgets/checkbox/../../core/lv_obj_style_gen.h **** }
 652:Drivers/lvgl/src/widgets/checkbox/../../core/lv_obj_style_gen.h **** 
 653:Drivers/lvgl/src/widgets/checkbox/../../core/lv_obj_style_gen.h **** static inline lv_opa_t lv_obj_get_style_color_filter_opa(const lv_obj_t * obj, lv_part_t part)
 654:Drivers/lvgl/src/widgets/checkbox/../../core/lv_obj_style_gen.h **** {
 655:Drivers/lvgl/src/widgets/checkbox/../../core/lv_obj_style_gen.h ****     lv_style_value_t v = lv_obj_get_style_prop(obj, part, LV_STYLE_COLOR_FILTER_OPA);
 656:Drivers/lvgl/src/widgets/checkbox/../../core/lv_obj_style_gen.h ****     return (lv_opa_t)v.num;
 657:Drivers/lvgl/src/widgets/checkbox/../../core/lv_obj_style_gen.h **** }
 658:Drivers/lvgl/src/widgets/checkbox/../../core/lv_obj_style_gen.h **** 
 659:Drivers/lvgl/src/widgets/checkbox/../../core/lv_obj_style_gen.h **** static inline lv_color_t lv_obj_get_style_recolor(const lv_obj_t * obj, lv_part_t part)
 660:Drivers/lvgl/src/widgets/checkbox/../../core/lv_obj_style_gen.h **** {
 661:Drivers/lvgl/src/widgets/checkbox/../../core/lv_obj_style_gen.h ****     lv_style_value_t v = lv_obj_get_style_prop(obj, part, LV_STYLE_RECOLOR);
 662:Drivers/lvgl/src/widgets/checkbox/../../core/lv_obj_style_gen.h ****     return v.color;
 663:Drivers/lvgl/src/widgets/checkbox/../../core/lv_obj_style_gen.h **** }
 664:Drivers/lvgl/src/widgets/checkbox/../../core/lv_obj_style_gen.h **** 
 665:Drivers/lvgl/src/widgets/checkbox/../../core/lv_obj_style_gen.h **** static inline lv_opa_t lv_obj_get_style_recolor_opa(const lv_obj_t * obj, lv_part_t part)
 666:Drivers/lvgl/src/widgets/checkbox/../../core/lv_obj_style_gen.h **** {
 667:Drivers/lvgl/src/widgets/checkbox/../../core/lv_obj_style_gen.h ****     lv_style_value_t v = lv_obj_get_style_prop(obj, part, LV_STYLE_RECOLOR_OPA);
 668:Drivers/lvgl/src/widgets/checkbox/../../core/lv_obj_style_gen.h ****     return (lv_opa_t)v.num;
 669:Drivers/lvgl/src/widgets/checkbox/../../core/lv_obj_style_gen.h **** }
 670:Drivers/lvgl/src/widgets/checkbox/../../core/lv_obj_style_gen.h **** 
 671:Drivers/lvgl/src/widgets/checkbox/../../core/lv_obj_style_gen.h **** static inline int32_t lv_obj_get_style_blur_radius(const lv_obj_t * obj, lv_part_t part)
 672:Drivers/lvgl/src/widgets/checkbox/../../core/lv_obj_style_gen.h **** {
 673:Drivers/lvgl/src/widgets/checkbox/../../core/lv_obj_style_gen.h ****     lv_style_value_t v = lv_obj_get_style_prop(obj, part, LV_STYLE_BLUR_RADIUS);
 674:Drivers/lvgl/src/widgets/checkbox/../../core/lv_obj_style_gen.h ****     return (int32_t)v.num;
 675:Drivers/lvgl/src/widgets/checkbox/../../core/lv_obj_style_gen.h **** }
 676:Drivers/lvgl/src/widgets/checkbox/../../core/lv_obj_style_gen.h **** 
 677:Drivers/lvgl/src/widgets/checkbox/../../core/lv_obj_style_gen.h **** static inline bool lv_obj_get_style_blur_backdrop(const lv_obj_t * obj, lv_part_t part)
 678:Drivers/lvgl/src/widgets/checkbox/../../core/lv_obj_style_gen.h **** {
 679:Drivers/lvgl/src/widgets/checkbox/../../core/lv_obj_style_gen.h ****     lv_style_value_t v = lv_obj_get_style_prop(obj, part, LV_STYLE_BLUR_BACKDROP);
 680:Drivers/lvgl/src/widgets/checkbox/../../core/lv_obj_style_gen.h ****     return (bool)v.num;
 681:Drivers/lvgl/src/widgets/checkbox/../../core/lv_obj_style_gen.h **** }
 682:Drivers/lvgl/src/widgets/checkbox/../../core/lv_obj_style_gen.h **** 
 683:Drivers/lvgl/src/widgets/checkbox/../../core/lv_obj_style_gen.h **** static inline lv_blur_quality_t lv_obj_get_style_blur_quality(const lv_obj_t * obj, lv_part_t part)
 684:Drivers/lvgl/src/widgets/checkbox/../../core/lv_obj_style_gen.h **** {
 685:Drivers/lvgl/src/widgets/checkbox/../../core/lv_obj_style_gen.h ****     lv_style_value_t v = lv_obj_get_style_prop(obj, part, LV_STYLE_BLUR_QUALITY);
 686:Drivers/lvgl/src/widgets/checkbox/../../core/lv_obj_style_gen.h ****     return (lv_blur_quality_t)v.num;
 687:Drivers/lvgl/src/widgets/checkbox/../../core/lv_obj_style_gen.h **** }
 688:Drivers/lvgl/src/widgets/checkbox/../../core/lv_obj_style_gen.h **** 
 689:Drivers/lvgl/src/widgets/checkbox/../../core/lv_obj_style_gen.h **** static inline const lv_anim_t * lv_obj_get_style_anim(const lv_obj_t * obj, lv_part_t part)
ARM GAS  /var/folders/qx/2_175_4n2s19vhvtspjhb3qh0000gn/T//ccirZTpW.s 			page 19


 690:Drivers/lvgl/src/widgets/checkbox/../../core/lv_obj_style_gen.h **** {
 691:Drivers/lvgl/src/widgets/checkbox/../../core/lv_obj_style_gen.h ****     lv_style_value_t v = lv_obj_get_style_prop(obj, part, LV_STYLE_ANIM);
 692:Drivers/lvgl/src/widgets/checkbox/../../core/lv_obj_style_gen.h ****     return (const lv_anim_t *)v.ptr;
 693:Drivers/lvgl/src/widgets/checkbox/../../core/lv_obj_style_gen.h **** }
 694:Drivers/lvgl/src/widgets/checkbox/../../core/lv_obj_style_gen.h **** 
 695:Drivers/lvgl/src/widgets/checkbox/../../core/lv_obj_style_gen.h **** static inline uint32_t lv_obj_get_style_anim_duration(const lv_obj_t * obj, lv_part_t part)
 696:Drivers/lvgl/src/widgets/checkbox/../../core/lv_obj_style_gen.h **** {
 697:Drivers/lvgl/src/widgets/checkbox/../../core/lv_obj_style_gen.h ****     lv_style_value_t v = lv_obj_get_style_prop(obj, part, LV_STYLE_ANIM_DURATION);
 698:Drivers/lvgl/src/widgets/checkbox/../../core/lv_obj_style_gen.h ****     return (uint32_t)v.num;
 699:Drivers/lvgl/src/widgets/checkbox/../../core/lv_obj_style_gen.h **** }
 700:Drivers/lvgl/src/widgets/checkbox/../../core/lv_obj_style_gen.h **** 
 701:Drivers/lvgl/src/widgets/checkbox/../../core/lv_obj_style_gen.h **** static inline const lv_style_transition_dsc_t * lv_obj_get_style_transition(const lv_obj_t * obj, l
 702:Drivers/lvgl/src/widgets/checkbox/../../core/lv_obj_style_gen.h **** {
 703:Drivers/lvgl/src/widgets/checkbox/../../core/lv_obj_style_gen.h ****     lv_style_value_t v = lv_obj_get_style_prop(obj, part, LV_STYLE_TRANSITION);
 704:Drivers/lvgl/src/widgets/checkbox/../../core/lv_obj_style_gen.h ****     return (const lv_style_transition_dsc_t *)v.ptr;
 705:Drivers/lvgl/src/widgets/checkbox/../../core/lv_obj_style_gen.h **** }
 706:Drivers/lvgl/src/widgets/checkbox/../../core/lv_obj_style_gen.h **** 
 707:Drivers/lvgl/src/widgets/checkbox/../../core/lv_obj_style_gen.h **** static inline lv_blend_mode_t lv_obj_get_style_blend_mode(const lv_obj_t * obj, lv_part_t part)
 708:Drivers/lvgl/src/widgets/checkbox/../../core/lv_obj_style_gen.h **** {
 709:Drivers/lvgl/src/widgets/checkbox/../../core/lv_obj_style_gen.h ****     lv_style_value_t v = lv_obj_get_style_prop(obj, part, LV_STYLE_BLEND_MODE);
 710:Drivers/lvgl/src/widgets/checkbox/../../core/lv_obj_style_gen.h ****     return (lv_blend_mode_t)v.num;
 711:Drivers/lvgl/src/widgets/checkbox/../../core/lv_obj_style_gen.h **** }
 712:Drivers/lvgl/src/widgets/checkbox/../../core/lv_obj_style_gen.h **** 
 713:Drivers/lvgl/src/widgets/checkbox/../../core/lv_obj_style_gen.h **** static inline uint16_t lv_obj_get_style_layout(const lv_obj_t * obj, lv_part_t part)
 714:Drivers/lvgl/src/widgets/checkbox/../../core/lv_obj_style_gen.h **** {
 715:Drivers/lvgl/src/widgets/checkbox/../../core/lv_obj_style_gen.h ****     lv_style_value_t v = lv_obj_get_style_prop(obj, part, LV_STYLE_LAYOUT);
 716:Drivers/lvgl/src/widgets/checkbox/../../core/lv_obj_style_gen.h ****     return (uint16_t)v.num;
 717:Drivers/lvgl/src/widgets/checkbox/../../core/lv_obj_style_gen.h **** }
 718:Drivers/lvgl/src/widgets/checkbox/../../core/lv_obj_style_gen.h **** 
 719:Drivers/lvgl/src/widgets/checkbox/../../core/lv_obj_style_gen.h **** static inline lv_base_dir_t lv_obj_get_style_base_dir(const lv_obj_t * obj, lv_part_t part)
  99              		.loc 2 719 29 view .LVU20
 100              	.LBB55:
 720:Drivers/lvgl/src/widgets/checkbox/../../core/lv_obj_style_gen.h **** {
 721:Drivers/lvgl/src/widgets/checkbox/../../core/lv_obj_style_gen.h ****     lv_style_value_t v = lv_obj_get_style_prop(obj, part, LV_STYLE_BASE_DIR);
 101              		.loc 2 721 5 view .LVU21
 102              		.loc 2 721 26 is_stmt 0 view .LVU22
 103 002a 2722     		movs	r2, #39
 104 002c 0021     		movs	r1, #0
 105 002e 2046     		mov	r0, r4
 106              	.LVL11:
 107              		.loc 2 721 26 view .LVU23
 108 0030 FFF7FEFF 		bl	lv_obj_get_style_prop
 109              	.LVL12:
 110 0034 0990     		str	r0, [sp, #36]
 722:Drivers/lvgl/src/widgets/checkbox/../../core/lv_obj_style_gen.h ****     return (lv_base_dir_t)v.num;
 111              		.loc 2 722 5 is_stmt 1 view .LVU24
 112              		.loc 2 722 12 is_stmt 0 view .LVU25
 113 0036 C5B2     		uxtb	r5, r0
 114              	.LVL13:
 115              		.loc 2 722 12 view .LVU26
 116              	.LBE55:
 117              	.LBE54:
 241:Drivers/lvgl/src/widgets/checkbox/lv_checkbox.c **** 
 242:Drivers/lvgl/src/widgets/checkbox/lv_checkbox.c ****     int32_t bg_border = lv_obj_get_style_border_width(obj, LV_PART_MAIN);
 118              		.loc 1 242 5 is_stmt 1 view .LVU27
 119              	.LBB56:
 120              	.LBI56:
ARM GAS  /var/folders/qx/2_175_4n2s19vhvtspjhb3qh0000gn/T//ccirZTpW.s 			page 20


 343:Drivers/lvgl/src/widgets/checkbox/../../core/lv_obj_style_gen.h **** {
 121              		.loc 2 343 23 view .LVU28
 122              	.LBB57:
 345:Drivers/lvgl/src/widgets/checkbox/../../core/lv_obj_style_gen.h ****     return (int32_t)v.num;
 123              		.loc 2 345 5 view .LVU29
 345:Drivers/lvgl/src/widgets/checkbox/../../core/lv_obj_style_gen.h ****     return (int32_t)v.num;
 124              		.loc 2 345 26 is_stmt 0 view .LVU30
 125 0038 3022     		movs	r2, #48
 126 003a 0021     		movs	r1, #0
 127 003c 2046     		mov	r0, r4
 128 003e FFF7FEFF 		bl	lv_obj_get_style_prop
 129              	.LVL14:
 130 0042 0746     		mov	r7, r0
 131 0044 0990     		str	r0, [sp, #36]
 346:Drivers/lvgl/src/widgets/checkbox/../../core/lv_obj_style_gen.h **** }
 132              		.loc 2 346 5 is_stmt 1 view .LVU31
 133              	.LVL15:
 346:Drivers/lvgl/src/widgets/checkbox/../../core/lv_obj_style_gen.h **** }
 134              		.loc 2 346 5 is_stmt 0 view .LVU32
 135              	.LBE57:
 136              	.LBE56:
 243:Drivers/lvgl/src/widgets/checkbox/lv_checkbox.c ****     int32_t bg_topp = lv_obj_get_style_pad_top(obj, LV_PART_MAIN) + bg_border;
 137              		.loc 1 243 5 is_stmt 1 view .LVU33
 138              	.LBB58:
 139              	.LBI58:
 154:Drivers/lvgl/src/widgets/checkbox/../../core/lv_obj_style_gen.h **** {
 140              		.loc 2 154 23 view .LVU34
 141              	.LBB59:
 156:Drivers/lvgl/src/widgets/checkbox/../../core/lv_obj_style_gen.h ****     return (int32_t)v.num;
 142              		.loc 2 156 5 view .LVU35
 156:Drivers/lvgl/src/widgets/checkbox/../../core/lv_obj_style_gen.h ****     return (int32_t)v.num;
 143              		.loc 2 156 26 is_stmt 0 view .LVU36
 144 0046 1022     		movs	r2, #16
 145 0048 0021     		movs	r1, #0
 146 004a 2046     		mov	r0, r4
 147              	.LVL16:
 156:Drivers/lvgl/src/widgets/checkbox/../../core/lv_obj_style_gen.h ****     return (int32_t)v.num;
 148              		.loc 2 156 26 view .LVU37
 149 004c FFF7FEFF 		bl	lv_obj_get_style_prop
 150              	.LVL17:
 151 0050 0990     		str	r0, [sp, #36]
 157:Drivers/lvgl/src/widgets/checkbox/../../core/lv_obj_style_gen.h **** }
 152              		.loc 2 157 5 is_stmt 1 view .LVU38
 153              	.LVL18:
 157:Drivers/lvgl/src/widgets/checkbox/../../core/lv_obj_style_gen.h **** }
 154              		.loc 2 157 5 is_stmt 0 view .LVU39
 155              	.LBE59:
 156              	.LBE58:
 157              		.loc 1 243 13 discriminator 1 view .LVU40
 158 0052 C619     		adds	r6, r0, r7
 159              	.LVL19:
 244:Drivers/lvgl/src/widgets/checkbox/lv_checkbox.c ****     int32_t bg_p = is_rtl ? lv_obj_get_style_pad_right(obj, LV_PART_MAIN) : lv_obj_get_style_pad_le
 160              		.loc 1 244 5 is_stmt 1 view .LVU41
 161              		.loc 1 244 75 is_stmt 0 view .LVU42
 162 0054 012D     		cmp	r5, #1
 163 0056 00F0C080 		beq	.L9
 164              	.LVL20:
ARM GAS  /var/folders/qx/2_175_4n2s19vhvtspjhb3qh0000gn/T//ccirZTpW.s 			page 21


 165              	.LBB60:
 166              	.LBI60:
 166:Drivers/lvgl/src/widgets/checkbox/../../core/lv_obj_style_gen.h **** {
 167              		.loc 2 166 23 is_stmt 1 view .LVU43
 168              	.LBB61:
 168:Drivers/lvgl/src/widgets/checkbox/../../core/lv_obj_style_gen.h ****     return (int32_t)v.num;
 169              		.loc 2 168 5 view .LVU44
 168:Drivers/lvgl/src/widgets/checkbox/../../core/lv_obj_style_gen.h ****     return (int32_t)v.num;
 170              		.loc 2 168 26 is_stmt 0 view .LVU45
 171 005a 1222     		movs	r2, #18
 172 005c 0021     		movs	r1, #0
 173 005e 2046     		mov	r0, r4
 174 0060 FFF7FEFF 		bl	lv_obj_get_style_prop
 175              	.LVL21:
 176 0064 0990     		str	r0, [sp, #36]
 169:Drivers/lvgl/src/widgets/checkbox/../../core/lv_obj_style_gen.h **** }
 177              		.loc 2 169 5 is_stmt 1 view .LVU46
 178              	.LVL22:
 169:Drivers/lvgl/src/widgets/checkbox/../../core/lv_obj_style_gen.h **** }
 179              		.loc 2 169 5 is_stmt 0 view .LVU47
 180              	.LBE61:
 181              	.LBE60:
 182              		.loc 1 244 75 discriminator 1 view .LVU48
 183 0066 3B18     		adds	r3, r7, r0
 184 0068 0193     		str	r3, [sp, #4]
 185              	.L3:
 186              	.LVL23:
 245:Drivers/lvgl/src/widgets/checkbox/lv_checkbox.c ****                                                                                                    
 246:Drivers/lvgl/src/widgets/checkbox/lv_checkbox.c ****     int32_t bg_colp = lv_obj_get_style_pad_column(obj, LV_PART_MAIN);
 187              		.loc 1 246 5 is_stmt 1 view .LVU49
 188              	.LBB62:
 189              	.LBI62:
 184:Drivers/lvgl/src/widgets/checkbox/../../core/lv_obj_style_gen.h **** {
 190              		.loc 2 184 23 view .LVU50
 191              	.LBB63:
 186:Drivers/lvgl/src/widgets/checkbox/../../core/lv_obj_style_gen.h ****     return (int32_t)v.num;
 192              		.loc 2 186 5 view .LVU51
 186:Drivers/lvgl/src/widgets/checkbox/../../core/lv_obj_style_gen.h ****     return (int32_t)v.num;
 193              		.loc 2 186 26 is_stmt 0 view .LVU52
 194 006a 1522     		movs	r2, #21
 195 006c 0021     		movs	r1, #0
 196 006e 2046     		mov	r0, r4
 197 0070 FFF7FEFF 		bl	lv_obj_get_style_prop
 198              	.LVL24:
 199 0074 0390     		str	r0, [sp, #12]
 200 0076 0990     		str	r0, [sp, #36]
 187:Drivers/lvgl/src/widgets/checkbox/../../core/lv_obj_style_gen.h **** }
 201              		.loc 2 187 5 is_stmt 1 view .LVU53
 202              	.LVL25:
 187:Drivers/lvgl/src/widgets/checkbox/../../core/lv_obj_style_gen.h **** }
 203              		.loc 2 187 5 is_stmt 0 view .LVU54
 204              	.LBE63:
 205              	.LBE62:
 247:Drivers/lvgl/src/widgets/checkbox/lv_checkbox.c **** 
 248:Drivers/lvgl/src/widgets/checkbox/lv_checkbox.c ****     int32_t marker_leftp = lv_obj_get_style_pad_left(obj, LV_PART_INDICATOR);
 206              		.loc 1 248 5 is_stmt 1 view .LVU55
 207              	.LBB64:
ARM GAS  /var/folders/qx/2_175_4n2s19vhvtspjhb3qh0000gn/T//ccirZTpW.s 			page 22


 208              	.LBI64:
 166:Drivers/lvgl/src/widgets/checkbox/../../core/lv_obj_style_gen.h **** {
 209              		.loc 2 166 23 view .LVU56
 210              	.LBB65:
 168:Drivers/lvgl/src/widgets/checkbox/../../core/lv_obj_style_gen.h ****     return (int32_t)v.num;
 211              		.loc 2 168 5 view .LVU57
 168:Drivers/lvgl/src/widgets/checkbox/../../core/lv_obj_style_gen.h ****     return (int32_t)v.num;
 212              		.loc 2 168 26 is_stmt 0 view .LVU58
 213 0078 1222     		movs	r2, #18
 214 007a 4FF40031 		mov	r1, #131072
 215 007e 2046     		mov	r0, r4
 216              	.LVL26:
 168:Drivers/lvgl/src/widgets/checkbox/../../core/lv_obj_style_gen.h ****     return (int32_t)v.num;
 217              		.loc 2 168 26 view .LVU59
 218 0080 FFF7FEFF 		bl	lv_obj_get_style_prop
 219              	.LVL27:
 168:Drivers/lvgl/src/widgets/checkbox/../../core/lv_obj_style_gen.h ****     return (int32_t)v.num;
 220              		.loc 2 168 26 view .LVU60
 221 0084 0490     		str	r0, [sp, #16]
 222 0086 0990     		str	r0, [sp, #36]
 169:Drivers/lvgl/src/widgets/checkbox/../../core/lv_obj_style_gen.h **** }
 223              		.loc 2 169 5 is_stmt 1 view .LVU61
 224              	.LVL28:
 169:Drivers/lvgl/src/widgets/checkbox/../../core/lv_obj_style_gen.h **** }
 225              		.loc 2 169 5 is_stmt 0 view .LVU62
 226              	.LBE65:
 227              	.LBE64:
 249:Drivers/lvgl/src/widgets/checkbox/lv_checkbox.c ****     int32_t marker_rightp = lv_obj_get_style_pad_right(obj, LV_PART_INDICATOR);
 228              		.loc 1 249 5 is_stmt 1 view .LVU63
 229              	.LBB66:
 230              	.LBI66:
 172:Drivers/lvgl/src/widgets/checkbox/../../core/lv_obj_style_gen.h **** {
 231              		.loc 2 172 23 view .LVU64
 232              	.LBB67:
 174:Drivers/lvgl/src/widgets/checkbox/../../core/lv_obj_style_gen.h ****     return (int32_t)v.num;
 233              		.loc 2 174 5 view .LVU65
 174:Drivers/lvgl/src/widgets/checkbox/../../core/lv_obj_style_gen.h ****     return (int32_t)v.num;
 234              		.loc 2 174 26 is_stmt 0 view .LVU66
 235 0088 1322     		movs	r2, #19
 236 008a 4FF40031 		mov	r1, #131072
 237 008e 2046     		mov	r0, r4
 238              	.LVL29:
 174:Drivers/lvgl/src/widgets/checkbox/../../core/lv_obj_style_gen.h ****     return (int32_t)v.num;
 239              		.loc 2 174 26 view .LVU67
 240 0090 FFF7FEFF 		bl	lv_obj_get_style_prop
 241              	.LVL30:
 174:Drivers/lvgl/src/widgets/checkbox/../../core/lv_obj_style_gen.h ****     return (int32_t)v.num;
 242              		.loc 2 174 26 view .LVU68
 243 0094 0590     		str	r0, [sp, #20]
 244 0096 0990     		str	r0, [sp, #36]
 175:Drivers/lvgl/src/widgets/checkbox/../../core/lv_obj_style_gen.h **** }
 245              		.loc 2 175 5 is_stmt 1 view .LVU69
 246              	.LVL31:
 175:Drivers/lvgl/src/widgets/checkbox/../../core/lv_obj_style_gen.h **** }
 247              		.loc 2 175 5 is_stmt 0 view .LVU70
 248              	.LBE67:
 249              	.LBE66:
ARM GAS  /var/folders/qx/2_175_4n2s19vhvtspjhb3qh0000gn/T//ccirZTpW.s 			page 23


 250:Drivers/lvgl/src/widgets/checkbox/lv_checkbox.c ****     int32_t marker_topp = lv_obj_get_style_pad_top(obj, LV_PART_INDICATOR);
 250              		.loc 1 250 5 is_stmt 1 view .LVU71
 251              	.LBB68:
 252              	.LBI68:
 154:Drivers/lvgl/src/widgets/checkbox/../../core/lv_obj_style_gen.h **** {
 253              		.loc 2 154 23 view .LVU72
 254              	.LBB69:
 156:Drivers/lvgl/src/widgets/checkbox/../../core/lv_obj_style_gen.h ****     return (int32_t)v.num;
 255              		.loc 2 156 5 view .LVU73
 156:Drivers/lvgl/src/widgets/checkbox/../../core/lv_obj_style_gen.h ****     return (int32_t)v.num;
 256              		.loc 2 156 26 is_stmt 0 view .LVU74
 257 0098 1022     		movs	r2, #16
 258 009a 4FF40031 		mov	r1, #131072
 259 009e 2046     		mov	r0, r4
 260              	.LVL32:
 156:Drivers/lvgl/src/widgets/checkbox/../../core/lv_obj_style_gen.h ****     return (int32_t)v.num;
 261              		.loc 2 156 26 view .LVU75
 262 00a0 FFF7FEFF 		bl	lv_obj_get_style_prop
 263              	.LVL33:
 156:Drivers/lvgl/src/widgets/checkbox/../../core/lv_obj_style_gen.h ****     return (int32_t)v.num;
 264              		.loc 2 156 26 view .LVU76
 265 00a4 8346     		mov	fp, r0
 266 00a6 0990     		str	r0, [sp, #36]
 157:Drivers/lvgl/src/widgets/checkbox/../../core/lv_obj_style_gen.h **** }
 267              		.loc 2 157 5 is_stmt 1 view .LVU77
 268              	.LVL34:
 157:Drivers/lvgl/src/widgets/checkbox/../../core/lv_obj_style_gen.h **** }
 269              		.loc 2 157 5 is_stmt 0 view .LVU78
 270              	.LBE69:
 271              	.LBE68:
 251:Drivers/lvgl/src/widgets/checkbox/lv_checkbox.c ****     int32_t marker_bottomp = lv_obj_get_style_pad_bottom(obj, LV_PART_INDICATOR);
 272              		.loc 1 251 5 is_stmt 1 view .LVU79
 273              	.LBB70:
 274              	.LBI70:
 160:Drivers/lvgl/src/widgets/checkbox/../../core/lv_obj_style_gen.h **** {
 275              		.loc 2 160 23 view .LVU80
 276              	.LBB71:
 162:Drivers/lvgl/src/widgets/checkbox/../../core/lv_obj_style_gen.h ****     return (int32_t)v.num;
 277              		.loc 2 162 5 view .LVU81
 162:Drivers/lvgl/src/widgets/checkbox/../../core/lv_obj_style_gen.h ****     return (int32_t)v.num;
 278              		.loc 2 162 26 is_stmt 0 view .LVU82
 279 00a8 1122     		movs	r2, #17
 280 00aa 4FF40031 		mov	r1, #131072
 281 00ae 2046     		mov	r0, r4
 282              	.LVL35:
 162:Drivers/lvgl/src/widgets/checkbox/../../core/lv_obj_style_gen.h ****     return (int32_t)v.num;
 283              		.loc 2 162 26 view .LVU83
 284 00b0 FFF7FEFF 		bl	lv_obj_get_style_prop
 285              	.LVL36:
 286 00b4 8246     		mov	r10, r0
 287 00b6 0990     		str	r0, [sp, #36]
 163:Drivers/lvgl/src/widgets/checkbox/../../core/lv_obj_style_gen.h **** }
 288              		.loc 2 163 5 is_stmt 1 view .LVU84
 289              	.LVL37:
 163:Drivers/lvgl/src/widgets/checkbox/../../core/lv_obj_style_gen.h **** }
 290              		.loc 2 163 5 is_stmt 0 view .LVU85
 291              	.LBE71:
ARM GAS  /var/folders/qx/2_175_4n2s19vhvtspjhb3qh0000gn/T//ccirZTpW.s 			page 24


 292              	.LBE70:
 252:Drivers/lvgl/src/widgets/checkbox/lv_checkbox.c **** 
 253:Drivers/lvgl/src/widgets/checkbox/lv_checkbox.c ****     int32_t transf_w = lv_obj_get_style_transform_width(obj, LV_PART_INDICATOR);
 293              		.loc 1 253 5 is_stmt 1 view .LVU86
 294              	.LBB72:
 295              	.LBI72:
  82:Drivers/lvgl/src/widgets/checkbox/../../core/lv_obj_style_gen.h **** {
 296              		.loc 2 82 23 view .LVU87
 297              	.LBB73:
  84:Drivers/lvgl/src/widgets/checkbox/../../core/lv_obj_style_gen.h ****     return (int32_t)v.num;
 298              		.loc 2 84 5 view .LVU88
  84:Drivers/lvgl/src/widgets/checkbox/../../core/lv_obj_style_gen.h ****     return (int32_t)v.num;
 299              		.loc 2 84 26 is_stmt 0 view .LVU89
 300 00b8 6A22     		movs	r2, #106
 301 00ba 4FF40031 		mov	r1, #131072
 302 00be 2046     		mov	r0, r4
 303              	.LVL38:
  84:Drivers/lvgl/src/widgets/checkbox/../../core/lv_obj_style_gen.h ****     return (int32_t)v.num;
 304              		.loc 2 84 26 view .LVU90
 305 00c0 FFF7FEFF 		bl	lv_obj_get_style_prop
 306              	.LVL39:
 307 00c4 0690     		str	r0, [sp, #24]
 308 00c6 0990     		str	r0, [sp, #36]
  85:Drivers/lvgl/src/widgets/checkbox/../../core/lv_obj_style_gen.h **** }
 309              		.loc 2 85 5 is_stmt 1 view .LVU91
 310              	.LVL40:
  85:Drivers/lvgl/src/widgets/checkbox/../../core/lv_obj_style_gen.h **** }
 311              		.loc 2 85 5 is_stmt 0 view .LVU92
 312              	.LBE73:
 313              	.LBE72:
 254:Drivers/lvgl/src/widgets/checkbox/lv_checkbox.c ****     int32_t transf_h = lv_obj_get_style_transform_height(obj, LV_PART_INDICATOR);
 314              		.loc 1 254 5 is_stmt 1 view .LVU93
 315              	.LBB74:
 316              	.LBI74:
  88:Drivers/lvgl/src/widgets/checkbox/../../core/lv_obj_style_gen.h **** {
 317              		.loc 2 88 23 view .LVU94
 318              	.LBB75:
  90:Drivers/lvgl/src/widgets/checkbox/../../core/lv_obj_style_gen.h ****     return (int32_t)v.num;
 319              		.loc 2 90 5 view .LVU95
  90:Drivers/lvgl/src/widgets/checkbox/../../core/lv_obj_style_gen.h ****     return (int32_t)v.num;
 320              		.loc 2 90 26 is_stmt 0 view .LVU96
 321 00c8 6B22     		movs	r2, #107
 322 00ca 4FF40031 		mov	r1, #131072
 323 00ce 2046     		mov	r0, r4
 324              	.LVL41:
  90:Drivers/lvgl/src/widgets/checkbox/../../core/lv_obj_style_gen.h ****     return (int32_t)v.num;
 325              		.loc 2 90 26 view .LVU97
 326 00d0 FFF7FEFF 		bl	lv_obj_get_style_prop
 327              	.LVL42:
  90:Drivers/lvgl/src/widgets/checkbox/../../core/lv_obj_style_gen.h ****     return (int32_t)v.num;
 328              		.loc 2 90 26 view .LVU98
 329 00d4 0790     		str	r0, [sp, #28]
 330 00d6 0990     		str	r0, [sp, #36]
  91:Drivers/lvgl/src/widgets/checkbox/../../core/lv_obj_style_gen.h **** }
 331              		.loc 2 91 5 is_stmt 1 view .LVU99
 332              	.LVL43:
  91:Drivers/lvgl/src/widgets/checkbox/../../core/lv_obj_style_gen.h **** }
ARM GAS  /var/folders/qx/2_175_4n2s19vhvtspjhb3qh0000gn/T//ccirZTpW.s 			page 25


 333              		.loc 2 91 5 is_stmt 0 view .LVU100
 334              	.LBE75:
 335              	.LBE74:
 255:Drivers/lvgl/src/widgets/checkbox/lv_checkbox.c **** 
 256:Drivers/lvgl/src/widgets/checkbox/lv_checkbox.c ****     lv_draw_rect_dsc_t indic_dsc;
 336              		.loc 1 256 5 is_stmt 1 view .LVU101
 257:Drivers/lvgl/src/widgets/checkbox/lv_checkbox.c ****     lv_draw_rect_dsc_init(&indic_dsc);
 337              		.loc 1 257 5 view .LVU102
 338 00d8 37AF     		add	r7, sp, #220
 339              	.LVL44:
 340              		.loc 1 257 5 is_stmt 0 view .LVU103
 341 00da 3846     		mov	r0, r7
 342              	.LVL45:
 343              		.loc 1 257 5 view .LVU104
 344 00dc FFF7FEFF 		bl	lv_draw_rect_dsc_init
 345              	.LVL46:
 258:Drivers/lvgl/src/widgets/checkbox/lv_checkbox.c ****     indic_dsc.base.layer = layer;
 346              		.loc 1 258 5 is_stmt 1 view .LVU105
 347              		.loc 1 258 26 is_stmt 0 view .LVU106
 348 00e0 CDF8EC80 		str	r8, [sp, #236]
 259:Drivers/lvgl/src/widgets/checkbox/lv_checkbox.c ****     lv_obj_init_draw_rect_dsc(obj, LV_PART_INDICATOR, &indic_dsc);
 349              		.loc 1 259 5 is_stmt 1 view .LVU107
 350 00e4 3A46     		mov	r2, r7
 351 00e6 4FF40031 		mov	r1, #131072
 352 00ea 2046     		mov	r0, r4
 353 00ec FFF7FEFF 		bl	lv_obj_init_draw_rect_dsc
 354              	.LVL47:
 260:Drivers/lvgl/src/widgets/checkbox/lv_checkbox.c ****     lv_area_t marker_area;
 355              		.loc 1 260 5 view .LVU108
 261:Drivers/lvgl/src/widgets/checkbox/lv_checkbox.c ****     if(is_rtl) {
 356              		.loc 1 261 5 view .LVU109
 357              		.loc 1 261 7 is_stmt 0 view .LVU110
 358 00f0 012D     		cmp	r5, #1
 359 00f2 7DD0     		beq	.L10
 262:Drivers/lvgl/src/widgets/checkbox/lv_checkbox.c ****         marker_area.x2 = obj->coords.x2 - bg_p;
 263:Drivers/lvgl/src/widgets/checkbox/lv_checkbox.c ****         marker_area.x1 = marker_area.x2 - font_h - marker_leftp - marker_rightp + 1;
 264:Drivers/lvgl/src/widgets/checkbox/lv_checkbox.c ****     }
 265:Drivers/lvgl/src/widgets/checkbox/lv_checkbox.c ****     else {
 266:Drivers/lvgl/src/widgets/checkbox/lv_checkbox.c ****         marker_area.x1 = obj->coords.x1 + bg_p;
 360              		.loc 1 266 9 is_stmt 1 view .LVU111
 361              		.loc 1 266 37 is_stmt 0 view .LVU112
 362 00f4 6369     		ldr	r3, [r4, #20]
 363              		.loc 1 266 41 view .LVU113
 364 00f6 019A     		ldr	r2, [sp, #4]
 365 00f8 1344     		add	r3, r3, r2
 366              		.loc 1 266 24 view .LVU114
 367 00fa 3393     		str	r3, [sp, #204]
 267:Drivers/lvgl/src/widgets/checkbox/lv_checkbox.c ****         marker_area.x2 = marker_area.x1 + font_h + marker_leftp + marker_rightp - 1;
 368              		.loc 1 267 9 is_stmt 1 view .LVU115
 369              		.loc 1 267 41 is_stmt 0 view .LVU116
 370 00fc 4B44     		add	r3, r3, r9
 371              		.loc 1 267 50 view .LVU117
 372 00fe 049A     		ldr	r2, [sp, #16]
 373 0100 1344     		add	r3, r3, r2
 374              		.loc 1 267 65 view .LVU118
 375 0102 059A     		ldr	r2, [sp, #20]
 376 0104 1344     		add	r3, r3, r2
ARM GAS  /var/folders/qx/2_175_4n2s19vhvtspjhb3qh0000gn/T//ccirZTpW.s 			page 26


 377              		.loc 1 267 81 view .LVU119
 378 0106 013B     		subs	r3, r3, #1
 379              		.loc 1 267 24 view .LVU120
 380 0108 3593     		str	r3, [sp, #212]
 381              	.L5:
 268:Drivers/lvgl/src/widgets/checkbox/lv_checkbox.c ****     }
 269:Drivers/lvgl/src/widgets/checkbox/lv_checkbox.c ****     marker_area.y1 = obj->coords.y1 + bg_topp;
 382              		.loc 1 269 5 is_stmt 1 view .LVU121
 383              		.loc 1 269 33 is_stmt 0 view .LVU122
 384 010a A269     		ldr	r2, [r4, #24]
 385              		.loc 1 269 37 view .LVU123
 386 010c 3244     		add	r2, r2, r6
 387              		.loc 1 269 20 view .LVU124
 388 010e 3492     		str	r2, [sp, #208]
 270:Drivers/lvgl/src/widgets/checkbox/lv_checkbox.c ****     marker_area.y2 = marker_area.y1 + font_h + marker_topp + marker_bottomp - 1;
 389              		.loc 1 270 5 is_stmt 1 view .LVU125
 390              		.loc 1 270 37 is_stmt 0 view .LVU126
 391 0110 02EB0903 		add	r3, r2, r9
 392              		.loc 1 270 46 view .LVU127
 393 0114 5B44     		add	r3, r3, fp
 394              		.loc 1 270 60 view .LVU128
 395 0116 5344     		add	r3, r3, r10
 396              		.loc 1 270 77 view .LVU129
 397 0118 013B     		subs	r3, r3, #1
 398              		.loc 1 270 20 view .LVU130
 399 011a 3693     		str	r3, [sp, #216]
 271:Drivers/lvgl/src/widgets/checkbox/lv_checkbox.c **** 
 272:Drivers/lvgl/src/widgets/checkbox/lv_checkbox.c ****     lv_area_t marker_area_transf;
 400              		.loc 1 272 5 is_stmt 1 view .LVU131
 273:Drivers/lvgl/src/widgets/checkbox/lv_checkbox.c ****     lv_area_copy(&marker_area_transf, &marker_area);
 401              		.loc 1 273 5 view .LVU132
 402              	.LVL48:
 403              	.LBB76:
 404              	.LBI76:
 405              		.file 3 "Drivers/lvgl/src/widgets/checkbox/../../core/../misc/../font/../draw/../misc/lv_area.h"
   1:Drivers/lvgl/src/widgets/checkbox/../../core/../misc/../font/../draw/../misc/lv_area.h **** /**
   2:Drivers/lvgl/src/widgets/checkbox/../../core/../misc/../font/../draw/../misc/lv_area.h ****  * @file lv_area.h
   3:Drivers/lvgl/src/widgets/checkbox/../../core/../misc/../font/../draw/../misc/lv_area.h ****  *
   4:Drivers/lvgl/src/widgets/checkbox/../../core/../misc/../font/../draw/../misc/lv_area.h ****  */
   5:Drivers/lvgl/src/widgets/checkbox/../../core/../misc/../font/../draw/../misc/lv_area.h **** 
   6:Drivers/lvgl/src/widgets/checkbox/../../core/../misc/../font/../draw/../misc/lv_area.h **** #ifndef LV_AREA_H
   7:Drivers/lvgl/src/widgets/checkbox/../../core/../misc/../font/../draw/../misc/lv_area.h **** #define LV_AREA_H
   8:Drivers/lvgl/src/widgets/checkbox/../../core/../misc/../font/../draw/../misc/lv_area.h **** 
   9:Drivers/lvgl/src/widgets/checkbox/../../core/../misc/../font/../draw/../misc/lv_area.h **** #ifdef __cplusplus
  10:Drivers/lvgl/src/widgets/checkbox/../../core/../misc/../font/../draw/../misc/lv_area.h **** extern "C" {
  11:Drivers/lvgl/src/widgets/checkbox/../../core/../misc/../font/../draw/../misc/lv_area.h **** #endif
  12:Drivers/lvgl/src/widgets/checkbox/../../core/../misc/../font/../draw/../misc/lv_area.h **** 
  13:Drivers/lvgl/src/widgets/checkbox/../../core/../misc/../font/../draw/../misc/lv_area.h **** /*********************
  14:Drivers/lvgl/src/widgets/checkbox/../../core/../misc/../font/../draw/../misc/lv_area.h ****  *      INCLUDES
  15:Drivers/lvgl/src/widgets/checkbox/../../core/../misc/../font/../draw/../misc/lv_area.h ****  *********************/
  16:Drivers/lvgl/src/widgets/checkbox/../../core/../misc/../font/../draw/../misc/lv_area.h **** #include "../lv_conf_internal.h"
  17:Drivers/lvgl/src/widgets/checkbox/../../core/../misc/../font/../draw/../misc/lv_area.h **** #include "lv_types.h"
  18:Drivers/lvgl/src/widgets/checkbox/../../core/../misc/../font/../draw/../misc/lv_area.h **** #include "lv_math.h"
  19:Drivers/lvgl/src/widgets/checkbox/../../core/../misc/../font/../draw/../misc/lv_area.h **** 
  20:Drivers/lvgl/src/widgets/checkbox/../../core/../misc/../font/../draw/../misc/lv_area.h **** /*********************
  21:Drivers/lvgl/src/widgets/checkbox/../../core/../misc/../font/../draw/../misc/lv_area.h ****  *      DEFINES
  22:Drivers/lvgl/src/widgets/checkbox/../../core/../misc/../font/../draw/../misc/lv_area.h ****  *********************/
ARM GAS  /var/folders/qx/2_175_4n2s19vhvtspjhb3qh0000gn/T//ccirZTpW.s 			page 27


  23:Drivers/lvgl/src/widgets/checkbox/../../core/../misc/../font/../draw/../misc/lv_area.h **** 
  24:Drivers/lvgl/src/widgets/checkbox/../../core/../misc/../font/../draw/../misc/lv_area.h **** /**********************
  25:Drivers/lvgl/src/widgets/checkbox/../../core/../misc/../font/../draw/../misc/lv_area.h ****  *      TYPEDEFS
  26:Drivers/lvgl/src/widgets/checkbox/../../core/../misc/../font/../draw/../misc/lv_area.h ****  **********************/
  27:Drivers/lvgl/src/widgets/checkbox/../../core/../misc/../font/../draw/../misc/lv_area.h **** 
  28:Drivers/lvgl/src/widgets/checkbox/../../core/../misc/../font/../draw/../misc/lv_area.h **** /**
  29:Drivers/lvgl/src/widgets/checkbox/../../core/../misc/../font/../draw/../misc/lv_area.h ****  * Represents a point on the screen.
  30:Drivers/lvgl/src/widgets/checkbox/../../core/../misc/../font/../draw/../misc/lv_area.h ****  */
  31:Drivers/lvgl/src/widgets/checkbox/../../core/../misc/../font/../draw/../misc/lv_area.h **** typedef struct {
  32:Drivers/lvgl/src/widgets/checkbox/../../core/../misc/../font/../draw/../misc/lv_area.h ****     int32_t x;
  33:Drivers/lvgl/src/widgets/checkbox/../../core/../misc/../font/../draw/../misc/lv_area.h ****     int32_t y;
  34:Drivers/lvgl/src/widgets/checkbox/../../core/../misc/../font/../draw/../misc/lv_area.h **** } lv_point_t;
  35:Drivers/lvgl/src/widgets/checkbox/../../core/../misc/../font/../draw/../misc/lv_area.h **** 
  36:Drivers/lvgl/src/widgets/checkbox/../../core/../misc/../font/../draw/../misc/lv_area.h **** typedef struct {
  37:Drivers/lvgl/src/widgets/checkbox/../../core/../misc/../font/../draw/../misc/lv_area.h ****     lv_value_precise_t x;
  38:Drivers/lvgl/src/widgets/checkbox/../../core/../misc/../font/../draw/../misc/lv_area.h ****     lv_value_precise_t y;
  39:Drivers/lvgl/src/widgets/checkbox/../../core/../misc/../font/../draw/../misc/lv_area.h **** } lv_point_precise_t;
  40:Drivers/lvgl/src/widgets/checkbox/../../core/../misc/../font/../draw/../misc/lv_area.h **** 
  41:Drivers/lvgl/src/widgets/checkbox/../../core/../misc/../font/../draw/../misc/lv_area.h **** /** Represents an area of the screen.*/
  42:Drivers/lvgl/src/widgets/checkbox/../../core/../misc/../font/../draw/../misc/lv_area.h **** typedef struct {
  43:Drivers/lvgl/src/widgets/checkbox/../../core/../misc/../font/../draw/../misc/lv_area.h ****     int32_t x1;
  44:Drivers/lvgl/src/widgets/checkbox/../../core/../misc/../font/../draw/../misc/lv_area.h ****     int32_t y1;
  45:Drivers/lvgl/src/widgets/checkbox/../../core/../misc/../font/../draw/../misc/lv_area.h ****     int32_t x2;
  46:Drivers/lvgl/src/widgets/checkbox/../../core/../misc/../font/../draw/../misc/lv_area.h ****     int32_t y2;
  47:Drivers/lvgl/src/widgets/checkbox/../../core/../misc/../font/../draw/../misc/lv_area.h **** } lv_area_t;
  48:Drivers/lvgl/src/widgets/checkbox/../../core/../misc/../font/../draw/../misc/lv_area.h **** 
  49:Drivers/lvgl/src/widgets/checkbox/../../core/../misc/../font/../draw/../misc/lv_area.h **** /** Alignments*/
  50:Drivers/lvgl/src/widgets/checkbox/../../core/../misc/../font/../draw/../misc/lv_area.h **** 
  51:Drivers/lvgl/src/widgets/checkbox/../../core/../misc/../font/../draw/../misc/lv_area.h **** typedef enum {
  52:Drivers/lvgl/src/widgets/checkbox/../../core/../misc/../font/../draw/../misc/lv_area.h ****     LV_ALIGN_DEFAULT = 0,
  53:Drivers/lvgl/src/widgets/checkbox/../../core/../misc/../font/../draw/../misc/lv_area.h ****     LV_ALIGN_TOP_LEFT,
  54:Drivers/lvgl/src/widgets/checkbox/../../core/../misc/../font/../draw/../misc/lv_area.h ****     LV_ALIGN_TOP_MID,
  55:Drivers/lvgl/src/widgets/checkbox/../../core/../misc/../font/../draw/../misc/lv_area.h ****     LV_ALIGN_TOP_RIGHT,
  56:Drivers/lvgl/src/widgets/checkbox/../../core/../misc/../font/../draw/../misc/lv_area.h ****     LV_ALIGN_BOTTOM_LEFT,
  57:Drivers/lvgl/src/widgets/checkbox/../../core/../misc/../font/../draw/../misc/lv_area.h ****     LV_ALIGN_BOTTOM_MID,
  58:Drivers/lvgl/src/widgets/checkbox/../../core/../misc/../font/../draw/../misc/lv_area.h ****     LV_ALIGN_BOTTOM_RIGHT,
  59:Drivers/lvgl/src/widgets/checkbox/../../core/../misc/../font/../draw/../misc/lv_area.h ****     LV_ALIGN_LEFT_MID,
  60:Drivers/lvgl/src/widgets/checkbox/../../core/../misc/../font/../draw/../misc/lv_area.h ****     LV_ALIGN_RIGHT_MID,
  61:Drivers/lvgl/src/widgets/checkbox/../../core/../misc/../font/../draw/../misc/lv_area.h ****     LV_ALIGN_CENTER,
  62:Drivers/lvgl/src/widgets/checkbox/../../core/../misc/../font/../draw/../misc/lv_area.h **** 
  63:Drivers/lvgl/src/widgets/checkbox/../../core/../misc/../font/../draw/../misc/lv_area.h ****     LV_ALIGN_OUT_TOP_LEFT,
  64:Drivers/lvgl/src/widgets/checkbox/../../core/../misc/../font/../draw/../misc/lv_area.h ****     LV_ALIGN_OUT_TOP_MID,
  65:Drivers/lvgl/src/widgets/checkbox/../../core/../misc/../font/../draw/../misc/lv_area.h ****     LV_ALIGN_OUT_TOP_RIGHT,
  66:Drivers/lvgl/src/widgets/checkbox/../../core/../misc/../font/../draw/../misc/lv_area.h ****     LV_ALIGN_OUT_BOTTOM_LEFT,
  67:Drivers/lvgl/src/widgets/checkbox/../../core/../misc/../font/../draw/../misc/lv_area.h ****     LV_ALIGN_OUT_BOTTOM_MID,
  68:Drivers/lvgl/src/widgets/checkbox/../../core/../misc/../font/../draw/../misc/lv_area.h ****     LV_ALIGN_OUT_BOTTOM_RIGHT,
  69:Drivers/lvgl/src/widgets/checkbox/../../core/../misc/../font/../draw/../misc/lv_area.h ****     LV_ALIGN_OUT_LEFT_TOP,
  70:Drivers/lvgl/src/widgets/checkbox/../../core/../misc/../font/../draw/../misc/lv_area.h ****     LV_ALIGN_OUT_LEFT_MID,
  71:Drivers/lvgl/src/widgets/checkbox/../../core/../misc/../font/../draw/../misc/lv_area.h ****     LV_ALIGN_OUT_LEFT_BOTTOM,
  72:Drivers/lvgl/src/widgets/checkbox/../../core/../misc/../font/../draw/../misc/lv_area.h ****     LV_ALIGN_OUT_RIGHT_TOP,
  73:Drivers/lvgl/src/widgets/checkbox/../../core/../misc/../font/../draw/../misc/lv_area.h ****     LV_ALIGN_OUT_RIGHT_MID,
  74:Drivers/lvgl/src/widgets/checkbox/../../core/../misc/../font/../draw/../misc/lv_area.h ****     LV_ALIGN_OUT_RIGHT_BOTTOM,
  75:Drivers/lvgl/src/widgets/checkbox/../../core/../misc/../font/../draw/../misc/lv_area.h **** } lv_align_t;
  76:Drivers/lvgl/src/widgets/checkbox/../../core/../misc/../font/../draw/../misc/lv_area.h **** 
  77:Drivers/lvgl/src/widgets/checkbox/../../core/../misc/../font/../draw/../misc/lv_area.h **** typedef enum {
  78:Drivers/lvgl/src/widgets/checkbox/../../core/../misc/../font/../draw/../misc/lv_area.h ****     LV_DIR_NONE     = 0x00,
  79:Drivers/lvgl/src/widgets/checkbox/../../core/../misc/../font/../draw/../misc/lv_area.h ****     LV_DIR_LEFT     = (1 << 0),
ARM GAS  /var/folders/qx/2_175_4n2s19vhvtspjhb3qh0000gn/T//ccirZTpW.s 			page 28


  80:Drivers/lvgl/src/widgets/checkbox/../../core/../misc/../font/../draw/../misc/lv_area.h ****     LV_DIR_RIGHT    = (1 << 1),
  81:Drivers/lvgl/src/widgets/checkbox/../../core/../misc/../font/../draw/../misc/lv_area.h ****     LV_DIR_TOP      = (1 << 2),
  82:Drivers/lvgl/src/widgets/checkbox/../../core/../misc/../font/../draw/../misc/lv_area.h ****     LV_DIR_BOTTOM   = (1 << 3),
  83:Drivers/lvgl/src/widgets/checkbox/../../core/../misc/../font/../draw/../misc/lv_area.h ****     LV_DIR_HOR      = LV_DIR_LEFT | LV_DIR_RIGHT,
  84:Drivers/lvgl/src/widgets/checkbox/../../core/../misc/../font/../draw/../misc/lv_area.h ****     LV_DIR_VER      = LV_DIR_TOP | LV_DIR_BOTTOM,
  85:Drivers/lvgl/src/widgets/checkbox/../../core/../misc/../font/../draw/../misc/lv_area.h ****     LV_DIR_ALL      = LV_DIR_HOR | LV_DIR_VER,
  86:Drivers/lvgl/src/widgets/checkbox/../../core/../misc/../font/../draw/../misc/lv_area.h **** } lv_dir_t;
  87:Drivers/lvgl/src/widgets/checkbox/../../core/../misc/../font/../draw/../misc/lv_area.h **** 
  88:Drivers/lvgl/src/widgets/checkbox/../../core/../misc/../font/../draw/../misc/lv_area.h **** /**********************
  89:Drivers/lvgl/src/widgets/checkbox/../../core/../misc/../font/../draw/../misc/lv_area.h ****  * GLOBAL PROTOTYPES
  90:Drivers/lvgl/src/widgets/checkbox/../../core/../misc/../font/../draw/../misc/lv_area.h ****  **********************/
  91:Drivers/lvgl/src/widgets/checkbox/../../core/../misc/../font/../draw/../misc/lv_area.h **** 
  92:Drivers/lvgl/src/widgets/checkbox/../../core/../misc/../font/../draw/../misc/lv_area.h **** /**
  93:Drivers/lvgl/src/widgets/checkbox/../../core/../misc/../font/../draw/../misc/lv_area.h ****  * Initialize an area
  94:Drivers/lvgl/src/widgets/checkbox/../../core/../misc/../font/../draw/../misc/lv_area.h ****  * @param area_p pointer to an area
  95:Drivers/lvgl/src/widgets/checkbox/../../core/../misc/../font/../draw/../misc/lv_area.h ****  * @param x1 left coordinate of the area
  96:Drivers/lvgl/src/widgets/checkbox/../../core/../misc/../font/../draw/../misc/lv_area.h ****  * @param y1 top coordinate of the area
  97:Drivers/lvgl/src/widgets/checkbox/../../core/../misc/../font/../draw/../misc/lv_area.h ****  * @param x2 right coordinate of the area
  98:Drivers/lvgl/src/widgets/checkbox/../../core/../misc/../font/../draw/../misc/lv_area.h ****  * @param y2 bottom coordinate of the area
  99:Drivers/lvgl/src/widgets/checkbox/../../core/../misc/../font/../draw/../misc/lv_area.h ****  */
 100:Drivers/lvgl/src/widgets/checkbox/../../core/../misc/../font/../draw/../misc/lv_area.h **** void lv_area_set(lv_area_t * area_p, int32_t x1, int32_t y1, int32_t x2, int32_t y2);
 101:Drivers/lvgl/src/widgets/checkbox/../../core/../misc/../font/../draw/../misc/lv_area.h **** 
 102:Drivers/lvgl/src/widgets/checkbox/../../core/../misc/../font/../draw/../misc/lv_area.h **** /**
 103:Drivers/lvgl/src/widgets/checkbox/../../core/../misc/../font/../draw/../misc/lv_area.h ****  * Copy an area
 104:Drivers/lvgl/src/widgets/checkbox/../../core/../misc/../font/../draw/../misc/lv_area.h ****  * @param dest pointer to the destination area
 105:Drivers/lvgl/src/widgets/checkbox/../../core/../misc/../font/../draw/../misc/lv_area.h ****  * @param src pointer to the source area
 106:Drivers/lvgl/src/widgets/checkbox/../../core/../misc/../font/../draw/../misc/lv_area.h ****  */
 107:Drivers/lvgl/src/widgets/checkbox/../../core/../misc/../font/../draw/../misc/lv_area.h **** inline static void lv_area_copy(lv_area_t * dest, const lv_area_t * src)
 406              		.loc 3 107 20 view .LVU133
 407              	.LBB77:
 108:Drivers/lvgl/src/widgets/checkbox/../../core/../misc/../font/../draw/../misc/lv_area.h **** {
 109:Drivers/lvgl/src/widgets/checkbox/../../core/../misc/../font/../draw/../misc/lv_area.h ****     dest->x1 = src->x1;
 408              		.loc 3 109 5 view .LVU134
 409              		.loc 3 109 19 is_stmt 0 view .LVU135
 410 011c 3399     		ldr	r1, [sp, #204]
 411              		.loc 3 109 14 view .LVU136
 412 011e 2F91     		str	r1, [sp, #188]
 110:Drivers/lvgl/src/widgets/checkbox/../../core/../misc/../font/../draw/../misc/lv_area.h ****     dest->y1 = src->y1;
 413              		.loc 3 110 5 is_stmt 1 view .LVU137
 414              		.loc 3 110 14 is_stmt 0 view .LVU138
 415 0120 3092     		str	r2, [sp, #192]
 111:Drivers/lvgl/src/widgets/checkbox/../../core/../misc/../font/../draw/../misc/lv_area.h ****     dest->x2 = src->x2;
 416              		.loc 3 111 5 is_stmt 1 view .LVU139
 417              		.loc 3 111 19 is_stmt 0 view .LVU140
 418 0122 359A     		ldr	r2, [sp, #212]
 419              		.loc 3 111 14 view .LVU141
 420 0124 3192     		str	r2, [sp, #196]
 112:Drivers/lvgl/src/widgets/checkbox/../../core/../misc/../font/../draw/../misc/lv_area.h ****     dest->y2 = src->y2;
 421              		.loc 3 112 5 is_stmt 1 view .LVU142
 422              		.loc 3 112 14 is_stmt 0 view .LVU143
 423 0126 3293     		str	r3, [sp, #200]
 424              	.LVL49:
 425              		.loc 3 112 14 view .LVU144
 426              	.LBE77:
 427              	.LBE76:
 274:Drivers/lvgl/src/widgets/checkbox/lv_checkbox.c ****     lv_area_increase(&marker_area_transf, transf_w, transf_h);
 428              		.loc 1 274 5 is_stmt 1 view .LVU145
ARM GAS  /var/folders/qx/2_175_4n2s19vhvtspjhb3qh0000gn/T//ccirZTpW.s 			page 29


 429 0128 2FAF     		add	r7, sp, #188
 430 012a 079A     		ldr	r2, [sp, #28]
 431 012c 0699     		ldr	r1, [sp, #24]
 432 012e 3846     		mov	r0, r7
 433 0130 FFF7FEFF 		bl	lv_area_increase
 434              	.LVL50:
 275:Drivers/lvgl/src/widgets/checkbox/lv_checkbox.c **** 
 276:Drivers/lvgl/src/widgets/checkbox/lv_checkbox.c ****     lv_draw_rect(layer, &indic_dsc, &marker_area_transf);
 435              		.loc 1 276 5 view .LVU146
 436 0134 3A46     		mov	r2, r7
 437 0136 37A9     		add	r1, sp, #220
 438 0138 4046     		mov	r0, r8
 439 013a FFF7FEFF 		bl	lv_draw_rect
 440              	.LVL51:
 277:Drivers/lvgl/src/widgets/checkbox/lv_checkbox.c **** 
 278:Drivers/lvgl/src/widgets/checkbox/lv_checkbox.c ****     lv_text_attributes_t attributes = {0};
 441              		.loc 1 278 5 view .LVU147
 442              		.loc 1 278 26 is_stmt 0 view .LVU148
 443 013e 0DF1AC0A 		add	r10, sp, #172
 444              	.LVL52:
 445              		.loc 1 278 26 view .LVU149
 446 0142 0027     		movs	r7, #0
 447 0144 2B97     		str	r7, [sp, #172]
 448 0146 2C97     		str	r7, [sp, #176]
 449 0148 2D97     		str	r7, [sp, #180]
 450 014a 2E97     		str	r7, [sp, #184]
 279:Drivers/lvgl/src/widgets/checkbox/lv_checkbox.c ****     attributes.line_space = lv_obj_get_style_text_line_space(obj, LV_PART_MAIN);
 451              		.loc 1 279 5 is_stmt 1 view .LVU150
 452              	.LVL53:
 453              	.LBB78:
 454              	.LBI78:
 574:Drivers/lvgl/src/widgets/checkbox/../../core/lv_obj_style_gen.h **** {
 455              		.loc 2 574 23 view .LVU151
 456              	.LBB79:
 576:Drivers/lvgl/src/widgets/checkbox/../../core/lv_obj_style_gen.h ****     return (int32_t)v.num;
 457              		.loc 2 576 5 view .LVU152
 576:Drivers/lvgl/src/widgets/checkbox/../../core/lv_obj_style_gen.h ****     return (int32_t)v.num;
 458              		.loc 2 576 26 is_stmt 0 view .LVU153
 459 014c 5C22     		movs	r2, #92
 460 014e 3946     		mov	r1, r7
 461 0150 2046     		mov	r0, r4
 462 0152 FFF7FEFF 		bl	lv_obj_get_style_prop
 463              	.LVL54:
 464 0156 0990     		str	r0, [sp, #36]
 577:Drivers/lvgl/src/widgets/checkbox/../../core/lv_obj_style_gen.h **** }
 465              		.loc 2 577 5 is_stmt 1 view .LVU154
 466              	.LVL55:
 577:Drivers/lvgl/src/widgets/checkbox/../../core/lv_obj_style_gen.h **** }
 467              		.loc 2 577 5 is_stmt 0 view .LVU155
 468              	.LBE79:
 469              	.LBE78:
 470              		.loc 1 279 27 discriminator 1 view .LVU156
 471 0158 2C90     		str	r0, [sp, #176]
 280:Drivers/lvgl/src/widgets/checkbox/lv_checkbox.c ****     attributes.letter_space = lv_obj_get_style_text_letter_space(obj, LV_PART_MAIN);
 472              		.loc 1 280 5 is_stmt 1 view .LVU157
 473              	.LVL56:
 474              	.LBB80:
ARM GAS  /var/folders/qx/2_175_4n2s19vhvtspjhb3qh0000gn/T//ccirZTpW.s 			page 30


 475              	.LBI80:
 568:Drivers/lvgl/src/widgets/checkbox/../../core/lv_obj_style_gen.h **** {
 476              		.loc 2 568 23 view .LVU158
 477              	.LBB81:
 570:Drivers/lvgl/src/widgets/checkbox/../../core/lv_obj_style_gen.h ****     return (int32_t)v.num;
 478              		.loc 2 570 5 view .LVU159
 570:Drivers/lvgl/src/widgets/checkbox/../../core/lv_obj_style_gen.h ****     return (int32_t)v.num;
 479              		.loc 2 570 26 is_stmt 0 view .LVU160
 480 015a 5B22     		movs	r2, #91
 481 015c 3946     		mov	r1, r7
 482 015e 2046     		mov	r0, r4
 483 0160 FFF7FEFF 		bl	lv_obj_get_style_prop
 484              	.LVL57:
 485 0164 0990     		str	r0, [sp, #36]
 571:Drivers/lvgl/src/widgets/checkbox/../../core/lv_obj_style_gen.h **** }
 486              		.loc 2 571 5 is_stmt 1 view .LVU161
 487              	.LVL58:
 571:Drivers/lvgl/src/widgets/checkbox/../../core/lv_obj_style_gen.h **** }
 488              		.loc 2 571 5 is_stmt 0 view .LVU162
 489              	.LBE81:
 490              	.LBE80:
 491              		.loc 1 280 29 discriminator 1 view .LVU163
 492 0166 2B90     		str	r0, [sp, #172]
 281:Drivers/lvgl/src/widgets/checkbox/lv_checkbox.c ****     attributes.text_flags = LV_TEXT_FLAG_NONE;
 493              		.loc 1 281 5 is_stmt 1 view .LVU164
 494              		.loc 1 281 27 is_stmt 0 view .LVU165
 495 0168 8DF8B870 		strb	r7, [sp, #184]
 282:Drivers/lvgl/src/widgets/checkbox/lv_checkbox.c ****     attributes.max_width = LV_COORD_MAX;
 496              		.loc 1 282 5 is_stmt 1 view .LVU166
 497              		.loc 1 282 26 is_stmt 0 view .LVU167
 498 016c 6FF06043 		mvn	r3, #-536870912
 499 0170 2D93     		str	r3, [sp, #180]
 283:Drivers/lvgl/src/widgets/checkbox/lv_checkbox.c **** 
 284:Drivers/lvgl/src/widgets/checkbox/lv_checkbox.c ****     lv_point_t txt_size;
 500              		.loc 1 284 5 is_stmt 1 view .LVU168
 285:Drivers/lvgl/src/widgets/checkbox/lv_checkbox.c ****     lv_text_get_size_attributes(&txt_size, cb->txt, font, &attributes);
 501              		.loc 1 285 5 view .LVU169
 502 0172 5346     		mov	r3, r10
 503 0174 029A     		ldr	r2, [sp, #8]
 504 0176 E16A     		ldr	r1, [r4, #44]
 505 0178 29A8     		add	r0, sp, #164
 506 017a FFF7FEFF 		bl	lv_text_get_size_attributes
 507              	.LVL59:
 286:Drivers/lvgl/src/widgets/checkbox/lv_checkbox.c **** 
 287:Drivers/lvgl/src/widgets/checkbox/lv_checkbox.c ****     lv_draw_label_dsc_t txt_dsc;
 508              		.loc 1 287 5 view .LVU170
 288:Drivers/lvgl/src/widgets/checkbox/lv_checkbox.c ****     lv_draw_label_dsc_init(&txt_dsc);
 509              		.loc 1 288 5 view .LVU171
 510 017e 0DF1380A 		add	r10, sp, #56
 511 0182 5046     		mov	r0, r10
 512 0184 FFF7FEFF 		bl	lv_draw_label_dsc_init
 513              	.LVL60:
 289:Drivers/lvgl/src/widgets/checkbox/lv_checkbox.c ****     txt_dsc.base.layer = layer;
 514              		.loc 1 289 5 view .LVU172
 515              		.loc 1 289 24 is_stmt 0 view .LVU173
 516 0188 CDF84880 		str	r8, [sp, #72]
 290:Drivers/lvgl/src/widgets/checkbox/lv_checkbox.c ****     lv_obj_init_draw_label_dsc(obj, LV_PART_MAIN, &txt_dsc);
ARM GAS  /var/folders/qx/2_175_4n2s19vhvtspjhb3qh0000gn/T//ccirZTpW.s 			page 31


 517              		.loc 1 290 5 is_stmt 1 view .LVU174
 518 018c 5246     		mov	r2, r10
 519 018e 3946     		mov	r1, r7
 520 0190 2046     		mov	r0, r4
 521 0192 FFF7FEFF 		bl	lv_obj_init_draw_label_dsc
 522              	.LVL61:
 291:Drivers/lvgl/src/widgets/checkbox/lv_checkbox.c ****     txt_dsc.text = cb->txt;
 523              		.loc 1 291 5 view .LVU175
 524              		.loc 1 291 22 is_stmt 0 view .LVU176
 525 0196 E36A     		ldr	r3, [r4, #44]
 526              		.loc 1 291 18 view .LVU177
 527 0198 1593     		str	r3, [sp, #84]
 292:Drivers/lvgl/src/widgets/checkbox/lv_checkbox.c **** 
 293:Drivers/lvgl/src/widgets/checkbox/lv_checkbox.c ****     int32_t y_ofs = (lv_area_get_height(&marker_area) - font_h) / 2;
 528              		.loc 1 293 5 is_stmt 1 view .LVU178
 529              		.loc 1 293 22 is_stmt 0 view .LVU179
 530 019a 33A8     		add	r0, sp, #204
 531 019c FFF7FEFF 		bl	lv_area_get_height
 532              	.LVL62:
 533              		.loc 1 293 55 discriminator 1 view .LVU180
 534 01a0 A0EB0900 		sub	r0, r0, r9
 535              		.loc 1 293 13 discriminator 1 view .LVU181
 536 01a4 00EBD070 		add	r0, r0, r0, lsr #31
 537 01a8 4010     		asrs	r0, r0, #1
 538              	.LVL63:
 294:Drivers/lvgl/src/widgets/checkbox/lv_checkbox.c ****     lv_area_t txt_area;
 539              		.loc 1 294 5 is_stmt 1 view .LVU182
 295:Drivers/lvgl/src/widgets/checkbox/lv_checkbox.c ****     if(is_rtl) {
 540              		.loc 1 295 5 view .LVU183
 541              		.loc 1 295 7 is_stmt 0 view .LVU184
 542 01aa 012D     		cmp	r5, #1
 543 01ac 2DD0     		beq	.L11
 296:Drivers/lvgl/src/widgets/checkbox/lv_checkbox.c ****         txt_area.x2 = marker_area.x1 - bg_colp;
 297:Drivers/lvgl/src/widgets/checkbox/lv_checkbox.c ****         txt_area.x1 = txt_area.x2 - txt_size.x;
 298:Drivers/lvgl/src/widgets/checkbox/lv_checkbox.c ****     }
 299:Drivers/lvgl/src/widgets/checkbox/lv_checkbox.c ****     else {
 300:Drivers/lvgl/src/widgets/checkbox/lv_checkbox.c ****         txt_area.x1 = marker_area.x2 + bg_colp;
 544              		.loc 1 300 9 is_stmt 1 view .LVU185
 545              		.loc 1 300 34 is_stmt 0 view .LVU186
 546 01ae 359B     		ldr	r3, [sp, #212]
 547              		.loc 1 300 38 view .LVU187
 548 01b0 039A     		ldr	r2, [sp, #12]
 549 01b2 1344     		add	r3, r3, r2
 550              		.loc 1 300 21 view .LVU188
 551 01b4 0A93     		str	r3, [sp, #40]
 301:Drivers/lvgl/src/widgets/checkbox/lv_checkbox.c ****         txt_area.x2 = txt_area.x1 + txt_size.x;
 552              		.loc 1 301 9 is_stmt 1 view .LVU189
 553              		.loc 1 301 45 is_stmt 0 view .LVU190
 554 01b6 2999     		ldr	r1, [sp, #164]
 555              		.loc 1 301 35 view .LVU191
 556 01b8 0B44     		add	r3, r3, r1
 557              		.loc 1 301 21 view .LVU192
 558 01ba 0C93     		str	r3, [sp, #48]
 559              	.L7:
 302:Drivers/lvgl/src/widgets/checkbox/lv_checkbox.c ****     }
 303:Drivers/lvgl/src/widgets/checkbox/lv_checkbox.c ****     txt_area.y1 = obj->coords.y1 + bg_topp + y_ofs;
 560              		.loc 1 303 5 is_stmt 1 view .LVU193
ARM GAS  /var/folders/qx/2_175_4n2s19vhvtspjhb3qh0000gn/T//ccirZTpW.s 			page 32


 561              		.loc 1 303 30 is_stmt 0 view .LVU194
 562 01bc A369     		ldr	r3, [r4, #24]
 563              		.loc 1 303 34 view .LVU195
 564 01be 3344     		add	r3, r3, r6
 565              		.loc 1 303 44 view .LVU196
 566 01c0 0344     		add	r3, r3, r0
 567              		.loc 1 303 17 view .LVU197
 568 01c2 0AAA     		add	r2, sp, #40
 569 01c4 5360     		str	r3, [r2, #4]
 304:Drivers/lvgl/src/widgets/checkbox/lv_checkbox.c ****     txt_area.y2 = txt_area.y1 + txt_size.y;
 570              		.loc 1 304 5 is_stmt 1 view .LVU198
 571              		.loc 1 304 41 is_stmt 0 view .LVU199
 572 01c6 2A99     		ldr	r1, [sp, #168]
 573              		.loc 1 304 31 view .LVU200
 574 01c8 0B44     		add	r3, r3, r1
 575              		.loc 1 304 17 view .LVU201
 576 01ca D360     		str	r3, [r2, #12]
 305:Drivers/lvgl/src/widgets/checkbox/lv_checkbox.c **** 
 306:Drivers/lvgl/src/widgets/checkbox/lv_checkbox.c ****     lv_draw_label(layer, &txt_dsc, &txt_area);
 577              		.loc 1 306 5 is_stmt 1 view .LVU202
 578 01cc 0EA9     		add	r1, sp, #56
 579 01ce 4046     		mov	r0, r8
 580              	.LVL64:
 581              		.loc 1 306 5 is_stmt 0 view .LVU203
 582 01d0 FFF7FEFF 		bl	lv_draw_label
 583              	.LVL65:
 307:Drivers/lvgl/src/widgets/checkbox/lv_checkbox.c **** }
 584              		.loc 1 307 1 view .LVU204
 585 01d4 5DB0     		add	sp, sp, #372
 586              	.LCFI2:
 587              		.cfi_remember_state
 588              		.cfi_def_cfa_offset 36
 589              		@ sp needed
 590 01d6 BDE8F08F 		pop	{r4, r5, r6, r7, r8, r9, r10, fp, pc}
 591              	.LVL66:
 592              	.L9:
 593              	.LCFI3:
 594              		.cfi_restore_state
 595              		.loc 1 307 1 view .LVU205
 596 01da 0DF1240A 		add	r10, sp, #36
 597              	.LVL67:
 598              	.LBB82:
 599              	.LBI82:
 172:Drivers/lvgl/src/widgets/checkbox/../../core/lv_obj_style_gen.h **** {
 600              		.loc 2 172 23 is_stmt 1 view .LVU206
 601              	.LBB83:
 174:Drivers/lvgl/src/widgets/checkbox/../../core/lv_obj_style_gen.h ****     return (int32_t)v.num;
 602              		.loc 2 174 5 view .LVU207
 174:Drivers/lvgl/src/widgets/checkbox/../../core/lv_obj_style_gen.h ****     return (int32_t)v.num;
 603              		.loc 2 174 26 is_stmt 0 view .LVU208
 604 01de 1322     		movs	r2, #19
 605 01e0 0021     		movs	r1, #0
 606 01e2 2046     		mov	r0, r4
 607 01e4 FFF7FEFF 		bl	lv_obj_get_style_prop
 608              	.LVL68:
 609 01e8 CAF80000 		str	r0, [r10]
 175:Drivers/lvgl/src/widgets/checkbox/../../core/lv_obj_style_gen.h **** }
ARM GAS  /var/folders/qx/2_175_4n2s19vhvtspjhb3qh0000gn/T//ccirZTpW.s 			page 33


 610              		.loc 2 175 5 is_stmt 1 view .LVU209
 175:Drivers/lvgl/src/widgets/checkbox/../../core/lv_obj_style_gen.h **** }
 611              		.loc 2 175 12 is_stmt 0 view .LVU210
 612 01ec 0190     		str	r0, [sp, #4]
 613              	.LVL69:
 175:Drivers/lvgl/src/widgets/checkbox/../../core/lv_obj_style_gen.h **** }
 614              		.loc 2 175 12 view .LVU211
 615              	.LBE83:
 616              	.LBE82:
 617 01ee 3CE7     		b	.L3
 618              	.LVL70:
 619              	.L10:
 262:Drivers/lvgl/src/widgets/checkbox/lv_checkbox.c ****         marker_area.x1 = marker_area.x2 - font_h - marker_leftp - marker_rightp + 1;
 620              		.loc 1 262 9 is_stmt 1 view .LVU212
 262:Drivers/lvgl/src/widgets/checkbox/lv_checkbox.c ****         marker_area.x1 = marker_area.x2 - font_h - marker_leftp - marker_rightp + 1;
 621              		.loc 1 262 37 is_stmt 0 view .LVU213
 622 01f0 E369     		ldr	r3, [r4, #28]
 262:Drivers/lvgl/src/widgets/checkbox/lv_checkbox.c ****         marker_area.x1 = marker_area.x2 - font_h - marker_leftp - marker_rightp + 1;
 623              		.loc 1 262 41 view .LVU214
 624 01f2 019A     		ldr	r2, [sp, #4]
 625 01f4 9B1A     		subs	r3, r3, r2
 262:Drivers/lvgl/src/widgets/checkbox/lv_checkbox.c ****         marker_area.x1 = marker_area.x2 - font_h - marker_leftp - marker_rightp + 1;
 626              		.loc 1 262 24 view .LVU215
 627 01f6 3593     		str	r3, [sp, #212]
 263:Drivers/lvgl/src/widgets/checkbox/lv_checkbox.c ****     }
 628              		.loc 1 263 9 is_stmt 1 view .LVU216
 263:Drivers/lvgl/src/widgets/checkbox/lv_checkbox.c ****     }
 629              		.loc 1 263 41 is_stmt 0 view .LVU217
 630 01f8 A3EB0903 		sub	r3, r3, r9
 263:Drivers/lvgl/src/widgets/checkbox/lv_checkbox.c ****     }
 631              		.loc 1 263 50 view .LVU218
 632 01fc 049A     		ldr	r2, [sp, #16]
 633 01fe 9B1A     		subs	r3, r3, r2
 263:Drivers/lvgl/src/widgets/checkbox/lv_checkbox.c ****     }
 634              		.loc 1 263 65 view .LVU219
 635 0200 059A     		ldr	r2, [sp, #20]
 636 0202 9B1A     		subs	r3, r3, r2
 263:Drivers/lvgl/src/widgets/checkbox/lv_checkbox.c ****     }
 637              		.loc 1 263 81 view .LVU220
 638 0204 0133     		adds	r3, r3, #1
 263:Drivers/lvgl/src/widgets/checkbox/lv_checkbox.c ****     }
 639              		.loc 1 263 24 view .LVU221
 640 0206 3393     		str	r3, [sp, #204]
 641 0208 7FE7     		b	.L5
 642              	.LVL71:
 643              	.L11:
 296:Drivers/lvgl/src/widgets/checkbox/lv_checkbox.c ****         txt_area.x1 = txt_area.x2 - txt_size.x;
 644              		.loc 1 296 9 is_stmt 1 view .LVU222
 296:Drivers/lvgl/src/widgets/checkbox/lv_checkbox.c ****         txt_area.x1 = txt_area.x2 - txt_size.x;
 645              		.loc 1 296 34 is_stmt 0 view .LVU223
 646 020a 339B     		ldr	r3, [sp, #204]
 296:Drivers/lvgl/src/widgets/checkbox/lv_checkbox.c ****         txt_area.x1 = txt_area.x2 - txt_size.x;
 647              		.loc 1 296 38 view .LVU224
 648 020c 039A     		ldr	r2, [sp, #12]
 649 020e 9B1A     		subs	r3, r3, r2
 296:Drivers/lvgl/src/widgets/checkbox/lv_checkbox.c ****         txt_area.x1 = txt_area.x2 - txt_size.x;
 650              		.loc 1 296 21 view .LVU225
ARM GAS  /var/folders/qx/2_175_4n2s19vhvtspjhb3qh0000gn/T//ccirZTpW.s 			page 34


 651 0210 0C93     		str	r3, [sp, #48]
 297:Drivers/lvgl/src/widgets/checkbox/lv_checkbox.c ****     }
 652              		.loc 1 297 9 is_stmt 1 view .LVU226
 297:Drivers/lvgl/src/widgets/checkbox/lv_checkbox.c ****     }
 653              		.loc 1 297 45 is_stmt 0 view .LVU227
 654 0212 2999     		ldr	r1, [sp, #164]
 297:Drivers/lvgl/src/widgets/checkbox/lv_checkbox.c ****     }
 655              		.loc 1 297 35 view .LVU228
 656 0214 5B1A     		subs	r3, r3, r1
 297:Drivers/lvgl/src/widgets/checkbox/lv_checkbox.c ****     }
 657              		.loc 1 297 21 view .LVU229
 658 0216 0A93     		str	r3, [sp, #40]
 659 0218 D0E7     		b	.L7
 660              		.cfi_endproc
 661              	.LFE191:
 663              		.section	.text.lv_checkbox_event,"ax",%progbits
 664              		.align	1
 665              		.syntax unified
 666              		.thumb
 667              		.thumb_func
 669              	lv_checkbox_event:
 670              	.LVL72:
 671              	.LFB190:
 181:Drivers/lvgl/src/widgets/checkbox/lv_checkbox.c ****     LV_UNUSED(class_p);
 672              		.loc 1 181 1 is_stmt 1 view -0
 673              		.cfi_startproc
 674              		@ args = 0, pretend = 0, frame = 32
 675              		@ frame_needed = 0, uses_anonymous_args = 0
 181:Drivers/lvgl/src/widgets/checkbox/lv_checkbox.c ****     LV_UNUSED(class_p);
 676              		.loc 1 181 1 is_stmt 0 view .LVU231
 677 0000 2DE9F047 		push	{r4, r5, r6, r7, r8, r9, r10, lr}
 678              	.LCFI4:
 679              		.cfi_def_cfa_offset 32
 680              		.cfi_offset 4, -32
 681              		.cfi_offset 5, -28
 682              		.cfi_offset 6, -24
 683              		.cfi_offset 7, -20
 684              		.cfi_offset 8, -16
 685              		.cfi_offset 9, -12
 686              		.cfi_offset 10, -8
 687              		.cfi_offset 14, -4
 688 0004 88B0     		sub	sp, sp, #32
 689              	.LCFI5:
 690              		.cfi_def_cfa_offset 64
 691 0006 0C46     		mov	r4, r1
 182:Drivers/lvgl/src/widgets/checkbox/lv_checkbox.c **** 
 692              		.loc 1 182 5 is_stmt 1 view .LVU232
 184:Drivers/lvgl/src/widgets/checkbox/lv_checkbox.c ****     /*Call the ancestor's event handler*/
 693              		.loc 1 184 5 view .LVU233
 186:Drivers/lvgl/src/widgets/checkbox/lv_checkbox.c ****     if(res != LV_RESULT_OK) return;
 694              		.loc 1 186 5 view .LVU234
 186:Drivers/lvgl/src/widgets/checkbox/lv_checkbox.c ****     if(res != LV_RESULT_OK) return;
 695              		.loc 1 186 11 is_stmt 0 view .LVU235
 696 0008 4648     		ldr	r0, .L20
 697              	.LVL73:
 186:Drivers/lvgl/src/widgets/checkbox/lv_checkbox.c ****     if(res != LV_RESULT_OK) return;
 698              		.loc 1 186 11 view .LVU236
ARM GAS  /var/folders/qx/2_175_4n2s19vhvtspjhb3qh0000gn/T//ccirZTpW.s 			page 35


 699 000a FFF7FEFF 		bl	lv_obj_event_base
 700              	.LVL74:
 187:Drivers/lvgl/src/widgets/checkbox/lv_checkbox.c **** 
 701              		.loc 1 187 5 is_stmt 1 view .LVU237
 187:Drivers/lvgl/src/widgets/checkbox/lv_checkbox.c **** 
 702              		.loc 1 187 7 is_stmt 0 view .LVU238
 703 000e 0128     		cmp	r0, #1
 704 0010 02D0     		beq	.L17
 705              	.LVL75:
 706              	.L12:
 229:Drivers/lvgl/src/widgets/checkbox/lv_checkbox.c **** 
 707              		.loc 1 229 1 view .LVU239
 708 0012 08B0     		add	sp, sp, #32
 709              	.LCFI6:
 710              		.cfi_remember_state
 711              		.cfi_def_cfa_offset 32
 712              		@ sp needed
 713 0014 BDE8F087 		pop	{r4, r5, r6, r7, r8, r9, r10, pc}
 714              	.LVL76:
 715              	.L17:
 716              	.LCFI7:
 717              		.cfi_restore_state
 189:Drivers/lvgl/src/widgets/checkbox/lv_checkbox.c ****     lv_obj_t * obj = lv_event_get_current_target(e);
 718              		.loc 1 189 5 is_stmt 1 view .LVU240
 189:Drivers/lvgl/src/widgets/checkbox/lv_checkbox.c ****     lv_obj_t * obj = lv_event_get_current_target(e);
 719              		.loc 1 189 28 is_stmt 0 view .LVU241
 720 0018 2046     		mov	r0, r4
 721              	.LVL77:
 189:Drivers/lvgl/src/widgets/checkbox/lv_checkbox.c ****     lv_obj_t * obj = lv_event_get_current_target(e);
 722              		.loc 1 189 28 view .LVU242
 723 001a FFF7FEFF 		bl	lv_event_get_code
 724              	.LVL78:
 725 001e 0546     		mov	r5, r0
 726              	.LVL79:
 190:Drivers/lvgl/src/widgets/checkbox/lv_checkbox.c **** 
 727              		.loc 1 190 5 is_stmt 1 view .LVU243
 190:Drivers/lvgl/src/widgets/checkbox/lv_checkbox.c **** 
 728              		.loc 1 190 22 is_stmt 0 view .LVU244
 729 0020 2046     		mov	r0, r4
 730              	.LVL80:
 190:Drivers/lvgl/src/widgets/checkbox/lv_checkbox.c **** 
 731              		.loc 1 190 22 view .LVU245
 732 0022 FFF7FEFF 		bl	lv_event_get_current_target
 733              	.LVL81:
 734 0026 0646     		mov	r6, r0
 735              	.LVL82:
 192:Drivers/lvgl/src/widgets/checkbox/lv_checkbox.c ****         lv_point_t * p = lv_event_get_param(e);
 736              		.loc 1 192 5 is_stmt 1 view .LVU246
 192:Drivers/lvgl/src/widgets/checkbox/lv_checkbox.c ****         lv_point_t * p = lv_event_get_param(e);
 737              		.loc 1 192 7 is_stmt 0 view .LVU247
 738 0028 352D     		cmp	r5, #53
 739 002a 07D0     		beq	.L18
 221:Drivers/lvgl/src/widgets/checkbox/lv_checkbox.c ****         int32_t * s = lv_event_get_param(e);
 740              		.loc 1 221 10 is_stmt 1 view .LVU248
 221:Drivers/lvgl/src/widgets/checkbox/lv_checkbox.c ****         int32_t * s = lv_event_get_param(e);
 741              		.loc 1 221 12 is_stmt 0 view .LVU249
 742 002c 1B2D     		cmp	r5, #27
ARM GAS  /var/folders/qx/2_175_4n2s19vhvtspjhb3qh0000gn/T//ccirZTpW.s 			page 36


 743 002e 6AD0     		beq	.L19
 226:Drivers/lvgl/src/widgets/checkbox/lv_checkbox.c ****         lv_checkbox_draw(e);
 744              		.loc 1 226 10 is_stmt 1 view .LVU250
 226:Drivers/lvgl/src/widgets/checkbox/lv_checkbox.c ****         lv_checkbox_draw(e);
 745              		.loc 1 226 12 is_stmt 0 view .LVU251
 746 0030 1D2D     		cmp	r5, #29
 747 0032 EED1     		bne	.L12
 227:Drivers/lvgl/src/widgets/checkbox/lv_checkbox.c ****     }
 748              		.loc 1 227 9 is_stmt 1 view .LVU252
 749 0034 2046     		mov	r0, r4
 750              	.LVL83:
 227:Drivers/lvgl/src/widgets/checkbox/lv_checkbox.c ****     }
 751              		.loc 1 227 9 is_stmt 0 view .LVU253
 752 0036 FFF7FEFF 		bl	lv_checkbox_draw
 753              	.LVL84:
 754 003a EAE7     		b	.L12
 755              	.LVL85:
 756              	.L18:
 757              	.LBB84:
 193:Drivers/lvgl/src/widgets/checkbox/lv_checkbox.c ****         lv_checkbox_t * cb = (lv_checkbox_t *)obj;
 758              		.loc 1 193 9 is_stmt 1 view .LVU254
 193:Drivers/lvgl/src/widgets/checkbox/lv_checkbox.c ****         lv_checkbox_t * cb = (lv_checkbox_t *)obj;
 759              		.loc 1 193 26 is_stmt 0 view .LVU255
 760 003c 2046     		mov	r0, r4
 761              	.LVL86:
 193:Drivers/lvgl/src/widgets/checkbox/lv_checkbox.c ****         lv_checkbox_t * cb = (lv_checkbox_t *)obj;
 762              		.loc 1 193 26 view .LVU256
 763 003e FFF7FEFF 		bl	lv_event_get_param
 764              	.LVL87:
 765 0042 0546     		mov	r5, r0
 766              	.LVL88:
 194:Drivers/lvgl/src/widgets/checkbox/lv_checkbox.c **** 
 767              		.loc 1 194 9 is_stmt 1 view .LVU257
 196:Drivers/lvgl/src/widgets/checkbox/lv_checkbox.c ****         int32_t font_h = lv_font_get_line_height(font);
 768              		.loc 1 196 9 view .LVU258
 769              	.LBB85:
 770              	.LBI85:
 562:Drivers/lvgl/src/widgets/checkbox/../../core/lv_obj_style_gen.h **** {
 771              		.loc 2 562 33 view .LVU259
 772              	.LBB86:
 564:Drivers/lvgl/src/widgets/checkbox/../../core/lv_obj_style_gen.h ****     return (const lv_font_t *)v.ptr;
 773              		.loc 2 564 5 view .LVU260
 564:Drivers/lvgl/src/widgets/checkbox/../../core/lv_obj_style_gen.h ****     return (const lv_font_t *)v.ptr;
 774              		.loc 2 564 26 is_stmt 0 view .LVU261
 775 0044 5A22     		movs	r2, #90
 776 0046 0021     		movs	r1, #0
 777 0048 3046     		mov	r0, r6
 778              	.LVL89:
 564:Drivers/lvgl/src/widgets/checkbox/../../core/lv_obj_style_gen.h ****     return (const lv_font_t *)v.ptr;
 779              		.loc 2 564 26 view .LVU262
 780 004a FFF7FEFF 		bl	lv_obj_get_style_prop
 781              	.LVL90:
 782 004e 0746     		mov	r7, r0
 783 0050 0490     		str	r0, [sp, #16]
 565:Drivers/lvgl/src/widgets/checkbox/../../core/lv_obj_style_gen.h **** }
 784              		.loc 2 565 5 is_stmt 1 view .LVU263
 785              	.LVL91:
ARM GAS  /var/folders/qx/2_175_4n2s19vhvtspjhb3qh0000gn/T//ccirZTpW.s 			page 37


 565:Drivers/lvgl/src/widgets/checkbox/../../core/lv_obj_style_gen.h **** }
 786              		.loc 2 565 5 is_stmt 0 view .LVU264
 787              	.LBE86:
 788              	.LBE85:
 197:Drivers/lvgl/src/widgets/checkbox/lv_checkbox.c ****         lv_text_attributes_t attributes = {0};
 789              		.loc 1 197 9 is_stmt 1 view .LVU265
 197:Drivers/lvgl/src/widgets/checkbox/lv_checkbox.c ****         lv_text_attributes_t attributes = {0};
 790              		.loc 1 197 26 is_stmt 0 view .LVU266
 791 0052 FFF7FEFF 		bl	lv_font_get_line_height
 792              	.LVL92:
 197:Drivers/lvgl/src/widgets/checkbox/lv_checkbox.c ****         lv_text_attributes_t attributes = {0};
 793              		.loc 1 197 26 view .LVU267
 794 0056 8046     		mov	r8, r0
 795              	.LVL93:
 198:Drivers/lvgl/src/widgets/checkbox/lv_checkbox.c **** 
 796              		.loc 1 198 9 is_stmt 1 view .LVU268
 198:Drivers/lvgl/src/widgets/checkbox/lv_checkbox.c **** 
 797              		.loc 1 198 30 is_stmt 0 view .LVU269
 798 0058 0DF11009 		add	r9, sp, #16
 799 005c 0024     		movs	r4, #0
 800              	.LVL94:
 198:Drivers/lvgl/src/widgets/checkbox/lv_checkbox.c **** 
 801              		.loc 1 198 30 view .LVU270
 802 005e 0494     		str	r4, [sp, #16]
 803 0060 0594     		str	r4, [sp, #20]
 804 0062 0694     		str	r4, [sp, #24]
 805 0064 0794     		str	r4, [sp, #28]
 200:Drivers/lvgl/src/widgets/checkbox/lv_checkbox.c ****         attributes.letter_space = lv_obj_get_style_text_letter_space(obj, LV_PART_MAIN);
 806              		.loc 1 200 9 is_stmt 1 view .LVU271
 807              	.LVL95:
 808              	.LBB87:
 809              	.LBI87:
 574:Drivers/lvgl/src/widgets/checkbox/../../core/lv_obj_style_gen.h **** {
 810              		.loc 2 574 23 view .LVU272
 811              	.LBB88:
 576:Drivers/lvgl/src/widgets/checkbox/../../core/lv_obj_style_gen.h ****     return (int32_t)v.num;
 812              		.loc 2 576 5 view .LVU273
 576:Drivers/lvgl/src/widgets/checkbox/../../core/lv_obj_style_gen.h ****     return (int32_t)v.num;
 813              		.loc 2 576 26 is_stmt 0 view .LVU274
 814 0066 5C22     		movs	r2, #92
 815 0068 2146     		mov	r1, r4
 816 006a 3046     		mov	r0, r6
 817              	.LVL96:
 576:Drivers/lvgl/src/widgets/checkbox/../../core/lv_obj_style_gen.h ****     return (int32_t)v.num;
 818              		.loc 2 576 26 view .LVU275
 819 006c FFF7FEFF 		bl	lv_obj_get_style_prop
 820              	.LVL97:
 821 0070 0290     		str	r0, [sp, #8]
 577:Drivers/lvgl/src/widgets/checkbox/../../core/lv_obj_style_gen.h **** }
 822              		.loc 2 577 5 is_stmt 1 view .LVU276
 823              	.LVL98:
 577:Drivers/lvgl/src/widgets/checkbox/../../core/lv_obj_style_gen.h **** }
 824              		.loc 2 577 5 is_stmt 0 view .LVU277
 825              	.LBE88:
 826              	.LBE87:
 200:Drivers/lvgl/src/widgets/checkbox/lv_checkbox.c ****         attributes.letter_space = lv_obj_get_style_text_letter_space(obj, LV_PART_MAIN);
 827              		.loc 1 200 31 discriminator 1 view .LVU278
ARM GAS  /var/folders/qx/2_175_4n2s19vhvtspjhb3qh0000gn/T//ccirZTpW.s 			page 38


 828 0072 0590     		str	r0, [sp, #20]
 201:Drivers/lvgl/src/widgets/checkbox/lv_checkbox.c ****         attributes.max_width = LV_COORD_MAX;
 829              		.loc 1 201 9 is_stmt 1 view .LVU279
 830              	.LVL99:
 831              	.LBB89:
 832              	.LBI89:
 568:Drivers/lvgl/src/widgets/checkbox/../../core/lv_obj_style_gen.h **** {
 833              		.loc 2 568 23 view .LVU280
 834              	.LBB90:
 570:Drivers/lvgl/src/widgets/checkbox/../../core/lv_obj_style_gen.h ****     return (int32_t)v.num;
 835              		.loc 2 570 5 view .LVU281
 570:Drivers/lvgl/src/widgets/checkbox/../../core/lv_obj_style_gen.h ****     return (int32_t)v.num;
 836              		.loc 2 570 26 is_stmt 0 view .LVU282
 837 0074 5B22     		movs	r2, #91
 838 0076 2146     		mov	r1, r4
 839 0078 3046     		mov	r0, r6
 840 007a FFF7FEFF 		bl	lv_obj_get_style_prop
 841              	.LVL100:
 842 007e 0290     		str	r0, [sp, #8]
 571:Drivers/lvgl/src/widgets/checkbox/../../core/lv_obj_style_gen.h **** }
 843              		.loc 2 571 5 is_stmt 1 view .LVU283
 844              	.LVL101:
 571:Drivers/lvgl/src/widgets/checkbox/../../core/lv_obj_style_gen.h **** }
 845              		.loc 2 571 5 is_stmt 0 view .LVU284
 846              	.LBE90:
 847              	.LBE89:
 201:Drivers/lvgl/src/widgets/checkbox/lv_checkbox.c ****         attributes.max_width = LV_COORD_MAX;
 848              		.loc 1 201 33 discriminator 1 view .LVU285
 849 0080 0490     		str	r0, [sp, #16]
 202:Drivers/lvgl/src/widgets/checkbox/lv_checkbox.c ****         attributes.text_flags = LV_TEXT_FLAG_NONE;
 850              		.loc 1 202 9 is_stmt 1 view .LVU286
 202:Drivers/lvgl/src/widgets/checkbox/lv_checkbox.c ****         attributes.text_flags = LV_TEXT_FLAG_NONE;
 851              		.loc 1 202 30 is_stmt 0 view .LVU287
 852 0082 6FF06043 		mvn	r3, #-536870912
 853 0086 0693     		str	r3, [sp, #24]
 203:Drivers/lvgl/src/widgets/checkbox/lv_checkbox.c **** 
 854              		.loc 1 203 9 is_stmt 1 view .LVU288
 203:Drivers/lvgl/src/widgets/checkbox/lv_checkbox.c **** 
 855              		.loc 1 203 31 is_stmt 0 view .LVU289
 856 0088 8DF81C40 		strb	r4, [sp, #28]
 205:Drivers/lvgl/src/widgets/checkbox/lv_checkbox.c **** 
 857              		.loc 1 205 9 is_stmt 1 view .LVU290
 207:Drivers/lvgl/src/widgets/checkbox/lv_checkbox.c **** 
 858              		.loc 1 207 9 view .LVU291
 859 008c 4B46     		mov	r3, r9
 860 008e 3A46     		mov	r2, r7
 861 0090 F16A     		ldr	r1, [r6, #44]
 862 0092 6846     		mov	r0, sp
 863 0094 FFF7FEFF 		bl	lv_text_get_size_attributes
 864              	.LVL102:
 209:Drivers/lvgl/src/widgets/checkbox/lv_checkbox.c ****         int32_t marker_leftp = lv_obj_get_style_pad_left(obj, LV_PART_INDICATOR);
 865              		.loc 1 209 9 view .LVU292
 866              	.LBB91:
 867              	.LBI91:
 184:Drivers/lvgl/src/widgets/checkbox/../../core/lv_obj_style_gen.h **** {
 868              		.loc 2 184 23 view .LVU293
 869              	.LBB92:
ARM GAS  /var/folders/qx/2_175_4n2s19vhvtspjhb3qh0000gn/T//ccirZTpW.s 			page 39


 186:Drivers/lvgl/src/widgets/checkbox/../../core/lv_obj_style_gen.h ****     return (int32_t)v.num;
 870              		.loc 2 186 5 view .LVU294
 186:Drivers/lvgl/src/widgets/checkbox/../../core/lv_obj_style_gen.h ****     return (int32_t)v.num;
 871              		.loc 2 186 26 is_stmt 0 view .LVU295
 872 0098 1522     		movs	r2, #21
 873 009a 2146     		mov	r1, r4
 874 009c 3046     		mov	r0, r6
 875 009e FFF7FEFF 		bl	lv_obj_get_style_prop
 876              	.LVL103:
 877 00a2 0746     		mov	r7, r0
 878              	.LVL104:
 186:Drivers/lvgl/src/widgets/checkbox/../../core/lv_obj_style_gen.h ****     return (int32_t)v.num;
 879              		.loc 2 186 26 view .LVU296
 880 00a4 0290     		str	r0, [sp, #8]
 187:Drivers/lvgl/src/widgets/checkbox/../../core/lv_obj_style_gen.h **** }
 881              		.loc 2 187 5 is_stmt 1 view .LVU297
 882              	.LVL105:
 187:Drivers/lvgl/src/widgets/checkbox/../../core/lv_obj_style_gen.h **** }
 883              		.loc 2 187 5 is_stmt 0 view .LVU298
 884              	.LBE92:
 885              	.LBE91:
 210:Drivers/lvgl/src/widgets/checkbox/lv_checkbox.c ****         int32_t marker_rightp = lv_obj_get_style_pad_right(obj, LV_PART_INDICATOR);
 886              		.loc 1 210 9 is_stmt 1 view .LVU299
 887              	.LBB93:
 888              	.LBI93:
 166:Drivers/lvgl/src/widgets/checkbox/../../core/lv_obj_style_gen.h **** {
 889              		.loc 2 166 23 view .LVU300
 890              	.LBB94:
 168:Drivers/lvgl/src/widgets/checkbox/../../core/lv_obj_style_gen.h ****     return (int32_t)v.num;
 891              		.loc 2 168 5 view .LVU301
 168:Drivers/lvgl/src/widgets/checkbox/../../core/lv_obj_style_gen.h ****     return (int32_t)v.num;
 892              		.loc 2 168 26 is_stmt 0 view .LVU302
 893 00a6 1222     		movs	r2, #18
 894 00a8 4FF40031 		mov	r1, #131072
 895 00ac 3046     		mov	r0, r6
 896              	.LVL106:
 168:Drivers/lvgl/src/widgets/checkbox/../../core/lv_obj_style_gen.h ****     return (int32_t)v.num;
 897              		.loc 2 168 26 view .LVU303
 898 00ae FFF7FEFF 		bl	lv_obj_get_style_prop
 899              	.LVL107:
 900 00b2 0446     		mov	r4, r0
 901 00b4 0290     		str	r0, [sp, #8]
 169:Drivers/lvgl/src/widgets/checkbox/../../core/lv_obj_style_gen.h **** }
 902              		.loc 2 169 5 is_stmt 1 view .LVU304
 903              	.LVL108:
 169:Drivers/lvgl/src/widgets/checkbox/../../core/lv_obj_style_gen.h **** }
 904              		.loc 2 169 5 is_stmt 0 view .LVU305
 905              	.LBE94:
 906              	.LBE93:
 211:Drivers/lvgl/src/widgets/checkbox/lv_checkbox.c ****         int32_t marker_topp = lv_obj_get_style_pad_top(obj, LV_PART_INDICATOR);
 907              		.loc 1 211 9 is_stmt 1 view .LVU306
 908              	.LBB95:
 909              	.LBI95:
 172:Drivers/lvgl/src/widgets/checkbox/../../core/lv_obj_style_gen.h **** {
 910              		.loc 2 172 23 view .LVU307
 911              	.LBB96:
 174:Drivers/lvgl/src/widgets/checkbox/../../core/lv_obj_style_gen.h ****     return (int32_t)v.num;
ARM GAS  /var/folders/qx/2_175_4n2s19vhvtspjhb3qh0000gn/T//ccirZTpW.s 			page 40


 912              		.loc 2 174 5 view .LVU308
 174:Drivers/lvgl/src/widgets/checkbox/../../core/lv_obj_style_gen.h ****     return (int32_t)v.num;
 913              		.loc 2 174 26 is_stmt 0 view .LVU309
 914 00b6 1322     		movs	r2, #19
 915 00b8 4FF40031 		mov	r1, #131072
 916 00bc 3046     		mov	r0, r6
 917              	.LVL109:
 174:Drivers/lvgl/src/widgets/checkbox/../../core/lv_obj_style_gen.h ****     return (int32_t)v.num;
 918              		.loc 2 174 26 view .LVU310
 919 00be FFF7FEFF 		bl	lv_obj_get_style_prop
 920              	.LVL110:
 921 00c2 8246     		mov	r10, r0
 922 00c4 0290     		str	r0, [sp, #8]
 175:Drivers/lvgl/src/widgets/checkbox/../../core/lv_obj_style_gen.h **** }
 923              		.loc 2 175 5 is_stmt 1 view .LVU311
 924              	.LVL111:
 175:Drivers/lvgl/src/widgets/checkbox/../../core/lv_obj_style_gen.h **** }
 925              		.loc 2 175 5 is_stmt 0 view .LVU312
 926              	.LBE96:
 927              	.LBE95:
 212:Drivers/lvgl/src/widgets/checkbox/lv_checkbox.c ****         int32_t marker_bottomp = lv_obj_get_style_pad_bottom(obj, LV_PART_INDICATOR);
 928              		.loc 1 212 9 is_stmt 1 view .LVU313
 929              	.LBB97:
 930              	.LBI97:
 154:Drivers/lvgl/src/widgets/checkbox/../../core/lv_obj_style_gen.h **** {
 931              		.loc 2 154 23 view .LVU314
 932              	.LBB98:
 156:Drivers/lvgl/src/widgets/checkbox/../../core/lv_obj_style_gen.h ****     return (int32_t)v.num;
 933              		.loc 2 156 5 view .LVU315
 156:Drivers/lvgl/src/widgets/checkbox/../../core/lv_obj_style_gen.h ****     return (int32_t)v.num;
 934              		.loc 2 156 26 is_stmt 0 view .LVU316
 935 00c6 1022     		movs	r2, #16
 936 00c8 4FF40031 		mov	r1, #131072
 937 00cc 3046     		mov	r0, r6
 938              	.LVL112:
 156:Drivers/lvgl/src/widgets/checkbox/../../core/lv_obj_style_gen.h ****     return (int32_t)v.num;
 939              		.loc 2 156 26 view .LVU317
 940 00ce FFF7FEFF 		bl	lv_obj_get_style_prop
 941              	.LVL113:
 942 00d2 8146     		mov	r9, r0
 943 00d4 0290     		str	r0, [sp, #8]
 157:Drivers/lvgl/src/widgets/checkbox/../../core/lv_obj_style_gen.h **** }
 944              		.loc 2 157 5 is_stmt 1 view .LVU318
 945              	.LVL114:
 157:Drivers/lvgl/src/widgets/checkbox/../../core/lv_obj_style_gen.h **** }
 946              		.loc 2 157 5 is_stmt 0 view .LVU319
 947              	.LBE98:
 948              	.LBE97:
 213:Drivers/lvgl/src/widgets/checkbox/lv_checkbox.c ****         lv_point_t marker_size;
 949              		.loc 1 213 9 is_stmt 1 view .LVU320
 950              	.LBB99:
 951              	.LBI99:
 160:Drivers/lvgl/src/widgets/checkbox/../../core/lv_obj_style_gen.h **** {
 952              		.loc 2 160 23 view .LVU321
 953              	.LBB100:
 162:Drivers/lvgl/src/widgets/checkbox/../../core/lv_obj_style_gen.h ****     return (int32_t)v.num;
 954              		.loc 2 162 5 view .LVU322
ARM GAS  /var/folders/qx/2_175_4n2s19vhvtspjhb3qh0000gn/T//ccirZTpW.s 			page 41


 162:Drivers/lvgl/src/widgets/checkbox/../../core/lv_obj_style_gen.h ****     return (int32_t)v.num;
 955              		.loc 2 162 26 is_stmt 0 view .LVU323
 956 00d6 1122     		movs	r2, #17
 957 00d8 4FF40031 		mov	r1, #131072
 958 00dc 3046     		mov	r0, r6
 959              	.LVL115:
 162:Drivers/lvgl/src/widgets/checkbox/../../core/lv_obj_style_gen.h ****     return (int32_t)v.num;
 960              		.loc 2 162 26 view .LVU324
 961 00de FFF7FEFF 		bl	lv_obj_get_style_prop
 962              	.LVL116:
 963 00e2 0290     		str	r0, [sp, #8]
 163:Drivers/lvgl/src/widgets/checkbox/../../core/lv_obj_style_gen.h **** }
 964              		.loc 2 163 5 is_stmt 1 view .LVU325
 965              	.LVL117:
 163:Drivers/lvgl/src/widgets/checkbox/../../core/lv_obj_style_gen.h **** }
 966              		.loc 2 163 5 is_stmt 0 view .LVU326
 967              	.LBE100:
 968              	.LBE99:
 214:Drivers/lvgl/src/widgets/checkbox/lv_checkbox.c ****         marker_size.x = font_h + marker_leftp + marker_rightp;
 969              		.loc 1 214 9 is_stmt 1 view .LVU327
 215:Drivers/lvgl/src/widgets/checkbox/lv_checkbox.c ****         marker_size.y = font_h + marker_topp + marker_bottomp;
 970              		.loc 1 215 9 view .LVU328
 215:Drivers/lvgl/src/widgets/checkbox/lv_checkbox.c ****         marker_size.y = font_h + marker_topp + marker_bottomp;
 971              		.loc 1 215 32 is_stmt 0 view .LVU329
 972 00e4 4444     		add	r4, r4, r8
 973              	.LVL118:
 215:Drivers/lvgl/src/widgets/checkbox/lv_checkbox.c ****         marker_size.y = font_h + marker_topp + marker_bottomp;
 974              		.loc 1 215 47 view .LVU330
 975 00e6 5444     		add	r4, r4, r10
 215:Drivers/lvgl/src/widgets/checkbox/lv_checkbox.c ****         marker_size.y = font_h + marker_topp + marker_bottomp;
 976              		.loc 1 215 23 view .LVU331
 977 00e8 0294     		str	r4, [sp, #8]
 216:Drivers/lvgl/src/widgets/checkbox/lv_checkbox.c **** 
 978              		.loc 1 216 9 is_stmt 1 view .LVU332
 216:Drivers/lvgl/src/widgets/checkbox/lv_checkbox.c **** 
 979              		.loc 1 216 32 is_stmt 0 view .LVU333
 980 00ea 08EB0903 		add	r3, r8, r9
 216:Drivers/lvgl/src/widgets/checkbox/lv_checkbox.c **** 
 981              		.loc 1 216 46 view .LVU334
 982 00ee 0344     		add	r3, r3, r0
 216:Drivers/lvgl/src/widgets/checkbox/lv_checkbox.c **** 
 983              		.loc 1 216 23 view .LVU335
 984 00f0 0393     		str	r3, [sp, #12]
 218:Drivers/lvgl/src/widgets/checkbox/lv_checkbox.c ****         p->y = LV_MAX(marker_size.y, txt_size.y);
 985              		.loc 1 218 9 is_stmt 1 view .LVU336
 218:Drivers/lvgl/src/widgets/checkbox/lv_checkbox.c ****         p->y = LV_MAX(marker_size.y, txt_size.y);
 986              		.loc 1 218 40 is_stmt 0 view .LVU337
 987 00f2 009A     		ldr	r2, [sp]
 218:Drivers/lvgl/src/widgets/checkbox/lv_checkbox.c ****         p->y = LV_MAX(marker_size.y, txt_size.y);
 988              		.loc 1 218 30 view .LVU338
 989 00f4 1444     		add	r4, r4, r2
 218:Drivers/lvgl/src/widgets/checkbox/lv_checkbox.c ****         p->y = LV_MAX(marker_size.y, txt_size.y);
 990              		.loc 1 218 43 view .LVU339
 991 00f6 3C44     		add	r4, r4, r7
 218:Drivers/lvgl/src/widgets/checkbox/lv_checkbox.c ****         p->y = LV_MAX(marker_size.y, txt_size.y);
 992              		.loc 1 218 14 view .LVU340
 993 00f8 2C60     		str	r4, [r5]
ARM GAS  /var/folders/qx/2_175_4n2s19vhvtspjhb3qh0000gn/T//ccirZTpW.s 			page 42


 219:Drivers/lvgl/src/widgets/checkbox/lv_checkbox.c ****     }
 994              		.loc 1 219 9 is_stmt 1 view .LVU341
 219:Drivers/lvgl/src/widgets/checkbox/lv_checkbox.c ****     }
 995              		.loc 1 219 16 is_stmt 0 view .LVU342
 996 00fa 019A     		ldr	r2, [sp, #4]
 997 00fc 9342     		cmp	r3, r2
 998 00fe B8BF     		it	lt
 999 0100 1346     		movlt	r3, r2
 219:Drivers/lvgl/src/widgets/checkbox/lv_checkbox.c ****     }
 1000              		.loc 1 219 14 view .LVU343
 1001 0102 6B60     		str	r3, [r5, #4]
 1002              	.LBE84:
 1003 0104 85E7     		b	.L12
 1004              	.LVL119:
 1005              	.L19:
 1006              	.LBB101:
 222:Drivers/lvgl/src/widgets/checkbox/lv_checkbox.c ****         int32_t m = lv_obj_calculate_ext_draw_size(obj, LV_PART_INDICATOR);
 1007              		.loc 1 222 9 is_stmt 1 view .LVU344
 222:Drivers/lvgl/src/widgets/checkbox/lv_checkbox.c ****         int32_t m = lv_obj_calculate_ext_draw_size(obj, LV_PART_INDICATOR);
 1008              		.loc 1 222 23 is_stmt 0 view .LVU345
 1009 0106 2046     		mov	r0, r4
 1010              	.LVL120:
 222:Drivers/lvgl/src/widgets/checkbox/lv_checkbox.c ****         int32_t m = lv_obj_calculate_ext_draw_size(obj, LV_PART_INDICATOR);
 1011              		.loc 1 222 23 view .LVU346
 1012 0108 FFF7FEFF 		bl	lv_event_get_param
 1013              	.LVL121:
 1014 010c 0446     		mov	r4, r0
 1015              	.LVL122:
 223:Drivers/lvgl/src/widgets/checkbox/lv_checkbox.c ****         *s = LV_MAX(*s, m);
 1016              		.loc 1 223 9 is_stmt 1 view .LVU347
 223:Drivers/lvgl/src/widgets/checkbox/lv_checkbox.c ****         *s = LV_MAX(*s, m);
 1017              		.loc 1 223 21 is_stmt 0 view .LVU348
 1018 010e 4FF40031 		mov	r1, #131072
 1019 0112 3046     		mov	r0, r6
 1020              	.LVL123:
 223:Drivers/lvgl/src/widgets/checkbox/lv_checkbox.c ****         *s = LV_MAX(*s, m);
 1021              		.loc 1 223 21 view .LVU349
 1022 0114 FFF7FEFF 		bl	lv_obj_calculate_ext_draw_size
 1023              	.LVL124:
 224:Drivers/lvgl/src/widgets/checkbox/lv_checkbox.c ****     }
 1024              		.loc 1 224 9 is_stmt 1 view .LVU350
 224:Drivers/lvgl/src/widgets/checkbox/lv_checkbox.c ****     }
 1025              		.loc 1 224 14 is_stmt 0 view .LVU351
 1026 0118 2368     		ldr	r3, [r4]
 1027 011a 9842     		cmp	r0, r3
 1028 011c B8BF     		it	lt
 1029 011e 1846     		movlt	r0, r3
 1030              	.LVL125:
 224:Drivers/lvgl/src/widgets/checkbox/lv_checkbox.c ****     }
 1031              		.loc 1 224 12 view .LVU352
 1032 0120 2060     		str	r0, [r4]
 1033              	.LBE101:
 1034 0122 76E7     		b	.L12
 1035              	.L21:
 1036              		.align	2
 1037              	.L20:
 1038 0124 00000000 		.word	lv_checkbox_class
ARM GAS  /var/folders/qx/2_175_4n2s19vhvtspjhb3qh0000gn/T//ccirZTpW.s 			page 43


 1039              		.cfi_endproc
 1040              	.LFE190:
 1042              		.section	.text.lv_checkbox_destructor,"ax",%progbits
 1043              		.align	1
 1044              		.syntax unified
 1045              		.thumb
 1046              		.thumb_func
 1048              	lv_checkbox_destructor:
 1049              	.LVL126:
 1050              	.LFB189:
 168:Drivers/lvgl/src/widgets/checkbox/lv_checkbox.c ****     LV_UNUSED(class_p);
 1051              		.loc 1 168 1 is_stmt 1 view -0
 1052              		.cfi_startproc
 1053              		@ args = 0, pretend = 0, frame = 0
 1054              		@ frame_needed = 0, uses_anonymous_args = 0
 169:Drivers/lvgl/src/widgets/checkbox/lv_checkbox.c ****     LV_TRACE_OBJ_CREATE("begin");
 1055              		.loc 1 169 5 view .LVU354
 170:Drivers/lvgl/src/widgets/checkbox/lv_checkbox.c **** 
 1056              		.loc 1 170 33 view .LVU355
 172:Drivers/lvgl/src/widgets/checkbox/lv_checkbox.c ****     if(!cb->static_txt) {
 1057              		.loc 1 172 5 view .LVU356
 173:Drivers/lvgl/src/widgets/checkbox/lv_checkbox.c ****         lv_free(cb->txt);
 1058              		.loc 1 173 5 view .LVU357
 173:Drivers/lvgl/src/widgets/checkbox/lv_checkbox.c ****         lv_free(cb->txt);
 1059              		.loc 1 173 8 is_stmt 0 view .LVU358
 1060 0000 91F83030 		ldrb	r3, [r1, #48]	@ zero_extendqisi2
 173:Drivers/lvgl/src/widgets/checkbox/lv_checkbox.c ****         lv_free(cb->txt);
 1061              		.loc 1 173 7 view .LVU359
 1062 0004 13F0010F 		tst	r3, #1
 1063 0008 00D0     		beq	.L28
 1064 000a 7047     		bx	lr
 1065              	.L28:
 168:Drivers/lvgl/src/widgets/checkbox/lv_checkbox.c ****     LV_UNUSED(class_p);
 1066              		.loc 1 168 1 view .LVU360
 1067 000c 10B5     		push	{r4, lr}
 1068              	.LCFI8:
 1069              		.cfi_def_cfa_offset 8
 1070              		.cfi_offset 4, -8
 1071              		.cfi_offset 14, -4
 1072 000e 0C46     		mov	r4, r1
 174:Drivers/lvgl/src/widgets/checkbox/lv_checkbox.c ****         cb->txt = NULL;
 1073              		.loc 1 174 9 is_stmt 1 view .LVU361
 1074 0010 C86A     		ldr	r0, [r1, #44]
 1075              	.LVL127:
 174:Drivers/lvgl/src/widgets/checkbox/lv_checkbox.c ****         cb->txt = NULL;
 1076              		.loc 1 174 9 is_stmt 0 view .LVU362
 1077 0012 FFF7FEFF 		bl	lv_free
 1078              	.LVL128:
 175:Drivers/lvgl/src/widgets/checkbox/lv_checkbox.c ****     }
 1079              		.loc 1 175 9 is_stmt 1 view .LVU363
 175:Drivers/lvgl/src/widgets/checkbox/lv_checkbox.c ****     }
 1080              		.loc 1 175 17 is_stmt 0 view .LVU364
 1081 0016 0023     		movs	r3, #0
 1082 0018 E362     		str	r3, [r4, #44]
 177:Drivers/lvgl/src/widgets/checkbox/lv_checkbox.c **** }
 1083              		.loc 1 177 36 is_stmt 1 view .LVU365
 178:Drivers/lvgl/src/widgets/checkbox/lv_checkbox.c **** 
ARM GAS  /var/folders/qx/2_175_4n2s19vhvtspjhb3qh0000gn/T//ccirZTpW.s 			page 44


 1084              		.loc 1 178 1 is_stmt 0 view .LVU366
 1085 001a 10BD     		pop	{r4, pc}
 178:Drivers/lvgl/src/widgets/checkbox/lv_checkbox.c **** 
 1086              		.loc 1 178 1 view .LVU367
 1087              		.cfi_endproc
 1088              	.LFE189:
 1090              		.section	.rodata.lv_checkbox_constructor.str1.4,"aMS",%progbits,1
 1091              		.align	2
 1092              	.LC0:
 1093 0000 43686563 		.ascii	"Check box\000"
 1093      6B20626F 
 1093      7800
 1094              		.section	.text.lv_checkbox_constructor,"ax",%progbits
 1095              		.align	1
 1096              		.syntax unified
 1097              		.thumb
 1098              		.thumb_func
 1100              	lv_checkbox_constructor:
 1101              	.LVL129:
 1102              	.LFB188:
 145:Drivers/lvgl/src/widgets/checkbox/lv_checkbox.c ****     LV_UNUSED(class_p);
 1103              		.loc 1 145 1 is_stmt 1 view -0
 1104              		.cfi_startproc
 1105              		@ args = 0, pretend = 0, frame = 0
 1106              		@ frame_needed = 0, uses_anonymous_args = 0
 145:Drivers/lvgl/src/widgets/checkbox/lv_checkbox.c ****     LV_UNUSED(class_p);
 1107              		.loc 1 145 1 is_stmt 0 view .LVU369
 1108 0000 10B5     		push	{r4, lr}
 1109              	.LCFI9:
 1110              		.cfi_def_cfa_offset 8
 1111              		.cfi_offset 4, -8
 1112              		.cfi_offset 14, -4
 1113 0002 0C46     		mov	r4, r1
 146:Drivers/lvgl/src/widgets/checkbox/lv_checkbox.c ****     LV_TRACE_OBJ_CREATE("begin");
 1114              		.loc 1 146 5 is_stmt 1 view .LVU370
 147:Drivers/lvgl/src/widgets/checkbox/lv_checkbox.c **** 
 1115              		.loc 1 147 33 view .LVU371
 149:Drivers/lvgl/src/widgets/checkbox/lv_checkbox.c **** 
 1116              		.loc 1 149 5 view .LVU372
 1117              	.LVL130:
 152:Drivers/lvgl/src/widgets/checkbox/lv_checkbox.c ****     cb->static_txt = 1;
 1118              		.loc 1 152 5 view .LVU373
 152:Drivers/lvgl/src/widgets/checkbox/lv_checkbox.c ****     cb->static_txt = 1;
 1119              		.loc 1 152 13 is_stmt 0 view .LVU374
 1120 0004 0C4B     		ldr	r3, .L31
 1121 0006 CB62     		str	r3, [r1, #44]
 153:Drivers/lvgl/src/widgets/checkbox/lv_checkbox.c **** #else
 1122              		.loc 1 153 5 is_stmt 1 view .LVU375
 153:Drivers/lvgl/src/widgets/checkbox/lv_checkbox.c **** #else
 1123              		.loc 1 153 20 is_stmt 0 view .LVU376
 1124 0008 91F83030 		ldrb	r3, [r1, #48]	@ zero_extendqisi2
 1125 000c 43F00103 		orr	r3, r3, #1
 1126 0010 81F83030 		strb	r3, [r1, #48]
 159:Drivers/lvgl/src/widgets/checkbox/lv_checkbox.c ****     lv_obj_add_flag(obj, LV_OBJ_FLAG_CHECKABLE);
 1127              		.loc 1 159 5 is_stmt 1 view .LVU377
 1128 0014 0221     		movs	r1, #2
 1129              	.LVL131:
ARM GAS  /var/folders/qx/2_175_4n2s19vhvtspjhb3qh0000gn/T//ccirZTpW.s 			page 45


 159:Drivers/lvgl/src/widgets/checkbox/lv_checkbox.c ****     lv_obj_add_flag(obj, LV_OBJ_FLAG_CHECKABLE);
 1130              		.loc 1 159 5 is_stmt 0 view .LVU378
 1131 0016 2046     		mov	r0, r4
 1132              	.LVL132:
 159:Drivers/lvgl/src/widgets/checkbox/lv_checkbox.c ****     lv_obj_add_flag(obj, LV_OBJ_FLAG_CHECKABLE);
 1133              		.loc 1 159 5 view .LVU379
 1134 0018 FFF7FEFF 		bl	lv_obj_add_flag
 1135              	.LVL133:
 160:Drivers/lvgl/src/widgets/checkbox/lv_checkbox.c ****     lv_obj_add_flag(obj, LV_OBJ_FLAG_SCROLL_ON_FOCUS);
 1136              		.loc 1 160 5 is_stmt 1 view .LVU380
 1137 001c 0821     		movs	r1, #8
 1138 001e 2046     		mov	r0, r4
 1139 0020 FFF7FEFF 		bl	lv_obj_add_flag
 1140              	.LVL134:
 161:Drivers/lvgl/src/widgets/checkbox/lv_checkbox.c ****     lv_obj_remove_flag(obj, LV_OBJ_FLAG_SCROLLABLE);
 1141              		.loc 1 161 5 view .LVU381
 1142 0024 4FF48061 		mov	r1, #1024
 1143 0028 2046     		mov	r0, r4
 1144 002a FFF7FEFF 		bl	lv_obj_add_flag
 1145              	.LVL135:
 162:Drivers/lvgl/src/widgets/checkbox/lv_checkbox.c **** 
 1146              		.loc 1 162 5 view .LVU382
 1147 002e 1021     		movs	r1, #16
 1148 0030 2046     		mov	r0, r4
 1149 0032 FFF7FEFF 		bl	lv_obj_remove_flag
 1150              	.LVL136:
 164:Drivers/lvgl/src/widgets/checkbox/lv_checkbox.c **** }
 1151              		.loc 1 164 36 view .LVU383
 165:Drivers/lvgl/src/widgets/checkbox/lv_checkbox.c **** 
 1152              		.loc 1 165 1 is_stmt 0 view .LVU384
 1153 0036 10BD     		pop	{r4, pc}
 1154              	.LVL137:
 1155              	.L32:
 165:Drivers/lvgl/src/widgets/checkbox/lv_checkbox.c **** 
 1156              		.loc 1 165 1 view .LVU385
 1157              		.align	2
 1158              	.L31:
 1159 0038 00000000 		.word	.LC0
 1160              		.cfi_endproc
 1161              	.LFE188:
 1163              		.section	.text.lv_checkbox_create,"ax",%progbits
 1164              		.align	1
 1165              		.global	lv_checkbox_create
 1166              		.syntax unified
 1167              		.thumb
 1168              		.thumb_func
 1170              	lv_checkbox_create:
 1171              	.LVL138:
 1172              	.LFB184:
  74:Drivers/lvgl/src/widgets/checkbox/lv_checkbox.c ****     LV_LOG_INFO("begin");
 1173              		.loc 1 74 1 is_stmt 1 view -0
 1174              		.cfi_startproc
 1175              		@ args = 0, pretend = 0, frame = 0
 1176              		@ frame_needed = 0, uses_anonymous_args = 0
  74:Drivers/lvgl/src/widgets/checkbox/lv_checkbox.c ****     LV_LOG_INFO("begin");
 1177              		.loc 1 74 1 is_stmt 0 view .LVU387
 1178 0000 10B5     		push	{r4, lr}
ARM GAS  /var/folders/qx/2_175_4n2s19vhvtspjhb3qh0000gn/T//ccirZTpW.s 			page 46


 1179              	.LCFI10:
 1180              		.cfi_def_cfa_offset 8
 1181              		.cfi_offset 4, -8
 1182              		.cfi_offset 14, -4
 1183 0002 0146     		mov	r1, r0
  75:Drivers/lvgl/src/widgets/checkbox/lv_checkbox.c ****     lv_obj_t * obj = lv_obj_class_create_obj(MY_CLASS, parent);
 1184              		.loc 1 75 5 is_stmt 1 view .LVU388
  75:Drivers/lvgl/src/widgets/checkbox/lv_checkbox.c ****     lv_obj_t * obj = lv_obj_class_create_obj(MY_CLASS, parent);
 1185              		.loc 1 75 5 view .LVU389
  75:Drivers/lvgl/src/widgets/checkbox/lv_checkbox.c ****     lv_obj_t * obj = lv_obj_class_create_obj(MY_CLASS, parent);
 1186              		.loc 1 75 5 view .LVU390
  76:Drivers/lvgl/src/widgets/checkbox/lv_checkbox.c ****     lv_obj_class_init_obj(obj);
 1187              		.loc 1 76 5 view .LVU391
  76:Drivers/lvgl/src/widgets/checkbox/lv_checkbox.c ****     lv_obj_class_init_obj(obj);
 1188              		.loc 1 76 22 is_stmt 0 view .LVU392
 1189 0004 0348     		ldr	r0, .L35
 1190              	.LVL139:
  76:Drivers/lvgl/src/widgets/checkbox/lv_checkbox.c ****     lv_obj_class_init_obj(obj);
 1191              		.loc 1 76 22 view .LVU393
 1192 0006 FFF7FEFF 		bl	lv_obj_class_create_obj
 1193              	.LVL140:
  76:Drivers/lvgl/src/widgets/checkbox/lv_checkbox.c ****     lv_obj_class_init_obj(obj);
 1194              		.loc 1 76 22 view .LVU394
 1195 000a 0446     		mov	r4, r0
 1196              	.LVL141:
  77:Drivers/lvgl/src/widgets/checkbox/lv_checkbox.c ****     return obj;
 1197              		.loc 1 77 5 is_stmt 1 view .LVU395
 1198 000c FFF7FEFF 		bl	lv_obj_class_init_obj
 1199              	.LVL142:
  78:Drivers/lvgl/src/widgets/checkbox/lv_checkbox.c **** }
 1200              		.loc 1 78 5 view .LVU396
  79:Drivers/lvgl/src/widgets/checkbox/lv_checkbox.c **** 
 1201              		.loc 1 79 1 is_stmt 0 view .LVU397
 1202 0010 2046     		mov	r0, r4
 1203 0012 10BD     		pop	{r4, pc}
 1204              	.LVL143:
 1205              	.L36:
  79:Drivers/lvgl/src/widgets/checkbox/lv_checkbox.c **** 
 1206              		.loc 1 79 1 view .LVU398
 1207              		.align	2
 1208              	.L35:
 1209 0014 00000000 		.word	lv_checkbox_class
 1210              		.cfi_endproc
 1211              	.LFE184:
 1213              		.section	.text.lv_checkbox_set_text,"ax",%progbits
 1214              		.align	1
 1215              		.global	lv_checkbox_set_text
 1216              		.syntax unified
 1217              		.thumb
 1218              		.thumb_func
 1220              	lv_checkbox_set_text:
 1221              	.LVL144:
 1222              	.LFB185:
  86:Drivers/lvgl/src/widgets/checkbox/lv_checkbox.c ****     lv_checkbox_t * cb = (lv_checkbox_t *)obj;
 1223              		.loc 1 86 1 is_stmt 1 view -0
 1224              		.cfi_startproc
 1225              		@ args = 0, pretend = 0, frame = 0
ARM GAS  /var/folders/qx/2_175_4n2s19vhvtspjhb3qh0000gn/T//ccirZTpW.s 			page 47


 1226              		@ frame_needed = 0, uses_anonymous_args = 0
  86:Drivers/lvgl/src/widgets/checkbox/lv_checkbox.c ****     lv_checkbox_t * cb = (lv_checkbox_t *)obj;
 1227              		.loc 1 86 1 is_stmt 0 view .LVU400
 1228 0000 38B5     		push	{r3, r4, r5, lr}
 1229              	.LCFI11:
 1230              		.cfi_def_cfa_offset 16
 1231              		.cfi_offset 3, -16
 1232              		.cfi_offset 4, -12
 1233              		.cfi_offset 5, -8
 1234              		.cfi_offset 14, -4
 1235 0002 0446     		mov	r4, r0
  87:Drivers/lvgl/src/widgets/checkbox/lv_checkbox.c **** 
 1236              		.loc 1 87 5 is_stmt 1 view .LVU401
 1237              	.LVL145:
  89:Drivers/lvgl/src/widgets/checkbox/lv_checkbox.c ****         size_t len;
 1238              		.loc 1 89 5 view .LVU402
  89:Drivers/lvgl/src/widgets/checkbox/lv_checkbox.c ****         size_t len;
 1239              		.loc 1 89 7 is_stmt 0 view .LVU403
 1240 0004 C9B1     		cbz	r1, .L38
 1241 0006 0D46     		mov	r5, r1
 1242              	.LBB102:
  90:Drivers/lvgl/src/widgets/checkbox/lv_checkbox.c **** 
 1243              		.loc 1 90 9 is_stmt 1 view .LVU404
  95:Drivers/lvgl/src/widgets/checkbox/lv_checkbox.c **** #endif
 1244              		.loc 1 95 9 view .LVU405
  95:Drivers/lvgl/src/widgets/checkbox/lv_checkbox.c **** #endif
 1245              		.loc 1 95 15 is_stmt 0 view .LVU406
 1246 0008 0846     		mov	r0, r1
 1247              	.LVL146:
  95:Drivers/lvgl/src/widgets/checkbox/lv_checkbox.c **** #endif
 1248              		.loc 1 95 15 view .LVU407
 1249 000a FFF7FEFF 		bl	lv_strlen
 1250              	.LVL147:
  95:Drivers/lvgl/src/widgets/checkbox/lv_checkbox.c **** #endif
 1251              		.loc 1 95 13 discriminator 1 view .LVU408
 1252 000e 0130     		adds	r0, r0, #1
 1253              	.LVL148:
  98:Drivers/lvgl/src/widgets/checkbox/lv_checkbox.c ****         else cb->txt = lv_malloc(len);
 1254              		.loc 1 98 9 is_stmt 1 view .LVU409
  98:Drivers/lvgl/src/widgets/checkbox/lv_checkbox.c ****         else cb->txt = lv_malloc(len);
 1255              		.loc 1 98 12 is_stmt 0 view .LVU410
 1256 0010 94F83030 		ldrb	r3, [r4, #48]	@ zero_extendqisi2
  98:Drivers/lvgl/src/widgets/checkbox/lv_checkbox.c ****         else cb->txt = lv_malloc(len);
 1257              		.loc 1 98 11 view .LVU411
 1258 0014 13F0010F 		tst	r3, #1
 1259 0018 16D1     		bne	.L39
  98:Drivers/lvgl/src/widgets/checkbox/lv_checkbox.c ****         else cb->txt = lv_malloc(len);
 1260              		.loc 1 98 29 is_stmt 1 discriminator 1 view .LVU412
  98:Drivers/lvgl/src/widgets/checkbox/lv_checkbox.c ****         else cb->txt = lv_malloc(len);
 1261              		.loc 1 98 39 is_stmt 0 discriminator 1 view .LVU413
 1262 001a 0146     		mov	r1, r0
 1263 001c E06A     		ldr	r0, [r4, #44]
 1264              	.LVL149:
  98:Drivers/lvgl/src/widgets/checkbox/lv_checkbox.c ****         else cb->txt = lv_malloc(len);
 1265              		.loc 1 98 39 discriminator 1 view .LVU414
 1266 001e FFF7FEFF 		bl	lv_realloc
 1267              	.LVL150:
ARM GAS  /var/folders/qx/2_175_4n2s19vhvtspjhb3qh0000gn/T//ccirZTpW.s 			page 48


  98:Drivers/lvgl/src/widgets/checkbox/lv_checkbox.c ****         else cb->txt = lv_malloc(len);
 1268              		.loc 1 98 37 discriminator 1 view .LVU415
 1269 0022 E062     		str	r0, [r4, #44]
 1270              	.L40:
 101:Drivers/lvgl/src/widgets/checkbox/lv_checkbox.c ****         if(NULL == cb->txt) return;
 1271              		.loc 1 101 9 is_stmt 1 view .LVU416
 101:Drivers/lvgl/src/widgets/checkbox/lv_checkbox.c ****         if(NULL == cb->txt) return;
 1272              		.loc 1 101 9 view .LVU417
 1273 0024 E06A     		ldr	r0, [r4, #44]
 1274 0026 98B1     		cbz	r0, .L42
 101:Drivers/lvgl/src/widgets/checkbox/lv_checkbox.c ****         if(NULL == cb->txt) return;
 1275              		.loc 1 101 9 view .LVU418
 101:Drivers/lvgl/src/widgets/checkbox/lv_checkbox.c ****         if(NULL == cb->txt) return;
 1276              		.loc 1 101 34 view .LVU419
 102:Drivers/lvgl/src/widgets/checkbox/lv_checkbox.c **** 
 1277              		.loc 1 102 9 view .LVU420
 107:Drivers/lvgl/src/widgets/checkbox/lv_checkbox.c **** #endif
 1278              		.loc 1 107 9 view .LVU421
 1279 0028 2946     		mov	r1, r5
 1280 002a FFF7FEFF 		bl	lv_strcpy
 1281              	.LVL151:
 110:Drivers/lvgl/src/widgets/checkbox/lv_checkbox.c ****     }
 1282              		.loc 1 110 9 view .LVU422
 110:Drivers/lvgl/src/widgets/checkbox/lv_checkbox.c ****     }
 1283              		.loc 1 110 24 is_stmt 0 view .LVU423
 1284 002e 94F83030 		ldrb	r3, [r4, #48]	@ zero_extendqisi2
 1285 0032 23F00103 		bic	r3, r3, #1
 1286 0036 84F83030 		strb	r3, [r4, #48]
 1287              	.LVL152:
 1288              	.L38:
 110:Drivers/lvgl/src/widgets/checkbox/lv_checkbox.c ****     }
 1289              		.loc 1 110 24 view .LVU424
 1290              	.LBE102:
 113:Drivers/lvgl/src/widgets/checkbox/lv_checkbox.c ****     lv_obj_invalidate(obj);
 1291              		.loc 1 113 5 is_stmt 1 view .LVU425
 1292 003a 2046     		mov	r0, r4
 1293 003c FFF7FEFF 		bl	lv_obj_refresh_self_size
 1294              	.LVL153:
 114:Drivers/lvgl/src/widgets/checkbox/lv_checkbox.c **** }
 1295              		.loc 1 114 5 view .LVU426
 1296 0040 2046     		mov	r0, r4
 1297 0042 FFF7FEFF 		bl	lv_obj_invalidate
 1298              	.LVL154:
 115:Drivers/lvgl/src/widgets/checkbox/lv_checkbox.c **** 
 1299              		.loc 1 115 1 is_stmt 0 view .LVU427
 1300 0046 38BD     		pop	{r3, r4, r5, pc}
 1301              	.LVL155:
 1302              	.L39:
 1303              	.LBB103:
  99:Drivers/lvgl/src/widgets/checkbox/lv_checkbox.c **** 
 1304              		.loc 1 99 14 is_stmt 1 view .LVU428
  99:Drivers/lvgl/src/widgets/checkbox/lv_checkbox.c **** 
 1305              		.loc 1 99 24 is_stmt 0 view .LVU429
 1306 0048 FFF7FEFF 		bl	lv_malloc
 1307              	.LVL156:
  99:Drivers/lvgl/src/widgets/checkbox/lv_checkbox.c **** 
 1308              		.loc 1 99 22 discriminator 1 view .LVU430
ARM GAS  /var/folders/qx/2_175_4n2s19vhvtspjhb3qh0000gn/T//ccirZTpW.s 			page 49


 1309 004c E062     		str	r0, [r4, #44]
 1310 004e E9E7     		b	.L40
 1311              	.L42:
 101:Drivers/lvgl/src/widgets/checkbox/lv_checkbox.c ****         if(NULL == cb->txt) return;
 1312              		.loc 1 101 9 is_stmt 1 view .LVU431
 101:Drivers/lvgl/src/widgets/checkbox/lv_checkbox.c ****         if(NULL == cb->txt) return;
 1313              		.loc 1 101 9 view .LVU432
 101:Drivers/lvgl/src/widgets/checkbox/lv_checkbox.c ****         if(NULL == cb->txt) return;
 1314              		.loc 1 101 9 view .LVU433
 101:Drivers/lvgl/src/widgets/checkbox/lv_checkbox.c ****         if(NULL == cb->txt) return;
 1315              		.loc 1 101 9 view .LVU434
 101:Drivers/lvgl/src/widgets/checkbox/lv_checkbox.c ****         if(NULL == cb->txt) return;
 1316              		.loc 1 101 9 view .LVU435
 1317 0050 FEE7     		b	.L42
 1318              	.LBE103:
 1319              		.cfi_endproc
 1320              	.LFE185:
 1322              		.section	.text.lv_checkbox_set_text_static,"ax",%progbits
 1323              		.align	1
 1324              		.global	lv_checkbox_set_text_static
 1325              		.syntax unified
 1326              		.thumb
 1327              		.thumb_func
 1329              	lv_checkbox_set_text_static:
 1330              	.LVL157:
 1331              	.LFB186:
 118:Drivers/lvgl/src/widgets/checkbox/lv_checkbox.c ****     lv_checkbox_t * cb = (lv_checkbox_t *)obj;
 1332              		.loc 1 118 1 view -0
 1333              		.cfi_startproc
 1334              		@ args = 0, pretend = 0, frame = 0
 1335              		@ frame_needed = 0, uses_anonymous_args = 0
 118:Drivers/lvgl/src/widgets/checkbox/lv_checkbox.c ****     lv_checkbox_t * cb = (lv_checkbox_t *)obj;
 1336              		.loc 1 118 1 is_stmt 0 view .LVU437
 1337 0000 38B5     		push	{r3, r4, r5, lr}
 1338              	.LCFI12:
 1339              		.cfi_def_cfa_offset 16
 1340              		.cfi_offset 3, -16
 1341              		.cfi_offset 4, -12
 1342              		.cfi_offset 5, -8
 1343              		.cfi_offset 14, -4
 1344 0002 0446     		mov	r4, r0
 1345 0004 0D46     		mov	r5, r1
 119:Drivers/lvgl/src/widgets/checkbox/lv_checkbox.c **** 
 1346              		.loc 1 119 5 is_stmt 1 view .LVU438
 1347              	.LVL158:
 121:Drivers/lvgl/src/widgets/checkbox/lv_checkbox.c **** 
 1348              		.loc 1 121 5 view .LVU439
 121:Drivers/lvgl/src/widgets/checkbox/lv_checkbox.c **** 
 1349              		.loc 1 121 8 is_stmt 0 view .LVU440
 1350 0006 90F83030 		ldrb	r3, [r0, #48]	@ zero_extendqisi2
 121:Drivers/lvgl/src/widgets/checkbox/lv_checkbox.c **** 
 1351              		.loc 1 121 7 view .LVU441
 1352 000a 13F0010F 		tst	r3, #1
 1353 000e 0DD0     		beq	.L47
 1354              	.LVL159:
 1355              	.L45:
 123:Drivers/lvgl/src/widgets/checkbox/lv_checkbox.c ****     cb->static_txt = 1;
ARM GAS  /var/folders/qx/2_175_4n2s19vhvtspjhb3qh0000gn/T//ccirZTpW.s 			page 50


 1356              		.loc 1 123 5 is_stmt 1 view .LVU442
 123:Drivers/lvgl/src/widgets/checkbox/lv_checkbox.c ****     cb->static_txt = 1;
 1357              		.loc 1 123 13 is_stmt 0 view .LVU443
 1358 0010 E562     		str	r5, [r4, #44]
 124:Drivers/lvgl/src/widgets/checkbox/lv_checkbox.c **** 
 1359              		.loc 1 124 5 is_stmt 1 view .LVU444
 124:Drivers/lvgl/src/widgets/checkbox/lv_checkbox.c **** 
 1360              		.loc 1 124 20 is_stmt 0 view .LVU445
 1361 0012 94F83030 		ldrb	r3, [r4, #48]	@ zero_extendqisi2
 1362 0016 43F00103 		orr	r3, r3, #1
 1363 001a 84F83030 		strb	r3, [r4, #48]
 126:Drivers/lvgl/src/widgets/checkbox/lv_checkbox.c ****     lv_obj_invalidate(obj);
 1364              		.loc 1 126 5 is_stmt 1 view .LVU446
 1365 001e 2046     		mov	r0, r4
 1366 0020 FFF7FEFF 		bl	lv_obj_refresh_self_size
 1367              	.LVL160:
 127:Drivers/lvgl/src/widgets/checkbox/lv_checkbox.c **** }
 1368              		.loc 1 127 5 view .LVU447
 1369 0024 2046     		mov	r0, r4
 1370 0026 FFF7FEFF 		bl	lv_obj_invalidate
 1371              	.LVL161:
 128:Drivers/lvgl/src/widgets/checkbox/lv_checkbox.c **** 
 1372              		.loc 1 128 1 is_stmt 0 view .LVU448
 1373 002a 38BD     		pop	{r3, r4, r5, pc}
 1374              	.LVL162:
 1375              	.L47:
 121:Drivers/lvgl/src/widgets/checkbox/lv_checkbox.c **** 
 1376              		.loc 1 121 25 is_stmt 1 discriminator 1 view .LVU449
 1377 002c C06A     		ldr	r0, [r0, #44]
 1378              	.LVL163:
 121:Drivers/lvgl/src/widgets/checkbox/lv_checkbox.c **** 
 1379              		.loc 1 121 25 is_stmt 0 discriminator 1 view .LVU450
 1380 002e FFF7FEFF 		bl	lv_free
 1381              	.LVL164:
 121:Drivers/lvgl/src/widgets/checkbox/lv_checkbox.c **** 
 1382              		.loc 1 121 25 discriminator 1 view .LVU451
 1383 0032 EDE7     		b	.L45
 1384              		.cfi_endproc
 1385              	.LFE186:
 1387              		.section	.text.lv_checkbox_get_text,"ax",%progbits
 1388              		.align	1
 1389              		.global	lv_checkbox_get_text
 1390              		.syntax unified
 1391              		.thumb
 1392              		.thumb_func
 1394              	lv_checkbox_get_text:
 1395              	.LVL165:
 1396              	.LFB187:
 135:Drivers/lvgl/src/widgets/checkbox/lv_checkbox.c ****     lv_checkbox_t * cb = (lv_checkbox_t *)obj;
 1397              		.loc 1 135 1 is_stmt 1 view -0
 1398              		.cfi_startproc
 1399              		@ args = 0, pretend = 0, frame = 0
 1400              		@ frame_needed = 0, uses_anonymous_args = 0
 1401              		@ link register save eliminated.
 136:Drivers/lvgl/src/widgets/checkbox/lv_checkbox.c ****     return cb->txt;
 1402              		.loc 1 136 5 view .LVU453
 137:Drivers/lvgl/src/widgets/checkbox/lv_checkbox.c **** }
ARM GAS  /var/folders/qx/2_175_4n2s19vhvtspjhb3qh0000gn/T//ccirZTpW.s 			page 51


 1403              		.loc 1 137 5 view .LVU454
 138:Drivers/lvgl/src/widgets/checkbox/lv_checkbox.c **** 
 1404              		.loc 1 138 1 is_stmt 0 view .LVU455
 1405 0000 C06A     		ldr	r0, [r0, #44]
 1406              	.LVL166:
 138:Drivers/lvgl/src/widgets/checkbox/lv_checkbox.c **** 
 1407              		.loc 1 138 1 view .LVU456
 1408 0002 7047     		bx	lr
 1409              		.cfi_endproc
 1410              	.LFE187:
 1412              		.global	lv_checkbox_class
 1413              		.section	.rodata.str1.4,"aMS",%progbits,1
 1414              		.align	2
 1415              	.LC1:
 1416 0000 6C765F63 		.ascii	"lv_checkbox\000"
 1416      6865636B 
 1416      626F7800 
 1417              		.section	.rodata.lv_checkbox_class,"a"
 1418              		.align	2
 1421              	lv_checkbox_class:
 1422 0000 00000000 		.word	lv_obj_class
 1423 0004 00000000 		.word	lv_checkbox_constructor
 1424 0008 00000000 		.word	lv_checkbox_destructor
 1425 000c 00000000 		.word	lv_checkbox_event
 1426 0010 00000000 		.space	4
 1427 0014 00000000 		.word	.LC1
 1428 0018 FFFFFF3F 		.word	1073741823
 1429 001c FFFFFF3F 		.word	1073741823
 1430 0020 44       		.byte	68
 1431 0021 03       		.byte	3
 1432 0022 00       		.byte	0
 1433 0023 00       		.space	1
 1434              		.text
 1435              	.Letext0:
 1436              		.file 4 "/Applications/ArmGNUToolchain/14.3.rel1/arm-none-eabi/arm-none-eabi/include/machine/_defa
 1437              		.file 5 "/Applications/ArmGNUToolchain/14.3.rel1/arm-none-eabi/arm-none-eabi/include/sys/_stdint.h
 1438              		.file 6 "/Applications/ArmGNUToolchain/14.3.rel1/arm-none-eabi/lib/gcc/arm-none-eabi/14.3.1/includ
 1439              		.file 7 "Drivers/lvgl/src/widgets/checkbox/../../core/../misc/lv_types.h"
 1440              		.file 8 "Drivers/lvgl/src/widgets/checkbox/../../core/lv_obj_private.h"
 1441              		.file 9 "Drivers/lvgl/src/widgets/checkbox/../../core/lv_obj_class_private.h"
 1442              		.file 10 "Drivers/lvgl/src/widgets/checkbox/../../core/../draw/lv_draw.h"
 1443              		.file 11 "Drivers/lvgl/src/widgets/checkbox/../../core/../misc/../font/lv_font.h"
 1444              		.file 12 "Drivers/lvgl/src/widgets/checkbox/lv_checkbox_private.h"
 1445              		.file 13 "Drivers/lvgl/src/widgets/checkbox/../../core/../display/../misc/lv_array.h"
 1446              		.file 14 "Drivers/lvgl/src/widgets/checkbox/../../core/../misc/../font/../draw/lv_draw_buf.h"
 1447              		.file 15 "Drivers/lvgl/src/widgets/checkbox/../../core/../misc/../font/../draw/../misc/lv_color.h"
 1448              		.file 16 "Drivers/lvgl/src/widgets/checkbox/../../core/../misc/../font/../draw/lv_image_dsc.h"
 1449              		.file 17 "Drivers/lvgl/src/widgets/checkbox/../../core/../misc/lv_text.h"
 1450              		.file 18 "Drivers/lvgl/src/widgets/checkbox/../../core/../misc/lv_bidi.h"
 1451              		.file 19 "Drivers/lvgl/src/widgets/checkbox/../../core/../misc/lv_grad.h"
 1452              		.file 20 "Drivers/lvgl/src/widgets/checkbox/../../core/../misc/lv_style.h"
 1453              		.file 21 "Drivers/lvgl/src/widgets/checkbox/../../core/../display/../misc/lv_event.h"
 1454              		.file 22 "Drivers/lvgl/src/widgets/checkbox/../../core/lv_obj_style.h"
 1455              		.file 23 "Drivers/lvgl/src/widgets/checkbox/../../core/../draw/lv_draw_rect.h"
 1456              		.file 24 "Drivers/lvgl/src/widgets/checkbox/../../core/../draw/lv_draw_label.h"
 1457              		.file 25 "Drivers/lvgl/src/widgets/checkbox/../../core/lv_obj_class.h"
 1458              		.file 26 "Drivers/lvgl/src/widgets/checkbox/../../core/../indev/lv_indev.h"
ARM GAS  /var/folders/qx/2_175_4n2s19vhvtspjhb3qh0000gn/T//ccirZTpW.s 			page 52


 1459              		.file 27 "Drivers/lvgl/src/widgets/checkbox/../../core/lv_obj.h"
 1460              		.file 28 "Drivers/lvgl/src/widgets/checkbox/lv_checkbox.h"
 1461              		.file 29 "Drivers/lvgl/src/widgets/checkbox/../../misc/lv_text_private.h"
 1462              		.file 30 "Drivers/lvgl/src/widgets/checkbox/../../core/lv_obj_pos.h"
 1463              		.file 31 "Drivers/lvgl/src/widgets/checkbox/../../core/../misc/../font/../draw/../misc/../stdlib/l
 1464              		.file 32 "Drivers/lvgl/src/widgets/checkbox/../../core/../misc/../font/../draw/../misc/../stdlib/l
 1465              		.file 33 "Drivers/lvgl/src/widgets/checkbox/../../core/lv_obj_draw.h"
 1466              		.file 34 "Drivers/lvgl/src/widgets/checkbox/../../core/lv_obj_event.h"
ARM GAS  /var/folders/qx/2_175_4n2s19vhvtspjhb3qh0000gn/T//ccirZTpW.s 			page 53

