ARM GAS  /var/folders/qx/2_175_4n2s19vhvtspjhb3qh0000gn/T//ccioUrKE.s 			page 1


   1              		.cpu cortex-m4
   2              		.arch armv7e-m
   3              		.fpu fpv4-sp-d16
   4              		.eabi_attribute 27, 1
   5              		.eabi_attribute 28, 1
   6              		.eabi_attribute 20, 1
   7              		.eabi_attribute 21, 1
   8              		.eabi_attribute 23, 3
   9              		.eabi_attribute 24, 1
  10              		.eabi_attribute 25, 1
  11              		.eabi_attribute 26, 1
  12              		.eabi_attribute 30, 1
  13              		.eabi_attribute 34, 1
  14              		.eabi_attribute 18, 4
  15              		.file	"lv_draw_sw_box_shadow.c"
  16              		.text
  17              	.Ltext0:
  18              		.cfi_sections	.debug_frame
  19              		.file 1 "Drivers/lvgl/src/draw/sw/lv_draw_sw_box_shadow.c"
  20              		.section	.text.shadow_blur_corner,"ax",%progbits
  21              		.align	1
  22              		.syntax unified
  23              		.thumb
  24              		.thumb_func
  26              	shadow_blur_corner:
  27              	.LVL0:
  28              	.LFB195:
   1:Drivers/lvgl/src/draw/sw/lv_draw_sw_box_shadow.c **** /**
   2:Drivers/lvgl/src/draw/sw/lv_draw_sw_box_shadow.c ****  * @file lv_draw_sw_box_shadow.c
   3:Drivers/lvgl/src/draw/sw/lv_draw_sw_box_shadow.c ****  *
   4:Drivers/lvgl/src/draw/sw/lv_draw_sw_box_shadow.c ****  */
   5:Drivers/lvgl/src/draw/sw/lv_draw_sw_box_shadow.c **** 
   6:Drivers/lvgl/src/draw/sw/lv_draw_sw_box_shadow.c **** /*********************
   7:Drivers/lvgl/src/draw/sw/lv_draw_sw_box_shadow.c ****  *      INCLUDES
   8:Drivers/lvgl/src/draw/sw/lv_draw_sw_box_shadow.c ****  *********************/
   9:Drivers/lvgl/src/draw/sw/lv_draw_sw_box_shadow.c **** #include "../../misc/lv_area_private.h"
  10:Drivers/lvgl/src/draw/sw/lv_draw_sw_box_shadow.c **** #include "lv_draw_sw_mask_private.h"
  11:Drivers/lvgl/src/draw/sw/lv_draw_sw_box_shadow.c **** #include "../lv_draw_private.h"
  12:Drivers/lvgl/src/draw/sw/lv_draw_sw_box_shadow.c **** #include "lv_draw_sw.h"
  13:Drivers/lvgl/src/draw/sw/lv_draw_sw_box_shadow.c **** #if LV_USE_DRAW_SW
  14:Drivers/lvgl/src/draw/sw/lv_draw_sw_box_shadow.c **** 
  15:Drivers/lvgl/src/draw/sw/lv_draw_sw_box_shadow.c **** #if LV_DRAW_SW_COMPLEX
  16:Drivers/lvgl/src/draw/sw/lv_draw_sw_box_shadow.c **** 
  17:Drivers/lvgl/src/draw/sw/lv_draw_sw_box_shadow.c **** #include "blend/lv_draw_sw_blend_private.h"
  18:Drivers/lvgl/src/draw/sw/lv_draw_sw_box_shadow.c **** #include "../../core/lv_global.h"
  19:Drivers/lvgl/src/draw/sw/lv_draw_sw_box_shadow.c **** #include "../../misc/lv_math.h"
  20:Drivers/lvgl/src/draw/sw/lv_draw_sw_box_shadow.c **** #include "../../core/lv_refr.h"
  21:Drivers/lvgl/src/draw/sw/lv_draw_sw_box_shadow.c **** #include "../../misc/lv_assert.h"
  22:Drivers/lvgl/src/draw/sw/lv_draw_sw_box_shadow.c **** #include "../../stdlib/lv_string.h"
  23:Drivers/lvgl/src/draw/sw/lv_draw_sw_box_shadow.c **** #include "../lv_draw_mask.h"
  24:Drivers/lvgl/src/draw/sw/lv_draw_sw_box_shadow.c **** 
  25:Drivers/lvgl/src/draw/sw/lv_draw_sw_box_shadow.c **** /*********************
  26:Drivers/lvgl/src/draw/sw/lv_draw_sw_box_shadow.c ****  *      DEFINES
  27:Drivers/lvgl/src/draw/sw/lv_draw_sw_box_shadow.c ****  *********************/
  28:Drivers/lvgl/src/draw/sw/lv_draw_sw_box_shadow.c **** #define SHADOW_UPSCALE_SHIFT    6
  29:Drivers/lvgl/src/draw/sw/lv_draw_sw_box_shadow.c **** #define SHADOW_ENHANCE          1
  30:Drivers/lvgl/src/draw/sw/lv_draw_sw_box_shadow.c **** 
ARM GAS  /var/folders/qx/2_175_4n2s19vhvtspjhb3qh0000gn/T//ccioUrKE.s 			page 2


  31:Drivers/lvgl/src/draw/sw/lv_draw_sw_box_shadow.c **** #if defined(LV_DRAW_SW_SHADOW_CACHE_SIZE) && LV_DRAW_SW_SHADOW_CACHE_SIZE > 0
  32:Drivers/lvgl/src/draw/sw/lv_draw_sw_box_shadow.c ****     #define shadow_cache LV_GLOBAL_DEFAULT()->sw_shadow_cache
  33:Drivers/lvgl/src/draw/sw/lv_draw_sw_box_shadow.c **** #endif
  34:Drivers/lvgl/src/draw/sw/lv_draw_sw_box_shadow.c **** 
  35:Drivers/lvgl/src/draw/sw/lv_draw_sw_box_shadow.c **** /**********************
  36:Drivers/lvgl/src/draw/sw/lv_draw_sw_box_shadow.c ****  *      TYPEDEFS
  37:Drivers/lvgl/src/draw/sw/lv_draw_sw_box_shadow.c ****  **********************/
  38:Drivers/lvgl/src/draw/sw/lv_draw_sw_box_shadow.c **** 
  39:Drivers/lvgl/src/draw/sw/lv_draw_sw_box_shadow.c **** /**********************
  40:Drivers/lvgl/src/draw/sw/lv_draw_sw_box_shadow.c ****  *  STATIC PROTOTYPES
  41:Drivers/lvgl/src/draw/sw/lv_draw_sw_box_shadow.c ****  **********************/
  42:Drivers/lvgl/src/draw/sw/lv_draw_sw_box_shadow.c **** static void /* LV_ATTRIBUTE_FAST_MEM */ shadow_draw_corner_buf(const lv_area_t * coords, uint16_t *
  43:Drivers/lvgl/src/draw/sw/lv_draw_sw_box_shadow.c ****                                                                int32_t r);
  44:Drivers/lvgl/src/draw/sw/lv_draw_sw_box_shadow.c **** static void /* LV_ATTRIBUTE_FAST_MEM */ shadow_blur_corner(int32_t size, int32_t sw, uint16_t * sh_
  45:Drivers/lvgl/src/draw/sw/lv_draw_sw_box_shadow.c **** 
  46:Drivers/lvgl/src/draw/sw/lv_draw_sw_box_shadow.c **** /**********************
  47:Drivers/lvgl/src/draw/sw/lv_draw_sw_box_shadow.c ****  *  STATIC VARIABLES
  48:Drivers/lvgl/src/draw/sw/lv_draw_sw_box_shadow.c ****  **********************/
  49:Drivers/lvgl/src/draw/sw/lv_draw_sw_box_shadow.c **** 
  50:Drivers/lvgl/src/draw/sw/lv_draw_sw_box_shadow.c **** /**********************
  51:Drivers/lvgl/src/draw/sw/lv_draw_sw_box_shadow.c ****  *      MACROS
  52:Drivers/lvgl/src/draw/sw/lv_draw_sw_box_shadow.c ****  **********************/
  53:Drivers/lvgl/src/draw/sw/lv_draw_sw_box_shadow.c **** 
  54:Drivers/lvgl/src/draw/sw/lv_draw_sw_box_shadow.c **** /**********************
  55:Drivers/lvgl/src/draw/sw/lv_draw_sw_box_shadow.c ****  *   GLOBAL FUNCTIONS
  56:Drivers/lvgl/src/draw/sw/lv_draw_sw_box_shadow.c ****  **********************/
  57:Drivers/lvgl/src/draw/sw/lv_draw_sw_box_shadow.c **** 
  58:Drivers/lvgl/src/draw/sw/lv_draw_sw_box_shadow.c **** void lv_draw_sw_box_shadow(lv_draw_task_t * t, const lv_draw_box_shadow_dsc_t * dsc, const lv_area_
  59:Drivers/lvgl/src/draw/sw/lv_draw_sw_box_shadow.c **** {
  60:Drivers/lvgl/src/draw/sw/lv_draw_sw_box_shadow.c ****     /*Calculate the rectangle which is blurred to get the shadow in `shadow_area`*/
  61:Drivers/lvgl/src/draw/sw/lv_draw_sw_box_shadow.c ****     lv_area_t core_area;
  62:Drivers/lvgl/src/draw/sw/lv_draw_sw_box_shadow.c ****     core_area.x1 = coords->x1  + dsc->ofs_x - dsc->spread;
  63:Drivers/lvgl/src/draw/sw/lv_draw_sw_box_shadow.c ****     core_area.x2 = coords->x2  + dsc->ofs_x + dsc->spread;
  64:Drivers/lvgl/src/draw/sw/lv_draw_sw_box_shadow.c ****     core_area.y1 = coords->y1  + dsc->ofs_y - dsc->spread;
  65:Drivers/lvgl/src/draw/sw/lv_draw_sw_box_shadow.c ****     core_area.y2 = coords->y2  + dsc->ofs_y + dsc->spread;
  66:Drivers/lvgl/src/draw/sw/lv_draw_sw_box_shadow.c **** 
  67:Drivers/lvgl/src/draw/sw/lv_draw_sw_box_shadow.c ****     /*Calculate the bounding box of the shadow*/
  68:Drivers/lvgl/src/draw/sw/lv_draw_sw_box_shadow.c ****     lv_area_t shadow_area;
  69:Drivers/lvgl/src/draw/sw/lv_draw_sw_box_shadow.c ****     shadow_area.x1 = core_area.x1 - dsc->width / 2 - 1;
  70:Drivers/lvgl/src/draw/sw/lv_draw_sw_box_shadow.c ****     shadow_area.x2 = core_area.x2 + dsc->width / 2 + 1;
  71:Drivers/lvgl/src/draw/sw/lv_draw_sw_box_shadow.c ****     shadow_area.y1 = core_area.y1 - dsc->width / 2 - 1;
  72:Drivers/lvgl/src/draw/sw/lv_draw_sw_box_shadow.c ****     shadow_area.y2 = core_area.y2 + dsc->width / 2 + 1;
  73:Drivers/lvgl/src/draw/sw/lv_draw_sw_box_shadow.c **** 
  74:Drivers/lvgl/src/draw/sw/lv_draw_sw_box_shadow.c ****     lv_opa_t opa = dsc->opa;
  75:Drivers/lvgl/src/draw/sw/lv_draw_sw_box_shadow.c ****     if(opa > LV_OPA_MAX) opa = LV_OPA_COVER;
  76:Drivers/lvgl/src/draw/sw/lv_draw_sw_box_shadow.c **** 
  77:Drivers/lvgl/src/draw/sw/lv_draw_sw_box_shadow.c ****     /*Get clipped draw area which is the real draw area.
  78:Drivers/lvgl/src/draw/sw/lv_draw_sw_box_shadow.c ****      *It is always the same or inside `shadow_area`*/
  79:Drivers/lvgl/src/draw/sw/lv_draw_sw_box_shadow.c ****     lv_area_t draw_area;
  80:Drivers/lvgl/src/draw/sw/lv_draw_sw_box_shadow.c ****     if(!lv_area_intersect(&draw_area, &shadow_area, &t->clip_area)) return;
  81:Drivers/lvgl/src/draw/sw/lv_draw_sw_box_shadow.c **** 
  82:Drivers/lvgl/src/draw/sw/lv_draw_sw_box_shadow.c ****     /*Consider 1 px smaller bg to be sure the edge will be covered by the shadow*/
  83:Drivers/lvgl/src/draw/sw/lv_draw_sw_box_shadow.c ****     lv_area_t bg_area;
  84:Drivers/lvgl/src/draw/sw/lv_draw_sw_box_shadow.c ****     lv_area_copy(&bg_area, coords);
  85:Drivers/lvgl/src/draw/sw/lv_draw_sw_box_shadow.c ****     lv_area_increase(&bg_area, -1, -1);
  86:Drivers/lvgl/src/draw/sw/lv_draw_sw_box_shadow.c **** 
  87:Drivers/lvgl/src/draw/sw/lv_draw_sw_box_shadow.c ****     /*Get the clamped radius*/
ARM GAS  /var/folders/qx/2_175_4n2s19vhvtspjhb3qh0000gn/T//ccioUrKE.s 			page 3


  88:Drivers/lvgl/src/draw/sw/lv_draw_sw_box_shadow.c ****     int32_t r_bg = dsc->radius;
  89:Drivers/lvgl/src/draw/sw/lv_draw_sw_box_shadow.c ****     int32_t short_side = LV_MIN(lv_area_get_width(&bg_area), lv_area_get_height(&bg_area));
  90:Drivers/lvgl/src/draw/sw/lv_draw_sw_box_shadow.c ****     if(r_bg > short_side >> 1) r_bg = short_side >> 1;
  91:Drivers/lvgl/src/draw/sw/lv_draw_sw_box_shadow.c **** 
  92:Drivers/lvgl/src/draw/sw/lv_draw_sw_box_shadow.c ****     /*Get the clamped radius*/
  93:Drivers/lvgl/src/draw/sw/lv_draw_sw_box_shadow.c ****     int32_t r_sh = dsc->radius;
  94:Drivers/lvgl/src/draw/sw/lv_draw_sw_box_shadow.c ****     short_side = LV_MIN(lv_area_get_width(&core_area), lv_area_get_height(&core_area));
  95:Drivers/lvgl/src/draw/sw/lv_draw_sw_box_shadow.c ****     if(r_sh > short_side >> 1) r_sh = short_side >> 1;
  96:Drivers/lvgl/src/draw/sw/lv_draw_sw_box_shadow.c **** 
  97:Drivers/lvgl/src/draw/sw/lv_draw_sw_box_shadow.c ****     /*Get how many pixels are affected by the blur on the corners*/
  98:Drivers/lvgl/src/draw/sw/lv_draw_sw_box_shadow.c ****     int32_t corner_size = dsc->width  + r_sh;
  99:Drivers/lvgl/src/draw/sw/lv_draw_sw_box_shadow.c **** 
 100:Drivers/lvgl/src/draw/sw/lv_draw_sw_box_shadow.c ****     lv_opa_t * sh_buf;
 101:Drivers/lvgl/src/draw/sw/lv_draw_sw_box_shadow.c **** 
 102:Drivers/lvgl/src/draw/sw/lv_draw_sw_box_shadow.c **** #if LV_DRAW_SW_SHADOW_CACHE_SIZE
 103:Drivers/lvgl/src/draw/sw/lv_draw_sw_box_shadow.c ****     lv_draw_sw_shadow_cache_t * cache = &shadow_cache;
 104:Drivers/lvgl/src/draw/sw/lv_draw_sw_box_shadow.c ****     if(cache->cache_size == corner_size && cache->cache_r == r_sh) {
 105:Drivers/lvgl/src/draw/sw/lv_draw_sw_box_shadow.c ****         /*Use the cache if available*/
 106:Drivers/lvgl/src/draw/sw/lv_draw_sw_box_shadow.c ****         sh_buf = lv_malloc(corner_size * corner_size);
 107:Drivers/lvgl/src/draw/sw/lv_draw_sw_box_shadow.c ****         LV_ASSERT_MALLOC(sh_buf);
 108:Drivers/lvgl/src/draw/sw/lv_draw_sw_box_shadow.c ****         lv_memcpy(sh_buf, cache->cache, corner_size * corner_size);
 109:Drivers/lvgl/src/draw/sw/lv_draw_sw_box_shadow.c ****     }
 110:Drivers/lvgl/src/draw/sw/lv_draw_sw_box_shadow.c ****     else {
 111:Drivers/lvgl/src/draw/sw/lv_draw_sw_box_shadow.c ****         /*A larger buffer is required for calculation*/
 112:Drivers/lvgl/src/draw/sw/lv_draw_sw_box_shadow.c ****         sh_buf = lv_malloc(corner_size * corner_size * sizeof(uint16_t));
 113:Drivers/lvgl/src/draw/sw/lv_draw_sw_box_shadow.c ****         LV_ASSERT_MALLOC(sh_buf);
 114:Drivers/lvgl/src/draw/sw/lv_draw_sw_box_shadow.c ****         shadow_draw_corner_buf(&core_area, (uint16_t *)sh_buf, dsc->width, r_sh);
 115:Drivers/lvgl/src/draw/sw/lv_draw_sw_box_shadow.c **** 
 116:Drivers/lvgl/src/draw/sw/lv_draw_sw_box_shadow.c ****         /*Cache the corner if it fits into the cache size*/
 117:Drivers/lvgl/src/draw/sw/lv_draw_sw_box_shadow.c ****         if((uint32_t)corner_size * corner_size < sizeof(cache->cache)) {
 118:Drivers/lvgl/src/draw/sw/lv_draw_sw_box_shadow.c ****             lv_memcpy(cache->cache, sh_buf, corner_size * corner_size);
 119:Drivers/lvgl/src/draw/sw/lv_draw_sw_box_shadow.c ****             cache->cache_size = corner_size;
 120:Drivers/lvgl/src/draw/sw/lv_draw_sw_box_shadow.c ****             cache->cache_r = r_sh;
 121:Drivers/lvgl/src/draw/sw/lv_draw_sw_box_shadow.c ****         }
 122:Drivers/lvgl/src/draw/sw/lv_draw_sw_box_shadow.c ****     }
 123:Drivers/lvgl/src/draw/sw/lv_draw_sw_box_shadow.c **** #else
 124:Drivers/lvgl/src/draw/sw/lv_draw_sw_box_shadow.c ****     sh_buf = lv_malloc(corner_size * corner_size * sizeof(uint16_t));
 125:Drivers/lvgl/src/draw/sw/lv_draw_sw_box_shadow.c ****     LV_ASSERT_MALLOC(sh_buf);
 126:Drivers/lvgl/src/draw/sw/lv_draw_sw_box_shadow.c ****     shadow_draw_corner_buf(&core_area, (uint16_t *)sh_buf, dsc->width, r_sh);
 127:Drivers/lvgl/src/draw/sw/lv_draw_sw_box_shadow.c **** #endif /*LV_DRAW_SW_SHADOW_CACHE_SIZE*/
 128:Drivers/lvgl/src/draw/sw/lv_draw_sw_box_shadow.c **** 
 129:Drivers/lvgl/src/draw/sw/lv_draw_sw_box_shadow.c ****     /*Skip a lot of masking if the background will cover the shadow that would be masked out*/
 130:Drivers/lvgl/src/draw/sw/lv_draw_sw_box_shadow.c ****     bool simple = dsc->bg_cover;
 131:Drivers/lvgl/src/draw/sw/lv_draw_sw_box_shadow.c **** 
 132:Drivers/lvgl/src/draw/sw/lv_draw_sw_box_shadow.c ****     /*Create a radius mask to clip remove shadow on the bg area*/
 133:Drivers/lvgl/src/draw/sw/lv_draw_sw_box_shadow.c **** 
 134:Drivers/lvgl/src/draw/sw/lv_draw_sw_box_shadow.c ****     lv_draw_sw_mask_radius_param_t mask_rout_param;
 135:Drivers/lvgl/src/draw/sw/lv_draw_sw_box_shadow.c ****     void * masks[2] = {0};
 136:Drivers/lvgl/src/draw/sw/lv_draw_sw_box_shadow.c ****     if(!simple) {
 137:Drivers/lvgl/src/draw/sw/lv_draw_sw_box_shadow.c ****         lv_draw_sw_mask_radius_init(&mask_rout_param, &bg_area, r_bg, true);
 138:Drivers/lvgl/src/draw/sw/lv_draw_sw_box_shadow.c ****         masks[0] = &mask_rout_param;
 139:Drivers/lvgl/src/draw/sw/lv_draw_sw_box_shadow.c ****     }
 140:Drivers/lvgl/src/draw/sw/lv_draw_sw_box_shadow.c **** 
 141:Drivers/lvgl/src/draw/sw/lv_draw_sw_box_shadow.c ****     lv_opa_t * mask_buf = lv_malloc(lv_area_get_width(&shadow_area));
 142:Drivers/lvgl/src/draw/sw/lv_draw_sw_box_shadow.c ****     lv_area_t blend_area;
 143:Drivers/lvgl/src/draw/sw/lv_draw_sw_box_shadow.c ****     lv_area_t clip_area_sub;
 144:Drivers/lvgl/src/draw/sw/lv_draw_sw_box_shadow.c ****     lv_opa_t * sh_buf_tmp;
ARM GAS  /var/folders/qx/2_175_4n2s19vhvtspjhb3qh0000gn/T//ccioUrKE.s 			page 4


 145:Drivers/lvgl/src/draw/sw/lv_draw_sw_box_shadow.c ****     int32_t y;
 146:Drivers/lvgl/src/draw/sw/lv_draw_sw_box_shadow.c ****     bool simple_sub;
 147:Drivers/lvgl/src/draw/sw/lv_draw_sw_box_shadow.c **** 
 148:Drivers/lvgl/src/draw/sw/lv_draw_sw_box_shadow.c ****     lv_draw_sw_blend_dsc_t blend_dsc;
 149:Drivers/lvgl/src/draw/sw/lv_draw_sw_box_shadow.c ****     lv_memzero(&blend_dsc, sizeof(blend_dsc));
 150:Drivers/lvgl/src/draw/sw/lv_draw_sw_box_shadow.c ****     blend_dsc.blend_area = &blend_area;
 151:Drivers/lvgl/src/draw/sw/lv_draw_sw_box_shadow.c ****     blend_dsc.mask_area = &blend_area;
 152:Drivers/lvgl/src/draw/sw/lv_draw_sw_box_shadow.c ****     blend_dsc.mask_buf = mask_buf;
 153:Drivers/lvgl/src/draw/sw/lv_draw_sw_box_shadow.c ****     blend_dsc.color = dsc->color;
 154:Drivers/lvgl/src/draw/sw/lv_draw_sw_box_shadow.c ****     blend_dsc.opa = dsc->opa;
 155:Drivers/lvgl/src/draw/sw/lv_draw_sw_box_shadow.c **** 
 156:Drivers/lvgl/src/draw/sw/lv_draw_sw_box_shadow.c ****     int32_t w_half = shadow_area.x1 + lv_area_get_width(&shadow_area) / 2;
 157:Drivers/lvgl/src/draw/sw/lv_draw_sw_box_shadow.c ****     int32_t h_half = shadow_area.y1 + lv_area_get_height(&shadow_area) / 2;
 158:Drivers/lvgl/src/draw/sw/lv_draw_sw_box_shadow.c **** 
 159:Drivers/lvgl/src/draw/sw/lv_draw_sw_box_shadow.c ****     /*Draw the corners if they are on the current clip area and not fully covered by the bg*/
 160:Drivers/lvgl/src/draw/sw/lv_draw_sw_box_shadow.c **** 
 161:Drivers/lvgl/src/draw/sw/lv_draw_sw_box_shadow.c ****     /*Top right corner*/
 162:Drivers/lvgl/src/draw/sw/lv_draw_sw_box_shadow.c ****     blend_area.x2 = shadow_area.x2;
 163:Drivers/lvgl/src/draw/sw/lv_draw_sw_box_shadow.c ****     blend_area.x1 = shadow_area.x2 - corner_size + 1;
 164:Drivers/lvgl/src/draw/sw/lv_draw_sw_box_shadow.c ****     blend_area.y1 = shadow_area.y1;
 165:Drivers/lvgl/src/draw/sw/lv_draw_sw_box_shadow.c ****     blend_area.y2 = shadow_area.y1 + corner_size - 1;
 166:Drivers/lvgl/src/draw/sw/lv_draw_sw_box_shadow.c ****     /*Do not overdraw the other top corners*/
 167:Drivers/lvgl/src/draw/sw/lv_draw_sw_box_shadow.c ****     blend_area.x1 = LV_MAX(blend_area.x1, w_half);
 168:Drivers/lvgl/src/draw/sw/lv_draw_sw_box_shadow.c ****     blend_area.y2 = LV_MIN(blend_area.y2, h_half);
 169:Drivers/lvgl/src/draw/sw/lv_draw_sw_box_shadow.c **** 
 170:Drivers/lvgl/src/draw/sw/lv_draw_sw_box_shadow.c ****     if(lv_area_intersect(&clip_area_sub, &blend_area, &t->clip_area) &&
 171:Drivers/lvgl/src/draw/sw/lv_draw_sw_box_shadow.c ****        !lv_area_is_in(&clip_area_sub, &bg_area, r_bg)) {
 172:Drivers/lvgl/src/draw/sw/lv_draw_sw_box_shadow.c ****         int32_t w = lv_area_get_width(&clip_area_sub);
 173:Drivers/lvgl/src/draw/sw/lv_draw_sw_box_shadow.c ****         sh_buf_tmp = sh_buf;
 174:Drivers/lvgl/src/draw/sw/lv_draw_sw_box_shadow.c ****         sh_buf_tmp += (clip_area_sub.y1 - shadow_area.y1) * corner_size;
 175:Drivers/lvgl/src/draw/sw/lv_draw_sw_box_shadow.c ****         sh_buf_tmp += clip_area_sub.x1 - (shadow_area.x2 - corner_size + 1);
 176:Drivers/lvgl/src/draw/sw/lv_draw_sw_box_shadow.c **** 
 177:Drivers/lvgl/src/draw/sw/lv_draw_sw_box_shadow.c ****         /*Do not mask if out of the bg*/
 178:Drivers/lvgl/src/draw/sw/lv_draw_sw_box_shadow.c ****         if(simple && lv_area_is_out(&clip_area_sub, &bg_area, r_bg)) simple_sub = true;
 179:Drivers/lvgl/src/draw/sw/lv_draw_sw_box_shadow.c ****         else simple_sub = simple;
 180:Drivers/lvgl/src/draw/sw/lv_draw_sw_box_shadow.c ****         if(w > 0) {
 181:Drivers/lvgl/src/draw/sw/lv_draw_sw_box_shadow.c ****             blend_dsc.mask_buf = mask_buf;
 182:Drivers/lvgl/src/draw/sw/lv_draw_sw_box_shadow.c ****             blend_area.x1 = clip_area_sub.x1;
 183:Drivers/lvgl/src/draw/sw/lv_draw_sw_box_shadow.c ****             blend_area.x2 = clip_area_sub.x2;
 184:Drivers/lvgl/src/draw/sw/lv_draw_sw_box_shadow.c ****             blend_dsc.mask_res = LV_DRAW_SW_MASK_RES_CHANGED;    /*In simple mode it won't be overw
 185:Drivers/lvgl/src/draw/sw/lv_draw_sw_box_shadow.c ****             for(y = clip_area_sub.y1; y <= clip_area_sub.y2; y++) {
 186:Drivers/lvgl/src/draw/sw/lv_draw_sw_box_shadow.c ****                 blend_area.y1 = y;
 187:Drivers/lvgl/src/draw/sw/lv_draw_sw_box_shadow.c ****                 blend_area.y2 = y;
 188:Drivers/lvgl/src/draw/sw/lv_draw_sw_box_shadow.c **** 
 189:Drivers/lvgl/src/draw/sw/lv_draw_sw_box_shadow.c ****                 if(!simple_sub) {
 190:Drivers/lvgl/src/draw/sw/lv_draw_sw_box_shadow.c ****                     lv_memcpy(mask_buf, sh_buf_tmp, corner_size);
 191:Drivers/lvgl/src/draw/sw/lv_draw_sw_box_shadow.c ****                     blend_dsc.mask_res = lv_draw_sw_mask_apply(masks, mask_buf, clip_area_sub.x1, y
 192:Drivers/lvgl/src/draw/sw/lv_draw_sw_box_shadow.c ****                     if(blend_dsc.mask_res == LV_DRAW_SW_MASK_RES_FULL_COVER) blend_dsc.mask_res = L
 193:Drivers/lvgl/src/draw/sw/lv_draw_sw_box_shadow.c ****                 }
 194:Drivers/lvgl/src/draw/sw/lv_draw_sw_box_shadow.c ****                 else {
 195:Drivers/lvgl/src/draw/sw/lv_draw_sw_box_shadow.c ****                     blend_dsc.mask_buf = sh_buf_tmp;
 196:Drivers/lvgl/src/draw/sw/lv_draw_sw_box_shadow.c ****                 }
 197:Drivers/lvgl/src/draw/sw/lv_draw_sw_box_shadow.c ****                 lv_draw_sw_blend(t, &blend_dsc);
 198:Drivers/lvgl/src/draw/sw/lv_draw_sw_box_shadow.c ****                 sh_buf_tmp += corner_size;
 199:Drivers/lvgl/src/draw/sw/lv_draw_sw_box_shadow.c ****             }
 200:Drivers/lvgl/src/draw/sw/lv_draw_sw_box_shadow.c ****         }
 201:Drivers/lvgl/src/draw/sw/lv_draw_sw_box_shadow.c ****     }
ARM GAS  /var/folders/qx/2_175_4n2s19vhvtspjhb3qh0000gn/T//ccioUrKE.s 			page 5


 202:Drivers/lvgl/src/draw/sw/lv_draw_sw_box_shadow.c **** 
 203:Drivers/lvgl/src/draw/sw/lv_draw_sw_box_shadow.c ****     /*Bottom right corner.
 204:Drivers/lvgl/src/draw/sw/lv_draw_sw_box_shadow.c ****      *Almost the same as top right just read the lines of `sh_buf` from then end*/
 205:Drivers/lvgl/src/draw/sw/lv_draw_sw_box_shadow.c ****     blend_area.x2 = shadow_area.x2;
 206:Drivers/lvgl/src/draw/sw/lv_draw_sw_box_shadow.c ****     blend_area.x1 = shadow_area.x2 - corner_size + 1;
 207:Drivers/lvgl/src/draw/sw/lv_draw_sw_box_shadow.c ****     blend_area.y1 = shadow_area.y2 - corner_size + 1;
 208:Drivers/lvgl/src/draw/sw/lv_draw_sw_box_shadow.c ****     blend_area.y2 = shadow_area.y2;
 209:Drivers/lvgl/src/draw/sw/lv_draw_sw_box_shadow.c ****     /*Do not overdraw the other corners*/
 210:Drivers/lvgl/src/draw/sw/lv_draw_sw_box_shadow.c ****     blend_area.x1 = LV_MAX(blend_area.x1, w_half);
 211:Drivers/lvgl/src/draw/sw/lv_draw_sw_box_shadow.c ****     blend_area.y1 = LV_MAX(blend_area.y1, h_half + 1);
 212:Drivers/lvgl/src/draw/sw/lv_draw_sw_box_shadow.c **** 
 213:Drivers/lvgl/src/draw/sw/lv_draw_sw_box_shadow.c ****     if(lv_area_intersect(&clip_area_sub, &blend_area, &t->clip_area) &&
 214:Drivers/lvgl/src/draw/sw/lv_draw_sw_box_shadow.c ****        !lv_area_is_in(&clip_area_sub, &bg_area, r_bg)) {
 215:Drivers/lvgl/src/draw/sw/lv_draw_sw_box_shadow.c ****         int32_t w = lv_area_get_width(&clip_area_sub);
 216:Drivers/lvgl/src/draw/sw/lv_draw_sw_box_shadow.c ****         sh_buf_tmp = sh_buf;
 217:Drivers/lvgl/src/draw/sw/lv_draw_sw_box_shadow.c ****         sh_buf_tmp += (blend_area.y2 - clip_area_sub.y2) * corner_size;
 218:Drivers/lvgl/src/draw/sw/lv_draw_sw_box_shadow.c ****         sh_buf_tmp += clip_area_sub.x1 - (shadow_area.x2 - corner_size + 1);
 219:Drivers/lvgl/src/draw/sw/lv_draw_sw_box_shadow.c ****         /*Do not mask if out of the bg*/
 220:Drivers/lvgl/src/draw/sw/lv_draw_sw_box_shadow.c ****         if(simple && lv_area_is_out(&clip_area_sub, &bg_area, r_bg)) simple_sub = true;
 221:Drivers/lvgl/src/draw/sw/lv_draw_sw_box_shadow.c ****         else simple_sub = simple;
 222:Drivers/lvgl/src/draw/sw/lv_draw_sw_box_shadow.c **** 
 223:Drivers/lvgl/src/draw/sw/lv_draw_sw_box_shadow.c ****         if(w > 0) {
 224:Drivers/lvgl/src/draw/sw/lv_draw_sw_box_shadow.c ****             blend_dsc.mask_buf = mask_buf;
 225:Drivers/lvgl/src/draw/sw/lv_draw_sw_box_shadow.c ****             blend_area.x1 = clip_area_sub.x1;
 226:Drivers/lvgl/src/draw/sw/lv_draw_sw_box_shadow.c ****             blend_area.x2 = clip_area_sub.x2;
 227:Drivers/lvgl/src/draw/sw/lv_draw_sw_box_shadow.c ****             blend_dsc.mask_res = LV_DRAW_SW_MASK_RES_CHANGED;    /*In simple mode it won't be overw
 228:Drivers/lvgl/src/draw/sw/lv_draw_sw_box_shadow.c ****             for(y = clip_area_sub.y2; y >= clip_area_sub.y1; y--) {
 229:Drivers/lvgl/src/draw/sw/lv_draw_sw_box_shadow.c ****                 blend_area.y1 = y;
 230:Drivers/lvgl/src/draw/sw/lv_draw_sw_box_shadow.c ****                 blend_area.y2 = y;
 231:Drivers/lvgl/src/draw/sw/lv_draw_sw_box_shadow.c **** 
 232:Drivers/lvgl/src/draw/sw/lv_draw_sw_box_shadow.c ****                 if(!simple_sub) {
 233:Drivers/lvgl/src/draw/sw/lv_draw_sw_box_shadow.c ****                     lv_memcpy(mask_buf, sh_buf_tmp, corner_size);
 234:Drivers/lvgl/src/draw/sw/lv_draw_sw_box_shadow.c ****                     blend_dsc.mask_res = lv_draw_sw_mask_apply(masks, mask_buf, clip_area_sub.x1, y
 235:Drivers/lvgl/src/draw/sw/lv_draw_sw_box_shadow.c ****                     if(blend_dsc.mask_res == LV_DRAW_SW_MASK_RES_FULL_COVER) blend_dsc.mask_res = L
 236:Drivers/lvgl/src/draw/sw/lv_draw_sw_box_shadow.c ****                 }
 237:Drivers/lvgl/src/draw/sw/lv_draw_sw_box_shadow.c ****                 else {
 238:Drivers/lvgl/src/draw/sw/lv_draw_sw_box_shadow.c ****                     blend_dsc.mask_buf = sh_buf_tmp;
 239:Drivers/lvgl/src/draw/sw/lv_draw_sw_box_shadow.c ****                 }
 240:Drivers/lvgl/src/draw/sw/lv_draw_sw_box_shadow.c ****                 lv_draw_sw_blend(t, &blend_dsc);
 241:Drivers/lvgl/src/draw/sw/lv_draw_sw_box_shadow.c ****                 sh_buf_tmp += corner_size;
 242:Drivers/lvgl/src/draw/sw/lv_draw_sw_box_shadow.c ****             }
 243:Drivers/lvgl/src/draw/sw/lv_draw_sw_box_shadow.c ****         }
 244:Drivers/lvgl/src/draw/sw/lv_draw_sw_box_shadow.c ****     }
 245:Drivers/lvgl/src/draw/sw/lv_draw_sw_box_shadow.c **** 
 246:Drivers/lvgl/src/draw/sw/lv_draw_sw_box_shadow.c ****     /*Top side*/
 247:Drivers/lvgl/src/draw/sw/lv_draw_sw_box_shadow.c ****     blend_area.x1 = shadow_area.x1 + corner_size;
 248:Drivers/lvgl/src/draw/sw/lv_draw_sw_box_shadow.c ****     blend_area.x2 = shadow_area.x2 - corner_size;
 249:Drivers/lvgl/src/draw/sw/lv_draw_sw_box_shadow.c ****     blend_area.y1 = shadow_area.y1;
 250:Drivers/lvgl/src/draw/sw/lv_draw_sw_box_shadow.c ****     blend_area.y2 = shadow_area.y1 + corner_size - 1;
 251:Drivers/lvgl/src/draw/sw/lv_draw_sw_box_shadow.c ****     blend_area.y2 = LV_MIN(blend_area.y2, h_half);
 252:Drivers/lvgl/src/draw/sw/lv_draw_sw_box_shadow.c **** 
 253:Drivers/lvgl/src/draw/sw/lv_draw_sw_box_shadow.c ****     if(lv_area_intersect(&clip_area_sub, &blend_area, &t->clip_area) &&
 254:Drivers/lvgl/src/draw/sw/lv_draw_sw_box_shadow.c ****        !lv_area_is_in(&clip_area_sub, &bg_area, r_bg)) {
 255:Drivers/lvgl/src/draw/sw/lv_draw_sw_box_shadow.c ****         int32_t w = lv_area_get_width(&clip_area_sub);
 256:Drivers/lvgl/src/draw/sw/lv_draw_sw_box_shadow.c ****         sh_buf_tmp = sh_buf;
 257:Drivers/lvgl/src/draw/sw/lv_draw_sw_box_shadow.c ****         sh_buf_tmp += (clip_area_sub.y1 - blend_area.y1) * corner_size;
 258:Drivers/lvgl/src/draw/sw/lv_draw_sw_box_shadow.c **** 
ARM GAS  /var/folders/qx/2_175_4n2s19vhvtspjhb3qh0000gn/T//ccioUrKE.s 			page 6


 259:Drivers/lvgl/src/draw/sw/lv_draw_sw_box_shadow.c ****         /*Do not mask if out of the bg*/
 260:Drivers/lvgl/src/draw/sw/lv_draw_sw_box_shadow.c ****         if(simple && lv_area_is_out(&clip_area_sub, &bg_area, r_bg)) simple_sub = true;
 261:Drivers/lvgl/src/draw/sw/lv_draw_sw_box_shadow.c ****         else simple_sub = simple;
 262:Drivers/lvgl/src/draw/sw/lv_draw_sw_box_shadow.c **** 
 263:Drivers/lvgl/src/draw/sw/lv_draw_sw_box_shadow.c ****         if(w > 0) {
 264:Drivers/lvgl/src/draw/sw/lv_draw_sw_box_shadow.c ****             if(!simple_sub) {
 265:Drivers/lvgl/src/draw/sw/lv_draw_sw_box_shadow.c ****                 blend_dsc.mask_buf = mask_buf;
 266:Drivers/lvgl/src/draw/sw/lv_draw_sw_box_shadow.c ****             }
 267:Drivers/lvgl/src/draw/sw/lv_draw_sw_box_shadow.c ****             else {
 268:Drivers/lvgl/src/draw/sw/lv_draw_sw_box_shadow.c ****                 blend_dsc.mask_buf = NULL;
 269:Drivers/lvgl/src/draw/sw/lv_draw_sw_box_shadow.c ****             }
 270:Drivers/lvgl/src/draw/sw/lv_draw_sw_box_shadow.c ****             blend_area.x1 = clip_area_sub.x1;
 271:Drivers/lvgl/src/draw/sw/lv_draw_sw_box_shadow.c ****             blend_area.x2 = clip_area_sub.x2;
 272:Drivers/lvgl/src/draw/sw/lv_draw_sw_box_shadow.c **** 
 273:Drivers/lvgl/src/draw/sw/lv_draw_sw_box_shadow.c ****             for(y = clip_area_sub.y1; y <= clip_area_sub.y2; y++) {
 274:Drivers/lvgl/src/draw/sw/lv_draw_sw_box_shadow.c ****                 blend_area.y1 = y;
 275:Drivers/lvgl/src/draw/sw/lv_draw_sw_box_shadow.c ****                 blend_area.y2 = y;
 276:Drivers/lvgl/src/draw/sw/lv_draw_sw_box_shadow.c **** 
 277:Drivers/lvgl/src/draw/sw/lv_draw_sw_box_shadow.c ****                 if(!simple_sub) {
 278:Drivers/lvgl/src/draw/sw/lv_draw_sw_box_shadow.c ****                     lv_memset(mask_buf, sh_buf_tmp[0], w);
 279:Drivers/lvgl/src/draw/sw/lv_draw_sw_box_shadow.c ****                     blend_dsc.mask_res = lv_draw_sw_mask_apply(masks, mask_buf, clip_area_sub.x1, y
 280:Drivers/lvgl/src/draw/sw/lv_draw_sw_box_shadow.c ****                     if(blend_dsc.mask_res == LV_DRAW_SW_MASK_RES_FULL_COVER) blend_dsc.mask_res = L
 281:Drivers/lvgl/src/draw/sw/lv_draw_sw_box_shadow.c ****                     lv_draw_sw_blend(t, &blend_dsc);
 282:Drivers/lvgl/src/draw/sw/lv_draw_sw_box_shadow.c ****                 }
 283:Drivers/lvgl/src/draw/sw/lv_draw_sw_box_shadow.c ****                 else {
 284:Drivers/lvgl/src/draw/sw/lv_draw_sw_box_shadow.c ****                     blend_dsc.opa = opa == LV_OPA_COVER ? sh_buf_tmp[0] : LV_OPA_MIX2(sh_buf_tmp[0]
 285:Drivers/lvgl/src/draw/sw/lv_draw_sw_box_shadow.c ****                     lv_draw_sw_blend(t, &blend_dsc);
 286:Drivers/lvgl/src/draw/sw/lv_draw_sw_box_shadow.c ****                 }
 287:Drivers/lvgl/src/draw/sw/lv_draw_sw_box_shadow.c ****                 sh_buf_tmp += corner_size;
 288:Drivers/lvgl/src/draw/sw/lv_draw_sw_box_shadow.c ****             }
 289:Drivers/lvgl/src/draw/sw/lv_draw_sw_box_shadow.c ****         }
 290:Drivers/lvgl/src/draw/sw/lv_draw_sw_box_shadow.c ****     }
 291:Drivers/lvgl/src/draw/sw/lv_draw_sw_box_shadow.c ****     blend_dsc.opa = dsc->opa;    /*Restore*/
 292:Drivers/lvgl/src/draw/sw/lv_draw_sw_box_shadow.c **** 
 293:Drivers/lvgl/src/draw/sw/lv_draw_sw_box_shadow.c ****     /*Bottom side*/
 294:Drivers/lvgl/src/draw/sw/lv_draw_sw_box_shadow.c ****     blend_area.x1 = shadow_area.x1 + corner_size;
 295:Drivers/lvgl/src/draw/sw/lv_draw_sw_box_shadow.c ****     blend_area.x2 = shadow_area.x2 - corner_size;
 296:Drivers/lvgl/src/draw/sw/lv_draw_sw_box_shadow.c ****     blend_area.y1 = shadow_area.y2 - corner_size + 1;
 297:Drivers/lvgl/src/draw/sw/lv_draw_sw_box_shadow.c ****     blend_area.y2 = shadow_area.y2;
 298:Drivers/lvgl/src/draw/sw/lv_draw_sw_box_shadow.c ****     blend_area.y1 = LV_MAX(blend_area.y1, h_half + 1);
 299:Drivers/lvgl/src/draw/sw/lv_draw_sw_box_shadow.c **** 
 300:Drivers/lvgl/src/draw/sw/lv_draw_sw_box_shadow.c ****     if(lv_area_intersect(&clip_area_sub, &blend_area, &t->clip_area) &&
 301:Drivers/lvgl/src/draw/sw/lv_draw_sw_box_shadow.c ****        !lv_area_is_in(&clip_area_sub, &bg_area, r_bg)) {
 302:Drivers/lvgl/src/draw/sw/lv_draw_sw_box_shadow.c ****         int32_t w = lv_area_get_width(&clip_area_sub);
 303:Drivers/lvgl/src/draw/sw/lv_draw_sw_box_shadow.c ****         sh_buf_tmp = sh_buf;
 304:Drivers/lvgl/src/draw/sw/lv_draw_sw_box_shadow.c ****         sh_buf_tmp += (blend_area.y2 - clip_area_sub.y2) * corner_size;
 305:Drivers/lvgl/src/draw/sw/lv_draw_sw_box_shadow.c ****         if(w > 0) {
 306:Drivers/lvgl/src/draw/sw/lv_draw_sw_box_shadow.c ****             /*Do not mask if out of the bg*/
 307:Drivers/lvgl/src/draw/sw/lv_draw_sw_box_shadow.c ****             if(simple && lv_area_is_out(&clip_area_sub, &bg_area, r_bg)) simple_sub = true;
 308:Drivers/lvgl/src/draw/sw/lv_draw_sw_box_shadow.c ****             else simple_sub = simple;
 309:Drivers/lvgl/src/draw/sw/lv_draw_sw_box_shadow.c **** 
 310:Drivers/lvgl/src/draw/sw/lv_draw_sw_box_shadow.c ****             if(!simple_sub) {
 311:Drivers/lvgl/src/draw/sw/lv_draw_sw_box_shadow.c ****                 blend_dsc.mask_buf = mask_buf;
 312:Drivers/lvgl/src/draw/sw/lv_draw_sw_box_shadow.c ****             }
 313:Drivers/lvgl/src/draw/sw/lv_draw_sw_box_shadow.c ****             else {
 314:Drivers/lvgl/src/draw/sw/lv_draw_sw_box_shadow.c ****                 blend_dsc.mask_buf = NULL;
 315:Drivers/lvgl/src/draw/sw/lv_draw_sw_box_shadow.c ****             }
ARM GAS  /var/folders/qx/2_175_4n2s19vhvtspjhb3qh0000gn/T//ccioUrKE.s 			page 7


 316:Drivers/lvgl/src/draw/sw/lv_draw_sw_box_shadow.c ****             blend_area.x1 = clip_area_sub.x1;
 317:Drivers/lvgl/src/draw/sw/lv_draw_sw_box_shadow.c ****             blend_area.x2 = clip_area_sub.x2;
 318:Drivers/lvgl/src/draw/sw/lv_draw_sw_box_shadow.c **** 
 319:Drivers/lvgl/src/draw/sw/lv_draw_sw_box_shadow.c ****             for(y = clip_area_sub.y2; y >= clip_area_sub.y1; y--) {
 320:Drivers/lvgl/src/draw/sw/lv_draw_sw_box_shadow.c ****                 blend_area.y1 = y;
 321:Drivers/lvgl/src/draw/sw/lv_draw_sw_box_shadow.c ****                 blend_area.y2 = y;
 322:Drivers/lvgl/src/draw/sw/lv_draw_sw_box_shadow.c **** 
 323:Drivers/lvgl/src/draw/sw/lv_draw_sw_box_shadow.c ****                 /*Do not mask if out of the bg*/
 324:Drivers/lvgl/src/draw/sw/lv_draw_sw_box_shadow.c ****                 if(simple && lv_area_is_out(&clip_area_sub, &bg_area, r_bg)) simple_sub = true;
 325:Drivers/lvgl/src/draw/sw/lv_draw_sw_box_shadow.c ****                 else simple_sub = simple;
 326:Drivers/lvgl/src/draw/sw/lv_draw_sw_box_shadow.c **** 
 327:Drivers/lvgl/src/draw/sw/lv_draw_sw_box_shadow.c ****                 if(!simple_sub) {
 328:Drivers/lvgl/src/draw/sw/lv_draw_sw_box_shadow.c ****                     lv_memset(mask_buf, sh_buf_tmp[0], w);
 329:Drivers/lvgl/src/draw/sw/lv_draw_sw_box_shadow.c ****                     blend_dsc.mask_res = lv_draw_sw_mask_apply(masks, mask_buf, clip_area_sub.x1, y
 330:Drivers/lvgl/src/draw/sw/lv_draw_sw_box_shadow.c ****                     if(blend_dsc.mask_res == LV_DRAW_SW_MASK_RES_FULL_COVER) blend_dsc.mask_res = L
 331:Drivers/lvgl/src/draw/sw/lv_draw_sw_box_shadow.c ****                     lv_draw_sw_blend(t, &blend_dsc);
 332:Drivers/lvgl/src/draw/sw/lv_draw_sw_box_shadow.c ****                 }
 333:Drivers/lvgl/src/draw/sw/lv_draw_sw_box_shadow.c ****                 else {
 334:Drivers/lvgl/src/draw/sw/lv_draw_sw_box_shadow.c ****                     blend_dsc.opa = opa == LV_OPA_COVER ? sh_buf_tmp[0] : (sh_buf_tmp[0] * dsc->opa
 335:Drivers/lvgl/src/draw/sw/lv_draw_sw_box_shadow.c ****                     lv_draw_sw_blend(t, &blend_dsc);
 336:Drivers/lvgl/src/draw/sw/lv_draw_sw_box_shadow.c **** 
 337:Drivers/lvgl/src/draw/sw/lv_draw_sw_box_shadow.c ****                 }
 338:Drivers/lvgl/src/draw/sw/lv_draw_sw_box_shadow.c ****                 sh_buf_tmp += corner_size;
 339:Drivers/lvgl/src/draw/sw/lv_draw_sw_box_shadow.c ****             }
 340:Drivers/lvgl/src/draw/sw/lv_draw_sw_box_shadow.c ****         }
 341:Drivers/lvgl/src/draw/sw/lv_draw_sw_box_shadow.c ****     }
 342:Drivers/lvgl/src/draw/sw/lv_draw_sw_box_shadow.c **** 
 343:Drivers/lvgl/src/draw/sw/lv_draw_sw_box_shadow.c ****     blend_dsc.opa = dsc->opa;    /*Restore*/
 344:Drivers/lvgl/src/draw/sw/lv_draw_sw_box_shadow.c **** 
 345:Drivers/lvgl/src/draw/sw/lv_draw_sw_box_shadow.c ****     /*Right side*/
 346:Drivers/lvgl/src/draw/sw/lv_draw_sw_box_shadow.c ****     blend_area.x1 = shadow_area.x2 - corner_size + 1;
 347:Drivers/lvgl/src/draw/sw/lv_draw_sw_box_shadow.c ****     blend_area.x2 = shadow_area.x2;
 348:Drivers/lvgl/src/draw/sw/lv_draw_sw_box_shadow.c ****     blend_area.y1 = shadow_area.y1 + corner_size;
 349:Drivers/lvgl/src/draw/sw/lv_draw_sw_box_shadow.c ****     blend_area.y2 = shadow_area.y2 - corner_size;
 350:Drivers/lvgl/src/draw/sw/lv_draw_sw_box_shadow.c ****     /*Do not overdraw the other corners*/
 351:Drivers/lvgl/src/draw/sw/lv_draw_sw_box_shadow.c ****     blend_area.y1 = LV_MIN(blend_area.y1, h_half + 1);
 352:Drivers/lvgl/src/draw/sw/lv_draw_sw_box_shadow.c ****     blend_area.y2 = LV_MAX(blend_area.y2, h_half);
 353:Drivers/lvgl/src/draw/sw/lv_draw_sw_box_shadow.c ****     blend_area.x1 = LV_MAX(blend_area.x1, w_half);
 354:Drivers/lvgl/src/draw/sw/lv_draw_sw_box_shadow.c **** 
 355:Drivers/lvgl/src/draw/sw/lv_draw_sw_box_shadow.c ****     if(lv_area_intersect(&clip_area_sub, &blend_area, &t->clip_area) &&
 356:Drivers/lvgl/src/draw/sw/lv_draw_sw_box_shadow.c ****        !lv_area_is_in(&clip_area_sub, &bg_area, r_bg)) {
 357:Drivers/lvgl/src/draw/sw/lv_draw_sw_box_shadow.c ****         int32_t w = lv_area_get_width(&clip_area_sub);
 358:Drivers/lvgl/src/draw/sw/lv_draw_sw_box_shadow.c ****         sh_buf_tmp = sh_buf;
 359:Drivers/lvgl/src/draw/sw/lv_draw_sw_box_shadow.c ****         sh_buf_tmp += (corner_size - 1) * corner_size;
 360:Drivers/lvgl/src/draw/sw/lv_draw_sw_box_shadow.c ****         sh_buf_tmp += clip_area_sub.x1 - (shadow_area.x2 - corner_size + 1);
 361:Drivers/lvgl/src/draw/sw/lv_draw_sw_box_shadow.c **** 
 362:Drivers/lvgl/src/draw/sw/lv_draw_sw_box_shadow.c ****         /*Do not mask if out of the bg*/
 363:Drivers/lvgl/src/draw/sw/lv_draw_sw_box_shadow.c ****         if(simple && lv_area_is_out(&clip_area_sub, &bg_area, r_bg)) simple_sub = true;
 364:Drivers/lvgl/src/draw/sw/lv_draw_sw_box_shadow.c ****         else simple_sub = simple;
 365:Drivers/lvgl/src/draw/sw/lv_draw_sw_box_shadow.c ****         blend_dsc.mask_buf = simple_sub ? sh_buf_tmp : mask_buf;
 366:Drivers/lvgl/src/draw/sw/lv_draw_sw_box_shadow.c **** 
 367:Drivers/lvgl/src/draw/sw/lv_draw_sw_box_shadow.c ****         if(w > 0) {
 368:Drivers/lvgl/src/draw/sw/lv_draw_sw_box_shadow.c ****             blend_area.x1 = clip_area_sub.x1;
 369:Drivers/lvgl/src/draw/sw/lv_draw_sw_box_shadow.c ****             blend_area.x2 = clip_area_sub.x2;
 370:Drivers/lvgl/src/draw/sw/lv_draw_sw_box_shadow.c ****             blend_dsc.mask_res = LV_DRAW_SW_MASK_RES_CHANGED;    /*In simple mode it won't be overw
 371:Drivers/lvgl/src/draw/sw/lv_draw_sw_box_shadow.c ****             for(y = clip_area_sub.y1; y <= clip_area_sub.y2; y++) {
 372:Drivers/lvgl/src/draw/sw/lv_draw_sw_box_shadow.c ****                 blend_area.y1 = y;
ARM GAS  /var/folders/qx/2_175_4n2s19vhvtspjhb3qh0000gn/T//ccioUrKE.s 			page 8


 373:Drivers/lvgl/src/draw/sw/lv_draw_sw_box_shadow.c ****                 blend_area.y2 = y;
 374:Drivers/lvgl/src/draw/sw/lv_draw_sw_box_shadow.c **** 
 375:Drivers/lvgl/src/draw/sw/lv_draw_sw_box_shadow.c ****                 if(!simple_sub) {
 376:Drivers/lvgl/src/draw/sw/lv_draw_sw_box_shadow.c ****                     lv_memcpy(mask_buf, sh_buf_tmp, w);
 377:Drivers/lvgl/src/draw/sw/lv_draw_sw_box_shadow.c ****                     blend_dsc.mask_res = lv_draw_sw_mask_apply(masks, mask_buf, clip_area_sub.x1, y
 378:Drivers/lvgl/src/draw/sw/lv_draw_sw_box_shadow.c ****                     if(blend_dsc.mask_res == LV_DRAW_SW_MASK_RES_FULL_COVER) blend_dsc.mask_res = L
 379:Drivers/lvgl/src/draw/sw/lv_draw_sw_box_shadow.c ****                 }
 380:Drivers/lvgl/src/draw/sw/lv_draw_sw_box_shadow.c ****                 lv_draw_sw_blend(t, &blend_dsc);
 381:Drivers/lvgl/src/draw/sw/lv_draw_sw_box_shadow.c ****             }
 382:Drivers/lvgl/src/draw/sw/lv_draw_sw_box_shadow.c ****         }
 383:Drivers/lvgl/src/draw/sw/lv_draw_sw_box_shadow.c ****     }
 384:Drivers/lvgl/src/draw/sw/lv_draw_sw_box_shadow.c **** 
 385:Drivers/lvgl/src/draw/sw/lv_draw_sw_box_shadow.c ****     /*Mirror the shadow corner buffer horizontally*/
 386:Drivers/lvgl/src/draw/sw/lv_draw_sw_box_shadow.c ****     sh_buf_tmp = sh_buf ;
 387:Drivers/lvgl/src/draw/sw/lv_draw_sw_box_shadow.c ****     for(y = 0; y < corner_size; y++) {
 388:Drivers/lvgl/src/draw/sw/lv_draw_sw_box_shadow.c ****         int32_t x;
 389:Drivers/lvgl/src/draw/sw/lv_draw_sw_box_shadow.c ****         lv_opa_t * start = sh_buf_tmp;
 390:Drivers/lvgl/src/draw/sw/lv_draw_sw_box_shadow.c ****         lv_opa_t * end = sh_buf_tmp + corner_size - 1;
 391:Drivers/lvgl/src/draw/sw/lv_draw_sw_box_shadow.c ****         for(x = 0; x < corner_size / 2; x++) {
 392:Drivers/lvgl/src/draw/sw/lv_draw_sw_box_shadow.c ****             lv_opa_t tmp = *start;
 393:Drivers/lvgl/src/draw/sw/lv_draw_sw_box_shadow.c ****             *start = *end;
 394:Drivers/lvgl/src/draw/sw/lv_draw_sw_box_shadow.c ****             *end = tmp;
 395:Drivers/lvgl/src/draw/sw/lv_draw_sw_box_shadow.c **** 
 396:Drivers/lvgl/src/draw/sw/lv_draw_sw_box_shadow.c ****             start++;
 397:Drivers/lvgl/src/draw/sw/lv_draw_sw_box_shadow.c ****             end--;
 398:Drivers/lvgl/src/draw/sw/lv_draw_sw_box_shadow.c ****         }
 399:Drivers/lvgl/src/draw/sw/lv_draw_sw_box_shadow.c ****         sh_buf_tmp += corner_size;
 400:Drivers/lvgl/src/draw/sw/lv_draw_sw_box_shadow.c ****     }
 401:Drivers/lvgl/src/draw/sw/lv_draw_sw_box_shadow.c **** 
 402:Drivers/lvgl/src/draw/sw/lv_draw_sw_box_shadow.c ****     /*Left side*/
 403:Drivers/lvgl/src/draw/sw/lv_draw_sw_box_shadow.c ****     blend_area.x1 = shadow_area.x1;
 404:Drivers/lvgl/src/draw/sw/lv_draw_sw_box_shadow.c ****     blend_area.x2 = shadow_area.x1 + corner_size - 1;
 405:Drivers/lvgl/src/draw/sw/lv_draw_sw_box_shadow.c ****     blend_area.y1 = shadow_area.y1 + corner_size;
 406:Drivers/lvgl/src/draw/sw/lv_draw_sw_box_shadow.c ****     blend_area.y2 = shadow_area.y2 - corner_size;
 407:Drivers/lvgl/src/draw/sw/lv_draw_sw_box_shadow.c ****     /*Do not overdraw the other corners*/
 408:Drivers/lvgl/src/draw/sw/lv_draw_sw_box_shadow.c ****     blend_area.y1 = LV_MIN(blend_area.y1, h_half + 1);
 409:Drivers/lvgl/src/draw/sw/lv_draw_sw_box_shadow.c ****     blend_area.y2 = LV_MAX(blend_area.y2, h_half);
 410:Drivers/lvgl/src/draw/sw/lv_draw_sw_box_shadow.c ****     blend_area.x2 = LV_MIN(blend_area.x2, w_half - 1);
 411:Drivers/lvgl/src/draw/sw/lv_draw_sw_box_shadow.c **** 
 412:Drivers/lvgl/src/draw/sw/lv_draw_sw_box_shadow.c ****     if(lv_area_intersect(&clip_area_sub, &blend_area, &t->clip_area) &&
 413:Drivers/lvgl/src/draw/sw/lv_draw_sw_box_shadow.c ****        !lv_area_is_in(&clip_area_sub, &bg_area, r_bg)) {
 414:Drivers/lvgl/src/draw/sw/lv_draw_sw_box_shadow.c ****         int32_t w = lv_area_get_width(&clip_area_sub);
 415:Drivers/lvgl/src/draw/sw/lv_draw_sw_box_shadow.c ****         sh_buf_tmp = sh_buf;
 416:Drivers/lvgl/src/draw/sw/lv_draw_sw_box_shadow.c ****         sh_buf_tmp += (corner_size - 1) * corner_size;
 417:Drivers/lvgl/src/draw/sw/lv_draw_sw_box_shadow.c ****         sh_buf_tmp += clip_area_sub.x1 - blend_area.x1;
 418:Drivers/lvgl/src/draw/sw/lv_draw_sw_box_shadow.c **** 
 419:Drivers/lvgl/src/draw/sw/lv_draw_sw_box_shadow.c ****         /*Do not mask if out of the bg*/
 420:Drivers/lvgl/src/draw/sw/lv_draw_sw_box_shadow.c ****         if(simple && lv_area_is_out(&clip_area_sub, &bg_area, r_bg)) simple_sub = true;
 421:Drivers/lvgl/src/draw/sw/lv_draw_sw_box_shadow.c ****         else simple_sub = simple;
 422:Drivers/lvgl/src/draw/sw/lv_draw_sw_box_shadow.c ****         blend_dsc.mask_buf = simple_sub ? sh_buf_tmp : mask_buf;
 423:Drivers/lvgl/src/draw/sw/lv_draw_sw_box_shadow.c ****         if(w > 0) {
 424:Drivers/lvgl/src/draw/sw/lv_draw_sw_box_shadow.c ****             blend_area.x1 = clip_area_sub.x1;
 425:Drivers/lvgl/src/draw/sw/lv_draw_sw_box_shadow.c ****             blend_area.x2 = clip_area_sub.x2;
 426:Drivers/lvgl/src/draw/sw/lv_draw_sw_box_shadow.c ****             blend_dsc.mask_res = LV_DRAW_SW_MASK_RES_CHANGED;    /*In simple mode it won't be overw
 427:Drivers/lvgl/src/draw/sw/lv_draw_sw_box_shadow.c ****             for(y = clip_area_sub.y1; y <= clip_area_sub.y2; y++) {
 428:Drivers/lvgl/src/draw/sw/lv_draw_sw_box_shadow.c ****                 blend_area.y1 = y;
 429:Drivers/lvgl/src/draw/sw/lv_draw_sw_box_shadow.c ****                 blend_area.y2 = y;
ARM GAS  /var/folders/qx/2_175_4n2s19vhvtspjhb3qh0000gn/T//ccioUrKE.s 			page 9


 430:Drivers/lvgl/src/draw/sw/lv_draw_sw_box_shadow.c **** 
 431:Drivers/lvgl/src/draw/sw/lv_draw_sw_box_shadow.c ****                 if(!simple_sub) {
 432:Drivers/lvgl/src/draw/sw/lv_draw_sw_box_shadow.c ****                     lv_memcpy(mask_buf, sh_buf_tmp, w);
 433:Drivers/lvgl/src/draw/sw/lv_draw_sw_box_shadow.c ****                     blend_dsc.mask_res = lv_draw_sw_mask_apply(masks, mask_buf, clip_area_sub.x1, y
 434:Drivers/lvgl/src/draw/sw/lv_draw_sw_box_shadow.c ****                     if(blend_dsc.mask_res == LV_DRAW_SW_MASK_RES_FULL_COVER) blend_dsc.mask_res = L
 435:Drivers/lvgl/src/draw/sw/lv_draw_sw_box_shadow.c ****                 }
 436:Drivers/lvgl/src/draw/sw/lv_draw_sw_box_shadow.c **** 
 437:Drivers/lvgl/src/draw/sw/lv_draw_sw_box_shadow.c ****                 lv_draw_sw_blend(t, &blend_dsc);
 438:Drivers/lvgl/src/draw/sw/lv_draw_sw_box_shadow.c ****             }
 439:Drivers/lvgl/src/draw/sw/lv_draw_sw_box_shadow.c ****         }
 440:Drivers/lvgl/src/draw/sw/lv_draw_sw_box_shadow.c ****     }
 441:Drivers/lvgl/src/draw/sw/lv_draw_sw_box_shadow.c **** 
 442:Drivers/lvgl/src/draw/sw/lv_draw_sw_box_shadow.c ****     /*Top left corner*/
 443:Drivers/lvgl/src/draw/sw/lv_draw_sw_box_shadow.c ****     blend_area.x1 = shadow_area.x1;
 444:Drivers/lvgl/src/draw/sw/lv_draw_sw_box_shadow.c ****     blend_area.x2 = shadow_area.x1 + corner_size - 1;
 445:Drivers/lvgl/src/draw/sw/lv_draw_sw_box_shadow.c ****     blend_area.y1 = shadow_area.y1;
 446:Drivers/lvgl/src/draw/sw/lv_draw_sw_box_shadow.c ****     blend_area.y2 = shadow_area.y1 + corner_size - 1;
 447:Drivers/lvgl/src/draw/sw/lv_draw_sw_box_shadow.c ****     /*Do not overdraw the other corners*/
 448:Drivers/lvgl/src/draw/sw/lv_draw_sw_box_shadow.c ****     blend_area.x2 = LV_MIN(blend_area.x2, w_half - 1);
 449:Drivers/lvgl/src/draw/sw/lv_draw_sw_box_shadow.c ****     blend_area.y2 = LV_MIN(blend_area.y2, h_half);
 450:Drivers/lvgl/src/draw/sw/lv_draw_sw_box_shadow.c **** 
 451:Drivers/lvgl/src/draw/sw/lv_draw_sw_box_shadow.c ****     if(lv_area_intersect(&clip_area_sub, &blend_area, &t->clip_area) &&
 452:Drivers/lvgl/src/draw/sw/lv_draw_sw_box_shadow.c ****        !lv_area_is_in(&clip_area_sub, &bg_area, r_bg)) {
 453:Drivers/lvgl/src/draw/sw/lv_draw_sw_box_shadow.c ****         int32_t w = lv_area_get_width(&clip_area_sub);
 454:Drivers/lvgl/src/draw/sw/lv_draw_sw_box_shadow.c ****         sh_buf_tmp = sh_buf;
 455:Drivers/lvgl/src/draw/sw/lv_draw_sw_box_shadow.c ****         sh_buf_tmp += (clip_area_sub.y1 - blend_area.y1) * corner_size;
 456:Drivers/lvgl/src/draw/sw/lv_draw_sw_box_shadow.c ****         sh_buf_tmp += clip_area_sub.x1 - blend_area.x1;
 457:Drivers/lvgl/src/draw/sw/lv_draw_sw_box_shadow.c **** 
 458:Drivers/lvgl/src/draw/sw/lv_draw_sw_box_shadow.c ****         /*Do not mask if out of the bg*/
 459:Drivers/lvgl/src/draw/sw/lv_draw_sw_box_shadow.c ****         if(simple && lv_area_is_out(&clip_area_sub, &bg_area, r_bg)) simple_sub = true;
 460:Drivers/lvgl/src/draw/sw/lv_draw_sw_box_shadow.c ****         else simple_sub = simple;
 461:Drivers/lvgl/src/draw/sw/lv_draw_sw_box_shadow.c ****         blend_dsc.mask_buf = mask_buf;
 462:Drivers/lvgl/src/draw/sw/lv_draw_sw_box_shadow.c **** 
 463:Drivers/lvgl/src/draw/sw/lv_draw_sw_box_shadow.c ****         if(w > 0) {
 464:Drivers/lvgl/src/draw/sw/lv_draw_sw_box_shadow.c ****             blend_area.x1 = clip_area_sub.x1;
 465:Drivers/lvgl/src/draw/sw/lv_draw_sw_box_shadow.c ****             blend_area.x2 = clip_area_sub.x2;
 466:Drivers/lvgl/src/draw/sw/lv_draw_sw_box_shadow.c ****             blend_dsc.mask_res = LV_DRAW_SW_MASK_RES_CHANGED;    /*In simple mode it won't be overw
 467:Drivers/lvgl/src/draw/sw/lv_draw_sw_box_shadow.c ****             for(y = clip_area_sub.y1; y <= clip_area_sub.y2; y++) {
 468:Drivers/lvgl/src/draw/sw/lv_draw_sw_box_shadow.c ****                 blend_area.y1 = y;
 469:Drivers/lvgl/src/draw/sw/lv_draw_sw_box_shadow.c ****                 blend_area.y2 = y;
 470:Drivers/lvgl/src/draw/sw/lv_draw_sw_box_shadow.c **** 
 471:Drivers/lvgl/src/draw/sw/lv_draw_sw_box_shadow.c ****                 if(!simple_sub) {
 472:Drivers/lvgl/src/draw/sw/lv_draw_sw_box_shadow.c ****                     lv_memcpy(mask_buf, sh_buf_tmp, corner_size);
 473:Drivers/lvgl/src/draw/sw/lv_draw_sw_box_shadow.c ****                     blend_dsc.mask_res = lv_draw_sw_mask_apply(masks, mask_buf, clip_area_sub.x1, y
 474:Drivers/lvgl/src/draw/sw/lv_draw_sw_box_shadow.c ****                     if(blend_dsc.mask_res == LV_DRAW_SW_MASK_RES_FULL_COVER) blend_dsc.mask_res = L
 475:Drivers/lvgl/src/draw/sw/lv_draw_sw_box_shadow.c ****                 }
 476:Drivers/lvgl/src/draw/sw/lv_draw_sw_box_shadow.c ****                 else {
 477:Drivers/lvgl/src/draw/sw/lv_draw_sw_box_shadow.c ****                     blend_dsc.mask_buf = sh_buf_tmp;
 478:Drivers/lvgl/src/draw/sw/lv_draw_sw_box_shadow.c ****                 }
 479:Drivers/lvgl/src/draw/sw/lv_draw_sw_box_shadow.c **** 
 480:Drivers/lvgl/src/draw/sw/lv_draw_sw_box_shadow.c ****                 lv_draw_sw_blend(t, &blend_dsc);
 481:Drivers/lvgl/src/draw/sw/lv_draw_sw_box_shadow.c ****                 sh_buf_tmp += corner_size;
 482:Drivers/lvgl/src/draw/sw/lv_draw_sw_box_shadow.c ****             }
 483:Drivers/lvgl/src/draw/sw/lv_draw_sw_box_shadow.c ****         }
 484:Drivers/lvgl/src/draw/sw/lv_draw_sw_box_shadow.c ****     }
 485:Drivers/lvgl/src/draw/sw/lv_draw_sw_box_shadow.c **** 
 486:Drivers/lvgl/src/draw/sw/lv_draw_sw_box_shadow.c ****     /*Bottom left corner.
ARM GAS  /var/folders/qx/2_175_4n2s19vhvtspjhb3qh0000gn/T//ccioUrKE.s 			page 10


 487:Drivers/lvgl/src/draw/sw/lv_draw_sw_box_shadow.c ****      *Almost the same as bottom right just read the lines of `sh_buf` from then end*/
 488:Drivers/lvgl/src/draw/sw/lv_draw_sw_box_shadow.c ****     blend_area.x1 = shadow_area.x1 ;
 489:Drivers/lvgl/src/draw/sw/lv_draw_sw_box_shadow.c ****     blend_area.x2 = shadow_area.x1 + corner_size - 1;
 490:Drivers/lvgl/src/draw/sw/lv_draw_sw_box_shadow.c ****     blend_area.y1 = shadow_area.y2 - corner_size + 1;
 491:Drivers/lvgl/src/draw/sw/lv_draw_sw_box_shadow.c ****     blend_area.y2 = shadow_area.y2;
 492:Drivers/lvgl/src/draw/sw/lv_draw_sw_box_shadow.c ****     /*Do not overdraw the other corners*/
 493:Drivers/lvgl/src/draw/sw/lv_draw_sw_box_shadow.c ****     blend_area.y1 = LV_MAX(blend_area.y1, h_half + 1);
 494:Drivers/lvgl/src/draw/sw/lv_draw_sw_box_shadow.c ****     blend_area.x2 = LV_MIN(blend_area.x2, w_half - 1);
 495:Drivers/lvgl/src/draw/sw/lv_draw_sw_box_shadow.c **** 
 496:Drivers/lvgl/src/draw/sw/lv_draw_sw_box_shadow.c ****     if(lv_area_intersect(&clip_area_sub, &blend_area, &t->clip_area) &&
 497:Drivers/lvgl/src/draw/sw/lv_draw_sw_box_shadow.c ****        !lv_area_is_in(&clip_area_sub, &bg_area, r_bg)) {
 498:Drivers/lvgl/src/draw/sw/lv_draw_sw_box_shadow.c ****         int32_t w = lv_area_get_width(&clip_area_sub);
 499:Drivers/lvgl/src/draw/sw/lv_draw_sw_box_shadow.c ****         sh_buf_tmp = sh_buf;
 500:Drivers/lvgl/src/draw/sw/lv_draw_sw_box_shadow.c ****         sh_buf_tmp += (blend_area.y2 - clip_area_sub.y2) * corner_size;
 501:Drivers/lvgl/src/draw/sw/lv_draw_sw_box_shadow.c ****         sh_buf_tmp += clip_area_sub.x1 - blend_area.x1;
 502:Drivers/lvgl/src/draw/sw/lv_draw_sw_box_shadow.c **** 
 503:Drivers/lvgl/src/draw/sw/lv_draw_sw_box_shadow.c ****         /*Do not mask if out of the bg*/
 504:Drivers/lvgl/src/draw/sw/lv_draw_sw_box_shadow.c ****         if(simple && lv_area_is_out(&clip_area_sub, &bg_area, r_bg)) simple_sub = true;
 505:Drivers/lvgl/src/draw/sw/lv_draw_sw_box_shadow.c ****         else simple_sub = simple;
 506:Drivers/lvgl/src/draw/sw/lv_draw_sw_box_shadow.c ****         blend_dsc.mask_buf = mask_buf;
 507:Drivers/lvgl/src/draw/sw/lv_draw_sw_box_shadow.c ****         if(w > 0) {
 508:Drivers/lvgl/src/draw/sw/lv_draw_sw_box_shadow.c ****             blend_area.x1 = clip_area_sub.x1;
 509:Drivers/lvgl/src/draw/sw/lv_draw_sw_box_shadow.c ****             blend_area.x2 = clip_area_sub.x2;
 510:Drivers/lvgl/src/draw/sw/lv_draw_sw_box_shadow.c ****             blend_dsc.mask_res = LV_DRAW_SW_MASK_RES_CHANGED;    /*In simple mode it won't be overw
 511:Drivers/lvgl/src/draw/sw/lv_draw_sw_box_shadow.c ****             for(y = clip_area_sub.y2; y >= clip_area_sub.y1; y--) {
 512:Drivers/lvgl/src/draw/sw/lv_draw_sw_box_shadow.c ****                 blend_area.y1 = y;
 513:Drivers/lvgl/src/draw/sw/lv_draw_sw_box_shadow.c ****                 blend_area.y2 = y;
 514:Drivers/lvgl/src/draw/sw/lv_draw_sw_box_shadow.c **** 
 515:Drivers/lvgl/src/draw/sw/lv_draw_sw_box_shadow.c ****                 if(!simple_sub) {
 516:Drivers/lvgl/src/draw/sw/lv_draw_sw_box_shadow.c ****                     lv_memcpy(mask_buf, sh_buf_tmp, corner_size);
 517:Drivers/lvgl/src/draw/sw/lv_draw_sw_box_shadow.c ****                     blend_dsc.mask_res = lv_draw_sw_mask_apply(masks, mask_buf, clip_area_sub.x1, y
 518:Drivers/lvgl/src/draw/sw/lv_draw_sw_box_shadow.c ****                     if(blend_dsc.mask_res == LV_DRAW_SW_MASK_RES_FULL_COVER) blend_dsc.mask_res = L
 519:Drivers/lvgl/src/draw/sw/lv_draw_sw_box_shadow.c ****                 }
 520:Drivers/lvgl/src/draw/sw/lv_draw_sw_box_shadow.c ****                 else {
 521:Drivers/lvgl/src/draw/sw/lv_draw_sw_box_shadow.c ****                     blend_dsc.mask_buf = sh_buf_tmp;
 522:Drivers/lvgl/src/draw/sw/lv_draw_sw_box_shadow.c ****                 }
 523:Drivers/lvgl/src/draw/sw/lv_draw_sw_box_shadow.c ****                 lv_draw_sw_blend(t, &blend_dsc);
 524:Drivers/lvgl/src/draw/sw/lv_draw_sw_box_shadow.c ****                 sh_buf_tmp += corner_size;
 525:Drivers/lvgl/src/draw/sw/lv_draw_sw_box_shadow.c ****             }
 526:Drivers/lvgl/src/draw/sw/lv_draw_sw_box_shadow.c ****         }
 527:Drivers/lvgl/src/draw/sw/lv_draw_sw_box_shadow.c ****     }
 528:Drivers/lvgl/src/draw/sw/lv_draw_sw_box_shadow.c **** 
 529:Drivers/lvgl/src/draw/sw/lv_draw_sw_box_shadow.c ****     /*Draw the center rectangle.*/
 530:Drivers/lvgl/src/draw/sw/lv_draw_sw_box_shadow.c ****     blend_area.x1 = shadow_area.x1 + corner_size ;
 531:Drivers/lvgl/src/draw/sw/lv_draw_sw_box_shadow.c ****     blend_area.x2 = shadow_area.x2 - corner_size;
 532:Drivers/lvgl/src/draw/sw/lv_draw_sw_box_shadow.c ****     blend_area.y1 = shadow_area.y1 + corner_size;
 533:Drivers/lvgl/src/draw/sw/lv_draw_sw_box_shadow.c ****     blend_area.y2 = shadow_area.y2 - corner_size;
 534:Drivers/lvgl/src/draw/sw/lv_draw_sw_box_shadow.c ****     blend_area.y1 = LV_MIN(blend_area.y1, h_half + 1);
 535:Drivers/lvgl/src/draw/sw/lv_draw_sw_box_shadow.c ****     blend_area.y2 = LV_MAX(blend_area.y2, h_half);
 536:Drivers/lvgl/src/draw/sw/lv_draw_sw_box_shadow.c ****     blend_dsc.mask_buf = mask_buf;
 537:Drivers/lvgl/src/draw/sw/lv_draw_sw_box_shadow.c **** 
 538:Drivers/lvgl/src/draw/sw/lv_draw_sw_box_shadow.c ****     if(lv_area_intersect(&clip_area_sub, &blend_area, &t->clip_area) &&
 539:Drivers/lvgl/src/draw/sw/lv_draw_sw_box_shadow.c ****        !lv_area_is_in(&clip_area_sub, &bg_area, r_bg)) {
 540:Drivers/lvgl/src/draw/sw/lv_draw_sw_box_shadow.c ****         int32_t w = lv_area_get_width(&clip_area_sub);
 541:Drivers/lvgl/src/draw/sw/lv_draw_sw_box_shadow.c ****         if(w > 0) {
 542:Drivers/lvgl/src/draw/sw/lv_draw_sw_box_shadow.c ****             blend_area.x1 = clip_area_sub.x1;
 543:Drivers/lvgl/src/draw/sw/lv_draw_sw_box_shadow.c ****             blend_area.x2 = clip_area_sub.x2;
ARM GAS  /var/folders/qx/2_175_4n2s19vhvtspjhb3qh0000gn/T//ccioUrKE.s 			page 11


 544:Drivers/lvgl/src/draw/sw/lv_draw_sw_box_shadow.c ****             for(y = clip_area_sub.y1; y <= clip_area_sub.y2; y++) {
 545:Drivers/lvgl/src/draw/sw/lv_draw_sw_box_shadow.c ****                 blend_area.y1 = y;
 546:Drivers/lvgl/src/draw/sw/lv_draw_sw_box_shadow.c ****                 blend_area.y2 = y;
 547:Drivers/lvgl/src/draw/sw/lv_draw_sw_box_shadow.c **** 
 548:Drivers/lvgl/src/draw/sw/lv_draw_sw_box_shadow.c ****                 lv_memset(mask_buf, 0xff, w);
 549:Drivers/lvgl/src/draw/sw/lv_draw_sw_box_shadow.c ****                 blend_dsc.mask_res = lv_draw_sw_mask_apply(masks, mask_buf, clip_area_sub.x1, y, w)
 550:Drivers/lvgl/src/draw/sw/lv_draw_sw_box_shadow.c ****                 lv_draw_sw_blend(t, &blend_dsc);
 551:Drivers/lvgl/src/draw/sw/lv_draw_sw_box_shadow.c ****             }
 552:Drivers/lvgl/src/draw/sw/lv_draw_sw_box_shadow.c ****         }
 553:Drivers/lvgl/src/draw/sw/lv_draw_sw_box_shadow.c ****     }
 554:Drivers/lvgl/src/draw/sw/lv_draw_sw_box_shadow.c **** 
 555:Drivers/lvgl/src/draw/sw/lv_draw_sw_box_shadow.c ****     if(!simple) {
 556:Drivers/lvgl/src/draw/sw/lv_draw_sw_box_shadow.c ****         lv_draw_sw_mask_free_param(&mask_rout_param);
 557:Drivers/lvgl/src/draw/sw/lv_draw_sw_box_shadow.c ****     }
 558:Drivers/lvgl/src/draw/sw/lv_draw_sw_box_shadow.c ****     lv_free(sh_buf);
 559:Drivers/lvgl/src/draw/sw/lv_draw_sw_box_shadow.c ****     lv_free(mask_buf);
 560:Drivers/lvgl/src/draw/sw/lv_draw_sw_box_shadow.c **** }
 561:Drivers/lvgl/src/draw/sw/lv_draw_sw_box_shadow.c **** 
 562:Drivers/lvgl/src/draw/sw/lv_draw_sw_box_shadow.c **** /**********************
 563:Drivers/lvgl/src/draw/sw/lv_draw_sw_box_shadow.c ****  *   STATIC FUNCTIONS
 564:Drivers/lvgl/src/draw/sw/lv_draw_sw_box_shadow.c ****  **********************/
 565:Drivers/lvgl/src/draw/sw/lv_draw_sw_box_shadow.c **** 
 566:Drivers/lvgl/src/draw/sw/lv_draw_sw_box_shadow.c **** /**
 567:Drivers/lvgl/src/draw/sw/lv_draw_sw_box_shadow.c ****  * Calculate a blurred corner
 568:Drivers/lvgl/src/draw/sw/lv_draw_sw_box_shadow.c ****  * @param coords Coordinates of the shadow
 569:Drivers/lvgl/src/draw/sw/lv_draw_sw_box_shadow.c ****  * @param sh_buf a buffer to store the result. Its size should be `(sw + r)^2 * 2`
 570:Drivers/lvgl/src/draw/sw/lv_draw_sw_box_shadow.c ****  * @param sw shadow width
 571:Drivers/lvgl/src/draw/sw/lv_draw_sw_box_shadow.c ****  * @param r radius
 572:Drivers/lvgl/src/draw/sw/lv_draw_sw_box_shadow.c ****  */
 573:Drivers/lvgl/src/draw/sw/lv_draw_sw_box_shadow.c **** static void LV_ATTRIBUTE_FAST_MEM shadow_draw_corner_buf(const lv_area_t * coords, uint16_t * sh_bu
 574:Drivers/lvgl/src/draw/sw/lv_draw_sw_box_shadow.c ****                                                          int32_t r)
 575:Drivers/lvgl/src/draw/sw/lv_draw_sw_box_shadow.c **** {
 576:Drivers/lvgl/src/draw/sw/lv_draw_sw_box_shadow.c ****     int32_t sw_ori = sw;
 577:Drivers/lvgl/src/draw/sw/lv_draw_sw_box_shadow.c ****     int32_t size = sw_ori  + r;
 578:Drivers/lvgl/src/draw/sw/lv_draw_sw_box_shadow.c **** 
 579:Drivers/lvgl/src/draw/sw/lv_draw_sw_box_shadow.c ****     lv_area_t sh_area;
 580:Drivers/lvgl/src/draw/sw/lv_draw_sw_box_shadow.c ****     lv_area_copy(&sh_area, coords);
 581:Drivers/lvgl/src/draw/sw/lv_draw_sw_box_shadow.c ****     sh_area.x2 = sw / 2 + r - 1  - ((sw & 1) ? 0 : 1);
 582:Drivers/lvgl/src/draw/sw/lv_draw_sw_box_shadow.c ****     sh_area.y1 = sw / 2 + 1;
 583:Drivers/lvgl/src/draw/sw/lv_draw_sw_box_shadow.c **** 
 584:Drivers/lvgl/src/draw/sw/lv_draw_sw_box_shadow.c ****     sh_area.x1 = sh_area.x2 - lv_area_get_width(coords);
 585:Drivers/lvgl/src/draw/sw/lv_draw_sw_box_shadow.c ****     sh_area.y2 = sh_area.y1 + lv_area_get_height(coords);
 586:Drivers/lvgl/src/draw/sw/lv_draw_sw_box_shadow.c **** 
 587:Drivers/lvgl/src/draw/sw/lv_draw_sw_box_shadow.c ****     lv_draw_sw_mask_radius_param_t mask_param;
 588:Drivers/lvgl/src/draw/sw/lv_draw_sw_box_shadow.c ****     lv_draw_sw_mask_radius_init(&mask_param, &sh_area, r, false);
 589:Drivers/lvgl/src/draw/sw/lv_draw_sw_box_shadow.c **** 
 590:Drivers/lvgl/src/draw/sw/lv_draw_sw_box_shadow.c **** #if SHADOW_ENHANCE
 591:Drivers/lvgl/src/draw/sw/lv_draw_sw_box_shadow.c ****     /*Set half shadow width because blur will be repeated*/
 592:Drivers/lvgl/src/draw/sw/lv_draw_sw_box_shadow.c ****     if(sw_ori == 1) sw = 1;
 593:Drivers/lvgl/src/draw/sw/lv_draw_sw_box_shadow.c ****     else sw = sw_ori >> 1;
 594:Drivers/lvgl/src/draw/sw/lv_draw_sw_box_shadow.c **** #endif /*SHADOW_ENHANCE*/
 595:Drivers/lvgl/src/draw/sw/lv_draw_sw_box_shadow.c **** 
 596:Drivers/lvgl/src/draw/sw/lv_draw_sw_box_shadow.c ****     int32_t y;
 597:Drivers/lvgl/src/draw/sw/lv_draw_sw_box_shadow.c ****     lv_opa_t * mask_line = lv_malloc(size);
 598:Drivers/lvgl/src/draw/sw/lv_draw_sw_box_shadow.c ****     uint16_t * sh_ups_tmp_buf = (uint16_t *)sh_buf;
 599:Drivers/lvgl/src/draw/sw/lv_draw_sw_box_shadow.c ****     for(y = 0; y < size; y++) {
 600:Drivers/lvgl/src/draw/sw/lv_draw_sw_box_shadow.c ****         lv_memset(mask_line, 0xff, size);
ARM GAS  /var/folders/qx/2_175_4n2s19vhvtspjhb3qh0000gn/T//ccioUrKE.s 			page 12


 601:Drivers/lvgl/src/draw/sw/lv_draw_sw_box_shadow.c ****         lv_draw_sw_mask_res_t mask_res = mask_param.dsc.cb(mask_line, 0, y, size, &mask_param);
 602:Drivers/lvgl/src/draw/sw/lv_draw_sw_box_shadow.c ****         if(mask_res == LV_DRAW_SW_MASK_RES_TRANSP) {
 603:Drivers/lvgl/src/draw/sw/lv_draw_sw_box_shadow.c ****             lv_memzero(sh_ups_tmp_buf, size * sizeof(sh_ups_tmp_buf[0]));
 604:Drivers/lvgl/src/draw/sw/lv_draw_sw_box_shadow.c ****         }
 605:Drivers/lvgl/src/draw/sw/lv_draw_sw_box_shadow.c ****         else {
 606:Drivers/lvgl/src/draw/sw/lv_draw_sw_box_shadow.c ****             int32_t i;
 607:Drivers/lvgl/src/draw/sw/lv_draw_sw_box_shadow.c ****             sh_ups_tmp_buf[0] = (mask_line[0] << SHADOW_UPSCALE_SHIFT) / sw;
 608:Drivers/lvgl/src/draw/sw/lv_draw_sw_box_shadow.c ****             for(i = 1; i < size; i++) {
 609:Drivers/lvgl/src/draw/sw/lv_draw_sw_box_shadow.c ****                 if(mask_line[i] == mask_line[i - 1]) sh_ups_tmp_buf[i] = sh_ups_tmp_buf[i - 1];
 610:Drivers/lvgl/src/draw/sw/lv_draw_sw_box_shadow.c ****                 else  sh_ups_tmp_buf[i] = (mask_line[i] << SHADOW_UPSCALE_SHIFT) / sw;
 611:Drivers/lvgl/src/draw/sw/lv_draw_sw_box_shadow.c ****             }
 612:Drivers/lvgl/src/draw/sw/lv_draw_sw_box_shadow.c ****         }
 613:Drivers/lvgl/src/draw/sw/lv_draw_sw_box_shadow.c **** 
 614:Drivers/lvgl/src/draw/sw/lv_draw_sw_box_shadow.c ****         sh_ups_tmp_buf += size;
 615:Drivers/lvgl/src/draw/sw/lv_draw_sw_box_shadow.c ****     }
 616:Drivers/lvgl/src/draw/sw/lv_draw_sw_box_shadow.c ****     lv_free(mask_line);
 617:Drivers/lvgl/src/draw/sw/lv_draw_sw_box_shadow.c **** 
 618:Drivers/lvgl/src/draw/sw/lv_draw_sw_box_shadow.c ****     lv_draw_sw_mask_free_param(&mask_param);
 619:Drivers/lvgl/src/draw/sw/lv_draw_sw_box_shadow.c **** 
 620:Drivers/lvgl/src/draw/sw/lv_draw_sw_box_shadow.c ****     if(sw == 1) {
 621:Drivers/lvgl/src/draw/sw/lv_draw_sw_box_shadow.c ****         int32_t i;
 622:Drivers/lvgl/src/draw/sw/lv_draw_sw_box_shadow.c ****         lv_opa_t * res_buf = (lv_opa_t *)sh_buf;
 623:Drivers/lvgl/src/draw/sw/lv_draw_sw_box_shadow.c ****         for(i = 0; i < size * size; i++) {
 624:Drivers/lvgl/src/draw/sw/lv_draw_sw_box_shadow.c ****             res_buf[i] = (sh_buf[i] >> SHADOW_UPSCALE_SHIFT);
 625:Drivers/lvgl/src/draw/sw/lv_draw_sw_box_shadow.c ****         }
 626:Drivers/lvgl/src/draw/sw/lv_draw_sw_box_shadow.c ****         return;
 627:Drivers/lvgl/src/draw/sw/lv_draw_sw_box_shadow.c ****     }
 628:Drivers/lvgl/src/draw/sw/lv_draw_sw_box_shadow.c **** 
 629:Drivers/lvgl/src/draw/sw/lv_draw_sw_box_shadow.c ****     shadow_blur_corner(size, sw, sh_buf);
 630:Drivers/lvgl/src/draw/sw/lv_draw_sw_box_shadow.c **** 
 631:Drivers/lvgl/src/draw/sw/lv_draw_sw_box_shadow.c **** #if SHADOW_ENHANCE == 0
 632:Drivers/lvgl/src/draw/sw/lv_draw_sw_box_shadow.c ****     /*The result is required in lv_opa_t not uint16_t*/
 633:Drivers/lvgl/src/draw/sw/lv_draw_sw_box_shadow.c ****     uint32_t x;
 634:Drivers/lvgl/src/draw/sw/lv_draw_sw_box_shadow.c ****     lv_opa_t * res_buf = (lv_opa_t *)sh_buf;
 635:Drivers/lvgl/src/draw/sw/lv_draw_sw_box_shadow.c ****     for(x = 0; x < size * size; x++) {
 636:Drivers/lvgl/src/draw/sw/lv_draw_sw_box_shadow.c ****         res_buf[x] = sh_buf[x];
 637:Drivers/lvgl/src/draw/sw/lv_draw_sw_box_shadow.c ****     }
 638:Drivers/lvgl/src/draw/sw/lv_draw_sw_box_shadow.c **** #else
 639:Drivers/lvgl/src/draw/sw/lv_draw_sw_box_shadow.c ****     sw += sw_ori & 1;
 640:Drivers/lvgl/src/draw/sw/lv_draw_sw_box_shadow.c ****     if(sw > 1) {
 641:Drivers/lvgl/src/draw/sw/lv_draw_sw_box_shadow.c ****         uint32_t i;
 642:Drivers/lvgl/src/draw/sw/lv_draw_sw_box_shadow.c ****         uint32_t max_v_div = (LV_OPA_COVER << SHADOW_UPSCALE_SHIFT) / sw;
 643:Drivers/lvgl/src/draw/sw/lv_draw_sw_box_shadow.c ****         for(i = 0; i < (uint32_t)size * size; i++) {
 644:Drivers/lvgl/src/draw/sw/lv_draw_sw_box_shadow.c ****             if(sh_buf[i] == 0) continue;
 645:Drivers/lvgl/src/draw/sw/lv_draw_sw_box_shadow.c ****             else if(sh_buf[i] == LV_OPA_COVER) sh_buf[i] = max_v_div;
 646:Drivers/lvgl/src/draw/sw/lv_draw_sw_box_shadow.c ****             else  sh_buf[i] = (sh_buf[i] << SHADOW_UPSCALE_SHIFT) / sw;
 647:Drivers/lvgl/src/draw/sw/lv_draw_sw_box_shadow.c ****         }
 648:Drivers/lvgl/src/draw/sw/lv_draw_sw_box_shadow.c **** 
 649:Drivers/lvgl/src/draw/sw/lv_draw_sw_box_shadow.c ****         shadow_blur_corner(size, sw, sh_buf);
 650:Drivers/lvgl/src/draw/sw/lv_draw_sw_box_shadow.c ****     }
 651:Drivers/lvgl/src/draw/sw/lv_draw_sw_box_shadow.c ****     int32_t x;
 652:Drivers/lvgl/src/draw/sw/lv_draw_sw_box_shadow.c ****     lv_opa_t * res_buf = (lv_opa_t *)sh_buf;
 653:Drivers/lvgl/src/draw/sw/lv_draw_sw_box_shadow.c ****     for(x = 0; x < size * size; x++) {
 654:Drivers/lvgl/src/draw/sw/lv_draw_sw_box_shadow.c ****         res_buf[x] = (lv_opa_t) sh_buf[x];
 655:Drivers/lvgl/src/draw/sw/lv_draw_sw_box_shadow.c ****     }
 656:Drivers/lvgl/src/draw/sw/lv_draw_sw_box_shadow.c **** #endif
 657:Drivers/lvgl/src/draw/sw/lv_draw_sw_box_shadow.c **** 
ARM GAS  /var/folders/qx/2_175_4n2s19vhvtspjhb3qh0000gn/T//ccioUrKE.s 			page 13


 658:Drivers/lvgl/src/draw/sw/lv_draw_sw_box_shadow.c **** }
 659:Drivers/lvgl/src/draw/sw/lv_draw_sw_box_shadow.c **** 
 660:Drivers/lvgl/src/draw/sw/lv_draw_sw_box_shadow.c **** static void LV_ATTRIBUTE_FAST_MEM shadow_blur_corner(int32_t size, int32_t sw, uint16_t * sh_ups_bu
 661:Drivers/lvgl/src/draw/sw/lv_draw_sw_box_shadow.c **** {
  29              		.loc 1 661 1 view -0
  30              		.cfi_startproc
  31              		@ args = 0, pretend = 0, frame = 8
  32              		@ frame_needed = 0, uses_anonymous_args = 0
  33              		.loc 1 661 1 is_stmt 0 view .LVU1
  34 0000 2DE9F04F 		push	{r4, r5, r6, r7, r8, r9, r10, fp, lr}
  35              	.LCFI0:
  36              		.cfi_def_cfa_offset 36
  37              		.cfi_offset 4, -36
  38              		.cfi_offset 5, -32
  39              		.cfi_offset 6, -28
  40              		.cfi_offset 7, -24
  41              		.cfi_offset 8, -20
  42              		.cfi_offset 9, -16
  43              		.cfi_offset 10, -12
  44              		.cfi_offset 11, -8
  45              		.cfi_offset 14, -4
  46 0004 83B0     		sub	sp, sp, #12
  47              	.LCFI1:
  48              		.cfi_def_cfa_offset 48
  49 0006 0446     		mov	r4, r0
  50 0008 0191     		str	r1, [sp, #4]
  51 000a 1746     		mov	r7, r2
 662:Drivers/lvgl/src/draw/sw/lv_draw_sw_box_shadow.c ****     int32_t s_left = sw >> 1;
  52              		.loc 1 662 5 is_stmt 1 view .LVU2
  53              		.loc 1 662 13 is_stmt 0 view .LVU3
  54 000c 4FEA6108 		asr	r8, r1, #1
  55              	.LVL1:
 663:Drivers/lvgl/src/draw/sw/lv_draw_sw_box_shadow.c ****     int32_t s_right = (sw >> 1);
  56              		.loc 1 663 5 is_stmt 1 view .LVU4
 664:Drivers/lvgl/src/draw/sw/lv_draw_sw_box_shadow.c ****     if((sw & 1) == 0) s_left--;
  57              		.loc 1 664 5 view .LVU5
  58              		.loc 1 664 7 is_stmt 0 view .LVU6
  59 0010 11F0010F 		tst	r1, #1
  60 0014 02D1     		bne	.L25
  61              		.loc 1 664 23 is_stmt 1 discriminator 1 view .LVU7
  62              		.loc 1 664 29 is_stmt 0 discriminator 1 view .LVU8
  63 0016 08F1FF39 		add	r9, r8, #-1
  64              	.LVL2:
  65              		.loc 1 664 29 discriminator 1 view .LVU9
  66 001a 00E0     		b	.L2
  67              	.LVL3:
  68              	.L25:
 662:Drivers/lvgl/src/draw/sw/lv_draw_sw_box_shadow.c ****     int32_t s_left = sw >> 1;
  69              		.loc 1 662 13 view .LVU10
  70 001c C146     		mov	r9, r8
  71              	.LVL4:
  72              	.L2:
 665:Drivers/lvgl/src/draw/sw/lv_draw_sw_box_shadow.c **** 
 666:Drivers/lvgl/src/draw/sw/lv_draw_sw_box_shadow.c ****     /*Horizontal blur*/
 667:Drivers/lvgl/src/draw/sw/lv_draw_sw_box_shadow.c ****     uint16_t * sh_ups_blur_buf = lv_malloc(size * sizeof(uint16_t));
  73              		.loc 1 667 5 is_stmt 1 view .LVU11
  74              		.loc 1 667 49 is_stmt 0 view .LVU12
ARM GAS  /var/folders/qx/2_175_4n2s19vhvtspjhb3qh0000gn/T//ccioUrKE.s 			page 14


  75 001e 6600     		lsls	r6, r4, #1
  76              		.loc 1 667 34 view .LVU13
  77 0020 3046     		mov	r0, r6
  78              	.LVL5:
  79              		.loc 1 667 34 view .LVU14
  80 0022 FFF7FEFF 		bl	lv_malloc
  81              	.LVL6:
  82              		.loc 1 667 34 view .LVU15
  83 0026 0546     		mov	r5, r0
  84              	.LVL7:
 668:Drivers/lvgl/src/draw/sw/lv_draw_sw_box_shadow.c **** 
 669:Drivers/lvgl/src/draw/sw/lv_draw_sw_box_shadow.c ****     int32_t x;
  85              		.loc 1 669 5 is_stmt 1 view .LVU16
 670:Drivers/lvgl/src/draw/sw/lv_draw_sw_box_shadow.c ****     int32_t y;
  86              		.loc 1 670 5 view .LVU17
 671:Drivers/lvgl/src/draw/sw/lv_draw_sw_box_shadow.c **** 
 672:Drivers/lvgl/src/draw/sw/lv_draw_sw_box_shadow.c ****     uint16_t * sh_ups_tmp_buf = sh_ups_buf;
  87              		.loc 1 672 5 view .LVU18
 673:Drivers/lvgl/src/draw/sw/lv_draw_sw_box_shadow.c **** 
 674:Drivers/lvgl/src/draw/sw/lv_draw_sw_box_shadow.c ****     for(y = 0; y < size; y++) {
  88              		.loc 1 674 5 view .LVU19
 672:Drivers/lvgl/src/draw/sw/lv_draw_sw_box_shadow.c **** 
  89              		.loc 1 672 16 is_stmt 0 view .LVU20
  90 0028 BA46     		mov	r10, r7
  91              		.loc 1 674 11 view .LVU21
  92 002a 4FF0000B 		mov	fp, #0
  93              		.loc 1 674 5 view .LVU22
  94 002e 22E0     		b	.L3
  95              	.LVL8:
  96              	.L26:
  97              	.LBB25:
  98              	.LBB26:
 675:Drivers/lvgl/src/draw/sw/lv_draw_sw_box_shadow.c ****         int32_t v = sh_ups_tmp_buf[size - 1] * sw;
 676:Drivers/lvgl/src/draw/sw/lv_draw_sw_box_shadow.c ****         for(x = size - 1; x >= 0; x--) {
 677:Drivers/lvgl/src/draw/sw/lv_draw_sw_box_shadow.c ****             sh_ups_blur_buf[x] = v;
 678:Drivers/lvgl/src/draw/sw/lv_draw_sw_box_shadow.c **** 
 679:Drivers/lvgl/src/draw/sw/lv_draw_sw_box_shadow.c ****             /*Forget the right pixel*/
 680:Drivers/lvgl/src/draw/sw/lv_draw_sw_box_shadow.c ****             uint32_t right_val = 0;
  99              		.loc 1 680 22 view .LVU23
 100 0030 0021     		movs	r1, #0
 101              	.LVL9:
 102              	.L5:
 681:Drivers/lvgl/src/draw/sw/lv_draw_sw_box_shadow.c ****             if(x + s_right < size) right_val = sh_ups_tmp_buf[x + s_right];
 682:Drivers/lvgl/src/draw/sw/lv_draw_sw_box_shadow.c ****             v -= right_val;
 103              		.loc 1 682 13 is_stmt 1 view .LVU24
 104              		.loc 1 682 15 is_stmt 0 view .LVU25
 105 0032 521A     		subs	r2, r2, r1
 106              	.LVL10:
 683:Drivers/lvgl/src/draw/sw/lv_draw_sw_box_shadow.c **** 
 684:Drivers/lvgl/src/draw/sw/lv_draw_sw_box_shadow.c ****             /*Add the left pixel*/
 685:Drivers/lvgl/src/draw/sw/lv_draw_sw_box_shadow.c ****             uint32_t left_val;
 107              		.loc 1 685 13 is_stmt 1 view .LVU26
 686:Drivers/lvgl/src/draw/sw/lv_draw_sw_box_shadow.c ****             if(x - s_left - 1 < 0) left_val = sh_ups_tmp_buf[0];
 108              		.loc 1 686 13 view .LVU27
 109              		.loc 1 686 18 is_stmt 0 view .LVU28
 110 0034 A3EB0901 		sub	r1, r3, r9
 111              	.LVL11:
ARM GAS  /var/folders/qx/2_175_4n2s19vhvtspjhb3qh0000gn/T//ccioUrKE.s 			page 15


 112              		.loc 1 686 15 view .LVU29
 113 0038 0029     		cmp	r1, #0
 114 003a 11DD     		ble	.L29
 687:Drivers/lvgl/src/draw/sw/lv_draw_sw_box_shadow.c ****             else left_val = sh_ups_tmp_buf[x - s_left - 1];
 115              		.loc 1 687 18 is_stmt 1 view .LVU30
 116              		.loc 1 687 43 is_stmt 0 view .LVU31
 117 003c 01F10041 		add	r1, r1, #-2147483648
 118 0040 0139     		subs	r1, r1, #1
 119 0042 3AF81110 		ldrh	r1, [r10, r1, lsl #1]
 120              	.L7:
 121              	.LVL12:
 688:Drivers/lvgl/src/draw/sw/lv_draw_sw_box_shadow.c ****             v += left_val;
 122              		.loc 1 688 13 is_stmt 1 view .LVU32
 123              		.loc 1 688 15 is_stmt 0 view .LVU33
 124 0046 0A44     		add	r2, r2, r1
 125              	.LVL13:
 126              		.loc 1 688 15 view .LVU34
 127              	.LBE26:
 676:Drivers/lvgl/src/draw/sw/lv_draw_sw_box_shadow.c ****             sh_ups_blur_buf[x] = v;
 128              		.loc 1 676 36 is_stmt 1 discriminator 2 view .LVU35
 129 0048 013B     		subs	r3, r3, #1
 130              	.LVL14:
 131              	.L4:
 676:Drivers/lvgl/src/draw/sw/lv_draw_sw_box_shadow.c ****             sh_ups_blur_buf[x] = v;
 132              		.loc 1 676 29 discriminator 1 view .LVU36
 133 004a 002B     		cmp	r3, #0
 134 004c 0BDB     		blt	.L30
 135              	.LBB27:
 677:Drivers/lvgl/src/draw/sw/lv_draw_sw_box_shadow.c **** 
 136              		.loc 1 677 13 view .LVU37
 677:Drivers/lvgl/src/draw/sw/lv_draw_sw_box_shadow.c **** 
 137              		.loc 1 677 32 is_stmt 0 view .LVU38
 138 004e 25F81320 		strh	r2, [r5, r3, lsl #1]	@ movhi
 680:Drivers/lvgl/src/draw/sw/lv_draw_sw_box_shadow.c ****             if(x + s_right < size) right_val = sh_ups_tmp_buf[x + s_right];
 139              		.loc 1 680 13 is_stmt 1 view .LVU39
 140              	.LVL15:
 681:Drivers/lvgl/src/draw/sw/lv_draw_sw_box_shadow.c ****             v -= right_val;
 141              		.loc 1 681 13 view .LVU40
 681:Drivers/lvgl/src/draw/sw/lv_draw_sw_box_shadow.c ****             v -= right_val;
 142              		.loc 1 681 18 is_stmt 0 view .LVU41
 143 0052 03EB0801 		add	r1, r3, r8
 681:Drivers/lvgl/src/draw/sw/lv_draw_sw_box_shadow.c ****             v -= right_val;
 144              		.loc 1 681 15 view .LVU42
 145 0056 A142     		cmp	r1, r4
 146 0058 EADA     		bge	.L26
 681:Drivers/lvgl/src/draw/sw/lv_draw_sw_box_shadow.c ****             v -= right_val;
 147              		.loc 1 681 36 is_stmt 1 discriminator 1 view .LVU43
 681:Drivers/lvgl/src/draw/sw/lv_draw_sw_box_shadow.c ****             v -= right_val;
 148              		.loc 1 681 62 is_stmt 0 discriminator 1 view .LVU44
 149 005a 3AF81110 		ldrh	r1, [r10, r1, lsl #1]
 150              	.LVL16:
 681:Drivers/lvgl/src/draw/sw/lv_draw_sw_box_shadow.c ****             v -= right_val;
 151              		.loc 1 681 62 discriminator 1 view .LVU45
 152 005e E8E7     		b	.L5
 153              	.LVL17:
 154              	.L29:
 686:Drivers/lvgl/src/draw/sw/lv_draw_sw_box_shadow.c ****             else left_val = sh_ups_tmp_buf[x - s_left - 1];
ARM GAS  /var/folders/qx/2_175_4n2s19vhvtspjhb3qh0000gn/T//ccioUrKE.s 			page 16


 155              		.loc 1 686 36 is_stmt 1 discriminator 1 view .LVU46
 686:Drivers/lvgl/src/draw/sw/lv_draw_sw_box_shadow.c ****             else left_val = sh_ups_tmp_buf[x - s_left - 1];
 156              		.loc 1 686 61 is_stmt 0 discriminator 1 view .LVU47
 157 0060 BAF80010 		ldrh	r1, [r10]
 158              	.LVL18:
 686:Drivers/lvgl/src/draw/sw/lv_draw_sw_box_shadow.c ****             else left_val = sh_ups_tmp_buf[x - s_left - 1];
 159              		.loc 1 686 61 discriminator 1 view .LVU48
 160 0064 EFE7     		b	.L7
 161              	.LVL19:
 162              	.L30:
 686:Drivers/lvgl/src/draw/sw/lv_draw_sw_box_shadow.c ****             else left_val = sh_ups_tmp_buf[x - s_left - 1];
 163              		.loc 1 686 61 discriminator 1 view .LVU49
 164              	.LBE27:
 689:Drivers/lvgl/src/draw/sw/lv_draw_sw_box_shadow.c ****         }
 690:Drivers/lvgl/src/draw/sw/lv_draw_sw_box_shadow.c ****         lv_memcpy(sh_ups_tmp_buf, sh_ups_blur_buf, size * sizeof(uint16_t));
 165              		.loc 1 690 9 is_stmt 1 view .LVU50
 166 0066 3246     		mov	r2, r6
 167              	.LVL20:
 168              		.loc 1 690 9 is_stmt 0 view .LVU51
 169 0068 2946     		mov	r1, r5
 170 006a 5046     		mov	r0, r10
 171 006c FFF7FEFF 		bl	lv_memcpy
 172              	.LVL21:
 691:Drivers/lvgl/src/draw/sw/lv_draw_sw_box_shadow.c ****         sh_ups_tmp_buf += size;
 173              		.loc 1 691 9 is_stmt 1 view .LVU52
 174              		.loc 1 691 24 is_stmt 0 view .LVU53
 175 0070 B244     		add	r10, r10, r6
 176              	.LVL22:
 177              		.loc 1 691 24 view .LVU54
 178              	.LBE25:
 674:Drivers/lvgl/src/draw/sw/lv_draw_sw_box_shadow.c ****         int32_t v = sh_ups_tmp_buf[size - 1] * sw;
 179              		.loc 1 674 27 is_stmt 1 discriminator 2 view .LVU55
 180 0072 0BF1010B 		add	fp, fp, #1
 181              	.LVL23:
 182              	.L3:
 674:Drivers/lvgl/src/draw/sw/lv_draw_sw_box_shadow.c ****         int32_t v = sh_ups_tmp_buf[size - 1] * sw;
 183              		.loc 1 674 18 discriminator 1 view .LVU56
 184 0076 A345     		cmp	fp, r4
 185 0078 09DA     		bge	.L31
 186              	.LBB28:
 675:Drivers/lvgl/src/draw/sw/lv_draw_sw_box_shadow.c ****         for(x = size - 1; x >= 0; x--) {
 187              		.loc 1 675 9 view .LVU57
 675:Drivers/lvgl/src/draw/sw/lv_draw_sw_box_shadow.c ****         for(x = size - 1; x >= 0; x--) {
 188              		.loc 1 675 35 is_stmt 0 view .LVU58
 189 007a 04F10043 		add	r3, r4, #-2147483648
 190 007e 013B     		subs	r3, r3, #1
 191 0080 3AF81320 		ldrh	r2, [r10, r3, lsl #1]
 675:Drivers/lvgl/src/draw/sw/lv_draw_sw_box_shadow.c ****         for(x = size - 1; x >= 0; x--) {
 192              		.loc 1 675 17 view .LVU59
 193 0084 019B     		ldr	r3, [sp, #4]
 194 0086 03FB02F2 		mul	r2, r3, r2
 195              	.LVL24:
 676:Drivers/lvgl/src/draw/sw/lv_draw_sw_box_shadow.c ****             sh_ups_blur_buf[x] = v;
 196              		.loc 1 676 9 is_stmt 1 view .LVU60
 676:Drivers/lvgl/src/draw/sw/lv_draw_sw_box_shadow.c ****             sh_ups_blur_buf[x] = v;
 197              		.loc 1 676 15 is_stmt 0 view .LVU61
 198 008a 631E     		subs	r3, r4, #1
ARM GAS  /var/folders/qx/2_175_4n2s19vhvtspjhb3qh0000gn/T//ccioUrKE.s 			page 17


 199              	.LVL25:
 676:Drivers/lvgl/src/draw/sw/lv_draw_sw_box_shadow.c ****             sh_ups_blur_buf[x] = v;
 200              		.loc 1 676 9 view .LVU62
 201 008c DDE7     		b	.L4
 202              	.LVL26:
 203              	.L31:
 676:Drivers/lvgl/src/draw/sw/lv_draw_sw_box_shadow.c ****             sh_ups_blur_buf[x] = v;
 204              		.loc 1 676 9 view .LVU63
 205              	.LBE28:
 692:Drivers/lvgl/src/draw/sw/lv_draw_sw_box_shadow.c ****     }
 693:Drivers/lvgl/src/draw/sw/lv_draw_sw_box_shadow.c **** 
 694:Drivers/lvgl/src/draw/sw/lv_draw_sw_box_shadow.c ****     /*Vertical blur*/
 695:Drivers/lvgl/src/draw/sw/lv_draw_sw_box_shadow.c ****     uint32_t i;
 206              		.loc 1 695 5 is_stmt 1 view .LVU64
 696:Drivers/lvgl/src/draw/sw/lv_draw_sw_box_shadow.c ****     uint32_t max_v = LV_OPA_COVER << SHADOW_UPSCALE_SHIFT;
 207              		.loc 1 696 5 view .LVU65
 697:Drivers/lvgl/src/draw/sw/lv_draw_sw_box_shadow.c ****     uint32_t max_v_div = max_v / sw;
 208              		.loc 1 697 5 view .LVU66
 209              		.loc 1 697 14 is_stmt 0 view .LVU67
 210 008e 4FF47F50 		mov	r0, #16320
 211 0092 019B     		ldr	r3, [sp, #4]
 212 0094 B0FBF3F0 		udiv	r0, r0, r3
 213              	.LVL27:
 698:Drivers/lvgl/src/draw/sw/lv_draw_sw_box_shadow.c ****     for(i = 0; i < (uint32_t)size * size; i++) {
 214              		.loc 1 698 5 is_stmt 1 view .LVU68
 215              		.loc 1 698 11 is_stmt 0 view .LVU69
 216 0098 0023     		movs	r3, #0
 217              		.loc 1 698 5 view .LVU70
 218 009a 01E0     		b	.L10
 219              	.LVL28:
 220              	.L33:
 699:Drivers/lvgl/src/draw/sw/lv_draw_sw_box_shadow.c ****         if(sh_ups_buf[i] == 0) continue;
 700:Drivers/lvgl/src/draw/sw/lv_draw_sw_box_shadow.c ****         else if(sh_ups_buf[i] == max_v) sh_ups_buf[i] = max_v_div;
 221              		.loc 1 700 41 is_stmt 1 discriminator 1 view .LVU71
 222              		.loc 1 700 55 is_stmt 0 discriminator 1 view .LVU72
 223 009c 7852     		strh	r0, [r7, r1]	@ movhi
 224              	.L11:
 698:Drivers/lvgl/src/draw/sw/lv_draw_sw_box_shadow.c ****     for(i = 0; i < (uint32_t)size * size; i++) {
 225              		.loc 1 698 44 is_stmt 1 discriminator 2 view .LVU73
 226 009e 0133     		adds	r3, r3, #1
 227              	.LVL29:
 228              	.L10:
 698:Drivers/lvgl/src/draw/sw/lv_draw_sw_box_shadow.c ****     for(i = 0; i < (uint32_t)size * size; i++) {
 229              		.loc 1 698 18 discriminator 1 view .LVU74
 698:Drivers/lvgl/src/draw/sw/lv_draw_sw_box_shadow.c ****     for(i = 0; i < (uint32_t)size * size; i++) {
 230              		.loc 1 698 35 is_stmt 0 discriminator 1 view .LVU75
 231 00a0 04FB04F2 		mul	r2, r4, r4
 698:Drivers/lvgl/src/draw/sw/lv_draw_sw_box_shadow.c ****     for(i = 0; i < (uint32_t)size * size; i++) {
 232              		.loc 1 698 18 discriminator 1 view .LVU76
 233 00a4 9A42     		cmp	r2, r3
 234 00a6 0DD9     		bls	.L32
 699:Drivers/lvgl/src/draw/sw/lv_draw_sw_box_shadow.c ****         if(sh_ups_buf[i] == 0) continue;
 235              		.loc 1 699 9 is_stmt 1 view .LVU77
 699:Drivers/lvgl/src/draw/sw/lv_draw_sw_box_shadow.c ****         if(sh_ups_buf[i] == 0) continue;
 236              		.loc 1 699 22 is_stmt 0 view .LVU78
 237 00a8 5900     		lsls	r1, r3, #1
 238 00aa 37F81320 		ldrh	r2, [r7, r3, lsl #1]
ARM GAS  /var/folders/qx/2_175_4n2s19vhvtspjhb3qh0000gn/T//ccioUrKE.s 			page 18


 699:Drivers/lvgl/src/draw/sw/lv_draw_sw_box_shadow.c ****         if(sh_ups_buf[i] == 0) continue;
 239              		.loc 1 699 11 view .LVU79
 240 00ae 002A     		cmp	r2, #0
 241 00b0 F5D0     		beq	.L11
 242              		.loc 1 700 14 is_stmt 1 view .LVU80
 243              		.loc 1 700 16 is_stmt 0 view .LVU81
 244 00b2 B2F57F5F 		cmp	r2, #16320
 245 00b6 F1D0     		beq	.L33
 701:Drivers/lvgl/src/draw/sw/lv_draw_sw_box_shadow.c ****         else sh_ups_buf[i] = sh_ups_buf[i] / sw;
 246              		.loc 1 701 14 is_stmt 1 view .LVU82
 247              		.loc 1 701 44 is_stmt 0 view .LVU83
 248 00b8 0199     		ldr	r1, [sp, #4]
 249 00ba 92FBF1F2 		sdiv	r2, r2, r1
 250              		.loc 1 701 28 view .LVU84
 251 00be 27F81320 		strh	r2, [r7, r3, lsl #1]	@ movhi
 252 00c2 ECE7     		b	.L11
 253              	.L32:
 702:Drivers/lvgl/src/draw/sw/lv_draw_sw_box_shadow.c ****     }
 703:Drivers/lvgl/src/draw/sw/lv_draw_sw_box_shadow.c **** 
 704:Drivers/lvgl/src/draw/sw/lv_draw_sw_box_shadow.c ****     for(x = 0; x < size; x++) {
 254              		.loc 1 704 11 view .LVU85
 255 00c4 4FF0000C 		mov	ip, #0
 256 00c8 35E0     		b	.L14
 257              	.LVL30:
 258              	.L27:
 259              	.LBB29:
 260              	.LBB30:
 705:Drivers/lvgl/src/draw/sw/lv_draw_sw_box_shadow.c ****         sh_ups_tmp_buf = &sh_ups_buf[x];
 706:Drivers/lvgl/src/draw/sw/lv_draw_sw_box_shadow.c ****         int32_t v = sh_ups_tmp_buf[0] * sw;
 707:Drivers/lvgl/src/draw/sw/lv_draw_sw_box_shadow.c ****         for(y = 0; y < size ; y++, sh_ups_tmp_buf += size) {
 708:Drivers/lvgl/src/draw/sw/lv_draw_sw_box_shadow.c ****             sh_ups_blur_buf[y] = v < 0 ? 0 : (v >> SHADOW_UPSCALE_SHIFT);
 261              		.loc 1 708 32 discriminator 2 view .LVU86
 262 00ca 4FF0000E 		mov	lr, #0
 263 00ce 10E0     		b	.L16
 264              	.L35:
 709:Drivers/lvgl/src/draw/sw/lv_draw_sw_box_shadow.c **** 
 710:Drivers/lvgl/src/draw/sw/lv_draw_sw_box_shadow.c ****             /*Forget the top pixel*/
 711:Drivers/lvgl/src/draw/sw/lv_draw_sw_box_shadow.c ****             uint32_t top_val;
 712:Drivers/lvgl/src/draw/sw/lv_draw_sw_box_shadow.c ****             if(y - s_right <= 0) top_val = sh_ups_tmp_buf[0];
 265              		.loc 1 712 34 is_stmt 1 discriminator 1 view .LVU87
 266              		.loc 1 712 58 is_stmt 0 discriminator 1 view .LVU88
 267 00d0 B0F800E0 		ldrh	lr, [r0]
 268              	.LVL31:
 269              		.loc 1 712 58 discriminator 1 view .LVU89
 270 00d4 18E0     		b	.L18
 271              	.LVL32:
 272              	.L19:
 713:Drivers/lvgl/src/draw/sw/lv_draw_sw_box_shadow.c ****             else top_val = sh_ups_buf[(y - s_right) * size + x];
 714:Drivers/lvgl/src/draw/sw/lv_draw_sw_box_shadow.c ****             v -= top_val;
 715:Drivers/lvgl/src/draw/sw/lv_draw_sw_box_shadow.c **** 
 716:Drivers/lvgl/src/draw/sw/lv_draw_sw_box_shadow.c ****             /*Add the bottom pixel*/
 717:Drivers/lvgl/src/draw/sw/lv_draw_sw_box_shadow.c ****             uint32_t bottom_val;
 718:Drivers/lvgl/src/draw/sw/lv_draw_sw_box_shadow.c ****             if(y + s_left + 1 < size) bottom_val = sh_ups_buf[(y + s_left + 1) * size + x];
 719:Drivers/lvgl/src/draw/sw/lv_draw_sw_box_shadow.c ****             else bottom_val = sh_ups_buf[(size - 1) * size + x];
 273              		.loc 1 719 18 is_stmt 1 view .LVU90
 274              		.loc 1 719 48 is_stmt 0 view .LVU91
 275 00d6 621E     		subs	r2, r4, #1
ARM GAS  /var/folders/qx/2_175_4n2s19vhvtspjhb3qh0000gn/T//ccioUrKE.s 			page 19


 276              		.loc 1 719 60 view .LVU92
 277 00d8 04FB02C2 		mla	r2, r4, r2, ip
 278              		.loc 1 719 41 view .LVU93
 279 00dc 37F81220 		ldrh	r2, [r7, r2, lsl #1]
 280              	.L20:
 281              	.LVL33:
 720:Drivers/lvgl/src/draw/sw/lv_draw_sw_box_shadow.c ****             v += bottom_val;
 282              		.loc 1 720 13 is_stmt 1 view .LVU94
 283              		.loc 1 720 15 is_stmt 0 view .LVU95
 284 00e0 7244     		add	r2, r2, lr
 285              	.LVL34:
 286              		.loc 1 720 15 view .LVU96
 287              	.LBE30:
 707:Drivers/lvgl/src/draw/sw/lv_draw_sw_box_shadow.c ****             sh_ups_blur_buf[y] = v < 0 ? 0 : (v >> SHADOW_UPSCALE_SHIFT);
 288              		.loc 1 707 34 is_stmt 1 discriminator 2 view .LVU97
 707:Drivers/lvgl/src/draw/sw/lv_draw_sw_box_shadow.c ****             sh_ups_blur_buf[y] = v < 0 ? 0 : (v >> SHADOW_UPSCALE_SHIFT);
 289              		.loc 1 707 32 is_stmt 0 discriminator 2 view .LVU98
 290 00e2 0133     		adds	r3, r3, #1
 291              	.LVL35:
 707:Drivers/lvgl/src/draw/sw/lv_draw_sw_box_shadow.c ****             sh_ups_blur_buf[y] = v < 0 ? 0 : (v >> SHADOW_UPSCALE_SHIFT);
 292              		.loc 1 707 51 discriminator 2 view .LVU99
 293 00e4 3044     		add	r0, r0, r6
 294              	.LVL36:
 295              	.L15:
 707:Drivers/lvgl/src/draw/sw/lv_draw_sw_box_shadow.c ****             sh_ups_blur_buf[y] = v < 0 ? 0 : (v >> SHADOW_UPSCALE_SHIFT);
 296              		.loc 1 707 22 is_stmt 1 discriminator 1 view .LVU100
 297 00e6 A342     		cmp	r3, r4
 298 00e8 1ADA     		bge	.L34
 299              	.LBB31:
 708:Drivers/lvgl/src/draw/sw/lv_draw_sw_box_shadow.c **** 
 300              		.loc 1 708 13 view .LVU101
 708:Drivers/lvgl/src/draw/sw/lv_draw_sw_box_shadow.c **** 
 301              		.loc 1 708 32 is_stmt 0 view .LVU102
 302 00ea 002A     		cmp	r2, #0
 303 00ec EDDB     		blt	.L27
 708:Drivers/lvgl/src/draw/sw/lv_draw_sw_box_shadow.c **** 
 304              		.loc 1 708 32 discriminator 1 view .LVU103
 305 00ee C2F38F1E 		ubfx	lr, r2, #6, #16
 306              	.L16:
 708:Drivers/lvgl/src/draw/sw/lv_draw_sw_box_shadow.c **** 
 307              		.loc 1 708 32 discriminator 4 view .LVU104
 308 00f2 25F813E0 		strh	lr, [r5, r3, lsl #1]	@ movhi
 711:Drivers/lvgl/src/draw/sw/lv_draw_sw_box_shadow.c ****             if(y - s_right <= 0) top_val = sh_ups_tmp_buf[0];
 309              		.loc 1 711 13 is_stmt 1 view .LVU105
 712:Drivers/lvgl/src/draw/sw/lv_draw_sw_box_shadow.c ****             else top_val = sh_ups_buf[(y - s_right) * size + x];
 310              		.loc 1 712 13 view .LVU106
 712:Drivers/lvgl/src/draw/sw/lv_draw_sw_box_shadow.c ****             else top_val = sh_ups_buf[(y - s_right) * size + x];
 311              		.loc 1 712 18 is_stmt 0 view .LVU107
 312 00f6 A3EB080E 		sub	lr, r3, r8
 712:Drivers/lvgl/src/draw/sw/lv_draw_sw_box_shadow.c ****             else top_val = sh_ups_buf[(y - s_right) * size + x];
 313              		.loc 1 712 15 view .LVU108
 314 00fa BEF1000F 		cmp	lr, #0
 315 00fe E7DD     		ble	.L35
 713:Drivers/lvgl/src/draw/sw/lv_draw_sw_box_shadow.c ****             v -= top_val;
 316              		.loc 1 713 18 is_stmt 1 view .LVU109
 713:Drivers/lvgl/src/draw/sw/lv_draw_sw_box_shadow.c ****             v -= top_val;
 317              		.loc 1 713 60 is_stmt 0 view .LVU110
ARM GAS  /var/folders/qx/2_175_4n2s19vhvtspjhb3qh0000gn/T//ccioUrKE.s 			page 20


 318 0100 04FB0ECE 		mla	lr, r4, lr, ip
 713:Drivers/lvgl/src/draw/sw/lv_draw_sw_box_shadow.c ****             v -= top_val;
 319              		.loc 1 713 38 view .LVU111
 320 0104 37F81EE0 		ldrh	lr, [r7, lr, lsl #1]
 321              	.L18:
 322              	.LVL37:
 714:Drivers/lvgl/src/draw/sw/lv_draw_sw_box_shadow.c **** 
 323              		.loc 1 714 13 is_stmt 1 view .LVU112
 714:Drivers/lvgl/src/draw/sw/lv_draw_sw_box_shadow.c **** 
 324              		.loc 1 714 15 is_stmt 0 view .LVU113
 325 0108 A2EB0E0E 		sub	lr, r2, lr
 326              	.LVL38:
 717:Drivers/lvgl/src/draw/sw/lv_draw_sw_box_shadow.c ****             if(y + s_left + 1 < size) bottom_val = sh_ups_buf[(y + s_left + 1) * size + x];
 327              		.loc 1 717 13 is_stmt 1 view .LVU114
 718:Drivers/lvgl/src/draw/sw/lv_draw_sw_box_shadow.c ****             else bottom_val = sh_ups_buf[(size - 1) * size + x];
 328              		.loc 1 718 13 view .LVU115
 718:Drivers/lvgl/src/draw/sw/lv_draw_sw_box_shadow.c ****             else bottom_val = sh_ups_buf[(size - 1) * size + x];
 329              		.loc 1 718 18 is_stmt 0 view .LVU116
 330 010c 09EB0302 		add	r2, r9, r3
 718:Drivers/lvgl/src/draw/sw/lv_draw_sw_box_shadow.c ****             else bottom_val = sh_ups_buf[(size - 1) * size + x];
 331              		.loc 1 718 27 view .LVU117
 332 0110 0132     		adds	r2, r2, #1
 718:Drivers/lvgl/src/draw/sw/lv_draw_sw_box_shadow.c ****             else bottom_val = sh_ups_buf[(size - 1) * size + x];
 333              		.loc 1 718 15 view .LVU118
 334 0112 A242     		cmp	r2, r4
 335 0114 DFDA     		bge	.L19
 718:Drivers/lvgl/src/draw/sw/lv_draw_sw_box_shadow.c ****             else bottom_val = sh_ups_buf[(size - 1) * size + x];
 336              		.loc 1 718 39 is_stmt 1 discriminator 1 view .LVU119
 718:Drivers/lvgl/src/draw/sw/lv_draw_sw_box_shadow.c ****             else bottom_val = sh_ups_buf[(size - 1) * size + x];
 337              		.loc 1 718 87 is_stmt 0 discriminator 1 view .LVU120
 338 0116 04FB02C2 		mla	r2, r4, r2, ip
 718:Drivers/lvgl/src/draw/sw/lv_draw_sw_box_shadow.c ****             else bottom_val = sh_ups_buf[(size - 1) * size + x];
 339              		.loc 1 718 62 discriminator 1 view .LVU121
 340 011a 37F81220 		ldrh	r2, [r7, r2, lsl #1]
 341              	.LVL39:
 718:Drivers/lvgl/src/draw/sw/lv_draw_sw_box_shadow.c ****             else bottom_val = sh_ups_buf[(size - 1) * size + x];
 342              		.loc 1 718 62 discriminator 1 view .LVU122
 343 011e DFE7     		b	.L20
 344              	.LVL40:
 345              	.L34:
 718:Drivers/lvgl/src/draw/sw/lv_draw_sw_box_shadow.c ****             else bottom_val = sh_ups_buf[(size - 1) * size + x];
 346              		.loc 1 718 62 discriminator 1 view .LVU123
 347              	.LBE31:
 721:Drivers/lvgl/src/draw/sw/lv_draw_sw_box_shadow.c ****         }
 722:Drivers/lvgl/src/draw/sw/lv_draw_sw_box_shadow.c **** 
 723:Drivers/lvgl/src/draw/sw/lv_draw_sw_box_shadow.c ****         /*Write back the result into `sh_ups_buf`*/
 724:Drivers/lvgl/src/draw/sw/lv_draw_sw_box_shadow.c ****         sh_ups_tmp_buf = &sh_ups_buf[x];
 725:Drivers/lvgl/src/draw/sw/lv_draw_sw_box_shadow.c ****         for(y = 0; y < size; y++, sh_ups_tmp_buf += size) {
 348              		.loc 1 725 15 view .LVU124
 349 0120 0023     		movs	r3, #0
 350              	.LVL41:
 351              		.loc 1 725 15 view .LVU125
 352 0122 04E0     		b	.L22
 353              	.LVL42:
 354              	.L23:
 726:Drivers/lvgl/src/draw/sw/lv_draw_sw_box_shadow.c ****             (*sh_ups_tmp_buf) = sh_ups_blur_buf[y];
 355              		.loc 1 726 13 is_stmt 1 view .LVU126
ARM GAS  /var/folders/qx/2_175_4n2s19vhvtspjhb3qh0000gn/T//ccioUrKE.s 			page 21


 356              		.loc 1 726 48 is_stmt 0 view .LVU127
 357 0124 35F81320 		ldrh	r2, [r5, r3, lsl #1]
 358              		.loc 1 726 31 view .LVU128
 359 0128 0A80     		strh	r2, [r1]	@ movhi
 725:Drivers/lvgl/src/draw/sw/lv_draw_sw_box_shadow.c ****             (*sh_ups_tmp_buf) = sh_ups_blur_buf[y];
 360              		.loc 1 725 33 is_stmt 1 discriminator 3 view .LVU129
 725:Drivers/lvgl/src/draw/sw/lv_draw_sw_box_shadow.c ****             (*sh_ups_tmp_buf) = sh_ups_blur_buf[y];
 361              		.loc 1 725 31 is_stmt 0 discriminator 3 view .LVU130
 362 012a 0133     		adds	r3, r3, #1
 363              	.LVL43:
 725:Drivers/lvgl/src/draw/sw/lv_draw_sw_box_shadow.c ****             (*sh_ups_tmp_buf) = sh_ups_blur_buf[y];
 364              		.loc 1 725 50 discriminator 3 view .LVU131
 365 012c 3144     		add	r1, r1, r6
 366              	.LVL44:
 367              	.L22:
 725:Drivers/lvgl/src/draw/sw/lv_draw_sw_box_shadow.c ****             (*sh_ups_tmp_buf) = sh_ups_blur_buf[y];
 368              		.loc 1 725 22 is_stmt 1 discriminator 1 view .LVU132
 369 012e A342     		cmp	r3, r4
 370 0130 F8DB     		blt	.L23
 371              	.LBE29:
 704:Drivers/lvgl/src/draw/sw/lv_draw_sw_box_shadow.c ****         sh_ups_tmp_buf = &sh_ups_buf[x];
 372              		.loc 1 704 27 discriminator 2 view .LVU133
 373 0132 0CF1010C 		add	ip, ip, #1
 374              	.LVL45:
 375              	.L14:
 704:Drivers/lvgl/src/draw/sw/lv_draw_sw_box_shadow.c ****         sh_ups_tmp_buf = &sh_ups_buf[x];
 376              		.loc 1 704 18 discriminator 1 view .LVU134
 377 0136 A445     		cmp	ip, r4
 378 0138 09DA     		bge	.L36
 379              	.LBB32:
 705:Drivers/lvgl/src/draw/sw/lv_draw_sw_box_shadow.c ****         int32_t v = sh_ups_tmp_buf[0] * sw;
 380              		.loc 1 705 9 view .LVU135
 705:Drivers/lvgl/src/draw/sw/lv_draw_sw_box_shadow.c ****         int32_t v = sh_ups_tmp_buf[0] * sw;
 381              		.loc 1 705 24 is_stmt 0 view .LVU136
 382 013a 07EB4C01 		add	r1, r7, ip, lsl #1
 383              	.LVL46:
 706:Drivers/lvgl/src/draw/sw/lv_draw_sw_box_shadow.c ****         for(y = 0; y < size ; y++, sh_ups_tmp_buf += size) {
 384              		.loc 1 706 9 is_stmt 1 view .LVU137
 706:Drivers/lvgl/src/draw/sw/lv_draw_sw_box_shadow.c ****         for(y = 0; y < size ; y++, sh_ups_tmp_buf += size) {
 385              		.loc 1 706 35 is_stmt 0 view .LVU138
 386 013e 37F81C20 		ldrh	r2, [r7, ip, lsl #1]
 706:Drivers/lvgl/src/draw/sw/lv_draw_sw_box_shadow.c ****         for(y = 0; y < size ; y++, sh_ups_tmp_buf += size) {
 387              		.loc 1 706 17 view .LVU139
 388 0142 019B     		ldr	r3, [sp, #4]
 389 0144 03FB02F2 		mul	r2, r3, r2
 390              	.LVL47:
 707:Drivers/lvgl/src/draw/sw/lv_draw_sw_box_shadow.c ****             sh_ups_blur_buf[y] = v < 0 ? 0 : (v >> SHADOW_UPSCALE_SHIFT);
 391              		.loc 1 707 9 is_stmt 1 view .LVU140
 705:Drivers/lvgl/src/draw/sw/lv_draw_sw_box_shadow.c ****         int32_t v = sh_ups_tmp_buf[0] * sw;
 392              		.loc 1 705 24 is_stmt 0 view .LVU141
 393 0148 0846     		mov	r0, r1
 707:Drivers/lvgl/src/draw/sw/lv_draw_sw_box_shadow.c ****             sh_ups_blur_buf[y] = v < 0 ? 0 : (v >> SHADOW_UPSCALE_SHIFT);
 394              		.loc 1 707 15 view .LVU142
 395 014a 0023     		movs	r3, #0
 707:Drivers/lvgl/src/draw/sw/lv_draw_sw_box_shadow.c ****             sh_ups_blur_buf[y] = v < 0 ? 0 : (v >> SHADOW_UPSCALE_SHIFT);
 396              		.loc 1 707 9 view .LVU143
 397 014c CBE7     		b	.L15
ARM GAS  /var/folders/qx/2_175_4n2s19vhvtspjhb3qh0000gn/T//ccioUrKE.s 			page 22


 398              	.LVL48:
 399              	.L36:
 707:Drivers/lvgl/src/draw/sw/lv_draw_sw_box_shadow.c ****             sh_ups_blur_buf[y] = v < 0 ? 0 : (v >> SHADOW_UPSCALE_SHIFT);
 400              		.loc 1 707 9 view .LVU144
 401              	.LBE32:
 727:Drivers/lvgl/src/draw/sw/lv_draw_sw_box_shadow.c ****         }
 728:Drivers/lvgl/src/draw/sw/lv_draw_sw_box_shadow.c ****     }
 729:Drivers/lvgl/src/draw/sw/lv_draw_sw_box_shadow.c **** 
 730:Drivers/lvgl/src/draw/sw/lv_draw_sw_box_shadow.c ****     lv_free(sh_ups_blur_buf);
 402              		.loc 1 730 5 is_stmt 1 view .LVU145
 403 014e 2846     		mov	r0, r5
 404 0150 FFF7FEFF 		bl	lv_free
 405              	.LVL49:
 731:Drivers/lvgl/src/draw/sw/lv_draw_sw_box_shadow.c **** }
 406              		.loc 1 731 1 is_stmt 0 view .LVU146
 407 0154 03B0     		add	sp, sp, #12
 408              	.LCFI2:
 409              		.cfi_def_cfa_offset 36
 410              		@ sp needed
 411 0156 BDE8F08F 		pop	{r4, r5, r6, r7, r8, r9, r10, fp, pc}
 412              		.loc 1 731 1 view .LVU147
 413              		.cfi_endproc
 414              	.LFE195:
 416              		.section	.text.shadow_draw_corner_buf,"ax",%progbits
 417              		.align	1
 418              		.syntax unified
 419              		.thumb
 420              		.thumb_func
 422              	shadow_draw_corner_buf:
 423              	.LVL50:
 424              	.LFB194:
 575:Drivers/lvgl/src/draw/sw/lv_draw_sw_box_shadow.c ****     int32_t sw_ori = sw;
 425              		.loc 1 575 1 is_stmt 1 view -0
 426              		.cfi_startproc
 427              		@ args = 0, pretend = 0, frame = 56
 428              		@ frame_needed = 0, uses_anonymous_args = 0
 575:Drivers/lvgl/src/draw/sw/lv_draw_sw_box_shadow.c ****     int32_t sw_ori = sw;
 429              		.loc 1 575 1 is_stmt 0 view .LVU149
 430 0000 2DE9F04F 		push	{r4, r5, r6, r7, r8, r9, r10, fp, lr}
 431              	.LCFI3:
 432              		.cfi_def_cfa_offset 36
 433              		.cfi_offset 4, -36
 434              		.cfi_offset 5, -32
 435              		.cfi_offset 6, -28
 436              		.cfi_offset 7, -24
 437              		.cfi_offset 8, -20
 438              		.cfi_offset 9, -16
 439              		.cfi_offset 10, -12
 440              		.cfi_offset 11, -8
 441              		.cfi_offset 14, -4
 442 0004 91B0     		sub	sp, sp, #68
 443              	.LCFI4:
 444              		.cfi_def_cfa_offset 104
 445 0006 0646     		mov	r6, r0
 446 0008 8846     		mov	r8, r1
 447 000a 9246     		mov	r10, r2
 448 000c 1F46     		mov	r7, r3
ARM GAS  /var/folders/qx/2_175_4n2s19vhvtspjhb3qh0000gn/T//ccioUrKE.s 			page 23


 576:Drivers/lvgl/src/draw/sw/lv_draw_sw_box_shadow.c ****     int32_t size = sw_ori  + r;
 449              		.loc 1 576 5 is_stmt 1 view .LVU150
 450              	.LVL51:
 577:Drivers/lvgl/src/draw/sw/lv_draw_sw_box_shadow.c **** 
 451              		.loc 1 577 5 view .LVU151
 577:Drivers/lvgl/src/draw/sw/lv_draw_sw_box_shadow.c **** 
 452              		.loc 1 577 13 is_stmt 0 view .LVU152
 453 000e D418     		adds	r4, r2, r3
 454              	.LVL52:
 579:Drivers/lvgl/src/draw/sw/lv_draw_sw_box_shadow.c ****     lv_area_copy(&sh_area, coords);
 455              		.loc 1 579 5 is_stmt 1 view .LVU153
 580:Drivers/lvgl/src/draw/sw/lv_draw_sw_box_shadow.c ****     sh_area.x2 = sw / 2 + r - 1  - ((sw & 1) ? 0 : 1);
 456              		.loc 1 580 5 view .LVU154
 457              	.LBB33:
 458              	.LBI33:
 459              		.file 2 "Drivers/lvgl/src/draw/sw/../../misc/lv_area.h"
   1:Drivers/lvgl/src/draw/sw/../../misc/lv_area.h **** /**
   2:Drivers/lvgl/src/draw/sw/../../misc/lv_area.h ****  * @file lv_area.h
   3:Drivers/lvgl/src/draw/sw/../../misc/lv_area.h ****  *
   4:Drivers/lvgl/src/draw/sw/../../misc/lv_area.h ****  */
   5:Drivers/lvgl/src/draw/sw/../../misc/lv_area.h **** 
   6:Drivers/lvgl/src/draw/sw/../../misc/lv_area.h **** #ifndef LV_AREA_H
   7:Drivers/lvgl/src/draw/sw/../../misc/lv_area.h **** #define LV_AREA_H
   8:Drivers/lvgl/src/draw/sw/../../misc/lv_area.h **** 
   9:Drivers/lvgl/src/draw/sw/../../misc/lv_area.h **** #ifdef __cplusplus
  10:Drivers/lvgl/src/draw/sw/../../misc/lv_area.h **** extern "C" {
  11:Drivers/lvgl/src/draw/sw/../../misc/lv_area.h **** #endif
  12:Drivers/lvgl/src/draw/sw/../../misc/lv_area.h **** 
  13:Drivers/lvgl/src/draw/sw/../../misc/lv_area.h **** /*********************
  14:Drivers/lvgl/src/draw/sw/../../misc/lv_area.h ****  *      INCLUDES
  15:Drivers/lvgl/src/draw/sw/../../misc/lv_area.h ****  *********************/
  16:Drivers/lvgl/src/draw/sw/../../misc/lv_area.h **** #include "../lv_conf_internal.h"
  17:Drivers/lvgl/src/draw/sw/../../misc/lv_area.h **** #include "lv_types.h"
  18:Drivers/lvgl/src/draw/sw/../../misc/lv_area.h **** #include "lv_math.h"
  19:Drivers/lvgl/src/draw/sw/../../misc/lv_area.h **** 
  20:Drivers/lvgl/src/draw/sw/../../misc/lv_area.h **** /*********************
  21:Drivers/lvgl/src/draw/sw/../../misc/lv_area.h ****  *      DEFINES
  22:Drivers/lvgl/src/draw/sw/../../misc/lv_area.h ****  *********************/
  23:Drivers/lvgl/src/draw/sw/../../misc/lv_area.h **** 
  24:Drivers/lvgl/src/draw/sw/../../misc/lv_area.h **** /**********************
  25:Drivers/lvgl/src/draw/sw/../../misc/lv_area.h ****  *      TYPEDEFS
  26:Drivers/lvgl/src/draw/sw/../../misc/lv_area.h ****  **********************/
  27:Drivers/lvgl/src/draw/sw/../../misc/lv_area.h **** 
  28:Drivers/lvgl/src/draw/sw/../../misc/lv_area.h **** /**
  29:Drivers/lvgl/src/draw/sw/../../misc/lv_area.h ****  * Represents a point on the screen.
  30:Drivers/lvgl/src/draw/sw/../../misc/lv_area.h ****  */
  31:Drivers/lvgl/src/draw/sw/../../misc/lv_area.h **** typedef struct {
  32:Drivers/lvgl/src/draw/sw/../../misc/lv_area.h ****     int32_t x;
  33:Drivers/lvgl/src/draw/sw/../../misc/lv_area.h ****     int32_t y;
  34:Drivers/lvgl/src/draw/sw/../../misc/lv_area.h **** } lv_point_t;
  35:Drivers/lvgl/src/draw/sw/../../misc/lv_area.h **** 
  36:Drivers/lvgl/src/draw/sw/../../misc/lv_area.h **** typedef struct {
  37:Drivers/lvgl/src/draw/sw/../../misc/lv_area.h ****     lv_value_precise_t x;
  38:Drivers/lvgl/src/draw/sw/../../misc/lv_area.h ****     lv_value_precise_t y;
  39:Drivers/lvgl/src/draw/sw/../../misc/lv_area.h **** } lv_point_precise_t;
  40:Drivers/lvgl/src/draw/sw/../../misc/lv_area.h **** 
  41:Drivers/lvgl/src/draw/sw/../../misc/lv_area.h **** /** Represents an area of the screen.*/
ARM GAS  /var/folders/qx/2_175_4n2s19vhvtspjhb3qh0000gn/T//ccioUrKE.s 			page 24


  42:Drivers/lvgl/src/draw/sw/../../misc/lv_area.h **** typedef struct {
  43:Drivers/lvgl/src/draw/sw/../../misc/lv_area.h ****     int32_t x1;
  44:Drivers/lvgl/src/draw/sw/../../misc/lv_area.h ****     int32_t y1;
  45:Drivers/lvgl/src/draw/sw/../../misc/lv_area.h ****     int32_t x2;
  46:Drivers/lvgl/src/draw/sw/../../misc/lv_area.h ****     int32_t y2;
  47:Drivers/lvgl/src/draw/sw/../../misc/lv_area.h **** } lv_area_t;
  48:Drivers/lvgl/src/draw/sw/../../misc/lv_area.h **** 
  49:Drivers/lvgl/src/draw/sw/../../misc/lv_area.h **** /** Alignments*/
  50:Drivers/lvgl/src/draw/sw/../../misc/lv_area.h **** 
  51:Drivers/lvgl/src/draw/sw/../../misc/lv_area.h **** typedef enum {
  52:Drivers/lvgl/src/draw/sw/../../misc/lv_area.h ****     LV_ALIGN_DEFAULT = 0,
  53:Drivers/lvgl/src/draw/sw/../../misc/lv_area.h ****     LV_ALIGN_TOP_LEFT,
  54:Drivers/lvgl/src/draw/sw/../../misc/lv_area.h ****     LV_ALIGN_TOP_MID,
  55:Drivers/lvgl/src/draw/sw/../../misc/lv_area.h ****     LV_ALIGN_TOP_RIGHT,
  56:Drivers/lvgl/src/draw/sw/../../misc/lv_area.h ****     LV_ALIGN_BOTTOM_LEFT,
  57:Drivers/lvgl/src/draw/sw/../../misc/lv_area.h ****     LV_ALIGN_BOTTOM_MID,
  58:Drivers/lvgl/src/draw/sw/../../misc/lv_area.h ****     LV_ALIGN_BOTTOM_RIGHT,
  59:Drivers/lvgl/src/draw/sw/../../misc/lv_area.h ****     LV_ALIGN_LEFT_MID,
  60:Drivers/lvgl/src/draw/sw/../../misc/lv_area.h ****     LV_ALIGN_RIGHT_MID,
  61:Drivers/lvgl/src/draw/sw/../../misc/lv_area.h ****     LV_ALIGN_CENTER,
  62:Drivers/lvgl/src/draw/sw/../../misc/lv_area.h **** 
  63:Drivers/lvgl/src/draw/sw/../../misc/lv_area.h ****     LV_ALIGN_OUT_TOP_LEFT,
  64:Drivers/lvgl/src/draw/sw/../../misc/lv_area.h ****     LV_ALIGN_OUT_TOP_MID,
  65:Drivers/lvgl/src/draw/sw/../../misc/lv_area.h ****     LV_ALIGN_OUT_TOP_RIGHT,
  66:Drivers/lvgl/src/draw/sw/../../misc/lv_area.h ****     LV_ALIGN_OUT_BOTTOM_LEFT,
  67:Drivers/lvgl/src/draw/sw/../../misc/lv_area.h ****     LV_ALIGN_OUT_BOTTOM_MID,
  68:Drivers/lvgl/src/draw/sw/../../misc/lv_area.h ****     LV_ALIGN_OUT_BOTTOM_RIGHT,
  69:Drivers/lvgl/src/draw/sw/../../misc/lv_area.h ****     LV_ALIGN_OUT_LEFT_TOP,
  70:Drivers/lvgl/src/draw/sw/../../misc/lv_area.h ****     LV_ALIGN_OUT_LEFT_MID,
  71:Drivers/lvgl/src/draw/sw/../../misc/lv_area.h ****     LV_ALIGN_OUT_LEFT_BOTTOM,
  72:Drivers/lvgl/src/draw/sw/../../misc/lv_area.h ****     LV_ALIGN_OUT_RIGHT_TOP,
  73:Drivers/lvgl/src/draw/sw/../../misc/lv_area.h ****     LV_ALIGN_OUT_RIGHT_MID,
  74:Drivers/lvgl/src/draw/sw/../../misc/lv_area.h ****     LV_ALIGN_OUT_RIGHT_BOTTOM,
  75:Drivers/lvgl/src/draw/sw/../../misc/lv_area.h **** } lv_align_t;
  76:Drivers/lvgl/src/draw/sw/../../misc/lv_area.h **** 
  77:Drivers/lvgl/src/draw/sw/../../misc/lv_area.h **** typedef enum {
  78:Drivers/lvgl/src/draw/sw/../../misc/lv_area.h ****     LV_DIR_NONE     = 0x00,
  79:Drivers/lvgl/src/draw/sw/../../misc/lv_area.h ****     LV_DIR_LEFT     = (1 << 0),
  80:Drivers/lvgl/src/draw/sw/../../misc/lv_area.h ****     LV_DIR_RIGHT    = (1 << 1),
  81:Drivers/lvgl/src/draw/sw/../../misc/lv_area.h ****     LV_DIR_TOP      = (1 << 2),
  82:Drivers/lvgl/src/draw/sw/../../misc/lv_area.h ****     LV_DIR_BOTTOM   = (1 << 3),
  83:Drivers/lvgl/src/draw/sw/../../misc/lv_area.h ****     LV_DIR_HOR      = LV_DIR_LEFT | LV_DIR_RIGHT,
  84:Drivers/lvgl/src/draw/sw/../../misc/lv_area.h ****     LV_DIR_VER      = LV_DIR_TOP | LV_DIR_BOTTOM,
  85:Drivers/lvgl/src/draw/sw/../../misc/lv_area.h ****     LV_DIR_ALL      = LV_DIR_HOR | LV_DIR_VER,
  86:Drivers/lvgl/src/draw/sw/../../misc/lv_area.h **** } lv_dir_t;
  87:Drivers/lvgl/src/draw/sw/../../misc/lv_area.h **** 
  88:Drivers/lvgl/src/draw/sw/../../misc/lv_area.h **** /**********************
  89:Drivers/lvgl/src/draw/sw/../../misc/lv_area.h ****  * GLOBAL PROTOTYPES
  90:Drivers/lvgl/src/draw/sw/../../misc/lv_area.h ****  **********************/
  91:Drivers/lvgl/src/draw/sw/../../misc/lv_area.h **** 
  92:Drivers/lvgl/src/draw/sw/../../misc/lv_area.h **** /**
  93:Drivers/lvgl/src/draw/sw/../../misc/lv_area.h ****  * Initialize an area
  94:Drivers/lvgl/src/draw/sw/../../misc/lv_area.h ****  * @param area_p pointer to an area
  95:Drivers/lvgl/src/draw/sw/../../misc/lv_area.h ****  * @param x1 left coordinate of the area
  96:Drivers/lvgl/src/draw/sw/../../misc/lv_area.h ****  * @param y1 top coordinate of the area
  97:Drivers/lvgl/src/draw/sw/../../misc/lv_area.h ****  * @param x2 right coordinate of the area
  98:Drivers/lvgl/src/draw/sw/../../misc/lv_area.h ****  * @param y2 bottom coordinate of the area
ARM GAS  /var/folders/qx/2_175_4n2s19vhvtspjhb3qh0000gn/T//ccioUrKE.s 			page 25


  99:Drivers/lvgl/src/draw/sw/../../misc/lv_area.h ****  */
 100:Drivers/lvgl/src/draw/sw/../../misc/lv_area.h **** void lv_area_set(lv_area_t * area_p, int32_t x1, int32_t y1, int32_t x2, int32_t y2);
 101:Drivers/lvgl/src/draw/sw/../../misc/lv_area.h **** 
 102:Drivers/lvgl/src/draw/sw/../../misc/lv_area.h **** /**
 103:Drivers/lvgl/src/draw/sw/../../misc/lv_area.h ****  * Copy an area
 104:Drivers/lvgl/src/draw/sw/../../misc/lv_area.h ****  * @param dest pointer to the destination area
 105:Drivers/lvgl/src/draw/sw/../../misc/lv_area.h ****  * @param src pointer to the source area
 106:Drivers/lvgl/src/draw/sw/../../misc/lv_area.h ****  */
 107:Drivers/lvgl/src/draw/sw/../../misc/lv_area.h **** inline static void lv_area_copy(lv_area_t * dest, const lv_area_t * src)
 460              		.loc 2 107 20 view .LVU155
 461              	.LBB34:
 108:Drivers/lvgl/src/draw/sw/../../misc/lv_area.h **** {
 109:Drivers/lvgl/src/draw/sw/../../misc/lv_area.h ****     dest->x1 = src->x1;
 462              		.loc 2 109 5 view .LVU156
 463              		.loc 2 109 19 is_stmt 0 view .LVU157
 464 0010 0368     		ldr	r3, [r0]
 465              	.LVL53:
 466              		.loc 2 109 14 view .LVU158
 467 0012 0C93     		str	r3, [sp, #48]
 110:Drivers/lvgl/src/draw/sw/../../misc/lv_area.h ****     dest->y1 = src->y1;
 468              		.loc 2 110 5 is_stmt 1 view .LVU159
 469              		.loc 2 110 19 is_stmt 0 view .LVU160
 470 0014 4368     		ldr	r3, [r0, #4]
 471              		.loc 2 110 14 view .LVU161
 472 0016 0D93     		str	r3, [sp, #52]
 111:Drivers/lvgl/src/draw/sw/../../misc/lv_area.h ****     dest->x2 = src->x2;
 473              		.loc 2 111 5 is_stmt 1 view .LVU162
 474              		.loc 2 111 19 is_stmt 0 view .LVU163
 475 0018 8368     		ldr	r3, [r0, #8]
 476              		.loc 2 111 14 view .LVU164
 477 001a 0E93     		str	r3, [sp, #56]
 112:Drivers/lvgl/src/draw/sw/../../misc/lv_area.h ****     dest->y2 = src->y2;
 478              		.loc 2 112 5 is_stmt 1 view .LVU165
 479              		.loc 2 112 19 is_stmt 0 view .LVU166
 480 001c C368     		ldr	r3, [r0, #12]
 481              		.loc 2 112 14 view .LVU167
 482 001e 0F93     		str	r3, [sp, #60]
 483              	.LVL54:
 484              		.loc 2 112 14 view .LVU168
 485              	.LBE34:
 486              	.LBE33:
 581:Drivers/lvgl/src/draw/sw/lv_draw_sw_box_shadow.c ****     sh_area.y1 = sw / 2 + 1;
 487              		.loc 1 581 5 is_stmt 1 view .LVU169
 581:Drivers/lvgl/src/draw/sw/lv_draw_sw_box_shadow.c ****     sh_area.y1 = sw / 2 + 1;
 488              		.loc 1 581 21 is_stmt 0 view .LVU170
 489 0020 02EBD271 		add	r1, r2, r2, lsr #31
 490              	.LVL55:
 581:Drivers/lvgl/src/draw/sw/lv_draw_sw_box_shadow.c ****     sh_area.y1 = sw / 2 + 1;
 491              		.loc 1 581 21 view .LVU171
 492 0024 4B10     		asrs	r3, r1, #1
 581:Drivers/lvgl/src/draw/sw/lv_draw_sw_box_shadow.c ****     sh_area.y1 = sw / 2 + 1;
 493              		.loc 1 581 25 view .LVU172
 494 0026 07EB6105 		add	r5, r7, r1, asr #1
 581:Drivers/lvgl/src/draw/sw/lv_draw_sw_box_shadow.c ****     sh_area.y1 = sw / 2 + 1;
 495              		.loc 1 581 29 view .LVU173
 496 002a 013D     		subs	r5, r5, #1
 581:Drivers/lvgl/src/draw/sw/lv_draw_sw_box_shadow.c ****     sh_area.y1 = sw / 2 + 1;
ARM GAS  /var/folders/qx/2_175_4n2s19vhvtspjhb3qh0000gn/T//ccioUrKE.s 			page 26


 497              		.loc 1 581 50 view .LVU174
 498 002c D243     		mvns	r2, r2
 499              	.LVL56:
 581:Drivers/lvgl/src/draw/sw/lv_draw_sw_box_shadow.c ****     sh_area.y1 = sw / 2 + 1;
 500              		.loc 1 581 50 view .LVU175
 501 002e 02F00102 		and	r2, r2, #1
 581:Drivers/lvgl/src/draw/sw/lv_draw_sw_box_shadow.c ****     sh_area.y1 = sw / 2 + 1;
 502              		.loc 1 581 34 view .LVU176
 503 0032 AD1A     		subs	r5, r5, r2
 581:Drivers/lvgl/src/draw/sw/lv_draw_sw_box_shadow.c ****     sh_area.y1 = sw / 2 + 1;
 504              		.loc 1 581 16 view .LVU177
 505 0034 0E95     		str	r5, [sp, #56]
 582:Drivers/lvgl/src/draw/sw/lv_draw_sw_box_shadow.c **** 
 506              		.loc 1 582 5 is_stmt 1 view .LVU178
 582:Drivers/lvgl/src/draw/sw/lv_draw_sw_box_shadow.c **** 
 507              		.loc 1 582 25 is_stmt 0 view .LVU179
 508 0036 0133     		adds	r3, r3, #1
 582:Drivers/lvgl/src/draw/sw/lv_draw_sw_box_shadow.c **** 
 509              		.loc 1 582 16 view .LVU180
 510 0038 0D93     		str	r3, [sp, #52]
 584:Drivers/lvgl/src/draw/sw/lv_draw_sw_box_shadow.c ****     sh_area.y2 = sh_area.y1 + lv_area_get_height(coords);
 511              		.loc 1 584 5 is_stmt 1 view .LVU181
 584:Drivers/lvgl/src/draw/sw/lv_draw_sw_box_shadow.c ****     sh_area.y2 = sh_area.y1 + lv_area_get_height(coords);
 512              		.loc 1 584 31 is_stmt 0 view .LVU182
 513 003a FFF7FEFF 		bl	lv_area_get_width
 514              	.LVL57:
 584:Drivers/lvgl/src/draw/sw/lv_draw_sw_box_shadow.c ****     sh_area.y2 = sh_area.y1 + lv_area_get_height(coords);
 515              		.loc 1 584 29 discriminator 1 view .LVU183
 516 003e 2D1A     		subs	r5, r5, r0
 584:Drivers/lvgl/src/draw/sw/lv_draw_sw_box_shadow.c ****     sh_area.y2 = sh_area.y1 + lv_area_get_height(coords);
 517              		.loc 1 584 16 discriminator 1 view .LVU184
 518 0040 0C95     		str	r5, [sp, #48]
 585:Drivers/lvgl/src/draw/sw/lv_draw_sw_box_shadow.c **** 
 519              		.loc 1 585 5 is_stmt 1 view .LVU185
 585:Drivers/lvgl/src/draw/sw/lv_draw_sw_box_shadow.c **** 
 520              		.loc 1 585 25 is_stmt 0 view .LVU186
 521 0042 0D9D     		ldr	r5, [sp, #52]
 585:Drivers/lvgl/src/draw/sw/lv_draw_sw_box_shadow.c **** 
 522              		.loc 1 585 31 view .LVU187
 523 0044 3046     		mov	r0, r6
 524 0046 FFF7FEFF 		bl	lv_area_get_height
 525              	.LVL58:
 585:Drivers/lvgl/src/draw/sw/lv_draw_sw_box_shadow.c **** 
 526              		.loc 1 585 29 discriminator 1 view .LVU188
 527 004a 0544     		add	r5, r5, r0
 585:Drivers/lvgl/src/draw/sw/lv_draw_sw_box_shadow.c **** 
 528              		.loc 1 585 16 discriminator 1 view .LVU189
 529 004c 0F95     		str	r5, [sp, #60]
 587:Drivers/lvgl/src/draw/sw/lv_draw_sw_box_shadow.c ****     lv_draw_sw_mask_radius_init(&mask_param, &sh_area, r, false);
 530              		.loc 1 587 5 is_stmt 1 view .LVU190
 588:Drivers/lvgl/src/draw/sw/lv_draw_sw_box_shadow.c **** 
 531              		.loc 1 588 5 view .LVU191
 532 004e 0023     		movs	r3, #0
 533 0050 3A46     		mov	r2, r7
 534 0052 0CA9     		add	r1, sp, #48
 535 0054 03A8     		add	r0, sp, #12
 536 0056 FFF7FEFF 		bl	lv_draw_sw_mask_radius_init
ARM GAS  /var/folders/qx/2_175_4n2s19vhvtspjhb3qh0000gn/T//ccioUrKE.s 			page 27


 537              	.LVL59:
 592:Drivers/lvgl/src/draw/sw/lv_draw_sw_box_shadow.c ****     else sw = sw_ori >> 1;
 538              		.loc 1 592 5 view .LVU192
 592:Drivers/lvgl/src/draw/sw/lv_draw_sw_box_shadow.c ****     else sw = sw_ori >> 1;
 539              		.loc 1 592 7 is_stmt 0 view .LVU193
 540 005a BAF1010F 		cmp	r10, #1
 541 005e 09D0     		beq	.L58
 593:Drivers/lvgl/src/draw/sw/lv_draw_sw_box_shadow.c **** #endif /*SHADOW_ENHANCE*/
 542              		.loc 1 593 10 is_stmt 1 view .LVU194
 593:Drivers/lvgl/src/draw/sw/lv_draw_sw_box_shadow.c **** #endif /*SHADOW_ENHANCE*/
 543              		.loc 1 593 13 is_stmt 0 view .LVU195
 544 0060 4FEA6A09 		asr	r9, r10, #1
 545              	.LVL60:
 546              	.L38:
 596:Drivers/lvgl/src/draw/sw/lv_draw_sw_box_shadow.c ****     lv_opa_t * mask_line = lv_malloc(size);
 547              		.loc 1 596 5 is_stmt 1 view .LVU196
 597:Drivers/lvgl/src/draw/sw/lv_draw_sw_box_shadow.c ****     uint16_t * sh_ups_tmp_buf = (uint16_t *)sh_buf;
 548              		.loc 1 597 5 view .LVU197
 597:Drivers/lvgl/src/draw/sw/lv_draw_sw_box_shadow.c ****     uint16_t * sh_ups_tmp_buf = (uint16_t *)sh_buf;
 549              		.loc 1 597 28 is_stmt 0 view .LVU198
 550 0064 2046     		mov	r0, r4
 551 0066 FFF7FEFF 		bl	lv_malloc
 552              	.LVL61:
 553 006a 0546     		mov	r5, r0
 554              	.LVL62:
 598:Drivers/lvgl/src/draw/sw/lv_draw_sw_box_shadow.c ****     for(y = 0; y < size; y++) {
 555              		.loc 1 598 5 is_stmt 1 view .LVU199
 599:Drivers/lvgl/src/draw/sw/lv_draw_sw_box_shadow.c ****         lv_memset(mask_line, 0xff, size);
 556              		.loc 1 599 5 view .LVU200
 598:Drivers/lvgl/src/draw/sw/lv_draw_sw_box_shadow.c ****     for(y = 0; y < size; y++) {
 557              		.loc 1 598 16 is_stmt 0 view .LVU201
 558 006c 4646     		mov	r6, r8
 559              	.LVL63:
 599:Drivers/lvgl/src/draw/sw/lv_draw_sw_box_shadow.c ****         lv_memset(mask_line, 0xff, size);
 560              		.loc 1 599 11 view .LVU202
 561 006e 4FF0000B 		mov	fp, #0
 599:Drivers/lvgl/src/draw/sw/lv_draw_sw_box_shadow.c ****         lv_memset(mask_line, 0xff, size);
 562              		.loc 1 599 5 view .LVU203
 563 0072 22E0     		b	.L39
 564              	.LVL64:
 565              	.L58:
 592:Drivers/lvgl/src/draw/sw/lv_draw_sw_box_shadow.c ****     else sw = sw_ori >> 1;
 566              		.loc 1 592 24 discriminator 1 view .LVU204
 567 0074 D146     		mov	r9, r10
 568 0076 F5E7     		b	.L38
 569              	.LVL65:
 570              	.L40:
 571              	.LBB35:
 572              	.LBB36:
 606:Drivers/lvgl/src/draw/sw/lv_draw_sw_box_shadow.c ****             sh_ups_tmp_buf[0] = (mask_line[0] << SHADOW_UPSCALE_SHIFT) / sw;
 573              		.loc 1 606 13 is_stmt 1 view .LVU205
 607:Drivers/lvgl/src/draw/sw/lv_draw_sw_box_shadow.c ****             for(i = 1; i < size; i++) {
 574              		.loc 1 607 13 view .LVU206
 607:Drivers/lvgl/src/draw/sw/lv_draw_sw_box_shadow.c ****             for(i = 1; i < size; i++) {
 575              		.loc 1 607 43 is_stmt 0 view .LVU207
 576 0078 2B78     		ldrb	r3, [r5]	@ zero_extendqisi2
 607:Drivers/lvgl/src/draw/sw/lv_draw_sw_box_shadow.c ****             for(i = 1; i < size; i++) {
ARM GAS  /var/folders/qx/2_175_4n2s19vhvtspjhb3qh0000gn/T//ccioUrKE.s 			page 28


 577              		.loc 1 607 47 view .LVU208
 578 007a 9B01     		lsls	r3, r3, #6
 607:Drivers/lvgl/src/draw/sw/lv_draw_sw_box_shadow.c ****             for(i = 1; i < size; i++) {
 579              		.loc 1 607 72 view .LVU209
 580 007c 93FBF9F3 		sdiv	r3, r3, r9
 607:Drivers/lvgl/src/draw/sw/lv_draw_sw_box_shadow.c ****             for(i = 1; i < size; i++) {
 581              		.loc 1 607 31 view .LVU210
 582 0080 3380     		strh	r3, [r6]	@ movhi
 608:Drivers/lvgl/src/draw/sw/lv_draw_sw_box_shadow.c ****                 if(mask_line[i] == mask_line[i - 1]) sh_ups_tmp_buf[i] = sh_ups_tmp_buf[i - 1];
 583              		.loc 1 608 13 is_stmt 1 view .LVU211
 584              	.LVL66:
 608:Drivers/lvgl/src/draw/sw/lv_draw_sw_box_shadow.c ****                 if(mask_line[i] == mask_line[i - 1]) sh_ups_tmp_buf[i] = sh_ups_tmp_buf[i - 1];
 585              		.loc 1 608 19 is_stmt 0 view .LVU212
 586 0082 0123     		movs	r3, #1
 608:Drivers/lvgl/src/draw/sw/lv_draw_sw_box_shadow.c ****                 if(mask_line[i] == mask_line[i - 1]) sh_ups_tmp_buf[i] = sh_ups_tmp_buf[i - 1];
 587              		.loc 1 608 13 view .LVU213
 588 0084 07E0     		b	.L42
 589              	.LVL67:
 590              	.L62:
 609:Drivers/lvgl/src/draw/sw/lv_draw_sw_box_shadow.c ****                 else  sh_ups_tmp_buf[i] = (mask_line[i] << SHADOW_UPSCALE_SHIFT) / sw;
 591              		.loc 1 609 54 is_stmt 1 discriminator 1 view .LVU214
 609:Drivers/lvgl/src/draw/sw/lv_draw_sw_box_shadow.c ****                 else  sh_ups_tmp_buf[i] = (mask_line[i] << SHADOW_UPSCALE_SHIFT) / sw;
 592              		.loc 1 609 88 is_stmt 0 discriminator 1 view .LVU215
 593 0086 03F10042 		add	r2, r3, #-2147483648
 594 008a 013A     		subs	r2, r2, #1
 595 008c 36F81220 		ldrh	r2, [r6, r2, lsl #1]
 609:Drivers/lvgl/src/draw/sw/lv_draw_sw_box_shadow.c ****                 else  sh_ups_tmp_buf[i] = (mask_line[i] << SHADOW_UPSCALE_SHIFT) / sw;
 596              		.loc 1 609 72 discriminator 1 view .LVU216
 597 0090 26F81320 		strh	r2, [r6, r3, lsl #1]	@ movhi
 598              	.L44:
 608:Drivers/lvgl/src/draw/sw/lv_draw_sw_box_shadow.c ****                 if(mask_line[i] == mask_line[i - 1]) sh_ups_tmp_buf[i] = sh_ups_tmp_buf[i - 1];
 599              		.loc 1 608 35 is_stmt 1 discriminator 2 view .LVU217
 600 0094 0133     		adds	r3, r3, #1
 601              	.LVL68:
 602              	.L42:
 608:Drivers/lvgl/src/draw/sw/lv_draw_sw_box_shadow.c ****                 if(mask_line[i] == mask_line[i - 1]) sh_ups_tmp_buf[i] = sh_ups_tmp_buf[i - 1];
 603              		.loc 1 608 26 discriminator 1 view .LVU218
 604 0096 A342     		cmp	r3, r4
 605 0098 0BDA     		bge	.L41
 609:Drivers/lvgl/src/draw/sw/lv_draw_sw_box_shadow.c ****                 else  sh_ups_tmp_buf[i] = (mask_line[i] << SHADOW_UPSCALE_SHIFT) / sw;
 606              		.loc 1 609 17 view .LVU219
 609:Drivers/lvgl/src/draw/sw/lv_draw_sw_box_shadow.c ****                 else  sh_ups_tmp_buf[i] = (mask_line[i] << SHADOW_UPSCALE_SHIFT) / sw;
 607              		.loc 1 609 29 is_stmt 0 view .LVU220
 608 009a EA5C     		ldrb	r2, [r5, r3]	@ zero_extendqisi2
 609:Drivers/lvgl/src/draw/sw/lv_draw_sw_box_shadow.c ****                 else  sh_ups_tmp_buf[i] = (mask_line[i] << SHADOW_UPSCALE_SHIFT) / sw;
 609              		.loc 1 609 45 view .LVU221
 610 009c E918     		adds	r1, r5, r3
 611 009e 11F8011C 		ldrb	r1, [r1, #-1]	@ zero_extendqisi2
 609:Drivers/lvgl/src/draw/sw/lv_draw_sw_box_shadow.c ****                 else  sh_ups_tmp_buf[i] = (mask_line[i] << SHADOW_UPSCALE_SHIFT) / sw;
 612              		.loc 1 609 19 view .LVU222
 613 00a2 8A42     		cmp	r2, r1
 614 00a4 EFD0     		beq	.L62
 610:Drivers/lvgl/src/draw/sw/lv_draw_sw_box_shadow.c ****             }
 615              		.loc 1 610 23 is_stmt 1 view .LVU223
 610:Drivers/lvgl/src/draw/sw/lv_draw_sw_box_shadow.c ****             }
 616              		.loc 1 610 57 is_stmt 0 view .LVU224
 617 00a6 9201     		lsls	r2, r2, #6
ARM GAS  /var/folders/qx/2_175_4n2s19vhvtspjhb3qh0000gn/T//ccioUrKE.s 			page 29


 610:Drivers/lvgl/src/draw/sw/lv_draw_sw_box_shadow.c ****             }
 618              		.loc 1 610 82 view .LVU225
 619 00a8 92FBF9F2 		sdiv	r2, r2, r9
 610:Drivers/lvgl/src/draw/sw/lv_draw_sw_box_shadow.c ****             }
 620              		.loc 1 610 41 view .LVU226
 621 00ac 26F81320 		strh	r2, [r6, r3, lsl #1]	@ movhi
 622 00b0 F0E7     		b	.L44
 623              	.LVL69:
 624              	.L41:
 610:Drivers/lvgl/src/draw/sw/lv_draw_sw_box_shadow.c ****             }
 625              		.loc 1 610 41 view .LVU227
 626              	.LBE36:
 614:Drivers/lvgl/src/draw/sw/lv_draw_sw_box_shadow.c ****     }
 627              		.loc 1 614 9 is_stmt 1 view .LVU228
 614:Drivers/lvgl/src/draw/sw/lv_draw_sw_box_shadow.c ****     }
 628              		.loc 1 614 24 is_stmt 0 view .LVU229
 629 00b2 06EB4406 		add	r6, r6, r4, lsl #1
 630              	.LVL70:
 614:Drivers/lvgl/src/draw/sw/lv_draw_sw_box_shadow.c ****     }
 631              		.loc 1 614 24 view .LVU230
 632              	.LBE35:
 599:Drivers/lvgl/src/draw/sw/lv_draw_sw_box_shadow.c ****         lv_memset(mask_line, 0xff, size);
 633              		.loc 1 599 27 is_stmt 1 discriminator 2 view .LVU231
 634 00b6 0BF1010B 		add	fp, fp, #1
 635              	.LVL71:
 636              	.L39:
 599:Drivers/lvgl/src/draw/sw/lv_draw_sw_box_shadow.c ****         lv_memset(mask_line, 0xff, size);
 637              		.loc 1 599 18 discriminator 1 view .LVU232
 638 00ba A345     		cmp	fp, r4
 639 00bc 14DA     		bge	.L63
 640              	.LBB39:
 600:Drivers/lvgl/src/draw/sw/lv_draw_sw_box_shadow.c ****         lv_draw_sw_mask_res_t mask_res = mask_param.dsc.cb(mask_line, 0, y, size, &mask_param);
 641              		.loc 1 600 9 view .LVU233
 642 00be 2246     		mov	r2, r4
 643 00c0 FF21     		movs	r1, #255
 644 00c2 2846     		mov	r0, r5
 645 00c4 FFF7FEFF 		bl	lv_memset
 646              	.LVL72:
 601:Drivers/lvgl/src/draw/sw/lv_draw_sw_box_shadow.c ****         if(mask_res == LV_DRAW_SW_MASK_RES_TRANSP) {
 647              		.loc 1 601 9 view .LVU234
 601:Drivers/lvgl/src/draw/sw/lv_draw_sw_box_shadow.c ****         if(mask_res == LV_DRAW_SW_MASK_RES_TRANSP) {
 648              		.loc 1 601 42 is_stmt 0 view .LVU235
 649 00c8 03AB     		add	r3, sp, #12
 650 00ca 0093     		str	r3, [sp]
 651 00cc 2346     		mov	r3, r4
 652 00ce 5A46     		mov	r2, fp
 653 00d0 0021     		movs	r1, #0
 654 00d2 2846     		mov	r0, r5
 655 00d4 039F     		ldr	r7, [sp, #12]
 656 00d6 B847     		blx	r7
 657              	.LVL73:
 602:Drivers/lvgl/src/draw/sw/lv_draw_sw_box_shadow.c ****             lv_memzero(sh_ups_tmp_buf, size * sizeof(sh_ups_tmp_buf[0]));
 658              		.loc 1 602 9 is_stmt 1 view .LVU236
 602:Drivers/lvgl/src/draw/sw/lv_draw_sw_box_shadow.c ****             lv_memzero(sh_ups_tmp_buf, size * sizeof(sh_ups_tmp_buf[0]));
 659              		.loc 1 602 11 is_stmt 0 view .LVU237
 660 00d8 0028     		cmp	r0, #0
 661 00da CDD1     		bne	.L40
ARM GAS  /var/folders/qx/2_175_4n2s19vhvtspjhb3qh0000gn/T//ccioUrKE.s 			page 30


 603:Drivers/lvgl/src/draw/sw/lv_draw_sw_box_shadow.c ****         }
 662              		.loc 1 603 13 is_stmt 1 view .LVU238
 663              	.LVL74:
 664              	.LBB37:
 665              	.LBI37:
 666              		.file 3 "Drivers/lvgl/src/draw/sw/../../misc/../stdlib/lv_string.h"
   1:Drivers/lvgl/src/draw/sw/../../misc/../stdlib/lv_string.h **** /**
   2:Drivers/lvgl/src/draw/sw/../../misc/../stdlib/lv_string.h ****  * @file lv_string.h
   3:Drivers/lvgl/src/draw/sw/../../misc/../stdlib/lv_string.h ****  *
   4:Drivers/lvgl/src/draw/sw/../../misc/../stdlib/lv_string.h ****  */
   5:Drivers/lvgl/src/draw/sw/../../misc/../stdlib/lv_string.h **** 
   6:Drivers/lvgl/src/draw/sw/../../misc/../stdlib/lv_string.h **** #ifndef LV_STRING_H
   7:Drivers/lvgl/src/draw/sw/../../misc/../stdlib/lv_string.h **** #define LV_STRING_H
   8:Drivers/lvgl/src/draw/sw/../../misc/../stdlib/lv_string.h **** 
   9:Drivers/lvgl/src/draw/sw/../../misc/../stdlib/lv_string.h **** #ifdef __cplusplus
  10:Drivers/lvgl/src/draw/sw/../../misc/../stdlib/lv_string.h **** extern "C" {
  11:Drivers/lvgl/src/draw/sw/../../misc/../stdlib/lv_string.h **** #endif
  12:Drivers/lvgl/src/draw/sw/../../misc/../stdlib/lv_string.h **** 
  13:Drivers/lvgl/src/draw/sw/../../misc/../stdlib/lv_string.h **** /*********************
  14:Drivers/lvgl/src/draw/sw/../../misc/../stdlib/lv_string.h ****  *      INCLUDES
  15:Drivers/lvgl/src/draw/sw/../../misc/../stdlib/lv_string.h ****  *********************/
  16:Drivers/lvgl/src/draw/sw/../../misc/../stdlib/lv_string.h **** #include "../lv_conf_internal.h"
  17:Drivers/lvgl/src/draw/sw/../../misc/../stdlib/lv_string.h **** #include "../misc/lv_types.h"
  18:Drivers/lvgl/src/draw/sw/../../misc/../stdlib/lv_string.h **** 
  19:Drivers/lvgl/src/draw/sw/../../misc/../stdlib/lv_string.h **** /*********************
  20:Drivers/lvgl/src/draw/sw/../../misc/../stdlib/lv_string.h ****  *      DEFINES
  21:Drivers/lvgl/src/draw/sw/../../misc/../stdlib/lv_string.h ****  *********************/
  22:Drivers/lvgl/src/draw/sw/../../misc/../stdlib/lv_string.h **** 
  23:Drivers/lvgl/src/draw/sw/../../misc/../stdlib/lv_string.h **** /**********************
  24:Drivers/lvgl/src/draw/sw/../../misc/../stdlib/lv_string.h ****  *      TYPEDEFS
  25:Drivers/lvgl/src/draw/sw/../../misc/../stdlib/lv_string.h ****  **********************/
  26:Drivers/lvgl/src/draw/sw/../../misc/../stdlib/lv_string.h **** 
  27:Drivers/lvgl/src/draw/sw/../../misc/../stdlib/lv_string.h **** /**********************
  28:Drivers/lvgl/src/draw/sw/../../misc/../stdlib/lv_string.h ****  * GLOBAL PROTOTYPES
  29:Drivers/lvgl/src/draw/sw/../../misc/../stdlib/lv_string.h ****  **********************/
  30:Drivers/lvgl/src/draw/sw/../../misc/../stdlib/lv_string.h **** 
  31:Drivers/lvgl/src/draw/sw/../../misc/../stdlib/lv_string.h **** /**
  32:Drivers/lvgl/src/draw/sw/../../misc/../stdlib/lv_string.h ****  * @brief Copies a block of memory from a source address to a destination address.
  33:Drivers/lvgl/src/draw/sw/../../misc/../stdlib/lv_string.h ****  * @param dst Pointer to the destination array where the content is to be copied.
  34:Drivers/lvgl/src/draw/sw/../../misc/../stdlib/lv_string.h ****  * @param src Pointer to the source of data to be copied.
  35:Drivers/lvgl/src/draw/sw/../../misc/../stdlib/lv_string.h ****  * @param len Number of bytes to copy.
  36:Drivers/lvgl/src/draw/sw/../../misc/../stdlib/lv_string.h ****  * @return Pointer to the destination array.
  37:Drivers/lvgl/src/draw/sw/../../misc/../stdlib/lv_string.h ****  * @note The function does not check for any overlapping of the source and destination memory block
  38:Drivers/lvgl/src/draw/sw/../../misc/../stdlib/lv_string.h ****  */
  39:Drivers/lvgl/src/draw/sw/../../misc/../stdlib/lv_string.h **** void * lv_memcpy(void * dst, const void * src, size_t len);
  40:Drivers/lvgl/src/draw/sw/../../misc/../stdlib/lv_string.h **** 
  41:Drivers/lvgl/src/draw/sw/../../misc/../stdlib/lv_string.h **** /**
  42:Drivers/lvgl/src/draw/sw/../../misc/../stdlib/lv_string.h ****  * @brief Fills a block of memory with a specified value.
  43:Drivers/lvgl/src/draw/sw/../../misc/../stdlib/lv_string.h ****  * @param dst Pointer to the destination array to fill with the specified value.
  44:Drivers/lvgl/src/draw/sw/../../misc/../stdlib/lv_string.h ****  * @param v Value to be set. The value is passed as an int, but the function fills
  45:Drivers/lvgl/src/draw/sw/../../misc/../stdlib/lv_string.h ****  *          the block of memory using the unsigned char conversion of this value.
  46:Drivers/lvgl/src/draw/sw/../../misc/../stdlib/lv_string.h ****  * @param len Number of bytes to be set to the value.
  47:Drivers/lvgl/src/draw/sw/../../misc/../stdlib/lv_string.h ****  */
  48:Drivers/lvgl/src/draw/sw/../../misc/../stdlib/lv_string.h **** void lv_memset(void * dst, uint8_t v, size_t len);
  49:Drivers/lvgl/src/draw/sw/../../misc/../stdlib/lv_string.h **** 
  50:Drivers/lvgl/src/draw/sw/../../misc/../stdlib/lv_string.h **** /**
  51:Drivers/lvgl/src/draw/sw/../../misc/../stdlib/lv_string.h ****  * @brief Move a block of memory from source to destination
ARM GAS  /var/folders/qx/2_175_4n2s19vhvtspjhb3qh0000gn/T//ccioUrKE.s 			page 31


  52:Drivers/lvgl/src/draw/sw/../../misc/../stdlib/lv_string.h ****  * @param dst Pointer to the destination array where the content is to be copied.
  53:Drivers/lvgl/src/draw/sw/../../misc/../stdlib/lv_string.h ****  * @param src Pointer to the source of data to be copied.
  54:Drivers/lvgl/src/draw/sw/../../misc/../stdlib/lv_string.h ****  * @param len Number of bytes to copy
  55:Drivers/lvgl/src/draw/sw/../../misc/../stdlib/lv_string.h ****  * @return Pointer to the destination array.
  56:Drivers/lvgl/src/draw/sw/../../misc/../stdlib/lv_string.h ****  */
  57:Drivers/lvgl/src/draw/sw/../../misc/../stdlib/lv_string.h **** void * lv_memmove(void * dst, const void * src, size_t len);
  58:Drivers/lvgl/src/draw/sw/../../misc/../stdlib/lv_string.h **** 
  59:Drivers/lvgl/src/draw/sw/../../misc/../stdlib/lv_string.h **** /**
  60:Drivers/lvgl/src/draw/sw/../../misc/../stdlib/lv_string.h ****  * @brief This function will compare two memory blocks
  61:Drivers/lvgl/src/draw/sw/../../misc/../stdlib/lv_string.h ****  * @param p1 Pointer to the first memory block
  62:Drivers/lvgl/src/draw/sw/../../misc/../stdlib/lv_string.h ****  * @param p2 Pointer to the second memory block
  63:Drivers/lvgl/src/draw/sw/../../misc/../stdlib/lv_string.h ****  * @param len Number of bytes to compare
  64:Drivers/lvgl/src/draw/sw/../../misc/../stdlib/lv_string.h ****  * @return The difference between the value of the first unmatching byte.
  65:Drivers/lvgl/src/draw/sw/../../misc/../stdlib/lv_string.h ****  */
  66:Drivers/lvgl/src/draw/sw/../../misc/../stdlib/lv_string.h **** int lv_memcmp(const void * p1, const void * p2, size_t len);
  67:Drivers/lvgl/src/draw/sw/../../misc/../stdlib/lv_string.h **** 
  68:Drivers/lvgl/src/draw/sw/../../misc/../stdlib/lv_string.h **** /**
  69:Drivers/lvgl/src/draw/sw/../../misc/../stdlib/lv_string.h ****  * Same as `memset(dst, 0x00, len)`.
  70:Drivers/lvgl/src/draw/sw/../../misc/../stdlib/lv_string.h ****  * @param dst pointer to the destination buffer
  71:Drivers/lvgl/src/draw/sw/../../misc/../stdlib/lv_string.h ****  * @param len number of byte to set
  72:Drivers/lvgl/src/draw/sw/../../misc/../stdlib/lv_string.h ****  */
  73:Drivers/lvgl/src/draw/sw/../../misc/../stdlib/lv_string.h **** static inline void lv_memzero(void * dst, size_t len)
 667              		.loc 3 73 20 view .LVU239
 668              	.LBB38:
  74:Drivers/lvgl/src/draw/sw/../../misc/../stdlib/lv_string.h **** {
  75:Drivers/lvgl/src/draw/sw/../../misc/../stdlib/lv_string.h ****     lv_memset(dst, 0x00, len);
 669              		.loc 3 75 5 view .LVU240
 670 00dc 6200     		lsls	r2, r4, #1
 671              	.LVL75:
 672              		.loc 3 75 5 is_stmt 0 view .LVU241
 673 00de 0021     		movs	r1, #0
 674 00e0 3046     		mov	r0, r6
 675              	.LVL76:
 676              		.loc 3 75 5 view .LVU242
 677 00e2 FFF7FEFF 		bl	lv_memset
 678              	.LVL77:
  76:Drivers/lvgl/src/draw/sw/../../misc/../stdlib/lv_string.h **** }
 679              		.loc 3 76 1 view .LVU243
 680 00e6 E4E7     		b	.L41
 681              	.LVL78:
 682              	.L63:
 683              		.loc 3 76 1 view .LVU244
 684              	.LBE38:
 685              	.LBE37:
 686              	.LBE39:
 616:Drivers/lvgl/src/draw/sw/lv_draw_sw_box_shadow.c **** 
 687              		.loc 1 616 5 is_stmt 1 view .LVU245
 688 00e8 2846     		mov	r0, r5
 689 00ea FFF7FEFF 		bl	lv_free
 690              	.LVL79:
 618:Drivers/lvgl/src/draw/sw/lv_draw_sw_box_shadow.c **** 
 691              		.loc 1 618 5 view .LVU246
 692 00ee 03A8     		add	r0, sp, #12
 693 00f0 FFF7FEFF 		bl	lv_draw_sw_mask_free_param
 694              	.LVL80:
 620:Drivers/lvgl/src/draw/sw/lv_draw_sw_box_shadow.c ****         int32_t i;
 695              		.loc 1 620 5 view .LVU247
ARM GAS  /var/folders/qx/2_175_4n2s19vhvtspjhb3qh0000gn/T//ccioUrKE.s 			page 32


 620:Drivers/lvgl/src/draw/sw/lv_draw_sw_box_shadow.c ****         int32_t i;
 696              		.loc 1 620 7 is_stmt 0 view .LVU248
 697 00f4 B9F1010F 		cmp	r9, #1
 698 00f8 1AD0     		beq	.L64
 629:Drivers/lvgl/src/draw/sw/lv_draw_sw_box_shadow.c **** 
 699              		.loc 1 629 5 is_stmt 1 view .LVU249
 700 00fa 4246     		mov	r2, r8
 701 00fc 4946     		mov	r1, r9
 702 00fe 2046     		mov	r0, r4
 703 0100 FFF7FEFF 		bl	shadow_blur_corner
 704              	.LVL81:
 639:Drivers/lvgl/src/draw/sw/lv_draw_sw_box_shadow.c ****     if(sw > 1) {
 705              		.loc 1 639 5 view .LVU250
 639:Drivers/lvgl/src/draw/sw/lv_draw_sw_box_shadow.c ****     if(sw > 1) {
 706              		.loc 1 639 18 is_stmt 0 view .LVU251
 707 0104 0AF00101 		and	r1, r10, #1
 639:Drivers/lvgl/src/draw/sw/lv_draw_sw_box_shadow.c ****     if(sw > 1) {
 708              		.loc 1 639 8 view .LVU252
 709 0108 4944     		add	r1, r1, r9
 710              	.LVL82:
 640:Drivers/lvgl/src/draw/sw/lv_draw_sw_box_shadow.c ****         uint32_t i;
 711              		.loc 1 640 5 is_stmt 1 view .LVU253
 640:Drivers/lvgl/src/draw/sw/lv_draw_sw_box_shadow.c ****         uint32_t i;
 712              		.loc 1 640 7 is_stmt 0 view .LVU254
 713 010a 0129     		cmp	r1, #1
 714 010c 2ADD     		ble	.L51
 715              	.LBB40:
 641:Drivers/lvgl/src/draw/sw/lv_draw_sw_box_shadow.c ****         uint32_t max_v_div = (LV_OPA_COVER << SHADOW_UPSCALE_SHIFT) / sw;
 716              		.loc 1 641 9 is_stmt 1 view .LVU255
 642:Drivers/lvgl/src/draw/sw/lv_draw_sw_box_shadow.c ****         for(i = 0; i < (uint32_t)size * size; i++) {
 717              		.loc 1 642 9 view .LVU256
 642:Drivers/lvgl/src/draw/sw/lv_draw_sw_box_shadow.c ****         for(i = 0; i < (uint32_t)size * size; i++) {
 718              		.loc 1 642 69 is_stmt 0 view .LVU257
 719 010e 4FF47F55 		mov	r5, #16320
 720              	.LVL83:
 642:Drivers/lvgl/src/draw/sw/lv_draw_sw_box_shadow.c ****         for(i = 0; i < (uint32_t)size * size; i++) {
 721              		.loc 1 642 69 view .LVU258
 722 0112 95FBF1F5 		sdiv	r5, r5, r1
 723              	.LVL84:
 643:Drivers/lvgl/src/draw/sw/lv_draw_sw_box_shadow.c ****             if(sh_buf[i] == 0) continue;
 724              		.loc 1 643 9 is_stmt 1 view .LVU259
 643:Drivers/lvgl/src/draw/sw/lv_draw_sw_box_shadow.c ****             if(sh_buf[i] == 0) continue;
 725              		.loc 1 643 15 is_stmt 0 view .LVU260
 726 0116 0023     		movs	r3, #0
 643:Drivers/lvgl/src/draw/sw/lv_draw_sw_box_shadow.c ****             if(sh_buf[i] == 0) continue;
 727              		.loc 1 643 9 view .LVU261
 728 0118 0FE0     		b	.L52
 729              	.LVL85:
 730              	.L49:
 643:Drivers/lvgl/src/draw/sw/lv_draw_sw_box_shadow.c ****             if(sh_buf[i] == 0) continue;
 731              		.loc 1 643 9 view .LVU262
 732              	.LBE40:
 733              	.LBB41:
 624:Drivers/lvgl/src/draw/sw/lv_draw_sw_box_shadow.c ****         }
 734              		.loc 1 624 13 is_stmt 1 view .LVU263
 624:Drivers/lvgl/src/draw/sw/lv_draw_sw_box_shadow.c ****         }
 735              		.loc 1 624 33 is_stmt 0 view .LVU264
ARM GAS  /var/folders/qx/2_175_4n2s19vhvtspjhb3qh0000gn/T//ccioUrKE.s 			page 33


 736 011a 38F81320 		ldrh	r2, [r8, r3, lsl #1]
 624:Drivers/lvgl/src/draw/sw/lv_draw_sw_box_shadow.c ****         }
 737              		.loc 1 624 24 view .LVU265
 738 011e 9209     		lsrs	r2, r2, #6
 739 0120 08F80320 		strb	r2, [r8, r3]
 623:Drivers/lvgl/src/draw/sw/lv_draw_sw_box_shadow.c ****             res_buf[i] = (sh_buf[i] >> SHADOW_UPSCALE_SHIFT);
 740              		.loc 1 623 38 is_stmt 1 discriminator 3 view .LVU266
 741 0124 0133     		adds	r3, r3, #1
 742              	.LVL86:
 743              	.L47:
 623:Drivers/lvgl/src/draw/sw/lv_draw_sw_box_shadow.c ****             res_buf[i] = (sh_buf[i] >> SHADOW_UPSCALE_SHIFT);
 744              		.loc 1 623 22 discriminator 1 view .LVU267
 623:Drivers/lvgl/src/draw/sw/lv_draw_sw_box_shadow.c ****             res_buf[i] = (sh_buf[i] >> SHADOW_UPSCALE_SHIFT);
 745              		.loc 1 623 29 is_stmt 0 discriminator 1 view .LVU268
 746 0126 04FB04F2 		mul	r2, r4, r4
 623:Drivers/lvgl/src/draw/sw/lv_draw_sw_box_shadow.c ****             res_buf[i] = (sh_buf[i] >> SHADOW_UPSCALE_SHIFT);
 747              		.loc 1 623 22 discriminator 1 view .LVU269
 748 012a 9A42     		cmp	r2, r3
 749 012c F5DC     		bgt	.L49
 750 012e 24E0     		b	.L37
 751              	.LVL87:
 752              	.L64:
 623:Drivers/lvgl/src/draw/sw/lv_draw_sw_box_shadow.c ****             res_buf[i] = (sh_buf[i] >> SHADOW_UPSCALE_SHIFT);
 753              		.loc 1 623 15 view .LVU270
 754 0130 0023     		movs	r3, #0
 755 0132 F8E7     		b	.L47
 756              	.LVL88:
 757              	.L66:
 623:Drivers/lvgl/src/draw/sw/lv_draw_sw_box_shadow.c ****             res_buf[i] = (sh_buf[i] >> SHADOW_UPSCALE_SHIFT);
 758              		.loc 1 623 15 view .LVU271
 759              	.LBE41:
 760              	.LBB42:
 645:Drivers/lvgl/src/draw/sw/lv_draw_sw_box_shadow.c ****             else  sh_buf[i] = (sh_buf[i] << SHADOW_UPSCALE_SHIFT) / sw;
 761              		.loc 1 645 48 is_stmt 1 discriminator 1 view .LVU272
 645:Drivers/lvgl/src/draw/sw/lv_draw_sw_box_shadow.c ****             else  sh_buf[i] = (sh_buf[i] << SHADOW_UPSCALE_SHIFT) / sw;
 762              		.loc 1 645 58 is_stmt 0 discriminator 1 view .LVU273
 763 0134 28F80050 		strh	r5, [r8, r0]	@ movhi
 764              	.L53:
 643:Drivers/lvgl/src/draw/sw/lv_draw_sw_box_shadow.c ****             if(sh_buf[i] == 0) continue;
 765              		.loc 1 643 48 is_stmt 1 discriminator 2 view .LVU274
 766 0138 0133     		adds	r3, r3, #1
 767              	.LVL89:
 768              	.L52:
 643:Drivers/lvgl/src/draw/sw/lv_draw_sw_box_shadow.c ****             if(sh_buf[i] == 0) continue;
 769              		.loc 1 643 22 discriminator 1 view .LVU275
 643:Drivers/lvgl/src/draw/sw/lv_draw_sw_box_shadow.c ****             if(sh_buf[i] == 0) continue;
 770              		.loc 1 643 39 is_stmt 0 discriminator 1 view .LVU276
 771 013a 04FB04F2 		mul	r2, r4, r4
 643:Drivers/lvgl/src/draw/sw/lv_draw_sw_box_shadow.c ****             if(sh_buf[i] == 0) continue;
 772              		.loc 1 643 22 discriminator 1 view .LVU277
 773 013e 9A42     		cmp	r2, r3
 774 0140 0CD9     		bls	.L65
 644:Drivers/lvgl/src/draw/sw/lv_draw_sw_box_shadow.c ****             else if(sh_buf[i] == LV_OPA_COVER) sh_buf[i] = max_v_div;
 775              		.loc 1 644 13 is_stmt 1 view .LVU278
 644:Drivers/lvgl/src/draw/sw/lv_draw_sw_box_shadow.c ****             else if(sh_buf[i] == LV_OPA_COVER) sh_buf[i] = max_v_div;
 776              		.loc 1 644 22 is_stmt 0 view .LVU279
 777 0142 5800     		lsls	r0, r3, #1
ARM GAS  /var/folders/qx/2_175_4n2s19vhvtspjhb3qh0000gn/T//ccioUrKE.s 			page 34


 778 0144 38F81320 		ldrh	r2, [r8, r3, lsl #1]
 644:Drivers/lvgl/src/draw/sw/lv_draw_sw_box_shadow.c ****             else if(sh_buf[i] == LV_OPA_COVER) sh_buf[i] = max_v_div;
 779              		.loc 1 644 15 view .LVU280
 780 0148 002A     		cmp	r2, #0
 781 014a F5D0     		beq	.L53
 645:Drivers/lvgl/src/draw/sw/lv_draw_sw_box_shadow.c ****             else  sh_buf[i] = (sh_buf[i] << SHADOW_UPSCALE_SHIFT) / sw;
 782              		.loc 1 645 18 is_stmt 1 view .LVU281
 645:Drivers/lvgl/src/draw/sw/lv_draw_sw_box_shadow.c ****             else  sh_buf[i] = (sh_buf[i] << SHADOW_UPSCALE_SHIFT) / sw;
 783              		.loc 1 645 20 is_stmt 0 view .LVU282
 784 014c FF2A     		cmp	r2, #255
 785 014e F1D0     		beq	.L66
 646:Drivers/lvgl/src/draw/sw/lv_draw_sw_box_shadow.c ****         }
 786              		.loc 1 646 19 is_stmt 1 view .LVU283
 646:Drivers/lvgl/src/draw/sw/lv_draw_sw_box_shadow.c ****         }
 787              		.loc 1 646 42 is_stmt 0 view .LVU284
 788 0150 9201     		lsls	r2, r2, #6
 646:Drivers/lvgl/src/draw/sw/lv_draw_sw_box_shadow.c ****         }
 789              		.loc 1 646 67 view .LVU285
 790 0152 92FBF1F2 		sdiv	r2, r2, r1
 646:Drivers/lvgl/src/draw/sw/lv_draw_sw_box_shadow.c ****         }
 791              		.loc 1 646 29 view .LVU286
 792 0156 28F81320 		strh	r2, [r8, r3, lsl #1]	@ movhi
 793 015a EDE7     		b	.L53
 794              	.L65:
 649:Drivers/lvgl/src/draw/sw/lv_draw_sw_box_shadow.c ****     }
 795              		.loc 1 649 9 is_stmt 1 view .LVU287
 796 015c 4246     		mov	r2, r8
 797 015e 2046     		mov	r0, r4
 798 0160 FFF7FEFF 		bl	shadow_blur_corner
 799              	.LVL90:
 800              	.L51:
 643:Drivers/lvgl/src/draw/sw/lv_draw_sw_box_shadow.c ****             if(sh_buf[i] == 0) continue;
 801              		.loc 1 643 15 is_stmt 0 view .LVU288
 802 0164 0023     		movs	r3, #0
 803 0166 04E0     		b	.L56
 804              	.LVL91:
 805              	.L57:
 643:Drivers/lvgl/src/draw/sw/lv_draw_sw_box_shadow.c ****             if(sh_buf[i] == 0) continue;
 806              		.loc 1 643 15 view .LVU289
 807              	.LBE42:
 654:Drivers/lvgl/src/draw/sw/lv_draw_sw_box_shadow.c ****     }
 808              		.loc 1 654 9 is_stmt 1 view .LVU290
 654:Drivers/lvgl/src/draw/sw/lv_draw_sw_box_shadow.c ****     }
 809              		.loc 1 654 22 is_stmt 0 view .LVU291
 810 0168 18F81320 		ldrb	r2, [r8, r3, lsl #1]	@ zero_extendqisi2
 654:Drivers/lvgl/src/draw/sw/lv_draw_sw_box_shadow.c ****     }
 811              		.loc 1 654 20 view .LVU292
 812 016c 08F80320 		strb	r2, [r8, r3]
 653:Drivers/lvgl/src/draw/sw/lv_draw_sw_box_shadow.c ****         res_buf[x] = (lv_opa_t) sh_buf[x];
 813              		.loc 1 653 34 is_stmt 1 discriminator 3 view .LVU293
 814 0170 0133     		adds	r3, r3, #1
 815              	.LVL92:
 816              	.L56:
 653:Drivers/lvgl/src/draw/sw/lv_draw_sw_box_shadow.c ****         res_buf[x] = (lv_opa_t) sh_buf[x];
 817              		.loc 1 653 18 discriminator 1 view .LVU294
 653:Drivers/lvgl/src/draw/sw/lv_draw_sw_box_shadow.c ****         res_buf[x] = (lv_opa_t) sh_buf[x];
 818              		.loc 1 653 25 is_stmt 0 discriminator 1 view .LVU295
ARM GAS  /var/folders/qx/2_175_4n2s19vhvtspjhb3qh0000gn/T//ccioUrKE.s 			page 35


 819 0172 04FB04F2 		mul	r2, r4, r4
 653:Drivers/lvgl/src/draw/sw/lv_draw_sw_box_shadow.c ****         res_buf[x] = (lv_opa_t) sh_buf[x];
 820              		.loc 1 653 18 discriminator 1 view .LVU296
 821 0176 9A42     		cmp	r2, r3
 822 0178 F6DC     		bgt	.L57
 823              	.LVL93:
 824              	.L37:
 658:Drivers/lvgl/src/draw/sw/lv_draw_sw_box_shadow.c **** 
 825              		.loc 1 658 1 view .LVU297
 826 017a 11B0     		add	sp, sp, #68
 827              	.LCFI5:
 828              		.cfi_def_cfa_offset 36
 829              		@ sp needed
 830 017c BDE8F08F 		pop	{r4, r5, r6, r7, r8, r9, r10, fp, pc}
 658:Drivers/lvgl/src/draw/sw/lv_draw_sw_box_shadow.c **** 
 831              		.loc 1 658 1 view .LVU298
 832              		.cfi_endproc
 833              	.LFE194:
 835              		.section	.text.lv_draw_sw_box_shadow,"ax",%progbits
 836              		.align	1
 837              		.global	lv_draw_sw_box_shadow
 838              		.syntax unified
 839              		.thumb
 840              		.thumb_func
 842              	lv_draw_sw_box_shadow:
 843              	.LVL94:
 844              	.LFB193:
  59:Drivers/lvgl/src/draw/sw/lv_draw_sw_box_shadow.c ****     /*Calculate the rectangle which is blurred to get the shadow in `shadow_area`*/
 845              		.loc 1 59 1 is_stmt 1 view -0
 846              		.cfi_startproc
 847              		@ args = 0, pretend = 0, frame = 224
 848              		@ frame_needed = 0, uses_anonymous_args = 0
  59:Drivers/lvgl/src/draw/sw/lv_draw_sw_box_shadow.c ****     /*Calculate the rectangle which is blurred to get the shadow in `shadow_area`*/
 849              		.loc 1 59 1 is_stmt 0 view .LVU300
 850 0000 2DE9F04F 		push	{r4, r5, r6, r7, r8, r9, r10, fp, lr}
 851              	.LCFI6:
 852              		.cfi_def_cfa_offset 36
 853              		.cfi_offset 4, -36
 854              		.cfi_offset 5, -32
 855              		.cfi_offset 6, -28
 856              		.cfi_offset 7, -24
 857              		.cfi_offset 8, -20
 858              		.cfi_offset 9, -16
 859              		.cfi_offset 10, -12
 860              		.cfi_offset 11, -8
 861              		.cfi_offset 14, -4
 862 0004 BBB0     		sub	sp, sp, #236
 863              	.LCFI7:
 864              		.cfi_def_cfa_offset 272
 865 0006 0290     		str	r0, [sp, #8]
 866 0008 0D46     		mov	r5, r1
 867 000a 1446     		mov	r4, r2
  61:Drivers/lvgl/src/draw/sw/lv_draw_sw_box_shadow.c ****     core_area.x1 = coords->x1  + dsc->ofs_x - dsc->spread;
 868              		.loc 1 61 5 is_stmt 1 view .LVU301
  62:Drivers/lvgl/src/draw/sw/lv_draw_sw_box_shadow.c ****     core_area.x2 = coords->x2  + dsc->ofs_x + dsc->spread;
 869              		.loc 1 62 5 view .LVU302
  62:Drivers/lvgl/src/draw/sw/lv_draw_sw_box_shadow.c ****     core_area.x2 = coords->x2  + dsc->ofs_x + dsc->spread;
ARM GAS  /var/folders/qx/2_175_4n2s19vhvtspjhb3qh0000gn/T//ccioUrKE.s 			page 36


 870              		.loc 1 62 26 is_stmt 0 view .LVU303
 871 000c 1068     		ldr	r0, [r2]
 872              	.LVL95:
  62:Drivers/lvgl/src/draw/sw/lv_draw_sw_box_shadow.c ****     core_area.x2 = coords->x2  + dsc->ofs_x + dsc->spread;
 873              		.loc 1 62 37 view .LVU304
 874 000e CA6A     		ldr	r2, [r1, #44]
 875              	.LVL96:
  62:Drivers/lvgl/src/draw/sw/lv_draw_sw_box_shadow.c ****     core_area.x2 = coords->x2  + dsc->ofs_x + dsc->spread;
 876              		.loc 1 62 32 view .LVU305
 877 0010 1044     		add	r0, r0, r2
  62:Drivers/lvgl/src/draw/sw/lv_draw_sw_box_shadow.c ****     core_area.x2 = coords->x2  + dsc->ofs_x + dsc->spread;
 878              		.loc 1 62 50 view .LVU306
 879 0012 8B6A     		ldr	r3, [r1, #40]
  62:Drivers/lvgl/src/draw/sw/lv_draw_sw_box_shadow.c ****     core_area.x2 = coords->x2  + dsc->ofs_x + dsc->spread;
 880              		.loc 1 62 45 view .LVU307
 881 0014 C01A     		subs	r0, r0, r3
  62:Drivers/lvgl/src/draw/sw/lv_draw_sw_box_shadow.c ****     core_area.x2 = coords->x2  + dsc->ofs_x + dsc->spread;
 882              		.loc 1 62 18 view .LVU308
 883 0016 3690     		str	r0, [sp, #216]
  63:Drivers/lvgl/src/draw/sw/lv_draw_sw_box_shadow.c ****     core_area.y1 = coords->y1  + dsc->ofs_y - dsc->spread;
 884              		.loc 1 63 5 is_stmt 1 view .LVU309
  63:Drivers/lvgl/src/draw/sw/lv_draw_sw_box_shadow.c ****     core_area.y1 = coords->y1  + dsc->ofs_y - dsc->spread;
 885              		.loc 1 63 26 is_stmt 0 view .LVU310
 886 0018 A168     		ldr	r1, [r4, #8]
 887              	.LVL97:
  63:Drivers/lvgl/src/draw/sw/lv_draw_sw_box_shadow.c ****     core_area.y1 = coords->y1  + dsc->ofs_y - dsc->spread;
 888              		.loc 1 63 32 view .LVU311
 889 001a 0A44     		add	r2, r2, r1
  63:Drivers/lvgl/src/draw/sw/lv_draw_sw_box_shadow.c ****     core_area.y1 = coords->y1  + dsc->ofs_y - dsc->spread;
 890              		.loc 1 63 45 view .LVU312
 891 001c 1A44     		add	r2, r2, r3
  63:Drivers/lvgl/src/draw/sw/lv_draw_sw_box_shadow.c ****     core_area.y1 = coords->y1  + dsc->ofs_y - dsc->spread;
 892              		.loc 1 63 18 view .LVU313
 893 001e 3892     		str	r2, [sp, #224]
  64:Drivers/lvgl/src/draw/sw/lv_draw_sw_box_shadow.c ****     core_area.y2 = coords->y2  + dsc->ofs_y + dsc->spread;
 894              		.loc 1 64 5 is_stmt 1 view .LVU314
  64:Drivers/lvgl/src/draw/sw/lv_draw_sw_box_shadow.c ****     core_area.y2 = coords->y2  + dsc->ofs_y + dsc->spread;
 895              		.loc 1 64 26 is_stmt 0 view .LVU315
 896 0020 6768     		ldr	r7, [r4, #4]
  64:Drivers/lvgl/src/draw/sw/lv_draw_sw_box_shadow.c ****     core_area.y2 = coords->y2  + dsc->ofs_y + dsc->spread;
 897              		.loc 1 64 37 view .LVU316
 898 0022 296B     		ldr	r1, [r5, #48]
  64:Drivers/lvgl/src/draw/sw/lv_draw_sw_box_shadow.c ****     core_area.y2 = coords->y2  + dsc->ofs_y + dsc->spread;
 899              		.loc 1 64 32 view .LVU317
 900 0024 0F44     		add	r7, r7, r1
  64:Drivers/lvgl/src/draw/sw/lv_draw_sw_box_shadow.c ****     core_area.y2 = coords->y2  + dsc->ofs_y + dsc->spread;
 901              		.loc 1 64 45 view .LVU318
 902 0026 FF1A     		subs	r7, r7, r3
  64:Drivers/lvgl/src/draw/sw/lv_draw_sw_box_shadow.c ****     core_area.y2 = coords->y2  + dsc->ofs_y + dsc->spread;
 903              		.loc 1 64 18 view .LVU319
 904 0028 3797     		str	r7, [sp, #220]
  65:Drivers/lvgl/src/draw/sw/lv_draw_sw_box_shadow.c **** 
 905              		.loc 1 65 5 is_stmt 1 view .LVU320
  65:Drivers/lvgl/src/draw/sw/lv_draw_sw_box_shadow.c **** 
 906              		.loc 1 65 32 is_stmt 0 view .LVU321
 907 002a E668     		ldr	r6, [r4, #12]
 908 002c 3144     		add	r1, r1, r6
ARM GAS  /var/folders/qx/2_175_4n2s19vhvtspjhb3qh0000gn/T//ccioUrKE.s 			page 37


  65:Drivers/lvgl/src/draw/sw/lv_draw_sw_box_shadow.c **** 
 909              		.loc 1 65 45 view .LVU322
 910 002e 0B44     		add	r3, r3, r1
  65:Drivers/lvgl/src/draw/sw/lv_draw_sw_box_shadow.c **** 
 911              		.loc 1 65 18 view .LVU323
 912 0030 3993     		str	r3, [sp, #228]
  68:Drivers/lvgl/src/draw/sw/lv_draw_sw_box_shadow.c ****     shadow_area.x1 = core_area.x1 - dsc->width / 2 - 1;
 913              		.loc 1 68 5 is_stmt 1 view .LVU324
  69:Drivers/lvgl/src/draw/sw/lv_draw_sw_box_shadow.c ****     shadow_area.x2 = core_area.x2 + dsc->width / 2 + 1;
 914              		.loc 1 69 5 view .LVU325
  69:Drivers/lvgl/src/draw/sw/lv_draw_sw_box_shadow.c ****     shadow_area.x2 = core_area.x2 + dsc->width / 2 + 1;
 915              		.loc 1 69 40 is_stmt 0 view .LVU326
 916 0032 696A     		ldr	r1, [r5, #36]
  69:Drivers/lvgl/src/draw/sw/lv_draw_sw_box_shadow.c ****     shadow_area.x2 = core_area.x2 + dsc->width / 2 + 1;
 917              		.loc 1 69 48 view .LVU327
 918 0034 01EBD171 		add	r1, r1, r1, lsr #31
 919 0038 4910     		asrs	r1, r1, #1
 920 003a 4942     		rsbs	r1, r1, #0
  69:Drivers/lvgl/src/draw/sw/lv_draw_sw_box_shadow.c ****     shadow_area.x2 = core_area.x2 + dsc->width / 2 + 1;
 921              		.loc 1 69 35 view .LVU328
 922 003c 0844     		add	r0, r0, r1
  69:Drivers/lvgl/src/draw/sw/lv_draw_sw_box_shadow.c ****     shadow_area.x2 = core_area.x2 + dsc->width / 2 + 1;
 923              		.loc 1 69 52 view .LVU329
 924 003e 0138     		subs	r0, r0, #1
  69:Drivers/lvgl/src/draw/sw/lv_draw_sw_box_shadow.c ****     shadow_area.x2 = core_area.x2 + dsc->width / 2 + 1;
 925              		.loc 1 69 20 view .LVU330
 926 0040 3290     		str	r0, [sp, #200]
  70:Drivers/lvgl/src/draw/sw/lv_draw_sw_box_shadow.c ****     shadow_area.y1 = core_area.y1 - dsc->width / 2 - 1;
 927              		.loc 1 70 5 is_stmt 1 view .LVU331
  70:Drivers/lvgl/src/draw/sw/lv_draw_sw_box_shadow.c ****     shadow_area.y1 = core_area.y1 - dsc->width / 2 - 1;
 928              		.loc 1 70 52 is_stmt 0 view .LVU332
 929 0042 501A     		subs	r0, r2, r1
 930 0044 0130     		adds	r0, r0, #1
  70:Drivers/lvgl/src/draw/sw/lv_draw_sw_box_shadow.c ****     shadow_area.y1 = core_area.y1 - dsc->width / 2 - 1;
 931              		.loc 1 70 20 view .LVU333
 932 0046 3490     		str	r0, [sp, #208]
  71:Drivers/lvgl/src/draw/sw/lv_draw_sw_box_shadow.c ****     shadow_area.y2 = core_area.y2 + dsc->width / 2 + 1;
 933              		.loc 1 71 5 is_stmt 1 view .LVU334
  71:Drivers/lvgl/src/draw/sw/lv_draw_sw_box_shadow.c ****     shadow_area.y2 = core_area.y2 + dsc->width / 2 + 1;
 934              		.loc 1 71 35 is_stmt 0 view .LVU335
 935 0048 7A18     		adds	r2, r7, r1
  71:Drivers/lvgl/src/draw/sw/lv_draw_sw_box_shadow.c ****     shadow_area.y2 = core_area.y2 + dsc->width / 2 + 1;
 936              		.loc 1 71 52 view .LVU336
 937 004a 013A     		subs	r2, r2, #1
  71:Drivers/lvgl/src/draw/sw/lv_draw_sw_box_shadow.c ****     shadow_area.y2 = core_area.y2 + dsc->width / 2 + 1;
 938              		.loc 1 71 20 view .LVU337
 939 004c 3392     		str	r2, [sp, #204]
  72:Drivers/lvgl/src/draw/sw/lv_draw_sw_box_shadow.c **** 
 940              		.loc 1 72 5 is_stmt 1 view .LVU338
  72:Drivers/lvgl/src/draw/sw/lv_draw_sw_box_shadow.c **** 
 941              		.loc 1 72 52 is_stmt 0 view .LVU339
 942 004e 5B1A     		subs	r3, r3, r1
 943 0050 0133     		adds	r3, r3, #1
  72:Drivers/lvgl/src/draw/sw/lv_draw_sw_box_shadow.c **** 
 944              		.loc 1 72 20 view .LVU340
 945 0052 3593     		str	r3, [sp, #212]
  74:Drivers/lvgl/src/draw/sw/lv_draw_sw_box_shadow.c ****     if(opa > LV_OPA_MAX) opa = LV_OPA_COVER;
ARM GAS  /var/folders/qx/2_175_4n2s19vhvtspjhb3qh0000gn/T//ccioUrKE.s 			page 38


 946              		.loc 1 74 5 is_stmt 1 view .LVU341
  74:Drivers/lvgl/src/draw/sw/lv_draw_sw_box_shadow.c ****     if(opa > LV_OPA_MAX) opa = LV_OPA_COVER;
 947              		.loc 1 74 14 is_stmt 0 view .LVU342
 948 0054 95F83490 		ldrb	r9, [r5, #52]	@ zero_extendqisi2
 949              	.LVL98:
  75:Drivers/lvgl/src/draw/sw/lv_draw_sw_box_shadow.c **** 
 950              		.loc 1 75 5 is_stmt 1 view .LVU343
  75:Drivers/lvgl/src/draw/sw/lv_draw_sw_box_shadow.c **** 
 951              		.loc 1 75 7 is_stmt 0 view .LVU344
 952 0058 B9F1FD0F 		cmp	r9, #253
 953 005c 01D9     		bls	.L68
  75:Drivers/lvgl/src/draw/sw/lv_draw_sw_box_shadow.c **** 
 954              		.loc 1 75 30 discriminator 1 view .LVU345
 955 005e 4FF0FF09 		mov	r9, #255
 956              	.LVL99:
 957              	.L68:
  79:Drivers/lvgl/src/draw/sw/lv_draw_sw_box_shadow.c ****     if(!lv_area_intersect(&draw_area, &shadow_area, &t->clip_area)) return;
 958              		.loc 1 79 5 is_stmt 1 view .LVU346
  80:Drivers/lvgl/src/draw/sw/lv_draw_sw_box_shadow.c **** 
 959              		.loc 1 80 5 view .LVU347
  80:Drivers/lvgl/src/draw/sw/lv_draw_sw_box_shadow.c **** 
 960              		.loc 1 80 53 is_stmt 0 view .LVU348
 961 0062 029B     		ldr	r3, [sp, #8]
 962 0064 03F13807 		add	r7, r3, #56
  80:Drivers/lvgl/src/draw/sw/lv_draw_sw_box_shadow.c **** 
 963              		.loc 1 80 9 view .LVU349
 964 0068 3A46     		mov	r2, r7
 965 006a 32A9     		add	r1, sp, #200
 966 006c 2EA8     		add	r0, sp, #184
 967 006e FFF7FEFF 		bl	lv_area_intersect
 968              	.LVL100:
  80:Drivers/lvgl/src/draw/sw/lv_draw_sw_box_shadow.c **** 
 969              		.loc 1 80 7 discriminator 1 view .LVU350
 970 0072 10B9     		cbnz	r0, .L167
 971              	.LVL101:
 972              	.L67:
 560:Drivers/lvgl/src/draw/sw/lv_draw_sw_box_shadow.c **** 
 973              		.loc 1 560 1 view .LVU351
 974 0074 3BB0     		add	sp, sp, #236
 975              	.LCFI8:
 976              		.cfi_remember_state
 977              		.cfi_def_cfa_offset 36
 978              		@ sp needed
 979 0076 BDE8F08F 		pop	{r4, r5, r6, r7, r8, r9, r10, fp, pc}
 980              	.LVL102:
 981              	.L167:
 982              	.LCFI9:
 983              		.cfi_restore_state
  83:Drivers/lvgl/src/draw/sw/lv_draw_sw_box_shadow.c ****     lv_area_copy(&bg_area, coords);
 984              		.loc 1 83 5 is_stmt 1 view .LVU352
  84:Drivers/lvgl/src/draw/sw/lv_draw_sw_box_shadow.c ****     lv_area_increase(&bg_area, -1, -1);
 985              		.loc 1 84 5 view .LVU353
 986              	.LBB43:
 987              	.LBI43:
 107:Drivers/lvgl/src/draw/sw/../../misc/lv_area.h **** {
 988              		.loc 2 107 20 view .LVU354
 989              	.LBB44:
ARM GAS  /var/folders/qx/2_175_4n2s19vhvtspjhb3qh0000gn/T//ccioUrKE.s 			page 39


 109:Drivers/lvgl/src/draw/sw/../../misc/lv_area.h ****     dest->y1 = src->y1;
 990              		.loc 2 109 5 view .LVU355
 109:Drivers/lvgl/src/draw/sw/../../misc/lv_area.h ****     dest->y1 = src->y1;
 991              		.loc 2 109 19 is_stmt 0 view .LVU356
 992 007a 2368     		ldr	r3, [r4]
 109:Drivers/lvgl/src/draw/sw/../../misc/lv_area.h ****     dest->y1 = src->y1;
 993              		.loc 2 109 14 view .LVU357
 994 007c 2A93     		str	r3, [sp, #168]
 110:Drivers/lvgl/src/draw/sw/../../misc/lv_area.h ****     dest->x2 = src->x2;
 995              		.loc 2 110 5 is_stmt 1 view .LVU358
 110:Drivers/lvgl/src/draw/sw/../../misc/lv_area.h ****     dest->x2 = src->x2;
 996              		.loc 2 110 19 is_stmt 0 view .LVU359
 997 007e 6368     		ldr	r3, [r4, #4]
 110:Drivers/lvgl/src/draw/sw/../../misc/lv_area.h ****     dest->x2 = src->x2;
 998              		.loc 2 110 14 view .LVU360
 999 0080 2B93     		str	r3, [sp, #172]
 111:Drivers/lvgl/src/draw/sw/../../misc/lv_area.h ****     dest->y2 = src->y2;
 1000              		.loc 2 111 5 is_stmt 1 view .LVU361
 111:Drivers/lvgl/src/draw/sw/../../misc/lv_area.h ****     dest->y2 = src->y2;
 1001              		.loc 2 111 19 is_stmt 0 view .LVU362
 1002 0082 A368     		ldr	r3, [r4, #8]
 111:Drivers/lvgl/src/draw/sw/../../misc/lv_area.h ****     dest->y2 = src->y2;
 1003              		.loc 2 111 14 view .LVU363
 1004 0084 2C93     		str	r3, [sp, #176]
 1005              		.loc 2 112 5 is_stmt 1 view .LVU364
 1006              		.loc 2 112 19 is_stmt 0 view .LVU365
 1007 0086 E368     		ldr	r3, [r4, #12]
 1008              		.loc 2 112 14 view .LVU366
 1009 0088 2D93     		str	r3, [sp, #180]
 1010              	.LVL103:
 1011              		.loc 2 112 14 view .LVU367
 1012              	.LBE44:
 1013              	.LBE43:
  85:Drivers/lvgl/src/draw/sw/lv_draw_sw_box_shadow.c **** 
 1014              		.loc 1 85 5 is_stmt 1 view .LVU368
 1015 008a 0DF1A80A 		add	r10, sp, #168
 1016 008e 4FF0FF32 		mov	r2, #-1
 1017 0092 1146     		mov	r1, r2
 1018 0094 5046     		mov	r0, r10
 1019 0096 FFF7FEFF 		bl	lv_area_increase
 1020              	.LVL104:
  88:Drivers/lvgl/src/draw/sw/lv_draw_sw_box_shadow.c ****     int32_t short_side = LV_MIN(lv_area_get_width(&bg_area), lv_area_get_height(&bg_area));
 1021              		.loc 1 88 5 view .LVU369
  88:Drivers/lvgl/src/draw/sw/lv_draw_sw_box_shadow.c ****     int32_t short_side = LV_MIN(lv_area_get_width(&bg_area), lv_area_get_height(&bg_area));
 1022              		.loc 1 88 13 is_stmt 0 view .LVU370
 1023 009a EC69     		ldr	r4, [r5, #28]
 1024              	.LVL105:
  89:Drivers/lvgl/src/draw/sw/lv_draw_sw_box_shadow.c ****     if(r_bg > short_side >> 1) r_bg = short_side >> 1;
 1025              		.loc 1 89 5 is_stmt 1 view .LVU371
  89:Drivers/lvgl/src/draw/sw/lv_draw_sw_box_shadow.c ****     if(r_bg > short_side >> 1) r_bg = short_side >> 1;
 1026              		.loc 1 89 26 is_stmt 0 view .LVU372
 1027 009c 5046     		mov	r0, r10
 1028 009e FFF7FEFF 		bl	lv_area_get_width
 1029              	.LVL106:
 1030 00a2 8046     		mov	r8, r0
  89:Drivers/lvgl/src/draw/sw/lv_draw_sw_box_shadow.c ****     if(r_bg > short_side >> 1) r_bg = short_side >> 1;
 1031              		.loc 1 89 26 discriminator 1 view .LVU373
ARM GAS  /var/folders/qx/2_175_4n2s19vhvtspjhb3qh0000gn/T//ccioUrKE.s 			page 40


 1032 00a4 5046     		mov	r0, r10
 1033 00a6 FFF7FEFF 		bl	lv_area_get_height
 1034              	.LVL107:
  89:Drivers/lvgl/src/draw/sw/lv_draw_sw_box_shadow.c ****     if(r_bg > short_side >> 1) r_bg = short_side >> 1;
 1035              		.loc 1 89 26 discriminator 2 view .LVU374
 1036 00aa 8045     		cmp	r8, r0
 1037 00ac 80F20081 		bge	.L71
  89:Drivers/lvgl/src/draw/sw/lv_draw_sw_box_shadow.c ****     if(r_bg > short_side >> 1) r_bg = short_side >> 1;
 1038              		.loc 1 89 26 discriminator 1 view .LVU375
 1039 00b0 5046     		mov	r0, r10
 1040 00b2 FFF7FEFF 		bl	lv_area_get_width
 1041              	.LVL108:
 1042              	.L72:
  90:Drivers/lvgl/src/draw/sw/lv_draw_sw_box_shadow.c **** 
 1043              		.loc 1 90 5 is_stmt 1 view .LVU376
  90:Drivers/lvgl/src/draw/sw/lv_draw_sw_box_shadow.c **** 
 1044              		.loc 1 90 26 is_stmt 0 view .LVU377
 1045 00b6 4310     		asrs	r3, r0, #1
 1046 00b8 0393     		str	r3, [sp, #12]
  90:Drivers/lvgl/src/draw/sw/lv_draw_sw_box_shadow.c **** 
 1047              		.loc 1 90 7 view .LVU378
 1048 00ba B4EB600F 		cmp	r4, r0, asr #1
 1049 00be 00DC     		bgt	.L73
  88:Drivers/lvgl/src/draw/sw/lv_draw_sw_box_shadow.c ****     int32_t short_side = LV_MIN(lv_area_get_width(&bg_area), lv_area_get_height(&bg_area));
 1050              		.loc 1 88 13 view .LVU379
 1051 00c0 0394     		str	r4, [sp, #12]
 1052              	.L73:
 1053              	.LVL109:
  93:Drivers/lvgl/src/draw/sw/lv_draw_sw_box_shadow.c ****     short_side = LV_MIN(lv_area_get_width(&core_area), lv_area_get_height(&core_area));
 1054              		.loc 1 93 5 is_stmt 1 view .LVU380
  93:Drivers/lvgl/src/draw/sw/lv_draw_sw_box_shadow.c ****     short_side = LV_MIN(lv_area_get_width(&core_area), lv_area_get_height(&core_area));
 1055              		.loc 1 93 13 is_stmt 0 view .LVU381
 1056 00c2 EC69     		ldr	r4, [r5, #28]
 1057              	.LVL110:
  94:Drivers/lvgl/src/draw/sw/lv_draw_sw_box_shadow.c ****     if(r_sh > short_side >> 1) r_sh = short_side >> 1;
 1058              		.loc 1 94 5 is_stmt 1 view .LVU382
  94:Drivers/lvgl/src/draw/sw/lv_draw_sw_box_shadow.c ****     if(r_sh > short_side >> 1) r_sh = short_side >> 1;
 1059              		.loc 1 94 18 is_stmt 0 view .LVU383
 1060 00c4 0DF1D80A 		add	r10, sp, #216
 1061 00c8 5046     		mov	r0, r10
 1062              	.LVL111:
  94:Drivers/lvgl/src/draw/sw/lv_draw_sw_box_shadow.c ****     if(r_sh > short_side >> 1) r_sh = short_side >> 1;
 1063              		.loc 1 94 18 view .LVU384
 1064 00ca FFF7FEFF 		bl	lv_area_get_width
 1065              	.LVL112:
 1066 00ce 8046     		mov	r8, r0
  94:Drivers/lvgl/src/draw/sw/lv_draw_sw_box_shadow.c ****     if(r_sh > short_side >> 1) r_sh = short_side >> 1;
 1067              		.loc 1 94 18 discriminator 1 view .LVU385
 1068 00d0 5046     		mov	r0, r10
 1069 00d2 FFF7FEFF 		bl	lv_area_get_height
 1070              	.LVL113:
  94:Drivers/lvgl/src/draw/sw/lv_draw_sw_box_shadow.c ****     if(r_sh > short_side >> 1) r_sh = short_side >> 1;
 1071              		.loc 1 94 18 discriminator 2 view .LVU386
 1072 00d6 8045     		cmp	r8, r0
 1073 00d8 80F2EE80 		bge	.L74
  94:Drivers/lvgl/src/draw/sw/lv_draw_sw_box_shadow.c ****     if(r_sh > short_side >> 1) r_sh = short_side >> 1;
 1074              		.loc 1 94 18 discriminator 1 view .LVU387
ARM GAS  /var/folders/qx/2_175_4n2s19vhvtspjhb3qh0000gn/T//ccioUrKE.s 			page 41


 1075 00dc 5046     		mov	r0, r10
 1076 00de FFF7FEFF 		bl	lv_area_get_width
 1077              	.LVL114:
 1078              	.L75:
  95:Drivers/lvgl/src/draw/sw/lv_draw_sw_box_shadow.c **** 
 1079              		.loc 1 95 5 is_stmt 1 view .LVU388
  95:Drivers/lvgl/src/draw/sw/lv_draw_sw_box_shadow.c **** 
 1080              		.loc 1 95 26 is_stmt 0 view .LVU389
 1081 00e2 4FEA6008 		asr	r8, r0, #1
  95:Drivers/lvgl/src/draw/sw/lv_draw_sw_box_shadow.c **** 
 1082              		.loc 1 95 7 view .LVU390
 1083 00e6 B4EB600F 		cmp	r4, r0, asr #1
 1084 00ea 00DC     		bgt	.L76
  93:Drivers/lvgl/src/draw/sw/lv_draw_sw_box_shadow.c ****     short_side = LV_MIN(lv_area_get_width(&core_area), lv_area_get_height(&core_area));
 1085              		.loc 1 93 13 view .LVU391
 1086 00ec A046     		mov	r8, r4
 1087              	.L76:
 1088              	.LVL115:
  98:Drivers/lvgl/src/draw/sw/lv_draw_sw_box_shadow.c **** 
 1089              		.loc 1 98 5 is_stmt 1 view .LVU392
  98:Drivers/lvgl/src/draw/sw/lv_draw_sw_box_shadow.c **** 
 1090              		.loc 1 98 30 is_stmt 0 view .LVU393
 1091 00ee 6C6A     		ldr	r4, [r5, #36]
  98:Drivers/lvgl/src/draw/sw/lv_draw_sw_box_shadow.c **** 
 1092              		.loc 1 98 13 view .LVU394
 1093 00f0 4444     		add	r4, r4, r8
 1094              	.LVL116:
 100:Drivers/lvgl/src/draw/sw/lv_draw_sw_box_shadow.c **** 
 1095              		.loc 1 100 5 is_stmt 1 view .LVU395
 124:Drivers/lvgl/src/draw/sw/lv_draw_sw_box_shadow.c ****     LV_ASSERT_MALLOC(sh_buf);
 1096              		.loc 1 124 5 view .LVU396
 124:Drivers/lvgl/src/draw/sw/lv_draw_sw_box_shadow.c ****     LV_ASSERT_MALLOC(sh_buf);
 1097              		.loc 1 124 36 is_stmt 0 view .LVU397
 1098 00f2 04FB04F0 		mul	r0, r4, r4
 1099              	.LVL117:
 124:Drivers/lvgl/src/draw/sw/lv_draw_sw_box_shadow.c ****     LV_ASSERT_MALLOC(sh_buf);
 1100              		.loc 1 124 14 view .LVU398
 1101 00f6 4000     		lsls	r0, r0, #1
 1102 00f8 FFF7FEFF 		bl	lv_malloc
 1103              	.LVL118:
 125:Drivers/lvgl/src/draw/sw/lv_draw_sw_box_shadow.c ****     shadow_draw_corner_buf(&core_area, (uint16_t *)sh_buf, dsc->width, r_sh);
 1104              		.loc 1 125 5 is_stmt 1 view .LVU399
 125:Drivers/lvgl/src/draw/sw/lv_draw_sw_box_shadow.c ****     shadow_draw_corner_buf(&core_area, (uint16_t *)sh_buf, dsc->width, r_sh);
 1105              		.loc 1 125 5 view .LVU400
 1106 00fc 0590     		str	r0, [sp, #20]
 1107 00fe 0028     		cmp	r0, #0
 1108 0100 00F0DE80 		beq	.L78
 125:Drivers/lvgl/src/draw/sw/lv_draw_sw_box_shadow.c ****     shadow_draw_corner_buf(&core_area, (uint16_t *)sh_buf, dsc->width, r_sh);
 1109              		.loc 1 125 5 view .LVU401
 125:Drivers/lvgl/src/draw/sw/lv_draw_sw_box_shadow.c ****     shadow_draw_corner_buf(&core_area, (uint16_t *)sh_buf, dsc->width, r_sh);
 1110              		.loc 1 125 29 view .LVU402
 126:Drivers/lvgl/src/draw/sw/lv_draw_sw_box_shadow.c **** #endif /*LV_DRAW_SW_SHADOW_CACHE_SIZE*/
 1111              		.loc 1 126 5 view .LVU403
 1112 0104 4346     		mov	r3, r8
 1113 0106 6A6A     		ldr	r2, [r5, #36]
 1114 0108 0599     		ldr	r1, [sp, #20]
 1115 010a 36A8     		add	r0, sp, #216
ARM GAS  /var/folders/qx/2_175_4n2s19vhvtspjhb3qh0000gn/T//ccioUrKE.s 			page 42


 1116              	.LVL119:
 126:Drivers/lvgl/src/draw/sw/lv_draw_sw_box_shadow.c **** #endif /*LV_DRAW_SW_SHADOW_CACHE_SIZE*/
 1117              		.loc 1 126 5 is_stmt 0 view .LVU404
 1118 010c FFF7FEFF 		bl	shadow_draw_corner_buf
 1119              	.LVL120:
 130:Drivers/lvgl/src/draw/sw/lv_draw_sw_box_shadow.c **** 
 1120              		.loc 1 130 5 is_stmt 1 view .LVU405
 130:Drivers/lvgl/src/draw/sw/lv_draw_sw_box_shadow.c **** 
 1121              		.loc 1 130 10 is_stmt 0 view .LVU406
 1122 0110 95F83530 		ldrb	r3, [r5, #53]	@ zero_extendqisi2
 1123              	.LVL121:
 134:Drivers/lvgl/src/draw/sw/lv_draw_sw_box_shadow.c ****     void * masks[2] = {0};
 1124              		.loc 1 134 5 is_stmt 1 view .LVU407
 135:Drivers/lvgl/src/draw/sw/lv_draw_sw_box_shadow.c ****     if(!simple) {
 1125              		.loc 1 135 5 view .LVU408
 135:Drivers/lvgl/src/draw/sw/lv_draw_sw_box_shadow.c ****     if(!simple) {
 1126              		.loc 1 135 12 is_stmt 0 view .LVU409
 1127 0114 0022     		movs	r2, #0
 1128 0116 1F92     		str	r2, [sp, #124]
 1129 0118 2092     		str	r2, [sp, #128]
 136:Drivers/lvgl/src/draw/sw/lv_draw_sw_box_shadow.c ****         lv_draw_sw_mask_radius_init(&mask_rout_param, &bg_area, r_bg, true);
 1130              		.loc 1 136 5 is_stmt 1 view .LVU410
 136:Drivers/lvgl/src/draw/sw/lv_draw_sw_box_shadow.c ****         lv_draw_sw_mask_radius_init(&mask_rout_param, &bg_area, r_bg, true);
 1131              		.loc 1 136 7 is_stmt 0 view .LVU411
 1132 011a 13F00103 		ands	r3, r3, #1
 1133              	.LVL122:
 136:Drivers/lvgl/src/draw/sw/lv_draw_sw_box_shadow.c ****         lv_draw_sw_mask_radius_init(&mask_rout_param, &bg_area, r_bg, true);
 1134              		.loc 1 136 7 view .LVU412
 1135 011e 0693     		str	r3, [sp, #24]
 1136 0120 00F0CF80 		beq	.L168
 1137              	.LVL123:
 1138              	.L79:
 141:Drivers/lvgl/src/draw/sw/lv_draw_sw_box_shadow.c ****     lv_area_t blend_area;
 1139              		.loc 1 141 5 is_stmt 1 view .LVU413
 141:Drivers/lvgl/src/draw/sw/lv_draw_sw_box_shadow.c ****     lv_area_t blend_area;
 1140              		.loc 1 141 37 is_stmt 0 view .LVU414
 1141 0124 0DF1C808 		add	r8, sp, #200
 1142 0128 4046     		mov	r0, r8
 1143 012a FFF7FEFF 		bl	lv_area_get_width
 1144              	.LVL124:
 141:Drivers/lvgl/src/draw/sw/lv_draw_sw_box_shadow.c ****     lv_area_t blend_area;
 1145              		.loc 1 141 27 discriminator 1 view .LVU415
 1146 012e FFF7FEFF 		bl	lv_malloc
 1147              	.LVL125:
 1148 0132 0646     		mov	r6, r0
 1149 0134 0490     		str	r0, [sp, #16]
 1150              	.LVL126:
 142:Drivers/lvgl/src/draw/sw/lv_draw_sw_box_shadow.c ****     lv_area_t clip_area_sub;
 1151              		.loc 1 142 5 is_stmt 1 view .LVU416
 143:Drivers/lvgl/src/draw/sw/lv_draw_sw_box_shadow.c ****     lv_opa_t * sh_buf_tmp;
 1152              		.loc 1 143 5 view .LVU417
 144:Drivers/lvgl/src/draw/sw/lv_draw_sw_box_shadow.c ****     int32_t y;
 1153              		.loc 1 144 5 view .LVU418
 145:Drivers/lvgl/src/draw/sw/lv_draw_sw_box_shadow.c ****     bool simple_sub;
 1154              		.loc 1 145 5 view .LVU419
 146:Drivers/lvgl/src/draw/sw/lv_draw_sw_box_shadow.c **** 
 1155              		.loc 1 146 5 view .LVU420
ARM GAS  /var/folders/qx/2_175_4n2s19vhvtspjhb3qh0000gn/T//ccioUrKE.s 			page 43


 148:Drivers/lvgl/src/draw/sw/lv_draw_sw_box_shadow.c ****     lv_memzero(&blend_dsc, sizeof(blend_dsc));
 1156              		.loc 1 148 5 view .LVU421
 149:Drivers/lvgl/src/draw/sw/lv_draw_sw_box_shadow.c ****     blend_dsc.blend_area = &blend_area;
 1157              		.loc 1 149 5 view .LVU422
 1158              	.LBB45:
 1159              	.LBI45:
  73:Drivers/lvgl/src/draw/sw/../../misc/../stdlib/lv_string.h **** {
 1160              		.loc 3 73 20 view .LVU423
 1161              	.LBB46:
  75:Drivers/lvgl/src/draw/sw/../../misc/../stdlib/lv_string.h **** }
 1162              		.loc 3 75 5 view .LVU424
 1163 0136 2C22     		movs	r2, #44
 1164 0138 0021     		movs	r1, #0
 1165 013a 0CA8     		add	r0, sp, #48
 1166              	.LVL127:
  75:Drivers/lvgl/src/draw/sw/../../misc/../stdlib/lv_string.h **** }
 1167              		.loc 3 75 5 is_stmt 0 view .LVU425
 1168 013c FFF7FEFF 		bl	lv_memset
 1169              	.LVL128:
  75:Drivers/lvgl/src/draw/sw/../../misc/../stdlib/lv_string.h **** }
 1170              		.loc 3 75 5 view .LVU426
 1171              	.LBE46:
 1172              	.LBE45:
 150:Drivers/lvgl/src/draw/sw/lv_draw_sw_box_shadow.c ****     blend_dsc.mask_area = &blend_area;
 1173              		.loc 1 150 5 is_stmt 1 view .LVU427
 150:Drivers/lvgl/src/draw/sw/lv_draw_sw_box_shadow.c ****     blend_dsc.mask_area = &blend_area;
 1174              		.loc 1 150 26 is_stmt 0 view .LVU428
 1175 0140 0DF16C0A 		add	r10, sp, #108
 1176 0144 CDF830A0 		str	r10, [sp, #48]
 151:Drivers/lvgl/src/draw/sw/lv_draw_sw_box_shadow.c ****     blend_dsc.mask_buf = mask_buf;
 1177              		.loc 1 151 5 is_stmt 1 view .LVU429
 151:Drivers/lvgl/src/draw/sw/lv_draw_sw_box_shadow.c ****     blend_dsc.mask_buf = mask_buf;
 1178              		.loc 1 151 25 is_stmt 0 view .LVU430
 1179 0148 CDF850A0 		str	r10, [sp, #80]
 152:Drivers/lvgl/src/draw/sw/lv_draw_sw_box_shadow.c ****     blend_dsc.color = dsc->color;
 1180              		.loc 1 152 5 is_stmt 1 view .LVU431
 152:Drivers/lvgl/src/draw/sw/lv_draw_sw_box_shadow.c ****     blend_dsc.color = dsc->color;
 1181              		.loc 1 152 24 is_stmt 0 view .LVU432
 1182 014c 1296     		str	r6, [sp, #72]
 153:Drivers/lvgl/src/draw/sw/lv_draw_sw_box_shadow.c ****     blend_dsc.opa = dsc->opa;
 1183              		.loc 1 153 5 is_stmt 1 view .LVU433
 153:Drivers/lvgl/src/draw/sw/lv_draw_sw_box_shadow.c ****     blend_dsc.opa = dsc->opa;
 1184              		.loc 1 153 21 is_stmt 0 view .LVU434
 1185 014e 2A8C     		ldrh	r2, [r5, #32]	@ unaligned
 1186 0150 95F82230 		ldrb	r3, [r5, #34]	@ zero_extendqisi2
 1187 0154 ADF84520 		strh	r2, [sp, #69]	@ unaligned
 1188 0158 8DF84730 		strb	r3, [sp, #71]
 154:Drivers/lvgl/src/draw/sw/lv_draw_sw_box_shadow.c **** 
 1189              		.loc 1 154 5 is_stmt 1 view .LVU435
 154:Drivers/lvgl/src/draw/sw/lv_draw_sw_box_shadow.c **** 
 1190              		.loc 1 154 24 is_stmt 0 view .LVU436
 1191 015c 95F83430 		ldrb	r3, [r5, #52]	@ zero_extendqisi2
 154:Drivers/lvgl/src/draw/sw/lv_draw_sw_box_shadow.c **** 
 1192              		.loc 1 154 19 view .LVU437
 1193 0160 8DF84430 		strb	r3, [sp, #68]
 156:Drivers/lvgl/src/draw/sw/lv_draw_sw_box_shadow.c ****     int32_t h_half = shadow_area.y1 + lv_area_get_height(&shadow_area) / 2;
 1194              		.loc 1 156 5 is_stmt 1 view .LVU438
ARM GAS  /var/folders/qx/2_175_4n2s19vhvtspjhb3qh0000gn/T//ccioUrKE.s 			page 44


 156:Drivers/lvgl/src/draw/sw/lv_draw_sw_box_shadow.c ****     int32_t h_half = shadow_area.y1 + lv_area_get_height(&shadow_area) / 2;
 1195              		.loc 1 156 33 is_stmt 0 view .LVU439
 1196 0164 DDF8C8B0 		ldr	fp, [sp, #200]
 156:Drivers/lvgl/src/draw/sw/lv_draw_sw_box_shadow.c ****     int32_t h_half = shadow_area.y1 + lv_area_get_height(&shadow_area) / 2;
 1197              		.loc 1 156 39 view .LVU440
 1198 0168 4046     		mov	r0, r8
 1199 016a FFF7FEFF 		bl	lv_area_get_width
 1200              	.LVL129:
 156:Drivers/lvgl/src/draw/sw/lv_draw_sw_box_shadow.c ****     int32_t h_half = shadow_area.y1 + lv_area_get_height(&shadow_area) / 2;
 1201              		.loc 1 156 71 discriminator 1 view .LVU441
 1202 016e 00EBD070 		add	r0, r0, r0, lsr #31
 156:Drivers/lvgl/src/draw/sw/lv_draw_sw_box_shadow.c ****     int32_t h_half = shadow_area.y1 + lv_area_get_height(&shadow_area) / 2;
 1203              		.loc 1 156 13 discriminator 1 view .LVU442
 1204 0172 0BEB6006 		add	r6, fp, r0, asr #1
 1205              	.LVL130:
 156:Drivers/lvgl/src/draw/sw/lv_draw_sw_box_shadow.c ****     int32_t h_half = shadow_area.y1 + lv_area_get_height(&shadow_area) / 2;
 1206              		.loc 1 156 13 discriminator 1 view .LVU443
 1207 0176 0796     		str	r6, [sp, #28]
 1208              	.LVL131:
 157:Drivers/lvgl/src/draw/sw/lv_draw_sw_box_shadow.c **** 
 1209              		.loc 1 157 5 is_stmt 1 view .LVU444
 157:Drivers/lvgl/src/draw/sw/lv_draw_sw_box_shadow.c **** 
 1210              		.loc 1 157 33 is_stmt 0 view .LVU445
 1211 0178 DDF8CCB0 		ldr	fp, [sp, #204]
 157:Drivers/lvgl/src/draw/sw/lv_draw_sw_box_shadow.c **** 
 1212              		.loc 1 157 39 view .LVU446
 1213 017c 4046     		mov	r0, r8
 1214 017e FFF7FEFF 		bl	lv_area_get_height
 1215              	.LVL132:
 157:Drivers/lvgl/src/draw/sw/lv_draw_sw_box_shadow.c **** 
 1216              		.loc 1 157 72 discriminator 1 view .LVU447
 1217 0182 00EBD070 		add	r0, r0, r0, lsr #31
 157:Drivers/lvgl/src/draw/sw/lv_draw_sw_box_shadow.c **** 
 1218              		.loc 1 157 13 discriminator 1 view .LVU448
 1219 0186 0BEB6008 		add	r8, fp, r0, asr #1
 1220              	.LVL133:
 162:Drivers/lvgl/src/draw/sw/lv_draw_sw_box_shadow.c ****     blend_area.x1 = shadow_area.x2 - corner_size + 1;
 1221              		.loc 1 162 5 is_stmt 1 view .LVU449
 162:Drivers/lvgl/src/draw/sw/lv_draw_sw_box_shadow.c ****     blend_area.x1 = shadow_area.x2 - corner_size + 1;
 1222              		.loc 1 162 32 is_stmt 0 view .LVU450
 1223 018a 349B     		ldr	r3, [sp, #208]
 162:Drivers/lvgl/src/draw/sw/lv_draw_sw_box_shadow.c ****     blend_area.x1 = shadow_area.x2 - corner_size + 1;
 1224              		.loc 1 162 19 view .LVU451
 1225 018c 1D93     		str	r3, [sp, #116]
 163:Drivers/lvgl/src/draw/sw/lv_draw_sw_box_shadow.c ****     blend_area.y1 = shadow_area.y1;
 1226              		.loc 1 163 5 is_stmt 1 view .LVU452
 163:Drivers/lvgl/src/draw/sw/lv_draw_sw_box_shadow.c ****     blend_area.y1 = shadow_area.y1;
 1227              		.loc 1 163 36 is_stmt 0 view .LVU453
 1228 018e 1B1B     		subs	r3, r3, r4
 163:Drivers/lvgl/src/draw/sw/lv_draw_sw_box_shadow.c ****     blend_area.y1 = shadow_area.y1;
 1229              		.loc 1 163 50 view .LVU454
 1230 0190 5A1C     		adds	r2, r3, #1
 163:Drivers/lvgl/src/draw/sw/lv_draw_sw_box_shadow.c ****     blend_area.y1 = shadow_area.y1;
 1231              		.loc 1 163 19 view .LVU455
 1232 0192 1B92     		str	r2, [sp, #108]
 164:Drivers/lvgl/src/draw/sw/lv_draw_sw_box_shadow.c ****     blend_area.y2 = shadow_area.y1 + corner_size - 1;
 1233              		.loc 1 164 5 is_stmt 1 view .LVU456
ARM GAS  /var/folders/qx/2_175_4n2s19vhvtspjhb3qh0000gn/T//ccioUrKE.s 			page 45


 164:Drivers/lvgl/src/draw/sw/lv_draw_sw_box_shadow.c ****     blend_area.y2 = shadow_area.y1 + corner_size - 1;
 1234              		.loc 1 164 32 is_stmt 0 view .LVU457
 1235 0194 339B     		ldr	r3, [sp, #204]
 164:Drivers/lvgl/src/draw/sw/lv_draw_sw_box_shadow.c ****     blend_area.y2 = shadow_area.y1 + corner_size - 1;
 1236              		.loc 1 164 19 view .LVU458
 1237 0196 1C93     		str	r3, [sp, #112]
 165:Drivers/lvgl/src/draw/sw/lv_draw_sw_box_shadow.c ****     /*Do not overdraw the other top corners*/
 1238              		.loc 1 165 5 is_stmt 1 view .LVU459
 165:Drivers/lvgl/src/draw/sw/lv_draw_sw_box_shadow.c ****     /*Do not overdraw the other top corners*/
 1239              		.loc 1 165 36 is_stmt 0 view .LVU460
 1240 0198 2344     		add	r3, r3, r4
 165:Drivers/lvgl/src/draw/sw/lv_draw_sw_box_shadow.c ****     /*Do not overdraw the other top corners*/
 1241              		.loc 1 165 50 view .LVU461
 1242 019a 013B     		subs	r3, r3, #1
 165:Drivers/lvgl/src/draw/sw/lv_draw_sw_box_shadow.c ****     /*Do not overdraw the other top corners*/
 1243              		.loc 1 165 19 view .LVU462
 1244 019c 1E93     		str	r3, [sp, #120]
 167:Drivers/lvgl/src/draw/sw/lv_draw_sw_box_shadow.c ****     blend_area.y2 = LV_MIN(blend_area.y2, h_half);
 1245              		.loc 1 167 5 is_stmt 1 view .LVU463
 167:Drivers/lvgl/src/draw/sw/lv_draw_sw_box_shadow.c ****     blend_area.y2 = LV_MIN(blend_area.y2, h_half);
 1246              		.loc 1 167 21 is_stmt 0 view .LVU464
 1247 019e B242     		cmp	r2, r6
 1248 01a0 B8BF     		it	lt
 1249 01a2 3246     		movlt	r2, r6
 167:Drivers/lvgl/src/draw/sw/lv_draw_sw_box_shadow.c ****     blend_area.y2 = LV_MIN(blend_area.y2, h_half);
 1250              		.loc 1 167 19 view .LVU465
 1251 01a4 1B92     		str	r2, [sp, #108]
 168:Drivers/lvgl/src/draw/sw/lv_draw_sw_box_shadow.c **** 
 1252              		.loc 1 168 5 is_stmt 1 view .LVU466
 168:Drivers/lvgl/src/draw/sw/lv_draw_sw_box_shadow.c **** 
 1253              		.loc 1 168 21 is_stmt 0 view .LVU467
 1254 01a6 4345     		cmp	r3, r8
 1255 01a8 A8BF     		it	ge
 1256 01aa 4346     		movge	r3, r8
 168:Drivers/lvgl/src/draw/sw/lv_draw_sw_box_shadow.c **** 
 1257              		.loc 1 168 19 view .LVU468
 1258 01ac 1E93     		str	r3, [sp, #120]
 170:Drivers/lvgl/src/draw/sw/lv_draw_sw_box_shadow.c ****        !lv_area_is_in(&clip_area_sub, &bg_area, r_bg)) {
 1259              		.loc 1 170 5 is_stmt 1 view .LVU469
 170:Drivers/lvgl/src/draw/sw/lv_draw_sw_box_shadow.c ****        !lv_area_is_in(&clip_area_sub, &bg_area, r_bg)) {
 1260              		.loc 1 170 8 is_stmt 0 view .LVU470
 1261 01ae 3A46     		mov	r2, r7
 1262 01b0 5146     		mov	r1, r10
 1263 01b2 17A8     		add	r0, sp, #92
 1264 01b4 FFF7FEFF 		bl	lv_area_intersect
 1265              	.LVL134:
 170:Drivers/lvgl/src/draw/sw/lv_draw_sw_box_shadow.c ****        !lv_area_is_in(&clip_area_sub, &bg_area, r_bg)) {
 1266              		.loc 1 170 7 discriminator 1 view .LVU471
 1267 01b8 0028     		cmp	r0, #0
 1268 01ba 40F08D80 		bne	.L169
 1269              	.LVL135:
 1270              	.L80:
 205:Drivers/lvgl/src/draw/sw/lv_draw_sw_box_shadow.c ****     blend_area.x1 = shadow_area.x2 - corner_size + 1;
 1271              		.loc 1 205 5 is_stmt 1 view .LVU472
 205:Drivers/lvgl/src/draw/sw/lv_draw_sw_box_shadow.c ****     blend_area.x1 = shadow_area.x2 - corner_size + 1;
 1272              		.loc 1 205 32 is_stmt 0 view .LVU473
 1273 01be 349B     		ldr	r3, [sp, #208]
ARM GAS  /var/folders/qx/2_175_4n2s19vhvtspjhb3qh0000gn/T//ccioUrKE.s 			page 46


 205:Drivers/lvgl/src/draw/sw/lv_draw_sw_box_shadow.c ****     blend_area.x1 = shadow_area.x2 - corner_size + 1;
 1274              		.loc 1 205 19 view .LVU474
 1275 01c0 1D93     		str	r3, [sp, #116]
 206:Drivers/lvgl/src/draw/sw/lv_draw_sw_box_shadow.c ****     blend_area.y1 = shadow_area.y2 - corner_size + 1;
 1276              		.loc 1 206 5 is_stmt 1 view .LVU475
 206:Drivers/lvgl/src/draw/sw/lv_draw_sw_box_shadow.c ****     blend_area.y1 = shadow_area.y2 - corner_size + 1;
 1277              		.loc 1 206 36 is_stmt 0 view .LVU476
 1278 01c2 1B1B     		subs	r3, r3, r4
 206:Drivers/lvgl/src/draw/sw/lv_draw_sw_box_shadow.c ****     blend_area.y1 = shadow_area.y2 - corner_size + 1;
 1279              		.loc 1 206 50 view .LVU477
 1280 01c4 0133     		adds	r3, r3, #1
 206:Drivers/lvgl/src/draw/sw/lv_draw_sw_box_shadow.c ****     blend_area.y1 = shadow_area.y2 - corner_size + 1;
 1281              		.loc 1 206 19 view .LVU478
 1282 01c6 1B93     		str	r3, [sp, #108]
 207:Drivers/lvgl/src/draw/sw/lv_draw_sw_box_shadow.c ****     blend_area.y2 = shadow_area.y2;
 1283              		.loc 1 207 5 is_stmt 1 view .LVU479
 207:Drivers/lvgl/src/draw/sw/lv_draw_sw_box_shadow.c ****     blend_area.y2 = shadow_area.y2;
 1284              		.loc 1 207 32 is_stmt 0 view .LVU480
 1285 01c8 3599     		ldr	r1, [sp, #212]
 207:Drivers/lvgl/src/draw/sw/lv_draw_sw_box_shadow.c ****     blend_area.y2 = shadow_area.y2;
 1286              		.loc 1 207 36 view .LVU481
 1287 01ca 0A1B     		subs	r2, r1, r4
 207:Drivers/lvgl/src/draw/sw/lv_draw_sw_box_shadow.c ****     blend_area.y2 = shadow_area.y2;
 1288              		.loc 1 207 50 view .LVU482
 1289 01cc 0132     		adds	r2, r2, #1
 207:Drivers/lvgl/src/draw/sw/lv_draw_sw_box_shadow.c ****     blend_area.y2 = shadow_area.y2;
 1290              		.loc 1 207 19 view .LVU483
 1291 01ce 1C92     		str	r2, [sp, #112]
 208:Drivers/lvgl/src/draw/sw/lv_draw_sw_box_shadow.c ****     /*Do not overdraw the other corners*/
 1292              		.loc 1 208 5 is_stmt 1 view .LVU484
 208:Drivers/lvgl/src/draw/sw/lv_draw_sw_box_shadow.c ****     /*Do not overdraw the other corners*/
 1293              		.loc 1 208 19 is_stmt 0 view .LVU485
 1294 01d0 1E91     		str	r1, [sp, #120]
 210:Drivers/lvgl/src/draw/sw/lv_draw_sw_box_shadow.c ****     blend_area.y1 = LV_MAX(blend_area.y1, h_half + 1);
 1295              		.loc 1 210 5 is_stmt 1 view .LVU486
 210:Drivers/lvgl/src/draw/sw/lv_draw_sw_box_shadow.c ****     blend_area.y1 = LV_MAX(blend_area.y1, h_half + 1);
 1296              		.loc 1 210 21 is_stmt 0 view .LVU487
 1297 01d2 0799     		ldr	r1, [sp, #28]
 1298 01d4 8B42     		cmp	r3, r1
 1299 01d6 B8BF     		it	lt
 1300 01d8 0B46     		movlt	r3, r1
 210:Drivers/lvgl/src/draw/sw/lv_draw_sw_box_shadow.c ****     blend_area.y1 = LV_MAX(blend_area.y1, h_half + 1);
 1301              		.loc 1 210 19 view .LVU488
 1302 01da 1B93     		str	r3, [sp, #108]
 211:Drivers/lvgl/src/draw/sw/lv_draw_sw_box_shadow.c **** 
 1303              		.loc 1 211 5 is_stmt 1 view .LVU489
 211:Drivers/lvgl/src/draw/sw/lv_draw_sw_box_shadow.c **** 
 1304              		.loc 1 211 21 is_stmt 0 view .LVU490
 1305 01dc 08F1010B 		add	fp, r8, #1
 1306 01e0 5A45     		cmp	r2, fp
 1307 01e2 B8BF     		it	lt
 1308 01e4 5A46     		movlt	r2, fp
 211:Drivers/lvgl/src/draw/sw/lv_draw_sw_box_shadow.c **** 
 1309              		.loc 1 211 19 view .LVU491
 1310 01e6 1C92     		str	r2, [sp, #112]
 213:Drivers/lvgl/src/draw/sw/lv_draw_sw_box_shadow.c ****        !lv_area_is_in(&clip_area_sub, &bg_area, r_bg)) {
 1311              		.loc 1 213 5 is_stmt 1 view .LVU492
ARM GAS  /var/folders/qx/2_175_4n2s19vhvtspjhb3qh0000gn/T//ccioUrKE.s 			page 47


 213:Drivers/lvgl/src/draw/sw/lv_draw_sw_box_shadow.c ****        !lv_area_is_in(&clip_area_sub, &bg_area, r_bg)) {
 1312              		.loc 1 213 8 is_stmt 0 view .LVU493
 1313 01e8 3A46     		mov	r2, r7
 1314 01ea 1BA9     		add	r1, sp, #108
 1315 01ec 17A8     		add	r0, sp, #92
 1316 01ee FFF7FEFF 		bl	lv_area_intersect
 1317              	.LVL136:
 213:Drivers/lvgl/src/draw/sw/lv_draw_sw_box_shadow.c ****        !lv_area_is_in(&clip_area_sub, &bg_area, r_bg)) {
 1318              		.loc 1 213 7 discriminator 1 view .LVU494
 1319 01f2 0028     		cmp	r0, #0
 1320 01f4 40F0DA80 		bne	.L170
 1321              	.LVL137:
 1322              	.L86:
 247:Drivers/lvgl/src/draw/sw/lv_draw_sw_box_shadow.c ****     blend_area.x2 = shadow_area.x2 - corner_size;
 1323              		.loc 1 247 5 is_stmt 1 view .LVU495
 247:Drivers/lvgl/src/draw/sw/lv_draw_sw_box_shadow.c ****     blend_area.x2 = shadow_area.x2 - corner_size;
 1324              		.loc 1 247 32 is_stmt 0 view .LVU496
 1325 01f8 329B     		ldr	r3, [sp, #200]
 247:Drivers/lvgl/src/draw/sw/lv_draw_sw_box_shadow.c ****     blend_area.x2 = shadow_area.x2 - corner_size;
 1326              		.loc 1 247 36 view .LVU497
 1327 01fa 2344     		add	r3, r3, r4
 247:Drivers/lvgl/src/draw/sw/lv_draw_sw_box_shadow.c ****     blend_area.x2 = shadow_area.x2 - corner_size;
 1328              		.loc 1 247 19 view .LVU498
 1329 01fc 1B93     		str	r3, [sp, #108]
 248:Drivers/lvgl/src/draw/sw/lv_draw_sw_box_shadow.c ****     blend_area.y1 = shadow_area.y1;
 1330              		.loc 1 248 5 is_stmt 1 view .LVU499
 248:Drivers/lvgl/src/draw/sw/lv_draw_sw_box_shadow.c ****     blend_area.y1 = shadow_area.y1;
 1331              		.loc 1 248 32 is_stmt 0 view .LVU500
 1332 01fe 349B     		ldr	r3, [sp, #208]
 248:Drivers/lvgl/src/draw/sw/lv_draw_sw_box_shadow.c ****     blend_area.y1 = shadow_area.y1;
 1333              		.loc 1 248 36 view .LVU501
 1334 0200 1B1B     		subs	r3, r3, r4
 248:Drivers/lvgl/src/draw/sw/lv_draw_sw_box_shadow.c ****     blend_area.y1 = shadow_area.y1;
 1335              		.loc 1 248 19 view .LVU502
 1336 0202 1D93     		str	r3, [sp, #116]
 249:Drivers/lvgl/src/draw/sw/lv_draw_sw_box_shadow.c ****     blend_area.y2 = shadow_area.y1 + corner_size - 1;
 1337              		.loc 1 249 5 is_stmt 1 view .LVU503
 249:Drivers/lvgl/src/draw/sw/lv_draw_sw_box_shadow.c ****     blend_area.y2 = shadow_area.y1 + corner_size - 1;
 1338              		.loc 1 249 32 is_stmt 0 view .LVU504
 1339 0204 339B     		ldr	r3, [sp, #204]
 249:Drivers/lvgl/src/draw/sw/lv_draw_sw_box_shadow.c ****     blend_area.y2 = shadow_area.y1 + corner_size - 1;
 1340              		.loc 1 249 19 view .LVU505
 1341 0206 1C93     		str	r3, [sp, #112]
 250:Drivers/lvgl/src/draw/sw/lv_draw_sw_box_shadow.c ****     blend_area.y2 = LV_MIN(blend_area.y2, h_half);
 1342              		.loc 1 250 5 is_stmt 1 view .LVU506
 250:Drivers/lvgl/src/draw/sw/lv_draw_sw_box_shadow.c ****     blend_area.y2 = LV_MIN(blend_area.y2, h_half);
 1343              		.loc 1 250 36 is_stmt 0 view .LVU507
 1344 0208 2344     		add	r3, r3, r4
 250:Drivers/lvgl/src/draw/sw/lv_draw_sw_box_shadow.c ****     blend_area.y2 = LV_MIN(blend_area.y2, h_half);
 1345              		.loc 1 250 50 view .LVU508
 1346 020a 013B     		subs	r3, r3, #1
 250:Drivers/lvgl/src/draw/sw/lv_draw_sw_box_shadow.c ****     blend_area.y2 = LV_MIN(blend_area.y2, h_half);
 1347              		.loc 1 250 19 view .LVU509
 1348 020c 1E93     		str	r3, [sp, #120]
 251:Drivers/lvgl/src/draw/sw/lv_draw_sw_box_shadow.c **** 
 1349              		.loc 1 251 5 is_stmt 1 view .LVU510
 251:Drivers/lvgl/src/draw/sw/lv_draw_sw_box_shadow.c **** 
ARM GAS  /var/folders/qx/2_175_4n2s19vhvtspjhb3qh0000gn/T//ccioUrKE.s 			page 48


 1350              		.loc 1 251 21 is_stmt 0 view .LVU511
 1351 020e 4345     		cmp	r3, r8
 1352 0210 A8BF     		it	ge
 1353 0212 4346     		movge	r3, r8
 251:Drivers/lvgl/src/draw/sw/lv_draw_sw_box_shadow.c **** 
 1354              		.loc 1 251 19 view .LVU512
 1355 0214 1E93     		str	r3, [sp, #120]
 253:Drivers/lvgl/src/draw/sw/lv_draw_sw_box_shadow.c ****        !lv_area_is_in(&clip_area_sub, &bg_area, r_bg)) {
 1356              		.loc 1 253 5 is_stmt 1 view .LVU513
 253:Drivers/lvgl/src/draw/sw/lv_draw_sw_box_shadow.c ****        !lv_area_is_in(&clip_area_sub, &bg_area, r_bg)) {
 1357              		.loc 1 253 8 is_stmt 0 view .LVU514
 1358 0216 3A46     		mov	r2, r7
 1359 0218 1BA9     		add	r1, sp, #108
 1360 021a 17A8     		add	r0, sp, #92
 1361 021c FFF7FEFF 		bl	lv_area_intersect
 1362              	.LVL138:
 253:Drivers/lvgl/src/draw/sw/lv_draw_sw_box_shadow.c ****        !lv_area_is_in(&clip_area_sub, &bg_area, r_bg)) {
 1363              		.loc 1 253 7 discriminator 1 view .LVU515
 1364 0220 0028     		cmp	r0, #0
 1365 0222 40F02B81 		bne	.L171
 1366              	.L92:
 291:Drivers/lvgl/src/draw/sw/lv_draw_sw_box_shadow.c **** 
 1367              		.loc 1 291 5 is_stmt 1 view .LVU516
 291:Drivers/lvgl/src/draw/sw/lv_draw_sw_box_shadow.c **** 
 1368              		.loc 1 291 24 is_stmt 0 view .LVU517
 1369 0226 95F83430 		ldrb	r3, [r5, #52]	@ zero_extendqisi2
 291:Drivers/lvgl/src/draw/sw/lv_draw_sw_box_shadow.c **** 
 1370              		.loc 1 291 19 view .LVU518
 1371 022a 8DF84430 		strb	r3, [sp, #68]
 294:Drivers/lvgl/src/draw/sw/lv_draw_sw_box_shadow.c ****     blend_area.x2 = shadow_area.x2 - corner_size;
 1372              		.loc 1 294 5 is_stmt 1 view .LVU519
 294:Drivers/lvgl/src/draw/sw/lv_draw_sw_box_shadow.c ****     blend_area.x2 = shadow_area.x2 - corner_size;
 1373              		.loc 1 294 32 is_stmt 0 view .LVU520
 1374 022e 329B     		ldr	r3, [sp, #200]
 294:Drivers/lvgl/src/draw/sw/lv_draw_sw_box_shadow.c ****     blend_area.x2 = shadow_area.x2 - corner_size;
 1375              		.loc 1 294 36 view .LVU521
 1376 0230 2344     		add	r3, r3, r4
 294:Drivers/lvgl/src/draw/sw/lv_draw_sw_box_shadow.c ****     blend_area.x2 = shadow_area.x2 - corner_size;
 1377              		.loc 1 294 19 view .LVU522
 1378 0232 1B93     		str	r3, [sp, #108]
 295:Drivers/lvgl/src/draw/sw/lv_draw_sw_box_shadow.c ****     blend_area.y1 = shadow_area.y2 - corner_size + 1;
 1379              		.loc 1 295 5 is_stmt 1 view .LVU523
 295:Drivers/lvgl/src/draw/sw/lv_draw_sw_box_shadow.c ****     blend_area.y1 = shadow_area.y2 - corner_size + 1;
 1380              		.loc 1 295 32 is_stmt 0 view .LVU524
 1381 0234 349B     		ldr	r3, [sp, #208]
 295:Drivers/lvgl/src/draw/sw/lv_draw_sw_box_shadow.c ****     blend_area.y1 = shadow_area.y2 - corner_size + 1;
 1382              		.loc 1 295 36 view .LVU525
 1383 0236 1B1B     		subs	r3, r3, r4
 295:Drivers/lvgl/src/draw/sw/lv_draw_sw_box_shadow.c ****     blend_area.y1 = shadow_area.y2 - corner_size + 1;
 1384              		.loc 1 295 19 view .LVU526
 1385 0238 1D93     		str	r3, [sp, #116]
 296:Drivers/lvgl/src/draw/sw/lv_draw_sw_box_shadow.c ****     blend_area.y2 = shadow_area.y2;
 1386              		.loc 1 296 5 is_stmt 1 view .LVU527
 296:Drivers/lvgl/src/draw/sw/lv_draw_sw_box_shadow.c ****     blend_area.y2 = shadow_area.y2;
 1387              		.loc 1 296 32 is_stmt 0 view .LVU528
 1388 023a 359A     		ldr	r2, [sp, #212]
 296:Drivers/lvgl/src/draw/sw/lv_draw_sw_box_shadow.c ****     blend_area.y2 = shadow_area.y2;
ARM GAS  /var/folders/qx/2_175_4n2s19vhvtspjhb3qh0000gn/T//ccioUrKE.s 			page 49


 1389              		.loc 1 296 36 view .LVU529
 1390 023c 131B     		subs	r3, r2, r4
 296:Drivers/lvgl/src/draw/sw/lv_draw_sw_box_shadow.c ****     blend_area.y2 = shadow_area.y2;
 1391              		.loc 1 296 50 view .LVU530
 1392 023e 0133     		adds	r3, r3, #1
 296:Drivers/lvgl/src/draw/sw/lv_draw_sw_box_shadow.c ****     blend_area.y2 = shadow_area.y2;
 1393              		.loc 1 296 19 view .LVU531
 1394 0240 1C93     		str	r3, [sp, #112]
 297:Drivers/lvgl/src/draw/sw/lv_draw_sw_box_shadow.c ****     blend_area.y1 = LV_MAX(blend_area.y1, h_half + 1);
 1395              		.loc 1 297 5 is_stmt 1 view .LVU532
 297:Drivers/lvgl/src/draw/sw/lv_draw_sw_box_shadow.c ****     blend_area.y1 = LV_MAX(blend_area.y1, h_half + 1);
 1396              		.loc 1 297 19 is_stmt 0 view .LVU533
 1397 0242 1E92     		str	r2, [sp, #120]
 298:Drivers/lvgl/src/draw/sw/lv_draw_sw_box_shadow.c **** 
 1398              		.loc 1 298 5 is_stmt 1 view .LVU534
 298:Drivers/lvgl/src/draw/sw/lv_draw_sw_box_shadow.c **** 
 1399              		.loc 1 298 21 is_stmt 0 view .LVU535
 1400 0244 5B45     		cmp	r3, fp
 1401 0246 B8BF     		it	lt
 1402 0248 5B46     		movlt	r3, fp
 298:Drivers/lvgl/src/draw/sw/lv_draw_sw_box_shadow.c **** 
 1403              		.loc 1 298 19 view .LVU536
 1404 024a 1C93     		str	r3, [sp, #112]
 300:Drivers/lvgl/src/draw/sw/lv_draw_sw_box_shadow.c ****        !lv_area_is_in(&clip_area_sub, &bg_area, r_bg)) {
 1405              		.loc 1 300 5 is_stmt 1 view .LVU537
 300:Drivers/lvgl/src/draw/sw/lv_draw_sw_box_shadow.c ****        !lv_area_is_in(&clip_area_sub, &bg_area, r_bg)) {
 1406              		.loc 1 300 8 is_stmt 0 view .LVU538
 1407 024c 3A46     		mov	r2, r7
 1408 024e 1BA9     		add	r1, sp, #108
 1409 0250 17A8     		add	r0, sp, #92
 1410 0252 FFF7FEFF 		bl	lv_area_intersect
 1411              	.LVL139:
 300:Drivers/lvgl/src/draw/sw/lv_draw_sw_box_shadow.c ****        !lv_area_is_in(&clip_area_sub, &bg_area, r_bg)) {
 1412              		.loc 1 300 7 discriminator 1 view .LVU539
 1413 0256 0028     		cmp	r0, #0
 1414 0258 40F08381 		bne	.L172
 1415              	.LVL140:
 1416              	.L103:
 343:Drivers/lvgl/src/draw/sw/lv_draw_sw_box_shadow.c **** 
 1417              		.loc 1 343 5 is_stmt 1 view .LVU540
 343:Drivers/lvgl/src/draw/sw/lv_draw_sw_box_shadow.c **** 
 1418              		.loc 1 343 24 is_stmt 0 view .LVU541
 1419 025c 95F83430 		ldrb	r3, [r5, #52]	@ zero_extendqisi2
 343:Drivers/lvgl/src/draw/sw/lv_draw_sw_box_shadow.c **** 
 1420              		.loc 1 343 19 view .LVU542
 1421 0260 8DF84430 		strb	r3, [sp, #68]
 346:Drivers/lvgl/src/draw/sw/lv_draw_sw_box_shadow.c ****     blend_area.x2 = shadow_area.x2;
 1422              		.loc 1 346 5 is_stmt 1 view .LVU543
 346:Drivers/lvgl/src/draw/sw/lv_draw_sw_box_shadow.c ****     blend_area.x2 = shadow_area.x2;
 1423              		.loc 1 346 32 is_stmt 0 view .LVU544
 1424 0264 349B     		ldr	r3, [sp, #208]
 346:Drivers/lvgl/src/draw/sw/lv_draw_sw_box_shadow.c ****     blend_area.x2 = shadow_area.x2;
 1425              		.loc 1 346 36 view .LVU545
 1426 0266 1A1B     		subs	r2, r3, r4
 346:Drivers/lvgl/src/draw/sw/lv_draw_sw_box_shadow.c ****     blend_area.x2 = shadow_area.x2;
 1427              		.loc 1 346 50 view .LVU546
 1428 0268 0132     		adds	r2, r2, #1
ARM GAS  /var/folders/qx/2_175_4n2s19vhvtspjhb3qh0000gn/T//ccioUrKE.s 			page 50


 346:Drivers/lvgl/src/draw/sw/lv_draw_sw_box_shadow.c ****     blend_area.x2 = shadow_area.x2;
 1429              		.loc 1 346 19 view .LVU547
 1430 026a 1B92     		str	r2, [sp, #108]
 347:Drivers/lvgl/src/draw/sw/lv_draw_sw_box_shadow.c ****     blend_area.y1 = shadow_area.y1 + corner_size;
 1431              		.loc 1 347 5 is_stmt 1 view .LVU548
 347:Drivers/lvgl/src/draw/sw/lv_draw_sw_box_shadow.c ****     blend_area.y1 = shadow_area.y1 + corner_size;
 1432              		.loc 1 347 19 is_stmt 0 view .LVU549
 1433 026c 1D93     		str	r3, [sp, #116]
 348:Drivers/lvgl/src/draw/sw/lv_draw_sw_box_shadow.c ****     blend_area.y2 = shadow_area.y2 - corner_size;
 1434              		.loc 1 348 5 is_stmt 1 view .LVU550
 348:Drivers/lvgl/src/draw/sw/lv_draw_sw_box_shadow.c ****     blend_area.y2 = shadow_area.y2 - corner_size;
 1435              		.loc 1 348 32 is_stmt 0 view .LVU551
 1436 026e 339B     		ldr	r3, [sp, #204]
 348:Drivers/lvgl/src/draw/sw/lv_draw_sw_box_shadow.c ****     blend_area.y2 = shadow_area.y2 - corner_size;
 1437              		.loc 1 348 36 view .LVU552
 1438 0270 2344     		add	r3, r3, r4
 348:Drivers/lvgl/src/draw/sw/lv_draw_sw_box_shadow.c ****     blend_area.y2 = shadow_area.y2 - corner_size;
 1439              		.loc 1 348 19 view .LVU553
 1440 0272 1C93     		str	r3, [sp, #112]
 349:Drivers/lvgl/src/draw/sw/lv_draw_sw_box_shadow.c ****     /*Do not overdraw the other corners*/
 1441              		.loc 1 349 5 is_stmt 1 view .LVU554
 349:Drivers/lvgl/src/draw/sw/lv_draw_sw_box_shadow.c ****     /*Do not overdraw the other corners*/
 1442              		.loc 1 349 32 is_stmt 0 view .LVU555
 1443 0274 3599     		ldr	r1, [sp, #212]
 349:Drivers/lvgl/src/draw/sw/lv_draw_sw_box_shadow.c ****     /*Do not overdraw the other corners*/
 1444              		.loc 1 349 36 view .LVU556
 1445 0276 091B     		subs	r1, r1, r4
 349:Drivers/lvgl/src/draw/sw/lv_draw_sw_box_shadow.c ****     /*Do not overdraw the other corners*/
 1446              		.loc 1 349 19 view .LVU557
 1447 0278 1E91     		str	r1, [sp, #120]
 351:Drivers/lvgl/src/draw/sw/lv_draw_sw_box_shadow.c ****     blend_area.y2 = LV_MAX(blend_area.y2, h_half);
 1448              		.loc 1 351 5 is_stmt 1 view .LVU558
 351:Drivers/lvgl/src/draw/sw/lv_draw_sw_box_shadow.c ****     blend_area.y2 = LV_MAX(blend_area.y2, h_half);
 1449              		.loc 1 351 21 is_stmt 0 view .LVU559
 1450 027a 4345     		cmp	r3, r8
 1451 027c 00DD     		ble	.L115
 351:Drivers/lvgl/src/draw/sw/lv_draw_sw_box_shadow.c ****     blend_area.y2 = LV_MAX(blend_area.y2, h_half);
 1452              		.loc 1 351 21 discriminator 2 view .LVU560
 1453 027e 5B46     		mov	r3, fp
 1454              	.L115:
 351:Drivers/lvgl/src/draw/sw/lv_draw_sw_box_shadow.c ****     blend_area.y2 = LV_MAX(blend_area.y2, h_half);
 1455              		.loc 1 351 19 discriminator 4 view .LVU561
 1456 0280 1C93     		str	r3, [sp, #112]
 352:Drivers/lvgl/src/draw/sw/lv_draw_sw_box_shadow.c ****     blend_area.x1 = LV_MAX(blend_area.x1, w_half);
 1457              		.loc 1 352 5 is_stmt 1 view .LVU562
 352:Drivers/lvgl/src/draw/sw/lv_draw_sw_box_shadow.c ****     blend_area.x1 = LV_MAX(blend_area.x1, w_half);
 1458              		.loc 1 352 21 is_stmt 0 view .LVU563
 1459 0282 0B46     		mov	r3, r1
 1460 0284 4145     		cmp	r1, r8
 1461 0286 B8BF     		it	lt
 1462 0288 4346     		movlt	r3, r8
 352:Drivers/lvgl/src/draw/sw/lv_draw_sw_box_shadow.c ****     blend_area.x1 = LV_MAX(blend_area.x1, w_half);
 1463              		.loc 1 352 19 view .LVU564
 1464 028a 1E93     		str	r3, [sp, #120]
 353:Drivers/lvgl/src/draw/sw/lv_draw_sw_box_shadow.c **** 
 1465              		.loc 1 353 5 is_stmt 1 view .LVU565
 353:Drivers/lvgl/src/draw/sw/lv_draw_sw_box_shadow.c **** 
ARM GAS  /var/folders/qx/2_175_4n2s19vhvtspjhb3qh0000gn/T//ccioUrKE.s 			page 51


 1466              		.loc 1 353 21 is_stmt 0 view .LVU566
 1467 028c 079B     		ldr	r3, [sp, #28]
 1468 028e 9342     		cmp	r3, r2
 1469 0290 B8BF     		it	lt
 1470 0292 1346     		movlt	r3, r2
 353:Drivers/lvgl/src/draw/sw/lv_draw_sw_box_shadow.c **** 
 1471              		.loc 1 353 19 view .LVU567
 1472 0294 1B93     		str	r3, [sp, #108]
 355:Drivers/lvgl/src/draw/sw/lv_draw_sw_box_shadow.c ****        !lv_area_is_in(&clip_area_sub, &bg_area, r_bg)) {
 1473              		.loc 1 355 5 is_stmt 1 view .LVU568
 355:Drivers/lvgl/src/draw/sw/lv_draw_sw_box_shadow.c ****        !lv_area_is_in(&clip_area_sub, &bg_area, r_bg)) {
 1474              		.loc 1 355 8 is_stmt 0 view .LVU569
 1475 0296 3A46     		mov	r2, r7
 1476 0298 1BA9     		add	r1, sp, #108
 1477 029a 17A8     		add	r0, sp, #92
 1478 029c FFF7FEFF 		bl	lv_area_intersect
 1479              	.LVL141:
 355:Drivers/lvgl/src/draw/sw/lv_draw_sw_box_shadow.c ****        !lv_area_is_in(&clip_area_sub, &bg_area, r_bg)) {
 1480              		.loc 1 355 7 discriminator 1 view .LVU570
 1481 02a0 0028     		cmp	r0, #0
 1482 02a2 40F0D781 		bne	.L173
 1483              	.LVL142:
 1484              	.L116:
 1485              	.LBB47:
 391:Drivers/lvgl/src/draw/sw/lv_draw_sw_box_shadow.c ****             lv_opa_t tmp = *start;
 1486              		.loc 1 391 15 view .LVU571
 1487 02a6 059D     		ldr	r5, [sp, #20]
 1488 02a8 4FF0000C 		mov	ip, #0
 1489 02ac 029E     		ldr	r6, [sp, #8]
 1490 02ae 40E2     		b	.L123
 1491              	.LVL143:
 1492              	.L71:
 391:Drivers/lvgl/src/draw/sw/lv_draw_sw_box_shadow.c ****             lv_opa_t tmp = *start;
 1493              		.loc 1 391 15 view .LVU572
 1494              	.LBE47:
  89:Drivers/lvgl/src/draw/sw/lv_draw_sw_box_shadow.c ****     if(r_bg > short_side >> 1) r_bg = short_side >> 1;
 1495              		.loc 1 89 26 discriminator 2 view .LVU573
 1496 02b0 2AA8     		add	r0, sp, #168
 1497 02b2 FFF7FEFF 		bl	lv_area_get_height
 1498              	.LVL144:
 1499 02b6 FEE6     		b	.L72
 1500              	.LVL145:
 1501              	.L74:
  94:Drivers/lvgl/src/draw/sw/lv_draw_sw_box_shadow.c ****     if(r_sh > short_side >> 1) r_sh = short_side >> 1;
 1502              		.loc 1 94 18 discriminator 2 view .LVU574
 1503 02b8 36A8     		add	r0, sp, #216
 1504 02ba FFF7FEFF 		bl	lv_area_get_height
 1505              	.LVL146:
 1506 02be 10E7     		b	.L75
 1507              	.LVL147:
 1508              	.L78:
 125:Drivers/lvgl/src/draw/sw/lv_draw_sw_box_shadow.c ****     shadow_draw_corner_buf(&core_area, (uint16_t *)sh_buf, dsc->width, r_sh);
 1509              		.loc 1 125 5 is_stmt 1 view .LVU575
 125:Drivers/lvgl/src/draw/sw/lv_draw_sw_box_shadow.c ****     shadow_draw_corner_buf(&core_area, (uint16_t *)sh_buf, dsc->width, r_sh);
 1510              		.loc 1 125 5 view .LVU576
 125:Drivers/lvgl/src/draw/sw/lv_draw_sw_box_shadow.c ****     shadow_draw_corner_buf(&core_area, (uint16_t *)sh_buf, dsc->width, r_sh);
 1511              		.loc 1 125 5 view .LVU577
ARM GAS  /var/folders/qx/2_175_4n2s19vhvtspjhb3qh0000gn/T//ccioUrKE.s 			page 52


 125:Drivers/lvgl/src/draw/sw/lv_draw_sw_box_shadow.c ****     shadow_draw_corner_buf(&core_area, (uint16_t *)sh_buf, dsc->width, r_sh);
 1512              		.loc 1 125 5 view .LVU578
 125:Drivers/lvgl/src/draw/sw/lv_draw_sw_box_shadow.c ****     shadow_draw_corner_buf(&core_area, (uint16_t *)sh_buf, dsc->width, r_sh);
 1513              		.loc 1 125 5 view .LVU579
 1514 02c0 FEE7     		b	.L78
 1515              	.LVL148:
 1516              	.L168:
 137:Drivers/lvgl/src/draw/sw/lv_draw_sw_box_shadow.c ****         masks[0] = &mask_rout_param;
 1517              		.loc 1 137 9 view .LVU580
 1518 02c2 0DF18408 		add	r8, sp, #132
 1519              	.LVL149:
 137:Drivers/lvgl/src/draw/sw/lv_draw_sw_box_shadow.c ****         masks[0] = &mask_rout_param;
 1520              		.loc 1 137 9 is_stmt 0 view .LVU581
 1521 02c6 0123     		movs	r3, #1
 1522 02c8 039A     		ldr	r2, [sp, #12]
 1523 02ca 2AA9     		add	r1, sp, #168
 1524 02cc 4046     		mov	r0, r8
 1525 02ce FFF7FEFF 		bl	lv_draw_sw_mask_radius_init
 1526              	.LVL150:
 138:Drivers/lvgl/src/draw/sw/lv_draw_sw_box_shadow.c ****     }
 1527              		.loc 1 138 9 is_stmt 1 view .LVU582
 138:Drivers/lvgl/src/draw/sw/lv_draw_sw_box_shadow.c ****     }
 1528              		.loc 1 138 18 is_stmt 0 view .LVU583
 1529 02d2 CDF87C80 		str	r8, [sp, #124]
 1530 02d6 25E7     		b	.L79
 1531              	.LVL151:
 1532              	.L169:
 171:Drivers/lvgl/src/draw/sw/lv_draw_sw_box_shadow.c ****         int32_t w = lv_area_get_width(&clip_area_sub);
 1533              		.loc 1 171 9 view .LVU584
 1534 02d8 039A     		ldr	r2, [sp, #12]
 1535 02da 2AA9     		add	r1, sp, #168
 1536 02dc 17A8     		add	r0, sp, #92
 1537 02de FFF7FEFF 		bl	lv_area_is_in
 1538              	.LVL152:
 170:Drivers/lvgl/src/draw/sw/lv_draw_sw_box_shadow.c ****        !lv_area_is_in(&clip_area_sub, &bg_area, r_bg)) {
 1539              		.loc 1 170 70 discriminator 1 view .LVU585
 1540 02e2 0028     		cmp	r0, #0
 1541 02e4 7FF46BAF 		bne	.L80
 1542              	.LBB49:
 172:Drivers/lvgl/src/draw/sw/lv_draw_sw_box_shadow.c ****         sh_buf_tmp = sh_buf;
 1543              		.loc 1 172 9 is_stmt 1 view .LVU586
 172:Drivers/lvgl/src/draw/sw/lv_draw_sw_box_shadow.c ****         sh_buf_tmp = sh_buf;
 1544              		.loc 1 172 21 is_stmt 0 view .LVU587
 1545 02e8 17A8     		add	r0, sp, #92
 1546 02ea FFF7FEFF 		bl	lv_area_get_width
 1547              	.LVL153:
 1548 02ee 0890     		str	r0, [sp, #32]
 1549              	.LVL154:
 173:Drivers/lvgl/src/draw/sw/lv_draw_sw_box_shadow.c ****         sh_buf_tmp += (clip_area_sub.y1 - shadow_area.y1) * corner_size;
 1550              		.loc 1 173 9 is_stmt 1 view .LVU588
 174:Drivers/lvgl/src/draw/sw/lv_draw_sw_box_shadow.c ****         sh_buf_tmp += clip_area_sub.x1 - (shadow_area.x2 - corner_size + 1);
 1551              		.loc 1 174 9 view .LVU589
 174:Drivers/lvgl/src/draw/sw/lv_draw_sw_box_shadow.c ****         sh_buf_tmp += clip_area_sub.x1 - (shadow_area.x2 - corner_size + 1);
 1552              		.loc 1 174 41 is_stmt 0 view .LVU590
 1553 02f0 189B     		ldr	r3, [sp, #96]
 1554 02f2 339A     		ldr	r2, [sp, #204]
 1555 02f4 991A     		subs	r1, r3, r2
ARM GAS  /var/folders/qx/2_175_4n2s19vhvtspjhb3qh0000gn/T//ccioUrKE.s 			page 53


 1556              	.LVL155:
 175:Drivers/lvgl/src/draw/sw/lv_draw_sw_box_shadow.c **** 
 1557              		.loc 1 175 9 is_stmt 1 view .LVU591
 175:Drivers/lvgl/src/draw/sw/lv_draw_sw_box_shadow.c **** 
 1558              		.loc 1 175 54 is_stmt 0 view .LVU592
 1559 02f6 349B     		ldr	r3, [sp, #208]
 175:Drivers/lvgl/src/draw/sw/lv_draw_sw_box_shadow.c **** 
 1560              		.loc 1 175 58 view .LVU593
 1561 02f8 1B1B     		subs	r3, r3, r4
 175:Drivers/lvgl/src/draw/sw/lv_draw_sw_box_shadow.c **** 
 1562              		.loc 1 175 72 view .LVU594
 1563 02fa 5A1C     		adds	r2, r3, #1
 175:Drivers/lvgl/src/draw/sw/lv_draw_sw_box_shadow.c **** 
 1564              		.loc 1 175 40 view .LVU595
 1565 02fc 179B     		ldr	r3, [sp, #92]
 1566 02fe A3EB020B 		sub	fp, r3, r2
 175:Drivers/lvgl/src/draw/sw/lv_draw_sw_box_shadow.c **** 
 1567              		.loc 1 175 20 view .LVU596
 1568 0302 04FB01BB 		mla	fp, r4, r1, fp
 1569 0306 059B     		ldr	r3, [sp, #20]
 1570 0308 9B44     		add	fp, fp, r3
 1571              	.LVL156:
 178:Drivers/lvgl/src/draw/sw/lv_draw_sw_box_shadow.c ****         else simple_sub = simple;
 1572              		.loc 1 178 9 is_stmt 1 view .LVU597
 178:Drivers/lvgl/src/draw/sw/lv_draw_sw_box_shadow.c ****         else simple_sub = simple;
 1573              		.loc 1 178 11 is_stmt 0 view .LVU598
 1574 030a 069B     		ldr	r3, [sp, #24]
 1575 030c D3B9     		cbnz	r3, .L174
 179:Drivers/lvgl/src/draw/sw/lv_draw_sw_box_shadow.c ****         if(w > 0) {
 1576              		.loc 1 179 25 view .LVU599
 1577 030e 069B     		ldr	r3, [sp, #24]
 1578 0310 1A46     		mov	r2, r3
 1579              	.LVL157:
 1580              	.L81:
 180:Drivers/lvgl/src/draw/sw/lv_draw_sw_box_shadow.c ****             blend_dsc.mask_buf = mask_buf;
 1581              		.loc 1 180 9 is_stmt 1 view .LVU600
 180:Drivers/lvgl/src/draw/sw/lv_draw_sw_box_shadow.c ****             blend_dsc.mask_buf = mask_buf;
 1582              		.loc 1 180 11 is_stmt 0 view .LVU601
 1583 0312 089B     		ldr	r3, [sp, #32]
 1584 0314 002B     		cmp	r3, #0
 1585 0316 7FF752AF 		ble	.L80
 181:Drivers/lvgl/src/draw/sw/lv_draw_sw_box_shadow.c ****             blend_area.x1 = clip_area_sub.x1;
 1586              		.loc 1 181 13 is_stmt 1 view .LVU602
 181:Drivers/lvgl/src/draw/sw/lv_draw_sw_box_shadow.c ****             blend_area.x1 = clip_area_sub.x1;
 1587              		.loc 1 181 32 is_stmt 0 view .LVU603
 1588 031a 049B     		ldr	r3, [sp, #16]
 1589 031c 1293     		str	r3, [sp, #72]
 182:Drivers/lvgl/src/draw/sw/lv_draw_sw_box_shadow.c ****             blend_area.x2 = clip_area_sub.x2;
 1590              		.loc 1 182 13 is_stmt 1 view .LVU604
 182:Drivers/lvgl/src/draw/sw/lv_draw_sw_box_shadow.c ****             blend_area.x2 = clip_area_sub.x2;
 1591              		.loc 1 182 42 is_stmt 0 view .LVU605
 1592 031e 179B     		ldr	r3, [sp, #92]
 182:Drivers/lvgl/src/draw/sw/lv_draw_sw_box_shadow.c ****             blend_area.x2 = clip_area_sub.x2;
 1593              		.loc 1 182 27 view .LVU606
 1594 0320 1B93     		str	r3, [sp, #108]
 183:Drivers/lvgl/src/draw/sw/lv_draw_sw_box_shadow.c ****             blend_dsc.mask_res = LV_DRAW_SW_MASK_RES_CHANGED;    /*In simple mode it won't be overw
 1595              		.loc 1 183 13 is_stmt 1 view .LVU607
ARM GAS  /var/folders/qx/2_175_4n2s19vhvtspjhb3qh0000gn/T//ccioUrKE.s 			page 54


 183:Drivers/lvgl/src/draw/sw/lv_draw_sw_box_shadow.c ****             blend_dsc.mask_res = LV_DRAW_SW_MASK_RES_CHANGED;    /*In simple mode it won't be overw
 1596              		.loc 1 183 42 is_stmt 0 view .LVU608
 1597 0322 199B     		ldr	r3, [sp, #100]
 183:Drivers/lvgl/src/draw/sw/lv_draw_sw_box_shadow.c ****             blend_dsc.mask_res = LV_DRAW_SW_MASK_RES_CHANGED;    /*In simple mode it won't be overw
 1598              		.loc 1 183 27 view .LVU609
 1599 0324 1D93     		str	r3, [sp, #116]
 184:Drivers/lvgl/src/draw/sw/lv_draw_sw_box_shadow.c ****             for(y = clip_area_sub.y1; y <= clip_area_sub.y2; y++) {
 1600              		.loc 1 184 13 is_stmt 1 view .LVU610
 184:Drivers/lvgl/src/draw/sw/lv_draw_sw_box_shadow.c ****             for(y = clip_area_sub.y1; y <= clip_area_sub.y2; y++) {
 1601              		.loc 1 184 32 is_stmt 0 view .LVU611
 1602 0326 0223     		movs	r3, #2
 1603 0328 8DF84C30 		strb	r3, [sp, #76]
 185:Drivers/lvgl/src/draw/sw/lv_draw_sw_box_shadow.c ****                 blend_area.y1 = y;
 1604              		.loc 1 185 13 is_stmt 1 view .LVU612
 185:Drivers/lvgl/src/draw/sw/lv_draw_sw_box_shadow.c ****                 blend_area.y1 = y;
 1605              		.loc 1 185 19 is_stmt 0 view .LVU613
 1606 032c DDF860A0 		ldr	r10, [sp, #96]
 1607              	.LVL158:
 185:Drivers/lvgl/src/draw/sw/lv_draw_sw_box_shadow.c ****                 blend_area.y1 = y;
 1608              		.loc 1 185 19 view .LVU614
 1609 0330 0997     		str	r7, [sp, #36]
 1610 0332 1746     		mov	r7, r2
 1611 0334 2246     		mov	r2, r4
 1612              	.LVL159:
 185:Drivers/lvgl/src/draw/sw/lv_draw_sw_box_shadow.c ****                 blend_area.y1 = y;
 1613              		.loc 1 185 19 view .LVU615
 1614 0336 5446     		mov	r4, r10
 1615              	.LVL160:
 185:Drivers/lvgl/src/draw/sw/lv_draw_sw_box_shadow.c ****                 blend_area.y1 = y;
 1616              		.loc 1 185 19 view .LVU616
 1617 0338 029E     		ldr	r6, [sp, #8]
 1618              	.LVL161:
 185:Drivers/lvgl/src/draw/sw/lv_draw_sw_box_shadow.c ****                 blend_area.y1 = y;
 1619              		.loc 1 185 19 view .LVU617
 1620 033a 2B46     		mov	r3, r5
 1621 033c 5D46     		mov	r5, fp
 1622              	.LVL162:
 185:Drivers/lvgl/src/draw/sw/lv_draw_sw_box_shadow.c ****                 blend_area.y1 = y;
 1623              		.loc 1 185 19 view .LVU618
 1624 033e 9B46     		mov	fp, r3
 1625              	.LVL163:
 185:Drivers/lvgl/src/draw/sw/lv_draw_sw_box_shadow.c ****                 blend_area.y1 = y;
 1626              		.loc 1 185 19 view .LVU619
 1627 0340 9246     		mov	r10, r2
 1628              	.LVL164:
 185:Drivers/lvgl/src/draw/sw/lv_draw_sw_box_shadow.c ****                 blend_area.y1 = y;
 1629              		.loc 1 185 13 view .LVU620
 1630 0342 21E0     		b	.L82
 1631              	.LVL165:
 1632              	.L174:
 178:Drivers/lvgl/src/draw/sw/lv_draw_sw_box_shadow.c ****         else simple_sub = simple;
 1633              		.loc 1 178 22 discriminator 1 view .LVU621
 1634 0344 039A     		ldr	r2, [sp, #12]
 1635 0346 2AA9     		add	r1, sp, #168
 1636 0348 17A8     		add	r0, sp, #92
 1637              	.LVL166:
 178:Drivers/lvgl/src/draw/sw/lv_draw_sw_box_shadow.c ****         else simple_sub = simple;
ARM GAS  /var/folders/qx/2_175_4n2s19vhvtspjhb3qh0000gn/T//ccioUrKE.s 			page 55


 1638              		.loc 1 178 22 discriminator 1 view .LVU622
 1639 034a FFF7FEFF 		bl	lv_area_is_out
 1640              	.LVL167:
 178:Drivers/lvgl/src/draw/sw/lv_draw_sw_box_shadow.c ****         else simple_sub = simple;
 1641              		.loc 1 178 19 discriminator 1 view .LVU623
 1642 034e 0246     		mov	r2, r0
 1643 0350 0028     		cmp	r0, #0
 1644 0352 DED1     		bne	.L81
 179:Drivers/lvgl/src/draw/sw/lv_draw_sw_box_shadow.c ****         if(w > 0) {
 1645              		.loc 1 179 25 view .LVU624
 1646 0354 069B     		ldr	r3, [sp, #24]
 1647 0356 1A46     		mov	r2, r3
 1648 0358 DBE7     		b	.L81
 1649              	.LVL168:
 1650              	.L177:
 190:Drivers/lvgl/src/draw/sw/lv_draw_sw_box_shadow.c ****                     blend_dsc.mask_res = lv_draw_sw_mask_apply(masks, mask_buf, clip_area_sub.x1, y
 1651              		.loc 1 190 21 is_stmt 1 view .LVU625
 1652 035a 5246     		mov	r2, r10
 1653 035c 2946     		mov	r1, r5
 1654 035e 0498     		ldr	r0, [sp, #16]
 1655 0360 FFF7FEFF 		bl	lv_memcpy
 1656              	.LVL169:
 191:Drivers/lvgl/src/draw/sw/lv_draw_sw_box_shadow.c ****                     if(blend_dsc.mask_res == LV_DRAW_SW_MASK_RES_FULL_COVER) blend_dsc.mask_res = L
 1657              		.loc 1 191 21 view .LVU626
 191:Drivers/lvgl/src/draw/sw/lv_draw_sw_box_shadow.c ****                     if(blend_dsc.mask_res == LV_DRAW_SW_MASK_RES_FULL_COVER) blend_dsc.mask_res = L
 1658              		.loc 1 191 42 is_stmt 0 view .LVU627
 1659 0364 089B     		ldr	r3, [sp, #32]
 1660 0366 0093     		str	r3, [sp]
 1661 0368 2346     		mov	r3, r4
 1662 036a 179A     		ldr	r2, [sp, #92]
 1663 036c 0499     		ldr	r1, [sp, #16]
 1664 036e 1FA8     		add	r0, sp, #124
 1665 0370 FFF7FEFF 		bl	lv_draw_sw_mask_apply
 1666              	.LVL170:
 191:Drivers/lvgl/src/draw/sw/lv_draw_sw_box_shadow.c ****                     if(blend_dsc.mask_res == LV_DRAW_SW_MASK_RES_FULL_COVER) blend_dsc.mask_res = L
 1667              		.loc 1 191 40 discriminator 1 view .LVU628
 1668 0374 8DF84C00 		strb	r0, [sp, #76]
 192:Drivers/lvgl/src/draw/sw/lv_draw_sw_box_shadow.c ****                 }
 1669              		.loc 1 192 21 is_stmt 1 view .LVU629
 192:Drivers/lvgl/src/draw/sw/lv_draw_sw_box_shadow.c ****                 }
 1670              		.loc 1 192 23 is_stmt 0 view .LVU630
 1671 0378 0128     		cmp	r0, #1
 1672 037a 0ED0     		beq	.L175
 1673              	.L84:
 197:Drivers/lvgl/src/draw/sw/lv_draw_sw_box_shadow.c ****                 sh_buf_tmp += corner_size;
 1674              		.loc 1 197 17 is_stmt 1 view .LVU631
 1675 037c 0CA9     		add	r1, sp, #48
 1676 037e 3046     		mov	r0, r6
 1677 0380 FFF7FEFF 		bl	lv_draw_sw_blend
 1678              	.LVL171:
 198:Drivers/lvgl/src/draw/sw/lv_draw_sw_box_shadow.c ****             }
 1679              		.loc 1 198 17 view .LVU632
 198:Drivers/lvgl/src/draw/sw/lv_draw_sw_box_shadow.c ****             }
 1680              		.loc 1 198 28 is_stmt 0 view .LVU633
 1681 0384 5544     		add	r5, r5, r10
 1682              	.LVL172:
 185:Drivers/lvgl/src/draw/sw/lv_draw_sw_box_shadow.c ****                 blend_area.y1 = y;
ARM GAS  /var/folders/qx/2_175_4n2s19vhvtspjhb3qh0000gn/T//ccioUrKE.s 			page 56


 1683              		.loc 1 185 63 is_stmt 1 discriminator 2 view .LVU634
 1684 0386 0134     		adds	r4, r4, #1
 1685              	.LVL173:
 1686              	.L82:
 185:Drivers/lvgl/src/draw/sw/lv_draw_sw_box_shadow.c ****                 blend_area.y1 = y;
 1687              		.loc 1 185 41 discriminator 1 view .LVU635
 185:Drivers/lvgl/src/draw/sw/lv_draw_sw_box_shadow.c ****                 blend_area.y1 = y;
 1688              		.loc 1 185 57 is_stmt 0 discriminator 1 view .LVU636
 1689 0388 1A9B     		ldr	r3, [sp, #104]
 185:Drivers/lvgl/src/draw/sw/lv_draw_sw_box_shadow.c ****                 blend_area.y1 = y;
 1690              		.loc 1 185 41 discriminator 1 view .LVU637
 1691 038a A342     		cmp	r3, r4
 1692 038c 09DB     		blt	.L176
 186:Drivers/lvgl/src/draw/sw/lv_draw_sw_box_shadow.c ****                 blend_area.y2 = y;
 1693              		.loc 1 186 17 is_stmt 1 view .LVU638
 186:Drivers/lvgl/src/draw/sw/lv_draw_sw_box_shadow.c ****                 blend_area.y2 = y;
 1694              		.loc 1 186 31 is_stmt 0 view .LVU639
 1695 038e 1C94     		str	r4, [sp, #112]
 187:Drivers/lvgl/src/draw/sw/lv_draw_sw_box_shadow.c **** 
 1696              		.loc 1 187 17 is_stmt 1 view .LVU640
 187:Drivers/lvgl/src/draw/sw/lv_draw_sw_box_shadow.c **** 
 1697              		.loc 1 187 31 is_stmt 0 view .LVU641
 1698 0390 1E94     		str	r4, [sp, #120]
 189:Drivers/lvgl/src/draw/sw/lv_draw_sw_box_shadow.c ****                     lv_memcpy(mask_buf, sh_buf_tmp, corner_size);
 1699              		.loc 1 189 17 is_stmt 1 view .LVU642
 189:Drivers/lvgl/src/draw/sw/lv_draw_sw_box_shadow.c ****                     lv_memcpy(mask_buf, sh_buf_tmp, corner_size);
 1700              		.loc 1 189 19 is_stmt 0 view .LVU643
 1701 0392 002F     		cmp	r7, #0
 1702 0394 E1D0     		beq	.L177
 195:Drivers/lvgl/src/draw/sw/lv_draw_sw_box_shadow.c ****                 }
 1703              		.loc 1 195 21 is_stmt 1 view .LVU644
 195:Drivers/lvgl/src/draw/sw/lv_draw_sw_box_shadow.c ****                 }
 1704              		.loc 1 195 40 is_stmt 0 view .LVU645
 1705 0396 1295     		str	r5, [sp, #72]
 1706 0398 F0E7     		b	.L84
 1707              	.L175:
 192:Drivers/lvgl/src/draw/sw/lv_draw_sw_box_shadow.c ****                 }
 1708              		.loc 1 192 78 is_stmt 1 discriminator 1 view .LVU646
 192:Drivers/lvgl/src/draw/sw/lv_draw_sw_box_shadow.c ****                 }
 1709              		.loc 1 192 97 is_stmt 0 discriminator 1 view .LVU647
 1710 039a 0223     		movs	r3, #2
 1711 039c 8DF84C30 		strb	r3, [sp, #76]
 1712 03a0 ECE7     		b	.L84
 1713              	.L176:
 192:Drivers/lvgl/src/draw/sw/lv_draw_sw_box_shadow.c ****                 }
 1714              		.loc 1 192 97 discriminator 1 view .LVU648
 1715 03a2 099F     		ldr	r7, [sp, #36]
 1716              	.LVL174:
 192:Drivers/lvgl/src/draw/sw/lv_draw_sw_box_shadow.c ****                 }
 1717              		.loc 1 192 97 discriminator 1 view .LVU649
 1718 03a4 5446     		mov	r4, r10
 1719              	.LVL175:
 192:Drivers/lvgl/src/draw/sw/lv_draw_sw_box_shadow.c ****                 }
 1720              		.loc 1 192 97 discriminator 1 view .LVU650
 1721 03a6 0296     		str	r6, [sp, #8]
 1722              	.LVL176:
 192:Drivers/lvgl/src/draw/sw/lv_draw_sw_box_shadow.c ****                 }
ARM GAS  /var/folders/qx/2_175_4n2s19vhvtspjhb3qh0000gn/T//ccioUrKE.s 			page 57


 1723              		.loc 1 192 97 discriminator 1 view .LVU651
 1724 03a8 5D46     		mov	r5, fp
 1725              	.LVL177:
 192:Drivers/lvgl/src/draw/sw/lv_draw_sw_box_shadow.c ****                 }
 1726              		.loc 1 192 97 discriminator 1 view .LVU652
 1727 03aa 08E7     		b	.L80
 1728              	.LVL178:
 1729              	.L170:
 192:Drivers/lvgl/src/draw/sw/lv_draw_sw_box_shadow.c ****                 }
 1730              		.loc 1 192 97 discriminator 1 view .LVU653
 1731              	.LBE49:
 214:Drivers/lvgl/src/draw/sw/lv_draw_sw_box_shadow.c ****         int32_t w = lv_area_get_width(&clip_area_sub);
 1732              		.loc 1 214 9 view .LVU654
 1733 03ac 039A     		ldr	r2, [sp, #12]
 1734 03ae 2AA9     		add	r1, sp, #168
 1735 03b0 17A8     		add	r0, sp, #92
 1736 03b2 FFF7FEFF 		bl	lv_area_is_in
 1737              	.LVL179:
 213:Drivers/lvgl/src/draw/sw/lv_draw_sw_box_shadow.c ****        !lv_area_is_in(&clip_area_sub, &bg_area, r_bg)) {
 1738              		.loc 1 213 70 discriminator 1 view .LVU655
 1739 03b6 0028     		cmp	r0, #0
 1740 03b8 7FF41EAF 		bne	.L86
 1741              	.LBB50:
 215:Drivers/lvgl/src/draw/sw/lv_draw_sw_box_shadow.c ****         sh_buf_tmp = sh_buf;
 1742              		.loc 1 215 9 is_stmt 1 view .LVU656
 215:Drivers/lvgl/src/draw/sw/lv_draw_sw_box_shadow.c ****         sh_buf_tmp = sh_buf;
 1743              		.loc 1 215 21 is_stmt 0 view .LVU657
 1744 03bc 17A8     		add	r0, sp, #92
 1745 03be FFF7FEFF 		bl	lv_area_get_width
 1746              	.LVL180:
 1747 03c2 0890     		str	r0, [sp, #32]
 1748              	.LVL181:
 216:Drivers/lvgl/src/draw/sw/lv_draw_sw_box_shadow.c ****         sh_buf_tmp += (blend_area.y2 - clip_area_sub.y2) * corner_size;
 1749              		.loc 1 216 9 is_stmt 1 view .LVU658
 217:Drivers/lvgl/src/draw/sw/lv_draw_sw_box_shadow.c ****         sh_buf_tmp += clip_area_sub.x1 - (shadow_area.x2 - corner_size + 1);
 1750              		.loc 1 217 9 view .LVU659
 217:Drivers/lvgl/src/draw/sw/lv_draw_sw_box_shadow.c ****         sh_buf_tmp += clip_area_sub.x1 - (shadow_area.x2 - corner_size + 1);
 1751              		.loc 1 217 38 is_stmt 0 view .LVU660
 1752 03c4 1E9B     		ldr	r3, [sp, #120]
 1753 03c6 1A9A     		ldr	r2, [sp, #104]
 1754 03c8 991A     		subs	r1, r3, r2
 1755              	.LVL182:
 218:Drivers/lvgl/src/draw/sw/lv_draw_sw_box_shadow.c ****         /*Do not mask if out of the bg*/
 1756              		.loc 1 218 9 is_stmt 1 view .LVU661
 218:Drivers/lvgl/src/draw/sw/lv_draw_sw_box_shadow.c ****         /*Do not mask if out of the bg*/
 1757              		.loc 1 218 54 is_stmt 0 view .LVU662
 1758 03ca 349B     		ldr	r3, [sp, #208]
 218:Drivers/lvgl/src/draw/sw/lv_draw_sw_box_shadow.c ****         /*Do not mask if out of the bg*/
 1759              		.loc 1 218 58 view .LVU663
 1760 03cc 1B1B     		subs	r3, r3, r4
 218:Drivers/lvgl/src/draw/sw/lv_draw_sw_box_shadow.c ****         /*Do not mask if out of the bg*/
 1761              		.loc 1 218 72 view .LVU664
 1762 03ce 5A1C     		adds	r2, r3, #1
 218:Drivers/lvgl/src/draw/sw/lv_draw_sw_box_shadow.c ****         /*Do not mask if out of the bg*/
 1763              		.loc 1 218 40 view .LVU665
 1764 03d0 179B     		ldr	r3, [sp, #92]
 1765 03d2 9B1A     		subs	r3, r3, r2
ARM GAS  /var/folders/qx/2_175_4n2s19vhvtspjhb3qh0000gn/T//ccioUrKE.s 			page 58


 218:Drivers/lvgl/src/draw/sw/lv_draw_sw_box_shadow.c ****         /*Do not mask if out of the bg*/
 1766              		.loc 1 218 20 view .LVU666
 1767 03d4 04FB0133 		mla	r3, r4, r1, r3
 1768 03d8 059A     		ldr	r2, [sp, #20]
 1769 03da D318     		adds	r3, r2, r3
 1770 03dc 1E46     		mov	r6, r3
 1771              	.LVL183:
 220:Drivers/lvgl/src/draw/sw/lv_draw_sw_box_shadow.c ****         else simple_sub = simple;
 1772              		.loc 1 220 9 is_stmt 1 view .LVU667
 220:Drivers/lvgl/src/draw/sw/lv_draw_sw_box_shadow.c ****         else simple_sub = simple;
 1773              		.loc 1 220 11 is_stmt 0 view .LVU668
 1774 03de 069B     		ldr	r3, [sp, #24]
 1775              	.LVL184:
 220:Drivers/lvgl/src/draw/sw/lv_draw_sw_box_shadow.c ****         else simple_sub = simple;
 1776              		.loc 1 220 11 view .LVU669
 1777 03e0 C3B9     		cbnz	r3, .L178
 221:Drivers/lvgl/src/draw/sw/lv_draw_sw_box_shadow.c **** 
 1778              		.loc 1 221 25 view .LVU670
 1779 03e2 069B     		ldr	r3, [sp, #24]
 1780 03e4 1A46     		mov	r2, r3
 1781              	.LVL185:
 1782              	.L87:
 223:Drivers/lvgl/src/draw/sw/lv_draw_sw_box_shadow.c ****             blend_dsc.mask_buf = mask_buf;
 1783              		.loc 1 223 9 is_stmt 1 view .LVU671
 223:Drivers/lvgl/src/draw/sw/lv_draw_sw_box_shadow.c ****             blend_dsc.mask_buf = mask_buf;
 1784              		.loc 1 223 11 is_stmt 0 view .LVU672
 1785 03e6 089B     		ldr	r3, [sp, #32]
 1786 03e8 002B     		cmp	r3, #0
 1787 03ea 7FF705AF 		ble	.L86
 224:Drivers/lvgl/src/draw/sw/lv_draw_sw_box_shadow.c ****             blend_area.x1 = clip_area_sub.x1;
 1788              		.loc 1 224 13 is_stmt 1 view .LVU673
 224:Drivers/lvgl/src/draw/sw/lv_draw_sw_box_shadow.c ****             blend_area.x1 = clip_area_sub.x1;
 1789              		.loc 1 224 32 is_stmt 0 view .LVU674
 1790 03ee 049B     		ldr	r3, [sp, #16]
 1791 03f0 1293     		str	r3, [sp, #72]
 225:Drivers/lvgl/src/draw/sw/lv_draw_sw_box_shadow.c ****             blend_area.x2 = clip_area_sub.x2;
 1792              		.loc 1 225 13 is_stmt 1 view .LVU675
 225:Drivers/lvgl/src/draw/sw/lv_draw_sw_box_shadow.c ****             blend_area.x2 = clip_area_sub.x2;
 1793              		.loc 1 225 42 is_stmt 0 view .LVU676
 1794 03f2 179B     		ldr	r3, [sp, #92]
 225:Drivers/lvgl/src/draw/sw/lv_draw_sw_box_shadow.c ****             blend_area.x2 = clip_area_sub.x2;
 1795              		.loc 1 225 27 view .LVU677
 1796 03f4 1B93     		str	r3, [sp, #108]
 226:Drivers/lvgl/src/draw/sw/lv_draw_sw_box_shadow.c ****             blend_dsc.mask_res = LV_DRAW_SW_MASK_RES_CHANGED;    /*In simple mode it won't be overw
 1797              		.loc 1 226 13 is_stmt 1 view .LVU678
 226:Drivers/lvgl/src/draw/sw/lv_draw_sw_box_shadow.c ****             blend_dsc.mask_res = LV_DRAW_SW_MASK_RES_CHANGED;    /*In simple mode it won't be overw
 1798              		.loc 1 226 42 is_stmt 0 view .LVU679
 1799 03f6 199B     		ldr	r3, [sp, #100]
 226:Drivers/lvgl/src/draw/sw/lv_draw_sw_box_shadow.c ****             blend_dsc.mask_res = LV_DRAW_SW_MASK_RES_CHANGED;    /*In simple mode it won't be overw
 1800              		.loc 1 226 27 view .LVU680
 1801 03f8 1D93     		str	r3, [sp, #116]
 227:Drivers/lvgl/src/draw/sw/lv_draw_sw_box_shadow.c ****             for(y = clip_area_sub.y2; y >= clip_area_sub.y1; y--) {
 1802              		.loc 1 227 13 is_stmt 1 view .LVU681
 227:Drivers/lvgl/src/draw/sw/lv_draw_sw_box_shadow.c ****             for(y = clip_area_sub.y2; y >= clip_area_sub.y1; y--) {
 1803              		.loc 1 227 32 is_stmt 0 view .LVU682
 1804 03fa 0223     		movs	r3, #2
 1805 03fc 8DF84C30 		strb	r3, [sp, #76]
ARM GAS  /var/folders/qx/2_175_4n2s19vhvtspjhb3qh0000gn/T//ccioUrKE.s 			page 59


 228:Drivers/lvgl/src/draw/sw/lv_draw_sw_box_shadow.c ****                 blend_area.y1 = y;
 1806              		.loc 1 228 13 is_stmt 1 view .LVU683
 228:Drivers/lvgl/src/draw/sw/lv_draw_sw_box_shadow.c ****                 blend_area.y1 = y;
 1807              		.loc 1 228 19 is_stmt 0 view .LVU684
 1808 0400 DDF868A0 		ldr	r10, [sp, #104]
 1809              	.LVL186:
 228:Drivers/lvgl/src/draw/sw/lv_draw_sw_box_shadow.c ****                 blend_area.y1 = y;
 1810              		.loc 1 228 19 view .LVU685
 1811 0404 0997     		str	r7, [sp, #36]
 1812 0406 5746     		mov	r7, r10
 1813 0408 A246     		mov	r10, r4
 1814              	.LVL187:
 228:Drivers/lvgl/src/draw/sw/lv_draw_sw_box_shadow.c ****                 blend_area.y1 = y;
 1815              		.loc 1 228 19 view .LVU686
 1816 040a 3446     		mov	r4, r6
 1817              	.LVL188:
 228:Drivers/lvgl/src/draw/sw/lv_draw_sw_box_shadow.c ****                 blend_area.y1 = y;
 1818              		.loc 1 228 19 view .LVU687
 1819 040c 029E     		ldr	r6, [sp, #8]
 1820              	.LVL189:
 228:Drivers/lvgl/src/draw/sw/lv_draw_sw_box_shadow.c ****                 blend_area.y1 = y;
 1821              		.loc 1 228 19 view .LVU688
 1822 040e 0A95     		str	r5, [sp, #40]
 1823 0410 1546     		mov	r5, r2
 1824              	.LVL190:
 228:Drivers/lvgl/src/draw/sw/lv_draw_sw_box_shadow.c ****                 blend_area.y1 = y;
 1825              		.loc 1 228 13 view .LVU689
 1826 0412 21E0     		b	.L88
 1827              	.LVL191:
 1828              	.L178:
 220:Drivers/lvgl/src/draw/sw/lv_draw_sw_box_shadow.c ****         else simple_sub = simple;
 1829              		.loc 1 220 22 discriminator 1 view .LVU690
 1830 0414 039A     		ldr	r2, [sp, #12]
 1831 0416 2AA9     		add	r1, sp, #168
 1832 0418 17A8     		add	r0, sp, #92
 1833              	.LVL192:
 220:Drivers/lvgl/src/draw/sw/lv_draw_sw_box_shadow.c ****         else simple_sub = simple;
 1834              		.loc 1 220 22 discriminator 1 view .LVU691
 1835 041a FFF7FEFF 		bl	lv_area_is_out
 1836              	.LVL193:
 220:Drivers/lvgl/src/draw/sw/lv_draw_sw_box_shadow.c ****         else simple_sub = simple;
 1837              		.loc 1 220 19 discriminator 1 view .LVU692
 1838 041e 0246     		mov	r2, r0
 1839 0420 0028     		cmp	r0, #0
 1840 0422 E0D1     		bne	.L87
 221:Drivers/lvgl/src/draw/sw/lv_draw_sw_box_shadow.c **** 
 1841              		.loc 1 221 25 view .LVU693
 1842 0424 069B     		ldr	r3, [sp, #24]
 1843 0426 1A46     		mov	r2, r3
 1844 0428 DDE7     		b	.L87
 1845              	.LVL194:
 1846              	.L181:
 233:Drivers/lvgl/src/draw/sw/lv_draw_sw_box_shadow.c ****                     blend_dsc.mask_res = lv_draw_sw_mask_apply(masks, mask_buf, clip_area_sub.x1, y
 1847              		.loc 1 233 21 is_stmt 1 view .LVU694
 1848 042a 5246     		mov	r2, r10
 1849 042c 2146     		mov	r1, r4
 1850 042e 0498     		ldr	r0, [sp, #16]
ARM GAS  /var/folders/qx/2_175_4n2s19vhvtspjhb3qh0000gn/T//ccioUrKE.s 			page 60


 1851 0430 FFF7FEFF 		bl	lv_memcpy
 1852              	.LVL195:
 234:Drivers/lvgl/src/draw/sw/lv_draw_sw_box_shadow.c ****                     if(blend_dsc.mask_res == LV_DRAW_SW_MASK_RES_FULL_COVER) blend_dsc.mask_res = L
 1853              		.loc 1 234 21 view .LVU695
 234:Drivers/lvgl/src/draw/sw/lv_draw_sw_box_shadow.c ****                     if(blend_dsc.mask_res == LV_DRAW_SW_MASK_RES_FULL_COVER) blend_dsc.mask_res = L
 1854              		.loc 1 234 42 is_stmt 0 view .LVU696
 1855 0434 089B     		ldr	r3, [sp, #32]
 1856 0436 0093     		str	r3, [sp]
 1857 0438 3B46     		mov	r3, r7
 1858 043a 179A     		ldr	r2, [sp, #92]
 1859 043c 0499     		ldr	r1, [sp, #16]
 1860 043e 1FA8     		add	r0, sp, #124
 1861 0440 FFF7FEFF 		bl	lv_draw_sw_mask_apply
 1862              	.LVL196:
 234:Drivers/lvgl/src/draw/sw/lv_draw_sw_box_shadow.c ****                     if(blend_dsc.mask_res == LV_DRAW_SW_MASK_RES_FULL_COVER) blend_dsc.mask_res = L
 1863              		.loc 1 234 40 discriminator 1 view .LVU697
 1864 0444 8DF84C00 		strb	r0, [sp, #76]
 235:Drivers/lvgl/src/draw/sw/lv_draw_sw_box_shadow.c ****                 }
 1865              		.loc 1 235 21 is_stmt 1 view .LVU698
 235:Drivers/lvgl/src/draw/sw/lv_draw_sw_box_shadow.c ****                 }
 1866              		.loc 1 235 23 is_stmt 0 view .LVU699
 1867 0448 0128     		cmp	r0, #1
 1868 044a 0ED0     		beq	.L179
 1869              	.L90:
 240:Drivers/lvgl/src/draw/sw/lv_draw_sw_box_shadow.c ****                 sh_buf_tmp += corner_size;
 1870              		.loc 1 240 17 is_stmt 1 view .LVU700
 1871 044c 0CA9     		add	r1, sp, #48
 1872 044e 3046     		mov	r0, r6
 1873 0450 FFF7FEFF 		bl	lv_draw_sw_blend
 1874              	.LVL197:
 241:Drivers/lvgl/src/draw/sw/lv_draw_sw_box_shadow.c ****             }
 1875              		.loc 1 241 17 view .LVU701
 241:Drivers/lvgl/src/draw/sw/lv_draw_sw_box_shadow.c ****             }
 1876              		.loc 1 241 28 is_stmt 0 view .LVU702
 1877 0454 5444     		add	r4, r4, r10
 1878              	.LVL198:
 228:Drivers/lvgl/src/draw/sw/lv_draw_sw_box_shadow.c ****                 blend_area.y1 = y;
 1879              		.loc 1 228 63 is_stmt 1 discriminator 2 view .LVU703
 1880 0456 013F     		subs	r7, r7, #1
 1881              	.LVL199:
 1882              	.L88:
 228:Drivers/lvgl/src/draw/sw/lv_draw_sw_box_shadow.c ****                 blend_area.y1 = y;
 1883              		.loc 1 228 41 discriminator 1 view .LVU704
 228:Drivers/lvgl/src/draw/sw/lv_draw_sw_box_shadow.c ****                 blend_area.y1 = y;
 1884              		.loc 1 228 57 is_stmt 0 discriminator 1 view .LVU705
 1885 0458 189B     		ldr	r3, [sp, #96]
 228:Drivers/lvgl/src/draw/sw/lv_draw_sw_box_shadow.c ****                 blend_area.y1 = y;
 1886              		.loc 1 228 41 discriminator 1 view .LVU706
 1887 045a BB42     		cmp	r3, r7
 1888 045c 09DC     		bgt	.L180
 229:Drivers/lvgl/src/draw/sw/lv_draw_sw_box_shadow.c ****                 blend_area.y2 = y;
 1889              		.loc 1 229 17 is_stmt 1 view .LVU707
 229:Drivers/lvgl/src/draw/sw/lv_draw_sw_box_shadow.c ****                 blend_area.y2 = y;
 1890              		.loc 1 229 31 is_stmt 0 view .LVU708
 1891 045e 1C97     		str	r7, [sp, #112]
 230:Drivers/lvgl/src/draw/sw/lv_draw_sw_box_shadow.c **** 
 1892              		.loc 1 230 17 is_stmt 1 view .LVU709
ARM GAS  /var/folders/qx/2_175_4n2s19vhvtspjhb3qh0000gn/T//ccioUrKE.s 			page 61


 230:Drivers/lvgl/src/draw/sw/lv_draw_sw_box_shadow.c **** 
 1893              		.loc 1 230 31 is_stmt 0 view .LVU710
 1894 0460 1E97     		str	r7, [sp, #120]
 232:Drivers/lvgl/src/draw/sw/lv_draw_sw_box_shadow.c ****                     lv_memcpy(mask_buf, sh_buf_tmp, corner_size);
 1895              		.loc 1 232 17 is_stmt 1 view .LVU711
 232:Drivers/lvgl/src/draw/sw/lv_draw_sw_box_shadow.c ****                     lv_memcpy(mask_buf, sh_buf_tmp, corner_size);
 1896              		.loc 1 232 19 is_stmt 0 view .LVU712
 1897 0462 002D     		cmp	r5, #0
 1898 0464 E1D0     		beq	.L181
 238:Drivers/lvgl/src/draw/sw/lv_draw_sw_box_shadow.c ****                 }
 1899              		.loc 1 238 21 is_stmt 1 view .LVU713
 238:Drivers/lvgl/src/draw/sw/lv_draw_sw_box_shadow.c ****                 }
 1900              		.loc 1 238 40 is_stmt 0 view .LVU714
 1901 0466 1294     		str	r4, [sp, #72]
 1902 0468 F0E7     		b	.L90
 1903              	.L179:
 235:Drivers/lvgl/src/draw/sw/lv_draw_sw_box_shadow.c ****                 }
 1904              		.loc 1 235 78 is_stmt 1 discriminator 1 view .LVU715
 235:Drivers/lvgl/src/draw/sw/lv_draw_sw_box_shadow.c ****                 }
 1905              		.loc 1 235 97 is_stmt 0 discriminator 1 view .LVU716
 1906 046a 0223     		movs	r3, #2
 1907 046c 8DF84C30 		strb	r3, [sp, #76]
 1908 0470 ECE7     		b	.L90
 1909              	.L180:
 235:Drivers/lvgl/src/draw/sw/lv_draw_sw_box_shadow.c ****                 }
 1910              		.loc 1 235 97 discriminator 1 view .LVU717
 1911 0472 099F     		ldr	r7, [sp, #36]
 1912              	.LVL200:
 235:Drivers/lvgl/src/draw/sw/lv_draw_sw_box_shadow.c ****                 }
 1913              		.loc 1 235 97 discriminator 1 view .LVU718
 1914 0474 5446     		mov	r4, r10
 1915              	.LVL201:
 235:Drivers/lvgl/src/draw/sw/lv_draw_sw_box_shadow.c ****                 }
 1916              		.loc 1 235 97 discriminator 1 view .LVU719
 1917 0476 0296     		str	r6, [sp, #8]
 1918 0478 0A9D     		ldr	r5, [sp, #40]
 1919              	.LVL202:
 235:Drivers/lvgl/src/draw/sw/lv_draw_sw_box_shadow.c ****                 }
 1920              		.loc 1 235 97 discriminator 1 view .LVU720
 1921 047a BDE6     		b	.L86
 1922              	.LVL203:
 1923              	.L171:
 235:Drivers/lvgl/src/draw/sw/lv_draw_sw_box_shadow.c ****                 }
 1924              		.loc 1 235 97 discriminator 1 view .LVU721
 1925              	.LBE50:
 254:Drivers/lvgl/src/draw/sw/lv_draw_sw_box_shadow.c ****         int32_t w = lv_area_get_width(&clip_area_sub);
 1926              		.loc 1 254 9 view .LVU722
 1927 047c 039A     		ldr	r2, [sp, #12]
 1928 047e 2AA9     		add	r1, sp, #168
 1929 0480 17A8     		add	r0, sp, #92
 1930 0482 FFF7FEFF 		bl	lv_area_is_in
 1931              	.LVL204:
 253:Drivers/lvgl/src/draw/sw/lv_draw_sw_box_shadow.c ****        !lv_area_is_in(&clip_area_sub, &bg_area, r_bg)) {
 1932              		.loc 1 253 70 discriminator 1 view .LVU723
 1933 0486 0028     		cmp	r0, #0
 1934 0488 7FF4CDAE 		bne	.L92
 1935              	.LBB51:
ARM GAS  /var/folders/qx/2_175_4n2s19vhvtspjhb3qh0000gn/T//ccioUrKE.s 			page 62


 255:Drivers/lvgl/src/draw/sw/lv_draw_sw_box_shadow.c ****         sh_buf_tmp = sh_buf;
 1936              		.loc 1 255 9 is_stmt 1 view .LVU724
 255:Drivers/lvgl/src/draw/sw/lv_draw_sw_box_shadow.c ****         sh_buf_tmp = sh_buf;
 1937              		.loc 1 255 21 is_stmt 0 view .LVU725
 1938 048c 17A8     		add	r0, sp, #92
 1939 048e FFF7FEFF 		bl	lv_area_get_width
 1940              	.LVL205:
 1941 0492 0990     		str	r0, [sp, #36]
 1942              	.LVL206:
 256:Drivers/lvgl/src/draw/sw/lv_draw_sw_box_shadow.c ****         sh_buf_tmp += (clip_area_sub.y1 - blend_area.y1) * corner_size;
 1943              		.loc 1 256 9 is_stmt 1 view .LVU726
 257:Drivers/lvgl/src/draw/sw/lv_draw_sw_box_shadow.c **** 
 1944              		.loc 1 257 9 view .LVU727
 257:Drivers/lvgl/src/draw/sw/lv_draw_sw_box_shadow.c **** 
 1945              		.loc 1 257 41 is_stmt 0 view .LVU728
 1946 0494 189B     		ldr	r3, [sp, #96]
 1947 0496 1C9A     		ldr	r2, [sp, #112]
 1948 0498 9B1A     		subs	r3, r3, r2
 257:Drivers/lvgl/src/draw/sw/lv_draw_sw_box_shadow.c **** 
 1949              		.loc 1 257 20 view .LVU729
 1950 049a 059A     		ldr	r2, [sp, #20]
 1951 049c 04FB0323 		mla	r3, r4, r3, r2
 1952 04a0 1E46     		mov	r6, r3
 1953              	.LVL207:
 260:Drivers/lvgl/src/draw/sw/lv_draw_sw_box_shadow.c ****         else simple_sub = simple;
 1954              		.loc 1 260 9 is_stmt 1 view .LVU730
 260:Drivers/lvgl/src/draw/sw/lv_draw_sw_box_shadow.c ****         else simple_sub = simple;
 1955              		.loc 1 260 11 is_stmt 0 view .LVU731
 1956 04a2 069B     		ldr	r3, [sp, #24]
 1957              	.LVL208:
 260:Drivers/lvgl/src/draw/sw/lv_draw_sw_box_shadow.c ****         else simple_sub = simple;
 1958              		.loc 1 260 11 view .LVU732
 1959 04a4 A3B9     		cbnz	r3, .L182
 261:Drivers/lvgl/src/draw/sw/lv_draw_sw_box_shadow.c **** 
 1960              		.loc 1 261 25 view .LVU733
 1961 04a6 069B     		ldr	r3, [sp, #24]
 1962 04a8 0893     		str	r3, [sp, #32]
 1963              	.LVL209:
 1964              	.L93:
 263:Drivers/lvgl/src/draw/sw/lv_draw_sw_box_shadow.c ****             if(!simple_sub) {
 1965              		.loc 1 263 9 is_stmt 1 view .LVU734
 263:Drivers/lvgl/src/draw/sw/lv_draw_sw_box_shadow.c ****             if(!simple_sub) {
 1966              		.loc 1 263 11 is_stmt 0 view .LVU735
 1967 04aa 099B     		ldr	r3, [sp, #36]
 1968 04ac 002B     		cmp	r3, #0
 1969 04ae 7FF7BAAE 		ble	.L92
 264:Drivers/lvgl/src/draw/sw/lv_draw_sw_box_shadow.c ****                 blend_dsc.mask_buf = mask_buf;
 1970              		.loc 1 264 13 is_stmt 1 view .LVU736
 264:Drivers/lvgl/src/draw/sw/lv_draw_sw_box_shadow.c ****                 blend_dsc.mask_buf = mask_buf;
 1971              		.loc 1 264 15 is_stmt 0 view .LVU737
 1972 04b2 089B     		ldr	r3, [sp, #32]
 1973 04b4 BBB9     		cbnz	r3, .L94
 265:Drivers/lvgl/src/draw/sw/lv_draw_sw_box_shadow.c ****             }
 1974              		.loc 1 265 17 is_stmt 1 view .LVU738
 265:Drivers/lvgl/src/draw/sw/lv_draw_sw_box_shadow.c ****             }
 1975              		.loc 1 265 36 is_stmt 0 view .LVU739
 1976 04b6 049B     		ldr	r3, [sp, #16]
ARM GAS  /var/folders/qx/2_175_4n2s19vhvtspjhb3qh0000gn/T//ccioUrKE.s 			page 63


 1977 04b8 1293     		str	r3, [sp, #72]
 1978              	.L95:
 270:Drivers/lvgl/src/draw/sw/lv_draw_sw_box_shadow.c ****             blend_area.x2 = clip_area_sub.x2;
 1979              		.loc 1 270 13 is_stmt 1 view .LVU740
 270:Drivers/lvgl/src/draw/sw/lv_draw_sw_box_shadow.c ****             blend_area.x2 = clip_area_sub.x2;
 1980              		.loc 1 270 42 is_stmt 0 view .LVU741
 1981 04ba 179B     		ldr	r3, [sp, #92]
 270:Drivers/lvgl/src/draw/sw/lv_draw_sw_box_shadow.c ****             blend_area.x2 = clip_area_sub.x2;
 1982              		.loc 1 270 27 view .LVU742
 1983 04bc 1B93     		str	r3, [sp, #108]
 271:Drivers/lvgl/src/draw/sw/lv_draw_sw_box_shadow.c **** 
 1984              		.loc 1 271 13 is_stmt 1 view .LVU743
 271:Drivers/lvgl/src/draw/sw/lv_draw_sw_box_shadow.c **** 
 1985              		.loc 1 271 42 is_stmt 0 view .LVU744
 1986 04be 199B     		ldr	r3, [sp, #100]
 271:Drivers/lvgl/src/draw/sw/lv_draw_sw_box_shadow.c **** 
 1987              		.loc 1 271 27 view .LVU745
 1988 04c0 1D93     		str	r3, [sp, #116]
 273:Drivers/lvgl/src/draw/sw/lv_draw_sw_box_shadow.c ****                 blend_area.y1 = y;
 1989              		.loc 1 273 13 is_stmt 1 view .LVU746
 273:Drivers/lvgl/src/draw/sw/lv_draw_sw_box_shadow.c ****                 blend_area.y1 = y;
 1990              		.loc 1 273 19 is_stmt 0 view .LVU747
 1991 04c2 DDF860A0 		ldr	r10, [sp, #96]
 1992              	.LVL210:
 273:Drivers/lvgl/src/draw/sw/lv_draw_sw_box_shadow.c ****                 blend_area.y1 = y;
 1993              		.loc 1 273 19 view .LVU748
 1994 04c6 0A97     		str	r7, [sp, #40]
 1995 04c8 5746     		mov	r7, r10
 1996 04ca B246     		mov	r10, r6
 1997              	.LVL211:
 273:Drivers/lvgl/src/draw/sw/lv_draw_sw_box_shadow.c ****                 blend_area.y1 = y;
 1998              		.loc 1 273 19 view .LVU749
 1999 04cc 029E     		ldr	r6, [sp, #8]
 2000              	.LVL212:
 273:Drivers/lvgl/src/draw/sw/lv_draw_sw_box_shadow.c ****                 blend_area.y1 = y;
 2001              		.loc 1 273 13 view .LVU750
 2002 04ce 32E0     		b	.L96
 2003              	.LVL213:
 2004              	.L182:
 260:Drivers/lvgl/src/draw/sw/lv_draw_sw_box_shadow.c ****         else simple_sub = simple;
 2005              		.loc 1 260 22 discriminator 1 view .LVU751
 2006 04d0 039A     		ldr	r2, [sp, #12]
 2007 04d2 2AA9     		add	r1, sp, #168
 2008 04d4 17A8     		add	r0, sp, #92
 2009              	.LVL214:
 260:Drivers/lvgl/src/draw/sw/lv_draw_sw_box_shadow.c ****         else simple_sub = simple;
 2010              		.loc 1 260 22 discriminator 1 view .LVU752
 2011 04d6 FFF7FEFF 		bl	lv_area_is_out
 2012              	.LVL215:
 260:Drivers/lvgl/src/draw/sw/lv_draw_sw_box_shadow.c ****         else simple_sub = simple;
 2013              		.loc 1 260 19 discriminator 1 view .LVU753
 2014 04da 0890     		str	r0, [sp, #32]
 2015 04dc 0028     		cmp	r0, #0
 2016 04de E4D1     		bne	.L93
 261:Drivers/lvgl/src/draw/sw/lv_draw_sw_box_shadow.c **** 
 2017              		.loc 1 261 25 view .LVU754
 2018 04e0 069B     		ldr	r3, [sp, #24]
ARM GAS  /var/folders/qx/2_175_4n2s19vhvtspjhb3qh0000gn/T//ccioUrKE.s 			page 64


 2019 04e2 0893     		str	r3, [sp, #32]
 2020 04e4 E1E7     		b	.L93
 2021              	.LVL216:
 2022              	.L94:
 268:Drivers/lvgl/src/draw/sw/lv_draw_sw_box_shadow.c ****             }
 2023              		.loc 1 268 17 is_stmt 1 view .LVU755
 268:Drivers/lvgl/src/draw/sw/lv_draw_sw_box_shadow.c ****             }
 2024              		.loc 1 268 36 is_stmt 0 view .LVU756
 2025 04e6 0023     		movs	r3, #0
 2026 04e8 1293     		str	r3, [sp, #72]
 2027 04ea E6E7     		b	.L95
 2028              	.LVL217:
 2029              	.L185:
 278:Drivers/lvgl/src/draw/sw/lv_draw_sw_box_shadow.c ****                     blend_dsc.mask_res = lv_draw_sw_mask_apply(masks, mask_buf, clip_area_sub.x1, y
 2030              		.loc 1 278 21 is_stmt 1 view .LVU757
 2031 04ec 099A     		ldr	r2, [sp, #36]
 2032 04ee 9AF80010 		ldrb	r1, [r10]	@ zero_extendqisi2
 2033 04f2 0498     		ldr	r0, [sp, #16]
 2034 04f4 FFF7FEFF 		bl	lv_memset
 2035              	.LVL218:
 279:Drivers/lvgl/src/draw/sw/lv_draw_sw_box_shadow.c ****                     if(blend_dsc.mask_res == LV_DRAW_SW_MASK_RES_FULL_COVER) blend_dsc.mask_res = L
 2036              		.loc 1 279 21 view .LVU758
 279:Drivers/lvgl/src/draw/sw/lv_draw_sw_box_shadow.c ****                     if(blend_dsc.mask_res == LV_DRAW_SW_MASK_RES_FULL_COVER) blend_dsc.mask_res = L
 2037              		.loc 1 279 42 is_stmt 0 view .LVU759
 2038 04f8 099B     		ldr	r3, [sp, #36]
 2039 04fa 0093     		str	r3, [sp]
 2040 04fc 3B46     		mov	r3, r7
 2041 04fe 179A     		ldr	r2, [sp, #92]
 2042 0500 0499     		ldr	r1, [sp, #16]
 2043 0502 1FA8     		add	r0, sp, #124
 2044 0504 FFF7FEFF 		bl	lv_draw_sw_mask_apply
 2045              	.LVL219:
 279:Drivers/lvgl/src/draw/sw/lv_draw_sw_box_shadow.c ****                     if(blend_dsc.mask_res == LV_DRAW_SW_MASK_RES_FULL_COVER) blend_dsc.mask_res = L
 2046              		.loc 1 279 40 discriminator 1 view .LVU760
 2047 0508 8DF84C00 		strb	r0, [sp, #76]
 280:Drivers/lvgl/src/draw/sw/lv_draw_sw_box_shadow.c ****                     lv_draw_sw_blend(t, &blend_dsc);
 2048              		.loc 1 280 21 is_stmt 1 view .LVU761
 280:Drivers/lvgl/src/draw/sw/lv_draw_sw_box_shadow.c ****                     lv_draw_sw_blend(t, &blend_dsc);
 2049              		.loc 1 280 23 is_stmt 0 view .LVU762
 2050 050c 0128     		cmp	r0, #1
 2051 050e 04D0     		beq	.L183
 2052              	.L98:
 281:Drivers/lvgl/src/draw/sw/lv_draw_sw_box_shadow.c ****                 }
 2053              		.loc 1 281 21 is_stmt 1 view .LVU763
 2054 0510 0CA9     		add	r1, sp, #48
 2055 0512 3046     		mov	r0, r6
 2056 0514 FFF7FEFF 		bl	lv_draw_sw_blend
 2057              	.LVL220:
 2058 0518 0BE0     		b	.L99
 2059              	.L183:
 280:Drivers/lvgl/src/draw/sw/lv_draw_sw_box_shadow.c ****                     lv_draw_sw_blend(t, &blend_dsc);
 2060              		.loc 1 280 78 discriminator 1 view .LVU764
 280:Drivers/lvgl/src/draw/sw/lv_draw_sw_box_shadow.c ****                     lv_draw_sw_blend(t, &blend_dsc);
 2061              		.loc 1 280 97 is_stmt 0 discriminator 1 view .LVU765
 2062 051a 0223     		movs	r3, #2
 2063 051c 8DF84C30 		strb	r3, [sp, #76]
 2064 0520 F6E7     		b	.L98
ARM GAS  /var/folders/qx/2_175_4n2s19vhvtspjhb3qh0000gn/T//ccioUrKE.s 			page 65


 2065              	.L186:
 284:Drivers/lvgl/src/draw/sw/lv_draw_sw_box_shadow.c ****                     lv_draw_sw_blend(t, &blend_dsc);
 2066              		.loc 1 284 35 discriminator 1 view .LVU766
 2067 0522 9AF80030 		ldrb	r3, [r10]	@ zero_extendqisi2
 2068              	.L101:
 284:Drivers/lvgl/src/draw/sw/lv_draw_sw_box_shadow.c ****                     lv_draw_sw_blend(t, &blend_dsc);
 2069              		.loc 1 284 35 discriminator 4 view .LVU767
 2070 0526 8DF84430 		strb	r3, [sp, #68]
 285:Drivers/lvgl/src/draw/sw/lv_draw_sw_box_shadow.c ****                 }
 2071              		.loc 1 285 21 is_stmt 1 view .LVU768
 2072 052a 0CA9     		add	r1, sp, #48
 2073 052c 3046     		mov	r0, r6
 2074 052e FFF7FEFF 		bl	lv_draw_sw_blend
 2075              	.LVL221:
 2076              	.L99:
 287:Drivers/lvgl/src/draw/sw/lv_draw_sw_box_shadow.c ****             }
 2077              		.loc 1 287 17 view .LVU769
 287:Drivers/lvgl/src/draw/sw/lv_draw_sw_box_shadow.c ****             }
 2078              		.loc 1 287 28 is_stmt 0 view .LVU770
 2079 0532 A244     		add	r10, r10, r4
 2080              	.LVL222:
 273:Drivers/lvgl/src/draw/sw/lv_draw_sw_box_shadow.c ****                 blend_area.y1 = y;
 2081              		.loc 1 273 63 is_stmt 1 discriminator 2 view .LVU771
 2082 0534 0137     		adds	r7, r7, #1
 2083              	.LVL223:
 2084              	.L96:
 273:Drivers/lvgl/src/draw/sw/lv_draw_sw_box_shadow.c ****                 blend_area.y1 = y;
 2085              		.loc 1 273 41 discriminator 1 view .LVU772
 273:Drivers/lvgl/src/draw/sw/lv_draw_sw_box_shadow.c ****                 blend_area.y1 = y;
 2086              		.loc 1 273 57 is_stmt 0 discriminator 1 view .LVU773
 2087 0536 1A9B     		ldr	r3, [sp, #104]
 273:Drivers/lvgl/src/draw/sw/lv_draw_sw_box_shadow.c ****                 blend_area.y1 = y;
 2088              		.loc 1 273 41 discriminator 1 view .LVU774
 2089 0538 BB42     		cmp	r3, r7
 2090 053a 0FDB     		blt	.L184
 274:Drivers/lvgl/src/draw/sw/lv_draw_sw_box_shadow.c ****                 blend_area.y2 = y;
 2091              		.loc 1 274 17 is_stmt 1 view .LVU775
 274:Drivers/lvgl/src/draw/sw/lv_draw_sw_box_shadow.c ****                 blend_area.y2 = y;
 2092              		.loc 1 274 31 is_stmt 0 view .LVU776
 2093 053c 1C97     		str	r7, [sp, #112]
 275:Drivers/lvgl/src/draw/sw/lv_draw_sw_box_shadow.c **** 
 2094              		.loc 1 275 17 is_stmt 1 view .LVU777
 275:Drivers/lvgl/src/draw/sw/lv_draw_sw_box_shadow.c **** 
 2095              		.loc 1 275 31 is_stmt 0 view .LVU778
 2096 053e 1E97     		str	r7, [sp, #120]
 277:Drivers/lvgl/src/draw/sw/lv_draw_sw_box_shadow.c ****                     lv_memset(mask_buf, sh_buf_tmp[0], w);
 2097              		.loc 1 277 17 is_stmt 1 view .LVU779
 277:Drivers/lvgl/src/draw/sw/lv_draw_sw_box_shadow.c ****                     lv_memset(mask_buf, sh_buf_tmp[0], w);
 2098              		.loc 1 277 19 is_stmt 0 view .LVU780
 2099 0540 089B     		ldr	r3, [sp, #32]
 2100 0542 002B     		cmp	r3, #0
 2101 0544 D2D0     		beq	.L185
 284:Drivers/lvgl/src/draw/sw/lv_draw_sw_box_shadow.c ****                     lv_draw_sw_blend(t, &blend_dsc);
 2102              		.loc 1 284 21 is_stmt 1 view .LVU781
 284:Drivers/lvgl/src/draw/sw/lv_draw_sw_box_shadow.c ****                     lv_draw_sw_blend(t, &blend_dsc);
 2103              		.loc 1 284 35 is_stmt 0 view .LVU782
 2104 0546 B9F1FF0F 		cmp	r9, #255
ARM GAS  /var/folders/qx/2_175_4n2s19vhvtspjhb3qh0000gn/T//ccioUrKE.s 			page 66


 2105 054a EAD0     		beq	.L186
 284:Drivers/lvgl/src/draw/sw/lv_draw_sw_box_shadow.c ****                     lv_draw_sw_blend(t, &blend_dsc);
 2106              		.loc 1 284 75 discriminator 2 view .LVU783
 2107 054c 9AF80030 		ldrb	r3, [r10]	@ zero_extendqisi2
 2108 0550 95F83420 		ldrb	r2, [r5, #52]	@ zero_extendqisi2
 2109 0554 02FB03F3 		mul	r3, r2, r3
 284:Drivers/lvgl/src/draw/sw/lv_draw_sw_box_shadow.c ****                     lv_draw_sw_blend(t, &blend_dsc);
 2110              		.loc 1 284 35 discriminator 2 view .LVU784
 2111 0558 1B0A     		lsrs	r3, r3, #8
 2112 055a E4E7     		b	.L101
 2113              	.L184:
 284:Drivers/lvgl/src/draw/sw/lv_draw_sw_box_shadow.c ****                     lv_draw_sw_blend(t, &blend_dsc);
 2114              		.loc 1 284 35 discriminator 2 view .LVU785
 2115 055c 0A9F     		ldr	r7, [sp, #40]
 2116              	.LVL224:
 284:Drivers/lvgl/src/draw/sw/lv_draw_sw_box_shadow.c ****                     lv_draw_sw_blend(t, &blend_dsc);
 2117              		.loc 1 284 35 discriminator 2 view .LVU786
 2118 055e 0296     		str	r6, [sp, #8]
 2119 0560 61E6     		b	.L92
 2120              	.LVL225:
 2121              	.L172:
 284:Drivers/lvgl/src/draw/sw/lv_draw_sw_box_shadow.c ****                     lv_draw_sw_blend(t, &blend_dsc);
 2122              		.loc 1 284 35 discriminator 2 view .LVU787
 2123              	.LBE51:
 301:Drivers/lvgl/src/draw/sw/lv_draw_sw_box_shadow.c ****         int32_t w = lv_area_get_width(&clip_area_sub);
 2124              		.loc 1 301 9 view .LVU788
 2125 0562 039A     		ldr	r2, [sp, #12]
 2126 0564 2AA9     		add	r1, sp, #168
 2127 0566 17A8     		add	r0, sp, #92
 2128 0568 FFF7FEFF 		bl	lv_area_is_in
 2129              	.LVL226:
 300:Drivers/lvgl/src/draw/sw/lv_draw_sw_box_shadow.c ****        !lv_area_is_in(&clip_area_sub, &bg_area, r_bg)) {
 2130              		.loc 1 300 70 discriminator 1 view .LVU789
 2131 056c 0028     		cmp	r0, #0
 2132 056e 7FF475AE 		bne	.L103
 2133              	.LBB52:
 302:Drivers/lvgl/src/draw/sw/lv_draw_sw_box_shadow.c ****         sh_buf_tmp = sh_buf;
 2134              		.loc 1 302 9 is_stmt 1 view .LVU790
 302:Drivers/lvgl/src/draw/sw/lv_draw_sw_box_shadow.c ****         sh_buf_tmp = sh_buf;
 2135              		.loc 1 302 21 is_stmt 0 view .LVU791
 2136 0572 17A8     		add	r0, sp, #92
 2137 0574 FFF7FEFF 		bl	lv_area_get_width
 2138              	.LVL227:
 303:Drivers/lvgl/src/draw/sw/lv_draw_sw_box_shadow.c ****         sh_buf_tmp += (blend_area.y2 - clip_area_sub.y2) * corner_size;
 2139              		.loc 1 303 9 is_stmt 1 view .LVU792
 304:Drivers/lvgl/src/draw/sw/lv_draw_sw_box_shadow.c ****         if(w > 0) {
 2140              		.loc 1 304 9 view .LVU793
 304:Drivers/lvgl/src/draw/sw/lv_draw_sw_box_shadow.c ****         if(w > 0) {
 2141              		.loc 1 304 38 is_stmt 0 view .LVU794
 2142 0578 1E9B     		ldr	r3, [sp, #120]
 2143 057a 1A9A     		ldr	r2, [sp, #104]
 2144 057c 9B1A     		subs	r3, r3, r2
 304:Drivers/lvgl/src/draw/sw/lv_draw_sw_box_shadow.c ****         if(w > 0) {
 2145              		.loc 1 304 20 view .LVU795
 2146 057e 059A     		ldr	r2, [sp, #20]
 2147 0580 04FB0323 		mla	r3, r4, r3, r2
 2148 0584 1E46     		mov	r6, r3
ARM GAS  /var/folders/qx/2_175_4n2s19vhvtspjhb3qh0000gn/T//ccioUrKE.s 			page 67


 2149              	.LVL228:
 305:Drivers/lvgl/src/draw/sw/lv_draw_sw_box_shadow.c ****             /*Do not mask if out of the bg*/
 2150              		.loc 1 305 9 is_stmt 1 view .LVU796
 305:Drivers/lvgl/src/draw/sw/lv_draw_sw_box_shadow.c ****             /*Do not mask if out of the bg*/
 2151              		.loc 1 305 11 is_stmt 0 view .LVU797
 2152 0586 031E     		subs	r3, r0, #0
 2153              	.LVL229:
 305:Drivers/lvgl/src/draw/sw/lv_draw_sw_box_shadow.c ****             /*Do not mask if out of the bg*/
 2154              		.loc 1 305 11 view .LVU798
 2155 0588 0893     		str	r3, [sp, #32]
 2156 058a 7FF767AE 		ble	.L103
 307:Drivers/lvgl/src/draw/sw/lv_draw_sw_box_shadow.c ****             else simple_sub = simple;
 2157              		.loc 1 307 13 is_stmt 1 view .LVU799
 307:Drivers/lvgl/src/draw/sw/lv_draw_sw_box_shadow.c ****             else simple_sub = simple;
 2158              		.loc 1 307 15 is_stmt 0 view .LVU800
 2159 058e 069B     		ldr	r3, [sp, #24]
 2160 0590 A3B9     		cbnz	r3, .L187
 308:Drivers/lvgl/src/draw/sw/lv_draw_sw_box_shadow.c **** 
 2161              		.loc 1 308 18 is_stmt 1 view .LVU801
 310:Drivers/lvgl/src/draw/sw/lv_draw_sw_box_shadow.c ****                 blend_dsc.mask_buf = mask_buf;
 2162              		.loc 1 310 13 view .LVU802
 311:Drivers/lvgl/src/draw/sw/lv_draw_sw_box_shadow.c ****             }
 2163              		.loc 1 311 17 view .LVU803
 311:Drivers/lvgl/src/draw/sw/lv_draw_sw_box_shadow.c ****             }
 2164              		.loc 1 311 36 is_stmt 0 view .LVU804
 2165 0592 049B     		ldr	r3, [sp, #16]
 2166 0594 1293     		str	r3, [sp, #72]
 2167              	.LVL230:
 2168              	.L105:
 316:Drivers/lvgl/src/draw/sw/lv_draw_sw_box_shadow.c ****             blend_area.x2 = clip_area_sub.x2;
 2169              		.loc 1 316 13 is_stmt 1 view .LVU805
 316:Drivers/lvgl/src/draw/sw/lv_draw_sw_box_shadow.c ****             blend_area.x2 = clip_area_sub.x2;
 2170              		.loc 1 316 42 is_stmt 0 view .LVU806
 2171 0596 179B     		ldr	r3, [sp, #92]
 316:Drivers/lvgl/src/draw/sw/lv_draw_sw_box_shadow.c ****             blend_area.x2 = clip_area_sub.x2;
 2172              		.loc 1 316 27 view .LVU807
 2173 0598 1B93     		str	r3, [sp, #108]
 317:Drivers/lvgl/src/draw/sw/lv_draw_sw_box_shadow.c **** 
 2174              		.loc 1 317 13 is_stmt 1 view .LVU808
 317:Drivers/lvgl/src/draw/sw/lv_draw_sw_box_shadow.c **** 
 2175              		.loc 1 317 42 is_stmt 0 view .LVU809
 2176 059a 199B     		ldr	r3, [sp, #100]
 317:Drivers/lvgl/src/draw/sw/lv_draw_sw_box_shadow.c **** 
 2177              		.loc 1 317 27 view .LVU810
 2178 059c 1D93     		str	r3, [sp, #116]
 319:Drivers/lvgl/src/draw/sw/lv_draw_sw_box_shadow.c ****                 blend_area.y1 = y;
 2179              		.loc 1 319 13 is_stmt 1 view .LVU811
 319:Drivers/lvgl/src/draw/sw/lv_draw_sw_box_shadow.c ****                 blend_area.y1 = y;
 2180              		.loc 1 319 19 is_stmt 0 view .LVU812
 2181 059e DDF868A0 		ldr	r10, [sp, #104]
 2182              	.LVL231:
 319:Drivers/lvgl/src/draw/sw/lv_draw_sw_box_shadow.c ****                 blend_area.y1 = y;
 2183              		.loc 1 319 19 view .LVU813
 2184 05a2 0997     		str	r7, [sp, #36]
 2185 05a4 CDF828B0 		str	fp, [sp, #40]
 2186 05a8 5746     		mov	r7, r10
 2187 05aa B246     		mov	r10, r6
ARM GAS  /var/folders/qx/2_175_4n2s19vhvtspjhb3qh0000gn/T//ccioUrKE.s 			page 68


 2188              	.LVL232:
 319:Drivers/lvgl/src/draw/sw/lv_draw_sw_box_shadow.c ****                 blend_area.y1 = y;
 2189              		.loc 1 319 19 view .LVU814
 2190 05ac CDF82C80 		str	r8, [sp, #44]
 2191 05b0 DDF81080 		ldr	r8, [sp, #16]
 2192              	.LVL233:
 319:Drivers/lvgl/src/draw/sw/lv_draw_sw_box_shadow.c ****                 blend_area.y1 = y;
 2193              		.loc 1 319 19 view .LVU815
 2194 05b4 DDF820B0 		ldr	fp, [sp, #32]
 2195              	.LVL234:
 319:Drivers/lvgl/src/draw/sw/lv_draw_sw_box_shadow.c ****                 blend_area.y1 = y;
 2196              		.loc 1 319 19 view .LVU816
 2197 05b8 029E     		ldr	r6, [sp, #8]
 2198              	.LVL235:
 319:Drivers/lvgl/src/draw/sw/lv_draw_sw_box_shadow.c ****                 blend_area.y1 = y;
 2199              		.loc 1 319 13 view .LVU817
 2200 05ba 23E0     		b	.L106
 2201              	.LVL236:
 2202              	.L187:
 307:Drivers/lvgl/src/draw/sw/lv_draw_sw_box_shadow.c ****             else simple_sub = simple;
 2203              		.loc 1 307 26 discriminator 1 view .LVU818
 2204 05bc 039A     		ldr	r2, [sp, #12]
 2205 05be 2AA9     		add	r1, sp, #168
 2206 05c0 17A8     		add	r0, sp, #92
 2207              	.LVL237:
 307:Drivers/lvgl/src/draw/sw/lv_draw_sw_box_shadow.c ****             else simple_sub = simple;
 2208              		.loc 1 307 26 discriminator 1 view .LVU819
 2209 05c2 FFF7FEFF 		bl	lv_area_is_out
 2210              	.LVL238:
 314:Drivers/lvgl/src/draw/sw/lv_draw_sw_box_shadow.c ****             }
 2211              		.loc 1 314 17 is_stmt 1 view .LVU820
 314:Drivers/lvgl/src/draw/sw/lv_draw_sw_box_shadow.c ****             }
 2212              		.loc 1 314 36 is_stmt 0 view .LVU821
 2213 05c6 0023     		movs	r3, #0
 2214 05c8 1293     		str	r3, [sp, #72]
 2215 05ca E4E7     		b	.L105
 2216              	.LVL239:
 2217              	.L107:
 324:Drivers/lvgl/src/draw/sw/lv_draw_sw_box_shadow.c ****                 else simple_sub = simple;
 2218              		.loc 1 324 30 discriminator 1 view .LVU822
 2219 05cc 039A     		ldr	r2, [sp, #12]
 2220 05ce 2AA9     		add	r1, sp, #168
 2221 05d0 17A8     		add	r0, sp, #92
 2222 05d2 FFF7FEFF 		bl	lv_area_is_out
 2223              	.LVL240:
 334:Drivers/lvgl/src/draw/sw/lv_draw_sw_box_shadow.c ****                     lv_draw_sw_blend(t, &blend_dsc);
 2224              		.loc 1 334 21 is_stmt 1 view .LVU823
 334:Drivers/lvgl/src/draw/sw/lv_draw_sw_box_shadow.c ****                     lv_draw_sw_blend(t, &blend_dsc);
 2225              		.loc 1 334 35 is_stmt 0 view .LVU824
 2226 05d6 B9F1FF0F 		cmp	r9, #255
 2227 05da 31D0     		beq	.L188
 334:Drivers/lvgl/src/draw/sw/lv_draw_sw_box_shadow.c ****                     lv_draw_sw_blend(t, &blend_dsc);
 2228              		.loc 1 334 86 discriminator 2 view .LVU825
 2229 05dc 9AF80030 		ldrb	r3, [r10]	@ zero_extendqisi2
 334:Drivers/lvgl/src/draw/sw/lv_draw_sw_box_shadow.c ****                     lv_draw_sw_blend(t, &blend_dsc);
 2230              		.loc 1 334 95 discriminator 2 view .LVU826
 2231 05e0 95F83420 		ldrb	r2, [r5, #52]	@ zero_extendqisi2
ARM GAS  /var/folders/qx/2_175_4n2s19vhvtspjhb3qh0000gn/T//ccioUrKE.s 			page 69


 334:Drivers/lvgl/src/draw/sw/lv_draw_sw_box_shadow.c ****                     lv_draw_sw_blend(t, &blend_dsc);
 2232              		.loc 1 334 90 discriminator 2 view .LVU827
 2233 05e4 02FB03F3 		mul	r3, r2, r3
 334:Drivers/lvgl/src/draw/sw/lv_draw_sw_box_shadow.c ****                     lv_draw_sw_blend(t, &blend_dsc);
 2234              		.loc 1 334 35 discriminator 2 view .LVU828
 2235 05e8 1B0A     		lsrs	r3, r3, #8
 2236              	.L113:
 334:Drivers/lvgl/src/draw/sw/lv_draw_sw_box_shadow.c ****                     lv_draw_sw_blend(t, &blend_dsc);
 2237              		.loc 1 334 35 discriminator 4 view .LVU829
 2238 05ea 8DF84430 		strb	r3, [sp, #68]
 335:Drivers/lvgl/src/draw/sw/lv_draw_sw_box_shadow.c **** 
 2239              		.loc 1 335 21 is_stmt 1 view .LVU830
 2240 05ee 0CA9     		add	r1, sp, #48
 2241 05f0 3046     		mov	r0, r6
 2242 05f2 FFF7FEFF 		bl	lv_draw_sw_blend
 2243              	.LVL241:
 2244 05f6 03E0     		b	.L112
 2245              	.LVL242:
 2246              	.L109:
 331:Drivers/lvgl/src/draw/sw/lv_draw_sw_box_shadow.c ****                 }
 2247              		.loc 1 331 21 view .LVU831
 2248 05f8 0CA9     		add	r1, sp, #48
 2249 05fa 3046     		mov	r0, r6
 2250 05fc FFF7FEFF 		bl	lv_draw_sw_blend
 2251              	.LVL243:
 2252              	.L112:
 338:Drivers/lvgl/src/draw/sw/lv_draw_sw_box_shadow.c ****             }
 2253              		.loc 1 338 17 view .LVU832
 338:Drivers/lvgl/src/draw/sw/lv_draw_sw_box_shadow.c ****             }
 2254              		.loc 1 338 28 is_stmt 0 view .LVU833
 2255 0600 A244     		add	r10, r10, r4
 2256              	.LVL244:
 319:Drivers/lvgl/src/draw/sw/lv_draw_sw_box_shadow.c ****                 blend_area.y1 = y;
 2257              		.loc 1 319 63 is_stmt 1 discriminator 2 view .LVU834
 2258 0602 013F     		subs	r7, r7, #1
 2259              	.LVL245:
 2260              	.L106:
 319:Drivers/lvgl/src/draw/sw/lv_draw_sw_box_shadow.c ****                 blend_area.y1 = y;
 2261              		.loc 1 319 41 discriminator 1 view .LVU835
 319:Drivers/lvgl/src/draw/sw/lv_draw_sw_box_shadow.c ****                 blend_area.y1 = y;
 2262              		.loc 1 319 57 is_stmt 0 discriminator 1 view .LVU836
 2263 0604 189B     		ldr	r3, [sp, #96]
 319:Drivers/lvgl/src/draw/sw/lv_draw_sw_box_shadow.c ****                 blend_area.y1 = y;
 2264              		.loc 1 319 41 discriminator 1 view .LVU837
 2265 0606 BB42     		cmp	r3, r7
 2266 0608 1DDC     		bgt	.L189
 320:Drivers/lvgl/src/draw/sw/lv_draw_sw_box_shadow.c ****                 blend_area.y2 = y;
 2267              		.loc 1 320 17 is_stmt 1 view .LVU838
 320:Drivers/lvgl/src/draw/sw/lv_draw_sw_box_shadow.c ****                 blend_area.y2 = y;
 2268              		.loc 1 320 31 is_stmt 0 view .LVU839
 2269 060a 1C97     		str	r7, [sp, #112]
 321:Drivers/lvgl/src/draw/sw/lv_draw_sw_box_shadow.c **** 
 2270              		.loc 1 321 17 is_stmt 1 view .LVU840
 321:Drivers/lvgl/src/draw/sw/lv_draw_sw_box_shadow.c **** 
 2271              		.loc 1 321 31 is_stmt 0 view .LVU841
 2272 060c 1E97     		str	r7, [sp, #120]
 324:Drivers/lvgl/src/draw/sw/lv_draw_sw_box_shadow.c ****                 else simple_sub = simple;
ARM GAS  /var/folders/qx/2_175_4n2s19vhvtspjhb3qh0000gn/T//ccioUrKE.s 			page 70


 2273              		.loc 1 324 17 is_stmt 1 view .LVU842
 324:Drivers/lvgl/src/draw/sw/lv_draw_sw_box_shadow.c ****                 else simple_sub = simple;
 2274              		.loc 1 324 19 is_stmt 0 view .LVU843
 2275 060e 069B     		ldr	r3, [sp, #24]
 2276 0610 002B     		cmp	r3, #0
 2277 0612 DBD1     		bne	.L107
 325:Drivers/lvgl/src/draw/sw/lv_draw_sw_box_shadow.c **** 
 2278              		.loc 1 325 22 is_stmt 1 view .LVU844
 2279              	.LVL246:
 327:Drivers/lvgl/src/draw/sw/lv_draw_sw_box_shadow.c ****                     lv_memset(mask_buf, sh_buf_tmp[0], w);
 2280              		.loc 1 327 17 view .LVU845
 328:Drivers/lvgl/src/draw/sw/lv_draw_sw_box_shadow.c ****                     blend_dsc.mask_res = lv_draw_sw_mask_apply(masks, mask_buf, clip_area_sub.x1, y
 2281              		.loc 1 328 21 view .LVU846
 2282 0614 5A46     		mov	r2, fp
 2283 0616 9AF80010 		ldrb	r1, [r10]	@ zero_extendqisi2
 2284 061a 4046     		mov	r0, r8
 2285 061c FFF7FEFF 		bl	lv_memset
 2286              	.LVL247:
 329:Drivers/lvgl/src/draw/sw/lv_draw_sw_box_shadow.c ****                     if(blend_dsc.mask_res == LV_DRAW_SW_MASK_RES_FULL_COVER) blend_dsc.mask_res = L
 2287              		.loc 1 329 21 view .LVU847
 329:Drivers/lvgl/src/draw/sw/lv_draw_sw_box_shadow.c ****                     if(blend_dsc.mask_res == LV_DRAW_SW_MASK_RES_FULL_COVER) blend_dsc.mask_res = L
 2288              		.loc 1 329 42 is_stmt 0 view .LVU848
 2289 0620 CDF800B0 		str	fp, [sp]
 2290 0624 3B46     		mov	r3, r7
 2291 0626 179A     		ldr	r2, [sp, #92]
 2292 0628 4146     		mov	r1, r8
 2293 062a 1FA8     		add	r0, sp, #124
 2294 062c FFF7FEFF 		bl	lv_draw_sw_mask_apply
 2295              	.LVL248:
 329:Drivers/lvgl/src/draw/sw/lv_draw_sw_box_shadow.c ****                     if(blend_dsc.mask_res == LV_DRAW_SW_MASK_RES_FULL_COVER) blend_dsc.mask_res = L
 2296              		.loc 1 329 40 discriminator 1 view .LVU849
 2297 0630 8DF84C00 		strb	r0, [sp, #76]
 330:Drivers/lvgl/src/draw/sw/lv_draw_sw_box_shadow.c ****                     lv_draw_sw_blend(t, &blend_dsc);
 2298              		.loc 1 330 21 is_stmt 1 view .LVU850
 330:Drivers/lvgl/src/draw/sw/lv_draw_sw_box_shadow.c ****                     lv_draw_sw_blend(t, &blend_dsc);
 2299              		.loc 1 330 23 is_stmt 0 view .LVU851
 2300 0634 0128     		cmp	r0, #1
 2301 0636 DFD1     		bne	.L109
 330:Drivers/lvgl/src/draw/sw/lv_draw_sw_box_shadow.c ****                     lv_draw_sw_blend(t, &blend_dsc);
 2302              		.loc 1 330 78 is_stmt 1 discriminator 1 view .LVU852
 330:Drivers/lvgl/src/draw/sw/lv_draw_sw_box_shadow.c ****                     lv_draw_sw_blend(t, &blend_dsc);
 2303              		.loc 1 330 97 is_stmt 0 discriminator 1 view .LVU853
 2304 0638 0223     		movs	r3, #2
 2305 063a 8DF84C30 		strb	r3, [sp, #76]
 2306 063e DBE7     		b	.L109
 2307              	.LVL249:
 2308              	.L188:
 334:Drivers/lvgl/src/draw/sw/lv_draw_sw_box_shadow.c ****                     lv_draw_sw_blend(t, &blend_dsc);
 2309              		.loc 1 334 35 discriminator 1 view .LVU854
 2310 0640 9AF80030 		ldrb	r3, [r10]	@ zero_extendqisi2
 2311 0644 D1E7     		b	.L113
 2312              	.L189:
 334:Drivers/lvgl/src/draw/sw/lv_draw_sw_box_shadow.c ****                     lv_draw_sw_blend(t, &blend_dsc);
 2313              		.loc 1 334 35 discriminator 1 view .LVU855
 2314 0646 099F     		ldr	r7, [sp, #36]
 2315              	.LVL250:
 334:Drivers/lvgl/src/draw/sw/lv_draw_sw_box_shadow.c ****                     lv_draw_sw_blend(t, &blend_dsc);
ARM GAS  /var/folders/qx/2_175_4n2s19vhvtspjhb3qh0000gn/T//ccioUrKE.s 			page 71


 2316              		.loc 1 334 35 discriminator 1 view .LVU856
 2317 0648 DDF828B0 		ldr	fp, [sp, #40]
 2318 064c DDF82C80 		ldr	r8, [sp, #44]
 2319 0650 0296     		str	r6, [sp, #8]
 2320 0652 03E6     		b	.L103
 2321              	.LVL251:
 2322              	.L173:
 334:Drivers/lvgl/src/draw/sw/lv_draw_sw_box_shadow.c ****                     lv_draw_sw_blend(t, &blend_dsc);
 2323              		.loc 1 334 35 discriminator 1 view .LVU857
 2324              	.LBE52:
 356:Drivers/lvgl/src/draw/sw/lv_draw_sw_box_shadow.c ****         int32_t w = lv_area_get_width(&clip_area_sub);
 2325              		.loc 1 356 9 view .LVU858
 2326 0654 039A     		ldr	r2, [sp, #12]
 2327 0656 2AA9     		add	r1, sp, #168
 2328 0658 17A8     		add	r0, sp, #92
 2329 065a FFF7FEFF 		bl	lv_area_is_in
 2330              	.LVL252:
 355:Drivers/lvgl/src/draw/sw/lv_draw_sw_box_shadow.c ****        !lv_area_is_in(&clip_area_sub, &bg_area, r_bg)) {
 2331              		.loc 1 355 70 discriminator 1 view .LVU859
 2332 065e 0028     		cmp	r0, #0
 2333 0660 7FF421AE 		bne	.L116
 2334              	.LBB53:
 357:Drivers/lvgl/src/draw/sw/lv_draw_sw_box_shadow.c ****         sh_buf_tmp = sh_buf;
 2335              		.loc 1 357 9 is_stmt 1 view .LVU860
 357:Drivers/lvgl/src/draw/sw/lv_draw_sw_box_shadow.c ****         sh_buf_tmp = sh_buf;
 2336              		.loc 1 357 21 is_stmt 0 view .LVU861
 2337 0664 17A8     		add	r0, sp, #92
 2338 0666 FFF7FEFF 		bl	lv_area_get_width
 2339              	.LVL253:
 2340 066a 8246     		mov	r10, r0
 2341              	.LVL254:
 358:Drivers/lvgl/src/draw/sw/lv_draw_sw_box_shadow.c ****         sh_buf_tmp += (corner_size - 1) * corner_size;
 2342              		.loc 1 358 9 is_stmt 1 view .LVU862
 359:Drivers/lvgl/src/draw/sw/lv_draw_sw_box_shadow.c ****         sh_buf_tmp += clip_area_sub.x1 - (shadow_area.x2 - corner_size + 1);
 2343              		.loc 1 359 9 view .LVU863
 359:Drivers/lvgl/src/draw/sw/lv_draw_sw_box_shadow.c ****         sh_buf_tmp += clip_area_sub.x1 - (shadow_area.x2 - corner_size + 1);
 2344              		.loc 1 359 36 is_stmt 0 view .LVU864
 2345 066c 611E     		subs	r1, r4, #1
 2346              	.LVL255:
 360:Drivers/lvgl/src/draw/sw/lv_draw_sw_box_shadow.c **** 
 2347              		.loc 1 360 9 is_stmt 1 view .LVU865
 360:Drivers/lvgl/src/draw/sw/lv_draw_sw_box_shadow.c **** 
 2348              		.loc 1 360 54 is_stmt 0 view .LVU866
 2349 066e 349B     		ldr	r3, [sp, #208]
 360:Drivers/lvgl/src/draw/sw/lv_draw_sw_box_shadow.c **** 
 2350              		.loc 1 360 58 view .LVU867
 2351 0670 1B1B     		subs	r3, r3, r4
 360:Drivers/lvgl/src/draw/sw/lv_draw_sw_box_shadow.c **** 
 2352              		.loc 1 360 72 view .LVU868
 2353 0672 5A1C     		adds	r2, r3, #1
 360:Drivers/lvgl/src/draw/sw/lv_draw_sw_box_shadow.c **** 
 2354              		.loc 1 360 40 view .LVU869
 2355 0674 179B     		ldr	r3, [sp, #92]
 2356 0676 9B1A     		subs	r3, r3, r2
 360:Drivers/lvgl/src/draw/sw/lv_draw_sw_box_shadow.c **** 
 2357              		.loc 1 360 20 view .LVU870
 2358 0678 04FB0133 		mla	r3, r4, r1, r3
ARM GAS  /var/folders/qx/2_175_4n2s19vhvtspjhb3qh0000gn/T//ccioUrKE.s 			page 72


 2359 067c 059A     		ldr	r2, [sp, #20]
 2360 067e D318     		adds	r3, r2, r3
 2361 0680 0893     		str	r3, [sp, #32]
 2362              	.LVL256:
 363:Drivers/lvgl/src/draw/sw/lv_draw_sw_box_shadow.c ****         else simple_sub = simple;
 2363              		.loc 1 363 9 is_stmt 1 view .LVU871
 363:Drivers/lvgl/src/draw/sw/lv_draw_sw_box_shadow.c ****         else simple_sub = simple;
 2364              		.loc 1 363 11 is_stmt 0 view .LVU872
 2365 0682 069B     		ldr	r3, [sp, #24]
 2366              	.LVL257:
 363:Drivers/lvgl/src/draw/sw/lv_draw_sw_box_shadow.c ****         else simple_sub = simple;
 2367              		.loc 1 363 11 view .LVU873
 2368 0684 A3B9     		cbnz	r3, .L190
 2369 0686 DDF81890 		ldr	r9, [sp, #24]
 2370              	.LVL258:
 365:Drivers/lvgl/src/draw/sw/lv_draw_sw_box_shadow.c **** 
 2371              		.loc 1 365 28 discriminator 2 view .LVU874
 2372 068a 049B     		ldr	r3, [sp, #16]
 2373              	.LVL259:
 2374              	.L117:
 365:Drivers/lvgl/src/draw/sw/lv_draw_sw_box_shadow.c **** 
 2375              		.loc 1 365 28 discriminator 4 view .LVU875
 2376 068c 1293     		str	r3, [sp, #72]
 367:Drivers/lvgl/src/draw/sw/lv_draw_sw_box_shadow.c ****             blend_area.x1 = clip_area_sub.x1;
 2377              		.loc 1 367 9 is_stmt 1 view .LVU876
 367:Drivers/lvgl/src/draw/sw/lv_draw_sw_box_shadow.c ****             blend_area.x1 = clip_area_sub.x1;
 2378              		.loc 1 367 11 is_stmt 0 view .LVU877
 2379 068e BAF1000F 		cmp	r10, #0
 2380 0692 7FF708AE 		ble	.L116
 368:Drivers/lvgl/src/draw/sw/lv_draw_sw_box_shadow.c ****             blend_area.x2 = clip_area_sub.x2;
 2381              		.loc 1 368 13 is_stmt 1 view .LVU878
 368:Drivers/lvgl/src/draw/sw/lv_draw_sw_box_shadow.c ****             blend_area.x2 = clip_area_sub.x2;
 2382              		.loc 1 368 42 is_stmt 0 view .LVU879
 2383 0696 179B     		ldr	r3, [sp, #92]
 368:Drivers/lvgl/src/draw/sw/lv_draw_sw_box_shadow.c ****             blend_area.x2 = clip_area_sub.x2;
 2384              		.loc 1 368 27 view .LVU880
 2385 0698 1B93     		str	r3, [sp, #108]
 369:Drivers/lvgl/src/draw/sw/lv_draw_sw_box_shadow.c ****             blend_dsc.mask_res = LV_DRAW_SW_MASK_RES_CHANGED;    /*In simple mode it won't be overw
 2386              		.loc 1 369 13 is_stmt 1 view .LVU881
 369:Drivers/lvgl/src/draw/sw/lv_draw_sw_box_shadow.c ****             blend_dsc.mask_res = LV_DRAW_SW_MASK_RES_CHANGED;    /*In simple mode it won't be overw
 2387              		.loc 1 369 42 is_stmt 0 view .LVU882
 2388 069a 199B     		ldr	r3, [sp, #100]
 369:Drivers/lvgl/src/draw/sw/lv_draw_sw_box_shadow.c ****             blend_dsc.mask_res = LV_DRAW_SW_MASK_RES_CHANGED;    /*In simple mode it won't be overw
 2389              		.loc 1 369 27 view .LVU883
 2390 069c 1D93     		str	r3, [sp, #116]
 370:Drivers/lvgl/src/draw/sw/lv_draw_sw_box_shadow.c ****             for(y = clip_area_sub.y1; y <= clip_area_sub.y2; y++) {
 2391              		.loc 1 370 13 is_stmt 1 view .LVU884
 370:Drivers/lvgl/src/draw/sw/lv_draw_sw_box_shadow.c ****             for(y = clip_area_sub.y1; y <= clip_area_sub.y2; y++) {
 2392              		.loc 1 370 32 is_stmt 0 view .LVU885
 2393 069e 0223     		movs	r3, #2
 2394 06a0 8DF84C30 		strb	r3, [sp, #76]
 371:Drivers/lvgl/src/draw/sw/lv_draw_sw_box_shadow.c ****                 blend_area.y1 = y;
 2395              		.loc 1 371 13 is_stmt 1 view .LVU886
 371:Drivers/lvgl/src/draw/sw/lv_draw_sw_box_shadow.c ****                 blend_area.y1 = y;
 2396              		.loc 1 371 19 is_stmt 0 view .LVU887
 2397 06a4 189D     		ldr	r5, [sp, #96]
 2398              	.LVL260:
ARM GAS  /var/folders/qx/2_175_4n2s19vhvtspjhb3qh0000gn/T//ccioUrKE.s 			page 73


 371:Drivers/lvgl/src/draw/sw/lv_draw_sw_box_shadow.c ****                 blend_area.y1 = y;
 2399              		.loc 1 371 19 view .LVU888
 2400 06a6 2346     		mov	r3, r4
 2401 06a8 4C46     		mov	r4, r9
 2402              	.LVL261:
 371:Drivers/lvgl/src/draw/sw/lv_draw_sw_box_shadow.c ****                 blend_area.y1 = y;
 2403              		.loc 1 371 19 view .LVU889
 2404 06aa 029E     		ldr	r6, [sp, #8]
 2405 06ac 9946     		mov	r9, r3
 371:Drivers/lvgl/src/draw/sw/lv_draw_sw_box_shadow.c ****                 blend_area.y1 = y;
 2406              		.loc 1 371 13 view .LVU890
 2407 06ae 11E0     		b	.L118
 2408              	.LVL262:
 2409              	.L190:
 363:Drivers/lvgl/src/draw/sw/lv_draw_sw_box_shadow.c ****         else simple_sub = simple;
 2410              		.loc 1 363 22 discriminator 1 view .LVU891
 2411 06b0 039A     		ldr	r2, [sp, #12]
 2412 06b2 2AA9     		add	r1, sp, #168
 2413 06b4 17A8     		add	r0, sp, #92
 2414              	.LVL263:
 363:Drivers/lvgl/src/draw/sw/lv_draw_sw_box_shadow.c ****         else simple_sub = simple;
 2415              		.loc 1 363 22 discriminator 1 view .LVU892
 2416 06b6 FFF7FEFF 		bl	lv_area_is_out
 2417              	.LVL264:
 363:Drivers/lvgl/src/draw/sw/lv_draw_sw_box_shadow.c ****         else simple_sub = simple;
 2418              		.loc 1 363 19 discriminator 1 view .LVU893
 2419 06ba 8146     		mov	r9, r0
 2420              	.LVL265:
 363:Drivers/lvgl/src/draw/sw/lv_draw_sw_box_shadow.c ****         else simple_sub = simple;
 2421              		.loc 1 363 19 discriminator 1 view .LVU894
 2422 06bc 18B9     		cbnz	r0, .L157
 2423 06be DDF81890 		ldr	r9, [sp, #24]
 365:Drivers/lvgl/src/draw/sw/lv_draw_sw_box_shadow.c **** 
 2424              		.loc 1 365 28 discriminator 1 view .LVU895
 2425 06c2 089B     		ldr	r3, [sp, #32]
 2426 06c4 E2E7     		b	.L117
 2427              	.L157:
 2428 06c6 089B     		ldr	r3, [sp, #32]
 2429 06c8 E0E7     		b	.L117
 2430              	.LVL266:
 2431              	.L119:
 380:Drivers/lvgl/src/draw/sw/lv_draw_sw_box_shadow.c ****             }
 2432              		.loc 1 380 17 is_stmt 1 view .LVU896
 2433 06ca 0CA9     		add	r1, sp, #48
 2434 06cc 3046     		mov	r0, r6
 2435 06ce FFF7FEFF 		bl	lv_draw_sw_blend
 2436              	.LVL267:
 371:Drivers/lvgl/src/draw/sw/lv_draw_sw_box_shadow.c ****                 blend_area.y1 = y;
 2437              		.loc 1 371 63 discriminator 2 view .LVU897
 2438 06d2 0135     		adds	r5, r5, #1
 2439              	.LVL268:
 2440              	.L118:
 371:Drivers/lvgl/src/draw/sw/lv_draw_sw_box_shadow.c ****                 blend_area.y1 = y;
 2441              		.loc 1 371 41 discriminator 1 view .LVU898
 371:Drivers/lvgl/src/draw/sw/lv_draw_sw_box_shadow.c ****                 blend_area.y1 = y;
 2442              		.loc 1 371 57 is_stmt 0 discriminator 1 view .LVU899
 2443 06d4 1A9B     		ldr	r3, [sp, #104]
ARM GAS  /var/folders/qx/2_175_4n2s19vhvtspjhb3qh0000gn/T//ccioUrKE.s 			page 74


 371:Drivers/lvgl/src/draw/sw/lv_draw_sw_box_shadow.c ****                 blend_area.y1 = y;
 2444              		.loc 1 371 41 discriminator 1 view .LVU900
 2445 06d6 AB42     		cmp	r3, r5
 2446 06d8 18DB     		blt	.L191
 372:Drivers/lvgl/src/draw/sw/lv_draw_sw_box_shadow.c ****                 blend_area.y2 = y;
 2447              		.loc 1 372 17 is_stmt 1 view .LVU901
 372:Drivers/lvgl/src/draw/sw/lv_draw_sw_box_shadow.c ****                 blend_area.y2 = y;
 2448              		.loc 1 372 31 is_stmt 0 view .LVU902
 2449 06da 1C95     		str	r5, [sp, #112]
 373:Drivers/lvgl/src/draw/sw/lv_draw_sw_box_shadow.c **** 
 2450              		.loc 1 373 17 is_stmt 1 view .LVU903
 373:Drivers/lvgl/src/draw/sw/lv_draw_sw_box_shadow.c **** 
 2451              		.loc 1 373 31 is_stmt 0 view .LVU904
 2452 06dc 1E95     		str	r5, [sp, #120]
 375:Drivers/lvgl/src/draw/sw/lv_draw_sw_box_shadow.c ****                     lv_memcpy(mask_buf, sh_buf_tmp, w);
 2453              		.loc 1 375 17 is_stmt 1 view .LVU905
 375:Drivers/lvgl/src/draw/sw/lv_draw_sw_box_shadow.c ****                     lv_memcpy(mask_buf, sh_buf_tmp, w);
 2454              		.loc 1 375 19 is_stmt 0 view .LVU906
 2455 06de 002C     		cmp	r4, #0
 2456 06e0 F3D1     		bne	.L119
 376:Drivers/lvgl/src/draw/sw/lv_draw_sw_box_shadow.c ****                     blend_dsc.mask_res = lv_draw_sw_mask_apply(masks, mask_buf, clip_area_sub.x1, y
 2457              		.loc 1 376 21 is_stmt 1 view .LVU907
 2458 06e2 5246     		mov	r2, r10
 2459 06e4 0899     		ldr	r1, [sp, #32]
 2460 06e6 0498     		ldr	r0, [sp, #16]
 2461 06e8 FFF7FEFF 		bl	lv_memcpy
 2462              	.LVL269:
 377:Drivers/lvgl/src/draw/sw/lv_draw_sw_box_shadow.c ****                     if(blend_dsc.mask_res == LV_DRAW_SW_MASK_RES_FULL_COVER) blend_dsc.mask_res = L
 2463              		.loc 1 377 21 view .LVU908
 377:Drivers/lvgl/src/draw/sw/lv_draw_sw_box_shadow.c ****                     if(blend_dsc.mask_res == LV_DRAW_SW_MASK_RES_FULL_COVER) blend_dsc.mask_res = L
 2464              		.loc 1 377 42 is_stmt 0 view .LVU909
 2465 06ec CDF800A0 		str	r10, [sp]
 2466 06f0 2B46     		mov	r3, r5
 2467 06f2 179A     		ldr	r2, [sp, #92]
 2468 06f4 0499     		ldr	r1, [sp, #16]
 2469 06f6 1FA8     		add	r0, sp, #124
 2470 06f8 FFF7FEFF 		bl	lv_draw_sw_mask_apply
 2471              	.LVL270:
 377:Drivers/lvgl/src/draw/sw/lv_draw_sw_box_shadow.c ****                     if(blend_dsc.mask_res == LV_DRAW_SW_MASK_RES_FULL_COVER) blend_dsc.mask_res = L
 2472              		.loc 1 377 40 discriminator 1 view .LVU910
 2473 06fc 8DF84C00 		strb	r0, [sp, #76]
 378:Drivers/lvgl/src/draw/sw/lv_draw_sw_box_shadow.c ****                 }
 2474              		.loc 1 378 21 is_stmt 1 view .LVU911
 378:Drivers/lvgl/src/draw/sw/lv_draw_sw_box_shadow.c ****                 }
 2475              		.loc 1 378 23 is_stmt 0 view .LVU912
 2476 0700 0128     		cmp	r0, #1
 2477 0702 E2D1     		bne	.L119
 378:Drivers/lvgl/src/draw/sw/lv_draw_sw_box_shadow.c ****                 }
 2478              		.loc 1 378 78 is_stmt 1 discriminator 1 view .LVU913
 378:Drivers/lvgl/src/draw/sw/lv_draw_sw_box_shadow.c ****                 }
 2479              		.loc 1 378 97 is_stmt 0 discriminator 1 view .LVU914
 2480 0704 0223     		movs	r3, #2
 2481 0706 8DF84C30 		strb	r3, [sp, #76]
 2482 070a DEE7     		b	.L119
 2483              	.L191:
 378:Drivers/lvgl/src/draw/sw/lv_draw_sw_box_shadow.c ****                 }
 2484              		.loc 1 378 97 discriminator 1 view .LVU915
ARM GAS  /var/folders/qx/2_175_4n2s19vhvtspjhb3qh0000gn/T//ccioUrKE.s 			page 75


 2485 070c 4C46     		mov	r4, r9
 2486 070e 0296     		str	r6, [sp, #8]
 2487 0710 C9E5     		b	.L116
 2488              	.LVL271:
 2489              	.L122:
 378:Drivers/lvgl/src/draw/sw/lv_draw_sw_box_shadow.c ****                 }
 2490              		.loc 1 378 97 discriminator 1 view .LVU916
 2491              	.LBE53:
 2492              	.LBB54:
 2493              	.LBB48:
 392:Drivers/lvgl/src/draw/sw/lv_draw_sw_box_shadow.c ****             *start = *end;
 2494              		.loc 1 392 13 is_stmt 1 view .LVU917
 392:Drivers/lvgl/src/draw/sw/lv_draw_sw_box_shadow.c ****             *start = *end;
 2495              		.loc 1 392 22 is_stmt 0 view .LVU918
 2496 0712 0878     		ldrb	r0, [r1]	@ zero_extendqisi2
 2497              	.LVL272:
 393:Drivers/lvgl/src/draw/sw/lv_draw_sw_box_shadow.c ****             *end = tmp;
 2498              		.loc 1 393 13 is_stmt 1 view .LVU919
 393:Drivers/lvgl/src/draw/sw/lv_draw_sw_box_shadow.c ****             *end = tmp;
 2499              		.loc 1 393 22 is_stmt 0 view .LVU920
 2500 0714 93F800E0 		ldrb	lr, [r3]	@ zero_extendqisi2
 393:Drivers/lvgl/src/draw/sw/lv_draw_sw_box_shadow.c ****             *end = tmp;
 2501              		.loc 1 393 20 view .LVU921
 2502 0718 01F801EB 		strb	lr, [r1], #1
 2503              	.LVL273:
 394:Drivers/lvgl/src/draw/sw/lv_draw_sw_box_shadow.c **** 
 2504              		.loc 1 394 13 is_stmt 1 view .LVU922
 394:Drivers/lvgl/src/draw/sw/lv_draw_sw_box_shadow.c **** 
 2505              		.loc 1 394 18 is_stmt 0 view .LVU923
 2506 071c 03F80109 		strb	r0, [r3], #-1
 2507              	.LVL274:
 396:Drivers/lvgl/src/draw/sw/lv_draw_sw_box_shadow.c ****             end--;
 2508              		.loc 1 396 13 is_stmt 1 view .LVU924
 397:Drivers/lvgl/src/draw/sw/lv_draw_sw_box_shadow.c ****         }
 2509              		.loc 1 397 13 view .LVU925
 397:Drivers/lvgl/src/draw/sw/lv_draw_sw_box_shadow.c ****         }
 2510              		.loc 1 397 13 is_stmt 0 view .LVU926
 2511              	.LBE48:
 391:Drivers/lvgl/src/draw/sw/lv_draw_sw_box_shadow.c ****             lv_opa_t tmp = *start;
 2512              		.loc 1 391 42 is_stmt 1 discriminator 3 view .LVU927
 2513 0720 0132     		adds	r2, r2, #1
 2514              	.LVL275:
 2515              	.L121:
 391:Drivers/lvgl/src/draw/sw/lv_draw_sw_box_shadow.c ****             lv_opa_t tmp = *start;
 2516              		.loc 1 391 22 discriminator 1 view .LVU928
 391:Drivers/lvgl/src/draw/sw/lv_draw_sw_box_shadow.c ****             lv_opa_t tmp = *start;
 2517              		.loc 1 391 36 is_stmt 0 discriminator 1 view .LVU929
 2518 0722 04EBD470 		add	r0, r4, r4, lsr #31
 391:Drivers/lvgl/src/draw/sw/lv_draw_sw_box_shadow.c ****             lv_opa_t tmp = *start;
 2519              		.loc 1 391 22 discriminator 1 view .LVU930
 2520 0726 B2EB600F 		cmp	r2, r0, asr #1
 2521 072a F2DB     		blt	.L122
 399:Drivers/lvgl/src/draw/sw/lv_draw_sw_box_shadow.c ****     }
 2522              		.loc 1 399 9 is_stmt 1 view .LVU931
 399:Drivers/lvgl/src/draw/sw/lv_draw_sw_box_shadow.c ****     }
 2523              		.loc 1 399 20 is_stmt 0 view .LVU932
 2524 072c 2544     		add	r5, r5, r4
ARM GAS  /var/folders/qx/2_175_4n2s19vhvtspjhb3qh0000gn/T//ccioUrKE.s 			page 76


 2525              	.LVL276:
 399:Drivers/lvgl/src/draw/sw/lv_draw_sw_box_shadow.c ****     }
 2526              		.loc 1 399 20 view .LVU933
 2527              	.LBE54:
 387:Drivers/lvgl/src/draw/sw/lv_draw_sw_box_shadow.c ****         int32_t x;
 2528              		.loc 1 387 34 is_stmt 1 discriminator 2 view .LVU934
 2529 072e 0CF1010C 		add	ip, ip, #1
 2530              	.LVL277:
 2531              	.L123:
 387:Drivers/lvgl/src/draw/sw/lv_draw_sw_box_shadow.c ****         int32_t x;
 2532              		.loc 1 387 18 discriminator 1 view .LVU935
 2533 0732 A445     		cmp	ip, r4
 2534 0734 04DA     		bge	.L192
 2535              	.LBB55:
 388:Drivers/lvgl/src/draw/sw/lv_draw_sw_box_shadow.c ****         lv_opa_t * start = sh_buf_tmp;
 2536              		.loc 1 388 9 view .LVU936
 389:Drivers/lvgl/src/draw/sw/lv_draw_sw_box_shadow.c ****         lv_opa_t * end = sh_buf_tmp + corner_size - 1;
 2537              		.loc 1 389 9 view .LVU937
 2538              	.LVL278:
 390:Drivers/lvgl/src/draw/sw/lv_draw_sw_box_shadow.c ****         for(x = 0; x < corner_size / 2; x++) {
 2539              		.loc 1 390 9 view .LVU938
 390:Drivers/lvgl/src/draw/sw/lv_draw_sw_box_shadow.c ****         for(x = 0; x < corner_size / 2; x++) {
 2540              		.loc 1 390 51 is_stmt 0 view .LVU939
 2541 0736 631E     		subs	r3, r4, #1
 390:Drivers/lvgl/src/draw/sw/lv_draw_sw_box_shadow.c ****         for(x = 0; x < corner_size / 2; x++) {
 2542              		.loc 1 390 20 view .LVU940
 2543 0738 2B44     		add	r3, r3, r5
 2544              	.LVL279:
 391:Drivers/lvgl/src/draw/sw/lv_draw_sw_box_shadow.c ****             lv_opa_t tmp = *start;
 2545              		.loc 1 391 9 is_stmt 1 view .LVU941
 389:Drivers/lvgl/src/draw/sw/lv_draw_sw_box_shadow.c ****         lv_opa_t * end = sh_buf_tmp + corner_size - 1;
 2546              		.loc 1 389 20 is_stmt 0 view .LVU942
 2547 073a 2946     		mov	r1, r5
 391:Drivers/lvgl/src/draw/sw/lv_draw_sw_box_shadow.c ****             lv_opa_t tmp = *start;
 2548              		.loc 1 391 15 view .LVU943
 2549 073c 0022     		movs	r2, #0
 391:Drivers/lvgl/src/draw/sw/lv_draw_sw_box_shadow.c ****             lv_opa_t tmp = *start;
 2550              		.loc 1 391 9 view .LVU944
 2551 073e F0E7     		b	.L121
 2552              	.LVL280:
 2553              	.L192:
 391:Drivers/lvgl/src/draw/sw/lv_draw_sw_box_shadow.c ****             lv_opa_t tmp = *start;
 2554              		.loc 1 391 9 view .LVU945
 2555              	.LBE55:
 403:Drivers/lvgl/src/draw/sw/lv_draw_sw_box_shadow.c ****     blend_area.x2 = shadow_area.x1 + corner_size - 1;
 2556              		.loc 1 403 32 view .LVU946
 2557 0740 0296     		str	r6, [sp, #8]
 403:Drivers/lvgl/src/draw/sw/lv_draw_sw_box_shadow.c ****     blend_area.x2 = shadow_area.x1 + corner_size - 1;
 2558              		.loc 1 403 5 is_stmt 1 view .LVU947
 403:Drivers/lvgl/src/draw/sw/lv_draw_sw_box_shadow.c ****     blend_area.x2 = shadow_area.x1 + corner_size - 1;
 2559              		.loc 1 403 32 is_stmt 0 view .LVU948
 2560 0742 329B     		ldr	r3, [sp, #200]
 403:Drivers/lvgl/src/draw/sw/lv_draw_sw_box_shadow.c ****     blend_area.x2 = shadow_area.x1 + corner_size - 1;
 2561              		.loc 1 403 19 view .LVU949
 2562 0744 1B93     		str	r3, [sp, #108]
 404:Drivers/lvgl/src/draw/sw/lv_draw_sw_box_shadow.c ****     blend_area.y1 = shadow_area.y1 + corner_size;
 2563              		.loc 1 404 5 is_stmt 1 view .LVU950
ARM GAS  /var/folders/qx/2_175_4n2s19vhvtspjhb3qh0000gn/T//ccioUrKE.s 			page 77


 404:Drivers/lvgl/src/draw/sw/lv_draw_sw_box_shadow.c ****     blend_area.y1 = shadow_area.y1 + corner_size;
 2564              		.loc 1 404 36 is_stmt 0 view .LVU951
 2565 0746 2344     		add	r3, r3, r4
 404:Drivers/lvgl/src/draw/sw/lv_draw_sw_box_shadow.c ****     blend_area.y1 = shadow_area.y1 + corner_size;
 2566              		.loc 1 404 50 view .LVU952
 2567 0748 013B     		subs	r3, r3, #1
 404:Drivers/lvgl/src/draw/sw/lv_draw_sw_box_shadow.c ****     blend_area.y1 = shadow_area.y1 + corner_size;
 2568              		.loc 1 404 19 view .LVU953
 2569 074a 1D93     		str	r3, [sp, #116]
 405:Drivers/lvgl/src/draw/sw/lv_draw_sw_box_shadow.c ****     blend_area.y2 = shadow_area.y2 - corner_size;
 2570              		.loc 1 405 5 is_stmt 1 view .LVU954
 405:Drivers/lvgl/src/draw/sw/lv_draw_sw_box_shadow.c ****     blend_area.y2 = shadow_area.y2 - corner_size;
 2571              		.loc 1 405 32 is_stmt 0 view .LVU955
 2572 074c 339A     		ldr	r2, [sp, #204]
 405:Drivers/lvgl/src/draw/sw/lv_draw_sw_box_shadow.c ****     blend_area.y2 = shadow_area.y2 - corner_size;
 2573              		.loc 1 405 36 view .LVU956
 2574 074e 2244     		add	r2, r2, r4
 405:Drivers/lvgl/src/draw/sw/lv_draw_sw_box_shadow.c ****     blend_area.y2 = shadow_area.y2 - corner_size;
 2575              		.loc 1 405 19 view .LVU957
 2576 0750 1C92     		str	r2, [sp, #112]
 406:Drivers/lvgl/src/draw/sw/lv_draw_sw_box_shadow.c ****     /*Do not overdraw the other corners*/
 2577              		.loc 1 406 5 is_stmt 1 view .LVU958
 406:Drivers/lvgl/src/draw/sw/lv_draw_sw_box_shadow.c ****     /*Do not overdraw the other corners*/
 2578              		.loc 1 406 32 is_stmt 0 view .LVU959
 2579 0752 3599     		ldr	r1, [sp, #212]
 406:Drivers/lvgl/src/draw/sw/lv_draw_sw_box_shadow.c ****     /*Do not overdraw the other corners*/
 2580              		.loc 1 406 36 view .LVU960
 2581 0754 091B     		subs	r1, r1, r4
 406:Drivers/lvgl/src/draw/sw/lv_draw_sw_box_shadow.c ****     /*Do not overdraw the other corners*/
 2582              		.loc 1 406 19 view .LVU961
 2583 0756 1E91     		str	r1, [sp, #120]
 408:Drivers/lvgl/src/draw/sw/lv_draw_sw_box_shadow.c ****     blend_area.y2 = LV_MAX(blend_area.y2, h_half);
 2584              		.loc 1 408 5 is_stmt 1 view .LVU962
 408:Drivers/lvgl/src/draw/sw/lv_draw_sw_box_shadow.c ****     blend_area.y2 = LV_MAX(blend_area.y2, h_half);
 2585              		.loc 1 408 21 is_stmt 0 view .LVU963
 2586 0758 4245     		cmp	r2, r8
 2587 075a 00DD     		ble	.L125
 408:Drivers/lvgl/src/draw/sw/lv_draw_sw_box_shadow.c ****     blend_area.y2 = LV_MAX(blend_area.y2, h_half);
 2588              		.loc 1 408 21 discriminator 2 view .LVU964
 2589 075c 5A46     		mov	r2, fp
 2590              	.L125:
 408:Drivers/lvgl/src/draw/sw/lv_draw_sw_box_shadow.c ****     blend_area.y2 = LV_MAX(blend_area.y2, h_half);
 2591              		.loc 1 408 19 discriminator 4 view .LVU965
 2592 075e 1C92     		str	r2, [sp, #112]
 409:Drivers/lvgl/src/draw/sw/lv_draw_sw_box_shadow.c ****     blend_area.x2 = LV_MIN(blend_area.x2, w_half - 1);
 2593              		.loc 1 409 5 is_stmt 1 view .LVU966
 409:Drivers/lvgl/src/draw/sw/lv_draw_sw_box_shadow.c ****     blend_area.x2 = LV_MIN(blend_area.x2, w_half - 1);
 2594              		.loc 1 409 21 is_stmt 0 view .LVU967
 2595 0760 0A46     		mov	r2, r1
 2596 0762 4145     		cmp	r1, r8
 2597 0764 B8BF     		it	lt
 2598 0766 4246     		movlt	r2, r8
 409:Drivers/lvgl/src/draw/sw/lv_draw_sw_box_shadow.c ****     blend_area.x2 = LV_MIN(blend_area.x2, w_half - 1);
 2599              		.loc 1 409 19 view .LVU968
 2600 0768 1E92     		str	r2, [sp, #120]
 410:Drivers/lvgl/src/draw/sw/lv_draw_sw_box_shadow.c **** 
 2601              		.loc 1 410 5 is_stmt 1 view .LVU969
ARM GAS  /var/folders/qx/2_175_4n2s19vhvtspjhb3qh0000gn/T//ccioUrKE.s 			page 78


 410:Drivers/lvgl/src/draw/sw/lv_draw_sw_box_shadow.c **** 
 2602              		.loc 1 410 21 is_stmt 0 view .LVU970
 2603 076a 079A     		ldr	r2, [sp, #28]
 2604 076c 551E     		subs	r5, r2, #1
 2605              	.LVL281:
 410:Drivers/lvgl/src/draw/sw/lv_draw_sw_box_shadow.c **** 
 2606              		.loc 1 410 21 view .LVU971
 2607 076e AB42     		cmp	r3, r5
 2608 0770 A8BF     		it	ge
 2609 0772 2B46     		movge	r3, r5
 410:Drivers/lvgl/src/draw/sw/lv_draw_sw_box_shadow.c **** 
 2610              		.loc 1 410 19 view .LVU972
 2611 0774 1D93     		str	r3, [sp, #116]
 412:Drivers/lvgl/src/draw/sw/lv_draw_sw_box_shadow.c ****        !lv_area_is_in(&clip_area_sub, &bg_area, r_bg)) {
 2612              		.loc 1 412 5 is_stmt 1 view .LVU973
 412:Drivers/lvgl/src/draw/sw/lv_draw_sw_box_shadow.c ****        !lv_area_is_in(&clip_area_sub, &bg_area, r_bg)) {
 2613              		.loc 1 412 8 is_stmt 0 view .LVU974
 2614 0776 3A46     		mov	r2, r7
 2615 0778 1BA9     		add	r1, sp, #108
 2616 077a 17A8     		add	r0, sp, #92
 2617 077c FFF7FEFF 		bl	lv_area_intersect
 2618              	.LVL282:
 412:Drivers/lvgl/src/draw/sw/lv_draw_sw_box_shadow.c ****        !lv_area_is_in(&clip_area_sub, &bg_area, r_bg)) {
 2619              		.loc 1 412 7 discriminator 1 view .LVU975
 2620 0780 0028     		cmp	r0, #0
 2621 0782 5ED1     		bne	.L193
 2622              	.LVL283:
 2623              	.L126:
 443:Drivers/lvgl/src/draw/sw/lv_draw_sw_box_shadow.c ****     blend_area.x2 = shadow_area.x1 + corner_size - 1;
 2624              		.loc 1 443 5 is_stmt 1 view .LVU976
 443:Drivers/lvgl/src/draw/sw/lv_draw_sw_box_shadow.c ****     blend_area.x2 = shadow_area.x1 + corner_size - 1;
 2625              		.loc 1 443 32 is_stmt 0 view .LVU977
 2626 0784 329B     		ldr	r3, [sp, #200]
 443:Drivers/lvgl/src/draw/sw/lv_draw_sw_box_shadow.c ****     blend_area.x2 = shadow_area.x1 + corner_size - 1;
 2627              		.loc 1 443 19 view .LVU978
 2628 0786 1B93     		str	r3, [sp, #108]
 444:Drivers/lvgl/src/draw/sw/lv_draw_sw_box_shadow.c ****     blend_area.y1 = shadow_area.y1;
 2629              		.loc 1 444 5 is_stmt 1 view .LVU979
 444:Drivers/lvgl/src/draw/sw/lv_draw_sw_box_shadow.c ****     blend_area.y1 = shadow_area.y1;
 2630              		.loc 1 444 36 is_stmt 0 view .LVU980
 2631 0788 2344     		add	r3, r3, r4
 444:Drivers/lvgl/src/draw/sw/lv_draw_sw_box_shadow.c ****     blend_area.y1 = shadow_area.y1;
 2632              		.loc 1 444 50 view .LVU981
 2633 078a 5A1E     		subs	r2, r3, #1
 444:Drivers/lvgl/src/draw/sw/lv_draw_sw_box_shadow.c ****     blend_area.y1 = shadow_area.y1;
 2634              		.loc 1 444 19 view .LVU982
 2635 078c 1D92     		str	r2, [sp, #116]
 445:Drivers/lvgl/src/draw/sw/lv_draw_sw_box_shadow.c ****     blend_area.y2 = shadow_area.y1 + corner_size - 1;
 2636              		.loc 1 445 5 is_stmt 1 view .LVU983
 445:Drivers/lvgl/src/draw/sw/lv_draw_sw_box_shadow.c ****     blend_area.y2 = shadow_area.y1 + corner_size - 1;
 2637              		.loc 1 445 32 is_stmt 0 view .LVU984
 2638 078e 339B     		ldr	r3, [sp, #204]
 445:Drivers/lvgl/src/draw/sw/lv_draw_sw_box_shadow.c ****     blend_area.y2 = shadow_area.y1 + corner_size - 1;
 2639              		.loc 1 445 19 view .LVU985
 2640 0790 1C93     		str	r3, [sp, #112]
 446:Drivers/lvgl/src/draw/sw/lv_draw_sw_box_shadow.c ****     /*Do not overdraw the other corners*/
 2641              		.loc 1 446 5 is_stmt 1 view .LVU986
ARM GAS  /var/folders/qx/2_175_4n2s19vhvtspjhb3qh0000gn/T//ccioUrKE.s 			page 79


 446:Drivers/lvgl/src/draw/sw/lv_draw_sw_box_shadow.c ****     /*Do not overdraw the other corners*/
 2642              		.loc 1 446 36 is_stmt 0 view .LVU987
 2643 0792 2344     		add	r3, r3, r4
 446:Drivers/lvgl/src/draw/sw/lv_draw_sw_box_shadow.c ****     /*Do not overdraw the other corners*/
 2644              		.loc 1 446 50 view .LVU988
 2645 0794 013B     		subs	r3, r3, #1
 446:Drivers/lvgl/src/draw/sw/lv_draw_sw_box_shadow.c ****     /*Do not overdraw the other corners*/
 2646              		.loc 1 446 19 view .LVU989
 2647 0796 1E93     		str	r3, [sp, #120]
 448:Drivers/lvgl/src/draw/sw/lv_draw_sw_box_shadow.c ****     blend_area.y2 = LV_MIN(blend_area.y2, h_half);
 2648              		.loc 1 448 5 is_stmt 1 view .LVU990
 448:Drivers/lvgl/src/draw/sw/lv_draw_sw_box_shadow.c ****     blend_area.y2 = LV_MIN(blend_area.y2, h_half);
 2649              		.loc 1 448 21 is_stmt 0 view .LVU991
 2650 0798 AA42     		cmp	r2, r5
 2651 079a A8BF     		it	ge
 2652 079c 2A46     		movge	r2, r5
 448:Drivers/lvgl/src/draw/sw/lv_draw_sw_box_shadow.c ****     blend_area.y2 = LV_MIN(blend_area.y2, h_half);
 2653              		.loc 1 448 19 view .LVU992
 2654 079e 1D92     		str	r2, [sp, #116]
 449:Drivers/lvgl/src/draw/sw/lv_draw_sw_box_shadow.c **** 
 2655              		.loc 1 449 5 is_stmt 1 view .LVU993
 449:Drivers/lvgl/src/draw/sw/lv_draw_sw_box_shadow.c **** 
 2656              		.loc 1 449 21 is_stmt 0 view .LVU994
 2657 07a0 4345     		cmp	r3, r8
 2658 07a2 A8BF     		it	ge
 2659 07a4 4346     		movge	r3, r8
 449:Drivers/lvgl/src/draw/sw/lv_draw_sw_box_shadow.c **** 
 2660              		.loc 1 449 19 view .LVU995
 2661 07a6 1E93     		str	r3, [sp, #120]
 451:Drivers/lvgl/src/draw/sw/lv_draw_sw_box_shadow.c ****        !lv_area_is_in(&clip_area_sub, &bg_area, r_bg)) {
 2662              		.loc 1 451 5 is_stmt 1 view .LVU996
 451:Drivers/lvgl/src/draw/sw/lv_draw_sw_box_shadow.c ****        !lv_area_is_in(&clip_area_sub, &bg_area, r_bg)) {
 2663              		.loc 1 451 8 is_stmt 0 view .LVU997
 2664 07a8 3A46     		mov	r2, r7
 2665 07aa 1BA9     		add	r1, sp, #108
 2666 07ac 17A8     		add	r0, sp, #92
 2667 07ae FFF7FEFF 		bl	lv_area_intersect
 2668              	.LVL284:
 451:Drivers/lvgl/src/draw/sw/lv_draw_sw_box_shadow.c ****        !lv_area_is_in(&clip_area_sub, &bg_area, r_bg)) {
 2669              		.loc 1 451 7 discriminator 1 view .LVU998
 2670 07b2 0028     		cmp	r0, #0
 2671 07b4 40F0A480 		bne	.L194
 2672              	.L131:
 488:Drivers/lvgl/src/draw/sw/lv_draw_sw_box_shadow.c ****     blend_area.x2 = shadow_area.x1 + corner_size - 1;
 2673              		.loc 1 488 5 is_stmt 1 view .LVU999
 488:Drivers/lvgl/src/draw/sw/lv_draw_sw_box_shadow.c ****     blend_area.x2 = shadow_area.x1 + corner_size - 1;
 2674              		.loc 1 488 32 is_stmt 0 view .LVU1000
 2675 07b8 329B     		ldr	r3, [sp, #200]
 488:Drivers/lvgl/src/draw/sw/lv_draw_sw_box_shadow.c ****     blend_area.x2 = shadow_area.x1 + corner_size - 1;
 2676              		.loc 1 488 19 view .LVU1001
 2677 07ba 1B93     		str	r3, [sp, #108]
 489:Drivers/lvgl/src/draw/sw/lv_draw_sw_box_shadow.c ****     blend_area.y1 = shadow_area.y2 - corner_size + 1;
 2678              		.loc 1 489 5 is_stmt 1 view .LVU1002
 489:Drivers/lvgl/src/draw/sw/lv_draw_sw_box_shadow.c ****     blend_area.y1 = shadow_area.y2 - corner_size + 1;
 2679              		.loc 1 489 36 is_stmt 0 view .LVU1003
 2680 07bc 2344     		add	r3, r3, r4
 489:Drivers/lvgl/src/draw/sw/lv_draw_sw_box_shadow.c ****     blend_area.y1 = shadow_area.y2 - corner_size + 1;
ARM GAS  /var/folders/qx/2_175_4n2s19vhvtspjhb3qh0000gn/T//ccioUrKE.s 			page 80


 2681              		.loc 1 489 50 view .LVU1004
 2682 07be 013B     		subs	r3, r3, #1
 489:Drivers/lvgl/src/draw/sw/lv_draw_sw_box_shadow.c ****     blend_area.y1 = shadow_area.y2 - corner_size + 1;
 2683              		.loc 1 489 19 view .LVU1005
 2684 07c0 1D93     		str	r3, [sp, #116]
 490:Drivers/lvgl/src/draw/sw/lv_draw_sw_box_shadow.c ****     blend_area.y2 = shadow_area.y2;
 2685              		.loc 1 490 5 is_stmt 1 view .LVU1006
 490:Drivers/lvgl/src/draw/sw/lv_draw_sw_box_shadow.c ****     blend_area.y2 = shadow_area.y2;
 2686              		.loc 1 490 32 is_stmt 0 view .LVU1007
 2687 07c2 3599     		ldr	r1, [sp, #212]
 490:Drivers/lvgl/src/draw/sw/lv_draw_sw_box_shadow.c ****     blend_area.y2 = shadow_area.y2;
 2688              		.loc 1 490 36 view .LVU1008
 2689 07c4 0A1B     		subs	r2, r1, r4
 490:Drivers/lvgl/src/draw/sw/lv_draw_sw_box_shadow.c ****     blend_area.y2 = shadow_area.y2;
 2690              		.loc 1 490 50 view .LVU1009
 2691 07c6 0132     		adds	r2, r2, #1
 490:Drivers/lvgl/src/draw/sw/lv_draw_sw_box_shadow.c ****     blend_area.y2 = shadow_area.y2;
 2692              		.loc 1 490 19 view .LVU1010
 2693 07c8 1C92     		str	r2, [sp, #112]
 491:Drivers/lvgl/src/draw/sw/lv_draw_sw_box_shadow.c ****     /*Do not overdraw the other corners*/
 2694              		.loc 1 491 5 is_stmt 1 view .LVU1011
 491:Drivers/lvgl/src/draw/sw/lv_draw_sw_box_shadow.c ****     /*Do not overdraw the other corners*/
 2695              		.loc 1 491 19 is_stmt 0 view .LVU1012
 2696 07ca 1E91     		str	r1, [sp, #120]
 493:Drivers/lvgl/src/draw/sw/lv_draw_sw_box_shadow.c ****     blend_area.x2 = LV_MIN(blend_area.x2, w_half - 1);
 2697              		.loc 1 493 5 is_stmt 1 view .LVU1013
 493:Drivers/lvgl/src/draw/sw/lv_draw_sw_box_shadow.c ****     blend_area.x2 = LV_MIN(blend_area.x2, w_half - 1);
 2698              		.loc 1 493 21 is_stmt 0 view .LVU1014
 2699 07cc 5A45     		cmp	r2, fp
 2700 07ce B8BF     		it	lt
 2701 07d0 5A46     		movlt	r2, fp
 493:Drivers/lvgl/src/draw/sw/lv_draw_sw_box_shadow.c ****     blend_area.x2 = LV_MIN(blend_area.x2, w_half - 1);
 2702              		.loc 1 493 19 view .LVU1015
 2703 07d2 1C92     		str	r2, [sp, #112]
 494:Drivers/lvgl/src/draw/sw/lv_draw_sw_box_shadow.c **** 
 2704              		.loc 1 494 5 is_stmt 1 view .LVU1016
 494:Drivers/lvgl/src/draw/sw/lv_draw_sw_box_shadow.c **** 
 2705              		.loc 1 494 21 is_stmt 0 view .LVU1017
 2706 07d4 9D42     		cmp	r5, r3
 2707 07d6 A8BF     		it	ge
 2708 07d8 1D46     		movge	r5, r3
 494:Drivers/lvgl/src/draw/sw/lv_draw_sw_box_shadow.c **** 
 2709              		.loc 1 494 19 view .LVU1018
 2710 07da 1D95     		str	r5, [sp, #116]
 496:Drivers/lvgl/src/draw/sw/lv_draw_sw_box_shadow.c ****        !lv_area_is_in(&clip_area_sub, &bg_area, r_bg)) {
 2711              		.loc 1 496 5 is_stmt 1 view .LVU1019
 496:Drivers/lvgl/src/draw/sw/lv_draw_sw_box_shadow.c ****        !lv_area_is_in(&clip_area_sub, &bg_area, r_bg)) {
 2712              		.loc 1 496 8 is_stmt 0 view .LVU1020
 2713 07dc 3A46     		mov	r2, r7
 2714 07de 1BA9     		add	r1, sp, #108
 2715 07e0 17A8     		add	r0, sp, #92
 2716 07e2 FFF7FEFF 		bl	lv_area_intersect
 2717              	.LVL285:
 496:Drivers/lvgl/src/draw/sw/lv_draw_sw_box_shadow.c ****        !lv_area_is_in(&clip_area_sub, &bg_area, r_bg)) {
 2718              		.loc 1 496 7 discriminator 1 view .LVU1021
 2719 07e6 0028     		cmp	r0, #0
 2720 07e8 40F0F280 		bne	.L195
ARM GAS  /var/folders/qx/2_175_4n2s19vhvtspjhb3qh0000gn/T//ccioUrKE.s 			page 81


 2721              	.L137:
 530:Drivers/lvgl/src/draw/sw/lv_draw_sw_box_shadow.c ****     blend_area.x2 = shadow_area.x2 - corner_size;
 2722              		.loc 1 530 5 is_stmt 1 view .LVU1022
 530:Drivers/lvgl/src/draw/sw/lv_draw_sw_box_shadow.c ****     blend_area.x2 = shadow_area.x2 - corner_size;
 2723              		.loc 1 530 32 is_stmt 0 view .LVU1023
 2724 07ec 329B     		ldr	r3, [sp, #200]
 530:Drivers/lvgl/src/draw/sw/lv_draw_sw_box_shadow.c ****     blend_area.x2 = shadow_area.x2 - corner_size;
 2725              		.loc 1 530 36 view .LVU1024
 2726 07ee 2344     		add	r3, r3, r4
 530:Drivers/lvgl/src/draw/sw/lv_draw_sw_box_shadow.c ****     blend_area.x2 = shadow_area.x2 - corner_size;
 2727              		.loc 1 530 19 view .LVU1025
 2728 07f0 1B93     		str	r3, [sp, #108]
 531:Drivers/lvgl/src/draw/sw/lv_draw_sw_box_shadow.c ****     blend_area.y1 = shadow_area.y1 + corner_size;
 2729              		.loc 1 531 5 is_stmt 1 view .LVU1026
 531:Drivers/lvgl/src/draw/sw/lv_draw_sw_box_shadow.c ****     blend_area.y1 = shadow_area.y1 + corner_size;
 2730              		.loc 1 531 32 is_stmt 0 view .LVU1027
 2731 07f2 349B     		ldr	r3, [sp, #208]
 531:Drivers/lvgl/src/draw/sw/lv_draw_sw_box_shadow.c ****     blend_area.y1 = shadow_area.y1 + corner_size;
 2732              		.loc 1 531 36 view .LVU1028
 2733 07f4 1B1B     		subs	r3, r3, r4
 531:Drivers/lvgl/src/draw/sw/lv_draw_sw_box_shadow.c ****     blend_area.y1 = shadow_area.y1 + corner_size;
 2734              		.loc 1 531 19 view .LVU1029
 2735 07f6 1D93     		str	r3, [sp, #116]
 532:Drivers/lvgl/src/draw/sw/lv_draw_sw_box_shadow.c ****     blend_area.y2 = shadow_area.y2 - corner_size;
 2736              		.loc 1 532 5 is_stmt 1 view .LVU1030
 532:Drivers/lvgl/src/draw/sw/lv_draw_sw_box_shadow.c ****     blend_area.y2 = shadow_area.y2 - corner_size;
 2737              		.loc 1 532 32 is_stmt 0 view .LVU1031
 2738 07f8 339B     		ldr	r3, [sp, #204]
 532:Drivers/lvgl/src/draw/sw/lv_draw_sw_box_shadow.c ****     blend_area.y2 = shadow_area.y2 - corner_size;
 2739              		.loc 1 532 36 view .LVU1032
 2740 07fa 2344     		add	r3, r3, r4
 532:Drivers/lvgl/src/draw/sw/lv_draw_sw_box_shadow.c ****     blend_area.y2 = shadow_area.y2 - corner_size;
 2741              		.loc 1 532 19 view .LVU1033
 2742 07fc 1C93     		str	r3, [sp, #112]
 533:Drivers/lvgl/src/draw/sw/lv_draw_sw_box_shadow.c ****     blend_area.y1 = LV_MIN(blend_area.y1, h_half + 1);
 2743              		.loc 1 533 5 is_stmt 1 view .LVU1034
 533:Drivers/lvgl/src/draw/sw/lv_draw_sw_box_shadow.c ****     blend_area.y1 = LV_MIN(blend_area.y1, h_half + 1);
 2744              		.loc 1 533 32 is_stmt 0 view .LVU1035
 2745 07fe 359A     		ldr	r2, [sp, #212]
 533:Drivers/lvgl/src/draw/sw/lv_draw_sw_box_shadow.c ****     blend_area.y1 = LV_MIN(blend_area.y1, h_half + 1);
 2746              		.loc 1 533 36 view .LVU1036
 2747 0800 121B     		subs	r2, r2, r4
 533:Drivers/lvgl/src/draw/sw/lv_draw_sw_box_shadow.c ****     blend_area.y1 = LV_MIN(blend_area.y1, h_half + 1);
 2748              		.loc 1 533 19 view .LVU1037
 2749 0802 1E92     		str	r2, [sp, #120]
 534:Drivers/lvgl/src/draw/sw/lv_draw_sw_box_shadow.c ****     blend_area.y2 = LV_MAX(blend_area.y2, h_half);
 2750              		.loc 1 534 5 is_stmt 1 view .LVU1038
 534:Drivers/lvgl/src/draw/sw/lv_draw_sw_box_shadow.c ****     blend_area.y2 = LV_MAX(blend_area.y2, h_half);
 2751              		.loc 1 534 21 is_stmt 0 view .LVU1039
 2752 0804 4345     		cmp	r3, r8
 2753 0806 00DC     		bgt	.L143
 534:Drivers/lvgl/src/draw/sw/lv_draw_sw_box_shadow.c ****     blend_area.y2 = LV_MAX(blend_area.y2, h_half);
 2754              		.loc 1 534 21 discriminator 1 view .LVU1040
 2755 0808 9B46     		mov	fp, r3
 2756              	.L143:
 534:Drivers/lvgl/src/draw/sw/lv_draw_sw_box_shadow.c ****     blend_area.y2 = LV_MAX(blend_area.y2, h_half);
 2757              		.loc 1 534 19 discriminator 4 view .LVU1041
ARM GAS  /var/folders/qx/2_175_4n2s19vhvtspjhb3qh0000gn/T//ccioUrKE.s 			page 82


 2758 080a CDF870B0 		str	fp, [sp, #112]
 535:Drivers/lvgl/src/draw/sw/lv_draw_sw_box_shadow.c ****     blend_dsc.mask_buf = mask_buf;
 2759              		.loc 1 535 5 is_stmt 1 view .LVU1042
 535:Drivers/lvgl/src/draw/sw/lv_draw_sw_box_shadow.c ****     blend_dsc.mask_buf = mask_buf;
 2760              		.loc 1 535 21 is_stmt 0 view .LVU1043
 2761 080e 1346     		mov	r3, r2
 2762 0810 4245     		cmp	r2, r8
 2763 0812 B8BF     		it	lt
 2764 0814 4346     		movlt	r3, r8
 535:Drivers/lvgl/src/draw/sw/lv_draw_sw_box_shadow.c ****     blend_dsc.mask_buf = mask_buf;
 2765              		.loc 1 535 19 view .LVU1044
 2766 0816 1E93     		str	r3, [sp, #120]
 536:Drivers/lvgl/src/draw/sw/lv_draw_sw_box_shadow.c **** 
 2767              		.loc 1 536 5 is_stmt 1 view .LVU1045
 536:Drivers/lvgl/src/draw/sw/lv_draw_sw_box_shadow.c **** 
 2768              		.loc 1 536 24 is_stmt 0 view .LVU1046
 2769 0818 049B     		ldr	r3, [sp, #16]
 2770 081a 1293     		str	r3, [sp, #72]
 538:Drivers/lvgl/src/draw/sw/lv_draw_sw_box_shadow.c ****        !lv_area_is_in(&clip_area_sub, &bg_area, r_bg)) {
 2771              		.loc 1 538 5 is_stmt 1 view .LVU1047
 538:Drivers/lvgl/src/draw/sw/lv_draw_sw_box_shadow.c ****        !lv_area_is_in(&clip_area_sub, &bg_area, r_bg)) {
 2772              		.loc 1 538 8 is_stmt 0 view .LVU1048
 2773 081c 3A46     		mov	r2, r7
 2774 081e 1BA9     		add	r1, sp, #108
 2775 0820 17A8     		add	r0, sp, #92
 2776 0822 FFF7FEFF 		bl	lv_area_intersect
 2777              	.LVL286:
 538:Drivers/lvgl/src/draw/sw/lv_draw_sw_box_shadow.c ****        !lv_area_is_in(&clip_area_sub, &bg_area, r_bg)) {
 2778              		.loc 1 538 7 discriminator 1 view .LVU1049
 2779 0826 0028     		cmp	r0, #0
 2780 0828 40F03581 		bne	.L196
 2781              	.LVL287:
 2782              	.L144:
 555:Drivers/lvgl/src/draw/sw/lv_draw_sw_box_shadow.c ****         lv_draw_sw_mask_free_param(&mask_rout_param);
 2783              		.loc 1 555 5 is_stmt 1 view .LVU1050
 555:Drivers/lvgl/src/draw/sw/lv_draw_sw_box_shadow.c ****         lv_draw_sw_mask_free_param(&mask_rout_param);
 2784              		.loc 1 555 7 is_stmt 0 view .LVU1051
 2785 082c 069B     		ldr	r3, [sp, #24]
 2786 082e 002B     		cmp	r3, #0
 2787 0830 00F06081 		beq	.L197
 2788              	.L147:
 558:Drivers/lvgl/src/draw/sw/lv_draw_sw_box_shadow.c ****     lv_free(mask_buf);
 2789              		.loc 1 558 5 is_stmt 1 view .LVU1052
 2790 0834 0598     		ldr	r0, [sp, #20]
 2791 0836 FFF7FEFF 		bl	lv_free
 2792              	.LVL288:
 559:Drivers/lvgl/src/draw/sw/lv_draw_sw_box_shadow.c **** }
 2793              		.loc 1 559 5 view .LVU1053
 2794 083a 0498     		ldr	r0, [sp, #16]
 2795 083c FFF7FEFF 		bl	lv_free
 2796              	.LVL289:
 2797 0840 18E4     		b	.L67
 2798              	.LVL290:
 2799              	.L193:
 413:Drivers/lvgl/src/draw/sw/lv_draw_sw_box_shadow.c ****         int32_t w = lv_area_get_width(&clip_area_sub);
 2800              		.loc 1 413 9 is_stmt 0 view .LVU1054
 2801 0842 039A     		ldr	r2, [sp, #12]
ARM GAS  /var/folders/qx/2_175_4n2s19vhvtspjhb3qh0000gn/T//ccioUrKE.s 			page 83


 2802 0844 2AA9     		add	r1, sp, #168
 2803 0846 17A8     		add	r0, sp, #92
 2804 0848 FFF7FEFF 		bl	lv_area_is_in
 2805              	.LVL291:
 412:Drivers/lvgl/src/draw/sw/lv_draw_sw_box_shadow.c ****        !lv_area_is_in(&clip_area_sub, &bg_area, r_bg)) {
 2806              		.loc 1 412 70 discriminator 1 view .LVU1055
 2807 084c 0028     		cmp	r0, #0
 2808 084e 99D1     		bne	.L126
 2809              	.LBB56:
 414:Drivers/lvgl/src/draw/sw/lv_draw_sw_box_shadow.c ****         sh_buf_tmp = sh_buf;
 2810              		.loc 1 414 9 is_stmt 1 view .LVU1056
 414:Drivers/lvgl/src/draw/sw/lv_draw_sw_box_shadow.c ****         sh_buf_tmp = sh_buf;
 2811              		.loc 1 414 21 is_stmt 0 view .LVU1057
 2812 0850 17A8     		add	r0, sp, #92
 2813 0852 FFF7FEFF 		bl	lv_area_get_width
 2814              	.LVL292:
 2815 0856 0790     		str	r0, [sp, #28]
 2816              	.LVL293:
 415:Drivers/lvgl/src/draw/sw/lv_draw_sw_box_shadow.c ****         sh_buf_tmp += (corner_size - 1) * corner_size;
 2817              		.loc 1 415 9 is_stmt 1 view .LVU1058
 416:Drivers/lvgl/src/draw/sw/lv_draw_sw_box_shadow.c ****         sh_buf_tmp += clip_area_sub.x1 - blend_area.x1;
 2818              		.loc 1 416 9 view .LVU1059
 416:Drivers/lvgl/src/draw/sw/lv_draw_sw_box_shadow.c ****         sh_buf_tmp += clip_area_sub.x1 - blend_area.x1;
 2819              		.loc 1 416 36 is_stmt 0 view .LVU1060
 2820 0858 621E     		subs	r2, r4, #1
 2821              	.LVL294:
 417:Drivers/lvgl/src/draw/sw/lv_draw_sw_box_shadow.c **** 
 2822              		.loc 1 417 9 is_stmt 1 view .LVU1061
 417:Drivers/lvgl/src/draw/sw/lv_draw_sw_box_shadow.c **** 
 2823              		.loc 1 417 40 is_stmt 0 view .LVU1062
 2824 085a 179B     		ldr	r3, [sp, #92]
 2825 085c 1B99     		ldr	r1, [sp, #108]
 2826 085e 5B1A     		subs	r3, r3, r1
 417:Drivers/lvgl/src/draw/sw/lv_draw_sw_box_shadow.c **** 
 2827              		.loc 1 417 20 view .LVU1063
 2828 0860 04FB0233 		mla	r3, r4, r2, r3
 2829 0864 059A     		ldr	r2, [sp, #20]
 2830 0866 D318     		adds	r3, r2, r3
 2831 0868 0893     		str	r3, [sp, #32]
 2832              	.LVL295:
 420:Drivers/lvgl/src/draw/sw/lv_draw_sw_box_shadow.c ****         else simple_sub = simple;
 2833              		.loc 1 420 9 is_stmt 1 view .LVU1064
 420:Drivers/lvgl/src/draw/sw/lv_draw_sw_box_shadow.c ****         else simple_sub = simple;
 2834              		.loc 1 420 11 is_stmt 0 view .LVU1065
 2835 086a 069B     		ldr	r3, [sp, #24]
 2836              	.LVL296:
 420:Drivers/lvgl/src/draw/sw/lv_draw_sw_box_shadow.c ****         else simple_sub = simple;
 2837              		.loc 1 420 11 view .LVU1066
 2838 086c B3B9     		cbnz	r3, .L198
 2839 086e DDF818A0 		ldr	r10, [sp, #24]
 422:Drivers/lvgl/src/draw/sw/lv_draw_sw_box_shadow.c ****         if(w > 0) {
 2840              		.loc 1 422 28 discriminator 2 view .LVU1067
 2841 0872 049B     		ldr	r3, [sp, #16]
 2842              	.LVL297:
 2843              	.L127:
 422:Drivers/lvgl/src/draw/sw/lv_draw_sw_box_shadow.c ****         if(w > 0) {
 2844              		.loc 1 422 28 discriminator 4 view .LVU1068
ARM GAS  /var/folders/qx/2_175_4n2s19vhvtspjhb3qh0000gn/T//ccioUrKE.s 			page 84


 2845 0874 1293     		str	r3, [sp, #72]
 423:Drivers/lvgl/src/draw/sw/lv_draw_sw_box_shadow.c ****             blend_area.x1 = clip_area_sub.x1;
 2846              		.loc 1 423 9 is_stmt 1 view .LVU1069
 423:Drivers/lvgl/src/draw/sw/lv_draw_sw_box_shadow.c ****             blend_area.x1 = clip_area_sub.x1;
 2847              		.loc 1 423 11 is_stmt 0 view .LVU1070
 2848 0876 079B     		ldr	r3, [sp, #28]
 2849 0878 002B     		cmp	r3, #0
 2850 087a 83DD     		ble	.L126
 424:Drivers/lvgl/src/draw/sw/lv_draw_sw_box_shadow.c ****             blend_area.x2 = clip_area_sub.x2;
 2851              		.loc 1 424 13 is_stmt 1 view .LVU1071
 424:Drivers/lvgl/src/draw/sw/lv_draw_sw_box_shadow.c ****             blend_area.x2 = clip_area_sub.x2;
 2852              		.loc 1 424 42 is_stmt 0 view .LVU1072
 2853 087c 179B     		ldr	r3, [sp, #92]
 424:Drivers/lvgl/src/draw/sw/lv_draw_sw_box_shadow.c ****             blend_area.x2 = clip_area_sub.x2;
 2854              		.loc 1 424 27 view .LVU1073
 2855 087e 1B93     		str	r3, [sp, #108]
 425:Drivers/lvgl/src/draw/sw/lv_draw_sw_box_shadow.c ****             blend_dsc.mask_res = LV_DRAW_SW_MASK_RES_CHANGED;    /*In simple mode it won't be overw
 2856              		.loc 1 425 13 is_stmt 1 view .LVU1074
 425:Drivers/lvgl/src/draw/sw/lv_draw_sw_box_shadow.c ****             blend_dsc.mask_res = LV_DRAW_SW_MASK_RES_CHANGED;    /*In simple mode it won't be overw
 2857              		.loc 1 425 42 is_stmt 0 view .LVU1075
 2858 0880 199B     		ldr	r3, [sp, #100]
 425:Drivers/lvgl/src/draw/sw/lv_draw_sw_box_shadow.c ****             blend_dsc.mask_res = LV_DRAW_SW_MASK_RES_CHANGED;    /*In simple mode it won't be overw
 2859              		.loc 1 425 27 view .LVU1076
 2860 0882 1D93     		str	r3, [sp, #116]
 426:Drivers/lvgl/src/draw/sw/lv_draw_sw_box_shadow.c ****             for(y = clip_area_sub.y1; y <= clip_area_sub.y2; y++) {
 2861              		.loc 1 426 13 is_stmt 1 view .LVU1077
 426:Drivers/lvgl/src/draw/sw/lv_draw_sw_box_shadow.c ****             for(y = clip_area_sub.y1; y <= clip_area_sub.y2; y++) {
 2862              		.loc 1 426 32 is_stmt 0 view .LVU1078
 2863 0884 0223     		movs	r3, #2
 2864 0886 8DF84C30 		strb	r3, [sp, #76]
 427:Drivers/lvgl/src/draw/sw/lv_draw_sw_box_shadow.c ****                 blend_area.y1 = y;
 2865              		.loc 1 427 13 is_stmt 1 view .LVU1079
 427:Drivers/lvgl/src/draw/sw/lv_draw_sw_box_shadow.c ****                 blend_area.y1 = y;
 2866              		.loc 1 427 19 is_stmt 0 view .LVU1080
 2867 088a DDF86090 		ldr	r9, [sp, #96]
 2868              	.LVL298:
 427:Drivers/lvgl/src/draw/sw/lv_draw_sw_box_shadow.c ****                 blend_area.y1 = y;
 2869              		.loc 1 427 19 view .LVU1081
 2870 088e 2346     		mov	r3, r4
 2871 0890 4C46     		mov	r4, r9
 2872              	.LVL299:
 427:Drivers/lvgl/src/draw/sw/lv_draw_sw_box_shadow.c ****                 blend_area.y1 = y;
 2873              		.loc 1 427 19 view .LVU1082
 2874 0892 A946     		mov	r9, r5
 2875              	.LVL300:
 427:Drivers/lvgl/src/draw/sw/lv_draw_sw_box_shadow.c ****                 blend_area.y1 = y;
 2876              		.loc 1 427 19 view .LVU1083
 2877 0894 5546     		mov	r5, r10
 2878 0896 029E     		ldr	r6, [sp, #8]
 2879 0898 9A46     		mov	r10, r3
 427:Drivers/lvgl/src/draw/sw/lv_draw_sw_box_shadow.c ****                 blend_area.y1 = y;
 2880              		.loc 1 427 13 view .LVU1084
 2881 089a 11E0     		b	.L128
 2882              	.LVL301:
 2883              	.L198:
 420:Drivers/lvgl/src/draw/sw/lv_draw_sw_box_shadow.c ****         else simple_sub = simple;
 2884              		.loc 1 420 22 discriminator 1 view .LVU1085
ARM GAS  /var/folders/qx/2_175_4n2s19vhvtspjhb3qh0000gn/T//ccioUrKE.s 			page 85


 2885 089c 039A     		ldr	r2, [sp, #12]
 2886 089e 2AA9     		add	r1, sp, #168
 2887 08a0 17A8     		add	r0, sp, #92
 2888              	.LVL302:
 420:Drivers/lvgl/src/draw/sw/lv_draw_sw_box_shadow.c ****         else simple_sub = simple;
 2889              		.loc 1 420 22 discriminator 1 view .LVU1086
 2890 08a2 FFF7FEFF 		bl	lv_area_is_out
 2891              	.LVL303:
 420:Drivers/lvgl/src/draw/sw/lv_draw_sw_box_shadow.c ****         else simple_sub = simple;
 2892              		.loc 1 420 19 discriminator 1 view .LVU1087
 2893 08a6 8246     		mov	r10, r0
 2894 08a8 18B9     		cbnz	r0, .L160
 2895 08aa DDF818A0 		ldr	r10, [sp, #24]
 422:Drivers/lvgl/src/draw/sw/lv_draw_sw_box_shadow.c ****         if(w > 0) {
 2896              		.loc 1 422 28 discriminator 1 view .LVU1088
 2897 08ae 089B     		ldr	r3, [sp, #32]
 2898 08b0 E0E7     		b	.L127
 2899              	.L160:
 2900 08b2 089B     		ldr	r3, [sp, #32]
 2901 08b4 DEE7     		b	.L127
 2902              	.LVL304:
 2903              	.L129:
 437:Drivers/lvgl/src/draw/sw/lv_draw_sw_box_shadow.c ****             }
 2904              		.loc 1 437 17 is_stmt 1 view .LVU1089
 2905 08b6 0CA9     		add	r1, sp, #48
 2906 08b8 3046     		mov	r0, r6
 2907 08ba FFF7FEFF 		bl	lv_draw_sw_blend
 2908              	.LVL305:
 427:Drivers/lvgl/src/draw/sw/lv_draw_sw_box_shadow.c ****                 blend_area.y1 = y;
 2909              		.loc 1 427 63 discriminator 2 view .LVU1090
 2910 08be 0134     		adds	r4, r4, #1
 2911              	.LVL306:
 2912              	.L128:
 427:Drivers/lvgl/src/draw/sw/lv_draw_sw_box_shadow.c ****                 blend_area.y1 = y;
 2913              		.loc 1 427 41 discriminator 1 view .LVU1091
 427:Drivers/lvgl/src/draw/sw/lv_draw_sw_box_shadow.c ****                 blend_area.y1 = y;
 2914              		.loc 1 427 57 is_stmt 0 discriminator 1 view .LVU1092
 2915 08c0 1A9B     		ldr	r3, [sp, #104]
 427:Drivers/lvgl/src/draw/sw/lv_draw_sw_box_shadow.c ****                 blend_area.y1 = y;
 2916              		.loc 1 427 41 discriminator 1 view .LVU1093
 2917 08c2 A342     		cmp	r3, r4
 2918 08c4 18DB     		blt	.L199
 428:Drivers/lvgl/src/draw/sw/lv_draw_sw_box_shadow.c ****                 blend_area.y2 = y;
 2919              		.loc 1 428 17 is_stmt 1 view .LVU1094
 428:Drivers/lvgl/src/draw/sw/lv_draw_sw_box_shadow.c ****                 blend_area.y2 = y;
 2920              		.loc 1 428 31 is_stmt 0 view .LVU1095
 2921 08c6 1C94     		str	r4, [sp, #112]
 429:Drivers/lvgl/src/draw/sw/lv_draw_sw_box_shadow.c **** 
 2922              		.loc 1 429 17 is_stmt 1 view .LVU1096
 429:Drivers/lvgl/src/draw/sw/lv_draw_sw_box_shadow.c **** 
 2923              		.loc 1 429 31 is_stmt 0 view .LVU1097
 2924 08c8 1E94     		str	r4, [sp, #120]
 431:Drivers/lvgl/src/draw/sw/lv_draw_sw_box_shadow.c ****                     lv_memcpy(mask_buf, sh_buf_tmp, w);
 2925              		.loc 1 431 17 is_stmt 1 view .LVU1098
 431:Drivers/lvgl/src/draw/sw/lv_draw_sw_box_shadow.c ****                     lv_memcpy(mask_buf, sh_buf_tmp, w);
 2926              		.loc 1 431 19 is_stmt 0 view .LVU1099
 2927 08ca 002D     		cmp	r5, #0
ARM GAS  /var/folders/qx/2_175_4n2s19vhvtspjhb3qh0000gn/T//ccioUrKE.s 			page 86


 2928 08cc F3D1     		bne	.L129
 432:Drivers/lvgl/src/draw/sw/lv_draw_sw_box_shadow.c ****                     blend_dsc.mask_res = lv_draw_sw_mask_apply(masks, mask_buf, clip_area_sub.x1, y
 2929              		.loc 1 432 21 is_stmt 1 view .LVU1100
 2930 08ce 079A     		ldr	r2, [sp, #28]
 2931 08d0 0899     		ldr	r1, [sp, #32]
 2932 08d2 0498     		ldr	r0, [sp, #16]
 2933 08d4 FFF7FEFF 		bl	lv_memcpy
 2934              	.LVL307:
 433:Drivers/lvgl/src/draw/sw/lv_draw_sw_box_shadow.c ****                     if(blend_dsc.mask_res == LV_DRAW_SW_MASK_RES_FULL_COVER) blend_dsc.mask_res = L
 2935              		.loc 1 433 21 view .LVU1101
 433:Drivers/lvgl/src/draw/sw/lv_draw_sw_box_shadow.c ****                     if(blend_dsc.mask_res == LV_DRAW_SW_MASK_RES_FULL_COVER) blend_dsc.mask_res = L
 2936              		.loc 1 433 42 is_stmt 0 view .LVU1102
 2937 08d8 079B     		ldr	r3, [sp, #28]
 2938 08da 0093     		str	r3, [sp]
 2939 08dc 2346     		mov	r3, r4
 2940 08de 179A     		ldr	r2, [sp, #92]
 2941 08e0 0499     		ldr	r1, [sp, #16]
 2942 08e2 1FA8     		add	r0, sp, #124
 2943 08e4 FFF7FEFF 		bl	lv_draw_sw_mask_apply
 2944              	.LVL308:
 433:Drivers/lvgl/src/draw/sw/lv_draw_sw_box_shadow.c ****                     if(blend_dsc.mask_res == LV_DRAW_SW_MASK_RES_FULL_COVER) blend_dsc.mask_res = L
 2945              		.loc 1 433 40 discriminator 1 view .LVU1103
 2946 08e8 8DF84C00 		strb	r0, [sp, #76]
 434:Drivers/lvgl/src/draw/sw/lv_draw_sw_box_shadow.c ****                 }
 2947              		.loc 1 434 21 is_stmt 1 view .LVU1104
 434:Drivers/lvgl/src/draw/sw/lv_draw_sw_box_shadow.c ****                 }
 2948              		.loc 1 434 23 is_stmt 0 view .LVU1105
 2949 08ec 0128     		cmp	r0, #1
 2950 08ee E2D1     		bne	.L129
 434:Drivers/lvgl/src/draw/sw/lv_draw_sw_box_shadow.c ****                 }
 2951              		.loc 1 434 78 is_stmt 1 discriminator 1 view .LVU1106
 434:Drivers/lvgl/src/draw/sw/lv_draw_sw_box_shadow.c ****                 }
 2952              		.loc 1 434 97 is_stmt 0 discriminator 1 view .LVU1107
 2953 08f0 0223     		movs	r3, #2
 2954 08f2 8DF84C30 		strb	r3, [sp, #76]
 2955 08f6 DEE7     		b	.L129
 2956              	.L199:
 2957 08f8 4D46     		mov	r5, r9
 2958 08fa 5446     		mov	r4, r10
 2959              	.LVL309:
 434:Drivers/lvgl/src/draw/sw/lv_draw_sw_box_shadow.c ****                 }
 2960              		.loc 1 434 97 discriminator 1 view .LVU1108
 2961 08fc 0296     		str	r6, [sp, #8]
 2962 08fe 41E7     		b	.L126
 2963              	.LVL310:
 2964              	.L194:
 434:Drivers/lvgl/src/draw/sw/lv_draw_sw_box_shadow.c ****                 }
 2965              		.loc 1 434 97 discriminator 1 view .LVU1109
 2966              	.LBE56:
 452:Drivers/lvgl/src/draw/sw/lv_draw_sw_box_shadow.c ****         int32_t w = lv_area_get_width(&clip_area_sub);
 2967              		.loc 1 452 9 view .LVU1110
 2968 0900 039A     		ldr	r2, [sp, #12]
 2969 0902 2AA9     		add	r1, sp, #168
 2970 0904 17A8     		add	r0, sp, #92
 2971 0906 FFF7FEFF 		bl	lv_area_is_in
 2972              	.LVL311:
 451:Drivers/lvgl/src/draw/sw/lv_draw_sw_box_shadow.c ****        !lv_area_is_in(&clip_area_sub, &bg_area, r_bg)) {
ARM GAS  /var/folders/qx/2_175_4n2s19vhvtspjhb3qh0000gn/T//ccioUrKE.s 			page 87


 2973              		.loc 1 451 70 discriminator 1 view .LVU1111
 2974 090a 0028     		cmp	r0, #0
 2975 090c 7FF454AF 		bne	.L131
 2976              	.LBB57:
 453:Drivers/lvgl/src/draw/sw/lv_draw_sw_box_shadow.c ****         sh_buf_tmp = sh_buf;
 2977              		.loc 1 453 9 is_stmt 1 view .LVU1112
 453:Drivers/lvgl/src/draw/sw/lv_draw_sw_box_shadow.c ****         sh_buf_tmp = sh_buf;
 2978              		.loc 1 453 21 is_stmt 0 view .LVU1113
 2979 0910 17A8     		add	r0, sp, #92
 2980 0912 FFF7FEFF 		bl	lv_area_get_width
 2981              	.LVL312:
 2982 0916 0790     		str	r0, [sp, #28]
 2983              	.LVL313:
 454:Drivers/lvgl/src/draw/sw/lv_draw_sw_box_shadow.c ****         sh_buf_tmp += (clip_area_sub.y1 - blend_area.y1) * corner_size;
 2984              		.loc 1 454 9 is_stmt 1 view .LVU1114
 455:Drivers/lvgl/src/draw/sw/lv_draw_sw_box_shadow.c ****         sh_buf_tmp += clip_area_sub.x1 - blend_area.x1;
 2985              		.loc 1 455 9 view .LVU1115
 455:Drivers/lvgl/src/draw/sw/lv_draw_sw_box_shadow.c ****         sh_buf_tmp += clip_area_sub.x1 - blend_area.x1;
 2986              		.loc 1 455 41 is_stmt 0 view .LVU1116
 2987 0918 189B     		ldr	r3, [sp, #96]
 2988 091a 1C9A     		ldr	r2, [sp, #112]
 2989 091c 9A1A     		subs	r2, r3, r2
 2990              	.LVL314:
 456:Drivers/lvgl/src/draw/sw/lv_draw_sw_box_shadow.c **** 
 2991              		.loc 1 456 9 is_stmt 1 view .LVU1117
 456:Drivers/lvgl/src/draw/sw/lv_draw_sw_box_shadow.c **** 
 2992              		.loc 1 456 40 is_stmt 0 view .LVU1118
 2993 091e 179B     		ldr	r3, [sp, #92]
 2994 0920 1B99     		ldr	r1, [sp, #108]
 2995 0922 A3EB010A 		sub	r10, r3, r1
 456:Drivers/lvgl/src/draw/sw/lv_draw_sw_box_shadow.c **** 
 2996              		.loc 1 456 20 view .LVU1119
 2997 0926 04FB02AA 		mla	r10, r4, r2, r10
 2998 092a 059B     		ldr	r3, [sp, #20]
 2999 092c 9A44     		add	r10, r10, r3
 3000              	.LVL315:
 459:Drivers/lvgl/src/draw/sw/lv_draw_sw_box_shadow.c ****         else simple_sub = simple;
 3001              		.loc 1 459 9 is_stmt 1 view .LVU1120
 459:Drivers/lvgl/src/draw/sw/lv_draw_sw_box_shadow.c ****         else simple_sub = simple;
 3002              		.loc 1 459 11 is_stmt 0 view .LVU1121
 3003 092e 069B     		ldr	r3, [sp, #24]
 3004 0930 D3B9     		cbnz	r3, .L200
 460:Drivers/lvgl/src/draw/sw/lv_draw_sw_box_shadow.c ****         blend_dsc.mask_buf = mask_buf;
 3005              		.loc 1 460 25 view .LVU1122
 3006 0932 069B     		ldr	r3, [sp, #24]
 3007 0934 1A46     		mov	r2, r3
 3008              	.LVL316:
 3009              	.L132:
 461:Drivers/lvgl/src/draw/sw/lv_draw_sw_box_shadow.c **** 
 3010              		.loc 1 461 9 is_stmt 1 view .LVU1123
 461:Drivers/lvgl/src/draw/sw/lv_draw_sw_box_shadow.c **** 
 3011              		.loc 1 461 28 is_stmt 0 view .LVU1124
 3012 0936 049B     		ldr	r3, [sp, #16]
 3013 0938 1293     		str	r3, [sp, #72]
 463:Drivers/lvgl/src/draw/sw/lv_draw_sw_box_shadow.c ****             blend_area.x1 = clip_area_sub.x1;
 3014              		.loc 1 463 9 is_stmt 1 view .LVU1125
 463:Drivers/lvgl/src/draw/sw/lv_draw_sw_box_shadow.c ****             blend_area.x1 = clip_area_sub.x1;
ARM GAS  /var/folders/qx/2_175_4n2s19vhvtspjhb3qh0000gn/T//ccioUrKE.s 			page 88


 3015              		.loc 1 463 11 is_stmt 0 view .LVU1126
 3016 093a 079B     		ldr	r3, [sp, #28]
 3017 093c 002B     		cmp	r3, #0
 3018 093e 7FF73BAF 		ble	.L131
 464:Drivers/lvgl/src/draw/sw/lv_draw_sw_box_shadow.c ****             blend_area.x2 = clip_area_sub.x2;
 3019              		.loc 1 464 13 is_stmt 1 view .LVU1127
 464:Drivers/lvgl/src/draw/sw/lv_draw_sw_box_shadow.c ****             blend_area.x2 = clip_area_sub.x2;
 3020              		.loc 1 464 42 is_stmt 0 view .LVU1128
 3021 0942 179B     		ldr	r3, [sp, #92]
 464:Drivers/lvgl/src/draw/sw/lv_draw_sw_box_shadow.c ****             blend_area.x2 = clip_area_sub.x2;
 3022              		.loc 1 464 27 view .LVU1129
 3023 0944 1B93     		str	r3, [sp, #108]
 465:Drivers/lvgl/src/draw/sw/lv_draw_sw_box_shadow.c ****             blend_dsc.mask_res = LV_DRAW_SW_MASK_RES_CHANGED;    /*In simple mode it won't be overw
 3024              		.loc 1 465 13 is_stmt 1 view .LVU1130
 465:Drivers/lvgl/src/draw/sw/lv_draw_sw_box_shadow.c ****             blend_dsc.mask_res = LV_DRAW_SW_MASK_RES_CHANGED;    /*In simple mode it won't be overw
 3025              		.loc 1 465 42 is_stmt 0 view .LVU1131
 3026 0946 199B     		ldr	r3, [sp, #100]
 465:Drivers/lvgl/src/draw/sw/lv_draw_sw_box_shadow.c ****             blend_dsc.mask_res = LV_DRAW_SW_MASK_RES_CHANGED;    /*In simple mode it won't be overw
 3027              		.loc 1 465 27 view .LVU1132
 3028 0948 1D93     		str	r3, [sp, #116]
 466:Drivers/lvgl/src/draw/sw/lv_draw_sw_box_shadow.c ****             for(y = clip_area_sub.y1; y <= clip_area_sub.y2; y++) {
 3029              		.loc 1 466 13 is_stmt 1 view .LVU1133
 466:Drivers/lvgl/src/draw/sw/lv_draw_sw_box_shadow.c ****             for(y = clip_area_sub.y1; y <= clip_area_sub.y2; y++) {
 3030              		.loc 1 466 32 is_stmt 0 view .LVU1134
 3031 094a 0223     		movs	r3, #2
 3032 094c 8DF84C30 		strb	r3, [sp, #76]
 467:Drivers/lvgl/src/draw/sw/lv_draw_sw_box_shadow.c ****                 blend_area.y1 = y;
 3033              		.loc 1 467 13 is_stmt 1 view .LVU1135
 467:Drivers/lvgl/src/draw/sw/lv_draw_sw_box_shadow.c ****                 blend_area.y1 = y;
 3034              		.loc 1 467 19 is_stmt 0 view .LVU1136
 3035 0950 DDF86090 		ldr	r9, [sp, #96]
 3036              	.LVL317:
 467:Drivers/lvgl/src/draw/sw/lv_draw_sw_box_shadow.c ****                 blend_area.y1 = y;
 3037              		.loc 1 467 19 view .LVU1137
 3038 0954 0897     		str	r7, [sp, #32]
 3039 0956 1746     		mov	r7, r2
 3040 0958 5246     		mov	r2, r10
 3041              	.LVL318:
 467:Drivers/lvgl/src/draw/sw/lv_draw_sw_box_shadow.c ****                 blend_area.y1 = y;
 3042              		.loc 1 467 19 view .LVU1138
 3043 095a AA46     		mov	r10, r5
 3044              	.LVL319:
 467:Drivers/lvgl/src/draw/sw/lv_draw_sw_box_shadow.c ****                 blend_area.y1 = y;
 3045              		.loc 1 467 19 view .LVU1139
 3046 095c 2346     		mov	r3, r4
 3047 095e 4C46     		mov	r4, r9
 3048              	.LVL320:
 467:Drivers/lvgl/src/draw/sw/lv_draw_sw_box_shadow.c ****                 blend_area.y1 = y;
 3049              		.loc 1 467 19 view .LVU1140
 3050 0960 029E     		ldr	r6, [sp, #8]
 3051 0962 9946     		mov	r9, r3
 3052              	.LVL321:
 467:Drivers/lvgl/src/draw/sw/lv_draw_sw_box_shadow.c ****                 blend_area.y1 = y;
 3053              		.loc 1 467 19 view .LVU1141
 3054 0964 1546     		mov	r5, r2
 467:Drivers/lvgl/src/draw/sw/lv_draw_sw_box_shadow.c ****                 blend_area.y1 = y;
 3055              		.loc 1 467 13 view .LVU1142
ARM GAS  /var/folders/qx/2_175_4n2s19vhvtspjhb3qh0000gn/T//ccioUrKE.s 			page 89


 3056 0966 21E0     		b	.L133
 3057              	.LVL322:
 3058              	.L200:
 459:Drivers/lvgl/src/draw/sw/lv_draw_sw_box_shadow.c ****         else simple_sub = simple;
 3059              		.loc 1 459 22 discriminator 1 view .LVU1143
 3060 0968 039A     		ldr	r2, [sp, #12]
 3061 096a 2AA9     		add	r1, sp, #168
 3062 096c 17A8     		add	r0, sp, #92
 3063              	.LVL323:
 459:Drivers/lvgl/src/draw/sw/lv_draw_sw_box_shadow.c ****         else simple_sub = simple;
 3064              		.loc 1 459 22 discriminator 1 view .LVU1144
 3065 096e FFF7FEFF 		bl	lv_area_is_out
 3066              	.LVL324:
 459:Drivers/lvgl/src/draw/sw/lv_draw_sw_box_shadow.c ****         else simple_sub = simple;
 3067              		.loc 1 459 19 discriminator 1 view .LVU1145
 3068 0972 0246     		mov	r2, r0
 3069 0974 0028     		cmp	r0, #0
 3070 0976 DED1     		bne	.L132
 460:Drivers/lvgl/src/draw/sw/lv_draw_sw_box_shadow.c ****         blend_dsc.mask_buf = mask_buf;
 3071              		.loc 1 460 25 view .LVU1146
 3072 0978 069B     		ldr	r3, [sp, #24]
 3073 097a 1A46     		mov	r2, r3
 3074 097c DBE7     		b	.L132
 3075              	.LVL325:
 3076              	.L203:
 472:Drivers/lvgl/src/draw/sw/lv_draw_sw_box_shadow.c ****                     blend_dsc.mask_res = lv_draw_sw_mask_apply(masks, mask_buf, clip_area_sub.x1, y
 3077              		.loc 1 472 21 is_stmt 1 view .LVU1147
 3078 097e 4A46     		mov	r2, r9
 3079 0980 2946     		mov	r1, r5
 3080 0982 0498     		ldr	r0, [sp, #16]
 3081 0984 FFF7FEFF 		bl	lv_memcpy
 3082              	.LVL326:
 473:Drivers/lvgl/src/draw/sw/lv_draw_sw_box_shadow.c ****                     if(blend_dsc.mask_res == LV_DRAW_SW_MASK_RES_FULL_COVER) blend_dsc.mask_res = L
 3083              		.loc 1 473 21 view .LVU1148
 473:Drivers/lvgl/src/draw/sw/lv_draw_sw_box_shadow.c ****                     if(blend_dsc.mask_res == LV_DRAW_SW_MASK_RES_FULL_COVER) blend_dsc.mask_res = L
 3084              		.loc 1 473 42 is_stmt 0 view .LVU1149
 3085 0988 079B     		ldr	r3, [sp, #28]
 3086 098a 0093     		str	r3, [sp]
 3087 098c 2346     		mov	r3, r4
 3088 098e 179A     		ldr	r2, [sp, #92]
 3089 0990 0499     		ldr	r1, [sp, #16]
 3090 0992 1FA8     		add	r0, sp, #124
 3091 0994 FFF7FEFF 		bl	lv_draw_sw_mask_apply
 3092              	.LVL327:
 473:Drivers/lvgl/src/draw/sw/lv_draw_sw_box_shadow.c ****                     if(blend_dsc.mask_res == LV_DRAW_SW_MASK_RES_FULL_COVER) blend_dsc.mask_res = L
 3093              		.loc 1 473 40 discriminator 1 view .LVU1150
 3094 0998 8DF84C00 		strb	r0, [sp, #76]
 474:Drivers/lvgl/src/draw/sw/lv_draw_sw_box_shadow.c ****                 }
 3095              		.loc 1 474 21 is_stmt 1 view .LVU1151
 474:Drivers/lvgl/src/draw/sw/lv_draw_sw_box_shadow.c ****                 }
 3096              		.loc 1 474 23 is_stmt 0 view .LVU1152
 3097 099c 0128     		cmp	r0, #1
 3098 099e 0ED0     		beq	.L201
 3099              	.L135:
 480:Drivers/lvgl/src/draw/sw/lv_draw_sw_box_shadow.c ****                 sh_buf_tmp += corner_size;
 3100              		.loc 1 480 17 is_stmt 1 view .LVU1153
 3101 09a0 0CA9     		add	r1, sp, #48
ARM GAS  /var/folders/qx/2_175_4n2s19vhvtspjhb3qh0000gn/T//ccioUrKE.s 			page 90


 3102 09a2 3046     		mov	r0, r6
 3103 09a4 FFF7FEFF 		bl	lv_draw_sw_blend
 3104              	.LVL328:
 481:Drivers/lvgl/src/draw/sw/lv_draw_sw_box_shadow.c ****             }
 3105              		.loc 1 481 17 view .LVU1154
 481:Drivers/lvgl/src/draw/sw/lv_draw_sw_box_shadow.c ****             }
 3106              		.loc 1 481 28 is_stmt 0 view .LVU1155
 3107 09a8 4D44     		add	r5, r5, r9
 3108              	.LVL329:
 467:Drivers/lvgl/src/draw/sw/lv_draw_sw_box_shadow.c ****                 blend_area.y1 = y;
 3109              		.loc 1 467 63 is_stmt 1 discriminator 2 view .LVU1156
 3110 09aa 0134     		adds	r4, r4, #1
 3111              	.LVL330:
 3112              	.L133:
 467:Drivers/lvgl/src/draw/sw/lv_draw_sw_box_shadow.c ****                 blend_area.y1 = y;
 3113              		.loc 1 467 41 discriminator 1 view .LVU1157
 467:Drivers/lvgl/src/draw/sw/lv_draw_sw_box_shadow.c ****                 blend_area.y1 = y;
 3114              		.loc 1 467 57 is_stmt 0 discriminator 1 view .LVU1158
 3115 09ac 1A9B     		ldr	r3, [sp, #104]
 467:Drivers/lvgl/src/draw/sw/lv_draw_sw_box_shadow.c ****                 blend_area.y1 = y;
 3116              		.loc 1 467 41 discriminator 1 view .LVU1159
 3117 09ae A342     		cmp	r3, r4
 3118 09b0 09DB     		blt	.L202
 468:Drivers/lvgl/src/draw/sw/lv_draw_sw_box_shadow.c ****                 blend_area.y2 = y;
 3119              		.loc 1 468 17 is_stmt 1 view .LVU1160
 468:Drivers/lvgl/src/draw/sw/lv_draw_sw_box_shadow.c ****                 blend_area.y2 = y;
 3120              		.loc 1 468 31 is_stmt 0 view .LVU1161
 3121 09b2 1C94     		str	r4, [sp, #112]
 469:Drivers/lvgl/src/draw/sw/lv_draw_sw_box_shadow.c **** 
 3122              		.loc 1 469 17 is_stmt 1 view .LVU1162
 469:Drivers/lvgl/src/draw/sw/lv_draw_sw_box_shadow.c **** 
 3123              		.loc 1 469 31 is_stmt 0 view .LVU1163
 3124 09b4 1E94     		str	r4, [sp, #120]
 471:Drivers/lvgl/src/draw/sw/lv_draw_sw_box_shadow.c ****                     lv_memcpy(mask_buf, sh_buf_tmp, corner_size);
 3125              		.loc 1 471 17 is_stmt 1 view .LVU1164
 471:Drivers/lvgl/src/draw/sw/lv_draw_sw_box_shadow.c ****                     lv_memcpy(mask_buf, sh_buf_tmp, corner_size);
 3126              		.loc 1 471 19 is_stmt 0 view .LVU1165
 3127 09b6 002F     		cmp	r7, #0
 3128 09b8 E1D0     		beq	.L203
 477:Drivers/lvgl/src/draw/sw/lv_draw_sw_box_shadow.c ****                 }
 3129              		.loc 1 477 21 is_stmt 1 view .LVU1166
 477:Drivers/lvgl/src/draw/sw/lv_draw_sw_box_shadow.c ****                 }
 3130              		.loc 1 477 40 is_stmt 0 view .LVU1167
 3131 09ba 1295     		str	r5, [sp, #72]
 3132 09bc F0E7     		b	.L135
 3133              	.L201:
 474:Drivers/lvgl/src/draw/sw/lv_draw_sw_box_shadow.c ****                 }
 3134              		.loc 1 474 78 is_stmt 1 discriminator 1 view .LVU1168
 474:Drivers/lvgl/src/draw/sw/lv_draw_sw_box_shadow.c ****                 }
 3135              		.loc 1 474 97 is_stmt 0 discriminator 1 view .LVU1169
 3136 09be 0223     		movs	r3, #2
 3137 09c0 8DF84C30 		strb	r3, [sp, #76]
 3138 09c4 ECE7     		b	.L135
 3139              	.L202:
 474:Drivers/lvgl/src/draw/sw/lv_draw_sw_box_shadow.c ****                 }
 3140              		.loc 1 474 97 discriminator 1 view .LVU1170
 3141 09c6 089F     		ldr	r7, [sp, #32]
ARM GAS  /var/folders/qx/2_175_4n2s19vhvtspjhb3qh0000gn/T//ccioUrKE.s 			page 91


 3142              	.LVL331:
 474:Drivers/lvgl/src/draw/sw/lv_draw_sw_box_shadow.c ****                 }
 3143              		.loc 1 474 97 discriminator 1 view .LVU1171
 3144 09c8 5546     		mov	r5, r10
 3145              	.LVL332:
 474:Drivers/lvgl/src/draw/sw/lv_draw_sw_box_shadow.c ****                 }
 3146              		.loc 1 474 97 discriminator 1 view .LVU1172
 3147 09ca 4C46     		mov	r4, r9
 3148              	.LVL333:
 474:Drivers/lvgl/src/draw/sw/lv_draw_sw_box_shadow.c ****                 }
 3149              		.loc 1 474 97 discriminator 1 view .LVU1173
 3150 09cc 0296     		str	r6, [sp, #8]
 3151 09ce F3E6     		b	.L131
 3152              	.LVL334:
 3153              	.L195:
 474:Drivers/lvgl/src/draw/sw/lv_draw_sw_box_shadow.c ****                 }
 3154              		.loc 1 474 97 discriminator 1 view .LVU1174
 3155              	.LBE57:
 497:Drivers/lvgl/src/draw/sw/lv_draw_sw_box_shadow.c ****         int32_t w = lv_area_get_width(&clip_area_sub);
 3156              		.loc 1 497 9 view .LVU1175
 3157 09d0 039A     		ldr	r2, [sp, #12]
 3158 09d2 2AA9     		add	r1, sp, #168
 3159 09d4 17A8     		add	r0, sp, #92
 3160 09d6 FFF7FEFF 		bl	lv_area_is_in
 3161              	.LVL335:
 496:Drivers/lvgl/src/draw/sw/lv_draw_sw_box_shadow.c ****        !lv_area_is_in(&clip_area_sub, &bg_area, r_bg)) {
 3162              		.loc 1 496 70 discriminator 1 view .LVU1176
 3163 09da 0028     		cmp	r0, #0
 3164 09dc 7FF406AF 		bne	.L137
 3165              	.LBB58:
 498:Drivers/lvgl/src/draw/sw/lv_draw_sw_box_shadow.c ****         sh_buf_tmp = sh_buf;
 3166              		.loc 1 498 9 is_stmt 1 view .LVU1177
 498:Drivers/lvgl/src/draw/sw/lv_draw_sw_box_shadow.c ****         sh_buf_tmp = sh_buf;
 3167              		.loc 1 498 21 is_stmt 0 view .LVU1178
 3168 09e0 17A8     		add	r0, sp, #92
 3169 09e2 FFF7FEFF 		bl	lv_area_get_width
 3170              	.LVL336:
 3171 09e6 0790     		str	r0, [sp, #28]
 3172              	.LVL337:
 499:Drivers/lvgl/src/draw/sw/lv_draw_sw_box_shadow.c ****         sh_buf_tmp += (blend_area.y2 - clip_area_sub.y2) * corner_size;
 3173              		.loc 1 499 9 is_stmt 1 view .LVU1179
 500:Drivers/lvgl/src/draw/sw/lv_draw_sw_box_shadow.c ****         sh_buf_tmp += clip_area_sub.x1 - blend_area.x1;
 3174              		.loc 1 500 9 view .LVU1180
 500:Drivers/lvgl/src/draw/sw/lv_draw_sw_box_shadow.c ****         sh_buf_tmp += clip_area_sub.x1 - blend_area.x1;
 3175              		.loc 1 500 38 is_stmt 0 view .LVU1181
 3176 09e8 1E9B     		ldr	r3, [sp, #120]
 3177 09ea 1A9A     		ldr	r2, [sp, #104]
 3178 09ec 9A1A     		subs	r2, r3, r2
 3179              	.LVL338:
 501:Drivers/lvgl/src/draw/sw/lv_draw_sw_box_shadow.c **** 
 3180              		.loc 1 501 9 is_stmt 1 view .LVU1182
 501:Drivers/lvgl/src/draw/sw/lv_draw_sw_box_shadow.c **** 
 3181              		.loc 1 501 40 is_stmt 0 view .LVU1183
 3182 09ee 179B     		ldr	r3, [sp, #92]
 3183 09f0 1B99     		ldr	r1, [sp, #108]
 3184 09f2 A3EB0109 		sub	r9, r3, r1
 501:Drivers/lvgl/src/draw/sw/lv_draw_sw_box_shadow.c **** 
ARM GAS  /var/folders/qx/2_175_4n2s19vhvtspjhb3qh0000gn/T//ccioUrKE.s 			page 92


 3185              		.loc 1 501 20 view .LVU1184
 3186 09f6 04FB0299 		mla	r9, r4, r2, r9
 3187 09fa 059B     		ldr	r3, [sp, #20]
 3188 09fc 9944     		add	r9, r9, r3
 3189              	.LVL339:
 504:Drivers/lvgl/src/draw/sw/lv_draw_sw_box_shadow.c ****         else simple_sub = simple;
 3190              		.loc 1 504 9 is_stmt 1 view .LVU1185
 504:Drivers/lvgl/src/draw/sw/lv_draw_sw_box_shadow.c ****         else simple_sub = simple;
 3191              		.loc 1 504 11 is_stmt 0 view .LVU1186
 3192 09fe 069B     		ldr	r3, [sp, #24]
 3193 0a00 B3B9     		cbnz	r3, .L204
 505:Drivers/lvgl/src/draw/sw/lv_draw_sw_box_shadow.c ****         blend_dsc.mask_buf = mask_buf;
 3194              		.loc 1 505 25 view .LVU1187
 3195 0a02 DDF818A0 		ldr	r10, [sp, #24]
 3196              	.LVL340:
 3197              	.L138:
 506:Drivers/lvgl/src/draw/sw/lv_draw_sw_box_shadow.c ****         if(w > 0) {
 3198              		.loc 1 506 9 is_stmt 1 view .LVU1188
 506:Drivers/lvgl/src/draw/sw/lv_draw_sw_box_shadow.c ****         if(w > 0) {
 3199              		.loc 1 506 28 is_stmt 0 view .LVU1189
 3200 0a06 049B     		ldr	r3, [sp, #16]
 3201 0a08 1293     		str	r3, [sp, #72]
 507:Drivers/lvgl/src/draw/sw/lv_draw_sw_box_shadow.c ****             blend_area.x1 = clip_area_sub.x1;
 3202              		.loc 1 507 9 is_stmt 1 view .LVU1190
 507:Drivers/lvgl/src/draw/sw/lv_draw_sw_box_shadow.c ****             blend_area.x1 = clip_area_sub.x1;
 3203              		.loc 1 507 11 is_stmt 0 view .LVU1191
 3204 0a0a 079B     		ldr	r3, [sp, #28]
 3205 0a0c 002B     		cmp	r3, #0
 3206 0a0e 7FF7EDAE 		ble	.L137
 508:Drivers/lvgl/src/draw/sw/lv_draw_sw_box_shadow.c ****             blend_area.x2 = clip_area_sub.x2;
 3207              		.loc 1 508 13 is_stmt 1 view .LVU1192
 508:Drivers/lvgl/src/draw/sw/lv_draw_sw_box_shadow.c ****             blend_area.x2 = clip_area_sub.x2;
 3208              		.loc 1 508 42 is_stmt 0 view .LVU1193
 3209 0a12 179B     		ldr	r3, [sp, #92]
 508:Drivers/lvgl/src/draw/sw/lv_draw_sw_box_shadow.c ****             blend_area.x2 = clip_area_sub.x2;
 3210              		.loc 1 508 27 view .LVU1194
 3211 0a14 1B93     		str	r3, [sp, #108]
 509:Drivers/lvgl/src/draw/sw/lv_draw_sw_box_shadow.c ****             blend_dsc.mask_res = LV_DRAW_SW_MASK_RES_CHANGED;    /*In simple mode it won't be overw
 3212              		.loc 1 509 13 is_stmt 1 view .LVU1195
 509:Drivers/lvgl/src/draw/sw/lv_draw_sw_box_shadow.c ****             blend_dsc.mask_res = LV_DRAW_SW_MASK_RES_CHANGED;    /*In simple mode it won't be overw
 3213              		.loc 1 509 42 is_stmt 0 view .LVU1196
 3214 0a16 199B     		ldr	r3, [sp, #100]
 509:Drivers/lvgl/src/draw/sw/lv_draw_sw_box_shadow.c ****             blend_dsc.mask_res = LV_DRAW_SW_MASK_RES_CHANGED;    /*In simple mode it won't be overw
 3215              		.loc 1 509 27 view .LVU1197
 3216 0a18 1D93     		str	r3, [sp, #116]
 510:Drivers/lvgl/src/draw/sw/lv_draw_sw_box_shadow.c ****             for(y = clip_area_sub.y2; y >= clip_area_sub.y1; y--) {
 3217              		.loc 1 510 13 is_stmt 1 view .LVU1198
 510:Drivers/lvgl/src/draw/sw/lv_draw_sw_box_shadow.c ****             for(y = clip_area_sub.y2; y >= clip_area_sub.y1; y--) {
 3218              		.loc 1 510 32 is_stmt 0 view .LVU1199
 3219 0a1a 0223     		movs	r3, #2
 3220 0a1c 8DF84C30 		strb	r3, [sp, #76]
 511:Drivers/lvgl/src/draw/sw/lv_draw_sw_box_shadow.c ****                 blend_area.y1 = y;
 3221              		.loc 1 511 13 is_stmt 1 view .LVU1200
 511:Drivers/lvgl/src/draw/sw/lv_draw_sw_box_shadow.c ****                 blend_area.y1 = y;
 3222              		.loc 1 511 19 is_stmt 0 view .LVU1201
 3223 0a20 1A9D     		ldr	r5, [sp, #104]
 3224              	.LVL341:
ARM GAS  /var/folders/qx/2_175_4n2s19vhvtspjhb3qh0000gn/T//ccioUrKE.s 			page 93


 511:Drivers/lvgl/src/draw/sw/lv_draw_sw_box_shadow.c ****                 blend_area.y1 = y;
 3225              		.loc 1 511 19 view .LVU1202
 3226 0a22 2246     		mov	r2, r4
 3227 0a24 4C46     		mov	r4, r9
 3228              	.LVL342:
 511:Drivers/lvgl/src/draw/sw/lv_draw_sw_box_shadow.c ****                 blend_area.y1 = y;
 3229              		.loc 1 511 19 view .LVU1203
 3230 0a26 029B     		ldr	r3, [sp, #8]
 3231 0a28 5646     		mov	r6, r10
 3232 0a2a 9A46     		mov	r10, r3
 3233              	.LVL343:
 511:Drivers/lvgl/src/draw/sw/lv_draw_sw_box_shadow.c ****                 blend_area.y1 = y;
 3234              		.loc 1 511 19 view .LVU1204
 3235 0a2c 9146     		mov	r9, r2
 3236              	.LVL344:
 511:Drivers/lvgl/src/draw/sw/lv_draw_sw_box_shadow.c ****                 blend_area.y1 = y;
 3237              		.loc 1 511 13 view .LVU1205
 3238 0a2e 21E0     		b	.L139
 3239              	.LVL345:
 3240              	.L204:
 504:Drivers/lvgl/src/draw/sw/lv_draw_sw_box_shadow.c ****         else simple_sub = simple;
 3241              		.loc 1 504 22 discriminator 1 view .LVU1206
 3242 0a30 039A     		ldr	r2, [sp, #12]
 3243 0a32 2AA9     		add	r1, sp, #168
 3244 0a34 17A8     		add	r0, sp, #92
 3245              	.LVL346:
 504:Drivers/lvgl/src/draw/sw/lv_draw_sw_box_shadow.c ****         else simple_sub = simple;
 3246              		.loc 1 504 22 discriminator 1 view .LVU1207
 3247 0a36 FFF7FEFF 		bl	lv_area_is_out
 3248              	.LVL347:
 504:Drivers/lvgl/src/draw/sw/lv_draw_sw_box_shadow.c ****         else simple_sub = simple;
 3249              		.loc 1 504 19 discriminator 1 view .LVU1208
 3250 0a3a 8246     		mov	r10, r0
 3251 0a3c 0028     		cmp	r0, #0
 3252 0a3e E2D1     		bne	.L138
 505:Drivers/lvgl/src/draw/sw/lv_draw_sw_box_shadow.c ****         blend_dsc.mask_buf = mask_buf;
 3253              		.loc 1 505 25 view .LVU1209
 3254 0a40 DDF818A0 		ldr	r10, [sp, #24]
 3255 0a44 DFE7     		b	.L138
 3256              	.LVL348:
 3257              	.L207:
 516:Drivers/lvgl/src/draw/sw/lv_draw_sw_box_shadow.c ****                     blend_dsc.mask_res = lv_draw_sw_mask_apply(masks, mask_buf, clip_area_sub.x1, y
 3258              		.loc 1 516 21 is_stmt 1 view .LVU1210
 3259 0a46 4A46     		mov	r2, r9
 3260 0a48 2146     		mov	r1, r4
 3261 0a4a 0498     		ldr	r0, [sp, #16]
 3262 0a4c FFF7FEFF 		bl	lv_memcpy
 3263              	.LVL349:
 517:Drivers/lvgl/src/draw/sw/lv_draw_sw_box_shadow.c ****                     if(blend_dsc.mask_res == LV_DRAW_SW_MASK_RES_FULL_COVER) blend_dsc.mask_res = L
 3264              		.loc 1 517 21 view .LVU1211
 517:Drivers/lvgl/src/draw/sw/lv_draw_sw_box_shadow.c ****                     if(blend_dsc.mask_res == LV_DRAW_SW_MASK_RES_FULL_COVER) blend_dsc.mask_res = L
 3265              		.loc 1 517 42 is_stmt 0 view .LVU1212
 3266 0a50 079B     		ldr	r3, [sp, #28]
 3267 0a52 0093     		str	r3, [sp]
 3268 0a54 2B46     		mov	r3, r5
 3269 0a56 179A     		ldr	r2, [sp, #92]
 3270 0a58 0499     		ldr	r1, [sp, #16]
ARM GAS  /var/folders/qx/2_175_4n2s19vhvtspjhb3qh0000gn/T//ccioUrKE.s 			page 94


 3271 0a5a 1FA8     		add	r0, sp, #124
 3272 0a5c FFF7FEFF 		bl	lv_draw_sw_mask_apply
 3273              	.LVL350:
 517:Drivers/lvgl/src/draw/sw/lv_draw_sw_box_shadow.c ****                     if(blend_dsc.mask_res == LV_DRAW_SW_MASK_RES_FULL_COVER) blend_dsc.mask_res = L
 3274              		.loc 1 517 40 discriminator 1 view .LVU1213
 3275 0a60 8DF84C00 		strb	r0, [sp, #76]
 518:Drivers/lvgl/src/draw/sw/lv_draw_sw_box_shadow.c ****                 }
 3276              		.loc 1 518 21 is_stmt 1 view .LVU1214
 518:Drivers/lvgl/src/draw/sw/lv_draw_sw_box_shadow.c ****                 }
 3277              		.loc 1 518 23 is_stmt 0 view .LVU1215
 3278 0a64 0128     		cmp	r0, #1
 3279 0a66 0ED0     		beq	.L205
 3280              	.L141:
 523:Drivers/lvgl/src/draw/sw/lv_draw_sw_box_shadow.c ****                 sh_buf_tmp += corner_size;
 3281              		.loc 1 523 17 is_stmt 1 view .LVU1216
 3282 0a68 0CA9     		add	r1, sp, #48
 3283 0a6a 5046     		mov	r0, r10
 3284 0a6c FFF7FEFF 		bl	lv_draw_sw_blend
 3285              	.LVL351:
 524:Drivers/lvgl/src/draw/sw/lv_draw_sw_box_shadow.c ****             }
 3286              		.loc 1 524 17 view .LVU1217
 524:Drivers/lvgl/src/draw/sw/lv_draw_sw_box_shadow.c ****             }
 3287              		.loc 1 524 28 is_stmt 0 view .LVU1218
 3288 0a70 4C44     		add	r4, r4, r9
 3289              	.LVL352:
 511:Drivers/lvgl/src/draw/sw/lv_draw_sw_box_shadow.c ****                 blend_area.y1 = y;
 3290              		.loc 1 511 63 is_stmt 1 discriminator 2 view .LVU1219
 3291 0a72 013D     		subs	r5, r5, #1
 3292              	.LVL353:
 3293              	.L139:
 511:Drivers/lvgl/src/draw/sw/lv_draw_sw_box_shadow.c ****                 blend_area.y1 = y;
 3294              		.loc 1 511 41 discriminator 1 view .LVU1220
 511:Drivers/lvgl/src/draw/sw/lv_draw_sw_box_shadow.c ****                 blend_area.y1 = y;
 3295              		.loc 1 511 57 is_stmt 0 discriminator 1 view .LVU1221
 3296 0a74 189B     		ldr	r3, [sp, #96]
 511:Drivers/lvgl/src/draw/sw/lv_draw_sw_box_shadow.c ****                 blend_area.y1 = y;
 3297              		.loc 1 511 41 discriminator 1 view .LVU1222
 3298 0a76 AB42     		cmp	r3, r5
 3299 0a78 09DC     		bgt	.L206
 512:Drivers/lvgl/src/draw/sw/lv_draw_sw_box_shadow.c ****                 blend_area.y2 = y;
 3300              		.loc 1 512 17 is_stmt 1 view .LVU1223
 512:Drivers/lvgl/src/draw/sw/lv_draw_sw_box_shadow.c ****                 blend_area.y2 = y;
 3301              		.loc 1 512 31 is_stmt 0 view .LVU1224
 3302 0a7a 1C95     		str	r5, [sp, #112]
 513:Drivers/lvgl/src/draw/sw/lv_draw_sw_box_shadow.c **** 
 3303              		.loc 1 513 17 is_stmt 1 view .LVU1225
 513:Drivers/lvgl/src/draw/sw/lv_draw_sw_box_shadow.c **** 
 3304              		.loc 1 513 31 is_stmt 0 view .LVU1226
 3305 0a7c 1E95     		str	r5, [sp, #120]
 515:Drivers/lvgl/src/draw/sw/lv_draw_sw_box_shadow.c ****                     lv_memcpy(mask_buf, sh_buf_tmp, corner_size);
 3306              		.loc 1 515 17 is_stmt 1 view .LVU1227
 515:Drivers/lvgl/src/draw/sw/lv_draw_sw_box_shadow.c ****                     lv_memcpy(mask_buf, sh_buf_tmp, corner_size);
 3307              		.loc 1 515 19 is_stmt 0 view .LVU1228
 3308 0a7e 002E     		cmp	r6, #0
 3309 0a80 E1D0     		beq	.L207
 521:Drivers/lvgl/src/draw/sw/lv_draw_sw_box_shadow.c ****                 }
 3310              		.loc 1 521 21 is_stmt 1 view .LVU1229
ARM GAS  /var/folders/qx/2_175_4n2s19vhvtspjhb3qh0000gn/T//ccioUrKE.s 			page 95


 521:Drivers/lvgl/src/draw/sw/lv_draw_sw_box_shadow.c ****                 }
 3311              		.loc 1 521 40 is_stmt 0 view .LVU1230
 3312 0a82 1294     		str	r4, [sp, #72]
 3313 0a84 F0E7     		b	.L141
 3314              	.L205:
 518:Drivers/lvgl/src/draw/sw/lv_draw_sw_box_shadow.c ****                 }
 3315              		.loc 1 518 78 is_stmt 1 discriminator 1 view .LVU1231
 518:Drivers/lvgl/src/draw/sw/lv_draw_sw_box_shadow.c ****                 }
 3316              		.loc 1 518 97 is_stmt 0 discriminator 1 view .LVU1232
 3317 0a86 0223     		movs	r3, #2
 3318 0a88 8DF84C30 		strb	r3, [sp, #76]
 3319 0a8c ECE7     		b	.L141
 3320              	.L206:
 518:Drivers/lvgl/src/draw/sw/lv_draw_sw_box_shadow.c ****                 }
 3321              		.loc 1 518 97 discriminator 1 view .LVU1233
 3322 0a8e 4C46     		mov	r4, r9
 3323              	.LVL354:
 518:Drivers/lvgl/src/draw/sw/lv_draw_sw_box_shadow.c ****                 }
 3324              		.loc 1 518 97 discriminator 1 view .LVU1234
 3325 0a90 CDF808A0 		str	r10, [sp, #8]
 3326 0a94 AAE6     		b	.L137
 3327              	.LVL355:
 3328              	.L196:
 518:Drivers/lvgl/src/draw/sw/lv_draw_sw_box_shadow.c ****                 }
 3329              		.loc 1 518 97 discriminator 1 view .LVU1235
 3330              	.LBE58:
 539:Drivers/lvgl/src/draw/sw/lv_draw_sw_box_shadow.c ****         int32_t w = lv_area_get_width(&clip_area_sub);
 3331              		.loc 1 539 9 view .LVU1236
 3332 0a96 039A     		ldr	r2, [sp, #12]
 3333 0a98 2AA9     		add	r1, sp, #168
 3334 0a9a 17A8     		add	r0, sp, #92
 3335 0a9c FFF7FEFF 		bl	lv_area_is_in
 3336              	.LVL356:
 538:Drivers/lvgl/src/draw/sw/lv_draw_sw_box_shadow.c ****        !lv_area_is_in(&clip_area_sub, &bg_area, r_bg)) {
 3337              		.loc 1 538 70 discriminator 1 view .LVU1237
 3338 0aa0 0028     		cmp	r0, #0
 3339 0aa2 7FF4C3AE 		bne	.L144
 3340              	.LBB59:
 540:Drivers/lvgl/src/draw/sw/lv_draw_sw_box_shadow.c ****         if(w > 0) {
 3341              		.loc 1 540 9 is_stmt 1 view .LVU1238
 540:Drivers/lvgl/src/draw/sw/lv_draw_sw_box_shadow.c ****         if(w > 0) {
 3342              		.loc 1 540 21 is_stmt 0 view .LVU1239
 3343 0aa6 17A8     		add	r0, sp, #92
 3344 0aa8 FFF7FEFF 		bl	lv_area_get_width
 3345              	.LVL357:
 541:Drivers/lvgl/src/draw/sw/lv_draw_sw_box_shadow.c ****             blend_area.x1 = clip_area_sub.x1;
 3346              		.loc 1 541 9 is_stmt 1 view .LVU1240
 541:Drivers/lvgl/src/draw/sw/lv_draw_sw_box_shadow.c ****             blend_area.x1 = clip_area_sub.x1;
 3347              		.loc 1 541 11 is_stmt 0 view .LVU1241
 3348 0aac 051E     		subs	r5, r0, #0
 3349 0aae 7FF7BDAE 		ble	.L144
 542:Drivers/lvgl/src/draw/sw/lv_draw_sw_box_shadow.c ****             blend_area.x2 = clip_area_sub.x2;
 3350              		.loc 1 542 13 is_stmt 1 view .LVU1242
 542:Drivers/lvgl/src/draw/sw/lv_draw_sw_box_shadow.c ****             blend_area.x2 = clip_area_sub.x2;
 3351              		.loc 1 542 42 is_stmt 0 view .LVU1243
 3352 0ab2 179B     		ldr	r3, [sp, #92]
 542:Drivers/lvgl/src/draw/sw/lv_draw_sw_box_shadow.c ****             blend_area.x2 = clip_area_sub.x2;
ARM GAS  /var/folders/qx/2_175_4n2s19vhvtspjhb3qh0000gn/T//ccioUrKE.s 			page 96


 3353              		.loc 1 542 27 view .LVU1244
 3354 0ab4 1B93     		str	r3, [sp, #108]
 543:Drivers/lvgl/src/draw/sw/lv_draw_sw_box_shadow.c ****             for(y = clip_area_sub.y1; y <= clip_area_sub.y2; y++) {
 3355              		.loc 1 543 13 is_stmt 1 view .LVU1245
 543:Drivers/lvgl/src/draw/sw/lv_draw_sw_box_shadow.c ****             for(y = clip_area_sub.y1; y <= clip_area_sub.y2; y++) {
 3356              		.loc 1 543 42 is_stmt 0 view .LVU1246
 3357 0ab6 199B     		ldr	r3, [sp, #100]
 543:Drivers/lvgl/src/draw/sw/lv_draw_sw_box_shadow.c ****             for(y = clip_area_sub.y1; y <= clip_area_sub.y2; y++) {
 3358              		.loc 1 543 27 view .LVU1247
 3359 0ab8 1D93     		str	r3, [sp, #116]
 544:Drivers/lvgl/src/draw/sw/lv_draw_sw_box_shadow.c ****                 blend_area.y1 = y;
 3360              		.loc 1 544 13 is_stmt 1 view .LVU1248
 544:Drivers/lvgl/src/draw/sw/lv_draw_sw_box_shadow.c ****                 blend_area.y1 = y;
 3361              		.loc 1 544 19 is_stmt 0 view .LVU1249
 3362 0aba 189C     		ldr	r4, [sp, #96]
 3363              	.LVL358:
 544:Drivers/lvgl/src/draw/sw/lv_draw_sw_box_shadow.c ****                 blend_area.y1 = y;
 3364              		.loc 1 544 19 view .LVU1250
 3365 0abc 049F     		ldr	r7, [sp, #16]
 3366 0abe 029E     		ldr	r6, [sp, #8]
 544:Drivers/lvgl/src/draw/sw/lv_draw_sw_box_shadow.c ****                 blend_area.y1 = y;
 3367              		.loc 1 544 13 view .LVU1251
 3368 0ac0 14E0     		b	.L145
 3369              	.LVL359:
 3370              	.L146:
 545:Drivers/lvgl/src/draw/sw/lv_draw_sw_box_shadow.c ****                 blend_area.y2 = y;
 3371              		.loc 1 545 17 is_stmt 1 view .LVU1252
 545:Drivers/lvgl/src/draw/sw/lv_draw_sw_box_shadow.c ****                 blend_area.y2 = y;
 3372              		.loc 1 545 31 is_stmt 0 view .LVU1253
 3373 0ac2 1C94     		str	r4, [sp, #112]
 546:Drivers/lvgl/src/draw/sw/lv_draw_sw_box_shadow.c **** 
 3374              		.loc 1 546 17 is_stmt 1 view .LVU1254
 546:Drivers/lvgl/src/draw/sw/lv_draw_sw_box_shadow.c **** 
 3375              		.loc 1 546 31 is_stmt 0 view .LVU1255
 3376 0ac4 1E94     		str	r4, [sp, #120]
 548:Drivers/lvgl/src/draw/sw/lv_draw_sw_box_shadow.c ****                 blend_dsc.mask_res = lv_draw_sw_mask_apply(masks, mask_buf, clip_area_sub.x1, y, w)
 3377              		.loc 1 548 17 is_stmt 1 view .LVU1256
 3378 0ac6 2A46     		mov	r2, r5
 3379 0ac8 FF21     		movs	r1, #255
 3380 0aca 3846     		mov	r0, r7
 3381 0acc FFF7FEFF 		bl	lv_memset
 3382              	.LVL360:
 549:Drivers/lvgl/src/draw/sw/lv_draw_sw_box_shadow.c ****                 lv_draw_sw_blend(t, &blend_dsc);
 3383              		.loc 1 549 17 view .LVU1257
 549:Drivers/lvgl/src/draw/sw/lv_draw_sw_box_shadow.c ****                 lv_draw_sw_blend(t, &blend_dsc);
 3384              		.loc 1 549 38 is_stmt 0 view .LVU1258
 3385 0ad0 0095     		str	r5, [sp]
 3386 0ad2 2346     		mov	r3, r4
 3387 0ad4 179A     		ldr	r2, [sp, #92]
 3388 0ad6 3946     		mov	r1, r7
 3389 0ad8 1FA8     		add	r0, sp, #124
 3390 0ada FFF7FEFF 		bl	lv_draw_sw_mask_apply
 3391              	.LVL361:
 549:Drivers/lvgl/src/draw/sw/lv_draw_sw_box_shadow.c ****                 lv_draw_sw_blend(t, &blend_dsc);
 3392              		.loc 1 549 36 discriminator 1 view .LVU1259
 3393 0ade 8DF84C00 		strb	r0, [sp, #76]
 550:Drivers/lvgl/src/draw/sw/lv_draw_sw_box_shadow.c ****             }
ARM GAS  /var/folders/qx/2_175_4n2s19vhvtspjhb3qh0000gn/T//ccioUrKE.s 			page 97


 3394              		.loc 1 550 17 is_stmt 1 view .LVU1260
 3395 0ae2 0CA9     		add	r1, sp, #48
 3396 0ae4 3046     		mov	r0, r6
 3397 0ae6 FFF7FEFF 		bl	lv_draw_sw_blend
 3398              	.LVL362:
 544:Drivers/lvgl/src/draw/sw/lv_draw_sw_box_shadow.c ****                 blend_area.y1 = y;
 3399              		.loc 1 544 63 discriminator 3 view .LVU1261
 3400 0aea 0134     		adds	r4, r4, #1
 3401              	.LVL363:
 3402              	.L145:
 544:Drivers/lvgl/src/draw/sw/lv_draw_sw_box_shadow.c ****                 blend_area.y1 = y;
 3403              		.loc 1 544 41 discriminator 1 view .LVU1262
 544:Drivers/lvgl/src/draw/sw/lv_draw_sw_box_shadow.c ****                 blend_area.y1 = y;
 3404              		.loc 1 544 57 is_stmt 0 discriminator 1 view .LVU1263
 3405 0aec 1A9B     		ldr	r3, [sp, #104]
 544:Drivers/lvgl/src/draw/sw/lv_draw_sw_box_shadow.c ****                 blend_area.y1 = y;
 3406              		.loc 1 544 41 discriminator 1 view .LVU1264
 3407 0aee A342     		cmp	r3, r4
 3408 0af0 E7DA     		bge	.L146
 3409 0af2 9BE6     		b	.L144
 3410              	.LVL364:
 3411              	.L197:
 544:Drivers/lvgl/src/draw/sw/lv_draw_sw_box_shadow.c ****                 blend_area.y1 = y;
 3412              		.loc 1 544 41 discriminator 1 view .LVU1265
 3413              	.LBE59:
 556:Drivers/lvgl/src/draw/sw/lv_draw_sw_box_shadow.c ****     }
 3414              		.loc 1 556 9 is_stmt 1 view .LVU1266
 3415 0af4 21A8     		add	r0, sp, #132
 3416 0af6 FFF7FEFF 		bl	lv_draw_sw_mask_free_param
 3417              	.LVL365:
 3418 0afa 9BE6     		b	.L147
 3419              		.cfi_endproc
 3420              	.LFE193:
 3422              		.text
 3423              	.Letext0:
 3424              		.file 4 "/Applications/ArmGNUToolchain/14.3.rel1/arm-none-eabi/arm-none-eabi/include/machine/_defa
 3425              		.file 5 "/Applications/ArmGNUToolchain/14.3.rel1/arm-none-eabi/arm-none-eabi/include/sys/_stdint.h
 3426              		.file 6 "/Applications/ArmGNUToolchain/14.3.rel1/arm-none-eabi/lib/gcc/arm-none-eabi/14.3.1/includ
 3427              		.file 7 "Drivers/lvgl/src/draw/sw/../../misc/lv_types.h"
 3428              		.file 8 "Drivers/lvgl/src/draw/sw/../lv_draw.h"
 3429              		.file 9 "Drivers/lvgl/src/draw/sw/../lv_draw_private.h"
 3430              		.file 10 "Drivers/lvgl/src/draw/sw/lv_draw_sw_mask_private.h"
 3431              		.file 11 "Drivers/lvgl/src/draw/sw/blend/lv_draw_sw_blend_private.h"
 3432              		.file 12 "Drivers/lvgl/src/draw/sw/../../core/../draw/lv_draw_buf_private.h"
 3433              		.file 13 "Drivers/lvgl/src/draw/sw/../../misc/../font/../draw/lv_draw_buf.h"
 3434              		.file 14 "Drivers/lvgl/src/draw/sw/../../misc/lv_color.h"
 3435              		.file 15 "Drivers/lvgl/src/draw/sw/lv_draw_sw_mask.h"
 3436              		.file 16 "Drivers/lvgl/src/draw/sw/../../misc/../font/../draw/lv_image_dsc.h"
 3437              		.file 17 "Drivers/lvgl/src/draw/sw/../../misc/lv_style.h"
 3438              		.file 18 "Drivers/lvgl/src/draw/sw/../lv_draw_rect.h"
 3439              		.file 19 "Drivers/lvgl/src/draw/sw/../../misc/../stdlib/lv_mem.h"
 3440              		.file 20 "Drivers/lvgl/src/draw/sw/blend/lv_draw_sw_blend.h"
 3441              		.file 21 "Drivers/lvgl/src/draw/sw/../../misc/lv_area_private.h"
ARM GAS  /var/folders/qx/2_175_4n2s19vhvtspjhb3qh0000gn/T//ccioUrKE.s 			page 98


DEFINED SYMBOLS
                            *ABS*:00000000 lv_draw_sw_box_shadow.c
/var/folders/qx/2_175_4n2s19vhvtspjhb3qh0000gn/T//ccioUrKE.s:21     .text.shadow_blur_corner:00000000 $t
/var/folders/qx/2_175_4n2s19vhvtspjhb3qh0000gn/T//ccioUrKE.s:26     .text.shadow_blur_corner:00000000 shadow_blur_corner
/var/folders/qx/2_175_4n2s19vhvtspjhb3qh0000gn/T//ccioUrKE.s:417    .text.shadow_draw_corner_buf:00000000 $t
/var/folders/qx/2_175_4n2s19vhvtspjhb3qh0000gn/T//ccioUrKE.s:422    .text.shadow_draw_corner_buf:00000000 shadow_draw_corner_buf
/var/folders/qx/2_175_4n2s19vhvtspjhb3qh0000gn/T//ccioUrKE.s:836    .text.lv_draw_sw_box_shadow:00000000 $t
/var/folders/qx/2_175_4n2s19vhvtspjhb3qh0000gn/T//ccioUrKE.s:842    .text.lv_draw_sw_box_shadow:00000000 lv_draw_sw_box_shadow

UNDEFINED SYMBOLS
lv_malloc
lv_memcpy
lv_free
lv_area_get_width
lv_area_get_height
lv_draw_sw_mask_radius_init
lv_memset
lv_draw_sw_mask_free_param
lv_area_intersect
lv_area_increase
lv_area_is_in
lv_area_is_out
lv_draw_sw_mask_apply
lv_draw_sw_blend
