ARM GAS  /var/folders/qx/2_175_4n2s19vhvtspjhb3qh0000gn/T//ccYBRO69.s 			page 1


   1              		.cpu cortex-m4
   2              		.arch armv7e-m
   3              		.fpu fpv4-sp-d16
   4              		.eabi_attribute 27, 1
   5              		.eabi_attribute 28, 1
   6              		.eabi_attribute 20, 1
   7              		.eabi_attribute 21, 1
   8              		.eabi_attribute 23, 3
   9              		.eabi_attribute 24, 1
  10              		.eabi_attribute 25, 1
  11              		.eabi_attribute 26, 1
  12              		.eabi_attribute 30, 1
  13              		.eabi_attribute 34, 1
  14              		.eabi_attribute 18, 4
  15              		.file	"lv_draw_sw.c"
  16              		.text
  17              	.Ltext0:
  18              		.cfi_sections	.debug_frame
  19              		.file 1 "Drivers/lvgl/src/draw/sw/lv_draw_sw.c"
  20              		.section	.text.evaluate,"ax",%progbits
  21              		.align	1
  22              		.syntax unified
  23              		.thumb
  24              		.thumb_func
  26              	evaluate:
  27              	.LVL0:
  28              	.LFB199:
   1:Drivers/lvgl/src/draw/sw/lv_draw_sw.c **** /**
   2:Drivers/lvgl/src/draw/sw/lv_draw_sw.c ****  * @file lv_draw_sw.c
   3:Drivers/lvgl/src/draw/sw/lv_draw_sw.c ****  *
   4:Drivers/lvgl/src/draw/sw/lv_draw_sw.c ****  */
   5:Drivers/lvgl/src/draw/sw/lv_draw_sw.c **** 
   6:Drivers/lvgl/src/draw/sw/lv_draw_sw.c **** /*********************
   7:Drivers/lvgl/src/draw/sw/lv_draw_sw.c ****  *      INCLUDES
   8:Drivers/lvgl/src/draw/sw/lv_draw_sw.c ****  *********************/
   9:Drivers/lvgl/src/draw/sw/lv_draw_sw.c **** #include "lv_draw_sw_private.h"
  10:Drivers/lvgl/src/draw/sw/lv_draw_sw.c **** #include "../lv_draw_private.h"
  11:Drivers/lvgl/src/draw/sw/lv_draw_sw.c **** #if LV_USE_DRAW_SW
  12:Drivers/lvgl/src/draw/sw/lv_draw_sw.c **** 
  13:Drivers/lvgl/src/draw/sw/lv_draw_sw.c **** #include "../../core/lv_refr.h"
  14:Drivers/lvgl/src/draw/sw/lv_draw_sw.c **** #include "../../display/lv_display_private.h"
  15:Drivers/lvgl/src/draw/sw/lv_draw_sw.c **** #include "../../stdlib/lv_string.h"
  16:Drivers/lvgl/src/draw/sw/lv_draw_sw.c **** #include "../../core/lv_global.h"
  17:Drivers/lvgl/src/draw/sw/lv_draw_sw.c **** #include "../../misc/lv_area_private.h"
  18:Drivers/lvgl/src/draw/sw/lv_draw_sw.c **** 
  19:Drivers/lvgl/src/draw/sw/lv_draw_sw.c **** #if LV_USE_VECTOR_GRAPHIC && LV_USE_THORVG
  20:Drivers/lvgl/src/draw/sw/lv_draw_sw.c ****     #if LV_USE_THORVG_EXTERNAL
  21:Drivers/lvgl/src/draw/sw/lv_draw_sw.c ****         #include <thorvg_capi.h>
  22:Drivers/lvgl/src/draw/sw/lv_draw_sw.c ****     #else
  23:Drivers/lvgl/src/draw/sw/lv_draw_sw.c ****         #include "../../libs/thorvg/thorvg_capi.h"
  24:Drivers/lvgl/src/draw/sw/lv_draw_sw.c ****     #endif
  25:Drivers/lvgl/src/draw/sw/lv_draw_sw.c **** #endif
  26:Drivers/lvgl/src/draw/sw/lv_draw_sw.c **** 
  27:Drivers/lvgl/src/draw/sw/lv_draw_sw.c **** #if LV_USE_DRAW_SW_ASM == LV_DRAW_SW_ASM_HELIUM
  28:Drivers/lvgl/src/draw/sw/lv_draw_sw.c ****     #include "arm2d/lv_draw_sw_helium.h"
  29:Drivers/lvgl/src/draw/sw/lv_draw_sw.c **** #elif LV_USE_DRAW_SW_ASM == LV_DRAW_SW_ASM_CUSTOM
  30:Drivers/lvgl/src/draw/sw/lv_draw_sw.c ****     #include LV_DRAW_SW_ASM_CUSTOM_INCLUDE
ARM GAS  /var/folders/qx/2_175_4n2s19vhvtspjhb3qh0000gn/T//ccYBRO69.s 			page 2


  31:Drivers/lvgl/src/draw/sw/lv_draw_sw.c **** #endif
  32:Drivers/lvgl/src/draw/sw/lv_draw_sw.c **** 
  33:Drivers/lvgl/src/draw/sw/lv_draw_sw.c **** #if LV_DRAW_SW_DRAW_UNIT_CNT > 1 && LV_USE_OS == LV_OS_NONE
  34:Drivers/lvgl/src/draw/sw/lv_draw_sw.c ****     #error "OS support is required when more than one SW rendering units are enabled"
  35:Drivers/lvgl/src/draw/sw/lv_draw_sw.c **** #endif
  36:Drivers/lvgl/src/draw/sw/lv_draw_sw.c **** 
  37:Drivers/lvgl/src/draw/sw/lv_draw_sw.c **** /*********************
  38:Drivers/lvgl/src/draw/sw/lv_draw_sw.c ****  *      DEFINES
  39:Drivers/lvgl/src/draw/sw/lv_draw_sw.c ****  *********************/
  40:Drivers/lvgl/src/draw/sw/lv_draw_sw.c **** #define DRAW_UNIT_ID_SW     1
  41:Drivers/lvgl/src/draw/sw/lv_draw_sw.c **** 
  42:Drivers/lvgl/src/draw/sw/lv_draw_sw.c **** /**********************
  43:Drivers/lvgl/src/draw/sw/lv_draw_sw.c ****  *      TYPEDEFS
  44:Drivers/lvgl/src/draw/sw/lv_draw_sw.c ****  **********************/
  45:Drivers/lvgl/src/draw/sw/lv_draw_sw.c **** 
  46:Drivers/lvgl/src/draw/sw/lv_draw_sw.c **** /**********************
  47:Drivers/lvgl/src/draw/sw/lv_draw_sw.c ****  *  STATIC PROTOTYPES
  48:Drivers/lvgl/src/draw/sw/lv_draw_sw.c ****  **********************/
  49:Drivers/lvgl/src/draw/sw/lv_draw_sw.c **** #if LV_USE_OS
  50:Drivers/lvgl/src/draw/sw/lv_draw_sw.c ****     static void render_thread_cb(void * ptr);
  51:Drivers/lvgl/src/draw/sw/lv_draw_sw.c **** #endif
  52:Drivers/lvgl/src/draw/sw/lv_draw_sw.c **** 
  53:Drivers/lvgl/src/draw/sw/lv_draw_sw.c **** static void execute_drawing(lv_draw_task_t * t);
  54:Drivers/lvgl/src/draw/sw/lv_draw_sw.c **** 
  55:Drivers/lvgl/src/draw/sw/lv_draw_sw.c **** static int32_t dispatch(lv_draw_unit_t * draw_unit, lv_layer_t * layer);
  56:Drivers/lvgl/src/draw/sw/lv_draw_sw.c **** static int32_t evaluate(lv_draw_unit_t * draw_unit, lv_draw_task_t * task);
  57:Drivers/lvgl/src/draw/sw/lv_draw_sw.c **** static int32_t lv_draw_sw_delete(lv_draw_unit_t * draw_unit);
  58:Drivers/lvgl/src/draw/sw/lv_draw_sw.c **** #if LV_USE_PARALLEL_DRAW_DEBUG
  59:Drivers/lvgl/src/draw/sw/lv_draw_sw.c ****     static void parallel_debug_draw(lv_draw_task_t * t, uint32_t idx);
  60:Drivers/lvgl/src/draw/sw/lv_draw_sw.c **** #endif
  61:Drivers/lvgl/src/draw/sw/lv_draw_sw.c **** 
  62:Drivers/lvgl/src/draw/sw/lv_draw_sw.c **** /**********************
  63:Drivers/lvgl/src/draw/sw/lv_draw_sw.c ****  *  STATIC VARIABLES
  64:Drivers/lvgl/src/draw/sw/lv_draw_sw.c ****  **********************/
  65:Drivers/lvgl/src/draw/sw/lv_draw_sw.c **** #define _draw_info LV_GLOBAL_DEFAULT()->draw_info
  66:Drivers/lvgl/src/draw/sw/lv_draw_sw.c **** 
  67:Drivers/lvgl/src/draw/sw/lv_draw_sw.c **** /**********************
  68:Drivers/lvgl/src/draw/sw/lv_draw_sw.c ****  *      MACROS
  69:Drivers/lvgl/src/draw/sw/lv_draw_sw.c ****  **********************/
  70:Drivers/lvgl/src/draw/sw/lv_draw_sw.c **** 
  71:Drivers/lvgl/src/draw/sw/lv_draw_sw.c **** /**********************
  72:Drivers/lvgl/src/draw/sw/lv_draw_sw.c ****  *   GLOBAL FUNCTIONS
  73:Drivers/lvgl/src/draw/sw/lv_draw_sw.c ****  **********************/
  74:Drivers/lvgl/src/draw/sw/lv_draw_sw.c **** 
  75:Drivers/lvgl/src/draw/sw/lv_draw_sw.c **** void lv_draw_sw_init(void)
  76:Drivers/lvgl/src/draw/sw/lv_draw_sw.c **** {
  77:Drivers/lvgl/src/draw/sw/lv_draw_sw.c **** 
  78:Drivers/lvgl/src/draw/sw/lv_draw_sw.c **** #if LV_DRAW_SW_COMPLEX == 1
  79:Drivers/lvgl/src/draw/sw/lv_draw_sw.c ****     lv_draw_sw_mask_init();
  80:Drivers/lvgl/src/draw/sw/lv_draw_sw.c **** #endif
  81:Drivers/lvgl/src/draw/sw/lv_draw_sw.c **** 
  82:Drivers/lvgl/src/draw/sw/lv_draw_sw.c ****     lv_draw_sw_unit_t * draw_sw_unit = lv_draw_create_unit(sizeof(lv_draw_sw_unit_t));
  83:Drivers/lvgl/src/draw/sw/lv_draw_sw.c ****     draw_sw_unit->base_unit.dispatch_cb = dispatch;
  84:Drivers/lvgl/src/draw/sw/lv_draw_sw.c ****     draw_sw_unit->base_unit.evaluate_cb = evaluate;
  85:Drivers/lvgl/src/draw/sw/lv_draw_sw.c ****     draw_sw_unit->base_unit.delete_cb = LV_USE_OS ? lv_draw_sw_delete : NULL;
  86:Drivers/lvgl/src/draw/sw/lv_draw_sw.c **** #if LV_USE_DRAW_ARM2D_SYNC
  87:Drivers/lvgl/src/draw/sw/lv_draw_sw.c ****     draw_sw_unit->base_unit.name = "SW_ARM2D";
ARM GAS  /var/folders/qx/2_175_4n2s19vhvtspjhb3qh0000gn/T//ccYBRO69.s 			page 3


  88:Drivers/lvgl/src/draw/sw/lv_draw_sw.c **** #else
  89:Drivers/lvgl/src/draw/sw/lv_draw_sw.c ****     draw_sw_unit->base_unit.name = "SW";
  90:Drivers/lvgl/src/draw/sw/lv_draw_sw.c **** #endif
  91:Drivers/lvgl/src/draw/sw/lv_draw_sw.c **** 
  92:Drivers/lvgl/src/draw/sw/lv_draw_sw.c **** #if LV_USE_OS
  93:Drivers/lvgl/src/draw/sw/lv_draw_sw.c ****     uint32_t i;
  94:Drivers/lvgl/src/draw/sw/lv_draw_sw.c ****     for(i = 0; i < LV_DRAW_SW_DRAW_UNIT_CNT; i++) {
  95:Drivers/lvgl/src/draw/sw/lv_draw_sw.c ****         lv_draw_sw_thread_dsc_t * thread_dsc = &draw_sw_unit->thread_dscs[i];
  96:Drivers/lvgl/src/draw/sw/lv_draw_sw.c ****         thread_dsc->idx = i;
  97:Drivers/lvgl/src/draw/sw/lv_draw_sw.c ****         thread_dsc->draw_unit = (void *) draw_sw_unit;
  98:Drivers/lvgl/src/draw/sw/lv_draw_sw.c ****         lv_thread_init(&thread_dsc->thread, "swdraw", LV_DRAW_THREAD_PRIO, render_thread_cb,
  99:Drivers/lvgl/src/draw/sw/lv_draw_sw.c ****                        LV_DRAW_THREAD_STACK_SIZE, thread_dsc);
 100:Drivers/lvgl/src/draw/sw/lv_draw_sw.c ****     }
 101:Drivers/lvgl/src/draw/sw/lv_draw_sw.c **** #endif
 102:Drivers/lvgl/src/draw/sw/lv_draw_sw.c **** 
 103:Drivers/lvgl/src/draw/sw/lv_draw_sw.c **** #if LV_USE_VECTOR_GRAPHIC && LV_USE_THORVG
 104:Drivers/lvgl/src/draw/sw/lv_draw_sw.c ****     if(LV_DRAW_SW_DRAW_UNIT_CNT > 1) {
 105:Drivers/lvgl/src/draw/sw/lv_draw_sw.c ****         tvg_engine_init(TVG_ENGINE_SW, LV_DRAW_SW_DRAW_UNIT_CNT);
 106:Drivers/lvgl/src/draw/sw/lv_draw_sw.c ****     }
 107:Drivers/lvgl/src/draw/sw/lv_draw_sw.c ****     else {
 108:Drivers/lvgl/src/draw/sw/lv_draw_sw.c ****         tvg_engine_init(TVG_ENGINE_SW, 0);
 109:Drivers/lvgl/src/draw/sw/lv_draw_sw.c ****     }
 110:Drivers/lvgl/src/draw/sw/lv_draw_sw.c **** #endif
 111:Drivers/lvgl/src/draw/sw/lv_draw_sw.c **** 
 112:Drivers/lvgl/src/draw/sw/lv_draw_sw.c ****     lv_ll_init(&LV_GLOBAL_DEFAULT()->draw_sw_blend_handler_ll, sizeof(lv_draw_sw_custom_blend_handl
 113:Drivers/lvgl/src/draw/sw/lv_draw_sw.c **** }
 114:Drivers/lvgl/src/draw/sw/lv_draw_sw.c **** 
 115:Drivers/lvgl/src/draw/sw/lv_draw_sw.c **** void lv_draw_sw_deinit(void)
 116:Drivers/lvgl/src/draw/sw/lv_draw_sw.c **** {
 117:Drivers/lvgl/src/draw/sw/lv_draw_sw.c **** #if LV_USE_VECTOR_GRAPHIC && LV_USE_THORVG
 118:Drivers/lvgl/src/draw/sw/lv_draw_sw.c ****     tvg_engine_term(TVG_ENGINE_SW);
 119:Drivers/lvgl/src/draw/sw/lv_draw_sw.c **** #endif
 120:Drivers/lvgl/src/draw/sw/lv_draw_sw.c **** 
 121:Drivers/lvgl/src/draw/sw/lv_draw_sw.c **** #if LV_DRAW_SW_COMPLEX == 1
 122:Drivers/lvgl/src/draw/sw/lv_draw_sw.c ****     lv_draw_sw_mask_deinit();
 123:Drivers/lvgl/src/draw/sw/lv_draw_sw.c **** #endif
 124:Drivers/lvgl/src/draw/sw/lv_draw_sw.c **** }
 125:Drivers/lvgl/src/draw/sw/lv_draw_sw.c **** 
 126:Drivers/lvgl/src/draw/sw/lv_draw_sw.c **** static int32_t lv_draw_sw_delete(lv_draw_unit_t * draw_unit)
 127:Drivers/lvgl/src/draw/sw/lv_draw_sw.c **** {
 128:Drivers/lvgl/src/draw/sw/lv_draw_sw.c **** #if LV_USE_OS
 129:Drivers/lvgl/src/draw/sw/lv_draw_sw.c ****     lv_draw_sw_unit_t * draw_sw_unit = (lv_draw_sw_unit_t *) draw_unit;
 130:Drivers/lvgl/src/draw/sw/lv_draw_sw.c **** 
 131:Drivers/lvgl/src/draw/sw/lv_draw_sw.c ****     uint32_t i;
 132:Drivers/lvgl/src/draw/sw/lv_draw_sw.c ****     for(i = 0; i < LV_DRAW_SW_DRAW_UNIT_CNT; i++) {
 133:Drivers/lvgl/src/draw/sw/lv_draw_sw.c ****         lv_draw_sw_thread_dsc_t * thread_dsc = &draw_sw_unit->thread_dscs[i];
 134:Drivers/lvgl/src/draw/sw/lv_draw_sw.c **** 
 135:Drivers/lvgl/src/draw/sw/lv_draw_sw.c ****         LV_LOG_INFO("cancel software rendering thread");
 136:Drivers/lvgl/src/draw/sw/lv_draw_sw.c ****         thread_dsc->exit_status = true;
 137:Drivers/lvgl/src/draw/sw/lv_draw_sw.c **** 
 138:Drivers/lvgl/src/draw/sw/lv_draw_sw.c ****         if(thread_dsc->inited) {
 139:Drivers/lvgl/src/draw/sw/lv_draw_sw.c ****             lv_thread_sync_signal(&thread_dsc->sync);
 140:Drivers/lvgl/src/draw/sw/lv_draw_sw.c ****         }
 141:Drivers/lvgl/src/draw/sw/lv_draw_sw.c ****         lv_thread_delete(&thread_dsc->thread);
 142:Drivers/lvgl/src/draw/sw/lv_draw_sw.c ****     }
 143:Drivers/lvgl/src/draw/sw/lv_draw_sw.c **** 
 144:Drivers/lvgl/src/draw/sw/lv_draw_sw.c ****     return 0;
ARM GAS  /var/folders/qx/2_175_4n2s19vhvtspjhb3qh0000gn/T//ccYBRO69.s 			page 4


 145:Drivers/lvgl/src/draw/sw/lv_draw_sw.c **** #else
 146:Drivers/lvgl/src/draw/sw/lv_draw_sw.c ****     LV_UNUSED(draw_unit);
 147:Drivers/lvgl/src/draw/sw/lv_draw_sw.c ****     return 0;
 148:Drivers/lvgl/src/draw/sw/lv_draw_sw.c **** #endif
 149:Drivers/lvgl/src/draw/sw/lv_draw_sw.c **** }
 150:Drivers/lvgl/src/draw/sw/lv_draw_sw.c **** 
 151:Drivers/lvgl/src/draw/sw/lv_draw_sw.c **** bool lv_draw_sw_register_blend_handler(lv_draw_sw_custom_blend_handler_t * handler)
 152:Drivers/lvgl/src/draw/sw/lv_draw_sw.c **** {
 153:Drivers/lvgl/src/draw/sw/lv_draw_sw.c ****     lv_draw_sw_custom_blend_handler_t * existing_handler = NULL;
 154:Drivers/lvgl/src/draw/sw/lv_draw_sw.c ****     lv_draw_sw_custom_blend_handler_t * new_handler = NULL;
 155:Drivers/lvgl/src/draw/sw/lv_draw_sw.c **** 
 156:Drivers/lvgl/src/draw/sw/lv_draw_sw.c ****     // Check if a handler is already registered for the color format
 157:Drivers/lvgl/src/draw/sw/lv_draw_sw.c ****     LV_LL_READ(&LV_GLOBAL_DEFAULT()->draw_sw_blend_handler_ll, existing_handler) {
 158:Drivers/lvgl/src/draw/sw/lv_draw_sw.c ****         if(existing_handler->dest_cf == handler->dest_cf) {
 159:Drivers/lvgl/src/draw/sw/lv_draw_sw.c ****             new_handler = existing_handler;
 160:Drivers/lvgl/src/draw/sw/lv_draw_sw.c ****             break;
 161:Drivers/lvgl/src/draw/sw/lv_draw_sw.c ****         }
 162:Drivers/lvgl/src/draw/sw/lv_draw_sw.c ****     }
 163:Drivers/lvgl/src/draw/sw/lv_draw_sw.c **** 
 164:Drivers/lvgl/src/draw/sw/lv_draw_sw.c ****     if(new_handler == NULL) {
 165:Drivers/lvgl/src/draw/sw/lv_draw_sw.c ****         new_handler = lv_ll_ins_head(&LV_GLOBAL_DEFAULT()->draw_sw_blend_handler_ll);
 166:Drivers/lvgl/src/draw/sw/lv_draw_sw.c ****         if(new_handler == NULL) {
 167:Drivers/lvgl/src/draw/sw/lv_draw_sw.c ****             LV_ASSERT_MALLOC(new_handler);
 168:Drivers/lvgl/src/draw/sw/lv_draw_sw.c ****             return false;
 169:Drivers/lvgl/src/draw/sw/lv_draw_sw.c ****         }
 170:Drivers/lvgl/src/draw/sw/lv_draw_sw.c ****     }
 171:Drivers/lvgl/src/draw/sw/lv_draw_sw.c **** 
 172:Drivers/lvgl/src/draw/sw/lv_draw_sw.c ****     lv_memcpy(new_handler, handler, sizeof(lv_draw_sw_custom_blend_handler_t));
 173:Drivers/lvgl/src/draw/sw/lv_draw_sw.c ****     return true;
 174:Drivers/lvgl/src/draw/sw/lv_draw_sw.c **** }
 175:Drivers/lvgl/src/draw/sw/lv_draw_sw.c **** 
 176:Drivers/lvgl/src/draw/sw/lv_draw_sw.c **** bool lv_draw_sw_unregister_blend_handler(lv_color_format_t dest_cf)
 177:Drivers/lvgl/src/draw/sw/lv_draw_sw.c **** {
 178:Drivers/lvgl/src/draw/sw/lv_draw_sw.c ****     lv_draw_sw_custom_blend_handler_t * handler;
 179:Drivers/lvgl/src/draw/sw/lv_draw_sw.c **** 
 180:Drivers/lvgl/src/draw/sw/lv_draw_sw.c ****     LV_LL_READ(&LV_GLOBAL_DEFAULT()->draw_sw_blend_handler_ll, handler) {
 181:Drivers/lvgl/src/draw/sw/lv_draw_sw.c ****         if(handler->dest_cf == dest_cf) {
 182:Drivers/lvgl/src/draw/sw/lv_draw_sw.c ****             lv_ll_remove(&LV_GLOBAL_DEFAULT()->draw_sw_blend_handler_ll, handler);
 183:Drivers/lvgl/src/draw/sw/lv_draw_sw.c ****             lv_free(handler);
 184:Drivers/lvgl/src/draw/sw/lv_draw_sw.c ****             return true;
 185:Drivers/lvgl/src/draw/sw/lv_draw_sw.c ****         }
 186:Drivers/lvgl/src/draw/sw/lv_draw_sw.c ****     }
 187:Drivers/lvgl/src/draw/sw/lv_draw_sw.c **** 
 188:Drivers/lvgl/src/draw/sw/lv_draw_sw.c ****     return false;
 189:Drivers/lvgl/src/draw/sw/lv_draw_sw.c **** }
 190:Drivers/lvgl/src/draw/sw/lv_draw_sw.c **** 
 191:Drivers/lvgl/src/draw/sw/lv_draw_sw.c **** lv_draw_sw_blend_handler_t lv_draw_sw_get_blend_handler(lv_color_format_t dest_cf)
 192:Drivers/lvgl/src/draw/sw/lv_draw_sw.c **** {
 193:Drivers/lvgl/src/draw/sw/lv_draw_sw.c ****     lv_draw_sw_custom_blend_handler_t * handler;
 194:Drivers/lvgl/src/draw/sw/lv_draw_sw.c **** 
 195:Drivers/lvgl/src/draw/sw/lv_draw_sw.c ****     LV_LL_READ(&LV_GLOBAL_DEFAULT()->draw_sw_blend_handler_ll, handler) {
 196:Drivers/lvgl/src/draw/sw/lv_draw_sw.c ****         if(handler->dest_cf == dest_cf) {
 197:Drivers/lvgl/src/draw/sw/lv_draw_sw.c ****             return handler->handler;
 198:Drivers/lvgl/src/draw/sw/lv_draw_sw.c ****         }
 199:Drivers/lvgl/src/draw/sw/lv_draw_sw.c ****     }
 200:Drivers/lvgl/src/draw/sw/lv_draw_sw.c **** 
 201:Drivers/lvgl/src/draw/sw/lv_draw_sw.c ****     return NULL;
ARM GAS  /var/folders/qx/2_175_4n2s19vhvtspjhb3qh0000gn/T//ccYBRO69.s 			page 5


 202:Drivers/lvgl/src/draw/sw/lv_draw_sw.c **** }
 203:Drivers/lvgl/src/draw/sw/lv_draw_sw.c **** 
 204:Drivers/lvgl/src/draw/sw/lv_draw_sw.c **** /**********************
 205:Drivers/lvgl/src/draw/sw/lv_draw_sw.c ****  *   STATIC FUNCTIONS
 206:Drivers/lvgl/src/draw/sw/lv_draw_sw.c ****  **********************/
 207:Drivers/lvgl/src/draw/sw/lv_draw_sw.c **** 
 208:Drivers/lvgl/src/draw/sw/lv_draw_sw.c **** static int32_t evaluate(lv_draw_unit_t * draw_unit, lv_draw_task_t * task)
 209:Drivers/lvgl/src/draw/sw/lv_draw_sw.c **** {
  29              		.loc 1 209 1 view -0
  30              		.cfi_startproc
  31              		@ args = 0, pretend = 0, frame = 0
  32              		@ frame_needed = 0, uses_anonymous_args = 0
  33              		@ link register save eliminated.
 210:Drivers/lvgl/src/draw/sw/lv_draw_sw.c ****     LV_UNUSED(draw_unit);
  34              		.loc 1 210 5 view .LVU1
 211:Drivers/lvgl/src/draw/sw/lv_draw_sw.c **** 
 212:Drivers/lvgl/src/draw/sw/lv_draw_sw.c ****     switch(task->type) {
  35              		.loc 1 212 5 view .LVU2
  36              		.loc 1 212 16 is_stmt 0 view .LVU3
  37 0000 0B79     		ldrb	r3, [r1, #4]	@ zero_extendqisi2
  38              		.loc 1 212 5 view .LVU4
  39 0002 063B     		subs	r3, r3, #6
  40 0004 012B     		cmp	r3, #1
  41 0006 0BD9     		bls	.L5
  42              	.L2:
 213:Drivers/lvgl/src/draw/sw/lv_draw_sw.c ****         case LV_DRAW_TASK_TYPE_IMAGE:
 214:Drivers/lvgl/src/draw/sw/lv_draw_sw.c ****         case LV_DRAW_TASK_TYPE_LAYER: {
 215:Drivers/lvgl/src/draw/sw/lv_draw_sw.c ****                 lv_draw_image_dsc_t * draw_dsc = task->draw_dsc;
 216:Drivers/lvgl/src/draw/sw/lv_draw_sw.c **** 
 217:Drivers/lvgl/src/draw/sw/lv_draw_sw.c ****                 /* not support skew */
 218:Drivers/lvgl/src/draw/sw/lv_draw_sw.c ****                 if(draw_dsc->skew_x != 0 || draw_dsc->skew_y != 0) {
 219:Drivers/lvgl/src/draw/sw/lv_draw_sw.c ****                     return 0;
 220:Drivers/lvgl/src/draw/sw/lv_draw_sw.c ****                 }
 221:Drivers/lvgl/src/draw/sw/lv_draw_sw.c **** 
 222:Drivers/lvgl/src/draw/sw/lv_draw_sw.c ****                 bool masked = draw_dsc->bitmap_mask_src != NULL;
 223:Drivers/lvgl/src/draw/sw/lv_draw_sw.c **** 
 224:Drivers/lvgl/src/draw/sw/lv_draw_sw.c ****                 lv_color_format_t cf = draw_dsc->header.cf;
 225:Drivers/lvgl/src/draw/sw/lv_draw_sw.c ****                 if(masked && (cf == LV_COLOR_FORMAT_A8 || cf == LV_COLOR_FORMAT_RGB565A8)) {
 226:Drivers/lvgl/src/draw/sw/lv_draw_sw.c ****                     return 0;
 227:Drivers/lvgl/src/draw/sw/lv_draw_sw.c ****                 }
 228:Drivers/lvgl/src/draw/sw/lv_draw_sw.c **** 
 229:Drivers/lvgl/src/draw/sw/lv_draw_sw.c ****                 if(cf >= LV_COLOR_FORMAT_PROPRIETARY_START) {
 230:Drivers/lvgl/src/draw/sw/lv_draw_sw.c ****                     return 0;
 231:Drivers/lvgl/src/draw/sw/lv_draw_sw.c ****                 }
 232:Drivers/lvgl/src/draw/sw/lv_draw_sw.c ****             }
 233:Drivers/lvgl/src/draw/sw/lv_draw_sw.c ****             break;
 234:Drivers/lvgl/src/draw/sw/lv_draw_sw.c **** #if LV_USE_3DTEXTURE
 235:Drivers/lvgl/src/draw/sw/lv_draw_sw.c ****         case LV_DRAW_TASK_TYPE_3D:
 236:Drivers/lvgl/src/draw/sw/lv_draw_sw.c ****             return 0;
 237:Drivers/lvgl/src/draw/sw/lv_draw_sw.c **** #endif
 238:Drivers/lvgl/src/draw/sw/lv_draw_sw.c ****         default:
 239:Drivers/lvgl/src/draw/sw/lv_draw_sw.c ****             break;
 240:Drivers/lvgl/src/draw/sw/lv_draw_sw.c ****     }
 241:Drivers/lvgl/src/draw/sw/lv_draw_sw.c **** 
 242:Drivers/lvgl/src/draw/sw/lv_draw_sw.c ****     if(task->preference_score >= 100) {
  43              		.loc 1 242 5 is_stmt 1 view .LVU5
  44              		.loc 1 242 12 is_stmt 0 view .LVU6
ARM GAS  /var/folders/qx/2_175_4n2s19vhvtspjhb3qh0000gn/T//ccYBRO69.s 			page 6


  45 0008 91F85A30 		ldrb	r3, [r1, #90]	@ zero_extendqisi2
  46              		.loc 1 242 7 view .LVU7
  47 000c 632B     		cmp	r3, #99
  48 000e 05D9     		bls	.L3
 243:Drivers/lvgl/src/draw/sw/lv_draw_sw.c ****         task->preference_score = 100;
  49              		.loc 1 243 9 is_stmt 1 view .LVU8
  50              		.loc 1 243 32 is_stmt 0 view .LVU9
  51 0010 6423     		movs	r3, #100
  52 0012 81F85A30 		strb	r3, [r1, #90]
 244:Drivers/lvgl/src/draw/sw/lv_draw_sw.c ****         task->preferred_draw_unit_id = DRAW_UNIT_ID_SW;
  53              		.loc 1 244 9 is_stmt 1 view .LVU10
  54              		.loc 1 244 38 is_stmt 0 view .LVU11
  55 0016 0123     		movs	r3, #1
  56 0018 81F85930 		strb	r3, [r1, #89]
  57              	.L3:
 245:Drivers/lvgl/src/draw/sw/lv_draw_sw.c ****     }
 246:Drivers/lvgl/src/draw/sw/lv_draw_sw.c **** 
 247:Drivers/lvgl/src/draw/sw/lv_draw_sw.c ****     return 0;
 248:Drivers/lvgl/src/draw/sw/lv_draw_sw.c **** }
  58              		.loc 1 248 1 view .LVU12
  59 001c 0020     		movs	r0, #0
  60              	.LVL1:
  61              		.loc 1 248 1 view .LVU13
  62 001e 7047     		bx	lr
  63              	.LVL2:
  64              	.L5:
  65              	.LBB2:
 215:Drivers/lvgl/src/draw/sw/lv_draw_sw.c **** 
  66              		.loc 1 215 17 is_stmt 1 view .LVU14
 215:Drivers/lvgl/src/draw/sw/lv_draw_sw.c **** 
  67              		.loc 1 215 39 is_stmt 0 view .LVU15
  68 0020 4B6D     		ldr	r3, [r1, #84]
  69              	.LVL3:
 218:Drivers/lvgl/src/draw/sw/lv_draw_sw.c ****                     return 0;
  70              		.loc 1 218 17 is_stmt 1 view .LVU16
 218:Drivers/lvgl/src/draw/sw/lv_draw_sw.c ****                     return 0;
  71              		.loc 1 218 28 is_stmt 0 view .LVU17
  72 0022 DA6B     		ldr	r2, [r3, #60]
 218:Drivers/lvgl/src/draw/sw/lv_draw_sw.c ****                     return 0;
  73              		.loc 1 218 19 view .LVU18
  74 0024 002A     		cmp	r2, #0
  75 0026 F9D1     		bne	.L3
 218:Drivers/lvgl/src/draw/sw/lv_draw_sw.c ****                     return 0;
  76              		.loc 1 218 53 discriminator 1 view .LVU19
  77 0028 1A6C     		ldr	r2, [r3, #64]
 218:Drivers/lvgl/src/draw/sw/lv_draw_sw.c ****                     return 0;
  78              		.loc 1 218 42 discriminator 1 view .LVU20
  79 002a 002A     		cmp	r2, #0
  80 002c F6D1     		bne	.L3
 222:Drivers/lvgl/src/draw/sw/lv_draw_sw.c **** 
  81              		.loc 1 222 17 is_stmt 1 view .LVU21
 222:Drivers/lvgl/src/draw/sw/lv_draw_sw.c **** 
  82              		.loc 1 222 39 is_stmt 0 view .LVU22
  83 002e DA6E     		ldr	r2, [r3, #108]
  84              	.LVL4:
 224:Drivers/lvgl/src/draw/sw/lv_draw_sw.c ****                 if(masked && (cf == LV_COLOR_FORMAT_A8 || cf == LV_COLOR_FORMAT_RGB565A8)) {
  85              		.loc 1 224 17 is_stmt 1 view .LVU23
ARM GAS  /var/folders/qx/2_175_4n2s19vhvtspjhb3qh0000gn/T//ccYBRO69.s 			page 7


 224:Drivers/lvgl/src/draw/sw/lv_draw_sw.c ****                 if(masked && (cf == LV_COLOR_FORMAT_A8 || cf == LV_COLOR_FORMAT_RGB565A8)) {
  86              		.loc 1 224 35 is_stmt 0 view .LVU24
  87 0030 93F82130 		ldrb	r3, [r3, #33]	@ zero_extendqisi2
  88              	.LVL5:
 225:Drivers/lvgl/src/draw/sw/lv_draw_sw.c ****                     return 0;
  89              		.loc 1 225 17 is_stmt 1 view .LVU25
 225:Drivers/lvgl/src/draw/sw/lv_draw_sw.c ****                     return 0;
  90              		.loc 1 225 19 is_stmt 0 view .LVU26
  91 0034 1AB1     		cbz	r2, .L4
 225:Drivers/lvgl/src/draw/sw/lv_draw_sw.c ****                     return 0;
  92              		.loc 1 225 27 discriminator 1 view .LVU27
  93 0036 0E2B     		cmp	r3, #14
  94 0038 F0D0     		beq	.L3
 225:Drivers/lvgl/src/draw/sw/lv_draw_sw.c ****                     return 0;
  95              		.loc 1 225 56 discriminator 2 view .LVU28
  96 003a 142B     		cmp	r3, #20
  97 003c EED0     		beq	.L3
  98              	.L4:
 229:Drivers/lvgl/src/draw/sw/lv_draw_sw.c ****                     return 0;
  99              		.loc 1 229 17 is_stmt 1 view .LVU29
 229:Drivers/lvgl/src/draw/sw/lv_draw_sw.c ****                     return 0;
 100              		.loc 1 229 19 is_stmt 0 view .LVU30
 101 003e 2F2B     		cmp	r3, #47
 102 0040 E2D9     		bls	.L2
 103 0042 EBE7     		b	.L3
 104              	.LBE2:
 105              		.cfi_endproc
 106              	.LFE199:
 108              		.section	.text.execute_drawing,"ax",%progbits
 109              		.align	1
 110              		.syntax unified
 111              		.thumb
 112              		.thumb_func
 114              	execute_drawing:
 115              	.LVL6:
 116              	.LFB201:
 249:Drivers/lvgl/src/draw/sw/lv_draw_sw.c **** 
 250:Drivers/lvgl/src/draw/sw/lv_draw_sw.c **** static int32_t dispatch(lv_draw_unit_t * draw_unit, lv_layer_t * layer)
 251:Drivers/lvgl/src/draw/sw/lv_draw_sw.c **** {
 252:Drivers/lvgl/src/draw/sw/lv_draw_sw.c ****     LV_PROFILER_DRAW_BEGIN;
 253:Drivers/lvgl/src/draw/sw/lv_draw_sw.c ****     lv_draw_sw_unit_t * draw_sw_unit = (lv_draw_sw_unit_t *) draw_unit;
 254:Drivers/lvgl/src/draw/sw/lv_draw_sw.c **** 
 255:Drivers/lvgl/src/draw/sw/lv_draw_sw.c **** #if LV_USE_OS
 256:Drivers/lvgl/src/draw/sw/lv_draw_sw.c ****     uint32_t i;
 257:Drivers/lvgl/src/draw/sw/lv_draw_sw.c ****     uint32_t taken_cnt = 0;
 258:Drivers/lvgl/src/draw/sw/lv_draw_sw.c ****     /* All idle (couldn't take any tasks): return LV_DRAW_UNIT_IDLE;
 259:Drivers/lvgl/src/draw/sw/lv_draw_sw.c ****      * All busy: return 0; as 0 tasks were taken
 260:Drivers/lvgl/src/draw/sw/lv_draw_sw.c ****      * Otherwise return taken_cnt;
 261:Drivers/lvgl/src/draw/sw/lv_draw_sw.c ****      */
 262:Drivers/lvgl/src/draw/sw/lv_draw_sw.c **** 
 263:Drivers/lvgl/src/draw/sw/lv_draw_sw.c ****     /*If at least one is busy, it's not all idle*/
 264:Drivers/lvgl/src/draw/sw/lv_draw_sw.c ****     bool all_idle = true;
 265:Drivers/lvgl/src/draw/sw/lv_draw_sw.c ****     for(i = 0; i < LV_DRAW_SW_DRAW_UNIT_CNT; i++) {
 266:Drivers/lvgl/src/draw/sw/lv_draw_sw.c ****         if(draw_sw_unit->thread_dscs[i].task_act) {
 267:Drivers/lvgl/src/draw/sw/lv_draw_sw.c ****             all_idle = false;
 268:Drivers/lvgl/src/draw/sw/lv_draw_sw.c ****             break;
 269:Drivers/lvgl/src/draw/sw/lv_draw_sw.c ****         }
ARM GAS  /var/folders/qx/2_175_4n2s19vhvtspjhb3qh0000gn/T//ccYBRO69.s 			page 8


 270:Drivers/lvgl/src/draw/sw/lv_draw_sw.c ****     }
 271:Drivers/lvgl/src/draw/sw/lv_draw_sw.c **** 
 272:Drivers/lvgl/src/draw/sw/lv_draw_sw.c ****     lv_draw_task_t * t = NULL;
 273:Drivers/lvgl/src/draw/sw/lv_draw_sw.c ****     for(i = 0; i < LV_DRAW_SW_DRAW_UNIT_CNT; i++) {
 274:Drivers/lvgl/src/draw/sw/lv_draw_sw.c ****         lv_draw_sw_thread_dsc_t * thread_dsc = &draw_sw_unit->thread_dscs[i];
 275:Drivers/lvgl/src/draw/sw/lv_draw_sw.c **** 
 276:Drivers/lvgl/src/draw/sw/lv_draw_sw.c ****         /*Do nothing if busy*/
 277:Drivers/lvgl/src/draw/sw/lv_draw_sw.c ****         if(thread_dsc->task_act) continue;
 278:Drivers/lvgl/src/draw/sw/lv_draw_sw.c **** 
 279:Drivers/lvgl/src/draw/sw/lv_draw_sw.c ****         /*Find an available task. Start from the previously taken task.*/
 280:Drivers/lvgl/src/draw/sw/lv_draw_sw.c ****         t = lv_draw_get_next_available_task(layer, t, DRAW_UNIT_ID_SW);
 281:Drivers/lvgl/src/draw/sw/lv_draw_sw.c **** 
 282:Drivers/lvgl/src/draw/sw/lv_draw_sw.c ****         /*If there is not available task don't try other threads as there won't be available
 283:Drivers/lvgl/src/draw/sw/lv_draw_sw.c ****          *tasks for then either*/
 284:Drivers/lvgl/src/draw/sw/lv_draw_sw.c ****         if(t == NULL) {
 285:Drivers/lvgl/src/draw/sw/lv_draw_sw.c ****             LV_PROFILER_DRAW_END;
 286:Drivers/lvgl/src/draw/sw/lv_draw_sw.c ****             if(all_idle) return LV_DRAW_UNIT_IDLE;  /*Couldn't start rendering*/
 287:Drivers/lvgl/src/draw/sw/lv_draw_sw.c ****             else return taken_cnt;
 288:Drivers/lvgl/src/draw/sw/lv_draw_sw.c ****         }
 289:Drivers/lvgl/src/draw/sw/lv_draw_sw.c **** 
 290:Drivers/lvgl/src/draw/sw/lv_draw_sw.c ****         /*Allocate a buffer if not done yet.*/
 291:Drivers/lvgl/src/draw/sw/lv_draw_sw.c ****         void * buf = lv_draw_layer_alloc_buf(layer);
 292:Drivers/lvgl/src/draw/sw/lv_draw_sw.c ****         /*Do not return is failed. The other thread might already have a buffer can do something. *
 293:Drivers/lvgl/src/draw/sw/lv_draw_sw.c ****         if(buf == NULL) continue;
 294:Drivers/lvgl/src/draw/sw/lv_draw_sw.c **** 
 295:Drivers/lvgl/src/draw/sw/lv_draw_sw.c ****         /*Take the task*/
 296:Drivers/lvgl/src/draw/sw/lv_draw_sw.c ****         all_idle = false;
 297:Drivers/lvgl/src/draw/sw/lv_draw_sw.c ****         taken_cnt++;
 298:Drivers/lvgl/src/draw/sw/lv_draw_sw.c ****         t->state = LV_DRAW_TASK_STATE_IN_PROGRESS;
 299:Drivers/lvgl/src/draw/sw/lv_draw_sw.c ****         thread_dsc->task_act = t;
 300:Drivers/lvgl/src/draw/sw/lv_draw_sw.c **** 
 301:Drivers/lvgl/src/draw/sw/lv_draw_sw.c ****         /*Let the render thread work*/
 302:Drivers/lvgl/src/draw/sw/lv_draw_sw.c ****         if(thread_dsc->inited) lv_thread_sync_signal(&thread_dsc->sync);
 303:Drivers/lvgl/src/draw/sw/lv_draw_sw.c ****     }
 304:Drivers/lvgl/src/draw/sw/lv_draw_sw.c **** 
 305:Drivers/lvgl/src/draw/sw/lv_draw_sw.c ****     if(all_idle) return LV_DRAW_UNIT_IDLE;  /*Couldn't start rendering*/
 306:Drivers/lvgl/src/draw/sw/lv_draw_sw.c ****     else return taken_cnt;
 307:Drivers/lvgl/src/draw/sw/lv_draw_sw.c **** 
 308:Drivers/lvgl/src/draw/sw/lv_draw_sw.c **** #else
 309:Drivers/lvgl/src/draw/sw/lv_draw_sw.c ****     /*Return immediately if it's busy with draw task*/
 310:Drivers/lvgl/src/draw/sw/lv_draw_sw.c ****     if(draw_sw_unit->task_act) {
 311:Drivers/lvgl/src/draw/sw/lv_draw_sw.c ****         LV_PROFILER_DRAW_END;
 312:Drivers/lvgl/src/draw/sw/lv_draw_sw.c ****         return 0;
 313:Drivers/lvgl/src/draw/sw/lv_draw_sw.c ****     }
 314:Drivers/lvgl/src/draw/sw/lv_draw_sw.c **** 
 315:Drivers/lvgl/src/draw/sw/lv_draw_sw.c ****     lv_draw_task_t * t = NULL;
 316:Drivers/lvgl/src/draw/sw/lv_draw_sw.c ****     t = lv_draw_get_available_task(layer, NULL, DRAW_UNIT_ID_SW);
 317:Drivers/lvgl/src/draw/sw/lv_draw_sw.c ****     if(t == NULL) {
 318:Drivers/lvgl/src/draw/sw/lv_draw_sw.c ****         LV_PROFILER_DRAW_END;
 319:Drivers/lvgl/src/draw/sw/lv_draw_sw.c ****         return LV_DRAW_UNIT_IDLE;  /*Couldn't start rendering*/
 320:Drivers/lvgl/src/draw/sw/lv_draw_sw.c ****     }
 321:Drivers/lvgl/src/draw/sw/lv_draw_sw.c **** 
 322:Drivers/lvgl/src/draw/sw/lv_draw_sw.c ****     void * buf = lv_draw_layer_alloc_buf(layer);
 323:Drivers/lvgl/src/draw/sw/lv_draw_sw.c ****     if(buf == NULL) {
 324:Drivers/lvgl/src/draw/sw/lv_draw_sw.c ****         LV_PROFILER_DRAW_END;
 325:Drivers/lvgl/src/draw/sw/lv_draw_sw.c ****         return LV_DRAW_UNIT_IDLE;  /*Couldn't start rendering*/
 326:Drivers/lvgl/src/draw/sw/lv_draw_sw.c ****     }
ARM GAS  /var/folders/qx/2_175_4n2s19vhvtspjhb3qh0000gn/T//ccYBRO69.s 			page 9


 327:Drivers/lvgl/src/draw/sw/lv_draw_sw.c **** 
 328:Drivers/lvgl/src/draw/sw/lv_draw_sw.c ****     t->state = LV_DRAW_TASK_STATE_IN_PROGRESS;
 329:Drivers/lvgl/src/draw/sw/lv_draw_sw.c ****     draw_sw_unit->task_act = t;
 330:Drivers/lvgl/src/draw/sw/lv_draw_sw.c **** 
 331:Drivers/lvgl/src/draw/sw/lv_draw_sw.c ****     execute_drawing(t);
 332:Drivers/lvgl/src/draw/sw/lv_draw_sw.c ****     draw_sw_unit->task_act->state = LV_DRAW_TASK_STATE_FINISHED;
 333:Drivers/lvgl/src/draw/sw/lv_draw_sw.c ****     draw_sw_unit->task_act = NULL;
 334:Drivers/lvgl/src/draw/sw/lv_draw_sw.c **** 
 335:Drivers/lvgl/src/draw/sw/lv_draw_sw.c ****     /*The draw unit is free now. Request a new dispatching as it can get a new task*/
 336:Drivers/lvgl/src/draw/sw/lv_draw_sw.c ****     lv_draw_dispatch_request();
 337:Drivers/lvgl/src/draw/sw/lv_draw_sw.c **** 
 338:Drivers/lvgl/src/draw/sw/lv_draw_sw.c ****     LV_PROFILER_DRAW_END;
 339:Drivers/lvgl/src/draw/sw/lv_draw_sw.c ****     return 1;
 340:Drivers/lvgl/src/draw/sw/lv_draw_sw.c **** #endif
 341:Drivers/lvgl/src/draw/sw/lv_draw_sw.c **** 
 342:Drivers/lvgl/src/draw/sw/lv_draw_sw.c **** }
 343:Drivers/lvgl/src/draw/sw/lv_draw_sw.c **** 
 344:Drivers/lvgl/src/draw/sw/lv_draw_sw.c **** #if LV_USE_OS
 345:Drivers/lvgl/src/draw/sw/lv_draw_sw.c **** static void render_thread_cb(void * ptr)
 346:Drivers/lvgl/src/draw/sw/lv_draw_sw.c **** {
 347:Drivers/lvgl/src/draw/sw/lv_draw_sw.c ****     lv_draw_sw_thread_dsc_t * thread_dsc = ptr;
 348:Drivers/lvgl/src/draw/sw/lv_draw_sw.c **** 
 349:Drivers/lvgl/src/draw/sw/lv_draw_sw.c ****     lv_thread_sync_init(&thread_dsc->sync);
 350:Drivers/lvgl/src/draw/sw/lv_draw_sw.c ****     thread_dsc->inited = true;
 351:Drivers/lvgl/src/draw/sw/lv_draw_sw.c **** 
 352:Drivers/lvgl/src/draw/sw/lv_draw_sw.c ****     while(1) {
 353:Drivers/lvgl/src/draw/sw/lv_draw_sw.c ****         while(thread_dsc->task_act == NULL) {
 354:Drivers/lvgl/src/draw/sw/lv_draw_sw.c ****             if(thread_dsc->exit_status) {
 355:Drivers/lvgl/src/draw/sw/lv_draw_sw.c ****                 break;
 356:Drivers/lvgl/src/draw/sw/lv_draw_sw.c ****             }
 357:Drivers/lvgl/src/draw/sw/lv_draw_sw.c ****             lv_thread_sync_wait(&thread_dsc->sync);
 358:Drivers/lvgl/src/draw/sw/lv_draw_sw.c ****         }
 359:Drivers/lvgl/src/draw/sw/lv_draw_sw.c **** 
 360:Drivers/lvgl/src/draw/sw/lv_draw_sw.c ****         if(thread_dsc->exit_status) {
 361:Drivers/lvgl/src/draw/sw/lv_draw_sw.c ****             LV_LOG_INFO("ready to exit software rendering thread");
 362:Drivers/lvgl/src/draw/sw/lv_draw_sw.c ****             break;
 363:Drivers/lvgl/src/draw/sw/lv_draw_sw.c ****         }
 364:Drivers/lvgl/src/draw/sw/lv_draw_sw.c **** 
 365:Drivers/lvgl/src/draw/sw/lv_draw_sw.c ****         execute_drawing(thread_dsc->task_act);
 366:Drivers/lvgl/src/draw/sw/lv_draw_sw.c **** #if LV_USE_PARALLEL_DRAW_DEBUG
 367:Drivers/lvgl/src/draw/sw/lv_draw_sw.c ****         parallel_debug_draw(thread_dsc->task_act, thread_dsc->idx);
 368:Drivers/lvgl/src/draw/sw/lv_draw_sw.c **** #endif
 369:Drivers/lvgl/src/draw/sw/lv_draw_sw.c ****         thread_dsc->task_act->state = LV_DRAW_TASK_STATE_FINISHED;
 370:Drivers/lvgl/src/draw/sw/lv_draw_sw.c ****         thread_dsc->task_act = NULL;
 371:Drivers/lvgl/src/draw/sw/lv_draw_sw.c **** 
 372:Drivers/lvgl/src/draw/sw/lv_draw_sw.c ****         /*The draw unit is free now. Request a new dispatching as it can get a new task*/
 373:Drivers/lvgl/src/draw/sw/lv_draw_sw.c ****         lv_draw_dispatch_request();
 374:Drivers/lvgl/src/draw/sw/lv_draw_sw.c **** 
 375:Drivers/lvgl/src/draw/sw/lv_draw_sw.c ****     }
 376:Drivers/lvgl/src/draw/sw/lv_draw_sw.c **** 
 377:Drivers/lvgl/src/draw/sw/lv_draw_sw.c ****     thread_dsc->inited = false;
 378:Drivers/lvgl/src/draw/sw/lv_draw_sw.c ****     lv_thread_sync_delete(&thread_dsc->sync);
 379:Drivers/lvgl/src/draw/sw/lv_draw_sw.c ****     LV_LOG_INFO("exit software rendering thread");
 380:Drivers/lvgl/src/draw/sw/lv_draw_sw.c **** }
 381:Drivers/lvgl/src/draw/sw/lv_draw_sw.c **** #endif
 382:Drivers/lvgl/src/draw/sw/lv_draw_sw.c **** 
 383:Drivers/lvgl/src/draw/sw/lv_draw_sw.c **** static void execute_drawing(lv_draw_task_t * t)
ARM GAS  /var/folders/qx/2_175_4n2s19vhvtspjhb3qh0000gn/T//ccYBRO69.s 			page 10


 384:Drivers/lvgl/src/draw/sw/lv_draw_sw.c **** {
 117              		.loc 1 384 1 is_stmt 1 view -0
 118              		.cfi_startproc
 119              		@ args = 0, pretend = 0, frame = 0
 120              		@ frame_needed = 0, uses_anonymous_args = 0
 121              		.loc 1 384 1 is_stmt 0 view .LVU32
 122 0000 08B5     		push	{r3, lr}
 123              	.LCFI0:
 124              		.cfi_def_cfa_offset 8
 125              		.cfi_offset 3, -8
 126              		.cfi_offset 14, -4
 385:Drivers/lvgl/src/draw/sw/lv_draw_sw.c ****     LV_PROFILER_DRAW_BEGIN;
 127              		.loc 1 385 27 is_stmt 1 view .LVU33
 386:Drivers/lvgl/src/draw/sw/lv_draw_sw.c ****     /*Render the draw task*/
 387:Drivers/lvgl/src/draw/sw/lv_draw_sw.c ****     switch(t->type) {
 128              		.loc 1 387 5 view .LVU34
 129              		.loc 1 387 13 is_stmt 0 view .LVU35
 130 0002 0379     		ldrb	r3, [r0, #4]	@ zero_extendqisi2
 131              		.loc 1 387 5 view .LVU36
 132 0004 013B     		subs	r3, r3, #1
 133 0006 0C2B     		cmp	r3, #12
 134 0008 0DD8     		bhi	.L6
 135 000a DFE803F0 		tbb	[pc, r3]
 136              	.L9:
 137 000e 07       		.byte	(.L20-.L9)/2
 138 000f 0D       		.byte	(.L19-.L9)/2
 139 0010 13       		.byte	(.L18-.L9)/2
 140 0011 19       		.byte	(.L17-.L9)/2
 141 0012 1F       		.byte	(.L16-.L9)/2
 142 0013 25       		.byte	(.L15-.L9)/2
 143 0014 3F       		.byte	(.L14-.L9)/2
 144 0015 31       		.byte	(.L13-.L9)/2
 145 0016 2B       		.byte	(.L12-.L9)/2
 146 0017 3B       		.byte	(.L11-.L9)/2
 147 0018 45       		.byte	(.L10-.L9)/2
 148 0019 0C       		.byte	(.L6-.L9)/2
 149 001a 35       		.byte	(.L8-.L9)/2
 150 001b 00       		.p2align 1
 151              	.L20:
 388:Drivers/lvgl/src/draw/sw/lv_draw_sw.c ****         case LV_DRAW_TASK_TYPE_FILL:
 389:Drivers/lvgl/src/draw/sw/lv_draw_sw.c ****             lv_draw_sw_fill(t, t->draw_dsc, &t->area);
 152              		.loc 1 389 13 is_stmt 1 view .LVU37
 153 001c 00F10802 		add	r2, r0, #8
 154 0020 416D     		ldr	r1, [r0, #84]
 155 0022 FFF7FEFF 		bl	lv_draw_sw_fill
 156              	.LVL7:
 390:Drivers/lvgl/src/draw/sw/lv_draw_sw.c ****             break;
 157              		.loc 1 390 13 view .LVU38
 158              	.L6:
 391:Drivers/lvgl/src/draw/sw/lv_draw_sw.c ****         case LV_DRAW_TASK_TYPE_BORDER:
 392:Drivers/lvgl/src/draw/sw/lv_draw_sw.c ****             lv_draw_sw_border(t, t->draw_dsc, &t->area);
 393:Drivers/lvgl/src/draw/sw/lv_draw_sw.c ****             break;
 394:Drivers/lvgl/src/draw/sw/lv_draw_sw.c ****         case LV_DRAW_TASK_TYPE_BOX_SHADOW:
 395:Drivers/lvgl/src/draw/sw/lv_draw_sw.c ****             lv_draw_sw_box_shadow(t, t->draw_dsc, &t->area);
 396:Drivers/lvgl/src/draw/sw/lv_draw_sw.c ****             break;
 397:Drivers/lvgl/src/draw/sw/lv_draw_sw.c ****         case LV_DRAW_TASK_TYPE_LETTER:
 398:Drivers/lvgl/src/draw/sw/lv_draw_sw.c ****             lv_draw_sw_letter(t, t->draw_dsc, &t->area);
ARM GAS  /var/folders/qx/2_175_4n2s19vhvtspjhb3qh0000gn/T//ccYBRO69.s 			page 11


 399:Drivers/lvgl/src/draw/sw/lv_draw_sw.c ****             break;
 400:Drivers/lvgl/src/draw/sw/lv_draw_sw.c ****         case LV_DRAW_TASK_TYPE_LABEL:
 401:Drivers/lvgl/src/draw/sw/lv_draw_sw.c ****             lv_draw_sw_label(t, t->draw_dsc, &t->area);
 402:Drivers/lvgl/src/draw/sw/lv_draw_sw.c ****             break;
 403:Drivers/lvgl/src/draw/sw/lv_draw_sw.c ****         case LV_DRAW_TASK_TYPE_IMAGE:
 404:Drivers/lvgl/src/draw/sw/lv_draw_sw.c ****             lv_draw_sw_image(t, t->draw_dsc, &t->area);
 405:Drivers/lvgl/src/draw/sw/lv_draw_sw.c ****             break;
 406:Drivers/lvgl/src/draw/sw/lv_draw_sw.c ****         case LV_DRAW_TASK_TYPE_ARC:
 407:Drivers/lvgl/src/draw/sw/lv_draw_sw.c ****             lv_draw_sw_arc(t, t->draw_dsc, &t->area);
 408:Drivers/lvgl/src/draw/sw/lv_draw_sw.c ****             break;
 409:Drivers/lvgl/src/draw/sw/lv_draw_sw.c ****         case LV_DRAW_TASK_TYPE_LINE:
 410:Drivers/lvgl/src/draw/sw/lv_draw_sw.c ****             lv_draw_sw_line(t, t->draw_dsc);
 411:Drivers/lvgl/src/draw/sw/lv_draw_sw.c ****             break;
 412:Drivers/lvgl/src/draw/sw/lv_draw_sw.c ****         case LV_DRAW_TASK_TYPE_BLUR:
 413:Drivers/lvgl/src/draw/sw/lv_draw_sw.c ****             lv_draw_sw_blur(t, t->draw_dsc, &t->area);
 414:Drivers/lvgl/src/draw/sw/lv_draw_sw.c ****             break;
 415:Drivers/lvgl/src/draw/sw/lv_draw_sw.c ****         case LV_DRAW_TASK_TYPE_TRIANGLE:
 416:Drivers/lvgl/src/draw/sw/lv_draw_sw.c ****             lv_draw_sw_triangle(t, t->draw_dsc);
 417:Drivers/lvgl/src/draw/sw/lv_draw_sw.c ****             break;
 418:Drivers/lvgl/src/draw/sw/lv_draw_sw.c ****         case LV_DRAW_TASK_TYPE_LAYER:
 419:Drivers/lvgl/src/draw/sw/lv_draw_sw.c ****             lv_draw_sw_layer(t, t->draw_dsc, &t->area);
 420:Drivers/lvgl/src/draw/sw/lv_draw_sw.c ****             break;
 421:Drivers/lvgl/src/draw/sw/lv_draw_sw.c ****         case LV_DRAW_TASK_TYPE_MASK_RECTANGLE:
 422:Drivers/lvgl/src/draw/sw/lv_draw_sw.c ****             lv_draw_sw_mask_rect(t, t->draw_dsc);
 423:Drivers/lvgl/src/draw/sw/lv_draw_sw.c ****             break;
 424:Drivers/lvgl/src/draw/sw/lv_draw_sw.c **** #if LV_USE_VECTOR_GRAPHIC && LV_USE_THORVG
 425:Drivers/lvgl/src/draw/sw/lv_draw_sw.c ****         case LV_DRAW_TASK_TYPE_VECTOR:
 426:Drivers/lvgl/src/draw/sw/lv_draw_sw.c ****             lv_draw_sw_vector(t, t->draw_dsc);
 427:Drivers/lvgl/src/draw/sw/lv_draw_sw.c ****             break;
 428:Drivers/lvgl/src/draw/sw/lv_draw_sw.c **** #endif
 429:Drivers/lvgl/src/draw/sw/lv_draw_sw.c ****         default:
 430:Drivers/lvgl/src/draw/sw/lv_draw_sw.c ****             break;
 431:Drivers/lvgl/src/draw/sw/lv_draw_sw.c ****     }
 432:Drivers/lvgl/src/draw/sw/lv_draw_sw.c **** 
 433:Drivers/lvgl/src/draw/sw/lv_draw_sw.c **** 
 434:Drivers/lvgl/src/draw/sw/lv_draw_sw.c ****     LV_PROFILER_DRAW_END;
 435:Drivers/lvgl/src/draw/sw/lv_draw_sw.c **** }
 159              		.loc 1 435 1 is_stmt 0 view .LVU39
 160 0026 08BD     		pop	{r3, pc}
 161              	.LVL8:
 162              	.L19:
 392:Drivers/lvgl/src/draw/sw/lv_draw_sw.c ****             break;
 163              		.loc 1 392 13 is_stmt 1 view .LVU40
 164 0028 00F10802 		add	r2, r0, #8
 165 002c 416D     		ldr	r1, [r0, #84]
 166 002e FFF7FEFF 		bl	lv_draw_sw_border
 167              	.LVL9:
 393:Drivers/lvgl/src/draw/sw/lv_draw_sw.c ****         case LV_DRAW_TASK_TYPE_BOX_SHADOW:
 168              		.loc 1 393 13 view .LVU41
 169 0032 F8E7     		b	.L6
 170              	.LVL10:
 171              	.L18:
 395:Drivers/lvgl/src/draw/sw/lv_draw_sw.c ****             break;
 172              		.loc 1 395 13 view .LVU42
 173 0034 00F10802 		add	r2, r0, #8
 174 0038 416D     		ldr	r1, [r0, #84]
 175 003a FFF7FEFF 		bl	lv_draw_sw_box_shadow
ARM GAS  /var/folders/qx/2_175_4n2s19vhvtspjhb3qh0000gn/T//ccYBRO69.s 			page 12


 176              	.LVL11:
 396:Drivers/lvgl/src/draw/sw/lv_draw_sw.c ****         case LV_DRAW_TASK_TYPE_LETTER:
 177              		.loc 1 396 13 view .LVU43
 178 003e F2E7     		b	.L6
 179              	.LVL12:
 180              	.L17:
 398:Drivers/lvgl/src/draw/sw/lv_draw_sw.c ****             break;
 181              		.loc 1 398 13 view .LVU44
 182 0040 00F10802 		add	r2, r0, #8
 183 0044 416D     		ldr	r1, [r0, #84]
 184 0046 FFF7FEFF 		bl	lv_draw_sw_letter
 185              	.LVL13:
 399:Drivers/lvgl/src/draw/sw/lv_draw_sw.c ****         case LV_DRAW_TASK_TYPE_LABEL:
 186              		.loc 1 399 13 view .LVU45
 187 004a ECE7     		b	.L6
 188              	.LVL14:
 189              	.L16:
 401:Drivers/lvgl/src/draw/sw/lv_draw_sw.c ****             break;
 190              		.loc 1 401 13 view .LVU46
 191 004c 00F10802 		add	r2, r0, #8
 192 0050 416D     		ldr	r1, [r0, #84]
 193 0052 FFF7FEFF 		bl	lv_draw_sw_label
 194              	.LVL15:
 402:Drivers/lvgl/src/draw/sw/lv_draw_sw.c ****         case LV_DRAW_TASK_TYPE_IMAGE:
 195              		.loc 1 402 13 view .LVU47
 196 0056 E6E7     		b	.L6
 197              	.LVL16:
 198              	.L15:
 404:Drivers/lvgl/src/draw/sw/lv_draw_sw.c ****             break;
 199              		.loc 1 404 13 view .LVU48
 200 0058 00F10802 		add	r2, r0, #8
 201 005c 416D     		ldr	r1, [r0, #84]
 202 005e FFF7FEFF 		bl	lv_draw_sw_image
 203              	.LVL17:
 405:Drivers/lvgl/src/draw/sw/lv_draw_sw.c ****         case LV_DRAW_TASK_TYPE_ARC:
 204              		.loc 1 405 13 view .LVU49
 205 0062 E0E7     		b	.L6
 206              	.LVL18:
 207              	.L12:
 407:Drivers/lvgl/src/draw/sw/lv_draw_sw.c ****             break;
 208              		.loc 1 407 13 view .LVU50
 209 0064 00F10802 		add	r2, r0, #8
 210 0068 416D     		ldr	r1, [r0, #84]
 211 006a FFF7FEFF 		bl	lv_draw_sw_arc
 212              	.LVL19:
 408:Drivers/lvgl/src/draw/sw/lv_draw_sw.c ****         case LV_DRAW_TASK_TYPE_LINE:
 213              		.loc 1 408 13 view .LVU51
 214 006e DAE7     		b	.L6
 215              	.LVL20:
 216              	.L13:
 410:Drivers/lvgl/src/draw/sw/lv_draw_sw.c ****             break;
 217              		.loc 1 410 13 view .LVU52
 218 0070 416D     		ldr	r1, [r0, #84]
 219 0072 FFF7FEFF 		bl	lv_draw_sw_line
 220              	.LVL21:
 411:Drivers/lvgl/src/draw/sw/lv_draw_sw.c ****         case LV_DRAW_TASK_TYPE_BLUR:
 221              		.loc 1 411 13 view .LVU53
ARM GAS  /var/folders/qx/2_175_4n2s19vhvtspjhb3qh0000gn/T//ccYBRO69.s 			page 13


 222 0076 D6E7     		b	.L6
 223              	.LVL22:
 224              	.L8:
 413:Drivers/lvgl/src/draw/sw/lv_draw_sw.c ****             break;
 225              		.loc 1 413 13 view .LVU54
 226 0078 00F10802 		add	r2, r0, #8
 227 007c 416D     		ldr	r1, [r0, #84]
 228 007e FFF7FEFF 		bl	lv_draw_sw_blur
 229              	.LVL23:
 414:Drivers/lvgl/src/draw/sw/lv_draw_sw.c ****         case LV_DRAW_TASK_TYPE_TRIANGLE:
 230              		.loc 1 414 13 view .LVU55
 231 0082 D0E7     		b	.L6
 232              	.LVL24:
 233              	.L11:
 416:Drivers/lvgl/src/draw/sw/lv_draw_sw.c ****             break;
 234              		.loc 1 416 13 view .LVU56
 235 0084 416D     		ldr	r1, [r0, #84]
 236 0086 FFF7FEFF 		bl	lv_draw_sw_triangle
 237              	.LVL25:
 417:Drivers/lvgl/src/draw/sw/lv_draw_sw.c ****         case LV_DRAW_TASK_TYPE_LAYER:
 238              		.loc 1 417 13 view .LVU57
 239 008a CCE7     		b	.L6
 240              	.LVL26:
 241              	.L14:
 419:Drivers/lvgl/src/draw/sw/lv_draw_sw.c ****             break;
 242              		.loc 1 419 13 view .LVU58
 243 008c 00F10802 		add	r2, r0, #8
 244 0090 416D     		ldr	r1, [r0, #84]
 245 0092 FFF7FEFF 		bl	lv_draw_sw_layer
 246              	.LVL27:
 420:Drivers/lvgl/src/draw/sw/lv_draw_sw.c ****         case LV_DRAW_TASK_TYPE_MASK_RECTANGLE:
 247              		.loc 1 420 13 view .LVU59
 248 0096 C6E7     		b	.L6
 249              	.LVL28:
 250              	.L10:
 422:Drivers/lvgl/src/draw/sw/lv_draw_sw.c ****             break;
 251              		.loc 1 422 13 view .LVU60
 252 0098 416D     		ldr	r1, [r0, #84]
 253 009a FFF7FEFF 		bl	lv_draw_sw_mask_rect
 254              	.LVL29:
 423:Drivers/lvgl/src/draw/sw/lv_draw_sw.c **** #if LV_USE_VECTOR_GRAPHIC && LV_USE_THORVG
 255              		.loc 1 423 13 view .LVU61
 434:Drivers/lvgl/src/draw/sw/lv_draw_sw.c **** }
 256              		.loc 1 434 25 view .LVU62
 257              		.loc 1 435 1 is_stmt 0 view .LVU63
 258 009e C2E7     		b	.L6
 259              		.cfi_endproc
 260              	.LFE201:
 262              		.section	.text.dispatch,"ax",%progbits
 263              		.align	1
 264              		.syntax unified
 265              		.thumb
 266              		.thumb_func
 268              	dispatch:
 269              	.LVL30:
 270              	.LFB200:
 251:Drivers/lvgl/src/draw/sw/lv_draw_sw.c ****     LV_PROFILER_DRAW_BEGIN;
ARM GAS  /var/folders/qx/2_175_4n2s19vhvtspjhb3qh0000gn/T//ccYBRO69.s 			page 14


 271              		.loc 1 251 1 is_stmt 1 view -0
 272              		.cfi_startproc
 273              		@ args = 0, pretend = 0, frame = 0
 274              		@ frame_needed = 0, uses_anonymous_args = 0
 252:Drivers/lvgl/src/draw/sw/lv_draw_sw.c ****     lv_draw_sw_unit_t * draw_sw_unit = (lv_draw_sw_unit_t *) draw_unit;
 275              		.loc 1 252 27 view .LVU65
 253:Drivers/lvgl/src/draw/sw/lv_draw_sw.c **** 
 276              		.loc 1 253 5 view .LVU66
 310:Drivers/lvgl/src/draw/sw/lv_draw_sw.c ****         LV_PROFILER_DRAW_END;
 277              		.loc 1 310 5 view .LVU67
 310:Drivers/lvgl/src/draw/sw/lv_draw_sw.c ****         LV_PROFILER_DRAW_END;
 278              		.loc 1 310 20 is_stmt 0 view .LVU68
 279 0000 036A     		ldr	r3, [r0, #32]
 310:Drivers/lvgl/src/draw/sw/lv_draw_sw.c ****         LV_PROFILER_DRAW_END;
 280              		.loc 1 310 7 view .LVU69
 281 0002 0BB1     		cbz	r3, .L32
 312:Drivers/lvgl/src/draw/sw/lv_draw_sw.c ****     }
 282              		.loc 1 312 16 view .LVU70
 283 0004 0020     		movs	r0, #0
 284              	.LVL31:
 342:Drivers/lvgl/src/draw/sw/lv_draw_sw.c **** 
 285              		.loc 1 342 1 view .LVU71
 286 0006 7047     		bx	lr
 287              	.LVL32:
 288              	.L32:
 251:Drivers/lvgl/src/draw/sw/lv_draw_sw.c ****     LV_PROFILER_DRAW_BEGIN;
 289              		.loc 1 251 1 view .LVU72
 290 0008 70B5     		push	{r4, r5, r6, lr}
 291              	.LCFI1:
 292              		.cfi_def_cfa_offset 16
 293              		.cfi_offset 4, -16
 294              		.cfi_offset 5, -12
 295              		.cfi_offset 6, -8
 296              		.cfi_offset 14, -4
 297 000a 0446     		mov	r4, r0
 298 000c 0D46     		mov	r5, r1
 315:Drivers/lvgl/src/draw/sw/lv_draw_sw.c ****     t = lv_draw_get_available_task(layer, NULL, DRAW_UNIT_ID_SW);
 299              		.loc 1 315 5 is_stmt 1 view .LVU73
 300              	.LVL33:
 316:Drivers/lvgl/src/draw/sw/lv_draw_sw.c ****     if(t == NULL) {
 301              		.loc 1 316 5 view .LVU74
 316:Drivers/lvgl/src/draw/sw/lv_draw_sw.c ****     if(t == NULL) {
 302              		.loc 1 316 9 is_stmt 0 view .LVU75
 303 000e 0122     		movs	r2, #1
 304 0010 0021     		movs	r1, #0
 305              	.LVL34:
 316:Drivers/lvgl/src/draw/sw/lv_draw_sw.c ****     if(t == NULL) {
 306              		.loc 1 316 9 view .LVU76
 307 0012 2846     		mov	r0, r5
 308              	.LVL35:
 316:Drivers/lvgl/src/draw/sw/lv_draw_sw.c ****     if(t == NULL) {
 309              		.loc 1 316 9 view .LVU77
 310 0014 FFF7FEFF 		bl	lv_draw_get_available_task
 311              	.LVL36:
 317:Drivers/lvgl/src/draw/sw/lv_draw_sw.c ****         LV_PROFILER_DRAW_END;
 312              		.loc 1 317 5 is_stmt 1 view .LVU78
 317:Drivers/lvgl/src/draw/sw/lv_draw_sw.c ****         LV_PROFILER_DRAW_END;
ARM GAS  /var/folders/qx/2_175_4n2s19vhvtspjhb3qh0000gn/T//ccYBRO69.s 			page 15


 313              		.loc 1 317 7 is_stmt 0 view .LVU79
 314 0018 0646     		mov	r6, r0
 315 001a 90B1     		cbz	r0, .L26
 322:Drivers/lvgl/src/draw/sw/lv_draw_sw.c ****     if(buf == NULL) {
 316              		.loc 1 322 5 is_stmt 1 view .LVU80
 322:Drivers/lvgl/src/draw/sw/lv_draw_sw.c ****     if(buf == NULL) {
 317              		.loc 1 322 18 is_stmt 0 view .LVU81
 318 001c 2846     		mov	r0, r5
 319              	.LVL37:
 322:Drivers/lvgl/src/draw/sw/lv_draw_sw.c ****     if(buf == NULL) {
 320              		.loc 1 322 18 view .LVU82
 321 001e FFF7FEFF 		bl	lv_draw_layer_alloc_buf
 322              	.LVL38:
 323:Drivers/lvgl/src/draw/sw/lv_draw_sw.c ****         LV_PROFILER_DRAW_END;
 323              		.loc 1 323 5 is_stmt 1 view .LVU83
 323:Drivers/lvgl/src/draw/sw/lv_draw_sw.c ****         LV_PROFILER_DRAW_END;
 324              		.loc 1 323 7 is_stmt 0 view .LVU84
 325 0022 88B1     		cbz	r0, .L27
 328:Drivers/lvgl/src/draw/sw/lv_draw_sw.c ****     draw_sw_unit->task_act = t;
 326              		.loc 1 328 5 is_stmt 1 view .LVU85
 328:Drivers/lvgl/src/draw/sw/lv_draw_sw.c ****     draw_sw_unit->task_act = t;
 327              		.loc 1 328 14 is_stmt 0 view .LVU86
 328 0024 0323     		movs	r3, #3
 329 0026 3365     		str	r3, [r6, #80]
 329:Drivers/lvgl/src/draw/sw/lv_draw_sw.c **** 
 330              		.loc 1 329 5 is_stmt 1 view .LVU87
 329:Drivers/lvgl/src/draw/sw/lv_draw_sw.c **** 
 331              		.loc 1 329 28 is_stmt 0 view .LVU88
 332 0028 2662     		str	r6, [r4, #32]
 331:Drivers/lvgl/src/draw/sw/lv_draw_sw.c ****     draw_sw_unit->task_act->state = LV_DRAW_TASK_STATE_FINISHED;
 333              		.loc 1 331 5 is_stmt 1 view .LVU89
 334 002a 3046     		mov	r0, r6
 335              	.LVL39:
 331:Drivers/lvgl/src/draw/sw/lv_draw_sw.c ****     draw_sw_unit->task_act->state = LV_DRAW_TASK_STATE_FINISHED;
 336              		.loc 1 331 5 is_stmt 0 view .LVU90
 337 002c FFF7FEFF 		bl	execute_drawing
 338              	.LVL40:
 332:Drivers/lvgl/src/draw/sw/lv_draw_sw.c ****     draw_sw_unit->task_act = NULL;
 339              		.loc 1 332 5 is_stmt 1 view .LVU91
 332:Drivers/lvgl/src/draw/sw/lv_draw_sw.c ****     draw_sw_unit->task_act = NULL;
 340              		.loc 1 332 17 is_stmt 0 view .LVU92
 341 0030 236A     		ldr	r3, [r4, #32]
 332:Drivers/lvgl/src/draw/sw/lv_draw_sw.c ****     draw_sw_unit->task_act = NULL;
 342              		.loc 1 332 35 view .LVU93
 343 0032 0422     		movs	r2, #4
 344 0034 1A65     		str	r2, [r3, #80]
 333:Drivers/lvgl/src/draw/sw/lv_draw_sw.c **** 
 345              		.loc 1 333 5 is_stmt 1 view .LVU94
 333:Drivers/lvgl/src/draw/sw/lv_draw_sw.c **** 
 346              		.loc 1 333 28 is_stmt 0 view .LVU95
 347 0036 0023     		movs	r3, #0
 348 0038 2362     		str	r3, [r4, #32]
 336:Drivers/lvgl/src/draw/sw/lv_draw_sw.c **** 
 349              		.loc 1 336 5 is_stmt 1 view .LVU96
 350 003a FFF7FEFF 		bl	lv_draw_dispatch_request
 351              	.LVL41:
 338:Drivers/lvgl/src/draw/sw/lv_draw_sw.c ****     return 1;
ARM GAS  /var/folders/qx/2_175_4n2s19vhvtspjhb3qh0000gn/T//ccYBRO69.s 			page 16


 352              		.loc 1 338 25 view .LVU97
 339:Drivers/lvgl/src/draw/sw/lv_draw_sw.c **** #endif
 353              		.loc 1 339 5 view .LVU98
 339:Drivers/lvgl/src/draw/sw/lv_draw_sw.c **** #endif
 354              		.loc 1 339 12 is_stmt 0 view .LVU99
 355 003e 0120     		movs	r0, #1
 356              	.LVL42:
 357              	.L23:
 342:Drivers/lvgl/src/draw/sw/lv_draw_sw.c **** 
 358              		.loc 1 342 1 view .LVU100
 359 0040 70BD     		pop	{r4, r5, r6, pc}
 360              	.LVL43:
 361              	.L26:
 319:Drivers/lvgl/src/draw/sw/lv_draw_sw.c ****     }
 362              		.loc 1 319 16 view .LVU101
 363 0042 4FF0FF30 		mov	r0, #-1
 364              	.LVL44:
 319:Drivers/lvgl/src/draw/sw/lv_draw_sw.c ****     }
 365              		.loc 1 319 16 view .LVU102
 366 0046 FBE7     		b	.L23
 367              	.LVL45:
 368              	.L27:
 325:Drivers/lvgl/src/draw/sw/lv_draw_sw.c ****     }
 369              		.loc 1 325 16 view .LVU103
 370 0048 4FF0FF30 		mov	r0, #-1
 371              	.LVL46:
 325:Drivers/lvgl/src/draw/sw/lv_draw_sw.c ****     }
 372              		.loc 1 325 16 view .LVU104
 373 004c F8E7     		b	.L23
 374              		.cfi_endproc
 375              	.LFE200:
 377              		.section	.rodata.lv_draw_sw_init.str1.4,"aMS",%progbits,1
 378              		.align	2
 379              	.LC0:
 380 0000 535700   		.ascii	"SW\000"
 381              		.section	.text.lv_draw_sw_init,"ax",%progbits
 382              		.align	1
 383              		.global	lv_draw_sw_init
 384              		.syntax unified
 385              		.thumb
 386              		.thumb_func
 388              	lv_draw_sw_init:
 389              	.LFB193:
  76:Drivers/lvgl/src/draw/sw/lv_draw_sw.c **** 
 390              		.loc 1 76 1 is_stmt 1 view -0
 391              		.cfi_startproc
 392              		@ args = 0, pretend = 0, frame = 0
 393              		@ frame_needed = 0, uses_anonymous_args = 0
 394 0000 08B5     		push	{r3, lr}
 395              	.LCFI2:
 396              		.cfi_def_cfa_offset 8
 397              		.cfi_offset 3, -8
 398              		.cfi_offset 14, -4
  79:Drivers/lvgl/src/draw/sw/lv_draw_sw.c **** #endif
 399              		.loc 1 79 5 view .LVU106
 400 0002 FFF7FEFF 		bl	lv_draw_sw_mask_init
 401              	.LVL47:
ARM GAS  /var/folders/qx/2_175_4n2s19vhvtspjhb3qh0000gn/T//ccYBRO69.s 			page 17


  82:Drivers/lvgl/src/draw/sw/lv_draw_sw.c ****     draw_sw_unit->base_unit.dispatch_cb = dispatch;
 402              		.loc 1 82 5 view .LVU107
  82:Drivers/lvgl/src/draw/sw/lv_draw_sw.c ****     draw_sw_unit->base_unit.dispatch_cb = dispatch;
 403              		.loc 1 82 40 is_stmt 0 view .LVU108
 404 0006 2420     		movs	r0, #36
 405 0008 FFF7FEFF 		bl	lv_draw_create_unit
 406              	.LVL48:
  83:Drivers/lvgl/src/draw/sw/lv_draw_sw.c ****     draw_sw_unit->base_unit.evaluate_cb = evaluate;
 407              		.loc 1 83 5 is_stmt 1 view .LVU109
  83:Drivers/lvgl/src/draw/sw/lv_draw_sw.c ****     draw_sw_unit->base_unit.evaluate_cb = evaluate;
 408              		.loc 1 83 41 is_stmt 0 view .LVU110
 409 000c 064B     		ldr	r3, .L35
 410 000e C360     		str	r3, [r0, #12]
  84:Drivers/lvgl/src/draw/sw/lv_draw_sw.c ****     draw_sw_unit->base_unit.delete_cb = LV_USE_OS ? lv_draw_sw_delete : NULL;
 411              		.loc 1 84 5 is_stmt 1 view .LVU111
  84:Drivers/lvgl/src/draw/sw/lv_draw_sw.c ****     draw_sw_unit->base_unit.delete_cb = LV_USE_OS ? lv_draw_sw_delete : NULL;
 412              		.loc 1 84 41 is_stmt 0 view .LVU112
 413 0010 064B     		ldr	r3, .L35+4
 414 0012 0361     		str	r3, [r0, #16]
  85:Drivers/lvgl/src/draw/sw/lv_draw_sw.c **** #if LV_USE_DRAW_ARM2D_SYNC
 415              		.loc 1 85 5 is_stmt 1 view .LVU113
  85:Drivers/lvgl/src/draw/sw/lv_draw_sw.c **** #if LV_USE_DRAW_ARM2D_SYNC
 416              		.loc 1 85 39 is_stmt 0 view .LVU114
 417 0014 0023     		movs	r3, #0
 418 0016 8361     		str	r3, [r0, #24]
  89:Drivers/lvgl/src/draw/sw/lv_draw_sw.c **** #endif
 419              		.loc 1 89 5 is_stmt 1 view .LVU115
  89:Drivers/lvgl/src/draw/sw/lv_draw_sw.c **** #endif
 420              		.loc 1 89 34 is_stmt 0 view .LVU116
 421 0018 054B     		ldr	r3, .L35+8
 422 001a 4360     		str	r3, [r0, #4]
 112:Drivers/lvgl/src/draw/sw/lv_draw_sw.c **** }
 423              		.loc 1 112 5 is_stmt 1 view .LVU117
 424 001c 0821     		movs	r1, #8
 425 001e 0548     		ldr	r0, .L35+12
 426              	.LVL49:
 112:Drivers/lvgl/src/draw/sw/lv_draw_sw.c **** }
 427              		.loc 1 112 5 is_stmt 0 view .LVU118
 428 0020 FFF7FEFF 		bl	lv_ll_init
 429              	.LVL50:
 113:Drivers/lvgl/src/draw/sw/lv_draw_sw.c **** 
 430              		.loc 1 113 1 view .LVU119
 431 0024 08BD     		pop	{r3, pc}
 432              	.L36:
 433 0026 00BF     		.align	2
 434              	.L35:
 435 0028 00000000 		.word	dispatch
 436 002c 00000000 		.word	evaluate
 437 0030 00000000 		.word	.LC0
 438 0034 4C010000 		.word	lv_global+332
 439              		.cfi_endproc
 440              	.LFE193:
 442              		.section	.text.lv_draw_sw_deinit,"ax",%progbits
 443              		.align	1
 444              		.global	lv_draw_sw_deinit
 445              		.syntax unified
 446              		.thumb
ARM GAS  /var/folders/qx/2_175_4n2s19vhvtspjhb3qh0000gn/T//ccYBRO69.s 			page 18


 447              		.thumb_func
 449              	lv_draw_sw_deinit:
 450              	.LFB194:
 116:Drivers/lvgl/src/draw/sw/lv_draw_sw.c **** #if LV_USE_VECTOR_GRAPHIC && LV_USE_THORVG
 451              		.loc 1 116 1 is_stmt 1 view -0
 452              		.cfi_startproc
 453              		@ args = 0, pretend = 0, frame = 0
 454              		@ frame_needed = 0, uses_anonymous_args = 0
 455 0000 08B5     		push	{r3, lr}
 456              	.LCFI3:
 457              		.cfi_def_cfa_offset 8
 458              		.cfi_offset 3, -8
 459              		.cfi_offset 14, -4
 122:Drivers/lvgl/src/draw/sw/lv_draw_sw.c **** #endif
 460              		.loc 1 122 5 view .LVU121
 461 0002 FFF7FEFF 		bl	lv_draw_sw_mask_deinit
 462              	.LVL51:
 124:Drivers/lvgl/src/draw/sw/lv_draw_sw.c **** 
 463              		.loc 1 124 1 is_stmt 0 view .LVU122
 464 0006 08BD     		pop	{r3, pc}
 465              		.cfi_endproc
 466              	.LFE194:
 468              		.section	.text.lv_draw_sw_register_blend_handler,"ax",%progbits
 469              		.align	1
 470              		.global	lv_draw_sw_register_blend_handler
 471              		.syntax unified
 472              		.thumb
 473              		.thumb_func
 475              	lv_draw_sw_register_blend_handler:
 476              	.LVL52:
 477              	.LFB196:
 152:Drivers/lvgl/src/draw/sw/lv_draw_sw.c ****     lv_draw_sw_custom_blend_handler_t * existing_handler = NULL;
 478              		.loc 1 152 1 is_stmt 1 view -0
 479              		.cfi_startproc
 480              		@ args = 0, pretend = 0, frame = 0
 481              		@ frame_needed = 0, uses_anonymous_args = 0
 152:Drivers/lvgl/src/draw/sw/lv_draw_sw.c ****     lv_draw_sw_custom_blend_handler_t * existing_handler = NULL;
 482              		.loc 1 152 1 is_stmt 0 view .LVU124
 483 0000 10B5     		push	{r4, lr}
 484              	.LCFI4:
 485              		.cfi_def_cfa_offset 8
 486              		.cfi_offset 4, -8
 487              		.cfi_offset 14, -4
 488 0002 0446     		mov	r4, r0
 153:Drivers/lvgl/src/draw/sw/lv_draw_sw.c ****     lv_draw_sw_custom_blend_handler_t * new_handler = NULL;
 489              		.loc 1 153 5 is_stmt 1 view .LVU125
 490              	.LVL53:
 154:Drivers/lvgl/src/draw/sw/lv_draw_sw.c **** 
 491              		.loc 1 154 5 view .LVU126
 157:Drivers/lvgl/src/draw/sw/lv_draw_sw.c ****         if(existing_handler->dest_cf == handler->dest_cf) {
 492              		.loc 1 157 5 view .LVU127
 493 0004 0C48     		ldr	r0, .L48
 494              	.LVL54:
 157:Drivers/lvgl/src/draw/sw/lv_draw_sw.c ****         if(existing_handler->dest_cf == handler->dest_cf) {
 495              		.loc 1 157 5 is_stmt 0 view .LVU128
 496 0006 FFF7FEFF 		bl	lv_ll_get_head
 497              	.LVL55:
ARM GAS  /var/folders/qx/2_175_4n2s19vhvtspjhb3qh0000gn/T//ccYBRO69.s 			page 19


 157:Drivers/lvgl/src/draw/sw/lv_draw_sw.c ****         if(existing_handler->dest_cf == handler->dest_cf) {
 498              		.loc 1 157 5 view .LVU129
 499 000a 03E0     		b	.L40
 500              	.L46:
 157:Drivers/lvgl/src/draw/sw/lv_draw_sw.c ****         if(existing_handler->dest_cf == handler->dest_cf) {
 501              		.loc 1 157 5 is_stmt 1 discriminator 2 view .LVU130
 502 000c 0146     		mov	r1, r0
 503 000e 0A48     		ldr	r0, .L48
 504              	.LVL56:
 157:Drivers/lvgl/src/draw/sw/lv_draw_sw.c ****         if(existing_handler->dest_cf == handler->dest_cf) {
 505              		.loc 1 157 5 is_stmt 0 discriminator 2 view .LVU131
 506 0010 FFF7FEFF 		bl	lv_ll_get_next
 507              	.LVL57:
 508              	.L40:
 157:Drivers/lvgl/src/draw/sw/lv_draw_sw.c ****         if(existing_handler->dest_cf == handler->dest_cf) {
 509              		.loc 1 157 5 is_stmt 1 discriminator 1 view .LVU132
 510 0014 18B1     		cbz	r0, .L41
 158:Drivers/lvgl/src/draw/sw/lv_draw_sw.c ****             new_handler = existing_handler;
 511              		.loc 1 158 9 view .LVU133
 158:Drivers/lvgl/src/draw/sw/lv_draw_sw.c ****             new_handler = existing_handler;
 512              		.loc 1 158 28 is_stmt 0 view .LVU134
 513 0016 0278     		ldrb	r2, [r0]	@ zero_extendqisi2
 158:Drivers/lvgl/src/draw/sw/lv_draw_sw.c ****             new_handler = existing_handler;
 514              		.loc 1 158 48 view .LVU135
 515 0018 2378     		ldrb	r3, [r4]	@ zero_extendqisi2
 158:Drivers/lvgl/src/draw/sw/lv_draw_sw.c ****             new_handler = existing_handler;
 516              		.loc 1 158 11 view .LVU136
 517 001a 9A42     		cmp	r2, r3
 518 001c F6D1     		bne	.L46
 519              	.L41:
 520              	.LVL58:
 164:Drivers/lvgl/src/draw/sw/lv_draw_sw.c ****         new_handler = lv_ll_ins_head(&LV_GLOBAL_DEFAULT()->draw_sw_blend_handler_ll);
 521              		.loc 1 164 5 is_stmt 1 view .LVU137
 164:Drivers/lvgl/src/draw/sw/lv_draw_sw.c ****         new_handler = lv_ll_ins_head(&LV_GLOBAL_DEFAULT()->draw_sw_blend_handler_ll);
 522              		.loc 1 164 7 is_stmt 0 view .LVU138
 523 001e 28B1     		cbz	r0, .L47
 524              	.LVL59:
 525              	.L43:
 172:Drivers/lvgl/src/draw/sw/lv_draw_sw.c ****     return true;
 526              		.loc 1 172 5 is_stmt 1 view .LVU139
 527 0020 0822     		movs	r2, #8
 528 0022 2146     		mov	r1, r4
 529 0024 FFF7FEFF 		bl	lv_memcpy
 530              	.LVL60:
 173:Drivers/lvgl/src/draw/sw/lv_draw_sw.c **** }
 531              		.loc 1 173 5 view .LVU140
 174:Drivers/lvgl/src/draw/sw/lv_draw_sw.c **** 
 532              		.loc 1 174 1 is_stmt 0 view .LVU141
 533 0028 0120     		movs	r0, #1
 534 002a 10BD     		pop	{r4, pc}
 535              	.LVL61:
 536              	.L47:
 165:Drivers/lvgl/src/draw/sw/lv_draw_sw.c ****         if(new_handler == NULL) {
 537              		.loc 1 165 9 is_stmt 1 view .LVU142
 165:Drivers/lvgl/src/draw/sw/lv_draw_sw.c ****         if(new_handler == NULL) {
 538              		.loc 1 165 23 is_stmt 0 view .LVU143
 539 002c 0248     		ldr	r0, .L48
ARM GAS  /var/folders/qx/2_175_4n2s19vhvtspjhb3qh0000gn/T//ccYBRO69.s 			page 20


 540              	.LVL62:
 165:Drivers/lvgl/src/draw/sw/lv_draw_sw.c ****         if(new_handler == NULL) {
 541              		.loc 1 165 23 view .LVU144
 542 002e FFF7FEFF 		bl	lv_ll_ins_head
 543              	.LVL63:
 166:Drivers/lvgl/src/draw/sw/lv_draw_sw.c ****             LV_ASSERT_MALLOC(new_handler);
 544              		.loc 1 166 9 is_stmt 1 view .LVU145
 166:Drivers/lvgl/src/draw/sw/lv_draw_sw.c ****             LV_ASSERT_MALLOC(new_handler);
 545              		.loc 1 166 11 is_stmt 0 view .LVU146
 546 0032 0028     		cmp	r0, #0
 547 0034 F4D1     		bne	.L43
 548              	.L44:
 167:Drivers/lvgl/src/draw/sw/lv_draw_sw.c ****             return false;
 549              		.loc 1 167 13 is_stmt 1 view .LVU147
 167:Drivers/lvgl/src/draw/sw/lv_draw_sw.c ****             return false;
 550              		.loc 1 167 13 view .LVU148
 167:Drivers/lvgl/src/draw/sw/lv_draw_sw.c ****             return false;
 551              		.loc 1 167 13 view .LVU149
 167:Drivers/lvgl/src/draw/sw/lv_draw_sw.c ****             return false;
 552              		.loc 1 167 13 view .LVU150
 167:Drivers/lvgl/src/draw/sw/lv_draw_sw.c ****             return false;
 553              		.loc 1 167 13 view .LVU151
 554 0036 FEE7     		b	.L44
 555              	.L49:
 556              		.align	2
 557              	.L48:
 558 0038 4C010000 		.word	lv_global+332
 559              		.cfi_endproc
 560              	.LFE196:
 562              		.section	.text.lv_draw_sw_unregister_blend_handler,"ax",%progbits
 563              		.align	1
 564              		.global	lv_draw_sw_unregister_blend_handler
 565              		.syntax unified
 566              		.thumb
 567              		.thumb_func
 569              	lv_draw_sw_unregister_blend_handler:
 570              	.LVL64:
 571              	.LFB197:
 177:Drivers/lvgl/src/draw/sw/lv_draw_sw.c ****     lv_draw_sw_custom_blend_handler_t * handler;
 572              		.loc 1 177 1 view -0
 573              		.cfi_startproc
 574              		@ args = 0, pretend = 0, frame = 0
 575              		@ frame_needed = 0, uses_anonymous_args = 0
 177:Drivers/lvgl/src/draw/sw/lv_draw_sw.c ****     lv_draw_sw_custom_blend_handler_t * handler;
 576              		.loc 1 177 1 is_stmt 0 view .LVU153
 577 0000 38B5     		push	{r3, r4, r5, lr}
 578              	.LCFI5:
 579              		.cfi_def_cfa_offset 16
 580              		.cfi_offset 3, -16
 581              		.cfi_offset 4, -12
 582              		.cfi_offset 5, -8
 583              		.cfi_offset 14, -4
 584 0002 0546     		mov	r5, r0
 178:Drivers/lvgl/src/draw/sw/lv_draw_sw.c **** 
 585              		.loc 1 178 5 is_stmt 1 view .LVU154
 180:Drivers/lvgl/src/draw/sw/lv_draw_sw.c ****         if(handler->dest_cf == dest_cf) {
 586              		.loc 1 180 5 view .LVU155
ARM GAS  /var/folders/qx/2_175_4n2s19vhvtspjhb3qh0000gn/T//ccYBRO69.s 			page 21


 587 0004 0C48     		ldr	r0, .L57
 588              	.LVL65:
 180:Drivers/lvgl/src/draw/sw/lv_draw_sw.c ****         if(handler->dest_cf == dest_cf) {
 589              		.loc 1 180 5 is_stmt 0 view .LVU156
 590 0006 FFF7FEFF 		bl	lv_ll_get_head
 591              	.LVL66:
 592 000a 0446     		mov	r4, r0
 593              	.LVL67:
 180:Drivers/lvgl/src/draw/sw/lv_draw_sw.c ****         if(handler->dest_cf == dest_cf) {
 594              		.loc 1 180 5 view .LVU157
 595 000c 04E0     		b	.L51
 596              	.LVL68:
 597              	.L52:
 180:Drivers/lvgl/src/draw/sw/lv_draw_sw.c ****         if(handler->dest_cf == dest_cf) {
 598              		.loc 1 180 5 is_stmt 1 discriminator 2 view .LVU158
 599 000e 2146     		mov	r1, r4
 600 0010 0948     		ldr	r0, .L57
 601 0012 FFF7FEFF 		bl	lv_ll_get_next
 602              	.LVL69:
 603 0016 0446     		mov	r4, r0
 604              	.LVL70:
 605              	.L51:
 180:Drivers/lvgl/src/draw/sw/lv_draw_sw.c ****         if(handler->dest_cf == dest_cf) {
 606              		.loc 1 180 5 discriminator 1 view .LVU159
 607 0018 5CB1     		cbz	r4, .L56
 181:Drivers/lvgl/src/draw/sw/lv_draw_sw.c ****             lv_ll_remove(&LV_GLOBAL_DEFAULT()->draw_sw_blend_handler_ll, handler);
 608              		.loc 1 181 9 view .LVU160
 181:Drivers/lvgl/src/draw/sw/lv_draw_sw.c ****             lv_ll_remove(&LV_GLOBAL_DEFAULT()->draw_sw_blend_handler_ll, handler);
 609              		.loc 1 181 19 is_stmt 0 view .LVU161
 610 001a 2378     		ldrb	r3, [r4]	@ zero_extendqisi2
 181:Drivers/lvgl/src/draw/sw/lv_draw_sw.c ****             lv_ll_remove(&LV_GLOBAL_DEFAULT()->draw_sw_blend_handler_ll, handler);
 611              		.loc 1 181 11 view .LVU162
 612 001c AB42     		cmp	r3, r5
 613 001e F6D1     		bne	.L52
 182:Drivers/lvgl/src/draw/sw/lv_draw_sw.c ****             lv_free(handler);
 614              		.loc 1 182 13 is_stmt 1 view .LVU163
 615 0020 2146     		mov	r1, r4
 616 0022 0548     		ldr	r0, .L57
 617 0024 FFF7FEFF 		bl	lv_ll_remove
 618              	.LVL71:
 183:Drivers/lvgl/src/draw/sw/lv_draw_sw.c ****             return true;
 619              		.loc 1 183 13 view .LVU164
 620 0028 2046     		mov	r0, r4
 621 002a FFF7FEFF 		bl	lv_free
 622              	.LVL72:
 184:Drivers/lvgl/src/draw/sw/lv_draw_sw.c ****         }
 623              		.loc 1 184 13 view .LVU165
 184:Drivers/lvgl/src/draw/sw/lv_draw_sw.c ****         }
 624              		.loc 1 184 20 is_stmt 0 view .LVU166
 625 002e 0120     		movs	r0, #1
 626 0030 00E0     		b	.L53
 627              	.L56:
 188:Drivers/lvgl/src/draw/sw/lv_draw_sw.c **** }
 628              		.loc 1 188 12 view .LVU167
 629 0032 0020     		movs	r0, #0
 630              	.L53:
 189:Drivers/lvgl/src/draw/sw/lv_draw_sw.c **** 
ARM GAS  /var/folders/qx/2_175_4n2s19vhvtspjhb3qh0000gn/T//ccYBRO69.s 			page 22


 631              		.loc 1 189 1 view .LVU168
 632 0034 38BD     		pop	{r3, r4, r5, pc}
 633              	.LVL73:
 634              	.L58:
 189:Drivers/lvgl/src/draw/sw/lv_draw_sw.c **** 
 635              		.loc 1 189 1 view .LVU169
 636 0036 00BF     		.align	2
 637              	.L57:
 638 0038 4C010000 		.word	lv_global+332
 639              		.cfi_endproc
 640              	.LFE197:
 642              		.section	.text.lv_draw_sw_get_blend_handler,"ax",%progbits
 643              		.align	1
 644              		.global	lv_draw_sw_get_blend_handler
 645              		.syntax unified
 646              		.thumb
 647              		.thumb_func
 649              	lv_draw_sw_get_blend_handler:
 650              	.LVL74:
 651              	.LFB198:
 192:Drivers/lvgl/src/draw/sw/lv_draw_sw.c ****     lv_draw_sw_custom_blend_handler_t * handler;
 652              		.loc 1 192 1 is_stmt 1 view -0
 653              		.cfi_startproc
 654              		@ args = 0, pretend = 0, frame = 0
 655              		@ frame_needed = 0, uses_anonymous_args = 0
 192:Drivers/lvgl/src/draw/sw/lv_draw_sw.c ****     lv_draw_sw_custom_blend_handler_t * handler;
 656              		.loc 1 192 1 is_stmt 0 view .LVU171
 657 0000 10B5     		push	{r4, lr}
 658              	.LCFI6:
 659              		.cfi_def_cfa_offset 8
 660              		.cfi_offset 4, -8
 661              		.cfi_offset 14, -4
 662 0002 0446     		mov	r4, r0
 193:Drivers/lvgl/src/draw/sw/lv_draw_sw.c **** 
 663              		.loc 1 193 5 is_stmt 1 view .LVU172
 195:Drivers/lvgl/src/draw/sw/lv_draw_sw.c ****         if(handler->dest_cf == dest_cf) {
 664              		.loc 1 195 5 view .LVU173
 665 0004 0848     		ldr	r0, .L66
 666              	.LVL75:
 195:Drivers/lvgl/src/draw/sw/lv_draw_sw.c ****         if(handler->dest_cf == dest_cf) {
 667              		.loc 1 195 5 is_stmt 0 view .LVU174
 668 0006 FFF7FEFF 		bl	lv_ll_get_head
 669              	.LVL76:
 670 000a 0146     		mov	r1, r0
 671              	.LVL77:
 195:Drivers/lvgl/src/draw/sw/lv_draw_sw.c ****         if(handler->dest_cf == dest_cf) {
 672              		.loc 1 195 5 view .LVU175
 673 000c 03E0     		b	.L60
 674              	.LVL78:
 675              	.L61:
 195:Drivers/lvgl/src/draw/sw/lv_draw_sw.c ****         if(handler->dest_cf == dest_cf) {
 676              		.loc 1 195 5 is_stmt 1 discriminator 2 view .LVU176
 677 000e 0648     		ldr	r0, .L66
 678 0010 FFF7FEFF 		bl	lv_ll_get_next
 679              	.LVL79:
 195:Drivers/lvgl/src/draw/sw/lv_draw_sw.c ****         if(handler->dest_cf == dest_cf) {
 680              		.loc 1 195 5 is_stmt 0 discriminator 2 view .LVU177
ARM GAS  /var/folders/qx/2_175_4n2s19vhvtspjhb3qh0000gn/T//ccYBRO69.s 			page 23


 681 0014 0146     		mov	r1, r0
 682              	.LVL80:
 683              	.L60:
 195:Drivers/lvgl/src/draw/sw/lv_draw_sw.c ****         if(handler->dest_cf == dest_cf) {
 684              		.loc 1 195 5 is_stmt 1 discriminator 1 view .LVU178
 685 0016 21B1     		cbz	r1, .L65
 196:Drivers/lvgl/src/draw/sw/lv_draw_sw.c ****             return handler->handler;
 686              		.loc 1 196 9 view .LVU179
 196:Drivers/lvgl/src/draw/sw/lv_draw_sw.c ****             return handler->handler;
 687              		.loc 1 196 19 is_stmt 0 view .LVU180
 688 0018 0B78     		ldrb	r3, [r1]	@ zero_extendqisi2
 196:Drivers/lvgl/src/draw/sw/lv_draw_sw.c ****             return handler->handler;
 689              		.loc 1 196 11 view .LVU181
 690 001a A342     		cmp	r3, r4
 691 001c F7D1     		bne	.L61
 197:Drivers/lvgl/src/draw/sw/lv_draw_sw.c ****         }
 692              		.loc 1 197 13 is_stmt 1 view .LVU182
 197:Drivers/lvgl/src/draw/sw/lv_draw_sw.c ****         }
 693              		.loc 1 197 27 is_stmt 0 view .LVU183
 694 001e 4868     		ldr	r0, [r1, #4]
 695 0020 00E0     		b	.L59
 696              	.L65:
 201:Drivers/lvgl/src/draw/sw/lv_draw_sw.c **** }
 697              		.loc 1 201 12 view .LVU184
 698 0022 0020     		movs	r0, #0
 699              	.L59:
 202:Drivers/lvgl/src/draw/sw/lv_draw_sw.c **** 
 700              		.loc 1 202 1 view .LVU185
 701 0024 10BD     		pop	{r4, pc}
 702              	.LVL81:
 703              	.L67:
 202:Drivers/lvgl/src/draw/sw/lv_draw_sw.c **** 
 704              		.loc 1 202 1 view .LVU186
 705 0026 00BF     		.align	2
 706              	.L66:
 707 0028 4C010000 		.word	lv_global+332
 708              		.cfi_endproc
 709              	.LFE198:
 711              		.text
 712              	.Letext0:
 713              		.file 2 "/Applications/ArmGNUToolchain/14.3.rel1/arm-none-eabi/arm-none-eabi/include/machine/_defa
 714              		.file 3 "/Applications/ArmGNUToolchain/14.3.rel1/arm-none-eabi/arm-none-eabi/include/sys/_stdint.h
 715              		.file 4 "/Applications/ArmGNUToolchain/14.3.rel1/arm-none-eabi/lib/gcc/arm-none-eabi/14.3.1/includ
 716              		.file 5 "Drivers/lvgl/src/draw/sw/../../misc/lv_types.h"
 717              		.file 6 "Drivers/lvgl/src/draw/sw/../../display/lv_display_private.h"
 718              		.file 7 "Drivers/lvgl/src/draw/sw/../lv_draw.h"
 719              		.file 8 "Drivers/lvgl/src/draw/sw/../lv_draw_private.h"
 720              		.file 9 "Drivers/lvgl/src/draw/sw/../../core/../misc/lv_timer_private.h"
 721              		.file 10 "Drivers/lvgl/src/draw/sw/../../misc/../font/lv_font.h"
 722              		.file 11 "Drivers/lvgl/src/draw/sw/../lv_draw_image.h"
 723              		.file 12 "Drivers/lvgl/src/draw/sw/../../misc/cache/class/../lv_cache_private.h"
 724              		.file 13 "Drivers/lvgl/src/draw/sw/lv_draw_sw_private.h"
 725              		.file 14 "Drivers/lvgl/src/draw/sw/../../core/../draw/lv_draw_buf_private.h"
 726              		.file 15 "Drivers/lvgl/src/draw/sw/../../misc/lv_array.h"
 727              		.file 16 "Drivers/lvgl/src/draw/sw/../../misc/../font/../draw/lv_draw_buf.h"
 728              		.file 17 "Drivers/lvgl/src/draw/sw/../../misc/../font/../draw/../misc/lv_area.h"
 729              		.file 18 "Drivers/lvgl/src/draw/sw/../../misc/../font/../draw/../misc/lv_color.h"
ARM GAS  /var/folders/qx/2_175_4n2s19vhvtspjhb3qh0000gn/T//ccYBRO69.s 			page 24


 730              		.file 19 "Drivers/lvgl/src/draw/sw/../../misc/../font/../draw/lv_image_dsc.h"
 731              		.file 20 "Drivers/lvgl/src/draw/sw/../../misc/../tick/lv_tick.h"
 732              		.file 21 "Drivers/lvgl/src/draw/sw/../../misc/lv_ll.h"
 733              		.file 22 "Drivers/lvgl/src/draw/sw/../../misc/lv_timer.h"
 734              		.file 23 "Drivers/lvgl/src/draw/sw/../../misc/lv_text.h"
 735              		.file 24 "Drivers/lvgl/src/draw/sw/../../misc/lv_bidi.h"
 736              		.file 25 "Drivers/lvgl/src/draw/sw/../../misc/lv_grad.h"
 737              		.file 26 "Drivers/lvgl/src/draw/sw/../../misc/../layouts/lv_layout.h"
 738              		.file 27 "Drivers/lvgl/src/draw/sw/../../misc/lv_style.h"
 739              		.file 28 "Drivers/lvgl/src/draw/sw/../../misc/lv_event.h"
 740              		.file 29 "Drivers/lvgl/src/draw/sw/../../display/lv_display.h"
 741              		.file 30 "Drivers/lvgl/src/draw/sw/../lv_draw_rect.h"
 742              		.file 31 "Drivers/lvgl/src/draw/sw/../lv_draw_triangle.h"
 743              		.file 32 "Drivers/lvgl/src/draw/sw/../lv_draw_label.h"
 744              		.file 33 "Drivers/lvgl/src/draw/sw/../lv_draw_line.h"
 745              		.file 34 "Drivers/lvgl/src/draw/sw/../lv_draw_arc.h"
 746              		.file 35 "Drivers/lvgl/src/draw/sw/../lv_draw_blur.h"
 747              		.file 36 "Drivers/lvgl/src/draw/sw/blend/lv_draw_sw_blend.h"
 748              		.file 37 "Drivers/lvgl/src/draw/sw/../../osal/lv_os_none.h"
 749              		.file 38 "Drivers/lvgl/src/draw/sw/../../core/../stdlib/builtin/lv_tlsf.h"
 750              		.file 39 "Drivers/lvgl/src/draw/sw/../../core/../misc/lv_anim_private.h"
 751              		.file 40 "Drivers/lvgl/src/draw/sw/../../core/../tick/lv_tick_private.h"
 752              		.file 41 "Drivers/lvgl/src/draw/sw/../../core/../draw/sw/lv_draw_sw_mask_private.h"
 753              		.file 42 "Drivers/lvgl/src/draw/sw/../../core/../stdlib/builtin/lv_tlsf_private.h"
 754              		.file 43 "Drivers/lvgl/src/draw/sw/../../core/../layouts/lv_layout_private.h"
 755              		.file 44 "Drivers/lvgl/src/draw/sw/../../core/lv_global.h"
 756              		.file 45 "Drivers/lvgl/src/draw/sw/../../misc/../font/../draw/../misc/../stdlib/lv_mem.h"
 757              		.file 46 "Drivers/lvgl/src/draw/sw/../../misc/../font/../draw/../misc/../stdlib/lv_string.h"
 758              		.file 47 "Drivers/lvgl/src/draw/sw/lv_draw_sw.h"
 759              		.file 48 "Drivers/lvgl/src/draw/sw/blend/../lv_draw_sw_mask.h"
ARM GAS  /var/folders/qx/2_175_4n2s19vhvtspjhb3qh0000gn/T//ccYBRO69.s 			page 25

