ARM GAS  /var/folders/qx/2_175_4n2s19vhvtspjhb3qh0000gn/T//cc1Hh9yO.s 			page 1


   1              		.cpu cortex-m4
   2              		.arch armv7e-m
   3              		.fpu fpv4-sp-d16
   4              		.eabi_attribute 27, 1
   5              		.eabi_attribute 28, 1
   6              		.eabi_attribute 20, 1
   7              		.eabi_attribute 21, 1
   8              		.eabi_attribute 23, 3
   9              		.eabi_attribute 24, 1
  10              		.eabi_attribute 25, 1
  11              		.eabi_attribute 26, 1
  12              		.eabi_attribute 30, 1
  13              		.eabi_attribute 34, 1
  14              		.eabi_attribute 18, 4
  15              		.file	"lv_draw_sw_img.c"
  16              		.text
  17              	.Ltext0:
  18              		.cfi_sections	.debug_frame
  19              		.file 1 "Drivers/lvgl/src/draw/sw/lv_draw_sw_img.c"
  20              		.section	.text.lv_color_is_in_range,"ax",%progbits
  21              		.align	1
  22              		.syntax unified
  23              		.thumb
  24              		.thumb_func
  26              	lv_color_is_in_range:
  27              	.LFB4:
  28              		.file 2 "Drivers/lvgl/src/draw/sw/blend/../../../misc/lv_color.h"
   1:Drivers/lvgl/src/draw/sw/blend/../../../misc/lv_color.h **** /**
   2:Drivers/lvgl/src/draw/sw/blend/../../../misc/lv_color.h ****  * @file lv_color.h
   3:Drivers/lvgl/src/draw/sw/blend/../../../misc/lv_color.h ****  *
   4:Drivers/lvgl/src/draw/sw/blend/../../../misc/lv_color.h ****  */
   5:Drivers/lvgl/src/draw/sw/blend/../../../misc/lv_color.h **** 
   6:Drivers/lvgl/src/draw/sw/blend/../../../misc/lv_color.h **** #ifndef LV_COLOR_H
   7:Drivers/lvgl/src/draw/sw/blend/../../../misc/lv_color.h **** #define LV_COLOR_H
   8:Drivers/lvgl/src/draw/sw/blend/../../../misc/lv_color.h **** 
   9:Drivers/lvgl/src/draw/sw/blend/../../../misc/lv_color.h **** #ifdef __cplusplus
  10:Drivers/lvgl/src/draw/sw/blend/../../../misc/lv_color.h **** extern "C" {
  11:Drivers/lvgl/src/draw/sw/blend/../../../misc/lv_color.h **** #endif
  12:Drivers/lvgl/src/draw/sw/blend/../../../misc/lv_color.h **** 
  13:Drivers/lvgl/src/draw/sw/blend/../../../misc/lv_color.h **** /*********************
  14:Drivers/lvgl/src/draw/sw/blend/../../../misc/lv_color.h ****  *      INCLUDES
  15:Drivers/lvgl/src/draw/sw/blend/../../../misc/lv_color.h ****  *********************/
  16:Drivers/lvgl/src/draw/sw/blend/../../../misc/lv_color.h **** #include "../lv_conf_internal.h"
  17:Drivers/lvgl/src/draw/sw/blend/../../../misc/lv_color.h **** #include "lv_assert.h"
  18:Drivers/lvgl/src/draw/sw/blend/../../../misc/lv_color.h **** #include "lv_math.h"
  19:Drivers/lvgl/src/draw/sw/blend/../../../misc/lv_color.h **** #include "lv_types.h"
  20:Drivers/lvgl/src/draw/sw/blend/../../../misc/lv_color.h **** 
  21:Drivers/lvgl/src/draw/sw/blend/../../../misc/lv_color.h **** /*********************
  22:Drivers/lvgl/src/draw/sw/blend/../../../misc/lv_color.h ****  *      DEFINES
  23:Drivers/lvgl/src/draw/sw/blend/../../../misc/lv_color.h ****  *********************/
  24:Drivers/lvgl/src/draw/sw/blend/../../../misc/lv_color.h **** LV_EXPORT_CONST_INT(LV_COLOR_DEPTH);
  25:Drivers/lvgl/src/draw/sw/blend/../../../misc/lv_color.h **** 
  26:Drivers/lvgl/src/draw/sw/blend/../../../misc/lv_color.h **** #if LV_COLOR_DEPTH == 8
  27:Drivers/lvgl/src/draw/sw/blend/../../../misc/lv_color.h **** #define LV_COLOR_NATIVE_WITH_ALPHA_SIZE 2
  28:Drivers/lvgl/src/draw/sw/blend/../../../misc/lv_color.h **** #elif LV_COLOR_DEPTH == 16
  29:Drivers/lvgl/src/draw/sw/blend/../../../misc/lv_color.h **** #define LV_COLOR_NATIVE_WITH_ALPHA_SIZE 3
  30:Drivers/lvgl/src/draw/sw/blend/../../../misc/lv_color.h **** #elif LV_COLOR_DEPTH == 24
ARM GAS  /var/folders/qx/2_175_4n2s19vhvtspjhb3qh0000gn/T//cc1Hh9yO.s 			page 2


  31:Drivers/lvgl/src/draw/sw/blend/../../../misc/lv_color.h **** #define LV_COLOR_NATIVE_WITH_ALPHA_SIZE 4
  32:Drivers/lvgl/src/draw/sw/blend/../../../misc/lv_color.h **** #elif LV_COLOR_DEPTH == 32
  33:Drivers/lvgl/src/draw/sw/blend/../../../misc/lv_color.h **** #define LV_COLOR_NATIVE_WITH_ALPHA_SIZE 4
  34:Drivers/lvgl/src/draw/sw/blend/../../../misc/lv_color.h **** #endif
  35:Drivers/lvgl/src/draw/sw/blend/../../../misc/lv_color.h **** 
  36:Drivers/lvgl/src/draw/sw/blend/../../../misc/lv_color.h **** /**
  37:Drivers/lvgl/src/draw/sw/blend/../../../misc/lv_color.h ****  * Opacity percentages.
  38:Drivers/lvgl/src/draw/sw/blend/../../../misc/lv_color.h ****  */
  39:Drivers/lvgl/src/draw/sw/blend/../../../misc/lv_color.h **** 
  40:Drivers/lvgl/src/draw/sw/blend/../../../misc/lv_color.h **** enum _lv_opacity_level_t {
  41:Drivers/lvgl/src/draw/sw/blend/../../../misc/lv_color.h ****     LV_OPA_TRANSP = 0,
  42:Drivers/lvgl/src/draw/sw/blend/../../../misc/lv_color.h ****     LV_OPA_0      = 0,
  43:Drivers/lvgl/src/draw/sw/blend/../../../misc/lv_color.h ****     LV_OPA_10     = 25,
  44:Drivers/lvgl/src/draw/sw/blend/../../../misc/lv_color.h ****     LV_OPA_20     = 51,
  45:Drivers/lvgl/src/draw/sw/blend/../../../misc/lv_color.h ****     LV_OPA_30     = 76,
  46:Drivers/lvgl/src/draw/sw/blend/../../../misc/lv_color.h ****     LV_OPA_40     = 102,
  47:Drivers/lvgl/src/draw/sw/blend/../../../misc/lv_color.h ****     LV_OPA_50     = 127,
  48:Drivers/lvgl/src/draw/sw/blend/../../../misc/lv_color.h ****     LV_OPA_60     = 153,
  49:Drivers/lvgl/src/draw/sw/blend/../../../misc/lv_color.h ****     LV_OPA_70     = 178,
  50:Drivers/lvgl/src/draw/sw/blend/../../../misc/lv_color.h ****     LV_OPA_80     = 204,
  51:Drivers/lvgl/src/draw/sw/blend/../../../misc/lv_color.h ****     LV_OPA_90     = 229,
  52:Drivers/lvgl/src/draw/sw/blend/../../../misc/lv_color.h ****     LV_OPA_100    = 255,
  53:Drivers/lvgl/src/draw/sw/blend/../../../misc/lv_color.h ****     LV_OPA_COVER  = 255,
  54:Drivers/lvgl/src/draw/sw/blend/../../../misc/lv_color.h **** };
  55:Drivers/lvgl/src/draw/sw/blend/../../../misc/lv_color.h **** 
  56:Drivers/lvgl/src/draw/sw/blend/../../../misc/lv_color.h **** #define LV_OPA_MIN 2    /**< Fully transparent if opa <= LV_OPA_MIN */
  57:Drivers/lvgl/src/draw/sw/blend/../../../misc/lv_color.h **** #define LV_OPA_MAX 253  /**< Fully cover if opa >= LV_OPA_MAX */
  58:Drivers/lvgl/src/draw/sw/blend/../../../misc/lv_color.h **** 
  59:Drivers/lvgl/src/draw/sw/blend/../../../misc/lv_color.h **** /**
  60:Drivers/lvgl/src/draw/sw/blend/../../../misc/lv_color.h ****  * Get the pixel size of a color format in bits, bpp
  61:Drivers/lvgl/src/draw/sw/blend/../../../misc/lv_color.h ****  * @param cf        a color format (`LV_COLOR_FORMAT_...`)
  62:Drivers/lvgl/src/draw/sw/blend/../../../misc/lv_color.h ****  * @return          the pixel size in bits
  63:Drivers/lvgl/src/draw/sw/blend/../../../misc/lv_color.h ****  * @sa              lv_color_format_get_bpp
  64:Drivers/lvgl/src/draw/sw/blend/../../../misc/lv_color.h ****  */
  65:Drivers/lvgl/src/draw/sw/blend/../../../misc/lv_color.h **** #define LV_COLOR_FORMAT_GET_BPP(cf) (       \
  66:Drivers/lvgl/src/draw/sw/blend/../../../misc/lv_color.h ****                                             (cf) == LV_COLOR_FORMAT_I1 ? 1 :        \
  67:Drivers/lvgl/src/draw/sw/blend/../../../misc/lv_color.h ****                                             (cf) == LV_COLOR_FORMAT_A1 ? 1 :        \
  68:Drivers/lvgl/src/draw/sw/blend/../../../misc/lv_color.h ****                                             (cf) == LV_COLOR_FORMAT_I2 ? 2 :        \
  69:Drivers/lvgl/src/draw/sw/blend/../../../misc/lv_color.h ****                                             (cf) == LV_COLOR_FORMAT_A2 ? 2 :        \
  70:Drivers/lvgl/src/draw/sw/blend/../../../misc/lv_color.h ****                                             (cf) == LV_COLOR_FORMAT_I4 ? 4 :        \
  71:Drivers/lvgl/src/draw/sw/blend/../../../misc/lv_color.h ****                                             (cf) == LV_COLOR_FORMAT_A4 ? 4 :        \
  72:Drivers/lvgl/src/draw/sw/blend/../../../misc/lv_color.h ****                                             (cf) == LV_COLOR_FORMAT_NEMA_TSC4 ? 4 : \
  73:Drivers/lvgl/src/draw/sw/blend/../../../misc/lv_color.h ****                                             (cf) == LV_COLOR_FORMAT_NEMA_TSC6 ? 6 : \
  74:Drivers/lvgl/src/draw/sw/blend/../../../misc/lv_color.h ****                                             (cf) == LV_COLOR_FORMAT_NEMA_TSC6A ? 6 : \
  75:Drivers/lvgl/src/draw/sw/blend/../../../misc/lv_color.h ****                                             (cf) == LV_COLOR_FORMAT_NEMA_TSC6AP ? 6 : \
  76:Drivers/lvgl/src/draw/sw/blend/../../../misc/lv_color.h ****                                             (cf) == LV_COLOR_FORMAT_L8 ? 8 :        \
  77:Drivers/lvgl/src/draw/sw/blend/../../../misc/lv_color.h ****                                             (cf) == LV_COLOR_FORMAT_A8 ? 8 :        \
  78:Drivers/lvgl/src/draw/sw/blend/../../../misc/lv_color.h ****                                             (cf) == LV_COLOR_FORMAT_I8 ? 8 :        \
  79:Drivers/lvgl/src/draw/sw/blend/../../../misc/lv_color.h ****                                             (cf) == LV_COLOR_FORMAT_ARGB2222 ? 8 :  \
  80:Drivers/lvgl/src/draw/sw/blend/../../../misc/lv_color.h ****                                             (cf) == LV_COLOR_FORMAT_NEMA_TSC12 ? 12 : \
  81:Drivers/lvgl/src/draw/sw/blend/../../../misc/lv_color.h ****                                             (cf) == LV_COLOR_FORMAT_NEMA_TSC12A ? 12 : \
  82:Drivers/lvgl/src/draw/sw/blend/../../../misc/lv_color.h ****                                             (cf) == LV_COLOR_FORMAT_AL88 ? 16 :     \
  83:Drivers/lvgl/src/draw/sw/blend/../../../misc/lv_color.h ****                                             (cf) == LV_COLOR_FORMAT_RGB565 ? 16 :   \
  84:Drivers/lvgl/src/draw/sw/blend/../../../misc/lv_color.h ****                                             (cf) == LV_COLOR_FORMAT_RGB565_SWAPPED ? 16 :   \
  85:Drivers/lvgl/src/draw/sw/blend/../../../misc/lv_color.h ****                                             (cf) == LV_COLOR_FORMAT_RGB565A8 ? 16 : \
  86:Drivers/lvgl/src/draw/sw/blend/../../../misc/lv_color.h ****                                             (cf) == LV_COLOR_FORMAT_YUY2 ? 16 :     \
  87:Drivers/lvgl/src/draw/sw/blend/../../../misc/lv_color.h ****                                             (cf) == LV_COLOR_FORMAT_ARGB1555 ? 16 : \
ARM GAS  /var/folders/qx/2_175_4n2s19vhvtspjhb3qh0000gn/T//cc1Hh9yO.s 			page 3


  88:Drivers/lvgl/src/draw/sw/blend/../../../misc/lv_color.h ****                                             (cf) == LV_COLOR_FORMAT_ARGB4444 ? 16 : \
  89:Drivers/lvgl/src/draw/sw/blend/../../../misc/lv_color.h ****                                             (cf) == LV_COLOR_FORMAT_ARGB8565 ? 24 : \
  90:Drivers/lvgl/src/draw/sw/blend/../../../misc/lv_color.h ****                                             (cf) == LV_COLOR_FORMAT_RGB888 ? 24 :   \
  91:Drivers/lvgl/src/draw/sw/blend/../../../misc/lv_color.h ****                                             (cf) == LV_COLOR_FORMAT_ARGB8888 ? 32 : \
  92:Drivers/lvgl/src/draw/sw/blend/../../../misc/lv_color.h ****                                             (cf) == LV_COLOR_FORMAT_ARGB8888_PREMULTIPLIED ? 32 : \
  93:Drivers/lvgl/src/draw/sw/blend/../../../misc/lv_color.h ****                                             (cf) == LV_COLOR_FORMAT_XRGB8888 ? 32 : \
  94:Drivers/lvgl/src/draw/sw/blend/../../../misc/lv_color.h ****                                             0                                       \
  95:Drivers/lvgl/src/draw/sw/blend/../../../misc/lv_color.h ****                                     )
  96:Drivers/lvgl/src/draw/sw/blend/../../../misc/lv_color.h **** 
  97:Drivers/lvgl/src/draw/sw/blend/../../../misc/lv_color.h **** /**
  98:Drivers/lvgl/src/draw/sw/blend/../../../misc/lv_color.h ****  * Get the pixel size of a color format in bytes
  99:Drivers/lvgl/src/draw/sw/blend/../../../misc/lv_color.h ****  * @param cf        a color format (`LV_COLOR_FORMAT_...`)
 100:Drivers/lvgl/src/draw/sw/blend/../../../misc/lv_color.h ****  * @return          the pixel size in bytes
 101:Drivers/lvgl/src/draw/sw/blend/../../../misc/lv_color.h ****  * @sa              lv_color_format_get_size
 102:Drivers/lvgl/src/draw/sw/blend/../../../misc/lv_color.h ****  */
 103:Drivers/lvgl/src/draw/sw/blend/../../../misc/lv_color.h **** #define LV_COLOR_FORMAT_GET_SIZE(cf) ((LV_COLOR_FORMAT_GET_BPP(cf) + 7) >> 3)
 104:Drivers/lvgl/src/draw/sw/blend/../../../misc/lv_color.h **** 
 105:Drivers/lvgl/src/draw/sw/blend/../../../misc/lv_color.h **** /**********************
 106:Drivers/lvgl/src/draw/sw/blend/../../../misc/lv_color.h ****  *      TYPEDEFS
 107:Drivers/lvgl/src/draw/sw/blend/../../../misc/lv_color.h ****  **********************/
 108:Drivers/lvgl/src/draw/sw/blend/../../../misc/lv_color.h **** 
 109:Drivers/lvgl/src/draw/sw/blend/../../../misc/lv_color.h **** typedef struct {
 110:Drivers/lvgl/src/draw/sw/blend/../../../misc/lv_color.h ****     uint8_t blue;
 111:Drivers/lvgl/src/draw/sw/blend/../../../misc/lv_color.h ****     uint8_t green;
 112:Drivers/lvgl/src/draw/sw/blend/../../../misc/lv_color.h ****     uint8_t red;
 113:Drivers/lvgl/src/draw/sw/blend/../../../misc/lv_color.h **** } lv_color_t;
 114:Drivers/lvgl/src/draw/sw/blend/../../../misc/lv_color.h **** 
 115:Drivers/lvgl/src/draw/sw/blend/../../../misc/lv_color.h **** typedef struct {
 116:Drivers/lvgl/src/draw/sw/blend/../../../misc/lv_color.h ****     uint16_t blue : 5;
 117:Drivers/lvgl/src/draw/sw/blend/../../../misc/lv_color.h ****     uint16_t green : 6;
 118:Drivers/lvgl/src/draw/sw/blend/../../../misc/lv_color.h ****     uint16_t red : 5;
 119:Drivers/lvgl/src/draw/sw/blend/../../../misc/lv_color.h **** } lv_color16_t;
 120:Drivers/lvgl/src/draw/sw/blend/../../../misc/lv_color.h **** 
 121:Drivers/lvgl/src/draw/sw/blend/../../../misc/lv_color.h **** typedef struct {
 122:Drivers/lvgl/src/draw/sw/blend/../../../misc/lv_color.h ****     uint8_t blue;
 123:Drivers/lvgl/src/draw/sw/blend/../../../misc/lv_color.h ****     uint8_t green;
 124:Drivers/lvgl/src/draw/sw/blend/../../../misc/lv_color.h ****     uint8_t red;
 125:Drivers/lvgl/src/draw/sw/blend/../../../misc/lv_color.h ****     uint8_t alpha;
 126:Drivers/lvgl/src/draw/sw/blend/../../../misc/lv_color.h **** } lv_color32_t;
 127:Drivers/lvgl/src/draw/sw/blend/../../../misc/lv_color.h **** 
 128:Drivers/lvgl/src/draw/sw/blend/../../../misc/lv_color.h **** typedef struct {
 129:Drivers/lvgl/src/draw/sw/blend/../../../misc/lv_color.h ****     uint16_t h;
 130:Drivers/lvgl/src/draw/sw/blend/../../../misc/lv_color.h ****     uint8_t s;
 131:Drivers/lvgl/src/draw/sw/blend/../../../misc/lv_color.h ****     uint8_t v;
 132:Drivers/lvgl/src/draw/sw/blend/../../../misc/lv_color.h **** } lv_color_hsv_t;
 133:Drivers/lvgl/src/draw/sw/blend/../../../misc/lv_color.h **** 
 134:Drivers/lvgl/src/draw/sw/blend/../../../misc/lv_color.h **** typedef struct {
 135:Drivers/lvgl/src/draw/sw/blend/../../../misc/lv_color.h ****     uint8_t lumi;
 136:Drivers/lvgl/src/draw/sw/blend/../../../misc/lv_color.h ****     uint8_t alpha;
 137:Drivers/lvgl/src/draw/sw/blend/../../../misc/lv_color.h **** } lv_color16a_t;
 138:Drivers/lvgl/src/draw/sw/blend/../../../misc/lv_color.h **** 
 139:Drivers/lvgl/src/draw/sw/blend/../../../misc/lv_color.h **** typedef enum {
 140:Drivers/lvgl/src/draw/sw/blend/../../../misc/lv_color.h ****     LV_COLOR_FORMAT_UNKNOWN           = 0,
 141:Drivers/lvgl/src/draw/sw/blend/../../../misc/lv_color.h **** 
 142:Drivers/lvgl/src/draw/sw/blend/../../../misc/lv_color.h ****     LV_COLOR_FORMAT_RAW               = 0x01,
 143:Drivers/lvgl/src/draw/sw/blend/../../../misc/lv_color.h ****     LV_COLOR_FORMAT_RAW_ALPHA         = 0x02,
 144:Drivers/lvgl/src/draw/sw/blend/../../../misc/lv_color.h **** 
ARM GAS  /var/folders/qx/2_175_4n2s19vhvtspjhb3qh0000gn/T//cc1Hh9yO.s 			page 4


 145:Drivers/lvgl/src/draw/sw/blend/../../../misc/lv_color.h ****     /*<=1 byte (+alpha) formats*/
 146:Drivers/lvgl/src/draw/sw/blend/../../../misc/lv_color.h ****     LV_COLOR_FORMAT_L8                = 0x06,
 147:Drivers/lvgl/src/draw/sw/blend/../../../misc/lv_color.h ****     LV_COLOR_FORMAT_I1                = 0x07,
 148:Drivers/lvgl/src/draw/sw/blend/../../../misc/lv_color.h ****     LV_COLOR_FORMAT_I2                = 0x08,
 149:Drivers/lvgl/src/draw/sw/blend/../../../misc/lv_color.h ****     LV_COLOR_FORMAT_I4                = 0x09,
 150:Drivers/lvgl/src/draw/sw/blend/../../../misc/lv_color.h ****     LV_COLOR_FORMAT_I8                = 0x0A,
 151:Drivers/lvgl/src/draw/sw/blend/../../../misc/lv_color.h ****     LV_COLOR_FORMAT_A8                = 0x0E,
 152:Drivers/lvgl/src/draw/sw/blend/../../../misc/lv_color.h **** 
 153:Drivers/lvgl/src/draw/sw/blend/../../../misc/lv_color.h ****     /*2 byte (+alpha) formats*/
 154:Drivers/lvgl/src/draw/sw/blend/../../../misc/lv_color.h ****     LV_COLOR_FORMAT_RGB565            = 0x12,
 155:Drivers/lvgl/src/draw/sw/blend/../../../misc/lv_color.h ****     LV_COLOR_FORMAT_ARGB8565          = 0x13,   /**< Not supported by sw renderer yet. */
 156:Drivers/lvgl/src/draw/sw/blend/../../../misc/lv_color.h ****     LV_COLOR_FORMAT_RGB565A8          = 0x14,   /**< Color array followed by Alpha array*/
 157:Drivers/lvgl/src/draw/sw/blend/../../../misc/lv_color.h ****     LV_COLOR_FORMAT_AL88              = 0x15,   /**< L8 with alpha >*/
 158:Drivers/lvgl/src/draw/sw/blend/../../../misc/lv_color.h ****     LV_COLOR_FORMAT_RGB565_SWAPPED    = 0x1B,
 159:Drivers/lvgl/src/draw/sw/blend/../../../misc/lv_color.h **** 
 160:Drivers/lvgl/src/draw/sw/blend/../../../misc/lv_color.h ****     /*3 byte (+alpha) formats*/
 161:Drivers/lvgl/src/draw/sw/blend/../../../misc/lv_color.h ****     LV_COLOR_FORMAT_RGB888            = 0x0F,
 162:Drivers/lvgl/src/draw/sw/blend/../../../misc/lv_color.h ****     LV_COLOR_FORMAT_ARGB8888          = 0x10,
 163:Drivers/lvgl/src/draw/sw/blend/../../../misc/lv_color.h ****     LV_COLOR_FORMAT_XRGB8888          = 0x11,
 164:Drivers/lvgl/src/draw/sw/blend/../../../misc/lv_color.h ****     LV_COLOR_FORMAT_ARGB8888_PREMULTIPLIED          = 0x1A,
 165:Drivers/lvgl/src/draw/sw/blend/../../../misc/lv_color.h **** 
 166:Drivers/lvgl/src/draw/sw/blend/../../../misc/lv_color.h ****     /*Formats not supported by software renderer but kept here so GPU can use it*/
 167:Drivers/lvgl/src/draw/sw/blend/../../../misc/lv_color.h ****     LV_COLOR_FORMAT_A1                = 0x0B,
 168:Drivers/lvgl/src/draw/sw/blend/../../../misc/lv_color.h ****     LV_COLOR_FORMAT_A2                = 0x0C,
 169:Drivers/lvgl/src/draw/sw/blend/../../../misc/lv_color.h ****     LV_COLOR_FORMAT_A4                = 0x0D,
 170:Drivers/lvgl/src/draw/sw/blend/../../../misc/lv_color.h ****     LV_COLOR_FORMAT_ARGB1555          = 0x16,
 171:Drivers/lvgl/src/draw/sw/blend/../../../misc/lv_color.h ****     LV_COLOR_FORMAT_ARGB4444          = 0x17,
 172:Drivers/lvgl/src/draw/sw/blend/../../../misc/lv_color.h ****     LV_COLOR_FORMAT_ARGB2222          = 0X18,
 173:Drivers/lvgl/src/draw/sw/blend/../../../misc/lv_color.h **** 
 174:Drivers/lvgl/src/draw/sw/blend/../../../misc/lv_color.h ****     /* reference to https://wiki.videolan.org/YUV/ */
 175:Drivers/lvgl/src/draw/sw/blend/../../../misc/lv_color.h ****     /*YUV planar formats*/
 176:Drivers/lvgl/src/draw/sw/blend/../../../misc/lv_color.h ****     LV_COLOR_FORMAT_YUV_START         = 0x20,
 177:Drivers/lvgl/src/draw/sw/blend/../../../misc/lv_color.h ****     LV_COLOR_FORMAT_I420              = LV_COLOR_FORMAT_YUV_START,  /*YUV420 planar(3 plane)*/
 178:Drivers/lvgl/src/draw/sw/blend/../../../misc/lv_color.h ****     LV_COLOR_FORMAT_I422              = 0x21,  /*YUV422 planar(3 plane)*/
 179:Drivers/lvgl/src/draw/sw/blend/../../../misc/lv_color.h ****     LV_COLOR_FORMAT_I444              = 0x22,  /*YUV444 planar(3 plane)*/
 180:Drivers/lvgl/src/draw/sw/blend/../../../misc/lv_color.h ****     LV_COLOR_FORMAT_I400              = 0x23,  /*YUV400 no chroma channel*/
 181:Drivers/lvgl/src/draw/sw/blend/../../../misc/lv_color.h ****     LV_COLOR_FORMAT_NV21              = 0x24,  /*YUV420 planar(2 plane), UV plane in 'V, U, V, U'*/
 182:Drivers/lvgl/src/draw/sw/blend/../../../misc/lv_color.h ****     LV_COLOR_FORMAT_NV12              = 0x25,  /*YUV420 planar(2 plane), UV plane in 'U, V, U, V'*/
 183:Drivers/lvgl/src/draw/sw/blend/../../../misc/lv_color.h **** 
 184:Drivers/lvgl/src/draw/sw/blend/../../../misc/lv_color.h ****     /*YUV packed formats*/
 185:Drivers/lvgl/src/draw/sw/blend/../../../misc/lv_color.h ****     LV_COLOR_FORMAT_YUY2              = 0x26,  /*YUV422 packed like 'Y U Y V'*/
 186:Drivers/lvgl/src/draw/sw/blend/../../../misc/lv_color.h ****     LV_COLOR_FORMAT_UYVY              = 0x27,  /*YUV422 packed like 'U Y V Y'*/
 187:Drivers/lvgl/src/draw/sw/blend/../../../misc/lv_color.h **** 
 188:Drivers/lvgl/src/draw/sw/blend/../../../misc/lv_color.h ****     LV_COLOR_FORMAT_YUV_END           = LV_COLOR_FORMAT_UYVY,
 189:Drivers/lvgl/src/draw/sw/blend/../../../misc/lv_color.h **** 
 190:Drivers/lvgl/src/draw/sw/blend/../../../misc/lv_color.h ****     LV_COLOR_FORMAT_PROPRIETARY_START = 0x30,
 191:Drivers/lvgl/src/draw/sw/blend/../../../misc/lv_color.h **** 
 192:Drivers/lvgl/src/draw/sw/blend/../../../misc/lv_color.h ****     LV_COLOR_FORMAT_NEMA_TSC_START    = LV_COLOR_FORMAT_PROPRIETARY_START,
 193:Drivers/lvgl/src/draw/sw/blend/../../../misc/lv_color.h ****     LV_COLOR_FORMAT_NEMA_TSC4         = LV_COLOR_FORMAT_NEMA_TSC_START,
 194:Drivers/lvgl/src/draw/sw/blend/../../../misc/lv_color.h ****     LV_COLOR_FORMAT_NEMA_TSC6         = 0x31,
 195:Drivers/lvgl/src/draw/sw/blend/../../../misc/lv_color.h ****     LV_COLOR_FORMAT_NEMA_TSC6A        = 0x32,
 196:Drivers/lvgl/src/draw/sw/blend/../../../misc/lv_color.h ****     LV_COLOR_FORMAT_NEMA_TSC6AP       = 0x33,
 197:Drivers/lvgl/src/draw/sw/blend/../../../misc/lv_color.h ****     LV_COLOR_FORMAT_NEMA_TSC12        = 0x34,
 198:Drivers/lvgl/src/draw/sw/blend/../../../misc/lv_color.h ****     LV_COLOR_FORMAT_NEMA_TSC12A       = 0x35,
 199:Drivers/lvgl/src/draw/sw/blend/../../../misc/lv_color.h ****     LV_COLOR_FORMAT_NEMA_TSC_END      = LV_COLOR_FORMAT_NEMA_TSC12A,
 200:Drivers/lvgl/src/draw/sw/blend/../../../misc/lv_color.h **** 
 201:Drivers/lvgl/src/draw/sw/blend/../../../misc/lv_color.h ****     /*Color formats in which LVGL can render*/
ARM GAS  /var/folders/qx/2_175_4n2s19vhvtspjhb3qh0000gn/T//cc1Hh9yO.s 			page 5


 202:Drivers/lvgl/src/draw/sw/blend/../../../misc/lv_color.h **** #if LV_COLOR_DEPTH == 1
 203:Drivers/lvgl/src/draw/sw/blend/../../../misc/lv_color.h ****     LV_COLOR_FORMAT_NATIVE            = LV_COLOR_FORMAT_I1,
 204:Drivers/lvgl/src/draw/sw/blend/../../../misc/lv_color.h ****     LV_COLOR_FORMAT_NATIVE_WITH_ALPHA = LV_COLOR_FORMAT_I1,
 205:Drivers/lvgl/src/draw/sw/blend/../../../misc/lv_color.h **** #elif LV_COLOR_DEPTH == 8
 206:Drivers/lvgl/src/draw/sw/blend/../../../misc/lv_color.h ****     LV_COLOR_FORMAT_NATIVE            = LV_COLOR_FORMAT_L8,
 207:Drivers/lvgl/src/draw/sw/blend/../../../misc/lv_color.h ****     LV_COLOR_FORMAT_NATIVE_WITH_ALPHA = LV_COLOR_FORMAT_AL88,
 208:Drivers/lvgl/src/draw/sw/blend/../../../misc/lv_color.h **** #elif LV_COLOR_DEPTH == 16
 209:Drivers/lvgl/src/draw/sw/blend/../../../misc/lv_color.h ****     LV_COLOR_FORMAT_NATIVE            = LV_COLOR_FORMAT_RGB565,
 210:Drivers/lvgl/src/draw/sw/blend/../../../misc/lv_color.h ****     LV_COLOR_FORMAT_NATIVE_WITH_ALPHA = LV_COLOR_FORMAT_RGB565A8,
 211:Drivers/lvgl/src/draw/sw/blend/../../../misc/lv_color.h **** #elif LV_COLOR_DEPTH == 24
 212:Drivers/lvgl/src/draw/sw/blend/../../../misc/lv_color.h ****     LV_COLOR_FORMAT_NATIVE            = LV_COLOR_FORMAT_RGB888,
 213:Drivers/lvgl/src/draw/sw/blend/../../../misc/lv_color.h ****     LV_COLOR_FORMAT_NATIVE_WITH_ALPHA = LV_COLOR_FORMAT_ARGB8888,
 214:Drivers/lvgl/src/draw/sw/blend/../../../misc/lv_color.h **** #elif LV_COLOR_DEPTH == 32
 215:Drivers/lvgl/src/draw/sw/blend/../../../misc/lv_color.h ****     LV_COLOR_FORMAT_NATIVE            = LV_COLOR_FORMAT_XRGB8888,
 216:Drivers/lvgl/src/draw/sw/blend/../../../misc/lv_color.h ****     LV_COLOR_FORMAT_NATIVE_WITH_ALPHA = LV_COLOR_FORMAT_ARGB8888,
 217:Drivers/lvgl/src/draw/sw/blend/../../../misc/lv_color.h **** #else
 218:Drivers/lvgl/src/draw/sw/blend/../../../misc/lv_color.h **** #error "LV_COLOR_DEPTH should be 1, 8, 16, 24 or 32"
 219:Drivers/lvgl/src/draw/sw/blend/../../../misc/lv_color.h **** #endif
 220:Drivers/lvgl/src/draw/sw/blend/../../../misc/lv_color.h **** 
 221:Drivers/lvgl/src/draw/sw/blend/../../../misc/lv_color.h **** } lv_color_format_t;
 222:Drivers/lvgl/src/draw/sw/blend/../../../misc/lv_color.h **** 
 223:Drivers/lvgl/src/draw/sw/blend/../../../misc/lv_color.h **** #define LV_COLOR_FORMAT_IS_ALPHA_ONLY(cf) ((cf) >= LV_COLOR_FORMAT_A1 && (cf) <= LV_COLOR_FORMAT_A8
 224:Drivers/lvgl/src/draw/sw/blend/../../../misc/lv_color.h **** #define LV_COLOR_FORMAT_IS_INDEXED(cf) ((cf) >= LV_COLOR_FORMAT_I1 && (cf) <= LV_COLOR_FORMAT_I8)
 225:Drivers/lvgl/src/draw/sw/blend/../../../misc/lv_color.h **** #define LV_COLOR_FORMAT_IS_YUV(cf)  ((cf) >= LV_COLOR_FORMAT_YUV_START && (cf) <= LV_COLOR_FORMAT_Y
 226:Drivers/lvgl/src/draw/sw/blend/../../../misc/lv_color.h **** #define LV_COLOR_INDEXED_PALETTE_SIZE(cf) ((cf) == LV_COLOR_FORMAT_I1 ? 2 :\
 227:Drivers/lvgl/src/draw/sw/blend/../../../misc/lv_color.h ****                                            (cf) == LV_COLOR_FORMAT_I2 ? 4 :\
 228:Drivers/lvgl/src/draw/sw/blend/../../../misc/lv_color.h ****                                            (cf) == LV_COLOR_FORMAT_I4 ? 16 :\
 229:Drivers/lvgl/src/draw/sw/blend/../../../misc/lv_color.h ****                                            (cf) == LV_COLOR_FORMAT_I8 ? 256 : 0)
 230:Drivers/lvgl/src/draw/sw/blend/../../../misc/lv_color.h **** 
 231:Drivers/lvgl/src/draw/sw/blend/../../../misc/lv_color.h **** /**********************
 232:Drivers/lvgl/src/draw/sw/blend/../../../misc/lv_color.h ****  * MACROS
 233:Drivers/lvgl/src/draw/sw/blend/../../../misc/lv_color.h ****  **********************/
 234:Drivers/lvgl/src/draw/sw/blend/../../../misc/lv_color.h **** 
 235:Drivers/lvgl/src/draw/sw/blend/../../../misc/lv_color.h **** #define LV_COLOR_MAKE(r8, g8, b8) {b8, g8, r8}
 236:Drivers/lvgl/src/draw/sw/blend/../../../misc/lv_color.h **** 
 237:Drivers/lvgl/src/draw/sw/blend/../../../misc/lv_color.h **** #define LV_OPA_MIX2(a1, a2) ((lv_opa_t)(((int32_t)(a1) * (a2)) >> 8))
 238:Drivers/lvgl/src/draw/sw/blend/../../../misc/lv_color.h **** #define LV_OPA_MIX3(a1, a2, a3) ((lv_opa_t)(((int32_t)(a1) * (a2) * (a3)) >> 16))
 239:Drivers/lvgl/src/draw/sw/blend/../../../misc/lv_color.h **** 
 240:Drivers/lvgl/src/draw/sw/blend/../../../misc/lv_color.h **** /**********************
 241:Drivers/lvgl/src/draw/sw/blend/../../../misc/lv_color.h ****  * GLOBAL PROTOTYPES
 242:Drivers/lvgl/src/draw/sw/blend/../../../misc/lv_color.h ****  **********************/
 243:Drivers/lvgl/src/draw/sw/blend/../../../misc/lv_color.h **** 
 244:Drivers/lvgl/src/draw/sw/blend/../../../misc/lv_color.h **** /**
 245:Drivers/lvgl/src/draw/sw/blend/../../../misc/lv_color.h ****  * Get the pixel size of a color format in bits, bpp
 246:Drivers/lvgl/src/draw/sw/blend/../../../misc/lv_color.h ****  * @param cf        a color format (`LV_COLOR_FORMAT_...`)
 247:Drivers/lvgl/src/draw/sw/blend/../../../misc/lv_color.h ****  * @return          the pixel size in bits
 248:Drivers/lvgl/src/draw/sw/blend/../../../misc/lv_color.h ****  * @sa              LV_COLOR_FORMAT_GET_BPP
 249:Drivers/lvgl/src/draw/sw/blend/../../../misc/lv_color.h ****  */
 250:Drivers/lvgl/src/draw/sw/blend/../../../misc/lv_color.h **** uint8_t lv_color_format_get_bpp(lv_color_format_t cf);
 251:Drivers/lvgl/src/draw/sw/blend/../../../misc/lv_color.h **** 
 252:Drivers/lvgl/src/draw/sw/blend/../../../misc/lv_color.h **** /**
 253:Drivers/lvgl/src/draw/sw/blend/../../../misc/lv_color.h ****  * Get the pixel size of a color format in bytes
 254:Drivers/lvgl/src/draw/sw/blend/../../../misc/lv_color.h ****  * @param cf        a color format (`LV_COLOR_FORMAT_...`)
 255:Drivers/lvgl/src/draw/sw/blend/../../../misc/lv_color.h ****  * @return          the pixel size in bytes
 256:Drivers/lvgl/src/draw/sw/blend/../../../misc/lv_color.h ****  * @sa              LV_COLOR_FORMAT_GET_SIZE
 257:Drivers/lvgl/src/draw/sw/blend/../../../misc/lv_color.h ****  */
 258:Drivers/lvgl/src/draw/sw/blend/../../../misc/lv_color.h **** uint8_t lv_color_format_get_size(lv_color_format_t cf);
ARM GAS  /var/folders/qx/2_175_4n2s19vhvtspjhb3qh0000gn/T//cc1Hh9yO.s 			page 6


 259:Drivers/lvgl/src/draw/sw/blend/../../../misc/lv_color.h **** 
 260:Drivers/lvgl/src/draw/sw/blend/../../../misc/lv_color.h **** /**
 261:Drivers/lvgl/src/draw/sw/blend/../../../misc/lv_color.h ****  * Check if a color format has alpha channel or not
 262:Drivers/lvgl/src/draw/sw/blend/../../../misc/lv_color.h ****  * @param src_cf    a color format (`LV_COLOR_FORMAT_...`)
 263:Drivers/lvgl/src/draw/sw/blend/../../../misc/lv_color.h ****  * @return          true: has alpha channel; false: doesn't have alpha channel
 264:Drivers/lvgl/src/draw/sw/blend/../../../misc/lv_color.h ****  */
 265:Drivers/lvgl/src/draw/sw/blend/../../../misc/lv_color.h **** bool lv_color_format_has_alpha(lv_color_format_t src_cf);
 266:Drivers/lvgl/src/draw/sw/blend/../../../misc/lv_color.h **** 
 267:Drivers/lvgl/src/draw/sw/blend/../../../misc/lv_color.h **** /**
 268:Drivers/lvgl/src/draw/sw/blend/../../../misc/lv_color.h ****  * Create an ARGB8888 color from RGB888 + alpha
 269:Drivers/lvgl/src/draw/sw/blend/../../../misc/lv_color.h ****  * @param color     an RGB888 color
 270:Drivers/lvgl/src/draw/sw/blend/../../../misc/lv_color.h ****  * @param opa       the alpha value
 271:Drivers/lvgl/src/draw/sw/blend/../../../misc/lv_color.h ****  * @return          the ARGB8888 color
 272:Drivers/lvgl/src/draw/sw/blend/../../../misc/lv_color.h ****  */
 273:Drivers/lvgl/src/draw/sw/blend/../../../misc/lv_color.h **** lv_color32_t lv_color_to_32(lv_color_t color, lv_opa_t opa);
 274:Drivers/lvgl/src/draw/sw/blend/../../../misc/lv_color.h **** 
 275:Drivers/lvgl/src/draw/sw/blend/../../../misc/lv_color.h **** /**
 276:Drivers/lvgl/src/draw/sw/blend/../../../misc/lv_color.h ****  * Convert an RGB888 color to an integer
 277:Drivers/lvgl/src/draw/sw/blend/../../../misc/lv_color.h ****  * @param c     an RGB888 color
 278:Drivers/lvgl/src/draw/sw/blend/../../../misc/lv_color.h ****  * @return      `c` as an integer
 279:Drivers/lvgl/src/draw/sw/blend/../../../misc/lv_color.h ****  */
 280:Drivers/lvgl/src/draw/sw/blend/../../../misc/lv_color.h **** uint32_t lv_color_to_int(lv_color_t c);
 281:Drivers/lvgl/src/draw/sw/blend/../../../misc/lv_color.h **** 
 282:Drivers/lvgl/src/draw/sw/blend/../../../misc/lv_color.h **** /**
 283:Drivers/lvgl/src/draw/sw/blend/../../../misc/lv_color.h ****  * Check if two RGB888 color are equal
 284:Drivers/lvgl/src/draw/sw/blend/../../../misc/lv_color.h ****  * @param c1    the first color
 285:Drivers/lvgl/src/draw/sw/blend/../../../misc/lv_color.h ****  * @param c2    the second color
 286:Drivers/lvgl/src/draw/sw/blend/../../../misc/lv_color.h ****  * @return      true: equal
 287:Drivers/lvgl/src/draw/sw/blend/../../../misc/lv_color.h ****  */
 288:Drivers/lvgl/src/draw/sw/blend/../../../misc/lv_color.h **** bool lv_color_eq(lv_color_t c1, lv_color_t c2);
 289:Drivers/lvgl/src/draw/sw/blend/../../../misc/lv_color.h **** 
 290:Drivers/lvgl/src/draw/sw/blend/../../../misc/lv_color.h **** /**
 291:Drivers/lvgl/src/draw/sw/blend/../../../misc/lv_color.h ****  * Check if two ARGB8888 color are equal
 292:Drivers/lvgl/src/draw/sw/blend/../../../misc/lv_color.h ****  * @param c1    the first color
 293:Drivers/lvgl/src/draw/sw/blend/../../../misc/lv_color.h ****  * @param c2    the second color
 294:Drivers/lvgl/src/draw/sw/blend/../../../misc/lv_color.h ****  * @return      true: equal
 295:Drivers/lvgl/src/draw/sw/blend/../../../misc/lv_color.h ****  */
 296:Drivers/lvgl/src/draw/sw/blend/../../../misc/lv_color.h **** bool lv_color32_eq(lv_color32_t c1, lv_color32_t c2);
 297:Drivers/lvgl/src/draw/sw/blend/../../../misc/lv_color.h **** 
 298:Drivers/lvgl/src/draw/sw/blend/../../../misc/lv_color.h **** /**
 299:Drivers/lvgl/src/draw/sw/blend/../../../misc/lv_color.h ****  * Create a color from 0x000000..0xffffff input
 300:Drivers/lvgl/src/draw/sw/blend/../../../misc/lv_color.h ****  * @param c     the hex input
 301:Drivers/lvgl/src/draw/sw/blend/../../../misc/lv_color.h ****  * @return      the color
 302:Drivers/lvgl/src/draw/sw/blend/../../../misc/lv_color.h ****  */
 303:Drivers/lvgl/src/draw/sw/blend/../../../misc/lv_color.h **** lv_color_t lv_color_hex(uint32_t c);
 304:Drivers/lvgl/src/draw/sw/blend/../../../misc/lv_color.h **** 
 305:Drivers/lvgl/src/draw/sw/blend/../../../misc/lv_color.h **** /**
 306:Drivers/lvgl/src/draw/sw/blend/../../../misc/lv_color.h ****  * Create an RGB888 color
 307:Drivers/lvgl/src/draw/sw/blend/../../../misc/lv_color.h ****  * @param r     the red channel (0..255)
 308:Drivers/lvgl/src/draw/sw/blend/../../../misc/lv_color.h ****  * @param g     the green channel (0..255)
 309:Drivers/lvgl/src/draw/sw/blend/../../../misc/lv_color.h ****  * @param b     the blue channel (0..255)
 310:Drivers/lvgl/src/draw/sw/blend/../../../misc/lv_color.h ****  * @return      the color
 311:Drivers/lvgl/src/draw/sw/blend/../../../misc/lv_color.h ****  */
 312:Drivers/lvgl/src/draw/sw/blend/../../../misc/lv_color.h **** lv_color_t lv_color_make(uint8_t r, uint8_t g, uint8_t b);
 313:Drivers/lvgl/src/draw/sw/blend/../../../misc/lv_color.h **** 
 314:Drivers/lvgl/src/draw/sw/blend/../../../misc/lv_color.h **** /**
 315:Drivers/lvgl/src/draw/sw/blend/../../../misc/lv_color.h ****  * Create an ARGB8888 color
ARM GAS  /var/folders/qx/2_175_4n2s19vhvtspjhb3qh0000gn/T//cc1Hh9yO.s 			page 7


 316:Drivers/lvgl/src/draw/sw/blend/../../../misc/lv_color.h ****  * @param r     the red channel (0..255)
 317:Drivers/lvgl/src/draw/sw/blend/../../../misc/lv_color.h ****  * @param g     the green channel (0..255)
 318:Drivers/lvgl/src/draw/sw/blend/../../../misc/lv_color.h ****  * @param b     the blue channel (0..255)
 319:Drivers/lvgl/src/draw/sw/blend/../../../misc/lv_color.h ****  * @param a     the alpha channel (0..255)
 320:Drivers/lvgl/src/draw/sw/blend/../../../misc/lv_color.h ****  * @return      the color
 321:Drivers/lvgl/src/draw/sw/blend/../../../misc/lv_color.h ****  */
 322:Drivers/lvgl/src/draw/sw/blend/../../../misc/lv_color.h **** lv_color32_t lv_color32_make(uint8_t r, uint8_t g, uint8_t b, uint8_t a);
 323:Drivers/lvgl/src/draw/sw/blend/../../../misc/lv_color.h **** 
 324:Drivers/lvgl/src/draw/sw/blend/../../../misc/lv_color.h **** /**
 325:Drivers/lvgl/src/draw/sw/blend/../../../misc/lv_color.h ****  * Create a color from 0x000..0xfff input
 326:Drivers/lvgl/src/draw/sw/blend/../../../misc/lv_color.h ****  * @param c     the hex input (e.g. 0x123 will be 0x112233)
 327:Drivers/lvgl/src/draw/sw/blend/../../../misc/lv_color.h ****  * @return      the color
 328:Drivers/lvgl/src/draw/sw/blend/../../../misc/lv_color.h ****  */
 329:Drivers/lvgl/src/draw/sw/blend/../../../misc/lv_color.h **** lv_color_t lv_color_hex3(uint32_t c);
 330:Drivers/lvgl/src/draw/sw/blend/../../../misc/lv_color.h **** 
 331:Drivers/lvgl/src/draw/sw/blend/../../../misc/lv_color.h **** /**
 332:Drivers/lvgl/src/draw/sw/blend/../../../misc/lv_color.h ****  * Check if a color with an RGB888 color is within the color range defined by l_color and h_color.
 333:Drivers/lvgl/src/draw/sw/blend/../../../misc/lv_color.h ****  * @param color   the color to check
 334:Drivers/lvgl/src/draw/sw/blend/../../../misc/lv_color.h ****  * @param l_color the lower bound color
 335:Drivers/lvgl/src/draw/sw/blend/../../../misc/lv_color.h ****  * @param h_color the upper bound color
 336:Drivers/lvgl/src/draw/sw/blend/../../../misc/lv_color.h ****  * @return        true: pixel is within the color range
 337:Drivers/lvgl/src/draw/sw/blend/../../../misc/lv_color.h ****  */
 338:Drivers/lvgl/src/draw/sw/blend/../../../misc/lv_color.h **** static inline bool lv_color_is_in_range(lv_color_t color, lv_color_t l_color, lv_color_t h_color)
 339:Drivers/lvgl/src/draw/sw/blend/../../../misc/lv_color.h **** {
  29              		.loc 2 339 1 view -0
  30              		.cfi_startproc
  31              		@ args = 0, pretend = 0, frame = 16
  32              		@ frame_needed = 0, uses_anonymous_args = 0
  33              		@ link register save eliminated.
  34 0000 84B0     		sub	sp, sp, #16
  35              	.LCFI0:
  36              		.cfi_def_cfa_offset 16
  37 0002 0390     		str	r0, [sp, #12]
  38 0004 0291     		str	r1, [sp, #8]
  39 0006 0192     		str	r2, [sp, #4]
 340:Drivers/lvgl/src/draw/sw/blend/../../../misc/lv_color.h ****     return (color.red <= h_color.red &&
  40              		.loc 2 340 5 view .LVU1
  41              		.loc 2 340 18 is_stmt 0 view .LVU2
  42 0008 9DF80E30 		ldrb	r3, [sp, #14]	@ zero_extendqisi2
  43              		.loc 2 340 33 view .LVU3
  44 000c 9DF80620 		ldrb	r2, [sp, #6]	@ zero_extendqisi2
 341:Drivers/lvgl/src/draw/sw/blend/../../../misc/lv_color.h ****             color.green <= h_color.green &&
 342:Drivers/lvgl/src/draw/sw/blend/../../../misc/lv_color.h ****             color.blue <= h_color.blue &&
 343:Drivers/lvgl/src/draw/sw/blend/../../../misc/lv_color.h ****             color.red >= l_color.red &&
 344:Drivers/lvgl/src/draw/sw/blend/../../../misc/lv_color.h ****             color.green >= l_color.green &&
  45              		.loc 2 344 42 view .LVU4
  46 0010 9342     		cmp	r3, r2
  47 0012 19D8     		bhi	.L3
 341:Drivers/lvgl/src/draw/sw/blend/../../../misc/lv_color.h ****             color.green <= h_color.green &&
  48              		.loc 2 341 18 view .LVU5
  49 0014 9DF80D20 		ldrb	r2, [sp, #13]	@ zero_extendqisi2
 341:Drivers/lvgl/src/draw/sw/blend/../../../misc/lv_color.h ****             color.green <= h_color.green &&
  50              		.loc 2 341 35 view .LVU6
  51 0018 9DF80510 		ldrb	r1, [sp, #5]	@ zero_extendqisi2
 340:Drivers/lvgl/src/draw/sw/blend/../../../misc/lv_color.h ****     return (color.red <= h_color.red &&
  52              		.loc 2 340 38 view .LVU7
  53 001c 8A42     		cmp	r2, r1
ARM GAS  /var/folders/qx/2_175_4n2s19vhvtspjhb3qh0000gn/T//cc1Hh9yO.s 			page 8


  54 001e 16D8     		bhi	.L4
 342:Drivers/lvgl/src/draw/sw/blend/../../../misc/lv_color.h ****             color.red >= l_color.red &&
  55              		.loc 2 342 18 view .LVU8
  56 0020 9DF80C10 		ldrb	r1, [sp, #12]	@ zero_extendqisi2
 342:Drivers/lvgl/src/draw/sw/blend/../../../misc/lv_color.h ****             color.red >= l_color.red &&
  57              		.loc 2 342 34 view .LVU9
  58 0024 9DF80400 		ldrb	r0, [sp, #4]	@ zero_extendqisi2
 341:Drivers/lvgl/src/draw/sw/blend/../../../misc/lv_color.h ****             color.green <= h_color.green &&
  59              		.loc 2 341 42 view .LVU10
  60 0028 8142     		cmp	r1, r0
  61 002a 12D8     		bhi	.L5
 343:Drivers/lvgl/src/draw/sw/blend/../../../misc/lv_color.h ****             color.green >= l_color.green &&
  62              		.loc 2 343 33 view .LVU11
  63 002c 9DF80A00 		ldrb	r0, [sp, #10]	@ zero_extendqisi2
 342:Drivers/lvgl/src/draw/sw/blend/../../../misc/lv_color.h ****             color.red >= l_color.red &&
  64              		.loc 2 342 40 view .LVU12
  65 0030 8342     		cmp	r3, r0
  66 0032 10D3     		bcc	.L6
  67              		.loc 2 344 35 view .LVU13
  68 0034 9DF80930 		ldrb	r3, [sp, #9]	@ zero_extendqisi2
 343:Drivers/lvgl/src/draw/sw/blend/../../../misc/lv_color.h ****             color.green >= l_color.green &&
  69              		.loc 2 343 38 view .LVU14
  70 0038 9A42     		cmp	r2, r3
  71 003a 0ED3     		bcc	.L7
 345:Drivers/lvgl/src/draw/sw/blend/../../../misc/lv_color.h ****             color.blue >= l_color.blue);
  72              		.loc 2 345 34 view .LVU15
  73 003c 9DF80830 		ldrb	r3, [sp, #8]	@ zero_extendqisi2
 344:Drivers/lvgl/src/draw/sw/blend/../../../misc/lv_color.h ****             color.blue >= l_color.blue);
  74              		.loc 2 344 42 discriminator 3 view .LVU16
  75 0040 9942     		cmp	r1, r3
  76 0042 0CD2     		bcs	.L8
 344:Drivers/lvgl/src/draw/sw/blend/../../../misc/lv_color.h ****             color.blue >= l_color.blue);
  77              		.loc 2 344 42 discriminator 1 view .LVU17
  78 0044 0020     		movs	r0, #0
  79 0046 00E0     		b	.L2
  80              	.L3:
  81 0048 0020     		movs	r0, #0
  82              	.L2:
 346:Drivers/lvgl/src/draw/sw/blend/../../../misc/lv_color.h **** }
  83              		.loc 2 346 1 view .LVU18
  84 004a 04B0     		add	sp, sp, #16
  85              	.LCFI1:
  86              		.cfi_remember_state
  87              		.cfi_def_cfa_offset 0
  88              		@ sp needed
  89 004c 7047     		bx	lr
  90              	.L4:
  91              	.LCFI2:
  92              		.cfi_restore_state
 344:Drivers/lvgl/src/draw/sw/blend/../../../misc/lv_color.h ****             color.blue >= l_color.blue);
  93              		.loc 2 344 42 discriminator 1 view .LVU19
  94 004e 0020     		movs	r0, #0
  95 0050 FBE7     		b	.L2
  96              	.L5:
  97 0052 0020     		movs	r0, #0
  98 0054 F9E7     		b	.L2
  99              	.L6:
ARM GAS  /var/folders/qx/2_175_4n2s19vhvtspjhb3qh0000gn/T//cc1Hh9yO.s 			page 9


 100 0056 0020     		movs	r0, #0
 101 0058 F7E7     		b	.L2
 102              	.L7:
 103 005a 0020     		movs	r0, #0
 104 005c F5E7     		b	.L2
 105              	.L8:
 344:Drivers/lvgl/src/draw/sw/blend/../../../misc/lv_color.h ****             color.blue >= l_color.blue);
 106              		.loc 2 344 42 discriminator 2 view .LVU20
 107 005e 0120     		movs	r0, #1
 108 0060 F3E7     		b	.L2
 109              		.cfi_endproc
 110              	.LFE4:
 112              		.section	.text.apply_mask,"ax",%progbits
 113              		.align	1
 114              		.syntax unified
 115              		.thumb
 116              		.thumb_func
 118              	apply_mask:
 119              	.LVL0:
 120              	.LFB201:
   1:Drivers/lvgl/src/draw/sw/lv_draw_sw_img.c **** /**
   2:Drivers/lvgl/src/draw/sw/lv_draw_sw_img.c ****  * @file lv_draw_sw_img.c
   3:Drivers/lvgl/src/draw/sw/lv_draw_sw_img.c ****  *
   4:Drivers/lvgl/src/draw/sw/lv_draw_sw_img.c ****  */
   5:Drivers/lvgl/src/draw/sw/lv_draw_sw_img.c **** 
   6:Drivers/lvgl/src/draw/sw/lv_draw_sw_img.c **** /*********************
   7:Drivers/lvgl/src/draw/sw/lv_draw_sw_img.c ****  *      INCLUDES
   8:Drivers/lvgl/src/draw/sw/lv_draw_sw_img.c ****  *********************/
   9:Drivers/lvgl/src/draw/sw/lv_draw_sw_img.c **** #include "../../misc/lv_area_private.h"
  10:Drivers/lvgl/src/draw/sw/lv_draw_sw_img.c **** #include "blend/lv_draw_sw_blend_private.h"
  11:Drivers/lvgl/src/draw/sw/lv_draw_sw_img.c **** #include "../lv_image_decoder_private.h"
  12:Drivers/lvgl/src/draw/sw/lv_draw_sw_img.c **** #include "../lv_draw_image_private.h"
  13:Drivers/lvgl/src/draw/sw/lv_draw_sw_img.c **** #include "../lv_draw_private.h"
  14:Drivers/lvgl/src/draw/sw/lv_draw_sw_img.c **** #include "lv_draw_sw.h"
  15:Drivers/lvgl/src/draw/sw/lv_draw_sw_img.c **** #if LV_USE_DRAW_SW
  16:Drivers/lvgl/src/draw/sw/lv_draw_sw_img.c **** 
  17:Drivers/lvgl/src/draw/sw/lv_draw_sw_img.c **** #include "../../display/lv_display.h"
  18:Drivers/lvgl/src/draw/sw/lv_draw_sw_img.c **** #include "../../display/lv_display_private.h"
  19:Drivers/lvgl/src/draw/sw/lv_draw_sw_img.c **** #include "../../misc/lv_log.h"
  20:Drivers/lvgl/src/draw/sw/lv_draw_sw_img.c **** #include "../../core/lv_refr_private.h"
  21:Drivers/lvgl/src/draw/sw/lv_draw_sw_img.c **** #include "../../stdlib/lv_mem.h"
  22:Drivers/lvgl/src/draw/sw/lv_draw_sw_img.c **** #include "../../misc/lv_math.h"
  23:Drivers/lvgl/src/draw/sw/lv_draw_sw_img.c **** #include "../../misc/lv_color.h"
  24:Drivers/lvgl/src/draw/sw/lv_draw_sw_img.c **** #include "../../stdlib/lv_string.h"
  25:Drivers/lvgl/src/draw/sw/lv_draw_sw_img.c **** #include "../../core/lv_global.h"
  26:Drivers/lvgl/src/draw/sw/lv_draw_sw_img.c **** 
  27:Drivers/lvgl/src/draw/sw/lv_draw_sw_img.c **** #if LV_USE_DRAW_SW_ASM == LV_DRAW_SW_ASM_HELIUM
  28:Drivers/lvgl/src/draw/sw/lv_draw_sw_img.c ****     #include "arm2d/lv_draw_sw_helium.h"
  29:Drivers/lvgl/src/draw/sw/lv_draw_sw_img.c **** #elif LV_USE_DRAW_SW_ASM == LV_DRAW_SW_ASM_CUSTOM
  30:Drivers/lvgl/src/draw/sw/lv_draw_sw_img.c ****     #include LV_DRAW_SW_ASM_CUSTOM_INCLUDE
  31:Drivers/lvgl/src/draw/sw/lv_draw_sw_img.c **** #endif
  32:Drivers/lvgl/src/draw/sw/lv_draw_sw_img.c **** 
  33:Drivers/lvgl/src/draw/sw/lv_draw_sw_img.c **** /*********************
  34:Drivers/lvgl/src/draw/sw/lv_draw_sw_img.c ****  *      DEFINES
  35:Drivers/lvgl/src/draw/sw/lv_draw_sw_img.c ****  *********************/
  36:Drivers/lvgl/src/draw/sw/lv_draw_sw_img.c **** #define MAX_BUF_SIZE (uint32_t) (4 * lv_display_get_horizontal_resolution(lv_refr_get_disp_refreshi
  37:Drivers/lvgl/src/draw/sw/lv_draw_sw_img.c **** 
ARM GAS  /var/folders/qx/2_175_4n2s19vhvtspjhb3qh0000gn/T//cc1Hh9yO.s 			page 10


  38:Drivers/lvgl/src/draw/sw/lv_draw_sw_img.c **** #ifndef LV_DRAW_SW_IMAGE
  39:Drivers/lvgl/src/draw/sw/lv_draw_sw_img.c ****     #define LV_DRAW_SW_IMAGE(...)   LV_RESULT_INVALID
  40:Drivers/lvgl/src/draw/sw/lv_draw_sw_img.c **** #endif
  41:Drivers/lvgl/src/draw/sw/lv_draw_sw_img.c **** 
  42:Drivers/lvgl/src/draw/sw/lv_draw_sw_img.c **** #ifndef LV_DRAW_SW_RGB565_RECOLOR
  43:Drivers/lvgl/src/draw/sw/lv_draw_sw_img.c ****     #define LV_DRAW_SW_RGB565_RECOLOR(...)  LV_RESULT_INVALID
  44:Drivers/lvgl/src/draw/sw/lv_draw_sw_img.c **** #endif
  45:Drivers/lvgl/src/draw/sw/lv_draw_sw_img.c **** 
  46:Drivers/lvgl/src/draw/sw/lv_draw_sw_img.c **** #ifndef LV_DRAW_SW_RGB565_SWAPPED_RECOLOR
  47:Drivers/lvgl/src/draw/sw/lv_draw_sw_img.c ****     #define LV_DRAW_SW_RGB565_SWAPPED_RECOLOR(...)  LV_RESULT_INVALID
  48:Drivers/lvgl/src/draw/sw/lv_draw_sw_img.c **** #endif
  49:Drivers/lvgl/src/draw/sw/lv_draw_sw_img.c **** 
  50:Drivers/lvgl/src/draw/sw/lv_draw_sw_img.c **** #ifndef LV_DRAW_SW_RGB888_RECOLOR
  51:Drivers/lvgl/src/draw/sw/lv_draw_sw_img.c ****     #define LV_DRAW_SW_RGB888_RECOLOR(...)  LV_RESULT_INVALID
  52:Drivers/lvgl/src/draw/sw/lv_draw_sw_img.c **** #endif
  53:Drivers/lvgl/src/draw/sw/lv_draw_sw_img.c **** 
  54:Drivers/lvgl/src/draw/sw/lv_draw_sw_img.c **** #ifndef LV_DRAW_SW_ARGB8888_PREMULTIPLIED_RECOLOR
  55:Drivers/lvgl/src/draw/sw/lv_draw_sw_img.c ****     #define LV_DRAW_SW_ARGB8888_PREMULTIPLIED_RECOLOR(...)  LV_RESULT_INVALID
  56:Drivers/lvgl/src/draw/sw/lv_draw_sw_img.c **** #endif
  57:Drivers/lvgl/src/draw/sw/lv_draw_sw_img.c **** 
  58:Drivers/lvgl/src/draw/sw/lv_draw_sw_img.c **** /**********************
  59:Drivers/lvgl/src/draw/sw/lv_draw_sw_img.c ****  *      TYPEDEFS
  60:Drivers/lvgl/src/draw/sw/lv_draw_sw_img.c ****  **********************/
  61:Drivers/lvgl/src/draw/sw/lv_draw_sw_img.c **** 
  62:Drivers/lvgl/src/draw/sw/lv_draw_sw_img.c **** /**********************
  63:Drivers/lvgl/src/draw/sw/lv_draw_sw_img.c ****  *  STATIC PROTOTYPES
  64:Drivers/lvgl/src/draw/sw/lv_draw_sw_img.c ****  **********************/
  65:Drivers/lvgl/src/draw/sw/lv_draw_sw_img.c **** 
  66:Drivers/lvgl/src/draw/sw/lv_draw_sw_img.c **** 
  67:Drivers/lvgl/src/draw/sw/lv_draw_sw_img.c **** static void img_draw_core(lv_draw_task_t * t, const lv_draw_image_dsc_t * draw_dsc,
  68:Drivers/lvgl/src/draw/sw/lv_draw_sw_img.c ****                           const lv_image_decoder_dsc_t * decoder_dsc, lv_draw_image_sup_t * sup,
  69:Drivers/lvgl/src/draw/sw/lv_draw_sw_img.c ****                           const lv_area_t * img_coords, const lv_area_t * clipped_img_area);
  70:Drivers/lvgl/src/draw/sw/lv_draw_sw_img.c **** 
  71:Drivers/lvgl/src/draw/sw/lv_draw_sw_img.c **** 
  72:Drivers/lvgl/src/draw/sw/lv_draw_sw_img.c **** #if LV_DRAW_SW_COMPLEX
  73:Drivers/lvgl/src/draw/sw/lv_draw_sw_img.c **** static void radius_only(lv_draw_task_t * t, const lv_draw_image_dsc_t * draw_dsc,
  74:Drivers/lvgl/src/draw/sw/lv_draw_sw_img.c ****                         const lv_image_decoder_dsc_t * decoder_dsc,
  75:Drivers/lvgl/src/draw/sw/lv_draw_sw_img.c ****                         const lv_area_t * img_coords, const lv_area_t * clipped_img_area);
  76:Drivers/lvgl/src/draw/sw/lv_draw_sw_img.c **** #endif /*LV_DRAW_SW_COMPLEX*/
  77:Drivers/lvgl/src/draw/sw/lv_draw_sw_img.c **** 
  78:Drivers/lvgl/src/draw/sw/lv_draw_sw_img.c **** static void recolor_only(lv_draw_task_t * t, const lv_draw_image_dsc_t * draw_dsc,
  79:Drivers/lvgl/src/draw/sw/lv_draw_sw_img.c ****                          const lv_image_decoder_dsc_t * decoder_dsc,
  80:Drivers/lvgl/src/draw/sw/lv_draw_sw_img.c ****                          const lv_area_t * img_coords, const lv_area_t * clipped_img_area);
  81:Drivers/lvgl/src/draw/sw/lv_draw_sw_img.c **** 
  82:Drivers/lvgl/src/draw/sw/lv_draw_sw_img.c **** static void transform_and_recolor(lv_draw_task_t * t, const lv_draw_image_dsc_t * draw_dsc,
  83:Drivers/lvgl/src/draw/sw/lv_draw_sw_img.c ****                                   const lv_image_decoder_dsc_t * decoder_dsc, lv_draw_image_sup_t *
  84:Drivers/lvgl/src/draw/sw/lv_draw_sw_img.c ****                                   const lv_area_t * img_coords, const lv_area_t * clipped_img_area)
  85:Drivers/lvgl/src/draw/sw/lv_draw_sw_img.c **** 
  86:Drivers/lvgl/src/draw/sw/lv_draw_sw_img.c **** static void recolor(lv_area_t relative_area, uint8_t * src_buf, uint8_t * dest_buf, int32_t src_str
  87:Drivers/lvgl/src/draw/sw/lv_draw_sw_img.c ****                     lv_color_format_t cf, const lv_draw_image_dsc_t * draw_dsc);
  88:Drivers/lvgl/src/draw/sw/lv_draw_sw_img.c **** 
  89:Drivers/lvgl/src/draw/sw/lv_draw_sw_img.c **** static void colorkey_and_recolor(lv_area_t relative_area, uint8_t * src_buf, uint8_t * dest_buf, in
  90:Drivers/lvgl/src/draw/sw/lv_draw_sw_img.c ****                                  lv_color_format_t cf, const lv_draw_image_dsc_t * draw_dsc, lv_dra
  91:Drivers/lvgl/src/draw/sw/lv_draw_sw_img.c **** 
  92:Drivers/lvgl/src/draw/sw/lv_draw_sw_img.c **** static bool apply_mask(const lv_draw_image_dsc_t * draw_dsc);
  93:Drivers/lvgl/src/draw/sw/lv_draw_sw_img.c **** 
  94:Drivers/lvgl/src/draw/sw/lv_draw_sw_img.c **** /**********************
ARM GAS  /var/folders/qx/2_175_4n2s19vhvtspjhb3qh0000gn/T//cc1Hh9yO.s 			page 11


  95:Drivers/lvgl/src/draw/sw/lv_draw_sw_img.c ****  *  STATIC VARIABLES
  96:Drivers/lvgl/src/draw/sw/lv_draw_sw_img.c ****  **********************/
  97:Drivers/lvgl/src/draw/sw/lv_draw_sw_img.c **** #define _draw_info LV_GLOBAL_DEFAULT()->draw_info
  98:Drivers/lvgl/src/draw/sw/lv_draw_sw_img.c **** 
  99:Drivers/lvgl/src/draw/sw/lv_draw_sw_img.c **** /**********************
 100:Drivers/lvgl/src/draw/sw/lv_draw_sw_img.c ****  *      MACROS
 101:Drivers/lvgl/src/draw/sw/lv_draw_sw_img.c ****  **********************/
 102:Drivers/lvgl/src/draw/sw/lv_draw_sw_img.c **** 
 103:Drivers/lvgl/src/draw/sw/lv_draw_sw_img.c **** /**********************
 104:Drivers/lvgl/src/draw/sw/lv_draw_sw_img.c ****  *   GLOBAL FUNCTIONS
 105:Drivers/lvgl/src/draw/sw/lv_draw_sw_img.c ****  **********************/
 106:Drivers/lvgl/src/draw/sw/lv_draw_sw_img.c **** 
 107:Drivers/lvgl/src/draw/sw/lv_draw_sw_img.c **** void lv_draw_sw_layer(lv_draw_task_t * t, const lv_draw_image_dsc_t * draw_dsc, const lv_area_t * c
 108:Drivers/lvgl/src/draw/sw/lv_draw_sw_img.c **** {
 109:Drivers/lvgl/src/draw/sw/lv_draw_sw_img.c ****     lv_layer_t * layer_to_draw = (lv_layer_t *)draw_dsc->src;
 110:Drivers/lvgl/src/draw/sw/lv_draw_sw_img.c **** 
 111:Drivers/lvgl/src/draw/sw/lv_draw_sw_img.c ****     /*It can happen that nothing was draw on a layer and therefore its buffer is not allocated.
 112:Drivers/lvgl/src/draw/sw/lv_draw_sw_img.c ****      *In this case just return. */
 113:Drivers/lvgl/src/draw/sw/lv_draw_sw_img.c ****     if(layer_to_draw->draw_buf == NULL) return;
 114:Drivers/lvgl/src/draw/sw/lv_draw_sw_img.c **** 
 115:Drivers/lvgl/src/draw/sw/lv_draw_sw_img.c ****     if(draw_dsc->bitmap_mask_src) {
 116:Drivers/lvgl/src/draw/sw/lv_draw_sw_img.c ****         bool visible = apply_mask(draw_dsc);
 117:Drivers/lvgl/src/draw/sw/lv_draw_sw_img.c ****         if(!visible) return;
 118:Drivers/lvgl/src/draw/sw/lv_draw_sw_img.c ****     }
 119:Drivers/lvgl/src/draw/sw/lv_draw_sw_img.c **** 
 120:Drivers/lvgl/src/draw/sw/lv_draw_sw_img.c ****     /*The source should be a draw_buf, not a layer*/
 121:Drivers/lvgl/src/draw/sw/lv_draw_sw_img.c ****     lv_draw_image_dsc_t new_draw_dsc = *draw_dsc;
 122:Drivers/lvgl/src/draw/sw/lv_draw_sw_img.c ****     new_draw_dsc.src = layer_to_draw->draw_buf;
 123:Drivers/lvgl/src/draw/sw/lv_draw_sw_img.c **** 
 124:Drivers/lvgl/src/draw/sw/lv_draw_sw_img.c ****     lv_draw_sw_image(t, &new_draw_dsc, coords);
 125:Drivers/lvgl/src/draw/sw/lv_draw_sw_img.c **** 
 126:Drivers/lvgl/src/draw/sw/lv_draw_sw_img.c **** #if LV_USE_LAYER_DEBUG || LV_USE_PARALLEL_DRAW_DEBUG
 127:Drivers/lvgl/src/draw/sw/lv_draw_sw_img.c ****     lv_area_t area_rot;
 128:Drivers/lvgl/src/draw/sw/lv_draw_sw_img.c ****     lv_area_copy(&area_rot, coords);
 129:Drivers/lvgl/src/draw/sw/lv_draw_sw_img.c ****     if(draw_dsc->rotation || draw_dsc->scale_x != LV_SCALE_NONE || draw_dsc->scale_y != LV_SCALE_NO
 130:Drivers/lvgl/src/draw/sw/lv_draw_sw_img.c ****         int32_t w = lv_area_get_width(coords);
 131:Drivers/lvgl/src/draw/sw/lv_draw_sw_img.c ****         int32_t h = lv_area_get_height(coords);
 132:Drivers/lvgl/src/draw/sw/lv_draw_sw_img.c **** 
 133:Drivers/lvgl/src/draw/sw/lv_draw_sw_img.c ****         lv_image_buf_get_transformed_area(&area_rot, w, h, draw_dsc->rotation, draw_dsc->scale_x, d
 134:Drivers/lvgl/src/draw/sw/lv_draw_sw_img.c ****                                           &draw_dsc->pivot);
 135:Drivers/lvgl/src/draw/sw/lv_draw_sw_img.c **** 
 136:Drivers/lvgl/src/draw/sw/lv_draw_sw_img.c ****         area_rot.x1 += coords->x1;
 137:Drivers/lvgl/src/draw/sw/lv_draw_sw_img.c ****         area_rot.y1 += coords->y1;
 138:Drivers/lvgl/src/draw/sw/lv_draw_sw_img.c ****         area_rot.x2 += coords->x1;
 139:Drivers/lvgl/src/draw/sw/lv_draw_sw_img.c ****         area_rot.y2 += coords->y1;
 140:Drivers/lvgl/src/draw/sw/lv_draw_sw_img.c ****     }
 141:Drivers/lvgl/src/draw/sw/lv_draw_sw_img.c ****     lv_area_t draw_area;
 142:Drivers/lvgl/src/draw/sw/lv_draw_sw_img.c ****     if(!lv_area_intersect(&draw_area, &area_rot, &t->clip_area)) return;
 143:Drivers/lvgl/src/draw/sw/lv_draw_sw_img.c **** #endif
 144:Drivers/lvgl/src/draw/sw/lv_draw_sw_img.c **** 
 145:Drivers/lvgl/src/draw/sw/lv_draw_sw_img.c **** #if LV_USE_LAYER_DEBUG
 146:Drivers/lvgl/src/draw/sw/lv_draw_sw_img.c ****     {
 147:Drivers/lvgl/src/draw/sw/lv_draw_sw_img.c ****         lv_draw_fill_dsc_t fill_dsc;
 148:Drivers/lvgl/src/draw/sw/lv_draw_sw_img.c ****         lv_draw_fill_dsc_init(&fill_dsc);
 149:Drivers/lvgl/src/draw/sw/lv_draw_sw_img.c ****         fill_dsc.color = lv_color_hex(layer_to_draw->color_format == LV_COLOR_FORMAT_ARGB8888 ? 0xf
 150:Drivers/lvgl/src/draw/sw/lv_draw_sw_img.c ****         fill_dsc.opa = LV_OPA_20;
 151:Drivers/lvgl/src/draw/sw/lv_draw_sw_img.c ****         lv_draw_sw_fill(t, &fill_dsc, &area_rot);
ARM GAS  /var/folders/qx/2_175_4n2s19vhvtspjhb3qh0000gn/T//cc1Hh9yO.s 			page 12


 152:Drivers/lvgl/src/draw/sw/lv_draw_sw_img.c **** 
 153:Drivers/lvgl/src/draw/sw/lv_draw_sw_img.c ****         lv_draw_border_dsc_t border_dsc;
 154:Drivers/lvgl/src/draw/sw/lv_draw_sw_img.c ****         lv_draw_border_dsc_init(&border_dsc);
 155:Drivers/lvgl/src/draw/sw/lv_draw_sw_img.c ****         border_dsc.color = fill_dsc.color;
 156:Drivers/lvgl/src/draw/sw/lv_draw_sw_img.c ****         border_dsc.opa = LV_OPA_60;
 157:Drivers/lvgl/src/draw/sw/lv_draw_sw_img.c ****         border_dsc.width = 2;
 158:Drivers/lvgl/src/draw/sw/lv_draw_sw_img.c ****         lv_draw_sw_border(t, &border_dsc, &area_rot);
 159:Drivers/lvgl/src/draw/sw/lv_draw_sw_img.c ****     }
 160:Drivers/lvgl/src/draw/sw/lv_draw_sw_img.c **** 
 161:Drivers/lvgl/src/draw/sw/lv_draw_sw_img.c **** #endif
 162:Drivers/lvgl/src/draw/sw/lv_draw_sw_img.c **** 
 163:Drivers/lvgl/src/draw/sw/lv_draw_sw_img.c **** #if LV_USE_PARALLEL_DRAW_DEBUG
 164:Drivers/lvgl/src/draw/sw/lv_draw_sw_img.c ****     {
 165:Drivers/lvgl/src/draw/sw/lv_draw_sw_img.c ****         int32_t idx = t->draw_unit->idx;
 166:Drivers/lvgl/src/draw/sw/lv_draw_sw_img.c **** 
 167:Drivers/lvgl/src/draw/sw/lv_draw_sw_img.c ****         lv_draw_fill_dsc_t fill_dsc;
 168:Drivers/lvgl/src/draw/sw/lv_draw_sw_img.c ****         lv_draw_fill_dsc_init(&fill_dsc);
 169:Drivers/lvgl/src/draw/sw/lv_draw_sw_img.c ****         fill_dsc.color = lv_palette_main(idx % LV_PALETTE_LAST);
 170:Drivers/lvgl/src/draw/sw/lv_draw_sw_img.c ****         fill_dsc.opa = LV_OPA_10;
 171:Drivers/lvgl/src/draw/sw/lv_draw_sw_img.c ****         lv_draw_sw_fill(t, &fill_dsc, &area_rot);
 172:Drivers/lvgl/src/draw/sw/lv_draw_sw_img.c **** 
 173:Drivers/lvgl/src/draw/sw/lv_draw_sw_img.c ****         lv_draw_border_dsc_t border_dsc;
 174:Drivers/lvgl/src/draw/sw/lv_draw_sw_img.c ****         lv_draw_border_dsc_init(&border_dsc);
 175:Drivers/lvgl/src/draw/sw/lv_draw_sw_img.c ****         border_dsc.color = lv_palette_main(idx % LV_PALETTE_LAST);
 176:Drivers/lvgl/src/draw/sw/lv_draw_sw_img.c ****         border_dsc.opa = LV_OPA_60;
 177:Drivers/lvgl/src/draw/sw/lv_draw_sw_img.c ****         border_dsc.width = 1;
 178:Drivers/lvgl/src/draw/sw/lv_draw_sw_img.c ****         lv_draw_sw_border(t, &border_dsc, &area_rot);
 179:Drivers/lvgl/src/draw/sw/lv_draw_sw_img.c **** 
 180:Drivers/lvgl/src/draw/sw/lv_draw_sw_img.c ****         lv_point_t txt_size;
 181:Drivers/lvgl/src/draw/sw/lv_draw_sw_img.c ****         lv_text_get_size_attributes(&txt_size, "W", LV_FONT_DEFAULT, 0, 0, 100, LV_TEXT_FLAG_NONE);
 182:Drivers/lvgl/src/draw/sw/lv_draw_sw_img.c **** 
 183:Drivers/lvgl/src/draw/sw/lv_draw_sw_img.c ****         lv_area_t txt_area;
 184:Drivers/lvgl/src/draw/sw/lv_draw_sw_img.c ****         txt_area.x1 = draw_area.x1;
 185:Drivers/lvgl/src/draw/sw/lv_draw_sw_img.c ****         txt_area.x2 = draw_area.x1 + txt_size.x - 1;
 186:Drivers/lvgl/src/draw/sw/lv_draw_sw_img.c ****         txt_area.y2 = draw_area.y2;
 187:Drivers/lvgl/src/draw/sw/lv_draw_sw_img.c ****         txt_area.y1 = draw_area.y2 - txt_size.y + 1;
 188:Drivers/lvgl/src/draw/sw/lv_draw_sw_img.c **** 
 189:Drivers/lvgl/src/draw/sw/lv_draw_sw_img.c ****         lv_draw_fill_dsc_init(&fill_dsc);
 190:Drivers/lvgl/src/draw/sw/lv_draw_sw_img.c ****         fill_dsc.color = lv_color_black();
 191:Drivers/lvgl/src/draw/sw/lv_draw_sw_img.c ****         lv_draw_sw_fill(t, &fill_dsc, &txt_area);
 192:Drivers/lvgl/src/draw/sw/lv_draw_sw_img.c **** 
 193:Drivers/lvgl/src/draw/sw/lv_draw_sw_img.c ****         char buf[8];
 194:Drivers/lvgl/src/draw/sw/lv_draw_sw_img.c ****         lv_snprintf(buf, sizeof(buf), "%d", idx);
 195:Drivers/lvgl/src/draw/sw/lv_draw_sw_img.c ****         lv_draw_label_dsc_t label_dsc;
 196:Drivers/lvgl/src/draw/sw/lv_draw_sw_img.c ****         lv_draw_label_dsc_init(&label_dsc);
 197:Drivers/lvgl/src/draw/sw/lv_draw_sw_img.c ****         label_dsc.color = lv_color_white();
 198:Drivers/lvgl/src/draw/sw/lv_draw_sw_img.c ****         label_dsc.text = buf;
 199:Drivers/lvgl/src/draw/sw/lv_draw_sw_img.c ****         lv_draw_sw_label(t, &label_dsc, &txt_area);
 200:Drivers/lvgl/src/draw/sw/lv_draw_sw_img.c ****     }
 201:Drivers/lvgl/src/draw/sw/lv_draw_sw_img.c **** #endif
 202:Drivers/lvgl/src/draw/sw/lv_draw_sw_img.c **** }
 203:Drivers/lvgl/src/draw/sw/lv_draw_sw_img.c **** 
 204:Drivers/lvgl/src/draw/sw/lv_draw_sw_img.c **** void lv_draw_sw_image(lv_draw_task_t * t, const lv_draw_image_dsc_t * draw_dsc,
 205:Drivers/lvgl/src/draw/sw/lv_draw_sw_img.c ****                       const lv_area_t * coords)
 206:Drivers/lvgl/src/draw/sw/lv_draw_sw_img.c **** {
 207:Drivers/lvgl/src/draw/sw/lv_draw_sw_img.c ****     if(!draw_dsc->tile) {
 208:Drivers/lvgl/src/draw/sw/lv_draw_sw_img.c ****         lv_draw_image_normal_helper(t, draw_dsc, coords, img_draw_core);
ARM GAS  /var/folders/qx/2_175_4n2s19vhvtspjhb3qh0000gn/T//cc1Hh9yO.s 			page 13


 209:Drivers/lvgl/src/draw/sw/lv_draw_sw_img.c ****     }
 210:Drivers/lvgl/src/draw/sw/lv_draw_sw_img.c ****     else {
 211:Drivers/lvgl/src/draw/sw/lv_draw_sw_img.c ****         lv_draw_image_tiled_helper(t, draw_dsc, coords, img_draw_core);
 212:Drivers/lvgl/src/draw/sw/lv_draw_sw_img.c ****     }
 213:Drivers/lvgl/src/draw/sw/lv_draw_sw_img.c **** }
 214:Drivers/lvgl/src/draw/sw/lv_draw_sw_img.c **** 
 215:Drivers/lvgl/src/draw/sw/lv_draw_sw_img.c **** /**********************
 216:Drivers/lvgl/src/draw/sw/lv_draw_sw_img.c ****  *   STATIC FUNCTIONS
 217:Drivers/lvgl/src/draw/sw/lv_draw_sw_img.c ****  **********************/
 218:Drivers/lvgl/src/draw/sw/lv_draw_sw_img.c **** 
 219:Drivers/lvgl/src/draw/sw/lv_draw_sw_img.c **** static void img_draw_core(lv_draw_task_t * t, const lv_draw_image_dsc_t * draw_dsc,
 220:Drivers/lvgl/src/draw/sw/lv_draw_sw_img.c ****                           const lv_image_decoder_dsc_t * decoder_dsc, lv_draw_image_sup_t * sup,
 221:Drivers/lvgl/src/draw/sw/lv_draw_sw_img.c ****                           const lv_area_t * img_coords, const lv_area_t * clipped_img_area)
 222:Drivers/lvgl/src/draw/sw/lv_draw_sw_img.c **** {
 223:Drivers/lvgl/src/draw/sw/lv_draw_sw_img.c ****     bool transformed = draw_dsc->rotation != 0 || draw_dsc->scale_x != LV_SCALE_NONE ||
 224:Drivers/lvgl/src/draw/sw/lv_draw_sw_img.c ****                        draw_dsc->scale_y != LV_SCALE_NONE ? true : false;
 225:Drivers/lvgl/src/draw/sw/lv_draw_sw_img.c **** 
 226:Drivers/lvgl/src/draw/sw/lv_draw_sw_img.c ****     bool radius = draw_dsc->clip_radius > 0;
 227:Drivers/lvgl/src/draw/sw/lv_draw_sw_img.c **** 
 228:Drivers/lvgl/src/draw/sw/lv_draw_sw_img.c ****     const lv_draw_buf_t * decoded = decoder_dsc->decoded;
 229:Drivers/lvgl/src/draw/sw/lv_draw_sw_img.c ****     const uint8_t * src_buf = decoded->data;
 230:Drivers/lvgl/src/draw/sw/lv_draw_sw_img.c ****     const lv_image_header_t * header = &decoded->header;
 231:Drivers/lvgl/src/draw/sw/lv_draw_sw_img.c ****     uint32_t img_stride = decoded->header.stride;
 232:Drivers/lvgl/src/draw/sw/lv_draw_sw_img.c ****     lv_color_format_t cf = decoded->header.cf;
 233:Drivers/lvgl/src/draw/sw/lv_draw_sw_img.c **** 
 234:Drivers/lvgl/src/draw/sw/lv_draw_sw_img.c ****     lv_draw_sw_blend_dsc_t blend_dsc;
 235:Drivers/lvgl/src/draw/sw/lv_draw_sw_img.c ****     lv_memzero(&blend_dsc, sizeof(lv_draw_sw_blend_dsc_t));
 236:Drivers/lvgl/src/draw/sw/lv_draw_sw_img.c ****     blend_dsc.opa = draw_dsc->opa;
 237:Drivers/lvgl/src/draw/sw/lv_draw_sw_img.c ****     blend_dsc.blend_mode = draw_dsc->blend_mode;
 238:Drivers/lvgl/src/draw/sw/lv_draw_sw_img.c ****     blend_dsc.src_stride = img_stride;
 239:Drivers/lvgl/src/draw/sw/lv_draw_sw_img.c **** 
 240:Drivers/lvgl/src/draw/sw/lv_draw_sw_img.c ****     if(!transformed && !radius && cf == LV_COLOR_FORMAT_A8) {
 241:Drivers/lvgl/src/draw/sw/lv_draw_sw_img.c ****         lv_area_t clipped_coords;
 242:Drivers/lvgl/src/draw/sw/lv_draw_sw_img.c ****         if(!lv_area_intersect(&clipped_coords, img_coords, &t->clip_area)) return;
 243:Drivers/lvgl/src/draw/sw/lv_draw_sw_img.c **** 
 244:Drivers/lvgl/src/draw/sw/lv_draw_sw_img.c ****         blend_dsc.mask_buf = (lv_opa_t *)src_buf;
 245:Drivers/lvgl/src/draw/sw/lv_draw_sw_img.c ****         blend_dsc.mask_area = img_coords;
 246:Drivers/lvgl/src/draw/sw/lv_draw_sw_img.c ****         blend_dsc.mask_stride = img_stride;
 247:Drivers/lvgl/src/draw/sw/lv_draw_sw_img.c ****         blend_dsc.src_buf = NULL;
 248:Drivers/lvgl/src/draw/sw/lv_draw_sw_img.c ****         blend_dsc.color = draw_dsc->recolor;
 249:Drivers/lvgl/src/draw/sw/lv_draw_sw_img.c ****         blend_dsc.mask_res = LV_DRAW_SW_MASK_RES_CHANGED;
 250:Drivers/lvgl/src/draw/sw/lv_draw_sw_img.c **** 
 251:Drivers/lvgl/src/draw/sw/lv_draw_sw_img.c ****         blend_dsc.blend_area = img_coords;
 252:Drivers/lvgl/src/draw/sw/lv_draw_sw_img.c ****         lv_draw_sw_blend(t, &blend_dsc);
 253:Drivers/lvgl/src/draw/sw/lv_draw_sw_img.c ****     }
 254:Drivers/lvgl/src/draw/sw/lv_draw_sw_img.c ****     else if(!transformed && !radius && cf == LV_COLOR_FORMAT_RGB565A8 && draw_dsc->recolor_opa <= L
 255:Drivers/lvgl/src/draw/sw/lv_draw_sw_img.c ****             draw_dsc->colorkey == NULL) {
 256:Drivers/lvgl/src/draw/sw/lv_draw_sw_img.c ****         int32_t src_h = lv_area_get_height(img_coords);
 257:Drivers/lvgl/src/draw/sw/lv_draw_sw_img.c ****         int32_t src_w = lv_area_get_width(img_coords);
 258:Drivers/lvgl/src/draw/sw/lv_draw_sw_img.c ****         blend_dsc.src_area = img_coords;
 259:Drivers/lvgl/src/draw/sw/lv_draw_sw_img.c ****         blend_dsc.src_buf = src_buf;
 260:Drivers/lvgl/src/draw/sw/lv_draw_sw_img.c ****         blend_dsc.mask_buf = (lv_opa_t *)src_buf;
 261:Drivers/lvgl/src/draw/sw/lv_draw_sw_img.c ****         blend_dsc.mask_buf += img_stride * src_w / header->w * src_h;
 262:Drivers/lvgl/src/draw/sw/lv_draw_sw_img.c ****         /**
 263:Drivers/lvgl/src/draw/sw/lv_draw_sw_img.c ****          * Note, for RGB565A8, lacking of stride parameter, we always use
 264:Drivers/lvgl/src/draw/sw/lv_draw_sw_img.c ****          * always half of RGB map stride as alpha map stride. The image should
 265:Drivers/lvgl/src/draw/sw/lv_draw_sw_img.c ****          * be generated in this way too.
ARM GAS  /var/folders/qx/2_175_4n2s19vhvtspjhb3qh0000gn/T//cc1Hh9yO.s 			page 14


 266:Drivers/lvgl/src/draw/sw/lv_draw_sw_img.c ****          */
 267:Drivers/lvgl/src/draw/sw/lv_draw_sw_img.c ****         blend_dsc.mask_stride = img_stride / 2;
 268:Drivers/lvgl/src/draw/sw/lv_draw_sw_img.c ****         blend_dsc.blend_area = img_coords;
 269:Drivers/lvgl/src/draw/sw/lv_draw_sw_img.c ****         blend_dsc.mask_area = img_coords;
 270:Drivers/lvgl/src/draw/sw/lv_draw_sw_img.c ****         blend_dsc.mask_res = LV_DRAW_SW_MASK_RES_CHANGED;
 271:Drivers/lvgl/src/draw/sw/lv_draw_sw_img.c ****         blend_dsc.src_color_format = LV_COLOR_FORMAT_RGB565;
 272:Drivers/lvgl/src/draw/sw/lv_draw_sw_img.c ****         lv_draw_sw_blend(t, &blend_dsc);
 273:Drivers/lvgl/src/draw/sw/lv_draw_sw_img.c ****     }
 274:Drivers/lvgl/src/draw/sw/lv_draw_sw_img.c ****     else if(!transformed && !radius && (cf == LV_COLOR_FORMAT_L8 || cf == LV_COLOR_FORMAT_AL88) &&
 275:Drivers/lvgl/src/draw/sw/lv_draw_sw_img.c ****             draw_dsc->colorkey == NULL) {
 276:Drivers/lvgl/src/draw/sw/lv_draw_sw_img.c ****         blend_dsc.src_area = img_coords;
 277:Drivers/lvgl/src/draw/sw/lv_draw_sw_img.c ****         blend_dsc.src_buf = src_buf;
 278:Drivers/lvgl/src/draw/sw/lv_draw_sw_img.c ****         blend_dsc.blend_area = img_coords;
 279:Drivers/lvgl/src/draw/sw/lv_draw_sw_img.c ****         blend_dsc.src_color_format = cf;
 280:Drivers/lvgl/src/draw/sw/lv_draw_sw_img.c ****         lv_draw_sw_blend(t, &blend_dsc);
 281:Drivers/lvgl/src/draw/sw/lv_draw_sw_img.c ****     }
 282:Drivers/lvgl/src/draw/sw/lv_draw_sw_img.c ****     /*The simplest case just copy the pixels into the draw_buf. Blending will convert the colors if
 283:Drivers/lvgl/src/draw/sw/lv_draw_sw_img.c ****     else if(!transformed && !radius && draw_dsc->recolor_opa <= LV_OPA_MIN && draw_dsc->colorkey ==
 284:Drivers/lvgl/src/draw/sw/lv_draw_sw_img.c ****         blend_dsc.src_area = img_coords;
 285:Drivers/lvgl/src/draw/sw/lv_draw_sw_img.c ****         blend_dsc.src_buf = src_buf;
 286:Drivers/lvgl/src/draw/sw/lv_draw_sw_img.c ****         blend_dsc.blend_area = img_coords;
 287:Drivers/lvgl/src/draw/sw/lv_draw_sw_img.c ****         blend_dsc.src_color_format = cf;
 288:Drivers/lvgl/src/draw/sw/lv_draw_sw_img.c ****         lv_draw_sw_blend(t, &blend_dsc);
 289:Drivers/lvgl/src/draw/sw/lv_draw_sw_img.c ****     }
 290:Drivers/lvgl/src/draw/sw/lv_draw_sw_img.c ****     else if(!transformed && !radius && draw_dsc->recolor_opa > LV_OPA_MIN && draw_dsc->colorkey == 
 291:Drivers/lvgl/src/draw/sw/lv_draw_sw_img.c ****         recolor_only(t, draw_dsc, decoder_dsc, img_coords,  clipped_img_area);
 292:Drivers/lvgl/src/draw/sw/lv_draw_sw_img.c ****     }
 293:Drivers/lvgl/src/draw/sw/lv_draw_sw_img.c **** #if LV_DRAW_SW_COMPLEX
 294:Drivers/lvgl/src/draw/sw/lv_draw_sw_img.c ****     /*Handle masked RGB565, RGB888, XRGB888, or ARGB8888 images*/
 295:Drivers/lvgl/src/draw/sw/lv_draw_sw_img.c ****     else if(!transformed && radius && draw_dsc->recolor_opa <= LV_OPA_MIN && draw_dsc->colorkey == 
 296:Drivers/lvgl/src/draw/sw/lv_draw_sw_img.c ****         radius_only(t, draw_dsc, decoder_dsc, img_coords,  clipped_img_area);
 297:Drivers/lvgl/src/draw/sw/lv_draw_sw_img.c ****     }
 298:Drivers/lvgl/src/draw/sw/lv_draw_sw_img.c **** #endif /*LV_DRAW_SW_COMPLEX*/
 299:Drivers/lvgl/src/draw/sw/lv_draw_sw_img.c ****     /* check whether it is possible to accelerate the operation in synchronous mode */
 300:Drivers/lvgl/src/draw/sw/lv_draw_sw_img.c ****     else if(LV_RESULT_INVALID == LV_DRAW_SW_IMAGE(transformed,      /* whether require transform */
 301:Drivers/lvgl/src/draw/sw/lv_draw_sw_img.c ****                                                   cf,               /* image format */
 302:Drivers/lvgl/src/draw/sw/lv_draw_sw_img.c ****                                                   src_buf,          /* image buffer */
 303:Drivers/lvgl/src/draw/sw/lv_draw_sw_img.c ****                                                   img_coords,       /* src_h, src_w, src_x1, src_y1
 304:Drivers/lvgl/src/draw/sw/lv_draw_sw_img.c ****                                                   img_stride,       /* image stride */
 305:Drivers/lvgl/src/draw/sw/lv_draw_sw_img.c ****                                                   clipped_img_area, /* blend area */
 306:Drivers/lvgl/src/draw/sw/lv_draw_sw_img.c ****                                                   t,                /* target buffer, buffer width,
 307:Drivers/lvgl/src/draw/sw/lv_draw_sw_img.c ****                                                   draw_dsc)) {      /* opa, recolour_opa and colour
 308:Drivers/lvgl/src/draw/sw/lv_draw_sw_img.c ****         /*In the other cases every pixel need to be checked one-by-one*/
 309:Drivers/lvgl/src/draw/sw/lv_draw_sw_img.c ****         transform_and_recolor(t, draw_dsc, decoder_dsc, sup, img_coords, clipped_img_area);
 310:Drivers/lvgl/src/draw/sw/lv_draw_sw_img.c **** 
 311:Drivers/lvgl/src/draw/sw/lv_draw_sw_img.c ****     }
 312:Drivers/lvgl/src/draw/sw/lv_draw_sw_img.c **** }
 313:Drivers/lvgl/src/draw/sw/lv_draw_sw_img.c **** #if LV_DRAW_SW_COMPLEX
 314:Drivers/lvgl/src/draw/sw/lv_draw_sw_img.c **** static void radius_only(lv_draw_task_t * t, const lv_draw_image_dsc_t * draw_dsc,
 315:Drivers/lvgl/src/draw/sw/lv_draw_sw_img.c ****                         const lv_image_decoder_dsc_t * decoder_dsc,
 316:Drivers/lvgl/src/draw/sw/lv_draw_sw_img.c ****                         const lv_area_t * img_coords, const lv_area_t * clipped_img_area)
 317:Drivers/lvgl/src/draw/sw/lv_draw_sw_img.c **** {
 318:Drivers/lvgl/src/draw/sw/lv_draw_sw_img.c **** 
 319:Drivers/lvgl/src/draw/sw/lv_draw_sw_img.c ****     const lv_draw_buf_t * decoded = decoder_dsc->decoded;
 320:Drivers/lvgl/src/draw/sw/lv_draw_sw_img.c ****     uint32_t img_stride = decoded->header.stride;
 321:Drivers/lvgl/src/draw/sw/lv_draw_sw_img.c ****     lv_color_format_t cf = decoded->header.cf;
 322:Drivers/lvgl/src/draw/sw/lv_draw_sw_img.c ****     lv_color_format_t cf_ori = cf;
ARM GAS  /var/folders/qx/2_175_4n2s19vhvtspjhb3qh0000gn/T//cc1Hh9yO.s 			page 15


 323:Drivers/lvgl/src/draw/sw/lv_draw_sw_img.c **** 
 324:Drivers/lvgl/src/draw/sw/lv_draw_sw_img.c ****     if(cf == LV_COLOR_FORMAT_RGB565A8) {
 325:Drivers/lvgl/src/draw/sw/lv_draw_sw_img.c ****         cf = LV_COLOR_FORMAT_RGB565;
 326:Drivers/lvgl/src/draw/sw/lv_draw_sw_img.c ****     }
 327:Drivers/lvgl/src/draw/sw/lv_draw_sw_img.c **** 
 328:Drivers/lvgl/src/draw/sw/lv_draw_sw_img.c ****     lv_draw_sw_blend_dsc_t blend_dsc;
 329:Drivers/lvgl/src/draw/sw/lv_draw_sw_img.c ****     lv_memzero(&blend_dsc, sizeof(lv_draw_sw_blend_dsc_t));
 330:Drivers/lvgl/src/draw/sw/lv_draw_sw_img.c ****     blend_dsc.opa = draw_dsc->opa;
 331:Drivers/lvgl/src/draw/sw/lv_draw_sw_img.c ****     blend_dsc.blend_mode = draw_dsc->blend_mode;
 332:Drivers/lvgl/src/draw/sw/lv_draw_sw_img.c ****     blend_dsc.src_stride = img_stride;
 333:Drivers/lvgl/src/draw/sw/lv_draw_sw_img.c ****     blend_dsc.src_area = img_coords;
 334:Drivers/lvgl/src/draw/sw/lv_draw_sw_img.c ****     blend_dsc.src_buf = decoded->data;
 335:Drivers/lvgl/src/draw/sw/lv_draw_sw_img.c ****     blend_dsc.src_color_format = cf;
 336:Drivers/lvgl/src/draw/sw/lv_draw_sw_img.c **** 
 337:Drivers/lvgl/src/draw/sw/lv_draw_sw_img.c ****     lv_area_t blend_area = *clipped_img_area;
 338:Drivers/lvgl/src/draw/sw/lv_draw_sw_img.c ****     blend_dsc.blend_area = &blend_area;
 339:Drivers/lvgl/src/draw/sw/lv_draw_sw_img.c ****     int32_t y_last = blend_area.y2;
 340:Drivers/lvgl/src/draw/sw/lv_draw_sw_img.c ****     blend_area.y2 = blend_area.y1;
 341:Drivers/lvgl/src/draw/sw/lv_draw_sw_img.c **** 
 342:Drivers/lvgl/src/draw/sw/lv_draw_sw_img.c ****     int32_t blend_w = lv_area_get_width(&blend_area);
 343:Drivers/lvgl/src/draw/sw/lv_draw_sw_img.c ****     uint8_t * mask_buf = lv_malloc(blend_w);
 344:Drivers/lvgl/src/draw/sw/lv_draw_sw_img.c ****     blend_dsc.mask_buf = mask_buf;
 345:Drivers/lvgl/src/draw/sw/lv_draw_sw_img.c ****     blend_dsc.mask_area = &blend_area;
 346:Drivers/lvgl/src/draw/sw/lv_draw_sw_img.c ****     blend_dsc.mask_stride = blend_w;
 347:Drivers/lvgl/src/draw/sw/lv_draw_sw_img.c **** 
 348:Drivers/lvgl/src/draw/sw/lv_draw_sw_img.c ****     if(cf == LV_COLOR_FORMAT_A8) {
 349:Drivers/lvgl/src/draw/sw/lv_draw_sw_img.c ****         blend_dsc.src_buf = NULL;
 350:Drivers/lvgl/src/draw/sw/lv_draw_sw_img.c ****         blend_dsc.color = draw_dsc->recolor;
 351:Drivers/lvgl/src/draw/sw/lv_draw_sw_img.c ****     }
 352:Drivers/lvgl/src/draw/sw/lv_draw_sw_img.c **** 
 353:Drivers/lvgl/src/draw/sw/lv_draw_sw_img.c ****     lv_draw_sw_mask_radius_param_t mask_param;
 354:Drivers/lvgl/src/draw/sw/lv_draw_sw_img.c ****     lv_draw_sw_mask_radius_init(&mask_param, &draw_dsc->image_area, draw_dsc->clip_radius, false);
 355:Drivers/lvgl/src/draw/sw/lv_draw_sw_img.c **** 
 356:Drivers/lvgl/src/draw/sw/lv_draw_sw_img.c ****     void * masks[2] = {0};
 357:Drivers/lvgl/src/draw/sw/lv_draw_sw_img.c ****     masks[0] = &mask_param;
 358:Drivers/lvgl/src/draw/sw/lv_draw_sw_img.c **** 
 359:Drivers/lvgl/src/draw/sw/lv_draw_sw_img.c ****     int32_t image_h = lv_area_get_height(img_coords);
 360:Drivers/lvgl/src/draw/sw/lv_draw_sw_img.c ****     while(blend_area.y1 <= y_last) {
 361:Drivers/lvgl/src/draw/sw/lv_draw_sw_img.c ****         if(cf_ori == LV_COLOR_FORMAT_RGB565A8) {
 362:Drivers/lvgl/src/draw/sw/lv_draw_sw_img.c ****             const uint8_t * mask_start = decoded->data + img_stride * image_h;
 363:Drivers/lvgl/src/draw/sw/lv_draw_sw_img.c ****             int32_t y_ofs = blend_area.y1 - img_coords->y1;
 364:Drivers/lvgl/src/draw/sw/lv_draw_sw_img.c ****             int32_t x_ofs = blend_area.x1 - img_coords->x1;
 365:Drivers/lvgl/src/draw/sw/lv_draw_sw_img.c ****             lv_memcpy(mask_buf, mask_start + y_ofs * img_stride / 2  + x_ofs, blend_w);
 366:Drivers/lvgl/src/draw/sw/lv_draw_sw_img.c ****         }
 367:Drivers/lvgl/src/draw/sw/lv_draw_sw_img.c ****         else if(cf_ori == LV_COLOR_FORMAT_A8) {
 368:Drivers/lvgl/src/draw/sw/lv_draw_sw_img.c ****             int32_t y_ofs = blend_area.y1 - img_coords->y1;
 369:Drivers/lvgl/src/draw/sw/lv_draw_sw_img.c ****             int32_t x_ofs = blend_area.x1 - img_coords->x1;
 370:Drivers/lvgl/src/draw/sw/lv_draw_sw_img.c ****             lv_memcpy(mask_buf, decoded->data + y_ofs * img_stride + x_ofs, blend_w);
 371:Drivers/lvgl/src/draw/sw/lv_draw_sw_img.c ****         }
 372:Drivers/lvgl/src/draw/sw/lv_draw_sw_img.c ****         else {
 373:Drivers/lvgl/src/draw/sw/lv_draw_sw_img.c ****             lv_memset(mask_buf, 0xff, blend_w);
 374:Drivers/lvgl/src/draw/sw/lv_draw_sw_img.c **** 
 375:Drivers/lvgl/src/draw/sw/lv_draw_sw_img.c ****         }
 376:Drivers/lvgl/src/draw/sw/lv_draw_sw_img.c **** 
 377:Drivers/lvgl/src/draw/sw/lv_draw_sw_img.c ****         blend_dsc.mask_res = lv_draw_sw_mask_apply(masks, mask_buf, blend_area.x1, blend_area.y1, b
 378:Drivers/lvgl/src/draw/sw/lv_draw_sw_img.c **** 
 379:Drivers/lvgl/src/draw/sw/lv_draw_sw_img.c ****         if(cf_ori == LV_COLOR_FORMAT_RGB565A8 || cf_ori == LV_COLOR_FORMAT_A8) {
ARM GAS  /var/folders/qx/2_175_4n2s19vhvtspjhb3qh0000gn/T//cc1Hh9yO.s 			page 16


 380:Drivers/lvgl/src/draw/sw/lv_draw_sw_img.c ****             blend_dsc.mask_res = LV_DRAW_SW_MASK_RES_CHANGED;
 381:Drivers/lvgl/src/draw/sw/lv_draw_sw_img.c ****         }
 382:Drivers/lvgl/src/draw/sw/lv_draw_sw_img.c **** 
 383:Drivers/lvgl/src/draw/sw/lv_draw_sw_img.c ****         /*Blend*/
 384:Drivers/lvgl/src/draw/sw/lv_draw_sw_img.c ****         lv_draw_sw_blend(t, &blend_dsc);
 385:Drivers/lvgl/src/draw/sw/lv_draw_sw_img.c **** 
 386:Drivers/lvgl/src/draw/sw/lv_draw_sw_img.c ****         /*Go to the next area*/
 387:Drivers/lvgl/src/draw/sw/lv_draw_sw_img.c ****         blend_area.y1 ++;
 388:Drivers/lvgl/src/draw/sw/lv_draw_sw_img.c ****         blend_area.y2 ++;
 389:Drivers/lvgl/src/draw/sw/lv_draw_sw_img.c ****     }
 390:Drivers/lvgl/src/draw/sw/lv_draw_sw_img.c ****     lv_free(mask_buf);
 391:Drivers/lvgl/src/draw/sw/lv_draw_sw_img.c **** 
 392:Drivers/lvgl/src/draw/sw/lv_draw_sw_img.c **** }
 393:Drivers/lvgl/src/draw/sw/lv_draw_sw_img.c **** #endif /*LV_DRAW_SW_COMPLEX*/
 394:Drivers/lvgl/src/draw/sw/lv_draw_sw_img.c **** 
 395:Drivers/lvgl/src/draw/sw/lv_draw_sw_img.c **** static void recolor_only(lv_draw_task_t * t, const lv_draw_image_dsc_t * draw_dsc,
 396:Drivers/lvgl/src/draw/sw/lv_draw_sw_img.c ****                          const lv_image_decoder_dsc_t * decoder_dsc,
 397:Drivers/lvgl/src/draw/sw/lv_draw_sw_img.c ****                          const lv_area_t * img_coords, const lv_area_t * clipped_img_area)
 398:Drivers/lvgl/src/draw/sw/lv_draw_sw_img.c **** {
 399:Drivers/lvgl/src/draw/sw/lv_draw_sw_img.c ****     lv_area_t blend_area = *clipped_img_area;
 400:Drivers/lvgl/src/draw/sw/lv_draw_sw_img.c **** 
 401:Drivers/lvgl/src/draw/sw/lv_draw_sw_img.c ****     const lv_draw_buf_t * decoded = decoder_dsc->decoded;
 402:Drivers/lvgl/src/draw/sw/lv_draw_sw_img.c ****     uint32_t img_stride = decoded->header.stride;
 403:Drivers/lvgl/src/draw/sw/lv_draw_sw_img.c ****     lv_color_format_t cf = decoded->header.cf;
 404:Drivers/lvgl/src/draw/sw/lv_draw_sw_img.c ****     uint32_t px_size = lv_color_format_get_size(cf);
 405:Drivers/lvgl/src/draw/sw/lv_draw_sw_img.c ****     int32_t src_h = lv_area_get_height(img_coords);
 406:Drivers/lvgl/src/draw/sw/lv_draw_sw_img.c ****     int32_t blend_w = lv_area_get_width(&blend_area);
 407:Drivers/lvgl/src/draw/sw/lv_draw_sw_img.c ****     int32_t blend_h = lv_area_get_height(&blend_area);
 408:Drivers/lvgl/src/draw/sw/lv_draw_sw_img.c ****     uint8_t * tmp_buf;
 409:Drivers/lvgl/src/draw/sw/lv_draw_sw_img.c ****     int32_t buf_h;
 410:Drivers/lvgl/src/draw/sw/lv_draw_sw_img.c ****     uint32_t buf_stride = blend_w * px_size;
 411:Drivers/lvgl/src/draw/sw/lv_draw_sw_img.c ****     if(buf_stride == 0) {
 412:Drivers/lvgl/src/draw/sw/lv_draw_sw_img.c ****         buf_stride = 1;
 413:Drivers/lvgl/src/draw/sw/lv_draw_sw_img.c ****     }
 414:Drivers/lvgl/src/draw/sw/lv_draw_sw_img.c ****     buf_h = MAX_BUF_SIZE / buf_stride;
 415:Drivers/lvgl/src/draw/sw/lv_draw_sw_img.c ****     if(buf_h > blend_h) buf_h = blend_h;
 416:Drivers/lvgl/src/draw/sw/lv_draw_sw_img.c ****     tmp_buf = lv_malloc(buf_stride * buf_h);
 417:Drivers/lvgl/src/draw/sw/lv_draw_sw_img.c ****     LV_ASSERT_MALLOC(tmp_buf);
 418:Drivers/lvgl/src/draw/sw/lv_draw_sw_img.c ****     if(!tmp_buf) {
 419:Drivers/lvgl/src/draw/sw/lv_draw_sw_img.c ****         LV_LOG_WARN("Failed to perform image recolor operation. Out of memory");
 420:Drivers/lvgl/src/draw/sw/lv_draw_sw_img.c ****         return;
 421:Drivers/lvgl/src/draw/sw/lv_draw_sw_img.c ****     }
 422:Drivers/lvgl/src/draw/sw/lv_draw_sw_img.c **** 
 423:Drivers/lvgl/src/draw/sw/lv_draw_sw_img.c ****     lv_draw_sw_blend_dsc_t blend_dsc;
 424:Drivers/lvgl/src/draw/sw/lv_draw_sw_img.c ****     lv_memzero(&blend_dsc, sizeof(lv_draw_sw_blend_dsc_t));
 425:Drivers/lvgl/src/draw/sw/lv_draw_sw_img.c ****     blend_dsc.opa = draw_dsc->opa;
 426:Drivers/lvgl/src/draw/sw/lv_draw_sw_img.c ****     blend_dsc.blend_mode = draw_dsc->blend_mode;
 427:Drivers/lvgl/src/draw/sw/lv_draw_sw_img.c ****     blend_dsc.src_stride = blend_w * px_size;
 428:Drivers/lvgl/src/draw/sw/lv_draw_sw_img.c ****     blend_dsc.src_area = &blend_area;
 429:Drivers/lvgl/src/draw/sw/lv_draw_sw_img.c ****     blend_dsc.blend_area = &blend_area;
 430:Drivers/lvgl/src/draw/sw/lv_draw_sw_img.c ****     blend_dsc.src_buf = tmp_buf;
 431:Drivers/lvgl/src/draw/sw/lv_draw_sw_img.c ****     blend_dsc.src_color_format = cf;
 432:Drivers/lvgl/src/draw/sw/lv_draw_sw_img.c ****     if(cf == LV_COLOR_FORMAT_RGB565A8) {
 433:Drivers/lvgl/src/draw/sw/lv_draw_sw_img.c ****         blend_dsc.mask_area = img_coords;
 434:Drivers/lvgl/src/draw/sw/lv_draw_sw_img.c ****         blend_dsc.mask_buf = decoded->data + img_stride * src_h;
 435:Drivers/lvgl/src/draw/sw/lv_draw_sw_img.c ****         blend_dsc.mask_res = LV_DRAW_SW_MASK_RES_CHANGED;
 436:Drivers/lvgl/src/draw/sw/lv_draw_sw_img.c ****         blend_dsc.src_color_format = LV_COLOR_FORMAT_RGB565;
ARM GAS  /var/folders/qx/2_175_4n2s19vhvtspjhb3qh0000gn/T//cc1Hh9yO.s 			page 17


 437:Drivers/lvgl/src/draw/sw/lv_draw_sw_img.c ****         blend_dsc.mask_stride = img_stride / 2;
 438:Drivers/lvgl/src/draw/sw/lv_draw_sw_img.c ****     }
 439:Drivers/lvgl/src/draw/sw/lv_draw_sw_img.c **** 
 440:Drivers/lvgl/src/draw/sw/lv_draw_sw_img.c ****     int32_t y_last = blend_area.y2;
 441:Drivers/lvgl/src/draw/sw/lv_draw_sw_img.c ****     blend_area.y2 = blend_area.y1 + buf_h - 1;
 442:Drivers/lvgl/src/draw/sw/lv_draw_sw_img.c ****     while(blend_area.y1 <= y_last) {
 443:Drivers/lvgl/src/draw/sw/lv_draw_sw_img.c ****         lv_area_t relative_area;
 444:Drivers/lvgl/src/draw/sw/lv_draw_sw_img.c ****         lv_area_copy(&relative_area, &blend_area);
 445:Drivers/lvgl/src/draw/sw/lv_draw_sw_img.c ****         lv_area_move(&relative_area, -img_coords->x1, -img_coords->y1);
 446:Drivers/lvgl/src/draw/sw/lv_draw_sw_img.c **** 
 447:Drivers/lvgl/src/draw/sw/lv_draw_sw_img.c ****         recolor(relative_area, decoded->data, tmp_buf, img_stride, blend_dsc.src_color_format, draw
 448:Drivers/lvgl/src/draw/sw/lv_draw_sw_img.c **** 
 449:Drivers/lvgl/src/draw/sw/lv_draw_sw_img.c ****         lv_draw_sw_blend(t, &blend_dsc);
 450:Drivers/lvgl/src/draw/sw/lv_draw_sw_img.c **** 
 451:Drivers/lvgl/src/draw/sw/lv_draw_sw_img.c ****         /*Go to the next area*/
 452:Drivers/lvgl/src/draw/sw/lv_draw_sw_img.c ****         blend_area.y1 = blend_area.y2 + 1;
 453:Drivers/lvgl/src/draw/sw/lv_draw_sw_img.c ****         blend_area.y2 = blend_area.y1 + buf_h - 1;
 454:Drivers/lvgl/src/draw/sw/lv_draw_sw_img.c ****         if(blend_area.y2 > y_last) {
 455:Drivers/lvgl/src/draw/sw/lv_draw_sw_img.c ****             blend_area.y2 = y_last;
 456:Drivers/lvgl/src/draw/sw/lv_draw_sw_img.c ****         }
 457:Drivers/lvgl/src/draw/sw/lv_draw_sw_img.c **** 
 458:Drivers/lvgl/src/draw/sw/lv_draw_sw_img.c ****     }
 459:Drivers/lvgl/src/draw/sw/lv_draw_sw_img.c **** 
 460:Drivers/lvgl/src/draw/sw/lv_draw_sw_img.c ****     lv_free(tmp_buf);
 461:Drivers/lvgl/src/draw/sw/lv_draw_sw_img.c **** 
 462:Drivers/lvgl/src/draw/sw/lv_draw_sw_img.c **** }
 463:Drivers/lvgl/src/draw/sw/lv_draw_sw_img.c **** 
 464:Drivers/lvgl/src/draw/sw/lv_draw_sw_img.c **** static void transform_and_recolor(lv_draw_task_t * t, const lv_draw_image_dsc_t * draw_dsc,
 465:Drivers/lvgl/src/draw/sw/lv_draw_sw_img.c ****                                   const lv_image_decoder_dsc_t * decoder_dsc, lv_draw_image_sup_t *
 466:Drivers/lvgl/src/draw/sw/lv_draw_sw_img.c ****                                   const lv_area_t * img_coords, const lv_area_t * clipped_img_area)
 467:Drivers/lvgl/src/draw/sw/lv_draw_sw_img.c **** 
 468:Drivers/lvgl/src/draw/sw/lv_draw_sw_img.c **** {
 469:Drivers/lvgl/src/draw/sw/lv_draw_sw_img.c ****     const lv_draw_buf_t * decoded = decoder_dsc->decoded;
 470:Drivers/lvgl/src/draw/sw/lv_draw_sw_img.c ****     uint32_t img_stride = decoded->header.stride;
 471:Drivers/lvgl/src/draw/sw/lv_draw_sw_img.c ****     lv_color_format_t cf = decoded->header.cf;
 472:Drivers/lvgl/src/draw/sw/lv_draw_sw_img.c ****     lv_draw_sw_blend_dsc_t blend_dsc;
 473:Drivers/lvgl/src/draw/sw/lv_draw_sw_img.c ****     lv_memzero(&blend_dsc, sizeof(lv_draw_sw_blend_dsc_t));
 474:Drivers/lvgl/src/draw/sw/lv_draw_sw_img.c ****     blend_dsc.opa = draw_dsc->opa;
 475:Drivers/lvgl/src/draw/sw/lv_draw_sw_img.c ****     blend_dsc.blend_mode = draw_dsc->blend_mode;
 476:Drivers/lvgl/src/draw/sw/lv_draw_sw_img.c **** 
 477:Drivers/lvgl/src/draw/sw/lv_draw_sw_img.c ****     lv_area_t blend_area = *clipped_img_area;
 478:Drivers/lvgl/src/draw/sw/lv_draw_sw_img.c ****     blend_dsc.blend_area = &blend_area;
 479:Drivers/lvgl/src/draw/sw/lv_draw_sw_img.c **** 
 480:Drivers/lvgl/src/draw/sw/lv_draw_sw_img.c ****     int32_t src_w = lv_area_get_width(img_coords);
 481:Drivers/lvgl/src/draw/sw/lv_draw_sw_img.c ****     int32_t src_h = lv_area_get_height(img_coords);
 482:Drivers/lvgl/src/draw/sw/lv_draw_sw_img.c ****     int32_t blend_w = lv_area_get_width(&blend_area);
 483:Drivers/lvgl/src/draw/sw/lv_draw_sw_img.c ****     int32_t blend_h = lv_area_get_height(&blend_area);
 484:Drivers/lvgl/src/draw/sw/lv_draw_sw_img.c **** 
 485:Drivers/lvgl/src/draw/sw/lv_draw_sw_img.c ****     bool do_recolor = draw_dsc->recolor_opa > LV_OPA_MIN;
 486:Drivers/lvgl/src/draw/sw/lv_draw_sw_img.c ****     if(cf == LV_COLOR_FORMAT_L8 || cf == LV_COLOR_FORMAT_A8) {
 487:Drivers/lvgl/src/draw/sw/lv_draw_sw_img.c ****         blend_dsc.color = draw_dsc->recolor;
 488:Drivers/lvgl/src/draw/sw/lv_draw_sw_img.c ****         do_recolor = false;
 489:Drivers/lvgl/src/draw/sw/lv_draw_sw_img.c ****     }
 490:Drivers/lvgl/src/draw/sw/lv_draw_sw_img.c **** 
 491:Drivers/lvgl/src/draw/sw/lv_draw_sw_img.c ****     bool has_colorkey = draw_dsc->colorkey != NULL;
 492:Drivers/lvgl/src/draw/sw/lv_draw_sw_img.c **** 
 493:Drivers/lvgl/src/draw/sw/lv_draw_sw_img.c ****     lv_color_format_t cf_final = cf;
ARM GAS  /var/folders/qx/2_175_4n2s19vhvtspjhb3qh0000gn/T//cc1Hh9yO.s 			page 18


 494:Drivers/lvgl/src/draw/sw/lv_draw_sw_img.c ****     if(cf_final == LV_COLOR_FORMAT_RGB888 || cf_final == LV_COLOR_FORMAT_XRGB8888) cf_final = LV_CO
 495:Drivers/lvgl/src/draw/sw/lv_draw_sw_img.c ****     else if(cf_final == LV_COLOR_FORMAT_RGB565 ||
 496:Drivers/lvgl/src/draw/sw/lv_draw_sw_img.c ****             cf_final == LV_COLOR_FORMAT_RGB565_SWAPPED) cf_final = LV_COLOR_FORMAT_RGB565A8;
 497:Drivers/lvgl/src/draw/sw/lv_draw_sw_img.c ****     else if(cf_final == LV_COLOR_FORMAT_L8) cf_final = LV_COLOR_FORMAT_AL88;
 498:Drivers/lvgl/src/draw/sw/lv_draw_sw_img.c **** 
 499:Drivers/lvgl/src/draw/sw/lv_draw_sw_img.c ****     uint8_t * transformed_buf;
 500:Drivers/lvgl/src/draw/sw/lv_draw_sw_img.c ****     int32_t buf_h;
 501:Drivers/lvgl/src/draw/sw/lv_draw_sw_img.c ****     if(cf_final == LV_COLOR_FORMAT_RGB565A8) {
 502:Drivers/lvgl/src/draw/sw/lv_draw_sw_img.c ****         uint32_t buf_stride = blend_w * 3;
 503:Drivers/lvgl/src/draw/sw/lv_draw_sw_img.c ****         buf_h = MAX_BUF_SIZE / buf_stride;
 504:Drivers/lvgl/src/draw/sw/lv_draw_sw_img.c ****         if(buf_h > blend_h) buf_h = blend_h;
 505:Drivers/lvgl/src/draw/sw/lv_draw_sw_img.c ****         transformed_buf = lv_malloc(buf_stride * buf_h);
 506:Drivers/lvgl/src/draw/sw/lv_draw_sw_img.c ****     }
 507:Drivers/lvgl/src/draw/sw/lv_draw_sw_img.c ****     else {
 508:Drivers/lvgl/src/draw/sw/lv_draw_sw_img.c ****         uint32_t buf_stride = blend_w * lv_color_format_get_size(cf_final);
 509:Drivers/lvgl/src/draw/sw/lv_draw_sw_img.c ****         buf_h = MAX_BUF_SIZE / buf_stride;
 510:Drivers/lvgl/src/draw/sw/lv_draw_sw_img.c ****         if(buf_h > blend_h) buf_h = blend_h;
 511:Drivers/lvgl/src/draw/sw/lv_draw_sw_img.c ****         transformed_buf = lv_malloc(buf_stride * buf_h);
 512:Drivers/lvgl/src/draw/sw/lv_draw_sw_img.c ****     }
 513:Drivers/lvgl/src/draw/sw/lv_draw_sw_img.c ****     LV_ASSERT_MALLOC(transformed_buf);
 514:Drivers/lvgl/src/draw/sw/lv_draw_sw_img.c **** 
 515:Drivers/lvgl/src/draw/sw/lv_draw_sw_img.c ****     blend_dsc.src_buf = transformed_buf;
 516:Drivers/lvgl/src/draw/sw/lv_draw_sw_img.c ****     blend_dsc.src_color_format = cf_final;
 517:Drivers/lvgl/src/draw/sw/lv_draw_sw_img.c ****     int32_t y_last = blend_area.y2;
 518:Drivers/lvgl/src/draw/sw/lv_draw_sw_img.c ****     blend_area.y2 = blend_area.y1 + buf_h - 1;
 519:Drivers/lvgl/src/draw/sw/lv_draw_sw_img.c **** 
 520:Drivers/lvgl/src/draw/sw/lv_draw_sw_img.c ****     blend_dsc.src_area = &blend_area;
 521:Drivers/lvgl/src/draw/sw/lv_draw_sw_img.c ****     const uint8_t * src_buf = decoded->data;
 522:Drivers/lvgl/src/draw/sw/lv_draw_sw_img.c ****     if(cf_final == LV_COLOR_FORMAT_RGB565A8) {
 523:Drivers/lvgl/src/draw/sw/lv_draw_sw_img.c ****         /*RGB565A8 images will blended as RGB565 + mask
 524:Drivers/lvgl/src/draw/sw/lv_draw_sw_img.c ****          *Therefore the stride can be different. */
 525:Drivers/lvgl/src/draw/sw/lv_draw_sw_img.c ****         blend_dsc.src_stride = blend_w * 2;
 526:Drivers/lvgl/src/draw/sw/lv_draw_sw_img.c ****         blend_dsc.mask_area = &blend_area;
 527:Drivers/lvgl/src/draw/sw/lv_draw_sw_img.c ****         blend_dsc.mask_res = LV_DRAW_SW_MASK_RES_CHANGED;
 528:Drivers/lvgl/src/draw/sw/lv_draw_sw_img.c ****         blend_dsc.mask_buf = transformed_buf + blend_w * 2 * buf_h;
 529:Drivers/lvgl/src/draw/sw/lv_draw_sw_img.c ****         blend_dsc.mask_stride = blend_w;
 530:Drivers/lvgl/src/draw/sw/lv_draw_sw_img.c ****         blend_dsc.src_color_format = LV_COLOR_FORMAT_RGB565;
 531:Drivers/lvgl/src/draw/sw/lv_draw_sw_img.c ****     }
 532:Drivers/lvgl/src/draw/sw/lv_draw_sw_img.c ****     else if(cf_final == LV_COLOR_FORMAT_A8) {
 533:Drivers/lvgl/src/draw/sw/lv_draw_sw_img.c ****         blend_dsc.mask_buf = transformed_buf;
 534:Drivers/lvgl/src/draw/sw/lv_draw_sw_img.c ****         blend_dsc.mask_stride = blend_w;
 535:Drivers/lvgl/src/draw/sw/lv_draw_sw_img.c ****         blend_dsc.mask_area = &blend_area;
 536:Drivers/lvgl/src/draw/sw/lv_draw_sw_img.c ****         blend_dsc.mask_res = LV_DRAW_SW_MASK_RES_CHANGED;
 537:Drivers/lvgl/src/draw/sw/lv_draw_sw_img.c ****         blend_dsc.src_buf = NULL;
 538:Drivers/lvgl/src/draw/sw/lv_draw_sw_img.c ****     }
 539:Drivers/lvgl/src/draw/sw/lv_draw_sw_img.c ****     else {
 540:Drivers/lvgl/src/draw/sw/lv_draw_sw_img.c ****         blend_dsc.src_stride = blend_w * lv_color_format_get_size(cf_final);
 541:Drivers/lvgl/src/draw/sw/lv_draw_sw_img.c ****     }
 542:Drivers/lvgl/src/draw/sw/lv_draw_sw_img.c **** 
 543:Drivers/lvgl/src/draw/sw/lv_draw_sw_img.c ****     while(blend_area.y1 <= y_last) {
 544:Drivers/lvgl/src/draw/sw/lv_draw_sw_img.c ****         /*Apply transformations if any or separate the channels*/
 545:Drivers/lvgl/src/draw/sw/lv_draw_sw_img.c ****         lv_area_t relative_area;
 546:Drivers/lvgl/src/draw/sw/lv_draw_sw_img.c ****         lv_area_copy(&relative_area, &blend_area);
 547:Drivers/lvgl/src/draw/sw/lv_draw_sw_img.c ****         lv_area_move(&relative_area, -img_coords->x1, -img_coords->y1);
 548:Drivers/lvgl/src/draw/sw/lv_draw_sw_img.c ****         lv_draw_sw_transform(&relative_area, src_buf, src_w, src_h, img_stride,
 549:Drivers/lvgl/src/draw/sw/lv_draw_sw_img.c ****                              draw_dsc, sup, cf, transformed_buf);
 550:Drivers/lvgl/src/draw/sw/lv_draw_sw_img.c **** 
ARM GAS  /var/folders/qx/2_175_4n2s19vhvtspjhb3qh0000gn/T//cc1Hh9yO.s 			page 19


 551:Drivers/lvgl/src/draw/sw/lv_draw_sw_img.c ****         if(do_recolor || has_colorkey) {
 552:Drivers/lvgl/src/draw/sw/lv_draw_sw_img.c ****             lv_area_t relative_area2;
 553:Drivers/lvgl/src/draw/sw/lv_draw_sw_img.c ****             lv_area_copy(&relative_area2, &blend_area);
 554:Drivers/lvgl/src/draw/sw/lv_draw_sw_img.c ****             lv_area_move(&relative_area2, -blend_area.x1, -blend_area.y1);
 555:Drivers/lvgl/src/draw/sw/lv_draw_sw_img.c ****             if(has_colorkey && cf_final != LV_COLOR_FORMAT_RGB565_SWAPPED) {
 556:Drivers/lvgl/src/draw/sw/lv_draw_sw_img.c ****                 colorkey_and_recolor(relative_area2, transformed_buf, transformed_buf, blend_dsc.sr
 557:Drivers/lvgl/src/draw/sw/lv_draw_sw_img.c ****                                      &blend_dsc);
 558:Drivers/lvgl/src/draw/sw/lv_draw_sw_img.c ****             }
 559:Drivers/lvgl/src/draw/sw/lv_draw_sw_img.c ****             else {
 560:Drivers/lvgl/src/draw/sw/lv_draw_sw_img.c ****                 recolor(relative_area2, transformed_buf, transformed_buf, blend_dsc.src_stride, cf_
 561:Drivers/lvgl/src/draw/sw/lv_draw_sw_img.c ****             }
 562:Drivers/lvgl/src/draw/sw/lv_draw_sw_img.c ****         }
 563:Drivers/lvgl/src/draw/sw/lv_draw_sw_img.c **** 
 564:Drivers/lvgl/src/draw/sw/lv_draw_sw_img.c ****         /*Blend*/
 565:Drivers/lvgl/src/draw/sw/lv_draw_sw_img.c ****         lv_draw_sw_blend(t, &blend_dsc);
 566:Drivers/lvgl/src/draw/sw/lv_draw_sw_img.c **** 
 567:Drivers/lvgl/src/draw/sw/lv_draw_sw_img.c ****         /*Go to the next area*/
 568:Drivers/lvgl/src/draw/sw/lv_draw_sw_img.c ****         blend_area.y1 = blend_area.y2 + 1;
 569:Drivers/lvgl/src/draw/sw/lv_draw_sw_img.c ****         blend_area.y2 = blend_area.y1 + buf_h - 1;
 570:Drivers/lvgl/src/draw/sw/lv_draw_sw_img.c ****         if(blend_area.y2 > y_last) {
 571:Drivers/lvgl/src/draw/sw/lv_draw_sw_img.c ****             blend_area.y2 = y_last;
 572:Drivers/lvgl/src/draw/sw/lv_draw_sw_img.c ****             if(cf_final == LV_COLOR_FORMAT_RGB565A8) {
 573:Drivers/lvgl/src/draw/sw/lv_draw_sw_img.c ****                 blend_dsc.mask_buf =  transformed_buf + blend_w * 2 * lv_area_get_height(&blend_are
 574:Drivers/lvgl/src/draw/sw/lv_draw_sw_img.c ****             }
 575:Drivers/lvgl/src/draw/sw/lv_draw_sw_img.c ****         }
 576:Drivers/lvgl/src/draw/sw/lv_draw_sw_img.c ****     }
 577:Drivers/lvgl/src/draw/sw/lv_draw_sw_img.c **** 
 578:Drivers/lvgl/src/draw/sw/lv_draw_sw_img.c ****     lv_free(transformed_buf);
 579:Drivers/lvgl/src/draw/sw/lv_draw_sw_img.c **** }
 580:Drivers/lvgl/src/draw/sw/lv_draw_sw_img.c **** 
 581:Drivers/lvgl/src/draw/sw/lv_draw_sw_img.c **** static void colorkey_and_recolor(lv_area_t relative_area, uint8_t * src_buf, uint8_t * dest_buf, in
 582:Drivers/lvgl/src/draw/sw/lv_draw_sw_img.c ****                                  lv_color_format_t cf, const lv_draw_image_dsc_t * draw_dsc, lv_dra
 583:Drivers/lvgl/src/draw/sw/lv_draw_sw_img.c **** {
 584:Drivers/lvgl/src/draw/sw/lv_draw_sw_img.c ****     int32_t w = lv_area_get_width(&relative_area);
 585:Drivers/lvgl/src/draw/sw/lv_draw_sw_img.c ****     int32_t h = lv_area_get_height(&relative_area);
 586:Drivers/lvgl/src/draw/sw/lv_draw_sw_img.c **** 
 587:Drivers/lvgl/src/draw/sw/lv_draw_sw_img.c ****     /* Recolor parameters */
 588:Drivers/lvgl/src/draw/sw/lv_draw_sw_img.c ****     lv_color_t recolor = draw_dsc->recolor;
 589:Drivers/lvgl/src/draw/sw/lv_draw_sw_img.c ****     lv_opa_t mix = draw_dsc->recolor_opa;
 590:Drivers/lvgl/src/draw/sw/lv_draw_sw_img.c ****     lv_opa_t mix_inv = 255 - mix;
 591:Drivers/lvgl/src/draw/sw/lv_draw_sw_img.c **** 
 592:Drivers/lvgl/src/draw/sw/lv_draw_sw_img.c ****     /* Colorkey parameters */
 593:Drivers/lvgl/src/draw/sw/lv_draw_sw_img.c ****     lv_color_t colorkey_low = draw_dsc->colorkey->low;
 594:Drivers/lvgl/src/draw/sw/lv_draw_sw_img.c ****     lv_color_t colorkey_high = draw_dsc->colorkey->high;
 595:Drivers/lvgl/src/draw/sw/lv_draw_sw_img.c ****     if(cf == LV_COLOR_FORMAT_RGB565A8 || cf == LV_COLOR_FORMAT_RGB565) {
 596:Drivers/lvgl/src/draw/sw/lv_draw_sw_img.c ****         const uint8_t * src_buf_tmp = src_buf + src_stride * relative_area.y1 + relative_area.x1 * 
 597:Drivers/lvgl/src/draw/sw/lv_draw_sw_img.c ****         int32_t img_stride_px = src_stride / 2;
 598:Drivers/lvgl/src/draw/sw/lv_draw_sw_img.c **** 
 599:Drivers/lvgl/src/draw/sw/lv_draw_sw_img.c ****         uint16_t * buf16_src = (uint16_t *)src_buf_tmp;
 600:Drivers/lvgl/src/draw/sw/lv_draw_sw_img.c ****         uint16_t * buf16_dest = (uint16_t *)dest_buf;
 601:Drivers/lvgl/src/draw/sw/lv_draw_sw_img.c ****         uint16_t recolor16 = lv_color_to_u16(recolor);
 602:Drivers/lvgl/src/draw/sw/lv_draw_sw_img.c **** 
 603:Drivers/lvgl/src/draw/sw/lv_draw_sw_img.c ****         uint16_t c_mult[3];
 604:Drivers/lvgl/src/draw/sw/lv_draw_sw_img.c ****         c_mult[0] = (recolor.blue >> 3) * mix;
 605:Drivers/lvgl/src/draw/sw/lv_draw_sw_img.c ****         c_mult[1] = (recolor.green >> 2) * mix;
 606:Drivers/lvgl/src/draw/sw/lv_draw_sw_img.c ****         c_mult[2] = (recolor.red >> 3) * mix;
 607:Drivers/lvgl/src/draw/sw/lv_draw_sw_img.c ****         uint8_t * mask_buf_tmp = (uint8_t *)blend_dsc->mask_buf;
ARM GAS  /var/folders/qx/2_175_4n2s19vhvtspjhb3qh0000gn/T//cc1Hh9yO.s 			page 20


 608:Drivers/lvgl/src/draw/sw/lv_draw_sw_img.c ****         int32_t y;
 609:Drivers/lvgl/src/draw/sw/lv_draw_sw_img.c ****         for(y = 0; y < h; y++) {
 610:Drivers/lvgl/src/draw/sw/lv_draw_sw_img.c ****             int32_t x;
 611:Drivers/lvgl/src/draw/sw/lv_draw_sw_img.c ****             for(x = 0; x < w; x++) {
 612:Drivers/lvgl/src/draw/sw/lv_draw_sw_img.c ****                 lv_color_t src_color = lv_color16_to_color(*(lv_color16_t *)&buf16_src[x]);
 613:Drivers/lvgl/src/draw/sw/lv_draw_sw_img.c **** 
 614:Drivers/lvgl/src/draw/sw/lv_draw_sw_img.c ****                 /* Check colorkey */
 615:Drivers/lvgl/src/draw/sw/lv_draw_sw_img.c ****                 if(lv_color_is_in_range(src_color, colorkey_low, colorkey_high)) {
 616:Drivers/lvgl/src/draw/sw/lv_draw_sw_img.c ****                     if(cf == LV_COLOR_FORMAT_RGB565A8 && mask_buf_tmp) {
 617:Drivers/lvgl/src/draw/sw/lv_draw_sw_img.c ****                         mask_buf_tmp[x] = 0;
 618:Drivers/lvgl/src/draw/sw/lv_draw_sw_img.c ****                     }
 619:Drivers/lvgl/src/draw/sw/lv_draw_sw_img.c ****                     else {
 620:Drivers/lvgl/src/draw/sw/lv_draw_sw_img.c ****                         *buf16_dest = 0x0000; // Transparent
 621:Drivers/lvgl/src/draw/sw/lv_draw_sw_img.c ****                     }
 622:Drivers/lvgl/src/draw/sw/lv_draw_sw_img.c ****                 }
 623:Drivers/lvgl/src/draw/sw/lv_draw_sw_img.c ****                 /* Apply recolor */
 624:Drivers/lvgl/src/draw/sw/lv_draw_sw_img.c ****                 else if(mix >= LV_OPA_MAX) {
 625:Drivers/lvgl/src/draw/sw/lv_draw_sw_img.c ****                     *buf16_dest = recolor16;
 626:Drivers/lvgl/src/draw/sw/lv_draw_sw_img.c ****                 }
 627:Drivers/lvgl/src/draw/sw/lv_draw_sw_img.c ****                 else if(mix > LV_OPA_MIN) {
 628:Drivers/lvgl/src/draw/sw/lv_draw_sw_img.c ****                     uint16_t src16 = buf16_src[x];
 629:Drivers/lvgl/src/draw/sw/lv_draw_sw_img.c ****                     *buf16_dest = (((c_mult[2] + ((src16 >> 11) & 0x1F) * mix_inv) << 3) & 0xF800) 
 630:Drivers/lvgl/src/draw/sw/lv_draw_sw_img.c ****                                   (((c_mult[1] + ((src16 >> 5) & 0x3F) * mix_inv) >> 3) & 0x07E0) +
 631:Drivers/lvgl/src/draw/sw/lv_draw_sw_img.c ****                                   ((c_mult[0] + (src16 & 0x1F) * mix_inv) >> 8);
 632:Drivers/lvgl/src/draw/sw/lv_draw_sw_img.c ****                 }
 633:Drivers/lvgl/src/draw/sw/lv_draw_sw_img.c ****                 else {
 634:Drivers/lvgl/src/draw/sw/lv_draw_sw_img.c ****                     *buf16_dest = buf16_src[x]; // No change
 635:Drivers/lvgl/src/draw/sw/lv_draw_sw_img.c ****                 }
 636:Drivers/lvgl/src/draw/sw/lv_draw_sw_img.c ****                 buf16_dest++;
 637:Drivers/lvgl/src/draw/sw/lv_draw_sw_img.c ****             }
 638:Drivers/lvgl/src/draw/sw/lv_draw_sw_img.c ****             buf16_src += img_stride_px;
 639:Drivers/lvgl/src/draw/sw/lv_draw_sw_img.c ****             mask_buf_tmp += blend_dsc->mask_stride;
 640:Drivers/lvgl/src/draw/sw/lv_draw_sw_img.c ****         }
 641:Drivers/lvgl/src/draw/sw/lv_draw_sw_img.c ****     }
 642:Drivers/lvgl/src/draw/sw/lv_draw_sw_img.c ****     else if(cf == LV_COLOR_FORMAT_RGB888 || cf == LV_COLOR_FORMAT_XRGB8888 || cf == LV_COLOR_FORMAT
 643:Drivers/lvgl/src/draw/sw/lv_draw_sw_img.c ****         uint32_t px_size = lv_color_format_get_size(cf);
 644:Drivers/lvgl/src/draw/sw/lv_draw_sw_img.c ****         const uint8_t * src_buf_tmp = src_buf + src_stride * relative_area.y1 + relative_area.x1 * 
 645:Drivers/lvgl/src/draw/sw/lv_draw_sw_img.c ****         uint8_t * dest_buf_tmp = dest_buf;
 646:Drivers/lvgl/src/draw/sw/lv_draw_sw_img.c **** 
 647:Drivers/lvgl/src/draw/sw/lv_draw_sw_img.c ****         uint16_t c_mult[3];
 648:Drivers/lvgl/src/draw/sw/lv_draw_sw_img.c ****         c_mult[0] = recolor.blue * mix;
 649:Drivers/lvgl/src/draw/sw/lv_draw_sw_img.c ****         c_mult[1] = recolor.green * mix;
 650:Drivers/lvgl/src/draw/sw/lv_draw_sw_img.c ****         c_mult[2] = recolor.red * mix;
 651:Drivers/lvgl/src/draw/sw/lv_draw_sw_img.c **** 
 652:Drivers/lvgl/src/draw/sw/lv_draw_sw_img.c ****         int32_t y;
 653:Drivers/lvgl/src/draw/sw/lv_draw_sw_img.c ****         for(y = 0; y < h; y++) {
 654:Drivers/lvgl/src/draw/sw/lv_draw_sw_img.c ****             int32_t x;
 655:Drivers/lvgl/src/draw/sw/lv_draw_sw_img.c ****             for(x = 0; x < w; x++) {
 656:Drivers/lvgl/src/draw/sw/lv_draw_sw_img.c ****                 lv_color_t src_color;
 657:Drivers/lvgl/src/draw/sw/lv_draw_sw_img.c ****                 src_color.blue = src_buf_tmp[0];
 658:Drivers/lvgl/src/draw/sw/lv_draw_sw_img.c ****                 src_color.green = src_buf_tmp[1];
 659:Drivers/lvgl/src/draw/sw/lv_draw_sw_img.c ****                 src_color.red = src_buf_tmp[2];
 660:Drivers/lvgl/src/draw/sw/lv_draw_sw_img.c **** 
 661:Drivers/lvgl/src/draw/sw/lv_draw_sw_img.c ****                 /* Check colorkey */
 662:Drivers/lvgl/src/draw/sw/lv_draw_sw_img.c ****                 if(lv_color_is_in_range(src_color, colorkey_low, colorkey_high)) {
 663:Drivers/lvgl/src/draw/sw/lv_draw_sw_img.c ****                     dest_buf_tmp[0] = 0;
 664:Drivers/lvgl/src/draw/sw/lv_draw_sw_img.c ****                     dest_buf_tmp[1] = 0;
ARM GAS  /var/folders/qx/2_175_4n2s19vhvtspjhb3qh0000gn/T//cc1Hh9yO.s 			page 21


 665:Drivers/lvgl/src/draw/sw/lv_draw_sw_img.c ****                     dest_buf_tmp[2] = 0;
 666:Drivers/lvgl/src/draw/sw/lv_draw_sw_img.c ****                     if(cf == LV_COLOR_FORMAT_ARGB8888) {
 667:Drivers/lvgl/src/draw/sw/lv_draw_sw_img.c ****                         dest_buf_tmp[3] = 0; // Set alpha to 0
 668:Drivers/lvgl/src/draw/sw/lv_draw_sw_img.c ****                     }
 669:Drivers/lvgl/src/draw/sw/lv_draw_sw_img.c ****                 }
 670:Drivers/lvgl/src/draw/sw/lv_draw_sw_img.c ****                 /* Apply recolor */
 671:Drivers/lvgl/src/draw/sw/lv_draw_sw_img.c ****                 else if(mix >= LV_OPA_MAX) {
 672:Drivers/lvgl/src/draw/sw/lv_draw_sw_img.c ****                     dest_buf_tmp[0] = recolor.blue;
 673:Drivers/lvgl/src/draw/sw/lv_draw_sw_img.c ****                     dest_buf_tmp[1] = recolor.green;
 674:Drivers/lvgl/src/draw/sw/lv_draw_sw_img.c ****                     dest_buf_tmp[2] = recolor.red;
 675:Drivers/lvgl/src/draw/sw/lv_draw_sw_img.c ****                     if(cf == LV_COLOR_FORMAT_ARGB8888) {
 676:Drivers/lvgl/src/draw/sw/lv_draw_sw_img.c ****                         dest_buf_tmp[3] = src_buf_tmp[3]; // Keep original alpha
 677:Drivers/lvgl/src/draw/sw/lv_draw_sw_img.c ****                     }
 678:Drivers/lvgl/src/draw/sw/lv_draw_sw_img.c ****                 }
 679:Drivers/lvgl/src/draw/sw/lv_draw_sw_img.c ****                 else if(mix > LV_OPA_MIN) {
 680:Drivers/lvgl/src/draw/sw/lv_draw_sw_img.c ****                     dest_buf_tmp[0] = (c_mult[0] + (src_buf_tmp[0] * mix_inv)) >> 8;
 681:Drivers/lvgl/src/draw/sw/lv_draw_sw_img.c ****                     dest_buf_tmp[1] = (c_mult[1] + (src_buf_tmp[1] * mix_inv)) >> 8;
 682:Drivers/lvgl/src/draw/sw/lv_draw_sw_img.c ****                     dest_buf_tmp[2] = (c_mult[2] + (src_buf_tmp[2] * mix_inv)) >> 8;
 683:Drivers/lvgl/src/draw/sw/lv_draw_sw_img.c ****                     if(cf == LV_COLOR_FORMAT_ARGB8888) {
 684:Drivers/lvgl/src/draw/sw/lv_draw_sw_img.c ****                         dest_buf_tmp[3] = src_buf_tmp[3]; // Keep original alpha
 685:Drivers/lvgl/src/draw/sw/lv_draw_sw_img.c ****                     }
 686:Drivers/lvgl/src/draw/sw/lv_draw_sw_img.c ****                 }
 687:Drivers/lvgl/src/draw/sw/lv_draw_sw_img.c ****                 else {
 688:Drivers/lvgl/src/draw/sw/lv_draw_sw_img.c ****                     // Copy as-is
 689:Drivers/lvgl/src/draw/sw/lv_draw_sw_img.c ****                     dest_buf_tmp[0] = src_buf_tmp[0];
 690:Drivers/lvgl/src/draw/sw/lv_draw_sw_img.c ****                     dest_buf_tmp[1] = src_buf_tmp[1];
 691:Drivers/lvgl/src/draw/sw/lv_draw_sw_img.c ****                     dest_buf_tmp[2] = src_buf_tmp[2];
 692:Drivers/lvgl/src/draw/sw/lv_draw_sw_img.c ****                     if(cf == LV_COLOR_FORMAT_ARGB8888) {
 693:Drivers/lvgl/src/draw/sw/lv_draw_sw_img.c ****                         dest_buf_tmp[3] = src_buf_tmp[3];
 694:Drivers/lvgl/src/draw/sw/lv_draw_sw_img.c ****                     }
 695:Drivers/lvgl/src/draw/sw/lv_draw_sw_img.c ****                 }
 696:Drivers/lvgl/src/draw/sw/lv_draw_sw_img.c **** 
 697:Drivers/lvgl/src/draw/sw/lv_draw_sw_img.c ****                 src_buf_tmp += px_size;
 698:Drivers/lvgl/src/draw/sw/lv_draw_sw_img.c ****                 dest_buf_tmp += px_size;
 699:Drivers/lvgl/src/draw/sw/lv_draw_sw_img.c ****             }
 700:Drivers/lvgl/src/draw/sw/lv_draw_sw_img.c ****             src_buf_tmp += (src_stride - w * px_size);
 701:Drivers/lvgl/src/draw/sw/lv_draw_sw_img.c ****         }
 702:Drivers/lvgl/src/draw/sw/lv_draw_sw_img.c ****     }
 703:Drivers/lvgl/src/draw/sw/lv_draw_sw_img.c ****     else if(cf == LV_COLOR_FORMAT_ARGB8888_PREMULTIPLIED) {
 704:Drivers/lvgl/src/draw/sw/lv_draw_sw_img.c ****         uint32_t px_size = 4;
 705:Drivers/lvgl/src/draw/sw/lv_draw_sw_img.c ****         const uint8_t * src_buf_tmp = src_buf + src_stride * relative_area.y1 + relative_area.x1 * 
 706:Drivers/lvgl/src/draw/sw/lv_draw_sw_img.c ****         uint8_t * dest_buf_tmp = dest_buf;
 707:Drivers/lvgl/src/draw/sw/lv_draw_sw_img.c **** 
 708:Drivers/lvgl/src/draw/sw/lv_draw_sw_img.c ****         uint16_t c_mult[3];
 709:Drivers/lvgl/src/draw/sw/lv_draw_sw_img.c ****         c_mult[0] = recolor.blue * mix;
 710:Drivers/lvgl/src/draw/sw/lv_draw_sw_img.c ****         c_mult[1] = recolor.green * mix;
 711:Drivers/lvgl/src/draw/sw/lv_draw_sw_img.c ****         c_mult[2] = recolor.red * mix;
 712:Drivers/lvgl/src/draw/sw/lv_draw_sw_img.c **** 
 713:Drivers/lvgl/src/draw/sw/lv_draw_sw_img.c ****         int32_t y;
 714:Drivers/lvgl/src/draw/sw/lv_draw_sw_img.c ****         for(y = 0; y < h; y++) {
 715:Drivers/lvgl/src/draw/sw/lv_draw_sw_img.c ****             int32_t x;
 716:Drivers/lvgl/src/draw/sw/lv_draw_sw_img.c ****             for(x = 0; x < w; x++) {
 717:Drivers/lvgl/src/draw/sw/lv_draw_sw_img.c ****                 uint8_t alpha = src_buf_tmp[3];
 718:Drivers/lvgl/src/draw/sw/lv_draw_sw_img.c **** 
 719:Drivers/lvgl/src/draw/sw/lv_draw_sw_img.c ****                 // Only process if pixel is visible
 720:Drivers/lvgl/src/draw/sw/lv_draw_sw_img.c ****                 if(alpha > 0) {
 721:Drivers/lvgl/src/draw/sw/lv_draw_sw_img.c ****                     /* Unpremultiply for color comparison and recolor */
ARM GAS  /var/folders/qx/2_175_4n2s19vhvtspjhb3qh0000gn/T//cc1Hh9yO.s 			page 22


 722:Drivers/lvgl/src/draw/sw/lv_draw_sw_img.c ****                     uint16_t reciprocal = (255 * 256) / alpha;
 723:Drivers/lvgl/src/draw/sw/lv_draw_sw_img.c ****                     uint8_t r = (src_buf_tmp[2] * reciprocal) >> 8;
 724:Drivers/lvgl/src/draw/sw/lv_draw_sw_img.c ****                     uint8_t g = (src_buf_tmp[1] * reciprocal) >> 8;
 725:Drivers/lvgl/src/draw/sw/lv_draw_sw_img.c ****                     uint8_t b = (src_buf_tmp[0] * reciprocal) >> 8;
 726:Drivers/lvgl/src/draw/sw/lv_draw_sw_img.c **** 
 727:Drivers/lvgl/src/draw/sw/lv_draw_sw_img.c ****                     lv_color_t src_color = lv_color_make(r, g, b);
 728:Drivers/lvgl/src/draw/sw/lv_draw_sw_img.c **** 
 729:Drivers/lvgl/src/draw/sw/lv_draw_sw_img.c ****                     /* Check colorkey */
 730:Drivers/lvgl/src/draw/sw/lv_draw_sw_img.c ****                     if(lv_color_is_in_range(src_color, colorkey_low, colorkey_high)) {
 731:Drivers/lvgl/src/draw/sw/lv_draw_sw_img.c ****                         // Set entire pixel to transparent
 732:Drivers/lvgl/src/draw/sw/lv_draw_sw_img.c ****                         dest_buf_tmp[0] = 0;
 733:Drivers/lvgl/src/draw/sw/lv_draw_sw_img.c ****                         dest_buf_tmp[1] = 0;
 734:Drivers/lvgl/src/draw/sw/lv_draw_sw_img.c ****                         dest_buf_tmp[2] = 0;
 735:Drivers/lvgl/src/draw/sw/lv_draw_sw_img.c ****                         dest_buf_tmp[3] = 0;
 736:Drivers/lvgl/src/draw/sw/lv_draw_sw_img.c ****                     }
 737:Drivers/lvgl/src/draw/sw/lv_draw_sw_img.c ****                     /* Apply recolor */
 738:Drivers/lvgl/src/draw/sw/lv_draw_sw_img.c ****                     else {
 739:Drivers/lvgl/src/draw/sw/lv_draw_sw_img.c ****                         if(mix >= LV_OPA_MAX) {
 740:Drivers/lvgl/src/draw/sw/lv_draw_sw_img.c ****                             r = recolor.red;
 741:Drivers/lvgl/src/draw/sw/lv_draw_sw_img.c ****                             g = recolor.green;
 742:Drivers/lvgl/src/draw/sw/lv_draw_sw_img.c ****                             b = recolor.blue;
 743:Drivers/lvgl/src/draw/sw/lv_draw_sw_img.c ****                         }
 744:Drivers/lvgl/src/draw/sw/lv_draw_sw_img.c ****                         else if(mix > LV_OPA_MIN) {
 745:Drivers/lvgl/src/draw/sw/lv_draw_sw_img.c ****                             r = (c_mult[2] + (r * mix_inv)) >> 8;
 746:Drivers/lvgl/src/draw/sw/lv_draw_sw_img.c ****                             g = (c_mult[1] + (g * mix_inv)) >> 8;
 747:Drivers/lvgl/src/draw/sw/lv_draw_sw_img.c ****                             b = (c_mult[0] + (b * mix_inv)) >> 8;
 748:Drivers/lvgl/src/draw/sw/lv_draw_sw_img.c ****                         }
 749:Drivers/lvgl/src/draw/sw/lv_draw_sw_img.c ****                         // Else keep original colors
 750:Drivers/lvgl/src/draw/sw/lv_draw_sw_img.c **** 
 751:Drivers/lvgl/src/draw/sw/lv_draw_sw_img.c ****                         /* Premultiply again */
 752:Drivers/lvgl/src/draw/sw/lv_draw_sw_img.c ****                         dest_buf_tmp[0] = (b * alpha) >> 8;
 753:Drivers/lvgl/src/draw/sw/lv_draw_sw_img.c ****                         dest_buf_tmp[1] = (g * alpha) >> 8;
 754:Drivers/lvgl/src/draw/sw/lv_draw_sw_img.c ****                         dest_buf_tmp[2] = (r * alpha) >> 8;
 755:Drivers/lvgl/src/draw/sw/lv_draw_sw_img.c ****                         dest_buf_tmp[3] = alpha; // Keep original alpha
 756:Drivers/lvgl/src/draw/sw/lv_draw_sw_img.c ****                     }
 757:Drivers/lvgl/src/draw/sw/lv_draw_sw_img.c ****                 }
 758:Drivers/lvgl/src/draw/sw/lv_draw_sw_img.c ****                 else {
 759:Drivers/lvgl/src/draw/sw/lv_draw_sw_img.c ****                     // Already transparent, copy as-is
 760:Drivers/lvgl/src/draw/sw/lv_draw_sw_img.c ****                     dest_buf_tmp[0] = src_buf_tmp[0];
 761:Drivers/lvgl/src/draw/sw/lv_draw_sw_img.c ****                     dest_buf_tmp[1] = src_buf_tmp[1];
 762:Drivers/lvgl/src/draw/sw/lv_draw_sw_img.c ****                     dest_buf_tmp[2] = src_buf_tmp[2];
 763:Drivers/lvgl/src/draw/sw/lv_draw_sw_img.c ****                     dest_buf_tmp[3] = 0; // Ensure alpha is 0
 764:Drivers/lvgl/src/draw/sw/lv_draw_sw_img.c ****                 }
 765:Drivers/lvgl/src/draw/sw/lv_draw_sw_img.c **** 
 766:Drivers/lvgl/src/draw/sw/lv_draw_sw_img.c ****                 src_buf_tmp += px_size;
 767:Drivers/lvgl/src/draw/sw/lv_draw_sw_img.c ****                 dest_buf_tmp += px_size;
 768:Drivers/lvgl/src/draw/sw/lv_draw_sw_img.c ****             }
 769:Drivers/lvgl/src/draw/sw/lv_draw_sw_img.c ****             src_buf_tmp += (src_stride - w * px_size);
 770:Drivers/lvgl/src/draw/sw/lv_draw_sw_img.c ****         }
 771:Drivers/lvgl/src/draw/sw/lv_draw_sw_img.c ****     }
 772:Drivers/lvgl/src/draw/sw/lv_draw_sw_img.c **** }
 773:Drivers/lvgl/src/draw/sw/lv_draw_sw_img.c **** 
 774:Drivers/lvgl/src/draw/sw/lv_draw_sw_img.c **** static void recolor(lv_area_t relative_area, uint8_t * src_buf, uint8_t * dest_buf, int32_t src_str
 775:Drivers/lvgl/src/draw/sw/lv_draw_sw_img.c ****                     lv_color_format_t cf, const lv_draw_image_dsc_t * draw_dsc)
 776:Drivers/lvgl/src/draw/sw/lv_draw_sw_img.c **** {
 777:Drivers/lvgl/src/draw/sw/lv_draw_sw_img.c ****     int32_t w = lv_area_get_width(&relative_area);
 778:Drivers/lvgl/src/draw/sw/lv_draw_sw_img.c ****     int32_t h = lv_area_get_height(&relative_area);
ARM GAS  /var/folders/qx/2_175_4n2s19vhvtspjhb3qh0000gn/T//cc1Hh9yO.s 			page 23


 779:Drivers/lvgl/src/draw/sw/lv_draw_sw_img.c **** 
 780:Drivers/lvgl/src/draw/sw/lv_draw_sw_img.c ****     /*Apply recolor*/
 781:Drivers/lvgl/src/draw/sw/lv_draw_sw_img.c ****     lv_color_t color = draw_dsc->recolor;
 782:Drivers/lvgl/src/draw/sw/lv_draw_sw_img.c ****     lv_opa_t mix = draw_dsc->recolor_opa;
 783:Drivers/lvgl/src/draw/sw/lv_draw_sw_img.c ****     lv_opa_t mix_inv = 255 - mix;
 784:Drivers/lvgl/src/draw/sw/lv_draw_sw_img.c **** 
 785:Drivers/lvgl/src/draw/sw/lv_draw_sw_img.c ****     if(cf == LV_COLOR_FORMAT_RGB565A8 || cf == LV_COLOR_FORMAT_RGB565) {
 786:Drivers/lvgl/src/draw/sw/lv_draw_sw_img.c ****         if(LV_RESULT_INVALID == LV_DRAW_SW_RGB565_RECOLOR(dest_buf, relative_area, color, mix)) {
 787:Drivers/lvgl/src/draw/sw/lv_draw_sw_img.c ****             const uint8_t * src_buf_tmp = src_buf + src_stride * relative_area.y1 + relative_area.x
 788:Drivers/lvgl/src/draw/sw/lv_draw_sw_img.c ****             int32_t img_stride_px = src_stride / 2;
 789:Drivers/lvgl/src/draw/sw/lv_draw_sw_img.c **** 
 790:Drivers/lvgl/src/draw/sw/lv_draw_sw_img.c ****             uint16_t * buf16_src = (uint16_t *)src_buf_tmp;
 791:Drivers/lvgl/src/draw/sw/lv_draw_sw_img.c ****             uint16_t * buf16_dest = (uint16_t *)dest_buf;
 792:Drivers/lvgl/src/draw/sw/lv_draw_sw_img.c ****             uint16_t color16 = lv_color_to_u16(color);
 793:Drivers/lvgl/src/draw/sw/lv_draw_sw_img.c ****             if(mix >= LV_OPA_MAX) {
 794:Drivers/lvgl/src/draw/sw/lv_draw_sw_img.c ****                 int32_t y;
 795:Drivers/lvgl/src/draw/sw/lv_draw_sw_img.c ****                 for(y = 0; y < h; y++) {
 796:Drivers/lvgl/src/draw/sw/lv_draw_sw_img.c ****                     int32_t x;
 797:Drivers/lvgl/src/draw/sw/lv_draw_sw_img.c ****                     for(x = 0; x < w; x++) {
 798:Drivers/lvgl/src/draw/sw/lv_draw_sw_img.c ****                         *buf16_dest = color16;
 799:Drivers/lvgl/src/draw/sw/lv_draw_sw_img.c ****                         buf16_dest++;
 800:Drivers/lvgl/src/draw/sw/lv_draw_sw_img.c ****                     }
 801:Drivers/lvgl/src/draw/sw/lv_draw_sw_img.c ****                     buf16_src += img_stride_px;
 802:Drivers/lvgl/src/draw/sw/lv_draw_sw_img.c ****                 }
 803:Drivers/lvgl/src/draw/sw/lv_draw_sw_img.c ****             }
 804:Drivers/lvgl/src/draw/sw/lv_draw_sw_img.c ****             else {
 805:Drivers/lvgl/src/draw/sw/lv_draw_sw_img.c ****                 uint16_t c_mult[3];
 806:Drivers/lvgl/src/draw/sw/lv_draw_sw_img.c ****                 c_mult[0] = (color.blue >> 3) * mix;
 807:Drivers/lvgl/src/draw/sw/lv_draw_sw_img.c ****                 c_mult[1] = (color.green >> 2) * mix;
 808:Drivers/lvgl/src/draw/sw/lv_draw_sw_img.c ****                 c_mult[2] = (color.red >> 3) * mix;
 809:Drivers/lvgl/src/draw/sw/lv_draw_sw_img.c **** 
 810:Drivers/lvgl/src/draw/sw/lv_draw_sw_img.c ****                 int32_t y;
 811:Drivers/lvgl/src/draw/sw/lv_draw_sw_img.c ****                 for(y = 0; y < h; y++) {
 812:Drivers/lvgl/src/draw/sw/lv_draw_sw_img.c ****                     int32_t x;
 813:Drivers/lvgl/src/draw/sw/lv_draw_sw_img.c ****                     for(x = 0; x < w; x++) {
 814:Drivers/lvgl/src/draw/sw/lv_draw_sw_img.c ****                         *buf16_dest = (((c_mult[2] + ((buf16_src[x] >> 11) & 0x1F) * mix_inv) << 3)
 815:Drivers/lvgl/src/draw/sw/lv_draw_sw_img.c ****                                       (((c_mult[1] + ((buf16_src[x] >> 5) & 0x3F) * mix_inv) >> 3) 
 816:Drivers/lvgl/src/draw/sw/lv_draw_sw_img.c ****                                       ((c_mult[0] + (buf16_src[x] & 0x1F) * mix_inv) >> 8);
 817:Drivers/lvgl/src/draw/sw/lv_draw_sw_img.c ****                         buf16_dest++;
 818:Drivers/lvgl/src/draw/sw/lv_draw_sw_img.c ****                     }
 819:Drivers/lvgl/src/draw/sw/lv_draw_sw_img.c ****                     buf16_src += img_stride_px;
 820:Drivers/lvgl/src/draw/sw/lv_draw_sw_img.c ****                 }
 821:Drivers/lvgl/src/draw/sw/lv_draw_sw_img.c ****             }
 822:Drivers/lvgl/src/draw/sw/lv_draw_sw_img.c ****         }
 823:Drivers/lvgl/src/draw/sw/lv_draw_sw_img.c ****     }
 824:Drivers/lvgl/src/draw/sw/lv_draw_sw_img.c ****     else if(cf == LV_COLOR_FORMAT_RGB565_SWAPPED) {
 825:Drivers/lvgl/src/draw/sw/lv_draw_sw_img.c ****         if(LV_RESULT_INVALID == LV_DRAW_SW_RGB565_SWAPPED_RECOLOR(dest_buf, relative_area, color, m
 826:Drivers/lvgl/src/draw/sw/lv_draw_sw_img.c ****             const uint8_t * src_buf_tmp = src_buf + src_stride * relative_area.y1 + relative_area.x
 827:Drivers/lvgl/src/draw/sw/lv_draw_sw_img.c ****             int32_t img_stride_px = src_stride / 2;
 828:Drivers/lvgl/src/draw/sw/lv_draw_sw_img.c **** 
 829:Drivers/lvgl/src/draw/sw/lv_draw_sw_img.c ****             uint16_t * buf16_src = (uint16_t *)src_buf_tmp;
 830:Drivers/lvgl/src/draw/sw/lv_draw_sw_img.c ****             uint16_t * buf16_dest = (uint16_t *)dest_buf;
 831:Drivers/lvgl/src/draw/sw/lv_draw_sw_img.c ****             uint16_t color16 = lv_color_to_u16(color);
 832:Drivers/lvgl/src/draw/sw/lv_draw_sw_img.c ****             if(mix >= LV_OPA_MAX) {
 833:Drivers/lvgl/src/draw/sw/lv_draw_sw_img.c ****                 int32_t y;
 834:Drivers/lvgl/src/draw/sw/lv_draw_sw_img.c ****                 for(y = 0; y < h; y++) {
 835:Drivers/lvgl/src/draw/sw/lv_draw_sw_img.c ****                     int32_t x;
ARM GAS  /var/folders/qx/2_175_4n2s19vhvtspjhb3qh0000gn/T//cc1Hh9yO.s 			page 24


 836:Drivers/lvgl/src/draw/sw/lv_draw_sw_img.c ****                     for(x = 0; x < w; x++) {
 837:Drivers/lvgl/src/draw/sw/lv_draw_sw_img.c ****                         *buf16_dest = color16;
 838:Drivers/lvgl/src/draw/sw/lv_draw_sw_img.c ****                         buf16_dest++;
 839:Drivers/lvgl/src/draw/sw/lv_draw_sw_img.c ****                     }
 840:Drivers/lvgl/src/draw/sw/lv_draw_sw_img.c ****                     buf16_src += img_stride_px;
 841:Drivers/lvgl/src/draw/sw/lv_draw_sw_img.c ****                 }
 842:Drivers/lvgl/src/draw/sw/lv_draw_sw_img.c ****             }
 843:Drivers/lvgl/src/draw/sw/lv_draw_sw_img.c ****             else {
 844:Drivers/lvgl/src/draw/sw/lv_draw_sw_img.c ****                 uint16_t c_mult[3];
 845:Drivers/lvgl/src/draw/sw/lv_draw_sw_img.c ****                 c_mult[0] = (color.blue >> 3) * mix;
 846:Drivers/lvgl/src/draw/sw/lv_draw_sw_img.c ****                 c_mult[1] = (color.green >> 2) * mix;
 847:Drivers/lvgl/src/draw/sw/lv_draw_sw_img.c ****                 c_mult[2] = (color.red >> 3) * mix;
 848:Drivers/lvgl/src/draw/sw/lv_draw_sw_img.c **** 
 849:Drivers/lvgl/src/draw/sw/lv_draw_sw_img.c ****                 int32_t y;
 850:Drivers/lvgl/src/draw/sw/lv_draw_sw_img.c ****                 for(y = 0; y < h; y++) {
 851:Drivers/lvgl/src/draw/sw/lv_draw_sw_img.c ****                     int32_t x;
 852:Drivers/lvgl/src/draw/sw/lv_draw_sw_img.c ****                     for(x = 0; x < w; x++) {
 853:Drivers/lvgl/src/draw/sw/lv_draw_sw_img.c ****                         *buf16_dest = lv_color_swap_16((((c_mult[2] + ((lv_color_swap_16(buf16_src[
 854:Drivers/lvgl/src/draw/sw/lv_draw_sw_img.c ****                                                        +
 855:Drivers/lvgl/src/draw/sw/lv_draw_sw_img.c ****                                                        (((c_mult[1] + ((lv_color_swap_16(buf16_src[
 856:Drivers/lvgl/src/draw/sw/lv_draw_sw_img.c ****                                                        ((c_mult[0] + (lv_color_swap_16(buf16_src[x]
 857:Drivers/lvgl/src/draw/sw/lv_draw_sw_img.c ****                         buf16_dest++;
 858:Drivers/lvgl/src/draw/sw/lv_draw_sw_img.c ****                     }
 859:Drivers/lvgl/src/draw/sw/lv_draw_sw_img.c ****                     buf16_src += img_stride_px;
 860:Drivers/lvgl/src/draw/sw/lv_draw_sw_img.c ****                 }
 861:Drivers/lvgl/src/draw/sw/lv_draw_sw_img.c ****             }
 862:Drivers/lvgl/src/draw/sw/lv_draw_sw_img.c ****         }
 863:Drivers/lvgl/src/draw/sw/lv_draw_sw_img.c ****     }
 864:Drivers/lvgl/src/draw/sw/lv_draw_sw_img.c ****     else if(cf == LV_COLOR_FORMAT_RGB888 || cf == LV_COLOR_FORMAT_XRGB8888 || cf == LV_COLOR_FORMAT
 865:Drivers/lvgl/src/draw/sw/lv_draw_sw_img.c ****         if(LV_RESULT_INVALID == LV_DRAW_SW_RGB888_RECOLOR(dest_buf, relative_area, color, mix, cf))
 866:Drivers/lvgl/src/draw/sw/lv_draw_sw_img.c ****             uint32_t px_size = lv_color_format_get_size(cf);
 867:Drivers/lvgl/src/draw/sw/lv_draw_sw_img.c ****             src_buf += src_stride * relative_area.y1 + relative_area.x1 * px_size;
 868:Drivers/lvgl/src/draw/sw/lv_draw_sw_img.c ****             if(mix >= LV_OPA_MAX) {
 869:Drivers/lvgl/src/draw/sw/lv_draw_sw_img.c ****                 int32_t y;
 870:Drivers/lvgl/src/draw/sw/lv_draw_sw_img.c ****                 for(y = 0; y < h; y++) {
 871:Drivers/lvgl/src/draw/sw/lv_draw_sw_img.c ****                     int32_t x;
 872:Drivers/lvgl/src/draw/sw/lv_draw_sw_img.c ****                     for(x = 0; x < w; x++) {
 873:Drivers/lvgl/src/draw/sw/lv_draw_sw_img.c ****                         dest_buf[0] = color.blue;
 874:Drivers/lvgl/src/draw/sw/lv_draw_sw_img.c ****                         dest_buf[1] = color.green;
 875:Drivers/lvgl/src/draw/sw/lv_draw_sw_img.c ****                         dest_buf[2] = color.red;
 876:Drivers/lvgl/src/draw/sw/lv_draw_sw_img.c ****                         if(cf == LV_COLOR_FORMAT_ARGB8888) dest_buf[3] = src_buf[3];
 877:Drivers/lvgl/src/draw/sw/lv_draw_sw_img.c ****                         src_buf += px_size;
 878:Drivers/lvgl/src/draw/sw/lv_draw_sw_img.c ****                         dest_buf += px_size;
 879:Drivers/lvgl/src/draw/sw/lv_draw_sw_img.c ****                     }
 880:Drivers/lvgl/src/draw/sw/lv_draw_sw_img.c ****                     src_buf += src_stride - w * px_size;
 881:Drivers/lvgl/src/draw/sw/lv_draw_sw_img.c ****                 }
 882:Drivers/lvgl/src/draw/sw/lv_draw_sw_img.c ****             }
 883:Drivers/lvgl/src/draw/sw/lv_draw_sw_img.c ****             else {
 884:Drivers/lvgl/src/draw/sw/lv_draw_sw_img.c ****                 uint16_t c_mult[3];
 885:Drivers/lvgl/src/draw/sw/lv_draw_sw_img.c ****                 c_mult[0] = color.blue * mix;
 886:Drivers/lvgl/src/draw/sw/lv_draw_sw_img.c ****                 c_mult[1] = color.green * mix;
 887:Drivers/lvgl/src/draw/sw/lv_draw_sw_img.c ****                 c_mult[2] = color.red * mix;
 888:Drivers/lvgl/src/draw/sw/lv_draw_sw_img.c ****                 int32_t y;
 889:Drivers/lvgl/src/draw/sw/lv_draw_sw_img.c ****                 for(y = 0; y < h; y++) {
 890:Drivers/lvgl/src/draw/sw/lv_draw_sw_img.c ****                     int32_t x;
 891:Drivers/lvgl/src/draw/sw/lv_draw_sw_img.c ****                     for(x = 0; x < w; x++) {
 892:Drivers/lvgl/src/draw/sw/lv_draw_sw_img.c ****                         dest_buf[0] = (c_mult[0] + (src_buf[0] * mix_inv)) >> 8;
ARM GAS  /var/folders/qx/2_175_4n2s19vhvtspjhb3qh0000gn/T//cc1Hh9yO.s 			page 25


 893:Drivers/lvgl/src/draw/sw/lv_draw_sw_img.c ****                         dest_buf[1] = (c_mult[1] + (src_buf[1] * mix_inv)) >> 8;
 894:Drivers/lvgl/src/draw/sw/lv_draw_sw_img.c ****                         dest_buf[2] = (c_mult[2] + (src_buf[2] * mix_inv)) >> 8;
 895:Drivers/lvgl/src/draw/sw/lv_draw_sw_img.c ****                         if(cf == LV_COLOR_FORMAT_ARGB8888) dest_buf[3] = src_buf[3];
 896:Drivers/lvgl/src/draw/sw/lv_draw_sw_img.c ****                         src_buf += px_size;
 897:Drivers/lvgl/src/draw/sw/lv_draw_sw_img.c ****                         dest_buf += px_size;
 898:Drivers/lvgl/src/draw/sw/lv_draw_sw_img.c ****                     }
 899:Drivers/lvgl/src/draw/sw/lv_draw_sw_img.c ****                     src_buf += src_stride - w * px_size;
 900:Drivers/lvgl/src/draw/sw/lv_draw_sw_img.c ****                 }
 901:Drivers/lvgl/src/draw/sw/lv_draw_sw_img.c ****             }
 902:Drivers/lvgl/src/draw/sw/lv_draw_sw_img.c ****         }
 903:Drivers/lvgl/src/draw/sw/lv_draw_sw_img.c ****     }
 904:Drivers/lvgl/src/draw/sw/lv_draw_sw_img.c ****     else if(cf == LV_COLOR_FORMAT_ARGB8888_PREMULTIPLIED) {
 905:Drivers/lvgl/src/draw/sw/lv_draw_sw_img.c ****         if(LV_RESULT_INVALID == LV_DRAW_SW_ARGB8888_PREMULTIPLIED_RECOLOR(dest_buf, relative_area, 
 906:Drivers/lvgl/src/draw/sw/lv_draw_sw_img.c ****             uint32_t px_size = lv_color_format_get_size(cf);
 907:Drivers/lvgl/src/draw/sw/lv_draw_sw_img.c ****             src_buf += src_stride * relative_area.y1 + relative_area.x1 * px_size;
 908:Drivers/lvgl/src/draw/sw/lv_draw_sw_img.c **** 
 909:Drivers/lvgl/src/draw/sw/lv_draw_sw_img.c ****             uint16_t c_mult[3];
 910:Drivers/lvgl/src/draw/sw/lv_draw_sw_img.c ****             c_mult[0] = color.blue * mix;
 911:Drivers/lvgl/src/draw/sw/lv_draw_sw_img.c ****             c_mult[1] = color.green * mix;
 912:Drivers/lvgl/src/draw/sw/lv_draw_sw_img.c ****             c_mult[2] = color.red * mix;
 913:Drivers/lvgl/src/draw/sw/lv_draw_sw_img.c **** 
 914:Drivers/lvgl/src/draw/sw/lv_draw_sw_img.c ****             int32_t y;
 915:Drivers/lvgl/src/draw/sw/lv_draw_sw_img.c ****             for(y = 0; y < h; y++) {
 916:Drivers/lvgl/src/draw/sw/lv_draw_sw_img.c ****                 int32_t x;
 917:Drivers/lvgl/src/draw/sw/lv_draw_sw_img.c ****                 for(x = 0; x < w; x++) {
 918:Drivers/lvgl/src/draw/sw/lv_draw_sw_img.c ****                     uint8_t alpha = src_buf[3];
 919:Drivers/lvgl/src/draw/sw/lv_draw_sw_img.c **** 
 920:Drivers/lvgl/src/draw/sw/lv_draw_sw_img.c ****                     if(alpha > 0) {
 921:Drivers/lvgl/src/draw/sw/lv_draw_sw_img.c ****                         /* Step 1: Unpremultiply (convert to non-premultiplied RGB) */
 922:Drivers/lvgl/src/draw/sw/lv_draw_sw_img.c ****                         uint16_t reciprocal = (255 * 256) / alpha;
 923:Drivers/lvgl/src/draw/sw/lv_draw_sw_img.c ****                         uint8_t r = (src_buf[2] * reciprocal) >> 8;
 924:Drivers/lvgl/src/draw/sw/lv_draw_sw_img.c ****                         uint8_t g = (src_buf[1] * reciprocal) >> 8;
 925:Drivers/lvgl/src/draw/sw/lv_draw_sw_img.c ****                         uint8_t b = (src_buf[0] * reciprocal) >> 8;
 926:Drivers/lvgl/src/draw/sw/lv_draw_sw_img.c **** 
 927:Drivers/lvgl/src/draw/sw/lv_draw_sw_img.c ****                         /* Step 2: Apply recoloring */
 928:Drivers/lvgl/src/draw/sw/lv_draw_sw_img.c ****                         r = (c_mult[2] + (r * mix_inv)) >> 8;
 929:Drivers/lvgl/src/draw/sw/lv_draw_sw_img.c ****                         g = (c_mult[1] + (g * mix_inv)) >> 8;
 930:Drivers/lvgl/src/draw/sw/lv_draw_sw_img.c ****                         b = (c_mult[0] + (b * mix_inv)) >> 8;
 931:Drivers/lvgl/src/draw/sw/lv_draw_sw_img.c **** 
 932:Drivers/lvgl/src/draw/sw/lv_draw_sw_img.c ****                         /* Step 3: Premultiply again */
 933:Drivers/lvgl/src/draw/sw/lv_draw_sw_img.c ****                         dest_buf[0] = (b * alpha) >> 8;
 934:Drivers/lvgl/src/draw/sw/lv_draw_sw_img.c ****                         dest_buf[1] = (g * alpha) >> 8;
 935:Drivers/lvgl/src/draw/sw/lv_draw_sw_img.c ****                         dest_buf[2] = (r * alpha) >> 8;
 936:Drivers/lvgl/src/draw/sw/lv_draw_sw_img.c ****                     }
 937:Drivers/lvgl/src/draw/sw/lv_draw_sw_img.c ****                     else {
 938:Drivers/lvgl/src/draw/sw/lv_draw_sw_img.c ****                         /* If alpha is 0, just copy the pixel as is */
 939:Drivers/lvgl/src/draw/sw/lv_draw_sw_img.c ****                         dest_buf[0] = src_buf[0];
 940:Drivers/lvgl/src/draw/sw/lv_draw_sw_img.c ****                         dest_buf[1] = src_buf[1];
 941:Drivers/lvgl/src/draw/sw/lv_draw_sw_img.c ****                         dest_buf[2] = src_buf[2];
 942:Drivers/lvgl/src/draw/sw/lv_draw_sw_img.c ****                     }
 943:Drivers/lvgl/src/draw/sw/lv_draw_sw_img.c **** 
 944:Drivers/lvgl/src/draw/sw/lv_draw_sw_img.c ****                     dest_buf[3] = alpha; /* Keep original alpha*/
 945:Drivers/lvgl/src/draw/sw/lv_draw_sw_img.c **** 
 946:Drivers/lvgl/src/draw/sw/lv_draw_sw_img.c ****                     src_buf += px_size;
 947:Drivers/lvgl/src/draw/sw/lv_draw_sw_img.c ****                     dest_buf += px_size;
 948:Drivers/lvgl/src/draw/sw/lv_draw_sw_img.c ****                 }
 949:Drivers/lvgl/src/draw/sw/lv_draw_sw_img.c ****                 src_buf += src_stride - w * px_size;
ARM GAS  /var/folders/qx/2_175_4n2s19vhvtspjhb3qh0000gn/T//cc1Hh9yO.s 			page 26


 950:Drivers/lvgl/src/draw/sw/lv_draw_sw_img.c ****             }
 951:Drivers/lvgl/src/draw/sw/lv_draw_sw_img.c ****         }
 952:Drivers/lvgl/src/draw/sw/lv_draw_sw_img.c ****     }
 953:Drivers/lvgl/src/draw/sw/lv_draw_sw_img.c **** }
 954:Drivers/lvgl/src/draw/sw/lv_draw_sw_img.c **** 
 955:Drivers/lvgl/src/draw/sw/lv_draw_sw_img.c **** static bool apply_mask(const lv_draw_image_dsc_t * draw_dsc)
 956:Drivers/lvgl/src/draw/sw/lv_draw_sw_img.c **** {
 121              		.loc 1 956 1 is_stmt 1 view -0
 122              		.cfi_startproc
 123              		@ args = 0, pretend = 0, frame = 144
 124              		@ frame_needed = 0, uses_anonymous_args = 0
 125              		.loc 1 956 1 is_stmt 0 view .LVU22
 126 0000 2DE9F04F 		push	{r4, r5, r6, r7, r8, r9, r10, fp, lr}
 127              	.LCFI3:
 128              		.cfi_def_cfa_offset 36
 129              		.cfi_offset 4, -36
 130              		.cfi_offset 5, -32
 131              		.cfi_offset 6, -28
 132              		.cfi_offset 7, -24
 133              		.cfi_offset 8, -20
 134              		.cfi_offset 9, -16
 135              		.cfi_offset 10, -12
 136              		.cfi_offset 11, -8
 137              		.cfi_offset 14, -4
 138 0004 A7B0     		sub	sp, sp, #156
 139              	.LCFI4:
 140              		.cfi_def_cfa_offset 192
 141 0006 0446     		mov	r4, r0
 957:Drivers/lvgl/src/draw/sw/lv_draw_sw_img.c ****     lv_layer_t * layer_to_draw = (lv_layer_t *)draw_dsc->src;
 142              		.loc 1 957 5 is_stmt 1 view .LVU23
 143              		.loc 1 957 18 is_stmt 0 view .LVU24
 144 0008 C669     		ldr	r6, [r0, #28]
 145              	.LVL1:
 958:Drivers/lvgl/src/draw/sw/lv_draw_sw_img.c ****     lv_draw_buf_t * image_draw_buf = layer_to_draw->draw_buf;
 146              		.loc 1 958 5 is_stmt 1 view .LVU25
 147              		.loc 1 958 21 is_stmt 0 view .LVU26
 148 000a 3768     		ldr	r7, [r6]
 149              	.LVL2:
 959:Drivers/lvgl/src/draw/sw/lv_draw_sw_img.c ****     lv_image_decoder_dsc_t mask_decoder_dsc;
 150              		.loc 1 959 5 is_stmt 1 view .LVU27
 960:Drivers/lvgl/src/draw/sw/lv_draw_sw_img.c ****     lv_area_t mask_area;
 151              		.loc 1 960 5 view .LVU28
 961:Drivers/lvgl/src/draw/sw/lv_draw_sw_img.c ****     uint32_t mask_stride;
 152              		.loc 1 961 5 view .LVU29
 962:Drivers/lvgl/src/draw/sw/lv_draw_sw_img.c **** 
 963:Drivers/lvgl/src/draw/sw/lv_draw_sw_img.c ****     lv_result_t decoder_res = lv_image_decoder_open(&mask_decoder_dsc, draw_dsc->bitmap_mask_src, N
 153              		.loc 1 963 5 view .LVU30
 154              		.loc 1 963 31 is_stmt 0 view .LVU31
 155 000c 0022     		movs	r2, #0
 156 000e C16E     		ldr	r1, [r0, #108]
 157 0010 13A8     		add	r0, sp, #76
 158              	.LVL3:
 159              		.loc 1 963 31 view .LVU32
 160 0012 FFF7FEFF 		bl	lv_image_decoder_open
 161              	.LVL4:
 964:Drivers/lvgl/src/draw/sw/lv_draw_sw_img.c ****     if(decoder_res != LV_RESULT_OK || mask_decoder_dsc.decoded == NULL) {
 162              		.loc 1 964 5 is_stmt 1 view .LVU33
ARM GAS  /var/folders/qx/2_175_4n2s19vhvtspjhb3qh0000gn/T//cc1Hh9yO.s 			page 27


 163              		.loc 1 964 7 is_stmt 0 view .LVU34
 164 0016 0128     		cmp	r0, #1
 165 0018 40F09780 		bne	.L11
 166              		.loc 1 964 55 discriminator 1 view .LVU35
 167 001c DDF878C0 		ldr	ip, [sp, #120]
 168              		.loc 1 964 36 discriminator 1 view .LVU36
 169 0020 BCF1000F 		cmp	ip, #0
 170 0024 00F08E80 		beq	.L21
 965:Drivers/lvgl/src/draw/sw/lv_draw_sw_img.c ****         if(decoder_res == LV_RESULT_OK) lv_image_decoder_close(&mask_decoder_dsc);
 966:Drivers/lvgl/src/draw/sw/lv_draw_sw_img.c ****         LV_LOG_WARN("Could open the mask. The mask is not applied.");
 967:Drivers/lvgl/src/draw/sw/lv_draw_sw_img.c ****         return true;
 968:Drivers/lvgl/src/draw/sw/lv_draw_sw_img.c ****     }
 969:Drivers/lvgl/src/draw/sw/lv_draw_sw_img.c **** 
 970:Drivers/lvgl/src/draw/sw/lv_draw_sw_img.c ****     if(mask_decoder_dsc.decoded->header.cf != LV_COLOR_FORMAT_A8 &&
 171              		.loc 1 970 5 is_stmt 1 view .LVU37
 172              		.loc 1 970 40 is_stmt 0 view .LVU38
 173 0028 9CF80130 		ldrb	r3, [ip, #1]	@ zero_extendqisi2
 174              		.loc 1 970 7 view .LVU39
 175 002c 0E2B     		cmp	r3, #14
 176 002e 02D0     		beq	.L14
 177              		.loc 1 970 66 discriminator 1 view .LVU40
 178 0030 062B     		cmp	r3, #6
 179 0032 40F09080 		bne	.L22
 180              	.L14:
 971:Drivers/lvgl/src/draw/sw/lv_draw_sw_img.c ****        mask_decoder_dsc.decoded->header.cf != LV_COLOR_FORMAT_L8) {
 972:Drivers/lvgl/src/draw/sw/lv_draw_sw_img.c ****         lv_image_decoder_close(&mask_decoder_dsc);
 973:Drivers/lvgl/src/draw/sw/lv_draw_sw_img.c ****         LV_LOG_WARN("The mask image is not A8/L8 format. The mask is not applied.");
 974:Drivers/lvgl/src/draw/sw/lv_draw_sw_img.c ****         return true;
 975:Drivers/lvgl/src/draw/sw/lv_draw_sw_img.c **** 
 976:Drivers/lvgl/src/draw/sw/lv_draw_sw_img.c ****     }
 977:Drivers/lvgl/src/draw/sw/lv_draw_sw_img.c **** 
 978:Drivers/lvgl/src/draw/sw/lv_draw_sw_img.c ****     const lv_draw_buf_t * mask_draw_buf = mask_decoder_dsc.decoded;
 181              		.loc 1 978 5 is_stmt 1 view .LVU41
 182              	.LVL5:
 979:Drivers/lvgl/src/draw/sw/lv_draw_sw_img.c ****     mask_stride = mask_draw_buf->header.stride;
 183              		.loc 1 979 5 view .LVU42
 184              		.loc 1 979 40 is_stmt 0 view .LVU43
 185 0036 BCF80880 		ldrh	r8, [ip, #8]
 186              	.LVL6:
 980:Drivers/lvgl/src/draw/sw/lv_draw_sw_img.c **** 
 981:Drivers/lvgl/src/draw/sw/lv_draw_sw_img.c ****     /*Align the mask to the center*/
 982:Drivers/lvgl/src/draw/sw/lv_draw_sw_img.c ****     lv_area_t image_area;
 187              		.loc 1 982 5 is_stmt 1 view .LVU44
 983:Drivers/lvgl/src/draw/sw/lv_draw_sw_img.c ****     image_area = draw_dsc->image_area;  /*Use the whole image area for the alignment*/
 188              		.loc 1 983 5 view .LVU45
 189              		.loc 1 983 16 is_stmt 0 view .LVU46
 190 003a 0BAD     		add	r5, sp, #44
 191 003c 5C34     		adds	r4, r4, #92
 192              	.LVL7:
 193              		.loc 1 983 16 view .LVU47
 194 003e 94E80F00 		ldm	r4, {r0, r1, r2, r3}
 195              	.LVL8:
 196              		.loc 1 983 16 view .LVU48
 197 0042 85E80F00 		stm	r5, {r0, r1, r2, r3}
 984:Drivers/lvgl/src/draw/sw/lv_draw_sw_img.c ****     lv_area_set(&mask_area, 0, 0, mask_draw_buf->header.w - 1, mask_draw_buf->header.h - 1);
 198              		.loc 1 984 5 is_stmt 1 view .LVU49
 199              		.loc 1 984 56 is_stmt 0 view .LVU50
ARM GAS  /var/folders/qx/2_175_4n2s19vhvtspjhb3qh0000gn/T//cc1Hh9yO.s 			page 28


 200 0046 BCF80430 		ldrh	r3, [ip, #4]
 201              		.loc 1 984 85 view .LVU51
 202 004a BCF80620 		ldrh	r2, [ip, #6]
 203              		.loc 1 984 88 view .LVU52
 204 004e 013A     		subs	r2, r2, #1
 205              		.loc 1 984 5 view .LVU53
 206 0050 0FAC     		add	r4, sp, #60
 207              	.LVL9:
 208              		.loc 1 984 5 view .LVU54
 209 0052 0092     		str	r2, [sp]
 210 0054 013B     		subs	r3, r3, #1
 211 0056 0022     		movs	r2, #0
 212 0058 1146     		mov	r1, r2
 213 005a 2046     		mov	r0, r4
 214 005c FFF7FEFF 		bl	lv_area_set
 215              	.LVL10:
 985:Drivers/lvgl/src/draw/sw/lv_draw_sw_img.c ****     lv_area_align(&image_area, &mask_area, LV_ALIGN_CENTER, 0, 0);
 216              		.loc 1 985 5 is_stmt 1 view .LVU55
 217 0060 0023     		movs	r3, #0
 218 0062 0093     		str	r3, [sp]
 219 0064 0922     		movs	r2, #9
 220 0066 2146     		mov	r1, r4
 221 0068 2846     		mov	r0, r5
 222 006a FFF7FEFF 		bl	lv_area_align
 223              	.LVL11:
 986:Drivers/lvgl/src/draw/sw/lv_draw_sw_img.c **** 
 987:Drivers/lvgl/src/draw/sw/lv_draw_sw_img.c ****     image_area =
 224              		.loc 1 987 5 view .LVU56
 225              		.loc 1 987 16 is_stmt 0 view .LVU57
 226 006e 06F11403 		add	r3, r6, #20
 227 0072 0FCB     		ldm	r3, {r0, r1, r2, r3}
 228 0074 85E80F00 		stm	r5, {r0, r1, r2, r3}
 988:Drivers/lvgl/src/draw/sw/lv_draw_sw_img.c ****         layer_to_draw->buf_area; /*The image can be smaller if only a part was rendered. Use this a
 989:Drivers/lvgl/src/draw/sw/lv_draw_sw_img.c **** 
 990:Drivers/lvgl/src/draw/sw/lv_draw_sw_img.c ****     /*Only the intersection of the mask and image needs to be rendered
 991:Drivers/lvgl/src/draw/sw/lv_draw_sw_img.c ****      *If if there is no intersection there is nothing to render as the image is out of the mask.*/
 992:Drivers/lvgl/src/draw/sw/lv_draw_sw_img.c ****     lv_area_t masked_area;
 229              		.loc 1 992 5 is_stmt 1 view .LVU58
 993:Drivers/lvgl/src/draw/sw/lv_draw_sw_img.c ****     if(!lv_area_intersect(&masked_area, &mask_area, &image_area)) {
 230              		.loc 1 993 5 view .LVU59
 231              		.loc 1 993 9 is_stmt 0 view .LVU60
 232 0078 2A46     		mov	r2, r5
 233 007a 2146     		mov	r1, r4
 234 007c 07A8     		add	r0, sp, #28
 235 007e FFF7FEFF 		bl	lv_area_intersect
 236              	.LVL12:
 237              		.loc 1 993 7 discriminator 1 view .LVU61
 238 0082 8146     		mov	r9, r0
 239 0084 0028     		cmp	r0, #0
 240 0086 6CD0     		beq	.L23
 994:Drivers/lvgl/src/draw/sw/lv_draw_sw_img.c ****         lv_image_decoder_close(&mask_decoder_dsc);
 995:Drivers/lvgl/src/draw/sw/lv_draw_sw_img.c ****         return false;
 996:Drivers/lvgl/src/draw/sw/lv_draw_sw_img.c ****     }
 997:Drivers/lvgl/src/draw/sw/lv_draw_sw_img.c **** 
 998:Drivers/lvgl/src/draw/sw/lv_draw_sw_img.c ****     /*Clear the sides if any*/
 999:Drivers/lvgl/src/draw/sw/lv_draw_sw_img.c ****     lv_area_t side_area = {0};
 241              		.loc 1 999 5 is_stmt 1 view .LVU62
ARM GAS  /var/folders/qx/2_175_4n2s19vhvtspjhb3qh0000gn/T//cc1Hh9yO.s 			page 29


 242              		.loc 1 999 15 is_stmt 0 view .LVU63
 243 0088 03AC     		add	r4, sp, #12
 244 008a 4FF0000A 		mov	r10, #0
 245 008e CDF80CA0 		str	r10, [sp, #12]
 246 0092 CDF810A0 		str	r10, [sp, #16]
 247 0096 CDF814A0 		str	r10, [sp, #20]
 248 009a CDF818A0 		str	r10, [sp, #24]
1000:Drivers/lvgl/src/draw/sw/lv_draw_sw_img.c ****     /*Top*/
1001:Drivers/lvgl/src/draw/sw/lv_draw_sw_img.c ****     side_area.x2 = layer_to_draw->draw_buf->header.w - 1;
 249              		.loc 1 1001 5 is_stmt 1 view .LVU64
 250              		.loc 1 1001 33 is_stmt 0 view .LVU65
 251 009e 3368     		ldr	r3, [r6]
 252              		.loc 1 1001 51 view .LVU66
 253 00a0 9B88     		ldrh	r3, [r3, #4]
 254              		.loc 1 1001 54 view .LVU67
 255 00a2 013B     		subs	r3, r3, #1
 256              		.loc 1 1001 18 view .LVU68
 257 00a4 0593     		str	r3, [sp, #20]
1002:Drivers/lvgl/src/draw/sw/lv_draw_sw_img.c ****     side_area.y2 = masked_area.y1 - 1 - image_area.y1;
 258              		.loc 1 1002 5 is_stmt 1 view .LVU69
 259              		.loc 1 1002 31 is_stmt 0 view .LVU70
 260 00a6 089B     		ldr	r3, [sp, #32]
 261              		.loc 1 1002 35 view .LVU71
 262 00a8 013B     		subs	r3, r3, #1
 263              		.loc 1 1002 51 view .LVU72
 264 00aa 0C9A     		ldr	r2, [sp, #48]
 265              		.loc 1 1002 39 view .LVU73
 266 00ac 9B1A     		subs	r3, r3, r2
 267              		.loc 1 1002 18 view .LVU74
 268 00ae 0693     		str	r3, [sp, #24]
1003:Drivers/lvgl/src/draw/sw/lv_draw_sw_img.c ****     lv_draw_buf_clear(layer_to_draw->draw_buf, &side_area);
 269              		.loc 1 1003 5 is_stmt 1 view .LVU75
 270 00b0 2146     		mov	r1, r4
 271 00b2 3068     		ldr	r0, [r6]
 272 00b4 FFF7FEFF 		bl	lv_draw_buf_clear
 273              	.LVL13:
1004:Drivers/lvgl/src/draw/sw/lv_draw_sw_img.c **** 
1005:Drivers/lvgl/src/draw/sw/lv_draw_sw_img.c ****     /*Bottom*/
1006:Drivers/lvgl/src/draw/sw/lv_draw_sw_img.c ****     side_area.y1 = masked_area.y2 + 1 - image_area.y1;
 274              		.loc 1 1006 5 view .LVU76
 275              		.loc 1 1006 31 is_stmt 0 view .LVU77
 276 00b8 0A9B     		ldr	r3, [sp, #40]
 277              		.loc 1 1006 35 view .LVU78
 278 00ba 0133     		adds	r3, r3, #1
 279              		.loc 1 1006 51 view .LVU79
 280 00bc 0C9A     		ldr	r2, [sp, #48]
 281              		.loc 1 1006 39 view .LVU80
 282 00be 9B1A     		subs	r3, r3, r2
 283              		.loc 1 1006 18 view .LVU81
 284 00c0 0493     		str	r3, [sp, #16]
1007:Drivers/lvgl/src/draw/sw/lv_draw_sw_img.c ****     side_area.y2 = layer_to_draw->draw_buf->header.h - 1;
 285              		.loc 1 1007 5 is_stmt 1 view .LVU82
 286              		.loc 1 1007 33 is_stmt 0 view .LVU83
 287 00c2 3368     		ldr	r3, [r6]
 288              		.loc 1 1007 51 view .LVU84
 289 00c4 DB88     		ldrh	r3, [r3, #6]
 290              		.loc 1 1007 54 view .LVU85
ARM GAS  /var/folders/qx/2_175_4n2s19vhvtspjhb3qh0000gn/T//cc1Hh9yO.s 			page 30


 291 00c6 013B     		subs	r3, r3, #1
 292              		.loc 1 1007 18 view .LVU86
 293 00c8 0693     		str	r3, [sp, #24]
1008:Drivers/lvgl/src/draw/sw/lv_draw_sw_img.c ****     lv_draw_buf_clear(layer_to_draw->draw_buf, &side_area);
 294              		.loc 1 1008 5 is_stmt 1 view .LVU87
 295 00ca 2146     		mov	r1, r4
 296 00cc 3068     		ldr	r0, [r6]
 297 00ce FFF7FEFF 		bl	lv_draw_buf_clear
 298              	.LVL14:
1009:Drivers/lvgl/src/draw/sw/lv_draw_sw_img.c **** 
1010:Drivers/lvgl/src/draw/sw/lv_draw_sw_img.c ****     /*Left*/
1011:Drivers/lvgl/src/draw/sw/lv_draw_sw_img.c ****     side_area.y1 = 0;
 299              		.loc 1 1011 5 view .LVU88
 300              		.loc 1 1011 18 is_stmt 0 view .LVU89
 301 00d2 CDF810A0 		str	r10, [sp, #16]
1012:Drivers/lvgl/src/draw/sw/lv_draw_sw_img.c ****     side_area.x1 = 0;
 302              		.loc 1 1012 5 is_stmt 1 view .LVU90
 303              		.loc 1 1012 18 is_stmt 0 view .LVU91
 304 00d6 CDF80CA0 		str	r10, [sp, #12]
1013:Drivers/lvgl/src/draw/sw/lv_draw_sw_img.c ****     side_area.x2 = masked_area.x1 - 1 - image_area.x1;
 305              		.loc 1 1013 5 is_stmt 1 view .LVU92
 306              		.loc 1 1013 31 is_stmt 0 view .LVU93
 307 00da 079B     		ldr	r3, [sp, #28]
 308              		.loc 1 1013 35 view .LVU94
 309 00dc 013B     		subs	r3, r3, #1
 310              		.loc 1 1013 51 view .LVU95
 311 00de 0B9A     		ldr	r2, [sp, #44]
 312              		.loc 1 1013 39 view .LVU96
 313 00e0 9B1A     		subs	r3, r3, r2
 314              		.loc 1 1013 18 view .LVU97
 315 00e2 0593     		str	r3, [sp, #20]
1014:Drivers/lvgl/src/draw/sw/lv_draw_sw_img.c ****     lv_draw_buf_clear(layer_to_draw->draw_buf, &side_area);
 316              		.loc 1 1014 5 is_stmt 1 view .LVU98
 317 00e4 2146     		mov	r1, r4
 318 00e6 3068     		ldr	r0, [r6]
 319 00e8 FFF7FEFF 		bl	lv_draw_buf_clear
 320              	.LVL15:
1015:Drivers/lvgl/src/draw/sw/lv_draw_sw_img.c **** 
1016:Drivers/lvgl/src/draw/sw/lv_draw_sw_img.c ****     /*Right*/
1017:Drivers/lvgl/src/draw/sw/lv_draw_sw_img.c ****     side_area.x1 = masked_area.x2 + 1 - image_area.x1;
 321              		.loc 1 1017 5 view .LVU99
 322              		.loc 1 1017 31 is_stmt 0 view .LVU100
 323 00ec 099B     		ldr	r3, [sp, #36]
 324              		.loc 1 1017 35 view .LVU101
 325 00ee 0133     		adds	r3, r3, #1
 326              		.loc 1 1017 51 view .LVU102
 327 00f0 0B9A     		ldr	r2, [sp, #44]
 328              		.loc 1 1017 39 view .LVU103
 329 00f2 9B1A     		subs	r3, r3, r2
 330              		.loc 1 1017 18 view .LVU104
 331 00f4 0393     		str	r3, [sp, #12]
1018:Drivers/lvgl/src/draw/sw/lv_draw_sw_img.c ****     side_area.x2 = layer_to_draw->draw_buf->header.w - 1;
 332              		.loc 1 1018 5 is_stmt 1 view .LVU105
 333              		.loc 1 1018 33 is_stmt 0 view .LVU106
 334 00f6 3368     		ldr	r3, [r6]
 335              		.loc 1 1018 51 view .LVU107
 336 00f8 9B88     		ldrh	r3, [r3, #4]
ARM GAS  /var/folders/qx/2_175_4n2s19vhvtspjhb3qh0000gn/T//cc1Hh9yO.s 			page 31


 337              		.loc 1 1018 54 view .LVU108
 338 00fa 013B     		subs	r3, r3, #1
 339              		.loc 1 1018 18 view .LVU109
 340 00fc 0593     		str	r3, [sp, #20]
1019:Drivers/lvgl/src/draw/sw/lv_draw_sw_img.c ****     lv_draw_buf_clear(layer_to_draw->draw_buf, &side_area);
 341              		.loc 1 1019 5 is_stmt 1 view .LVU110
 342 00fe 2146     		mov	r1, r4
 343 0100 3068     		ldr	r0, [r6]
 344 0102 FFF7FEFF 		bl	lv_draw_buf_clear
 345              	.LVL16:
1020:Drivers/lvgl/src/draw/sw/lv_draw_sw_img.c **** 
1021:Drivers/lvgl/src/draw/sw/lv_draw_sw_img.c ****     /*Seek to the first of the image and mask on the masked area*/
1022:Drivers/lvgl/src/draw/sw/lv_draw_sw_img.c ****     uint8_t * img_start = lv_draw_buf_goto_xy(image_draw_buf,
 346              		.loc 1 1022 5 view .LVU111
 347              		.loc 1 1022 27 is_stmt 0 view .LVU112
 348 0106 089A     		ldr	r2, [sp, #32]
 349 0108 0C9B     		ldr	r3, [sp, #48]
 350 010a D21A     		subs	r2, r2, r3
 351 010c 0799     		ldr	r1, [sp, #28]
 352 010e 0B9B     		ldr	r3, [sp, #44]
 353 0110 C91A     		subs	r1, r1, r3
 354 0112 3846     		mov	r0, r7
 355 0114 FFF7FEFF 		bl	lv_draw_buf_goto_xy
 356              	.LVL17:
 357 0118 0446     		mov	r4, r0
 358              	.LVL18:
1023:Drivers/lvgl/src/draw/sw/lv_draw_sw_img.c ****                                               masked_area.x1 - image_area.x1,
1024:Drivers/lvgl/src/draw/sw/lv_draw_sw_img.c ****                                               masked_area.y1 - image_area.y1);
1025:Drivers/lvgl/src/draw/sw/lv_draw_sw_img.c ****     uint8_t * mask_start = lv_draw_buf_goto_xy(mask_decoder_dsc.decoded,
 359              		.loc 1 1025 5 is_stmt 1 view .LVU113
 360              		.loc 1 1025 28 is_stmt 0 view .LVU114
 361 011a 089A     		ldr	r2, [sp, #32]
 362 011c 109B     		ldr	r3, [sp, #64]
 363 011e D21A     		subs	r2, r2, r3
 364 0120 0799     		ldr	r1, [sp, #28]
 365 0122 0F9B     		ldr	r3, [sp, #60]
 366 0124 C91A     		subs	r1, r1, r3
 367 0126 1E98     		ldr	r0, [sp, #120]
 368              	.LVL19:
 369              		.loc 1 1025 28 view .LVU115
 370 0128 FFF7FEFF 		bl	lv_draw_buf_goto_xy
 371              	.LVL20:
 372 012c 0546     		mov	r5, r0
 373              	.LVL21:
1026:Drivers/lvgl/src/draw/sw/lv_draw_sw_img.c ****                                                masked_area.x1 - mask_area.x1,
1027:Drivers/lvgl/src/draw/sw/lv_draw_sw_img.c ****                                                masked_area.y1 - mask_area.y1);
1028:Drivers/lvgl/src/draw/sw/lv_draw_sw_img.c **** 
1029:Drivers/lvgl/src/draw/sw/lv_draw_sw_img.c ****     int32_t h = lv_area_get_height(&masked_area);
 374              		.loc 1 1029 5 is_stmt 1 view .LVU116
 375              		.loc 1 1029 17 is_stmt 0 view .LVU117
 376 012e 0DF11C0B 		add	fp, sp, #28
 377 0132 5846     		mov	r0, fp
 378              	.LVL22:
 379              		.loc 1 1029 17 view .LVU118
 380 0134 FFF7FEFF 		bl	lv_area_get_height
 381              	.LVL23:
 382 0138 0746     		mov	r7, r0
ARM GAS  /var/folders/qx/2_175_4n2s19vhvtspjhb3qh0000gn/T//cc1Hh9yO.s 			page 32


 383              	.LVL24:
1030:Drivers/lvgl/src/draw/sw/lv_draw_sw_img.c ****     int32_t w = lv_area_get_width(&masked_area);
 384              		.loc 1 1030 5 is_stmt 1 view .LVU119
 385              		.loc 1 1030 17 is_stmt 0 view .LVU120
 386 013a 5846     		mov	r0, fp
 387              	.LVL25:
 388              		.loc 1 1030 17 view .LVU121
 389 013c FFF7FEFF 		bl	lv_area_get_width
 390              	.LVL26:
1031:Drivers/lvgl/src/draw/sw/lv_draw_sw_img.c **** 
1032:Drivers/lvgl/src/draw/sw/lv_draw_sw_img.c ****     int32_t y;
 391              		.loc 1 1032 5 is_stmt 1 view .LVU122
1033:Drivers/lvgl/src/draw/sw/lv_draw_sw_img.c ****     for(y = 0; y < h; y++) {
 392              		.loc 1 1033 5 view .LVU123
 393              		.loc 1 1033 11 is_stmt 0 view .LVU124
 394 0140 D446     		mov	ip, r10
 395              		.loc 1 1033 5 view .LVU125
 396 0142 24E0     		b	.L16
 397              	.LVL27:
 398              	.L21:
 965:Drivers/lvgl/src/draw/sw/lv_draw_sw_img.c ****         LV_LOG_WARN("Could open the mask. The mask is not applied.");
 399              		.loc 1 965 9 is_stmt 1 view .LVU126
 965:Drivers/lvgl/src/draw/sw/lv_draw_sw_img.c ****         LV_LOG_WARN("Could open the mask. The mask is not applied.");
 400              		.loc 1 965 41 discriminator 1 view .LVU127
 401 0144 13A8     		add	r0, sp, #76
 402              	.LVL28:
 965:Drivers/lvgl/src/draw/sw/lv_draw_sw_img.c ****         LV_LOG_WARN("Could open the mask. The mask is not applied.");
 403              		.loc 1 965 41 is_stmt 0 discriminator 1 view .LVU128
 404 0146 FFF7FEFF 		bl	lv_image_decoder_close
 405              	.LVL29:
 406              	.L11:
 966:Drivers/lvgl/src/draw/sw/lv_draw_sw_img.c ****         return true;
 407              		.loc 1 966 9 is_stmt 1 view .LVU129
 966:Drivers/lvgl/src/draw/sw/lv_draw_sw_img.c ****         return true;
 408              		.loc 1 966 9 view .LVU130
 966:Drivers/lvgl/src/draw/sw/lv_draw_sw_img.c ****         return true;
 409              		.loc 1 966 9 view .LVU131
 967:Drivers/lvgl/src/draw/sw/lv_draw_sw_img.c ****     }
 410              		.loc 1 967 9 view .LVU132
 967:Drivers/lvgl/src/draw/sw/lv_draw_sw_img.c ****     }
 411              		.loc 1 967 16 is_stmt 0 view .LVU133
 412 014a 4FF00109 		mov	r9, #1
 413              	.LVL30:
 414              	.L13:
1034:Drivers/lvgl/src/draw/sw/lv_draw_sw_img.c ****         int32_t x;
1035:Drivers/lvgl/src/draw/sw/lv_draw_sw_img.c ****         for(x = 0; x < w; x++) {
1036:Drivers/lvgl/src/draw/sw/lv_draw_sw_img.c ****             img_start[x * 4 + 3] = LV_OPA_MIX2(mask_start[x], img_start[x * 4 + 3]);
1037:Drivers/lvgl/src/draw/sw/lv_draw_sw_img.c ****         }
1038:Drivers/lvgl/src/draw/sw/lv_draw_sw_img.c ****         img_start += layer_to_draw->draw_buf->header.stride;
1039:Drivers/lvgl/src/draw/sw/lv_draw_sw_img.c ****         mask_start += mask_stride;
1040:Drivers/lvgl/src/draw/sw/lv_draw_sw_img.c ****     }
1041:Drivers/lvgl/src/draw/sw/lv_draw_sw_img.c **** 
1042:Drivers/lvgl/src/draw/sw/lv_draw_sw_img.c ****     lv_image_decoder_close(&mask_decoder_dsc);
1043:Drivers/lvgl/src/draw/sw/lv_draw_sw_img.c **** 
1044:Drivers/lvgl/src/draw/sw/lv_draw_sw_img.c ****     return true;
1045:Drivers/lvgl/src/draw/sw/lv_draw_sw_img.c **** }
 415              		.loc 1 1045 1 view .LVU134
ARM GAS  /var/folders/qx/2_175_4n2s19vhvtspjhb3qh0000gn/T//cc1Hh9yO.s 			page 33


 416 014e 4846     		mov	r0, r9
 417 0150 27B0     		add	sp, sp, #156
 418              	.LCFI5:
 419              		.cfi_remember_state
 420              		.cfi_def_cfa_offset 36
 421              		@ sp needed
 422 0152 BDE8F08F 		pop	{r4, r5, r6, r7, r8, r9, r10, fp, pc}
 423              	.LVL31:
 424              	.L22:
 425              	.LCFI6:
 426              		.cfi_restore_state
 972:Drivers/lvgl/src/draw/sw/lv_draw_sw_img.c ****         LV_LOG_WARN("The mask image is not A8/L8 format. The mask is not applied.");
 427              		.loc 1 972 9 is_stmt 1 view .LVU135
 428 0156 13A8     		add	r0, sp, #76
 429              	.LVL32:
 972:Drivers/lvgl/src/draw/sw/lv_draw_sw_img.c ****         LV_LOG_WARN("The mask image is not A8/L8 format. The mask is not applied.");
 430              		.loc 1 972 9 is_stmt 0 view .LVU136
 431 0158 FFF7FEFF 		bl	lv_image_decoder_close
 432              	.LVL33:
 973:Drivers/lvgl/src/draw/sw/lv_draw_sw_img.c ****         return true;
 433              		.loc 1 973 9 is_stmt 1 view .LVU137
 973:Drivers/lvgl/src/draw/sw/lv_draw_sw_img.c ****         return true;
 434              		.loc 1 973 9 view .LVU138
 973:Drivers/lvgl/src/draw/sw/lv_draw_sw_img.c ****         return true;
 435              		.loc 1 973 9 view .LVU139
 974:Drivers/lvgl/src/draw/sw/lv_draw_sw_img.c **** 
 436              		.loc 1 974 9 view .LVU140
 974:Drivers/lvgl/src/draw/sw/lv_draw_sw_img.c **** 
 437              		.loc 1 974 16 is_stmt 0 view .LVU141
 438 015c 4FF00109 		mov	r9, #1
 439 0160 F5E7     		b	.L13
 440              	.LVL34:
 441              	.L23:
 994:Drivers/lvgl/src/draw/sw/lv_draw_sw_img.c ****         return false;
 442              		.loc 1 994 9 is_stmt 1 view .LVU142
 443 0162 13A8     		add	r0, sp, #76
 444 0164 FFF7FEFF 		bl	lv_image_decoder_close
 445              	.LVL35:
 995:Drivers/lvgl/src/draw/sw/lv_draw_sw_img.c ****     }
 446              		.loc 1 995 9 view .LVU143
 995:Drivers/lvgl/src/draw/sw/lv_draw_sw_img.c ****     }
 447              		.loc 1 995 16 is_stmt 0 view .LVU144
 448 0168 F1E7     		b	.L13
 449              	.LVL36:
 450              	.L17:
 451              	.LBB52:
1036:Drivers/lvgl/src/draw/sw/lv_draw_sw_img.c ****         }
 452              		.loc 1 1036 13 is_stmt 1 view .LVU145
1036:Drivers/lvgl/src/draw/sw/lv_draw_sw_img.c ****         }
 453              		.loc 1 1036 36 is_stmt 0 view .LVU146
 454 016a AB5C     		ldrb	r3, [r5, r2]	@ zero_extendqisi2
 455 016c 9100     		lsls	r1, r2, #2
 456 016e 0331     		adds	r1, r1, #3
 457 0170 14F801E0 		ldrb	lr, [r4, r1]	@ zero_extendqisi2
 458 0174 0EFB03F3 		mul	r3, lr, r3
 459 0178 1B0A     		lsrs	r3, r3, #8
1036:Drivers/lvgl/src/draw/sw/lv_draw_sw_img.c ****         }
ARM GAS  /var/folders/qx/2_175_4n2s19vhvtspjhb3qh0000gn/T//cc1Hh9yO.s 			page 34


 460              		.loc 1 1036 34 view .LVU147
 461 017a 6354     		strb	r3, [r4, r1]
1035:Drivers/lvgl/src/draw/sw/lv_draw_sw_img.c ****             img_start[x * 4 + 3] = LV_OPA_MIX2(mask_start[x], img_start[x * 4 + 3]);
 462              		.loc 1 1035 28 is_stmt 1 discriminator 3 view .LVU148
 463 017c 0132     		adds	r2, r2, #1
 464              	.LVL37:
 465              	.L18:
1035:Drivers/lvgl/src/draw/sw/lv_draw_sw_img.c ****             img_start[x * 4 + 3] = LV_OPA_MIX2(mask_start[x], img_start[x * 4 + 3]);
 466              		.loc 1 1035 22 discriminator 1 view .LVU149
 467 017e 8242     		cmp	r2, r0
 468 0180 F3DB     		blt	.L17
1038:Drivers/lvgl/src/draw/sw/lv_draw_sw_img.c ****         mask_start += mask_stride;
 469              		.loc 1 1038 9 view .LVU150
1038:Drivers/lvgl/src/draw/sw/lv_draw_sw_img.c ****         mask_start += mask_stride;
 470              		.loc 1 1038 35 is_stmt 0 view .LVU151
 471 0182 3368     		ldr	r3, [r6]
1038:Drivers/lvgl/src/draw/sw/lv_draw_sw_img.c ****         mask_start += mask_stride;
 472              		.loc 1 1038 53 view .LVU152
 473 0184 1B89     		ldrh	r3, [r3, #8]
1038:Drivers/lvgl/src/draw/sw/lv_draw_sw_img.c ****         mask_start += mask_stride;
 474              		.loc 1 1038 19 view .LVU153
 475 0186 1C44     		add	r4, r4, r3
 476              	.LVL38:
1039:Drivers/lvgl/src/draw/sw/lv_draw_sw_img.c ****     }
 477              		.loc 1 1039 9 is_stmt 1 view .LVU154
1039:Drivers/lvgl/src/draw/sw/lv_draw_sw_img.c ****     }
 478              		.loc 1 1039 20 is_stmt 0 view .LVU155
 479 0188 4544     		add	r5, r5, r8
 480              	.LVL39:
1039:Drivers/lvgl/src/draw/sw/lv_draw_sw_img.c ****     }
 481              		.loc 1 1039 20 view .LVU156
 482              	.LBE52:
1033:Drivers/lvgl/src/draw/sw/lv_draw_sw_img.c ****         int32_t x;
 483              		.loc 1 1033 24 is_stmt 1 discriminator 2 view .LVU157
 484 018a 0CF1010C 		add	ip, ip, #1
 485              	.LVL40:
 486              	.L16:
1033:Drivers/lvgl/src/draw/sw/lv_draw_sw_img.c ****         int32_t x;
 487              		.loc 1 1033 18 discriminator 1 view .LVU158
 488 018e BC45     		cmp	ip, r7
 489 0190 01DA     		bge	.L24
 490              	.LBB53:
1035:Drivers/lvgl/src/draw/sw/lv_draw_sw_img.c ****             img_start[x * 4 + 3] = LV_OPA_MIX2(mask_start[x], img_start[x * 4 + 3]);
 491              		.loc 1 1035 15 is_stmt 0 view .LVU159
 492 0192 0022     		movs	r2, #0
 493 0194 F3E7     		b	.L18
 494              	.L24:
 495              	.LBE53:
1042:Drivers/lvgl/src/draw/sw/lv_draw_sw_img.c **** 
 496              		.loc 1 1042 5 is_stmt 1 view .LVU160
 497 0196 13A8     		add	r0, sp, #76
 498              	.LVL41:
1042:Drivers/lvgl/src/draw/sw/lv_draw_sw_img.c **** 
 499              		.loc 1 1042 5 is_stmt 0 view .LVU161
 500 0198 FFF7FEFF 		bl	lv_image_decoder_close
 501              	.LVL42:
1044:Drivers/lvgl/src/draw/sw/lv_draw_sw_img.c **** }
ARM GAS  /var/folders/qx/2_175_4n2s19vhvtspjhb3qh0000gn/T//cc1Hh9yO.s 			page 35


 502              		.loc 1 1044 5 is_stmt 1 view .LVU162
1044:Drivers/lvgl/src/draw/sw/lv_draw_sw_img.c **** }
 503              		.loc 1 1044 12 is_stmt 0 view .LVU163
 504 019c D7E7     		b	.L13
 505              		.cfi_endproc
 506              	.LFE201:
 508              		.section	.text.recolor,"ax",%progbits
 509              		.align	1
 510              		.syntax unified
 511              		.thumb
 512              		.thumb_func
 514              	recolor:
 515              	.LVL43:
 516              	.LFB200:
 776:Drivers/lvgl/src/draw/sw/lv_draw_sw_img.c ****     int32_t w = lv_area_get_width(&relative_area);
 517              		.loc 1 776 1 is_stmt 1 view -0
 518              		.cfi_startproc
 519              		@ args = 20, pretend = 0, frame = 40
 520              		@ frame_needed = 0, uses_anonymous_args = 0
 776:Drivers/lvgl/src/draw/sw/lv_draw_sw_img.c ****     int32_t w = lv_area_get_width(&relative_area);
 521              		.loc 1 776 1 is_stmt 0 view .LVU165
 522 0000 2DE9F04F 		push	{r4, r5, r6, r7, r8, r9, r10, fp, lr}
 523              	.LCFI7:
 524              		.cfi_def_cfa_offset 36
 525              		.cfi_offset 4, -36
 526              		.cfi_offset 5, -32
 527              		.cfi_offset 6, -28
 528              		.cfi_offset 7, -24
 529              		.cfi_offset 8, -20
 530              		.cfi_offset 9, -16
 531              		.cfi_offset 10, -12
 532              		.cfi_offset 11, -8
 533              		.cfi_offset 14, -4
 534 0004 8BB0     		sub	sp, sp, #44
 535              	.LCFI8:
 536              		.cfi_def_cfa_offset 80
 537 0006 02AD     		add	r5, sp, #8
 538 0008 85E80F00 		stm	r5, {r0, r1, r2, r3}
 539 000c 159C     		ldr	r4, [sp, #84]
 540 000e 9DF85C80 		ldrb	r8, [sp, #92]	@ zero_extendqisi2
 541 0012 DDF86090 		ldr	r9, [sp, #96]
 777:Drivers/lvgl/src/draw/sw/lv_draw_sw_img.c ****     int32_t h = lv_area_get_height(&relative_area);
 542              		.loc 1 777 5 is_stmt 1 view .LVU166
 777:Drivers/lvgl/src/draw/sw/lv_draw_sw_img.c ****     int32_t h = lv_area_get_height(&relative_area);
 543              		.loc 1 777 17 is_stmt 0 view .LVU167
 544 0016 2846     		mov	r0, r5
 545 0018 FFF7FEFF 		bl	lv_area_get_width
 546              	.LVL44:
 547 001c 0646     		mov	r6, r0
 548              	.LVL45:
 778:Drivers/lvgl/src/draw/sw/lv_draw_sw_img.c **** 
 549              		.loc 1 778 5 is_stmt 1 view .LVU168
 778:Drivers/lvgl/src/draw/sw/lv_draw_sw_img.c **** 
 550              		.loc 1 778 17 is_stmt 0 view .LVU169
 551 001e 2846     		mov	r0, r5
 552              	.LVL46:
 778:Drivers/lvgl/src/draw/sw/lv_draw_sw_img.c **** 
ARM GAS  /var/folders/qx/2_175_4n2s19vhvtspjhb3qh0000gn/T//cc1Hh9yO.s 			page 36


 553              		.loc 1 778 17 view .LVU170
 554 0020 FFF7FEFF 		bl	lv_area_get_height
 555              	.LVL47:
 556 0024 0746     		mov	r7, r0
 557              	.LVL48:
 781:Drivers/lvgl/src/draw/sw/lv_draw_sw_img.c ****     lv_opa_t mix = draw_dsc->recolor_opa;
 558              		.loc 1 781 5 is_stmt 1 view .LVU171
 781:Drivers/lvgl/src/draw/sw/lv_draw_sw_img.c ****     lv_opa_t mix = draw_dsc->recolor_opa;
 559              		.loc 1 781 16 is_stmt 0 view .LVU172
 560 0026 D9F84C30 		ldr	r3, [r9, #76]
 561 002a ADF82430 		strh	r3, [sp, #36]	@ movhi
 562 002e 1B0C     		lsrs	r3, r3, #16
 563 0030 8DF82630 		strb	r3, [sp, #38]
 782:Drivers/lvgl/src/draw/sw/lv_draw_sw_img.c ****     lv_opa_t mix_inv = 255 - mix;
 564              		.loc 1 782 5 is_stmt 1 view .LVU173
 782:Drivers/lvgl/src/draw/sw/lv_draw_sw_img.c ****     lv_opa_t mix_inv = 255 - mix;
 565              		.loc 1 782 14 is_stmt 0 view .LVU174
 566 0034 99F84F90 		ldrb	r9, [r9, #79]	@ zero_extendqisi2
 567              	.LVL49:
 783:Drivers/lvgl/src/draw/sw/lv_draw_sw_img.c **** 
 568              		.loc 1 783 5 is_stmt 1 view .LVU175
 783:Drivers/lvgl/src/draw/sw/lv_draw_sw_img.c **** 
 569              		.loc 1 783 14 is_stmt 0 view .LVU176
 570 0038 6FEA0905 		mvn	r5, r9
 571 003c EDB2     		uxtb	r5, r5
 572              	.LVL50:
 785:Drivers/lvgl/src/draw/sw/lv_draw_sw_img.c ****         if(LV_RESULT_INVALID == LV_DRAW_SW_RGB565_RECOLOR(dest_buf, relative_area, color, mix)) {
 573              		.loc 1 785 5 is_stmt 1 view .LVU177
 574 003e A8F10F03 		sub	r3, r8, #15
 575 0042 0C2B     		cmp	r3, #12
 576 0044 00F2AE81 		bhi	.L25
 577 0048 DFE813F0 		tbh	[pc, r3, lsl #1]
 578              	.L28:
 579 004c D200     		.2byte	(.L31-.L28)/2
 580 004e D200     		.2byte	(.L31-.L28)/2
 581 0050 D200     		.2byte	(.L31-.L28)/2
 582 0052 0D00     		.2byte	(.L30-.L28)/2
 583 0054 AC01     		.2byte	(.L25-.L28)/2
 584 0056 0D00     		.2byte	(.L30-.L28)/2
 585 0058 AC01     		.2byte	(.L25-.L28)/2
 586 005a AC01     		.2byte	(.L25-.L28)/2
 587 005c AC01     		.2byte	(.L25-.L28)/2
 588 005e AC01     		.2byte	(.L25-.L28)/2
 589 0060 AC01     		.2byte	(.L25-.L28)/2
 590 0062 3C01     		.2byte	(.L29-.L28)/2
 591 0064 6F00     		.2byte	(.L27-.L28)/2
 592              		.p2align 1
 593              	.L30:
 786:Drivers/lvgl/src/draw/sw/lv_draw_sw_img.c ****             const uint8_t * src_buf_tmp = src_buf + src_stride * relative_area.y1 + relative_area.x
 594              		.loc 1 786 9 view .LVU178
 595              	.LBB54:
 787:Drivers/lvgl/src/draw/sw/lv_draw_sw_img.c ****             int32_t img_stride_px = src_stride / 2;
 596              		.loc 1 787 13 view .LVU179
 787:Drivers/lvgl/src/draw/sw/lv_draw_sw_img.c ****             int32_t img_stride_px = src_stride / 2;
 597              		.loc 1 787 98 is_stmt 0 view .LVU180
 598 0066 029B     		ldr	r3, [sp, #8]
 787:Drivers/lvgl/src/draw/sw/lv_draw_sw_img.c ****             int32_t img_stride_px = src_stride / 2;
ARM GAS  /var/folders/qx/2_175_4n2s19vhvtspjhb3qh0000gn/T//cc1Hh9yO.s 			page 37


 599              		.loc 1 787 102 view .LVU181
 600 0068 5B00     		lsls	r3, r3, #1
 787:Drivers/lvgl/src/draw/sw/lv_draw_sw_img.c ****             int32_t img_stride_px = src_stride / 2;
 601              		.loc 1 787 83 view .LVU182
 602 006a 039A     		ldr	r2, [sp, #12]
 603 006c 1699     		ldr	r1, [sp, #88]
 604 006e 01FB0233 		mla	r3, r1, r2, r3
 787:Drivers/lvgl/src/draw/sw/lv_draw_sw_img.c ****             int32_t img_stride_px = src_stride / 2;
 605              		.loc 1 787 29 view .LVU183
 606 0072 149A     		ldr	r2, [sp, #80]
 607 0074 02EB0308 		add	r8, r2, r3
 608              	.LVL51:
 788:Drivers/lvgl/src/draw/sw/lv_draw_sw_img.c **** 
 609              		.loc 1 788 13 is_stmt 1 view .LVU184
 788:Drivers/lvgl/src/draw/sw/lv_draw_sw_img.c **** 
 610              		.loc 1 788 21 is_stmt 0 view .LVU185
 611 0078 01EBD17A 		add	r10, r1, r1, lsr #31
 612 007c 4FEA6A0A 		asr	r10, r10, #1
 613              	.LVL52:
 790:Drivers/lvgl/src/draw/sw/lv_draw_sw_img.c ****             uint16_t * buf16_dest = (uint16_t *)dest_buf;
 614              		.loc 1 790 13 is_stmt 1 view .LVU186
 791:Drivers/lvgl/src/draw/sw/lv_draw_sw_img.c ****             uint16_t color16 = lv_color_to_u16(color);
 615              		.loc 1 791 13 view .LVU187
 792:Drivers/lvgl/src/draw/sw/lv_draw_sw_img.c ****             if(mix >= LV_OPA_MAX) {
 616              		.loc 1 792 13 view .LVU188
 792:Drivers/lvgl/src/draw/sw/lv_draw_sw_img.c ****             if(mix >= LV_OPA_MAX) {
 617              		.loc 1 792 32 is_stmt 0 view .LVU189
 618 0080 0998     		ldr	r0, [sp, #36]
 619              	.LVL53:
 792:Drivers/lvgl/src/draw/sw/lv_draw_sw_img.c ****             if(mix >= LV_OPA_MAX) {
 620              		.loc 1 792 32 view .LVU190
 621 0082 FFF7FEFF 		bl	lv_color_to_u16
 622              	.LVL54:
 793:Drivers/lvgl/src/draw/sw/lv_draw_sw_img.c ****                 int32_t y;
 623              		.loc 1 793 13 is_stmt 1 view .LVU191
 793:Drivers/lvgl/src/draw/sw/lv_draw_sw_img.c ****                 int32_t y;
 624              		.loc 1 793 15 is_stmt 0 view .LVU192
 625 0086 B9F1FC0F 		cmp	r9, #252
 626 008a 24D8     		bhi	.L60
 627              	.LBB55:
 805:Drivers/lvgl/src/draw/sw/lv_draw_sw_img.c ****                 c_mult[0] = (color.blue >> 3) * mix;
 628              		.loc 1 805 17 is_stmt 1 view .LVU193
 806:Drivers/lvgl/src/draw/sw/lv_draw_sw_img.c ****                 c_mult[1] = (color.green >> 2) * mix;
 629              		.loc 1 806 17 view .LVU194
 806:Drivers/lvgl/src/draw/sw/lv_draw_sw_img.c ****                 c_mult[1] = (color.green >> 2) * mix;
 630              		.loc 1 806 35 is_stmt 0 view .LVU195
 631 008c 9DF824E0 		ldrb	lr, [sp, #36]	@ zero_extendqisi2
 806:Drivers/lvgl/src/draw/sw/lv_draw_sw_img.c ****                 c_mult[1] = (color.green >> 2) * mix;
 632              		.loc 1 806 47 view .LVU196
 633 0090 4FEADE0E 		lsr	lr, lr, #3
 634 0094 0EFB09FE 		mul	lr, lr, r9
 806:Drivers/lvgl/src/draw/sw/lv_draw_sw_img.c ****                 c_mult[1] = (color.green >> 2) * mix;
 635              		.loc 1 806 27 view .LVU197
 636 0098 ADF81CE0 		strh	lr, [sp, #28]	@ movhi
 807:Drivers/lvgl/src/draw/sw/lv_draw_sw_img.c ****                 c_mult[2] = (color.red >> 3) * mix;
 637              		.loc 1 807 17 is_stmt 1 view .LVU198
 807:Drivers/lvgl/src/draw/sw/lv_draw_sw_img.c ****                 c_mult[2] = (color.red >> 3) * mix;
ARM GAS  /var/folders/qx/2_175_4n2s19vhvtspjhb3qh0000gn/T//cc1Hh9yO.s 			page 38


 638              		.loc 1 807 35 is_stmt 0 view .LVU199
 639 009c 9DF825C0 		ldrb	ip, [sp, #37]	@ zero_extendqisi2
 807:Drivers/lvgl/src/draw/sw/lv_draw_sw_img.c ****                 c_mult[2] = (color.red >> 3) * mix;
 640              		.loc 1 807 48 view .LVU200
 641 00a0 4FEA9C0C 		lsr	ip, ip, #2
 642 00a4 0CFB09FC 		mul	ip, ip, r9
 807:Drivers/lvgl/src/draw/sw/lv_draw_sw_img.c ****                 c_mult[2] = (color.red >> 3) * mix;
 643              		.loc 1 807 27 view .LVU201
 644 00a8 ADF81EC0 		strh	ip, [sp, #30]	@ movhi
 808:Drivers/lvgl/src/draw/sw/lv_draw_sw_img.c **** 
 645              		.loc 1 808 17 is_stmt 1 view .LVU202
 808:Drivers/lvgl/src/draw/sw/lv_draw_sw_img.c **** 
 646              		.loc 1 808 35 is_stmt 0 view .LVU203
 647 00ac 9DF82600 		ldrb	r0, [sp, #38]	@ zero_extendqisi2
 648              	.LVL55:
 808:Drivers/lvgl/src/draw/sw/lv_draw_sw_img.c **** 
 649              		.loc 1 808 46 view .LVU204
 650 00b0 C008     		lsrs	r0, r0, #3
 651 00b2 00FB09F0 		mul	r0, r0, r9
 808:Drivers/lvgl/src/draw/sw/lv_draw_sw_img.c **** 
 652              		.loc 1 808 27 view .LVU205
 653 00b6 ADF82000 		strh	r0, [sp, #32]	@ movhi
 810:Drivers/lvgl/src/draw/sw/lv_draw_sw_img.c ****                 for(y = 0; y < h; y++) {
 654              		.loc 1 810 17 is_stmt 1 view .LVU206
 811:Drivers/lvgl/src/draw/sw/lv_draw_sw_img.c ****                     int32_t x;
 655              		.loc 1 811 17 view .LVU207
 656              	.LVL56:
 811:Drivers/lvgl/src/draw/sw/lv_draw_sw_img.c ****                     int32_t x;
 657              		.loc 1 811 23 is_stmt 0 view .LVU208
 658 00ba 4FF00009 		mov	r9, #0
 659              	.LVL57:
 811:Drivers/lvgl/src/draw/sw/lv_draw_sw_img.c ****                     int32_t x;
 660              		.loc 1 811 17 view .LVU209
 661 00be 2FE0     		b	.L36
 662              	.LVL58:
 663              	.L34:
 811:Drivers/lvgl/src/draw/sw/lv_draw_sw_img.c ****                     int32_t x;
 664              		.loc 1 811 17 view .LVU210
 665              	.LBE55:
 666              	.LBB58:
 667              	.LBB59:
 798:Drivers/lvgl/src/draw/sw/lv_draw_sw_img.c ****                         buf16_dest++;
 668              		.loc 1 798 25 is_stmt 1 view .LVU211
 798:Drivers/lvgl/src/draw/sw/lv_draw_sw_img.c ****                         buf16_dest++;
 669              		.loc 1 798 37 is_stmt 0 view .LVU212
 670 00c0 24F8020B 		strh	r0, [r4], #2	@ movhi
 671              	.LVL59:
 799:Drivers/lvgl/src/draw/sw/lv_draw_sw_img.c ****                     }
 672              		.loc 1 799 25 is_stmt 1 view .LVU213
 797:Drivers/lvgl/src/draw/sw/lv_draw_sw_img.c ****                         *buf16_dest = color16;
 673              		.loc 1 797 40 discriminator 3 view .LVU214
 674 00c4 0133     		adds	r3, r3, #1
 675              	.LVL60:
 676              	.L35:
 797:Drivers/lvgl/src/draw/sw/lv_draw_sw_img.c ****                         *buf16_dest = color16;
 677              		.loc 1 797 34 discriminator 1 view .LVU215
 678 00c6 B342     		cmp	r3, r6
ARM GAS  /var/folders/qx/2_175_4n2s19vhvtspjhb3qh0000gn/T//cc1Hh9yO.s 			page 39


 679 00c8 FADB     		blt	.L34
 801:Drivers/lvgl/src/draw/sw/lv_draw_sw_img.c ****                 }
 680              		.loc 1 801 21 view .LVU216
 681              	.LBE59:
 795:Drivers/lvgl/src/draw/sw/lv_draw_sw_img.c ****                     int32_t x;
 682              		.loc 1 795 36 discriminator 2 view .LVU217
 683 00ca 0132     		adds	r2, r2, #1
 684              	.LVL61:
 685              	.L32:
 795:Drivers/lvgl/src/draw/sw/lv_draw_sw_img.c ****                     int32_t x;
 686              		.loc 1 795 30 discriminator 1 view .LVU218
 687 00cc BA42     		cmp	r2, r7
 688 00ce 80F26981 		bge	.L25
 689              	.LBB60:
 797:Drivers/lvgl/src/draw/sw/lv_draw_sw_img.c ****                         *buf16_dest = color16;
 690              		.loc 1 797 27 is_stmt 0 view .LVU219
 691 00d2 0023     		movs	r3, #0
 692 00d4 F7E7     		b	.L35
 693              	.LVL62:
 694              	.L60:
 797:Drivers/lvgl/src/draw/sw/lv_draw_sw_img.c ****                         *buf16_dest = color16;
 695              		.loc 1 797 27 view .LVU220
 696              	.LBE60:
 795:Drivers/lvgl/src/draw/sw/lv_draw_sw_img.c ****                     int32_t x;
 697              		.loc 1 795 23 view .LVU221
 698 00d6 0022     		movs	r2, #0
 699 00d8 F8E7     		b	.L32
 700              	.LVL63:
 701              	.L37:
 795:Drivers/lvgl/src/draw/sw/lv_draw_sw_img.c ****                     int32_t x;
 702              		.loc 1 795 23 view .LVU222
 703              	.LBE58:
 704              	.LBB61:
 705              	.LBB56:
 814:Drivers/lvgl/src/draw/sw/lv_draw_sw_img.c ****                                       (((c_mult[1] + ((buf16_src[x] >> 5) & 0x3F) * mix_inv) >> 3) 
 706              		.loc 1 814 25 is_stmt 1 view .LVU223
 814:Drivers/lvgl/src/draw/sw/lv_draw_sw_img.c ****                                       (((c_mult[1] + ((buf16_src[x] >> 5) & 0x3F) * mix_inv) >> 3) 
 707              		.loc 1 814 65 is_stmt 0 view .LVU224
 708 00da 38F81120 		ldrh	r2, [r8, r1, lsl #1]
 814:Drivers/lvgl/src/draw/sw/lv_draw_sw_img.c ****                                       (((c_mult[1] + ((buf16_src[x] >> 5) & 0x3F) * mix_inv) >> 3) 
 709              		.loc 1 814 76 view .LVU225
 710 00de D30A     		lsrs	r3, r2, #11
 814:Drivers/lvgl/src/draw/sw/lv_draw_sw_img.c ****                                       (((c_mult[1] + ((buf16_src[x] >> 5) & 0x3F) * mix_inv) >> 3) 
 711              		.loc 1 814 52 view .LVU226
 712 00e0 05FB0303 		mla	r3, r5, r3, r0
 814:Drivers/lvgl/src/draw/sw/lv_draw_sw_img.c ****                                       (((c_mult[1] + ((buf16_src[x] >> 5) & 0x3F) * mix_inv) >> 3) 
 713              		.loc 1 814 101 view .LVU227
 714 00e4 DB00     		lsls	r3, r3, #3
 715 00e6 03F4FC33 		and	r3, r3, #129024
 716 00ea 1BB2     		sxth	r3, r3
 815:Drivers/lvgl/src/draw/sw/lv_draw_sw_img.c ****                                       ((c_mult[0] + (buf16_src[x] & 0x1F) * mix_inv) >> 8);
 717              		.loc 1 815 75 view .LVU228
 718 00ec C2F3451B 		ubfx	fp, r2, #5, #6
 815:Drivers/lvgl/src/draw/sw/lv_draw_sw_img.c ****                                       ((c_mult[0] + (buf16_src[x] & 0x1F) * mix_inv) >> 8);
 719              		.loc 1 815 52 view .LVU229
 720 00f0 0BFB05CB 		mla	fp, fp, r5, ip
 815:Drivers/lvgl/src/draw/sw/lv_draw_sw_img.c ****                                       ((c_mult[0] + (buf16_src[x] & 0x1F) * mix_inv) >> 8);
ARM GAS  /var/folders/qx/2_175_4n2s19vhvtspjhb3qh0000gn/T//cc1Hh9yO.s 			page 40


 721              		.loc 1 815 94 view .LVU230
 722 00f4 4FEAEB0B 		asr	fp, fp, #3
 815:Drivers/lvgl/src/draw/sw/lv_draw_sw_img.c ****                                       ((c_mult[0] + (buf16_src[x] & 0x1F) * mix_inv) >> 8);
 723              		.loc 1 815 100 view .LVU231
 724 00f8 0BF4FC6B 		and	fp, fp, #2016
 814:Drivers/lvgl/src/draw/sw/lv_draw_sw_img.c ****                                       (((c_mult[1] + ((buf16_src[x] >> 5) & 0x3F) * mix_inv) >> 3) 
 725              		.loc 1 814 111 view .LVU232
 726 00fc 43EA0B03 		orr	r3, r3, fp
 727 0100 9BB2     		uxth	r3, r3
 816:Drivers/lvgl/src/draw/sw/lv_draw_sw_img.c ****                         buf16_dest++;
 728              		.loc 1 816 67 view .LVU233
 729 0102 02F01F02 		and	r2, r2, #31
 816:Drivers/lvgl/src/draw/sw/lv_draw_sw_img.c ****                         buf16_dest++;
 730              		.loc 1 816 51 view .LVU234
 731 0106 02FB05E2 		mla	r2, r2, r5, lr
 815:Drivers/lvgl/src/draw/sw/lv_draw_sw_img.c ****                                       ((c_mult[0] + (buf16_src[x] & 0x1F) * mix_inv) >> 8);
 732              		.loc 1 815 110 view .LVU235
 733 010a 03EB2223 		add	r3, r3, r2, asr #8
 814:Drivers/lvgl/src/draw/sw/lv_draw_sw_img.c ****                                       (((c_mult[1] + ((buf16_src[x] >> 5) & 0x3F) * mix_inv) >> 3) 
 734              		.loc 1 814 37 view .LVU236
 735 010e 24F8023B 		strh	r3, [r4], #2	@ movhi
 736              	.LVL64:
 817:Drivers/lvgl/src/draw/sw/lv_draw_sw_img.c ****                     }
 737              		.loc 1 817 25 is_stmt 1 view .LVU237
 813:Drivers/lvgl/src/draw/sw/lv_draw_sw_img.c ****                         *buf16_dest = (((c_mult[2] + ((buf16_src[x] >> 11) & 0x1F) * mix_inv) << 3)
 738              		.loc 1 813 40 discriminator 3 view .LVU238
 739 0112 0131     		adds	r1, r1, #1
 740              	.LVL65:
 741              	.L38:
 813:Drivers/lvgl/src/draw/sw/lv_draw_sw_img.c ****                         *buf16_dest = (((c_mult[2] + ((buf16_src[x] >> 11) & 0x1F) * mix_inv) << 3)
 742              		.loc 1 813 34 discriminator 1 view .LVU239
 743 0114 B142     		cmp	r1, r6
 744 0116 E0DB     		blt	.L37
 819:Drivers/lvgl/src/draw/sw/lv_draw_sw_img.c ****                 }
 745              		.loc 1 819 21 view .LVU240
 819:Drivers/lvgl/src/draw/sw/lv_draw_sw_img.c ****                 }
 746              		.loc 1 819 31 is_stmt 0 view .LVU241
 747 0118 08EB4A08 		add	r8, r8, r10, lsl #1
 748              	.LVL66:
 819:Drivers/lvgl/src/draw/sw/lv_draw_sw_img.c ****                 }
 749              		.loc 1 819 31 view .LVU242
 750              	.LBE56:
 811:Drivers/lvgl/src/draw/sw/lv_draw_sw_img.c ****                     int32_t x;
 751              		.loc 1 811 36 is_stmt 1 discriminator 2 view .LVU243
 752 011c 09F10109 		add	r9, r9, #1
 753              	.LVL67:
 754              	.L36:
 811:Drivers/lvgl/src/draw/sw/lv_draw_sw_img.c ****                     int32_t x;
 755              		.loc 1 811 30 discriminator 1 view .LVU244
 756 0120 B945     		cmp	r9, r7
 757 0122 80F23F81 		bge	.L25
 758              	.LBB57:
 813:Drivers/lvgl/src/draw/sw/lv_draw_sw_img.c ****                         *buf16_dest = (((c_mult[2] + ((buf16_src[x] >> 11) & 0x1F) * mix_inv) << 3)
 759              		.loc 1 813 27 is_stmt 0 view .LVU245
 760 0126 0021     		movs	r1, #0
 761 0128 F4E7     		b	.L38
 762              	.LVL68:
ARM GAS  /var/folders/qx/2_175_4n2s19vhvtspjhb3qh0000gn/T//cc1Hh9yO.s 			page 41


 763              	.L27:
 813:Drivers/lvgl/src/draw/sw/lv_draw_sw_img.c ****                         *buf16_dest = (((c_mult[2] + ((buf16_src[x] >> 11) & 0x1F) * mix_inv) << 3)
 764              		.loc 1 813 27 view .LVU246
 765              	.LBE57:
 766              	.LBE61:
 767              	.LBE54:
 825:Drivers/lvgl/src/draw/sw/lv_draw_sw_img.c ****             const uint8_t * src_buf_tmp = src_buf + src_stride * relative_area.y1 + relative_area.x
 768              		.loc 1 825 9 is_stmt 1 view .LVU247
 769              	.LBB62:
 826:Drivers/lvgl/src/draw/sw/lv_draw_sw_img.c ****             int32_t img_stride_px = src_stride / 2;
 770              		.loc 1 826 13 view .LVU248
 826:Drivers/lvgl/src/draw/sw/lv_draw_sw_img.c ****             int32_t img_stride_px = src_stride / 2;
 771              		.loc 1 826 98 is_stmt 0 view .LVU249
 772 012a 029B     		ldr	r3, [sp, #8]
 826:Drivers/lvgl/src/draw/sw/lv_draw_sw_img.c ****             int32_t img_stride_px = src_stride / 2;
 773              		.loc 1 826 102 view .LVU250
 774 012c 5B00     		lsls	r3, r3, #1
 826:Drivers/lvgl/src/draw/sw/lv_draw_sw_img.c ****             int32_t img_stride_px = src_stride / 2;
 775              		.loc 1 826 83 view .LVU251
 776 012e 039A     		ldr	r2, [sp, #12]
 777 0130 1699     		ldr	r1, [sp, #88]
 778 0132 01FB0233 		mla	r3, r1, r2, r3
 826:Drivers/lvgl/src/draw/sw/lv_draw_sw_img.c ****             int32_t img_stride_px = src_stride / 2;
 779              		.loc 1 826 29 view .LVU252
 780 0136 149A     		ldr	r2, [sp, #80]
 781 0138 02EB0308 		add	r8, r2, r3
 782              	.LVL69:
 827:Drivers/lvgl/src/draw/sw/lv_draw_sw_img.c **** 
 783              		.loc 1 827 13 is_stmt 1 view .LVU253
 827:Drivers/lvgl/src/draw/sw/lv_draw_sw_img.c **** 
 784              		.loc 1 827 21 is_stmt 0 view .LVU254
 785 013c 01EBD17A 		add	r10, r1, r1, lsr #31
 786 0140 4FEA6A0A 		asr	r10, r10, #1
 787              	.LVL70:
 829:Drivers/lvgl/src/draw/sw/lv_draw_sw_img.c ****             uint16_t * buf16_dest = (uint16_t *)dest_buf;
 788              		.loc 1 829 13 is_stmt 1 view .LVU255
 830:Drivers/lvgl/src/draw/sw/lv_draw_sw_img.c ****             uint16_t color16 = lv_color_to_u16(color);
 789              		.loc 1 830 13 view .LVU256
 831:Drivers/lvgl/src/draw/sw/lv_draw_sw_img.c ****             if(mix >= LV_OPA_MAX) {
 790              		.loc 1 831 13 view .LVU257
 831:Drivers/lvgl/src/draw/sw/lv_draw_sw_img.c ****             if(mix >= LV_OPA_MAX) {
 791              		.loc 1 831 32 is_stmt 0 view .LVU258
 792 0144 0998     		ldr	r0, [sp, #36]
 793              	.LVL71:
 831:Drivers/lvgl/src/draw/sw/lv_draw_sw_img.c ****             if(mix >= LV_OPA_MAX) {
 794              		.loc 1 831 32 view .LVU259
 795 0146 FFF7FEFF 		bl	lv_color_to_u16
 796              	.LVL72:
 832:Drivers/lvgl/src/draw/sw/lv_draw_sw_img.c ****                 int32_t y;
 797              		.loc 1 832 13 is_stmt 1 view .LVU260
 832:Drivers/lvgl/src/draw/sw/lv_draw_sw_img.c ****                 int32_t y;
 798              		.loc 1 832 15 is_stmt 0 view .LVU261
 799 014a B9F1FC0F 		cmp	r9, #252
 800 014e 24D8     		bhi	.L63
 801              	.LBB63:
 844:Drivers/lvgl/src/draw/sw/lv_draw_sw_img.c ****                 c_mult[0] = (color.blue >> 3) * mix;
 802              		.loc 1 844 17 is_stmt 1 view .LVU262
ARM GAS  /var/folders/qx/2_175_4n2s19vhvtspjhb3qh0000gn/T//cc1Hh9yO.s 			page 42


 845:Drivers/lvgl/src/draw/sw/lv_draw_sw_img.c ****                 c_mult[1] = (color.green >> 2) * mix;
 803              		.loc 1 845 17 view .LVU263
 845:Drivers/lvgl/src/draw/sw/lv_draw_sw_img.c ****                 c_mult[1] = (color.green >> 2) * mix;
 804              		.loc 1 845 35 is_stmt 0 view .LVU264
 805 0150 9DF824E0 		ldrb	lr, [sp, #36]	@ zero_extendqisi2
 845:Drivers/lvgl/src/draw/sw/lv_draw_sw_img.c ****                 c_mult[1] = (color.green >> 2) * mix;
 806              		.loc 1 845 47 view .LVU265
 807 0154 4FEADE0E 		lsr	lr, lr, #3
 808 0158 0EFB09FE 		mul	lr, lr, r9
 845:Drivers/lvgl/src/draw/sw/lv_draw_sw_img.c ****                 c_mult[1] = (color.green >> 2) * mix;
 809              		.loc 1 845 27 view .LVU266
 810 015c ADF81CE0 		strh	lr, [sp, #28]	@ movhi
 846:Drivers/lvgl/src/draw/sw/lv_draw_sw_img.c ****                 c_mult[2] = (color.red >> 3) * mix;
 811              		.loc 1 846 17 is_stmt 1 view .LVU267
 846:Drivers/lvgl/src/draw/sw/lv_draw_sw_img.c ****                 c_mult[2] = (color.red >> 3) * mix;
 812              		.loc 1 846 35 is_stmt 0 view .LVU268
 813 0160 9DF825C0 		ldrb	ip, [sp, #37]	@ zero_extendqisi2
 846:Drivers/lvgl/src/draw/sw/lv_draw_sw_img.c ****                 c_mult[2] = (color.red >> 3) * mix;
 814              		.loc 1 846 48 view .LVU269
 815 0164 4FEA9C0C 		lsr	ip, ip, #2
 816 0168 0CFB09FC 		mul	ip, ip, r9
 846:Drivers/lvgl/src/draw/sw/lv_draw_sw_img.c ****                 c_mult[2] = (color.red >> 3) * mix;
 817              		.loc 1 846 27 view .LVU270
 818 016c ADF81EC0 		strh	ip, [sp, #30]	@ movhi
 847:Drivers/lvgl/src/draw/sw/lv_draw_sw_img.c **** 
 819              		.loc 1 847 17 is_stmt 1 view .LVU271
 847:Drivers/lvgl/src/draw/sw/lv_draw_sw_img.c **** 
 820              		.loc 1 847 35 is_stmt 0 view .LVU272
 821 0170 9DF82600 		ldrb	r0, [sp, #38]	@ zero_extendqisi2
 822              	.LVL73:
 847:Drivers/lvgl/src/draw/sw/lv_draw_sw_img.c **** 
 823              		.loc 1 847 46 view .LVU273
 824 0174 C008     		lsrs	r0, r0, #3
 825 0176 00FB09F0 		mul	r0, r0, r9
 847:Drivers/lvgl/src/draw/sw/lv_draw_sw_img.c **** 
 826              		.loc 1 847 27 view .LVU274
 827 017a ADF82000 		strh	r0, [sp, #32]	@ movhi
 849:Drivers/lvgl/src/draw/sw/lv_draw_sw_img.c ****                 for(y = 0; y < h; y++) {
 828              		.loc 1 849 17 is_stmt 1 view .LVU275
 850:Drivers/lvgl/src/draw/sw/lv_draw_sw_img.c ****                     int32_t x;
 829              		.loc 1 850 17 view .LVU276
 830              	.LVL74:
 850:Drivers/lvgl/src/draw/sw/lv_draw_sw_img.c ****                     int32_t x;
 831              		.loc 1 850 23 is_stmt 0 view .LVU277
 832 017e 4FF00009 		mov	r9, #0
 833              	.LVL75:
 850:Drivers/lvgl/src/draw/sw/lv_draw_sw_img.c ****                     int32_t x;
 834              		.loc 1 850 17 view .LVU278
 835 0182 30E0     		b	.L43
 836              	.LVL76:
 837              	.L41:
 850:Drivers/lvgl/src/draw/sw/lv_draw_sw_img.c ****                     int32_t x;
 838              		.loc 1 850 17 view .LVU279
 839              	.LBE63:
 840              	.LBB70:
 841              	.LBB71:
 837:Drivers/lvgl/src/draw/sw/lv_draw_sw_img.c ****                         buf16_dest++;
ARM GAS  /var/folders/qx/2_175_4n2s19vhvtspjhb3qh0000gn/T//cc1Hh9yO.s 			page 43


 842              		.loc 1 837 25 is_stmt 1 view .LVU280
 837:Drivers/lvgl/src/draw/sw/lv_draw_sw_img.c ****                         buf16_dest++;
 843              		.loc 1 837 37 is_stmt 0 view .LVU281
 844 0184 24F8020B 		strh	r0, [r4], #2	@ movhi
 845              	.LVL77:
 838:Drivers/lvgl/src/draw/sw/lv_draw_sw_img.c ****                     }
 846              		.loc 1 838 25 is_stmt 1 view .LVU282
 836:Drivers/lvgl/src/draw/sw/lv_draw_sw_img.c ****                         *buf16_dest = color16;
 847              		.loc 1 836 40 discriminator 3 view .LVU283
 848 0188 0133     		adds	r3, r3, #1
 849              	.LVL78:
 850              	.L42:
 836:Drivers/lvgl/src/draw/sw/lv_draw_sw_img.c ****                         *buf16_dest = color16;
 851              		.loc 1 836 34 discriminator 1 view .LVU284
 852 018a B342     		cmp	r3, r6
 853 018c FADB     		blt	.L41
 840:Drivers/lvgl/src/draw/sw/lv_draw_sw_img.c ****                 }
 854              		.loc 1 840 21 view .LVU285
 855              	.LBE71:
 834:Drivers/lvgl/src/draw/sw/lv_draw_sw_img.c ****                     int32_t x;
 856              		.loc 1 834 36 discriminator 2 view .LVU286
 857 018e 0132     		adds	r2, r2, #1
 858              	.LVL79:
 859              	.L39:
 834:Drivers/lvgl/src/draw/sw/lv_draw_sw_img.c ****                     int32_t x;
 860              		.loc 1 834 30 discriminator 1 view .LVU287
 861 0190 BA42     		cmp	r2, r7
 862 0192 80F20781 		bge	.L25
 863              	.LBB72:
 836:Drivers/lvgl/src/draw/sw/lv_draw_sw_img.c ****                         *buf16_dest = color16;
 864              		.loc 1 836 27 is_stmt 0 view .LVU288
 865 0196 0023     		movs	r3, #0
 866 0198 F7E7     		b	.L42
 867              	.LVL80:
 868              	.L63:
 836:Drivers/lvgl/src/draw/sw/lv_draw_sw_img.c ****                         *buf16_dest = color16;
 869              		.loc 1 836 27 view .LVU289
 870              	.LBE72:
 834:Drivers/lvgl/src/draw/sw/lv_draw_sw_img.c ****                     int32_t x;
 871              		.loc 1 834 23 view .LVU290
 872 019a 0022     		movs	r2, #0
 873 019c F8E7     		b	.L39
 874              	.LVL81:
 875              	.L44:
 834:Drivers/lvgl/src/draw/sw/lv_draw_sw_img.c ****                     int32_t x;
 876              		.loc 1 834 23 view .LVU291
 877              	.LBE70:
 878              	.LBB73:
 879              	.LBB64:
 853:Drivers/lvgl/src/draw/sw/lv_draw_sw_img.c ****                                                        +
 880              		.loc 1 853 25 is_stmt 1 view .LVU292
 853:Drivers/lvgl/src/draw/sw/lv_draw_sw_img.c ****                                                        +
 881              		.loc 1 853 73 is_stmt 0 view .LVU293
 882 019e 38F81120 		ldrh	r2, [r8, r1, lsl #1]
 883              	.LVL82:
 884              	.LBB65:
 885              	.LBI65:
ARM GAS  /var/folders/qx/2_175_4n2s19vhvtspjhb3qh0000gn/T//cc1Hh9yO.s 			page 44


 347:Drivers/lvgl/src/draw/sw/blend/../../../misc/lv_color.h **** 
 348:Drivers/lvgl/src/draw/sw/blend/../../../misc/lv_color.h **** /**
 349:Drivers/lvgl/src/draw/sw/blend/../../../misc/lv_color.h ****  * Convert a RGB565 color to RGB888
 350:Drivers/lvgl/src/draw/sw/blend/../../../misc/lv_color.h ****  * @param c       a RGB565 color on lv_color16_t
 351:Drivers/lvgl/src/draw/sw/blend/../../../misc/lv_color.h ****  * @return        the color
 352:Drivers/lvgl/src/draw/sw/blend/../../../misc/lv_color.h ****  */
 353:Drivers/lvgl/src/draw/sw/blend/../../../misc/lv_color.h **** static inline lv_color_t lv_color16_to_color(lv_color16_t c)
 354:Drivers/lvgl/src/draw/sw/blend/../../../misc/lv_color.h **** {
 355:Drivers/lvgl/src/draw/sw/blend/../../../misc/lv_color.h ****     return lv_color_make(c.red << 3, c.green << 2, c.blue << 3);
 356:Drivers/lvgl/src/draw/sw/blend/../../../misc/lv_color.h **** }
 357:Drivers/lvgl/src/draw/sw/blend/../../../misc/lv_color.h **** 
 358:Drivers/lvgl/src/draw/sw/blend/../../../misc/lv_color.h **** /**
 359:Drivers/lvgl/src/draw/sw/blend/../../../misc/lv_color.h ****  * Convert am RGB888 color to RGB565 stored in `uint16_t`
 360:Drivers/lvgl/src/draw/sw/blend/../../../misc/lv_color.h ****  * @param color     and RGB888 color
 361:Drivers/lvgl/src/draw/sw/blend/../../../misc/lv_color.h ****  * @return          `color` as RGB565 on `uin16_t`
 362:Drivers/lvgl/src/draw/sw/blend/../../../misc/lv_color.h ****  */
 363:Drivers/lvgl/src/draw/sw/blend/../../../misc/lv_color.h **** uint16_t lv_color_to_u16(lv_color_t color);
 364:Drivers/lvgl/src/draw/sw/blend/../../../misc/lv_color.h **** 
 365:Drivers/lvgl/src/draw/sw/blend/../../../misc/lv_color.h **** /**
 366:Drivers/lvgl/src/draw/sw/blend/../../../misc/lv_color.h ****  * Convert am RGB888 color to XRGB8888 stored in `uint32_t`
 367:Drivers/lvgl/src/draw/sw/blend/../../../misc/lv_color.h ****  * @param color     and RGB888 color
 368:Drivers/lvgl/src/draw/sw/blend/../../../misc/lv_color.h ****  * @return          `color` as XRGB8888 on `uin32_t` (the alpha channel is always set to 0xFF)
 369:Drivers/lvgl/src/draw/sw/blend/../../../misc/lv_color.h ****  */
 370:Drivers/lvgl/src/draw/sw/blend/../../../misc/lv_color.h **** uint32_t lv_color_to_u32(lv_color_t color);
 371:Drivers/lvgl/src/draw/sw/blend/../../../misc/lv_color.h **** 
 372:Drivers/lvgl/src/draw/sw/blend/../../../misc/lv_color.h **** /**
 373:Drivers/lvgl/src/draw/sw/blend/../../../misc/lv_color.h ****  * Mix two RGB565 colors
 374:Drivers/lvgl/src/draw/sw/blend/../../../misc/lv_color.h ****  * @param c1        the first color (typically the foreground color)
 375:Drivers/lvgl/src/draw/sw/blend/../../../misc/lv_color.h ****  * @param c2        the second color  (typically the background color)
 376:Drivers/lvgl/src/draw/sw/blend/../../../misc/lv_color.h ****  * @param mix       0..255, or LV_OPA_0/10/20...
 377:Drivers/lvgl/src/draw/sw/blend/../../../misc/lv_color.h ****  * @return          mix == 0: c2
 378:Drivers/lvgl/src/draw/sw/blend/../../../misc/lv_color.h ****  *                  mix == 255: c1
 379:Drivers/lvgl/src/draw/sw/blend/../../../misc/lv_color.h ****  *                  mix == 128: 0.5 x c1 + 0.5 x c2
 380:Drivers/lvgl/src/draw/sw/blend/../../../misc/lv_color.h ****  */
 381:Drivers/lvgl/src/draw/sw/blend/../../../misc/lv_color.h **** uint16_t LV_ATTRIBUTE_FAST_MEM lv_color_16_16_mix(uint16_t c1, uint16_t c2, uint8_t mix);
 382:Drivers/lvgl/src/draw/sw/blend/../../../misc/lv_color.h **** 
 383:Drivers/lvgl/src/draw/sw/blend/../../../misc/lv_color.h **** /**
 384:Drivers/lvgl/src/draw/sw/blend/../../../misc/lv_color.h ****  * Mix white to a color
 385:Drivers/lvgl/src/draw/sw/blend/../../../misc/lv_color.h ****  * @param c     the base color
 386:Drivers/lvgl/src/draw/sw/blend/../../../misc/lv_color.h ****  * @param lvl   the intensity of white (0: no change, 255: fully white)
 387:Drivers/lvgl/src/draw/sw/blend/../../../misc/lv_color.h ****  * @return      the mixed color
 388:Drivers/lvgl/src/draw/sw/blend/../../../misc/lv_color.h ****  */
 389:Drivers/lvgl/src/draw/sw/blend/../../../misc/lv_color.h **** lv_color_t lv_color_lighten(lv_color_t c, lv_opa_t lvl);
 390:Drivers/lvgl/src/draw/sw/blend/../../../misc/lv_color.h **** 
 391:Drivers/lvgl/src/draw/sw/blend/../../../misc/lv_color.h **** /**
 392:Drivers/lvgl/src/draw/sw/blend/../../../misc/lv_color.h ****  * Mix black to a color
 393:Drivers/lvgl/src/draw/sw/blend/../../../misc/lv_color.h ****  * @param c     the base color
 394:Drivers/lvgl/src/draw/sw/blend/../../../misc/lv_color.h ****  * @param lvl   the intensity of black (0: no change, 255: fully black)
 395:Drivers/lvgl/src/draw/sw/blend/../../../misc/lv_color.h ****  * @return      the mixed color
 396:Drivers/lvgl/src/draw/sw/blend/../../../misc/lv_color.h ****  */
 397:Drivers/lvgl/src/draw/sw/blend/../../../misc/lv_color.h **** lv_color_t lv_color_darken(lv_color_t c, lv_opa_t lvl);
 398:Drivers/lvgl/src/draw/sw/blend/../../../misc/lv_color.h **** 
 399:Drivers/lvgl/src/draw/sw/blend/../../../misc/lv_color.h **** /**
 400:Drivers/lvgl/src/draw/sw/blend/../../../misc/lv_color.h ****  * Convert a HSV color to RGB
 401:Drivers/lvgl/src/draw/sw/blend/../../../misc/lv_color.h ****  * @param h hue [0..359]
 402:Drivers/lvgl/src/draw/sw/blend/../../../misc/lv_color.h ****  * @param s saturation [0..100]
 403:Drivers/lvgl/src/draw/sw/blend/../../../misc/lv_color.h ****  * @param v value [0..100]
ARM GAS  /var/folders/qx/2_175_4n2s19vhvtspjhb3qh0000gn/T//cc1Hh9yO.s 			page 45


 404:Drivers/lvgl/src/draw/sw/blend/../../../misc/lv_color.h ****  * @return the given RGB color in RGB (with LV_COLOR_DEPTH depth)
 405:Drivers/lvgl/src/draw/sw/blend/../../../misc/lv_color.h ****  */
 406:Drivers/lvgl/src/draw/sw/blend/../../../misc/lv_color.h **** lv_color_t lv_color_hsv_to_rgb(uint16_t h, uint8_t s, uint8_t v);
 407:Drivers/lvgl/src/draw/sw/blend/../../../misc/lv_color.h **** 
 408:Drivers/lvgl/src/draw/sw/blend/../../../misc/lv_color.h **** /**
 409:Drivers/lvgl/src/draw/sw/blend/../../../misc/lv_color.h ****  * Convert a 32-bit RGB color to HSV
 410:Drivers/lvgl/src/draw/sw/blend/../../../misc/lv_color.h ****  * @param r8 8-bit red
 411:Drivers/lvgl/src/draw/sw/blend/../../../misc/lv_color.h ****  * @param g8 8-bit green
 412:Drivers/lvgl/src/draw/sw/blend/../../../misc/lv_color.h ****  * @param b8 8-bit blue
 413:Drivers/lvgl/src/draw/sw/blend/../../../misc/lv_color.h ****  * @return the given RGB color in HSV
 414:Drivers/lvgl/src/draw/sw/blend/../../../misc/lv_color.h ****  */
 415:Drivers/lvgl/src/draw/sw/blend/../../../misc/lv_color.h **** lv_color_hsv_t lv_color_rgb_to_hsv(uint8_t r8, uint8_t g8, uint8_t b8);
 416:Drivers/lvgl/src/draw/sw/blend/../../../misc/lv_color.h **** 
 417:Drivers/lvgl/src/draw/sw/blend/../../../misc/lv_color.h **** /**
 418:Drivers/lvgl/src/draw/sw/blend/../../../misc/lv_color.h ****  * Convert a color to HSV
 419:Drivers/lvgl/src/draw/sw/blend/../../../misc/lv_color.h ****  * @param color color
 420:Drivers/lvgl/src/draw/sw/blend/../../../misc/lv_color.h ****  * @return the given color in HSV
 421:Drivers/lvgl/src/draw/sw/blend/../../../misc/lv_color.h ****  */
 422:Drivers/lvgl/src/draw/sw/blend/../../../misc/lv_color.h **** lv_color_hsv_t lv_color_to_hsv(lv_color_t color);
 423:Drivers/lvgl/src/draw/sw/blend/../../../misc/lv_color.h **** 
 424:Drivers/lvgl/src/draw/sw/blend/../../../misc/lv_color.h **** /*Source: https://vuetifyjs.com/en/styles/colors/#material-colors*/
 425:Drivers/lvgl/src/draw/sw/blend/../../../misc/lv_color.h **** 
 426:Drivers/lvgl/src/draw/sw/blend/../../../misc/lv_color.h **** /**
 427:Drivers/lvgl/src/draw/sw/blend/../../../misc/lv_color.h ****  * A helper for white color
 428:Drivers/lvgl/src/draw/sw/blend/../../../misc/lv_color.h ****  * @return      a white color
 429:Drivers/lvgl/src/draw/sw/blend/../../../misc/lv_color.h ****  */
 430:Drivers/lvgl/src/draw/sw/blend/../../../misc/lv_color.h **** lv_color_t lv_color_white(void);
 431:Drivers/lvgl/src/draw/sw/blend/../../../misc/lv_color.h **** 
 432:Drivers/lvgl/src/draw/sw/blend/../../../misc/lv_color.h **** /**
 433:Drivers/lvgl/src/draw/sw/blend/../../../misc/lv_color.h ****  * A helper for black color
 434:Drivers/lvgl/src/draw/sw/blend/../../../misc/lv_color.h ****  * @return      a black color
 435:Drivers/lvgl/src/draw/sw/blend/../../../misc/lv_color.h ****  */
 436:Drivers/lvgl/src/draw/sw/blend/../../../misc/lv_color.h **** lv_color_t lv_color_black(void);
 437:Drivers/lvgl/src/draw/sw/blend/../../../misc/lv_color.h **** 
 438:Drivers/lvgl/src/draw/sw/blend/../../../misc/lv_color.h **** void lv_color_premultiply(lv_color32_t * c);
 439:Drivers/lvgl/src/draw/sw/blend/../../../misc/lv_color.h **** 
 440:Drivers/lvgl/src/draw/sw/blend/../../../misc/lv_color.h **** void lv_color16_premultiply(lv_color16_t * c, lv_opa_t a);
 441:Drivers/lvgl/src/draw/sw/blend/../../../misc/lv_color.h **** 
 442:Drivers/lvgl/src/draw/sw/blend/../../../misc/lv_color.h **** /**
 443:Drivers/lvgl/src/draw/sw/blend/../../../misc/lv_color.h ****  * Get the luminance of a color: luminance = 0.3 R + 0.59 G + 0.11 B
 444:Drivers/lvgl/src/draw/sw/blend/../../../misc/lv_color.h ****  * @param c a color
 445:Drivers/lvgl/src/draw/sw/blend/../../../misc/lv_color.h ****  * @return the brightness [0..255]
 446:Drivers/lvgl/src/draw/sw/blend/../../../misc/lv_color.h ****  */
 447:Drivers/lvgl/src/draw/sw/blend/../../../misc/lv_color.h **** uint8_t lv_color_luminance(lv_color_t c);
 448:Drivers/lvgl/src/draw/sw/blend/../../../misc/lv_color.h **** 
 449:Drivers/lvgl/src/draw/sw/blend/../../../misc/lv_color.h **** /**
 450:Drivers/lvgl/src/draw/sw/blend/../../../misc/lv_color.h ****  * Get the luminance of a color16: luminance = 0.3 R + 0.59 G + 0.11 B
 451:Drivers/lvgl/src/draw/sw/blend/../../../misc/lv_color.h ****  * @param c a color
 452:Drivers/lvgl/src/draw/sw/blend/../../../misc/lv_color.h ****  * @return the brightness [0..255]
 453:Drivers/lvgl/src/draw/sw/blend/../../../misc/lv_color.h ****  */
 454:Drivers/lvgl/src/draw/sw/blend/../../../misc/lv_color.h **** uint8_t lv_color16_luminance(const lv_color16_t c);
 455:Drivers/lvgl/src/draw/sw/blend/../../../misc/lv_color.h **** 
 456:Drivers/lvgl/src/draw/sw/blend/../../../misc/lv_color.h **** /**
 457:Drivers/lvgl/src/draw/sw/blend/../../../misc/lv_color.h ****  * Get the luminance of a color24: luminance = 0.3 R + 0.59 G + 0.11 B
 458:Drivers/lvgl/src/draw/sw/blend/../../../misc/lv_color.h ****  * @param c a color
 459:Drivers/lvgl/src/draw/sw/blend/../../../misc/lv_color.h ****  * @return the brightness [0..255]
 460:Drivers/lvgl/src/draw/sw/blend/../../../misc/lv_color.h ****  */
ARM GAS  /var/folders/qx/2_175_4n2s19vhvtspjhb3qh0000gn/T//cc1Hh9yO.s 			page 46


 461:Drivers/lvgl/src/draw/sw/blend/../../../misc/lv_color.h **** uint8_t lv_color24_luminance(const uint8_t * c);
 462:Drivers/lvgl/src/draw/sw/blend/../../../misc/lv_color.h **** 
 463:Drivers/lvgl/src/draw/sw/blend/../../../misc/lv_color.h **** /**
 464:Drivers/lvgl/src/draw/sw/blend/../../../misc/lv_color.h ****  * Get the luminance of a color32: luminance = 0.3 R + 0.59 G + 0.11 B
 465:Drivers/lvgl/src/draw/sw/blend/../../../misc/lv_color.h ****  * @param c a color
 466:Drivers/lvgl/src/draw/sw/blend/../../../misc/lv_color.h ****  * @return the brightness [0..255]
 467:Drivers/lvgl/src/draw/sw/blend/../../../misc/lv_color.h ****  */
 468:Drivers/lvgl/src/draw/sw/blend/../../../misc/lv_color.h **** uint8_t lv_color32_luminance(lv_color32_t c);
 469:Drivers/lvgl/src/draw/sw/blend/../../../misc/lv_color.h **** 
 470:Drivers/lvgl/src/draw/sw/blend/../../../misc/lv_color.h **** 
 471:Drivers/lvgl/src/draw/sw/blend/../../../misc/lv_color.h **** /**
 472:Drivers/lvgl/src/draw/sw/blend/../../../misc/lv_color.h ****  * Swap the endianness of an rgb565 color
 473:Drivers/lvgl/src/draw/sw/blend/../../../misc/lv_color.h ****  * @param c a color
 474:Drivers/lvgl/src/draw/sw/blend/../../../misc/lv_color.h ****  * @return the swapped color
 475:Drivers/lvgl/src/draw/sw/blend/../../../misc/lv_color.h ****  */
 476:Drivers/lvgl/src/draw/sw/blend/../../../misc/lv_color.h **** static inline uint16_t LV_ATTRIBUTE_FAST_MEM lv_color_swap_16(uint16_t c)
 886              		.loc 2 476 46 is_stmt 1 view .LVU294
 887              	.LBB66:
 477:Drivers/lvgl/src/draw/sw/blend/../../../misc/lv_color.h **** {
 478:Drivers/lvgl/src/draw/sw/blend/../../../misc/lv_color.h ****     return (c >> 8) | (c << 8);
 888              		.loc 2 478 5 view .LVU295
 889              		.loc 2 478 21 is_stmt 0 view .LVU296
 890 01a2 52BA     		rev16	r2, r2
 891              	.LVL83:
 892              		.loc 2 478 21 view .LVU297
 893              	.LBE66:
 894              	.LBE65:
 853:Drivers/lvgl/src/draw/sw/lv_draw_sw_img.c ****                                                        +
 895              		.loc 1 853 111 discriminator 1 view .LVU298
 896 01a4 C2F3C423 		ubfx	r3, r2, #11, #5
 853:Drivers/lvgl/src/draw/sw/lv_draw_sw_img.c ****                                                        +
 897              		.loc 1 853 69 discriminator 1 view .LVU299
 898 01a8 05FB0303 		mla	r3, r5, r3, r0
 853:Drivers/lvgl/src/draw/sw/lv_draw_sw_img.c ****                                                        +
 899              		.loc 1 853 136 discriminator 1 view .LVU300
 900 01ac DB00     		lsls	r3, r3, #3
 901 01ae 03F47843 		and	r3, r3, #63488
 855:Drivers/lvgl/src/draw/sw/lv_draw_sw_img.c ****                                                        ((c_mult[0] + (lv_color_swap_16(buf16_src[x]
 902              		.loc 1 855 110 discriminator 1 view .LVU301
 903 01b2 C2F3451B 		ubfx	fp, r2, #5, #6
 855:Drivers/lvgl/src/draw/sw/lv_draw_sw_img.c ****                                                        ((c_mult[0] + (lv_color_swap_16(buf16_src[x]
 904              		.loc 1 855 69 discriminator 1 view .LVU302
 905 01b6 0BFB05CB 		mla	fp, fp, r5, ip
 855:Drivers/lvgl/src/draw/sw/lv_draw_sw_img.c ****                                                        ((c_mult[0] + (lv_color_swap_16(buf16_src[x]
 906              		.loc 1 855 129 discriminator 1 view .LVU303
 907 01ba 4FEAEB0B 		asr	fp, fp, #3
 855:Drivers/lvgl/src/draw/sw/lv_draw_sw_img.c ****                                                        ((c_mult[0] + (lv_color_swap_16(buf16_src[x]
 908              		.loc 1 855 135 discriminator 1 view .LVU304
 909 01be 0BF4FC6B 		and	fp, fp, #2016
 854:Drivers/lvgl/src/draw/sw/lv_draw_sw_img.c ****                                                        (((c_mult[1] + ((lv_color_swap_16(buf16_src[
 910              		.loc 1 854 56 view .LVU305
 911 01c2 43EA0B03 		orr	r3, r3, fp
 856:Drivers/lvgl/src/draw/sw/lv_draw_sw_img.c ****                         buf16_dest++;
 912              		.loc 1 856 102 discriminator 1 view .LVU306
 913 01c6 02F01F02 		and	r2, r2, #31
 856:Drivers/lvgl/src/draw/sw/lv_draw_sw_img.c ****                         buf16_dest++;
 914              		.loc 1 856 68 discriminator 1 view .LVU307
ARM GAS  /var/folders/qx/2_175_4n2s19vhvtspjhb3qh0000gn/T//cc1Hh9yO.s 			page 47


 915 01ca 02FB05E2 		mla	r2, r2, r5, lr
 853:Drivers/lvgl/src/draw/sw/lv_draw_sw_img.c ****                                                        +
 916              		.loc 1 853 39 view .LVU308
 917 01ce 03EB2223 		add	r3, r3, r2, asr #8
 918              	.LVL84:
 919              	.LBB67:
 920              	.LBI67:
 476:Drivers/lvgl/src/draw/sw/blend/../../../misc/lv_color.h **** {
 921              		.loc 2 476 46 is_stmt 1 view .LVU309
 922              	.LBB68:
 923              		.loc 2 478 5 view .LVU310
 924              		.loc 2 478 21 is_stmt 0 view .LVU311
 925 01d2 5BBA     		rev16	r3, r3
 926              	.LVL85:
 927              		.loc 2 478 21 view .LVU312
 928              	.LBE68:
 929              	.LBE67:
 853:Drivers/lvgl/src/draw/sw/lv_draw_sw_img.c ****                                                        +
 930              		.loc 1 853 37 discriminator 1 view .LVU313
 931 01d4 24F8023B 		strh	r3, [r4], #2	@ movhi
 932              	.LVL86:
 857:Drivers/lvgl/src/draw/sw/lv_draw_sw_img.c ****                     }
 933              		.loc 1 857 25 is_stmt 1 view .LVU314
 852:Drivers/lvgl/src/draw/sw/lv_draw_sw_img.c ****                         *buf16_dest = lv_color_swap_16((((c_mult[2] + ((lv_color_swap_16(buf16_src[
 934              		.loc 1 852 40 discriminator 3 view .LVU315
 935 01d8 0131     		adds	r1, r1, #1
 936              	.LVL87:
 937              	.L45:
 852:Drivers/lvgl/src/draw/sw/lv_draw_sw_img.c ****                         *buf16_dest = lv_color_swap_16((((c_mult[2] + ((lv_color_swap_16(buf16_src[
 938              		.loc 1 852 34 discriminator 1 view .LVU316
 939 01da B142     		cmp	r1, r6
 940 01dc DFDB     		blt	.L44
 859:Drivers/lvgl/src/draw/sw/lv_draw_sw_img.c ****                 }
 941              		.loc 1 859 21 view .LVU317
 859:Drivers/lvgl/src/draw/sw/lv_draw_sw_img.c ****                 }
 942              		.loc 1 859 31 is_stmt 0 view .LVU318
 943 01de 08EB4A08 		add	r8, r8, r10, lsl #1
 944              	.LVL88:
 859:Drivers/lvgl/src/draw/sw/lv_draw_sw_img.c ****                 }
 945              		.loc 1 859 31 view .LVU319
 946              	.LBE64:
 850:Drivers/lvgl/src/draw/sw/lv_draw_sw_img.c ****                     int32_t x;
 947              		.loc 1 850 36 is_stmt 1 discriminator 2 view .LVU320
 948 01e2 09F10109 		add	r9, r9, #1
 949              	.LVL89:
 950              	.L43:
 850:Drivers/lvgl/src/draw/sw/lv_draw_sw_img.c ****                     int32_t x;
 951              		.loc 1 850 30 discriminator 1 view .LVU321
 952 01e6 B945     		cmp	r9, r7
 953 01e8 80F2DC80 		bge	.L25
 954              	.LBB69:
 852:Drivers/lvgl/src/draw/sw/lv_draw_sw_img.c ****                         *buf16_dest = lv_color_swap_16((((c_mult[2] + ((lv_color_swap_16(buf16_src[
 955              		.loc 1 852 27 is_stmt 0 view .LVU322
 956 01ec 0021     		movs	r1, #0
 957 01ee F4E7     		b	.L45
 958              	.LVL90:
 959              	.L31:
ARM GAS  /var/folders/qx/2_175_4n2s19vhvtspjhb3qh0000gn/T//cc1Hh9yO.s 			page 48


 852:Drivers/lvgl/src/draw/sw/lv_draw_sw_img.c ****                         *buf16_dest = lv_color_swap_16((((c_mult[2] + ((lv_color_swap_16(buf16_src[
 960              		.loc 1 852 27 view .LVU323
 961              	.LBE69:
 962              	.LBE73:
 963              	.LBE62:
 865:Drivers/lvgl/src/draw/sw/lv_draw_sw_img.c ****             uint32_t px_size = lv_color_format_get_size(cf);
 964              		.loc 1 865 9 is_stmt 1 view .LVU324
 965              	.LBB74:
 866:Drivers/lvgl/src/draw/sw/lv_draw_sw_img.c ****             src_buf += src_stride * relative_area.y1 + relative_area.x1 * px_size;
 966              		.loc 1 866 13 view .LVU325
 866:Drivers/lvgl/src/draw/sw/lv_draw_sw_img.c ****             src_buf += src_stride * relative_area.y1 + relative_area.x1 * px_size;
 967              		.loc 1 866 32 is_stmt 0 view .LVU326
 968 01f0 4046     		mov	r0, r8
 969              	.LVL91:
 866:Drivers/lvgl/src/draw/sw/lv_draw_sw_img.c ****             src_buf += src_stride * relative_area.y1 + relative_area.x1 * px_size;
 970              		.loc 1 866 32 view .LVU327
 971 01f2 FFF7FEFF 		bl	lv_color_format_get_size
 972              	.LVL92:
 867:Drivers/lvgl/src/draw/sw/lv_draw_sw_img.c ****             if(mix >= LV_OPA_MAX) {
 973              		.loc 1 867 13 is_stmt 1 view .LVU328
 867:Drivers/lvgl/src/draw/sw/lv_draw_sw_img.c ****             if(mix >= LV_OPA_MAX) {
 974              		.loc 1 867 69 is_stmt 0 view .LVU329
 975 01f6 029B     		ldr	r3, [sp, #8]
 867:Drivers/lvgl/src/draw/sw/lv_draw_sw_img.c ****             if(mix >= LV_OPA_MAX) {
 976              		.loc 1 867 73 view .LVU330
 977 01f8 00FB03F3 		mul	r3, r0, r3
 867:Drivers/lvgl/src/draw/sw/lv_draw_sw_img.c ****             if(mix >= LV_OPA_MAX) {
 978              		.loc 1 867 54 view .LVU331
 979 01fc 039A     		ldr	r2, [sp, #12]
 980 01fe 1699     		ldr	r1, [sp, #88]
 981 0200 01FB0233 		mla	r3, r1, r2, r3
 867:Drivers/lvgl/src/draw/sw/lv_draw_sw_img.c ****             if(mix >= LV_OPA_MAX) {
 982              		.loc 1 867 21 view .LVU332
 983 0204 149A     		ldr	r2, [sp, #80]
 984 0206 1344     		add	r3, r3, r2
 985              	.LVL93:
 868:Drivers/lvgl/src/draw/sw/lv_draw_sw_img.c ****                 int32_t y;
 986              		.loc 1 868 13 is_stmt 1 view .LVU333
 868:Drivers/lvgl/src/draw/sw/lv_draw_sw_img.c ****                 int32_t y;
 987              		.loc 1 868 15 is_stmt 0 view .LVU334
 988 0208 B9F1FC0F 		cmp	r9, #252
 989 020c 33D8     		bhi	.L66
 990              	.LBB75:
 884:Drivers/lvgl/src/draw/sw/lv_draw_sw_img.c ****                 c_mult[0] = color.blue * mix;
 991              		.loc 1 884 17 is_stmt 1 view .LVU335
 885:Drivers/lvgl/src/draw/sw/lv_draw_sw_img.c ****                 c_mult[1] = color.green * mix;
 992              		.loc 1 885 17 view .LVU336
 885:Drivers/lvgl/src/draw/sw/lv_draw_sw_img.c ****                 c_mult[1] = color.green * mix;
 993              		.loc 1 885 34 is_stmt 0 view .LVU337
 994 020e 9DF824A0 		ldrb	r10, [sp, #36]	@ zero_extendqisi2
 885:Drivers/lvgl/src/draw/sw/lv_draw_sw_img.c ****                 c_mult[1] = color.green * mix;
 995              		.loc 1 885 40 view .LVU338
 996 0212 0AFB09FA 		mul	r10, r10, r9
 885:Drivers/lvgl/src/draw/sw/lv_draw_sw_img.c ****                 c_mult[1] = color.green * mix;
 997              		.loc 1 885 27 view .LVU339
 998 0216 ADF81CA0 		strh	r10, [sp, #28]	@ movhi
 886:Drivers/lvgl/src/draw/sw/lv_draw_sw_img.c ****                 c_mult[2] = color.red * mix;
ARM GAS  /var/folders/qx/2_175_4n2s19vhvtspjhb3qh0000gn/T//cc1Hh9yO.s 			page 49


 999              		.loc 1 886 17 is_stmt 1 view .LVU340
 886:Drivers/lvgl/src/draw/sw/lv_draw_sw_img.c ****                 c_mult[2] = color.red * mix;
 1000              		.loc 1 886 34 is_stmt 0 view .LVU341
 1001 021a 9DF825E0 		ldrb	lr, [sp, #37]	@ zero_extendqisi2
 886:Drivers/lvgl/src/draw/sw/lv_draw_sw_img.c ****                 c_mult[2] = color.red * mix;
 1002              		.loc 1 886 41 view .LVU342
 1003 021e 09FB0EFE 		mul	lr, r9, lr
 886:Drivers/lvgl/src/draw/sw/lv_draw_sw_img.c ****                 c_mult[2] = color.red * mix;
 1004              		.loc 1 886 27 view .LVU343
 1005 0222 ADF81EE0 		strh	lr, [sp, #30]	@ movhi
 887:Drivers/lvgl/src/draw/sw/lv_draw_sw_img.c ****                 int32_t y;
 1006              		.loc 1 887 17 is_stmt 1 view .LVU344
 887:Drivers/lvgl/src/draw/sw/lv_draw_sw_img.c ****                 int32_t y;
 1007              		.loc 1 887 34 is_stmt 0 view .LVU345
 1008 0226 9DF826C0 		ldrb	ip, [sp, #38]	@ zero_extendqisi2
 887:Drivers/lvgl/src/draw/sw/lv_draw_sw_img.c ****                 int32_t y;
 1009              		.loc 1 887 39 view .LVU346
 1010 022a 09FB0CFC 		mul	ip, r9, ip
 887:Drivers/lvgl/src/draw/sw/lv_draw_sw_img.c ****                 int32_t y;
 1011              		.loc 1 887 27 view .LVU347
 1012 022e ADF820C0 		strh	ip, [sp, #32]	@ movhi
 888:Drivers/lvgl/src/draw/sw/lv_draw_sw_img.c ****                 for(y = 0; y < h; y++) {
 1013              		.loc 1 888 17 is_stmt 1 view .LVU348
 889:Drivers/lvgl/src/draw/sw/lv_draw_sw_img.c ****                     int32_t x;
 1014              		.loc 1 889 17 view .LVU349
 1015              	.LVL94:
 889:Drivers/lvgl/src/draw/sw/lv_draw_sw_img.c ****                     int32_t x;
 1016              		.loc 1 889 23 is_stmt 0 view .LVU350
 1017 0232 4FF00009 		mov	r9, #0
 1018              	.LVL95:
 889:Drivers/lvgl/src/draw/sw/lv_draw_sw_img.c ****                     int32_t x;
 1019              		.loc 1 889 23 view .LVU351
 1020 0236 DDF858B0 		ldr	fp, [sp, #88]
 889:Drivers/lvgl/src/draw/sw/lv_draw_sw_img.c ****                     int32_t x;
 1021              		.loc 1 889 17 view .LVU352
 1022 023a 3FE0     		b	.L51
 1023              	.LVL96:
 1024              	.L48:
 889:Drivers/lvgl/src/draw/sw/lv_draw_sw_img.c ****                     int32_t x;
 1025              		.loc 1 889 17 view .LVU353
 1026              	.LBE75:
 1027              	.LBB78:
 1028              	.LBB79:
 877:Drivers/lvgl/src/draw/sw/lv_draw_sw_img.c ****                         dest_buf += px_size;
 1029              		.loc 1 877 25 is_stmt 1 view .LVU354
 877:Drivers/lvgl/src/draw/sw/lv_draw_sw_img.c ****                         dest_buf += px_size;
 1030              		.loc 1 877 33 is_stmt 0 view .LVU355
 1031 023c 0344     		add	r3, r3, r0
 1032              	.LVL97:
 878:Drivers/lvgl/src/draw/sw/lv_draw_sw_img.c ****                     }
 1033              		.loc 1 878 25 is_stmt 1 view .LVU356
 878:Drivers/lvgl/src/draw/sw/lv_draw_sw_img.c ****                     }
 1034              		.loc 1 878 34 is_stmt 0 view .LVU357
 1035 023e 0444     		add	r4, r4, r0
 1036              	.LVL98:
 872:Drivers/lvgl/src/draw/sw/lv_draw_sw_img.c ****                         dest_buf[0] = color.blue;
 1037              		.loc 1 872 40 is_stmt 1 discriminator 2 view .LVU358
ARM GAS  /var/folders/qx/2_175_4n2s19vhvtspjhb3qh0000gn/T//cc1Hh9yO.s 			page 50


 1038 0240 0132     		adds	r2, r2, #1
 1039              	.LVL99:
 1040              	.L50:
 872:Drivers/lvgl/src/draw/sw/lv_draw_sw_img.c ****                         dest_buf[0] = color.blue;
 1041              		.loc 1 872 34 discriminator 1 view .LVU359
 1042 0242 B242     		cmp	r2, r6
 1043 0244 0EDA     		bge	.L75
 873:Drivers/lvgl/src/draw/sw/lv_draw_sw_img.c ****                         dest_buf[1] = color.green;
 1044              		.loc 1 873 25 view .LVU360
 873:Drivers/lvgl/src/draw/sw/lv_draw_sw_img.c ****                         dest_buf[1] = color.green;
 1045              		.loc 1 873 44 is_stmt 0 view .LVU361
 1046 0246 9DF82410 		ldrb	r1, [sp, #36]	@ zero_extendqisi2
 873:Drivers/lvgl/src/draw/sw/lv_draw_sw_img.c ****                         dest_buf[1] = color.green;
 1047              		.loc 1 873 37 view .LVU362
 1048 024a 2170     		strb	r1, [r4]
 874:Drivers/lvgl/src/draw/sw/lv_draw_sw_img.c ****                         dest_buf[2] = color.red;
 1049              		.loc 1 874 25 is_stmt 1 view .LVU363
 874:Drivers/lvgl/src/draw/sw/lv_draw_sw_img.c ****                         dest_buf[2] = color.red;
 1050              		.loc 1 874 44 is_stmt 0 view .LVU364
 1051 024c 9DF82510 		ldrb	r1, [sp, #37]	@ zero_extendqisi2
 874:Drivers/lvgl/src/draw/sw/lv_draw_sw_img.c ****                         dest_buf[2] = color.red;
 1052              		.loc 1 874 37 view .LVU365
 1053 0250 6170     		strb	r1, [r4, #1]
 875:Drivers/lvgl/src/draw/sw/lv_draw_sw_img.c ****                         if(cf == LV_COLOR_FORMAT_ARGB8888) dest_buf[3] = src_buf[3];
 1054              		.loc 1 875 25 is_stmt 1 view .LVU366
 875:Drivers/lvgl/src/draw/sw/lv_draw_sw_img.c ****                         if(cf == LV_COLOR_FORMAT_ARGB8888) dest_buf[3] = src_buf[3];
 1055              		.loc 1 875 44 is_stmt 0 view .LVU367
 1056 0252 9DF82610 		ldrb	r1, [sp, #38]	@ zero_extendqisi2
 875:Drivers/lvgl/src/draw/sw/lv_draw_sw_img.c ****                         if(cf == LV_COLOR_FORMAT_ARGB8888) dest_buf[3] = src_buf[3];
 1057              		.loc 1 875 37 view .LVU368
 1058 0256 A170     		strb	r1, [r4, #2]
 876:Drivers/lvgl/src/draw/sw/lv_draw_sw_img.c ****                         src_buf += px_size;
 1059              		.loc 1 876 25 is_stmt 1 view .LVU369
 876:Drivers/lvgl/src/draw/sw/lv_draw_sw_img.c ****                         src_buf += px_size;
 1060              		.loc 1 876 27 is_stmt 0 view .LVU370
 1061 0258 B8F1100F 		cmp	r8, #16
 1062 025c EED1     		bne	.L48
 876:Drivers/lvgl/src/draw/sw/lv_draw_sw_img.c ****                         src_buf += px_size;
 1063              		.loc 1 876 60 is_stmt 1 discriminator 1 view .LVU371
 876:Drivers/lvgl/src/draw/sw/lv_draw_sw_img.c ****                         src_buf += px_size;
 1064              		.loc 1 876 72 is_stmt 0 discriminator 1 view .LVU372
 1065 025e D978     		ldrb	r1, [r3, #3]	@ zero_extendqisi2
 1066 0260 E170     		strb	r1, [r4, #3]
 1067 0262 EBE7     		b	.L48
 1068              	.L75:
 880:Drivers/lvgl/src/draw/sw/lv_draw_sw_img.c ****                 }
 1069              		.loc 1 880 21 is_stmt 1 view .LVU373
 880:Drivers/lvgl/src/draw/sw/lv_draw_sw_img.c ****                 }
 1070              		.loc 1 880 43 is_stmt 0 view .LVU374
 1071 0264 00FB16C2 		mls	r2, r0, r6, ip
 1072              	.LVL100:
 880:Drivers/lvgl/src/draw/sw/lv_draw_sw_img.c ****                 }
 1073              		.loc 1 880 29 view .LVU375
 1074 0268 1344     		add	r3, r3, r2
 1075              	.LVL101:
 880:Drivers/lvgl/src/draw/sw/lv_draw_sw_img.c ****                 }
 1076              		.loc 1 880 29 view .LVU376
ARM GAS  /var/folders/qx/2_175_4n2s19vhvtspjhb3qh0000gn/T//cc1Hh9yO.s 			page 51


 1077              	.LBE79:
 870:Drivers/lvgl/src/draw/sw/lv_draw_sw_img.c ****                     int32_t x;
 1078              		.loc 1 870 36 is_stmt 1 discriminator 2 view .LVU377
 1079 026a 0135     		adds	r5, r5, #1
 1080              	.LVL102:
 1081              	.L46:
 870:Drivers/lvgl/src/draw/sw/lv_draw_sw_img.c ****                     int32_t x;
 1082              		.loc 1 870 30 discriminator 1 view .LVU378
 1083 026c BD42     		cmp	r5, r7
 1084 026e 80F29980 		bge	.L25
 1085              	.LBB80:
 872:Drivers/lvgl/src/draw/sw/lv_draw_sw_img.c ****                         dest_buf[0] = color.blue;
 1086              		.loc 1 872 27 is_stmt 0 view .LVU379
 1087 0272 0022     		movs	r2, #0
 1088 0274 E5E7     		b	.L50
 1089              	.LVL103:
 1090              	.L66:
 872:Drivers/lvgl/src/draw/sw/lv_draw_sw_img.c ****                         dest_buf[0] = color.blue;
 1091              		.loc 1 872 27 view .LVU380
 1092              	.LBE80:
 870:Drivers/lvgl/src/draw/sw/lv_draw_sw_img.c ****                     int32_t x;
 1093              		.loc 1 870 23 view .LVU381
 1094 0276 0025     		movs	r5, #0
 1095              	.LVL104:
 870:Drivers/lvgl/src/draw/sw/lv_draw_sw_img.c ****                     int32_t x;
 1096              		.loc 1 870 23 view .LVU382
 1097 0278 DDF858C0 		ldr	ip, [sp, #88]
 1098 027c F6E7     		b	.L46
 1099              	.LVL105:
 1100              	.L52:
 870:Drivers/lvgl/src/draw/sw/lv_draw_sw_img.c ****                     int32_t x;
 1101              		.loc 1 870 23 view .LVU383
 1102              	.LBE78:
 1103              	.LBB81:
 1104              	.LBB76:
 896:Drivers/lvgl/src/draw/sw/lv_draw_sw_img.c ****                         dest_buf += px_size;
 1105              		.loc 1 896 25 is_stmt 1 view .LVU384
 896:Drivers/lvgl/src/draw/sw/lv_draw_sw_img.c ****                         dest_buf += px_size;
 1106              		.loc 1 896 33 is_stmt 0 view .LVU385
 1107 027e 0344     		add	r3, r3, r0
 1108              	.LVL106:
 897:Drivers/lvgl/src/draw/sw/lv_draw_sw_img.c ****                     }
 1109              		.loc 1 897 25 is_stmt 1 view .LVU386
 897:Drivers/lvgl/src/draw/sw/lv_draw_sw_img.c ****                     }
 1110              		.loc 1 897 34 is_stmt 0 view .LVU387
 1111 0280 0444     		add	r4, r4, r0
 1112              	.LVL107:
 891:Drivers/lvgl/src/draw/sw/lv_draw_sw_img.c ****                         dest_buf[0] = (c_mult[0] + (src_buf[0] * mix_inv)) >> 8;
 1113              		.loc 1 891 40 is_stmt 1 discriminator 2 view .LVU388
 1114 0282 0131     		adds	r1, r1, #1
 1115              	.LVL108:
 1116              	.L54:
 891:Drivers/lvgl/src/draw/sw/lv_draw_sw_img.c ****                         dest_buf[0] = (c_mult[0] + (src_buf[0] * mix_inv)) >> 8;
 1117              		.loc 1 891 34 discriminator 1 view .LVU389
 1118 0284 B142     		cmp	r1, r6
 1119 0286 14DA     		bge	.L76
 892:Drivers/lvgl/src/draw/sw/lv_draw_sw_img.c ****                         dest_buf[1] = (c_mult[1] + (src_buf[1] * mix_inv)) >> 8;
ARM GAS  /var/folders/qx/2_175_4n2s19vhvtspjhb3qh0000gn/T//cc1Hh9yO.s 			page 52


 1120              		.loc 1 892 25 view .LVU390
 892:Drivers/lvgl/src/draw/sw/lv_draw_sw_img.c ****                         dest_buf[1] = (c_mult[1] + (src_buf[1] * mix_inv)) >> 8;
 1121              		.loc 1 892 60 is_stmt 0 view .LVU391
 1122 0288 1A78     		ldrb	r2, [r3]	@ zero_extendqisi2
 892:Drivers/lvgl/src/draw/sw/lv_draw_sw_img.c ****                         dest_buf[1] = (c_mult[1] + (src_buf[1] * mix_inv)) >> 8;
 1123              		.loc 1 892 50 view .LVU392
 1124 028a 05FB02A2 		mla	r2, r5, r2, r10
 892:Drivers/lvgl/src/draw/sw/lv_draw_sw_img.c ****                         dest_buf[1] = (c_mult[1] + (src_buf[1] * mix_inv)) >> 8;
 1125              		.loc 1 892 76 view .LVU393
 1126 028e 1212     		asrs	r2, r2, #8
 892:Drivers/lvgl/src/draw/sw/lv_draw_sw_img.c ****                         dest_buf[1] = (c_mult[1] + (src_buf[1] * mix_inv)) >> 8;
 1127              		.loc 1 892 37 view .LVU394
 1128 0290 2270     		strb	r2, [r4]
 893:Drivers/lvgl/src/draw/sw/lv_draw_sw_img.c ****                         dest_buf[2] = (c_mult[2] + (src_buf[2] * mix_inv)) >> 8;
 1129              		.loc 1 893 25 is_stmt 1 view .LVU395
 893:Drivers/lvgl/src/draw/sw/lv_draw_sw_img.c ****                         dest_buf[2] = (c_mult[2] + (src_buf[2] * mix_inv)) >> 8;
 1130              		.loc 1 893 60 is_stmt 0 view .LVU396
 1131 0292 5A78     		ldrb	r2, [r3, #1]	@ zero_extendqisi2
 893:Drivers/lvgl/src/draw/sw/lv_draw_sw_img.c ****                         dest_buf[2] = (c_mult[2] + (src_buf[2] * mix_inv)) >> 8;
 1132              		.loc 1 893 50 view .LVU397
 1133 0294 02FB05E2 		mla	r2, r2, r5, lr
 893:Drivers/lvgl/src/draw/sw/lv_draw_sw_img.c ****                         dest_buf[2] = (c_mult[2] + (src_buf[2] * mix_inv)) >> 8;
 1134              		.loc 1 893 76 view .LVU398
 1135 0298 1212     		asrs	r2, r2, #8
 893:Drivers/lvgl/src/draw/sw/lv_draw_sw_img.c ****                         dest_buf[2] = (c_mult[2] + (src_buf[2] * mix_inv)) >> 8;
 1136              		.loc 1 893 37 view .LVU399
 1137 029a 6270     		strb	r2, [r4, #1]
 894:Drivers/lvgl/src/draw/sw/lv_draw_sw_img.c ****                         if(cf == LV_COLOR_FORMAT_ARGB8888) dest_buf[3] = src_buf[3];
 1138              		.loc 1 894 25 is_stmt 1 view .LVU400
 894:Drivers/lvgl/src/draw/sw/lv_draw_sw_img.c ****                         if(cf == LV_COLOR_FORMAT_ARGB8888) dest_buf[3] = src_buf[3];
 1139              		.loc 1 894 60 is_stmt 0 view .LVU401
 1140 029c 9A78     		ldrb	r2, [r3, #2]	@ zero_extendqisi2
 894:Drivers/lvgl/src/draw/sw/lv_draw_sw_img.c ****                         if(cf == LV_COLOR_FORMAT_ARGB8888) dest_buf[3] = src_buf[3];
 1141              		.loc 1 894 50 view .LVU402
 1142 029e 02FB05C2 		mla	r2, r2, r5, ip
 894:Drivers/lvgl/src/draw/sw/lv_draw_sw_img.c ****                         if(cf == LV_COLOR_FORMAT_ARGB8888) dest_buf[3] = src_buf[3];
 1143              		.loc 1 894 76 view .LVU403
 1144 02a2 1212     		asrs	r2, r2, #8
 894:Drivers/lvgl/src/draw/sw/lv_draw_sw_img.c ****                         if(cf == LV_COLOR_FORMAT_ARGB8888) dest_buf[3] = src_buf[3];
 1145              		.loc 1 894 37 view .LVU404
 1146 02a4 A270     		strb	r2, [r4, #2]
 895:Drivers/lvgl/src/draw/sw/lv_draw_sw_img.c ****                         src_buf += px_size;
 1147              		.loc 1 895 25 is_stmt 1 view .LVU405
 895:Drivers/lvgl/src/draw/sw/lv_draw_sw_img.c ****                         src_buf += px_size;
 1148              		.loc 1 895 27 is_stmt 0 view .LVU406
 1149 02a6 B8F1100F 		cmp	r8, #16
 1150 02aa E8D1     		bne	.L52
 895:Drivers/lvgl/src/draw/sw/lv_draw_sw_img.c ****                         src_buf += px_size;
 1151              		.loc 1 895 60 is_stmt 1 discriminator 1 view .LVU407
 895:Drivers/lvgl/src/draw/sw/lv_draw_sw_img.c ****                         src_buf += px_size;
 1152              		.loc 1 895 72 is_stmt 0 discriminator 1 view .LVU408
 1153 02ac DA78     		ldrb	r2, [r3, #3]	@ zero_extendqisi2
 1154 02ae E270     		strb	r2, [r4, #3]
 1155 02b0 E5E7     		b	.L52
 1156              	.L76:
 899:Drivers/lvgl/src/draw/sw/lv_draw_sw_img.c ****                 }
 1157              		.loc 1 899 21 is_stmt 1 view .LVU409
ARM GAS  /var/folders/qx/2_175_4n2s19vhvtspjhb3qh0000gn/T//cc1Hh9yO.s 			page 53


 899:Drivers/lvgl/src/draw/sw/lv_draw_sw_img.c ****                 }
 1158              		.loc 1 899 43 is_stmt 0 view .LVU410
 1159 02b2 00FB16B2 		mls	r2, r0, r6, fp
 899:Drivers/lvgl/src/draw/sw/lv_draw_sw_img.c ****                 }
 1160              		.loc 1 899 29 view .LVU411
 1161 02b6 1344     		add	r3, r3, r2
 1162              	.LVL109:
 899:Drivers/lvgl/src/draw/sw/lv_draw_sw_img.c ****                 }
 1163              		.loc 1 899 29 view .LVU412
 1164              	.LBE76:
 889:Drivers/lvgl/src/draw/sw/lv_draw_sw_img.c ****                     int32_t x;
 1165              		.loc 1 889 36 is_stmt 1 discriminator 2 view .LVU413
 1166 02b8 09F10109 		add	r9, r9, #1
 1167              	.LVL110:
 1168              	.L51:
 889:Drivers/lvgl/src/draw/sw/lv_draw_sw_img.c ****                     int32_t x;
 1169              		.loc 1 889 30 discriminator 1 view .LVU414
 1170 02bc B945     		cmp	r9, r7
 1171 02be 71DA     		bge	.L25
 1172              	.LBB77:
 891:Drivers/lvgl/src/draw/sw/lv_draw_sw_img.c ****                         dest_buf[0] = (c_mult[0] + (src_buf[0] * mix_inv)) >> 8;
 1173              		.loc 1 891 27 is_stmt 0 view .LVU415
 1174 02c0 0021     		movs	r1, #0
 1175 02c2 DFE7     		b	.L54
 1176              	.LVL111:
 1177              	.L29:
 891:Drivers/lvgl/src/draw/sw/lv_draw_sw_img.c ****                         dest_buf[0] = (c_mult[0] + (src_buf[0] * mix_inv)) >> 8;
 1178              		.loc 1 891 27 view .LVU416
 1179              	.LBE77:
 1180              	.LBE81:
 1181              	.LBE74:
 905:Drivers/lvgl/src/draw/sw/lv_draw_sw_img.c ****             uint32_t px_size = lv_color_format_get_size(cf);
 1182              		.loc 1 905 9 is_stmt 1 view .LVU417
 1183              	.LBB82:
 906:Drivers/lvgl/src/draw/sw/lv_draw_sw_img.c ****             src_buf += src_stride * relative_area.y1 + relative_area.x1 * px_size;
 1184              		.loc 1 906 13 view .LVU418
 906:Drivers/lvgl/src/draw/sw/lv_draw_sw_img.c ****             src_buf += src_stride * relative_area.y1 + relative_area.x1 * px_size;
 1185              		.loc 1 906 32 is_stmt 0 view .LVU419
 1186 02c4 4046     		mov	r0, r8
 1187              	.LVL112:
 906:Drivers/lvgl/src/draw/sw/lv_draw_sw_img.c ****             src_buf += src_stride * relative_area.y1 + relative_area.x1 * px_size;
 1188              		.loc 1 906 32 view .LVU420
 1189 02c6 FFF7FEFF 		bl	lv_color_format_get_size
 1190              	.LVL113:
 1191 02ca 8046     		mov	r8, r0
 1192              	.LVL114:
 907:Drivers/lvgl/src/draw/sw/lv_draw_sw_img.c **** 
 1193              		.loc 1 907 13 is_stmt 1 view .LVU421
 907:Drivers/lvgl/src/draw/sw/lv_draw_sw_img.c **** 
 1194              		.loc 1 907 69 is_stmt 0 view .LVU422
 1195 02cc 029B     		ldr	r3, [sp, #8]
 907:Drivers/lvgl/src/draw/sw/lv_draw_sw_img.c **** 
 1196              		.loc 1 907 73 view .LVU423
 1197 02ce 00FB03F3 		mul	r3, r0, r3
 907:Drivers/lvgl/src/draw/sw/lv_draw_sw_img.c **** 
 1198              		.loc 1 907 54 view .LVU424
 1199 02d2 039A     		ldr	r2, [sp, #12]
ARM GAS  /var/folders/qx/2_175_4n2s19vhvtspjhb3qh0000gn/T//cc1Hh9yO.s 			page 54


 1200 02d4 1699     		ldr	r1, [sp, #88]
 1201 02d6 01FB0233 		mla	r3, r1, r2, r3
 907:Drivers/lvgl/src/draw/sw/lv_draw_sw_img.c **** 
 1202              		.loc 1 907 21 view .LVU425
 1203 02da 149A     		ldr	r2, [sp, #80]
 1204 02dc 1344     		add	r3, r3, r2
 1205              	.LVL115:
 909:Drivers/lvgl/src/draw/sw/lv_draw_sw_img.c ****             c_mult[0] = color.blue * mix;
 1206              		.loc 1 909 13 is_stmt 1 view .LVU426
 910:Drivers/lvgl/src/draw/sw/lv_draw_sw_img.c ****             c_mult[1] = color.green * mix;
 1207              		.loc 1 910 13 view .LVU427
 910:Drivers/lvgl/src/draw/sw/lv_draw_sw_img.c ****             c_mult[1] = color.green * mix;
 1208              		.loc 1 910 30 is_stmt 0 view .LVU428
 1209 02de 9DF824B0 		ldrb	fp, [sp, #36]	@ zero_extendqisi2
 910:Drivers/lvgl/src/draw/sw/lv_draw_sw_img.c ****             c_mult[1] = color.green * mix;
 1210              		.loc 1 910 36 view .LVU429
 1211 02e2 0BFB09FB 		mul	fp, fp, r9
 910:Drivers/lvgl/src/draw/sw/lv_draw_sw_img.c ****             c_mult[1] = color.green * mix;
 1212              		.loc 1 910 23 view .LVU430
 1213 02e6 ADF81CB0 		strh	fp, [sp, #28]	@ movhi
 911:Drivers/lvgl/src/draw/sw/lv_draw_sw_img.c ****             c_mult[2] = color.red * mix;
 1214              		.loc 1 911 13 is_stmt 1 view .LVU431
 911:Drivers/lvgl/src/draw/sw/lv_draw_sw_img.c ****             c_mult[2] = color.red * mix;
 1215              		.loc 1 911 30 is_stmt 0 view .LVU432
 1216 02ea 9DF825A0 		ldrb	r10, [sp, #37]	@ zero_extendqisi2
 911:Drivers/lvgl/src/draw/sw/lv_draw_sw_img.c ****             c_mult[2] = color.red * mix;
 1217              		.loc 1 911 37 view .LVU433
 1218 02ee 09FB0AFA 		mul	r10, r9, r10
 911:Drivers/lvgl/src/draw/sw/lv_draw_sw_img.c ****             c_mult[2] = color.red * mix;
 1219              		.loc 1 911 23 view .LVU434
 1220 02f2 ADF81EA0 		strh	r10, [sp, #30]	@ movhi
 912:Drivers/lvgl/src/draw/sw/lv_draw_sw_img.c **** 
 1221              		.loc 1 912 13 is_stmt 1 view .LVU435
 912:Drivers/lvgl/src/draw/sw/lv_draw_sw_img.c **** 
 1222              		.loc 1 912 30 is_stmt 0 view .LVU436
 1223 02f6 9DF82620 		ldrb	r2, [sp, #38]	@ zero_extendqisi2
 912:Drivers/lvgl/src/draw/sw/lv_draw_sw_img.c **** 
 1224              		.loc 1 912 35 view .LVU437
 1225 02fa 09FB02F2 		mul	r2, r9, r2
 912:Drivers/lvgl/src/draw/sw/lv_draw_sw_img.c **** 
 1226              		.loc 1 912 23 view .LVU438
 1227 02fe ADF82020 		strh	r2, [sp, #32]	@ movhi
 914:Drivers/lvgl/src/draw/sw/lv_draw_sw_img.c ****             for(y = 0; y < h; y++) {
 1228              		.loc 1 914 13 is_stmt 1 view .LVU439
 915:Drivers/lvgl/src/draw/sw/lv_draw_sw_img.c ****                 int32_t x;
 1229              		.loc 1 915 13 view .LVU440
 1230              	.LVL116:
 915:Drivers/lvgl/src/draw/sw/lv_draw_sw_img.c ****                 int32_t x;
 1231              		.loc 1 915 19 is_stmt 0 view .LVU441
 1232 0302 0021     		movs	r1, #0
 1233 0304 9146     		mov	r9, r2
 1234              	.LVL117:
 915:Drivers/lvgl/src/draw/sw/lv_draw_sw_img.c ****                 int32_t x;
 1235              		.loc 1 915 19 view .LVU442
 1236 0306 8E46     		mov	lr, r1
 1237 0308 0197     		str	r7, [sp, #4]
 915:Drivers/lvgl/src/draw/sw/lv_draw_sw_img.c ****                 int32_t x;
ARM GAS  /var/folders/qx/2_175_4n2s19vhvtspjhb3qh0000gn/T//cc1Hh9yO.s 			page 55


 1238              		.loc 1 915 13 view .LVU443
 1239 030a 43E0     		b	.L55
 1240              	.LVL118:
 1241              	.L56:
 1242              	.LBB83:
 1243              	.LBB84:
 939:Drivers/lvgl/src/draw/sw/lv_draw_sw_img.c ****                         dest_buf[1] = src_buf[1];
 1244              		.loc 1 939 25 is_stmt 1 view .LVU444
 939:Drivers/lvgl/src/draw/sw/lv_draw_sw_img.c ****                         dest_buf[1] = src_buf[1];
 1245              		.loc 1 939 46 is_stmt 0 view .LVU445
 1246 030c 1A78     		ldrb	r2, [r3]	@ zero_extendqisi2
 939:Drivers/lvgl/src/draw/sw/lv_draw_sw_img.c ****                         dest_buf[1] = src_buf[1];
 1247              		.loc 1 939 37 view .LVU446
 1248 030e 2270     		strb	r2, [r4]
 940:Drivers/lvgl/src/draw/sw/lv_draw_sw_img.c ****                         dest_buf[2] = src_buf[2];
 1249              		.loc 1 940 25 is_stmt 1 view .LVU447
 940:Drivers/lvgl/src/draw/sw/lv_draw_sw_img.c ****                         dest_buf[2] = src_buf[2];
 1250              		.loc 1 940 37 is_stmt 0 view .LVU448
 1251 0310 5A78     		ldrb	r2, [r3, #1]	@ zero_extendqisi2
 1252 0312 6270     		strb	r2, [r4, #1]
 941:Drivers/lvgl/src/draw/sw/lv_draw_sw_img.c ****                     }
 1253              		.loc 1 941 25 is_stmt 1 view .LVU449
 941:Drivers/lvgl/src/draw/sw/lv_draw_sw_img.c ****                     }
 1254              		.loc 1 941 37 is_stmt 0 view .LVU450
 1255 0314 9A78     		ldrb	r2, [r3, #2]	@ zero_extendqisi2
 1256 0316 A270     		strb	r2, [r4, #2]
 1257              	.L57:
 944:Drivers/lvgl/src/draw/sw/lv_draw_sw_img.c **** 
 1258              		.loc 1 944 21 is_stmt 1 view .LVU451
 944:Drivers/lvgl/src/draw/sw/lv_draw_sw_img.c **** 
 1259              		.loc 1 944 33 is_stmt 0 view .LVU452
 1260 0318 E770     		strb	r7, [r4, #3]
 946:Drivers/lvgl/src/draw/sw/lv_draw_sw_img.c ****                     dest_buf += px_size;
 1261              		.loc 1 946 21 is_stmt 1 view .LVU453
 946:Drivers/lvgl/src/draw/sw/lv_draw_sw_img.c ****                     dest_buf += px_size;
 1262              		.loc 1 946 29 is_stmt 0 view .LVU454
 1263 031a 4344     		add	r3, r3, r8
 1264              	.LVL119:
 947:Drivers/lvgl/src/draw/sw/lv_draw_sw_img.c ****                 }
 1265              		.loc 1 947 21 is_stmt 1 view .LVU455
 947:Drivers/lvgl/src/draw/sw/lv_draw_sw_img.c ****                 }
 1266              		.loc 1 947 30 is_stmt 0 view .LVU456
 1267 031c 4444     		add	r4, r4, r8
 1268              	.LVL120:
 947:Drivers/lvgl/src/draw/sw/lv_draw_sw_img.c ****                 }
 1269              		.loc 1 947 30 view .LVU457
 1270              	.LBE84:
 917:Drivers/lvgl/src/draw/sw/lv_draw_sw_img.c ****                     uint8_t alpha = src_buf[3];
 1271              		.loc 1 917 36 is_stmt 1 discriminator 2 view .LVU458
 1272 031e 0CF1010C 		add	ip, ip, #1
 1273              	.LVL121:
 1274              	.L59:
 917:Drivers/lvgl/src/draw/sw/lv_draw_sw_img.c ****                     uint8_t alpha = src_buf[3];
 1275              		.loc 1 917 30 discriminator 1 view .LVU459
 1276 0322 B445     		cmp	ip, r6
 1277 0324 2EDA     		bge	.L77
 1278              	.LBB86:
ARM GAS  /var/folders/qx/2_175_4n2s19vhvtspjhb3qh0000gn/T//cc1Hh9yO.s 			page 56


 918:Drivers/lvgl/src/draw/sw/lv_draw_sw_img.c **** 
 1279              		.loc 1 918 21 view .LVU460
 918:Drivers/lvgl/src/draw/sw/lv_draw_sw_img.c **** 
 1280              		.loc 1 918 29 is_stmt 0 view .LVU461
 1281 0326 DF78     		ldrb	r7, [r3, #3]	@ zero_extendqisi2
 1282              	.LVL122:
 920:Drivers/lvgl/src/draw/sw/lv_draw_sw_img.c ****                         /* Step 1: Unpremultiply (convert to non-premultiplied RGB) */
 1283              		.loc 1 920 21 is_stmt 1 view .LVU462
 920:Drivers/lvgl/src/draw/sw/lv_draw_sw_img.c ****                         /* Step 1: Unpremultiply (convert to non-premultiplied RGB) */
 1284              		.loc 1 920 23 is_stmt 0 view .LVU463
 1285 0328 002F     		cmp	r7, #0
 1286 032a EFD0     		beq	.L56
 1287              	.LBB85:
 922:Drivers/lvgl/src/draw/sw/lv_draw_sw_img.c ****                         uint8_t r = (src_buf[2] * reciprocal) >> 8;
 1288              		.loc 1 922 25 is_stmt 1 view .LVU464
 1289              	.LVL123:
 923:Drivers/lvgl/src/draw/sw/lv_draw_sw_img.c ****                         uint8_t g = (src_buf[1] * reciprocal) >> 8;
 1290              		.loc 1 923 25 view .LVU465
 923:Drivers/lvgl/src/draw/sw/lv_draw_sw_img.c ****                         uint8_t g = (src_buf[1] * reciprocal) >> 8;
 1291              		.loc 1 923 45 is_stmt 0 view .LVU466
 1292 032c 9A78     		ldrb	r2, [r3, #2]	@ zero_extendqisi2
 1293 032e 4FF47F4E 		mov	lr, #65280
 1294 0332 9EFBF7FE 		sdiv	lr, lr, r7
 1295              	.LVL124:
 923:Drivers/lvgl/src/draw/sw/lv_draw_sw_img.c ****                         uint8_t g = (src_buf[1] * reciprocal) >> 8;
 1296              		.loc 1 923 49 view .LVU467
 1297 0336 0EFB02F2 		mul	r2, lr, r2
 1298              	.LVL125:
 924:Drivers/lvgl/src/draw/sw/lv_draw_sw_img.c ****                         uint8_t b = (src_buf[0] * reciprocal) >> 8;
 1299              		.loc 1 924 25 is_stmt 1 view .LVU468
 924:Drivers/lvgl/src/draw/sw/lv_draw_sw_img.c ****                         uint8_t b = (src_buf[0] * reciprocal) >> 8;
 1300              		.loc 1 924 45 is_stmt 0 view .LVU469
 1301 033a 5978     		ldrb	r1, [r3, #1]	@ zero_extendqisi2
 924:Drivers/lvgl/src/draw/sw/lv_draw_sw_img.c ****                         uint8_t b = (src_buf[0] * reciprocal) >> 8;
 1302              		.loc 1 924 49 view .LVU470
 1303 033c 0EFB01F1 		mul	r1, lr, r1
 1304              	.LVL126:
 925:Drivers/lvgl/src/draw/sw/lv_draw_sw_img.c **** 
 1305              		.loc 1 925 25 is_stmt 1 view .LVU471
 925:Drivers/lvgl/src/draw/sw/lv_draw_sw_img.c **** 
 1306              		.loc 1 925 45 is_stmt 0 view .LVU472
 1307 0340 1878     		ldrb	r0, [r3]	@ zero_extendqisi2
 925:Drivers/lvgl/src/draw/sw/lv_draw_sw_img.c **** 
 1308              		.loc 1 925 49 view .LVU473
 1309 0342 0EFB00F0 		mul	r0, lr, r0
 1310              	.LVL127:
 928:Drivers/lvgl/src/draw/sw/lv_draw_sw_img.c ****                         g = (c_mult[1] + (g * mix_inv)) >> 8;
 1311              		.loc 1 928 25 is_stmt 1 view .LVU474
 928:Drivers/lvgl/src/draw/sw/lv_draw_sw_img.c ****                         g = (c_mult[1] + (g * mix_inv)) >> 8;
 1312              		.loc 1 928 45 is_stmt 0 view .LVU475
 1313 0346 C2F30722 		ubfx	r2, r2, #8, #8
 1314              	.LVL128:
 928:Drivers/lvgl/src/draw/sw/lv_draw_sw_img.c ****                         g = (c_mult[1] + (g * mix_inv)) >> 8;
 1315              		.loc 1 928 40 view .LVU476
 1316 034a 05FB0292 		mla	r2, r5, r2, r9
 1317              	.LVL129:
 929:Drivers/lvgl/src/draw/sw/lv_draw_sw_img.c ****                         b = (c_mult[0] + (b * mix_inv)) >> 8;
ARM GAS  /var/folders/qx/2_175_4n2s19vhvtspjhb3qh0000gn/T//cc1Hh9yO.s 			page 57


 1318              		.loc 1 929 25 is_stmt 1 view .LVU477
 929:Drivers/lvgl/src/draw/sw/lv_draw_sw_img.c ****                         b = (c_mult[0] + (b * mix_inv)) >> 8;
 1319              		.loc 1 929 45 is_stmt 0 view .LVU478
 1320 034e C1F30721 		ubfx	r1, r1, #8, #8
 1321              	.LVL130:
 929:Drivers/lvgl/src/draw/sw/lv_draw_sw_img.c ****                         b = (c_mult[0] + (b * mix_inv)) >> 8;
 1322              		.loc 1 929 40 view .LVU479
 1323 0352 05FB01A1 		mla	r1, r5, r1, r10
 1324              	.LVL131:
 930:Drivers/lvgl/src/draw/sw/lv_draw_sw_img.c **** 
 1325              		.loc 1 930 25 is_stmt 1 view .LVU480
 930:Drivers/lvgl/src/draw/sw/lv_draw_sw_img.c **** 
 1326              		.loc 1 930 45 is_stmt 0 view .LVU481
 1327 0356 C0F30720 		ubfx	r0, r0, #8, #8
 1328              	.LVL132:
 930:Drivers/lvgl/src/draw/sw/lv_draw_sw_img.c **** 
 1329              		.loc 1 930 40 view .LVU482
 1330 035a 05FB00B0 		mla	r0, r5, r0, fp
 1331              	.LVL133:
 933:Drivers/lvgl/src/draw/sw/lv_draw_sw_img.c ****                         dest_buf[1] = (g * alpha) >> 8;
 1332              		.loc 1 933 25 is_stmt 1 view .LVU483
 933:Drivers/lvgl/src/draw/sw/lv_draw_sw_img.c ****                         dest_buf[1] = (g * alpha) >> 8;
 1333              		.loc 1 933 42 is_stmt 0 view .LVU484
 1334 035e C0F30720 		ubfx	r0, r0, #8, #8
 1335              	.LVL134:
 933:Drivers/lvgl/src/draw/sw/lv_draw_sw_img.c ****                         dest_buf[1] = (g * alpha) >> 8;
 1336              		.loc 1 933 42 view .LVU485
 1337 0362 07FB00F0 		mul	r0, r7, r0
 933:Drivers/lvgl/src/draw/sw/lv_draw_sw_img.c ****                         dest_buf[1] = (g * alpha) >> 8;
 1338              		.loc 1 933 51 view .LVU486
 1339 0366 0012     		asrs	r0, r0, #8
 933:Drivers/lvgl/src/draw/sw/lv_draw_sw_img.c ****                         dest_buf[1] = (g * alpha) >> 8;
 1340              		.loc 1 933 37 view .LVU487
 1341 0368 2070     		strb	r0, [r4]
 1342              	.LVL135:
 934:Drivers/lvgl/src/draw/sw/lv_draw_sw_img.c ****                         dest_buf[2] = (r * alpha) >> 8;
 1343              		.loc 1 934 25 is_stmt 1 view .LVU488
 934:Drivers/lvgl/src/draw/sw/lv_draw_sw_img.c ****                         dest_buf[2] = (r * alpha) >> 8;
 1344              		.loc 1 934 42 is_stmt 0 view .LVU489
 1345 036a C1F30721 		ubfx	r1, r1, #8, #8
 1346              	.LVL136:
 934:Drivers/lvgl/src/draw/sw/lv_draw_sw_img.c ****                         dest_buf[2] = (r * alpha) >> 8;
 1347              		.loc 1 934 42 view .LVU490
 1348 036e 07FB01F1 		mul	r1, r7, r1
 934:Drivers/lvgl/src/draw/sw/lv_draw_sw_img.c ****                         dest_buf[2] = (r * alpha) >> 8;
 1349              		.loc 1 934 51 view .LVU491
 1350 0372 0912     		asrs	r1, r1, #8
 934:Drivers/lvgl/src/draw/sw/lv_draw_sw_img.c ****                         dest_buf[2] = (r * alpha) >> 8;
 1351              		.loc 1 934 37 view .LVU492
 1352 0374 6170     		strb	r1, [r4, #1]
 935:Drivers/lvgl/src/draw/sw/lv_draw_sw_img.c ****                     }
 1353              		.loc 1 935 25 is_stmt 1 view .LVU493
 935:Drivers/lvgl/src/draw/sw/lv_draw_sw_img.c ****                     }
 1354              		.loc 1 935 42 is_stmt 0 view .LVU494
 1355 0376 C2F30722 		ubfx	r2, r2, #8, #8
 1356              	.LVL137:
 935:Drivers/lvgl/src/draw/sw/lv_draw_sw_img.c ****                     }
ARM GAS  /var/folders/qx/2_175_4n2s19vhvtspjhb3qh0000gn/T//cc1Hh9yO.s 			page 58


 1357              		.loc 1 935 42 view .LVU495
 1358 037a 07FB02F2 		mul	r2, r7, r2
 935:Drivers/lvgl/src/draw/sw/lv_draw_sw_img.c ****                     }
 1359              		.loc 1 935 51 view .LVU496
 1360 037e 1212     		asrs	r2, r2, #8
 935:Drivers/lvgl/src/draw/sw/lv_draw_sw_img.c ****                     }
 1361              		.loc 1 935 37 view .LVU497
 1362 0380 A270     		strb	r2, [r4, #2]
 1363              	.LBE85:
 1364 0382 C9E7     		b	.L57
 1365              	.LVL138:
 1366              	.L77:
 935:Drivers/lvgl/src/draw/sw/lv_draw_sw_img.c ****                     }
 1367              		.loc 1 935 37 view .LVU498
 1368              	.LBE86:
 949:Drivers/lvgl/src/draw/sw/lv_draw_sw_img.c ****             }
 1369              		.loc 1 949 39 view .LVU499
 1370 0384 DDF800E0 		ldr	lr, [sp]
 949:Drivers/lvgl/src/draw/sw/lv_draw_sw_img.c ****             }
 1371              		.loc 1 949 17 is_stmt 1 view .LVU500
 949:Drivers/lvgl/src/draw/sw/lv_draw_sw_img.c ****             }
 1372              		.loc 1 949 39 is_stmt 0 view .LVU501
 1373 0388 169A     		ldr	r2, [sp, #88]
 1374 038a 08FB1622 		mls	r2, r8, r6, r2
 949:Drivers/lvgl/src/draw/sw/lv_draw_sw_img.c ****             }
 1375              		.loc 1 949 25 view .LVU502
 1376 038e 1344     		add	r3, r3, r2
 1377              	.LVL139:
 949:Drivers/lvgl/src/draw/sw/lv_draw_sw_img.c ****             }
 1378              		.loc 1 949 25 view .LVU503
 1379              	.LBE83:
 915:Drivers/lvgl/src/draw/sw/lv_draw_sw_img.c ****                 int32_t x;
 1380              		.loc 1 915 32 is_stmt 1 discriminator 2 view .LVU504
 1381 0390 0EF1010E 		add	lr, lr, #1
 1382              	.LVL140:
 1383              	.L55:
 915:Drivers/lvgl/src/draw/sw/lv_draw_sw_img.c ****                 int32_t x;
 1384              		.loc 1 915 26 discriminator 1 view .LVU505
 1385 0394 019A     		ldr	r2, [sp, #4]
 1386 0396 9645     		cmp	lr, r2
 1387 0398 04DA     		bge	.L25
 1388              	.LBB87:
 917:Drivers/lvgl/src/draw/sw/lv_draw_sw_img.c ****                     uint8_t alpha = src_buf[3];
 1389              		.loc 1 917 23 is_stmt 0 view .LVU506
 1390 039a 4FF0000C 		mov	ip, #0
 1391 039e CDF800E0 		str	lr, [sp]
 1392 03a2 BEE7     		b	.L59
 1393              	.LVL141:
 1394              	.L25:
 917:Drivers/lvgl/src/draw/sw/lv_draw_sw_img.c ****                     uint8_t alpha = src_buf[3];
 1395              		.loc 1 917 23 view .LVU507
 1396              	.LBE87:
 1397              	.LBE82:
 953:Drivers/lvgl/src/draw/sw/lv_draw_sw_img.c **** 
 1398              		.loc 1 953 1 view .LVU508
 1399 03a4 0BB0     		add	sp, sp, #44
 1400              	.LCFI9:
ARM GAS  /var/folders/qx/2_175_4n2s19vhvtspjhb3qh0000gn/T//cc1Hh9yO.s 			page 59


 1401              		.cfi_def_cfa_offset 36
 1402              		@ sp needed
 1403 03a6 BDE8F08F 		pop	{r4, r5, r6, r7, r8, r9, r10, fp, pc}
 953:Drivers/lvgl/src/draw/sw/lv_draw_sw_img.c **** 
 1404              		.loc 1 953 1 view .LVU509
 1405              		.cfi_endproc
 1406              	.LFE200:
 1408              		.section	.text.recolor_only,"ax",%progbits
 1409              		.align	1
 1410              		.syntax unified
 1411              		.thumb
 1412              		.thumb_func
 1414              	recolor_only:
 1415              	.LVL142:
 1416              	.LFB197:
 398:Drivers/lvgl/src/draw/sw/lv_draw_sw_img.c ****     lv_area_t blend_area = *clipped_img_area;
 1417              		.loc 1 398 1 is_stmt 1 view -0
 1418              		.cfi_startproc
 1419              		@ args = 4, pretend = 0, frame = 96
 1420              		@ frame_needed = 0, uses_anonymous_args = 0
 398:Drivers/lvgl/src/draw/sw/lv_draw_sw_img.c ****     lv_area_t blend_area = *clipped_img_area;
 1421              		.loc 1 398 1 is_stmt 0 view .LVU511
 1422 0000 2DE9F04F 		push	{r4, r5, r6, r7, r8, r9, r10, fp, lr}
 1423              	.LCFI10:
 1424              		.cfi_def_cfa_offset 36
 1425              		.cfi_offset 4, -36
 1426              		.cfi_offset 5, -32
 1427              		.cfi_offset 6, -28
 1428              		.cfi_offset 7, -24
 1429              		.cfi_offset 8, -20
 1430              		.cfi_offset 9, -16
 1431              		.cfi_offset 10, -12
 1432              		.cfi_offset 11, -8
 1433              		.cfi_offset 14, -4
 1434 0004 9FB0     		sub	sp, sp, #124
 1435              	.LCFI11:
 1436              		.cfi_def_cfa_offset 160
 1437 0006 0790     		str	r0, [sp, #28]
 1438 0008 8846     		mov	r8, r1
 1439 000a 1446     		mov	r4, r2
 1440 000c 1D46     		mov	r5, r3
 1441 000e 289B     		ldr	r3, [sp, #160]
 1442              	.LVL143:
 399:Drivers/lvgl/src/draw/sw/lv_draw_sw_img.c **** 
 1443              		.loc 1 399 5 is_stmt 1 view .LVU512
 399:Drivers/lvgl/src/draw/sw/lv_draw_sw_img.c **** 
 1444              		.loc 1 399 15 is_stmt 0 view .LVU513
 1445 0010 1AAE     		add	r6, sp, #104
 1446 0012 0FCB     		ldm	r3, {r0, r1, r2, r3}
 1447              	.LVL144:
 399:Drivers/lvgl/src/draw/sw/lv_draw_sw_img.c **** 
 1448              		.loc 1 399 15 view .LVU514
 1449 0014 86E80F00 		stm	r6, {r0, r1, r2, r3}
 401:Drivers/lvgl/src/draw/sw/lv_draw_sw_img.c ****     uint32_t img_stride = decoded->header.stride;
 1450              		.loc 1 401 5 is_stmt 1 view .LVU515
 401:Drivers/lvgl/src/draw/sw/lv_draw_sw_img.c ****     uint32_t img_stride = decoded->header.stride;
 1451              		.loc 1 401 27 is_stmt 0 view .LVU516
ARM GAS  /var/folders/qx/2_175_4n2s19vhvtspjhb3qh0000gn/T//cc1Hh9yO.s 			page 60


 1452 0018 D4F82C90 		ldr	r9, [r4, #44]
 1453              	.LVL145:
 402:Drivers/lvgl/src/draw/sw/lv_draw_sw_img.c ****     lv_color_format_t cf = decoded->header.cf;
 1454              		.loc 1 402 5 is_stmt 1 view .LVU517
 402:Drivers/lvgl/src/draw/sw/lv_draw_sw_img.c ****     lv_color_format_t cf = decoded->header.cf;
 1455              		.loc 1 402 42 is_stmt 0 view .LVU518
 1456 001c B9F808B0 		ldrh	fp, [r9, #8]
 1457              	.LVL146:
 403:Drivers/lvgl/src/draw/sw/lv_draw_sw_img.c ****     uint32_t px_size = lv_color_format_get_size(cf);
 1458              		.loc 1 403 5 is_stmt 1 view .LVU519
 403:Drivers/lvgl/src/draw/sw/lv_draw_sw_img.c ****     uint32_t px_size = lv_color_format_get_size(cf);
 1459              		.loc 1 403 23 is_stmt 0 view .LVU520
 1460 0020 99F80140 		ldrb	r4, [r9, #1]	@ zero_extendqisi2
 1461              	.LVL147:
 404:Drivers/lvgl/src/draw/sw/lv_draw_sw_img.c ****     int32_t src_h = lv_area_get_height(img_coords);
 1462              		.loc 1 404 5 is_stmt 1 view .LVU521
 404:Drivers/lvgl/src/draw/sw/lv_draw_sw_img.c ****     int32_t src_h = lv_area_get_height(img_coords);
 1463              		.loc 1 404 24 is_stmt 0 view .LVU522
 1464 0024 2046     		mov	r0, r4
 1465 0026 FFF7FEFF 		bl	lv_color_format_get_size
 1466              	.LVL148:
 1467 002a 0890     		str	r0, [sp, #32]
 1468              	.LVL149:
 405:Drivers/lvgl/src/draw/sw/lv_draw_sw_img.c ****     int32_t blend_w = lv_area_get_width(&blend_area);
 1469              		.loc 1 405 5 is_stmt 1 view .LVU523
 405:Drivers/lvgl/src/draw/sw/lv_draw_sw_img.c ****     int32_t blend_w = lv_area_get_width(&blend_area);
 1470              		.loc 1 405 21 is_stmt 0 view .LVU524
 1471 002c 2846     		mov	r0, r5
 1472              	.LVL150:
 405:Drivers/lvgl/src/draw/sw/lv_draw_sw_img.c ****     int32_t blend_w = lv_area_get_width(&blend_area);
 1473              		.loc 1 405 21 view .LVU525
 1474 002e FFF7FEFF 		bl	lv_area_get_height
 1475              	.LVL151:
 1476 0032 0990     		str	r0, [sp, #36]
 1477              	.LVL152:
 406:Drivers/lvgl/src/draw/sw/lv_draw_sw_img.c ****     int32_t blend_h = lv_area_get_height(&blend_area);
 1478              		.loc 1 406 5 is_stmt 1 view .LVU526
 406:Drivers/lvgl/src/draw/sw/lv_draw_sw_img.c ****     int32_t blend_h = lv_area_get_height(&blend_area);
 1479              		.loc 1 406 23 is_stmt 0 view .LVU527
 1480 0034 3046     		mov	r0, r6
 1481              	.LVL153:
 406:Drivers/lvgl/src/draw/sw/lv_draw_sw_img.c ****     int32_t blend_h = lv_area_get_height(&blend_area);
 1482              		.loc 1 406 23 view .LVU528
 1483 0036 FFF7FEFF 		bl	lv_area_get_width
 1484              	.LVL154:
 1485 003a 8246     		mov	r10, r0
 1486              	.LVL155:
 407:Drivers/lvgl/src/draw/sw/lv_draw_sw_img.c ****     uint8_t * tmp_buf;
 1487              		.loc 1 407 5 is_stmt 1 view .LVU529
 407:Drivers/lvgl/src/draw/sw/lv_draw_sw_img.c ****     uint8_t * tmp_buf;
 1488              		.loc 1 407 23 is_stmt 0 view .LVU530
 1489 003c 3046     		mov	r0, r6
 1490              	.LVL156:
 407:Drivers/lvgl/src/draw/sw/lv_draw_sw_img.c ****     uint8_t * tmp_buf;
 1491              		.loc 1 407 23 view .LVU531
 1492 003e FFF7FEFF 		bl	lv_area_get_height
 1493              	.LVL157:
ARM GAS  /var/folders/qx/2_175_4n2s19vhvtspjhb3qh0000gn/T//cc1Hh9yO.s 			page 61


 1494 0042 0746     		mov	r7, r0
 1495              	.LVL158:
 408:Drivers/lvgl/src/draw/sw/lv_draw_sw_img.c ****     int32_t buf_h;
 1496              		.loc 1 408 5 is_stmt 1 view .LVU532
 409:Drivers/lvgl/src/draw/sw/lv_draw_sw_img.c ****     uint32_t buf_stride = blend_w * px_size;
 1497              		.loc 1 409 5 view .LVU533
 410:Drivers/lvgl/src/draw/sw/lv_draw_sw_img.c ****     if(buf_stride == 0) {
 1498              		.loc 1 410 5 view .LVU534
 410:Drivers/lvgl/src/draw/sw/lv_draw_sw_img.c ****     if(buf_stride == 0) {
 1499              		.loc 1 410 14 is_stmt 0 view .LVU535
 1500 0044 089B     		ldr	r3, [sp, #32]
 1501 0046 03FB0AF6 		mul	r6, r3, r10
 1502              	.LVL159:
 411:Drivers/lvgl/src/draw/sw/lv_draw_sw_img.c ****         buf_stride = 1;
 1503              		.loc 1 411 5 is_stmt 1 view .LVU536
 411:Drivers/lvgl/src/draw/sw/lv_draw_sw_img.c ****         buf_stride = 1;
 1504              		.loc 1 411 7 is_stmt 0 view .LVU537
 1505 004a 002E     		cmp	r6, #0
 1506 004c 69D0     		beq	.L87
 410:Drivers/lvgl/src/draw/sw/lv_draw_sw_img.c ****     if(buf_stride == 0) {
 1507              		.loc 1 410 14 view .LVU538
 1508 004e B246     		mov	r10, r6
 1509              	.LVL160:
 1510              	.L79:
 414:Drivers/lvgl/src/draw/sw/lv_draw_sw_img.c ****     if(buf_h > blend_h) buf_h = blend_h;
 1511              		.loc 1 414 5 is_stmt 1 view .LVU539
 414:Drivers/lvgl/src/draw/sw/lv_draw_sw_img.c ****     if(buf_h > blend_h) buf_h = blend_h;
 1512              		.loc 1 414 13 is_stmt 0 view .LVU540
 1513 0050 FFF7FEFF 		bl	lv_refr_get_disp_refreshing
 1514              	.LVL161:
 414:Drivers/lvgl/src/draw/sw/lv_draw_sw_img.c ****     if(buf_h > blend_h) buf_h = blend_h;
 1515              		.loc 1 414 13 discriminator 1 view .LVU541
 1516 0054 FFF7FEFF 		bl	lv_display_get_horizontal_resolution
 1517              	.LVL162:
 1518 0058 0890     		str	r0, [sp, #32]
 1519              	.LVL163:
 414:Drivers/lvgl/src/draw/sw/lv_draw_sw_img.c ****     if(buf_h > blend_h) buf_h = blend_h;
 1520              		.loc 1 414 13 discriminator 2 view .LVU542
 1521 005a FFF7FEFF 		bl	lv_refr_get_disp_refreshing
 1522              	.LVL164:
 414:Drivers/lvgl/src/draw/sw/lv_draw_sw_img.c ****     if(buf_h > blend_h) buf_h = blend_h;
 1523              		.loc 1 414 13 discriminator 3 view .LVU543
 1524 005e FFF7FEFF 		bl	lv_display_get_color_format
 1525              	.LVL165:
 414:Drivers/lvgl/src/draw/sw/lv_draw_sw_img.c ****     if(buf_h > blend_h) buf_h = blend_h;
 1526              		.loc 1 414 13 discriminator 4 view .LVU544
 1527 0062 FFF7FEFF 		bl	lv_color_format_get_size
 1528              	.LVL166:
 414:Drivers/lvgl/src/draw/sw/lv_draw_sw_img.c ****     if(buf_h > blend_h) buf_h = blend_h;
 1529              		.loc 1 414 13 discriminator 5 view .LVU545
 1530 0066 089B     		ldr	r3, [sp, #32]
 1531 0068 00FB03F3 		mul	r3, r0, r3
 1532 006c 9B00     		lsls	r3, r3, #2
 414:Drivers/lvgl/src/draw/sw/lv_draw_sw_img.c ****     if(buf_h > blend_h) buf_h = blend_h;
 1533              		.loc 1 414 26 discriminator 5 view .LVU546
 1534 006e B3FBFAF3 		udiv	r3, r3, r10
 1535              	.LVL167:
ARM GAS  /var/folders/qx/2_175_4n2s19vhvtspjhb3qh0000gn/T//cc1Hh9yO.s 			page 62


 415:Drivers/lvgl/src/draw/sw/lv_draw_sw_img.c ****     tmp_buf = lv_malloc(buf_stride * buf_h);
 1536              		.loc 1 415 5 is_stmt 1 view .LVU547
 415:Drivers/lvgl/src/draw/sw/lv_draw_sw_img.c ****     tmp_buf = lv_malloc(buf_stride * buf_h);
 1537              		.loc 1 415 7 is_stmt 0 view .LVU548
 1538 0072 9F42     		cmp	r7, r3
 1539 0074 00DB     		blt	.L80
 414:Drivers/lvgl/src/draw/sw/lv_draw_sw_img.c ****     if(buf_h > blend_h) buf_h = blend_h;
 1540              		.loc 1 414 11 discriminator 5 view .LVU549
 1541 0076 1F46     		mov	r7, r3
 1542              	.LVL168:
 1543              	.L80:
 416:Drivers/lvgl/src/draw/sw/lv_draw_sw_img.c ****     LV_ASSERT_MALLOC(tmp_buf);
 1544              		.loc 1 416 5 is_stmt 1 view .LVU550
 416:Drivers/lvgl/src/draw/sw/lv_draw_sw_img.c ****     LV_ASSERT_MALLOC(tmp_buf);
 1545              		.loc 1 416 15 is_stmt 0 view .LVU551
 1546 0078 0AFB07F0 		mul	r0, r10, r7
 1547 007c FFF7FEFF 		bl	lv_malloc
 1548              	.LVL169:
 417:Drivers/lvgl/src/draw/sw/lv_draw_sw_img.c ****     if(!tmp_buf) {
 1549              		.loc 1 417 5 is_stmt 1 view .LVU552
 417:Drivers/lvgl/src/draw/sw/lv_draw_sw_img.c ****     if(!tmp_buf) {
 1550              		.loc 1 417 5 view .LVU553
 1551 0080 8246     		mov	r10, r0
 1552              	.LVL170:
 417:Drivers/lvgl/src/draw/sw/lv_draw_sw_img.c ****     if(!tmp_buf) {
 1553              		.loc 1 417 5 is_stmt 0 view .LVU554
 1554 0082 0028     		cmp	r0, #0
 1555 0084 50D0     		beq	.L82
 417:Drivers/lvgl/src/draw/sw/lv_draw_sw_img.c ****     if(!tmp_buf) {
 1556              		.loc 1 417 5 is_stmt 1 view .LVU555
 417:Drivers/lvgl/src/draw/sw/lv_draw_sw_img.c ****     if(!tmp_buf) {
 1557              		.loc 1 417 30 view .LVU556
 418:Drivers/lvgl/src/draw/sw/lv_draw_sw_img.c ****         LV_LOG_WARN("Failed to perform image recolor operation. Out of memory");
 1558              		.loc 1 418 5 view .LVU557
 423:Drivers/lvgl/src/draw/sw/lv_draw_sw_img.c ****     lv_memzero(&blend_dsc, sizeof(lv_draw_sw_blend_dsc_t));
 1559              		.loc 1 423 5 view .LVU558
 424:Drivers/lvgl/src/draw/sw/lv_draw_sw_img.c ****     blend_dsc.opa = draw_dsc->opa;
 1560              		.loc 1 424 5 view .LVU559
 1561              	.LVL171:
 1562              	.LBB88:
 1563              	.LBI88:
 1564              		.file 3 "Drivers/lvgl/src/draw/sw/blend/../../../misc/../stdlib/lv_string.h"
   1:Drivers/lvgl/src/draw/sw/blend/../../../misc/../stdlib/lv_string.h **** /**
   2:Drivers/lvgl/src/draw/sw/blend/../../../misc/../stdlib/lv_string.h ****  * @file lv_string.h
   3:Drivers/lvgl/src/draw/sw/blend/../../../misc/../stdlib/lv_string.h ****  *
   4:Drivers/lvgl/src/draw/sw/blend/../../../misc/../stdlib/lv_string.h ****  */
   5:Drivers/lvgl/src/draw/sw/blend/../../../misc/../stdlib/lv_string.h **** 
   6:Drivers/lvgl/src/draw/sw/blend/../../../misc/../stdlib/lv_string.h **** #ifndef LV_STRING_H
   7:Drivers/lvgl/src/draw/sw/blend/../../../misc/../stdlib/lv_string.h **** #define LV_STRING_H
   8:Drivers/lvgl/src/draw/sw/blend/../../../misc/../stdlib/lv_string.h **** 
   9:Drivers/lvgl/src/draw/sw/blend/../../../misc/../stdlib/lv_string.h **** #ifdef __cplusplus
  10:Drivers/lvgl/src/draw/sw/blend/../../../misc/../stdlib/lv_string.h **** extern "C" {
  11:Drivers/lvgl/src/draw/sw/blend/../../../misc/../stdlib/lv_string.h **** #endif
  12:Drivers/lvgl/src/draw/sw/blend/../../../misc/../stdlib/lv_string.h **** 
  13:Drivers/lvgl/src/draw/sw/blend/../../../misc/../stdlib/lv_string.h **** /*********************
  14:Drivers/lvgl/src/draw/sw/blend/../../../misc/../stdlib/lv_string.h ****  *      INCLUDES
  15:Drivers/lvgl/src/draw/sw/blend/../../../misc/../stdlib/lv_string.h ****  *********************/
ARM GAS  /var/folders/qx/2_175_4n2s19vhvtspjhb3qh0000gn/T//cc1Hh9yO.s 			page 63


  16:Drivers/lvgl/src/draw/sw/blend/../../../misc/../stdlib/lv_string.h **** #include "../lv_conf_internal.h"
  17:Drivers/lvgl/src/draw/sw/blend/../../../misc/../stdlib/lv_string.h **** #include "../misc/lv_types.h"
  18:Drivers/lvgl/src/draw/sw/blend/../../../misc/../stdlib/lv_string.h **** 
  19:Drivers/lvgl/src/draw/sw/blend/../../../misc/../stdlib/lv_string.h **** /*********************
  20:Drivers/lvgl/src/draw/sw/blend/../../../misc/../stdlib/lv_string.h ****  *      DEFINES
  21:Drivers/lvgl/src/draw/sw/blend/../../../misc/../stdlib/lv_string.h ****  *********************/
  22:Drivers/lvgl/src/draw/sw/blend/../../../misc/../stdlib/lv_string.h **** 
  23:Drivers/lvgl/src/draw/sw/blend/../../../misc/../stdlib/lv_string.h **** /**********************
  24:Drivers/lvgl/src/draw/sw/blend/../../../misc/../stdlib/lv_string.h ****  *      TYPEDEFS
  25:Drivers/lvgl/src/draw/sw/blend/../../../misc/../stdlib/lv_string.h ****  **********************/
  26:Drivers/lvgl/src/draw/sw/blend/../../../misc/../stdlib/lv_string.h **** 
  27:Drivers/lvgl/src/draw/sw/blend/../../../misc/../stdlib/lv_string.h **** /**********************
  28:Drivers/lvgl/src/draw/sw/blend/../../../misc/../stdlib/lv_string.h ****  * GLOBAL PROTOTYPES
  29:Drivers/lvgl/src/draw/sw/blend/../../../misc/../stdlib/lv_string.h ****  **********************/
  30:Drivers/lvgl/src/draw/sw/blend/../../../misc/../stdlib/lv_string.h **** 
  31:Drivers/lvgl/src/draw/sw/blend/../../../misc/../stdlib/lv_string.h **** /**
  32:Drivers/lvgl/src/draw/sw/blend/../../../misc/../stdlib/lv_string.h ****  * @brief Copies a block of memory from a source address to a destination address.
  33:Drivers/lvgl/src/draw/sw/blend/../../../misc/../stdlib/lv_string.h ****  * @param dst Pointer to the destination array where the content is to be copied.
  34:Drivers/lvgl/src/draw/sw/blend/../../../misc/../stdlib/lv_string.h ****  * @param src Pointer to the source of data to be copied.
  35:Drivers/lvgl/src/draw/sw/blend/../../../misc/../stdlib/lv_string.h ****  * @param len Number of bytes to copy.
  36:Drivers/lvgl/src/draw/sw/blend/../../../misc/../stdlib/lv_string.h ****  * @return Pointer to the destination array.
  37:Drivers/lvgl/src/draw/sw/blend/../../../misc/../stdlib/lv_string.h ****  * @note The function does not check for any overlapping of the source and destination memory block
  38:Drivers/lvgl/src/draw/sw/blend/../../../misc/../stdlib/lv_string.h ****  */
  39:Drivers/lvgl/src/draw/sw/blend/../../../misc/../stdlib/lv_string.h **** void * lv_memcpy(void * dst, const void * src, size_t len);
  40:Drivers/lvgl/src/draw/sw/blend/../../../misc/../stdlib/lv_string.h **** 
  41:Drivers/lvgl/src/draw/sw/blend/../../../misc/../stdlib/lv_string.h **** /**
  42:Drivers/lvgl/src/draw/sw/blend/../../../misc/../stdlib/lv_string.h ****  * @brief Fills a block of memory with a specified value.
  43:Drivers/lvgl/src/draw/sw/blend/../../../misc/../stdlib/lv_string.h ****  * @param dst Pointer to the destination array to fill with the specified value.
  44:Drivers/lvgl/src/draw/sw/blend/../../../misc/../stdlib/lv_string.h ****  * @param v Value to be set. The value is passed as an int, but the function fills
  45:Drivers/lvgl/src/draw/sw/blend/../../../misc/../stdlib/lv_string.h ****  *          the block of memory using the unsigned char conversion of this value.
  46:Drivers/lvgl/src/draw/sw/blend/../../../misc/../stdlib/lv_string.h ****  * @param len Number of bytes to be set to the value.
  47:Drivers/lvgl/src/draw/sw/blend/../../../misc/../stdlib/lv_string.h ****  */
  48:Drivers/lvgl/src/draw/sw/blend/../../../misc/../stdlib/lv_string.h **** void lv_memset(void * dst, uint8_t v, size_t len);
  49:Drivers/lvgl/src/draw/sw/blend/../../../misc/../stdlib/lv_string.h **** 
  50:Drivers/lvgl/src/draw/sw/blend/../../../misc/../stdlib/lv_string.h **** /**
  51:Drivers/lvgl/src/draw/sw/blend/../../../misc/../stdlib/lv_string.h ****  * @brief Move a block of memory from source to destination
  52:Drivers/lvgl/src/draw/sw/blend/../../../misc/../stdlib/lv_string.h ****  * @param dst Pointer to the destination array where the content is to be copied.
  53:Drivers/lvgl/src/draw/sw/blend/../../../misc/../stdlib/lv_string.h ****  * @param src Pointer to the source of data to be copied.
  54:Drivers/lvgl/src/draw/sw/blend/../../../misc/../stdlib/lv_string.h ****  * @param len Number of bytes to copy
  55:Drivers/lvgl/src/draw/sw/blend/../../../misc/../stdlib/lv_string.h ****  * @return Pointer to the destination array.
  56:Drivers/lvgl/src/draw/sw/blend/../../../misc/../stdlib/lv_string.h ****  */
  57:Drivers/lvgl/src/draw/sw/blend/../../../misc/../stdlib/lv_string.h **** void * lv_memmove(void * dst, const void * src, size_t len);
  58:Drivers/lvgl/src/draw/sw/blend/../../../misc/../stdlib/lv_string.h **** 
  59:Drivers/lvgl/src/draw/sw/blend/../../../misc/../stdlib/lv_string.h **** /**
  60:Drivers/lvgl/src/draw/sw/blend/../../../misc/../stdlib/lv_string.h ****  * @brief This function will compare two memory blocks
  61:Drivers/lvgl/src/draw/sw/blend/../../../misc/../stdlib/lv_string.h ****  * @param p1 Pointer to the first memory block
  62:Drivers/lvgl/src/draw/sw/blend/../../../misc/../stdlib/lv_string.h ****  * @param p2 Pointer to the second memory block
  63:Drivers/lvgl/src/draw/sw/blend/../../../misc/../stdlib/lv_string.h ****  * @param len Number of bytes to compare
  64:Drivers/lvgl/src/draw/sw/blend/../../../misc/../stdlib/lv_string.h ****  * @return The difference between the value of the first unmatching byte.
  65:Drivers/lvgl/src/draw/sw/blend/../../../misc/../stdlib/lv_string.h ****  */
  66:Drivers/lvgl/src/draw/sw/blend/../../../misc/../stdlib/lv_string.h **** int lv_memcmp(const void * p1, const void * p2, size_t len);
  67:Drivers/lvgl/src/draw/sw/blend/../../../misc/../stdlib/lv_string.h **** 
  68:Drivers/lvgl/src/draw/sw/blend/../../../misc/../stdlib/lv_string.h **** /**
  69:Drivers/lvgl/src/draw/sw/blend/../../../misc/../stdlib/lv_string.h ****  * Same as `memset(dst, 0x00, len)`.
  70:Drivers/lvgl/src/draw/sw/blend/../../../misc/../stdlib/lv_string.h ****  * @param dst pointer to the destination buffer
  71:Drivers/lvgl/src/draw/sw/blend/../../../misc/../stdlib/lv_string.h ****  * @param len number of byte to set
  72:Drivers/lvgl/src/draw/sw/blend/../../../misc/../stdlib/lv_string.h ****  */
ARM GAS  /var/folders/qx/2_175_4n2s19vhvtspjhb3qh0000gn/T//cc1Hh9yO.s 			page 64


  73:Drivers/lvgl/src/draw/sw/blend/../../../misc/../stdlib/lv_string.h **** static inline void lv_memzero(void * dst, size_t len)
 1565              		.loc 3 73 20 view .LVU560
 1566              	.LBB89:
  74:Drivers/lvgl/src/draw/sw/blend/../../../misc/../stdlib/lv_string.h **** {
  75:Drivers/lvgl/src/draw/sw/blend/../../../misc/../stdlib/lv_string.h ****     lv_memset(dst, 0x00, len);
 1567              		.loc 3 75 5 view .LVU561
 1568 0086 2C22     		movs	r2, #44
 1569 0088 0021     		movs	r1, #0
 1570 008a 0FA8     		add	r0, sp, #60
 1571              	.LVL172:
 1572              		.loc 3 75 5 is_stmt 0 view .LVU562
 1573 008c FFF7FEFF 		bl	lv_memset
 1574              	.LVL173:
 1575              		.loc 3 75 5 view .LVU563
 1576              	.LBE89:
 1577              	.LBE88:
 425:Drivers/lvgl/src/draw/sw/lv_draw_sw_img.c ****     blend_dsc.blend_mode = draw_dsc->blend_mode;
 1578              		.loc 1 425 5 is_stmt 1 view .LVU564
 425:Drivers/lvgl/src/draw/sw/lv_draw_sw_img.c ****     blend_dsc.blend_mode = draw_dsc->blend_mode;
 1579              		.loc 1 425 29 is_stmt 0 view .LVU565
 1580 0090 98F85030 		ldrb	r3, [r8, #80]	@ zero_extendqisi2
 425:Drivers/lvgl/src/draw/sw/lv_draw_sw_img.c ****     blend_dsc.blend_mode = draw_dsc->blend_mode;
 1581              		.loc 1 425 19 view .LVU566
 1582 0094 8DF85030 		strb	r3, [sp, #80]
 426:Drivers/lvgl/src/draw/sw/lv_draw_sw_img.c ****     blend_dsc.src_stride = blend_w * px_size;
 1583              		.loc 1 426 5 is_stmt 1 view .LVU567
 426:Drivers/lvgl/src/draw/sw/lv_draw_sw_img.c ****     blend_dsc.src_stride = blend_w * px_size;
 1584              		.loc 1 426 36 is_stmt 0 view .LVU568
 1585 0098 98F85130 		ldrb	r3, [r8, #81]	@ zero_extendqisi2
 1586 009c C3F30303 		ubfx	r3, r3, #0, #4
 426:Drivers/lvgl/src/draw/sw/lv_draw_sw_img.c ****     blend_dsc.src_stride = blend_w * px_size;
 1587              		.loc 1 426 26 view .LVU569
 1588 00a0 8DF86430 		strb	r3, [sp, #100]
 427:Drivers/lvgl/src/draw/sw/lv_draw_sw_img.c ****     blend_dsc.src_area = &blend_area;
 1589              		.loc 1 427 5 is_stmt 1 view .LVU570
 427:Drivers/lvgl/src/draw/sw/lv_draw_sw_img.c ****     blend_dsc.src_area = &blend_area;
 1590              		.loc 1 427 26 is_stmt 0 view .LVU571
 1591 00a4 1196     		str	r6, [sp, #68]
 428:Drivers/lvgl/src/draw/sw/lv_draw_sw_img.c ****     blend_dsc.blend_area = &blend_area;
 1592              		.loc 1 428 5 is_stmt 1 view .LVU572
 428:Drivers/lvgl/src/draw/sw/lv_draw_sw_img.c ****     blend_dsc.blend_area = &blend_area;
 1593              		.loc 1 428 24 is_stmt 0 view .LVU573
 1594 00a6 1AAB     		add	r3, sp, #104
 1595 00a8 1393     		str	r3, [sp, #76]
 429:Drivers/lvgl/src/draw/sw/lv_draw_sw_img.c ****     blend_dsc.src_buf = tmp_buf;
 1596              		.loc 1 429 5 is_stmt 1 view .LVU574
 429:Drivers/lvgl/src/draw/sw/lv_draw_sw_img.c ****     blend_dsc.src_buf = tmp_buf;
 1597              		.loc 1 429 26 is_stmt 0 view .LVU575
 1598 00aa 0F93     		str	r3, [sp, #60]
 430:Drivers/lvgl/src/draw/sw/lv_draw_sw_img.c ****     blend_dsc.src_color_format = cf;
 1599              		.loc 1 430 5 is_stmt 1 view .LVU576
 430:Drivers/lvgl/src/draw/sw/lv_draw_sw_img.c ****     blend_dsc.src_color_format = cf;
 1600              		.loc 1 430 23 is_stmt 0 view .LVU577
 1601 00ac CDF840A0 		str	r10, [sp, #64]
 431:Drivers/lvgl/src/draw/sw/lv_draw_sw_img.c ****     if(cf == LV_COLOR_FORMAT_RGB565A8) {
 1602              		.loc 1 431 5 is_stmt 1 view .LVU578
 431:Drivers/lvgl/src/draw/sw/lv_draw_sw_img.c ****     if(cf == LV_COLOR_FORMAT_RGB565A8) {
ARM GAS  /var/folders/qx/2_175_4n2s19vhvtspjhb3qh0000gn/T//cc1Hh9yO.s 			page 65


 1603              		.loc 1 431 32 is_stmt 0 view .LVU579
 1604 00b0 8DF84840 		strb	r4, [sp, #72]
 432:Drivers/lvgl/src/draw/sw/lv_draw_sw_img.c ****         blend_dsc.mask_area = img_coords;
 1605              		.loc 1 432 5 is_stmt 1 view .LVU580
 432:Drivers/lvgl/src/draw/sw/lv_draw_sw_img.c ****         blend_dsc.mask_area = img_coords;
 1606              		.loc 1 432 7 is_stmt 0 view .LVU581
 1607 00b4 142C     		cmp	r4, #20
 1608 00b6 38D0     		beq	.L89
 1609              	.L83:
 440:Drivers/lvgl/src/draw/sw/lv_draw_sw_img.c ****     blend_area.y2 = blend_area.y1 + buf_h - 1;
 1610              		.loc 1 440 5 is_stmt 1 view .LVU582
 440:Drivers/lvgl/src/draw/sw/lv_draw_sw_img.c ****     blend_area.y2 = blend_area.y1 + buf_h - 1;
 1611              		.loc 1 440 13 is_stmt 0 view .LVU583
 1612 00b8 1D9E     		ldr	r6, [sp, #116]
 1613              	.LVL174:
 441:Drivers/lvgl/src/draw/sw/lv_draw_sw_img.c ****     while(blend_area.y1 <= y_last) {
 1614              		.loc 1 441 5 is_stmt 1 view .LVU584
 441:Drivers/lvgl/src/draw/sw/lv_draw_sw_img.c ****     while(blend_area.y1 <= y_last) {
 1615              		.loc 1 441 31 is_stmt 0 view .LVU585
 1616 00ba 1B9B     		ldr	r3, [sp, #108]
 441:Drivers/lvgl/src/draw/sw/lv_draw_sw_img.c ****     while(blend_area.y1 <= y_last) {
 1617              		.loc 1 441 35 view .LVU586
 1618 00bc 3B44     		add	r3, r3, r7
 441:Drivers/lvgl/src/draw/sw/lv_draw_sw_img.c ****     while(blend_area.y1 <= y_last) {
 1619              		.loc 1 441 43 view .LVU587
 1620 00be 013B     		subs	r3, r3, #1
 441:Drivers/lvgl/src/draw/sw/lv_draw_sw_img.c ****     while(blend_area.y1 <= y_last) {
 1621              		.loc 1 441 19 view .LVU588
 1622 00c0 1D93     		str	r3, [sp, #116]
 442:Drivers/lvgl/src/draw/sw/lv_draw_sw_img.c ****         lv_area_t relative_area;
 1623              		.loc 1 442 5 is_stmt 1 view .LVU589
 1624              	.LVL175:
 1625              	.L84:
 442:Drivers/lvgl/src/draw/sw/lv_draw_sw_img.c ****         lv_area_t relative_area;
 1626              		.loc 1 442 25 view .LVU590
 442:Drivers/lvgl/src/draw/sw/lv_draw_sw_img.c ****         lv_area_t relative_area;
 1627              		.loc 1 442 21 is_stmt 0 view .LVU591
 1628 00c2 1B9B     		ldr	r3, [sp, #108]
 442:Drivers/lvgl/src/draw/sw/lv_draw_sw_img.c ****         lv_area_t relative_area;
 1629              		.loc 1 442 25 view .LVU592
 1630 00c4 B342     		cmp	r3, r6
 1631 00c6 41DC     		bgt	.L90
 1632              	.LBB90:
 443:Drivers/lvgl/src/draw/sw/lv_draw_sw_img.c ****         lv_area_copy(&relative_area, &blend_area);
 1633              		.loc 1 443 9 is_stmt 1 view .LVU593
 444:Drivers/lvgl/src/draw/sw/lv_draw_sw_img.c ****         lv_area_move(&relative_area, -img_coords->x1, -img_coords->y1);
 1634              		.loc 1 444 9 view .LVU594
 1635              	.LVL176:
 1636              	.LBB91:
 1637              	.LBI91:
 1638              		.file 4 "Drivers/lvgl/src/draw/sw/../../misc/lv_area.h"
   1:Drivers/lvgl/src/draw/sw/../../misc/lv_area.h **** /**
   2:Drivers/lvgl/src/draw/sw/../../misc/lv_area.h ****  * @file lv_area.h
   3:Drivers/lvgl/src/draw/sw/../../misc/lv_area.h ****  *
   4:Drivers/lvgl/src/draw/sw/../../misc/lv_area.h ****  */
   5:Drivers/lvgl/src/draw/sw/../../misc/lv_area.h **** 
   6:Drivers/lvgl/src/draw/sw/../../misc/lv_area.h **** #ifndef LV_AREA_H
ARM GAS  /var/folders/qx/2_175_4n2s19vhvtspjhb3qh0000gn/T//cc1Hh9yO.s 			page 66


   7:Drivers/lvgl/src/draw/sw/../../misc/lv_area.h **** #define LV_AREA_H
   8:Drivers/lvgl/src/draw/sw/../../misc/lv_area.h **** 
   9:Drivers/lvgl/src/draw/sw/../../misc/lv_area.h **** #ifdef __cplusplus
  10:Drivers/lvgl/src/draw/sw/../../misc/lv_area.h **** extern "C" {
  11:Drivers/lvgl/src/draw/sw/../../misc/lv_area.h **** #endif
  12:Drivers/lvgl/src/draw/sw/../../misc/lv_area.h **** 
  13:Drivers/lvgl/src/draw/sw/../../misc/lv_area.h **** /*********************
  14:Drivers/lvgl/src/draw/sw/../../misc/lv_area.h ****  *      INCLUDES
  15:Drivers/lvgl/src/draw/sw/../../misc/lv_area.h ****  *********************/
  16:Drivers/lvgl/src/draw/sw/../../misc/lv_area.h **** #include "../lv_conf_internal.h"
  17:Drivers/lvgl/src/draw/sw/../../misc/lv_area.h **** #include "lv_types.h"
  18:Drivers/lvgl/src/draw/sw/../../misc/lv_area.h **** #include "lv_math.h"
  19:Drivers/lvgl/src/draw/sw/../../misc/lv_area.h **** 
  20:Drivers/lvgl/src/draw/sw/../../misc/lv_area.h **** /*********************
  21:Drivers/lvgl/src/draw/sw/../../misc/lv_area.h ****  *      DEFINES
  22:Drivers/lvgl/src/draw/sw/../../misc/lv_area.h ****  *********************/
  23:Drivers/lvgl/src/draw/sw/../../misc/lv_area.h **** 
  24:Drivers/lvgl/src/draw/sw/../../misc/lv_area.h **** /**********************
  25:Drivers/lvgl/src/draw/sw/../../misc/lv_area.h ****  *      TYPEDEFS
  26:Drivers/lvgl/src/draw/sw/../../misc/lv_area.h ****  **********************/
  27:Drivers/lvgl/src/draw/sw/../../misc/lv_area.h **** 
  28:Drivers/lvgl/src/draw/sw/../../misc/lv_area.h **** /**
  29:Drivers/lvgl/src/draw/sw/../../misc/lv_area.h ****  * Represents a point on the screen.
  30:Drivers/lvgl/src/draw/sw/../../misc/lv_area.h ****  */
  31:Drivers/lvgl/src/draw/sw/../../misc/lv_area.h **** typedef struct {
  32:Drivers/lvgl/src/draw/sw/../../misc/lv_area.h ****     int32_t x;
  33:Drivers/lvgl/src/draw/sw/../../misc/lv_area.h ****     int32_t y;
  34:Drivers/lvgl/src/draw/sw/../../misc/lv_area.h **** } lv_point_t;
  35:Drivers/lvgl/src/draw/sw/../../misc/lv_area.h **** 
  36:Drivers/lvgl/src/draw/sw/../../misc/lv_area.h **** typedef struct {
  37:Drivers/lvgl/src/draw/sw/../../misc/lv_area.h ****     lv_value_precise_t x;
  38:Drivers/lvgl/src/draw/sw/../../misc/lv_area.h ****     lv_value_precise_t y;
  39:Drivers/lvgl/src/draw/sw/../../misc/lv_area.h **** } lv_point_precise_t;
  40:Drivers/lvgl/src/draw/sw/../../misc/lv_area.h **** 
  41:Drivers/lvgl/src/draw/sw/../../misc/lv_area.h **** /** Represents an area of the screen.*/
  42:Drivers/lvgl/src/draw/sw/../../misc/lv_area.h **** typedef struct {
  43:Drivers/lvgl/src/draw/sw/../../misc/lv_area.h ****     int32_t x1;
  44:Drivers/lvgl/src/draw/sw/../../misc/lv_area.h ****     int32_t y1;
  45:Drivers/lvgl/src/draw/sw/../../misc/lv_area.h ****     int32_t x2;
  46:Drivers/lvgl/src/draw/sw/../../misc/lv_area.h ****     int32_t y2;
  47:Drivers/lvgl/src/draw/sw/../../misc/lv_area.h **** } lv_area_t;
  48:Drivers/lvgl/src/draw/sw/../../misc/lv_area.h **** 
  49:Drivers/lvgl/src/draw/sw/../../misc/lv_area.h **** /** Alignments*/
  50:Drivers/lvgl/src/draw/sw/../../misc/lv_area.h **** 
  51:Drivers/lvgl/src/draw/sw/../../misc/lv_area.h **** typedef enum {
  52:Drivers/lvgl/src/draw/sw/../../misc/lv_area.h ****     LV_ALIGN_DEFAULT = 0,
  53:Drivers/lvgl/src/draw/sw/../../misc/lv_area.h ****     LV_ALIGN_TOP_LEFT,
  54:Drivers/lvgl/src/draw/sw/../../misc/lv_area.h ****     LV_ALIGN_TOP_MID,
  55:Drivers/lvgl/src/draw/sw/../../misc/lv_area.h ****     LV_ALIGN_TOP_RIGHT,
  56:Drivers/lvgl/src/draw/sw/../../misc/lv_area.h ****     LV_ALIGN_BOTTOM_LEFT,
  57:Drivers/lvgl/src/draw/sw/../../misc/lv_area.h ****     LV_ALIGN_BOTTOM_MID,
  58:Drivers/lvgl/src/draw/sw/../../misc/lv_area.h ****     LV_ALIGN_BOTTOM_RIGHT,
  59:Drivers/lvgl/src/draw/sw/../../misc/lv_area.h ****     LV_ALIGN_LEFT_MID,
  60:Drivers/lvgl/src/draw/sw/../../misc/lv_area.h ****     LV_ALIGN_RIGHT_MID,
  61:Drivers/lvgl/src/draw/sw/../../misc/lv_area.h ****     LV_ALIGN_CENTER,
  62:Drivers/lvgl/src/draw/sw/../../misc/lv_area.h **** 
  63:Drivers/lvgl/src/draw/sw/../../misc/lv_area.h ****     LV_ALIGN_OUT_TOP_LEFT,
ARM GAS  /var/folders/qx/2_175_4n2s19vhvtspjhb3qh0000gn/T//cc1Hh9yO.s 			page 67


  64:Drivers/lvgl/src/draw/sw/../../misc/lv_area.h ****     LV_ALIGN_OUT_TOP_MID,
  65:Drivers/lvgl/src/draw/sw/../../misc/lv_area.h ****     LV_ALIGN_OUT_TOP_RIGHT,
  66:Drivers/lvgl/src/draw/sw/../../misc/lv_area.h ****     LV_ALIGN_OUT_BOTTOM_LEFT,
  67:Drivers/lvgl/src/draw/sw/../../misc/lv_area.h ****     LV_ALIGN_OUT_BOTTOM_MID,
  68:Drivers/lvgl/src/draw/sw/../../misc/lv_area.h ****     LV_ALIGN_OUT_BOTTOM_RIGHT,
  69:Drivers/lvgl/src/draw/sw/../../misc/lv_area.h ****     LV_ALIGN_OUT_LEFT_TOP,
  70:Drivers/lvgl/src/draw/sw/../../misc/lv_area.h ****     LV_ALIGN_OUT_LEFT_MID,
  71:Drivers/lvgl/src/draw/sw/../../misc/lv_area.h ****     LV_ALIGN_OUT_LEFT_BOTTOM,
  72:Drivers/lvgl/src/draw/sw/../../misc/lv_area.h ****     LV_ALIGN_OUT_RIGHT_TOP,
  73:Drivers/lvgl/src/draw/sw/../../misc/lv_area.h ****     LV_ALIGN_OUT_RIGHT_MID,
  74:Drivers/lvgl/src/draw/sw/../../misc/lv_area.h ****     LV_ALIGN_OUT_RIGHT_BOTTOM,
  75:Drivers/lvgl/src/draw/sw/../../misc/lv_area.h **** } lv_align_t;
  76:Drivers/lvgl/src/draw/sw/../../misc/lv_area.h **** 
  77:Drivers/lvgl/src/draw/sw/../../misc/lv_area.h **** typedef enum {
  78:Drivers/lvgl/src/draw/sw/../../misc/lv_area.h ****     LV_DIR_NONE     = 0x00,
  79:Drivers/lvgl/src/draw/sw/../../misc/lv_area.h ****     LV_DIR_LEFT     = (1 << 0),
  80:Drivers/lvgl/src/draw/sw/../../misc/lv_area.h ****     LV_DIR_RIGHT    = (1 << 1),
  81:Drivers/lvgl/src/draw/sw/../../misc/lv_area.h ****     LV_DIR_TOP      = (1 << 2),
  82:Drivers/lvgl/src/draw/sw/../../misc/lv_area.h ****     LV_DIR_BOTTOM   = (1 << 3),
  83:Drivers/lvgl/src/draw/sw/../../misc/lv_area.h ****     LV_DIR_HOR      = LV_DIR_LEFT | LV_DIR_RIGHT,
  84:Drivers/lvgl/src/draw/sw/../../misc/lv_area.h ****     LV_DIR_VER      = LV_DIR_TOP | LV_DIR_BOTTOM,
  85:Drivers/lvgl/src/draw/sw/../../misc/lv_area.h ****     LV_DIR_ALL      = LV_DIR_HOR | LV_DIR_VER,
  86:Drivers/lvgl/src/draw/sw/../../misc/lv_area.h **** } lv_dir_t;
  87:Drivers/lvgl/src/draw/sw/../../misc/lv_area.h **** 
  88:Drivers/lvgl/src/draw/sw/../../misc/lv_area.h **** /**********************
  89:Drivers/lvgl/src/draw/sw/../../misc/lv_area.h ****  * GLOBAL PROTOTYPES
  90:Drivers/lvgl/src/draw/sw/../../misc/lv_area.h ****  **********************/
  91:Drivers/lvgl/src/draw/sw/../../misc/lv_area.h **** 
  92:Drivers/lvgl/src/draw/sw/../../misc/lv_area.h **** /**
  93:Drivers/lvgl/src/draw/sw/../../misc/lv_area.h ****  * Initialize an area
  94:Drivers/lvgl/src/draw/sw/../../misc/lv_area.h ****  * @param area_p pointer to an area
  95:Drivers/lvgl/src/draw/sw/../../misc/lv_area.h ****  * @param x1 left coordinate of the area
  96:Drivers/lvgl/src/draw/sw/../../misc/lv_area.h ****  * @param y1 top coordinate of the area
  97:Drivers/lvgl/src/draw/sw/../../misc/lv_area.h ****  * @param x2 right coordinate of the area
  98:Drivers/lvgl/src/draw/sw/../../misc/lv_area.h ****  * @param y2 bottom coordinate of the area
  99:Drivers/lvgl/src/draw/sw/../../misc/lv_area.h ****  */
 100:Drivers/lvgl/src/draw/sw/../../misc/lv_area.h **** void lv_area_set(lv_area_t * area_p, int32_t x1, int32_t y1, int32_t x2, int32_t y2);
 101:Drivers/lvgl/src/draw/sw/../../misc/lv_area.h **** 
 102:Drivers/lvgl/src/draw/sw/../../misc/lv_area.h **** /**
 103:Drivers/lvgl/src/draw/sw/../../misc/lv_area.h ****  * Copy an area
 104:Drivers/lvgl/src/draw/sw/../../misc/lv_area.h ****  * @param dest pointer to the destination area
 105:Drivers/lvgl/src/draw/sw/../../misc/lv_area.h ****  * @param src pointer to the source area
 106:Drivers/lvgl/src/draw/sw/../../misc/lv_area.h ****  */
 107:Drivers/lvgl/src/draw/sw/../../misc/lv_area.h **** inline static void lv_area_copy(lv_area_t * dest, const lv_area_t * src)
 1639              		.loc 4 107 20 view .LVU595
 1640              	.LBB92:
 108:Drivers/lvgl/src/draw/sw/../../misc/lv_area.h **** {
 109:Drivers/lvgl/src/draw/sw/../../misc/lv_area.h ****     dest->x1 = src->x1;
 1641              		.loc 4 109 5 view .LVU596
 1642              		.loc 4 109 19 is_stmt 0 view .LVU597
 1643 00c8 1A9A     		ldr	r2, [sp, #104]
 1644              		.loc 4 109 14 view .LVU598
 1645 00ca 0B92     		str	r2, [sp, #44]
 110:Drivers/lvgl/src/draw/sw/../../misc/lv_area.h ****     dest->y1 = src->y1;
 1646              		.loc 4 110 5 is_stmt 1 view .LVU599
 1647              		.loc 4 110 14 is_stmt 0 view .LVU600
 1648 00cc 0C93     		str	r3, [sp, #48]
ARM GAS  /var/folders/qx/2_175_4n2s19vhvtspjhb3qh0000gn/T//cc1Hh9yO.s 			page 68


 111:Drivers/lvgl/src/draw/sw/../../misc/lv_area.h ****     dest->x2 = src->x2;
 1649              		.loc 4 111 5 is_stmt 1 view .LVU601
 1650              		.loc 4 111 19 is_stmt 0 view .LVU602
 1651 00ce 1C9B     		ldr	r3, [sp, #112]
 1652              		.loc 4 111 14 view .LVU603
 1653 00d0 0D93     		str	r3, [sp, #52]
 112:Drivers/lvgl/src/draw/sw/../../misc/lv_area.h ****     dest->y2 = src->y2;
 1654              		.loc 4 112 5 is_stmt 1 view .LVU604
 1655              		.loc 4 112 19 is_stmt 0 view .LVU605
 1656 00d2 1D9B     		ldr	r3, [sp, #116]
 1657              		.loc 4 112 14 view .LVU606
 1658 00d4 0E93     		str	r3, [sp, #56]
 1659              	.LVL177:
 1660              		.loc 4 112 14 view .LVU607
 1661              	.LBE92:
 1662              	.LBE91:
 445:Drivers/lvgl/src/draw/sw/lv_draw_sw_img.c **** 
 1663              		.loc 1 445 9 is_stmt 1 view .LVU608
 445:Drivers/lvgl/src/draw/sw/lv_draw_sw_img.c **** 
 1664              		.loc 1 445 49 is_stmt 0 view .LVU609
 1665 00d6 2968     		ldr	r1, [r5]
 445:Drivers/lvgl/src/draw/sw/lv_draw_sw_img.c **** 
 1666              		.loc 1 445 66 view .LVU610
 1667 00d8 6A68     		ldr	r2, [r5, #4]
 445:Drivers/lvgl/src/draw/sw/lv_draw_sw_img.c **** 
 1668              		.loc 1 445 9 view .LVU611
 1669 00da 0BAC     		add	r4, sp, #44
 1670 00dc 5242     		rsbs	r2, r2, #0
 1671 00de 4942     		rsbs	r1, r1, #0
 1672 00e0 2046     		mov	r0, r4
 1673 00e2 FFF7FEFF 		bl	lv_area_move
 1674              	.LVL178:
 447:Drivers/lvgl/src/draw/sw/lv_draw_sw_img.c **** 
 1675              		.loc 1 447 9 is_stmt 1 view .LVU612
 447:Drivers/lvgl/src/draw/sw/lv_draw_sw_img.c **** 
 1676              		.loc 1 447 39 is_stmt 0 view .LVU613
 1677 00e6 D9F81030 		ldr	r3, [r9, #16]
 447:Drivers/lvgl/src/draw/sw/lv_draw_sw_img.c **** 
 1678              		.loc 1 447 9 view .LVU614
 1679 00ea CDF81080 		str	r8, [sp, #16]
 1680 00ee 9DF84820 		ldrb	r2, [sp, #72]	@ zero_extendqisi2
 1681 00f2 0392     		str	r2, [sp, #12]
 1682 00f4 CDF808B0 		str	fp, [sp, #8]
 1683 00f8 CDF804A0 		str	r10, [sp, #4]
 1684 00fc 0093     		str	r3, [sp]
 1685 00fe 94E80F00 		ldm	r4, {r0, r1, r2, r3}
 1686 0102 FFF7FEFF 		bl	recolor
 1687              	.LVL179:
 449:Drivers/lvgl/src/draw/sw/lv_draw_sw_img.c **** 
 1688              		.loc 1 449 9 is_stmt 1 view .LVU615
 1689 0106 0FA9     		add	r1, sp, #60
 1690 0108 0798     		ldr	r0, [sp, #28]
 1691 010a FFF7FEFF 		bl	lv_draw_sw_blend
 1692              	.LVL180:
 452:Drivers/lvgl/src/draw/sw/lv_draw_sw_img.c ****         blend_area.y2 = blend_area.y1 + buf_h - 1;
 1693              		.loc 1 452 9 view .LVU616
 452:Drivers/lvgl/src/draw/sw/lv_draw_sw_img.c ****         blend_area.y2 = blend_area.y1 + buf_h - 1;
ARM GAS  /var/folders/qx/2_175_4n2s19vhvtspjhb3qh0000gn/T//cc1Hh9yO.s 			page 69


 1694              		.loc 1 452 35 is_stmt 0 view .LVU617
 1695 010e 1D9B     		ldr	r3, [sp, #116]
 452:Drivers/lvgl/src/draw/sw/lv_draw_sw_img.c ****         blend_area.y2 = blend_area.y1 + buf_h - 1;
 1696              		.loc 1 452 39 view .LVU618
 1697 0110 0133     		adds	r3, r3, #1
 452:Drivers/lvgl/src/draw/sw/lv_draw_sw_img.c ****         blend_area.y2 = blend_area.y1 + buf_h - 1;
 1698              		.loc 1 452 23 view .LVU619
 1699 0112 1B93     		str	r3, [sp, #108]
 453:Drivers/lvgl/src/draw/sw/lv_draw_sw_img.c ****         if(blend_area.y2 > y_last) {
 1700              		.loc 1 453 9 is_stmt 1 view .LVU620
 453:Drivers/lvgl/src/draw/sw/lv_draw_sw_img.c ****         if(blend_area.y2 > y_last) {
 1701              		.loc 1 453 39 is_stmt 0 view .LVU621
 1702 0114 3B44     		add	r3, r3, r7
 453:Drivers/lvgl/src/draw/sw/lv_draw_sw_img.c ****         if(blend_area.y2 > y_last) {
 1703              		.loc 1 453 47 view .LVU622
 1704 0116 013B     		subs	r3, r3, #1
 453:Drivers/lvgl/src/draw/sw/lv_draw_sw_img.c ****         if(blend_area.y2 > y_last) {
 1705              		.loc 1 453 23 view .LVU623
 1706 0118 1D93     		str	r3, [sp, #116]
 454:Drivers/lvgl/src/draw/sw/lv_draw_sw_img.c ****             blend_area.y2 = y_last;
 1707              		.loc 1 454 9 is_stmt 1 view .LVU624
 454:Drivers/lvgl/src/draw/sw/lv_draw_sw_img.c ****             blend_area.y2 = y_last;
 1708              		.loc 1 454 11 is_stmt 0 view .LVU625
 1709 011a B342     		cmp	r3, r6
 1710 011c D1DD     		ble	.L84
 455:Drivers/lvgl/src/draw/sw/lv_draw_sw_img.c ****         }
 1711              		.loc 1 455 13 is_stmt 1 view .LVU626
 455:Drivers/lvgl/src/draw/sw/lv_draw_sw_img.c ****         }
 1712              		.loc 1 455 27 is_stmt 0 view .LVU627
 1713 011e 1D96     		str	r6, [sp, #116]
 1714 0120 CFE7     		b	.L84
 1715              	.LVL181:
 1716              	.L87:
 455:Drivers/lvgl/src/draw/sw/lv_draw_sw_img.c ****         }
 1717              		.loc 1 455 27 view .LVU628
 1718              	.LBE90:
 412:Drivers/lvgl/src/draw/sw/lv_draw_sw_img.c ****     }
 1719              		.loc 1 412 20 view .LVU629
 1720 0122 4FF0010A 		mov	r10, #1
 1721              	.LVL182:
 412:Drivers/lvgl/src/draw/sw/lv_draw_sw_img.c ****     }
 1722              		.loc 1 412 20 view .LVU630
 1723 0126 93E7     		b	.L79
 1724              	.LVL183:
 1725              	.L82:
 417:Drivers/lvgl/src/draw/sw/lv_draw_sw_img.c ****     if(!tmp_buf) {
 1726              		.loc 1 417 5 is_stmt 1 view .LVU631
 417:Drivers/lvgl/src/draw/sw/lv_draw_sw_img.c ****     if(!tmp_buf) {
 1727              		.loc 1 417 5 view .LVU632
 417:Drivers/lvgl/src/draw/sw/lv_draw_sw_img.c ****     if(!tmp_buf) {
 1728              		.loc 1 417 5 view .LVU633
 417:Drivers/lvgl/src/draw/sw/lv_draw_sw_img.c ****     if(!tmp_buf) {
 1729              		.loc 1 417 5 view .LVU634
 417:Drivers/lvgl/src/draw/sw/lv_draw_sw_img.c ****     if(!tmp_buf) {
 1730              		.loc 1 417 5 view .LVU635
 1731 0128 FEE7     		b	.L82
 1732              	.LVL184:
ARM GAS  /var/folders/qx/2_175_4n2s19vhvtspjhb3qh0000gn/T//cc1Hh9yO.s 			page 70


 1733              	.L89:
 433:Drivers/lvgl/src/draw/sw/lv_draw_sw_img.c ****         blend_dsc.mask_buf = decoded->data + img_stride * src_h;
 1734              		.loc 1 433 9 view .LVU636
 433:Drivers/lvgl/src/draw/sw/lv_draw_sw_img.c ****         blend_dsc.mask_buf = decoded->data + img_stride * src_h;
 1735              		.loc 1 433 29 is_stmt 0 view .LVU637
 1736 012a 1795     		str	r5, [sp, #92]
 434:Drivers/lvgl/src/draw/sw/lv_draw_sw_img.c ****         blend_dsc.mask_res = LV_DRAW_SW_MASK_RES_CHANGED;
 1737              		.loc 1 434 9 is_stmt 1 view .LVU638
 434:Drivers/lvgl/src/draw/sw/lv_draw_sw_img.c ****         blend_dsc.mask_res = LV_DRAW_SW_MASK_RES_CHANGED;
 1738              		.loc 1 434 37 is_stmt 0 view .LVU639
 1739 012c D9F81030 		ldr	r3, [r9, #16]
 434:Drivers/lvgl/src/draw/sw/lv_draw_sw_img.c ****         blend_dsc.mask_res = LV_DRAW_SW_MASK_RES_CHANGED;
 1740              		.loc 1 434 44 view .LVU640
 1741 0130 099A     		ldr	r2, [sp, #36]
 1742 0132 0BFB0233 		mla	r3, fp, r2, r3
 434:Drivers/lvgl/src/draw/sw/lv_draw_sw_img.c ****         blend_dsc.mask_res = LV_DRAW_SW_MASK_RES_CHANGED;
 1743              		.loc 1 434 28 view .LVU641
 1744 0136 1593     		str	r3, [sp, #84]
 435:Drivers/lvgl/src/draw/sw/lv_draw_sw_img.c ****         blend_dsc.src_color_format = LV_COLOR_FORMAT_RGB565;
 1745              		.loc 1 435 9 is_stmt 1 view .LVU642
 435:Drivers/lvgl/src/draw/sw/lv_draw_sw_img.c ****         blend_dsc.src_color_format = LV_COLOR_FORMAT_RGB565;
 1746              		.loc 1 435 28 is_stmt 0 view .LVU643
 1747 0138 0223     		movs	r3, #2
 1748 013a 8DF85830 		strb	r3, [sp, #88]
 436:Drivers/lvgl/src/draw/sw/lv_draw_sw_img.c ****         blend_dsc.mask_stride = img_stride / 2;
 1749              		.loc 1 436 9 is_stmt 1 view .LVU644
 436:Drivers/lvgl/src/draw/sw/lv_draw_sw_img.c ****         blend_dsc.mask_stride = img_stride / 2;
 1750              		.loc 1 436 36 is_stmt 0 view .LVU645
 1751 013e 1223     		movs	r3, #18
 1752 0140 8DF84830 		strb	r3, [sp, #72]
 437:Drivers/lvgl/src/draw/sw/lv_draw_sw_img.c ****     }
 1753              		.loc 1 437 9 is_stmt 1 view .LVU646
 437:Drivers/lvgl/src/draw/sw/lv_draw_sw_img.c ****     }
 1754              		.loc 1 437 44 is_stmt 0 view .LVU647
 1755 0144 4FEA5B03 		lsr	r3, fp, #1
 437:Drivers/lvgl/src/draw/sw/lv_draw_sw_img.c ****     }
 1756              		.loc 1 437 31 view .LVU648
 1757 0148 1893     		str	r3, [sp, #96]
 1758 014a B5E7     		b	.L83
 1759              	.LVL185:
 1760              	.L90:
 460:Drivers/lvgl/src/draw/sw/lv_draw_sw_img.c **** 
 1761              		.loc 1 460 5 is_stmt 1 view .LVU649
 1762 014c 5046     		mov	r0, r10
 1763 014e FFF7FEFF 		bl	lv_free
 1764              	.LVL186:
 462:Drivers/lvgl/src/draw/sw/lv_draw_sw_img.c **** 
 1765              		.loc 1 462 1 is_stmt 0 view .LVU650
 1766 0152 1FB0     		add	sp, sp, #124
 1767              	.LCFI12:
 1768              		.cfi_def_cfa_offset 36
 1769              		@ sp needed
 1770 0154 BDE8F08F 		pop	{r4, r5, r6, r7, r8, r9, r10, fp, pc}
 462:Drivers/lvgl/src/draw/sw/lv_draw_sw_img.c **** 
 1771              		.loc 1 462 1 view .LVU651
 1772              		.cfi_endproc
 1773              	.LFE197:
ARM GAS  /var/folders/qx/2_175_4n2s19vhvtspjhb3qh0000gn/T//cc1Hh9yO.s 			page 71


 1775              		.section	.text.radius_only,"ax",%progbits
 1776              		.align	1
 1777              		.syntax unified
 1778              		.thumb
 1779              		.thumb_func
 1781              	radius_only:
 1782              	.LVL187:
 1783              	.LFB196:
 317:Drivers/lvgl/src/draw/sw/lv_draw_sw_img.c **** 
 1784              		.loc 1 317 1 is_stmt 1 view -0
 1785              		.cfi_startproc
 1786              		@ args = 4, pretend = 0, frame = 120
 1787              		@ frame_needed = 0, uses_anonymous_args = 0
 317:Drivers/lvgl/src/draw/sw/lv_draw_sw_img.c **** 
 1788              		.loc 1 317 1 is_stmt 0 view .LVU653
 1789 0000 2DE9F04F 		push	{r4, r5, r6, r7, r8, r9, r10, fp, lr}
 1790              	.LCFI13:
 1791              		.cfi_def_cfa_offset 36
 1792              		.cfi_offset 4, -36
 1793              		.cfi_offset 5, -32
 1794              		.cfi_offset 6, -28
 1795              		.cfi_offset 7, -24
 1796              		.cfi_offset 8, -20
 1797              		.cfi_offset 9, -16
 1798              		.cfi_offset 10, -12
 1799              		.cfi_offset 11, -8
 1800              		.cfi_offset 14, -4
 1801 0004 A1B0     		sub	sp, sp, #132
 1802              	.LCFI14:
 1803              		.cfi_def_cfa_offset 168
 1804 0006 0590     		str	r0, [sp, #20]
 1805 0008 0391     		str	r1, [sp, #12]
 1806 000a 1F46     		mov	r7, r3
 1807 000c 2A9D     		ldr	r5, [sp, #168]
 319:Drivers/lvgl/src/draw/sw/lv_draw_sw_img.c ****     uint32_t img_stride = decoded->header.stride;
 1808              		.loc 1 319 5 is_stmt 1 view .LVU654
 319:Drivers/lvgl/src/draw/sw/lv_draw_sw_img.c ****     uint32_t img_stride = decoded->header.stride;
 1809              		.loc 1 319 27 is_stmt 0 view .LVU655
 1810 000e D2F82CA0 		ldr	r10, [r2, #44]
 1811              	.LVL188:
 320:Drivers/lvgl/src/draw/sw/lv_draw_sw_img.c ****     lv_color_format_t cf = decoded->header.cf;
 1812              		.loc 1 320 5 is_stmt 1 view .LVU656
 320:Drivers/lvgl/src/draw/sw/lv_draw_sw_img.c ****     lv_color_format_t cf = decoded->header.cf;
 1813              		.loc 1 320 42 is_stmt 0 view .LVU657
 1814 0012 BAF808B0 		ldrh	fp, [r10, #8]
 1815              	.LVL189:
 321:Drivers/lvgl/src/draw/sw/lv_draw_sw_img.c ****     lv_color_format_t cf_ori = cf;
 1816              		.loc 1 321 5 is_stmt 1 view .LVU658
 321:Drivers/lvgl/src/draw/sw/lv_draw_sw_img.c ****     lv_color_format_t cf_ori = cf;
 1817              		.loc 1 321 23 is_stmt 0 view .LVU659
 1818 0016 9AF80140 		ldrb	r4, [r10, #1]	@ zero_extendqisi2
 1819              	.LVL190:
 322:Drivers/lvgl/src/draw/sw/lv_draw_sw_img.c **** 
 1820              		.loc 1 322 5 is_stmt 1 view .LVU660
 324:Drivers/lvgl/src/draw/sw/lv_draw_sw_img.c ****         cf = LV_COLOR_FORMAT_RGB565;
 1821              		.loc 1 324 5 view .LVU661
 324:Drivers/lvgl/src/draw/sw/lv_draw_sw_img.c ****         cf = LV_COLOR_FORMAT_RGB565;
ARM GAS  /var/folders/qx/2_175_4n2s19vhvtspjhb3qh0000gn/T//cc1Hh9yO.s 			page 72


 1822              		.loc 1 324 7 is_stmt 0 view .LVU662
 1823 001a 142C     		cmp	r4, #20
 1824 001c 46D0     		beq	.L101
 321:Drivers/lvgl/src/draw/sw/lv_draw_sw_img.c ****     lv_color_format_t cf_ori = cf;
 1825              		.loc 1 321 23 view .LVU663
 1826 001e 0494     		str	r4, [sp, #16]
 1827              	.LVL191:
 1828              	.L92:
 328:Drivers/lvgl/src/draw/sw/lv_draw_sw_img.c ****     lv_memzero(&blend_dsc, sizeof(lv_draw_sw_blend_dsc_t));
 1829              		.loc 1 328 5 is_stmt 1 view .LVU664
 329:Drivers/lvgl/src/draw/sw/lv_draw_sw_img.c ****     blend_dsc.opa = draw_dsc->opa;
 1830              		.loc 1 329 5 view .LVU665
 1831              	.LBB93:
 1832              	.LBI93:
  73:Drivers/lvgl/src/draw/sw/blend/../../../misc/../stdlib/lv_string.h **** {
 1833              		.loc 3 73 20 view .LVU666
 1834              	.LBB94:
 1835              		.loc 3 75 5 view .LVU667
 1836 0020 2C22     		movs	r2, #44
 1837              	.LVL192:
 1838              		.loc 3 75 5 is_stmt 0 view .LVU668
 1839 0022 0021     		movs	r1, #0
 1840              	.LVL193:
 1841              		.loc 3 75 5 view .LVU669
 1842 0024 15A8     		add	r0, sp, #84
 1843              	.LVL194:
 1844              		.loc 3 75 5 view .LVU670
 1845 0026 FFF7FEFF 		bl	lv_memset
 1846              	.LVL195:
 1847              		.loc 3 75 5 view .LVU671
 1848              	.LBE94:
 1849              	.LBE93:
 330:Drivers/lvgl/src/draw/sw/lv_draw_sw_img.c ****     blend_dsc.blend_mode = draw_dsc->blend_mode;
 1850              		.loc 1 330 5 is_stmt 1 view .LVU672
 330:Drivers/lvgl/src/draw/sw/lv_draw_sw_img.c ****     blend_dsc.blend_mode = draw_dsc->blend_mode;
 1851              		.loc 1 330 29 is_stmt 0 view .LVU673
 1852 002a 039A     		ldr	r2, [sp, #12]
 1853 002c 92F85030 		ldrb	r3, [r2, #80]	@ zero_extendqisi2
 330:Drivers/lvgl/src/draw/sw/lv_draw_sw_img.c ****     blend_dsc.blend_mode = draw_dsc->blend_mode;
 1854              		.loc 1 330 19 view .LVU674
 1855 0030 8DF86830 		strb	r3, [sp, #104]
 331:Drivers/lvgl/src/draw/sw/lv_draw_sw_img.c ****     blend_dsc.src_stride = img_stride;
 1856              		.loc 1 331 5 is_stmt 1 view .LVU675
 331:Drivers/lvgl/src/draw/sw/lv_draw_sw_img.c ****     blend_dsc.src_stride = img_stride;
 1857              		.loc 1 331 36 is_stmt 0 view .LVU676
 1858 0034 92F85130 		ldrb	r3, [r2, #81]	@ zero_extendqisi2
 1859 0038 C3F30303 		ubfx	r3, r3, #0, #4
 331:Drivers/lvgl/src/draw/sw/lv_draw_sw_img.c ****     blend_dsc.src_stride = img_stride;
 1860              		.loc 1 331 26 view .LVU677
 1861 003c 8DF87C30 		strb	r3, [sp, #124]
 332:Drivers/lvgl/src/draw/sw/lv_draw_sw_img.c ****     blend_dsc.src_area = img_coords;
 1862              		.loc 1 332 5 is_stmt 1 view .LVU678
 332:Drivers/lvgl/src/draw/sw/lv_draw_sw_img.c ****     blend_dsc.src_area = img_coords;
 1863              		.loc 1 332 26 is_stmt 0 view .LVU679
 1864 0040 CDF85CB0 		str	fp, [sp, #92]
 333:Drivers/lvgl/src/draw/sw/lv_draw_sw_img.c ****     blend_dsc.src_buf = decoded->data;
 1865              		.loc 1 333 5 is_stmt 1 view .LVU680
ARM GAS  /var/folders/qx/2_175_4n2s19vhvtspjhb3qh0000gn/T//cc1Hh9yO.s 			page 73


 333:Drivers/lvgl/src/draw/sw/lv_draw_sw_img.c ****     blend_dsc.src_buf = decoded->data;
 1866              		.loc 1 333 24 is_stmt 0 view .LVU681
 1867 0044 1997     		str	r7, [sp, #100]
 334:Drivers/lvgl/src/draw/sw/lv_draw_sw_img.c ****     blend_dsc.src_color_format = cf;
 1868              		.loc 1 334 5 is_stmt 1 view .LVU682
 334:Drivers/lvgl/src/draw/sw/lv_draw_sw_img.c ****     blend_dsc.src_color_format = cf;
 1869              		.loc 1 334 32 is_stmt 0 view .LVU683
 1870 0046 DAF81030 		ldr	r3, [r10, #16]
 334:Drivers/lvgl/src/draw/sw/lv_draw_sw_img.c ****     blend_dsc.src_color_format = cf;
 1871              		.loc 1 334 23 view .LVU684
 1872 004a 1693     		str	r3, [sp, #88]
 335:Drivers/lvgl/src/draw/sw/lv_draw_sw_img.c **** 
 1873              		.loc 1 335 5 is_stmt 1 view .LVU685
 335:Drivers/lvgl/src/draw/sw/lv_draw_sw_img.c **** 
 1874              		.loc 1 335 32 is_stmt 0 view .LVU686
 1875 004c 049B     		ldr	r3, [sp, #16]
 1876 004e 8DF86030 		strb	r3, [sp, #96]
 337:Drivers/lvgl/src/draw/sw/lv_draw_sw_img.c ****     blend_dsc.blend_area = &blend_area;
 1877              		.loc 1 337 5 is_stmt 1 view .LVU687
 337:Drivers/lvgl/src/draw/sw/lv_draw_sw_img.c ****     blend_dsc.blend_area = &blend_area;
 1878              		.loc 1 337 15 is_stmt 0 view .LVU688
 1879 0052 0DF14409 		add	r9, sp, #68
 1880 0056 95E80F00 		ldm	r5, {r0, r1, r2, r3}
 1881 005a 89E80F00 		stm	r9, {r0, r1, r2, r3}
 338:Drivers/lvgl/src/draw/sw/lv_draw_sw_img.c ****     int32_t y_last = blend_area.y2;
 1882              		.loc 1 338 5 is_stmt 1 view .LVU689
 338:Drivers/lvgl/src/draw/sw/lv_draw_sw_img.c ****     int32_t y_last = blend_area.y2;
 1883              		.loc 1 338 26 is_stmt 0 view .LVU690
 1884 005e CDF85490 		str	r9, [sp, #84]
 339:Drivers/lvgl/src/draw/sw/lv_draw_sw_img.c ****     blend_area.y2 = blend_area.y1;
 1885              		.loc 1 339 5 is_stmt 1 view .LVU691
 339:Drivers/lvgl/src/draw/sw/lv_draw_sw_img.c ****     blend_area.y2 = blend_area.y1;
 1886              		.loc 1 339 13 is_stmt 0 view .LVU692
 1887 0062 9846     		mov	r8, r3
 1888              	.LVL196:
 340:Drivers/lvgl/src/draw/sw/lv_draw_sw_img.c **** 
 1889              		.loc 1 340 5 is_stmt 1 view .LVU693
 340:Drivers/lvgl/src/draw/sw/lv_draw_sw_img.c **** 
 1890              		.loc 1 340 19 is_stmt 0 view .LVU694
 1891 0064 1491     		str	r1, [sp, #80]
 342:Drivers/lvgl/src/draw/sw/lv_draw_sw_img.c ****     uint8_t * mask_buf = lv_malloc(blend_w);
 1892              		.loc 1 342 5 is_stmt 1 view .LVU695
 342:Drivers/lvgl/src/draw/sw/lv_draw_sw_img.c ****     uint8_t * mask_buf = lv_malloc(blend_w);
 1893              		.loc 1 342 23 is_stmt 0 view .LVU696
 1894 0066 4846     		mov	r0, r9
 1895 0068 FFF7FEFF 		bl	lv_area_get_width
 1896              	.LVL197:
 342:Drivers/lvgl/src/draw/sw/lv_draw_sw_img.c ****     uint8_t * mask_buf = lv_malloc(blend_w);
 1897              		.loc 1 342 23 view .LVU697
 1898 006c 0646     		mov	r6, r0
 1899              	.LVL198:
 343:Drivers/lvgl/src/draw/sw/lv_draw_sw_img.c ****     blend_dsc.mask_buf = mask_buf;
 1900              		.loc 1 343 5 is_stmt 1 view .LVU698
 343:Drivers/lvgl/src/draw/sw/lv_draw_sw_img.c ****     blend_dsc.mask_buf = mask_buf;
 1901              		.loc 1 343 26 is_stmt 0 view .LVU699
 1902 006e FFF7FEFF 		bl	lv_malloc
 1903              	.LVL199:
ARM GAS  /var/folders/qx/2_175_4n2s19vhvtspjhb3qh0000gn/T//cc1Hh9yO.s 			page 74


 343:Drivers/lvgl/src/draw/sw/lv_draw_sw_img.c ****     blend_dsc.mask_buf = mask_buf;
 1904              		.loc 1 343 26 view .LVU700
 1905 0072 0546     		mov	r5, r0
 1906              	.LVL200:
 344:Drivers/lvgl/src/draw/sw/lv_draw_sw_img.c ****     blend_dsc.mask_area = &blend_area;
 1907              		.loc 1 344 5 is_stmt 1 view .LVU701
 344:Drivers/lvgl/src/draw/sw/lv_draw_sw_img.c ****     blend_dsc.mask_area = &blend_area;
 1908              		.loc 1 344 24 is_stmt 0 view .LVU702
 1909 0074 1B90     		str	r0, [sp, #108]
 345:Drivers/lvgl/src/draw/sw/lv_draw_sw_img.c ****     blend_dsc.mask_stride = blend_w;
 1910              		.loc 1 345 5 is_stmt 1 view .LVU703
 345:Drivers/lvgl/src/draw/sw/lv_draw_sw_img.c ****     blend_dsc.mask_stride = blend_w;
 1911              		.loc 1 345 25 is_stmt 0 view .LVU704
 1912 0076 CDF87490 		str	r9, [sp, #116]
 346:Drivers/lvgl/src/draw/sw/lv_draw_sw_img.c **** 
 1913              		.loc 1 346 5 is_stmt 1 view .LVU705
 346:Drivers/lvgl/src/draw/sw/lv_draw_sw_img.c **** 
 1914              		.loc 1 346 27 is_stmt 0 view .LVU706
 1915 007a 1E96     		str	r6, [sp, #120]
 348:Drivers/lvgl/src/draw/sw/lv_draw_sw_img.c ****         blend_dsc.src_buf = NULL;
 1916              		.loc 1 348 5 is_stmt 1 view .LVU707
 348:Drivers/lvgl/src/draw/sw/lv_draw_sw_img.c ****         blend_dsc.src_buf = NULL;
 1917              		.loc 1 348 7 is_stmt 0 view .LVU708
 1918 007c 049B     		ldr	r3, [sp, #16]
 1919 007e 0E2B     		cmp	r3, #14
 1920 0080 17D0     		beq	.L103
 1921              	.L93:
 353:Drivers/lvgl/src/draw/sw/lv_draw_sw_img.c ****     lv_draw_sw_mask_radius_init(&mask_param, &draw_dsc->image_area, draw_dsc->clip_radius, false);
 1922              		.loc 1 353 5 is_stmt 1 view .LVU709
 354:Drivers/lvgl/src/draw/sw/lv_draw_sw_img.c **** 
 1923              		.loc 1 354 5 view .LVU710
 1924 0082 0DF12009 		add	r9, sp, #32
 1925 0086 0023     		movs	r3, #0
 1926 0088 0399     		ldr	r1, [sp, #12]
 1927 008a CA6A     		ldr	r2, [r1, #44]
 1928 008c 5C31     		adds	r1, r1, #92
 1929 008e 4846     		mov	r0, r9
 1930              	.LVL201:
 354:Drivers/lvgl/src/draw/sw/lv_draw_sw_img.c **** 
 1931              		.loc 1 354 5 is_stmt 0 view .LVU711
 1932 0090 FFF7FEFF 		bl	lv_draw_sw_mask_radius_init
 1933              	.LVL202:
 356:Drivers/lvgl/src/draw/sw/lv_draw_sw_img.c ****     masks[0] = &mask_param;
 1934              		.loc 1 356 5 is_stmt 1 view .LVU712
 356:Drivers/lvgl/src/draw/sw/lv_draw_sw_img.c ****     masks[0] = &mask_param;
 1935              		.loc 1 356 12 is_stmt 0 view .LVU713
 1936 0094 0023     		movs	r3, #0
 1937 0096 0693     		str	r3, [sp, #24]
 1938 0098 0793     		str	r3, [sp, #28]
 357:Drivers/lvgl/src/draw/sw/lv_draw_sw_img.c **** 
 1939              		.loc 1 357 5 is_stmt 1 view .LVU714
 357:Drivers/lvgl/src/draw/sw/lv_draw_sw_img.c **** 
 1940              		.loc 1 357 14 is_stmt 0 view .LVU715
 1941 009a CDF81890 		str	r9, [sp, #24]
 359:Drivers/lvgl/src/draw/sw/lv_draw_sw_img.c ****     while(blend_area.y1 <= y_last) {
 1942              		.loc 1 359 5 is_stmt 1 view .LVU716
 359:Drivers/lvgl/src/draw/sw/lv_draw_sw_img.c ****     while(blend_area.y1 <= y_last) {
ARM GAS  /var/folders/qx/2_175_4n2s19vhvtspjhb3qh0000gn/T//cc1Hh9yO.s 			page 75


 1943              		.loc 1 359 23 is_stmt 0 view .LVU717
 1944 009e 3846     		mov	r0, r7
 1945 00a0 FFF7FEFF 		bl	lv_area_get_height
 1946              	.LVL203:
 360:Drivers/lvgl/src/draw/sw/lv_draw_sw_img.c ****         if(cf_ori == LV_COLOR_FORMAT_RGB565A8) {
 1947              		.loc 1 360 5 is_stmt 1 view .LVU718
 1948 00a4 0390     		str	r0, [sp, #12]
 1949              	.LVL204:
 360:Drivers/lvgl/src/draw/sw/lv_draw_sw_img.c ****         if(cf_ori == LV_COLOR_FORMAT_RGB565A8) {
 1950              		.loc 1 360 5 is_stmt 0 view .LVU719
 1951 00a6 DDF81490 		ldr	r9, [sp, #20]
 360:Drivers/lvgl/src/draw/sw/lv_draw_sw_img.c ****         if(cf_ori == LV_COLOR_FORMAT_RGB565A8) {
 1952              		.loc 1 360 10 view .LVU720
 1953 00aa 3EE0     		b	.L94
 1954              	.LVL205:
 1955              	.L101:
 325:Drivers/lvgl/src/draw/sw/lv_draw_sw_img.c ****     }
 1956              		.loc 1 325 12 view .LVU721
 1957 00ac 1223     		movs	r3, #18
 1958              	.LVL206:
 325:Drivers/lvgl/src/draw/sw/lv_draw_sw_img.c ****     }
 1959              		.loc 1 325 12 view .LVU722
 1960 00ae 0493     		str	r3, [sp, #16]
 1961 00b0 B6E7     		b	.L92
 1962              	.LVL207:
 1963              	.L103:
 349:Drivers/lvgl/src/draw/sw/lv_draw_sw_img.c ****         blend_dsc.color = draw_dsc->recolor;
 1964              		.loc 1 349 9 is_stmt 1 view .LVU723
 349:Drivers/lvgl/src/draw/sw/lv_draw_sw_img.c ****         blend_dsc.color = draw_dsc->recolor;
 1965              		.loc 1 349 27 is_stmt 0 view .LVU724
 1966 00b2 0023     		movs	r3, #0
 1967 00b4 1693     		str	r3, [sp, #88]
 350:Drivers/lvgl/src/draw/sw/lv_draw_sw_img.c ****     }
 1968              		.loc 1 350 9 is_stmt 1 view .LVU725
 350:Drivers/lvgl/src/draw/sw/lv_draw_sw_img.c ****     }
 1969              		.loc 1 350 25 is_stmt 0 view .LVU726
 1970 00b6 039B     		ldr	r3, [sp, #12]
 1971 00b8 B3F84C20 		ldrh	r2, [r3, #76]	@ unaligned
 1972 00bc 93F84E30 		ldrb	r3, [r3, #78]	@ zero_extendqisi2
 1973 00c0 ADF86920 		strh	r2, [sp, #105]	@ unaligned
 1974 00c4 8DF86B30 		strb	r3, [sp, #107]
 1975 00c8 DBE7     		b	.L93
 1976              	.LVL208:
 1977              	.L105:
 1978              	.LBB95:
 362:Drivers/lvgl/src/draw/sw/lv_draw_sw_img.c ****             int32_t y_ofs = blend_area.y1 - img_coords->y1;
 1979              		.loc 1 362 13 is_stmt 1 view .LVU727
 362:Drivers/lvgl/src/draw/sw/lv_draw_sw_img.c ****             int32_t y_ofs = blend_area.y1 - img_coords->y1;
 1980              		.loc 1 362 49 is_stmt 0 view .LVU728
 1981 00ca DAF81000 		ldr	r0, [r10, #16]
 1982              	.LVL209:
 363:Drivers/lvgl/src/draw/sw/lv_draw_sw_img.c ****             int32_t x_ofs = blend_area.x1 - img_coords->x1;
 1983              		.loc 1 363 13 is_stmt 1 view .LVU729
 363:Drivers/lvgl/src/draw/sw/lv_draw_sw_img.c ****             int32_t x_ofs = blend_area.x1 - img_coords->x1;
 1984              		.loc 1 363 55 is_stmt 0 view .LVU730
 1985 00ce 7A68     		ldr	r2, [r7, #4]
 363:Drivers/lvgl/src/draw/sw/lv_draw_sw_img.c ****             int32_t x_ofs = blend_area.x1 - img_coords->x1;
ARM GAS  /var/folders/qx/2_175_4n2s19vhvtspjhb3qh0000gn/T//cc1Hh9yO.s 			page 76


 1986              		.loc 1 363 21 view .LVU731
 1987 00d0 9B1A     		subs	r3, r3, r2
 1988              	.LVL210:
 364:Drivers/lvgl/src/draw/sw/lv_draw_sw_img.c ****             lv_memcpy(mask_buf, mask_start + y_ofs * img_stride / 2  + x_ofs, blend_w);
 1989              		.loc 1 364 13 is_stmt 1 view .LVU732
 364:Drivers/lvgl/src/draw/sw/lv_draw_sw_img.c ****             lv_memcpy(mask_buf, mask_start + y_ofs * img_stride / 2  + x_ofs, blend_w);
 1990              		.loc 1 364 55 is_stmt 0 view .LVU733
 1991 00d2 3968     		ldr	r1, [r7]
 364:Drivers/lvgl/src/draw/sw/lv_draw_sw_img.c ****             lv_memcpy(mask_buf, mask_start + y_ofs * img_stride / 2  + x_ofs, blend_w);
 1992              		.loc 1 364 21 view .LVU734
 1993 00d4 119A     		ldr	r2, [sp, #68]
 1994 00d6 511A     		subs	r1, r2, r1
 1995              	.LVL211:
 365:Drivers/lvgl/src/draw/sw/lv_draw_sw_img.c ****         }
 1996              		.loc 1 365 13 is_stmt 1 view .LVU735
 365:Drivers/lvgl/src/draw/sw/lv_draw_sw_img.c ****         }
 1997              		.loc 1 365 52 is_stmt 0 view .LVU736
 1998 00d8 0BFB03F3 		mul	r3, fp, r3
 1999              	.LVL212:
 365:Drivers/lvgl/src/draw/sw/lv_draw_sw_img.c ****         }
 2000              		.loc 1 365 70 view .LVU737
 2001 00dc 01EB5301 		add	r1, r1, r3, lsr #1
 2002              	.LVL213:
 365:Drivers/lvgl/src/draw/sw/lv_draw_sw_img.c ****         }
 2003              		.loc 1 365 70 view .LVU738
 2004 00e0 039B     		ldr	r3, [sp, #12]
 2005 00e2 0BFB0311 		mla	r1, fp, r3, r1
 365:Drivers/lvgl/src/draw/sw/lv_draw_sw_img.c ****         }
 2006              		.loc 1 365 13 view .LVU739
 2007 00e6 3246     		mov	r2, r6
 2008              	.LVL214:
 365:Drivers/lvgl/src/draw/sw/lv_draw_sw_img.c ****         }
 2009              		.loc 1 365 13 view .LVU740
 2010 00e8 0144     		add	r1, r1, r0
 2011 00ea 2846     		mov	r0, r5
 2012              	.LVL215:
 365:Drivers/lvgl/src/draw/sw/lv_draw_sw_img.c ****         }
 2013              		.loc 1 365 13 view .LVU741
 2014 00ec FFF7FEFF 		bl	lv_memcpy
 2015              	.LVL216:
 365:Drivers/lvgl/src/draw/sw/lv_draw_sw_img.c ****         }
 2016              		.loc 1 365 13 view .LVU742
 2017              	.LBE95:
 2018 00f0 27E0     		b	.L96
 2019              	.LVL217:
 2020              	.L106:
 2021              	.LBB96:
 368:Drivers/lvgl/src/draw/sw/lv_draw_sw_img.c ****             int32_t x_ofs = blend_area.x1 - img_coords->x1;
 2022              		.loc 1 368 13 is_stmt 1 view .LVU743
 368:Drivers/lvgl/src/draw/sw/lv_draw_sw_img.c ****             int32_t x_ofs = blend_area.x1 - img_coords->x1;
 2023              		.loc 1 368 55 is_stmt 0 view .LVU744
 2024 00f2 7A68     		ldr	r2, [r7, #4]
 368:Drivers/lvgl/src/draw/sw/lv_draw_sw_img.c ****             int32_t x_ofs = blend_area.x1 - img_coords->x1;
 2025              		.loc 1 368 21 view .LVU745
 2026 00f4 9B1A     		subs	r3, r3, r2
 2027              	.LVL218:
 369:Drivers/lvgl/src/draw/sw/lv_draw_sw_img.c ****             lv_memcpy(mask_buf, decoded->data + y_ofs * img_stride + x_ofs, blend_w);
ARM GAS  /var/folders/qx/2_175_4n2s19vhvtspjhb3qh0000gn/T//cc1Hh9yO.s 			page 77


 2028              		.loc 1 369 13 is_stmt 1 view .LVU746
 369:Drivers/lvgl/src/draw/sw/lv_draw_sw_img.c ****             lv_memcpy(mask_buf, decoded->data + y_ofs * img_stride + x_ofs, blend_w);
 2029              		.loc 1 369 55 is_stmt 0 view .LVU747
 2030 00f6 3A68     		ldr	r2, [r7]
 369:Drivers/lvgl/src/draw/sw/lv_draw_sw_img.c ****             lv_memcpy(mask_buf, decoded->data + y_ofs * img_stride + x_ofs, blend_w);
 2031              		.loc 1 369 21 view .LVU748
 2032 00f8 1199     		ldr	r1, [sp, #68]
 2033 00fa 891A     		subs	r1, r1, r2
 2034              	.LVL219:
 370:Drivers/lvgl/src/draw/sw/lv_draw_sw_img.c ****         }
 2035              		.loc 1 370 13 is_stmt 1 view .LVU749
 370:Drivers/lvgl/src/draw/sw/lv_draw_sw_img.c ****         }
 2036              		.loc 1 370 40 is_stmt 0 view .LVU750
 2037 00fc DAF81000 		ldr	r0, [r10, #16]
 370:Drivers/lvgl/src/draw/sw/lv_draw_sw_img.c ****         }
 2038              		.loc 1 370 68 view .LVU751
 2039 0100 0BFB0311 		mla	r1, fp, r3, r1
 2040              	.LVL220:
 370:Drivers/lvgl/src/draw/sw/lv_draw_sw_img.c ****         }
 2041              		.loc 1 370 13 view .LVU752
 2042 0104 3246     		mov	r2, r6
 2043              	.LVL221:
 370:Drivers/lvgl/src/draw/sw/lv_draw_sw_img.c ****         }
 2044              		.loc 1 370 13 view .LVU753
 2045 0106 0144     		add	r1, r1, r0
 2046 0108 2846     		mov	r0, r5
 2047 010a FFF7FEFF 		bl	lv_memcpy
 2048              	.LVL222:
 370:Drivers/lvgl/src/draw/sw/lv_draw_sw_img.c ****         }
 2049              		.loc 1 370 13 view .LVU754
 2050              	.LBE96:
 2051 010e 18E0     		b	.L96
 2052              	.LVL223:
 2053              	.L98:
 380:Drivers/lvgl/src/draw/sw/lv_draw_sw_img.c ****         }
 2054              		.loc 1 380 13 is_stmt 1 view .LVU755
 380:Drivers/lvgl/src/draw/sw/lv_draw_sw_img.c ****         }
 2055              		.loc 1 380 32 is_stmt 0 view .LVU756
 2056 0110 0223     		movs	r3, #2
 2057 0112 8DF87030 		strb	r3, [sp, #112]
 2058              	.L99:
 384:Drivers/lvgl/src/draw/sw/lv_draw_sw_img.c **** 
 2059              		.loc 1 384 9 is_stmt 1 view .LVU757
 2060 0116 15A9     		add	r1, sp, #84
 2061 0118 4846     		mov	r0, r9
 2062 011a FFF7FEFF 		bl	lv_draw_sw_blend
 2063              	.LVL224:
 387:Drivers/lvgl/src/draw/sw/lv_draw_sw_img.c ****         blend_area.y2 ++;
 2064              		.loc 1 387 9 view .LVU758
 387:Drivers/lvgl/src/draw/sw/lv_draw_sw_img.c ****         blend_area.y2 ++;
 2065              		.loc 1 387 19 is_stmt 0 view .LVU759
 2066 011e 129B     		ldr	r3, [sp, #72]
 387:Drivers/lvgl/src/draw/sw/lv_draw_sw_img.c ****         blend_area.y2 ++;
 2067              		.loc 1 387 23 view .LVU760
 2068 0120 0133     		adds	r3, r3, #1
 2069 0122 1293     		str	r3, [sp, #72]
 388:Drivers/lvgl/src/draw/sw/lv_draw_sw_img.c ****     }
ARM GAS  /var/folders/qx/2_175_4n2s19vhvtspjhb3qh0000gn/T//cc1Hh9yO.s 			page 78


 2070              		.loc 1 388 9 is_stmt 1 view .LVU761
 388:Drivers/lvgl/src/draw/sw/lv_draw_sw_img.c ****     }
 2071              		.loc 1 388 19 is_stmt 0 view .LVU762
 2072 0124 149B     		ldr	r3, [sp, #80]
 388:Drivers/lvgl/src/draw/sw/lv_draw_sw_img.c ****     }
 2073              		.loc 1 388 23 view .LVU763
 2074 0126 0133     		adds	r3, r3, #1
 2075 0128 1493     		str	r3, [sp, #80]
 2076              	.L94:
 360:Drivers/lvgl/src/draw/sw/lv_draw_sw_img.c ****         if(cf_ori == LV_COLOR_FORMAT_RGB565A8) {
 2077              		.loc 1 360 25 is_stmt 1 view .LVU764
 360:Drivers/lvgl/src/draw/sw/lv_draw_sw_img.c ****         if(cf_ori == LV_COLOR_FORMAT_RGB565A8) {
 2078              		.loc 1 360 21 is_stmt 0 view .LVU765
 2079 012a 129B     		ldr	r3, [sp, #72]
 360:Drivers/lvgl/src/draw/sw/lv_draw_sw_img.c ****         if(cf_ori == LV_COLOR_FORMAT_RGB565A8) {
 2080              		.loc 1 360 25 view .LVU766
 2081 012c 4345     		cmp	r3, r8
 2082 012e 16DC     		bgt	.L104
 361:Drivers/lvgl/src/draw/sw/lv_draw_sw_img.c ****             const uint8_t * mask_start = decoded->data + img_stride * image_h;
 2083              		.loc 1 361 9 is_stmt 1 view .LVU767
 361:Drivers/lvgl/src/draw/sw/lv_draw_sw_img.c ****             const uint8_t * mask_start = decoded->data + img_stride * image_h;
 2084              		.loc 1 361 11 is_stmt 0 view .LVU768
 2085 0130 142C     		cmp	r4, #20
 2086 0132 CAD0     		beq	.L105
 367:Drivers/lvgl/src/draw/sw/lv_draw_sw_img.c ****             int32_t y_ofs = blend_area.y1 - img_coords->y1;
 2087              		.loc 1 367 14 is_stmt 1 view .LVU769
 367:Drivers/lvgl/src/draw/sw/lv_draw_sw_img.c ****             int32_t y_ofs = blend_area.y1 - img_coords->y1;
 2088              		.loc 1 367 16 is_stmt 0 view .LVU770
 2089 0134 0E2C     		cmp	r4, #14
 2090 0136 DCD0     		beq	.L106
 373:Drivers/lvgl/src/draw/sw/lv_draw_sw_img.c **** 
 2091              		.loc 1 373 13 is_stmt 1 view .LVU771
 2092 0138 3246     		mov	r2, r6
 2093 013a FF21     		movs	r1, #255
 2094 013c 2846     		mov	r0, r5
 2095 013e FFF7FEFF 		bl	lv_memset
 2096              	.LVL225:
 2097              	.L96:
 377:Drivers/lvgl/src/draw/sw/lv_draw_sw_img.c **** 
 2098              		.loc 1 377 9 view .LVU772
 377:Drivers/lvgl/src/draw/sw/lv_draw_sw_img.c **** 
 2099              		.loc 1 377 30 is_stmt 0 view .LVU773
 2100 0142 0096     		str	r6, [sp]
 2101 0144 129B     		ldr	r3, [sp, #72]
 2102 0146 119A     		ldr	r2, [sp, #68]
 2103 0148 2946     		mov	r1, r5
 2104 014a 06A8     		add	r0, sp, #24
 2105 014c FFF7FEFF 		bl	lv_draw_sw_mask_apply
 2106              	.LVL226:
 377:Drivers/lvgl/src/draw/sw/lv_draw_sw_img.c **** 
 2107              		.loc 1 377 28 discriminator 1 view .LVU774
 2108 0150 8DF87000 		strb	r0, [sp, #112]
 379:Drivers/lvgl/src/draw/sw/lv_draw_sw_img.c ****             blend_dsc.mask_res = LV_DRAW_SW_MASK_RES_CHANGED;
 2109              		.loc 1 379 9 is_stmt 1 view .LVU775
 379:Drivers/lvgl/src/draw/sw/lv_draw_sw_img.c ****             blend_dsc.mask_res = LV_DRAW_SW_MASK_RES_CHANGED;
 2110              		.loc 1 379 11 is_stmt 0 view .LVU776
 2111 0154 142C     		cmp	r4, #20
ARM GAS  /var/folders/qx/2_175_4n2s19vhvtspjhb3qh0000gn/T//cc1Hh9yO.s 			page 79


 2112 0156 DBD0     		beq	.L98
 379:Drivers/lvgl/src/draw/sw/lv_draw_sw_img.c ****             blend_dsc.mask_res = LV_DRAW_SW_MASK_RES_CHANGED;
 2113              		.loc 1 379 47 discriminator 1 view .LVU777
 2114 0158 0E2C     		cmp	r4, #14
 2115 015a DCD1     		bne	.L99
 2116 015c D8E7     		b	.L98
 2117              	.L104:
 390:Drivers/lvgl/src/draw/sw/lv_draw_sw_img.c **** 
 2118              		.loc 1 390 5 is_stmt 1 view .LVU778
 2119 015e 2846     		mov	r0, r5
 2120 0160 FFF7FEFF 		bl	lv_free
 2121              	.LVL227:
 392:Drivers/lvgl/src/draw/sw/lv_draw_sw_img.c **** #endif /*LV_DRAW_SW_COMPLEX*/
 2122              		.loc 1 392 1 is_stmt 0 view .LVU779
 2123 0164 21B0     		add	sp, sp, #132
 2124              	.LCFI15:
 2125              		.cfi_def_cfa_offset 36
 2126              		@ sp needed
 2127 0166 BDE8F08F 		pop	{r4, r5, r6, r7, r8, r9, r10, fp, pc}
 392:Drivers/lvgl/src/draw/sw/lv_draw_sw_img.c **** #endif /*LV_DRAW_SW_COMPLEX*/
 2128              		.loc 1 392 1 view .LVU780
 2129              		.cfi_endproc
 2130              	.LFE196:
 2132              		.section	.text.lv_color16_to_color,"ax",%progbits
 2133              		.align	1
 2134              		.syntax unified
 2135              		.thumb
 2136              		.thumb_func
 2138              	lv_color16_to_color:
 2139              	.LVL228:
 2140              	.LFB5:
 354:Drivers/lvgl/src/draw/sw/blend/../../../misc/lv_color.h ****     return lv_color_make(c.red << 3, c.green << 2, c.blue << 3);
 2141              		.loc 2 354 1 is_stmt 1 view -0
 2142              		.cfi_startproc
 2143              		@ args = 0, pretend = 0, frame = 8
 2144              		@ frame_needed = 0, uses_anonymous_args = 0
 354:Drivers/lvgl/src/draw/sw/blend/../../../misc/lv_color.h ****     return lv_color_make(c.red << 3, c.green << 2, c.blue << 3);
 2145              		.loc 2 354 1 is_stmt 0 view .LVU782
 2146 0000 00B5     		push	{lr}
 2147              	.LCFI16:
 2148              		.cfi_def_cfa_offset 4
 2149              		.cfi_offset 14, -4
 2150 0002 83B0     		sub	sp, sp, #12
 2151              	.LCFI17:
 2152              		.cfi_def_cfa_offset 16
 355:Drivers/lvgl/src/draw/sw/blend/../../../misc/lv_color.h **** }
 2153              		.loc 2 355 5 is_stmt 1 view .LVU783
 355:Drivers/lvgl/src/draw/sw/blend/../../../misc/lv_color.h **** }
 2154              		.loc 2 355 27 is_stmt 0 view .LVU784
 2155 0004 C0F3C423 		ubfx	r3, r0, #11, #5
 355:Drivers/lvgl/src/draw/sw/blend/../../../misc/lv_color.h **** }
 2156              		.loc 2 355 39 view .LVU785
 2157 0008 C0F34511 		ubfx	r1, r0, #5, #6
 355:Drivers/lvgl/src/draw/sw/blend/../../../misc/lv_color.h **** }
 2158              		.loc 2 355 53 view .LVU786
 2159 000c 00F01F02 		and	r2, r0, #31
 355:Drivers/lvgl/src/draw/sw/blend/../../../misc/lv_color.h **** }
ARM GAS  /var/folders/qx/2_175_4n2s19vhvtspjhb3qh0000gn/T//cc1Hh9yO.s 			page 80


 2160              		.loc 2 355 12 view .LVU787
 2161 0010 D200     		lsls	r2, r2, #3
 2162 0012 8900     		lsls	r1, r1, #2
 2163 0014 D800     		lsls	r0, r3, #3
 2164              	.LVL229:
 355:Drivers/lvgl/src/draw/sw/blend/../../../misc/lv_color.h **** }
 2165              		.loc 2 355 12 view .LVU788
 2166 0016 FFF7FEFF 		bl	lv_color_make
 2167              	.LVL230:
 2168 001a 8DF80400 		strb	r0, [sp, #4]
 2169 001e C0F30723 		ubfx	r3, r0, #8, #8
 2170 0022 8DF80530 		strb	r3, [sp, #5]
 2171 0026 C0F30740 		ubfx	r0, r0, #16, #8
 2172 002a 8DF80600 		strb	r0, [sp, #6]
 355:Drivers/lvgl/src/draw/sw/blend/../../../misc/lv_color.h **** }
 2173              		.loc 2 355 12 discriminator 1 view .LVU789
 2174 002e 0020     		movs	r0, #0
 2175 0030 9DF80430 		ldrb	r3, [sp, #4]	@ zero_extendqisi2
 2176 0034 63F30700 		bfi	r0, r3, #0, #8
 2177 0038 9DF80530 		ldrb	r3, [sp, #5]	@ zero_extendqisi2
 2178 003c 63F30F20 		bfi	r0, r3, #8, #8
 2179 0040 9DF80630 		ldrb	r3, [sp, #6]	@ zero_extendqisi2
 2180 0044 63F31740 		bfi	r0, r3, #16, #8
 356:Drivers/lvgl/src/draw/sw/blend/../../../misc/lv_color.h **** 
 2181              		.loc 2 356 1 view .LVU790
 2182 0048 03B0     		add	sp, sp, #12
 2183              	.LCFI18:
 2184              		.cfi_def_cfa_offset 4
 2185              		@ sp needed
 2186 004a 5DF804FB 		ldr	pc, [sp], #4
 2187              		.cfi_endproc
 2188              	.LFE5:
 2190              		.section	.text.colorkey_and_recolor,"ax",%progbits
 2191              		.align	1
 2192              		.syntax unified
 2193              		.thumb
 2194              		.thumb_func
 2196              	colorkey_and_recolor:
 2197              	.LVL231:
 2198              	.LFB199:
 583:Drivers/lvgl/src/draw/sw/lv_draw_sw_img.c ****     int32_t w = lv_area_get_width(&relative_area);
 2199              		.loc 1 583 1 is_stmt 1 view -0
 2200              		.cfi_startproc
 2201              		@ args = 24, pretend = 0, frame = 96
 2202              		@ frame_needed = 0, uses_anonymous_args = 0
 583:Drivers/lvgl/src/draw/sw/lv_draw_sw_img.c ****     int32_t w = lv_area_get_width(&relative_area);
 2203              		.loc 1 583 1 is_stmt 0 view .LVU792
 2204 0000 2DE9F04F 		push	{r4, r5, r6, r7, r8, r9, r10, fp, lr}
 2205              	.LCFI19:
 2206              		.cfi_def_cfa_offset 36
 2207              		.cfi_offset 4, -36
 2208              		.cfi_offset 5, -32
 2209              		.cfi_offset 6, -28
 2210              		.cfi_offset 7, -24
 2211              		.cfi_offset 8, -20
 2212              		.cfi_offset 9, -16
 2213              		.cfi_offset 10, -12
ARM GAS  /var/folders/qx/2_175_4n2s19vhvtspjhb3qh0000gn/T//cc1Hh9yO.s 			page 81


 2214              		.cfi_offset 11, -8
 2215              		.cfi_offset 14, -4
 2216 0004 99B0     		sub	sp, sp, #100
 2217              	.LCFI20:
 2218              		.cfi_def_cfa_offset 136
 2219 0006 0EAD     		add	r5, sp, #56
 2220 0008 85E80F00 		stm	r5, {r0, r1, r2, r3}
 2221 000c DDF88CB0 		ldr	fp, [sp, #140]
 2222 0010 9DF89480 		ldrb	r8, [sp, #148]	@ zero_extendqisi2
 2223 0014 269C     		ldr	r4, [sp, #152]
 584:Drivers/lvgl/src/draw/sw/lv_draw_sw_img.c ****     int32_t h = lv_area_get_height(&relative_area);
 2224              		.loc 1 584 5 is_stmt 1 view .LVU793
 584:Drivers/lvgl/src/draw/sw/lv_draw_sw_img.c ****     int32_t h = lv_area_get_height(&relative_area);
 2225              		.loc 1 584 17 is_stmt 0 view .LVU794
 2226 0016 2846     		mov	r0, r5
 2227 0018 FFF7FEFF 		bl	lv_area_get_width
 2228              	.LVL232:
 2229 001c 8146     		mov	r9, r0
 2230              	.LVL233:
 585:Drivers/lvgl/src/draw/sw/lv_draw_sw_img.c **** 
 2231              		.loc 1 585 5 is_stmt 1 view .LVU795
 585:Drivers/lvgl/src/draw/sw/lv_draw_sw_img.c **** 
 2232              		.loc 1 585 17 is_stmt 0 view .LVU796
 2233 001e 2846     		mov	r0, r5
 2234              	.LVL234:
 585:Drivers/lvgl/src/draw/sw/lv_draw_sw_img.c **** 
 2235              		.loc 1 585 17 view .LVU797
 2236 0020 FFF7FEFF 		bl	lv_area_get_height
 2237              	.LVL235:
 2238 0024 0646     		mov	r6, r0
 2239              	.LVL236:
 588:Drivers/lvgl/src/draw/sw/lv_draw_sw_img.c ****     lv_opa_t mix = draw_dsc->recolor_opa;
 2240              		.loc 1 588 5 is_stmt 1 view .LVU798
 588:Drivers/lvgl/src/draw/sw/lv_draw_sw_img.c ****     lv_opa_t mix = draw_dsc->recolor_opa;
 2241              		.loc 1 588 16 is_stmt 0 view .LVU799
 2242 0026 E36C     		ldr	r3, [r4, #76]
 2243 0028 ADF85C30 		strh	r3, [sp, #92]	@ movhi
 2244 002c 1B0C     		lsrs	r3, r3, #16
 2245 002e 8DF85E30 		strb	r3, [sp, #94]
 589:Drivers/lvgl/src/draw/sw/lv_draw_sw_img.c ****     lv_opa_t mix_inv = 255 - mix;
 2246              		.loc 1 589 5 is_stmt 1 view .LVU800
 589:Drivers/lvgl/src/draw/sw/lv_draw_sw_img.c ****     lv_opa_t mix_inv = 255 - mix;
 2247              		.loc 1 589 14 is_stmt 0 view .LVU801
 2248 0032 94F84F30 		ldrb	r3, [r4, #79]	@ zero_extendqisi2
 2249 0036 0393     		str	r3, [sp, #12]
 2250              	.LVL237:
 590:Drivers/lvgl/src/draw/sw/lv_draw_sw_img.c **** 
 2251              		.loc 1 590 5 is_stmt 1 view .LVU802
 590:Drivers/lvgl/src/draw/sw/lv_draw_sw_img.c **** 
 2252              		.loc 1 590 14 is_stmt 0 view .LVU803
 2253 0038 DB43     		mvns	r3, r3
 2254              	.LVL238:
 590:Drivers/lvgl/src/draw/sw/lv_draw_sw_img.c **** 
 2255              		.loc 1 590 14 view .LVU804
 2256 003a DBB2     		uxtb	r3, r3
 2257 003c 0193     		str	r3, [sp, #4]
 2258              	.LVL239:
ARM GAS  /var/folders/qx/2_175_4n2s19vhvtspjhb3qh0000gn/T//cc1Hh9yO.s 			page 82


 593:Drivers/lvgl/src/draw/sw/lv_draw_sw_img.c ****     lv_color_t colorkey_high = draw_dsc->colorkey->high;
 2259              		.loc 1 593 5 is_stmt 1 view .LVU805
 593:Drivers/lvgl/src/draw/sw/lv_draw_sw_img.c ****     lv_color_t colorkey_high = draw_dsc->colorkey->high;
 2260              		.loc 1 593 39 is_stmt 0 view .LVU806
 2261 003e 636D     		ldr	r3, [r4, #84]
 593:Drivers/lvgl/src/draw/sw/lv_draw_sw_img.c ****     lv_color_t colorkey_high = draw_dsc->colorkey->high;
 2262              		.loc 1 593 16 view .LVU807
 2263 0040 1988     		ldrh	r1, [r3]	@ unaligned
 2264 0042 9A78     		ldrb	r2, [r3, #2]	@ zero_extendqisi2
 2265 0044 ADF85810 		strh	r1, [sp, #88]	@ unaligned
 2266 0048 8DF85A20 		strb	r2, [sp, #90]
 594:Drivers/lvgl/src/draw/sw/lv_draw_sw_img.c ****     if(cf == LV_COLOR_FORMAT_RGB565A8 || cf == LV_COLOR_FORMAT_RGB565) {
 2267              		.loc 1 594 5 is_stmt 1 view .LVU808
 594:Drivers/lvgl/src/draw/sw/lv_draw_sw_img.c ****     if(cf == LV_COLOR_FORMAT_RGB565A8 || cf == LV_COLOR_FORMAT_RGB565) {
 2268              		.loc 1 594 16 is_stmt 0 view .LVU809
 2269 004c B3F80320 		ldrh	r2, [r3, #3]	@ unaligned
 2270 0050 5B79     		ldrb	r3, [r3, #5]	@ zero_extendqisi2
 2271 0052 ADF85420 		strh	r2, [sp, #84]	@ unaligned
 2272 0056 8DF85630 		strb	r3, [sp, #86]
 595:Drivers/lvgl/src/draw/sw/lv_draw_sw_img.c ****         const uint8_t * src_buf_tmp = src_buf + src_stride * relative_area.y1 + relative_area.x1 * 
 2273              		.loc 1 595 5 is_stmt 1 view .LVU810
 2274 005a A8F10F03 		sub	r3, r8, #15
 2275 005e 0B2B     		cmp	r3, #11
 2276 0060 00F20082 		bhi	.L109
 2277 0064 DFE813F0 		tbh	[pc, r3, lsl #1]
 2278              	.L112:
 2279 0068 A100     		.2byte	(.L114-.L112)/2
 2280 006a A100     		.2byte	(.L114-.L112)/2
 2281 006c A100     		.2byte	(.L114-.L112)/2
 2282 006e 0C00     		.2byte	(.L113-.L112)/2
 2283 0070 FE01     		.2byte	(.L109-.L112)/2
 2284 0072 0C00     		.2byte	(.L113-.L112)/2
 2285 0074 FE01     		.2byte	(.L109-.L112)/2
 2286 0076 FE01     		.2byte	(.L109-.L112)/2
 2287 0078 FE01     		.2byte	(.L109-.L112)/2
 2288 007a FE01     		.2byte	(.L109-.L112)/2
 2289 007c FE01     		.2byte	(.L109-.L112)/2
 2290 007e 3F01     		.2byte	(.L111-.L112)/2
 2291              		.p2align 1
 2292              	.L113:
 2293              	.LBB97:
 596:Drivers/lvgl/src/draw/sw/lv_draw_sw_img.c ****         int32_t img_stride_px = src_stride / 2;
 2294              		.loc 1 596 9 view .LVU811
 596:Drivers/lvgl/src/draw/sw/lv_draw_sw_img.c ****         int32_t img_stride_px = src_stride / 2;
 2295              		.loc 1 596 94 is_stmt 0 view .LVU812
 2296 0080 0E9B     		ldr	r3, [sp, #56]
 596:Drivers/lvgl/src/draw/sw/lv_draw_sw_img.c ****         int32_t img_stride_px = src_stride / 2;
 2297              		.loc 1 596 98 view .LVU813
 2298 0082 5B00     		lsls	r3, r3, #1
 596:Drivers/lvgl/src/draw/sw/lv_draw_sw_img.c ****         int32_t img_stride_px = src_stride / 2;
 2299              		.loc 1 596 79 view .LVU814
 2300 0084 0F9A     		ldr	r2, [sp, #60]
 2301 0086 2499     		ldr	r1, [sp, #144]
 2302 0088 01FB0233 		mla	r3, r1, r2, r3
 596:Drivers/lvgl/src/draw/sw/lv_draw_sw_img.c ****         int32_t img_stride_px = src_stride / 2;
 2303              		.loc 1 596 25 view .LVU815
 2304 008c 229A     		ldr	r2, [sp, #136]
ARM GAS  /var/folders/qx/2_175_4n2s19vhvtspjhb3qh0000gn/T//cc1Hh9yO.s 			page 83


 2305 008e D518     		adds	r5, r2, r3
 2306              	.LVL240:
 597:Drivers/lvgl/src/draw/sw/lv_draw_sw_img.c **** 
 2307              		.loc 1 597 9 is_stmt 1 view .LVU816
 597:Drivers/lvgl/src/draw/sw/lv_draw_sw_img.c **** 
 2308              		.loc 1 597 17 is_stmt 0 view .LVU817
 2309 0090 01EBD173 		add	r3, r1, r1, lsr #31
 2310 0094 5B10     		asrs	r3, r3, #1
 2311 0096 0893     		str	r3, [sp, #32]
 2312              	.LVL241:
 599:Drivers/lvgl/src/draw/sw/lv_draw_sw_img.c ****         uint16_t * buf16_dest = (uint16_t *)dest_buf;
 2313              		.loc 1 599 9 is_stmt 1 view .LVU818
 600:Drivers/lvgl/src/draw/sw/lv_draw_sw_img.c ****         uint16_t recolor16 = lv_color_to_u16(recolor);
 2314              		.loc 1 600 9 view .LVU819
 601:Drivers/lvgl/src/draw/sw/lv_draw_sw_img.c **** 
 2315              		.loc 1 601 9 view .LVU820
 601:Drivers/lvgl/src/draw/sw/lv_draw_sw_img.c **** 
 2316              		.loc 1 601 30 is_stmt 0 view .LVU821
 2317 0098 1798     		ldr	r0, [sp, #92]
 2318              	.LVL242:
 601:Drivers/lvgl/src/draw/sw/lv_draw_sw_img.c **** 
 2319              		.loc 1 601 30 view .LVU822
 2320 009a FFF7FEFF 		bl	lv_color_to_u16
 2321              	.LVL243:
 603:Drivers/lvgl/src/draw/sw/lv_draw_sw_img.c ****         c_mult[0] = (recolor.blue >> 3) * mix;
 2322              		.loc 1 603 9 is_stmt 1 view .LVU823
 604:Drivers/lvgl/src/draw/sw/lv_draw_sw_img.c ****         c_mult[1] = (recolor.green >> 2) * mix;
 2323              		.loc 1 604 9 view .LVU824
 604:Drivers/lvgl/src/draw/sw/lv_draw_sw_img.c ****         c_mult[1] = (recolor.green >> 2) * mix;
 2324              		.loc 1 604 29 is_stmt 0 view .LVU825
 2325 009e 9DF85CC0 		ldrb	ip, [sp, #92]	@ zero_extendqisi2
 604:Drivers/lvgl/src/draw/sw/lv_draw_sw_img.c ****         c_mult[1] = (recolor.green >> 2) * mix;
 2326              		.loc 1 604 41 view .LVU826
 2327 00a2 4FEADC0C 		lsr	ip, ip, #3
 2328 00a6 039A     		ldr	r2, [sp, #12]
 2329 00a8 0CFB02FC 		mul	ip, ip, r2
 604:Drivers/lvgl/src/draw/sw/lv_draw_sw_img.c ****         c_mult[1] = (recolor.green >> 2) * mix;
 2330              		.loc 1 604 19 view .LVU827
 2331 00ac ADF84CC0 		strh	ip, [sp, #76]	@ movhi
 605:Drivers/lvgl/src/draw/sw/lv_draw_sw_img.c ****         c_mult[2] = (recolor.red >> 3) * mix;
 2332              		.loc 1 605 9 is_stmt 1 view .LVU828
 605:Drivers/lvgl/src/draw/sw/lv_draw_sw_img.c ****         c_mult[2] = (recolor.red >> 3) * mix;
 2333              		.loc 1 605 29 is_stmt 0 view .LVU829
 2334 00b0 9DF85D30 		ldrb	r3, [sp, #93]	@ zero_extendqisi2
 605:Drivers/lvgl/src/draw/sw/lv_draw_sw_img.c ****         c_mult[2] = (recolor.red >> 3) * mix;
 2335              		.loc 1 605 42 view .LVU830
 2336 00b4 9B08     		lsrs	r3, r3, #2
 2337 00b6 03FB02FE 		mul	lr, r3, r2
 605:Drivers/lvgl/src/draw/sw/lv_draw_sw_img.c ****         c_mult[2] = (recolor.red >> 3) * mix;
 2338              		.loc 1 605 19 view .LVU831
 2339 00ba ADF84EE0 		strh	lr, [sp, #78]	@ movhi
 606:Drivers/lvgl/src/draw/sw/lv_draw_sw_img.c ****         uint8_t * mask_buf_tmp = (uint8_t *)blend_dsc->mask_buf;
 2340              		.loc 1 606 9 is_stmt 1 view .LVU832
 606:Drivers/lvgl/src/draw/sw/lv_draw_sw_img.c ****         uint8_t * mask_buf_tmp = (uint8_t *)blend_dsc->mask_buf;
 2341              		.loc 1 606 29 is_stmt 0 view .LVU833
 2342 00be 9DF85E30 		ldrb	r3, [sp, #94]	@ zero_extendqisi2
 606:Drivers/lvgl/src/draw/sw/lv_draw_sw_img.c ****         uint8_t * mask_buf_tmp = (uint8_t *)blend_dsc->mask_buf;
ARM GAS  /var/folders/qx/2_175_4n2s19vhvtspjhb3qh0000gn/T//cc1Hh9yO.s 			page 84


 2343              		.loc 1 606 40 view .LVU834
 2344 00c2 DB08     		lsrs	r3, r3, #3
 2345 00c4 03FB02F3 		mul	r3, r3, r2
 2346 00c8 0593     		str	r3, [sp, #20]
 606:Drivers/lvgl/src/draw/sw/lv_draw_sw_img.c ****         uint8_t * mask_buf_tmp = (uint8_t *)blend_dsc->mask_buf;
 2347              		.loc 1 606 19 view .LVU835
 2348 00ca ADF85030 		strh	r3, [sp, #80]	@ movhi
 607:Drivers/lvgl/src/draw/sw/lv_draw_sw_img.c ****         int32_t y;
 2349              		.loc 1 607 9 is_stmt 1 view .LVU836
 607:Drivers/lvgl/src/draw/sw/lv_draw_sw_img.c ****         int32_t y;
 2350              		.loc 1 607 19 is_stmt 0 view .LVU837
 2351 00ce 279B     		ldr	r3, [sp, #156]
 2352 00d0 D3F818A0 		ldr	r10, [r3, #24]
 2353              	.LVL244:
 608:Drivers/lvgl/src/draw/sw/lv_draw_sw_img.c ****         for(y = 0; y < h; y++) {
 2354              		.loc 1 608 9 is_stmt 1 view .LVU838
 609:Drivers/lvgl/src/draw/sw/lv_draw_sw_img.c ****             int32_t x;
 2355              		.loc 1 609 9 view .LVU839
 609:Drivers/lvgl/src/draw/sw/lv_draw_sw_img.c ****             int32_t x;
 2356              		.loc 1 609 15 is_stmt 0 view .LVU840
 2357 00d4 0023     		movs	r3, #0
 2358 00d6 CDF818C0 		str	ip, [sp, #24]
 2359 00da CDF81CE0 		str	lr, [sp, #28]
 2360 00de 0496     		str	r6, [sp, #16]
 2361 00e0 1E46     		mov	r6, r3
 2362              	.LVL245:
 609:Drivers/lvgl/src/draw/sw/lv_draw_sw_img.c ****             int32_t x;
 2363              		.loc 1 609 15 view .LVU841
 2364 00e2 0290     		str	r0, [sp, #8]
 2365 00e4 1746     		mov	r7, r2
 609:Drivers/lvgl/src/draw/sw/lv_draw_sw_img.c ****             int32_t x;
 2366              		.loc 1 609 9 view .LVU842
 2367 00e6 59E0     		b	.L115
 2368              	.LVL246:
 2369              	.L117:
 2370              	.LBB98:
 2371              	.LBB99:
 620:Drivers/lvgl/src/draw/sw/lv_draw_sw_img.c ****                     }
 2372              		.loc 1 620 25 is_stmt 1 view .LVU843
 620:Drivers/lvgl/src/draw/sw/lv_draw_sw_img.c ****                     }
 2373              		.loc 1 620 37 is_stmt 0 view .LVU844
 2374 00e8 0023     		movs	r3, #0
 2375 00ea ABF80030 		strh	r3, [fp]	@ movhi
 2376              	.L118:
 636:Drivers/lvgl/src/draw/sw/lv_draw_sw_img.c ****             }
 2377              		.loc 1 636 17 is_stmt 1 view .LVU845
 636:Drivers/lvgl/src/draw/sw/lv_draw_sw_img.c ****             }
 2378              		.loc 1 636 27 is_stmt 0 view .LVU846
 2379 00ee 0BF1020B 		add	fp, fp, #2
 2380              	.LVL247:
 636:Drivers/lvgl/src/draw/sw/lv_draw_sw_img.c ****             }
 2381              		.loc 1 636 27 view .LVU847
 2382              	.LBE99:
 611:Drivers/lvgl/src/draw/sw/lv_draw_sw_img.c ****                 lv_color_t src_color = lv_color16_to_color(*(lv_color16_t *)&buf16_src[x]);
 2383              		.loc 1 611 32 is_stmt 1 discriminator 2 view .LVU848
 2384 00f2 0134     		adds	r4, r4, #1
 2385              	.LVL248:
ARM GAS  /var/folders/qx/2_175_4n2s19vhvtspjhb3qh0000gn/T//cc1Hh9yO.s 			page 85


 2386              	.L122:
 611:Drivers/lvgl/src/draw/sw/lv_draw_sw_img.c ****                 lv_color_t src_color = lv_color16_to_color(*(lv_color16_t *)&buf16_src[x]);
 2387              		.loc 1 611 26 discriminator 1 view .LVU849
 2388 00f4 4C45     		cmp	r4, r9
 2389 00f6 49DA     		bge	.L144
 2390              	.LBB101:
 612:Drivers/lvgl/src/draw/sw/lv_draw_sw_img.c **** 
 2391              		.loc 1 612 17 view .LVU850
 612:Drivers/lvgl/src/draw/sw/lv_draw_sw_img.c **** 
 2392              		.loc 1 612 77 is_stmt 0 view .LVU851
 2393 00f8 05EB4406 		add	r6, r5, r4, lsl #1
 612:Drivers/lvgl/src/draw/sw/lv_draw_sw_img.c **** 
 2394              		.loc 1 612 40 view .LVU852
 2395 00fc 35F81400 		ldrh	r0, [r5, r4, lsl #1]
 2396 0100 FFF7FEFF 		bl	lv_color16_to_color
 2397              	.LVL249:
 2398 0104 8DF84800 		strb	r0, [sp, #72]
 2399 0108 C0F30723 		ubfx	r3, r0, #8, #8
 2400 010c 8DF84930 		strb	r3, [sp, #73]
 2401 0110 C0F30740 		ubfx	r0, r0, #16, #8
 2402 0114 8DF84A00 		strb	r0, [sp, #74]
 615:Drivers/lvgl/src/draw/sw/lv_draw_sw_img.c ****                     if(cf == LV_COLOR_FORMAT_RGB565A8 && mask_buf_tmp) {
 2403              		.loc 1 615 17 is_stmt 1 view .LVU853
 615:Drivers/lvgl/src/draw/sw/lv_draw_sw_img.c ****                     if(cf == LV_COLOR_FORMAT_RGB565A8 && mask_buf_tmp) {
 2404              		.loc 1 615 20 is_stmt 0 view .LVU854
 2405 0118 159A     		ldr	r2, [sp, #84]
 2406 011a 1699     		ldr	r1, [sp, #88]
 2407 011c 1298     		ldr	r0, [sp, #72]
 2408 011e FFF7FEFF 		bl	lv_color_is_in_range
 2409              	.LVL250:
 615:Drivers/lvgl/src/draw/sw/lv_draw_sw_img.c ****                     if(cf == LV_COLOR_FORMAT_RGB565A8 && mask_buf_tmp) {
 2410              		.loc 1 615 19 discriminator 1 view .LVU855
 2411 0122 48B1     		cbz	r0, .L116
 616:Drivers/lvgl/src/draw/sw/lv_draw_sw_img.c ****                         mask_buf_tmp[x] = 0;
 2412              		.loc 1 616 21 is_stmt 1 view .LVU856
 616:Drivers/lvgl/src/draw/sw/lv_draw_sw_img.c ****                         mask_buf_tmp[x] = 0;
 2413              		.loc 1 616 23 is_stmt 0 view .LVU857
 2414 0124 B8F1140F 		cmp	r8, #20
 2415 0128 DED1     		bne	.L117
 616:Drivers/lvgl/src/draw/sw/lv_draw_sw_img.c ****                         mask_buf_tmp[x] = 0;
 2416              		.loc 1 616 55 discriminator 1 view .LVU858
 2417 012a BAF1000F 		cmp	r10, #0
 2418 012e DBD0     		beq	.L117
 617:Drivers/lvgl/src/draw/sw/lv_draw_sw_img.c ****                     }
 2419              		.loc 1 617 25 is_stmt 1 view .LVU859
 617:Drivers/lvgl/src/draw/sw/lv_draw_sw_img.c ****                     }
 2420              		.loc 1 617 41 is_stmt 0 view .LVU860
 2421 0130 0023     		movs	r3, #0
 2422 0132 0AF80430 		strb	r3, [r10, r4]
 2423 0136 DAE7     		b	.L118
 2424              	.L116:
 624:Drivers/lvgl/src/draw/sw/lv_draw_sw_img.c ****                     *buf16_dest = recolor16;
 2425              		.loc 1 624 22 is_stmt 1 view .LVU861
 624:Drivers/lvgl/src/draw/sw/lv_draw_sw_img.c ****                     *buf16_dest = recolor16;
 2426              		.loc 1 624 24 is_stmt 0 view .LVU862
 2427 0138 FC2F     		cmp	r7, #252
 2428 013a 03D9     		bls	.L119
ARM GAS  /var/folders/qx/2_175_4n2s19vhvtspjhb3qh0000gn/T//cc1Hh9yO.s 			page 86


 625:Drivers/lvgl/src/draw/sw/lv_draw_sw_img.c ****                 }
 2429              		.loc 1 625 21 is_stmt 1 view .LVU863
 625:Drivers/lvgl/src/draw/sw/lv_draw_sw_img.c ****                 }
 2430              		.loc 1 625 33 is_stmt 0 view .LVU864
 2431 013c 029B     		ldr	r3, [sp, #8]
 2432 013e ABF80030 		strh	r3, [fp]	@ movhi
 2433 0142 D4E7     		b	.L118
 2434              	.L119:
 627:Drivers/lvgl/src/draw/sw/lv_draw_sw_img.c ****                     uint16_t src16 = buf16_src[x];
 2435              		.loc 1 627 22 is_stmt 1 view .LVU865
 627:Drivers/lvgl/src/draw/sw/lv_draw_sw_img.c ****                     uint16_t src16 = buf16_src[x];
 2436              		.loc 1 627 24 is_stmt 0 view .LVU866
 2437 0144 022F     		cmp	r7, #2
 2438 0146 1DD9     		bls	.L120
 2439              	.LBB100:
 628:Drivers/lvgl/src/draw/sw/lv_draw_sw_img.c ****                     *buf16_dest = (((c_mult[2] + ((src16 >> 11) & 0x1F) * mix_inv) << 3) & 0xF800) 
 2440              		.loc 1 628 21 is_stmt 1 view .LVU867
 628:Drivers/lvgl/src/draw/sw/lv_draw_sw_img.c ****                     *buf16_dest = (((c_mult[2] + ((src16 >> 11) & 0x1F) * mix_inv) << 3) & 0xF800) 
 2441              		.loc 1 628 30 is_stmt 0 view .LVU868
 2442 0148 3288     		ldrh	r2, [r6]
 2443              	.LVL251:
 629:Drivers/lvgl/src/draw/sw/lv_draw_sw_img.c ****                                   (((c_mult[1] + ((src16 >> 5) & 0x3F) * mix_inv) >> 3) & 0x07E0) +
 2444              		.loc 1 629 21 is_stmt 1 view .LVU869
 629:Drivers/lvgl/src/draw/sw/lv_draw_sw_img.c ****                                   (((c_mult[1] + ((src16 >> 5) & 0x3F) * mix_inv) >> 3) & 0x07E0) +
 2445              		.loc 1 629 65 is_stmt 0 view .LVU870
 2446 014a D30A     		lsrs	r3, r2, #11
 629:Drivers/lvgl/src/draw/sw/lv_draw_sw_img.c ****                                   (((c_mult[1] + ((src16 >> 5) & 0x3F) * mix_inv) >> 3) & 0x07E0) +
 2447              		.loc 1 629 48 view .LVU871
 2448 014c 0599     		ldr	r1, [sp, #20]
 2449 014e 0198     		ldr	r0, [sp, #4]
 2450 0150 00FB0313 		mla	r3, r0, r3, r1
 629:Drivers/lvgl/src/draw/sw/lv_draw_sw_img.c ****                                   (((c_mult[1] + ((src16 >> 5) & 0x3F) * mix_inv) >> 3) & 0x07E0) +
 2451              		.loc 1 629 90 view .LVU872
 2452 0154 DB00     		lsls	r3, r3, #3
 2453 0156 03F4FC33 		and	r3, r3, #129024
 2454 015a 1BB2     		sxth	r3, r3
 630:Drivers/lvgl/src/draw/sw/lv_draw_sw_img.c ****                                   ((c_mult[0] + (src16 & 0x1F) * mix_inv) >> 8);
 2455              		.loc 1 630 64 view .LVU873
 2456 015c C2F34511 		ubfx	r1, r2, #5, #6
 630:Drivers/lvgl/src/draw/sw/lv_draw_sw_img.c ****                                   ((c_mult[0] + (src16 & 0x1F) * mix_inv) >> 8);
 2457              		.loc 1 630 48 view .LVU874
 2458 0160 079E     		ldr	r6, [sp, #28]
 2459 0162 01FB0061 		mla	r1, r1, r0, r6
 630:Drivers/lvgl/src/draw/sw/lv_draw_sw_img.c ****                                   ((c_mult[0] + (src16 & 0x1F) * mix_inv) >> 8);
 2460              		.loc 1 630 83 view .LVU875
 2461 0166 C910     		asrs	r1, r1, #3
 630:Drivers/lvgl/src/draw/sw/lv_draw_sw_img.c ****                                   ((c_mult[0] + (src16 & 0x1F) * mix_inv) >> 8);
 2462              		.loc 1 630 89 view .LVU876
 2463 0168 01F4FC61 		and	r1, r1, #2016
 629:Drivers/lvgl/src/draw/sw/lv_draw_sw_img.c ****                                   (((c_mult[1] + ((src16 >> 5) & 0x3F) * mix_inv) >> 3) & 0x07E0) +
 2464              		.loc 1 629 100 view .LVU877
 2465 016c 0B43     		orrs	r3, r3, r1
 2466 016e 9BB2     		uxth	r3, r3
 631:Drivers/lvgl/src/draw/sw/lv_draw_sw_img.c ****                 }
 2467              		.loc 1 631 56 view .LVU878
 2468 0170 02F01F02 		and	r2, r2, #31
 2469              	.LVL252:
ARM GAS  /var/folders/qx/2_175_4n2s19vhvtspjhb3qh0000gn/T//cc1Hh9yO.s 			page 87


 631:Drivers/lvgl/src/draw/sw/lv_draw_sw_img.c ****                 }
 2470              		.loc 1 631 47 view .LVU879
 2471 0174 0699     		ldr	r1, [sp, #24]
 2472 0176 02FB0012 		mla	r2, r2, r0, r1
 630:Drivers/lvgl/src/draw/sw/lv_draw_sw_img.c ****                                   ((c_mult[0] + (src16 & 0x1F) * mix_inv) >> 8);
 2473              		.loc 1 630 99 view .LVU880
 2474 017a 03EB2223 		add	r3, r3, r2, asr #8
 629:Drivers/lvgl/src/draw/sw/lv_draw_sw_img.c ****                                   (((c_mult[1] + ((src16 >> 5) & 0x3F) * mix_inv) >> 3) & 0x07E0) +
 2475              		.loc 1 629 33 view .LVU881
 2476 017e ABF80030 		strh	r3, [fp]	@ movhi
 2477              	.LVL253:
 629:Drivers/lvgl/src/draw/sw/lv_draw_sw_img.c ****                                   (((c_mult[1] + ((src16 >> 5) & 0x3F) * mix_inv) >> 3) & 0x07E0) +
 2478              		.loc 1 629 33 view .LVU882
 2479              	.LBE100:
 2480 0182 B4E7     		b	.L118
 2481              	.LVL254:
 2482              	.L120:
 634:Drivers/lvgl/src/draw/sw/lv_draw_sw_img.c ****                 }
 2483              		.loc 1 634 21 is_stmt 1 view .LVU883
 634:Drivers/lvgl/src/draw/sw/lv_draw_sw_img.c ****                 }
 2484              		.loc 1 634 44 is_stmt 0 view .LVU884
 2485 0184 3388     		ldrh	r3, [r6]
 634:Drivers/lvgl/src/draw/sw/lv_draw_sw_img.c ****                 }
 2486              		.loc 1 634 33 view .LVU885
 2487 0186 ABF80030 		strh	r3, [fp]	@ movhi
 2488 018a B0E7     		b	.L118
 2489              	.L144:
 634:Drivers/lvgl/src/draw/sw/lv_draw_sw_img.c ****                 }
 2490              		.loc 1 634 33 view .LVU886
 2491              	.LBE101:
 638:Drivers/lvgl/src/draw/sw/lv_draw_sw_img.c ****             mask_buf_tmp += blend_dsc->mask_stride;
 2492              		.loc 1 638 23 view .LVU887
 2493 018c 039E     		ldr	r6, [sp, #12]
 638:Drivers/lvgl/src/draw/sw/lv_draw_sw_img.c ****             mask_buf_tmp += blend_dsc->mask_stride;
 2494              		.loc 1 638 13 is_stmt 1 view .LVU888
 638:Drivers/lvgl/src/draw/sw/lv_draw_sw_img.c ****             mask_buf_tmp += blend_dsc->mask_stride;
 2495              		.loc 1 638 23 is_stmt 0 view .LVU889
 2496 018e 089B     		ldr	r3, [sp, #32]
 2497 0190 05EB4305 		add	r5, r5, r3, lsl #1
 2498              	.LVL255:
 639:Drivers/lvgl/src/draw/sw/lv_draw_sw_img.c ****         }
 2499              		.loc 1 639 13 is_stmt 1 view .LVU890
 639:Drivers/lvgl/src/draw/sw/lv_draw_sw_img.c ****         }
 2500              		.loc 1 639 38 is_stmt 0 view .LVU891
 2501 0194 279B     		ldr	r3, [sp, #156]
 2502 0196 5B6A     		ldr	r3, [r3, #36]
 639:Drivers/lvgl/src/draw/sw/lv_draw_sw_img.c ****         }
 2503              		.loc 1 639 26 view .LVU892
 2504 0198 9A44     		add	r10, r10, r3
 2505              	.LVL256:
 639:Drivers/lvgl/src/draw/sw/lv_draw_sw_img.c ****         }
 2506              		.loc 1 639 26 view .LVU893
 2507              	.LBE98:
 609:Drivers/lvgl/src/draw/sw/lv_draw_sw_img.c ****             int32_t x;
 2508              		.loc 1 609 28 is_stmt 1 discriminator 2 view .LVU894
 2509 019a 0136     		adds	r6, r6, #1
 2510              	.LVL257:
ARM GAS  /var/folders/qx/2_175_4n2s19vhvtspjhb3qh0000gn/T//cc1Hh9yO.s 			page 88


 2511              	.L115:
 609:Drivers/lvgl/src/draw/sw/lv_draw_sw_img.c ****             int32_t x;
 2512              		.loc 1 609 22 discriminator 1 view .LVU895
 2513 019c 049B     		ldr	r3, [sp, #16]
 2514 019e 9E42     		cmp	r6, r3
 2515 01a0 80F26081 		bge	.L109
 2516              	.LBB102:
 611:Drivers/lvgl/src/draw/sw/lv_draw_sw_img.c ****                 lv_color_t src_color = lv_color16_to_color(*(lv_color16_t *)&buf16_src[x]);
 2517              		.loc 1 611 19 is_stmt 0 view .LVU896
 2518 01a4 0024     		movs	r4, #0
 2519 01a6 0396     		str	r6, [sp, #12]
 2520 01a8 A4E7     		b	.L122
 2521              	.LVL258:
 2522              	.L114:
 611:Drivers/lvgl/src/draw/sw/lv_draw_sw_img.c ****                 lv_color_t src_color = lv_color16_to_color(*(lv_color16_t *)&buf16_src[x]);
 2523              		.loc 1 611 19 view .LVU897
 2524              	.LBE102:
 2525              	.LBE97:
 2526              	.LBB103:
 643:Drivers/lvgl/src/draw/sw/lv_draw_sw_img.c ****         const uint8_t * src_buf_tmp = src_buf + src_stride * relative_area.y1 + relative_area.x1 * 
 2527              		.loc 1 643 9 is_stmt 1 view .LVU898
 643:Drivers/lvgl/src/draw/sw/lv_draw_sw_img.c ****         const uint8_t * src_buf_tmp = src_buf + src_stride * relative_area.y1 + relative_area.x1 * 
 2528              		.loc 1 643 28 is_stmt 0 view .LVU899
 2529 01aa 4046     		mov	r0, r8
 2530              	.LVL259:
 643:Drivers/lvgl/src/draw/sw/lv_draw_sw_img.c ****         const uint8_t * src_buf_tmp = src_buf + src_stride * relative_area.y1 + relative_area.x1 * 
 2531              		.loc 1 643 28 view .LVU900
 2532 01ac FFF7FEFF 		bl	lv_color_format_get_size
 2533              	.LVL260:
 2534 01b0 0746     		mov	r7, r0
 2535              	.LVL261:
 644:Drivers/lvgl/src/draw/sw/lv_draw_sw_img.c ****         uint8_t * dest_buf_tmp = dest_buf;
 2536              		.loc 1 644 9 is_stmt 1 view .LVU901
 644:Drivers/lvgl/src/draw/sw/lv_draw_sw_img.c ****         uint8_t * dest_buf_tmp = dest_buf;
 2537              		.loc 1 644 94 is_stmt 0 view .LVU902
 2538 01b2 0E9B     		ldr	r3, [sp, #56]
 644:Drivers/lvgl/src/draw/sw/lv_draw_sw_img.c ****         uint8_t * dest_buf_tmp = dest_buf;
 2539              		.loc 1 644 98 view .LVU903
 2540 01b4 00FB03F3 		mul	r3, r0, r3
 644:Drivers/lvgl/src/draw/sw/lv_draw_sw_img.c ****         uint8_t * dest_buf_tmp = dest_buf;
 2541              		.loc 1 644 79 view .LVU904
 2542 01b8 0F9A     		ldr	r2, [sp, #60]
 2543 01ba 2499     		ldr	r1, [sp, #144]
 2544 01bc 01FB0233 		mla	r3, r1, r2, r3
 644:Drivers/lvgl/src/draw/sw/lv_draw_sw_img.c ****         uint8_t * dest_buf_tmp = dest_buf;
 2545              		.loc 1 644 25 view .LVU905
 2546 01c0 229A     		ldr	r2, [sp, #136]
 2547 01c2 D418     		adds	r4, r2, r3
 2548              	.LVL262:
 645:Drivers/lvgl/src/draw/sw/lv_draw_sw_img.c **** 
 2549              		.loc 1 645 9 is_stmt 1 view .LVU906
 647:Drivers/lvgl/src/draw/sw/lv_draw_sw_img.c ****         c_mult[0] = recolor.blue * mix;
 2550              		.loc 1 647 9 view .LVU907
 648:Drivers/lvgl/src/draw/sw/lv_draw_sw_img.c ****         c_mult[1] = recolor.green * mix;
 2551              		.loc 1 648 9 view .LVU908
 648:Drivers/lvgl/src/draw/sw/lv_draw_sw_img.c ****         c_mult[1] = recolor.green * mix;
 2552              		.loc 1 648 28 is_stmt 0 view .LVU909
ARM GAS  /var/folders/qx/2_175_4n2s19vhvtspjhb3qh0000gn/T//cc1Hh9yO.s 			page 89


 2553 01c4 9DF85C20 		ldrb	r2, [sp, #92]	@ zero_extendqisi2
 2554 01c8 0292     		str	r2, [sp, #8]
 648:Drivers/lvgl/src/draw/sw/lv_draw_sw_img.c ****         c_mult[1] = recolor.green * mix;
 2555              		.loc 1 648 34 view .LVU910
 2556 01ca 039B     		ldr	r3, [sp, #12]
 2557 01cc 02FB03F1 		mul	r1, r2, r3
 648:Drivers/lvgl/src/draw/sw/lv_draw_sw_img.c ****         c_mult[1] = recolor.green * mix;
 2558              		.loc 1 648 19 view .LVU911
 2559 01d0 ADF84C10 		strh	r1, [sp, #76]	@ movhi
 649:Drivers/lvgl/src/draw/sw/lv_draw_sw_img.c ****         c_mult[2] = recolor.red * mix;
 2560              		.loc 1 649 9 is_stmt 1 view .LVU912
 649:Drivers/lvgl/src/draw/sw/lv_draw_sw_img.c ****         c_mult[2] = recolor.red * mix;
 2561              		.loc 1 649 28 is_stmt 0 view .LVU913
 2562 01d4 9DF85D20 		ldrb	r2, [sp, #93]	@ zero_extendqisi2
 2563 01d8 0392     		str	r2, [sp, #12]
 2564              	.LVL263:
 649:Drivers/lvgl/src/draw/sw/lv_draw_sw_img.c ****         c_mult[2] = recolor.red * mix;
 2565              		.loc 1 649 35 view .LVU914
 2566 01da 03FB02FC 		mul	ip, r3, r2
 649:Drivers/lvgl/src/draw/sw/lv_draw_sw_img.c ****         c_mult[2] = recolor.red * mix;
 2567              		.loc 1 649 19 view .LVU915
 2568 01de ADF84EC0 		strh	ip, [sp, #78]	@ movhi
 650:Drivers/lvgl/src/draw/sw/lv_draw_sw_img.c **** 
 2569              		.loc 1 650 9 is_stmt 1 view .LVU916
 650:Drivers/lvgl/src/draw/sw/lv_draw_sw_img.c **** 
 2570              		.loc 1 650 28 is_stmt 0 view .LVU917
 2571 01e2 9DF85EA0 		ldrb	r10, [sp, #94]	@ zero_extendqisi2
 650:Drivers/lvgl/src/draw/sw/lv_draw_sw_img.c **** 
 2572              		.loc 1 650 33 view .LVU918
 2573 01e6 03FB0AFE 		mul	lr, r3, r10
 650:Drivers/lvgl/src/draw/sw/lv_draw_sw_img.c **** 
 2574              		.loc 1 650 19 view .LVU919
 2575 01ea ADF850E0 		strh	lr, [sp, #80]	@ movhi
 652:Drivers/lvgl/src/draw/sw/lv_draw_sw_img.c ****         for(y = 0; y < h; y++) {
 2576              		.loc 1 652 9 is_stmt 1 view .LVU920
 653:Drivers/lvgl/src/draw/sw/lv_draw_sw_img.c ****             int32_t x;
 2577              		.loc 1 653 9 view .LVU921
 2578              	.LVL264:
 653:Drivers/lvgl/src/draw/sw/lv_draw_sw_img.c ****             int32_t x;
 2579              		.loc 1 653 15 is_stmt 0 view .LVU922
 2580 01ee 0022     		movs	r2, #0
 2581 01f0 0791     		str	r1, [sp, #28]
 2582 01f2 CDF820C0 		str	ip, [sp, #32]
 2583 01f6 CDF810A0 		str	r10, [sp, #16]
 2584 01fa CDF824E0 		str	lr, [sp, #36]
 2585 01fe 0696     		str	r6, [sp, #24]
 2586 0200 1646     		mov	r6, r2
 2587              	.LVL265:
 653:Drivers/lvgl/src/draw/sw/lv_draw_sw_img.c ****             int32_t x;
 2588              		.loc 1 653 15 view .LVU923
 2589 0202 9A46     		mov	r10, r3
 653:Drivers/lvgl/src/draw/sw/lv_draw_sw_img.c ****             int32_t x;
 2590              		.loc 1 653 9 view .LVU924
 2591 0204 68E0     		b	.L123
 2592              	.LVL266:
 2593              	.L124:
 2594              	.LBB104:
ARM GAS  /var/folders/qx/2_175_4n2s19vhvtspjhb3qh0000gn/T//cc1Hh9yO.s 			page 90


 2595              	.LBB105:
 671:Drivers/lvgl/src/draw/sw/lv_draw_sw_img.c ****                     dest_buf_tmp[0] = recolor.blue;
 2596              		.loc 1 671 22 is_stmt 1 view .LVU925
 671:Drivers/lvgl/src/draw/sw/lv_draw_sw_img.c ****                     dest_buf_tmp[0] = recolor.blue;
 2597              		.loc 1 671 24 is_stmt 0 view .LVU926
 2598 0206 BAF1FC0F 		cmp	r10, #252
 2599 020a 31D9     		bls	.L126
 672:Drivers/lvgl/src/draw/sw/lv_draw_sw_img.c ****                     dest_buf_tmp[1] = recolor.green;
 2600              		.loc 1 672 21 is_stmt 1 view .LVU927
 672:Drivers/lvgl/src/draw/sw/lv_draw_sw_img.c ****                     dest_buf_tmp[1] = recolor.green;
 2601              		.loc 1 672 37 is_stmt 0 view .LVU928
 2602 020c 029B     		ldr	r3, [sp, #8]
 2603 020e 8BF80030 		strb	r3, [fp]
 673:Drivers/lvgl/src/draw/sw/lv_draw_sw_img.c ****                     dest_buf_tmp[2] = recolor.red;
 2604              		.loc 1 673 21 is_stmt 1 view .LVU929
 673:Drivers/lvgl/src/draw/sw/lv_draw_sw_img.c ****                     dest_buf_tmp[2] = recolor.red;
 2605              		.loc 1 673 37 is_stmt 0 view .LVU930
 2606 0212 039B     		ldr	r3, [sp, #12]
 2607 0214 8BF80130 		strb	r3, [fp, #1]
 674:Drivers/lvgl/src/draw/sw/lv_draw_sw_img.c ****                     if(cf == LV_COLOR_FORMAT_ARGB8888) {
 2608              		.loc 1 674 21 is_stmt 1 view .LVU931
 674:Drivers/lvgl/src/draw/sw/lv_draw_sw_img.c ****                     if(cf == LV_COLOR_FORMAT_ARGB8888) {
 2609              		.loc 1 674 37 is_stmt 0 view .LVU932
 2610 0218 049B     		ldr	r3, [sp, #16]
 2611 021a 8BF80230 		strb	r3, [fp, #2]
 675:Drivers/lvgl/src/draw/sw/lv_draw_sw_img.c ****                         dest_buf_tmp[3] = src_buf_tmp[3]; // Keep original alpha
 2612              		.loc 1 675 21 is_stmt 1 view .LVU933
 675:Drivers/lvgl/src/draw/sw/lv_draw_sw_img.c ****                         dest_buf_tmp[3] = src_buf_tmp[3]; // Keep original alpha
 2613              		.loc 1 675 23 is_stmt 0 view .LVU934
 2614 021e B8F1100F 		cmp	r8, #16
 2615 0222 21D0     		beq	.L145
 2616              	.L125:
 697:Drivers/lvgl/src/draw/sw/lv_draw_sw_img.c ****                 dest_buf_tmp += px_size;
 2617              		.loc 1 697 17 is_stmt 1 view .LVU935
 697:Drivers/lvgl/src/draw/sw/lv_draw_sw_img.c ****                 dest_buf_tmp += px_size;
 2618              		.loc 1 697 29 is_stmt 0 view .LVU936
 2619 0224 3C44     		add	r4, r4, r7
 2620              	.LVL267:
 698:Drivers/lvgl/src/draw/sw/lv_draw_sw_img.c ****             }
 2621              		.loc 1 698 17 is_stmt 1 view .LVU937
 698:Drivers/lvgl/src/draw/sw/lv_draw_sw_img.c ****             }
 2622              		.loc 1 698 30 is_stmt 0 view .LVU938
 2623 0226 BB44     		add	fp, fp, r7
 2624              	.LVL268:
 698:Drivers/lvgl/src/draw/sw/lv_draw_sw_img.c ****             }
 2625              		.loc 1 698 30 view .LVU939
 2626              	.LBE105:
 655:Drivers/lvgl/src/draw/sw/lv_draw_sw_img.c ****                 lv_color_t src_color;
 2627              		.loc 1 655 32 is_stmt 1 discriminator 2 view .LVU940
 2628 0228 0135     		adds	r5, r5, #1
 2629              	.LVL269:
 2630              	.L129:
 655:Drivers/lvgl/src/draw/sw/lv_draw_sw_img.c ****                 lv_color_t src_color;
 2631              		.loc 1 655 26 discriminator 1 view .LVU941
 2632 022a 4D45     		cmp	r5, r9
 2633 022c 4EDA     		bge	.L146
 2634              	.LBB106:
ARM GAS  /var/folders/qx/2_175_4n2s19vhvtspjhb3qh0000gn/T//cc1Hh9yO.s 			page 91


 656:Drivers/lvgl/src/draw/sw/lv_draw_sw_img.c ****                 src_color.blue = src_buf_tmp[0];
 2635              		.loc 1 656 17 view .LVU942
 657:Drivers/lvgl/src/draw/sw/lv_draw_sw_img.c ****                 src_color.green = src_buf_tmp[1];
 2636              		.loc 1 657 17 view .LVU943
 657:Drivers/lvgl/src/draw/sw/lv_draw_sw_img.c ****                 src_color.green = src_buf_tmp[1];
 2637              		.loc 1 657 45 is_stmt 0 view .LVU944
 2638 022e 2678     		ldrb	r6, [r4]	@ zero_extendqisi2
 657:Drivers/lvgl/src/draw/sw/lv_draw_sw_img.c ****                 src_color.green = src_buf_tmp[1];
 2639              		.loc 1 657 32 view .LVU945
 2640 0230 8DF84860 		strb	r6, [sp, #72]
 658:Drivers/lvgl/src/draw/sw/lv_draw_sw_img.c ****                 src_color.red = src_buf_tmp[2];
 2641              		.loc 1 658 17 is_stmt 1 view .LVU946
 658:Drivers/lvgl/src/draw/sw/lv_draw_sw_img.c ****                 src_color.red = src_buf_tmp[2];
 2642              		.loc 1 658 46 is_stmt 0 view .LVU947
 2643 0234 6378     		ldrb	r3, [r4, #1]	@ zero_extendqisi2
 658:Drivers/lvgl/src/draw/sw/lv_draw_sw_img.c ****                 src_color.red = src_buf_tmp[2];
 2644              		.loc 1 658 33 view .LVU948
 2645 0236 8DF84930 		strb	r3, [sp, #73]
 659:Drivers/lvgl/src/draw/sw/lv_draw_sw_img.c **** 
 2646              		.loc 1 659 17 is_stmt 1 view .LVU949
 659:Drivers/lvgl/src/draw/sw/lv_draw_sw_img.c **** 
 2647              		.loc 1 659 44 is_stmt 0 view .LVU950
 2648 023a A378     		ldrb	r3, [r4, #2]	@ zero_extendqisi2
 659:Drivers/lvgl/src/draw/sw/lv_draw_sw_img.c **** 
 2649              		.loc 1 659 31 view .LVU951
 2650 023c 8DF84A30 		strb	r3, [sp, #74]
 662:Drivers/lvgl/src/draw/sw/lv_draw_sw_img.c ****                     dest_buf_tmp[0] = 0;
 2651              		.loc 1 662 17 is_stmt 1 view .LVU952
 662:Drivers/lvgl/src/draw/sw/lv_draw_sw_img.c ****                     dest_buf_tmp[0] = 0;
 2652              		.loc 1 662 20 is_stmt 0 view .LVU953
 2653 0240 159A     		ldr	r2, [sp, #84]
 2654 0242 1699     		ldr	r1, [sp, #88]
 2655 0244 1298     		ldr	r0, [sp, #72]
 2656 0246 FFF7FEFF 		bl	lv_color_is_in_range
 2657              	.LVL270:
 662:Drivers/lvgl/src/draw/sw/lv_draw_sw_img.c ****                     dest_buf_tmp[0] = 0;
 2658              		.loc 1 662 19 discriminator 1 view .LVU954
 2659 024a 0028     		cmp	r0, #0
 2660 024c DBD0     		beq	.L124
 663:Drivers/lvgl/src/draw/sw/lv_draw_sw_img.c ****                     dest_buf_tmp[1] = 0;
 2661              		.loc 1 663 21 is_stmt 1 view .LVU955
 663:Drivers/lvgl/src/draw/sw/lv_draw_sw_img.c ****                     dest_buf_tmp[1] = 0;
 2662              		.loc 1 663 37 is_stmt 0 view .LVU956
 2663 024e 0023     		movs	r3, #0
 2664 0250 8BF80030 		strb	r3, [fp]
 664:Drivers/lvgl/src/draw/sw/lv_draw_sw_img.c ****                     dest_buf_tmp[2] = 0;
 2665              		.loc 1 664 21 is_stmt 1 view .LVU957
 664:Drivers/lvgl/src/draw/sw/lv_draw_sw_img.c ****                     dest_buf_tmp[2] = 0;
 2666              		.loc 1 664 37 is_stmt 0 view .LVU958
 2667 0254 8BF80130 		strb	r3, [fp, #1]
 665:Drivers/lvgl/src/draw/sw/lv_draw_sw_img.c ****                     if(cf == LV_COLOR_FORMAT_ARGB8888) {
 2668              		.loc 1 665 21 is_stmt 1 view .LVU959
 665:Drivers/lvgl/src/draw/sw/lv_draw_sw_img.c ****                     if(cf == LV_COLOR_FORMAT_ARGB8888) {
 2669              		.loc 1 665 37 is_stmt 0 view .LVU960
 2670 0258 8BF80230 		strb	r3, [fp, #2]
 666:Drivers/lvgl/src/draw/sw/lv_draw_sw_img.c ****                         dest_buf_tmp[3] = 0; // Set alpha to 0
 2671              		.loc 1 666 21 is_stmt 1 view .LVU961
ARM GAS  /var/folders/qx/2_175_4n2s19vhvtspjhb3qh0000gn/T//cc1Hh9yO.s 			page 92


 666:Drivers/lvgl/src/draw/sw/lv_draw_sw_img.c ****                         dest_buf_tmp[3] = 0; // Set alpha to 0
 2672              		.loc 1 666 23 is_stmt 0 view .LVU962
 2673 025c B8F1100F 		cmp	r8, #16
 2674 0260 E0D1     		bne	.L125
 667:Drivers/lvgl/src/draw/sw/lv_draw_sw_img.c ****                     }
 2675              		.loc 1 667 25 is_stmt 1 view .LVU963
 667:Drivers/lvgl/src/draw/sw/lv_draw_sw_img.c ****                     }
 2676              		.loc 1 667 41 is_stmt 0 view .LVU964
 2677 0262 8BF80330 		strb	r3, [fp, #3]
 2678 0266 DDE7     		b	.L125
 2679              	.L145:
 676:Drivers/lvgl/src/draw/sw/lv_draw_sw_img.c ****                     }
 2680              		.loc 1 676 25 is_stmt 1 view .LVU965
 676:Drivers/lvgl/src/draw/sw/lv_draw_sw_img.c ****                     }
 2681              		.loc 1 676 54 is_stmt 0 view .LVU966
 2682 0268 E378     		ldrb	r3, [r4, #3]	@ zero_extendqisi2
 676:Drivers/lvgl/src/draw/sw/lv_draw_sw_img.c ****                     }
 2683              		.loc 1 676 41 view .LVU967
 2684 026a 8BF80330 		strb	r3, [fp, #3]
 2685 026e D9E7     		b	.L125
 2686              	.L126:
 679:Drivers/lvgl/src/draw/sw/lv_draw_sw_img.c ****                     dest_buf_tmp[0] = (c_mult[0] + (src_buf_tmp[0] * mix_inv)) >> 8;
 2687              		.loc 1 679 22 is_stmt 1 view .LVU968
 679:Drivers/lvgl/src/draw/sw/lv_draw_sw_img.c ****                     dest_buf_tmp[0] = (c_mult[0] + (src_buf_tmp[0] * mix_inv)) >> 8;
 2688              		.loc 1 679 24 is_stmt 0 view .LVU969
 2689 0270 BAF1020F 		cmp	r10, #2
 2690 0274 1BD9     		bls	.L127
 680:Drivers/lvgl/src/draw/sw/lv_draw_sw_img.c ****                     dest_buf_tmp[1] = (c_mult[1] + (src_buf_tmp[1] * mix_inv)) >> 8;
 2691              		.loc 1 680 21 is_stmt 1 view .LVU970
 680:Drivers/lvgl/src/draw/sw/lv_draw_sw_img.c ****                     dest_buf_tmp[1] = (c_mult[1] + (src_buf_tmp[1] * mix_inv)) >> 8;
 2692              		.loc 1 680 50 is_stmt 0 view .LVU971
 2693 0276 079B     		ldr	r3, [sp, #28]
 2694 0278 019A     		ldr	r2, [sp, #4]
 2695 027a 02FB0636 		mla	r6, r2, r6, r3
 680:Drivers/lvgl/src/draw/sw/lv_draw_sw_img.c ****                     dest_buf_tmp[1] = (c_mult[1] + (src_buf_tmp[1] * mix_inv)) >> 8;
 2696              		.loc 1 680 80 view .LVU972
 2697 027e 3612     		asrs	r6, r6, #8
 680:Drivers/lvgl/src/draw/sw/lv_draw_sw_img.c ****                     dest_buf_tmp[1] = (c_mult[1] + (src_buf_tmp[1] * mix_inv)) >> 8;
 2698              		.loc 1 680 37 view .LVU973
 2699 0280 8BF80060 		strb	r6, [fp]
 681:Drivers/lvgl/src/draw/sw/lv_draw_sw_img.c ****                     dest_buf_tmp[2] = (c_mult[2] + (src_buf_tmp[2] * mix_inv)) >> 8;
 2700              		.loc 1 681 21 is_stmt 1 view .LVU974
 681:Drivers/lvgl/src/draw/sw/lv_draw_sw_img.c ****                     dest_buf_tmp[2] = (c_mult[2] + (src_buf_tmp[2] * mix_inv)) >> 8;
 2701              		.loc 1 681 64 is_stmt 0 view .LVU975
 2702 0284 6378     		ldrb	r3, [r4, #1]	@ zero_extendqisi2
 681:Drivers/lvgl/src/draw/sw/lv_draw_sw_img.c ****                     dest_buf_tmp[2] = (c_mult[2] + (src_buf_tmp[2] * mix_inv)) >> 8;
 2703              		.loc 1 681 50 view .LVU976
 2704 0286 0899     		ldr	r1, [sp, #32]
 2705 0288 03FB0213 		mla	r3, r3, r2, r1
 681:Drivers/lvgl/src/draw/sw/lv_draw_sw_img.c ****                     dest_buf_tmp[2] = (c_mult[2] + (src_buf_tmp[2] * mix_inv)) >> 8;
 2706              		.loc 1 681 80 view .LVU977
 2707 028c 1B12     		asrs	r3, r3, #8
 681:Drivers/lvgl/src/draw/sw/lv_draw_sw_img.c ****                     dest_buf_tmp[2] = (c_mult[2] + (src_buf_tmp[2] * mix_inv)) >> 8;
 2708              		.loc 1 681 37 view .LVU978
 2709 028e 8BF80130 		strb	r3, [fp, #1]
 682:Drivers/lvgl/src/draw/sw/lv_draw_sw_img.c ****                     if(cf == LV_COLOR_FORMAT_ARGB8888) {
 2710              		.loc 1 682 21 is_stmt 1 view .LVU979
ARM GAS  /var/folders/qx/2_175_4n2s19vhvtspjhb3qh0000gn/T//cc1Hh9yO.s 			page 93


 682:Drivers/lvgl/src/draw/sw/lv_draw_sw_img.c ****                     if(cf == LV_COLOR_FORMAT_ARGB8888) {
 2711              		.loc 1 682 64 is_stmt 0 view .LVU980
 2712 0292 A378     		ldrb	r3, [r4, #2]	@ zero_extendqisi2
 682:Drivers/lvgl/src/draw/sw/lv_draw_sw_img.c ****                     if(cf == LV_COLOR_FORMAT_ARGB8888) {
 2713              		.loc 1 682 50 view .LVU981
 2714 0294 0999     		ldr	r1, [sp, #36]
 2715 0296 03FB0213 		mla	r3, r3, r2, r1
 682:Drivers/lvgl/src/draw/sw/lv_draw_sw_img.c ****                     if(cf == LV_COLOR_FORMAT_ARGB8888) {
 2716              		.loc 1 682 80 view .LVU982
 2717 029a 1B12     		asrs	r3, r3, #8
 682:Drivers/lvgl/src/draw/sw/lv_draw_sw_img.c ****                     if(cf == LV_COLOR_FORMAT_ARGB8888) {
 2718              		.loc 1 682 37 view .LVU983
 2719 029c 8BF80230 		strb	r3, [fp, #2]
 683:Drivers/lvgl/src/draw/sw/lv_draw_sw_img.c ****                         dest_buf_tmp[3] = src_buf_tmp[3]; // Keep original alpha
 2720              		.loc 1 683 21 is_stmt 1 view .LVU984
 683:Drivers/lvgl/src/draw/sw/lv_draw_sw_img.c ****                         dest_buf_tmp[3] = src_buf_tmp[3]; // Keep original alpha
 2721              		.loc 1 683 23 is_stmt 0 view .LVU985
 2722 02a0 B8F1100F 		cmp	r8, #16
 2723 02a4 BED1     		bne	.L125
 684:Drivers/lvgl/src/draw/sw/lv_draw_sw_img.c ****                     }
 2724              		.loc 1 684 25 is_stmt 1 view .LVU986
 684:Drivers/lvgl/src/draw/sw/lv_draw_sw_img.c ****                     }
 2725              		.loc 1 684 54 is_stmt 0 view .LVU987
 2726 02a6 E378     		ldrb	r3, [r4, #3]	@ zero_extendqisi2
 684:Drivers/lvgl/src/draw/sw/lv_draw_sw_img.c ****                     }
 2727              		.loc 1 684 41 view .LVU988
 2728 02a8 8BF80330 		strb	r3, [fp, #3]
 2729 02ac BAE7     		b	.L125
 2730              	.L127:
 689:Drivers/lvgl/src/draw/sw/lv_draw_sw_img.c ****                     dest_buf_tmp[1] = src_buf_tmp[1];
 2731              		.loc 1 689 21 is_stmt 1 view .LVU989
 689:Drivers/lvgl/src/draw/sw/lv_draw_sw_img.c ****                     dest_buf_tmp[1] = src_buf_tmp[1];
 2732              		.loc 1 689 37 is_stmt 0 view .LVU990
 2733 02ae 8BF80060 		strb	r6, [fp]
 690:Drivers/lvgl/src/draw/sw/lv_draw_sw_img.c ****                     dest_buf_tmp[2] = src_buf_tmp[2];
 2734              		.loc 1 690 21 is_stmt 1 view .LVU991
 690:Drivers/lvgl/src/draw/sw/lv_draw_sw_img.c ****                     dest_buf_tmp[2] = src_buf_tmp[2];
 2735              		.loc 1 690 50 is_stmt 0 view .LVU992
 2736 02b2 6378     		ldrb	r3, [r4, #1]	@ zero_extendqisi2
 690:Drivers/lvgl/src/draw/sw/lv_draw_sw_img.c ****                     dest_buf_tmp[2] = src_buf_tmp[2];
 2737              		.loc 1 690 37 view .LVU993
 2738 02b4 8BF80130 		strb	r3, [fp, #1]
 691:Drivers/lvgl/src/draw/sw/lv_draw_sw_img.c ****                     if(cf == LV_COLOR_FORMAT_ARGB8888) {
 2739              		.loc 1 691 21 is_stmt 1 view .LVU994
 691:Drivers/lvgl/src/draw/sw/lv_draw_sw_img.c ****                     if(cf == LV_COLOR_FORMAT_ARGB8888) {
 2740              		.loc 1 691 50 is_stmt 0 view .LVU995
 2741 02b8 A378     		ldrb	r3, [r4, #2]	@ zero_extendqisi2
 691:Drivers/lvgl/src/draw/sw/lv_draw_sw_img.c ****                     if(cf == LV_COLOR_FORMAT_ARGB8888) {
 2742              		.loc 1 691 37 view .LVU996
 2743 02ba 8BF80230 		strb	r3, [fp, #2]
 692:Drivers/lvgl/src/draw/sw/lv_draw_sw_img.c ****                         dest_buf_tmp[3] = src_buf_tmp[3];
 2744              		.loc 1 692 21 is_stmt 1 view .LVU997
 692:Drivers/lvgl/src/draw/sw/lv_draw_sw_img.c ****                         dest_buf_tmp[3] = src_buf_tmp[3];
 2745              		.loc 1 692 23 is_stmt 0 view .LVU998
 2746 02be B8F1100F 		cmp	r8, #16
 2747 02c2 AFD1     		bne	.L125
 693:Drivers/lvgl/src/draw/sw/lv_draw_sw_img.c ****                     }
ARM GAS  /var/folders/qx/2_175_4n2s19vhvtspjhb3qh0000gn/T//cc1Hh9yO.s 			page 94


 2748              		.loc 1 693 25 is_stmt 1 view .LVU999
 693:Drivers/lvgl/src/draw/sw/lv_draw_sw_img.c ****                     }
 2749              		.loc 1 693 54 is_stmt 0 view .LVU1000
 2750 02c4 E378     		ldrb	r3, [r4, #3]	@ zero_extendqisi2
 693:Drivers/lvgl/src/draw/sw/lv_draw_sw_img.c ****                     }
 2751              		.loc 1 693 41 view .LVU1001
 2752 02c6 8BF80330 		strb	r3, [fp, #3]
 2753 02ca ABE7     		b	.L125
 2754              	.L146:
 693:Drivers/lvgl/src/draw/sw/lv_draw_sw_img.c ****                     }
 2755              		.loc 1 693 41 view .LVU1002
 2756              	.LBE106:
 700:Drivers/lvgl/src/draw/sw/lv_draw_sw_img.c ****         }
 2757              		.loc 1 700 40 view .LVU1003
 2758 02cc 059E     		ldr	r6, [sp, #20]
 700:Drivers/lvgl/src/draw/sw/lv_draw_sw_img.c ****         }
 2759              		.loc 1 700 13 is_stmt 1 view .LVU1004
 700:Drivers/lvgl/src/draw/sw/lv_draw_sw_img.c ****         }
 2760              		.loc 1 700 40 is_stmt 0 view .LVU1005
 2761 02ce 249B     		ldr	r3, [sp, #144]
 2762 02d0 07FB1933 		mls	r3, r7, r9, r3
 700:Drivers/lvgl/src/draw/sw/lv_draw_sw_img.c ****         }
 2763              		.loc 1 700 25 view .LVU1006
 2764 02d4 1C44     		add	r4, r4, r3
 2765              	.LVL271:
 700:Drivers/lvgl/src/draw/sw/lv_draw_sw_img.c ****         }
 2766              		.loc 1 700 25 view .LVU1007
 2767              	.LBE104:
 653:Drivers/lvgl/src/draw/sw/lv_draw_sw_img.c ****             int32_t x;
 2768              		.loc 1 653 28 is_stmt 1 discriminator 2 view .LVU1008
 2769 02d6 0136     		adds	r6, r6, #1
 2770              	.LVL272:
 2771              	.L123:
 653:Drivers/lvgl/src/draw/sw/lv_draw_sw_img.c ****             int32_t x;
 2772              		.loc 1 653 22 discriminator 1 view .LVU1009
 2773 02d8 069B     		ldr	r3, [sp, #24]
 2774 02da 9E42     		cmp	r6, r3
 2775 02dc 80F2C280 		bge	.L109
 2776              	.LBB107:
 655:Drivers/lvgl/src/draw/sw/lv_draw_sw_img.c ****                 lv_color_t src_color;
 2777              		.loc 1 655 19 is_stmt 0 view .LVU1010
 2778 02e0 0025     		movs	r5, #0
 2779 02e2 0596     		str	r6, [sp, #20]
 2780 02e4 A1E7     		b	.L129
 2781              	.LVL273:
 2782              	.L111:
 655:Drivers/lvgl/src/draw/sw/lv_draw_sw_img.c ****                 lv_color_t src_color;
 2783              		.loc 1 655 19 view .LVU1011
 2784              	.LBE107:
 2785              	.LBE103:
 2786              	.LBB108:
 704:Drivers/lvgl/src/draw/sw/lv_draw_sw_img.c ****         const uint8_t * src_buf_tmp = src_buf + src_stride * relative_area.y1 + relative_area.x1 * 
 2787              		.loc 1 704 9 is_stmt 1 view .LVU1012
 705:Drivers/lvgl/src/draw/sw/lv_draw_sw_img.c ****         uint8_t * dest_buf_tmp = dest_buf;
 2788              		.loc 1 705 9 view .LVU1013
 705:Drivers/lvgl/src/draw/sw/lv_draw_sw_img.c ****         uint8_t * dest_buf_tmp = dest_buf;
 2789              		.loc 1 705 94 is_stmt 0 view .LVU1014
ARM GAS  /var/folders/qx/2_175_4n2s19vhvtspjhb3qh0000gn/T//cc1Hh9yO.s 			page 95


 2790 02e6 0E9B     		ldr	r3, [sp, #56]
 705:Drivers/lvgl/src/draw/sw/lv_draw_sw_img.c ****         uint8_t * dest_buf_tmp = dest_buf;
 2791              		.loc 1 705 98 view .LVU1015
 2792 02e8 9B00     		lsls	r3, r3, #2
 705:Drivers/lvgl/src/draw/sw/lv_draw_sw_img.c ****         uint8_t * dest_buf_tmp = dest_buf;
 2793              		.loc 1 705 79 view .LVU1016
 2794 02ea 0F9A     		ldr	r2, [sp, #60]
 2795 02ec 2499     		ldr	r1, [sp, #144]
 2796 02ee 01FB0233 		mla	r3, r1, r2, r3
 705:Drivers/lvgl/src/draw/sw/lv_draw_sw_img.c ****         uint8_t * dest_buf_tmp = dest_buf;
 2797              		.loc 1 705 25 view .LVU1017
 2798 02f2 229A     		ldr	r2, [sp, #136]
 2799 02f4 02EB030A 		add	r10, r2, r3
 2800              	.LVL274:
 706:Drivers/lvgl/src/draw/sw/lv_draw_sw_img.c **** 
 2801              		.loc 1 706 9 is_stmt 1 view .LVU1018
 708:Drivers/lvgl/src/draw/sw/lv_draw_sw_img.c ****         c_mult[0] = recolor.blue * mix;
 2802              		.loc 1 708 9 view .LVU1019
 709:Drivers/lvgl/src/draw/sw/lv_draw_sw_img.c ****         c_mult[1] = recolor.green * mix;
 2803              		.loc 1 709 9 view .LVU1020
 709:Drivers/lvgl/src/draw/sw/lv_draw_sw_img.c ****         c_mult[1] = recolor.green * mix;
 2804              		.loc 1 709 28 is_stmt 0 view .LVU1021
 2805 02f8 9DF85CE0 		ldrb	lr, [sp, #92]	@ zero_extendqisi2
 709:Drivers/lvgl/src/draw/sw/lv_draw_sw_img.c ****         c_mult[1] = recolor.green * mix;
 2806              		.loc 1 709 34 view .LVU1022
 2807 02fc 039B     		ldr	r3, [sp, #12]
 2808 02fe 0EFB03FC 		mul	ip, lr, r3
 709:Drivers/lvgl/src/draw/sw/lv_draw_sw_img.c ****         c_mult[1] = recolor.green * mix;
 2809              		.loc 1 709 19 view .LVU1023
 2810 0302 ADF84CC0 		strh	ip, [sp, #76]	@ movhi
 710:Drivers/lvgl/src/draw/sw/lv_draw_sw_img.c ****         c_mult[2] = recolor.red * mix;
 2811              		.loc 1 710 9 is_stmt 1 view .LVU1024
 710:Drivers/lvgl/src/draw/sw/lv_draw_sw_img.c ****         c_mult[2] = recolor.red * mix;
 2812              		.loc 1 710 28 is_stmt 0 view .LVU1025
 2813 0306 9DF85D20 		ldrb	r2, [sp, #93]	@ zero_extendqisi2
 2814 030a 0892     		str	r2, [sp, #32]
 710:Drivers/lvgl/src/draw/sw/lv_draw_sw_img.c ****         c_mult[2] = recolor.red * mix;
 2815              		.loc 1 710 35 view .LVU1026
 2816 030c 03FB02F1 		mul	r1, r3, r2
 710:Drivers/lvgl/src/draw/sw/lv_draw_sw_img.c ****         c_mult[2] = recolor.red * mix;
 2817              		.loc 1 710 19 view .LVU1027
 2818 0310 ADF84E10 		strh	r1, [sp, #78]	@ movhi
 711:Drivers/lvgl/src/draw/sw/lv_draw_sw_img.c **** 
 2819              		.loc 1 711 9 is_stmt 1 view .LVU1028
 711:Drivers/lvgl/src/draw/sw/lv_draw_sw_img.c **** 
 2820              		.loc 1 711 28 is_stmt 0 view .LVU1029
 2821 0314 9DF85E20 		ldrb	r2, [sp, #94]	@ zero_extendqisi2
 2822 0318 0992     		str	r2, [sp, #36]
 711:Drivers/lvgl/src/draw/sw/lv_draw_sw_img.c **** 
 2823              		.loc 1 711 33 view .LVU1030
 2824 031a 03FB02F2 		mul	r2, r3, r2
 711:Drivers/lvgl/src/draw/sw/lv_draw_sw_img.c **** 
 2825              		.loc 1 711 19 view .LVU1031
 2826 031e ADF85020 		strh	r2, [sp, #80]	@ movhi
 713:Drivers/lvgl/src/draw/sw/lv_draw_sw_img.c ****         for(y = 0; y < h; y++) {
 2827              		.loc 1 713 9 is_stmt 1 view .LVU1032
 714:Drivers/lvgl/src/draw/sw/lv_draw_sw_img.c ****             int32_t x;
ARM GAS  /var/folders/qx/2_175_4n2s19vhvtspjhb3qh0000gn/T//cc1Hh9yO.s 			page 96


 2828              		.loc 1 714 9 view .LVU1033
 2829              	.LVL275:
 714:Drivers/lvgl/src/draw/sw/lv_draw_sw_img.c ****             int32_t x;
 2830              		.loc 1 714 15 is_stmt 0 view .LVU1034
 2831 0322 0025     		movs	r5, #0
 2832 0324 CDF828E0 		str	lr, [sp, #40]
 2833 0328 CDF82CC0 		str	ip, [sp, #44]
 2834 032c 0C91     		str	r1, [sp, #48]
 2835 032e 0D92     		str	r2, [sp, #52]
 2836 0330 0790     		str	r0, [sp, #28]
 2837 0332 D846     		mov	r8, fp
 2838 0334 AB46     		mov	fp, r5
 2839              	.LVL276:
 714:Drivers/lvgl/src/draw/sw/lv_draw_sw_img.c ****             int32_t x;
 2840              		.loc 1 714 9 view .LVU1035
 2841 0336 8EE0     		b	.L130
 2842              	.LVL277:
 2843              	.L148:
 2844              	.LBB109:
 2845              	.LBB110:
 2846              	.LBB111:
 722:Drivers/lvgl/src/draw/sw/lv_draw_sw_img.c ****                     uint8_t r = (src_buf_tmp[2] * reciprocal) >> 8;
 2847              		.loc 1 722 21 is_stmt 1 view .LVU1036
 723:Drivers/lvgl/src/draw/sw/lv_draw_sw_img.c ****                     uint8_t g = (src_buf_tmp[1] * reciprocal) >> 8;
 2848              		.loc 1 723 21 view .LVU1037
 723:Drivers/lvgl/src/draw/sw/lv_draw_sw_img.c ****                     uint8_t g = (src_buf_tmp[1] * reciprocal) >> 8;
 2849              		.loc 1 723 45 is_stmt 0 view .LVU1038
 2850 0338 9AF80250 		ldrb	r5, [r10, #2]	@ zero_extendqisi2
 2851 033c 4FF47F43 		mov	r3, #65280
 2852 0340 93FBFBF3 		sdiv	r3, r3, fp
 2853              	.LVL278:
 723:Drivers/lvgl/src/draw/sw/lv_draw_sw_img.c ****                     uint8_t g = (src_buf_tmp[1] * reciprocal) >> 8;
 2854              		.loc 1 723 49 view .LVU1039
 2855 0344 03FB05F5 		mul	r5, r3, r5
 723:Drivers/lvgl/src/draw/sw/lv_draw_sw_img.c ****                     uint8_t g = (src_buf_tmp[1] * reciprocal) >> 8;
 2856              		.loc 1 723 63 view .LVU1040
 2857 0348 2A12     		asrs	r2, r5, #8
 2858 034a 0292     		str	r2, [sp, #8]
 723:Drivers/lvgl/src/draw/sw/lv_draw_sw_img.c ****                     uint8_t g = (src_buf_tmp[1] * reciprocal) >> 8;
 2859              		.loc 1 723 29 view .LVU1041
 2860 034c C5F30725 		ubfx	r5, r5, #8, #8
 2861              	.LVL279:
 724:Drivers/lvgl/src/draw/sw/lv_draw_sw_img.c ****                     uint8_t b = (src_buf_tmp[0] * reciprocal) >> 8;
 2862              		.loc 1 724 21 is_stmt 1 view .LVU1042
 724:Drivers/lvgl/src/draw/sw/lv_draw_sw_img.c ****                     uint8_t b = (src_buf_tmp[0] * reciprocal) >> 8;
 2863              		.loc 1 724 45 is_stmt 0 view .LVU1043
 2864 0350 9AF80160 		ldrb	r6, [r10, #1]	@ zero_extendqisi2
 724:Drivers/lvgl/src/draw/sw/lv_draw_sw_img.c ****                     uint8_t b = (src_buf_tmp[0] * reciprocal) >> 8;
 2865              		.loc 1 724 49 view .LVU1044
 2866 0354 03FB06F6 		mul	r6, r3, r6
 724:Drivers/lvgl/src/draw/sw/lv_draw_sw_img.c ****                     uint8_t b = (src_buf_tmp[0] * reciprocal) >> 8;
 2867              		.loc 1 724 63 view .LVU1045
 2868 0358 3212     		asrs	r2, r6, #8
 2869 035a 0492     		str	r2, [sp, #16]
 724:Drivers/lvgl/src/draw/sw/lv_draw_sw_img.c ****                     uint8_t b = (src_buf_tmp[0] * reciprocal) >> 8;
 2870              		.loc 1 724 29 view .LVU1046
 2871 035c C6F30726 		ubfx	r6, r6, #8, #8
ARM GAS  /var/folders/qx/2_175_4n2s19vhvtspjhb3qh0000gn/T//cc1Hh9yO.s 			page 97


 2872              	.LVL280:
 725:Drivers/lvgl/src/draw/sw/lv_draw_sw_img.c **** 
 2873              		.loc 1 725 21 is_stmt 1 view .LVU1047
 725:Drivers/lvgl/src/draw/sw/lv_draw_sw_img.c **** 
 2874              		.loc 1 725 45 is_stmt 0 view .LVU1048
 2875 0360 9AF80070 		ldrb	r7, [r10]	@ zero_extendqisi2
 725:Drivers/lvgl/src/draw/sw/lv_draw_sw_img.c **** 
 2876              		.loc 1 725 49 view .LVU1049
 2877 0364 03FB07F7 		mul	r7, r3, r7
 725:Drivers/lvgl/src/draw/sw/lv_draw_sw_img.c **** 
 2878              		.loc 1 725 63 view .LVU1050
 2879 0368 3B12     		asrs	r3, r7, #8
 2880              	.LVL281:
 725:Drivers/lvgl/src/draw/sw/lv_draw_sw_img.c **** 
 2881              		.loc 1 725 63 view .LVU1051
 2882 036a 0593     		str	r3, [sp, #20]
 725:Drivers/lvgl/src/draw/sw/lv_draw_sw_img.c **** 
 2883              		.loc 1 725 29 view .LVU1052
 2884 036c C7F30727 		ubfx	r7, r7, #8, #8
 2885              	.LVL282:
 727:Drivers/lvgl/src/draw/sw/lv_draw_sw_img.c **** 
 2886              		.loc 1 727 21 is_stmt 1 view .LVU1053
 727:Drivers/lvgl/src/draw/sw/lv_draw_sw_img.c **** 
 2887              		.loc 1 727 44 is_stmt 0 view .LVU1054
 2888 0370 3A46     		mov	r2, r7
 2889 0372 3146     		mov	r1, r6
 2890 0374 2846     		mov	r0, r5
 2891 0376 FFF7FEFF 		bl	lv_color_make
 2892              	.LVL283:
 2893 037a 8DF84800 		strb	r0, [sp, #72]
 2894 037e C0F30723 		ubfx	r3, r0, #8, #8
 2895 0382 8DF84930 		strb	r3, [sp, #73]
 2896 0386 C0F30740 		ubfx	r0, r0, #16, #8
 2897 038a 8DF84A00 		strb	r0, [sp, #74]
 730:Drivers/lvgl/src/draw/sw/lv_draw_sw_img.c ****                         // Set entire pixel to transparent
 2898              		.loc 1 730 21 is_stmt 1 view .LVU1055
 730:Drivers/lvgl/src/draw/sw/lv_draw_sw_img.c ****                         // Set entire pixel to transparent
 2899              		.loc 1 730 24 is_stmt 0 view .LVU1056
 2900 038e 159A     		ldr	r2, [sp, #84]
 2901 0390 1699     		ldr	r1, [sp, #88]
 2902 0392 1298     		ldr	r0, [sp, #72]
 2903 0394 FFF7FEFF 		bl	lv_color_is_in_range
 2904              	.LVL284:
 730:Drivers/lvgl/src/draw/sw/lv_draw_sw_img.c ****                         // Set entire pixel to transparent
 2905              		.loc 1 730 23 discriminator 1 view .LVU1057
 2906 0398 20B3     		cbz	r0, .L132
 732:Drivers/lvgl/src/draw/sw/lv_draw_sw_img.c ****                         dest_buf_tmp[1] = 0;
 2907              		.loc 1 732 25 is_stmt 1 view .LVU1058
 732:Drivers/lvgl/src/draw/sw/lv_draw_sw_img.c ****                         dest_buf_tmp[1] = 0;
 2908              		.loc 1 732 41 is_stmt 0 view .LVU1059
 2909 039a 0023     		movs	r3, #0
 2910 039c 88F80030 		strb	r3, [r8]
 733:Drivers/lvgl/src/draw/sw/lv_draw_sw_img.c ****                         dest_buf_tmp[2] = 0;
 2911              		.loc 1 733 25 is_stmt 1 view .LVU1060
 733:Drivers/lvgl/src/draw/sw/lv_draw_sw_img.c ****                         dest_buf_tmp[2] = 0;
 2912              		.loc 1 733 41 is_stmt 0 view .LVU1061
 2913 03a0 88F80130 		strb	r3, [r8, #1]
ARM GAS  /var/folders/qx/2_175_4n2s19vhvtspjhb3qh0000gn/T//cc1Hh9yO.s 			page 98


 734:Drivers/lvgl/src/draw/sw/lv_draw_sw_img.c ****                         dest_buf_tmp[3] = 0;
 2914              		.loc 1 734 25 is_stmt 1 view .LVU1062
 734:Drivers/lvgl/src/draw/sw/lv_draw_sw_img.c ****                         dest_buf_tmp[3] = 0;
 2915              		.loc 1 734 41 is_stmt 0 view .LVU1063
 2916 03a4 88F80230 		strb	r3, [r8, #2]
 735:Drivers/lvgl/src/draw/sw/lv_draw_sw_img.c ****                     }
 2917              		.loc 1 735 25 is_stmt 1 view .LVU1064
 735:Drivers/lvgl/src/draw/sw/lv_draw_sw_img.c ****                     }
 2918              		.loc 1 735 41 is_stmt 0 view .LVU1065
 2919 03a8 88F80330 		strb	r3, [r8, #3]
 2920              	.LVL285:
 2921              	.L135:
 735:Drivers/lvgl/src/draw/sw/lv_draw_sw_img.c ****                     }
 2922              		.loc 1 735 41 view .LVU1066
 2923              	.LBE111:
 766:Drivers/lvgl/src/draw/sw/lv_draw_sw_img.c ****                 dest_buf_tmp += px_size;
 2924              		.loc 1 766 17 is_stmt 1 view .LVU1067
 766:Drivers/lvgl/src/draw/sw/lv_draw_sw_img.c ****                 dest_buf_tmp += px_size;
 2925              		.loc 1 766 29 is_stmt 0 view .LVU1068
 2926 03ac 0AF1040A 		add	r10, r10, #4
 2927              	.LVL286:
 767:Drivers/lvgl/src/draw/sw/lv_draw_sw_img.c ****             }
 2928              		.loc 1 767 17 is_stmt 1 view .LVU1069
 767:Drivers/lvgl/src/draw/sw/lv_draw_sw_img.c ****             }
 2929              		.loc 1 767 30 is_stmt 0 view .LVU1070
 2930 03b0 08F10408 		add	r8, r8, #4
 2931              	.LVL287:
 767:Drivers/lvgl/src/draw/sw/lv_draw_sw_img.c ****             }
 2932              		.loc 1 767 30 view .LVU1071
 2933              	.LBE110:
 716:Drivers/lvgl/src/draw/sw/lv_draw_sw_img.c ****                 uint8_t alpha = src_buf_tmp[3];
 2934              		.loc 1 716 32 is_stmt 1 discriminator 2 view .LVU1072
 2935 03b4 0134     		adds	r4, r4, #1
 2936              	.LVL288:
 2937              	.L137:
 716:Drivers/lvgl/src/draw/sw/lv_draw_sw_img.c ****                 uint8_t alpha = src_buf_tmp[3];
 2938              		.loc 1 716 26 discriminator 1 view .LVU1073
 2939 03b6 4C45     		cmp	r4, r9
 2940 03b8 45DA     		bge	.L147
 2941              	.LBB113:
 717:Drivers/lvgl/src/draw/sw/lv_draw_sw_img.c **** 
 2942              		.loc 1 717 17 view .LVU1074
 717:Drivers/lvgl/src/draw/sw/lv_draw_sw_img.c **** 
 2943              		.loc 1 717 25 is_stmt 0 view .LVU1075
 2944 03ba 9AF803B0 		ldrb	fp, [r10, #3]	@ zero_extendqisi2
 2945              	.LVL289:
 720:Drivers/lvgl/src/draw/sw/lv_draw_sw_img.c ****                     /* Unpremultiply for color comparison and recolor */
 2946              		.loc 1 720 17 is_stmt 1 view .LVU1076
 720:Drivers/lvgl/src/draw/sw/lv_draw_sw_img.c ****                     /* Unpremultiply for color comparison and recolor */
 2947              		.loc 1 720 19 is_stmt 0 view .LVU1077
 2948 03be BBF1000F 		cmp	fp, #0
 2949 03c2 B9D1     		bne	.L148
 760:Drivers/lvgl/src/draw/sw/lv_draw_sw_img.c ****                     dest_buf_tmp[1] = src_buf_tmp[1];
 2950              		.loc 1 760 21 is_stmt 1 view .LVU1078
 760:Drivers/lvgl/src/draw/sw/lv_draw_sw_img.c ****                     dest_buf_tmp[1] = src_buf_tmp[1];
 2951              		.loc 1 760 50 is_stmt 0 view .LVU1079
 2952 03c4 9AF80030 		ldrb	r3, [r10]	@ zero_extendqisi2
ARM GAS  /var/folders/qx/2_175_4n2s19vhvtspjhb3qh0000gn/T//cc1Hh9yO.s 			page 99


 760:Drivers/lvgl/src/draw/sw/lv_draw_sw_img.c ****                     dest_buf_tmp[1] = src_buf_tmp[1];
 2953              		.loc 1 760 37 view .LVU1080
 2954 03c8 88F80030 		strb	r3, [r8]
 761:Drivers/lvgl/src/draw/sw/lv_draw_sw_img.c ****                     dest_buf_tmp[2] = src_buf_tmp[2];
 2955              		.loc 1 761 21 is_stmt 1 view .LVU1081
 761:Drivers/lvgl/src/draw/sw/lv_draw_sw_img.c ****                     dest_buf_tmp[2] = src_buf_tmp[2];
 2956              		.loc 1 761 50 is_stmt 0 view .LVU1082
 2957 03cc 9AF80130 		ldrb	r3, [r10, #1]	@ zero_extendqisi2
 761:Drivers/lvgl/src/draw/sw/lv_draw_sw_img.c ****                     dest_buf_tmp[2] = src_buf_tmp[2];
 2958              		.loc 1 761 37 view .LVU1083
 2959 03d0 88F80130 		strb	r3, [r8, #1]
 762:Drivers/lvgl/src/draw/sw/lv_draw_sw_img.c ****                     dest_buf_tmp[3] = 0; // Ensure alpha is 0
 2960              		.loc 1 762 21 is_stmt 1 view .LVU1084
 762:Drivers/lvgl/src/draw/sw/lv_draw_sw_img.c ****                     dest_buf_tmp[3] = 0; // Ensure alpha is 0
 2961              		.loc 1 762 50 is_stmt 0 view .LVU1085
 2962 03d4 9AF80230 		ldrb	r3, [r10, #2]	@ zero_extendqisi2
 762:Drivers/lvgl/src/draw/sw/lv_draw_sw_img.c ****                     dest_buf_tmp[3] = 0; // Ensure alpha is 0
 2963              		.loc 1 762 37 view .LVU1086
 2964 03d8 88F80230 		strb	r3, [r8, #2]
 763:Drivers/lvgl/src/draw/sw/lv_draw_sw_img.c ****                 }
 2965              		.loc 1 763 21 is_stmt 1 view .LVU1087
 763:Drivers/lvgl/src/draw/sw/lv_draw_sw_img.c ****                 }
 2966              		.loc 1 763 37 is_stmt 0 view .LVU1088
 2967 03dc 0023     		movs	r3, #0
 2968 03de 88F80330 		strb	r3, [r8, #3]
 2969 03e2 E3E7     		b	.L135
 2970              	.LVL290:
 2971              	.L132:
 2972              	.LBB112:
 739:Drivers/lvgl/src/draw/sw/lv_draw_sw_img.c ****                             r = recolor.red;
 2973              		.loc 1 739 25 is_stmt 1 view .LVU1089
 739:Drivers/lvgl/src/draw/sw/lv_draw_sw_img.c ****                             r = recolor.red;
 2974              		.loc 1 739 27 is_stmt 0 view .LVU1090
 2975 03e4 039B     		ldr	r3, [sp, #12]
 2976 03e6 FC2B     		cmp	r3, #252
 2977 03e8 18D8     		bhi	.L140
 744:Drivers/lvgl/src/draw/sw/lv_draw_sw_img.c ****                             r = (c_mult[2] + (r * mix_inv)) >> 8;
 2978              		.loc 1 744 30 is_stmt 1 view .LVU1091
 744:Drivers/lvgl/src/draw/sw/lv_draw_sw_img.c ****                             r = (c_mult[2] + (r * mix_inv)) >> 8;
 2979              		.loc 1 744 32 is_stmt 0 view .LVU1092
 2980 03ea 022B     		cmp	r3, #2
 2981 03ec 19D9     		bls	.L134
 745:Drivers/lvgl/src/draw/sw/lv_draw_sw_img.c ****                             g = (c_mult[1] + (g * mix_inv)) >> 8;
 2982              		.loc 1 745 29 is_stmt 1 view .LVU1093
 745:Drivers/lvgl/src/draw/sw/lv_draw_sw_img.c ****                             g = (c_mult[1] + (g * mix_inv)) >> 8;
 2983              		.loc 1 745 49 is_stmt 0 view .LVU1094
 2984 03ee 9DF80830 		ldrb	r3, [sp, #8]	@ zero_extendqisi2
 745:Drivers/lvgl/src/draw/sw/lv_draw_sw_img.c ****                             g = (c_mult[1] + (g * mix_inv)) >> 8;
 2985              		.loc 1 745 44 view .LVU1095
 2986 03f2 0D99     		ldr	r1, [sp, #52]
 2987 03f4 019A     		ldr	r2, [sp, #4]
 2988 03f6 02FB0313 		mla	r3, r2, r3, r1
 745:Drivers/lvgl/src/draw/sw/lv_draw_sw_img.c ****                             g = (c_mult[1] + (g * mix_inv)) >> 8;
 2989              		.loc 1 745 31 view .LVU1096
 2990 03fa C3F30725 		ubfx	r5, r3, #8, #8
 2991              	.LVL291:
 746:Drivers/lvgl/src/draw/sw/lv_draw_sw_img.c ****                             b = (c_mult[0] + (b * mix_inv)) >> 8;
ARM GAS  /var/folders/qx/2_175_4n2s19vhvtspjhb3qh0000gn/T//cc1Hh9yO.s 			page 100


 2992              		.loc 1 746 29 is_stmt 1 view .LVU1097
 746:Drivers/lvgl/src/draw/sw/lv_draw_sw_img.c ****                             b = (c_mult[0] + (b * mix_inv)) >> 8;
 2993              		.loc 1 746 49 is_stmt 0 view .LVU1098
 2994 03fe 9DF81030 		ldrb	r3, [sp, #16]	@ zero_extendqisi2
 746:Drivers/lvgl/src/draw/sw/lv_draw_sw_img.c ****                             b = (c_mult[0] + (b * mix_inv)) >> 8;
 2995              		.loc 1 746 44 view .LVU1099
 2996 0402 0C99     		ldr	r1, [sp, #48]
 2997 0404 02FB0313 		mla	r3, r2, r3, r1
 746:Drivers/lvgl/src/draw/sw/lv_draw_sw_img.c ****                             b = (c_mult[0] + (b * mix_inv)) >> 8;
 2998              		.loc 1 746 31 view .LVU1100
 2999 0408 C3F30726 		ubfx	r6, r3, #8, #8
 3000              	.LVL292:
 747:Drivers/lvgl/src/draw/sw/lv_draw_sw_img.c ****                         }
 3001              		.loc 1 747 29 is_stmt 1 view .LVU1101
 747:Drivers/lvgl/src/draw/sw/lv_draw_sw_img.c ****                         }
 3002              		.loc 1 747 49 is_stmt 0 view .LVU1102
 3003 040c 9DF81430 		ldrb	r3, [sp, #20]	@ zero_extendqisi2
 747:Drivers/lvgl/src/draw/sw/lv_draw_sw_img.c ****                         }
 3004              		.loc 1 747 44 view .LVU1103
 3005 0410 0B99     		ldr	r1, [sp, #44]
 3006 0412 02FB0313 		mla	r3, r2, r3, r1
 747:Drivers/lvgl/src/draw/sw/lv_draw_sw_img.c ****                         }
 3007              		.loc 1 747 31 view .LVU1104
 3008 0416 C3F30727 		ubfx	r7, r3, #8, #8
 3009              	.LVL293:
 747:Drivers/lvgl/src/draw/sw/lv_draw_sw_img.c ****                         }
 3010              		.loc 1 747 31 view .LVU1105
 3011 041a 02E0     		b	.L134
 3012              	.L140:
 742:Drivers/lvgl/src/draw/sw/lv_draw_sw_img.c ****                         }
 3013              		.loc 1 742 31 view .LVU1106
 3014 041c 0A9F     		ldr	r7, [sp, #40]
 3015              	.LVL294:
 741:Drivers/lvgl/src/draw/sw/lv_draw_sw_img.c ****                             b = recolor.blue;
 3016              		.loc 1 741 31 view .LVU1107
 3017 041e 089E     		ldr	r6, [sp, #32]
 3018              	.LVL295:
 740:Drivers/lvgl/src/draw/sw/lv_draw_sw_img.c ****                             g = recolor.green;
 3019              		.loc 1 740 31 view .LVU1108
 3020 0420 099D     		ldr	r5, [sp, #36]
 3021              	.LVL296:
 3022              	.L134:
 752:Drivers/lvgl/src/draw/sw/lv_draw_sw_img.c ****                         dest_buf_tmp[1] = (g * alpha) >> 8;
 3023              		.loc 1 752 25 is_stmt 1 view .LVU1109
 752:Drivers/lvgl/src/draw/sw/lv_draw_sw_img.c ****                         dest_buf_tmp[1] = (g * alpha) >> 8;
 3024              		.loc 1 752 46 is_stmt 0 view .LVU1110
 3025 0422 0BFB07F7 		mul	r7, fp, r7
 3026              	.LVL297:
 752:Drivers/lvgl/src/draw/sw/lv_draw_sw_img.c ****                         dest_buf_tmp[1] = (g * alpha) >> 8;
 3027              		.loc 1 752 55 view .LVU1111
 3028 0426 3F12     		asrs	r7, r7, #8
 752:Drivers/lvgl/src/draw/sw/lv_draw_sw_img.c ****                         dest_buf_tmp[1] = (g * alpha) >> 8;
 3029              		.loc 1 752 41 view .LVU1112
 3030 0428 88F80070 		strb	r7, [r8]
 753:Drivers/lvgl/src/draw/sw/lv_draw_sw_img.c ****                         dest_buf_tmp[2] = (r * alpha) >> 8;
 3031              		.loc 1 753 25 is_stmt 1 view .LVU1113
 753:Drivers/lvgl/src/draw/sw/lv_draw_sw_img.c ****                         dest_buf_tmp[2] = (r * alpha) >> 8;
ARM GAS  /var/folders/qx/2_175_4n2s19vhvtspjhb3qh0000gn/T//cc1Hh9yO.s 			page 101


 3032              		.loc 1 753 46 is_stmt 0 view .LVU1114
 3033 042c 0BFB06F6 		mul	r6, fp, r6
 3034              	.LVL298:
 753:Drivers/lvgl/src/draw/sw/lv_draw_sw_img.c ****                         dest_buf_tmp[2] = (r * alpha) >> 8;
 3035              		.loc 1 753 55 view .LVU1115
 3036 0430 3612     		asrs	r6, r6, #8
 753:Drivers/lvgl/src/draw/sw/lv_draw_sw_img.c ****                         dest_buf_tmp[2] = (r * alpha) >> 8;
 3037              		.loc 1 753 41 view .LVU1116
 3038 0432 88F80160 		strb	r6, [r8, #1]
 754:Drivers/lvgl/src/draw/sw/lv_draw_sw_img.c ****                         dest_buf_tmp[3] = alpha; // Keep original alpha
 3039              		.loc 1 754 25 is_stmt 1 view .LVU1117
 754:Drivers/lvgl/src/draw/sw/lv_draw_sw_img.c ****                         dest_buf_tmp[3] = alpha; // Keep original alpha
 3040              		.loc 1 754 46 is_stmt 0 view .LVU1118
 3041 0436 0BFB05F5 		mul	r5, fp, r5
 3042              	.LVL299:
 754:Drivers/lvgl/src/draw/sw/lv_draw_sw_img.c ****                         dest_buf_tmp[3] = alpha; // Keep original alpha
 3043              		.loc 1 754 55 view .LVU1119
 3044 043a 2D12     		asrs	r5, r5, #8
 754:Drivers/lvgl/src/draw/sw/lv_draw_sw_img.c ****                         dest_buf_tmp[3] = alpha; // Keep original alpha
 3045              		.loc 1 754 41 view .LVU1120
 3046 043c 88F80250 		strb	r5, [r8, #2]
 755:Drivers/lvgl/src/draw/sw/lv_draw_sw_img.c ****                     }
 3047              		.loc 1 755 25 is_stmt 1 view .LVU1121
 755:Drivers/lvgl/src/draw/sw/lv_draw_sw_img.c ****                     }
 3048              		.loc 1 755 41 is_stmt 0 view .LVU1122
 3049 0440 88F803B0 		strb	fp, [r8, #3]
 3050 0444 B2E7     		b	.L135
 3051              	.LVL300:
 3052              	.L147:
 755:Drivers/lvgl/src/draw/sw/lv_draw_sw_img.c ****                     }
 3053              		.loc 1 755 41 view .LVU1123
 3054              	.LBE112:
 3055              	.LBE113:
 769:Drivers/lvgl/src/draw/sw/lv_draw_sw_img.c ****         }
 3056              		.loc 1 769 40 view .LVU1124
 3057 0446 DDF818B0 		ldr	fp, [sp, #24]
 769:Drivers/lvgl/src/draw/sw/lv_draw_sw_img.c ****         }
 3058              		.loc 1 769 13 is_stmt 1 view .LVU1125
 769:Drivers/lvgl/src/draw/sw/lv_draw_sw_img.c ****         }
 3059              		.loc 1 769 40 is_stmt 0 view .LVU1126
 3060 044a 249B     		ldr	r3, [sp, #144]
 3061 044c A3EB8903 		sub	r3, r3, r9, lsl #2
 769:Drivers/lvgl/src/draw/sw/lv_draw_sw_img.c ****         }
 3062              		.loc 1 769 25 view .LVU1127
 3063 0450 9A44     		add	r10, r10, r3
 3064              	.LVL301:
 769:Drivers/lvgl/src/draw/sw/lv_draw_sw_img.c ****         }
 3065              		.loc 1 769 25 view .LVU1128
 3066              	.LBE109:
 714:Drivers/lvgl/src/draw/sw/lv_draw_sw_img.c ****             int32_t x;
 3067              		.loc 1 714 28 is_stmt 1 discriminator 2 view .LVU1129
 3068 0452 0BF1010B 		add	fp, fp, #1
 3069              	.LVL302:
 3070              	.L130:
 714:Drivers/lvgl/src/draw/sw/lv_draw_sw_img.c ****             int32_t x;
 3071              		.loc 1 714 22 discriminator 1 view .LVU1130
 3072 0456 079B     		ldr	r3, [sp, #28]
ARM GAS  /var/folders/qx/2_175_4n2s19vhvtspjhb3qh0000gn/T//cc1Hh9yO.s 			page 102


 3073 0458 9B45     		cmp	fp, r3
 3074 045a 03DA     		bge	.L109
 3075              	.LBB114:
 716:Drivers/lvgl/src/draw/sw/lv_draw_sw_img.c ****                 uint8_t alpha = src_buf_tmp[3];
 3076              		.loc 1 716 19 is_stmt 0 view .LVU1131
 3077 045c 0024     		movs	r4, #0
 3078 045e CDF818B0 		str	fp, [sp, #24]
 3079 0462 A8E7     		b	.L137
 3080              	.LVL303:
 3081              	.L109:
 716:Drivers/lvgl/src/draw/sw/lv_draw_sw_img.c ****                 uint8_t alpha = src_buf_tmp[3];
 3082              		.loc 1 716 19 view .LVU1132
 3083              	.LBE114:
 3084              	.LBE108:
 772:Drivers/lvgl/src/draw/sw/lv_draw_sw_img.c **** 
 3085              		.loc 1 772 1 view .LVU1133
 3086 0464 19B0     		add	sp, sp, #100
 3087              	.LCFI21:
 3088              		.cfi_def_cfa_offset 36
 3089              		@ sp needed
 3090 0466 BDE8F08F 		pop	{r4, r5, r6, r7, r8, r9, r10, fp, pc}
 772:Drivers/lvgl/src/draw/sw/lv_draw_sw_img.c **** 
 3091              		.loc 1 772 1 view .LVU1134
 3092              		.cfi_endproc
 3093              	.LFE199:
 3095              		.section	.text.transform_and_recolor,"ax",%progbits
 3096              		.align	1
 3097              		.syntax unified
 3098              		.thumb
 3099              		.thumb_func
 3101              	transform_and_recolor:
 3102              	.LVL304:
 3103              	.LFB198:
 468:Drivers/lvgl/src/draw/sw/lv_draw_sw_img.c ****     const lv_draw_buf_t * decoded = decoder_dsc->decoded;
 3104              		.loc 1 468 1 is_stmt 1 view -0
 3105              		.cfi_startproc
 3106              		@ args = 8, pretend = 0, frame = 136
 3107              		@ frame_needed = 0, uses_anonymous_args = 0
 468:Drivers/lvgl/src/draw/sw/lv_draw_sw_img.c ****     const lv_draw_buf_t * decoded = decoder_dsc->decoded;
 3108              		.loc 1 468 1 is_stmt 0 view .LVU1136
 3109 0000 2DE9F04F 		push	{r4, r5, r6, r7, r8, r9, r10, fp, lr}
 3110              	.LCFI22:
 3111              		.cfi_def_cfa_offset 36
 3112              		.cfi_offset 4, -36
 3113              		.cfi_offset 5, -32
 3114              		.cfi_offset 6, -28
 3115              		.cfi_offset 7, -24
 3116              		.cfi_offset 8, -20
 3117              		.cfi_offset 9, -16
 3118              		.cfi_offset 10, -12
 3119              		.cfi_offset 11, -8
 3120              		.cfi_offset 14, -4
 3121 0004 A9B0     		sub	sp, sp, #164
 3122              	.LCFI23:
 3123              		.cfi_def_cfa_offset 200
 3124 0006 0C90     		str	r0, [sp, #48]
 3125 0008 0D46     		mov	r5, r1
ARM GAS  /var/folders/qx/2_175_4n2s19vhvtspjhb3qh0000gn/T//cc1Hh9yO.s 			page 103


 3126 000a 0D93     		str	r3, [sp, #52]
 3127 000c DDF8C880 		ldr	r8, [sp, #200]
 3128 0010 339C     		ldr	r4, [sp, #204]
 469:Drivers/lvgl/src/draw/sw/lv_draw_sw_img.c ****     uint32_t img_stride = decoded->header.stride;
 3129              		.loc 1 469 5 is_stmt 1 view .LVU1137
 469:Drivers/lvgl/src/draw/sw/lv_draw_sw_img.c ****     uint32_t img_stride = decoded->header.stride;
 3130              		.loc 1 469 27 is_stmt 0 view .LVU1138
 3131 0012 D2F82CA0 		ldr	r10, [r2, #44]
 3132              	.LVL305:
 470:Drivers/lvgl/src/draw/sw/lv_draw_sw_img.c ****     lv_color_format_t cf = decoded->header.cf;
 3133              		.loc 1 470 5 is_stmt 1 view .LVU1139
 470:Drivers/lvgl/src/draw/sw/lv_draw_sw_img.c ****     lv_color_format_t cf = decoded->header.cf;
 3134              		.loc 1 470 42 is_stmt 0 view .LVU1140
 3135 0016 BAF80830 		ldrh	r3, [r10, #8]
 3136              	.LVL306:
 470:Drivers/lvgl/src/draw/sw/lv_draw_sw_img.c ****     lv_color_format_t cf = decoded->header.cf;
 3137              		.loc 1 470 42 view .LVU1141
 3138 001a 0993     		str	r3, [sp, #36]
 3139              	.LVL307:
 471:Drivers/lvgl/src/draw/sw/lv_draw_sw_img.c ****     lv_draw_sw_blend_dsc_t blend_dsc;
 3140              		.loc 1 471 5 is_stmt 1 view .LVU1142
 471:Drivers/lvgl/src/draw/sw/lv_draw_sw_img.c ****     lv_draw_sw_blend_dsc_t blend_dsc;
 3141              		.loc 1 471 23 is_stmt 0 view .LVU1143
 3142 001c 9AF80190 		ldrb	r9, [r10, #1]	@ zero_extendqisi2
 3143              	.LVL308:
 472:Drivers/lvgl/src/draw/sw/lv_draw_sw_img.c ****     lv_memzero(&blend_dsc, sizeof(lv_draw_sw_blend_dsc_t));
 3144              		.loc 1 472 5 is_stmt 1 view .LVU1144
 473:Drivers/lvgl/src/draw/sw/lv_draw_sw_img.c ****     blend_dsc.opa = draw_dsc->opa;
 3145              		.loc 1 473 5 view .LVU1145
 3146              	.LBB115:
 3147              	.LBI115:
  73:Drivers/lvgl/src/draw/sw/blend/../../../misc/../stdlib/lv_string.h **** {
 3148              		.loc 3 73 20 view .LVU1146
 3149              	.LBB116:
 3150              		.loc 3 75 5 view .LVU1147
 3151 0020 2C22     		movs	r2, #44
 3152              	.LVL309:
 3153              		.loc 3 75 5 is_stmt 0 view .LVU1148
 3154 0022 0021     		movs	r1, #0
 3155              	.LVL310:
 3156              		.loc 3 75 5 view .LVU1149
 3157 0024 1DA8     		add	r0, sp, #116
 3158              	.LVL311:
 3159              		.loc 3 75 5 view .LVU1150
 3160 0026 FFF7FEFF 		bl	lv_memset
 3161              	.LVL312:
 3162              		.loc 3 75 5 view .LVU1151
 3163              	.LBE116:
 3164              	.LBE115:
 474:Drivers/lvgl/src/draw/sw/lv_draw_sw_img.c ****     blend_dsc.blend_mode = draw_dsc->blend_mode;
 3165              		.loc 1 474 5 is_stmt 1 view .LVU1152
 474:Drivers/lvgl/src/draw/sw/lv_draw_sw_img.c ****     blend_dsc.blend_mode = draw_dsc->blend_mode;
 3166              		.loc 1 474 29 is_stmt 0 view .LVU1153
 3167 002a 95F85030 		ldrb	r3, [r5, #80]	@ zero_extendqisi2
 474:Drivers/lvgl/src/draw/sw/lv_draw_sw_img.c ****     blend_dsc.blend_mode = draw_dsc->blend_mode;
 3168              		.loc 1 474 19 view .LVU1154
 3169 002e 8DF88830 		strb	r3, [sp, #136]
ARM GAS  /var/folders/qx/2_175_4n2s19vhvtspjhb3qh0000gn/T//cc1Hh9yO.s 			page 104


 475:Drivers/lvgl/src/draw/sw/lv_draw_sw_img.c **** 
 3170              		.loc 1 475 5 is_stmt 1 view .LVU1155
 475:Drivers/lvgl/src/draw/sw/lv_draw_sw_img.c **** 
 3171              		.loc 1 475 36 is_stmt 0 view .LVU1156
 3172 0032 95F85130 		ldrb	r3, [r5, #81]	@ zero_extendqisi2
 3173 0036 C3F30303 		ubfx	r3, r3, #0, #4
 475:Drivers/lvgl/src/draw/sw/lv_draw_sw_img.c **** 
 3174              		.loc 1 475 26 view .LVU1157
 3175 003a 8DF89C30 		strb	r3, [sp, #156]
 477:Drivers/lvgl/src/draw/sw/lv_draw_sw_img.c ****     blend_dsc.blend_area = &blend_area;
 3176              		.loc 1 477 5 is_stmt 1 view .LVU1158
 477:Drivers/lvgl/src/draw/sw/lv_draw_sw_img.c ****     blend_dsc.blend_area = &blend_area;
 3177              		.loc 1 477 15 is_stmt 0 view .LVU1159
 3178 003e 19AE     		add	r6, sp, #100
 3179 0040 94E80F00 		ldm	r4, {r0, r1, r2, r3}
 3180 0044 86E80F00 		stm	r6, {r0, r1, r2, r3}
 478:Drivers/lvgl/src/draw/sw/lv_draw_sw_img.c **** 
 3181              		.loc 1 478 5 is_stmt 1 view .LVU1160
 478:Drivers/lvgl/src/draw/sw/lv_draw_sw_img.c **** 
 3182              		.loc 1 478 26 is_stmt 0 view .LVU1161
 3183 0048 1D96     		str	r6, [sp, #116]
 480:Drivers/lvgl/src/draw/sw/lv_draw_sw_img.c ****     int32_t src_h = lv_area_get_height(img_coords);
 3184              		.loc 1 480 5 is_stmt 1 view .LVU1162
 480:Drivers/lvgl/src/draw/sw/lv_draw_sw_img.c ****     int32_t src_h = lv_area_get_height(img_coords);
 3185              		.loc 1 480 21 is_stmt 0 view .LVU1163
 3186 004a 4046     		mov	r0, r8
 3187 004c FFF7FEFF 		bl	lv_area_get_width
 3188              	.LVL313:
 3189 0050 0A90     		str	r0, [sp, #40]
 3190              	.LVL314:
 481:Drivers/lvgl/src/draw/sw/lv_draw_sw_img.c ****     int32_t blend_w = lv_area_get_width(&blend_area);
 3191              		.loc 1 481 5 is_stmt 1 view .LVU1164
 481:Drivers/lvgl/src/draw/sw/lv_draw_sw_img.c ****     int32_t blend_w = lv_area_get_width(&blend_area);
 3192              		.loc 1 481 21 is_stmt 0 view .LVU1165
 3193 0052 4046     		mov	r0, r8
 3194              	.LVL315:
 481:Drivers/lvgl/src/draw/sw/lv_draw_sw_img.c ****     int32_t blend_w = lv_area_get_width(&blend_area);
 3195              		.loc 1 481 21 view .LVU1166
 3196 0054 FFF7FEFF 		bl	lv_area_get_height
 3197              	.LVL316:
 3198 0058 0B90     		str	r0, [sp, #44]
 3199              	.LVL317:
 482:Drivers/lvgl/src/draw/sw/lv_draw_sw_img.c ****     int32_t blend_h = lv_area_get_height(&blend_area);
 3200              		.loc 1 482 5 is_stmt 1 view .LVU1167
 482:Drivers/lvgl/src/draw/sw/lv_draw_sw_img.c ****     int32_t blend_h = lv_area_get_height(&blend_area);
 3201              		.loc 1 482 23 is_stmt 0 view .LVU1168
 3202 005a 3046     		mov	r0, r6
 3203              	.LVL318:
 482:Drivers/lvgl/src/draw/sw/lv_draw_sw_img.c ****     int32_t blend_h = lv_area_get_height(&blend_area);
 3204              		.loc 1 482 23 view .LVU1169
 3205 005c FFF7FEFF 		bl	lv_area_get_width
 3206              	.LVL319:
 3207 0060 0F90     		str	r0, [sp, #60]
 3208              	.LVL320:
 483:Drivers/lvgl/src/draw/sw/lv_draw_sw_img.c **** 
 3209              		.loc 1 483 5 is_stmt 1 view .LVU1170
 483:Drivers/lvgl/src/draw/sw/lv_draw_sw_img.c **** 
ARM GAS  /var/folders/qx/2_175_4n2s19vhvtspjhb3qh0000gn/T//cc1Hh9yO.s 			page 105


 3210              		.loc 1 483 23 is_stmt 0 view .LVU1171
 3211 0062 3046     		mov	r0, r6
 3212              	.LVL321:
 483:Drivers/lvgl/src/draw/sw/lv_draw_sw_img.c **** 
 3213              		.loc 1 483 23 view .LVU1172
 3214 0064 FFF7FEFF 		bl	lv_area_get_height
 3215              	.LVL322:
 3216 0068 8346     		mov	fp, r0
 3217              	.LVL323:
 485:Drivers/lvgl/src/draw/sw/lv_draw_sw_img.c ****     if(cf == LV_COLOR_FORMAT_L8 || cf == LV_COLOR_FORMAT_A8) {
 3218              		.loc 1 485 5 is_stmt 1 view .LVU1173
 485:Drivers/lvgl/src/draw/sw/lv_draw_sw_img.c ****     if(cf == LV_COLOR_FORMAT_L8 || cf == LV_COLOR_FORMAT_A8) {
 3219              		.loc 1 485 31 is_stmt 0 view .LVU1174
 3220 006a 95F84F30 		ldrb	r3, [r5, #79]	@ zero_extendqisi2
 485:Drivers/lvgl/src/draw/sw/lv_draw_sw_img.c ****     if(cf == LV_COLOR_FORMAT_L8 || cf == LV_COLOR_FORMAT_A8) {
 3221              		.loc 1 485 10 view .LVU1175
 3222 006e 022B     		cmp	r3, #2
 3223 0070 94BF     		ite	ls
 3224 0072 0023     		movls	r3, #0
 3225 0074 0123     		movhi	r3, #1
 3226 0076 0893     		str	r3, [sp, #32]
 3227              	.LVL324:
 486:Drivers/lvgl/src/draw/sw/lv_draw_sw_img.c ****         blend_dsc.color = draw_dsc->recolor;
 3228              		.loc 1 486 5 is_stmt 1 view .LVU1176
 486:Drivers/lvgl/src/draw/sw/lv_draw_sw_img.c ****         blend_dsc.color = draw_dsc->recolor;
 3229              		.loc 1 486 7 is_stmt 0 view .LVU1177
 3230 0078 B9F1060F 		cmp	r9, #6
 3231 007c 02D0     		beq	.L150
 486:Drivers/lvgl/src/draw/sw/lv_draw_sw_img.c ****         blend_dsc.color = draw_dsc->recolor;
 3232              		.loc 1 486 33 discriminator 1 view .LVU1178
 3233 007e B9F10E0F 		cmp	r9, #14
 3234 0082 09D1     		bne	.L151
 3235              	.L150:
 487:Drivers/lvgl/src/draw/sw/lv_draw_sw_img.c ****         do_recolor = false;
 3236              		.loc 1 487 9 is_stmt 1 view .LVU1179
 487:Drivers/lvgl/src/draw/sw/lv_draw_sw_img.c ****         do_recolor = false;
 3237              		.loc 1 487 25 is_stmt 0 view .LVU1180
 3238 0084 B5F84C20 		ldrh	r2, [r5, #76]	@ unaligned
 3239 0088 95F84E30 		ldrb	r3, [r5, #78]	@ zero_extendqisi2
 3240 008c ADF88920 		strh	r2, [sp, #137]	@ unaligned
 3241 0090 8DF88B30 		strb	r3, [sp, #139]
 488:Drivers/lvgl/src/draw/sw/lv_draw_sw_img.c ****     }
 3242              		.loc 1 488 9 is_stmt 1 view .LVU1181
 3243              	.LVL325:
 488:Drivers/lvgl/src/draw/sw/lv_draw_sw_img.c ****     }
 3244              		.loc 1 488 20 is_stmt 0 view .LVU1182
 3245 0094 0023     		movs	r3, #0
 3246 0096 0893     		str	r3, [sp, #32]
 3247              	.LVL326:
 3248              	.L151:
 491:Drivers/lvgl/src/draw/sw/lv_draw_sw_img.c **** 
 3249              		.loc 1 491 5 is_stmt 1 view .LVU1183
 491:Drivers/lvgl/src/draw/sw/lv_draw_sw_img.c **** 
 3250              		.loc 1 491 33 is_stmt 0 view .LVU1184
 3251 0098 6B6D     		ldr	r3, [r5, #84]
 3252 009a 0793     		str	r3, [sp, #28]
 3253              	.LVL327:
ARM GAS  /var/folders/qx/2_175_4n2s19vhvtspjhb3qh0000gn/T//cc1Hh9yO.s 			page 106


 493:Drivers/lvgl/src/draw/sw/lv_draw_sw_img.c ****     if(cf_final == LV_COLOR_FORMAT_RGB888 || cf_final == LV_COLOR_FORMAT_XRGB8888) cf_final = LV_CO
 3254              		.loc 1 493 5 is_stmt 1 view .LVU1185
 494:Drivers/lvgl/src/draw/sw/lv_draw_sw_img.c ****     else if(cf_final == LV_COLOR_FORMAT_RGB565 ||
 3255              		.loc 1 494 5 view .LVU1186
 3256 009c A9F10603 		sub	r3, r9, #6
 3257              	.LVL328:
 494:Drivers/lvgl/src/draw/sw/lv_draw_sw_img.c ****     else if(cf_final == LV_COLOR_FORMAT_RGB565 ||
 3258              		.loc 1 494 5 is_stmt 0 view .LVU1187
 3259 00a0 152B     		cmp	r3, #21
 3260 00a2 29D8     		bhi	.L152
 3261 00a4 DFE803F0 		tbb	[pc, r3]
 3262              	.L154:
 3263 00a8 64       		.byte	(.L157-.L154)/2
 3264 00a9 28       		.byte	(.L152-.L154)/2
 3265 00aa 28       		.byte	(.L152-.L154)/2
 3266 00ab 28       		.byte	(.L152-.L154)/2
 3267 00ac 28       		.byte	(.L152-.L154)/2
 3268 00ad 28       		.byte	(.L152-.L154)/2
 3269 00ae 28       		.byte	(.L152-.L154)/2
 3270 00af 28       		.byte	(.L152-.L154)/2
 3271 00b0 28       		.byte	(.L152-.L154)/2
 3272 00b1 68       		.byte	(.L174-.L154)/2
 3273 00b2 28       		.byte	(.L152-.L154)/2
 3274 00b3 68       		.byte	(.L174-.L154)/2
 3275 00b4 0B       		.byte	(.L153-.L154)/2
 3276 00b5 28       		.byte	(.L152-.L154)/2
 3277 00b6 66       		.byte	(.L173-.L154)/2
 3278 00b7 28       		.byte	(.L152-.L154)/2
 3279 00b8 28       		.byte	(.L152-.L154)/2
 3280 00b9 28       		.byte	(.L152-.L154)/2
 3281 00ba 28       		.byte	(.L152-.L154)/2
 3282 00bb 28       		.byte	(.L152-.L154)/2
 3283 00bc 28       		.byte	(.L152-.L154)/2
 3284 00bd 0B       		.byte	(.L153-.L154)/2
 3285              		.p2align 1
 3286              	.L153:
 491:Drivers/lvgl/src/draw/sw/lv_draw_sw_img.c **** 
 3287              		.loc 1 491 33 view .LVU1188
 3288 00be 1427     		movs	r7, #20
 3289              	.L155:
 3290              	.LVL329:
 3291              	.LBB117:
 502:Drivers/lvgl/src/draw/sw/lv_draw_sw_img.c ****         buf_h = MAX_BUF_SIZE / buf_stride;
 3292              		.loc 1 502 9 is_stmt 1 view .LVU1189
 502:Drivers/lvgl/src/draw/sw/lv_draw_sw_img.c ****         buf_h = MAX_BUF_SIZE / buf_stride;
 3293              		.loc 1 502 39 is_stmt 0 view .LVU1190
 3294 00c0 0F9B     		ldr	r3, [sp, #60]
 3295 00c2 03EB4306 		add	r6, r3, r3, lsl #1
 3296              	.LVL330:
 503:Drivers/lvgl/src/draw/sw/lv_draw_sw_img.c ****         if(buf_h > blend_h) buf_h = blend_h;
 3297              		.loc 1 503 9 is_stmt 1 view .LVU1191
 503:Drivers/lvgl/src/draw/sw/lv_draw_sw_img.c ****         if(buf_h > blend_h) buf_h = blend_h;
 3298              		.loc 1 503 17 is_stmt 0 view .LVU1192
 3299 00c6 FFF7FEFF 		bl	lv_refr_get_disp_refreshing
 3300              	.LVL331:
 503:Drivers/lvgl/src/draw/sw/lv_draw_sw_img.c ****         if(buf_h > blend_h) buf_h = blend_h;
 3301              		.loc 1 503 17 discriminator 1 view .LVU1193
ARM GAS  /var/folders/qx/2_175_4n2s19vhvtspjhb3qh0000gn/T//cc1Hh9yO.s 			page 107


 3302 00ca FFF7FEFF 		bl	lv_display_get_horizontal_resolution
 3303              	.LVL332:
 3304 00ce 0446     		mov	r4, r0
 503:Drivers/lvgl/src/draw/sw/lv_draw_sw_img.c ****         if(buf_h > blend_h) buf_h = blend_h;
 3305              		.loc 1 503 17 discriminator 2 view .LVU1194
 3306 00d0 FFF7FEFF 		bl	lv_refr_get_disp_refreshing
 3307              	.LVL333:
 503:Drivers/lvgl/src/draw/sw/lv_draw_sw_img.c ****         if(buf_h > blend_h) buf_h = blend_h;
 3308              		.loc 1 503 17 discriminator 3 view .LVU1195
 3309 00d4 FFF7FEFF 		bl	lv_display_get_color_format
 3310              	.LVL334:
 503:Drivers/lvgl/src/draw/sw/lv_draw_sw_img.c ****         if(buf_h > blend_h) buf_h = blend_h;
 3311              		.loc 1 503 17 discriminator 4 view .LVU1196
 3312 00d8 FFF7FEFF 		bl	lv_color_format_get_size
 3313              	.LVL335:
 503:Drivers/lvgl/src/draw/sw/lv_draw_sw_img.c ****         if(buf_h > blend_h) buf_h = blend_h;
 3314              		.loc 1 503 17 discriminator 5 view .LVU1197
 3315 00dc 00FB04F3 		mul	r3, r0, r4
 3316 00e0 9B00     		lsls	r3, r3, #2
 503:Drivers/lvgl/src/draw/sw/lv_draw_sw_img.c ****         if(buf_h > blend_h) buf_h = blend_h;
 3317              		.loc 1 503 30 discriminator 5 view .LVU1198
 3318 00e2 B3FBF6F3 		udiv	r3, r3, r6
 3319              	.LVL336:
 504:Drivers/lvgl/src/draw/sw/lv_draw_sw_img.c ****         transformed_buf = lv_malloc(buf_stride * buf_h);
 3320              		.loc 1 504 9 is_stmt 1 view .LVU1199
 504:Drivers/lvgl/src/draw/sw/lv_draw_sw_img.c ****         transformed_buf = lv_malloc(buf_stride * buf_h);
 3321              		.loc 1 504 11 is_stmt 0 view .LVU1200
 3322 00e6 9B45     		cmp	fp, r3
 3323 00e8 00DB     		blt	.L158
 503:Drivers/lvgl/src/draw/sw/lv_draw_sw_img.c ****         if(buf_h > blend_h) buf_h = blend_h;
 3324              		.loc 1 503 15 discriminator 5 view .LVU1201
 3325 00ea 9B46     		mov	fp, r3
 3326              	.LVL337:
 3327              	.L158:
 505:Drivers/lvgl/src/draw/sw/lv_draw_sw_img.c ****     }
 3328              		.loc 1 505 9 is_stmt 1 view .LVU1202
 505:Drivers/lvgl/src/draw/sw/lv_draw_sw_img.c ****     }
 3329              		.loc 1 505 27 is_stmt 0 view .LVU1203
 3330 00ec 06FB0BF0 		mul	r0, r6, fp
 3331 00f0 FFF7FEFF 		bl	lv_malloc
 3332              	.LVL338:
 3333 00f4 0446     		mov	r4, r0
 3334              	.LVL339:
 505:Drivers/lvgl/src/draw/sw/lv_draw_sw_img.c ****     }
 3335              		.loc 1 505 27 view .LVU1204
 3336              	.LBE117:
 3337 00f6 1EE0     		b	.L159
 3338              	.LVL340:
 3339              	.L152:
 491:Drivers/lvgl/src/draw/sw/lv_draw_sw_img.c **** 
 3340              		.loc 1 491 33 view .LVU1205
 3341 00f8 4F46     		mov	r7, r9
 3342              	.L156:
 3343              	.LVL341:
 3344              	.LBB118:
 508:Drivers/lvgl/src/draw/sw/lv_draw_sw_img.c ****         buf_h = MAX_BUF_SIZE / buf_stride;
 3345              		.loc 1 508 9 is_stmt 1 view .LVU1206
ARM GAS  /var/folders/qx/2_175_4n2s19vhvtspjhb3qh0000gn/T//cc1Hh9yO.s 			page 108


 508:Drivers/lvgl/src/draw/sw/lv_draw_sw_img.c ****         buf_h = MAX_BUF_SIZE / buf_stride;
 3346              		.loc 1 508 41 is_stmt 0 view .LVU1207
 3347 00fa 3846     		mov	r0, r7
 3348              	.LVL342:
 508:Drivers/lvgl/src/draw/sw/lv_draw_sw_img.c ****         buf_h = MAX_BUF_SIZE / buf_stride;
 3349              		.loc 1 508 41 view .LVU1208
 3350 00fc FFF7FEFF 		bl	lv_color_format_get_size
 3351              	.LVL343:
 508:Drivers/lvgl/src/draw/sw/lv_draw_sw_img.c ****         buf_h = MAX_BUF_SIZE / buf_stride;
 3352              		.loc 1 508 39 discriminator 1 view .LVU1209
 3353 0100 0F9B     		ldr	r3, [sp, #60]
 3354 0102 03FB00F6 		mul	r6, r3, r0
 3355              	.LVL344:
 509:Drivers/lvgl/src/draw/sw/lv_draw_sw_img.c ****         if(buf_h > blend_h) buf_h = blend_h;
 3356              		.loc 1 509 9 is_stmt 1 view .LVU1210
 509:Drivers/lvgl/src/draw/sw/lv_draw_sw_img.c ****         if(buf_h > blend_h) buf_h = blend_h;
 3357              		.loc 1 509 17 is_stmt 0 view .LVU1211
 3358 0106 FFF7FEFF 		bl	lv_refr_get_disp_refreshing
 3359              	.LVL345:
 509:Drivers/lvgl/src/draw/sw/lv_draw_sw_img.c ****         if(buf_h > blend_h) buf_h = blend_h;
 3360              		.loc 1 509 17 discriminator 1 view .LVU1212
 3361 010a FFF7FEFF 		bl	lv_display_get_horizontal_resolution
 3362              	.LVL346:
 3363 010e 0446     		mov	r4, r0
 509:Drivers/lvgl/src/draw/sw/lv_draw_sw_img.c ****         if(buf_h > blend_h) buf_h = blend_h;
 3364              		.loc 1 509 17 discriminator 2 view .LVU1213
 3365 0110 FFF7FEFF 		bl	lv_refr_get_disp_refreshing
 3366              	.LVL347:
 509:Drivers/lvgl/src/draw/sw/lv_draw_sw_img.c ****         if(buf_h > blend_h) buf_h = blend_h;
 3367              		.loc 1 509 17 discriminator 3 view .LVU1214
 3368 0114 FFF7FEFF 		bl	lv_display_get_color_format
 3369              	.LVL348:
 509:Drivers/lvgl/src/draw/sw/lv_draw_sw_img.c ****         if(buf_h > blend_h) buf_h = blend_h;
 3370              		.loc 1 509 17 discriminator 4 view .LVU1215
 3371 0118 FFF7FEFF 		bl	lv_color_format_get_size
 3372              	.LVL349:
 509:Drivers/lvgl/src/draw/sw/lv_draw_sw_img.c ****         if(buf_h > blend_h) buf_h = blend_h;
 3373              		.loc 1 509 17 discriminator 5 view .LVU1216
 3374 011c 00FB04F3 		mul	r3, r0, r4
 3375 0120 9B00     		lsls	r3, r3, #2
 509:Drivers/lvgl/src/draw/sw/lv_draw_sw_img.c ****         if(buf_h > blend_h) buf_h = blend_h;
 3376              		.loc 1 509 30 discriminator 5 view .LVU1217
 3377 0122 B3FBF6F3 		udiv	r3, r3, r6
 3378              	.LVL350:
 510:Drivers/lvgl/src/draw/sw/lv_draw_sw_img.c ****         transformed_buf = lv_malloc(buf_stride * buf_h);
 3379              		.loc 1 510 9 is_stmt 1 view .LVU1218
 510:Drivers/lvgl/src/draw/sw/lv_draw_sw_img.c ****         transformed_buf = lv_malloc(buf_stride * buf_h);
 3380              		.loc 1 510 11 is_stmt 0 view .LVU1219
 3381 0126 9B45     		cmp	fp, r3
 3382 0128 00DB     		blt	.L160
 509:Drivers/lvgl/src/draw/sw/lv_draw_sw_img.c ****         if(buf_h > blend_h) buf_h = blend_h;
 3383              		.loc 1 509 15 discriminator 5 view .LVU1220
 3384 012a 9B46     		mov	fp, r3
 3385              	.LVL351:
 3386              	.L160:
 511:Drivers/lvgl/src/draw/sw/lv_draw_sw_img.c ****     }
 3387              		.loc 1 511 9 is_stmt 1 view .LVU1221
ARM GAS  /var/folders/qx/2_175_4n2s19vhvtspjhb3qh0000gn/T//cc1Hh9yO.s 			page 109


 511:Drivers/lvgl/src/draw/sw/lv_draw_sw_img.c ****     }
 3388              		.loc 1 511 27 is_stmt 0 view .LVU1222
 3389 012c 06FB0BF0 		mul	r0, r6, fp
 3390 0130 FFF7FEFF 		bl	lv_malloc
 3391              	.LVL352:
 3392 0134 0446     		mov	r4, r0
 3393              	.LVL353:
 3394              	.L159:
 511:Drivers/lvgl/src/draw/sw/lv_draw_sw_img.c ****     }
 3395              		.loc 1 511 27 view .LVU1223
 3396              	.LBE118:
 513:Drivers/lvgl/src/draw/sw/lv_draw_sw_img.c **** 
 3397              		.loc 1 513 5 is_stmt 1 view .LVU1224
 513:Drivers/lvgl/src/draw/sw/lv_draw_sw_img.c **** 
 3398              		.loc 1 513 5 view .LVU1225
 3399 0136 0CB3     		cbz	r4, .L162
 513:Drivers/lvgl/src/draw/sw/lv_draw_sw_img.c **** 
 3400              		.loc 1 513 5 view .LVU1226
 513:Drivers/lvgl/src/draw/sw/lv_draw_sw_img.c **** 
 3401              		.loc 1 513 38 view .LVU1227
 515:Drivers/lvgl/src/draw/sw/lv_draw_sw_img.c ****     blend_dsc.src_color_format = cf_final;
 3402              		.loc 1 515 5 view .LVU1228
 515:Drivers/lvgl/src/draw/sw/lv_draw_sw_img.c ****     blend_dsc.src_color_format = cf_final;
 3403              		.loc 1 515 23 is_stmt 0 view .LVU1229
 3404 0138 1E94     		str	r4, [sp, #120]
 516:Drivers/lvgl/src/draw/sw/lv_draw_sw_img.c ****     int32_t y_last = blend_area.y2;
 3405              		.loc 1 516 5 is_stmt 1 view .LVU1230
 516:Drivers/lvgl/src/draw/sw/lv_draw_sw_img.c ****     int32_t y_last = blend_area.y2;
 3406              		.loc 1 516 32 is_stmt 0 view .LVU1231
 3407 013a 8DF88070 		strb	r7, [sp, #128]
 517:Drivers/lvgl/src/draw/sw/lv_draw_sw_img.c ****     blend_area.y2 = blend_area.y1 + buf_h - 1;
 3408              		.loc 1 517 5 is_stmt 1 view .LVU1232
 517:Drivers/lvgl/src/draw/sw/lv_draw_sw_img.c ****     blend_area.y2 = blend_area.y1 + buf_h - 1;
 3409              		.loc 1 517 13 is_stmt 0 view .LVU1233
 3410 013e 1C9E     		ldr	r6, [sp, #112]
 3411              	.LVL354:
 518:Drivers/lvgl/src/draw/sw/lv_draw_sw_img.c **** 
 3412              		.loc 1 518 5 is_stmt 1 view .LVU1234
 518:Drivers/lvgl/src/draw/sw/lv_draw_sw_img.c **** 
 3413              		.loc 1 518 31 is_stmt 0 view .LVU1235
 3414 0140 1A9B     		ldr	r3, [sp, #104]
 518:Drivers/lvgl/src/draw/sw/lv_draw_sw_img.c **** 
 3415              		.loc 1 518 35 view .LVU1236
 3416 0142 5B44     		add	r3, r3, fp
 518:Drivers/lvgl/src/draw/sw/lv_draw_sw_img.c **** 
 3417              		.loc 1 518 43 view .LVU1237
 3418 0144 013B     		subs	r3, r3, #1
 518:Drivers/lvgl/src/draw/sw/lv_draw_sw_img.c **** 
 3419              		.loc 1 518 19 view .LVU1238
 3420 0146 1C93     		str	r3, [sp, #112]
 520:Drivers/lvgl/src/draw/sw/lv_draw_sw_img.c ****     const uint8_t * src_buf = decoded->data;
 3421              		.loc 1 520 5 is_stmt 1 view .LVU1239
 520:Drivers/lvgl/src/draw/sw/lv_draw_sw_img.c ****     const uint8_t * src_buf = decoded->data;
 3422              		.loc 1 520 24 is_stmt 0 view .LVU1240
 3423 0148 19AB     		add	r3, sp, #100
 3424 014a 2193     		str	r3, [sp, #132]
 521:Drivers/lvgl/src/draw/sw/lv_draw_sw_img.c ****     if(cf_final == LV_COLOR_FORMAT_RGB565A8) {
ARM GAS  /var/folders/qx/2_175_4n2s19vhvtspjhb3qh0000gn/T//cc1Hh9yO.s 			page 110


 3425              		.loc 1 521 5 is_stmt 1 view .LVU1241
 521:Drivers/lvgl/src/draw/sw/lv_draw_sw_img.c ****     if(cf_final == LV_COLOR_FORMAT_RGB565A8) {
 3426              		.loc 1 521 21 is_stmt 0 view .LVU1242
 3427 014c DAF81030 		ldr	r3, [r10, #16]
 3428 0150 0E93     		str	r3, [sp, #56]
 3429              	.LVL355:
 522:Drivers/lvgl/src/draw/sw/lv_draw_sw_img.c ****         /*RGB565A8 images will blended as RGB565 + mask
 3430              		.loc 1 522 5 is_stmt 1 view .LVU1243
 522:Drivers/lvgl/src/draw/sw/lv_draw_sw_img.c ****         /*RGB565A8 images will blended as RGB565 + mask
 3431              		.loc 1 522 7 is_stmt 0 view .LVU1244
 3432 0152 142F     		cmp	r7, #20
 3433 0154 13D0     		beq	.L176
 532:Drivers/lvgl/src/draw/sw/lv_draw_sw_img.c ****         blend_dsc.mask_buf = transformed_buf;
 3434              		.loc 1 532 10 is_stmt 1 view .LVU1245
 532:Drivers/lvgl/src/draw/sw/lv_draw_sw_img.c ****         blend_dsc.mask_buf = transformed_buf;
 3435              		.loc 1 532 12 is_stmt 0 view .LVU1246
 3436 0156 0E2F     		cmp	r7, #14
 3437 0158 23D1     		bne	.L165
 533:Drivers/lvgl/src/draw/sw/lv_draw_sw_img.c ****         blend_dsc.mask_stride = blend_w;
 3438              		.loc 1 533 9 is_stmt 1 view .LVU1247
 533:Drivers/lvgl/src/draw/sw/lv_draw_sw_img.c ****         blend_dsc.mask_stride = blend_w;
 3439              		.loc 1 533 28 is_stmt 0 view .LVU1248
 3440 015a 2394     		str	r4, [sp, #140]
 534:Drivers/lvgl/src/draw/sw/lv_draw_sw_img.c ****         blend_dsc.mask_area = &blend_area;
 3441              		.loc 1 534 9 is_stmt 1 view .LVU1249
 534:Drivers/lvgl/src/draw/sw/lv_draw_sw_img.c ****         blend_dsc.mask_area = &blend_area;
 3442              		.loc 1 534 31 is_stmt 0 view .LVU1250
 3443 015c 0F9B     		ldr	r3, [sp, #60]
 3444              	.LVL356:
 534:Drivers/lvgl/src/draw/sw/lv_draw_sw_img.c ****         blend_dsc.mask_area = &blend_area;
 3445              		.loc 1 534 31 view .LVU1251
 3446 015e 2693     		str	r3, [sp, #152]
 535:Drivers/lvgl/src/draw/sw/lv_draw_sw_img.c ****         blend_dsc.mask_res = LV_DRAW_SW_MASK_RES_CHANGED;
 3447              		.loc 1 535 9 is_stmt 1 view .LVU1252
 535:Drivers/lvgl/src/draw/sw/lv_draw_sw_img.c ****         blend_dsc.mask_res = LV_DRAW_SW_MASK_RES_CHANGED;
 3448              		.loc 1 535 29 is_stmt 0 view .LVU1253
 3449 0160 19AB     		add	r3, sp, #100
 3450 0162 2593     		str	r3, [sp, #148]
 536:Drivers/lvgl/src/draw/sw/lv_draw_sw_img.c ****         blend_dsc.src_buf = NULL;
 3451              		.loc 1 536 9 is_stmt 1 view .LVU1254
 536:Drivers/lvgl/src/draw/sw/lv_draw_sw_img.c ****         blend_dsc.src_buf = NULL;
 3452              		.loc 1 536 28 is_stmt 0 view .LVU1255
 3453 0164 0223     		movs	r3, #2
 3454 0166 8DF89030 		strb	r3, [sp, #144]
 537:Drivers/lvgl/src/draw/sw/lv_draw_sw_img.c ****     }
 3455              		.loc 1 537 9 is_stmt 1 view .LVU1256
 537:Drivers/lvgl/src/draw/sw/lv_draw_sw_img.c ****     }
 3456              		.loc 1 537 27 is_stmt 0 view .LVU1257
 3457 016a 0023     		movs	r3, #0
 3458 016c 1E93     		str	r3, [sp, #120]
 3459 016e 39E0     		b	.L171
 3460              	.LVL357:
 3461              	.L157:
 491:Drivers/lvgl/src/draw/sw/lv_draw_sw_img.c **** 
 3462              		.loc 1 491 33 view .LVU1258
 3463 0170 1527     		movs	r7, #21
 3464 0172 C2E7     		b	.L156
ARM GAS  /var/folders/qx/2_175_4n2s19vhvtspjhb3qh0000gn/T//cc1Hh9yO.s 			page 111


 3465              	.L173:
 3466 0174 4F46     		mov	r7, r9
 3467 0176 A3E7     		b	.L155
 3468              	.L174:
 3469 0178 1027     		movs	r7, #16
 3470 017a BEE7     		b	.L156
 3471              	.LVL358:
 3472              	.L162:
 513:Drivers/lvgl/src/draw/sw/lv_draw_sw_img.c **** 
 3473              		.loc 1 513 5 is_stmt 1 view .LVU1259
 513:Drivers/lvgl/src/draw/sw/lv_draw_sw_img.c **** 
 3474              		.loc 1 513 5 view .LVU1260
 513:Drivers/lvgl/src/draw/sw/lv_draw_sw_img.c **** 
 3475              		.loc 1 513 5 view .LVU1261
 513:Drivers/lvgl/src/draw/sw/lv_draw_sw_img.c **** 
 3476              		.loc 1 513 5 view .LVU1262
 513:Drivers/lvgl/src/draw/sw/lv_draw_sw_img.c **** 
 3477              		.loc 1 513 5 view .LVU1263
 3478 017c FEE7     		b	.L162
 3479              	.LVL359:
 3480              	.L176:
 525:Drivers/lvgl/src/draw/sw/lv_draw_sw_img.c ****         blend_dsc.mask_area = &blend_area;
 3481              		.loc 1 525 9 view .LVU1264
 525:Drivers/lvgl/src/draw/sw/lv_draw_sw_img.c ****         blend_dsc.mask_area = &blend_area;
 3482              		.loc 1 525 40 is_stmt 0 view .LVU1265
 3483 017e 0F9A     		ldr	r2, [sp, #60]
 3484 0180 5300     		lsls	r3, r2, #1
 3485              	.LVL360:
 525:Drivers/lvgl/src/draw/sw/lv_draw_sw_img.c ****         blend_dsc.mask_area = &blend_area;
 3486              		.loc 1 525 30 view .LVU1266
 3487 0182 1F93     		str	r3, [sp, #124]
 526:Drivers/lvgl/src/draw/sw/lv_draw_sw_img.c ****         blend_dsc.mask_res = LV_DRAW_SW_MASK_RES_CHANGED;
 3488              		.loc 1 526 9 is_stmt 1 view .LVU1267
 526:Drivers/lvgl/src/draw/sw/lv_draw_sw_img.c ****         blend_dsc.mask_res = LV_DRAW_SW_MASK_RES_CHANGED;
 3489              		.loc 1 526 29 is_stmt 0 view .LVU1268
 3490 0184 19AB     		add	r3, sp, #100
 3491 0186 2593     		str	r3, [sp, #148]
 3492              	.LVL361:
 527:Drivers/lvgl/src/draw/sw/lv_draw_sw_img.c ****         blend_dsc.mask_buf = transformed_buf + blend_w * 2 * buf_h;
 3493              		.loc 1 527 9 is_stmt 1 view .LVU1269
 527:Drivers/lvgl/src/draw/sw/lv_draw_sw_img.c ****         blend_dsc.mask_buf = transformed_buf + blend_w * 2 * buf_h;
 3494              		.loc 1 527 28 is_stmt 0 view .LVU1270
 3495 0188 0223     		movs	r3, #2
 3496 018a 8DF89030 		strb	r3, [sp, #144]
 528:Drivers/lvgl/src/draw/sw/lv_draw_sw_img.c ****         blend_dsc.mask_stride = blend_w;
 3497              		.loc 1 528 9 is_stmt 1 view .LVU1271
 528:Drivers/lvgl/src/draw/sw/lv_draw_sw_img.c ****         blend_dsc.mask_stride = blend_w;
 3498              		.loc 1 528 60 is_stmt 0 view .LVU1272
 3499 018e 02FB0BF3 		mul	r3, r2, fp
 528:Drivers/lvgl/src/draw/sw/lv_draw_sw_img.c ****         blend_dsc.mask_stride = blend_w;
 3500              		.loc 1 528 46 view .LVU1273
 3501 0192 04EB4303 		add	r3, r4, r3, lsl #1
 528:Drivers/lvgl/src/draw/sw/lv_draw_sw_img.c ****         blend_dsc.mask_stride = blend_w;
 3502              		.loc 1 528 28 view .LVU1274
 3503 0196 2393     		str	r3, [sp, #140]
 529:Drivers/lvgl/src/draw/sw/lv_draw_sw_img.c ****         blend_dsc.src_color_format = LV_COLOR_FORMAT_RGB565;
 3504              		.loc 1 529 9 is_stmt 1 view .LVU1275
ARM GAS  /var/folders/qx/2_175_4n2s19vhvtspjhb3qh0000gn/T//cc1Hh9yO.s 			page 112


 529:Drivers/lvgl/src/draw/sw/lv_draw_sw_img.c ****         blend_dsc.src_color_format = LV_COLOR_FORMAT_RGB565;
 3505              		.loc 1 529 31 is_stmt 0 view .LVU1276
 3506 0198 2692     		str	r2, [sp, #152]
 530:Drivers/lvgl/src/draw/sw/lv_draw_sw_img.c ****     }
 3507              		.loc 1 530 9 is_stmt 1 view .LVU1277
 530:Drivers/lvgl/src/draw/sw/lv_draw_sw_img.c ****     }
 3508              		.loc 1 530 36 is_stmt 0 view .LVU1278
 3509 019a 1223     		movs	r3, #18
 3510 019c 8DF88030 		strb	r3, [sp, #128]
 3511 01a0 20E0     		b	.L171
 3512              	.LVL362:
 3513              	.L165:
 540:Drivers/lvgl/src/draw/sw/lv_draw_sw_img.c ****     }
 3514              		.loc 1 540 9 is_stmt 1 view .LVU1279
 540:Drivers/lvgl/src/draw/sw/lv_draw_sw_img.c ****     }
 3515              		.loc 1 540 42 is_stmt 0 view .LVU1280
 3516 01a2 3846     		mov	r0, r7
 3517 01a4 FFF7FEFF 		bl	lv_color_format_get_size
 3518              	.LVL363:
 540:Drivers/lvgl/src/draw/sw/lv_draw_sw_img.c ****     }
 3519              		.loc 1 540 40 discriminator 1 view .LVU1281
 3520 01a8 0F9B     		ldr	r3, [sp, #60]
 3521 01aa 03FB00F0 		mul	r0, r3, r0
 540:Drivers/lvgl/src/draw/sw/lv_draw_sw_img.c ****     }
 3522              		.loc 1 540 30 discriminator 1 view .LVU1282
 3523 01ae 1F90     		str	r0, [sp, #124]
 3524 01b0 18E0     		b	.L171
 3525              	.LVL364:
 3526              	.L168:
 3527              	.LBB119:
 3528              	.LBB120:
 560:Drivers/lvgl/src/draw/sw/lv_draw_sw_img.c ****             }
 3529              		.loc 1 560 17 is_stmt 1 view .LVU1283
 3530 01b2 0495     		str	r5, [sp, #16]
 3531 01b4 0397     		str	r7, [sp, #12]
 3532 01b6 1F9B     		ldr	r3, [sp, #124]
 3533 01b8 0293     		str	r3, [sp, #8]
 3534 01ba 0194     		str	r4, [sp, #4]
 3535 01bc 0094     		str	r4, [sp]
 3536 01be 15AB     		add	r3, sp, #84
 3537 01c0 0FCB     		ldm	r3, {r0, r1, r2, r3}
 3538 01c2 FFF7FEFF 		bl	recolor
 3539              	.LVL365:
 3540              	.L167:
 560:Drivers/lvgl/src/draw/sw/lv_draw_sw_img.c ****             }
 3541              		.loc 1 560 17 is_stmt 0 view .LVU1284
 3542              	.LBE120:
 565:Drivers/lvgl/src/draw/sw/lv_draw_sw_img.c **** 
 3543              		.loc 1 565 9 is_stmt 1 view .LVU1285
 3544 01c6 1DA9     		add	r1, sp, #116
 3545 01c8 0C98     		ldr	r0, [sp, #48]
 3546 01ca FFF7FEFF 		bl	lv_draw_sw_blend
 3547              	.LVL366:
 568:Drivers/lvgl/src/draw/sw/lv_draw_sw_img.c ****         blend_area.y2 = blend_area.y1 + buf_h - 1;
 3548              		.loc 1 568 9 view .LVU1286
 568:Drivers/lvgl/src/draw/sw/lv_draw_sw_img.c ****         blend_area.y2 = blend_area.y1 + buf_h - 1;
 3549              		.loc 1 568 35 is_stmt 0 view .LVU1287
ARM GAS  /var/folders/qx/2_175_4n2s19vhvtspjhb3qh0000gn/T//cc1Hh9yO.s 			page 113


 3550 01ce 1C9B     		ldr	r3, [sp, #112]
 568:Drivers/lvgl/src/draw/sw/lv_draw_sw_img.c ****         blend_area.y2 = blend_area.y1 + buf_h - 1;
 3551              		.loc 1 568 39 view .LVU1288
 3552 01d0 0133     		adds	r3, r3, #1
 568:Drivers/lvgl/src/draw/sw/lv_draw_sw_img.c ****         blend_area.y2 = blend_area.y1 + buf_h - 1;
 3553              		.loc 1 568 23 view .LVU1289
 3554 01d2 1A93     		str	r3, [sp, #104]
 569:Drivers/lvgl/src/draw/sw/lv_draw_sw_img.c ****         if(blend_area.y2 > y_last) {
 3555              		.loc 1 569 9 is_stmt 1 view .LVU1290
 569:Drivers/lvgl/src/draw/sw/lv_draw_sw_img.c ****         if(blend_area.y2 > y_last) {
 3556              		.loc 1 569 39 is_stmt 0 view .LVU1291
 3557 01d4 5B44     		add	r3, r3, fp
 569:Drivers/lvgl/src/draw/sw/lv_draw_sw_img.c ****         if(blend_area.y2 > y_last) {
 3558              		.loc 1 569 47 view .LVU1292
 3559 01d6 013B     		subs	r3, r3, #1
 569:Drivers/lvgl/src/draw/sw/lv_draw_sw_img.c ****         if(blend_area.y2 > y_last) {
 3560              		.loc 1 569 23 view .LVU1293
 3561 01d8 1C93     		str	r3, [sp, #112]
 570:Drivers/lvgl/src/draw/sw/lv_draw_sw_img.c ****             blend_area.y2 = y_last;
 3562              		.loc 1 570 9 is_stmt 1 view .LVU1294
 570:Drivers/lvgl/src/draw/sw/lv_draw_sw_img.c ****             blend_area.y2 = y_last;
 3563              		.loc 1 570 11 is_stmt 0 view .LVU1295
 3564 01da B342     		cmp	r3, r6
 3565 01dc 02DD     		ble	.L171
 571:Drivers/lvgl/src/draw/sw/lv_draw_sw_img.c ****             if(cf_final == LV_COLOR_FORMAT_RGB565A8) {
 3566              		.loc 1 571 13 is_stmt 1 view .LVU1296
 571:Drivers/lvgl/src/draw/sw/lv_draw_sw_img.c ****             if(cf_final == LV_COLOR_FORMAT_RGB565A8) {
 3567              		.loc 1 571 27 is_stmt 0 view .LVU1297
 3568 01de 1C96     		str	r6, [sp, #112]
 572:Drivers/lvgl/src/draw/sw/lv_draw_sw_img.c ****                 blend_dsc.mask_buf =  transformed_buf + blend_w * 2 * lv_area_get_height(&blend_are
 3569              		.loc 1 572 13 is_stmt 1 view .LVU1298
 572:Drivers/lvgl/src/draw/sw/lv_draw_sw_img.c ****                 blend_dsc.mask_buf =  transformed_buf + blend_w * 2 * lv_area_get_height(&blend_are
 3570              		.loc 1 572 15 is_stmt 0 view .LVU1299
 3571 01e0 142F     		cmp	r7, #20
 3572 01e2 46D0     		beq	.L177
 3573              	.L171:
 572:Drivers/lvgl/src/draw/sw/lv_draw_sw_img.c ****                 blend_dsc.mask_buf =  transformed_buf + blend_w * 2 * lv_area_get_height(&blend_are
 3574              		.loc 1 572 15 view .LVU1300
 3575              	.LBE119:
 543:Drivers/lvgl/src/draw/sw/lv_draw_sw_img.c ****         /*Apply transformations if any or separate the channels*/
 3576              		.loc 1 543 25 is_stmt 1 view .LVU1301
 543:Drivers/lvgl/src/draw/sw/lv_draw_sw_img.c ****         /*Apply transformations if any or separate the channels*/
 3577              		.loc 1 543 21 is_stmt 0 view .LVU1302
 3578 01e4 1A9B     		ldr	r3, [sp, #104]
 543:Drivers/lvgl/src/draw/sw/lv_draw_sw_img.c ****         /*Apply transformations if any or separate the channels*/
 3579              		.loc 1 543 25 view .LVU1303
 3580 01e6 B342     		cmp	r3, r6
 3581 01e8 4DDC     		bgt	.L178
 3582              	.LBB126:
 545:Drivers/lvgl/src/draw/sw/lv_draw_sw_img.c ****         lv_area_copy(&relative_area, &blend_area);
 3583              		.loc 1 545 9 is_stmt 1 view .LVU1304
 546:Drivers/lvgl/src/draw/sw/lv_draw_sw_img.c ****         lv_area_move(&relative_area, -img_coords->x1, -img_coords->y1);
 3584              		.loc 1 546 9 view .LVU1305
 3585              	.LVL367:
 3586              	.LBB123:
 3587              	.LBI123:
 107:Drivers/lvgl/src/draw/sw/../../misc/lv_area.h **** {
ARM GAS  /var/folders/qx/2_175_4n2s19vhvtspjhb3qh0000gn/T//cc1Hh9yO.s 			page 114


 3588              		.loc 4 107 20 view .LVU1306
 3589              	.LBB124:
 109:Drivers/lvgl/src/draw/sw/../../misc/lv_area.h ****     dest->y1 = src->y1;
 3590              		.loc 4 109 5 view .LVU1307
 109:Drivers/lvgl/src/draw/sw/../../misc/lv_area.h ****     dest->y1 = src->y1;
 3591              		.loc 4 109 19 is_stmt 0 view .LVU1308
 3592 01ea 199A     		ldr	r2, [sp, #100]
 109:Drivers/lvgl/src/draw/sw/../../misc/lv_area.h ****     dest->y1 = src->y1;
 3593              		.loc 4 109 14 view .LVU1309
 3594 01ec 1192     		str	r2, [sp, #68]
 110:Drivers/lvgl/src/draw/sw/../../misc/lv_area.h ****     dest->x2 = src->x2;
 3595              		.loc 4 110 5 is_stmt 1 view .LVU1310
 110:Drivers/lvgl/src/draw/sw/../../misc/lv_area.h ****     dest->x2 = src->x2;
 3596              		.loc 4 110 14 is_stmt 0 view .LVU1311
 3597 01ee 1293     		str	r3, [sp, #72]
 111:Drivers/lvgl/src/draw/sw/../../misc/lv_area.h ****     dest->y2 = src->y2;
 3598              		.loc 4 111 5 is_stmt 1 view .LVU1312
 111:Drivers/lvgl/src/draw/sw/../../misc/lv_area.h ****     dest->y2 = src->y2;
 3599              		.loc 4 111 19 is_stmt 0 view .LVU1313
 3600 01f0 1B9B     		ldr	r3, [sp, #108]
 111:Drivers/lvgl/src/draw/sw/../../misc/lv_area.h ****     dest->y2 = src->y2;
 3601              		.loc 4 111 14 view .LVU1314
 3602 01f2 1393     		str	r3, [sp, #76]
 3603              		.loc 4 112 5 is_stmt 1 view .LVU1315
 3604              		.loc 4 112 19 is_stmt 0 view .LVU1316
 3605 01f4 1C9B     		ldr	r3, [sp, #112]
 3606              		.loc 4 112 14 view .LVU1317
 3607 01f6 1493     		str	r3, [sp, #80]
 3608              	.LVL368:
 3609              		.loc 4 112 14 view .LVU1318
 3610              	.LBE124:
 3611              	.LBE123:
 547:Drivers/lvgl/src/draw/sw/lv_draw_sw_img.c ****         lv_draw_sw_transform(&relative_area, src_buf, src_w, src_h, img_stride,
 3612              		.loc 1 547 9 is_stmt 1 view .LVU1319
 547:Drivers/lvgl/src/draw/sw/lv_draw_sw_img.c ****         lv_draw_sw_transform(&relative_area, src_buf, src_w, src_h, img_stride,
 3613              		.loc 1 547 49 is_stmt 0 view .LVU1320
 3614 01f8 D8F80010 		ldr	r1, [r8]
 547:Drivers/lvgl/src/draw/sw/lv_draw_sw_img.c ****         lv_draw_sw_transform(&relative_area, src_buf, src_w, src_h, img_stride,
 3615              		.loc 1 547 66 view .LVU1321
 3616 01fc D8F80420 		ldr	r2, [r8, #4]
 547:Drivers/lvgl/src/draw/sw/lv_draw_sw_img.c ****         lv_draw_sw_transform(&relative_area, src_buf, src_w, src_h, img_stride,
 3617              		.loc 1 547 9 view .LVU1322
 3618 0200 0DF1440A 		add	r10, sp, #68
 3619 0204 5242     		rsbs	r2, r2, #0
 3620 0206 4942     		rsbs	r1, r1, #0
 3621 0208 5046     		mov	r0, r10
 3622 020a FFF7FEFF 		bl	lv_area_move
 3623              	.LVL369:
 548:Drivers/lvgl/src/draw/sw/lv_draw_sw_img.c ****                              draw_dsc, sup, cf, transformed_buf);
 3624              		.loc 1 548 9 is_stmt 1 view .LVU1323
 3625 020e 0494     		str	r4, [sp, #16]
 3626 0210 CDF80C90 		str	r9, [sp, #12]
 3627 0214 0D9B     		ldr	r3, [sp, #52]
 3628 0216 0293     		str	r3, [sp, #8]
 3629 0218 0195     		str	r5, [sp, #4]
 3630 021a 099B     		ldr	r3, [sp, #36]
 3631 021c 0093     		str	r3, [sp]
ARM GAS  /var/folders/qx/2_175_4n2s19vhvtspjhb3qh0000gn/T//cc1Hh9yO.s 			page 115


 3632 021e 0B9B     		ldr	r3, [sp, #44]
 3633 0220 0A9A     		ldr	r2, [sp, #40]
 3634 0222 0E99     		ldr	r1, [sp, #56]
 3635 0224 5046     		mov	r0, r10
 3636 0226 FFF7FEFF 		bl	lv_draw_sw_transform
 3637              	.LVL370:
 551:Drivers/lvgl/src/draw/sw/lv_draw_sw_img.c ****             lv_area_t relative_area2;
 3638              		.loc 1 551 9 view .LVU1324
 551:Drivers/lvgl/src/draw/sw/lv_draw_sw_img.c ****             lv_area_t relative_area2;
 3639              		.loc 1 551 11 is_stmt 0 view .LVU1325
 3640 022a 089B     		ldr	r3, [sp, #32]
 3641 022c 13B9     		cbnz	r3, .L166
 551:Drivers/lvgl/src/draw/sw/lv_draw_sw_img.c ****             lv_area_t relative_area2;
 3642              		.loc 1 551 23 discriminator 1 view .LVU1326
 3643 022e 079B     		ldr	r3, [sp, #28]
 3644 0230 002B     		cmp	r3, #0
 3645 0232 C8D0     		beq	.L167
 3646              	.L166:
 3647              	.LBB125:
 552:Drivers/lvgl/src/draw/sw/lv_draw_sw_img.c ****             lv_area_copy(&relative_area2, &blend_area);
 3648              		.loc 1 552 13 is_stmt 1 view .LVU1327
 553:Drivers/lvgl/src/draw/sw/lv_draw_sw_img.c ****             lv_area_move(&relative_area2, -blend_area.x1, -blend_area.y1);
 3649              		.loc 1 553 13 view .LVU1328
 3650              	.LVL371:
 3651              	.LBB121:
 3652              	.LBI121:
 107:Drivers/lvgl/src/draw/sw/../../misc/lv_area.h **** {
 3653              		.loc 4 107 20 view .LVU1329
 3654              	.LBB122:
 109:Drivers/lvgl/src/draw/sw/../../misc/lv_area.h ****     dest->y1 = src->y1;
 3655              		.loc 4 109 5 view .LVU1330
 109:Drivers/lvgl/src/draw/sw/../../misc/lv_area.h ****     dest->y1 = src->y1;
 3656              		.loc 4 109 19 is_stmt 0 view .LVU1331
 3657 0234 1999     		ldr	r1, [sp, #100]
 109:Drivers/lvgl/src/draw/sw/../../misc/lv_area.h ****     dest->y1 = src->y1;
 3658              		.loc 4 109 14 view .LVU1332
 3659 0236 1591     		str	r1, [sp, #84]
 110:Drivers/lvgl/src/draw/sw/../../misc/lv_area.h ****     dest->x2 = src->x2;
 3660              		.loc 4 110 5 is_stmt 1 view .LVU1333
 110:Drivers/lvgl/src/draw/sw/../../misc/lv_area.h ****     dest->x2 = src->x2;
 3661              		.loc 4 110 19 is_stmt 0 view .LVU1334
 3662 0238 1A9A     		ldr	r2, [sp, #104]
 110:Drivers/lvgl/src/draw/sw/../../misc/lv_area.h ****     dest->x2 = src->x2;
 3663              		.loc 4 110 14 view .LVU1335
 3664 023a 1692     		str	r2, [sp, #88]
 111:Drivers/lvgl/src/draw/sw/../../misc/lv_area.h ****     dest->y2 = src->y2;
 3665              		.loc 4 111 5 is_stmt 1 view .LVU1336
 111:Drivers/lvgl/src/draw/sw/../../misc/lv_area.h ****     dest->y2 = src->y2;
 3666              		.loc 4 111 19 is_stmt 0 view .LVU1337
 3667 023c 1B9B     		ldr	r3, [sp, #108]
 111:Drivers/lvgl/src/draw/sw/../../misc/lv_area.h ****     dest->y2 = src->y2;
 3668              		.loc 4 111 14 view .LVU1338
 3669 023e 1793     		str	r3, [sp, #92]
 3670              		.loc 4 112 5 is_stmt 1 view .LVU1339
 3671              		.loc 4 112 19 is_stmt 0 view .LVU1340
 3672 0240 1C9B     		ldr	r3, [sp, #112]
 3673              		.loc 4 112 14 view .LVU1341
ARM GAS  /var/folders/qx/2_175_4n2s19vhvtspjhb3qh0000gn/T//cc1Hh9yO.s 			page 116


 3674 0242 1893     		str	r3, [sp, #96]
 3675              	.LVL372:
 3676              		.loc 4 112 14 view .LVU1342
 3677              	.LBE122:
 3678              	.LBE121:
 554:Drivers/lvgl/src/draw/sw/lv_draw_sw_img.c ****             if(has_colorkey && cf_final != LV_COLOR_FORMAT_RGB565_SWAPPED) {
 3679              		.loc 1 554 13 is_stmt 1 view .LVU1343
 3680 0244 5242     		rsbs	r2, r2, #0
 3681 0246 4942     		rsbs	r1, r1, #0
 3682 0248 15A8     		add	r0, sp, #84
 3683 024a FFF7FEFF 		bl	lv_area_move
 3684              	.LVL373:
 555:Drivers/lvgl/src/draw/sw/lv_draw_sw_img.c ****                 colorkey_and_recolor(relative_area2, transformed_buf, transformed_buf, blend_dsc.sr
 3685              		.loc 1 555 13 view .LVU1344
 555:Drivers/lvgl/src/draw/sw/lv_draw_sw_img.c ****                 colorkey_and_recolor(relative_area2, transformed_buf, transformed_buf, blend_dsc.sr
 3686              		.loc 1 555 15 is_stmt 0 view .LVU1345
 3687 024e 079B     		ldr	r3, [sp, #28]
 3688 0250 002B     		cmp	r3, #0
 3689 0252 AED0     		beq	.L168
 555:Drivers/lvgl/src/draw/sw/lv_draw_sw_img.c ****                 colorkey_and_recolor(relative_area2, transformed_buf, transformed_buf, blend_dsc.sr
 3690              		.loc 1 555 29 discriminator 1 view .LVU1346
 3691 0254 1B2F     		cmp	r7, #27
 3692 0256 ACD0     		beq	.L168
 556:Drivers/lvgl/src/draw/sw/lv_draw_sw_img.c ****                                      &blend_dsc);
 3693              		.loc 1 556 17 is_stmt 1 view .LVU1347
 3694 0258 1DAB     		add	r3, sp, #116
 3695 025a 0593     		str	r3, [sp, #20]
 3696 025c 0495     		str	r5, [sp, #16]
 3697 025e 0397     		str	r7, [sp, #12]
 3698 0260 1F9B     		ldr	r3, [sp, #124]
 3699 0262 0293     		str	r3, [sp, #8]
 3700 0264 0194     		str	r4, [sp, #4]
 3701 0266 0094     		str	r4, [sp]
 3702 0268 15AB     		add	r3, sp, #84
 3703 026a 0FCB     		ldm	r3, {r0, r1, r2, r3}
 3704 026c FFF7FEFF 		bl	colorkey_and_recolor
 3705              	.LVL374:
 3706 0270 A9E7     		b	.L167
 3707              	.L177:
 556:Drivers/lvgl/src/draw/sw/lv_draw_sw_img.c ****                                      &blend_dsc);
 3708              		.loc 1 556 17 is_stmt 0 view .LVU1348
 3709              	.LBE125:
 573:Drivers/lvgl/src/draw/sw/lv_draw_sw_img.c ****             }
 3710              		.loc 1 573 17 is_stmt 1 view .LVU1349
 573:Drivers/lvgl/src/draw/sw/lv_draw_sw_img.c ****             }
 3711              		.loc 1 573 71 is_stmt 0 view .LVU1350
 3712 0272 19A8     		add	r0, sp, #100
 3713 0274 FFF7FEFF 		bl	lv_area_get_height
 3714              	.LVL375:
 573:Drivers/lvgl/src/draw/sw/lv_draw_sw_img.c ****             }
 3715              		.loc 1 573 69 discriminator 1 view .LVU1351
 3716 0278 0F9B     		ldr	r3, [sp, #60]
 3717 027a 03FB00F3 		mul	r3, r3, r0
 573:Drivers/lvgl/src/draw/sw/lv_draw_sw_img.c ****             }
 3718              		.loc 1 573 55 discriminator 1 view .LVU1352
 3719 027e 04EB4303 		add	r3, r4, r3, lsl #1
 573:Drivers/lvgl/src/draw/sw/lv_draw_sw_img.c ****             }
ARM GAS  /var/folders/qx/2_175_4n2s19vhvtspjhb3qh0000gn/T//cc1Hh9yO.s 			page 117


 3720              		.loc 1 573 36 discriminator 1 view .LVU1353
 3721 0282 2393     		str	r3, [sp, #140]
 3722 0284 AEE7     		b	.L171
 3723              	.L178:
 573:Drivers/lvgl/src/draw/sw/lv_draw_sw_img.c ****             }
 3724              		.loc 1 573 36 discriminator 1 view .LVU1354
 3725              	.LBE126:
 578:Drivers/lvgl/src/draw/sw/lv_draw_sw_img.c **** }
 3726              		.loc 1 578 5 is_stmt 1 view .LVU1355
 3727 0286 2046     		mov	r0, r4
 3728 0288 FFF7FEFF 		bl	lv_free
 3729              	.LVL376:
 579:Drivers/lvgl/src/draw/sw/lv_draw_sw_img.c **** 
 3730              		.loc 1 579 1 is_stmt 0 view .LVU1356
 3731 028c 29B0     		add	sp, sp, #164
 3732              	.LCFI24:
 3733              		.cfi_def_cfa_offset 36
 3734              		@ sp needed
 3735 028e BDE8F08F 		pop	{r4, r5, r6, r7, r8, r9, r10, fp, pc}
 579:Drivers/lvgl/src/draw/sw/lv_draw_sw_img.c **** 
 3736              		.loc 1 579 1 view .LVU1357
 3737              		.cfi_endproc
 3738              	.LFE198:
 3740              		.section	.text.img_draw_core,"ax",%progbits
 3741              		.align	1
 3742              		.syntax unified
 3743              		.thumb
 3744              		.thumb_func
 3746              	img_draw_core:
 3747              	.LVL377:
 3748              	.LFB195:
 222:Drivers/lvgl/src/draw/sw/lv_draw_sw_img.c ****     bool transformed = draw_dsc->rotation != 0 || draw_dsc->scale_x != LV_SCALE_NONE ||
 3749              		.loc 1 222 1 is_stmt 1 view -0
 3750              		.cfi_startproc
 3751              		@ args = 8, pretend = 0, frame = 72
 3752              		@ frame_needed = 0, uses_anonymous_args = 0
 222:Drivers/lvgl/src/draw/sw/lv_draw_sw_img.c ****     bool transformed = draw_dsc->rotation != 0 || draw_dsc->scale_x != LV_SCALE_NONE ||
 3753              		.loc 1 222 1 is_stmt 0 view .LVU1359
 3754 0000 2DE9F04F 		push	{r4, r5, r6, r7, r8, r9, r10, fp, lr}
 3755              	.LCFI25:
 3756              		.cfi_def_cfa_offset 36
 3757              		.cfi_offset 4, -36
 3758              		.cfi_offset 5, -32
 3759              		.cfi_offset 6, -28
 3760              		.cfi_offset 7, -24
 3761              		.cfi_offset 8, -20
 3762              		.cfi_offset 9, -16
 3763              		.cfi_offset 10, -12
 3764              		.cfi_offset 11, -8
 3765              		.cfi_offset 14, -4
 3766 0004 95B0     		sub	sp, sp, #84
 3767              	.LCFI26:
 3768              		.cfi_def_cfa_offset 120
 3769 0006 8046     		mov	r8, r0
 3770 0008 0C46     		mov	r4, r1
 3771 000a 1646     		mov	r6, r2
 3772 000c 0293     		str	r3, [sp, #8]
ARM GAS  /var/folders/qx/2_175_4n2s19vhvtspjhb3qh0000gn/T//cc1Hh9yO.s 			page 118


 223:Drivers/lvgl/src/draw/sw/lv_draw_sw_img.c ****                        draw_dsc->scale_y != LV_SCALE_NONE ? true : false;
 3773              		.loc 1 223 5 is_stmt 1 view .LVU1360
 223:Drivers/lvgl/src/draw/sw/lv_draw_sw_img.c ****                        draw_dsc->scale_y != LV_SCALE_NONE ? true : false;
 3774              		.loc 1 223 32 is_stmt 0 view .LVU1361
 3775 000e 0D6B     		ldr	r5, [r1, #48]
 224:Drivers/lvgl/src/draw/sw/lv_draw_sw_img.c **** 
 3776              		.loc 1 224 66 view .LVU1362
 3777 0010 5DB9     		cbnz	r5, .L191
 223:Drivers/lvgl/src/draw/sw/lv_draw_sw_img.c ****                        draw_dsc->scale_y != LV_SCALE_NONE ? true : false;
 3778              		.loc 1 223 59 view .LVU1363
 3779 0012 4B6B     		ldr	r3, [r1, #52]
 3780              	.LVL378:
 223:Drivers/lvgl/src/draw/sw/lv_draw_sw_img.c ****                        draw_dsc->scale_y != LV_SCALE_NONE ? true : false;
 3781              		.loc 1 223 48 view .LVU1364
 3782 0014 B3F5807F 		cmp	r3, #256
 3783 0018 01D0     		beq	.L194
 224:Drivers/lvgl/src/draw/sw/lv_draw_sw_img.c **** 
 3784              		.loc 1 224 66 discriminator 1 view .LVU1365
 3785 001a 0125     		movs	r5, #1
 3786 001c 06E0     		b	.L180
 3787              	.L194:
 224:Drivers/lvgl/src/draw/sw/lv_draw_sw_img.c **** 
 3788              		.loc 1 224 32 discriminator 2 view .LVU1366
 3789 001e 8B6B     		ldr	r3, [r1, #56]
 224:Drivers/lvgl/src/draw/sw/lv_draw_sw_img.c **** 
 3790              		.loc 1 224 66 discriminator 2 view .LVU1367
 3791 0020 B3F5807F 		cmp	r3, #256
 3792 0024 02D0     		beq	.L180
 224:Drivers/lvgl/src/draw/sw/lv_draw_sw_img.c **** 
 3793              		.loc 1 224 66 discriminator 1 view .LVU1368
 3794 0026 0125     		movs	r5, #1
 3795 0028 00E0     		b	.L180
 3796              	.LVL379:
 3797              	.L191:
 224:Drivers/lvgl/src/draw/sw/lv_draw_sw_img.c **** 
 3798              		.loc 1 224 66 discriminator 1 view .LVU1369
 3799 002a 0125     		movs	r5, #1
 3800              	.LVL380:
 3801              	.L180:
 223:Drivers/lvgl/src/draw/sw/lv_draw_sw_img.c ****                        draw_dsc->scale_y != LV_SCALE_NONE ? true : false;
 3802              		.loc 1 223 10 view .LVU1370
 3803 002c 05F00105 		and	r5, r5, #1
 3804              	.LVL381:
 226:Drivers/lvgl/src/draw/sw/lv_draw_sw_img.c **** 
 3805              		.loc 1 226 5 is_stmt 1 view .LVU1371
 226:Drivers/lvgl/src/draw/sw/lv_draw_sw_img.c **** 
 3806              		.loc 1 226 27 is_stmt 0 view .LVU1372
 3807 0030 E76A     		ldr	r7, [r4, #44]
 3808              	.LVL382:
 228:Drivers/lvgl/src/draw/sw/lv_draw_sw_img.c ****     const uint8_t * src_buf = decoded->data;
 3809              		.loc 1 228 5 is_stmt 1 view .LVU1373
 228:Drivers/lvgl/src/draw/sw/lv_draw_sw_img.c ****     const uint8_t * src_buf = decoded->data;
 3810              		.loc 1 228 27 is_stmt 0 view .LVU1374
 3811 0032 D6F82C90 		ldr	r9, [r6, #44]
 3812              	.LVL383:
 229:Drivers/lvgl/src/draw/sw/lv_draw_sw_img.c ****     const lv_image_header_t * header = &decoded->header;
 3813              		.loc 1 229 5 is_stmt 1 view .LVU1375
ARM GAS  /var/folders/qx/2_175_4n2s19vhvtspjhb3qh0000gn/T//cc1Hh9yO.s 			page 119


 229:Drivers/lvgl/src/draw/sw/lv_draw_sw_img.c ****     const lv_image_header_t * header = &decoded->header;
 3814              		.loc 1 229 21 is_stmt 0 view .LVU1376
 3815 0036 D9F81030 		ldr	r3, [r9, #16]
 3816 003a 0393     		str	r3, [sp, #12]
 3817              	.LVL384:
 230:Drivers/lvgl/src/draw/sw/lv_draw_sw_img.c ****     uint32_t img_stride = decoded->header.stride;
 3818              		.loc 1 230 5 is_stmt 1 view .LVU1377
 231:Drivers/lvgl/src/draw/sw/lv_draw_sw_img.c ****     lv_color_format_t cf = decoded->header.cf;
 3819              		.loc 1 231 5 view .LVU1378
 231:Drivers/lvgl/src/draw/sw/lv_draw_sw_img.c ****     lv_color_format_t cf = decoded->header.cf;
 3820              		.loc 1 231 42 is_stmt 0 view .LVU1379
 3821 003c B9F808A0 		ldrh	r10, [r9, #8]
 3822              	.LVL385:
 232:Drivers/lvgl/src/draw/sw/lv_draw_sw_img.c **** 
 3823              		.loc 1 232 5 is_stmt 1 view .LVU1380
 232:Drivers/lvgl/src/draw/sw/lv_draw_sw_img.c **** 
 3824              		.loc 1 232 23 is_stmt 0 view .LVU1381
 3825 0040 99F801B0 		ldrb	fp, [r9, #1]	@ zero_extendqisi2
 3826              	.LVL386:
 234:Drivers/lvgl/src/draw/sw/lv_draw_sw_img.c ****     lv_memzero(&blend_dsc, sizeof(lv_draw_sw_blend_dsc_t));
 3827              		.loc 1 234 5 is_stmt 1 view .LVU1382
 235:Drivers/lvgl/src/draw/sw/lv_draw_sw_img.c ****     blend_dsc.opa = draw_dsc->opa;
 3828              		.loc 1 235 5 view .LVU1383
 3829              	.LBB127:
 3830              	.LBI127:
  73:Drivers/lvgl/src/draw/sw/blend/../../../misc/../stdlib/lv_string.h **** {
 3831              		.loc 3 73 20 view .LVU1384
 3832              	.LBB128:
 3833              		.loc 3 75 5 view .LVU1385
 3834 0044 2C22     		movs	r2, #44
 3835              	.LVL387:
 3836              		.loc 3 75 5 is_stmt 0 view .LVU1386
 3837 0046 0021     		movs	r1, #0
 3838              	.LVL388:
 3839              		.loc 3 75 5 view .LVU1387
 3840 0048 09A8     		add	r0, sp, #36
 3841              	.LVL389:
 3842              		.loc 3 75 5 view .LVU1388
 3843 004a FFF7FEFF 		bl	lv_memset
 3844              	.LVL390:
 3845              		.loc 3 75 5 view .LVU1389
 3846              	.LBE128:
 3847              	.LBE127:
 236:Drivers/lvgl/src/draw/sw/lv_draw_sw_img.c ****     blend_dsc.blend_mode = draw_dsc->blend_mode;
 3848              		.loc 1 236 5 is_stmt 1 view .LVU1390
 236:Drivers/lvgl/src/draw/sw/lv_draw_sw_img.c ****     blend_dsc.blend_mode = draw_dsc->blend_mode;
 3849              		.loc 1 236 29 is_stmt 0 view .LVU1391
 3850 004e 94F85030 		ldrb	r3, [r4, #80]	@ zero_extendqisi2
 236:Drivers/lvgl/src/draw/sw/lv_draw_sw_img.c ****     blend_dsc.blend_mode = draw_dsc->blend_mode;
 3851              		.loc 1 236 19 view .LVU1392
 3852 0052 8DF83830 		strb	r3, [sp, #56]
 237:Drivers/lvgl/src/draw/sw/lv_draw_sw_img.c ****     blend_dsc.src_stride = img_stride;
 3853              		.loc 1 237 5 is_stmt 1 view .LVU1393
 237:Drivers/lvgl/src/draw/sw/lv_draw_sw_img.c ****     blend_dsc.src_stride = img_stride;
 3854              		.loc 1 237 36 is_stmt 0 view .LVU1394
 3855 0056 94F85130 		ldrb	r3, [r4, #81]	@ zero_extendqisi2
 3856 005a C3F30303 		ubfx	r3, r3, #0, #4
ARM GAS  /var/folders/qx/2_175_4n2s19vhvtspjhb3qh0000gn/T//cc1Hh9yO.s 			page 120


 237:Drivers/lvgl/src/draw/sw/lv_draw_sw_img.c ****     blend_dsc.src_stride = img_stride;
 3857              		.loc 1 237 26 view .LVU1395
 3858 005e 8DF84C30 		strb	r3, [sp, #76]
 238:Drivers/lvgl/src/draw/sw/lv_draw_sw_img.c **** 
 3859              		.loc 1 238 5 is_stmt 1 view .LVU1396
 238:Drivers/lvgl/src/draw/sw/lv_draw_sw_img.c **** 
 3860              		.loc 1 238 26 is_stmt 0 view .LVU1397
 3861 0062 CDF82CA0 		str	r10, [sp, #44]
 240:Drivers/lvgl/src/draw/sw/lv_draw_sw_img.c ****         lv_area_t clipped_coords;
 3862              		.loc 1 240 5 is_stmt 1 view .LVU1398
 240:Drivers/lvgl/src/draw/sw/lv_draw_sw_img.c ****         lv_area_t clipped_coords;
 3863              		.loc 1 240 7 is_stmt 0 view .LVU1399
 3864 0066 1DB9     		cbnz	r5, .L181
 240:Drivers/lvgl/src/draw/sw/lv_draw_sw_img.c ****         lv_area_t clipped_coords;
 3865              		.loc 1 240 21 discriminator 1 view .LVU1400
 3866 0068 002F     		cmp	r7, #0
 3867 006a 21DD     		ble	.L195
 3868              	.L182:
 254:Drivers/lvgl/src/draw/sw/lv_draw_sw_img.c ****             draw_dsc->colorkey == NULL) {
 3869              		.loc 1 254 10 is_stmt 1 view .LVU1401
 254:Drivers/lvgl/src/draw/sw/lv_draw_sw_img.c ****             draw_dsc->colorkey == NULL) {
 3870              		.loc 1 254 26 is_stmt 0 discriminator 1 view .LVU1402
 3871 006c 002F     		cmp	r7, #0
 3872 006e 44DD     		ble	.L196
 3873              	.L181:
 274:Drivers/lvgl/src/draw/sw/lv_draw_sw_img.c ****             draw_dsc->colorkey == NULL) {
 3874              		.loc 1 274 10 is_stmt 1 view .LVU1403
 274:Drivers/lvgl/src/draw/sw/lv_draw_sw_img.c ****             draw_dsc->colorkey == NULL) {
 3875              		.loc 1 274 12 is_stmt 0 view .LVU1404
 3876 0070 8DB9     		cbnz	r5, .L186
 274:Drivers/lvgl/src/draw/sw/lv_draw_sw_img.c ****             draw_dsc->colorkey == NULL) {
 3877              		.loc 1 274 26 discriminator 1 view .LVU1405
 3878 0072 002F     		cmp	r7, #0
 3879 0074 71DD     		ble	.L197
 3880              	.L187:
 283:Drivers/lvgl/src/draw/sw/lv_draw_sw_img.c ****         blend_dsc.src_area = img_coords;
 3881              		.loc 1 283 10 is_stmt 1 view .LVU1406
 283:Drivers/lvgl/src/draw/sw/lv_draw_sw_img.c ****         blend_dsc.src_area = img_coords;
 3882              		.loc 1 283 26 is_stmt 0 discriminator 1 view .LVU1407
 3883 0076 002F     		cmp	r7, #0
 3884 0078 40F38580 		ble	.L198
 3885              	.L189:
 290:Drivers/lvgl/src/draw/sw/lv_draw_sw_img.c ****         recolor_only(t, draw_dsc, decoder_dsc, img_coords,  clipped_img_area);
 3886              		.loc 1 290 10 is_stmt 1 view .LVU1408
 290:Drivers/lvgl/src/draw/sw/lv_draw_sw_img.c ****         recolor_only(t, draw_dsc, decoder_dsc, img_coords,  clipped_img_area);
 3887              		.loc 1 290 26 is_stmt 0 discriminator 1 view .LVU1409
 3888 007c 002F     		cmp	r7, #0
 3889 007e 40F39880 		ble	.L199
 3890              	.L190:
 295:Drivers/lvgl/src/draw/sw/lv_draw_sw_img.c ****         radius_only(t, draw_dsc, decoder_dsc, img_coords,  clipped_img_area);
 3891              		.loc 1 295 10 is_stmt 1 view .LVU1410
 295:Drivers/lvgl/src/draw/sw/lv_draw_sw_img.c ****         radius_only(t, draw_dsc, decoder_dsc, img_coords,  clipped_img_area);
 3892              		.loc 1 295 26 is_stmt 0 discriminator 1 view .LVU1411
 3893 0082 002F     		cmp	r7, #0
 3894 0084 07DD     		ble	.L186
 295:Drivers/lvgl/src/draw/sw/lv_draw_sw_img.c ****         radius_only(t, draw_dsc, decoder_dsc, img_coords,  clipped_img_area);
 3895              		.loc 1 295 47 discriminator 2 view .LVU1412
ARM GAS  /var/folders/qx/2_175_4n2s19vhvtspjhb3qh0000gn/T//cc1Hh9yO.s 			page 121


 3896 0086 94F84F30 		ldrb	r3, [r4, #79]	@ zero_extendqisi2
 295:Drivers/lvgl/src/draw/sw/lv_draw_sw_img.c ****         radius_only(t, draw_dsc, decoder_dsc, img_coords,  clipped_img_area);
 3897              		.loc 1 295 36 discriminator 2 view .LVU1413
 3898 008a 022B     		cmp	r3, #2
 3899 008c 03D8     		bhi	.L186
 295:Drivers/lvgl/src/draw/sw/lv_draw_sw_img.c ****         radius_only(t, draw_dsc, decoder_dsc, img_coords,  clipped_img_area);
 3900              		.loc 1 295 86 discriminator 3 view .LVU1414
 3901 008e 636D     		ldr	r3, [r4, #84]
 295:Drivers/lvgl/src/draw/sw/lv_draw_sw_img.c ****         radius_only(t, draw_dsc, decoder_dsc, img_coords,  clipped_img_area);
 3902              		.loc 1 295 75 discriminator 3 view .LVU1415
 3903 0090 002B     		cmp	r3, #0
 3904 0092 00F0A080 		beq	.L200
 3905              	.L186:
 300:Drivers/lvgl/src/draw/sw/lv_draw_sw_img.c ****                                                   cf,               /* image format */
 3906              		.loc 1 300 10 is_stmt 1 view .LVU1416
 309:Drivers/lvgl/src/draw/sw/lv_draw_sw_img.c **** 
 3907              		.loc 1 309 9 view .LVU1417
 3908 0096 1F9B     		ldr	r3, [sp, #124]
 3909 0098 0193     		str	r3, [sp, #4]
 3910 009a 1E9B     		ldr	r3, [sp, #120]
 3911 009c 0093     		str	r3, [sp]
 3912 009e 029B     		ldr	r3, [sp, #8]
 3913 00a0 3246     		mov	r2, r6
 3914 00a2 2146     		mov	r1, r4
 3915 00a4 4046     		mov	r0, r8
 3916 00a6 FFF7FEFF 		bl	transform_and_recolor
 3917              	.LVL391:
 3918              	.L179:
 312:Drivers/lvgl/src/draw/sw/lv_draw_sw_img.c **** #if LV_DRAW_SW_COMPLEX
 3919              		.loc 1 312 1 is_stmt 0 view .LVU1418
 3920 00aa 15B0     		add	sp, sp, #84
 3921              	.LCFI27:
 3922              		.cfi_remember_state
 3923              		.cfi_def_cfa_offset 36
 3924              		@ sp needed
 3925 00ac BDE8F08F 		pop	{r4, r5, r6, r7, r8, r9, r10, fp, pc}
 3926              	.LVL392:
 3927              	.L195:
 3928              	.LCFI28:
 3929              		.cfi_restore_state
 240:Drivers/lvgl/src/draw/sw/lv_draw_sw_img.c ****         lv_area_t clipped_coords;
 3930              		.loc 1 240 32 discriminator 2 view .LVU1419
 3931 00b0 BBF10E0F 		cmp	fp, #14
 3932 00b4 DAD1     		bne	.L182
 3933              	.LBB129:
 241:Drivers/lvgl/src/draw/sw/lv_draw_sw_img.c ****         if(!lv_area_intersect(&clipped_coords, img_coords, &t->clip_area)) return;
 3934              		.loc 1 241 9 is_stmt 1 view .LVU1420
 242:Drivers/lvgl/src/draw/sw/lv_draw_sw_img.c **** 
 3935              		.loc 1 242 9 view .LVU1421
 242:Drivers/lvgl/src/draw/sw/lv_draw_sw_img.c **** 
 3936              		.loc 1 242 13 is_stmt 0 view .LVU1422
 3937 00b6 08F13802 		add	r2, r8, #56
 3938 00ba 1E99     		ldr	r1, [sp, #120]
 3939 00bc 05A8     		add	r0, sp, #20
 3940 00be FFF7FEFF 		bl	lv_area_intersect
 3941              	.LVL393:
 242:Drivers/lvgl/src/draw/sw/lv_draw_sw_img.c **** 
ARM GAS  /var/folders/qx/2_175_4n2s19vhvtspjhb3qh0000gn/T//cc1Hh9yO.s 			page 122


 3942              		.loc 1 242 11 discriminator 1 view .LVU1423
 3943 00c2 0028     		cmp	r0, #0
 3944 00c4 F1D0     		beq	.L179
 244:Drivers/lvgl/src/draw/sw/lv_draw_sw_img.c ****         blend_dsc.mask_area = img_coords;
 3945              		.loc 1 244 9 is_stmt 1 view .LVU1424
 244:Drivers/lvgl/src/draw/sw/lv_draw_sw_img.c ****         blend_dsc.mask_area = img_coords;
 3946              		.loc 1 244 28 is_stmt 0 view .LVU1425
 3947 00c6 039B     		ldr	r3, [sp, #12]
 3948 00c8 0F93     		str	r3, [sp, #60]
 245:Drivers/lvgl/src/draw/sw/lv_draw_sw_img.c ****         blend_dsc.mask_stride = img_stride;
 3949              		.loc 1 245 9 is_stmt 1 view .LVU1426
 245:Drivers/lvgl/src/draw/sw/lv_draw_sw_img.c ****         blend_dsc.mask_stride = img_stride;
 3950              		.loc 1 245 29 is_stmt 0 view .LVU1427
 3951 00ca 1E9B     		ldr	r3, [sp, #120]
 3952 00cc 1193     		str	r3, [sp, #68]
 246:Drivers/lvgl/src/draw/sw/lv_draw_sw_img.c ****         blend_dsc.src_buf = NULL;
 3953              		.loc 1 246 9 is_stmt 1 view .LVU1428
 246:Drivers/lvgl/src/draw/sw/lv_draw_sw_img.c ****         blend_dsc.src_buf = NULL;
 3954              		.loc 1 246 31 is_stmt 0 view .LVU1429
 3955 00ce CDF848A0 		str	r10, [sp, #72]
 247:Drivers/lvgl/src/draw/sw/lv_draw_sw_img.c ****         blend_dsc.color = draw_dsc->recolor;
 3956              		.loc 1 247 9 is_stmt 1 view .LVU1430
 247:Drivers/lvgl/src/draw/sw/lv_draw_sw_img.c ****         blend_dsc.color = draw_dsc->recolor;
 3957              		.loc 1 247 27 is_stmt 0 view .LVU1431
 3958 00d2 0023     		movs	r3, #0
 3959 00d4 0A93     		str	r3, [sp, #40]
 248:Drivers/lvgl/src/draw/sw/lv_draw_sw_img.c ****         blend_dsc.mask_res = LV_DRAW_SW_MASK_RES_CHANGED;
 3960              		.loc 1 248 9 is_stmt 1 view .LVU1432
 248:Drivers/lvgl/src/draw/sw/lv_draw_sw_img.c ****         blend_dsc.mask_res = LV_DRAW_SW_MASK_RES_CHANGED;
 3961              		.loc 1 248 25 is_stmt 0 view .LVU1433
 3962 00d6 B4F84C20 		ldrh	r2, [r4, #76]	@ unaligned
 3963 00da 94F84E30 		ldrb	r3, [r4, #78]	@ zero_extendqisi2
 3964 00de ADF83920 		strh	r2, [sp, #57]	@ unaligned
 3965 00e2 8DF83B30 		strb	r3, [sp, #59]
 249:Drivers/lvgl/src/draw/sw/lv_draw_sw_img.c **** 
 3966              		.loc 1 249 9 is_stmt 1 view .LVU1434
 249:Drivers/lvgl/src/draw/sw/lv_draw_sw_img.c **** 
 3967              		.loc 1 249 28 is_stmt 0 view .LVU1435
 3968 00e6 0223     		movs	r3, #2
 3969 00e8 8DF84030 		strb	r3, [sp, #64]
 251:Drivers/lvgl/src/draw/sw/lv_draw_sw_img.c ****         lv_draw_sw_blend(t, &blend_dsc);
 3970              		.loc 1 251 9 is_stmt 1 view .LVU1436
 251:Drivers/lvgl/src/draw/sw/lv_draw_sw_img.c ****         lv_draw_sw_blend(t, &blend_dsc);
 3971              		.loc 1 251 30 is_stmt 0 view .LVU1437
 3972 00ec 1E9B     		ldr	r3, [sp, #120]
 3973 00ee 0993     		str	r3, [sp, #36]
 252:Drivers/lvgl/src/draw/sw/lv_draw_sw_img.c ****     }
 3974              		.loc 1 252 9 is_stmt 1 view .LVU1438
 3975 00f0 09A9     		add	r1, sp, #36
 3976 00f2 4046     		mov	r0, r8
 3977 00f4 FFF7FEFF 		bl	lv_draw_sw_blend
 3978              	.LVL394:
 3979              	.LBE129:
 240:Drivers/lvgl/src/draw/sw/lv_draw_sw_img.c ****         lv_area_t clipped_coords;
 3980              		.loc 1 240 61 is_stmt 0 view .LVU1439
 3981 00f8 D7E7     		b	.L179
 3982              	.L196:
ARM GAS  /var/folders/qx/2_175_4n2s19vhvtspjhb3qh0000gn/T//cc1Hh9yO.s 			page 123


 254:Drivers/lvgl/src/draw/sw/lv_draw_sw_img.c ****             draw_dsc->colorkey == NULL) {
 3983              		.loc 1 254 37 discriminator 2 view .LVU1440
 3984 00fa BBF1140F 		cmp	fp, #20
 3985 00fe B7D1     		bne	.L181
 254:Drivers/lvgl/src/draw/sw/lv_draw_sw_img.c ****             draw_dsc->colorkey == NULL) {
 3986              		.loc 1 254 82 discriminator 3 view .LVU1441
 3987 0100 94F84F30 		ldrb	r3, [r4, #79]	@ zero_extendqisi2
 254:Drivers/lvgl/src/draw/sw/lv_draw_sw_img.c ****             draw_dsc->colorkey == NULL) {
 3988              		.loc 1 254 71 discriminator 3 view .LVU1442
 3989 0104 022B     		cmp	r3, #2
 3990 0106 B3D8     		bhi	.L181
 255:Drivers/lvgl/src/draw/sw/lv_draw_sw_img.c ****         int32_t src_h = lv_area_get_height(img_coords);
 3991              		.loc 1 255 21 view .LVU1443
 3992 0108 636D     		ldr	r3, [r4, #84]
 254:Drivers/lvgl/src/draw/sw/lv_draw_sw_img.c ****             draw_dsc->colorkey == NULL) {
 3993              		.loc 1 254 110 discriminator 4 view .LVU1444
 3994 010a 002B     		cmp	r3, #0
 3995 010c B0D1     		bne	.L181
 3996              	.LBB130:
 256:Drivers/lvgl/src/draw/sw/lv_draw_sw_img.c ****         int32_t src_w = lv_area_get_width(img_coords);
 3997              		.loc 1 256 9 is_stmt 1 view .LVU1445
 256:Drivers/lvgl/src/draw/sw/lv_draw_sw_img.c ****         int32_t src_w = lv_area_get_width(img_coords);
 3998              		.loc 1 256 25 is_stmt 0 view .LVU1446
 3999 010e 1E98     		ldr	r0, [sp, #120]
 4000 0110 FFF7FEFF 		bl	lv_area_get_height
 4001              	.LVL395:
 4002 0114 0446     		mov	r4, r0
 4003              	.LVL396:
 257:Drivers/lvgl/src/draw/sw/lv_draw_sw_img.c ****         blend_dsc.src_area = img_coords;
 4004              		.loc 1 257 9 is_stmt 1 view .LVU1447
 257:Drivers/lvgl/src/draw/sw/lv_draw_sw_img.c ****         blend_dsc.src_area = img_coords;
 4005              		.loc 1 257 25 is_stmt 0 view .LVU1448
 4006 0116 1E98     		ldr	r0, [sp, #120]
 4007              	.LVL397:
 257:Drivers/lvgl/src/draw/sw/lv_draw_sw_img.c ****         blend_dsc.src_area = img_coords;
 4008              		.loc 1 257 25 view .LVU1449
 4009 0118 FFF7FEFF 		bl	lv_area_get_width
 4010              	.LVL398:
 258:Drivers/lvgl/src/draw/sw/lv_draw_sw_img.c ****         blend_dsc.src_buf = src_buf;
 4011              		.loc 1 258 9 is_stmt 1 view .LVU1450
 258:Drivers/lvgl/src/draw/sw/lv_draw_sw_img.c ****         blend_dsc.src_buf = src_buf;
 4012              		.loc 1 258 28 is_stmt 0 view .LVU1451
 4013 011c 1E9B     		ldr	r3, [sp, #120]
 4014 011e 0D93     		str	r3, [sp, #52]
 259:Drivers/lvgl/src/draw/sw/lv_draw_sw_img.c ****         blend_dsc.mask_buf = (lv_opa_t *)src_buf;
 4015              		.loc 1 259 9 is_stmt 1 view .LVU1452
 259:Drivers/lvgl/src/draw/sw/lv_draw_sw_img.c ****         blend_dsc.mask_buf = (lv_opa_t *)src_buf;
 4016              		.loc 1 259 27 is_stmt 0 view .LVU1453
 4017 0120 0399     		ldr	r1, [sp, #12]
 4018 0122 0A91     		str	r1, [sp, #40]
 260:Drivers/lvgl/src/draw/sw/lv_draw_sw_img.c ****         blend_dsc.mask_buf += img_stride * src_w / header->w * src_h;
 4019              		.loc 1 260 9 is_stmt 1 view .LVU1454
 260:Drivers/lvgl/src/draw/sw/lv_draw_sw_img.c ****         blend_dsc.mask_buf += img_stride * src_w / header->w * src_h;
 4020              		.loc 1 260 28 is_stmt 0 view .LVU1455
 4021 0124 0F91     		str	r1, [sp, #60]
 261:Drivers/lvgl/src/draw/sw/lv_draw_sw_img.c ****         /**
 4022              		.loc 1 261 9 is_stmt 1 view .LVU1456
ARM GAS  /var/folders/qx/2_175_4n2s19vhvtspjhb3qh0000gn/T//cc1Hh9yO.s 			page 124


 261:Drivers/lvgl/src/draw/sw/lv_draw_sw_img.c ****         /**
 4023              		.loc 1 261 42 is_stmt 0 view .LVU1457
 4024 0126 0AFB00F3 		mul	r3, r10, r0
 261:Drivers/lvgl/src/draw/sw/lv_draw_sw_img.c ****         /**
 4025              		.loc 1 261 58 view .LVU1458
 4026 012a B9F80420 		ldrh	r2, [r9, #4]
 261:Drivers/lvgl/src/draw/sw/lv_draw_sw_img.c ****         /**
 4027              		.loc 1 261 50 view .LVU1459
 4028 012e B3FBF2F3 		udiv	r3, r3, r2
 261:Drivers/lvgl/src/draw/sw/lv_draw_sw_img.c ****         /**
 4029              		.loc 1 261 28 view .LVU1460
 4030 0132 03FB0414 		mla	r4, r3, r4, r1
 4031              	.LVL399:
 261:Drivers/lvgl/src/draw/sw/lv_draw_sw_img.c ****         /**
 4032              		.loc 1 261 28 view .LVU1461
 4033 0136 0F94     		str	r4, [sp, #60]
 267:Drivers/lvgl/src/draw/sw/lv_draw_sw_img.c ****         blend_dsc.blend_area = img_coords;
 4034              		.loc 1 267 9 is_stmt 1 view .LVU1462
 267:Drivers/lvgl/src/draw/sw/lv_draw_sw_img.c ****         blend_dsc.blend_area = img_coords;
 4035              		.loc 1 267 44 is_stmt 0 view .LVU1463
 4036 0138 4FEA5A03 		lsr	r3, r10, #1
 267:Drivers/lvgl/src/draw/sw/lv_draw_sw_img.c ****         blend_dsc.blend_area = img_coords;
 4037              		.loc 1 267 31 view .LVU1464
 4038 013c 1293     		str	r3, [sp, #72]
 268:Drivers/lvgl/src/draw/sw/lv_draw_sw_img.c ****         blend_dsc.mask_area = img_coords;
 4039              		.loc 1 268 9 is_stmt 1 view .LVU1465
 268:Drivers/lvgl/src/draw/sw/lv_draw_sw_img.c ****         blend_dsc.mask_area = img_coords;
 4040              		.loc 1 268 30 is_stmt 0 view .LVU1466
 4041 013e 1E9B     		ldr	r3, [sp, #120]
 4042 0140 0993     		str	r3, [sp, #36]
 269:Drivers/lvgl/src/draw/sw/lv_draw_sw_img.c ****         blend_dsc.mask_res = LV_DRAW_SW_MASK_RES_CHANGED;
 4043              		.loc 1 269 9 is_stmt 1 view .LVU1467
 269:Drivers/lvgl/src/draw/sw/lv_draw_sw_img.c ****         blend_dsc.mask_res = LV_DRAW_SW_MASK_RES_CHANGED;
 4044              		.loc 1 269 29 is_stmt 0 view .LVU1468
 4045 0142 1193     		str	r3, [sp, #68]
 270:Drivers/lvgl/src/draw/sw/lv_draw_sw_img.c ****         blend_dsc.src_color_format = LV_COLOR_FORMAT_RGB565;
 4046              		.loc 1 270 9 is_stmt 1 view .LVU1469
 270:Drivers/lvgl/src/draw/sw/lv_draw_sw_img.c ****         blend_dsc.src_color_format = LV_COLOR_FORMAT_RGB565;
 4047              		.loc 1 270 28 is_stmt 0 view .LVU1470
 4048 0144 0223     		movs	r3, #2
 4049 0146 8DF84030 		strb	r3, [sp, #64]
 271:Drivers/lvgl/src/draw/sw/lv_draw_sw_img.c ****         lv_draw_sw_blend(t, &blend_dsc);
 4050              		.loc 1 271 9 is_stmt 1 view .LVU1471
 271:Drivers/lvgl/src/draw/sw/lv_draw_sw_img.c ****         lv_draw_sw_blend(t, &blend_dsc);
 4051              		.loc 1 271 36 is_stmt 0 view .LVU1472
 4052 014a 1223     		movs	r3, #18
 4053 014c 8DF83030 		strb	r3, [sp, #48]
 272:Drivers/lvgl/src/draw/sw/lv_draw_sw_img.c ****     }
 4054              		.loc 1 272 9 is_stmt 1 view .LVU1473
 4055 0150 09A9     		add	r1, sp, #36
 4056 0152 4046     		mov	r0, r8
 4057              	.LVL400:
 272:Drivers/lvgl/src/draw/sw/lv_draw_sw_img.c ****     }
 4058              		.loc 1 272 9 is_stmt 0 view .LVU1474
 4059 0154 FFF7FEFF 		bl	lv_draw_sw_blend
 4060              	.LVL401:
 4061              	.LBE130:
ARM GAS  /var/folders/qx/2_175_4n2s19vhvtspjhb3qh0000gn/T//cc1Hh9yO.s 			page 125


 255:Drivers/lvgl/src/draw/sw/lv_draw_sw_img.c ****         int32_t src_h = lv_area_get_height(img_coords);
 4062              		.loc 1 255 41 view .LVU1475
 4063 0158 A7E7     		b	.L179
 4064              	.LVL402:
 4065              	.L197:
 274:Drivers/lvgl/src/draw/sw/lv_draw_sw_img.c ****             draw_dsc->colorkey == NULL) {
 4066              		.loc 1 274 37 discriminator 2 view .LVU1476
 4067 015a BBF1060F 		cmp	fp, #6
 4068 015e 02D0     		beq	.L188
 274:Drivers/lvgl/src/draw/sw/lv_draw_sw_img.c ****             draw_dsc->colorkey == NULL) {
 4069              		.loc 1 274 66 discriminator 4 view .LVU1477
 4070 0160 BBF1150F 		cmp	fp, #21
 4071 0164 87D1     		bne	.L187
 4072              	.L188:
 275:Drivers/lvgl/src/draw/sw/lv_draw_sw_img.c ****         blend_dsc.src_area = img_coords;
 4073              		.loc 1 275 21 view .LVU1478
 4074 0166 636D     		ldr	r3, [r4, #84]
 274:Drivers/lvgl/src/draw/sw/lv_draw_sw_img.c ****             draw_dsc->colorkey == NULL) {
 4075              		.loc 1 274 97 discriminator 5 view .LVU1479
 4076 0168 002B     		cmp	r3, #0
 4077 016a 84D1     		bne	.L187
 276:Drivers/lvgl/src/draw/sw/lv_draw_sw_img.c ****         blend_dsc.src_buf = src_buf;
 4078              		.loc 1 276 9 is_stmt 1 view .LVU1480
 276:Drivers/lvgl/src/draw/sw/lv_draw_sw_img.c ****         blend_dsc.src_buf = src_buf;
 4079              		.loc 1 276 28 is_stmt 0 view .LVU1481
 4080 016c 1E9B     		ldr	r3, [sp, #120]
 4081 016e 0D93     		str	r3, [sp, #52]
 277:Drivers/lvgl/src/draw/sw/lv_draw_sw_img.c ****         blend_dsc.blend_area = img_coords;
 4082              		.loc 1 277 9 is_stmt 1 view .LVU1482
 277:Drivers/lvgl/src/draw/sw/lv_draw_sw_img.c ****         blend_dsc.blend_area = img_coords;
 4083              		.loc 1 277 27 is_stmt 0 view .LVU1483
 4084 0170 039B     		ldr	r3, [sp, #12]
 4085 0172 0A93     		str	r3, [sp, #40]
 278:Drivers/lvgl/src/draw/sw/lv_draw_sw_img.c ****         blend_dsc.src_color_format = cf;
 4086              		.loc 1 278 9 is_stmt 1 view .LVU1484
 278:Drivers/lvgl/src/draw/sw/lv_draw_sw_img.c ****         blend_dsc.src_color_format = cf;
 4087              		.loc 1 278 30 is_stmt 0 view .LVU1485
 4088 0174 1E9B     		ldr	r3, [sp, #120]
 4089 0176 0993     		str	r3, [sp, #36]
 279:Drivers/lvgl/src/draw/sw/lv_draw_sw_img.c ****         lv_draw_sw_blend(t, &blend_dsc);
 4090              		.loc 1 279 9 is_stmt 1 view .LVU1486
 279:Drivers/lvgl/src/draw/sw/lv_draw_sw_img.c ****         lv_draw_sw_blend(t, &blend_dsc);
 4091              		.loc 1 279 36 is_stmt 0 view .LVU1487
 4092 0178 8DF830B0 		strb	fp, [sp, #48]
 280:Drivers/lvgl/src/draw/sw/lv_draw_sw_img.c ****     }
 4093              		.loc 1 280 9 is_stmt 1 view .LVU1488
 4094 017c 09A9     		add	r1, sp, #36
 4095 017e 4046     		mov	r0, r8
 4096 0180 FFF7FEFF 		bl	lv_draw_sw_blend
 4097              	.LVL403:
 4098 0184 91E7     		b	.L179
 4099              	.L198:
 283:Drivers/lvgl/src/draw/sw/lv_draw_sw_img.c ****         blend_dsc.src_area = img_coords;
 4100              		.loc 1 283 48 is_stmt 0 discriminator 2 view .LVU1489
 4101 0186 94F84F30 		ldrb	r3, [r4, #79]	@ zero_extendqisi2
 283:Drivers/lvgl/src/draw/sw/lv_draw_sw_img.c ****         blend_dsc.src_area = img_coords;
 4102              		.loc 1 283 37 discriminator 2 view .LVU1490
ARM GAS  /var/folders/qx/2_175_4n2s19vhvtspjhb3qh0000gn/T//cc1Hh9yO.s 			page 126


 4103 018a 022B     		cmp	r3, #2
 4104 018c 3FF676AF 		bhi	.L189
 283:Drivers/lvgl/src/draw/sw/lv_draw_sw_img.c ****         blend_dsc.src_area = img_coords;
 4105              		.loc 1 283 87 discriminator 3 view .LVU1491
 4106 0190 636D     		ldr	r3, [r4, #84]
 283:Drivers/lvgl/src/draw/sw/lv_draw_sw_img.c ****         blend_dsc.src_area = img_coords;
 4107              		.loc 1 283 76 discriminator 3 view .LVU1492
 4108 0192 002B     		cmp	r3, #0
 4109 0194 7FF472AF 		bne	.L189
 284:Drivers/lvgl/src/draw/sw/lv_draw_sw_img.c ****         blend_dsc.src_buf = src_buf;
 4110              		.loc 1 284 9 is_stmt 1 view .LVU1493
 284:Drivers/lvgl/src/draw/sw/lv_draw_sw_img.c ****         blend_dsc.src_buf = src_buf;
 4111              		.loc 1 284 28 is_stmt 0 view .LVU1494
 4112 0198 1E9B     		ldr	r3, [sp, #120]
 4113 019a 0D93     		str	r3, [sp, #52]
 285:Drivers/lvgl/src/draw/sw/lv_draw_sw_img.c ****         blend_dsc.blend_area = img_coords;
 4114              		.loc 1 285 9 is_stmt 1 view .LVU1495
 285:Drivers/lvgl/src/draw/sw/lv_draw_sw_img.c ****         blend_dsc.blend_area = img_coords;
 4115              		.loc 1 285 27 is_stmt 0 view .LVU1496
 4116 019c 039B     		ldr	r3, [sp, #12]
 4117 019e 0A93     		str	r3, [sp, #40]
 286:Drivers/lvgl/src/draw/sw/lv_draw_sw_img.c ****         blend_dsc.src_color_format = cf;
 4118              		.loc 1 286 9 is_stmt 1 view .LVU1497
 286:Drivers/lvgl/src/draw/sw/lv_draw_sw_img.c ****         blend_dsc.src_color_format = cf;
 4119              		.loc 1 286 30 is_stmt 0 view .LVU1498
 4120 01a0 1E9B     		ldr	r3, [sp, #120]
 4121 01a2 0993     		str	r3, [sp, #36]
 287:Drivers/lvgl/src/draw/sw/lv_draw_sw_img.c ****         lv_draw_sw_blend(t, &blend_dsc);
 4122              		.loc 1 287 9 is_stmt 1 view .LVU1499
 287:Drivers/lvgl/src/draw/sw/lv_draw_sw_img.c ****         lv_draw_sw_blend(t, &blend_dsc);
 4123              		.loc 1 287 36 is_stmt 0 view .LVU1500
 4124 01a4 8DF830B0 		strb	fp, [sp, #48]
 288:Drivers/lvgl/src/draw/sw/lv_draw_sw_img.c ****     }
 4125              		.loc 1 288 9 is_stmt 1 view .LVU1501
 4126 01a8 09A9     		add	r1, sp, #36
 4127 01aa 4046     		mov	r0, r8
 4128 01ac FFF7FEFF 		bl	lv_draw_sw_blend
 4129              	.LVL404:
 4130 01b0 7BE7     		b	.L179
 4131              	.L199:
 290:Drivers/lvgl/src/draw/sw/lv_draw_sw_img.c ****         recolor_only(t, draw_dsc, decoder_dsc, img_coords,  clipped_img_area);
 4132              		.loc 1 290 48 is_stmt 0 discriminator 2 view .LVU1502
 4133 01b2 94F84F30 		ldrb	r3, [r4, #79]	@ zero_extendqisi2
 290:Drivers/lvgl/src/draw/sw/lv_draw_sw_img.c ****         recolor_only(t, draw_dsc, decoder_dsc, img_coords,  clipped_img_area);
 4134              		.loc 1 290 37 discriminator 2 view .LVU1503
 4135 01b6 022B     		cmp	r3, #2
 4136 01b8 7FF663AF 		bls	.L190
 290:Drivers/lvgl/src/draw/sw/lv_draw_sw_img.c ****         recolor_only(t, draw_dsc, decoder_dsc, img_coords,  clipped_img_area);
 4137              		.loc 1 290 86 discriminator 3 view .LVU1504
 4138 01bc 636D     		ldr	r3, [r4, #84]
 290:Drivers/lvgl/src/draw/sw/lv_draw_sw_img.c ****         recolor_only(t, draw_dsc, decoder_dsc, img_coords,  clipped_img_area);
 4139              		.loc 1 290 75 discriminator 3 view .LVU1505
 4140 01be 002B     		cmp	r3, #0
 4141 01c0 7FF45FAF 		bne	.L190
 291:Drivers/lvgl/src/draw/sw/lv_draw_sw_img.c ****     }
 4142              		.loc 1 291 9 is_stmt 1 view .LVU1506
 4143 01c4 1F9B     		ldr	r3, [sp, #124]
ARM GAS  /var/folders/qx/2_175_4n2s19vhvtspjhb3qh0000gn/T//cc1Hh9yO.s 			page 127


 4144 01c6 0093     		str	r3, [sp]
 4145 01c8 1E9B     		ldr	r3, [sp, #120]
 4146 01ca 3246     		mov	r2, r6
 4147 01cc 2146     		mov	r1, r4
 4148 01ce 4046     		mov	r0, r8
 4149 01d0 FFF7FEFF 		bl	recolor_only
 4150              	.LVL405:
 4151 01d4 69E7     		b	.L179
 4152              	.L200:
 296:Drivers/lvgl/src/draw/sw/lv_draw_sw_img.c ****     }
 4153              		.loc 1 296 9 view .LVU1507
 4154 01d6 1F9B     		ldr	r3, [sp, #124]
 4155 01d8 0093     		str	r3, [sp]
 4156 01da 1E9B     		ldr	r3, [sp, #120]
 4157 01dc 3246     		mov	r2, r6
 4158 01de 2146     		mov	r1, r4
 4159 01e0 4046     		mov	r0, r8
 4160 01e2 FFF7FEFF 		bl	radius_only
 4161              	.LVL406:
 4162 01e6 60E7     		b	.L179
 4163              		.cfi_endproc
 4164              	.LFE195:
 4166              		.section	.text.lv_draw_sw_image,"ax",%progbits
 4167              		.align	1
 4168              		.global	lv_draw_sw_image
 4169              		.syntax unified
 4170              		.thumb
 4171              		.thumb_func
 4173              	lv_draw_sw_image:
 4174              	.LVL407:
 4175              	.LFB194:
 206:Drivers/lvgl/src/draw/sw/lv_draw_sw_img.c ****     if(!draw_dsc->tile) {
 4176              		.loc 1 206 1 view -0
 4177              		.cfi_startproc
 4178              		@ args = 0, pretend = 0, frame = 0
 4179              		@ frame_needed = 0, uses_anonymous_args = 0
 206:Drivers/lvgl/src/draw/sw/lv_draw_sw_img.c ****     if(!draw_dsc->tile) {
 4180              		.loc 1 206 1 is_stmt 0 view .LVU1509
 4181 0000 08B5     		push	{r3, lr}
 4182              	.LCFI29:
 4183              		.cfi_def_cfa_offset 8
 4184              		.cfi_offset 3, -8
 4185              		.cfi_offset 14, -4
 207:Drivers/lvgl/src/draw/sw/lv_draw_sw_img.c ****         lv_draw_image_normal_helper(t, draw_dsc, coords, img_draw_core);
 4186              		.loc 1 207 5 is_stmt 1 view .LVU1510
 207:Drivers/lvgl/src/draw/sw/lv_draw_sw_img.c ****         lv_draw_image_normal_helper(t, draw_dsc, coords, img_draw_core);
 4187              		.loc 1 207 8 is_stmt 0 view .LVU1511
 4188 0002 91F85130 		ldrb	r3, [r1, #81]	@ zero_extendqisi2
 207:Drivers/lvgl/src/draw/sw/lv_draw_sw_img.c ****         lv_draw_image_normal_helper(t, draw_dsc, coords, img_draw_core);
 4189              		.loc 1 207 7 view .LVU1512
 4190 0006 13F0200F 		tst	r3, #32
 4191 000a 03D1     		bne	.L202
 208:Drivers/lvgl/src/draw/sw/lv_draw_sw_img.c ****     }
 4192              		.loc 1 208 9 is_stmt 1 view .LVU1513
 4193 000c 034B     		ldr	r3, .L205
 4194 000e FFF7FEFF 		bl	lv_draw_image_normal_helper
 4195              	.LVL408:
ARM GAS  /var/folders/qx/2_175_4n2s19vhvtspjhb3qh0000gn/T//cc1Hh9yO.s 			page 128


 4196              	.L201:
 213:Drivers/lvgl/src/draw/sw/lv_draw_sw_img.c **** 
 4197              		.loc 1 213 1 is_stmt 0 view .LVU1514
 4198 0012 08BD     		pop	{r3, pc}
 4199              	.LVL409:
 4200              	.L202:
 211:Drivers/lvgl/src/draw/sw/lv_draw_sw_img.c ****     }
 4201              		.loc 1 211 9 is_stmt 1 view .LVU1515
 4202 0014 014B     		ldr	r3, .L205
 4203 0016 FFF7FEFF 		bl	lv_draw_image_tiled_helper
 4204              	.LVL410:
 213:Drivers/lvgl/src/draw/sw/lv_draw_sw_img.c **** 
 4205              		.loc 1 213 1 is_stmt 0 view .LVU1516
 4206 001a FAE7     		b	.L201
 4207              	.L206:
 4208              		.align	2
 4209              	.L205:
 4210 001c 00000000 		.word	img_draw_core
 4211              		.cfi_endproc
 4212              	.LFE194:
 4214              		.section	.text.lv_draw_sw_layer,"ax",%progbits
 4215              		.align	1
 4216              		.global	lv_draw_sw_layer
 4217              		.syntax unified
 4218              		.thumb
 4219              		.thumb_func
 4221              	lv_draw_sw_layer:
 4222              	.LVL411:
 4223              	.LFB193:
 108:Drivers/lvgl/src/draw/sw/lv_draw_sw_img.c ****     lv_layer_t * layer_to_draw = (lv_layer_t *)draw_dsc->src;
 4224              		.loc 1 108 1 is_stmt 1 view -0
 4225              		.cfi_startproc
 4226              		@ args = 0, pretend = 0, frame = 112
 4227              		@ frame_needed = 0, uses_anonymous_args = 0
 108:Drivers/lvgl/src/draw/sw/lv_draw_sw_img.c ****     lv_layer_t * layer_to_draw = (lv_layer_t *)draw_dsc->src;
 4228              		.loc 1 108 1 is_stmt 0 view .LVU1518
 4229 0000 2DE9F041 		push	{r4, r5, r6, r7, r8, lr}
 4230              	.LCFI30:
 4231              		.cfi_def_cfa_offset 24
 4232              		.cfi_offset 4, -24
 4233              		.cfi_offset 5, -20
 4234              		.cfi_offset 6, -16
 4235              		.cfi_offset 7, -12
 4236              		.cfi_offset 8, -8
 4237              		.cfi_offset 14, -4
 4238 0004 9CB0     		sub	sp, sp, #112
 4239              	.LCFI31:
 4240              		.cfi_def_cfa_offset 136
 109:Drivers/lvgl/src/draw/sw/lv_draw_sw_img.c **** 
 4241              		.loc 1 109 5 is_stmt 1 view .LVU1519
 109:Drivers/lvgl/src/draw/sw/lv_draw_sw_img.c **** 
 4242              		.loc 1 109 18 is_stmt 0 view .LVU1520
 4243 0006 CD69     		ldr	r5, [r1, #28]
 4244              	.LVL412:
 113:Drivers/lvgl/src/draw/sw/lv_draw_sw_img.c **** 
 4245              		.loc 1 113 5 is_stmt 1 view .LVU1521
 113:Drivers/lvgl/src/draw/sw/lv_draw_sw_img.c **** 
ARM GAS  /var/folders/qx/2_175_4n2s19vhvtspjhb3qh0000gn/T//cc1Hh9yO.s 			page 129


 4246              		.loc 1 113 21 is_stmt 0 view .LVU1522
 4247 0008 2B68     		ldr	r3, [r5]
 113:Drivers/lvgl/src/draw/sw/lv_draw_sw_img.c **** 
 4248              		.loc 1 113 7 view .LVU1523
 4249 000a A3B1     		cbz	r3, .L207
 4250 000c 0746     		mov	r7, r0
 4251 000e 0C46     		mov	r4, r1
 4252 0010 1646     		mov	r6, r2
 115:Drivers/lvgl/src/draw/sw/lv_draw_sw_img.c ****         bool visible = apply_mask(draw_dsc);
 4253              		.loc 1 115 5 is_stmt 1 view .LVU1524
 115:Drivers/lvgl/src/draw/sw/lv_draw_sw_img.c ****         bool visible = apply_mask(draw_dsc);
 4254              		.loc 1 115 16 is_stmt 0 view .LVU1525
 4255 0012 CB6E     		ldr	r3, [r1, #108]
 115:Drivers/lvgl/src/draw/sw/lv_draw_sw_img.c ****         bool visible = apply_mask(draw_dsc);
 4256              		.loc 1 115 7 view .LVU1526
 4257 0014 1BB1     		cbz	r3, .L209
 4258              	.LBB131:
 116:Drivers/lvgl/src/draw/sw/lv_draw_sw_img.c ****         if(!visible) return;
 4259              		.loc 1 116 9 is_stmt 1 view .LVU1527
 116:Drivers/lvgl/src/draw/sw/lv_draw_sw_img.c ****         if(!visible) return;
 4260              		.loc 1 116 24 is_stmt 0 view .LVU1528
 4261 0016 0846     		mov	r0, r1
 4262              	.LVL413:
 116:Drivers/lvgl/src/draw/sw/lv_draw_sw_img.c ****         if(!visible) return;
 4263              		.loc 1 116 24 view .LVU1529
 4264 0018 FFF7FEFF 		bl	apply_mask
 4265              	.LVL414:
 117:Drivers/lvgl/src/draw/sw/lv_draw_sw_img.c ****     }
 4266              		.loc 1 117 9 is_stmt 1 view .LVU1530
 117:Drivers/lvgl/src/draw/sw/lv_draw_sw_img.c ****     }
 4267              		.loc 1 117 11 is_stmt 0 view .LVU1531
 4268 001c 58B1     		cbz	r0, .L207
 4269              	.LVL415:
 4270              	.L209:
 117:Drivers/lvgl/src/draw/sw/lv_draw_sw_img.c ****     }
 4271              		.loc 1 117 11 view .LVU1532
 4272              	.LBE131:
 121:Drivers/lvgl/src/draw/sw/lv_draw_sw_img.c ****     new_draw_dsc.src = layer_to_draw->draw_buf;
 4273              		.loc 1 121 5 is_stmt 1 view .LVU1533
 121:Drivers/lvgl/src/draw/sw/lv_draw_sw_img.c ****     new_draw_dsc.src = layer_to_draw->draw_buf;
 4274              		.loc 1 121 25 is_stmt 0 view .LVU1534
 4275 001e 7022     		movs	r2, #112
 4276 0020 2146     		mov	r1, r4
 4277 0022 6846     		mov	r0, sp
 4278 0024 FFF7FEFF 		bl	memcpy
 4279              	.LVL416:
 122:Drivers/lvgl/src/draw/sw/lv_draw_sw_img.c **** 
 4280              		.loc 1 122 5 is_stmt 1 view .LVU1535
 122:Drivers/lvgl/src/draw/sw/lv_draw_sw_img.c **** 
 4281              		.loc 1 122 37 is_stmt 0 view .LVU1536
 4282 0028 2B68     		ldr	r3, [r5]
 122:Drivers/lvgl/src/draw/sw/lv_draw_sw_img.c **** 
 4283              		.loc 1 122 22 view .LVU1537
 4284 002a 0793     		str	r3, [sp, #28]
 124:Drivers/lvgl/src/draw/sw/lv_draw_sw_img.c **** 
 4285              		.loc 1 124 5 is_stmt 1 view .LVU1538
 4286 002c 3246     		mov	r2, r6
ARM GAS  /var/folders/qx/2_175_4n2s19vhvtspjhb3qh0000gn/T//cc1Hh9yO.s 			page 130


 4287 002e 6946     		mov	r1, sp
 4288 0030 3846     		mov	r0, r7
 4289 0032 FFF7FEFF 		bl	lv_draw_sw_image
 4290              	.LVL417:
 4291              	.L207:
 202:Drivers/lvgl/src/draw/sw/lv_draw_sw_img.c **** 
 4292              		.loc 1 202 1 is_stmt 0 view .LVU1539
 4293 0036 1CB0     		add	sp, sp, #112
 4294              	.LCFI32:
 4295              		.cfi_def_cfa_offset 24
 4296              		@ sp needed
 4297 0038 BDE8F081 		pop	{r4, r5, r6, r7, r8, pc}
 202:Drivers/lvgl/src/draw/sw/lv_draw_sw_img.c **** 
 4298              		.loc 1 202 1 view .LVU1540
 4299              		.cfi_endproc
 4300              	.LFE193:
 4302              		.text
 4303              	.Letext0:
 4304              		.file 5 "/Applications/ArmGNUToolchain/14.3.rel1/arm-none-eabi/arm-none-eabi/include/machine/_defa
 4305              		.file 6 "/Applications/ArmGNUToolchain/14.3.rel1/arm-none-eabi/arm-none-eabi/include/sys/_stdint.h
 4306              		.file 7 "/Applications/ArmGNUToolchain/14.3.rel1/arm-none-eabi/lib/gcc/arm-none-eabi/14.3.1/includ
 4307              		.file 8 "Drivers/lvgl/src/draw/sw/../../misc/lv_types.h"
 4308              		.file 9 "Drivers/lvgl/src/draw/sw/../../display/lv_display_private.h"
 4309              		.file 10 "Drivers/lvgl/src/draw/sw/../lv_draw.h"
 4310              		.file 11 "Drivers/lvgl/src/draw/sw/../lv_draw_private.h"
 4311              		.file 12 "Drivers/lvgl/src/draw/sw/../../core/../misc/lv_timer_private.h"
 4312              		.file 13 "Drivers/lvgl/src/draw/sw/../lv_image_decoder_private.h"
 4313              		.file 14 "Drivers/lvgl/src/draw/sw/../lv_draw_image.h"
 4314              		.file 15 "Drivers/lvgl/src/draw/sw/../../misc/cache/class/../lv_cache_private.h"
 4315              		.file 16 "Drivers/lvgl/src/draw/sw/../lv_draw_image_private.h"
 4316              		.file 17 "Drivers/lvgl/src/draw/sw/../../core/../draw/sw/lv_draw_sw_mask_private.h"
 4317              		.file 18 "Drivers/lvgl/src/draw/sw/blend/lv_draw_sw_blend_private.h"
 4318              		.file 19 "Drivers/lvgl/src/draw/sw/../../core/../draw/lv_draw_buf_private.h"
 4319              		.file 20 "Drivers/lvgl/src/draw/sw/../../misc/lv_array.h"
 4320              		.file 21 "Drivers/lvgl/src/draw/sw/blend/../../../misc/../font/../draw/lv_draw_buf.h"
 4321              		.file 22 "Drivers/lvgl/src/draw/sw/blend/../lv_draw_sw_mask.h"
 4322              		.file 23 "Drivers/lvgl/src/draw/sw/blend/../../../misc/../font/../draw/lv_image_dsc.h"
 4323              		.file 24 "Drivers/lvgl/src/draw/sw/blend/../../../misc/lv_ll.h"
 4324              		.file 25 "Drivers/lvgl/src/draw/sw/blend/../../../misc/lv_timer.h"
 4325              		.file 26 "Drivers/lvgl/src/draw/sw/blend/../../../misc/lv_style.h"
 4326              		.file 27 "Drivers/lvgl/src/draw/sw/../../misc/lv_fs.h"
 4327              		.file 28 "Drivers/lvgl/src/draw/sw/../lv_image_decoder.h"
 4328              		.file 29 "Drivers/lvgl/src/draw/sw/../../misc/cache/class/../../../osal/lv_os_none.h"
 4329              		.file 30 "Drivers/lvgl/src/draw/sw/../../misc/lv_event.h"
 4330              		.file 31 "Drivers/lvgl/src/draw/sw/../../display/lv_display.h"
 4331              		.file 32 "Drivers/lvgl/src/draw/sw/lv_draw_sw.h"
 4332              		.file 33 "Drivers/lvgl/src/draw/sw/blend/../../../misc/../stdlib/lv_mem.h"
 4333              		.file 34 "Drivers/lvgl/src/draw/sw/blend/lv_draw_sw_blend.h"
 4334              		.file 35 "Drivers/lvgl/src/draw/sw/../../misc/lv_area_private.h"
 4335              		.file 36 "Drivers/lvgl/src/draw/sw/../../core/lv_refr_private.h"
 4336              		.file 37 "<built-in>"
ARM GAS  /var/folders/qx/2_175_4n2s19vhvtspjhb3qh0000gn/T//cc1Hh9yO.s 			page 131


DEFINED SYMBOLS
                            *ABS*:00000000 lv_draw_sw_img.c
/var/folders/qx/2_175_4n2s19vhvtspjhb3qh0000gn/T//cc1Hh9yO.s:21     .text.lv_color_is_in_range:00000000 $t
/var/folders/qx/2_175_4n2s19vhvtspjhb3qh0000gn/T//cc1Hh9yO.s:26     .text.lv_color_is_in_range:00000000 lv_color_is_in_range
/var/folders/qx/2_175_4n2s19vhvtspjhb3qh0000gn/T//cc1Hh9yO.s:113    .text.apply_mask:00000000 $t
/var/folders/qx/2_175_4n2s19vhvtspjhb3qh0000gn/T//cc1Hh9yO.s:118    .text.apply_mask:00000000 apply_mask
/var/folders/qx/2_175_4n2s19vhvtspjhb3qh0000gn/T//cc1Hh9yO.s:509    .text.recolor:00000000 $t
/var/folders/qx/2_175_4n2s19vhvtspjhb3qh0000gn/T//cc1Hh9yO.s:514    .text.recolor:00000000 recolor
/var/folders/qx/2_175_4n2s19vhvtspjhb3qh0000gn/T//cc1Hh9yO.s:579    .text.recolor:0000004c $d
/var/folders/qx/2_175_4n2s19vhvtspjhb3qh0000gn/T//cc1Hh9yO.s:592    .text.recolor:00000066 $t
/var/folders/qx/2_175_4n2s19vhvtspjhb3qh0000gn/T//cc1Hh9yO.s:1409   .text.recolor_only:00000000 $t
/var/folders/qx/2_175_4n2s19vhvtspjhb3qh0000gn/T//cc1Hh9yO.s:1414   .text.recolor_only:00000000 recolor_only
/var/folders/qx/2_175_4n2s19vhvtspjhb3qh0000gn/T//cc1Hh9yO.s:1776   .text.radius_only:00000000 $t
/var/folders/qx/2_175_4n2s19vhvtspjhb3qh0000gn/T//cc1Hh9yO.s:1781   .text.radius_only:00000000 radius_only
/var/folders/qx/2_175_4n2s19vhvtspjhb3qh0000gn/T//cc1Hh9yO.s:2133   .text.lv_color16_to_color:00000000 $t
/var/folders/qx/2_175_4n2s19vhvtspjhb3qh0000gn/T//cc1Hh9yO.s:2138   .text.lv_color16_to_color:00000000 lv_color16_to_color
/var/folders/qx/2_175_4n2s19vhvtspjhb3qh0000gn/T//cc1Hh9yO.s:2191   .text.colorkey_and_recolor:00000000 $t
/var/folders/qx/2_175_4n2s19vhvtspjhb3qh0000gn/T//cc1Hh9yO.s:2196   .text.colorkey_and_recolor:00000000 colorkey_and_recolor
/var/folders/qx/2_175_4n2s19vhvtspjhb3qh0000gn/T//cc1Hh9yO.s:2279   .text.colorkey_and_recolor:00000068 $d
/var/folders/qx/2_175_4n2s19vhvtspjhb3qh0000gn/T//cc1Hh9yO.s:2291   .text.colorkey_and_recolor:00000080 $t
/var/folders/qx/2_175_4n2s19vhvtspjhb3qh0000gn/T//cc1Hh9yO.s:3096   .text.transform_and_recolor:00000000 $t
/var/folders/qx/2_175_4n2s19vhvtspjhb3qh0000gn/T//cc1Hh9yO.s:3101   .text.transform_and_recolor:00000000 transform_and_recolor
/var/folders/qx/2_175_4n2s19vhvtspjhb3qh0000gn/T//cc1Hh9yO.s:3263   .text.transform_and_recolor:000000a8 $d
/var/folders/qx/2_175_4n2s19vhvtspjhb3qh0000gn/T//cc1Hh9yO.s:3285   .text.transform_and_recolor:000000be $t
/var/folders/qx/2_175_4n2s19vhvtspjhb3qh0000gn/T//cc1Hh9yO.s:3741   .text.img_draw_core:00000000 $t
/var/folders/qx/2_175_4n2s19vhvtspjhb3qh0000gn/T//cc1Hh9yO.s:3746   .text.img_draw_core:00000000 img_draw_core
/var/folders/qx/2_175_4n2s19vhvtspjhb3qh0000gn/T//cc1Hh9yO.s:4167   .text.lv_draw_sw_image:00000000 $t
/var/folders/qx/2_175_4n2s19vhvtspjhb3qh0000gn/T//cc1Hh9yO.s:4173   .text.lv_draw_sw_image:00000000 lv_draw_sw_image
/var/folders/qx/2_175_4n2s19vhvtspjhb3qh0000gn/T//cc1Hh9yO.s:4210   .text.lv_draw_sw_image:0000001c $d
/var/folders/qx/2_175_4n2s19vhvtspjhb3qh0000gn/T//cc1Hh9yO.s:4215   .text.lv_draw_sw_layer:00000000 $t
/var/folders/qx/2_175_4n2s19vhvtspjhb3qh0000gn/T//cc1Hh9yO.s:4221   .text.lv_draw_sw_layer:00000000 lv_draw_sw_layer

UNDEFINED SYMBOLS
lv_image_decoder_open
lv_area_set
lv_area_align
lv_area_intersect
lv_draw_buf_clear
lv_draw_buf_goto_xy
lv_area_get_height
lv_area_get_width
lv_image_decoder_close
lv_color_to_u16
lv_color_format_get_size
lv_refr_get_disp_refreshing
lv_display_get_horizontal_resolution
lv_display_get_color_format
lv_malloc
lv_memset
lv_area_move
lv_draw_sw_blend
lv_free
lv_draw_sw_mask_radius_init
lv_memcpy
lv_draw_sw_mask_apply
lv_color_make
lv_draw_sw_transform
ARM GAS  /var/folders/qx/2_175_4n2s19vhvtspjhb3qh0000gn/T//cc1Hh9yO.s 			page 132


lv_draw_image_normal_helper
lv_draw_image_tiled_helper
memcpy
