ARM GAS  C:\Users\moham\AppData\Local\Temp\ccyVFvBh.s 			page 1


   1              		.cpu cortex-m4
   2              		.arch armv7e-m
   3              		.fpu fpv4-sp-d16
   4              		.eabi_attribute 27, 1
   5              		.eabi_attribute 28, 1
   6              		.eabi_attribute 20, 1
   7              		.eabi_attribute 21, 1
   8              		.eabi_attribute 23, 3
   9              		.eabi_attribute 24, 1
  10              		.eabi_attribute 25, 1
  11              		.eabi_attribute 26, 1
  12              		.eabi_attribute 30, 1
  13              		.eabi_attribute 34, 1
  14              		.eabi_attribute 18, 4
  15              		.file	"tim.c"
  16              		.text
  17              	.Ltext0:
  18              		.cfi_sections	.debug_frame
  19              		.file 1 "Core/Src/tim.c"
  20              		.section	.text.MX_TIM1_Init,"ax",%progbits
  21              		.align	1
  22              		.global	MX_TIM1_Init
  23              		.syntax unified
  24              		.thumb
  25              		.thumb_func
  27              	MX_TIM1_Init:
  28              	.LFB134:
   1:Core/Src/tim.c **** /* USER CODE BEGIN Header */
   2:Core/Src/tim.c **** /**
   3:Core/Src/tim.c ****   ******************************************************************************
   4:Core/Src/tim.c ****   * @file    tim.c
   5:Core/Src/tim.c ****   * @brief   This file provides code for the configuration
   6:Core/Src/tim.c ****   *          of the TIM instances.
   7:Core/Src/tim.c ****   ******************************************************************************
   8:Core/Src/tim.c ****   * @attention
   9:Core/Src/tim.c ****   *
  10:Core/Src/tim.c ****   * Copyright (c) 2025 STMicroelectronics.
  11:Core/Src/tim.c ****   * All rights reserved.
  12:Core/Src/tim.c ****   *
  13:Core/Src/tim.c ****   * This software is licensed under terms that can be found in the LICENSE file
  14:Core/Src/tim.c ****   * in the root directory of this software component.
  15:Core/Src/tim.c ****   * If no LICENSE file comes with this software, it is provided AS-IS.
  16:Core/Src/tim.c ****   *
  17:Core/Src/tim.c ****   ******************************************************************************
  18:Core/Src/tim.c ****   */
  19:Core/Src/tim.c **** /* USER CODE END Header */
  20:Core/Src/tim.c **** /* Includes ------------------------------------------------------------------*/
  21:Core/Src/tim.c **** #include "tim.h"
  22:Core/Src/tim.c **** 
  23:Core/Src/tim.c **** /* USER CODE BEGIN 0 */
  24:Core/Src/tim.c **** 
  25:Core/Src/tim.c **** /* USER CODE END 0 */
  26:Core/Src/tim.c **** 
  27:Core/Src/tim.c **** TIM_HandleTypeDef htim1;
  28:Core/Src/tim.c **** TIM_HandleTypeDef htim7;
  29:Core/Src/tim.c **** 
  30:Core/Src/tim.c **** /* TIM1 init function */
ARM GAS  C:\Users\moham\AppData\Local\Temp\ccyVFvBh.s 			page 2


  31:Core/Src/tim.c **** void MX_TIM1_Init(void)
  32:Core/Src/tim.c **** {
  29              		.loc 1 32 1 view -0
  30              		.cfi_startproc
  31              		@ args = 0, pretend = 0, frame = 24
  32              		@ frame_needed = 0, uses_anonymous_args = 0
  33 0000 00B5     		push	{lr}
  34              	.LCFI0:
  35              		.cfi_def_cfa_offset 4
  36              		.cfi_offset 14, -4
  37 0002 87B0     		sub	sp, sp, #28
  38              	.LCFI1:
  39              		.cfi_def_cfa_offset 32
  33:Core/Src/tim.c **** 
  34:Core/Src/tim.c ****   /* USER CODE BEGIN TIM1_Init 0 */
  35:Core/Src/tim.c **** 
  36:Core/Src/tim.c ****   /* USER CODE END TIM1_Init 0 */
  37:Core/Src/tim.c **** 
  38:Core/Src/tim.c ****   TIM_ClockConfigTypeDef sClockSourceConfig = {0};
  40              		.loc 1 38 3 view .LVU1
  41              		.loc 1 38 26 is_stmt 0 view .LVU2
  42 0004 0023     		movs	r3, #0
  43 0006 0293     		str	r3, [sp, #8]
  44 0008 0393     		str	r3, [sp, #12]
  45 000a 0493     		str	r3, [sp, #16]
  46 000c 0593     		str	r3, [sp, #20]
  39:Core/Src/tim.c ****   TIM_MasterConfigTypeDef sMasterConfig = {0};
  47              		.loc 1 39 3 is_stmt 1 view .LVU3
  48              		.loc 1 39 27 is_stmt 0 view .LVU4
  49 000e 0093     		str	r3, [sp]
  50 0010 0193     		str	r3, [sp, #4]
  40:Core/Src/tim.c **** 
  41:Core/Src/tim.c ****   /* USER CODE BEGIN TIM1_Init 1 */
  42:Core/Src/tim.c **** 
  43:Core/Src/tim.c ****   /* USER CODE END TIM1_Init 1 */
  44:Core/Src/tim.c ****   htim1.Instance = TIM1;
  51              		.loc 1 44 3 is_stmt 1 view .LVU5
  52              		.loc 1 44 18 is_stmt 0 view .LVU6
  53 0012 1548     		ldr	r0, .L9
  54 0014 154A     		ldr	r2, .L9+4
  55 0016 0260     		str	r2, [r0]
  45:Core/Src/tim.c ****   htim1.Init.Prescaler = 0;
  56              		.loc 1 45 3 is_stmt 1 view .LVU7
  57              		.loc 1 45 24 is_stmt 0 view .LVU8
  58 0018 4360     		str	r3, [r0, #4]
  46:Core/Src/tim.c ****   htim1.Init.CounterMode = TIM_COUNTERMODE_UP;
  59              		.loc 1 46 3 is_stmt 1 view .LVU9
  60              		.loc 1 46 26 is_stmt 0 view .LVU10
  61 001a 8360     		str	r3, [r0, #8]
  47:Core/Src/tim.c ****   htim1.Init.Period = 65535;
  62              		.loc 1 47 3 is_stmt 1 view .LVU11
  63              		.loc 1 47 21 is_stmt 0 view .LVU12
  64 001c 4FF6FF72 		movw	r2, #65535
  65 0020 C260     		str	r2, [r0, #12]
  48:Core/Src/tim.c ****   htim1.Init.ClockDivision = TIM_CLOCKDIVISION_DIV1;
  66              		.loc 1 48 3 is_stmt 1 view .LVU13
  67              		.loc 1 48 28 is_stmt 0 view .LVU14
ARM GAS  C:\Users\moham\AppData\Local\Temp\ccyVFvBh.s 			page 3


  68 0022 0361     		str	r3, [r0, #16]
  49:Core/Src/tim.c ****   htim1.Init.RepetitionCounter = 0;
  69              		.loc 1 49 3 is_stmt 1 view .LVU15
  70              		.loc 1 49 32 is_stmt 0 view .LVU16
  71 0024 4361     		str	r3, [r0, #20]
  50:Core/Src/tim.c ****   htim1.Init.AutoReloadPreload = TIM_AUTORELOAD_PRELOAD_DISABLE;
  72              		.loc 1 50 3 is_stmt 1 view .LVU17
  73              		.loc 1 50 32 is_stmt 0 view .LVU18
  74 0026 8361     		str	r3, [r0, #24]
  51:Core/Src/tim.c ****   if (HAL_TIM_Base_Init(&htim1) != HAL_OK)
  75              		.loc 1 51 3 is_stmt 1 view .LVU19
  76              		.loc 1 51 7 is_stmt 0 view .LVU20
  77 0028 FFF7FEFF 		bl	HAL_TIM_Base_Init
  78              	.LVL0:
  79              		.loc 1 51 6 discriminator 1 view .LVU21
  80 002c 90B9     		cbnz	r0, .L6
  81              	.L2:
  52:Core/Src/tim.c ****   {
  53:Core/Src/tim.c ****     Error_Handler();
  54:Core/Src/tim.c ****   }
  55:Core/Src/tim.c ****   sClockSourceConfig.ClockSource = TIM_CLOCKSOURCE_INTERNAL;
  82              		.loc 1 55 3 is_stmt 1 view .LVU22
  83              		.loc 1 55 34 is_stmt 0 view .LVU23
  84 002e 4FF48053 		mov	r3, #4096
  85 0032 0293     		str	r3, [sp, #8]
  56:Core/Src/tim.c ****   if (HAL_TIM_ConfigClockSource(&htim1, &sClockSourceConfig) != HAL_OK)
  86              		.loc 1 56 3 is_stmt 1 view .LVU24
  87              		.loc 1 56 7 is_stmt 0 view .LVU25
  88 0034 02A9     		add	r1, sp, #8
  89 0036 0C48     		ldr	r0, .L9
  90 0038 FFF7FEFF 		bl	HAL_TIM_ConfigClockSource
  91              	.LVL1:
  92              		.loc 1 56 6 discriminator 1 view .LVU26
  93 003c 68B9     		cbnz	r0, .L7
  94              	.L3:
  57:Core/Src/tim.c ****   {
  58:Core/Src/tim.c ****     Error_Handler();
  59:Core/Src/tim.c ****   }
  60:Core/Src/tim.c ****   sMasterConfig.MasterOutputTrigger = TIM_TRGO_RESET;
  95              		.loc 1 60 3 is_stmt 1 view .LVU27
  96              		.loc 1 60 37 is_stmt 0 view .LVU28
  97 003e 0023     		movs	r3, #0
  98 0040 0093     		str	r3, [sp]
  61:Core/Src/tim.c ****   sMasterConfig.MasterSlaveMode = TIM_MASTERSLAVEMODE_DISABLE;
  99              		.loc 1 61 3 is_stmt 1 view .LVU29
 100              		.loc 1 61 33 is_stmt 0 view .LVU30
 101 0042 0193     		str	r3, [sp, #4]
  62:Core/Src/tim.c ****   if (HAL_TIMEx_MasterConfigSynchronization(&htim1, &sMasterConfig) != HAL_OK)
 102              		.loc 1 62 3 is_stmt 1 view .LVU31
 103              		.loc 1 62 7 is_stmt 0 view .LVU32
 104 0044 6946     		mov	r1, sp
 105 0046 0848     		ldr	r0, .L9
 106 0048 FFF7FEFF 		bl	HAL_TIMEx_MasterConfigSynchronization
 107              	.LVL2:
 108              		.loc 1 62 6 discriminator 1 view .LVU33
 109 004c 40B9     		cbnz	r0, .L8
 110              	.L1:
ARM GAS  C:\Users\moham\AppData\Local\Temp\ccyVFvBh.s 			page 4


  63:Core/Src/tim.c ****   {
  64:Core/Src/tim.c ****     Error_Handler();
  65:Core/Src/tim.c ****   }
  66:Core/Src/tim.c ****   /* USER CODE BEGIN TIM1_Init 2 */
  67:Core/Src/tim.c **** 
  68:Core/Src/tim.c ****   /* USER CODE END TIM1_Init 2 */
  69:Core/Src/tim.c **** 
  70:Core/Src/tim.c **** }
 111              		.loc 1 70 1 view .LVU34
 112 004e 07B0     		add	sp, sp, #28
 113              	.LCFI2:
 114              		.cfi_remember_state
 115              		.cfi_def_cfa_offset 4
 116              		@ sp needed
 117 0050 5DF804FB 		ldr	pc, [sp], #4
 118              	.L6:
 119              	.LCFI3:
 120              		.cfi_restore_state
  53:Core/Src/tim.c ****   }
 121              		.loc 1 53 5 is_stmt 1 view .LVU35
 122 0054 FFF7FEFF 		bl	Error_Handler
 123              	.LVL3:
 124 0058 E9E7     		b	.L2
 125              	.L7:
  58:Core/Src/tim.c ****   }
 126              		.loc 1 58 5 view .LVU36
 127 005a FFF7FEFF 		bl	Error_Handler
 128              	.LVL4:
 129 005e EEE7     		b	.L3
 130              	.L8:
  64:Core/Src/tim.c ****   }
 131              		.loc 1 64 5 view .LVU37
 132 0060 FFF7FEFF 		bl	Error_Handler
 133              	.LVL5:
 134              		.loc 1 70 1 is_stmt 0 view .LVU38
 135 0064 F3E7     		b	.L1
 136              	.L10:
 137 0066 00BF     		.align	2
 138              	.L9:
 139 0068 00000000 		.word	htim1
 140 006c 00000140 		.word	1073807360
 141              		.cfi_endproc
 142              	.LFE134:
 144              		.section	.text.MX_TIM7_Init,"ax",%progbits
 145              		.align	1
 146              		.global	MX_TIM7_Init
 147              		.syntax unified
 148              		.thumb
 149              		.thumb_func
 151              	MX_TIM7_Init:
 152              	.LFB135:
  71:Core/Src/tim.c **** /* TIM7 init function */
  72:Core/Src/tim.c **** void MX_TIM7_Init(void)
  73:Core/Src/tim.c **** {
 153              		.loc 1 73 1 is_stmt 1 view -0
 154              		.cfi_startproc
 155              		@ args = 0, pretend = 0, frame = 8
ARM GAS  C:\Users\moham\AppData\Local\Temp\ccyVFvBh.s 			page 5


 156              		@ frame_needed = 0, uses_anonymous_args = 0
 157 0000 00B5     		push	{lr}
 158              	.LCFI4:
 159              		.cfi_def_cfa_offset 4
 160              		.cfi_offset 14, -4
 161 0002 83B0     		sub	sp, sp, #12
 162              	.LCFI5:
 163              		.cfi_def_cfa_offset 16
  74:Core/Src/tim.c **** 
  75:Core/Src/tim.c ****   /* USER CODE BEGIN TIM7_Init 0 */
  76:Core/Src/tim.c **** 
  77:Core/Src/tim.c ****   /* USER CODE END TIM7_Init 0 */
  78:Core/Src/tim.c **** 
  79:Core/Src/tim.c ****   TIM_MasterConfigTypeDef sMasterConfig = {0};
 164              		.loc 1 79 3 view .LVU40
 165              		.loc 1 79 27 is_stmt 0 view .LVU41
 166 0004 0023     		movs	r3, #0
 167 0006 0093     		str	r3, [sp]
 168 0008 0193     		str	r3, [sp, #4]
  80:Core/Src/tim.c **** 
  81:Core/Src/tim.c ****   /* USER CODE BEGIN TIM7_Init 1 */
  82:Core/Src/tim.c **** 
  83:Core/Src/tim.c ****   /* USER CODE END TIM7_Init 1 */
  84:Core/Src/tim.c ****   htim7.Instance = TIM7;
 169              		.loc 1 84 3 is_stmt 1 view .LVU42
 170              		.loc 1 84 18 is_stmt 0 view .LVU43
 171 000a 0F48     		ldr	r0, .L17
 172 000c 0F4A     		ldr	r2, .L17+4
 173 000e 0260     		str	r2, [r0]
  85:Core/Src/tim.c ****   htim7.Init.Prescaler = 71;        /* 72MHz / (71+1) = 1MHz */
 174              		.loc 1 85 3 is_stmt 1 view .LVU44
 175              		.loc 1 85 24 is_stmt 0 view .LVU45
 176 0010 4722     		movs	r2, #71
 177 0012 4260     		str	r2, [r0, #4]
  86:Core/Src/tim.c ****   htim7.Init.CounterMode = TIM_COUNTERMODE_UP;
 178              		.loc 1 86 3 is_stmt 1 view .LVU46
 179              		.loc 1 86 26 is_stmt 0 view .LVU47
 180 0014 8360     		str	r3, [r0, #8]
  87:Core/Src/tim.c ****   htim7.Init.Period = 999;          /* 1MHz / (999+1) = 1kHz = 1ms */
 181              		.loc 1 87 3 is_stmt 1 view .LVU48
 182              		.loc 1 87 21 is_stmt 0 view .LVU49
 183 0016 40F2E732 		movw	r2, #999
 184 001a C260     		str	r2, [r0, #12]
  88:Core/Src/tim.c ****   htim7.Init.AutoReloadPreload = TIM_AUTORELOAD_PRELOAD_DISABLE;
 185              		.loc 1 88 3 is_stmt 1 view .LVU50
 186              		.loc 1 88 32 is_stmt 0 view .LVU51
 187 001c 8361     		str	r3, [r0, #24]
  89:Core/Src/tim.c ****   if (HAL_TIM_Base_Init(&htim7) != HAL_OK)
 188              		.loc 1 89 3 is_stmt 1 view .LVU52
 189              		.loc 1 89 7 is_stmt 0 view .LVU53
 190 001e FFF7FEFF 		bl	HAL_TIM_Base_Init
 191              	.LVL6:
 192              		.loc 1 89 6 discriminator 1 view .LVU54
 193 0022 50B9     		cbnz	r0, .L15
 194              	.L12:
  90:Core/Src/tim.c ****   {
  91:Core/Src/tim.c ****     Error_Handler();
ARM GAS  C:\Users\moham\AppData\Local\Temp\ccyVFvBh.s 			page 6


  92:Core/Src/tim.c ****   }
  93:Core/Src/tim.c ****   sMasterConfig.MasterOutputTrigger = TIM_TRGO_RESET;
 195              		.loc 1 93 3 is_stmt 1 view .LVU55
 196              		.loc 1 93 37 is_stmt 0 view .LVU56
 197 0024 0023     		movs	r3, #0
 198 0026 0093     		str	r3, [sp]
  94:Core/Src/tim.c ****   sMasterConfig.MasterSlaveMode = TIM_MASTERSLAVEMODE_DISABLE;
 199              		.loc 1 94 3 is_stmt 1 view .LVU57
 200              		.loc 1 94 33 is_stmt 0 view .LVU58
 201 0028 0193     		str	r3, [sp, #4]
  95:Core/Src/tim.c ****   if (HAL_TIMEx_MasterConfigSynchronization(&htim7, &sMasterConfig) != HAL_OK)
 202              		.loc 1 95 3 is_stmt 1 view .LVU59
 203              		.loc 1 95 7 is_stmt 0 view .LVU60
 204 002a 6946     		mov	r1, sp
 205 002c 0648     		ldr	r0, .L17
 206 002e FFF7FEFF 		bl	HAL_TIMEx_MasterConfigSynchronization
 207              	.LVL7:
 208              		.loc 1 95 6 discriminator 1 view .LVU61
 209 0032 28B9     		cbnz	r0, .L16
 210              	.L11:
  96:Core/Src/tim.c ****   {
  97:Core/Src/tim.c ****     Error_Handler();
  98:Core/Src/tim.c ****   }
  99:Core/Src/tim.c ****   /* USER CODE BEGIN TIM7_Init 2 */
 100:Core/Src/tim.c **** 
 101:Core/Src/tim.c ****   /* USER CODE END TIM7_Init 2 */
 102:Core/Src/tim.c **** 
 103:Core/Src/tim.c **** }
 211              		.loc 1 103 1 view .LVU62
 212 0034 03B0     		add	sp, sp, #12
 213              	.LCFI6:
 214              		.cfi_remember_state
 215              		.cfi_def_cfa_offset 4
 216              		@ sp needed
 217 0036 5DF804FB 		ldr	pc, [sp], #4
 218              	.L15:
 219              	.LCFI7:
 220              		.cfi_restore_state
  91:Core/Src/tim.c ****   }
 221              		.loc 1 91 5 is_stmt 1 view .LVU63
 222 003a FFF7FEFF 		bl	Error_Handler
 223              	.LVL8:
 224 003e F1E7     		b	.L12
 225              	.L16:
  97:Core/Src/tim.c ****   }
 226              		.loc 1 97 5 view .LVU64
 227 0040 FFF7FEFF 		bl	Error_Handler
 228              	.LVL9:
 229              		.loc 1 103 1 is_stmt 0 view .LVU65
 230 0044 F6E7     		b	.L11
 231              	.L18:
 232 0046 00BF     		.align	2
 233              	.L17:
 234 0048 00000000 		.word	htim7
 235 004c 00140040 		.word	1073746944
 236              		.cfi_endproc
 237              	.LFE135:
ARM GAS  C:\Users\moham\AppData\Local\Temp\ccyVFvBh.s 			page 7


 239              		.section	.text.HAL_TIM_Base_MspInit,"ax",%progbits
 240              		.align	1
 241              		.global	HAL_TIM_Base_MspInit
 242              		.syntax unified
 243              		.thumb
 244              		.thumb_func
 246              	HAL_TIM_Base_MspInit:
 247              	.LVL10:
 248              	.LFB136:
 104:Core/Src/tim.c **** 
 105:Core/Src/tim.c **** void HAL_TIM_Base_MspInit(TIM_HandleTypeDef* tim_baseHandle)
 106:Core/Src/tim.c **** {
 249              		.loc 1 106 1 is_stmt 1 view -0
 250              		.cfi_startproc
 251              		@ args = 0, pretend = 0, frame = 8
 252              		@ frame_needed = 0, uses_anonymous_args = 0
 253              		.loc 1 106 1 is_stmt 0 view .LVU67
 254 0000 00B5     		push	{lr}
 255              	.LCFI8:
 256              		.cfi_def_cfa_offset 4
 257              		.cfi_offset 14, -4
 258 0002 83B0     		sub	sp, sp, #12
 259              	.LCFI9:
 260              		.cfi_def_cfa_offset 16
 107:Core/Src/tim.c **** 
 108:Core/Src/tim.c ****   if(tim_baseHandle->Instance==TIM1)
 261              		.loc 1 108 3 is_stmt 1 view .LVU68
 262              		.loc 1 108 20 is_stmt 0 view .LVU69
 263 0004 0368     		ldr	r3, [r0]
 264              		.loc 1 108 5 view .LVU70
 265 0006 154A     		ldr	r2, .L25
 266 0008 9342     		cmp	r3, r2
 267 000a 05D0     		beq	.L23
 109:Core/Src/tim.c ****   {
 110:Core/Src/tim.c ****   /* USER CODE BEGIN TIM1_MspInit 0 */
 111:Core/Src/tim.c **** 
 112:Core/Src/tim.c ****   /* USER CODE END TIM1_MspInit 0 */
 113:Core/Src/tim.c ****     /* TIM1 clock enable */
 114:Core/Src/tim.c ****     __HAL_RCC_TIM1_CLK_ENABLE();
 115:Core/Src/tim.c ****   /* USER CODE BEGIN TIM1_MspInit 1 */
 116:Core/Src/tim.c **** 
 117:Core/Src/tim.c ****   /* USER CODE END TIM1_MspInit 1 */
 118:Core/Src/tim.c ****   }
 119:Core/Src/tim.c ****   else if(tim_baseHandle->Instance==TIM7)
 268              		.loc 1 119 8 is_stmt 1 view .LVU71
 269              		.loc 1 119 10 is_stmt 0 view .LVU72
 270 000c 144A     		ldr	r2, .L25+4
 271 000e 9342     		cmp	r3, r2
 272 0010 0FD0     		beq	.L24
 273              	.LVL11:
 274              	.L19:
 120:Core/Src/tim.c ****   {
 121:Core/Src/tim.c ****   /* USER CODE BEGIN TIM7_MspInit 0 */
 122:Core/Src/tim.c **** 
 123:Core/Src/tim.c ****   /* USER CODE END TIM7_MspInit 0 */
 124:Core/Src/tim.c ****     /* TIM7 clock enable */
 125:Core/Src/tim.c ****     __HAL_RCC_TIM7_CLK_ENABLE();
ARM GAS  C:\Users\moham\AppData\Local\Temp\ccyVFvBh.s 			page 8


 126:Core/Src/tim.c **** 
 127:Core/Src/tim.c ****     /* TIM7 interrupt Init */
 128:Core/Src/tim.c ****     HAL_NVIC_SetPriority(TIM7_IRQn, 5, 0);
 129:Core/Src/tim.c ****     HAL_NVIC_EnableIRQ(TIM7_IRQn);
 130:Core/Src/tim.c ****   /* USER CODE BEGIN TIM7_MspInit 1 */
 131:Core/Src/tim.c **** 
 132:Core/Src/tim.c ****   /* USER CODE END TIM7_MspInit 1 */
 133:Core/Src/tim.c ****   }
 134:Core/Src/tim.c **** }
 275              		.loc 1 134 1 view .LVU73
 276 0012 03B0     		add	sp, sp, #12
 277              	.LCFI10:
 278              		.cfi_remember_state
 279              		.cfi_def_cfa_offset 4
 280              		@ sp needed
 281 0014 5DF804FB 		ldr	pc, [sp], #4
 282              	.LVL12:
 283              	.L23:
 284              	.LCFI11:
 285              		.cfi_restore_state
 114:Core/Src/tim.c ****   /* USER CODE BEGIN TIM1_MspInit 1 */
 286              		.loc 1 114 5 is_stmt 1 view .LVU74
 287              	.LBB2:
 114:Core/Src/tim.c ****   /* USER CODE BEGIN TIM1_MspInit 1 */
 288              		.loc 1 114 5 view .LVU75
 289 0018 0023     		movs	r3, #0
 290 001a 0093     		str	r3, [sp]
 114:Core/Src/tim.c ****   /* USER CODE BEGIN TIM1_MspInit 1 */
 291              		.loc 1 114 5 view .LVU76
 292 001c 114B     		ldr	r3, .L25+8
 293 001e 5A6C     		ldr	r2, [r3, #68]
 294 0020 42F00102 		orr	r2, r2, #1
 295 0024 5A64     		str	r2, [r3, #68]
 114:Core/Src/tim.c ****   /* USER CODE BEGIN TIM1_MspInit 1 */
 296              		.loc 1 114 5 view .LVU77
 297 0026 5B6C     		ldr	r3, [r3, #68]
 298 0028 03F00103 		and	r3, r3, #1
 299 002c 0093     		str	r3, [sp]
 114:Core/Src/tim.c ****   /* USER CODE BEGIN TIM1_MspInit 1 */
 300              		.loc 1 114 5 view .LVU78
 301 002e 009B     		ldr	r3, [sp]
 302              	.LBE2:
 114:Core/Src/tim.c ****   /* USER CODE BEGIN TIM1_MspInit 1 */
 303              		.loc 1 114 5 view .LVU79
 304 0030 EFE7     		b	.L19
 305              	.L24:
 125:Core/Src/tim.c **** 
 306              		.loc 1 125 5 view .LVU80
 307              	.LBB3:
 125:Core/Src/tim.c **** 
 308              		.loc 1 125 5 view .LVU81
 309 0032 0022     		movs	r2, #0
 310 0034 0192     		str	r2, [sp, #4]
 125:Core/Src/tim.c **** 
 311              		.loc 1 125 5 view .LVU82
 312 0036 0B4B     		ldr	r3, .L25+8
 313 0038 196C     		ldr	r1, [r3, #64]
ARM GAS  C:\Users\moham\AppData\Local\Temp\ccyVFvBh.s 			page 9


 314 003a 41F02001 		orr	r1, r1, #32
 315 003e 1964     		str	r1, [r3, #64]
 125:Core/Src/tim.c **** 
 316              		.loc 1 125 5 view .LVU83
 317 0040 1B6C     		ldr	r3, [r3, #64]
 318 0042 03F02003 		and	r3, r3, #32
 319 0046 0193     		str	r3, [sp, #4]
 125:Core/Src/tim.c **** 
 320              		.loc 1 125 5 view .LVU84
 321 0048 019B     		ldr	r3, [sp, #4]
 322              	.LBE3:
 125:Core/Src/tim.c **** 
 323              		.loc 1 125 5 view .LVU85
 128:Core/Src/tim.c ****     HAL_NVIC_EnableIRQ(TIM7_IRQn);
 324              		.loc 1 128 5 view .LVU86
 325 004a 0521     		movs	r1, #5
 326 004c 3720     		movs	r0, #55
 327              	.LVL13:
 128:Core/Src/tim.c ****     HAL_NVIC_EnableIRQ(TIM7_IRQn);
 328              		.loc 1 128 5 is_stmt 0 view .LVU87
 329 004e FFF7FEFF 		bl	HAL_NVIC_SetPriority
 330              	.LVL14:
 129:Core/Src/tim.c ****   /* USER CODE BEGIN TIM7_MspInit 1 */
 331              		.loc 1 129 5 is_stmt 1 view .LVU88
 332 0052 3720     		movs	r0, #55
 333 0054 FFF7FEFF 		bl	HAL_NVIC_EnableIRQ
 334              	.LVL15:
 335              		.loc 1 134 1 is_stmt 0 view .LVU89
 336 0058 DBE7     		b	.L19
 337              	.L26:
 338 005a 00BF     		.align	2
 339              	.L25:
 340 005c 00000140 		.word	1073807360
 341 0060 00140040 		.word	1073746944
 342 0064 00380240 		.word	1073887232
 343              		.cfi_endproc
 344              	.LFE136:
 346              		.section	.text.HAL_TIM_Base_MspDeInit,"ax",%progbits
 347              		.align	1
 348              		.global	HAL_TIM_Base_MspDeInit
 349              		.syntax unified
 350              		.thumb
 351              		.thumb_func
 353              	HAL_TIM_Base_MspDeInit:
 354              	.LVL16:
 355              	.LFB137:
 135:Core/Src/tim.c **** 
 136:Core/Src/tim.c **** void HAL_TIM_Base_MspDeInit(TIM_HandleTypeDef* tim_baseHandle)
 137:Core/Src/tim.c **** {
 356              		.loc 1 137 1 is_stmt 1 view -0
 357              		.cfi_startproc
 358              		@ args = 0, pretend = 0, frame = 0
 359              		@ frame_needed = 0, uses_anonymous_args = 0
 360              		.loc 1 137 1 is_stmt 0 view .LVU91
 361 0000 08B5     		push	{r3, lr}
 362              	.LCFI12:
 363              		.cfi_def_cfa_offset 8
ARM GAS  C:\Users\moham\AppData\Local\Temp\ccyVFvBh.s 			page 10


 364              		.cfi_offset 3, -8
 365              		.cfi_offset 14, -4
 138:Core/Src/tim.c **** 
 139:Core/Src/tim.c ****   if(tim_baseHandle->Instance==TIM1)
 366              		.loc 1 139 3 is_stmt 1 view .LVU92
 367              		.loc 1 139 20 is_stmt 0 view .LVU93
 368 0002 0368     		ldr	r3, [r0]
 369              		.loc 1 139 5 view .LVU94
 370 0004 0B4A     		ldr	r2, .L33
 371 0006 9342     		cmp	r3, r2
 372 0008 03D0     		beq	.L31
 140:Core/Src/tim.c ****   {
 141:Core/Src/tim.c ****   /* USER CODE BEGIN TIM1_MspDeInit 0 */
 142:Core/Src/tim.c **** 
 143:Core/Src/tim.c ****   /* USER CODE END TIM1_MspDeInit 0 */
 144:Core/Src/tim.c ****     /* Peripheral clock disable */
 145:Core/Src/tim.c ****     __HAL_RCC_TIM1_CLK_DISABLE();
 146:Core/Src/tim.c ****   /* USER CODE BEGIN TIM1_MspDeInit 1 */
 147:Core/Src/tim.c **** 
 148:Core/Src/tim.c ****   /* USER CODE END TIM1_MspDeInit 1 */
 149:Core/Src/tim.c ****   }
 150:Core/Src/tim.c ****   else if(tim_baseHandle->Instance==TIM7)
 373              		.loc 1 150 8 is_stmt 1 view .LVU95
 374              		.loc 1 150 10 is_stmt 0 view .LVU96
 375 000a 0B4A     		ldr	r2, .L33+4
 376 000c 9342     		cmp	r3, r2
 377 000e 07D0     		beq	.L32
 378              	.LVL17:
 379              	.L27:
 151:Core/Src/tim.c ****   {
 152:Core/Src/tim.c ****   /* USER CODE BEGIN TIM7_MspDeInit 0 */
 153:Core/Src/tim.c **** 
 154:Core/Src/tim.c ****   /* USER CODE END TIM7_MspDeInit 0 */
 155:Core/Src/tim.c ****     /* Peripheral clock disable */
 156:Core/Src/tim.c ****     __HAL_RCC_TIM7_CLK_DISABLE();
 157:Core/Src/tim.c **** 
 158:Core/Src/tim.c ****     /* TIM7 interrupt Deinit */
 159:Core/Src/tim.c ****     HAL_NVIC_DisableIRQ(TIM7_IRQn);
 160:Core/Src/tim.c ****   /* USER CODE BEGIN TIM7_MspDeInit 1 */
 161:Core/Src/tim.c **** 
 162:Core/Src/tim.c ****   /* USER CODE END TIM7_MspDeInit 1 */
 163:Core/Src/tim.c ****   }
 164:Core/Src/tim.c **** }
 380              		.loc 1 164 1 view .LVU97
 381 0010 08BD     		pop	{r3, pc}
 382              	.LVL18:
 383              	.L31:
 145:Core/Src/tim.c ****   /* USER CODE BEGIN TIM1_MspDeInit 1 */
 384              		.loc 1 145 5 is_stmt 1 view .LVU98
 385 0012 02F59C32 		add	r2, r2, #79872
 386 0016 536C     		ldr	r3, [r2, #68]
 387 0018 23F00103 		bic	r3, r3, #1
 388 001c 5364     		str	r3, [r2, #68]
 389 001e F7E7     		b	.L27
 390              	.L32:
 156:Core/Src/tim.c **** 
 391              		.loc 1 156 5 view .LVU99
ARM GAS  C:\Users\moham\AppData\Local\Temp\ccyVFvBh.s 			page 11


 392 0020 02F50932 		add	r2, r2, #140288
 393 0024 136C     		ldr	r3, [r2, #64]
 394 0026 23F02003 		bic	r3, r3, #32
 395 002a 1364     		str	r3, [r2, #64]
 159:Core/Src/tim.c ****   /* USER CODE BEGIN TIM7_MspDeInit 1 */
 396              		.loc 1 159 5 view .LVU100
 397 002c 3720     		movs	r0, #55
 398              	.LVL19:
 159:Core/Src/tim.c ****   /* USER CODE BEGIN TIM7_MspDeInit 1 */
 399              		.loc 1 159 5 is_stmt 0 view .LVU101
 400 002e FFF7FEFF 		bl	HAL_NVIC_DisableIRQ
 401              	.LVL20:
 402              		.loc 1 164 1 view .LVU102
 403 0032 EDE7     		b	.L27
 404              	.L34:
 405              		.align	2
 406              	.L33:
 407 0034 00000140 		.word	1073807360
 408 0038 00140040 		.word	1073746944
 409              		.cfi_endproc
 410              	.LFE137:
 412              		.global	htim7
 413              		.section	.bss.htim7,"aw",%nobits
 414              		.align	2
 417              	htim7:
 418 0000 00000000 		.space	72
 418      00000000 
 418      00000000 
 418      00000000 
 418      00000000 
 419              		.global	htim1
 420              		.section	.bss.htim1,"aw",%nobits
 421              		.align	2
 424              	htim1:
 425 0000 00000000 		.space	72
 425      00000000 
 425      00000000 
 425      00000000 
 425      00000000 
 426              		.text
 427              	.Letext0:
 428              		.file 2 "Drivers/CMSIS/Device/ST/STM32F4xx/Include/stm32f429xx.h"
 429              		.file 3 "C:/Program Files (x86)/Arm GNU Toolchain arm-none-eabi/14.3 rel1/arm-none-eabi/include/ma
 430              		.file 4 "C:/Program Files (x86)/Arm GNU Toolchain arm-none-eabi/14.3 rel1/arm-none-eabi/include/sy
 431              		.file 5 "Drivers/STM32F4xx_HAL_Driver/Inc/stm32f4xx_hal_def.h"
 432              		.file 6 "Drivers/STM32F4xx_HAL_Driver/Inc/stm32f4xx_hal_dma.h"
 433              		.file 7 "Drivers/STM32F4xx_HAL_Driver/Inc/stm32f4xx_hal_tim.h"
 434              		.file 8 "Core/Inc/tim.h"
 435              		.file 9 "Drivers/STM32F4xx_HAL_Driver/Inc/stm32f4xx_hal_cortex.h"
 436              		.file 10 "Drivers/STM32F4xx_HAL_Driver/Inc/stm32f4xx_hal_tim_ex.h"
 437              		.file 11 "Core/Inc/main.h"
ARM GAS  C:\Users\moham\AppData\Local\Temp\ccyVFvBh.s 			page 12

