ARM GAS  /var/folders/qx/2_175_4n2s19vhvtspjhb3qh0000gn/T//ccY6oGWi.s 			page 1


   1              		.cpu cortex-m4
   2              		.arch armv7e-m
   3              		.fpu fpv4-sp-d16
   4              		.eabi_attribute 27, 1
   5              		.eabi_attribute 28, 1
   6              		.eabi_attribute 20, 1
   7              		.eabi_attribute 21, 1
   8              		.eabi_attribute 23, 3
   9              		.eabi_attribute 24, 1
  10              		.eabi_attribute 25, 1
  11              		.eabi_attribute 26, 1
  12              		.eabi_attribute 30, 1
  13              		.eabi_attribute 34, 1
  14              		.eabi_attribute 18, 4
  15              		.file	"lv_color_op.c"
  16              		.text
  17              	.Ltext0:
  18              		.cfi_sections	.debug_frame
  19              		.file 1 "Drivers/lvgl/src/misc/lv_color_op.c"
  20              		.section	.text.lv_color_mix,"ax",%progbits
  21              		.align	1
  22              		.global	lv_color_mix
  23              		.syntax unified
  24              		.thumb
  25              		.thumb_func
  27              	lv_color_mix:
  28              	.LVL0:
  29              	.LFB6:
   1:Drivers/lvgl/src/misc/lv_color_op.c **** /**
   2:Drivers/lvgl/src/misc/lv_color_op.c ****  * @file lv_color_op.c
   3:Drivers/lvgl/src/misc/lv_color_op.c ****  *
   4:Drivers/lvgl/src/misc/lv_color_op.c ****  */
   5:Drivers/lvgl/src/misc/lv_color_op.c **** 
   6:Drivers/lvgl/src/misc/lv_color_op.c **** /*********************
   7:Drivers/lvgl/src/misc/lv_color_op.c ****  *      INCLUDES
   8:Drivers/lvgl/src/misc/lv_color_op.c ****  *********************/
   9:Drivers/lvgl/src/misc/lv_color_op.c **** #include "lv_color_op_private.h"
  10:Drivers/lvgl/src/misc/lv_color_op.c **** #include "lv_log.h"
  11:Drivers/lvgl/src/misc/lv_color_op.c **** 
  12:Drivers/lvgl/src/misc/lv_color_op.c **** /*********************
  13:Drivers/lvgl/src/misc/lv_color_op.c ****  *      DEFINES
  14:Drivers/lvgl/src/misc/lv_color_op.c ****  *********************/
  15:Drivers/lvgl/src/misc/lv_color_op.c **** 
  16:Drivers/lvgl/src/misc/lv_color_op.c **** /**********************
  17:Drivers/lvgl/src/misc/lv_color_op.c ****  *      TYPEDEFS
  18:Drivers/lvgl/src/misc/lv_color_op.c ****  **********************/
  19:Drivers/lvgl/src/misc/lv_color_op.c **** 
  20:Drivers/lvgl/src/misc/lv_color_op.c **** /**********************
  21:Drivers/lvgl/src/misc/lv_color_op.c ****  *  STATIC PROTOTYPES
  22:Drivers/lvgl/src/misc/lv_color_op.c ****  **********************/
  23:Drivers/lvgl/src/misc/lv_color_op.c **** 
  24:Drivers/lvgl/src/misc/lv_color_op.c **** /**********************
  25:Drivers/lvgl/src/misc/lv_color_op.c ****  *  STATIC VARIABLES
  26:Drivers/lvgl/src/misc/lv_color_op.c ****  **********************/
  27:Drivers/lvgl/src/misc/lv_color_op.c **** 
  28:Drivers/lvgl/src/misc/lv_color_op.c **** /**********************
  29:Drivers/lvgl/src/misc/lv_color_op.c ****  *      MACROS
ARM GAS  /var/folders/qx/2_175_4n2s19vhvtspjhb3qh0000gn/T//ccY6oGWi.s 			page 2


  30:Drivers/lvgl/src/misc/lv_color_op.c ****  **********************/
  31:Drivers/lvgl/src/misc/lv_color_op.c **** 
  32:Drivers/lvgl/src/misc/lv_color_op.c **** /**********************
  33:Drivers/lvgl/src/misc/lv_color_op.c ****  *   GLOBAL FUNCTIONS
  34:Drivers/lvgl/src/misc/lv_color_op.c ****  **********************/
  35:Drivers/lvgl/src/misc/lv_color_op.c **** 
  36:Drivers/lvgl/src/misc/lv_color_op.c **** lv_color_t LV_ATTRIBUTE_FAST_MEM lv_color_mix(lv_color_t c1, lv_color_t c2, uint8_t mix)
  37:Drivers/lvgl/src/misc/lv_color_op.c **** {
  30              		.loc 1 37 1 view -0
  31              		.cfi_startproc
  32              		@ args = 0, pretend = 0, frame = 16
  33              		@ frame_needed = 0, uses_anonymous_args = 0
  34              		@ link register save eliminated.
  35              		.loc 1 37 1 is_stmt 0 view .LVU1
  36 0000 84B0     		sub	sp, sp, #16
  37              	.LCFI0:
  38              		.cfi_def_cfa_offset 16
  39 0002 0190     		str	r0, [sp, #4]
  40 0004 0091     		str	r1, [sp]
  38:Drivers/lvgl/src/misc/lv_color_op.c ****     lv_color_t ret;
  41              		.loc 1 38 5 is_stmt 1 view .LVU2
  39:Drivers/lvgl/src/misc/lv_color_op.c **** 
  40:Drivers/lvgl/src/misc/lv_color_op.c ****     ret.red = LV_UDIV255((uint16_t)c1.red * mix + c2.red * (255 - mix) + LV_COLOR_MIX_ROUND_OFS);
  42              		.loc 1 40 5 view .LVU3
  43              		.loc 1 40 15 is_stmt 0 view .LVU4
  44 0006 9DF80600 		ldrb	r0, [sp, #6]	@ zero_extendqisi2
  45 000a 9DF80210 		ldrb	r1, [sp, #2]	@ zero_extendqisi2
  46 000e C2F1FF03 		rsb	r3, r2, #255
  47 0012 03FB01F1 		mul	r1, r3, r1
  48 0016 02FB0011 		mla	r1, r2, r0, r1
  49 001a 01EB0120 		add	r0, r1, r1, lsl #8
  50 001e 01EBC011 		add	r1, r1, r0, lsl #7
  51 0022 C90D     		lsrs	r1, r1, #23
  52              		.loc 1 40 13 view .LVU5
  53 0024 8DF80A10 		strb	r1, [sp, #10]
  41:Drivers/lvgl/src/misc/lv_color_op.c ****     ret.green = LV_UDIV255((uint16_t)c1.green * mix + c2.green * (255 - mix) + LV_COLOR_MIX_ROUND_O
  54              		.loc 1 41 5 is_stmt 1 view .LVU6
  55              		.loc 1 41 17 is_stmt 0 view .LVU7
  56 0028 9DF80500 		ldrb	r0, [sp, #5]	@ zero_extendqisi2
  57 002c 9DF80110 		ldrb	r1, [sp, #1]	@ zero_extendqisi2
  58 0030 03FB01F1 		mul	r1, r3, r1
  59 0034 00FB0211 		mla	r1, r0, r2, r1
  60 0038 01EB0120 		add	r0, r1, r1, lsl #8
  61 003c 01EBC011 		add	r1, r1, r0, lsl #7
  62 0040 C90D     		lsrs	r1, r1, #23
  63              		.loc 1 41 15 view .LVU8
  64 0042 8DF80910 		strb	r1, [sp, #9]
  42:Drivers/lvgl/src/misc/lv_color_op.c ****     ret.blue = LV_UDIV255((uint16_t)c1.blue * mix + c2.blue * (255 - mix) + LV_COLOR_MIX_ROUND_OFS)
  65              		.loc 1 42 5 is_stmt 1 view .LVU9
  66              		.loc 1 42 16 is_stmt 0 view .LVU10
  67 0046 9DF80410 		ldrb	r1, [sp, #4]	@ zero_extendqisi2
  68 004a 9DF80000 		ldrb	r0, [sp]	@ zero_extendqisi2
  69 004e 00FB03F3 		mul	r3, r0, r3
  70 0052 01FB0232 		mla	r2, r1, r2, r3
  71              	.LVL1:
  72              		.loc 1 42 16 view .LVU11
  73 0056 02EB0223 		add	r3, r2, r2, lsl #8
ARM GAS  /var/folders/qx/2_175_4n2s19vhvtspjhb3qh0000gn/T//ccY6oGWi.s 			page 3


  74 005a 02EBC312 		add	r2, r2, r3, lsl #7
  75 005e D20D     		lsrs	r2, r2, #23
  76              		.loc 1 42 14 view .LVU12
  77 0060 8DF80820 		strb	r2, [sp, #8]
  43:Drivers/lvgl/src/misc/lv_color_op.c ****     return ret;
  78              		.loc 1 43 5 is_stmt 1 view .LVU13
  79              		.loc 1 43 12 is_stmt 0 view .LVU14
  80 0064 029B     		ldr	r3, [sp, #8]
  81 0066 ADF80C30 		strh	r3, [sp, #12]	@ movhi
  82 006a 1B0C     		lsrs	r3, r3, #16
  83 006c 8DF80E30 		strb	r3, [sp, #14]
  84 0070 0020     		movs	r0, #0
  85 0072 9DF80C30 		ldrb	r3, [sp, #12]	@ zero_extendqisi2
  86 0076 63F30700 		bfi	r0, r3, #0, #8
  87 007a 9DF80D30 		ldrb	r3, [sp, #13]	@ zero_extendqisi2
  88 007e 63F30F20 		bfi	r0, r3, #8, #8
  89 0082 9DF80E30 		ldrb	r3, [sp, #14]	@ zero_extendqisi2
  90 0086 63F31740 		bfi	r0, r3, #16, #8
  44:Drivers/lvgl/src/misc/lv_color_op.c **** }
  91              		.loc 1 44 1 view .LVU15
  92 008a 04B0     		add	sp, sp, #16
  93              	.LCFI1:
  94              		.cfi_def_cfa_offset 0
  95              		@ sp needed
  96 008c 7047     		bx	lr
  97              		.cfi_endproc
  98              	.LFE6:
 100              		.section	.text.lv_color_mix32,"ax",%progbits
 101              		.align	1
 102              		.global	lv_color_mix32
 103              		.syntax unified
 104              		.thumb
 105              		.thumb_func
 107              	lv_color_mix32:
 108              	.LFB7:
  45:Drivers/lvgl/src/misc/lv_color_op.c **** 
  46:Drivers/lvgl/src/misc/lv_color_op.c **** lv_color32_t lv_color_mix32(lv_color32_t fg, lv_color32_t bg)
  47:Drivers/lvgl/src/misc/lv_color_op.c **** {
 109              		.loc 1 47 1 is_stmt 1 view -0
 110              		.cfi_startproc
 111              		@ args = 0, pretend = 0, frame = 16
 112              		@ frame_needed = 0, uses_anonymous_args = 0
 113              		@ link register save eliminated.
 114 0000 84B0     		sub	sp, sp, #16
 115              	.LCFI2:
 116              		.cfi_def_cfa_offset 16
 117 0002 0190     		str	r0, [sp, #4]
 118 0004 0091     		str	r1, [sp]
  48:Drivers/lvgl/src/misc/lv_color_op.c ****     if(fg.alpha >= LV_OPA_MAX) {
 119              		.loc 1 48 5 view .LVU17
 120              		.loc 1 48 10 is_stmt 0 view .LVU18
 121 0006 9DF80710 		ldrb	r1, [sp, #7]	@ zero_extendqisi2
 122              		.loc 1 48 7 view .LVU19
 123 000a FC29     		cmp	r1, #252
 124 000c 45D8     		bhi	.L8
  49:Drivers/lvgl/src/misc/lv_color_op.c ****         fg.alpha = bg.alpha;
  50:Drivers/lvgl/src/misc/lv_color_op.c ****         return fg;
ARM GAS  /var/folders/qx/2_175_4n2s19vhvtspjhb3qh0000gn/T//ccY6oGWi.s 			page 4


  51:Drivers/lvgl/src/misc/lv_color_op.c ****     }
  52:Drivers/lvgl/src/misc/lv_color_op.c ****     if(fg.alpha <= LV_OPA_MIN) {
 125              		.loc 1 52 5 is_stmt 1 view .LVU20
 126              		.loc 1 52 7 is_stmt 0 view .LVU21
 127 000e 0229     		cmp	r1, #2
 128 0010 4AD9     		bls	.L9
  53:Drivers/lvgl/src/misc/lv_color_op.c ****         return bg;
  54:Drivers/lvgl/src/misc/lv_color_op.c ****     }
  55:Drivers/lvgl/src/misc/lv_color_op.c ****     bg.red = LV_UDIV255((uint32_t)((uint32_t)fg.red * fg.alpha + (uint32_t)bg.red * (255 - fg.alpha
 129              		.loc 1 55 5 is_stmt 1 view .LVU22
 130              		.loc 1 55 14 is_stmt 0 view .LVU23
 131 0012 9DF80600 		ldrb	r0, [sp, #6]	@ zero_extendqisi2
 132 0016 9DF80220 		ldrb	r2, [sp, #2]	@ zero_extendqisi2
 133 001a C1F1FF03 		rsb	r3, r1, #255
 134 001e 03FB02F2 		mul	r2, r3, r2
 135 0022 01FB0022 		mla	r2, r1, r0, r2
 136 0026 02EB0220 		add	r0, r2, r2, lsl #8
 137 002a 02EBC012 		add	r2, r2, r0, lsl #7
 138 002e D20D     		lsrs	r2, r2, #23
 139              		.loc 1 55 12 view .LVU24
 140 0030 8DF80220 		strb	r2, [sp, #2]
  56:Drivers/lvgl/src/misc/lv_color_op.c ****     bg.green = LV_UDIV255((uint32_t)((uint32_t)fg.green * fg.alpha + (uint32_t)bg.green * (255 - fg
 141              		.loc 1 56 5 is_stmt 1 view .LVU25
 142              		.loc 1 56 16 is_stmt 0 view .LVU26
 143 0034 9DF80500 		ldrb	r0, [sp, #5]	@ zero_extendqisi2
 144 0038 9DF80120 		ldrb	r2, [sp, #1]	@ zero_extendqisi2
 145 003c 03FB02F2 		mul	r2, r3, r2
 146 0040 00FB0122 		mla	r2, r0, r1, r2
 147 0044 02EB0220 		add	r0, r2, r2, lsl #8
 148 0048 02EBC012 		add	r2, r2, r0, lsl #7
 149 004c D20D     		lsrs	r2, r2, #23
 150              		.loc 1 56 14 view .LVU27
 151 004e 8DF80120 		strb	r2, [sp, #1]
  57:Drivers/lvgl/src/misc/lv_color_op.c ****     bg.blue = LV_UDIV255((uint32_t)((uint32_t)fg.blue * fg.alpha + (uint32_t)bg.blue * (255 - fg.al
 152              		.loc 1 57 5 is_stmt 1 view .LVU28
 153              		.loc 1 57 15 is_stmt 0 view .LVU29
 154 0052 9DF80420 		ldrb	r2, [sp, #4]	@ zero_extendqisi2
 155 0056 9DF80000 		ldrb	r0, [sp]	@ zero_extendqisi2
 156 005a 00FB03F3 		mul	r3, r0, r3
 157 005e 02FB0133 		mla	r3, r2, r1, r3
 158 0062 03EB0322 		add	r2, r3, r3, lsl #8
 159 0066 03EBC213 		add	r3, r3, r2, lsl #7
 160 006a DB0D     		lsrs	r3, r3, #23
 161              		.loc 1 57 13 view .LVU30
 162 006c 8DF80030 		strb	r3, [sp]
  58:Drivers/lvgl/src/misc/lv_color_op.c ****     return bg;
 163              		.loc 1 58 5 is_stmt 1 view .LVU31
 164              		.loc 1 58 12 is_stmt 0 view .LVU32
 165 0070 009B     		ldr	r3, [sp]
 166 0072 0393     		str	r3, [sp, #12]
 167              	.L5:
  59:Drivers/lvgl/src/misc/lv_color_op.c **** }
 168              		.loc 1 59 1 view .LVU33
 169 0074 0020     		movs	r0, #0
 170 0076 9DF80C30 		ldrb	r3, [sp, #12]	@ zero_extendqisi2
 171 007a 63F30700 		bfi	r0, r3, #0, #8
 172 007e 9DF80D30 		ldrb	r3, [sp, #13]	@ zero_extendqisi2
ARM GAS  /var/folders/qx/2_175_4n2s19vhvtspjhb3qh0000gn/T//ccY6oGWi.s 			page 5


 173 0082 63F30F20 		bfi	r0, r3, #8, #8
 174 0086 9DF80E30 		ldrb	r3, [sp, #14]	@ zero_extendqisi2
 175 008a 63F31740 		bfi	r0, r3, #16, #8
 176 008e 9DF80F30 		ldrb	r3, [sp, #15]	@ zero_extendqisi2
 177 0092 63F31F60 		bfi	r0, r3, #24, #8
 178 0096 04B0     		add	sp, sp, #16
 179              	.LCFI3:
 180              		.cfi_remember_state
 181              		.cfi_def_cfa_offset 0
 182              		@ sp needed
 183 0098 7047     		bx	lr
 184              	.L8:
 185              	.LCFI4:
 186              		.cfi_restore_state
  49:Drivers/lvgl/src/misc/lv_color_op.c ****         return fg;
 187              		.loc 1 49 9 is_stmt 1 view .LVU34
  49:Drivers/lvgl/src/misc/lv_color_op.c ****         return fg;
 188              		.loc 1 49 22 is_stmt 0 view .LVU35
 189 009a 9DF80330 		ldrb	r3, [sp, #3]	@ zero_extendqisi2
  49:Drivers/lvgl/src/misc/lv_color_op.c ****         return fg;
 190              		.loc 1 49 18 view .LVU36
 191 009e 8DF80730 		strb	r3, [sp, #7]
  50:Drivers/lvgl/src/misc/lv_color_op.c ****     }
 192              		.loc 1 50 9 is_stmt 1 view .LVU37
  50:Drivers/lvgl/src/misc/lv_color_op.c ****     }
 193              		.loc 1 50 16 is_stmt 0 view .LVU38
 194 00a2 019B     		ldr	r3, [sp, #4]
 195 00a4 0393     		str	r3, [sp, #12]
 196 00a6 E5E7     		b	.L5
 197              	.L9:
  53:Drivers/lvgl/src/misc/lv_color_op.c ****     }
 198              		.loc 1 53 9 is_stmt 1 view .LVU39
  53:Drivers/lvgl/src/misc/lv_color_op.c ****     }
 199              		.loc 1 53 16 is_stmt 0 view .LVU40
 200 00a8 009B     		ldr	r3, [sp]
 201 00aa 0393     		str	r3, [sp, #12]
 202 00ac E2E7     		b	.L5
 203              		.cfi_endproc
 204              	.LFE7:
 206              		.section	.text.lv_color_mix32_premultiplied,"ax",%progbits
 207              		.align	1
 208              		.global	lv_color_mix32_premultiplied
 209              		.syntax unified
 210              		.thumb
 211              		.thumb_func
 213              	lv_color_mix32_premultiplied:
 214              	.LFB8:
  60:Drivers/lvgl/src/misc/lv_color_op.c **** 
  61:Drivers/lvgl/src/misc/lv_color_op.c **** lv_color32_t lv_color_mix32_premultiplied(lv_color32_t fg, lv_color32_t bg)
  62:Drivers/lvgl/src/misc/lv_color_op.c **** {
 215              		.loc 1 62 1 is_stmt 1 view -0
 216              		.cfi_startproc
 217              		@ args = 0, pretend = 0, frame = 16
 218              		@ frame_needed = 0, uses_anonymous_args = 0
 219              		@ link register save eliminated.
 220 0000 84B0     		sub	sp, sp, #16
 221              	.LCFI5:
ARM GAS  /var/folders/qx/2_175_4n2s19vhvtspjhb3qh0000gn/T//ccY6oGWi.s 			page 6


 222              		.cfi_def_cfa_offset 16
 223 0002 0190     		str	r0, [sp, #4]
 224 0004 0091     		str	r1, [sp]
  63:Drivers/lvgl/src/misc/lv_color_op.c ****     if(fg.alpha >= LV_OPA_MAX) {
 225              		.loc 1 63 5 view .LVU42
 226              		.loc 1 63 10 is_stmt 0 view .LVU43
 227 0006 9DF80730 		ldrb	r3, [sp, #7]	@ zero_extendqisi2
 228              		.loc 1 63 7 view .LVU44
 229 000a FC2B     		cmp	r3, #252
 230 000c 36D8     		bhi	.L15
  64:Drivers/lvgl/src/misc/lv_color_op.c ****         return fg;  /* Fully opaque foreground replaces background */
  65:Drivers/lvgl/src/misc/lv_color_op.c ****     }
  66:Drivers/lvgl/src/misc/lv_color_op.c ****     if(fg.alpha <= LV_OPA_MIN) {
 231              		.loc 1 66 5 is_stmt 1 view .LVU45
 232              		.loc 1 66 7 is_stmt 0 view .LVU46
 233 000e 022B     		cmp	r3, #2
 234 0010 36D9     		bls	.L16
  67:Drivers/lvgl/src/misc/lv_color_op.c ****         return bg;  /* Fully transparent foreground, return background */
  68:Drivers/lvgl/src/misc/lv_color_op.c ****     }
  69:Drivers/lvgl/src/misc/lv_color_op.c **** 
  70:Drivers/lvgl/src/misc/lv_color_op.c ****     uint32_t inv_fg_alpha = LV_OPA_MAX - fg.alpha;
 235              		.loc 1 70 5 is_stmt 1 view .LVU47
 236              		.loc 1 70 40 is_stmt 0 view .LVU48
 237 0012 C3F1FD03 		rsb	r3, r3, #253
 238              	.LVL2:
  71:Drivers/lvgl/src/misc/lv_color_op.c **** 
  72:Drivers/lvgl/src/misc/lv_color_op.c ****     /* Premultiplied blending */
  73:Drivers/lvgl/src/misc/lv_color_op.c ****     bg.red   = fg.red   + ((bg.red   * inv_fg_alpha) >> 8);
 239              		.loc 1 73 5 is_stmt 1 view .LVU49
 240              		.loc 1 73 18 is_stmt 0 view .LVU50
 241 0016 9DF80620 		ldrb	r2, [sp, #6]	@ zero_extendqisi2
 242              		.loc 1 73 31 view .LVU51
 243 001a 9DF80210 		ldrb	r1, [sp, #2]	@ zero_extendqisi2
 244              		.loc 1 73 38 view .LVU52
 245 001e 03FB01F1 		mul	r1, r3, r1
 246              		.loc 1 73 25 view .LVU53
 247 0022 02EB1122 		add	r2, r2, r1, lsr #8
 248              		.loc 1 73 14 view .LVU54
 249 0026 8DF80220 		strb	r2, [sp, #2]
  74:Drivers/lvgl/src/misc/lv_color_op.c ****     bg.green = fg.green + ((bg.green * inv_fg_alpha) >> 8);
 250              		.loc 1 74 5 is_stmt 1 view .LVU55
 251              		.loc 1 74 18 is_stmt 0 view .LVU56
 252 002a 9DF80520 		ldrb	r2, [sp, #5]	@ zero_extendqisi2
 253              		.loc 1 74 31 view .LVU57
 254 002e 9DF80110 		ldrb	r1, [sp, #1]	@ zero_extendqisi2
 255              		.loc 1 74 38 view .LVU58
 256 0032 03FB01F1 		mul	r1, r3, r1
 257              		.loc 1 74 25 view .LVU59
 258 0036 02EB1122 		add	r2, r2, r1, lsr #8
 259              		.loc 1 74 14 view .LVU60
 260 003a 8DF80120 		strb	r2, [sp, #1]
  75:Drivers/lvgl/src/misc/lv_color_op.c ****     bg.blue  = fg.blue  + ((bg.blue  * inv_fg_alpha) >> 8);
 261              		.loc 1 75 5 is_stmt 1 view .LVU61
 262              		.loc 1 75 18 is_stmt 0 view .LVU62
 263 003e 9DF80420 		ldrb	r2, [sp, #4]	@ zero_extendqisi2
 264              		.loc 1 75 31 view .LVU63
 265 0042 9DF80010 		ldrb	r1, [sp]	@ zero_extendqisi2
ARM GAS  /var/folders/qx/2_175_4n2s19vhvtspjhb3qh0000gn/T//ccY6oGWi.s 			page 7


 266              		.loc 1 75 38 view .LVU64
 267 0046 01FB03F3 		mul	r3, r1, r3
 268              	.LVL3:
 269              		.loc 1 75 25 view .LVU65
 270 004a 02EB1323 		add	r3, r2, r3, lsr #8
 271              		.loc 1 75 14 view .LVU66
 272 004e 8DF80030 		strb	r3, [sp]
  76:Drivers/lvgl/src/misc/lv_color_op.c **** 
  77:Drivers/lvgl/src/misc/lv_color_op.c ****     return bg;
 273              		.loc 1 77 5 is_stmt 1 view .LVU67
 274              		.loc 1 77 12 is_stmt 0 view .LVU68
 275 0052 009B     		ldr	r3, [sp]
 276 0054 0393     		str	r3, [sp, #12]
 277              	.LVL4:
 278              	.L12:
  78:Drivers/lvgl/src/misc/lv_color_op.c **** }
 279              		.loc 1 78 1 view .LVU69
 280 0056 0020     		movs	r0, #0
 281 0058 9DF80C30 		ldrb	r3, [sp, #12]	@ zero_extendqisi2
 282 005c 63F30700 		bfi	r0, r3, #0, #8
 283 0060 9DF80D30 		ldrb	r3, [sp, #13]	@ zero_extendqisi2
 284 0064 63F30F20 		bfi	r0, r3, #8, #8
 285 0068 9DF80E30 		ldrb	r3, [sp, #14]	@ zero_extendqisi2
 286 006c 63F31740 		bfi	r0, r3, #16, #8
 287 0070 9DF80F30 		ldrb	r3, [sp, #15]	@ zero_extendqisi2
 288 0074 63F31F60 		bfi	r0, r3, #24, #8
 289 0078 04B0     		add	sp, sp, #16
 290              	.LCFI6:
 291              		.cfi_remember_state
 292              		.cfi_def_cfa_offset 0
 293              		@ sp needed
 294 007a 7047     		bx	lr
 295              	.L15:
 296              	.LCFI7:
 297              		.cfi_restore_state
  64:Drivers/lvgl/src/misc/lv_color_op.c ****     }
 298              		.loc 1 64 9 is_stmt 1 view .LVU70
  64:Drivers/lvgl/src/misc/lv_color_op.c ****     }
 299              		.loc 1 64 16 is_stmt 0 view .LVU71
 300 007c 0390     		str	r0, [sp, #12]
 301 007e EAE7     		b	.L12
 302              	.L16:
  67:Drivers/lvgl/src/misc/lv_color_op.c ****     }
 303              		.loc 1 67 9 is_stmt 1 view .LVU72
  67:Drivers/lvgl/src/misc/lv_color_op.c ****     }
 304              		.loc 1 67 16 is_stmt 0 view .LVU73
 305 0080 009B     		ldr	r3, [sp]
 306 0082 0393     		str	r3, [sp, #12]
 307 0084 E7E7     		b	.L12
 308              		.cfi_endproc
 309              	.LFE8:
 311              		.section	.text.lv_color_brightness,"ax",%progbits
 312              		.align	1
 313              		.global	lv_color_brightness
 314              		.syntax unified
 315              		.thumb
 316              		.thumb_func
ARM GAS  /var/folders/qx/2_175_4n2s19vhvtspjhb3qh0000gn/T//ccY6oGWi.s 			page 8


 318              	lv_color_brightness:
 319              	.LFB9:
  79:Drivers/lvgl/src/misc/lv_color_op.c **** 
  80:Drivers/lvgl/src/misc/lv_color_op.c **** uint8_t lv_color_brightness(lv_color_t c)
  81:Drivers/lvgl/src/misc/lv_color_op.c **** {
 320              		.loc 1 81 1 is_stmt 1 view -0
 321              		.cfi_startproc
 322              		@ args = 0, pretend = 0, frame = 8
 323              		@ frame_needed = 0, uses_anonymous_args = 0
 324              		@ link register save eliminated.
 325 0000 82B0     		sub	sp, sp, #8
 326              	.LCFI8:
 327              		.cfi_def_cfa_offset 8
 328 0002 0190     		str	r0, [sp, #4]
  82:Drivers/lvgl/src/misc/lv_color_op.c ****     uint16_t bright = (uint16_t)(3u * c.red + c.green + 4u * c.blue);
 329              		.loc 1 82 5 view .LVU75
 330              		.loc 1 82 40 is_stmt 0 view .LVU76
 331 0004 9DF80600 		ldrb	r0, [sp, #6]	@ zero_extendqisi2
 332              		.loc 1 82 37 view .LVU77
 333 0008 00EB4000 		add	r0, r0, r0, lsl #1
 334              		.loc 1 82 63 view .LVU78
 335 000c 9DF80430 		ldrb	r3, [sp, #4]	@ zero_extendqisi2
 336              		.loc 1 82 55 view .LVU79
 337 0010 00EB8300 		add	r0, r0, r3, lsl #2
 338              		.loc 1 82 48 view .LVU80
 339 0014 9DF80530 		ldrb	r3, [sp, #5]	@ zero_extendqisi2
 340              		.loc 1 82 14 view .LVU81
 341 0018 1844     		add	r0, r0, r3
 342              	.LVL5:
  83:Drivers/lvgl/src/misc/lv_color_op.c ****     return (uint8_t)(bright >> 3);
 343              		.loc 1 83 5 is_stmt 1 view .LVU82
  84:Drivers/lvgl/src/misc/lv_color_op.c **** }
 344              		.loc 1 84 1 is_stmt 0 view .LVU83
 345 001a C0F3C700 		ubfx	r0, r0, #3, #8
 346              	.LVL6:
 347              		.loc 1 84 1 view .LVU84
 348 001e 02B0     		add	sp, sp, #8
 349              	.LCFI9:
 350              		.cfi_def_cfa_offset 0
 351              	.LVL7:
 352              		.loc 1 84 1 view .LVU85
 353              		@ sp needed
 354 0020 7047     		bx	lr
 355              		.cfi_endproc
 356              	.LFE9:
 358              		.section	.text.lv_color_filter_dsc_init,"ax",%progbits
 359              		.align	1
 360              		.global	lv_color_filter_dsc_init
 361              		.syntax unified
 362              		.thumb
 363              		.thumb_func
 365              	lv_color_filter_dsc_init:
 366              	.LVL8:
 367              	.LFB10:
  85:Drivers/lvgl/src/misc/lv_color_op.c **** 
  86:Drivers/lvgl/src/misc/lv_color_op.c **** void lv_color_filter_dsc_init(lv_color_filter_dsc_t * dsc, lv_color_filter_cb_t cb)
  87:Drivers/lvgl/src/misc/lv_color_op.c **** {
ARM GAS  /var/folders/qx/2_175_4n2s19vhvtspjhb3qh0000gn/T//ccY6oGWi.s 			page 9


 368              		.loc 1 87 1 is_stmt 1 view -0
 369              		.cfi_startproc
 370              		@ args = 0, pretend = 0, frame = 0
 371              		@ frame_needed = 0, uses_anonymous_args = 0
 372              		@ link register save eliminated.
  88:Drivers/lvgl/src/misc/lv_color_op.c ****     dsc->filter_cb = cb;
 373              		.loc 1 88 5 view .LVU87
 374              		.loc 1 88 20 is_stmt 0 view .LVU88
 375 0000 0160     		str	r1, [r0]
  89:Drivers/lvgl/src/misc/lv_color_op.c **** }
 376              		.loc 1 89 1 view .LVU89
 377 0002 7047     		bx	lr
 378              		.cfi_endproc
 379              	.LFE10:
 381              		.section	.text.lv_color_over32,"ax",%progbits
 382              		.align	1
 383              		.global	lv_color_over32
 384              		.syntax unified
 385              		.thumb
 386              		.thumb_func
 388              	lv_color_over32:
 389              	.LFB11:
  90:Drivers/lvgl/src/misc/lv_color_op.c **** 
  91:Drivers/lvgl/src/misc/lv_color_op.c **** lv_color32_t lv_color_over32(lv_color32_t fg, lv_color32_t bg)
  92:Drivers/lvgl/src/misc/lv_color_op.c **** {
 390              		.loc 1 92 1 is_stmt 1 view -0
 391              		.cfi_startproc
 392              		@ args = 0, pretend = 0, frame = 16
 393              		@ frame_needed = 0, uses_anonymous_args = 0
 394 0000 10B5     		push	{r4, lr}
 395              	.LCFI10:
 396              		.cfi_def_cfa_offset 8
 397              		.cfi_offset 4, -8
 398              		.cfi_offset 14, -4
 399 0002 84B0     		sub	sp, sp, #16
 400              	.LCFI11:
 401              		.cfi_def_cfa_offset 24
 402 0004 0190     		str	r0, [sp, #4]
 403 0006 0091     		str	r1, [sp]
  93:Drivers/lvgl/src/misc/lv_color_op.c ****     if(fg.alpha >= LV_OPA_MAX || bg.alpha <= LV_OPA_MIN) {
 404              		.loc 1 93 5 view .LVU91
 405              		.loc 1 93 10 is_stmt 0 view .LVU92
 406 0008 9DF80730 		ldrb	r3, [sp, #7]	@ zero_extendqisi2
 407              		.loc 1 93 7 view .LVU93
 408 000c FC2B     		cmp	r3, #252
 409 000e 21D8     		bhi	.L21
 410              		.loc 1 93 36 discriminator 1 view .LVU94
 411 0010 9DF80320 		ldrb	r2, [sp, #3]	@ zero_extendqisi2
 412              		.loc 1 93 31 discriminator 1 view .LVU95
 413 0014 022A     		cmp	r2, #2
 414 0016 1DD9     		bls	.L21
  94:Drivers/lvgl/src/misc/lv_color_op.c ****         return fg;
  95:Drivers/lvgl/src/misc/lv_color_op.c ****     }
  96:Drivers/lvgl/src/misc/lv_color_op.c ****     else if(fg.alpha <= LV_OPA_MIN) {
 415              		.loc 1 96 10 is_stmt 1 view .LVU96
 416              		.loc 1 96 12 is_stmt 0 view .LVU97
 417 0018 022B     		cmp	r3, #2
ARM GAS  /var/folders/qx/2_175_4n2s19vhvtspjhb3qh0000gn/T//ccY6oGWi.s 			page 10


 418 001a 30D9     		bls	.L27
  97:Drivers/lvgl/src/misc/lv_color_op.c ****         return bg;
  98:Drivers/lvgl/src/misc/lv_color_op.c ****     }
  99:Drivers/lvgl/src/misc/lv_color_op.c ****     else if(bg.alpha == 255) {
 419              		.loc 1 99 10 is_stmt 1 view .LVU98
 420              		.loc 1 99 12 is_stmt 0 view .LVU99
 421 001c FF2A     		cmp	r2, #255
 422 001e 31D0     		beq	.L28
 100:Drivers/lvgl/src/misc/lv_color_op.c ****         return lv_color_mix32(fg, bg);
 101:Drivers/lvgl/src/misc/lv_color_op.c ****     }
 102:Drivers/lvgl/src/misc/lv_color_op.c **** 
 103:Drivers/lvgl/src/misc/lv_color_op.c ****     lv_opa_t res_alpha  = 255 - LV_OPA_MIX2(255 - fg.alpha, 255 - bg.alpha);
 423              		.loc 1 103 5 is_stmt 1 view .LVU100
 424              		.loc 1 103 33 is_stmt 0 view .LVU101
 425 0020 C3F1FF04 		rsb	r4, r3, #255
 426 0024 C2F1FF02 		rsb	r2, r2, #255
 427 0028 02FB04F4 		mul	r4, r2, r4
 428 002c C4F30724 		ubfx	r4, r4, #8, #8
 429              		.loc 1 103 14 view .LVU102
 430 0030 E443     		mvns	r4, r4
 431 0032 E4B2     		uxtb	r4, r4
 432              	.LVL9:
 104:Drivers/lvgl/src/misc/lv_color_op.c ****     lv_opa_t ratio = (uint32_t)((uint32_t)fg.alpha * 255) / res_alpha;
 433              		.loc 1 104 5 is_stmt 1 view .LVU103
 434              		.loc 1 104 22 is_stmt 0 view .LVU104
 435 0034 C3EB0323 		rsb	r3, r3, r3, lsl #8
 436              		.loc 1 104 59 view .LVU105
 437 0038 B3FBF4F3 		udiv	r3, r3, r4
 438              	.LVL10:
 105:Drivers/lvgl/src/misc/lv_color_op.c ****     fg.alpha = ratio;
 439              		.loc 1 105 5 is_stmt 1 view .LVU106
 440              		.loc 1 105 14 is_stmt 0 view .LVU107
 441 003c 8DF80730 		strb	r3, [sp, #7]
 106:Drivers/lvgl/src/misc/lv_color_op.c ****     lv_color32_t res = lv_color_mix32(fg, bg);
 442              		.loc 1 106 5 is_stmt 1 view .LVU108
 443              		.loc 1 106 24 is_stmt 0 view .LVU109
 444 0040 0099     		ldr	r1, [sp]
 445 0042 0198     		ldr	r0, [sp, #4]
 446 0044 FFF7FEFF 		bl	lv_color_mix32
 447              	.LVL11:
 448              		.loc 1 106 24 view .LVU110
 449 0048 0290     		str	r0, [sp, #8]
 107:Drivers/lvgl/src/misc/lv_color_op.c ****     res.alpha = res_alpha;
 450              		.loc 1 107 5 is_stmt 1 view .LVU111
 451              		.loc 1 107 15 is_stmt 0 view .LVU112
 452 004a 8DF80B40 		strb	r4, [sp, #11]
 108:Drivers/lvgl/src/misc/lv_color_op.c **** 
 109:Drivers/lvgl/src/misc/lv_color_op.c ****     return res;
 453              		.loc 1 109 5 is_stmt 1 view .LVU113
 454              		.loc 1 109 12 is_stmt 0 view .LVU114
 455 004e 029B     		ldr	r3, [sp, #8]
 456 0050 0393     		str	r3, [sp, #12]
 457 0052 01E0     		b	.L23
 458              	.LVL12:
 459              	.L21:
  94:Drivers/lvgl/src/misc/lv_color_op.c ****     }
 460              		.loc 1 94 9 is_stmt 1 view .LVU115
ARM GAS  /var/folders/qx/2_175_4n2s19vhvtspjhb3qh0000gn/T//ccY6oGWi.s 			page 11


  94:Drivers/lvgl/src/misc/lv_color_op.c ****     }
 461              		.loc 1 94 16 is_stmt 0 view .LVU116
 462 0054 019B     		ldr	r3, [sp, #4]
 463 0056 0393     		str	r3, [sp, #12]
 464              	.L23:
 110:Drivers/lvgl/src/misc/lv_color_op.c **** }
 465              		.loc 1 110 1 view .LVU117
 466 0058 0020     		movs	r0, #0
 467 005a 9DF80C30 		ldrb	r3, [sp, #12]	@ zero_extendqisi2
 468 005e 63F30700 		bfi	r0, r3, #0, #8
 469 0062 9DF80D30 		ldrb	r3, [sp, #13]	@ zero_extendqisi2
 470 0066 63F30F20 		bfi	r0, r3, #8, #8
 471 006a 9DF80E30 		ldrb	r3, [sp, #14]	@ zero_extendqisi2
 472 006e 63F31740 		bfi	r0, r3, #16, #8
 473 0072 9DF80F30 		ldrb	r3, [sp, #15]	@ zero_extendqisi2
 474 0076 63F31F60 		bfi	r0, r3, #24, #8
 475 007a 04B0     		add	sp, sp, #16
 476              	.LCFI12:
 477              		.cfi_remember_state
 478              		.cfi_def_cfa_offset 8
 479              		@ sp needed
 480 007c 10BD     		pop	{r4, pc}
 481              	.L27:
 482              	.LCFI13:
 483              		.cfi_restore_state
  97:Drivers/lvgl/src/misc/lv_color_op.c ****     }
 484              		.loc 1 97 9 is_stmt 1 view .LVU118
  97:Drivers/lvgl/src/misc/lv_color_op.c ****     }
 485              		.loc 1 97 16 is_stmt 0 view .LVU119
 486 007e 009B     		ldr	r3, [sp]
 487 0080 0393     		str	r3, [sp, #12]
 488 0082 E9E7     		b	.L23
 489              	.L28:
 100:Drivers/lvgl/src/misc/lv_color_op.c ****     }
 490              		.loc 1 100 9 is_stmt 1 view .LVU120
 100:Drivers/lvgl/src/misc/lv_color_op.c ****     }
 491              		.loc 1 100 16 is_stmt 0 view .LVU121
 492 0084 0099     		ldr	r1, [sp]
 493 0086 0198     		ldr	r0, [sp, #4]
 494 0088 FFF7FEFF 		bl	lv_color_mix32
 495              	.LVL13:
 496 008c 0390     		str	r0, [sp, #12]
 497 008e E3E7     		b	.L23
 498              		.cfi_endproc
 499              	.LFE11:
 501              		.text
 502              	.Letext0:
 503              		.file 2 "/Applications/ArmGNUToolchain/14.3.rel1/arm-none-eabi/arm-none-eabi/include/machine/_defa
 504              		.file 3 "/Applications/ArmGNUToolchain/14.3.rel1/arm-none-eabi/arm-none-eabi/include/sys/_stdint.h
 505              		.file 4 "Drivers/lvgl/src/misc/lv_types.h"
 506              		.file 5 "Drivers/lvgl/src/misc/lv_color_op.h"
 507              		.file 6 "Drivers/lvgl/src/misc/lv_color.h"
ARM GAS  /var/folders/qx/2_175_4n2s19vhvtspjhb3qh0000gn/T//ccY6oGWi.s 			page 12

