ARM GAS  /var/folders/qx/2_175_4n2s19vhvtspjhb3qh0000gn/T//ccDf6XOr.s 			page 1


   1              		.cpu cortex-m4
   2              		.arch armv7e-m
   3              		.fpu fpv4-sp-d16
   4              		.eabi_attribute 27, 1
   5              		.eabi_attribute 28, 1
   6              		.eabi_attribute 20, 1
   7              		.eabi_attribute 21, 1
   8              		.eabi_attribute 23, 3
   9              		.eabi_attribute 24, 1
  10              		.eabi_attribute 25, 1
  11              		.eabi_attribute 26, 1
  12              		.eabi_attribute 30, 1
  13              		.eabi_attribute 34, 1
  14              		.eabi_attribute 18, 4
  15              		.file	"lv_circle_buf.c"
  16              		.text
  17              	.Ltext0:
  18              		.cfi_sections	.debug_frame
  19              		.file 1 "Drivers/lvgl/src/misc/lv_circle_buf.c"
  20              		.section	.text.circle_buf_prepare_empty,"ax",%progbits
  21              		.align	1
  22              		.syntax unified
  23              		.thumb
  24              		.thumb_func
  26              	circle_buf_prepare_empty:
  27              	.LVL0:
  28              	.LFB28:
   1:Drivers/lvgl/src/misc/lv_circle_buf.c **** /**
   2:Drivers/lvgl/src/misc/lv_circle_buf.c ****  * @file lv_circle_buf.c
   3:Drivers/lvgl/src/misc/lv_circle_buf.c ****  *
   4:Drivers/lvgl/src/misc/lv_circle_buf.c ****  */
   5:Drivers/lvgl/src/misc/lv_circle_buf.c **** 
   6:Drivers/lvgl/src/misc/lv_circle_buf.c **** /*********************
   7:Drivers/lvgl/src/misc/lv_circle_buf.c ****  *      INCLUDES
   8:Drivers/lvgl/src/misc/lv_circle_buf.c ****  *********************/
   9:Drivers/lvgl/src/misc/lv_circle_buf.c **** 
  10:Drivers/lvgl/src/misc/lv_circle_buf.c **** #include "lv_assert.h"
  11:Drivers/lvgl/src/misc/lv_circle_buf.c **** 
  12:Drivers/lvgl/src/misc/lv_circle_buf.c **** #include "lv_circle_buf.h"
  13:Drivers/lvgl/src/misc/lv_circle_buf.c **** #include "lv_array.h"
  14:Drivers/lvgl/src/misc/lv_circle_buf.c **** 
  15:Drivers/lvgl/src/misc/lv_circle_buf.c **** /*********************
  16:Drivers/lvgl/src/misc/lv_circle_buf.c ****  *      DEFINES
  17:Drivers/lvgl/src/misc/lv_circle_buf.c ****  *********************/
  18:Drivers/lvgl/src/misc/lv_circle_buf.c **** 
  19:Drivers/lvgl/src/misc/lv_circle_buf.c **** /**********************
  20:Drivers/lvgl/src/misc/lv_circle_buf.c ****  *      TYPEDEFS
  21:Drivers/lvgl/src/misc/lv_circle_buf.c ****  **********************/
  22:Drivers/lvgl/src/misc/lv_circle_buf.c **** 
  23:Drivers/lvgl/src/misc/lv_circle_buf.c **** struct _lv_circle_buf_t {
  24:Drivers/lvgl/src/misc/lv_circle_buf.c ****     lv_array_t array;
  25:Drivers/lvgl/src/misc/lv_circle_buf.c ****     uint32_t head;
  26:Drivers/lvgl/src/misc/lv_circle_buf.c ****     uint32_t tail;    /**< The next write position */
  27:Drivers/lvgl/src/misc/lv_circle_buf.c **** 
  28:Drivers/lvgl/src/misc/lv_circle_buf.c ****     bool inner_alloc; /**< true: the array is allocated by the buffer, false: the array is created 
  29:Drivers/lvgl/src/misc/lv_circle_buf.c **** };
  30:Drivers/lvgl/src/misc/lv_circle_buf.c **** 
ARM GAS  /var/folders/qx/2_175_4n2s19vhvtspjhb3qh0000gn/T//ccDf6XOr.s 			page 2


  31:Drivers/lvgl/src/misc/lv_circle_buf.c **** /**********************
  32:Drivers/lvgl/src/misc/lv_circle_buf.c ****  *  STATIC PROTOTYPES
  33:Drivers/lvgl/src/misc/lv_circle_buf.c ****  **********************/
  34:Drivers/lvgl/src/misc/lv_circle_buf.c **** 
  35:Drivers/lvgl/src/misc/lv_circle_buf.c **** static void circle_buf_prepare_empty(lv_circle_buf_t * circle_buf);
  36:Drivers/lvgl/src/misc/lv_circle_buf.c **** 
  37:Drivers/lvgl/src/misc/lv_circle_buf.c **** /**********************
  38:Drivers/lvgl/src/misc/lv_circle_buf.c ****  *  GLOBAL VARIABLES
  39:Drivers/lvgl/src/misc/lv_circle_buf.c ****  **********************/
  40:Drivers/lvgl/src/misc/lv_circle_buf.c **** 
  41:Drivers/lvgl/src/misc/lv_circle_buf.c **** /**********************
  42:Drivers/lvgl/src/misc/lv_circle_buf.c ****  *  STATIC VARIABLES
  43:Drivers/lvgl/src/misc/lv_circle_buf.c ****  **********************/
  44:Drivers/lvgl/src/misc/lv_circle_buf.c **** 
  45:Drivers/lvgl/src/misc/lv_circle_buf.c **** /**********************
  46:Drivers/lvgl/src/misc/lv_circle_buf.c ****  *      MACROS
  47:Drivers/lvgl/src/misc/lv_circle_buf.c ****  **********************/
  48:Drivers/lvgl/src/misc/lv_circle_buf.c **** 
  49:Drivers/lvgl/src/misc/lv_circle_buf.c **** /**********************
  50:Drivers/lvgl/src/misc/lv_circle_buf.c ****  *   GLOBAL FUNCTIONS
  51:Drivers/lvgl/src/misc/lv_circle_buf.c ****  **********************/
  52:Drivers/lvgl/src/misc/lv_circle_buf.c **** 
  53:Drivers/lvgl/src/misc/lv_circle_buf.c **** lv_circle_buf_t * lv_circle_buf_create(const uint32_t capacity, const uint32_t element_size)
  54:Drivers/lvgl/src/misc/lv_circle_buf.c **** {
  55:Drivers/lvgl/src/misc/lv_circle_buf.c ****     lv_circle_buf_t * circle_buf = lv_malloc(sizeof(lv_circle_buf_t));
  56:Drivers/lvgl/src/misc/lv_circle_buf.c ****     LV_ASSERT_MALLOC(circle_buf);
  57:Drivers/lvgl/src/misc/lv_circle_buf.c **** 
  58:Drivers/lvgl/src/misc/lv_circle_buf.c ****     if(circle_buf == NULL) {
  59:Drivers/lvgl/src/misc/lv_circle_buf.c ****         return NULL;
  60:Drivers/lvgl/src/misc/lv_circle_buf.c ****     }
  61:Drivers/lvgl/src/misc/lv_circle_buf.c **** 
  62:Drivers/lvgl/src/misc/lv_circle_buf.c ****     lv_array_init(&circle_buf->array, capacity, element_size);
  63:Drivers/lvgl/src/misc/lv_circle_buf.c ****     circle_buf->head = 0;
  64:Drivers/lvgl/src/misc/lv_circle_buf.c ****     circle_buf->tail = 0;
  65:Drivers/lvgl/src/misc/lv_circle_buf.c ****     circle_buf->inner_alloc = true;
  66:Drivers/lvgl/src/misc/lv_circle_buf.c **** 
  67:Drivers/lvgl/src/misc/lv_circle_buf.c ****     circle_buf_prepare_empty(circle_buf);
  68:Drivers/lvgl/src/misc/lv_circle_buf.c **** 
  69:Drivers/lvgl/src/misc/lv_circle_buf.c ****     return circle_buf;
  70:Drivers/lvgl/src/misc/lv_circle_buf.c **** }
  71:Drivers/lvgl/src/misc/lv_circle_buf.c **** 
  72:Drivers/lvgl/src/misc/lv_circle_buf.c **** lv_circle_buf_t * lv_circle_buf_create_from_buf(void * buf, const uint32_t capacity, const uint32_t
  73:Drivers/lvgl/src/misc/lv_circle_buf.c **** {
  74:Drivers/lvgl/src/misc/lv_circle_buf.c ****     LV_ASSERT_NULL(buf);
  75:Drivers/lvgl/src/misc/lv_circle_buf.c **** 
  76:Drivers/lvgl/src/misc/lv_circle_buf.c ****     lv_circle_buf_t * circle_buf = lv_malloc(sizeof(lv_circle_buf_t));
  77:Drivers/lvgl/src/misc/lv_circle_buf.c ****     LV_ASSERT_MALLOC(circle_buf);
  78:Drivers/lvgl/src/misc/lv_circle_buf.c **** 
  79:Drivers/lvgl/src/misc/lv_circle_buf.c ****     if(circle_buf == NULL) {
  80:Drivers/lvgl/src/misc/lv_circle_buf.c ****         return NULL;
  81:Drivers/lvgl/src/misc/lv_circle_buf.c ****     }
  82:Drivers/lvgl/src/misc/lv_circle_buf.c **** 
  83:Drivers/lvgl/src/misc/lv_circle_buf.c ****     lv_array_init_from_buf(&circle_buf->array, buf, capacity, element_size);
  84:Drivers/lvgl/src/misc/lv_circle_buf.c ****     circle_buf->head = 0;
  85:Drivers/lvgl/src/misc/lv_circle_buf.c ****     circle_buf->tail = 0;
  86:Drivers/lvgl/src/misc/lv_circle_buf.c ****     circle_buf->inner_alloc = false;
  87:Drivers/lvgl/src/misc/lv_circle_buf.c **** 
ARM GAS  /var/folders/qx/2_175_4n2s19vhvtspjhb3qh0000gn/T//ccDf6XOr.s 			page 3


  88:Drivers/lvgl/src/misc/lv_circle_buf.c ****     circle_buf_prepare_empty(circle_buf);
  89:Drivers/lvgl/src/misc/lv_circle_buf.c **** 
  90:Drivers/lvgl/src/misc/lv_circle_buf.c ****     return circle_buf;
  91:Drivers/lvgl/src/misc/lv_circle_buf.c **** }
  92:Drivers/lvgl/src/misc/lv_circle_buf.c **** 
  93:Drivers/lvgl/src/misc/lv_circle_buf.c **** lv_circle_buf_t * lv_circle_buf_create_from_array(const lv_array_t * array)
  94:Drivers/lvgl/src/misc/lv_circle_buf.c **** {
  95:Drivers/lvgl/src/misc/lv_circle_buf.c ****     LV_ASSERT_NULL(array);
  96:Drivers/lvgl/src/misc/lv_circle_buf.c ****     if(array == NULL) {
  97:Drivers/lvgl/src/misc/lv_circle_buf.c ****         return NULL;
  98:Drivers/lvgl/src/misc/lv_circle_buf.c ****     }
  99:Drivers/lvgl/src/misc/lv_circle_buf.c **** 
 100:Drivers/lvgl/src/misc/lv_circle_buf.c ****     lv_circle_buf_t * circle_buf = lv_malloc(sizeof(lv_circle_buf_t));
 101:Drivers/lvgl/src/misc/lv_circle_buf.c ****     LV_ASSERT_MALLOC(circle_buf);
 102:Drivers/lvgl/src/misc/lv_circle_buf.c **** 
 103:Drivers/lvgl/src/misc/lv_circle_buf.c ****     if(circle_buf == NULL) {
 104:Drivers/lvgl/src/misc/lv_circle_buf.c ****         return NULL;
 105:Drivers/lvgl/src/misc/lv_circle_buf.c ****     }
 106:Drivers/lvgl/src/misc/lv_circle_buf.c **** 
 107:Drivers/lvgl/src/misc/lv_circle_buf.c ****     circle_buf->array = *array;
 108:Drivers/lvgl/src/misc/lv_circle_buf.c ****     circle_buf->head = 0;
 109:Drivers/lvgl/src/misc/lv_circle_buf.c ****     circle_buf->tail = 0;
 110:Drivers/lvgl/src/misc/lv_circle_buf.c ****     circle_buf->inner_alloc = false;
 111:Drivers/lvgl/src/misc/lv_circle_buf.c **** 
 112:Drivers/lvgl/src/misc/lv_circle_buf.c ****     circle_buf_prepare_empty(circle_buf);
 113:Drivers/lvgl/src/misc/lv_circle_buf.c **** 
 114:Drivers/lvgl/src/misc/lv_circle_buf.c ****     return circle_buf;
 115:Drivers/lvgl/src/misc/lv_circle_buf.c **** }
 116:Drivers/lvgl/src/misc/lv_circle_buf.c **** 
 117:Drivers/lvgl/src/misc/lv_circle_buf.c **** lv_result_t lv_circle_buf_resize(lv_circle_buf_t * circle_buf, const uint32_t capacity)
 118:Drivers/lvgl/src/misc/lv_circle_buf.c **** {
 119:Drivers/lvgl/src/misc/lv_circle_buf.c ****     LV_ASSERT_NULL(circle_buf);
 120:Drivers/lvgl/src/misc/lv_circle_buf.c **** 
 121:Drivers/lvgl/src/misc/lv_circle_buf.c ****     if(lv_array_resize(&circle_buf->array, capacity) == false) {
 122:Drivers/lvgl/src/misc/lv_circle_buf.c ****         return LV_RESULT_INVALID;
 123:Drivers/lvgl/src/misc/lv_circle_buf.c ****     }
 124:Drivers/lvgl/src/misc/lv_circle_buf.c **** 
 125:Drivers/lvgl/src/misc/lv_circle_buf.c ****     circle_buf->head = 0;
 126:Drivers/lvgl/src/misc/lv_circle_buf.c ****     circle_buf->tail = 0;
 127:Drivers/lvgl/src/misc/lv_circle_buf.c **** 
 128:Drivers/lvgl/src/misc/lv_circle_buf.c ****     circle_buf_prepare_empty(circle_buf);
 129:Drivers/lvgl/src/misc/lv_circle_buf.c **** 
 130:Drivers/lvgl/src/misc/lv_circle_buf.c ****     return LV_RESULT_OK;
 131:Drivers/lvgl/src/misc/lv_circle_buf.c **** }
 132:Drivers/lvgl/src/misc/lv_circle_buf.c **** 
 133:Drivers/lvgl/src/misc/lv_circle_buf.c **** void lv_circle_buf_destroy(lv_circle_buf_t * circle_buf)
 134:Drivers/lvgl/src/misc/lv_circle_buf.c **** {
 135:Drivers/lvgl/src/misc/lv_circle_buf.c ****     LV_ASSERT_NULL(circle_buf);
 136:Drivers/lvgl/src/misc/lv_circle_buf.c **** 
 137:Drivers/lvgl/src/misc/lv_circle_buf.c ****     lv_array_deinit(&circle_buf->array);
 138:Drivers/lvgl/src/misc/lv_circle_buf.c **** 
 139:Drivers/lvgl/src/misc/lv_circle_buf.c ****     lv_free(circle_buf);
 140:Drivers/lvgl/src/misc/lv_circle_buf.c **** }
 141:Drivers/lvgl/src/misc/lv_circle_buf.c **** 
 142:Drivers/lvgl/src/misc/lv_circle_buf.c **** uint32_t lv_circle_buf_size(const lv_circle_buf_t * circle_buf)
 143:Drivers/lvgl/src/misc/lv_circle_buf.c **** {
 144:Drivers/lvgl/src/misc/lv_circle_buf.c ****     LV_ASSERT_NULL(circle_buf);
ARM GAS  /var/folders/qx/2_175_4n2s19vhvtspjhb3qh0000gn/T//ccDf6XOr.s 			page 4


 145:Drivers/lvgl/src/misc/lv_circle_buf.c **** 
 146:Drivers/lvgl/src/misc/lv_circle_buf.c ****     return circle_buf->tail - circle_buf->head;
 147:Drivers/lvgl/src/misc/lv_circle_buf.c **** }
 148:Drivers/lvgl/src/misc/lv_circle_buf.c **** 
 149:Drivers/lvgl/src/misc/lv_circle_buf.c **** uint32_t lv_circle_buf_capacity(const lv_circle_buf_t * circle_buf)
 150:Drivers/lvgl/src/misc/lv_circle_buf.c **** {
 151:Drivers/lvgl/src/misc/lv_circle_buf.c ****     LV_ASSERT_NULL(circle_buf);
 152:Drivers/lvgl/src/misc/lv_circle_buf.c **** 
 153:Drivers/lvgl/src/misc/lv_circle_buf.c ****     return lv_array_capacity(&circle_buf->array);
 154:Drivers/lvgl/src/misc/lv_circle_buf.c **** }
 155:Drivers/lvgl/src/misc/lv_circle_buf.c **** 
 156:Drivers/lvgl/src/misc/lv_circle_buf.c **** uint32_t lv_circle_buf_remain(const lv_circle_buf_t * circle_buf)
 157:Drivers/lvgl/src/misc/lv_circle_buf.c **** {
 158:Drivers/lvgl/src/misc/lv_circle_buf.c ****     LV_ASSERT_NULL(circle_buf);
 159:Drivers/lvgl/src/misc/lv_circle_buf.c **** 
 160:Drivers/lvgl/src/misc/lv_circle_buf.c ****     return lv_circle_buf_capacity(circle_buf) - lv_circle_buf_size(circle_buf);
 161:Drivers/lvgl/src/misc/lv_circle_buf.c **** }
 162:Drivers/lvgl/src/misc/lv_circle_buf.c **** 
 163:Drivers/lvgl/src/misc/lv_circle_buf.c **** bool lv_circle_buf_is_empty(const lv_circle_buf_t * circle_buf)
 164:Drivers/lvgl/src/misc/lv_circle_buf.c **** {
 165:Drivers/lvgl/src/misc/lv_circle_buf.c ****     LV_ASSERT_NULL(circle_buf);
 166:Drivers/lvgl/src/misc/lv_circle_buf.c **** 
 167:Drivers/lvgl/src/misc/lv_circle_buf.c ****     return !lv_circle_buf_size(circle_buf);
 168:Drivers/lvgl/src/misc/lv_circle_buf.c **** }
 169:Drivers/lvgl/src/misc/lv_circle_buf.c **** 
 170:Drivers/lvgl/src/misc/lv_circle_buf.c **** bool lv_circle_buf_is_full(const lv_circle_buf_t * circle_buf)
 171:Drivers/lvgl/src/misc/lv_circle_buf.c **** {
 172:Drivers/lvgl/src/misc/lv_circle_buf.c ****     LV_ASSERT_NULL(circle_buf);
 173:Drivers/lvgl/src/misc/lv_circle_buf.c **** 
 174:Drivers/lvgl/src/misc/lv_circle_buf.c ****     return !lv_circle_buf_remain(circle_buf);
 175:Drivers/lvgl/src/misc/lv_circle_buf.c **** }
 176:Drivers/lvgl/src/misc/lv_circle_buf.c **** 
 177:Drivers/lvgl/src/misc/lv_circle_buf.c **** void lv_circle_buf_reset(lv_circle_buf_t * circle_buf)
 178:Drivers/lvgl/src/misc/lv_circle_buf.c **** {
 179:Drivers/lvgl/src/misc/lv_circle_buf.c ****     LV_ASSERT_NULL(circle_buf);
 180:Drivers/lvgl/src/misc/lv_circle_buf.c **** 
 181:Drivers/lvgl/src/misc/lv_circle_buf.c ****     circle_buf->head = 0;
 182:Drivers/lvgl/src/misc/lv_circle_buf.c ****     circle_buf->tail = 0;
 183:Drivers/lvgl/src/misc/lv_circle_buf.c **** }
 184:Drivers/lvgl/src/misc/lv_circle_buf.c **** 
 185:Drivers/lvgl/src/misc/lv_circle_buf.c **** void * lv_circle_buf_head(const lv_circle_buf_t * circle_buf)
 186:Drivers/lvgl/src/misc/lv_circle_buf.c **** {
 187:Drivers/lvgl/src/misc/lv_circle_buf.c ****     LV_ASSERT_NULL(circle_buf);
 188:Drivers/lvgl/src/misc/lv_circle_buf.c **** 
 189:Drivers/lvgl/src/misc/lv_circle_buf.c ****     return lv_array_at(&circle_buf->array,
 190:Drivers/lvgl/src/misc/lv_circle_buf.c ****                        circle_buf->head % lv_circle_buf_capacity(circle_buf));
 191:Drivers/lvgl/src/misc/lv_circle_buf.c **** }
 192:Drivers/lvgl/src/misc/lv_circle_buf.c **** 
 193:Drivers/lvgl/src/misc/lv_circle_buf.c **** void * lv_circle_buf_tail(const lv_circle_buf_t * circle_buf)
 194:Drivers/lvgl/src/misc/lv_circle_buf.c **** {
 195:Drivers/lvgl/src/misc/lv_circle_buf.c ****     LV_ASSERT_NULL(circle_buf);
 196:Drivers/lvgl/src/misc/lv_circle_buf.c **** 
 197:Drivers/lvgl/src/misc/lv_circle_buf.c ****     return lv_array_at(&circle_buf->array,
 198:Drivers/lvgl/src/misc/lv_circle_buf.c ****                        circle_buf->tail % lv_circle_buf_capacity(circle_buf));
 199:Drivers/lvgl/src/misc/lv_circle_buf.c **** }
 200:Drivers/lvgl/src/misc/lv_circle_buf.c **** 
 201:Drivers/lvgl/src/misc/lv_circle_buf.c **** lv_result_t lv_circle_buf_read(lv_circle_buf_t * circle_buf, void * data)
ARM GAS  /var/folders/qx/2_175_4n2s19vhvtspjhb3qh0000gn/T//ccDf6XOr.s 			page 5


 202:Drivers/lvgl/src/misc/lv_circle_buf.c **** {
 203:Drivers/lvgl/src/misc/lv_circle_buf.c ****     LV_ASSERT_NULL(circle_buf);
 204:Drivers/lvgl/src/misc/lv_circle_buf.c **** 
 205:Drivers/lvgl/src/misc/lv_circle_buf.c ****     if(lv_circle_buf_is_empty(circle_buf)) {
 206:Drivers/lvgl/src/misc/lv_circle_buf.c ****         circle_buf->head = 0;
 207:Drivers/lvgl/src/misc/lv_circle_buf.c ****         circle_buf->tail = 0;
 208:Drivers/lvgl/src/misc/lv_circle_buf.c ****         return LV_RESULT_INVALID;
 209:Drivers/lvgl/src/misc/lv_circle_buf.c ****     }
 210:Drivers/lvgl/src/misc/lv_circle_buf.c **** 
 211:Drivers/lvgl/src/misc/lv_circle_buf.c ****     lv_circle_buf_peek_at(circle_buf, 0, data);
 212:Drivers/lvgl/src/misc/lv_circle_buf.c ****     circle_buf->head++;
 213:Drivers/lvgl/src/misc/lv_circle_buf.c **** 
 214:Drivers/lvgl/src/misc/lv_circle_buf.c ****     return LV_RESULT_OK;
 215:Drivers/lvgl/src/misc/lv_circle_buf.c **** }
 216:Drivers/lvgl/src/misc/lv_circle_buf.c **** 
 217:Drivers/lvgl/src/misc/lv_circle_buf.c **** lv_result_t lv_circle_buf_write(lv_circle_buf_t * circle_buf, const void * data)
 218:Drivers/lvgl/src/misc/lv_circle_buf.c **** {
 219:Drivers/lvgl/src/misc/lv_circle_buf.c ****     LV_ASSERT_NULL(circle_buf);
 220:Drivers/lvgl/src/misc/lv_circle_buf.c **** 
 221:Drivers/lvgl/src/misc/lv_circle_buf.c ****     if(lv_circle_buf_is_full(circle_buf)) {
 222:Drivers/lvgl/src/misc/lv_circle_buf.c ****         return LV_RESULT_INVALID;
 223:Drivers/lvgl/src/misc/lv_circle_buf.c ****     }
 224:Drivers/lvgl/src/misc/lv_circle_buf.c **** 
 225:Drivers/lvgl/src/misc/lv_circle_buf.c ****     lv_array_assign(&circle_buf->array, circle_buf->tail % lv_circle_buf_capacity(circle_buf), data
 226:Drivers/lvgl/src/misc/lv_circle_buf.c ****     circle_buf->tail++;
 227:Drivers/lvgl/src/misc/lv_circle_buf.c **** 
 228:Drivers/lvgl/src/misc/lv_circle_buf.c ****     return LV_RESULT_OK;
 229:Drivers/lvgl/src/misc/lv_circle_buf.c **** }
 230:Drivers/lvgl/src/misc/lv_circle_buf.c **** 
 231:Drivers/lvgl/src/misc/lv_circle_buf.c **** uint32_t lv_circle_buf_fill(lv_circle_buf_t * circle_buf, uint32_t count, lv_circle_buf_fill_cb_t f
 232:Drivers/lvgl/src/misc/lv_circle_buf.c ****                             void * user_data)
 233:Drivers/lvgl/src/misc/lv_circle_buf.c **** {
 234:Drivers/lvgl/src/misc/lv_circle_buf.c ****     LV_ASSERT_NULL(circle_buf);
 235:Drivers/lvgl/src/misc/lv_circle_buf.c ****     LV_ASSERT_NULL(fill_cb);
 236:Drivers/lvgl/src/misc/lv_circle_buf.c **** 
 237:Drivers/lvgl/src/misc/lv_circle_buf.c ****     uint32_t filled = 0;
 238:Drivers/lvgl/src/misc/lv_circle_buf.c ****     while(count > 0 && !lv_circle_buf_is_full(circle_buf)) {
 239:Drivers/lvgl/src/misc/lv_circle_buf.c ****         void * data = lv_circle_buf_tail(circle_buf);
 240:Drivers/lvgl/src/misc/lv_circle_buf.c ****         if(fill_cb(data, circle_buf->array.element_size, (int32_t)filled, user_data) == LV_RESULT_O
 241:Drivers/lvgl/src/misc/lv_circle_buf.c ****             circle_buf->tail++;
 242:Drivers/lvgl/src/misc/lv_circle_buf.c ****             filled++;
 243:Drivers/lvgl/src/misc/lv_circle_buf.c ****         }
 244:Drivers/lvgl/src/misc/lv_circle_buf.c ****         else break;
 245:Drivers/lvgl/src/misc/lv_circle_buf.c **** 
 246:Drivers/lvgl/src/misc/lv_circle_buf.c ****         count--;
 247:Drivers/lvgl/src/misc/lv_circle_buf.c ****     }
 248:Drivers/lvgl/src/misc/lv_circle_buf.c **** 
 249:Drivers/lvgl/src/misc/lv_circle_buf.c ****     return filled;
 250:Drivers/lvgl/src/misc/lv_circle_buf.c **** }
 251:Drivers/lvgl/src/misc/lv_circle_buf.c **** 
 252:Drivers/lvgl/src/misc/lv_circle_buf.c **** lv_result_t lv_circle_buf_skip(lv_circle_buf_t * circle_buf)
 253:Drivers/lvgl/src/misc/lv_circle_buf.c **** {
 254:Drivers/lvgl/src/misc/lv_circle_buf.c ****     LV_ASSERT_NULL(circle_buf);
 255:Drivers/lvgl/src/misc/lv_circle_buf.c **** 
 256:Drivers/lvgl/src/misc/lv_circle_buf.c ****     if(lv_circle_buf_is_empty(circle_buf)) {
 257:Drivers/lvgl/src/misc/lv_circle_buf.c ****         circle_buf->head = 0;
 258:Drivers/lvgl/src/misc/lv_circle_buf.c ****         circle_buf->tail = 0;
ARM GAS  /var/folders/qx/2_175_4n2s19vhvtspjhb3qh0000gn/T//ccDf6XOr.s 			page 6


 259:Drivers/lvgl/src/misc/lv_circle_buf.c ****         return LV_RESULT_INVALID;
 260:Drivers/lvgl/src/misc/lv_circle_buf.c ****     }
 261:Drivers/lvgl/src/misc/lv_circle_buf.c **** 
 262:Drivers/lvgl/src/misc/lv_circle_buf.c ****     circle_buf->head++;
 263:Drivers/lvgl/src/misc/lv_circle_buf.c **** 
 264:Drivers/lvgl/src/misc/lv_circle_buf.c ****     return LV_RESULT_OK;
 265:Drivers/lvgl/src/misc/lv_circle_buf.c **** }
 266:Drivers/lvgl/src/misc/lv_circle_buf.c **** 
 267:Drivers/lvgl/src/misc/lv_circle_buf.c **** lv_result_t lv_circle_buf_peek(const lv_circle_buf_t * circle_buf, void * data)
 268:Drivers/lvgl/src/misc/lv_circle_buf.c **** {
 269:Drivers/lvgl/src/misc/lv_circle_buf.c ****     LV_ASSERT_NULL(circle_buf);
 270:Drivers/lvgl/src/misc/lv_circle_buf.c ****     LV_ASSERT_NULL(data);
 271:Drivers/lvgl/src/misc/lv_circle_buf.c **** 
 272:Drivers/lvgl/src/misc/lv_circle_buf.c ****     return lv_circle_buf_peek_at(circle_buf, 0, data);
 273:Drivers/lvgl/src/misc/lv_circle_buf.c **** }
 274:Drivers/lvgl/src/misc/lv_circle_buf.c **** 
 275:Drivers/lvgl/src/misc/lv_circle_buf.c **** lv_result_t lv_circle_buf_peek_at(const lv_circle_buf_t * circle_buf, const uint32_t index, void * 
 276:Drivers/lvgl/src/misc/lv_circle_buf.c **** {
 277:Drivers/lvgl/src/misc/lv_circle_buf.c ****     LV_ASSERT_NULL(circle_buf);
 278:Drivers/lvgl/src/misc/lv_circle_buf.c ****     LV_ASSERT_NULL(data);
 279:Drivers/lvgl/src/misc/lv_circle_buf.c **** 
 280:Drivers/lvgl/src/misc/lv_circle_buf.c ****     const uint32_t real_index = (index % lv_circle_buf_size(circle_buf) + circle_buf->head) % lv_ci
 281:Drivers/lvgl/src/misc/lv_circle_buf.c ****                                     circle_buf);
 282:Drivers/lvgl/src/misc/lv_circle_buf.c ****     lv_memcpy(data, lv_array_at(&circle_buf->array, real_index), circle_buf->array.element_size);
 283:Drivers/lvgl/src/misc/lv_circle_buf.c **** 
 284:Drivers/lvgl/src/misc/lv_circle_buf.c ****     return LV_RESULT_OK;
 285:Drivers/lvgl/src/misc/lv_circle_buf.c **** }
 286:Drivers/lvgl/src/misc/lv_circle_buf.c **** 
 287:Drivers/lvgl/src/misc/lv_circle_buf.c **** /**********************
 288:Drivers/lvgl/src/misc/lv_circle_buf.c ****  *   STATIC FUNCTIONS
 289:Drivers/lvgl/src/misc/lv_circle_buf.c ****  **********************/
 290:Drivers/lvgl/src/misc/lv_circle_buf.c **** 
 291:Drivers/lvgl/src/misc/lv_circle_buf.c **** static void circle_buf_prepare_empty(lv_circle_buf_t * circle_buf)
 292:Drivers/lvgl/src/misc/lv_circle_buf.c **** {
  29              		.loc 1 292 1 view -0
  30              		.cfi_startproc
  31              		@ args = 0, pretend = 0, frame = 0
  32              		@ frame_needed = 0, uses_anonymous_args = 0
  33              		.loc 1 292 1 is_stmt 0 view .LVU1
  34 0000 70B5     		push	{r4, r5, r6, lr}
  35              	.LCFI0:
  36              		.cfi_def_cfa_offset 16
  37              		.cfi_offset 4, -16
  38              		.cfi_offset 5, -12
  39              		.cfi_offset 6, -8
  40              		.cfi_offset 14, -4
  41 0002 0546     		mov	r5, r0
 293:Drivers/lvgl/src/misc/lv_circle_buf.c ****     const uint32_t required = lv_array_capacity(&circle_buf->array) - lv_array_size(&circle_buf->ar
  42              		.loc 1 293 5 is_stmt 1 view .LVU2
  43              	.LVL1:
  44              	.LBB9:
  45              	.LBI9:
  46              		.file 2 "Drivers/lvgl/src/misc/lv_array.h"
   1:Drivers/lvgl/src/misc/lv_array.h **** /**
   2:Drivers/lvgl/src/misc/lv_array.h ****  * @file lv_array.h
   3:Drivers/lvgl/src/misc/lv_array.h ****  * Array. The elements are dynamically allocated by the 'lv_mem' module.
   4:Drivers/lvgl/src/misc/lv_array.h ****  */
ARM GAS  /var/folders/qx/2_175_4n2s19vhvtspjhb3qh0000gn/T//ccDf6XOr.s 			page 7


   5:Drivers/lvgl/src/misc/lv_array.h **** 
   6:Drivers/lvgl/src/misc/lv_array.h **** #ifndef LV_ARRAY_H
   7:Drivers/lvgl/src/misc/lv_array.h **** #define LV_ARRAY_H
   8:Drivers/lvgl/src/misc/lv_array.h **** 
   9:Drivers/lvgl/src/misc/lv_array.h **** #ifdef __cplusplus
  10:Drivers/lvgl/src/misc/lv_array.h **** extern "C" {
  11:Drivers/lvgl/src/misc/lv_array.h **** #endif
  12:Drivers/lvgl/src/misc/lv_array.h **** 
  13:Drivers/lvgl/src/misc/lv_array.h **** /*********************
  14:Drivers/lvgl/src/misc/lv_array.h ****  *      INCLUDES
  15:Drivers/lvgl/src/misc/lv_array.h ****  *********************/
  16:Drivers/lvgl/src/misc/lv_array.h **** #include "lv_types.h"
  17:Drivers/lvgl/src/misc/lv_array.h **** 
  18:Drivers/lvgl/src/misc/lv_array.h **** /*********************
  19:Drivers/lvgl/src/misc/lv_array.h ****  *      DEFINES
  20:Drivers/lvgl/src/misc/lv_array.h ****  *********************/
  21:Drivers/lvgl/src/misc/lv_array.h **** 
  22:Drivers/lvgl/src/misc/lv_array.h **** #ifndef LV_ARRAY_DEFAULT_CAPACITY
  23:Drivers/lvgl/src/misc/lv_array.h **** #define LV_ARRAY_DEFAULT_CAPACITY  4
  24:Drivers/lvgl/src/misc/lv_array.h **** #endif
  25:Drivers/lvgl/src/misc/lv_array.h **** 
  26:Drivers/lvgl/src/misc/lv_array.h **** #ifndef LV_ARRAY_DEFAULT_SHRINK_RATIO
  27:Drivers/lvgl/src/misc/lv_array.h **** #define LV_ARRAY_DEFAULT_SHRINK_RATIO 2
  28:Drivers/lvgl/src/misc/lv_array.h **** #endif
  29:Drivers/lvgl/src/misc/lv_array.h **** 
  30:Drivers/lvgl/src/misc/lv_array.h **** /**********************
  31:Drivers/lvgl/src/misc/lv_array.h ****  *      TYPEDEFS
  32:Drivers/lvgl/src/misc/lv_array.h ****  **********************/
  33:Drivers/lvgl/src/misc/lv_array.h **** 
  34:Drivers/lvgl/src/misc/lv_array.h **** /** Description of a array*/
  35:Drivers/lvgl/src/misc/lv_array.h **** struct _lv_array_t {
  36:Drivers/lvgl/src/misc/lv_array.h ****     uint8_t * data;
  37:Drivers/lvgl/src/misc/lv_array.h ****     uint32_t size;
  38:Drivers/lvgl/src/misc/lv_array.h ****     uint32_t capacity;
  39:Drivers/lvgl/src/misc/lv_array.h ****     uint32_t element_size;
  40:Drivers/lvgl/src/misc/lv_array.h **** 
  41:Drivers/lvgl/src/misc/lv_array.h ****     bool inner_alloc; /* true: data is allocated by the array; false: data is allocated by the user
  42:Drivers/lvgl/src/misc/lv_array.h **** };
  43:Drivers/lvgl/src/misc/lv_array.h **** 
  44:Drivers/lvgl/src/misc/lv_array.h **** /**********************
  45:Drivers/lvgl/src/misc/lv_array.h ****  * GLOBAL PROTOTYPES
  46:Drivers/lvgl/src/misc/lv_array.h ****  **********************/
  47:Drivers/lvgl/src/misc/lv_array.h **** 
  48:Drivers/lvgl/src/misc/lv_array.h **** /**
  49:Drivers/lvgl/src/misc/lv_array.h ****  * Init an array.
  50:Drivers/lvgl/src/misc/lv_array.h ****  * @param array pointer to an `lv_array_t` variable to initialize
  51:Drivers/lvgl/src/misc/lv_array.h ****  * @param capacity the initial capacity of the array
  52:Drivers/lvgl/src/misc/lv_array.h ****  * @param element_size the size of an element in bytes
  53:Drivers/lvgl/src/misc/lv_array.h ****  */
  54:Drivers/lvgl/src/misc/lv_array.h **** void lv_array_init(lv_array_t * array, uint32_t capacity, uint32_t element_size);
  55:Drivers/lvgl/src/misc/lv_array.h **** 
  56:Drivers/lvgl/src/misc/lv_array.h **** /**
  57:Drivers/lvgl/src/misc/lv_array.h ****  * Init an array from a buffer.
  58:Drivers/lvgl/src/misc/lv_array.h ****  * @note The buffer must be large enough to store `capacity` elements. The array will not release t
  59:Drivers/lvgl/src/misc/lv_array.h ****  *       The user must ensure that the buffer is valid during the lifetime of the array. And releas
  60:Drivers/lvgl/src/misc/lv_array.h ****  * @param array pointer to an `lv_array_t` variable to initialize
  61:Drivers/lvgl/src/misc/lv_array.h ****  * @param buf pointer to a buffer to use as the array's data
ARM GAS  /var/folders/qx/2_175_4n2s19vhvtspjhb3qh0000gn/T//ccDf6XOr.s 			page 8


  62:Drivers/lvgl/src/misc/lv_array.h ****  * @param capacity the initial capacity of the array
  63:Drivers/lvgl/src/misc/lv_array.h ****  * @param element_size the size of an element in bytes
  64:Drivers/lvgl/src/misc/lv_array.h ****  */
  65:Drivers/lvgl/src/misc/lv_array.h **** void lv_array_init_from_buf(lv_array_t * array, void * buf, uint32_t capacity, uint32_t element_siz
  66:Drivers/lvgl/src/misc/lv_array.h **** 
  67:Drivers/lvgl/src/misc/lv_array.h **** /**
  68:Drivers/lvgl/src/misc/lv_array.h ****  * Resize the array to the given capacity.
  69:Drivers/lvgl/src/misc/lv_array.h ****  * @note if the new capacity is smaller than the current size, the array will be truncated.
  70:Drivers/lvgl/src/misc/lv_array.h ****  * @param array pointer to an `lv_array_t` variable
  71:Drivers/lvgl/src/misc/lv_array.h ****  * @param new_capacity the new capacity of the array
  72:Drivers/lvgl/src/misc/lv_array.h ****  */
  73:Drivers/lvgl/src/misc/lv_array.h **** bool lv_array_resize(lv_array_t * array, uint32_t new_capacity);
  74:Drivers/lvgl/src/misc/lv_array.h **** 
  75:Drivers/lvgl/src/misc/lv_array.h **** /**
  76:Drivers/lvgl/src/misc/lv_array.h ****  * Deinit the array, and free the allocated memory
  77:Drivers/lvgl/src/misc/lv_array.h ****  * @param array pointer to an `lv_array_t` variable to deinitialize
  78:Drivers/lvgl/src/misc/lv_array.h ****  */
  79:Drivers/lvgl/src/misc/lv_array.h **** void lv_array_deinit(lv_array_t * array);
  80:Drivers/lvgl/src/misc/lv_array.h **** 
  81:Drivers/lvgl/src/misc/lv_array.h **** /**
  82:Drivers/lvgl/src/misc/lv_array.h ****  * Return how many elements are stored in the array.
  83:Drivers/lvgl/src/misc/lv_array.h ****  * @param array pointer to an `lv_array_t` variable
  84:Drivers/lvgl/src/misc/lv_array.h ****  * @return the number of elements stored in the array
  85:Drivers/lvgl/src/misc/lv_array.h ****  */
  86:Drivers/lvgl/src/misc/lv_array.h **** static inline uint32_t lv_array_size(const lv_array_t * array)
  87:Drivers/lvgl/src/misc/lv_array.h **** {
  88:Drivers/lvgl/src/misc/lv_array.h ****     return array->size;
  89:Drivers/lvgl/src/misc/lv_array.h **** }
  90:Drivers/lvgl/src/misc/lv_array.h **** 
  91:Drivers/lvgl/src/misc/lv_array.h **** /**
  92:Drivers/lvgl/src/misc/lv_array.h ****  * Return the capacity of the array, i.e. how many elements can be stored.
  93:Drivers/lvgl/src/misc/lv_array.h ****  * @param array pointer to an `lv_array_t` variable
  94:Drivers/lvgl/src/misc/lv_array.h ****  * @return the capacity of the array
  95:Drivers/lvgl/src/misc/lv_array.h ****  */
  96:Drivers/lvgl/src/misc/lv_array.h **** static inline uint32_t lv_array_capacity(const lv_array_t * array)
  47              		.loc 2 96 24 view .LVU3
  48              	.LBB10:
  97:Drivers/lvgl/src/misc/lv_array.h **** {
  98:Drivers/lvgl/src/misc/lv_array.h ****     return array->capacity;
  49              		.loc 2 98 5 view .LVU4
  50              		.loc 2 98 17 is_stmt 0 view .LVU5
  51 0004 8668     		ldr	r6, [r0, #8]
  52              	.LVL2:
  53              		.loc 2 98 17 view .LVU6
  54              	.LBE10:
  55              	.LBE9:
  56              	.LBB11:
  57              	.LBI11:
  86:Drivers/lvgl/src/misc/lv_array.h **** {
  58              		.loc 2 86 24 is_stmt 1 view .LVU7
  59              	.LBB12:
  88:Drivers/lvgl/src/misc/lv_array.h **** }
  60              		.loc 2 88 5 view .LVU8
  88:Drivers/lvgl/src/misc/lv_array.h **** }
  61              		.loc 2 88 17 is_stmt 0 view .LVU9
  62 0006 4368     		ldr	r3, [r0, #4]
  63              	.LVL3:
ARM GAS  /var/folders/qx/2_175_4n2s19vhvtspjhb3qh0000gn/T//ccDf6XOr.s 			page 9


  88:Drivers/lvgl/src/misc/lv_array.h **** }
  64              		.loc 2 88 17 view .LVU10
  65              	.LBE12:
  66              	.LBE11:
  67              		.loc 1 293 20 discriminator 2 view .LVU11
  68 0008 F61A     		subs	r6, r6, r3
  69              	.LVL4:
 294:Drivers/lvgl/src/misc/lv_circle_buf.c ****     for(uint32_t i = 0; i < required; i++) lv_array_push_back(&circle_buf->array, NULL);
  70              		.loc 1 294 5 is_stmt 1 view .LVU12
  71              	.LBB13:
  72              		.loc 1 294 9 view .LVU13
  73              		.loc 1 294 18 is_stmt 0 view .LVU14
  74 000a 0024     		movs	r4, #0
  75              		.loc 1 294 5 view .LVU15
  76 000c 04E0     		b	.L2
  77              	.LVL5:
  78              	.L3:
  79              		.loc 1 294 44 is_stmt 1 discriminator 3 view .LVU16
  80 000e 0021     		movs	r1, #0
  81 0010 2846     		mov	r0, r5
  82 0012 FFF7FEFF 		bl	lv_array_push_back
  83              	.LVL6:
  84              		.loc 1 294 40 discriminator 3 view .LVU17
  85 0016 0134     		adds	r4, r4, #1
  86              	.LVL7:
  87              	.L2:
  88              		.loc 1 294 27 discriminator 2 view .LVU18
  89 0018 B442     		cmp	r4, r6
  90 001a F8D3     		bcc	.L3
  91              	.LBE13:
 295:Drivers/lvgl/src/misc/lv_circle_buf.c **** }
  92              		.loc 1 295 1 is_stmt 0 view .LVU19
  93 001c 70BD     		pop	{r4, r5, r6, pc}
  94              		.loc 1 295 1 view .LVU20
  95              		.cfi_endproc
  96              	.LFE28:
  98              		.section	.text.lv_circle_buf_create,"ax",%progbits
  99              		.align	1
 100              		.global	lv_circle_buf_create
 101              		.syntax unified
 102              		.thumb
 103              		.thumb_func
 105              	lv_circle_buf_create:
 106              	.LVL8:
 107              	.LFB9:
  54:Drivers/lvgl/src/misc/lv_circle_buf.c ****     lv_circle_buf_t * circle_buf = lv_malloc(sizeof(lv_circle_buf_t));
 108              		.loc 1 54 1 is_stmt 1 view -0
 109              		.cfi_startproc
 110              		@ args = 0, pretend = 0, frame = 0
 111              		@ frame_needed = 0, uses_anonymous_args = 0
  54:Drivers/lvgl/src/misc/lv_circle_buf.c ****     lv_circle_buf_t * circle_buf = lv_malloc(sizeof(lv_circle_buf_t));
 112              		.loc 1 54 1 is_stmt 0 view .LVU22
 113 0000 70B5     		push	{r4, r5, r6, lr}
 114              	.LCFI1:
 115              		.cfi_def_cfa_offset 16
 116              		.cfi_offset 4, -16
 117              		.cfi_offset 5, -12
ARM GAS  /var/folders/qx/2_175_4n2s19vhvtspjhb3qh0000gn/T//ccDf6XOr.s 			page 10


 118              		.cfi_offset 6, -8
 119              		.cfi_offset 14, -4
 120 0002 0546     		mov	r5, r0
 121 0004 0E46     		mov	r6, r1
  55:Drivers/lvgl/src/misc/lv_circle_buf.c ****     LV_ASSERT_MALLOC(circle_buf);
 122              		.loc 1 55 5 is_stmt 1 view .LVU23
  55:Drivers/lvgl/src/misc/lv_circle_buf.c ****     LV_ASSERT_MALLOC(circle_buf);
 123              		.loc 1 55 36 is_stmt 0 view .LVU24
 124 0006 2020     		movs	r0, #32
 125              	.LVL9:
  55:Drivers/lvgl/src/misc/lv_circle_buf.c ****     LV_ASSERT_MALLOC(circle_buf);
 126              		.loc 1 55 36 view .LVU25
 127 0008 FFF7FEFF 		bl	lv_malloc
 128              	.LVL10:
  56:Drivers/lvgl/src/misc/lv_circle_buf.c **** 
 129              		.loc 1 56 5 is_stmt 1 view .LVU26
  56:Drivers/lvgl/src/misc/lv_circle_buf.c **** 
 130              		.loc 1 56 5 view .LVU27
 131 000c 70B1     		cbz	r0, .L7
 132 000e 0446     		mov	r4, r0
  56:Drivers/lvgl/src/misc/lv_circle_buf.c **** 
 133              		.loc 1 56 5 view .LVU28
  56:Drivers/lvgl/src/misc/lv_circle_buf.c **** 
 134              		.loc 1 56 33 view .LVU29
  58:Drivers/lvgl/src/misc/lv_circle_buf.c ****         return NULL;
 135              		.loc 1 58 5 view .LVU30
  62:Drivers/lvgl/src/misc/lv_circle_buf.c ****     circle_buf->head = 0;
 136              		.loc 1 62 5 view .LVU31
 137 0010 3246     		mov	r2, r6
 138 0012 2946     		mov	r1, r5
 139 0014 FFF7FEFF 		bl	lv_array_init
 140              	.LVL11:
  63:Drivers/lvgl/src/misc/lv_circle_buf.c ****     circle_buf->tail = 0;
 141              		.loc 1 63 5 view .LVU32
  63:Drivers/lvgl/src/misc/lv_circle_buf.c ****     circle_buf->tail = 0;
 142              		.loc 1 63 22 is_stmt 0 view .LVU33
 143 0018 0023     		movs	r3, #0
 144 001a 6361     		str	r3, [r4, #20]
  64:Drivers/lvgl/src/misc/lv_circle_buf.c ****     circle_buf->inner_alloc = true;
 145              		.loc 1 64 5 is_stmt 1 view .LVU34
  64:Drivers/lvgl/src/misc/lv_circle_buf.c ****     circle_buf->inner_alloc = true;
 146              		.loc 1 64 22 is_stmt 0 view .LVU35
 147 001c A361     		str	r3, [r4, #24]
  65:Drivers/lvgl/src/misc/lv_circle_buf.c **** 
 148              		.loc 1 65 5 is_stmt 1 view .LVU36
  65:Drivers/lvgl/src/misc/lv_circle_buf.c **** 
 149              		.loc 1 65 29 is_stmt 0 view .LVU37
 150 001e 0123     		movs	r3, #1
 151 0020 2377     		strb	r3, [r4, #28]
  67:Drivers/lvgl/src/misc/lv_circle_buf.c **** 
 152              		.loc 1 67 5 is_stmt 1 view .LVU38
 153 0022 2046     		mov	r0, r4
 154 0024 FFF7FEFF 		bl	circle_buf_prepare_empty
 155              	.LVL12:
  69:Drivers/lvgl/src/misc/lv_circle_buf.c **** }
 156              		.loc 1 69 5 view .LVU39
  70:Drivers/lvgl/src/misc/lv_circle_buf.c **** 
ARM GAS  /var/folders/qx/2_175_4n2s19vhvtspjhb3qh0000gn/T//ccDf6XOr.s 			page 11


 157              		.loc 1 70 1 is_stmt 0 view .LVU40
 158 0028 2046     		mov	r0, r4
 159 002a 70BD     		pop	{r4, r5, r6, pc}
 160              	.LVL13:
 161              	.L7:
  56:Drivers/lvgl/src/misc/lv_circle_buf.c **** 
 162              		.loc 1 56 5 is_stmt 1 view .LVU41
  56:Drivers/lvgl/src/misc/lv_circle_buf.c **** 
 163              		.loc 1 56 5 view .LVU42
  56:Drivers/lvgl/src/misc/lv_circle_buf.c **** 
 164              		.loc 1 56 5 view .LVU43
  56:Drivers/lvgl/src/misc/lv_circle_buf.c **** 
 165              		.loc 1 56 5 view .LVU44
  56:Drivers/lvgl/src/misc/lv_circle_buf.c **** 
 166              		.loc 1 56 5 view .LVU45
 167 002c FEE7     		b	.L7
 168              		.cfi_endproc
 169              	.LFE9:
 171              		.section	.text.lv_circle_buf_create_from_buf,"ax",%progbits
 172              		.align	1
 173              		.global	lv_circle_buf_create_from_buf
 174              		.syntax unified
 175              		.thumb
 176              		.thumb_func
 178              	lv_circle_buf_create_from_buf:
 179              	.LVL14:
 180              	.LFB10:
  73:Drivers/lvgl/src/misc/lv_circle_buf.c ****     LV_ASSERT_NULL(buf);
 181              		.loc 1 73 1 view -0
 182              		.cfi_startproc
 183              		@ args = 0, pretend = 0, frame = 0
 184              		@ frame_needed = 0, uses_anonymous_args = 0
  74:Drivers/lvgl/src/misc/lv_circle_buf.c **** 
 185              		.loc 1 74 5 view .LVU47
  74:Drivers/lvgl/src/misc/lv_circle_buf.c **** 
 186              		.loc 1 74 5 view .LVU48
 187 0000 B0B1     		cbz	r0, .L11
  73:Drivers/lvgl/src/misc/lv_circle_buf.c ****     LV_ASSERT_NULL(buf);
 188              		.loc 1 73 1 is_stmt 0 view .LVU49
 189 0002 F8B5     		push	{r3, r4, r5, r6, r7, lr}
 190              	.LCFI2:
 191              		.cfi_def_cfa_offset 24
 192              		.cfi_offset 3, -24
 193              		.cfi_offset 4, -20
 194              		.cfi_offset 5, -16
 195              		.cfi_offset 6, -12
 196              		.cfi_offset 7, -8
 197              		.cfi_offset 14, -4
 198 0004 0C46     		mov	r4, r1
 199 0006 1546     		mov	r5, r2
 200 0008 0746     		mov	r7, r0
  74:Drivers/lvgl/src/misc/lv_circle_buf.c **** 
 201              		.loc 1 74 5 is_stmt 1 view .LVU50
  74:Drivers/lvgl/src/misc/lv_circle_buf.c **** 
 202              		.loc 1 74 24 view .LVU51
  76:Drivers/lvgl/src/misc/lv_circle_buf.c ****     LV_ASSERT_MALLOC(circle_buf);
 203              		.loc 1 76 5 view .LVU52
ARM GAS  /var/folders/qx/2_175_4n2s19vhvtspjhb3qh0000gn/T//ccDf6XOr.s 			page 12


  76:Drivers/lvgl/src/misc/lv_circle_buf.c ****     LV_ASSERT_MALLOC(circle_buf);
 204              		.loc 1 76 36 is_stmt 0 view .LVU53
 205 000a 2020     		movs	r0, #32
 206              	.LVL15:
  76:Drivers/lvgl/src/misc/lv_circle_buf.c ****     LV_ASSERT_MALLOC(circle_buf);
 207              		.loc 1 76 36 view .LVU54
 208 000c FFF7FEFF 		bl	lv_malloc
 209              	.LVL16:
  77:Drivers/lvgl/src/misc/lv_circle_buf.c **** 
 210              		.loc 1 77 5 is_stmt 1 view .LVU55
  77:Drivers/lvgl/src/misc/lv_circle_buf.c **** 
 211              		.loc 1 77 5 view .LVU56
 212 0010 0646     		mov	r6, r0
 213 0012 70B1     		cbz	r0, .L13
  77:Drivers/lvgl/src/misc/lv_circle_buf.c **** 
 214              		.loc 1 77 5 view .LVU57
  77:Drivers/lvgl/src/misc/lv_circle_buf.c **** 
 215              		.loc 1 77 33 view .LVU58
  79:Drivers/lvgl/src/misc/lv_circle_buf.c ****         return NULL;
 216              		.loc 1 79 5 view .LVU59
  83:Drivers/lvgl/src/misc/lv_circle_buf.c ****     circle_buf->head = 0;
 217              		.loc 1 83 5 view .LVU60
 218 0014 2B46     		mov	r3, r5
 219 0016 2246     		mov	r2, r4
 220 0018 3946     		mov	r1, r7
 221 001a FFF7FEFF 		bl	lv_array_init_from_buf
 222              	.LVL17:
  84:Drivers/lvgl/src/misc/lv_circle_buf.c ****     circle_buf->tail = 0;
 223              		.loc 1 84 5 view .LVU61
  84:Drivers/lvgl/src/misc/lv_circle_buf.c ****     circle_buf->tail = 0;
 224              		.loc 1 84 22 is_stmt 0 view .LVU62
 225 001e 0023     		movs	r3, #0
 226 0020 7361     		str	r3, [r6, #20]
  85:Drivers/lvgl/src/misc/lv_circle_buf.c ****     circle_buf->inner_alloc = false;
 227              		.loc 1 85 5 is_stmt 1 view .LVU63
  85:Drivers/lvgl/src/misc/lv_circle_buf.c ****     circle_buf->inner_alloc = false;
 228              		.loc 1 85 22 is_stmt 0 view .LVU64
 229 0022 B361     		str	r3, [r6, #24]
  86:Drivers/lvgl/src/misc/lv_circle_buf.c **** 
 230              		.loc 1 86 5 is_stmt 1 view .LVU65
  86:Drivers/lvgl/src/misc/lv_circle_buf.c **** 
 231              		.loc 1 86 29 is_stmt 0 view .LVU66
 232 0024 3377     		strb	r3, [r6, #28]
  88:Drivers/lvgl/src/misc/lv_circle_buf.c **** 
 233              		.loc 1 88 5 is_stmt 1 view .LVU67
 234 0026 3046     		mov	r0, r6
 235 0028 FFF7FEFF 		bl	circle_buf_prepare_empty
 236              	.LVL18:
  90:Drivers/lvgl/src/misc/lv_circle_buf.c **** }
 237              		.loc 1 90 5 view .LVU68
  91:Drivers/lvgl/src/misc/lv_circle_buf.c **** 
 238              		.loc 1 91 1 is_stmt 0 view .LVU69
 239 002c 3046     		mov	r0, r6
 240 002e F8BD     		pop	{r3, r4, r5, r6, r7, pc}
 241              	.LVL19:
 242              	.L11:
 243              	.LCFI3:
ARM GAS  /var/folders/qx/2_175_4n2s19vhvtspjhb3qh0000gn/T//ccDf6XOr.s 			page 13


 244              		.cfi_def_cfa_offset 0
 245              		.cfi_restore 3
 246              		.cfi_restore 4
 247              		.cfi_restore 5
 248              		.cfi_restore 6
 249              		.cfi_restore 7
 250              		.cfi_restore 14
  74:Drivers/lvgl/src/misc/lv_circle_buf.c **** 
 251              		.loc 1 74 5 is_stmt 1 view .LVU70
  74:Drivers/lvgl/src/misc/lv_circle_buf.c **** 
 252              		.loc 1 74 5 view .LVU71
  74:Drivers/lvgl/src/misc/lv_circle_buf.c **** 
 253              		.loc 1 74 5 view .LVU72
  74:Drivers/lvgl/src/misc/lv_circle_buf.c **** 
 254              		.loc 1 74 5 view .LVU73
  74:Drivers/lvgl/src/misc/lv_circle_buf.c **** 
 255              		.loc 1 74 5 view .LVU74
 256 0030 FEE7     		b	.L11
 257              	.LVL20:
 258              	.L13:
 259              	.LCFI4:
 260              		.cfi_def_cfa_offset 24
 261              		.cfi_offset 3, -24
 262              		.cfi_offset 4, -20
 263              		.cfi_offset 5, -16
 264              		.cfi_offset 6, -12
 265              		.cfi_offset 7, -8
 266              		.cfi_offset 14, -4
  77:Drivers/lvgl/src/misc/lv_circle_buf.c **** 
 267              		.loc 1 77 5 view .LVU75
  77:Drivers/lvgl/src/misc/lv_circle_buf.c **** 
 268              		.loc 1 77 5 view .LVU76
  77:Drivers/lvgl/src/misc/lv_circle_buf.c **** 
 269              		.loc 1 77 5 view .LVU77
  77:Drivers/lvgl/src/misc/lv_circle_buf.c **** 
 270              		.loc 1 77 5 view .LVU78
  77:Drivers/lvgl/src/misc/lv_circle_buf.c **** 
 271              		.loc 1 77 5 view .LVU79
 272 0032 FEE7     		b	.L13
 273              		.cfi_endproc
 274              	.LFE10:
 276              		.section	.text.lv_circle_buf_create_from_array,"ax",%progbits
 277              		.align	1
 278              		.global	lv_circle_buf_create_from_array
 279              		.syntax unified
 280              		.thumb
 281              		.thumb_func
 283              	lv_circle_buf_create_from_array:
 284              	.LVL21:
 285              	.LFB11:
  94:Drivers/lvgl/src/misc/lv_circle_buf.c ****     LV_ASSERT_NULL(array);
 286              		.loc 1 94 1 view -0
 287              		.cfi_startproc
 288              		@ args = 0, pretend = 0, frame = 0
 289              		@ frame_needed = 0, uses_anonymous_args = 0
  95:Drivers/lvgl/src/misc/lv_circle_buf.c ****     if(array == NULL) {
 290              		.loc 1 95 5 view .LVU81
ARM GAS  /var/folders/qx/2_175_4n2s19vhvtspjhb3qh0000gn/T//ccDf6XOr.s 			page 14


  95:Drivers/lvgl/src/misc/lv_circle_buf.c ****     if(array == NULL) {
 291              		.loc 1 95 5 view .LVU82
 292 0000 C8B1     		cbz	r0, .L18
  94:Drivers/lvgl/src/misc/lv_circle_buf.c ****     LV_ASSERT_NULL(array);
 293              		.loc 1 94 1 is_stmt 0 view .LVU83
 294 0002 38B5     		push	{r3, r4, r5, lr}
 295              	.LCFI5:
 296              		.cfi_def_cfa_offset 16
 297              		.cfi_offset 3, -16
 298              		.cfi_offset 4, -12
 299              		.cfi_offset 5, -8
 300              		.cfi_offset 14, -4
 301 0004 0446     		mov	r4, r0
  95:Drivers/lvgl/src/misc/lv_circle_buf.c ****     if(array == NULL) {
 302              		.loc 1 95 5 is_stmt 1 view .LVU84
  95:Drivers/lvgl/src/misc/lv_circle_buf.c ****     if(array == NULL) {
 303              		.loc 1 95 26 view .LVU85
  96:Drivers/lvgl/src/misc/lv_circle_buf.c ****         return NULL;
 304              		.loc 1 96 5 view .LVU86
 100:Drivers/lvgl/src/misc/lv_circle_buf.c ****     LV_ASSERT_MALLOC(circle_buf);
 305              		.loc 1 100 5 view .LVU87
 100:Drivers/lvgl/src/misc/lv_circle_buf.c ****     LV_ASSERT_MALLOC(circle_buf);
 306              		.loc 1 100 36 is_stmt 0 view .LVU88
 307 0006 2020     		movs	r0, #32
 308              	.LVL22:
 100:Drivers/lvgl/src/misc/lv_circle_buf.c ****     LV_ASSERT_MALLOC(circle_buf);
 309              		.loc 1 100 36 view .LVU89
 310 0008 FFF7FEFF 		bl	lv_malloc
 311              	.LVL23:
 101:Drivers/lvgl/src/misc/lv_circle_buf.c **** 
 312              		.loc 1 101 5 is_stmt 1 view .LVU90
 101:Drivers/lvgl/src/misc/lv_circle_buf.c **** 
 313              		.loc 1 101 5 view .LVU91
 314 000c 0546     		mov	r5, r0
 315 000e 98B1     		cbz	r0, .L20
 101:Drivers/lvgl/src/misc/lv_circle_buf.c **** 
 316              		.loc 1 101 5 view .LVU92
 101:Drivers/lvgl/src/misc/lv_circle_buf.c **** 
 317              		.loc 1 101 33 view .LVU93
 103:Drivers/lvgl/src/misc/lv_circle_buf.c ****         return NULL;
 318              		.loc 1 103 5 view .LVU94
 107:Drivers/lvgl/src/misc/lv_circle_buf.c ****     circle_buf->head = 0;
 319              		.loc 1 107 5 view .LVU95
 107:Drivers/lvgl/src/misc/lv_circle_buf.c ****     circle_buf->head = 0;
 320              		.loc 1 107 23 is_stmt 0 view .LVU96
 321 0010 8646     		mov	lr, r0
 322 0012 A446     		mov	ip, r4
 323 0014 BCE80F00 		ldmia	ip!, {r0, r1, r2, r3}
 324              	.LVL24:
 107:Drivers/lvgl/src/misc/lv_circle_buf.c ****     circle_buf->head = 0;
 325              		.loc 1 107 23 view .LVU97
 326 0018 AEE80F00 		stmia	lr!, {r0, r1, r2, r3}
 327 001c DCF80030 		ldr	r3, [ip]
 328 0020 CEF80030 		str	r3, [lr]
 108:Drivers/lvgl/src/misc/lv_circle_buf.c ****     circle_buf->tail = 0;
 329              		.loc 1 108 5 is_stmt 1 view .LVU98
 108:Drivers/lvgl/src/misc/lv_circle_buf.c ****     circle_buf->tail = 0;
ARM GAS  /var/folders/qx/2_175_4n2s19vhvtspjhb3qh0000gn/T//ccDf6XOr.s 			page 15


 330              		.loc 1 108 22 is_stmt 0 view .LVU99
 331 0024 0023     		movs	r3, #0
 332 0026 6B61     		str	r3, [r5, #20]
 109:Drivers/lvgl/src/misc/lv_circle_buf.c ****     circle_buf->inner_alloc = false;
 333              		.loc 1 109 5 is_stmt 1 view .LVU100
 109:Drivers/lvgl/src/misc/lv_circle_buf.c ****     circle_buf->inner_alloc = false;
 334              		.loc 1 109 22 is_stmt 0 view .LVU101
 335 0028 AB61     		str	r3, [r5, #24]
 110:Drivers/lvgl/src/misc/lv_circle_buf.c **** 
 336              		.loc 1 110 5 is_stmt 1 view .LVU102
 110:Drivers/lvgl/src/misc/lv_circle_buf.c **** 
 337              		.loc 1 110 29 is_stmt 0 view .LVU103
 338 002a 2B77     		strb	r3, [r5, #28]
 112:Drivers/lvgl/src/misc/lv_circle_buf.c **** 
 339              		.loc 1 112 5 is_stmt 1 view .LVU104
 340 002c 2846     		mov	r0, r5
 341 002e FFF7FEFF 		bl	circle_buf_prepare_empty
 342              	.LVL25:
 114:Drivers/lvgl/src/misc/lv_circle_buf.c **** }
 343              		.loc 1 114 5 view .LVU105
 115:Drivers/lvgl/src/misc/lv_circle_buf.c **** 
 344              		.loc 1 115 1 is_stmt 0 view .LVU106
 345 0032 2846     		mov	r0, r5
 346 0034 38BD     		pop	{r3, r4, r5, pc}
 347              	.LVL26:
 348              	.L18:
 349              	.LCFI6:
 350              		.cfi_def_cfa_offset 0
 351              		.cfi_restore 3
 352              		.cfi_restore 4
 353              		.cfi_restore 5
 354              		.cfi_restore 14
  95:Drivers/lvgl/src/misc/lv_circle_buf.c ****     if(array == NULL) {
 355              		.loc 1 95 5 is_stmt 1 view .LVU107
  95:Drivers/lvgl/src/misc/lv_circle_buf.c ****     if(array == NULL) {
 356              		.loc 1 95 5 view .LVU108
  95:Drivers/lvgl/src/misc/lv_circle_buf.c ****     if(array == NULL) {
 357              		.loc 1 95 5 view .LVU109
  95:Drivers/lvgl/src/misc/lv_circle_buf.c ****     if(array == NULL) {
 358              		.loc 1 95 5 view .LVU110
  95:Drivers/lvgl/src/misc/lv_circle_buf.c ****     if(array == NULL) {
 359              		.loc 1 95 5 view .LVU111
 360 0036 FEE7     		b	.L18
 361              	.LVL27:
 362              	.L20:
 363              	.LCFI7:
 364              		.cfi_def_cfa_offset 16
 365              		.cfi_offset 3, -16
 366              		.cfi_offset 4, -12
 367              		.cfi_offset 5, -8
 368              		.cfi_offset 14, -4
 101:Drivers/lvgl/src/misc/lv_circle_buf.c **** 
 369              		.loc 1 101 5 view .LVU112
 101:Drivers/lvgl/src/misc/lv_circle_buf.c **** 
 370              		.loc 1 101 5 view .LVU113
 101:Drivers/lvgl/src/misc/lv_circle_buf.c **** 
 371              		.loc 1 101 5 view .LVU114
ARM GAS  /var/folders/qx/2_175_4n2s19vhvtspjhb3qh0000gn/T//ccDf6XOr.s 			page 16


 101:Drivers/lvgl/src/misc/lv_circle_buf.c **** 
 372              		.loc 1 101 5 view .LVU115
 101:Drivers/lvgl/src/misc/lv_circle_buf.c **** 
 373              		.loc 1 101 5 view .LVU116
 374 0038 FEE7     		b	.L20
 375              		.cfi_endproc
 376              	.LFE11:
 378              		.section	.text.lv_circle_buf_resize,"ax",%progbits
 379              		.align	1
 380              		.global	lv_circle_buf_resize
 381              		.syntax unified
 382              		.thumb
 383              		.thumb_func
 385              	lv_circle_buf_resize:
 386              	.LVL28:
 387              	.LFB12:
 118:Drivers/lvgl/src/misc/lv_circle_buf.c ****     LV_ASSERT_NULL(circle_buf);
 388              		.loc 1 118 1 view -0
 389              		.cfi_startproc
 390              		@ args = 0, pretend = 0, frame = 0
 391              		@ frame_needed = 0, uses_anonymous_args = 0
 119:Drivers/lvgl/src/misc/lv_circle_buf.c **** 
 392              		.loc 1 119 5 view .LVU118
 119:Drivers/lvgl/src/misc/lv_circle_buf.c **** 
 393              		.loc 1 119 5 view .LVU119
 394 0000 30B1     		cbz	r0, .L25
 118:Drivers/lvgl/src/misc/lv_circle_buf.c ****     LV_ASSERT_NULL(circle_buf);
 395              		.loc 1 118 1 is_stmt 0 view .LVU120
 396 0002 10B5     		push	{r4, lr}
 397              	.LCFI8:
 398              		.cfi_def_cfa_offset 8
 399              		.cfi_offset 4, -8
 400              		.cfi_offset 14, -4
 401 0004 0446     		mov	r4, r0
 119:Drivers/lvgl/src/misc/lv_circle_buf.c **** 
 402              		.loc 1 119 5 is_stmt 1 view .LVU121
 119:Drivers/lvgl/src/misc/lv_circle_buf.c **** 
 403              		.loc 1 119 31 view .LVU122
 121:Drivers/lvgl/src/misc/lv_circle_buf.c ****         return LV_RESULT_INVALID;
 404              		.loc 1 121 5 view .LVU123
 121:Drivers/lvgl/src/misc/lv_circle_buf.c ****         return LV_RESULT_INVALID;
 405              		.loc 1 121 8 is_stmt 0 view .LVU124
 406 0006 FFF7FEFF 		bl	lv_array_resize
 407              	.LVL29:
 121:Drivers/lvgl/src/misc/lv_circle_buf.c ****         return LV_RESULT_INVALID;
 408              		.loc 1 121 7 discriminator 1 view .LVU125
 409 000a 10B9     		cbnz	r0, .L30
 122:Drivers/lvgl/src/misc/lv_circle_buf.c ****     }
 410              		.loc 1 122 16 view .LVU126
 411 000c 0020     		movs	r0, #0
 412              	.L26:
 131:Drivers/lvgl/src/misc/lv_circle_buf.c **** 
 413              		.loc 1 131 1 view .LVU127
 414 000e 10BD     		pop	{r4, pc}
 415              	.LVL30:
 416              	.L25:
 417              	.LCFI9:
ARM GAS  /var/folders/qx/2_175_4n2s19vhvtspjhb3qh0000gn/T//ccDf6XOr.s 			page 17


 418              		.cfi_def_cfa_offset 0
 419              		.cfi_restore 4
 420              		.cfi_restore 14
 119:Drivers/lvgl/src/misc/lv_circle_buf.c **** 
 421              		.loc 1 119 5 is_stmt 1 view .LVU128
 119:Drivers/lvgl/src/misc/lv_circle_buf.c **** 
 422              		.loc 1 119 5 view .LVU129
 119:Drivers/lvgl/src/misc/lv_circle_buf.c **** 
 423              		.loc 1 119 5 view .LVU130
 119:Drivers/lvgl/src/misc/lv_circle_buf.c **** 
 424              		.loc 1 119 5 view .LVU131
 119:Drivers/lvgl/src/misc/lv_circle_buf.c **** 
 425              		.loc 1 119 5 view .LVU132
 426 0010 FEE7     		b	.L25
 427              	.LVL31:
 428              	.L30:
 429              	.LCFI10:
 430              		.cfi_def_cfa_offset 8
 431              		.cfi_offset 4, -8
 432              		.cfi_offset 14, -4
 125:Drivers/lvgl/src/misc/lv_circle_buf.c ****     circle_buf->tail = 0;
 433              		.loc 1 125 5 view .LVU133
 125:Drivers/lvgl/src/misc/lv_circle_buf.c ****     circle_buf->tail = 0;
 434              		.loc 1 125 22 is_stmt 0 view .LVU134
 435 0012 0023     		movs	r3, #0
 436 0014 6361     		str	r3, [r4, #20]
 126:Drivers/lvgl/src/misc/lv_circle_buf.c **** 
 437              		.loc 1 126 5 is_stmt 1 view .LVU135
 126:Drivers/lvgl/src/misc/lv_circle_buf.c **** 
 438              		.loc 1 126 22 is_stmt 0 view .LVU136
 439 0016 A361     		str	r3, [r4, #24]
 128:Drivers/lvgl/src/misc/lv_circle_buf.c **** 
 440              		.loc 1 128 5 is_stmt 1 view .LVU137
 441 0018 2046     		mov	r0, r4
 442 001a FFF7FEFF 		bl	circle_buf_prepare_empty
 443              	.LVL32:
 130:Drivers/lvgl/src/misc/lv_circle_buf.c **** }
 444              		.loc 1 130 5 view .LVU138
 130:Drivers/lvgl/src/misc/lv_circle_buf.c **** }
 445              		.loc 1 130 12 is_stmt 0 view .LVU139
 446 001e 0120     		movs	r0, #1
 447 0020 F5E7     		b	.L26
 448              		.cfi_endproc
 449              	.LFE12:
 451              		.section	.text.lv_circle_buf_destroy,"ax",%progbits
 452              		.align	1
 453              		.global	lv_circle_buf_destroy
 454              		.syntax unified
 455              		.thumb
 456              		.thumb_func
 458              	lv_circle_buf_destroy:
 459              	.LVL33:
 460              	.LFB13:
 134:Drivers/lvgl/src/misc/lv_circle_buf.c ****     LV_ASSERT_NULL(circle_buf);
 461              		.loc 1 134 1 is_stmt 1 view -0
 462              		.cfi_startproc
 463              		@ args = 0, pretend = 0, frame = 0
ARM GAS  /var/folders/qx/2_175_4n2s19vhvtspjhb3qh0000gn/T//ccDf6XOr.s 			page 18


 464              		@ frame_needed = 0, uses_anonymous_args = 0
 135:Drivers/lvgl/src/misc/lv_circle_buf.c **** 
 465              		.loc 1 135 5 view .LVU141
 135:Drivers/lvgl/src/misc/lv_circle_buf.c **** 
 466              		.loc 1 135 5 view .LVU142
 467 0000 38B1     		cbz	r0, .L33
 134:Drivers/lvgl/src/misc/lv_circle_buf.c ****     LV_ASSERT_NULL(circle_buf);
 468              		.loc 1 134 1 is_stmt 0 view .LVU143
 469 0002 10B5     		push	{r4, lr}
 470              	.LCFI11:
 471              		.cfi_def_cfa_offset 8
 472              		.cfi_offset 4, -8
 473              		.cfi_offset 14, -4
 474 0004 0446     		mov	r4, r0
 135:Drivers/lvgl/src/misc/lv_circle_buf.c **** 
 475              		.loc 1 135 5 is_stmt 1 view .LVU144
 135:Drivers/lvgl/src/misc/lv_circle_buf.c **** 
 476              		.loc 1 135 31 view .LVU145
 137:Drivers/lvgl/src/misc/lv_circle_buf.c **** 
 477              		.loc 1 137 5 view .LVU146
 478 0006 FFF7FEFF 		bl	lv_array_deinit
 479              	.LVL34:
 139:Drivers/lvgl/src/misc/lv_circle_buf.c **** }
 480              		.loc 1 139 5 view .LVU147
 481 000a 2046     		mov	r0, r4
 482 000c FFF7FEFF 		bl	lv_free
 483              	.LVL35:
 140:Drivers/lvgl/src/misc/lv_circle_buf.c **** 
 484              		.loc 1 140 1 is_stmt 0 view .LVU148
 485 0010 10BD     		pop	{r4, pc}
 486              	.LVL36:
 487              	.L33:
 488              	.LCFI12:
 489              		.cfi_def_cfa_offset 0
 490              		.cfi_restore 4
 491              		.cfi_restore 14
 135:Drivers/lvgl/src/misc/lv_circle_buf.c **** 
 492              		.loc 1 135 5 is_stmt 1 view .LVU149
 135:Drivers/lvgl/src/misc/lv_circle_buf.c **** 
 493              		.loc 1 135 5 view .LVU150
 135:Drivers/lvgl/src/misc/lv_circle_buf.c **** 
 494              		.loc 1 135 5 view .LVU151
 135:Drivers/lvgl/src/misc/lv_circle_buf.c **** 
 495              		.loc 1 135 5 view .LVU152
 135:Drivers/lvgl/src/misc/lv_circle_buf.c **** 
 496              		.loc 1 135 5 view .LVU153
 497 0012 FEE7     		b	.L33
 498              		.cfi_endproc
 499              	.LFE13:
 501              		.section	.text.lv_circle_buf_size,"ax",%progbits
 502              		.align	1
 503              		.global	lv_circle_buf_size
 504              		.syntax unified
 505              		.thumb
 506              		.thumb_func
 508              	lv_circle_buf_size:
 509              	.LVL37:
ARM GAS  /var/folders/qx/2_175_4n2s19vhvtspjhb3qh0000gn/T//ccDf6XOr.s 			page 19


 510              	.LFB14:
 143:Drivers/lvgl/src/misc/lv_circle_buf.c ****     LV_ASSERT_NULL(circle_buf);
 511              		.loc 1 143 1 view -0
 512              		.cfi_startproc
 513              		@ args = 0, pretend = 0, frame = 0
 514              		@ frame_needed = 0, uses_anonymous_args = 0
 515              		@ link register save eliminated.
 144:Drivers/lvgl/src/misc/lv_circle_buf.c **** 
 516              		.loc 1 144 5 view .LVU155
 144:Drivers/lvgl/src/misc/lv_circle_buf.c **** 
 517              		.loc 1 144 5 view .LVU156
 518 0000 0346     		mov	r3, r0
 519 0002 18B1     		cbz	r0, .L38
 144:Drivers/lvgl/src/misc/lv_circle_buf.c **** 
 520              		.loc 1 144 5 view .LVU157
 144:Drivers/lvgl/src/misc/lv_circle_buf.c **** 
 521              		.loc 1 144 31 view .LVU158
 146:Drivers/lvgl/src/misc/lv_circle_buf.c **** }
 522              		.loc 1 146 5 view .LVU159
 146:Drivers/lvgl/src/misc/lv_circle_buf.c **** }
 523              		.loc 1 146 22 is_stmt 0 view .LVU160
 524 0004 8069     		ldr	r0, [r0, #24]
 525              	.LVL38:
 146:Drivers/lvgl/src/misc/lv_circle_buf.c **** }
 526              		.loc 1 146 41 view .LVU161
 527 0006 5B69     		ldr	r3, [r3, #20]
 528              	.LVL39:
 147:Drivers/lvgl/src/misc/lv_circle_buf.c **** 
 529              		.loc 1 147 1 view .LVU162
 530 0008 C01A     		subs	r0, r0, r3
 531 000a 7047     		bx	lr
 532              	.LVL40:
 533              	.L38:
 144:Drivers/lvgl/src/misc/lv_circle_buf.c **** 
 534              		.loc 1 144 5 is_stmt 1 view .LVU163
 144:Drivers/lvgl/src/misc/lv_circle_buf.c **** 
 535              		.loc 1 144 5 view .LVU164
 144:Drivers/lvgl/src/misc/lv_circle_buf.c **** 
 536              		.loc 1 144 5 view .LVU165
 144:Drivers/lvgl/src/misc/lv_circle_buf.c **** 
 537              		.loc 1 144 5 view .LVU166
 144:Drivers/lvgl/src/misc/lv_circle_buf.c **** 
 538              		.loc 1 144 5 view .LVU167
 539 000c FEE7     		b	.L38
 540              		.cfi_endproc
 541              	.LFE14:
 543              		.section	.text.lv_circle_buf_capacity,"ax",%progbits
 544              		.align	1
 545              		.global	lv_circle_buf_capacity
 546              		.syntax unified
 547              		.thumb
 548              		.thumb_func
 550              	lv_circle_buf_capacity:
 551              	.LVL41:
 552              	.LFB15:
 150:Drivers/lvgl/src/misc/lv_circle_buf.c ****     LV_ASSERT_NULL(circle_buf);
 553              		.loc 1 150 1 view -0
ARM GAS  /var/folders/qx/2_175_4n2s19vhvtspjhb3qh0000gn/T//ccDf6XOr.s 			page 20


 554              		.cfi_startproc
 555              		@ args = 0, pretend = 0, frame = 0
 556              		@ frame_needed = 0, uses_anonymous_args = 0
 557              		@ link register save eliminated.
 151:Drivers/lvgl/src/misc/lv_circle_buf.c **** 
 558              		.loc 1 151 5 view .LVU169
 151:Drivers/lvgl/src/misc/lv_circle_buf.c **** 
 559              		.loc 1 151 5 view .LVU170
 560 0000 08B1     		cbz	r0, .L41
 151:Drivers/lvgl/src/misc/lv_circle_buf.c **** 
 561              		.loc 1 151 5 view .LVU171
 151:Drivers/lvgl/src/misc/lv_circle_buf.c **** 
 562              		.loc 1 151 31 view .LVU172
 153:Drivers/lvgl/src/misc/lv_circle_buf.c **** }
 563              		.loc 1 153 5 view .LVU173
 564              	.LVL42:
 565              	.LBB14:
 566              	.LBI14:
  96:Drivers/lvgl/src/misc/lv_array.h **** {
 567              		.loc 2 96 24 view .LVU174
 568              	.LBB15:
 569              		.loc 2 98 5 view .LVU175
 570              		.loc 2 98 5 is_stmt 0 view .LVU176
 571              	.LBE15:
 572              	.LBE14:
 154:Drivers/lvgl/src/misc/lv_circle_buf.c **** 
 573              		.loc 1 154 1 view .LVU177
 574 0002 8068     		ldr	r0, [r0, #8]
 575              	.LVL43:
 154:Drivers/lvgl/src/misc/lv_circle_buf.c **** 
 576              		.loc 1 154 1 view .LVU178
 577 0004 7047     		bx	lr
 578              	.LVL44:
 579              	.L41:
 151:Drivers/lvgl/src/misc/lv_circle_buf.c **** 
 580              		.loc 1 151 5 is_stmt 1 view .LVU179
 151:Drivers/lvgl/src/misc/lv_circle_buf.c **** 
 581              		.loc 1 151 5 view .LVU180
 151:Drivers/lvgl/src/misc/lv_circle_buf.c **** 
 582              		.loc 1 151 5 view .LVU181
 151:Drivers/lvgl/src/misc/lv_circle_buf.c **** 
 583              		.loc 1 151 5 view .LVU182
 151:Drivers/lvgl/src/misc/lv_circle_buf.c **** 
 584              		.loc 1 151 5 view .LVU183
 585 0006 FEE7     		b	.L41
 586              		.cfi_endproc
 587              	.LFE15:
 589              		.section	.text.lv_circle_buf_remain,"ax",%progbits
 590              		.align	1
 591              		.global	lv_circle_buf_remain
 592              		.syntax unified
 593              		.thumb
 594              		.thumb_func
 596              	lv_circle_buf_remain:
 597              	.LVL45:
 598              	.LFB16:
 157:Drivers/lvgl/src/misc/lv_circle_buf.c ****     LV_ASSERT_NULL(circle_buf);
ARM GAS  /var/folders/qx/2_175_4n2s19vhvtspjhb3qh0000gn/T//ccDf6XOr.s 			page 21


 599              		.loc 1 157 1 view -0
 600              		.cfi_startproc
 601              		@ args = 0, pretend = 0, frame = 0
 602              		@ frame_needed = 0, uses_anonymous_args = 0
 158:Drivers/lvgl/src/misc/lv_circle_buf.c **** 
 603              		.loc 1 158 5 view .LVU185
 158:Drivers/lvgl/src/misc/lv_circle_buf.c **** 
 604              		.loc 1 158 5 view .LVU186
 605 0000 48B1     		cbz	r0, .L44
 157:Drivers/lvgl/src/misc/lv_circle_buf.c ****     LV_ASSERT_NULL(circle_buf);
 606              		.loc 1 157 1 is_stmt 0 view .LVU187
 607 0002 38B5     		push	{r3, r4, r5, lr}
 608              	.LCFI13:
 609              		.cfi_def_cfa_offset 16
 610              		.cfi_offset 3, -16
 611              		.cfi_offset 4, -12
 612              		.cfi_offset 5, -8
 613              		.cfi_offset 14, -4
 614 0004 0546     		mov	r5, r0
 158:Drivers/lvgl/src/misc/lv_circle_buf.c **** 
 615              		.loc 1 158 5 is_stmt 1 view .LVU188
 158:Drivers/lvgl/src/misc/lv_circle_buf.c **** 
 616              		.loc 1 158 31 view .LVU189
 160:Drivers/lvgl/src/misc/lv_circle_buf.c **** }
 617              		.loc 1 160 5 view .LVU190
 160:Drivers/lvgl/src/misc/lv_circle_buf.c **** }
 618              		.loc 1 160 12 is_stmt 0 view .LVU191
 619 0006 FFF7FEFF 		bl	lv_circle_buf_capacity
 620              	.LVL46:
 160:Drivers/lvgl/src/misc/lv_circle_buf.c **** }
 621              		.loc 1 160 12 view .LVU192
 622 000a 0446     		mov	r4, r0
 160:Drivers/lvgl/src/misc/lv_circle_buf.c **** }
 623              		.loc 1 160 49 discriminator 1 view .LVU193
 624 000c 2846     		mov	r0, r5
 625 000e FFF7FEFF 		bl	lv_circle_buf_size
 626              	.LVL47:
 161:Drivers/lvgl/src/misc/lv_circle_buf.c **** 
 627              		.loc 1 161 1 view .LVU194
 628 0012 201A     		subs	r0, r4, r0
 629 0014 38BD     		pop	{r3, r4, r5, pc}
 630              	.LVL48:
 631              	.L44:
 632              	.LCFI14:
 633              		.cfi_def_cfa_offset 0
 634              		.cfi_restore 3
 635              		.cfi_restore 4
 636              		.cfi_restore 5
 637              		.cfi_restore 14
 158:Drivers/lvgl/src/misc/lv_circle_buf.c **** 
 638              		.loc 1 158 5 is_stmt 1 view .LVU195
 158:Drivers/lvgl/src/misc/lv_circle_buf.c **** 
 639              		.loc 1 158 5 view .LVU196
 158:Drivers/lvgl/src/misc/lv_circle_buf.c **** 
 640              		.loc 1 158 5 view .LVU197
 158:Drivers/lvgl/src/misc/lv_circle_buf.c **** 
 641              		.loc 1 158 5 view .LVU198
ARM GAS  /var/folders/qx/2_175_4n2s19vhvtspjhb3qh0000gn/T//ccDf6XOr.s 			page 22


 158:Drivers/lvgl/src/misc/lv_circle_buf.c **** 
 642              		.loc 1 158 5 view .LVU199
 643 0016 FEE7     		b	.L44
 644              		.cfi_endproc
 645              	.LFE16:
 647              		.section	.text.lv_circle_buf_is_empty,"ax",%progbits
 648              		.align	1
 649              		.global	lv_circle_buf_is_empty
 650              		.syntax unified
 651              		.thumb
 652              		.thumb_func
 654              	lv_circle_buf_is_empty:
 655              	.LVL49:
 656              	.LFB17:
 164:Drivers/lvgl/src/misc/lv_circle_buf.c ****     LV_ASSERT_NULL(circle_buf);
 657              		.loc 1 164 1 view -0
 658              		.cfi_startproc
 659              		@ args = 0, pretend = 0, frame = 0
 660              		@ frame_needed = 0, uses_anonymous_args = 0
 165:Drivers/lvgl/src/misc/lv_circle_buf.c **** 
 661              		.loc 1 165 5 view .LVU201
 165:Drivers/lvgl/src/misc/lv_circle_buf.c **** 
 662              		.loc 1 165 5 view .LVU202
 663 0000 30B1     		cbz	r0, .L49
 164:Drivers/lvgl/src/misc/lv_circle_buf.c ****     LV_ASSERT_NULL(circle_buf);
 664              		.loc 1 164 1 is_stmt 0 view .LVU203
 665 0002 08B5     		push	{r3, lr}
 666              	.LCFI15:
 667              		.cfi_def_cfa_offset 8
 668              		.cfi_offset 3, -8
 669              		.cfi_offset 14, -4
 165:Drivers/lvgl/src/misc/lv_circle_buf.c **** 
 670              		.loc 1 165 5 is_stmt 1 view .LVU204
 165:Drivers/lvgl/src/misc/lv_circle_buf.c **** 
 671              		.loc 1 165 31 view .LVU205
 167:Drivers/lvgl/src/misc/lv_circle_buf.c **** }
 672              		.loc 1 167 5 view .LVU206
 167:Drivers/lvgl/src/misc/lv_circle_buf.c **** }
 673              		.loc 1 167 13 is_stmt 0 view .LVU207
 674 0004 FFF7FEFF 		bl	lv_circle_buf_size
 675              	.LVL50:
 168:Drivers/lvgl/src/misc/lv_circle_buf.c **** 
 676              		.loc 1 168 1 view .LVU208
 677 0008 B0FA80F0 		clz	r0, r0
 678 000c 4009     		lsrs	r0, r0, #5
 679 000e 08BD     		pop	{r3, pc}
 680              	.LVL51:
 681              	.L49:
 682              	.LCFI16:
 683              		.cfi_def_cfa_offset 0
 684              		.cfi_restore 3
 685              		.cfi_restore 14
 165:Drivers/lvgl/src/misc/lv_circle_buf.c **** 
 686              		.loc 1 165 5 is_stmt 1 view .LVU209
 165:Drivers/lvgl/src/misc/lv_circle_buf.c **** 
 687              		.loc 1 165 5 view .LVU210
 165:Drivers/lvgl/src/misc/lv_circle_buf.c **** 
ARM GAS  /var/folders/qx/2_175_4n2s19vhvtspjhb3qh0000gn/T//ccDf6XOr.s 			page 23


 688              		.loc 1 165 5 view .LVU211
 165:Drivers/lvgl/src/misc/lv_circle_buf.c **** 
 689              		.loc 1 165 5 view .LVU212
 165:Drivers/lvgl/src/misc/lv_circle_buf.c **** 
 690              		.loc 1 165 5 view .LVU213
 691 0010 FEE7     		b	.L49
 692              		.cfi_endproc
 693              	.LFE17:
 695              		.section	.text.lv_circle_buf_is_full,"ax",%progbits
 696              		.align	1
 697              		.global	lv_circle_buf_is_full
 698              		.syntax unified
 699              		.thumb
 700              		.thumb_func
 702              	lv_circle_buf_is_full:
 703              	.LVL52:
 704              	.LFB18:
 171:Drivers/lvgl/src/misc/lv_circle_buf.c ****     LV_ASSERT_NULL(circle_buf);
 705              		.loc 1 171 1 view -0
 706              		.cfi_startproc
 707              		@ args = 0, pretend = 0, frame = 0
 708              		@ frame_needed = 0, uses_anonymous_args = 0
 172:Drivers/lvgl/src/misc/lv_circle_buf.c **** 
 709              		.loc 1 172 5 view .LVU215
 172:Drivers/lvgl/src/misc/lv_circle_buf.c **** 
 710              		.loc 1 172 5 view .LVU216
 711 0000 30B1     		cbz	r0, .L54
 171:Drivers/lvgl/src/misc/lv_circle_buf.c ****     LV_ASSERT_NULL(circle_buf);
 712              		.loc 1 171 1 is_stmt 0 view .LVU217
 713 0002 08B5     		push	{r3, lr}
 714              	.LCFI17:
 715              		.cfi_def_cfa_offset 8
 716              		.cfi_offset 3, -8
 717              		.cfi_offset 14, -4
 172:Drivers/lvgl/src/misc/lv_circle_buf.c **** 
 718              		.loc 1 172 5 is_stmt 1 view .LVU218
 172:Drivers/lvgl/src/misc/lv_circle_buf.c **** 
 719              		.loc 1 172 31 view .LVU219
 174:Drivers/lvgl/src/misc/lv_circle_buf.c **** }
 720              		.loc 1 174 5 view .LVU220
 174:Drivers/lvgl/src/misc/lv_circle_buf.c **** }
 721              		.loc 1 174 13 is_stmt 0 view .LVU221
 722 0004 FFF7FEFF 		bl	lv_circle_buf_remain
 723              	.LVL53:
 175:Drivers/lvgl/src/misc/lv_circle_buf.c **** 
 724              		.loc 1 175 1 view .LVU222
 725 0008 B0FA80F0 		clz	r0, r0
 726 000c 4009     		lsrs	r0, r0, #5
 727 000e 08BD     		pop	{r3, pc}
 728              	.LVL54:
 729              	.L54:
 730              	.LCFI18:
 731              		.cfi_def_cfa_offset 0
 732              		.cfi_restore 3
 733              		.cfi_restore 14
 172:Drivers/lvgl/src/misc/lv_circle_buf.c **** 
 734              		.loc 1 172 5 is_stmt 1 view .LVU223
ARM GAS  /var/folders/qx/2_175_4n2s19vhvtspjhb3qh0000gn/T//ccDf6XOr.s 			page 24


 172:Drivers/lvgl/src/misc/lv_circle_buf.c **** 
 735              		.loc 1 172 5 view .LVU224
 172:Drivers/lvgl/src/misc/lv_circle_buf.c **** 
 736              		.loc 1 172 5 view .LVU225
 172:Drivers/lvgl/src/misc/lv_circle_buf.c **** 
 737              		.loc 1 172 5 view .LVU226
 172:Drivers/lvgl/src/misc/lv_circle_buf.c **** 
 738              		.loc 1 172 5 view .LVU227
 739 0010 FEE7     		b	.L54
 740              		.cfi_endproc
 741              	.LFE18:
 743              		.section	.text.lv_circle_buf_reset,"ax",%progbits
 744              		.align	1
 745              		.global	lv_circle_buf_reset
 746              		.syntax unified
 747              		.thumb
 748              		.thumb_func
 750              	lv_circle_buf_reset:
 751              	.LVL55:
 752              	.LFB19:
 178:Drivers/lvgl/src/misc/lv_circle_buf.c ****     LV_ASSERT_NULL(circle_buf);
 753              		.loc 1 178 1 view -0
 754              		.cfi_startproc
 755              		@ args = 0, pretend = 0, frame = 0
 756              		@ frame_needed = 0, uses_anonymous_args = 0
 757              		@ link register save eliminated.
 179:Drivers/lvgl/src/misc/lv_circle_buf.c **** 
 758              		.loc 1 179 5 view .LVU229
 179:Drivers/lvgl/src/misc/lv_circle_buf.c **** 
 759              		.loc 1 179 5 view .LVU230
 760 0000 18B1     		cbz	r0, .L59
 179:Drivers/lvgl/src/misc/lv_circle_buf.c **** 
 761              		.loc 1 179 5 view .LVU231
 179:Drivers/lvgl/src/misc/lv_circle_buf.c **** 
 762              		.loc 1 179 31 view .LVU232
 181:Drivers/lvgl/src/misc/lv_circle_buf.c ****     circle_buf->tail = 0;
 763              		.loc 1 181 5 view .LVU233
 181:Drivers/lvgl/src/misc/lv_circle_buf.c ****     circle_buf->tail = 0;
 764              		.loc 1 181 22 is_stmt 0 view .LVU234
 765 0002 0022     		movs	r2, #0
 766 0004 4261     		str	r2, [r0, #20]
 182:Drivers/lvgl/src/misc/lv_circle_buf.c **** }
 767              		.loc 1 182 5 is_stmt 1 view .LVU235
 182:Drivers/lvgl/src/misc/lv_circle_buf.c **** }
 768              		.loc 1 182 22 is_stmt 0 view .LVU236
 769 0006 8261     		str	r2, [r0, #24]
 183:Drivers/lvgl/src/misc/lv_circle_buf.c **** 
 770              		.loc 1 183 1 view .LVU237
 771 0008 7047     		bx	lr
 772              	.L59:
 179:Drivers/lvgl/src/misc/lv_circle_buf.c **** 
 773              		.loc 1 179 5 is_stmt 1 view .LVU238
 179:Drivers/lvgl/src/misc/lv_circle_buf.c **** 
 774              		.loc 1 179 5 view .LVU239
 179:Drivers/lvgl/src/misc/lv_circle_buf.c **** 
 775              		.loc 1 179 5 view .LVU240
 179:Drivers/lvgl/src/misc/lv_circle_buf.c **** 
ARM GAS  /var/folders/qx/2_175_4n2s19vhvtspjhb3qh0000gn/T//ccDf6XOr.s 			page 25


 776              		.loc 1 179 5 view .LVU241
 179:Drivers/lvgl/src/misc/lv_circle_buf.c **** 
 777              		.loc 1 179 5 view .LVU242
 778 000a FEE7     		b	.L59
 779              		.cfi_endproc
 780              	.LFE19:
 782              		.section	.text.lv_circle_buf_head,"ax",%progbits
 783              		.align	1
 784              		.global	lv_circle_buf_head
 785              		.syntax unified
 786              		.thumb
 787              		.thumb_func
 789              	lv_circle_buf_head:
 790              	.LVL56:
 791              	.LFB20:
 186:Drivers/lvgl/src/misc/lv_circle_buf.c ****     LV_ASSERT_NULL(circle_buf);
 792              		.loc 1 186 1 view -0
 793              		.cfi_startproc
 794              		@ args = 0, pretend = 0, frame = 0
 795              		@ frame_needed = 0, uses_anonymous_args = 0
 187:Drivers/lvgl/src/misc/lv_circle_buf.c **** 
 796              		.loc 1 187 5 view .LVU244
 187:Drivers/lvgl/src/misc/lv_circle_buf.c **** 
 797              		.loc 1 187 5 view .LVU245
 798 0000 60B1     		cbz	r0, .L62
 186:Drivers/lvgl/src/misc/lv_circle_buf.c ****     LV_ASSERT_NULL(circle_buf);
 799              		.loc 1 186 1 is_stmt 0 view .LVU246
 800 0002 38B5     		push	{r3, r4, r5, lr}
 801              	.LCFI19:
 802              		.cfi_def_cfa_offset 16
 803              		.cfi_offset 3, -16
 804              		.cfi_offset 4, -12
 805              		.cfi_offset 5, -8
 806              		.cfi_offset 14, -4
 807 0004 0446     		mov	r4, r0
 187:Drivers/lvgl/src/misc/lv_circle_buf.c **** 
 808              		.loc 1 187 5 is_stmt 1 view .LVU247
 187:Drivers/lvgl/src/misc/lv_circle_buf.c **** 
 809              		.loc 1 187 31 view .LVU248
 189:Drivers/lvgl/src/misc/lv_circle_buf.c ****                        circle_buf->head % lv_circle_buf_capacity(circle_buf));
 810              		.loc 1 189 5 view .LVU249
 190:Drivers/lvgl/src/misc/lv_circle_buf.c **** }
 811              		.loc 1 190 34 is_stmt 0 view .LVU250
 812 0006 4569     		ldr	r5, [r0, #20]
 190:Drivers/lvgl/src/misc/lv_circle_buf.c **** }
 813              		.loc 1 190 43 view .LVU251
 814 0008 FFF7FEFF 		bl	lv_circle_buf_capacity
 815              	.LVL57:
 189:Drivers/lvgl/src/misc/lv_circle_buf.c ****                        circle_buf->head % lv_circle_buf_capacity(circle_buf));
 816              		.loc 1 189 12 view .LVU252
 817 000c B5FBF0F1 		udiv	r1, r5, r0
 818 0010 00FB1151 		mls	r1, r0, r1, r5
 819 0014 2046     		mov	r0, r4
 820 0016 FFF7FEFF 		bl	lv_array_at
 821              	.LVL58:
 191:Drivers/lvgl/src/misc/lv_circle_buf.c **** 
 822              		.loc 1 191 1 view .LVU253
ARM GAS  /var/folders/qx/2_175_4n2s19vhvtspjhb3qh0000gn/T//ccDf6XOr.s 			page 26


 823 001a 38BD     		pop	{r3, r4, r5, pc}
 824              	.LVL59:
 825              	.L62:
 826              	.LCFI20:
 827              		.cfi_def_cfa_offset 0
 828              		.cfi_restore 3
 829              		.cfi_restore 4
 830              		.cfi_restore 5
 831              		.cfi_restore 14
 187:Drivers/lvgl/src/misc/lv_circle_buf.c **** 
 832              		.loc 1 187 5 is_stmt 1 view .LVU254
 187:Drivers/lvgl/src/misc/lv_circle_buf.c **** 
 833              		.loc 1 187 5 view .LVU255
 187:Drivers/lvgl/src/misc/lv_circle_buf.c **** 
 834              		.loc 1 187 5 view .LVU256
 187:Drivers/lvgl/src/misc/lv_circle_buf.c **** 
 835              		.loc 1 187 5 view .LVU257
 187:Drivers/lvgl/src/misc/lv_circle_buf.c **** 
 836              		.loc 1 187 5 view .LVU258
 837 001c FEE7     		b	.L62
 838              		.cfi_endproc
 839              	.LFE20:
 841              		.section	.text.lv_circle_buf_tail,"ax",%progbits
 842              		.align	1
 843              		.global	lv_circle_buf_tail
 844              		.syntax unified
 845              		.thumb
 846              		.thumb_func
 848              	lv_circle_buf_tail:
 849              	.LVL60:
 850              	.LFB21:
 194:Drivers/lvgl/src/misc/lv_circle_buf.c ****     LV_ASSERT_NULL(circle_buf);
 851              		.loc 1 194 1 view -0
 852              		.cfi_startproc
 853              		@ args = 0, pretend = 0, frame = 0
 854              		@ frame_needed = 0, uses_anonymous_args = 0
 195:Drivers/lvgl/src/misc/lv_circle_buf.c **** 
 855              		.loc 1 195 5 view .LVU260
 195:Drivers/lvgl/src/misc/lv_circle_buf.c **** 
 856              		.loc 1 195 5 view .LVU261
 857 0000 60B1     		cbz	r0, .L67
 194:Drivers/lvgl/src/misc/lv_circle_buf.c ****     LV_ASSERT_NULL(circle_buf);
 858              		.loc 1 194 1 is_stmt 0 view .LVU262
 859 0002 38B5     		push	{r3, r4, r5, lr}
 860              	.LCFI21:
 861              		.cfi_def_cfa_offset 16
 862              		.cfi_offset 3, -16
 863              		.cfi_offset 4, -12
 864              		.cfi_offset 5, -8
 865              		.cfi_offset 14, -4
 866 0004 0446     		mov	r4, r0
 195:Drivers/lvgl/src/misc/lv_circle_buf.c **** 
 867              		.loc 1 195 5 is_stmt 1 view .LVU263
 195:Drivers/lvgl/src/misc/lv_circle_buf.c **** 
 868              		.loc 1 195 31 view .LVU264
 197:Drivers/lvgl/src/misc/lv_circle_buf.c ****                        circle_buf->tail % lv_circle_buf_capacity(circle_buf));
 869              		.loc 1 197 5 view .LVU265
ARM GAS  /var/folders/qx/2_175_4n2s19vhvtspjhb3qh0000gn/T//ccDf6XOr.s 			page 27


 198:Drivers/lvgl/src/misc/lv_circle_buf.c **** }
 870              		.loc 1 198 34 is_stmt 0 view .LVU266
 871 0006 8569     		ldr	r5, [r0, #24]
 198:Drivers/lvgl/src/misc/lv_circle_buf.c **** }
 872              		.loc 1 198 43 view .LVU267
 873 0008 FFF7FEFF 		bl	lv_circle_buf_capacity
 874              	.LVL61:
 197:Drivers/lvgl/src/misc/lv_circle_buf.c ****                        circle_buf->tail % lv_circle_buf_capacity(circle_buf));
 875              		.loc 1 197 12 view .LVU268
 876 000c B5FBF0F1 		udiv	r1, r5, r0
 877 0010 00FB1151 		mls	r1, r0, r1, r5
 878 0014 2046     		mov	r0, r4
 879 0016 FFF7FEFF 		bl	lv_array_at
 880              	.LVL62:
 199:Drivers/lvgl/src/misc/lv_circle_buf.c **** 
 881              		.loc 1 199 1 view .LVU269
 882 001a 38BD     		pop	{r3, r4, r5, pc}
 883              	.LVL63:
 884              	.L67:
 885              	.LCFI22:
 886              		.cfi_def_cfa_offset 0
 887              		.cfi_restore 3
 888              		.cfi_restore 4
 889              		.cfi_restore 5
 890              		.cfi_restore 14
 195:Drivers/lvgl/src/misc/lv_circle_buf.c **** 
 891              		.loc 1 195 5 is_stmt 1 view .LVU270
 195:Drivers/lvgl/src/misc/lv_circle_buf.c **** 
 892              		.loc 1 195 5 view .LVU271
 195:Drivers/lvgl/src/misc/lv_circle_buf.c **** 
 893              		.loc 1 195 5 view .LVU272
 195:Drivers/lvgl/src/misc/lv_circle_buf.c **** 
 894              		.loc 1 195 5 view .LVU273
 195:Drivers/lvgl/src/misc/lv_circle_buf.c **** 
 895              		.loc 1 195 5 view .LVU274
 896 001c FEE7     		b	.L67
 897              		.cfi_endproc
 898              	.LFE21:
 900              		.section	.text.lv_circle_buf_write,"ax",%progbits
 901              		.align	1
 902              		.global	lv_circle_buf_write
 903              		.syntax unified
 904              		.thumb
 905              		.thumb_func
 907              	lv_circle_buf_write:
 908              	.LVL64:
 909              	.LFB23:
 218:Drivers/lvgl/src/misc/lv_circle_buf.c ****     LV_ASSERT_NULL(circle_buf);
 910              		.loc 1 218 1 view -0
 911              		.cfi_startproc
 912              		@ args = 0, pretend = 0, frame = 0
 913              		@ frame_needed = 0, uses_anonymous_args = 0
 219:Drivers/lvgl/src/misc/lv_circle_buf.c **** 
 914              		.loc 1 219 5 view .LVU276
 219:Drivers/lvgl/src/misc/lv_circle_buf.c **** 
 915              		.loc 1 219 5 view .LVU277
 916 0000 38B1     		cbz	r0, .L72
ARM GAS  /var/folders/qx/2_175_4n2s19vhvtspjhb3qh0000gn/T//ccDf6XOr.s 			page 28


 218:Drivers/lvgl/src/misc/lv_circle_buf.c ****     LV_ASSERT_NULL(circle_buf);
 917              		.loc 1 218 1 is_stmt 0 view .LVU278
 918 0002 70B5     		push	{r4, r5, r6, lr}
 919              	.LCFI23:
 920              		.cfi_def_cfa_offset 16
 921              		.cfi_offset 4, -16
 922              		.cfi_offset 5, -12
 923              		.cfi_offset 6, -8
 924              		.cfi_offset 14, -4
 925 0004 0C46     		mov	r4, r1
 926 0006 0546     		mov	r5, r0
 219:Drivers/lvgl/src/misc/lv_circle_buf.c **** 
 927              		.loc 1 219 5 is_stmt 1 view .LVU279
 219:Drivers/lvgl/src/misc/lv_circle_buf.c **** 
 928              		.loc 1 219 31 view .LVU280
 221:Drivers/lvgl/src/misc/lv_circle_buf.c ****         return LV_RESULT_INVALID;
 929              		.loc 1 221 5 view .LVU281
 221:Drivers/lvgl/src/misc/lv_circle_buf.c ****         return LV_RESULT_INVALID;
 930              		.loc 1 221 8 is_stmt 0 view .LVU282
 931 0008 FFF7FEFF 		bl	lv_circle_buf_is_full
 932              	.LVL65:
 221:Drivers/lvgl/src/misc/lv_circle_buf.c ****         return LV_RESULT_INVALID;
 933              		.loc 1 221 7 discriminator 1 view .LVU283
 934 000c 10B1     		cbz	r0, .L77
 222:Drivers/lvgl/src/misc/lv_circle_buf.c ****     }
 935              		.loc 1 222 16 view .LVU284
 936 000e 0020     		movs	r0, #0
 937              	.L73:
 229:Drivers/lvgl/src/misc/lv_circle_buf.c **** 
 938              		.loc 1 229 1 view .LVU285
 939 0010 70BD     		pop	{r4, r5, r6, pc}
 940              	.LVL66:
 941              	.L72:
 942              	.LCFI24:
 943              		.cfi_def_cfa_offset 0
 944              		.cfi_restore 4
 945              		.cfi_restore 5
 946              		.cfi_restore 6
 947              		.cfi_restore 14
 219:Drivers/lvgl/src/misc/lv_circle_buf.c **** 
 948              		.loc 1 219 5 is_stmt 1 view .LVU286
 219:Drivers/lvgl/src/misc/lv_circle_buf.c **** 
 949              		.loc 1 219 5 view .LVU287
 219:Drivers/lvgl/src/misc/lv_circle_buf.c **** 
 950              		.loc 1 219 5 view .LVU288
 219:Drivers/lvgl/src/misc/lv_circle_buf.c **** 
 951              		.loc 1 219 5 view .LVU289
 219:Drivers/lvgl/src/misc/lv_circle_buf.c **** 
 952              		.loc 1 219 5 view .LVU290
 953 0012 FEE7     		b	.L72
 954              	.LVL67:
 955              	.L77:
 956              	.LCFI25:
 957              		.cfi_def_cfa_offset 16
 958              		.cfi_offset 4, -16
 959              		.cfi_offset 5, -12
 960              		.cfi_offset 6, -8
ARM GAS  /var/folders/qx/2_175_4n2s19vhvtspjhb3qh0000gn/T//ccDf6XOr.s 			page 29


 961              		.cfi_offset 14, -4
 225:Drivers/lvgl/src/misc/lv_circle_buf.c ****     circle_buf->tail++;
 962              		.loc 1 225 5 view .LVU291
 225:Drivers/lvgl/src/misc/lv_circle_buf.c ****     circle_buf->tail++;
 963              		.loc 1 225 51 is_stmt 0 view .LVU292
 964 0014 AE69     		ldr	r6, [r5, #24]
 225:Drivers/lvgl/src/misc/lv_circle_buf.c ****     circle_buf->tail++;
 965              		.loc 1 225 60 view .LVU293
 966 0016 2846     		mov	r0, r5
 967 0018 FFF7FEFF 		bl	lv_circle_buf_capacity
 968              	.LVL68:
 225:Drivers/lvgl/src/misc/lv_circle_buf.c ****     circle_buf->tail++;
 969              		.loc 1 225 5 discriminator 1 view .LVU294
 970 001c B6FBF0F1 		udiv	r1, r6, r0
 971 0020 2246     		mov	r2, r4
 972 0022 00FB1161 		mls	r1, r0, r1, r6
 973 0026 2846     		mov	r0, r5
 974 0028 FFF7FEFF 		bl	lv_array_assign
 975              	.LVL69:
 226:Drivers/lvgl/src/misc/lv_circle_buf.c **** 
 976              		.loc 1 226 5 is_stmt 1 view .LVU295
 226:Drivers/lvgl/src/misc/lv_circle_buf.c **** 
 977              		.loc 1 226 15 is_stmt 0 view .LVU296
 978 002c AB69     		ldr	r3, [r5, #24]
 226:Drivers/lvgl/src/misc/lv_circle_buf.c **** 
 979              		.loc 1 226 21 view .LVU297
 980 002e 0133     		adds	r3, r3, #1
 981 0030 AB61     		str	r3, [r5, #24]
 228:Drivers/lvgl/src/misc/lv_circle_buf.c **** }
 982              		.loc 1 228 5 is_stmt 1 view .LVU298
 228:Drivers/lvgl/src/misc/lv_circle_buf.c **** }
 983              		.loc 1 228 12 is_stmt 0 view .LVU299
 984 0032 0120     		movs	r0, #1
 985 0034 ECE7     		b	.L73
 986              		.cfi_endproc
 987              	.LFE23:
 989              		.section	.text.lv_circle_buf_fill,"ax",%progbits
 990              		.align	1
 991              		.global	lv_circle_buf_fill
 992              		.syntax unified
 993              		.thumb
 994              		.thumb_func
 996              	lv_circle_buf_fill:
 997              	.LVL70:
 998              	.LFB24:
 233:Drivers/lvgl/src/misc/lv_circle_buf.c ****     LV_ASSERT_NULL(circle_buf);
 999              		.loc 1 233 1 is_stmt 1 view -0
 1000              		.cfi_startproc
 1001              		@ args = 0, pretend = 0, frame = 0
 1002              		@ frame_needed = 0, uses_anonymous_args = 0
 234:Drivers/lvgl/src/misc/lv_circle_buf.c ****     LV_ASSERT_NULL(fill_cb);
 1003              		.loc 1 234 5 view .LVU301
 234:Drivers/lvgl/src/misc/lv_circle_buf.c ****     LV_ASSERT_NULL(fill_cb);
 1004              		.loc 1 234 5 view .LVU302
 1005 0000 D0B1     		cbz	r0, .L80
 233:Drivers/lvgl/src/misc/lv_circle_buf.c ****     LV_ASSERT_NULL(circle_buf);
 1006              		.loc 1 233 1 is_stmt 0 view .LVU303
ARM GAS  /var/folders/qx/2_175_4n2s19vhvtspjhb3qh0000gn/T//ccDf6XOr.s 			page 30


 1007 0002 2DE9F041 		push	{r4, r5, r6, r7, r8, lr}
 1008              	.LCFI26:
 1009              		.cfi_def_cfa_offset 24
 1010              		.cfi_offset 4, -24
 1011              		.cfi_offset 5, -20
 1012              		.cfi_offset 6, -16
 1013              		.cfi_offset 7, -12
 1014              		.cfi_offset 8, -8
 1015              		.cfi_offset 14, -4
 1016 0006 0D46     		mov	r5, r1
 1017 0008 1746     		mov	r7, r2
 1018 000a 9846     		mov	r8, r3
 1019 000c 0446     		mov	r4, r0
 234:Drivers/lvgl/src/misc/lv_circle_buf.c ****     LV_ASSERT_NULL(fill_cb);
 1020              		.loc 1 234 5 is_stmt 1 view .LVU304
 234:Drivers/lvgl/src/misc/lv_circle_buf.c ****     LV_ASSERT_NULL(fill_cb);
 1021              		.loc 1 234 31 view .LVU305
 235:Drivers/lvgl/src/misc/lv_circle_buf.c **** 
 1022              		.loc 1 235 5 view .LVU306
 235:Drivers/lvgl/src/misc/lv_circle_buf.c **** 
 1023              		.loc 1 235 5 view .LVU307
 1024 000e A2B1     		cbz	r2, .L82
 237:Drivers/lvgl/src/misc/lv_circle_buf.c ****     while(count > 0 && !lv_circle_buf_is_full(circle_buf)) {
 1025              		.loc 1 237 14 is_stmt 0 view .LVU308
 1026 0010 0026     		movs	r6, #0
 1027              	.LVL71:
 1028              	.L81:
 238:Drivers/lvgl/src/misc/lv_circle_buf.c ****         void * data = lv_circle_buf_tail(circle_buf);
 1029              		.loc 1 238 21 is_stmt 1 view .LVU309
 1030 0012 9DB1     		cbz	r5, .L78
 238:Drivers/lvgl/src/misc/lv_circle_buf.c ****         void * data = lv_circle_buf_tail(circle_buf);
 1031              		.loc 1 238 25 is_stmt 0 discriminator 1 view .LVU310
 1032 0014 2046     		mov	r0, r4
 1033 0016 FFF7FEFF 		bl	lv_circle_buf_is_full
 1034              	.LVL72:
 238:Drivers/lvgl/src/misc/lv_circle_buf.c ****         void * data = lv_circle_buf_tail(circle_buf);
 1035              		.loc 1 238 21 discriminator 1 view .LVU311
 1036 001a 78B9     		cbnz	r0, .L78
 1037              	.LBB16:
 239:Drivers/lvgl/src/misc/lv_circle_buf.c ****         if(fill_cb(data, circle_buf->array.element_size, (int32_t)filled, user_data) == LV_RESULT_O
 1038              		.loc 1 239 9 is_stmt 1 view .LVU312
 239:Drivers/lvgl/src/misc/lv_circle_buf.c ****         if(fill_cb(data, circle_buf->array.element_size, (int32_t)filled, user_data) == LV_RESULT_O
 1039              		.loc 1 239 23 is_stmt 0 view .LVU313
 1040 001c 2046     		mov	r0, r4
 1041 001e FFF7FEFF 		bl	lv_circle_buf_tail
 1042              	.LVL73:
 240:Drivers/lvgl/src/misc/lv_circle_buf.c ****             circle_buf->tail++;
 1043              		.loc 1 240 9 is_stmt 1 view .LVU314
 240:Drivers/lvgl/src/misc/lv_circle_buf.c ****             circle_buf->tail++;
 1044              		.loc 1 240 12 is_stmt 0 view .LVU315
 1045 0022 4346     		mov	r3, r8
 1046 0024 3246     		mov	r2, r6
 1047 0026 E168     		ldr	r1, [r4, #12]
 1048 0028 B847     		blx	r7
 1049              	.LVL74:
 240:Drivers/lvgl/src/misc/lv_circle_buf.c ****             circle_buf->tail++;
 1050              		.loc 1 240 11 discriminator 1 view .LVU316
ARM GAS  /var/folders/qx/2_175_4n2s19vhvtspjhb3qh0000gn/T//ccDf6XOr.s 			page 31


 1051 002a 38B1     		cbz	r0, .L78
 241:Drivers/lvgl/src/misc/lv_circle_buf.c ****             filled++;
 1052              		.loc 1 241 13 is_stmt 1 view .LVU317
 241:Drivers/lvgl/src/misc/lv_circle_buf.c ****             filled++;
 1053              		.loc 1 241 23 is_stmt 0 view .LVU318
 1054 002c A069     		ldr	r0, [r4, #24]
 241:Drivers/lvgl/src/misc/lv_circle_buf.c ****             filled++;
 1055              		.loc 1 241 29 view .LVU319
 1056 002e 0130     		adds	r0, r0, #1
 1057 0030 A061     		str	r0, [r4, #24]
 242:Drivers/lvgl/src/misc/lv_circle_buf.c ****         }
 1058              		.loc 1 242 13 is_stmt 1 view .LVU320
 242:Drivers/lvgl/src/misc/lv_circle_buf.c ****         }
 1059              		.loc 1 242 19 is_stmt 0 view .LVU321
 1060 0032 0136     		adds	r6, r6, #1
 1061              	.LVL75:
 246:Drivers/lvgl/src/misc/lv_circle_buf.c ****     }
 1062              		.loc 1 246 9 is_stmt 1 view .LVU322
 246:Drivers/lvgl/src/misc/lv_circle_buf.c ****     }
 1063              		.loc 1 246 14 is_stmt 0 view .LVU323
 1064 0034 013D     		subs	r5, r5, #1
 1065              	.LVL76:
 246:Drivers/lvgl/src/misc/lv_circle_buf.c ****     }
 1066              		.loc 1 246 14 view .LVU324
 1067 0036 ECE7     		b	.L81
 1068              	.LVL77:
 1069              	.L80:
 1070              	.LCFI27:
 1071              		.cfi_def_cfa_offset 0
 1072              		.cfi_restore 4
 1073              		.cfi_restore 5
 1074              		.cfi_restore 6
 1075              		.cfi_restore 7
 1076              		.cfi_restore 8
 1077              		.cfi_restore 14
 246:Drivers/lvgl/src/misc/lv_circle_buf.c ****     }
 1078              		.loc 1 246 14 view .LVU325
 1079              	.LBE16:
 234:Drivers/lvgl/src/misc/lv_circle_buf.c ****     LV_ASSERT_NULL(fill_cb);
 1080              		.loc 1 234 5 is_stmt 1 view .LVU326
 234:Drivers/lvgl/src/misc/lv_circle_buf.c ****     LV_ASSERT_NULL(fill_cb);
 1081              		.loc 1 234 5 view .LVU327
 234:Drivers/lvgl/src/misc/lv_circle_buf.c ****     LV_ASSERT_NULL(fill_cb);
 1082              		.loc 1 234 5 view .LVU328
 234:Drivers/lvgl/src/misc/lv_circle_buf.c ****     LV_ASSERT_NULL(fill_cb);
 1083              		.loc 1 234 5 view .LVU329
 234:Drivers/lvgl/src/misc/lv_circle_buf.c ****     LV_ASSERT_NULL(fill_cb);
 1084              		.loc 1 234 5 view .LVU330
 1085 0038 FEE7     		b	.L80
 1086              	.L82:
 1087              	.LCFI28:
 1088              		.cfi_def_cfa_offset 24
 1089              		.cfi_offset 4, -24
 1090              		.cfi_offset 5, -20
 1091              		.cfi_offset 6, -16
 1092              		.cfi_offset 7, -12
 1093              		.cfi_offset 8, -8
ARM GAS  /var/folders/qx/2_175_4n2s19vhvtspjhb3qh0000gn/T//ccDf6XOr.s 			page 32


 1094              		.cfi_offset 14, -4
 235:Drivers/lvgl/src/misc/lv_circle_buf.c **** 
 1095              		.loc 1 235 5 view .LVU331
 235:Drivers/lvgl/src/misc/lv_circle_buf.c **** 
 1096              		.loc 1 235 5 view .LVU332
 235:Drivers/lvgl/src/misc/lv_circle_buf.c **** 
 1097              		.loc 1 235 5 view .LVU333
 235:Drivers/lvgl/src/misc/lv_circle_buf.c **** 
 1098              		.loc 1 235 5 view .LVU334
 235:Drivers/lvgl/src/misc/lv_circle_buf.c **** 
 1099              		.loc 1 235 5 view .LVU335
 1100 003a FEE7     		b	.L82
 1101              	.LVL78:
 1102              	.L78:
 250:Drivers/lvgl/src/misc/lv_circle_buf.c **** 
 1103              		.loc 1 250 1 is_stmt 0 view .LVU336
 1104 003c 3046     		mov	r0, r6
 1105 003e BDE8F081 		pop	{r4, r5, r6, r7, r8, pc}
 250:Drivers/lvgl/src/misc/lv_circle_buf.c **** 
 1106              		.loc 1 250 1 view .LVU337
 1107              		.cfi_endproc
 1108              	.LFE24:
 1110              		.section	.text.lv_circle_buf_skip,"ax",%progbits
 1111              		.align	1
 1112              		.global	lv_circle_buf_skip
 1113              		.syntax unified
 1114              		.thumb
 1115              		.thumb_func
 1117              	lv_circle_buf_skip:
 1118              	.LVL79:
 1119              	.LFB25:
 253:Drivers/lvgl/src/misc/lv_circle_buf.c ****     LV_ASSERT_NULL(circle_buf);
 1120              		.loc 1 253 1 is_stmt 1 view -0
 1121              		.cfi_startproc
 1122              		@ args = 0, pretend = 0, frame = 0
 1123              		@ frame_needed = 0, uses_anonymous_args = 0
 254:Drivers/lvgl/src/misc/lv_circle_buf.c **** 
 1124              		.loc 1 254 5 view .LVU339
 254:Drivers/lvgl/src/misc/lv_circle_buf.c **** 
 1125              		.loc 1 254 5 view .LVU340
 1126 0000 48B1     		cbz	r0, .L90
 253:Drivers/lvgl/src/misc/lv_circle_buf.c ****     LV_ASSERT_NULL(circle_buf);
 1127              		.loc 1 253 1 is_stmt 0 view .LVU341
 1128 0002 10B5     		push	{r4, lr}
 1129              	.LCFI29:
 1130              		.cfi_def_cfa_offset 8
 1131              		.cfi_offset 4, -8
 1132              		.cfi_offset 14, -4
 1133 0004 0446     		mov	r4, r0
 254:Drivers/lvgl/src/misc/lv_circle_buf.c **** 
 1134              		.loc 1 254 5 is_stmt 1 view .LVU342
 254:Drivers/lvgl/src/misc/lv_circle_buf.c **** 
 1135              		.loc 1 254 31 view .LVU343
 256:Drivers/lvgl/src/misc/lv_circle_buf.c ****         circle_buf->head = 0;
 1136              		.loc 1 256 5 view .LVU344
 256:Drivers/lvgl/src/misc/lv_circle_buf.c ****         circle_buf->head = 0;
 1137              		.loc 1 256 8 is_stmt 0 view .LVU345
ARM GAS  /var/folders/qx/2_175_4n2s19vhvtspjhb3qh0000gn/T//ccDf6XOr.s 			page 33


 1138 0006 FFF7FEFF 		bl	lv_circle_buf_is_empty
 1139              	.LVL80:
 256:Drivers/lvgl/src/misc/lv_circle_buf.c ****         circle_buf->head = 0;
 1140              		.loc 1 256 7 discriminator 1 view .LVU346
 1141 000a 28B9     		cbnz	r0, .L95
 262:Drivers/lvgl/src/misc/lv_circle_buf.c **** 
 1142              		.loc 1 262 5 is_stmt 1 view .LVU347
 262:Drivers/lvgl/src/misc/lv_circle_buf.c **** 
 1143              		.loc 1 262 15 is_stmt 0 view .LVU348
 1144 000c 6369     		ldr	r3, [r4, #20]
 262:Drivers/lvgl/src/misc/lv_circle_buf.c **** 
 1145              		.loc 1 262 21 view .LVU349
 1146 000e 0133     		adds	r3, r3, #1
 1147 0010 6361     		str	r3, [r4, #20]
 264:Drivers/lvgl/src/misc/lv_circle_buf.c **** }
 1148              		.loc 1 264 5 is_stmt 1 view .LVU350
 264:Drivers/lvgl/src/misc/lv_circle_buf.c **** }
 1149              		.loc 1 264 12 is_stmt 0 view .LVU351
 1150 0012 0120     		movs	r0, #1
 1151              	.L92:
 265:Drivers/lvgl/src/misc/lv_circle_buf.c **** 
 1152              		.loc 1 265 1 view .LVU352
 1153 0014 10BD     		pop	{r4, pc}
 1154              	.LVL81:
 1155              	.L90:
 1156              	.LCFI30:
 1157              		.cfi_def_cfa_offset 0
 1158              		.cfi_restore 4
 1159              		.cfi_restore 14
 254:Drivers/lvgl/src/misc/lv_circle_buf.c **** 
 1160              		.loc 1 254 5 is_stmt 1 view .LVU353
 254:Drivers/lvgl/src/misc/lv_circle_buf.c **** 
 1161              		.loc 1 254 5 view .LVU354
 254:Drivers/lvgl/src/misc/lv_circle_buf.c **** 
 1162              		.loc 1 254 5 view .LVU355
 254:Drivers/lvgl/src/misc/lv_circle_buf.c **** 
 1163              		.loc 1 254 5 view .LVU356
 254:Drivers/lvgl/src/misc/lv_circle_buf.c **** 
 1164              		.loc 1 254 5 view .LVU357
 1165 0016 FEE7     		b	.L90
 1166              	.LVL82:
 1167              	.L95:
 1168              	.LCFI31:
 1169              		.cfi_def_cfa_offset 8
 1170              		.cfi_offset 4, -8
 1171              		.cfi_offset 14, -4
 257:Drivers/lvgl/src/misc/lv_circle_buf.c ****         circle_buf->tail = 0;
 1172              		.loc 1 257 9 view .LVU358
 257:Drivers/lvgl/src/misc/lv_circle_buf.c ****         circle_buf->tail = 0;
 1173              		.loc 1 257 26 is_stmt 0 view .LVU359
 1174 0018 0020     		movs	r0, #0
 1175 001a 6061     		str	r0, [r4, #20]
 258:Drivers/lvgl/src/misc/lv_circle_buf.c ****         return LV_RESULT_INVALID;
 1176              		.loc 1 258 9 is_stmt 1 view .LVU360
 258:Drivers/lvgl/src/misc/lv_circle_buf.c ****         return LV_RESULT_INVALID;
 1177              		.loc 1 258 26 is_stmt 0 view .LVU361
 1178 001c A061     		str	r0, [r4, #24]
ARM GAS  /var/folders/qx/2_175_4n2s19vhvtspjhb3qh0000gn/T//ccDf6XOr.s 			page 34


 259:Drivers/lvgl/src/misc/lv_circle_buf.c ****     }
 1179              		.loc 1 259 9 is_stmt 1 view .LVU362
 259:Drivers/lvgl/src/misc/lv_circle_buf.c ****     }
 1180              		.loc 1 259 16 is_stmt 0 view .LVU363
 1181 001e F9E7     		b	.L92
 1182              		.cfi_endproc
 1183              	.LFE25:
 1185              		.section	.text.lv_circle_buf_peek_at,"ax",%progbits
 1186              		.align	1
 1187              		.global	lv_circle_buf_peek_at
 1188              		.syntax unified
 1189              		.thumb
 1190              		.thumb_func
 1192              	lv_circle_buf_peek_at:
 1193              	.LVL83:
 1194              	.LFB27:
 276:Drivers/lvgl/src/misc/lv_circle_buf.c ****     LV_ASSERT_NULL(circle_buf);
 1195              		.loc 1 276 1 is_stmt 1 view -0
 1196              		.cfi_startproc
 1197              		@ args = 0, pretend = 0, frame = 0
 1198              		@ frame_needed = 0, uses_anonymous_args = 0
 277:Drivers/lvgl/src/misc/lv_circle_buf.c ****     LV_ASSERT_NULL(data);
 1199              		.loc 1 277 5 view .LVU365
 277:Drivers/lvgl/src/misc/lv_circle_buf.c ****     LV_ASSERT_NULL(data);
 1200              		.loc 1 277 5 view .LVU366
 1201 0000 E8B1     		cbz	r0, .L98
 276:Drivers/lvgl/src/misc/lv_circle_buf.c ****     LV_ASSERT_NULL(circle_buf);
 1202              		.loc 1 276 1 is_stmt 0 view .LVU367
 1203 0002 70B5     		push	{r4, r5, r6, lr}
 1204              	.LCFI32:
 1205              		.cfi_def_cfa_offset 16
 1206              		.cfi_offset 4, -16
 1207              		.cfi_offset 5, -12
 1208              		.cfi_offset 6, -8
 1209              		.cfi_offset 14, -4
 1210 0004 0C46     		mov	r4, r1
 1211 0006 1546     		mov	r5, r2
 1212 0008 0646     		mov	r6, r0
 277:Drivers/lvgl/src/misc/lv_circle_buf.c ****     LV_ASSERT_NULL(data);
 1213              		.loc 1 277 5 is_stmt 1 view .LVU368
 277:Drivers/lvgl/src/misc/lv_circle_buf.c ****     LV_ASSERT_NULL(data);
 1214              		.loc 1 277 31 view .LVU369
 278:Drivers/lvgl/src/misc/lv_circle_buf.c **** 
 1215              		.loc 1 278 5 view .LVU370
 278:Drivers/lvgl/src/misc/lv_circle_buf.c **** 
 1216              		.loc 1 278 5 view .LVU371
 1217 000a CAB1     		cbz	r2, .L100
 278:Drivers/lvgl/src/misc/lv_circle_buf.c **** 
 1218              		.loc 1 278 5 view .LVU372
 278:Drivers/lvgl/src/misc/lv_circle_buf.c **** 
 1219              		.loc 1 278 25 view .LVU373
 280:Drivers/lvgl/src/misc/lv_circle_buf.c ****                                     circle_buf);
 1220              		.loc 1 280 5 view .LVU374
 280:Drivers/lvgl/src/misc/lv_circle_buf.c ****                                     circle_buf);
 1221              		.loc 1 280 42 is_stmt 0 view .LVU375
 1222 000c FFF7FEFF 		bl	lv_circle_buf_size
 1223              	.LVL84:
ARM GAS  /var/folders/qx/2_175_4n2s19vhvtspjhb3qh0000gn/T//ccDf6XOr.s 			page 35


 280:Drivers/lvgl/src/misc/lv_circle_buf.c ****                                     circle_buf);
 1224              		.loc 1 280 40 discriminator 1 view .LVU376
 1225 0010 B4FBF0F3 		udiv	r3, r4, r0
 1226 0014 00FB1344 		mls	r4, r0, r3, r4
 1227              	.LVL85:
 280:Drivers/lvgl/src/misc/lv_circle_buf.c ****                                     circle_buf);
 1228              		.loc 1 280 85 discriminator 1 view .LVU377
 1229 0018 7369     		ldr	r3, [r6, #20]
 280:Drivers/lvgl/src/misc/lv_circle_buf.c ****                                     circle_buf);
 1230              		.loc 1 280 73 discriminator 1 view .LVU378
 1231 001a 1C44     		add	r4, r4, r3
 280:Drivers/lvgl/src/misc/lv_circle_buf.c ****                                     circle_buf);
 1232              		.loc 1 280 95 discriminator 1 view .LVU379
 1233 001c 3046     		mov	r0, r6
 1234 001e FFF7FEFF 		bl	lv_circle_buf_capacity
 1235              	.LVL86:
 280:Drivers/lvgl/src/misc/lv_circle_buf.c ****                                     circle_buf);
 1236              		.loc 1 280 20 discriminator 2 view .LVU380
 1237 0022 B4FBF0F1 		udiv	r1, r4, r0
 1238              	.LVL87:
 282:Drivers/lvgl/src/misc/lv_circle_buf.c **** 
 1239              		.loc 1 282 5 is_stmt 1 view .LVU381
 282:Drivers/lvgl/src/misc/lv_circle_buf.c **** 
 1240              		.loc 1 282 21 is_stmt 0 view .LVU382
 1241 0026 00FB1141 		mls	r1, r0, r1, r4
 1242              	.LVL88:
 282:Drivers/lvgl/src/misc/lv_circle_buf.c **** 
 1243              		.loc 1 282 21 view .LVU383
 1244 002a 3046     		mov	r0, r6
 1245 002c FFF7FEFF 		bl	lv_array_at
 1246              	.LVL89:
 282:Drivers/lvgl/src/misc/lv_circle_buf.c **** 
 1247              		.loc 1 282 21 view .LVU384
 1248 0030 0146     		mov	r1, r0
 282:Drivers/lvgl/src/misc/lv_circle_buf.c **** 
 1249              		.loc 1 282 5 discriminator 1 view .LVU385
 1250 0032 F268     		ldr	r2, [r6, #12]
 1251 0034 2846     		mov	r0, r5
 1252 0036 FFF7FEFF 		bl	lv_memcpy
 1253              	.LVL90:
 284:Drivers/lvgl/src/misc/lv_circle_buf.c **** }
 1254              		.loc 1 284 5 is_stmt 1 view .LVU386
 285:Drivers/lvgl/src/misc/lv_circle_buf.c **** 
 1255              		.loc 1 285 1 is_stmt 0 view .LVU387
 1256 003a 0120     		movs	r0, #1
 1257 003c 70BD     		pop	{r4, r5, r6, pc}
 1258              	.LVL91:
 1259              	.L98:
 1260              	.LCFI33:
 1261              		.cfi_def_cfa_offset 0
 1262              		.cfi_restore 4
 1263              		.cfi_restore 5
 1264              		.cfi_restore 6
 1265              		.cfi_restore 14
 277:Drivers/lvgl/src/misc/lv_circle_buf.c ****     LV_ASSERT_NULL(data);
 1266              		.loc 1 277 5 is_stmt 1 view .LVU388
 277:Drivers/lvgl/src/misc/lv_circle_buf.c ****     LV_ASSERT_NULL(data);
ARM GAS  /var/folders/qx/2_175_4n2s19vhvtspjhb3qh0000gn/T//ccDf6XOr.s 			page 36


 1267              		.loc 1 277 5 view .LVU389
 277:Drivers/lvgl/src/misc/lv_circle_buf.c ****     LV_ASSERT_NULL(data);
 1268              		.loc 1 277 5 view .LVU390
 277:Drivers/lvgl/src/misc/lv_circle_buf.c ****     LV_ASSERT_NULL(data);
 1269              		.loc 1 277 5 view .LVU391
 277:Drivers/lvgl/src/misc/lv_circle_buf.c ****     LV_ASSERT_NULL(data);
 1270              		.loc 1 277 5 view .LVU392
 1271 003e FEE7     		b	.L98
 1272              	.L100:
 1273              	.LCFI34:
 1274              		.cfi_def_cfa_offset 16
 1275              		.cfi_offset 4, -16
 1276              		.cfi_offset 5, -12
 1277              		.cfi_offset 6, -8
 1278              		.cfi_offset 14, -4
 278:Drivers/lvgl/src/misc/lv_circle_buf.c **** 
 1279              		.loc 1 278 5 view .LVU393
 278:Drivers/lvgl/src/misc/lv_circle_buf.c **** 
 1280              		.loc 1 278 5 view .LVU394
 278:Drivers/lvgl/src/misc/lv_circle_buf.c **** 
 1281              		.loc 1 278 5 view .LVU395
 278:Drivers/lvgl/src/misc/lv_circle_buf.c **** 
 1282              		.loc 1 278 5 view .LVU396
 278:Drivers/lvgl/src/misc/lv_circle_buf.c **** 
 1283              		.loc 1 278 5 view .LVU397
 1284 0040 FEE7     		b	.L100
 1285              		.cfi_endproc
 1286              	.LFE27:
 1288              		.section	.text.lv_circle_buf_read,"ax",%progbits
 1289              		.align	1
 1290              		.global	lv_circle_buf_read
 1291              		.syntax unified
 1292              		.thumb
 1293              		.thumb_func
 1295              	lv_circle_buf_read:
 1296              	.LVL92:
 1297              	.LFB22:
 202:Drivers/lvgl/src/misc/lv_circle_buf.c ****     LV_ASSERT_NULL(circle_buf);
 1298              		.loc 1 202 1 view -0
 1299              		.cfi_startproc
 1300              		@ args = 0, pretend = 0, frame = 0
 1301              		@ frame_needed = 0, uses_anonymous_args = 0
 203:Drivers/lvgl/src/misc/lv_circle_buf.c **** 
 1302              		.loc 1 203 5 view .LVU399
 203:Drivers/lvgl/src/misc/lv_circle_buf.c **** 
 1303              		.loc 1 203 5 view .LVU400
 1304 0000 48B1     		cbz	r0, .L105
 202:Drivers/lvgl/src/misc/lv_circle_buf.c ****     LV_ASSERT_NULL(circle_buf);
 1305              		.loc 1 202 1 is_stmt 0 view .LVU401
 1306 0002 38B5     		push	{r3, r4, r5, lr}
 1307              	.LCFI35:
 1308              		.cfi_def_cfa_offset 16
 1309              		.cfi_offset 3, -16
 1310              		.cfi_offset 4, -12
 1311              		.cfi_offset 5, -8
 1312              		.cfi_offset 14, -4
 1313 0004 0C46     		mov	r4, r1
ARM GAS  /var/folders/qx/2_175_4n2s19vhvtspjhb3qh0000gn/T//ccDf6XOr.s 			page 37


 1314 0006 0546     		mov	r5, r0
 203:Drivers/lvgl/src/misc/lv_circle_buf.c **** 
 1315              		.loc 1 203 5 is_stmt 1 view .LVU402
 203:Drivers/lvgl/src/misc/lv_circle_buf.c **** 
 1316              		.loc 1 203 31 view .LVU403
 205:Drivers/lvgl/src/misc/lv_circle_buf.c ****         circle_buf->head = 0;
 1317              		.loc 1 205 5 view .LVU404
 205:Drivers/lvgl/src/misc/lv_circle_buf.c ****         circle_buf->head = 0;
 1318              		.loc 1 205 8 is_stmt 0 view .LVU405
 1319 0008 FFF7FEFF 		bl	lv_circle_buf_is_empty
 1320              	.LVL93:
 205:Drivers/lvgl/src/misc/lv_circle_buf.c ****         circle_buf->head = 0;
 1321              		.loc 1 205 7 discriminator 1 view .LVU406
 1322 000c 20B1     		cbz	r0, .L106
 206:Drivers/lvgl/src/misc/lv_circle_buf.c ****         circle_buf->tail = 0;
 1323              		.loc 1 206 9 is_stmt 1 view .LVU407
 206:Drivers/lvgl/src/misc/lv_circle_buf.c ****         circle_buf->tail = 0;
 1324              		.loc 1 206 26 is_stmt 0 view .LVU408
 1325 000e 0020     		movs	r0, #0
 1326 0010 6861     		str	r0, [r5, #20]
 207:Drivers/lvgl/src/misc/lv_circle_buf.c ****         return LV_RESULT_INVALID;
 1327              		.loc 1 207 9 is_stmt 1 view .LVU409
 207:Drivers/lvgl/src/misc/lv_circle_buf.c ****         return LV_RESULT_INVALID;
 1328              		.loc 1 207 26 is_stmt 0 view .LVU410
 1329 0012 A861     		str	r0, [r5, #24]
 208:Drivers/lvgl/src/misc/lv_circle_buf.c ****     }
 1330              		.loc 1 208 9 is_stmt 1 view .LVU411
 1331              	.L107:
 215:Drivers/lvgl/src/misc/lv_circle_buf.c **** 
 1332              		.loc 1 215 1 is_stmt 0 view .LVU412
 1333 0014 38BD     		pop	{r3, r4, r5, pc}
 1334              	.LVL94:
 1335              	.L105:
 1336              	.LCFI36:
 1337              		.cfi_def_cfa_offset 0
 1338              		.cfi_restore 3
 1339              		.cfi_restore 4
 1340              		.cfi_restore 5
 1341              		.cfi_restore 14
 203:Drivers/lvgl/src/misc/lv_circle_buf.c **** 
 1342              		.loc 1 203 5 is_stmt 1 view .LVU413
 203:Drivers/lvgl/src/misc/lv_circle_buf.c **** 
 1343              		.loc 1 203 5 view .LVU414
 203:Drivers/lvgl/src/misc/lv_circle_buf.c **** 
 1344              		.loc 1 203 5 view .LVU415
 203:Drivers/lvgl/src/misc/lv_circle_buf.c **** 
 1345              		.loc 1 203 5 view .LVU416
 203:Drivers/lvgl/src/misc/lv_circle_buf.c **** 
 1346              		.loc 1 203 5 view .LVU417
 1347 0016 FEE7     		b	.L105
 1348              	.LVL95:
 1349              	.L106:
 1350              	.LCFI37:
 1351              		.cfi_def_cfa_offset 16
 1352              		.cfi_offset 3, -16
 1353              		.cfi_offset 4, -12
 1354              		.cfi_offset 5, -8
ARM GAS  /var/folders/qx/2_175_4n2s19vhvtspjhb3qh0000gn/T//ccDf6XOr.s 			page 38


 1355              		.cfi_offset 14, -4
 211:Drivers/lvgl/src/misc/lv_circle_buf.c ****     circle_buf->head++;
 1356              		.loc 1 211 5 view .LVU418
 1357 0018 2246     		mov	r2, r4
 1358 001a 0021     		movs	r1, #0
 1359 001c 2846     		mov	r0, r5
 1360 001e FFF7FEFF 		bl	lv_circle_buf_peek_at
 1361              	.LVL96:
 212:Drivers/lvgl/src/misc/lv_circle_buf.c **** 
 1362              		.loc 1 212 5 view .LVU419
 212:Drivers/lvgl/src/misc/lv_circle_buf.c **** 
 1363              		.loc 1 212 15 is_stmt 0 view .LVU420
 1364 0022 6B69     		ldr	r3, [r5, #20]
 212:Drivers/lvgl/src/misc/lv_circle_buf.c **** 
 1365              		.loc 1 212 21 view .LVU421
 1366 0024 0133     		adds	r3, r3, #1
 1367 0026 6B61     		str	r3, [r5, #20]
 214:Drivers/lvgl/src/misc/lv_circle_buf.c **** }
 1368              		.loc 1 214 5 is_stmt 1 view .LVU422
 214:Drivers/lvgl/src/misc/lv_circle_buf.c **** }
 1369              		.loc 1 214 12 is_stmt 0 view .LVU423
 1370 0028 0120     		movs	r0, #1
 1371 002a F3E7     		b	.L107
 1372              		.cfi_endproc
 1373              	.LFE22:
 1375              		.section	.text.lv_circle_buf_peek,"ax",%progbits
 1376              		.align	1
 1377              		.global	lv_circle_buf_peek
 1378              		.syntax unified
 1379              		.thumb
 1380              		.thumb_func
 1382              	lv_circle_buf_peek:
 1383              	.LVL97:
 1384              	.LFB26:
 268:Drivers/lvgl/src/misc/lv_circle_buf.c ****     LV_ASSERT_NULL(circle_buf);
 1385              		.loc 1 268 1 is_stmt 1 view -0
 1386              		.cfi_startproc
 1387              		@ args = 0, pretend = 0, frame = 0
 1388              		@ frame_needed = 0, uses_anonymous_args = 0
 269:Drivers/lvgl/src/misc/lv_circle_buf.c ****     LV_ASSERT_NULL(data);
 1389              		.loc 1 269 5 view .LVU425
 269:Drivers/lvgl/src/misc/lv_circle_buf.c ****     LV_ASSERT_NULL(data);
 1390              		.loc 1 269 5 view .LVU426
 1391 0000 30B1     		cbz	r0, .L112
 268:Drivers/lvgl/src/misc/lv_circle_buf.c ****     LV_ASSERT_NULL(circle_buf);
 1392              		.loc 1 268 1 is_stmt 0 view .LVU427
 1393 0002 08B5     		push	{r3, lr}
 1394              	.LCFI38:
 1395              		.cfi_def_cfa_offset 8
 1396              		.cfi_offset 3, -8
 1397              		.cfi_offset 14, -4
 269:Drivers/lvgl/src/misc/lv_circle_buf.c ****     LV_ASSERT_NULL(data);
 1398              		.loc 1 269 5 is_stmt 1 view .LVU428
 269:Drivers/lvgl/src/misc/lv_circle_buf.c ****     LV_ASSERT_NULL(data);
 1399              		.loc 1 269 31 view .LVU429
 270:Drivers/lvgl/src/misc/lv_circle_buf.c **** 
 1400              		.loc 1 270 5 view .LVU430
ARM GAS  /var/folders/qx/2_175_4n2s19vhvtspjhb3qh0000gn/T//ccDf6XOr.s 			page 39


 270:Drivers/lvgl/src/misc/lv_circle_buf.c **** 
 1401              		.loc 1 270 5 view .LVU431
 1402 0004 29B1     		cbz	r1, .L114
 270:Drivers/lvgl/src/misc/lv_circle_buf.c **** 
 1403              		.loc 1 270 5 view .LVU432
 270:Drivers/lvgl/src/misc/lv_circle_buf.c **** 
 1404              		.loc 1 270 25 view .LVU433
 272:Drivers/lvgl/src/misc/lv_circle_buf.c **** }
 1405              		.loc 1 272 5 view .LVU434
 272:Drivers/lvgl/src/misc/lv_circle_buf.c **** }
 1406              		.loc 1 272 12 is_stmt 0 view .LVU435
 1407 0006 0A46     		mov	r2, r1
 1408 0008 0021     		movs	r1, #0
 1409              	.LVL98:
 272:Drivers/lvgl/src/misc/lv_circle_buf.c **** }
 1410              		.loc 1 272 12 view .LVU436
 1411 000a FFF7FEFF 		bl	lv_circle_buf_peek_at
 1412              	.LVL99:
 273:Drivers/lvgl/src/misc/lv_circle_buf.c **** 
 1413              		.loc 1 273 1 view .LVU437
 1414 000e 08BD     		pop	{r3, pc}
 1415              	.LVL100:
 1416              	.L112:
 1417              	.LCFI39:
 1418              		.cfi_def_cfa_offset 0
 1419              		.cfi_restore 3
 1420              		.cfi_restore 14
 269:Drivers/lvgl/src/misc/lv_circle_buf.c ****     LV_ASSERT_NULL(data);
 1421              		.loc 1 269 5 is_stmt 1 view .LVU438
 269:Drivers/lvgl/src/misc/lv_circle_buf.c ****     LV_ASSERT_NULL(data);
 1422              		.loc 1 269 5 view .LVU439
 269:Drivers/lvgl/src/misc/lv_circle_buf.c ****     LV_ASSERT_NULL(data);
 1423              		.loc 1 269 5 view .LVU440
 269:Drivers/lvgl/src/misc/lv_circle_buf.c ****     LV_ASSERT_NULL(data);
 1424              		.loc 1 269 5 view .LVU441
 269:Drivers/lvgl/src/misc/lv_circle_buf.c ****     LV_ASSERT_NULL(data);
 1425              		.loc 1 269 5 view .LVU442
 1426 0010 FEE7     		b	.L112
 1427              	.L114:
 1428              	.LCFI40:
 1429              		.cfi_def_cfa_offset 8
 1430              		.cfi_offset 3, -8
 1431              		.cfi_offset 14, -4
 270:Drivers/lvgl/src/misc/lv_circle_buf.c **** 
 1432              		.loc 1 270 5 view .LVU443
 270:Drivers/lvgl/src/misc/lv_circle_buf.c **** 
 1433              		.loc 1 270 5 view .LVU444
 270:Drivers/lvgl/src/misc/lv_circle_buf.c **** 
 1434              		.loc 1 270 5 view .LVU445
 270:Drivers/lvgl/src/misc/lv_circle_buf.c **** 
 1435              		.loc 1 270 5 view .LVU446
 270:Drivers/lvgl/src/misc/lv_circle_buf.c **** 
 1436              		.loc 1 270 5 view .LVU447
 1437 0012 FEE7     		b	.L114
 1438              		.cfi_endproc
 1439              	.LFE26:
 1441              		.text
ARM GAS  /var/folders/qx/2_175_4n2s19vhvtspjhb3qh0000gn/T//ccDf6XOr.s 			page 40


 1442              	.Letext0:
 1443              		.file 3 "/Applications/ArmGNUToolchain/14.3.rel1/arm-none-eabi/arm-none-eabi/include/machine/_defa
 1444              		.file 4 "/Applications/ArmGNUToolchain/14.3.rel1/arm-none-eabi/arm-none-eabi/include/sys/_stdint.h
 1445              		.file 5 "/Applications/ArmGNUToolchain/14.3.rel1/arm-none-eabi/lib/gcc/arm-none-eabi/14.3.1/includ
 1446              		.file 6 "Drivers/lvgl/src/misc/lv_types.h"
 1447              		.file 7 "Drivers/lvgl/src/misc/lv_circle_buf.h"
 1448              		.file 8 "Drivers/lvgl/src/misc/../stdlib/lv_string.h"
 1449              		.file 9 "Drivers/lvgl/src/misc/../stdlib/lv_mem.h"
ARM GAS  /var/folders/qx/2_175_4n2s19vhvtspjhb3qh0000gn/T//ccDf6XOr.s 			page 41

