ARM GAS  /var/folders/qx/2_175_4n2s19vhvtspjhb3qh0000gn/T//ccAGjwjy.s 			page 1


   1              		.cpu cortex-m4
   2              		.arch armv7e-m
   3              		.fpu fpv4-sp-d16
   4              		.eabi_attribute 27, 1
   5              		.eabi_attribute 28, 1
   6              		.eabi_attribute 20, 1
   7              		.eabi_attribute 21, 1
   8              		.eabi_attribute 23, 3
   9              		.eabi_attribute 24, 1
  10              		.eabi_attribute 25, 1
  11              		.eabi_attribute 26, 1
  12              		.eabi_attribute 30, 1
  13              		.eabi_attribute 34, 1
  14              		.eabi_attribute 18, 4
  15              		.file	"lv_color.c"
  16              		.text
  17              	.Ltext0:
  18              		.cfi_sections	.debug_frame
  19              		.file 1 "Drivers/lvgl/src/misc/lv_color.c"
  20              		.section	.text.lv_color_format_get_bpp,"ax",%progbits
  21              		.align	1
  22              		.global	lv_color_format_get_bpp
  23              		.syntax unified
  24              		.thumb
  25              		.thumb_func
  27              	lv_color_format_get_bpp:
  28              	.LVL0:
  29              	.LFB6:
   1:Drivers/lvgl/src/misc/lv_color.c **** /**
   2:Drivers/lvgl/src/misc/lv_color.c ****  * @file lv_color.c
   3:Drivers/lvgl/src/misc/lv_color.c ****  *
   4:Drivers/lvgl/src/misc/lv_color.c ****  */
   5:Drivers/lvgl/src/misc/lv_color.c **** 
   6:Drivers/lvgl/src/misc/lv_color.c **** /*********************
   7:Drivers/lvgl/src/misc/lv_color.c ****  *      INCLUDES
   8:Drivers/lvgl/src/misc/lv_color.c ****  *********************/
   9:Drivers/lvgl/src/misc/lv_color.c **** #include "lv_color.h"
  10:Drivers/lvgl/src/misc/lv_color.c **** #include "lv_log.h"
  11:Drivers/lvgl/src/misc/lv_color.c **** 
  12:Drivers/lvgl/src/misc/lv_color.c **** /*********************
  13:Drivers/lvgl/src/misc/lv_color.c ****  *      DEFINES
  14:Drivers/lvgl/src/misc/lv_color.c ****  *********************/
  15:Drivers/lvgl/src/misc/lv_color.c **** 
  16:Drivers/lvgl/src/misc/lv_color.c **** /**********************
  17:Drivers/lvgl/src/misc/lv_color.c ****  *      TYPEDEFS
  18:Drivers/lvgl/src/misc/lv_color.c ****  **********************/
  19:Drivers/lvgl/src/misc/lv_color.c **** 
  20:Drivers/lvgl/src/misc/lv_color.c **** /**********************
  21:Drivers/lvgl/src/misc/lv_color.c ****  *  STATIC PROTOTYPES
  22:Drivers/lvgl/src/misc/lv_color.c ****  **********************/
  23:Drivers/lvgl/src/misc/lv_color.c **** static lv_color_t lv_color_filter_shade_cb(const lv_color_filter_dsc_t * dsc, lv_color_t c, lv_opa_
  24:Drivers/lvgl/src/misc/lv_color.c **** 
  25:Drivers/lvgl/src/misc/lv_color.c **** /**********************
  26:Drivers/lvgl/src/misc/lv_color.c ****  *  GLOBAL VARIABLES
  27:Drivers/lvgl/src/misc/lv_color.c ****  **********************/
  28:Drivers/lvgl/src/misc/lv_color.c **** 
  29:Drivers/lvgl/src/misc/lv_color.c **** const lv_color_filter_dsc_t lv_color_filter_shade = {.filter_cb = lv_color_filter_shade_cb};
ARM GAS  /var/folders/qx/2_175_4n2s19vhvtspjhb3qh0000gn/T//ccAGjwjy.s 			page 2


  30:Drivers/lvgl/src/misc/lv_color.c **** 
  31:Drivers/lvgl/src/misc/lv_color.c **** /**********************
  32:Drivers/lvgl/src/misc/lv_color.c ****  *  STATIC VARIABLES
  33:Drivers/lvgl/src/misc/lv_color.c ****  **********************/
  34:Drivers/lvgl/src/misc/lv_color.c **** 
  35:Drivers/lvgl/src/misc/lv_color.c **** /**********************
  36:Drivers/lvgl/src/misc/lv_color.c ****  *      MACROS
  37:Drivers/lvgl/src/misc/lv_color.c ****  **********************/
  38:Drivers/lvgl/src/misc/lv_color.c **** 
  39:Drivers/lvgl/src/misc/lv_color.c **** /**********************
  40:Drivers/lvgl/src/misc/lv_color.c ****  *   GLOBAL FUNCTIONS
  41:Drivers/lvgl/src/misc/lv_color.c ****  **********************/
  42:Drivers/lvgl/src/misc/lv_color.c **** 
  43:Drivers/lvgl/src/misc/lv_color.c **** uint8_t lv_color_format_get_bpp(lv_color_format_t cf)
  44:Drivers/lvgl/src/misc/lv_color.c **** {
  30              		.loc 1 44 1 view -0
  31              		.cfi_startproc
  32              		@ args = 0, pretend = 0, frame = 0
  33              		@ frame_needed = 0, uses_anonymous_args = 0
  34              		@ link register save eliminated.
  45:Drivers/lvgl/src/misc/lv_color.c ****     switch(cf) {
  35              		.loc 1 45 5 view .LVU1
  36 0000 0638     		subs	r0, r0, #6
  37              	.LVL1:
  38              		.loc 1 45 5 is_stmt 0 view .LVU2
  39 0002 2F28     		cmp	r0, #47
  40 0004 29D8     		bhi	.L2
  41 0006 DFE800F0 		tbb	[pc, r0]
  42              	.L4:
  43 000a 1E       		.byte	(.L9-.L4)/2
  44 000b 18       		.byte	(.L12-.L4)/2
  45 000c 2A       		.byte	(.L13-.L4)/2
  46 000d 1A       		.byte	(.L6-.L4)/2
  47 000e 1E       		.byte	(.L9-.L4)/2
  48 000f 18       		.byte	(.L12-.L4)/2
  49 0010 2A       		.byte	(.L13-.L4)/2
  50 0011 1A       		.byte	(.L6-.L4)/2
  51 0012 1E       		.byte	(.L9-.L4)/2
  52 0013 24       		.byte	(.L10-.L4)/2
  53 0014 26       		.byte	(.L8-.L4)/2
  54 0015 26       		.byte	(.L8-.L4)/2
  55 0016 22       		.byte	(.L7-.L4)/2
  56 0017 24       		.byte	(.L10-.L4)/2
  57 0018 22       		.byte	(.L7-.L4)/2
  58 0019 22       		.byte	(.L7-.L4)/2
  59 001a 22       		.byte	(.L7-.L4)/2
  60 001b 22       		.byte	(.L7-.L4)/2
  61 001c 1E       		.byte	(.L9-.L4)/2
  62 001d 28       		.byte	(.L2-.L4)/2
  63 001e 26       		.byte	(.L8-.L4)/2
  64 001f 22       		.byte	(.L7-.L4)/2
  65 0020 28       		.byte	(.L2-.L4)/2
  66 0021 28       		.byte	(.L2-.L4)/2
  67 0022 28       		.byte	(.L2-.L4)/2
  68 0023 28       		.byte	(.L2-.L4)/2
  69 0024 28       		.byte	(.L2-.L4)/2
  70 0025 28       		.byte	(.L2-.L4)/2
ARM GAS  /var/folders/qx/2_175_4n2s19vhvtspjhb3qh0000gn/T//ccAGjwjy.s 			page 3


  71 0026 28       		.byte	(.L2-.L4)/2
  72 0027 28       		.byte	(.L2-.L4)/2
  73 0028 28       		.byte	(.L2-.L4)/2
  74 0029 28       		.byte	(.L2-.L4)/2
  75 002a 22       		.byte	(.L7-.L4)/2
  76 002b 28       		.byte	(.L2-.L4)/2
  77 002c 28       		.byte	(.L2-.L4)/2
  78 002d 28       		.byte	(.L2-.L4)/2
  79 002e 28       		.byte	(.L2-.L4)/2
  80 002f 28       		.byte	(.L2-.L4)/2
  81 0030 28       		.byte	(.L2-.L4)/2
  82 0031 28       		.byte	(.L2-.L4)/2
  83 0032 28       		.byte	(.L2-.L4)/2
  84 0033 28       		.byte	(.L2-.L4)/2
  85 0034 1A       		.byte	(.L6-.L4)/2
  86 0035 1C       		.byte	(.L5-.L4)/2
  87 0036 1C       		.byte	(.L5-.L4)/2
  88 0037 1C       		.byte	(.L5-.L4)/2
  89 0038 20       		.byte	(.L3-.L4)/2
  90 0039 20       		.byte	(.L3-.L4)/2
  91              		.p2align 1
  92              	.L12:
  93 003a 0120     		movs	r0, #1
  94              	.LVL2:
  95              		.loc 1 45 5 view .LVU3
  96 003c 7047     		bx	lr
  97              	.L6:
  46:Drivers/lvgl/src/misc/lv_color.c ****         case LV_COLOR_FORMAT_I1:
  47:Drivers/lvgl/src/misc/lv_color.c ****         case LV_COLOR_FORMAT_A1:
  48:Drivers/lvgl/src/misc/lv_color.c ****             return 1;
  49:Drivers/lvgl/src/misc/lv_color.c ****         case LV_COLOR_FORMAT_I2:
  50:Drivers/lvgl/src/misc/lv_color.c ****         case LV_COLOR_FORMAT_A2:
  51:Drivers/lvgl/src/misc/lv_color.c ****             return 2;
  52:Drivers/lvgl/src/misc/lv_color.c ****         case LV_COLOR_FORMAT_I4:
  53:Drivers/lvgl/src/misc/lv_color.c ****         case LV_COLOR_FORMAT_A4:
  54:Drivers/lvgl/src/misc/lv_color.c ****         case LV_COLOR_FORMAT_NEMA_TSC4:
  55:Drivers/lvgl/src/misc/lv_color.c ****             return 4;
  98              		.loc 1 55 13 is_stmt 1 view .LVU4
  99              		.loc 1 55 20 is_stmt 0 view .LVU5
 100 003e 0420     		movs	r0, #4
 101 0040 7047     		bx	lr
 102              	.L5:
  56:Drivers/lvgl/src/misc/lv_color.c ****         case LV_COLOR_FORMAT_NEMA_TSC6:
  57:Drivers/lvgl/src/misc/lv_color.c ****         case LV_COLOR_FORMAT_NEMA_TSC6A:
  58:Drivers/lvgl/src/misc/lv_color.c ****         case LV_COLOR_FORMAT_NEMA_TSC6AP:
  59:Drivers/lvgl/src/misc/lv_color.c ****             return 6;
 103              		.loc 1 59 13 is_stmt 1 view .LVU6
 104              		.loc 1 59 20 is_stmt 0 view .LVU7
 105 0042 0620     		movs	r0, #6
 106 0044 7047     		bx	lr
 107              	.L9:
  60:Drivers/lvgl/src/misc/lv_color.c ****         case LV_COLOR_FORMAT_L8:
  61:Drivers/lvgl/src/misc/lv_color.c ****         case LV_COLOR_FORMAT_A8:
  62:Drivers/lvgl/src/misc/lv_color.c ****         case LV_COLOR_FORMAT_I8:
  63:Drivers/lvgl/src/misc/lv_color.c ****         case LV_COLOR_FORMAT_ARGB2222:
  64:Drivers/lvgl/src/misc/lv_color.c ****             return 8;
 108              		.loc 1 64 13 is_stmt 1 view .LVU8
ARM GAS  /var/folders/qx/2_175_4n2s19vhvtspjhb3qh0000gn/T//ccAGjwjy.s 			page 4


 109              		.loc 1 64 20 is_stmt 0 view .LVU9
 110 0046 0820     		movs	r0, #8
 111 0048 7047     		bx	lr
 112              	.L3:
  65:Drivers/lvgl/src/misc/lv_color.c ****         case LV_COLOR_FORMAT_NEMA_TSC12:
  66:Drivers/lvgl/src/misc/lv_color.c ****         case LV_COLOR_FORMAT_NEMA_TSC12A:
  67:Drivers/lvgl/src/misc/lv_color.c ****             return 12;
 113              		.loc 1 67 13 is_stmt 1 view .LVU10
 114              		.loc 1 67 20 is_stmt 0 view .LVU11
 115 004a 0C20     		movs	r0, #12
 116 004c 7047     		bx	lr
 117              	.L7:
  68:Drivers/lvgl/src/misc/lv_color.c ****         case LV_COLOR_FORMAT_RGB565A8:
  69:Drivers/lvgl/src/misc/lv_color.c ****         case LV_COLOR_FORMAT_RGB565:
  70:Drivers/lvgl/src/misc/lv_color.c ****         case LV_COLOR_FORMAT_RGB565_SWAPPED:
  71:Drivers/lvgl/src/misc/lv_color.c ****         case LV_COLOR_FORMAT_YUY2:
  72:Drivers/lvgl/src/misc/lv_color.c ****         case LV_COLOR_FORMAT_AL88:
  73:Drivers/lvgl/src/misc/lv_color.c ****         case LV_COLOR_FORMAT_ARGB1555:
  74:Drivers/lvgl/src/misc/lv_color.c ****         case LV_COLOR_FORMAT_ARGB4444:
  75:Drivers/lvgl/src/misc/lv_color.c ****             return 16;
 118              		.loc 1 75 13 is_stmt 1 view .LVU12
 119              		.loc 1 75 20 is_stmt 0 view .LVU13
 120 004e 1020     		movs	r0, #16
 121 0050 7047     		bx	lr
 122              	.L10:
  76:Drivers/lvgl/src/misc/lv_color.c **** 
  77:Drivers/lvgl/src/misc/lv_color.c ****         case LV_COLOR_FORMAT_ARGB8565:
  78:Drivers/lvgl/src/misc/lv_color.c ****         case LV_COLOR_FORMAT_RGB888:
  79:Drivers/lvgl/src/misc/lv_color.c ****             return 24;
 123              		.loc 1 79 13 is_stmt 1 view .LVU14
 124              		.loc 1 79 20 is_stmt 0 view .LVU15
 125 0052 1820     		movs	r0, #24
 126 0054 7047     		bx	lr
 127              	.L8:
  80:Drivers/lvgl/src/misc/lv_color.c ****         case LV_COLOR_FORMAT_ARGB8888:
  81:Drivers/lvgl/src/misc/lv_color.c ****         case LV_COLOR_FORMAT_ARGB8888_PREMULTIPLIED:
  82:Drivers/lvgl/src/misc/lv_color.c ****         case LV_COLOR_FORMAT_XRGB8888:
  83:Drivers/lvgl/src/misc/lv_color.c ****             return 32;
 128              		.loc 1 83 13 is_stmt 1 view .LVU16
 129              		.loc 1 83 20 is_stmt 0 view .LVU17
 130 0056 2020     		movs	r0, #32
 131 0058 7047     		bx	lr
 132              	.L2:
  84:Drivers/lvgl/src/misc/lv_color.c **** 
  85:Drivers/lvgl/src/misc/lv_color.c ****         case LV_COLOR_FORMAT_UNKNOWN:
  86:Drivers/lvgl/src/misc/lv_color.c ****         default:
  87:Drivers/lvgl/src/misc/lv_color.c ****             return 0;
 133              		.loc 1 87 13 is_stmt 1 view .LVU18
 134              		.loc 1 87 20 is_stmt 0 view .LVU19
 135 005a 0020     		movs	r0, #0
 136 005c 7047     		bx	lr
 137              	.L13:
  51:Drivers/lvgl/src/misc/lv_color.c ****         case LV_COLOR_FORMAT_I4:
 138              		.loc 1 51 20 view .LVU20
 139 005e 0220     		movs	r0, #2
  88:Drivers/lvgl/src/misc/lv_color.c ****     }
  89:Drivers/lvgl/src/misc/lv_color.c **** }
ARM GAS  /var/folders/qx/2_175_4n2s19vhvtspjhb3qh0000gn/T//ccAGjwjy.s 			page 5


 140              		.loc 1 89 1 view .LVU21
 141 0060 7047     		bx	lr
 142              		.cfi_endproc
 143              	.LFE6:
 145              		.section	.text.lv_color_format_has_alpha,"ax",%progbits
 146              		.align	1
 147              		.global	lv_color_format_has_alpha
 148              		.syntax unified
 149              		.thumb
 150              		.thumb_func
 152              	lv_color_format_has_alpha:
 153              	.LVL3:
 154              	.LFB7:
  90:Drivers/lvgl/src/misc/lv_color.c **** 
  91:Drivers/lvgl/src/misc/lv_color.c **** bool lv_color_format_has_alpha(lv_color_format_t cf)
  92:Drivers/lvgl/src/misc/lv_color.c **** {
 155              		.loc 1 92 1 is_stmt 1 view -0
 156              		.cfi_startproc
 157              		@ args = 0, pretend = 0, frame = 0
 158              		@ frame_needed = 0, uses_anonymous_args = 0
 159              		@ link register save eliminated.
  93:Drivers/lvgl/src/misc/lv_color.c ****     switch(cf) {
 160              		.loc 1 93 5 view .LVU23
 161 0000 1A28     		cmp	r0, #26
 162 0002 05D8     		bhi	.L16
 163 0004 034B     		ldr	r3, .L17
 164 0006 23FA00F0 		lsr	r0, r3, r0
 165              	.LVL4:
 166              		.loc 1 93 5 is_stmt 0 view .LVU24
 167 000a 00F00100 		and	r0, r0, #1
 168 000e 7047     		bx	lr
 169              	.LVL5:
 170              	.L16:
  94:Drivers/lvgl/src/misc/lv_color.c ****         case LV_COLOR_FORMAT_A1:
  95:Drivers/lvgl/src/misc/lv_color.c ****         case LV_COLOR_FORMAT_A2:
  96:Drivers/lvgl/src/misc/lv_color.c ****         case LV_COLOR_FORMAT_A4:
  97:Drivers/lvgl/src/misc/lv_color.c ****         case LV_COLOR_FORMAT_A8:
  98:Drivers/lvgl/src/misc/lv_color.c ****         case LV_COLOR_FORMAT_I1:
  99:Drivers/lvgl/src/misc/lv_color.c ****         case LV_COLOR_FORMAT_I2:
 100:Drivers/lvgl/src/misc/lv_color.c ****         case LV_COLOR_FORMAT_I4:
 101:Drivers/lvgl/src/misc/lv_color.c ****         case LV_COLOR_FORMAT_I8:
 102:Drivers/lvgl/src/misc/lv_color.c ****         case LV_COLOR_FORMAT_RGB565A8:
 103:Drivers/lvgl/src/misc/lv_color.c ****         case LV_COLOR_FORMAT_ARGB8565:
 104:Drivers/lvgl/src/misc/lv_color.c ****         case LV_COLOR_FORMAT_ARGB8888:
 105:Drivers/lvgl/src/misc/lv_color.c ****         case LV_COLOR_FORMAT_ARGB8888_PREMULTIPLIED:
 106:Drivers/lvgl/src/misc/lv_color.c ****         case LV_COLOR_FORMAT_AL88:
 107:Drivers/lvgl/src/misc/lv_color.c ****         case LV_COLOR_FORMAT_ARGB2222:
 108:Drivers/lvgl/src/misc/lv_color.c ****         case LV_COLOR_FORMAT_ARGB1555:
 109:Drivers/lvgl/src/misc/lv_color.c ****         case LV_COLOR_FORMAT_ARGB4444:
 110:Drivers/lvgl/src/misc/lv_color.c ****             return true;
 111:Drivers/lvgl/src/misc/lv_color.c ****         default:
 112:Drivers/lvgl/src/misc/lv_color.c ****             return false;
 171              		.loc 1 112 20 view .LVU25
 172 0010 0020     		movs	r0, #0
 173              	.LVL6:
 113:Drivers/lvgl/src/misc/lv_color.c ****     }
 114:Drivers/lvgl/src/misc/lv_color.c **** }
ARM GAS  /var/folders/qx/2_175_4n2s19vhvtspjhb3qh0000gn/T//ccAGjwjy.s 			page 6


 174              		.loc 1 114 1 view .LVU26
 175 0012 7047     		bx	lr
 176              	.L18:
 177              		.align	2
 178              	.L17:
 179 0014 807FF905 		.word	100237184
 180              		.cfi_endproc
 181              	.LFE7:
 183              		.section	.text.lv_color_to_32,"ax",%progbits
 184              		.align	1
 185              		.global	lv_color_to_32
 186              		.syntax unified
 187              		.thumb
 188              		.thumb_func
 190              	lv_color_to_32:
 191              	.LVL7:
 192              	.LFB8:
 115:Drivers/lvgl/src/misc/lv_color.c **** 
 116:Drivers/lvgl/src/misc/lv_color.c **** lv_color32_t lv_color_to_32(lv_color_t color, lv_opa_t opa)
 117:Drivers/lvgl/src/misc/lv_color.c **** {
 193              		.loc 1 117 1 is_stmt 1 view -0
 194              		.cfi_startproc
 195              		@ args = 0, pretend = 0, frame = 16
 196              		@ frame_needed = 0, uses_anonymous_args = 0
 197              		@ link register save eliminated.
 198              		.loc 1 117 1 is_stmt 0 view .LVU28
 199 0000 84B0     		sub	sp, sp, #16
 200              	.LCFI0:
 201              		.cfi_def_cfa_offset 16
 202 0002 0190     		str	r0, [sp, #4]
 118:Drivers/lvgl/src/misc/lv_color.c ****     lv_color32_t c32;
 203              		.loc 1 118 5 is_stmt 1 view .LVU29
 119:Drivers/lvgl/src/misc/lv_color.c ****     c32.red = color.red;
 204              		.loc 1 119 5 view .LVU30
 205              		.loc 1 119 20 is_stmt 0 view .LVU31
 206 0004 9DF80630 		ldrb	r3, [sp, #6]	@ zero_extendqisi2
 207              		.loc 1 119 13 view .LVU32
 208 0008 8DF80A30 		strb	r3, [sp, #10]
 120:Drivers/lvgl/src/misc/lv_color.c ****     c32.green = color.green;
 209              		.loc 1 120 5 is_stmt 1 view .LVU33
 210              		.loc 1 120 22 is_stmt 0 view .LVU34
 211 000c 9DF80530 		ldrb	r3, [sp, #5]	@ zero_extendqisi2
 212              		.loc 1 120 15 view .LVU35
 213 0010 8DF80930 		strb	r3, [sp, #9]
 121:Drivers/lvgl/src/misc/lv_color.c ****     c32.blue = color.blue;
 214              		.loc 1 121 5 is_stmt 1 view .LVU36
 215              		.loc 1 121 21 is_stmt 0 view .LVU37
 216 0014 9DF80430 		ldrb	r3, [sp, #4]	@ zero_extendqisi2
 217              		.loc 1 121 14 view .LVU38
 218 0018 8DF80830 		strb	r3, [sp, #8]
 122:Drivers/lvgl/src/misc/lv_color.c ****     c32.alpha = opa;
 219              		.loc 1 122 5 is_stmt 1 view .LVU39
 220              		.loc 1 122 15 is_stmt 0 view .LVU40
 221 001c 8DF80B10 		strb	r1, [sp, #11]
 123:Drivers/lvgl/src/misc/lv_color.c ****     return c32;
 222              		.loc 1 123 5 is_stmt 1 view .LVU41
 223              		.loc 1 123 12 is_stmt 0 view .LVU42
ARM GAS  /var/folders/qx/2_175_4n2s19vhvtspjhb3qh0000gn/T//ccAGjwjy.s 			page 7


 224 0020 029B     		ldr	r3, [sp, #8]
 225 0022 0393     		str	r3, [sp, #12]
 226 0024 0020     		movs	r0, #0
 227 0026 9DF80C30 		ldrb	r3, [sp, #12]	@ zero_extendqisi2
 228 002a 63F30700 		bfi	r0, r3, #0, #8
 229 002e 9DF80D30 		ldrb	r3, [sp, #13]	@ zero_extendqisi2
 230 0032 63F30F20 		bfi	r0, r3, #8, #8
 231 0036 9DF80E30 		ldrb	r3, [sp, #14]	@ zero_extendqisi2
 232 003a 63F31740 		bfi	r0, r3, #16, #8
 233 003e 9DF80F30 		ldrb	r3, [sp, #15]	@ zero_extendqisi2
 234 0042 63F31F60 		bfi	r0, r3, #24, #8
 124:Drivers/lvgl/src/misc/lv_color.c **** }
 235              		.loc 1 124 1 view .LVU43
 236 0046 04B0     		add	sp, sp, #16
 237              	.LCFI1:
 238              		.cfi_def_cfa_offset 0
 239              		@ sp needed
 240 0048 7047     		bx	lr
 241              		.cfi_endproc
 242              	.LFE8:
 244              		.section	.text.lv_color_to_u16,"ax",%progbits
 245              		.align	1
 246              		.global	lv_color_to_u16
 247              		.syntax unified
 248              		.thumb
 249              		.thumb_func
 251              	lv_color_to_u16:
 252              	.LFB9:
 125:Drivers/lvgl/src/misc/lv_color.c **** 
 126:Drivers/lvgl/src/misc/lv_color.c **** uint16_t lv_color_to_u16(lv_color_t color)
 127:Drivers/lvgl/src/misc/lv_color.c **** {
 253              		.loc 1 127 1 is_stmt 1 view -0
 254              		.cfi_startproc
 255              		@ args = 0, pretend = 0, frame = 8
 256              		@ frame_needed = 0, uses_anonymous_args = 0
 257              		@ link register save eliminated.
 258 0000 82B0     		sub	sp, sp, #8
 259              	.LCFI2:
 260              		.cfi_def_cfa_offset 8
 261 0002 0190     		str	r0, [sp, #4]
 128:Drivers/lvgl/src/misc/lv_color.c ****     return ((color.red & 0xF8) << 8) + ((color.green & 0xFC) << 3) + ((color.blue & 0xF8) >> 3);
 262              		.loc 1 128 5 view .LVU45
 263              		.loc 1 128 19 is_stmt 0 view .LVU46
 264 0004 9DF80600 		ldrb	r0, [sp, #6]	@ zero_extendqisi2
 265              		.loc 1 128 32 view .LVU47
 266 0008 0002     		lsls	r0, r0, #8
 267 000a 00F47840 		and	r0, r0, #63488
 268 000e 00B2     		sxth	r0, r0
 269              		.loc 1 128 47 view .LVU48
 270 0010 9DF80530 		ldrb	r3, [sp, #5]	@ zero_extendqisi2
 271              		.loc 1 128 62 view .LVU49
 272 0014 DB00     		lsls	r3, r3, #3
 273 0016 03F4FC63 		and	r3, r3, #2016
 274              		.loc 1 128 38 view .LVU50
 275 001a 1843     		orrs	r0, r0, r3
 276 001c 80B2     		uxth	r0, r0
 277              		.loc 1 128 77 view .LVU51
ARM GAS  /var/folders/qx/2_175_4n2s19vhvtspjhb3qh0000gn/T//ccAGjwjy.s 			page 8


 278 001e 9DF80430 		ldrb	r3, [sp, #4]	@ zero_extendqisi2
 279              		.loc 1 128 68 view .LVU52
 280 0022 00EBD300 		add	r0, r0, r3, lsr #3
 129:Drivers/lvgl/src/misc/lv_color.c **** }
 281              		.loc 1 129 1 view .LVU53
 282 0026 80B2     		uxth	r0, r0
 283 0028 02B0     		add	sp, sp, #8
 284              	.LCFI3:
 285              		.cfi_def_cfa_offset 0
 286              		@ sp needed
 287 002a 7047     		bx	lr
 288              		.cfi_endproc
 289              	.LFE9:
 291              		.section	.text.lv_color_to_u32,"ax",%progbits
 292              		.align	1
 293              		.global	lv_color_to_u32
 294              		.syntax unified
 295              		.thumb
 296              		.thumb_func
 298              	lv_color_to_u32:
 299              	.LFB10:
 130:Drivers/lvgl/src/misc/lv_color.c **** 
 131:Drivers/lvgl/src/misc/lv_color.c **** uint32_t lv_color_to_u32(lv_color_t color)
 132:Drivers/lvgl/src/misc/lv_color.c **** {
 300              		.loc 1 132 1 is_stmt 1 view -0
 301              		.cfi_startproc
 302              		@ args = 0, pretend = 0, frame = 8
 303              		@ frame_needed = 0, uses_anonymous_args = 0
 304              		@ link register save eliminated.
 305 0000 82B0     		sub	sp, sp, #8
 306              	.LCFI4:
 307              		.cfi_def_cfa_offset 8
 308 0002 0190     		str	r0, [sp, #4]
 133:Drivers/lvgl/src/misc/lv_color.c ****     return (uint32_t)((uint32_t)0xff << 24) + (color.red << 16) + (color.green << 8) + (color.blue)
 309              		.loc 1 133 5 view .LVU55
 310              		.loc 1 133 53 is_stmt 0 view .LVU56
 311 0004 9DF80630 		ldrb	r3, [sp, #6]	@ zero_extendqisi2
 312              		.loc 1 133 73 view .LVU57
 313 0008 9DF80500 		ldrb	r0, [sp, #5]	@ zero_extendqisi2
 314              		.loc 1 133 80 view .LVU58
 315 000c 0002     		lsls	r0, r0, #8
 316              		.loc 1 133 65 view .LVU59
 317 000e 00EB0340 		add	r0, r0, r3, lsl #16
 318              		.loc 1 133 94 view .LVU60
 319 0012 9DF80430 		ldrb	r3, [sp, #4]	@ zero_extendqisi2
 320              		.loc 1 133 86 view .LVU61
 321 0016 1844     		add	r0, r0, r3
 134:Drivers/lvgl/src/misc/lv_color.c **** }
 322              		.loc 1 134 1 view .LVU62
 323 0018 00F17F40 		add	r0, r0, #-16777216
 324 001c 02B0     		add	sp, sp, #8
 325              	.LCFI5:
 326              		.cfi_def_cfa_offset 0
 327              		@ sp needed
 328 001e 7047     		bx	lr
 329              		.cfi_endproc
 330              	.LFE10:
ARM GAS  /var/folders/qx/2_175_4n2s19vhvtspjhb3qh0000gn/T//ccAGjwjy.s 			page 9


 332              		.section	.text.lv_color_rgb_to_hsv,"ax",%progbits
 333              		.align	1
 334              		.global	lv_color_rgb_to_hsv
 335              		.syntax unified
 336              		.thumb
 337              		.thumb_func
 339              	lv_color_rgb_to_hsv:
 340              	.LVL8:
 341              	.LFB14:
 135:Drivers/lvgl/src/misc/lv_color.c **** 
 136:Drivers/lvgl/src/misc/lv_color.c **** lv_color_t lv_color_lighten(lv_color_t c, lv_opa_t lvl)
 137:Drivers/lvgl/src/misc/lv_color.c **** {
 138:Drivers/lvgl/src/misc/lv_color.c **** 
 139:Drivers/lvgl/src/misc/lv_color.c ****     return lv_color_mix(lv_color_white(), c, lvl);
 140:Drivers/lvgl/src/misc/lv_color.c **** }
 141:Drivers/lvgl/src/misc/lv_color.c **** 
 142:Drivers/lvgl/src/misc/lv_color.c **** lv_color_t lv_color_darken(lv_color_t c, lv_opa_t lvl)
 143:Drivers/lvgl/src/misc/lv_color.c **** {
 144:Drivers/lvgl/src/misc/lv_color.c ****     return lv_color_mix(lv_color_black(), c, lvl);
 145:Drivers/lvgl/src/misc/lv_color.c **** }
 146:Drivers/lvgl/src/misc/lv_color.c **** 
 147:Drivers/lvgl/src/misc/lv_color.c **** lv_color_t lv_color_hsv_to_rgb(uint16_t h, uint8_t s, uint8_t v)
 148:Drivers/lvgl/src/misc/lv_color.c **** {
 149:Drivers/lvgl/src/misc/lv_color.c ****     h = (uint32_t)((uint32_t)h * 255) / 360;
 150:Drivers/lvgl/src/misc/lv_color.c ****     s = (uint16_t)((uint16_t)s * 255) / 100;
 151:Drivers/lvgl/src/misc/lv_color.c ****     v = (uint16_t)((uint16_t)v * 255) / 100;
 152:Drivers/lvgl/src/misc/lv_color.c **** 
 153:Drivers/lvgl/src/misc/lv_color.c ****     uint8_t r, g, b;
 154:Drivers/lvgl/src/misc/lv_color.c **** 
 155:Drivers/lvgl/src/misc/lv_color.c ****     uint8_t region, remainder, p, q, t;
 156:Drivers/lvgl/src/misc/lv_color.c **** 
 157:Drivers/lvgl/src/misc/lv_color.c ****     if(s == 0) {
 158:Drivers/lvgl/src/misc/lv_color.c ****         return lv_color_make(v, v, v);
 159:Drivers/lvgl/src/misc/lv_color.c ****     }
 160:Drivers/lvgl/src/misc/lv_color.c **** 
 161:Drivers/lvgl/src/misc/lv_color.c ****     region    = h / 43;
 162:Drivers/lvgl/src/misc/lv_color.c ****     remainder = (h - (region * 43)) * 6;
 163:Drivers/lvgl/src/misc/lv_color.c **** 
 164:Drivers/lvgl/src/misc/lv_color.c ****     p = (v * (255 - s)) >> 8;
 165:Drivers/lvgl/src/misc/lv_color.c ****     q = (v * (255 - ((s * remainder) >> 8))) >> 8;
 166:Drivers/lvgl/src/misc/lv_color.c ****     t = (v * (255 - ((s * (255 - remainder)) >> 8))) >> 8;
 167:Drivers/lvgl/src/misc/lv_color.c **** 
 168:Drivers/lvgl/src/misc/lv_color.c ****     switch(region) {
 169:Drivers/lvgl/src/misc/lv_color.c ****         case 0:
 170:Drivers/lvgl/src/misc/lv_color.c ****             r = v;
 171:Drivers/lvgl/src/misc/lv_color.c ****             g = t;
 172:Drivers/lvgl/src/misc/lv_color.c ****             b = p;
 173:Drivers/lvgl/src/misc/lv_color.c ****             break;
 174:Drivers/lvgl/src/misc/lv_color.c ****         case 1:
 175:Drivers/lvgl/src/misc/lv_color.c ****             r = q;
 176:Drivers/lvgl/src/misc/lv_color.c ****             g = v;
 177:Drivers/lvgl/src/misc/lv_color.c ****             b = p;
 178:Drivers/lvgl/src/misc/lv_color.c ****             break;
 179:Drivers/lvgl/src/misc/lv_color.c ****         case 2:
 180:Drivers/lvgl/src/misc/lv_color.c ****             r = p;
 181:Drivers/lvgl/src/misc/lv_color.c ****             g = v;
 182:Drivers/lvgl/src/misc/lv_color.c ****             b = t;
ARM GAS  /var/folders/qx/2_175_4n2s19vhvtspjhb3qh0000gn/T//ccAGjwjy.s 			page 10


 183:Drivers/lvgl/src/misc/lv_color.c ****             break;
 184:Drivers/lvgl/src/misc/lv_color.c ****         case 3:
 185:Drivers/lvgl/src/misc/lv_color.c ****             r = p;
 186:Drivers/lvgl/src/misc/lv_color.c ****             g = q;
 187:Drivers/lvgl/src/misc/lv_color.c ****             b = v;
 188:Drivers/lvgl/src/misc/lv_color.c ****             break;
 189:Drivers/lvgl/src/misc/lv_color.c ****         case 4:
 190:Drivers/lvgl/src/misc/lv_color.c ****             r = t;
 191:Drivers/lvgl/src/misc/lv_color.c ****             g = p;
 192:Drivers/lvgl/src/misc/lv_color.c ****             b = v;
 193:Drivers/lvgl/src/misc/lv_color.c ****             break;
 194:Drivers/lvgl/src/misc/lv_color.c ****         default:
 195:Drivers/lvgl/src/misc/lv_color.c ****             r = v;
 196:Drivers/lvgl/src/misc/lv_color.c ****             g = p;
 197:Drivers/lvgl/src/misc/lv_color.c ****             b = q;
 198:Drivers/lvgl/src/misc/lv_color.c ****             break;
 199:Drivers/lvgl/src/misc/lv_color.c ****     }
 200:Drivers/lvgl/src/misc/lv_color.c **** 
 201:Drivers/lvgl/src/misc/lv_color.c ****     lv_color_t result = lv_color_make(r, g, b);
 202:Drivers/lvgl/src/misc/lv_color.c ****     return result;
 203:Drivers/lvgl/src/misc/lv_color.c **** }
 204:Drivers/lvgl/src/misc/lv_color.c **** 
 205:Drivers/lvgl/src/misc/lv_color.c **** lv_color_hsv_t lv_color_rgb_to_hsv(uint8_t r8, uint8_t g8, uint8_t b8)
 206:Drivers/lvgl/src/misc/lv_color.c **** {
 342              		.loc 1 206 1 is_stmt 1 view -0
 343              		.cfi_startproc
 344              		@ args = 0, pretend = 0, frame = 8
 345              		@ frame_needed = 0, uses_anonymous_args = 0
 346              		.loc 1 206 1 is_stmt 0 view .LVU64
 347 0000 2DE9F041 		push	{r4, r5, r6, r7, r8, lr}
 348              	.LCFI6:
 349              		.cfi_def_cfa_offset 24
 350              		.cfi_offset 4, -24
 351              		.cfi_offset 5, -20
 352              		.cfi_offset 6, -16
 353              		.cfi_offset 7, -12
 354              		.cfi_offset 8, -8
 355              		.cfi_offset 14, -4
 356 0004 82B0     		sub	sp, sp, #8
 357              	.LCFI7:
 358              		.cfi_def_cfa_offset 32
 207:Drivers/lvgl/src/misc/lv_color.c ****     uint16_t r = ((uint32_t)r8 << 10) / 255;
 359              		.loc 1 207 5 is_stmt 1 view .LVU65
 360              		.loc 1 207 32 is_stmt 0 view .LVU66
 361 0006 8002     		lsls	r0, r0, #10
 362              	.LVL9:
 363              		.loc 1 207 39 view .LVU67
 364 0008 404D     		ldr	r5, .L42
 365 000a A5FB0030 		umull	r3, r0, r5, r0
 366 000e 4FEAD01E 		lsr	lr, r0, #7
 367              	.LVL10:
 208:Drivers/lvgl/src/misc/lv_color.c ****     uint16_t g = ((uint32_t)g8 << 10) / 255;
 368              		.loc 1 208 5 is_stmt 1 view .LVU68
 369              		.loc 1 208 32 is_stmt 0 view .LVU69
 370 0012 8B02     		lsls	r3, r1, #10
 371              		.loc 1 208 39 view .LVU70
 372 0014 A5FB0313 		umull	r1, r3, r5, r3
ARM GAS  /var/folders/qx/2_175_4n2s19vhvtspjhb3qh0000gn/T//ccAGjwjy.s 			page 11


 373              	.LVL11:
 374              		.loc 1 208 39 view .LVU71
 375 0018 DC09     		lsrs	r4, r3, #7
 376              	.LVL12:
 209:Drivers/lvgl/src/misc/lv_color.c ****     uint16_t b = ((uint32_t)b8 << 10) / 255;
 377              		.loc 1 209 5 is_stmt 1 view .LVU72
 378              		.loc 1 209 32 is_stmt 0 view .LVU73
 379 001a 9202     		lsls	r2, r2, #10
 380              	.LVL13:
 381              		.loc 1 209 39 view .LVU74
 382 001c A5FB0252 		umull	r5, r2, r5, r2
 383 0020 D109     		lsrs	r1, r2, #7
 384              	.LVL14:
 210:Drivers/lvgl/src/misc/lv_color.c **** 
 211:Drivers/lvgl/src/misc/lv_color.c ****     uint16_t rgbMin = r < g ? (r < b ? r : b) : (g < b ? g : b);
 385              		.loc 1 211 5 is_stmt 1 view .LVU75
 386              		.loc 1 211 14 is_stmt 0 view .LVU76
 387 0022 F046     		mov	r8, lr
 388 0024 A645     		cmp	lr, r4
 389 0026 28BF     		it	cs
 390 0028 A046     		movcs	r8, r4
 391              	.LVL15:
 212:Drivers/lvgl/src/misc/lv_color.c ****     uint16_t rgbMax = r > g ? (r > b ? r : b) : (g > b ? g : b);
 392              		.loc 1 212 5 is_stmt 1 view .LVU77
 393              		.loc 1 212 14 is_stmt 0 view .LVU78
 394 002a 7746     		mov	r7, lr
 395 002c A645     		cmp	lr, r4
 396 002e 38BF     		it	cc
 397 0030 2746     		movcc	r7, r4
 398 0032 3D46     		mov	r5, r7
 399 0034 8F42     		cmp	r7, r1
 400 0036 38BF     		it	cc
 401 0038 0D46     		movcc	r5, r1
 402              	.LVL16:
 213:Drivers/lvgl/src/misc/lv_color.c **** 
 214:Drivers/lvgl/src/misc/lv_color.c ****     lv_color_hsv_t hsv;
 403              		.loc 1 214 5 is_stmt 1 view .LVU79
 215:Drivers/lvgl/src/misc/lv_color.c **** 
 216:Drivers/lvgl/src/misc/lv_color.c ****     // https://en.wikipedia.org/wiki/HSL_and_HSV#Lightness
 217:Drivers/lvgl/src/misc/lv_color.c ****     hsv.v = (100 * rgbMax) >> 10;
 404              		.loc 1 217 5 view .LVU80
 405              		.loc 1 217 18 is_stmt 0 view .LVU81
 406 003a 4FF0640C 		mov	ip, #100
 407 003e 0CFB05FC 		mul	ip, ip, r5
 408              		.loc 1 217 28 view .LVU82
 409 0042 4FEAAC2C 		asr	ip, ip, #10
 410              		.loc 1 217 11 view .LVU83
 411 0046 8DF803C0 		strb	ip, [sp, #3]
 218:Drivers/lvgl/src/misc/lv_color.c **** 
 219:Drivers/lvgl/src/misc/lv_color.c ****     int32_t delta = rgbMax - rgbMin;
 412              		.loc 1 219 5 is_stmt 1 view .LVU84
 413              		.loc 1 219 13 is_stmt 0 view .LVU85
 414 004a 8845     		cmp	r8, r1
 415 004c 94BF     		ite	ls
 416 004e A5EB0806 		subls	r6, r5, r8
 417 0052 6E1A     		subhi	r6, r5, r1
 418              	.LVL17:
ARM GAS  /var/folders/qx/2_175_4n2s19vhvtspjhb3qh0000gn/T//ccAGjwjy.s 			page 12


 220:Drivers/lvgl/src/misc/lv_color.c ****     if(delta < 3) {
 419              		.loc 1 220 5 is_stmt 1 view .LVU86
 420              		.loc 1 220 7 is_stmt 0 view .LVU87
 421 0054 022E     		cmp	r6, #2
 422 0056 1CDD     		ble	.L37
 423 0058 0A46     		mov	r2, r1
 221:Drivers/lvgl/src/misc/lv_color.c ****         hsv.h = 0;
 222:Drivers/lvgl/src/misc/lv_color.c ****         hsv.s = 0;
 223:Drivers/lvgl/src/misc/lv_color.c ****         return hsv;
 224:Drivers/lvgl/src/misc/lv_color.c ****     }
 225:Drivers/lvgl/src/misc/lv_color.c **** 
 226:Drivers/lvgl/src/misc/lv_color.c ****     // https://en.wikipedia.org/wiki/HSL_and_HSV#Saturation
 227:Drivers/lvgl/src/misc/lv_color.c ****     hsv.s = 100 * delta / rgbMax;
 424              		.loc 1 227 5 is_stmt 1 view .LVU88
 425              		.loc 1 227 17 is_stmt 0 view .LVU89
 426 005a 4FF0640C 		mov	ip, #100
 427 005e 0CFB06FC 		mul	ip, ip, r6
 428              		.loc 1 227 25 view .LVU90
 429 0062 9CFBF5FC 		sdiv	ip, ip, r5
 430              		.loc 1 227 11 view .LVU91
 431 0066 5FFA8CFC 		uxtb	ip, ip
 432 006a 8DF802C0 		strb	ip, [sp, #2]
 228:Drivers/lvgl/src/misc/lv_color.c ****     if(hsv.s < 3) {
 433              		.loc 1 228 5 is_stmt 1 view .LVU92
 434              		.loc 1 228 7 is_stmt 0 view .LVU93
 435 006e BCF1020F 		cmp	ip, #2
 436 0072 16D9     		bls	.L38
 229:Drivers/lvgl/src/misc/lv_color.c ****         hsv.h = 0;
 230:Drivers/lvgl/src/misc/lv_color.c ****         return hsv;
 231:Drivers/lvgl/src/misc/lv_color.c ****     }
 232:Drivers/lvgl/src/misc/lv_color.c **** 
 233:Drivers/lvgl/src/misc/lv_color.c ****     // https://en.wikipedia.org/wiki/HSL_and_HSV#Hue_and_chroma
 234:Drivers/lvgl/src/misc/lv_color.c ****     int32_t h;
 437              		.loc 1 234 5 is_stmt 1 view .LVU94
 235:Drivers/lvgl/src/misc/lv_color.c ****     if(rgbMax == r)
 438              		.loc 1 235 5 view .LVU95
 439              		.loc 1 235 7 is_stmt 0 view .LVU96
 440 0074 AE45     		cmp	lr, r5
 441 0076 1AD0     		beq	.L39
 236:Drivers/lvgl/src/misc/lv_color.c ****         h = (((g - b) << 10) / delta) + (g < b ? (6 << 10) : 0); // between yellow & magenta
 237:Drivers/lvgl/src/misc/lv_color.c ****     else if(rgbMax == g)
 442              		.loc 1 237 10 is_stmt 1 view .LVU97
 443              		.loc 1 237 12 is_stmt 0 view .LVU98
 444 0078 AC42     		cmp	r4, r5
 445 007a 39D0     		beq	.L40
 238:Drivers/lvgl/src/misc/lv_color.c ****         h = (((b - r) << 10) / delta) + (2 << 10); // between cyan & yellow
 239:Drivers/lvgl/src/misc/lv_color.c ****     else if(rgbMax == b)
 446              		.loc 1 239 10 is_stmt 1 view .LVU99
 447              		.loc 1 239 12 is_stmt 0 view .LVU100
 448 007c 8F42     		cmp	r7, r1
 449 007e 3FD8     		bhi	.L35
 240:Drivers/lvgl/src/misc/lv_color.c ****         h = (((r - g) << 10) / delta) + (4 << 10); // between magenta & cyan
 450              		.loc 1 240 9 is_stmt 1 view .LVU101
 451              		.loc 1 240 18 is_stmt 0 view .LVU102
 452 0080 AEEB040E 		sub	lr, lr, r4
 453              	.LVL18:
 454              		.loc 1 240 23 view .LVU103
ARM GAS  /var/folders/qx/2_175_4n2s19vhvtspjhb3qh0000gn/T//ccAGjwjy.s 			page 13


 455 0084 4FEA8E2E 		lsl	lr, lr, #10
 456              		.loc 1 240 30 view .LVU104
 457 0088 9EFBF6FE 		sdiv	lr, lr, r6
 458              		.loc 1 240 11 view .LVU105
 459 008c 0EF58053 		add	r3, lr, #4096
 460              	.LVL19:
 461              		.loc 1 240 11 view .LVU106
 462 0090 16E0     		b	.L31
 463              	.LVL20:
 464              	.L37:
 221:Drivers/lvgl/src/misc/lv_color.c ****         hsv.s = 0;
 465              		.loc 1 221 9 is_stmt 1 view .LVU107
 221:Drivers/lvgl/src/misc/lv_color.c ****         hsv.s = 0;
 466              		.loc 1 221 15 is_stmt 0 view .LVU108
 467 0092 0023     		movs	r3, #0
 468 0094 ADF80030 		strh	r3, [sp]	@ movhi
 222:Drivers/lvgl/src/misc/lv_color.c ****         return hsv;
 469              		.loc 1 222 9 is_stmt 1 view .LVU109
 222:Drivers/lvgl/src/misc/lv_color.c ****         return hsv;
 470              		.loc 1 222 15 is_stmt 0 view .LVU110
 471 0098 8DF80230 		strb	r3, [sp, #2]
 223:Drivers/lvgl/src/misc/lv_color.c ****     }
 472              		.loc 1 223 9 is_stmt 1 view .LVU111
 223:Drivers/lvgl/src/misc/lv_color.c ****     }
 473              		.loc 1 223 16 is_stmt 0 view .LVU112
 474 009c 009B     		ldr	r3, [sp]
 475 009e 0193     		str	r3, [sp, #4]
 476 00a0 18E0     		b	.L27
 477              	.L38:
 229:Drivers/lvgl/src/misc/lv_color.c ****         return hsv;
 478              		.loc 1 229 9 is_stmt 1 view .LVU113
 229:Drivers/lvgl/src/misc/lv_color.c ****         return hsv;
 479              		.loc 1 229 15 is_stmt 0 view .LVU114
 480 00a2 0023     		movs	r3, #0
 481 00a4 ADF80030 		strh	r3, [sp]	@ movhi
 230:Drivers/lvgl/src/misc/lv_color.c ****     }
 482              		.loc 1 230 9 is_stmt 1 view .LVU115
 230:Drivers/lvgl/src/misc/lv_color.c ****     }
 483              		.loc 1 230 16 is_stmt 0 view .LVU116
 484 00a8 009B     		ldr	r3, [sp]
 485 00aa 0193     		str	r3, [sp, #4]
 486 00ac 12E0     		b	.L27
 487              	.L39:
 236:Drivers/lvgl/src/misc/lv_color.c ****     else if(rgbMax == g)
 488              		.loc 1 236 9 is_stmt 1 view .LVU117
 236:Drivers/lvgl/src/misc/lv_color.c ****     else if(rgbMax == g)
 489              		.loc 1 236 18 is_stmt 0 view .LVU118
 490 00ae 611A     		subs	r1, r4, r1
 491              	.LVL21:
 236:Drivers/lvgl/src/misc/lv_color.c ****     else if(rgbMax == g)
 492              		.loc 1 236 23 view .LVU119
 493 00b0 8902     		lsls	r1, r1, #10
 236:Drivers/lvgl/src/misc/lv_color.c ****     else if(rgbMax == g)
 494              		.loc 1 236 30 view .LVU120
 495 00b2 91FBF6F1 		sdiv	r1, r1, r6
 236:Drivers/lvgl/src/misc/lv_color.c ****     else if(rgbMax == g)
 496              		.loc 1 236 60 view .LVU121
ARM GAS  /var/folders/qx/2_175_4n2s19vhvtspjhb3qh0000gn/T//ccAGjwjy.s 			page 14


 497 00b6 9442     		cmp	r4, r2
 498 00b8 18D2     		bcs	.L34
 236:Drivers/lvgl/src/misc/lv_color.c ****     else if(rgbMax == g)
 499              		.loc 1 236 60 discriminator 1 view .LVU122
 500 00ba 4FF4C053 		mov	r3, #6144
 501              	.L30:
 236:Drivers/lvgl/src/misc/lv_color.c ****     else if(rgbMax == g)
 502              		.loc 1 236 11 discriminator 4 view .LVU123
 503 00be 0B44     		add	r3, r3, r1
 504              	.LVL22:
 505              	.L31:
 241:Drivers/lvgl/src/misc/lv_color.c ****     else
 242:Drivers/lvgl/src/misc/lv_color.c ****         h = 0;
 243:Drivers/lvgl/src/misc/lv_color.c ****     h *= 60;
 506              		.loc 1 243 5 is_stmt 1 view .LVU124
 507              		.loc 1 243 7 is_stmt 0 view .LVU125
 508 00c0 C3EB0313 		rsb	r3, r3, r3, lsl #4
 509              	.LVL23:
 244:Drivers/lvgl/src/misc/lv_color.c ****     h >>= 10;
 510              		.loc 1 244 5 is_stmt 1 view .LVU126
 511              		.loc 1 244 7 is_stmt 0 view .LVU127
 512 00c4 43F31523 		sbfx	r3, r3, #8, #22
 513              	.LVL24:
 245:Drivers/lvgl/src/misc/lv_color.c ****     if(h < 0) h += 360;
 514              		.loc 1 245 5 is_stmt 1 view .LVU128
 515              		.loc 1 245 7 is_stmt 0 view .LVU129
 516 00c8 002B     		cmp	r3, #0
 517 00ca 1BDB     		blt	.L41
 518              	.LVL25:
 519              	.L33:
 246:Drivers/lvgl/src/misc/lv_color.c **** 
 247:Drivers/lvgl/src/misc/lv_color.c ****     hsv.h = h;
 520              		.loc 1 247 5 is_stmt 1 view .LVU130
 521              		.loc 1 247 11 is_stmt 0 view .LVU131
 522 00cc ADF80030 		strh	r3, [sp]	@ movhi
 248:Drivers/lvgl/src/misc/lv_color.c ****     return hsv;
 523              		.loc 1 248 5 is_stmt 1 view .LVU132
 524              		.loc 1 248 12 is_stmt 0 view .LVU133
 525 00d0 009B     		ldr	r3, [sp]
 526              	.LVL26:
 527              		.loc 1 248 12 view .LVU134
 528 00d2 0193     		str	r3, [sp, #4]
 529              	.LVL27:
 530              	.L27:
 249:Drivers/lvgl/src/misc/lv_color.c **** }
 531              		.loc 1 249 1 view .LVU135
 532 00d4 0020     		movs	r0, #0
 533              	.LVL28:
 534              		.loc 1 249 1 view .LVU136
 535 00d6 BDF80430 		ldrh	r3, [sp, #4]
 536 00da 63F30F00 		bfi	r0, r3, #0, #16
 537 00de BDF80630 		ldrh	r3, [sp, #6]
 538 00e2 63F31F40 		bfi	r0, r3, #16, #16
 539 00e6 02B0     		add	sp, sp, #8
 540              	.LCFI8:
 541              		.cfi_remember_state
 542              		.cfi_def_cfa_offset 24
ARM GAS  /var/folders/qx/2_175_4n2s19vhvtspjhb3qh0000gn/T//ccAGjwjy.s 			page 15


 543              		@ sp needed
 544 00e8 BDE8F081 		pop	{r4, r5, r6, r7, r8, pc}
 545              	.LVL29:
 546              	.L34:
 547              	.LCFI9:
 548              		.cfi_restore_state
 236:Drivers/lvgl/src/misc/lv_color.c ****     else if(rgbMax == g)
 549              		.loc 1 236 60 discriminator 2 view .LVU137
 550 00ec 0023     		movs	r3, #0
 551 00ee E6E7     		b	.L30
 552              	.LVL30:
 553              	.L40:
 238:Drivers/lvgl/src/misc/lv_color.c ****     else if(rgbMax == b)
 554              		.loc 1 238 9 is_stmt 1 view .LVU138
 238:Drivers/lvgl/src/misc/lv_color.c ****     else if(rgbMax == b)
 555              		.loc 1 238 18 is_stmt 0 view .LVU139
 556 00f0 A1EB0E03 		sub	r3, r1, lr
 238:Drivers/lvgl/src/misc/lv_color.c ****     else if(rgbMax == b)
 557              		.loc 1 238 23 view .LVU140
 558 00f4 9B02     		lsls	r3, r3, #10
 238:Drivers/lvgl/src/misc/lv_color.c ****     else if(rgbMax == b)
 559              		.loc 1 238 30 view .LVU141
 560 00f6 93FBF6F3 		sdiv	r3, r3, r6
 238:Drivers/lvgl/src/misc/lv_color.c ****     else if(rgbMax == b)
 561              		.loc 1 238 11 view .LVU142
 562 00fa 03F50063 		add	r3, r3, #2048
 563              	.LVL31:
 238:Drivers/lvgl/src/misc/lv_color.c ****     else if(rgbMax == b)
 564              		.loc 1 238 11 view .LVU143
 565 00fe DFE7     		b	.L31
 566              	.LVL32:
 567              	.L35:
 242:Drivers/lvgl/src/misc/lv_color.c ****     h *= 60;
 568              		.loc 1 242 11 view .LVU144
 569 0100 0023     		movs	r3, #0
 570 0102 DDE7     		b	.L31
 571              	.LVL33:
 572              	.L41:
 245:Drivers/lvgl/src/misc/lv_color.c **** 
 573              		.loc 1 245 15 is_stmt 1 discriminator 1 view .LVU145
 245:Drivers/lvgl/src/misc/lv_color.c **** 
 574              		.loc 1 245 17 is_stmt 0 discriminator 1 view .LVU146
 575 0104 03F5B473 		add	r3, r3, #360
 576              	.LVL34:
 245:Drivers/lvgl/src/misc/lv_color.c **** 
 577              		.loc 1 245 17 discriminator 1 view .LVU147
 578 0108 E0E7     		b	.L33
 579              	.L43:
 580 010a 00BF     		.align	2
 581              	.L42:
 582 010c 81808080 		.word	-2139062143
 583              		.cfi_endproc
 584              	.LFE14:
 586              		.section	.text.lv_color_to_hsv,"ax",%progbits
 587              		.align	1
 588              		.global	lv_color_to_hsv
 589              		.syntax unified
ARM GAS  /var/folders/qx/2_175_4n2s19vhvtspjhb3qh0000gn/T//ccAGjwjy.s 			page 16


 590              		.thumb
 591              		.thumb_func
 593              	lv_color_to_hsv:
 594              	.LFB15:
 250:Drivers/lvgl/src/misc/lv_color.c **** 
 251:Drivers/lvgl/src/misc/lv_color.c **** /**
 252:Drivers/lvgl/src/misc/lv_color.c ****  * Convert a color to HSV
 253:Drivers/lvgl/src/misc/lv_color.c ****  * @param color color
 254:Drivers/lvgl/src/misc/lv_color.c ****  * @return the given color in HSV
 255:Drivers/lvgl/src/misc/lv_color.c ****  */
 256:Drivers/lvgl/src/misc/lv_color.c **** lv_color_hsv_t lv_color_to_hsv(lv_color_t c)
 257:Drivers/lvgl/src/misc/lv_color.c **** {
 595              		.loc 1 257 1 is_stmt 1 view -0
 596              		.cfi_startproc
 597              		@ args = 0, pretend = 0, frame = 16
 598              		@ frame_needed = 0, uses_anonymous_args = 0
 599 0000 00B5     		push	{lr}
 600              	.LCFI10:
 601              		.cfi_def_cfa_offset 4
 602              		.cfi_offset 14, -4
 603 0002 85B0     		sub	sp, sp, #20
 604              	.LCFI11:
 605              		.cfi_def_cfa_offset 24
 606 0004 0190     		str	r0, [sp, #4]
 258:Drivers/lvgl/src/misc/lv_color.c ****     return lv_color_rgb_to_hsv(c.red, c.green, c.blue);
 607              		.loc 1 258 5 view .LVU149
 608              		.loc 1 258 12 is_stmt 0 view .LVU150
 609 0006 9DF80420 		ldrb	r2, [sp, #4]	@ zero_extendqisi2
 610 000a 9DF80510 		ldrb	r1, [sp, #5]	@ zero_extendqisi2
 611 000e 9DF80600 		ldrb	r0, [sp, #6]	@ zero_extendqisi2
 612 0012 FFF7FEFF 		bl	lv_color_rgb_to_hsv
 613              	.LVL35:
 614 0016 0390     		str	r0, [sp, #12]
 615              		.loc 1 258 12 discriminator 1 view .LVU151
 616 0018 0020     		movs	r0, #0
 617 001a BDF80C30 		ldrh	r3, [sp, #12]
 618 001e 63F30F00 		bfi	r0, r3, #0, #16
 619 0022 BDF80E30 		ldrh	r3, [sp, #14]
 620 0026 63F31F40 		bfi	r0, r3, #16, #16
 259:Drivers/lvgl/src/misc/lv_color.c **** }
 621              		.loc 1 259 1 view .LVU152
 622 002a 05B0     		add	sp, sp, #20
 623              	.LCFI12:
 624              		.cfi_def_cfa_offset 4
 625              		@ sp needed
 626 002c 5DF804FB 		ldr	pc, [sp], #4
 627              		.cfi_endproc
 628              	.LFE15:
 630              		.section	.text.lv_color_format_get_size,"ax",%progbits
 631              		.align	1
 632              		.global	lv_color_format_get_size
 633              		.syntax unified
 634              		.thumb
 635              		.thumb_func
 637              	lv_color_format_get_size:
 638              	.LVL36:
 639              	.LFB16:
ARM GAS  /var/folders/qx/2_175_4n2s19vhvtspjhb3qh0000gn/T//ccAGjwjy.s 			page 17


 260:Drivers/lvgl/src/misc/lv_color.c **** 
 261:Drivers/lvgl/src/misc/lv_color.c **** uint8_t lv_color_format_get_size(lv_color_format_t cf)
 262:Drivers/lvgl/src/misc/lv_color.c **** {
 640              		.loc 1 262 1 is_stmt 1 view -0
 641              		.cfi_startproc
 642              		@ args = 0, pretend = 0, frame = 0
 643              		@ frame_needed = 0, uses_anonymous_args = 0
 644              		.loc 1 262 1 is_stmt 0 view .LVU154
 645 0000 08B5     		push	{r3, lr}
 646              	.LCFI13:
 647              		.cfi_def_cfa_offset 8
 648              		.cfi_offset 3, -8
 649              		.cfi_offset 14, -4
 263:Drivers/lvgl/src/misc/lv_color.c ****     return (lv_color_format_get_bpp(cf) + 7) >> 3;
 650              		.loc 1 263 5 is_stmt 1 view .LVU155
 651              		.loc 1 263 13 is_stmt 0 view .LVU156
 652 0002 FFF7FEFF 		bl	lv_color_format_get_bpp
 653              	.LVL37:
 654              		.loc 1 263 41 discriminator 1 view .LVU157
 655 0006 0730     		adds	r0, r0, #7
 264:Drivers/lvgl/src/misc/lv_color.c **** }
 656              		.loc 1 264 1 view .LVU158
 657 0008 C0F3C700 		ubfx	r0, r0, #3, #8
 658 000c 08BD     		pop	{r3, pc}
 659              		.cfi_endproc
 660              	.LFE16:
 662              		.section	.text.lv_color_to_int,"ax",%progbits
 663              		.align	1
 664              		.global	lv_color_to_int
 665              		.syntax unified
 666              		.thumb
 667              		.thumb_func
 669              	lv_color_to_int:
 670              	.LFB17:
 265:Drivers/lvgl/src/misc/lv_color.c **** 
 266:Drivers/lvgl/src/misc/lv_color.c **** uint32_t lv_color_to_int(lv_color_t c)
 267:Drivers/lvgl/src/misc/lv_color.c **** {
 671              		.loc 1 267 1 is_stmt 1 view -0
 672              		.cfi_startproc
 673              		@ args = 0, pretend = 0, frame = 8
 674              		@ frame_needed = 0, uses_anonymous_args = 0
 675              		@ link register save eliminated.
 676 0000 82B0     		sub	sp, sp, #8
 677              	.LCFI14:
 678              		.cfi_def_cfa_offset 8
 679 0002 0190     		str	r0, [sp, #4]
 268:Drivers/lvgl/src/misc/lv_color.c ****     uint8_t * tmp = (uint8_t *) &c;
 680              		.loc 1 268 5 view .LVU160
 681              	.LVL38:
 269:Drivers/lvgl/src/misc/lv_color.c ****     return tmp[0] + (tmp[1] << 8) + (tmp[2] << 16);
 682              		.loc 1 269 5 view .LVU161
 683              		.loc 1 269 15 is_stmt 0 view .LVU162
 684 0004 9DF80430 		ldrb	r3, [sp, #4]	@ zero_extendqisi2
 685              		.loc 1 269 25 view .LVU163
 686 0008 9DF80520 		ldrb	r2, [sp, #5]	@ zero_extendqisi2
 687              		.loc 1 269 19 view .LVU164
 688 000c 03EB0223 		add	r3, r3, r2, lsl #8
ARM GAS  /var/folders/qx/2_175_4n2s19vhvtspjhb3qh0000gn/T//ccAGjwjy.s 			page 18


 689              		.loc 1 269 41 view .LVU165
 690 0010 9DF80600 		ldrb	r0, [sp, #6]	@ zero_extendqisi2
 270:Drivers/lvgl/src/misc/lv_color.c **** }
 691              		.loc 1 270 1 view .LVU166
 692 0014 03EB0040 		add	r0, r3, r0, lsl #16
 693 0018 02B0     		add	sp, sp, #8
 694              	.LCFI15:
 695              		.cfi_def_cfa_offset 0
 696              	.LVL39:
 697              		.loc 1 270 1 view .LVU167
 698              		@ sp needed
 699 001a 7047     		bx	lr
 700              		.cfi_endproc
 701              	.LFE17:
 703              		.section	.text.lv_color_eq,"ax",%progbits
 704              		.align	1
 705              		.global	lv_color_eq
 706              		.syntax unified
 707              		.thumb
 708              		.thumb_func
 710              	lv_color_eq:
 711              	.LFB18:
 271:Drivers/lvgl/src/misc/lv_color.c **** 
 272:Drivers/lvgl/src/misc/lv_color.c **** bool lv_color_eq(lv_color_t c1, lv_color_t c2)
 273:Drivers/lvgl/src/misc/lv_color.c **** {
 712              		.loc 1 273 1 is_stmt 1 view -0
 713              		.cfi_startproc
 714              		@ args = 0, pretend = 0, frame = 8
 715              		@ frame_needed = 0, uses_anonymous_args = 0
 716 0000 10B5     		push	{r4, lr}
 717              	.LCFI16:
 718              		.cfi_def_cfa_offset 8
 719              		.cfi_offset 4, -8
 720              		.cfi_offset 14, -4
 721 0002 82B0     		sub	sp, sp, #8
 722              	.LCFI17:
 723              		.cfi_def_cfa_offset 16
 724 0004 0190     		str	r0, [sp, #4]
 725 0006 0091     		str	r1, [sp]
 274:Drivers/lvgl/src/misc/lv_color.c ****     return lv_color_to_int(c1) == lv_color_to_int(c2);
 726              		.loc 1 274 5 view .LVU169
 727              		.loc 1 274 12 is_stmt 0 view .LVU170
 728 0008 FFF7FEFF 		bl	lv_color_to_int
 729              	.LVL40:
 730 000c 0446     		mov	r4, r0
 731              		.loc 1 274 35 discriminator 1 view .LVU171
 732 000e 0098     		ldr	r0, [sp]
 733 0010 FFF7FEFF 		bl	lv_color_to_int
 734              	.LVL41:
 275:Drivers/lvgl/src/misc/lv_color.c **** }
 735              		.loc 1 275 1 view .LVU172
 736 0014 8442     		cmp	r4, r0
 737 0016 14BF     		ite	ne
 738 0018 0020     		movne	r0, #0
 739 001a 0120     		moveq	r0, #1
 740 001c 02B0     		add	sp, sp, #8
 741              	.LCFI18:
ARM GAS  /var/folders/qx/2_175_4n2s19vhvtspjhb3qh0000gn/T//ccAGjwjy.s 			page 19


 742              		.cfi_def_cfa_offset 8
 743              		@ sp needed
 744 001e 10BD     		pop	{r4, pc}
 745              		.cfi_endproc
 746              	.LFE18:
 748              		.section	.text.lv_color32_eq,"ax",%progbits
 749              		.align	1
 750              		.global	lv_color32_eq
 751              		.syntax unified
 752              		.thumb
 753              		.thumb_func
 755              	lv_color32_eq:
 756              	.LFB19:
 276:Drivers/lvgl/src/misc/lv_color.c **** 
 277:Drivers/lvgl/src/misc/lv_color.c **** bool lv_color32_eq(lv_color32_t c1, lv_color32_t c2)
 278:Drivers/lvgl/src/misc/lv_color.c **** {
 757              		.loc 1 278 1 is_stmt 1 view -0
 758              		.cfi_startproc
 759              		@ args = 0, pretend = 0, frame = 8
 760              		@ frame_needed = 0, uses_anonymous_args = 0
 761              		@ link register save eliminated.
 762 0000 82B0     		sub	sp, sp, #8
 763              	.LCFI19:
 764              		.cfi_def_cfa_offset 8
 765 0002 0190     		str	r0, [sp, #4]
 766 0004 0091     		str	r1, [sp]
 279:Drivers/lvgl/src/misc/lv_color.c ****     return *((uint32_t *)&c1) == *((uint32_t *)&c2);
 767              		.loc 1 279 5 view .LVU174
 280:Drivers/lvgl/src/misc/lv_color.c **** }
 768              		.loc 1 280 1 is_stmt 0 view .LVU175
 769 0006 8842     		cmp	r0, r1
 770 0008 14BF     		ite	ne
 771 000a 0020     		movne	r0, #0
 772 000c 0120     		moveq	r0, #1
 773 000e 02B0     		add	sp, sp, #8
 774              	.LCFI20:
 775              		.cfi_def_cfa_offset 0
 776              		@ sp needed
 777 0010 7047     		bx	lr
 778              		.cfi_endproc
 779              	.LFE19:
 781              		.section	.text.lv_color_hex,"ax",%progbits
 782              		.align	1
 783              		.global	lv_color_hex
 784              		.syntax unified
 785              		.thumb
 786              		.thumb_func
 788              	lv_color_hex:
 789              	.LVL42:
 790              	.LFB20:
 281:Drivers/lvgl/src/misc/lv_color.c **** 
 282:Drivers/lvgl/src/misc/lv_color.c **** lv_color_t lv_color_hex(uint32_t c)
 283:Drivers/lvgl/src/misc/lv_color.c **** {
 791              		.loc 1 283 1 is_stmt 1 view -0
 792              		.cfi_startproc
 793              		@ args = 0, pretend = 0, frame = 8
 794              		@ frame_needed = 0, uses_anonymous_args = 0
ARM GAS  /var/folders/qx/2_175_4n2s19vhvtspjhb3qh0000gn/T//ccAGjwjy.s 			page 20


 795              		@ link register save eliminated.
 796              		.loc 1 283 1 is_stmt 0 view .LVU177
 797 0000 82B0     		sub	sp, sp, #8
 798              	.LCFI21:
 799              		.cfi_def_cfa_offset 8
 284:Drivers/lvgl/src/misc/lv_color.c ****     lv_color_t ret;
 800              		.loc 1 284 5 is_stmt 1 view .LVU178
 285:Drivers/lvgl/src/misc/lv_color.c ****     ret.red = (c >> 16) & 0xff;
 801              		.loc 1 285 5 view .LVU179
 802              		.loc 1 285 18 is_stmt 0 view .LVU180
 803 0002 030C     		lsrs	r3, r0, #16
 804              		.loc 1 285 13 view .LVU181
 805 0004 8DF80230 		strb	r3, [sp, #2]
 286:Drivers/lvgl/src/misc/lv_color.c ****     ret.green = (c >> 8) & 0xff;
 806              		.loc 1 286 5 is_stmt 1 view .LVU182
 807              		.loc 1 286 20 is_stmt 0 view .LVU183
 808 0008 030A     		lsrs	r3, r0, #8
 809              		.loc 1 286 15 view .LVU184
 810 000a 8DF80130 		strb	r3, [sp, #1]
 287:Drivers/lvgl/src/misc/lv_color.c ****     ret.blue = (c >> 0) & 0xff;
 811              		.loc 1 287 5 is_stmt 1 view .LVU185
 812              		.loc 1 287 14 is_stmt 0 view .LVU186
 813 000e 8DF80000 		strb	r0, [sp]
 288:Drivers/lvgl/src/misc/lv_color.c ****     return ret;
 814              		.loc 1 288 5 is_stmt 1 view .LVU187
 815              		.loc 1 288 12 is_stmt 0 view .LVU188
 816 0012 009B     		ldr	r3, [sp]
 817 0014 ADF80430 		strh	r3, [sp, #4]	@ movhi
 818 0018 1B0C     		lsrs	r3, r3, #16
 819 001a 8DF80630 		strb	r3, [sp, #6]
 820 001e 0020     		movs	r0, #0
 821              	.LVL43:
 822              		.loc 1 288 12 view .LVU189
 823 0020 9DF80430 		ldrb	r3, [sp, #4]	@ zero_extendqisi2
 824 0024 63F30700 		bfi	r0, r3, #0, #8
 825 0028 9DF80530 		ldrb	r3, [sp, #5]	@ zero_extendqisi2
 826 002c 63F30F20 		bfi	r0, r3, #8, #8
 827 0030 9DF80630 		ldrb	r3, [sp, #6]	@ zero_extendqisi2
 828 0034 63F31740 		bfi	r0, r3, #16, #8
 289:Drivers/lvgl/src/misc/lv_color.c **** }
 829              		.loc 1 289 1 view .LVU190
 830 0038 02B0     		add	sp, sp, #8
 831              	.LCFI22:
 832              		.cfi_def_cfa_offset 0
 833              		@ sp needed
 834 003a 7047     		bx	lr
 835              		.cfi_endproc
 836              	.LFE20:
 838              		.section	.text.lv_color_make,"ax",%progbits
 839              		.align	1
 840              		.global	lv_color_make
 841              		.syntax unified
 842              		.thumb
 843              		.thumb_func
 845              	lv_color_make:
 846              	.LVL44:
 847              	.LFB21:
ARM GAS  /var/folders/qx/2_175_4n2s19vhvtspjhb3qh0000gn/T//ccAGjwjy.s 			page 21


 290:Drivers/lvgl/src/misc/lv_color.c **** 
 291:Drivers/lvgl/src/misc/lv_color.c **** lv_color_t lv_color_make(uint8_t r, uint8_t g, uint8_t b)
 292:Drivers/lvgl/src/misc/lv_color.c **** {
 848              		.loc 1 292 1 is_stmt 1 view -0
 849              		.cfi_startproc
 850              		@ args = 0, pretend = 0, frame = 8
 851              		@ frame_needed = 0, uses_anonymous_args = 0
 852              		@ link register save eliminated.
 853              		.loc 1 292 1 is_stmt 0 view .LVU192
 854 0000 82B0     		sub	sp, sp, #8
 855              	.LCFI23:
 856              		.cfi_def_cfa_offset 8
 293:Drivers/lvgl/src/misc/lv_color.c ****     lv_color_t ret;
 857              		.loc 1 293 5 is_stmt 1 view .LVU193
 294:Drivers/lvgl/src/misc/lv_color.c ****     ret.red = r;
 858              		.loc 1 294 5 view .LVU194
 859              		.loc 1 294 13 is_stmt 0 view .LVU195
 860 0002 8DF80200 		strb	r0, [sp, #2]
 295:Drivers/lvgl/src/misc/lv_color.c ****     ret.green = g;
 861              		.loc 1 295 5 is_stmt 1 view .LVU196
 862              		.loc 1 295 15 is_stmt 0 view .LVU197
 863 0006 8DF80110 		strb	r1, [sp, #1]
 296:Drivers/lvgl/src/misc/lv_color.c ****     ret.blue = b;
 864              		.loc 1 296 5 is_stmt 1 view .LVU198
 865              		.loc 1 296 14 is_stmt 0 view .LVU199
 866 000a 8DF80020 		strb	r2, [sp]
 297:Drivers/lvgl/src/misc/lv_color.c ****     return ret;
 867              		.loc 1 297 5 is_stmt 1 view .LVU200
 868              		.loc 1 297 12 is_stmt 0 view .LVU201
 869 000e 009B     		ldr	r3, [sp]
 870 0010 ADF80430 		strh	r3, [sp, #4]	@ movhi
 871 0014 1B0C     		lsrs	r3, r3, #16
 872 0016 8DF80630 		strb	r3, [sp, #6]
 873 001a 0020     		movs	r0, #0
 874              	.LVL45:
 875              		.loc 1 297 12 view .LVU202
 876 001c 9DF80430 		ldrb	r3, [sp, #4]	@ zero_extendqisi2
 877 0020 63F30700 		bfi	r0, r3, #0, #8
 878 0024 9DF80530 		ldrb	r3, [sp, #5]	@ zero_extendqisi2
 879 0028 63F30F20 		bfi	r0, r3, #8, #8
 880 002c 9DF80630 		ldrb	r3, [sp, #6]	@ zero_extendqisi2
 881 0030 63F31740 		bfi	r0, r3, #16, #8
 298:Drivers/lvgl/src/misc/lv_color.c **** }
 882              		.loc 1 298 1 view .LVU203
 883 0034 02B0     		add	sp, sp, #8
 884              	.LCFI24:
 885              		.cfi_def_cfa_offset 0
 886              	.LVL46:
 887              		.loc 1 298 1 view .LVU204
 888              		@ sp needed
 889 0036 7047     		bx	lr
 890              		.cfi_endproc
 891              	.LFE21:
 893              		.section	.text.lv_color_hsv_to_rgb,"ax",%progbits
 894              		.align	1
 895              		.global	lv_color_hsv_to_rgb
 896              		.syntax unified
ARM GAS  /var/folders/qx/2_175_4n2s19vhvtspjhb3qh0000gn/T//ccAGjwjy.s 			page 22


 897              		.thumb
 898              		.thumb_func
 900              	lv_color_hsv_to_rgb:
 901              	.LVL47:
 902              	.LFB13:
 148:Drivers/lvgl/src/misc/lv_color.c ****     h = (uint32_t)((uint32_t)h * 255) / 360;
 903              		.loc 1 148 1 is_stmt 1 view -0
 904              		.cfi_startproc
 905              		@ args = 0, pretend = 0, frame = 8
 906              		@ frame_needed = 0, uses_anonymous_args = 0
 148:Drivers/lvgl/src/misc/lv_color.c ****     h = (uint32_t)((uint32_t)h * 255) / 360;
 907              		.loc 1 148 1 is_stmt 0 view .LVU206
 908 0000 10B5     		push	{r4, lr}
 909              	.LCFI25:
 910              		.cfi_def_cfa_offset 8
 911              		.cfi_offset 4, -8
 912              		.cfi_offset 14, -4
 913 0002 82B0     		sub	sp, sp, #8
 914              	.LCFI26:
 915              		.cfi_def_cfa_offset 16
 149:Drivers/lvgl/src/misc/lv_color.c ****     s = (uint16_t)((uint16_t)s * 255) / 100;
 916              		.loc 1 149 5 is_stmt 1 view .LVU207
 149:Drivers/lvgl/src/misc/lv_color.c ****     s = (uint16_t)((uint16_t)s * 255) / 100;
 917              		.loc 1 149 9 is_stmt 0 view .LVU208
 918 0004 C0EB0020 		rsb	r0, r0, r0, lsl #8
 919              	.LVL48:
 149:Drivers/lvgl/src/misc/lv_color.c ****     s = (uint16_t)((uint16_t)s * 255) / 100;
 920              		.loc 1 149 39 view .LVU209
 921 0008 C008     		lsrs	r0, r0, #3
 922 000a 474B     		ldr	r3, .L71
 923 000c A3FB0030 		umull	r3, r0, r3, r0
 924 0010 4FEA900C 		lsr	ip, r0, #2
 149:Drivers/lvgl/src/misc/lv_color.c ****     s = (uint16_t)((uint16_t)s * 255) / 100;
 925              		.loc 1 149 7 view .LVU210
 926 0014 C0F38F00 		ubfx	r0, r0, #2, #16
 927              	.LVL49:
 150:Drivers/lvgl/src/misc/lv_color.c ****     v = (uint16_t)((uint16_t)v * 255) / 100;
 928              		.loc 1 150 5 is_stmt 1 view .LVU211
 150:Drivers/lvgl/src/misc/lv_color.c ****     v = (uint16_t)((uint16_t)v * 255) / 100;
 929              		.loc 1 150 9 is_stmt 0 view .LVU212
 930 0018 C1EB0121 		rsb	r1, r1, r1, lsl #8
 931              	.LVL50:
 150:Drivers/lvgl/src/misc/lv_color.c ****     v = (uint16_t)((uint16_t)v * 255) / 100;
 932              		.loc 1 150 9 view .LVU213
 933 001c 8BB2     		uxth	r3, r1
 150:Drivers/lvgl/src/misc/lv_color.c ****     v = (uint16_t)((uint16_t)v * 255) / 100;
 934              		.loc 1 150 7 view .LVU214
 935 001e 434C     		ldr	r4, .L71+4
 936 0020 A4FB0313 		umull	r1, r3, r4, r3
 937 0024 C3F34713 		ubfx	r3, r3, #5, #8
 938              	.LVL51:
 151:Drivers/lvgl/src/misc/lv_color.c **** 
 939              		.loc 1 151 5 is_stmt 1 view .LVU215
 151:Drivers/lvgl/src/misc/lv_color.c **** 
 940              		.loc 1 151 9 is_stmt 0 view .LVU216
 941 0028 C2EB0221 		rsb	r1, r2, r2, lsl #8
 942 002c 89B2     		uxth	r1, r1
ARM GAS  /var/folders/qx/2_175_4n2s19vhvtspjhb3qh0000gn/T//ccAGjwjy.s 			page 23


 151:Drivers/lvgl/src/misc/lv_color.c **** 
 943              		.loc 1 151 7 view .LVU217
 944 002e A4FB0141 		umull	r4, r1, r4, r1
 945 0032 C1F34711 		ubfx	r1, r1, #5, #8
 946              	.LVL52:
 153:Drivers/lvgl/src/misc/lv_color.c **** 
 947              		.loc 1 153 5 is_stmt 1 view .LVU218
 155:Drivers/lvgl/src/misc/lv_color.c **** 
 948              		.loc 1 155 5 view .LVU219
 157:Drivers/lvgl/src/misc/lv_color.c ****         return lv_color_make(v, v, v);
 949              		.loc 1 157 5 view .LVU220
 157:Drivers/lvgl/src/misc/lv_color.c ****         return lv_color_make(v, v, v);
 950              		.loc 1 157 7 is_stmt 0 view .LVU221
 951 0036 93B3     		cbz	r3, .L70
 161:Drivers/lvgl/src/misc/lv_color.c ****     remainder = (h - (region * 43)) * 6;
 952              		.loc 1 161 5 is_stmt 1 view .LVU222
 161:Drivers/lvgl/src/misc/lv_color.c ****     remainder = (h - (region * 43)) * 6;
 953              		.loc 1 161 15 is_stmt 0 view .LVU223
 954 0038 3D4A     		ldr	r2, .L71+8
 955 003a A2FB0020 		umull	r2, r0, r2, r0
 956              	.LVL53:
 161:Drivers/lvgl/src/misc/lv_color.c ****     remainder = (h - (region * 43)) * 6;
 957              		.loc 1 161 15 view .LVU224
 958 003e C0F3C70E 		ubfx	lr, r0, #3, #8
 959              	.LVL54:
 162:Drivers/lvgl/src/misc/lv_color.c **** 
 960              		.loc 1 162 5 is_stmt 1 view .LVU225
 162:Drivers/lvgl/src/misc/lv_color.c **** 
 961              		.loc 1 162 20 is_stmt 0 view .LVU226
 962 0042 1FFA8CFC 		uxth	ip, ip
 963 0046 6FF02A02 		mvn	r2, #42
 964 004a 02FB0ECC 		mla	ip, r2, lr, ip
 162:Drivers/lvgl/src/misc/lv_color.c **** 
 965              		.loc 1 162 15 view .LVU227
 966 004e 0CEB4C0C 		add	ip, ip, ip, lsl #1
 967 0052 4FEA4C0C 		lsl	ip, ip, #1
 968 0056 5FFA8CFC 		uxtb	ip, ip
 969              	.LVL55:
 164:Drivers/lvgl/src/misc/lv_color.c ****     q = (v * (255 - ((s * remainder) >> 8))) >> 8;
 970              		.loc 1 164 5 is_stmt 1 view .LVU228
 164:Drivers/lvgl/src/misc/lv_color.c ****     q = (v * (255 - ((s * remainder) >> 8))) >> 8;
 971              		.loc 1 164 19 is_stmt 0 view .LVU229
 972 005a C3F1FF02 		rsb	r2, r3, #255
 164:Drivers/lvgl/src/misc/lv_color.c ****     q = (v * (255 - ((s * remainder) >> 8))) >> 8;
 973              		.loc 1 164 12 view .LVU230
 974 005e 01FB02F2 		mul	r2, r1, r2
 164:Drivers/lvgl/src/misc/lv_color.c ****     q = (v * (255 - ((s * remainder) >> 8))) >> 8;
 975              		.loc 1 164 7 view .LVU231
 976 0062 C2F30722 		ubfx	r2, r2, #8, #8
 977              	.LVL56:
 165:Drivers/lvgl/src/misc/lv_color.c ****     t = (v * (255 - ((s * (255 - remainder)) >> 8))) >> 8;
 978              		.loc 1 165 5 is_stmt 1 view .LVU232
 165:Drivers/lvgl/src/misc/lv_color.c ****     t = (v * (255 - ((s * (255 - remainder)) >> 8))) >> 8;
 979              		.loc 1 165 25 is_stmt 0 view .LVU233
 980 0066 0CFB03F0 		mul	r0, ip, r3
 165:Drivers/lvgl/src/misc/lv_color.c ****     t = (v * (255 - ((s * (255 - remainder)) >> 8))) >> 8;
 981              		.loc 1 165 38 view .LVU234
ARM GAS  /var/folders/qx/2_175_4n2s19vhvtspjhb3qh0000gn/T//ccAGjwjy.s 			page 24


 982 006a 0012     		asrs	r0, r0, #8
 165:Drivers/lvgl/src/misc/lv_color.c ****     t = (v * (255 - ((s * (255 - remainder)) >> 8))) >> 8;
 983              		.loc 1 165 19 view .LVU235
 984 006c C0F1FF00 		rsb	r0, r0, #255
 165:Drivers/lvgl/src/misc/lv_color.c ****     t = (v * (255 - ((s * (255 - remainder)) >> 8))) >> 8;
 985              		.loc 1 165 12 view .LVU236
 986 0070 01FB00F0 		mul	r0, r1, r0
 165:Drivers/lvgl/src/misc/lv_color.c ****     t = (v * (255 - ((s * (255 - remainder)) >> 8))) >> 8;
 987              		.loc 1 165 7 view .LVU237
 988 0074 C0F30720 		ubfx	r0, r0, #8, #8
 989              	.LVL57:
 166:Drivers/lvgl/src/misc/lv_color.c **** 
 990              		.loc 1 166 5 is_stmt 1 view .LVU238
 166:Drivers/lvgl/src/misc/lv_color.c **** 
 991              		.loc 1 166 32 is_stmt 0 view .LVU239
 992 0078 CCF1FF0C 		rsb	ip, ip, #255
 993              	.LVL58:
 166:Drivers/lvgl/src/misc/lv_color.c **** 
 994              		.loc 1 166 25 view .LVU240
 995 007c 0CFB03F3 		mul	r3, ip, r3
 996              	.LVL59:
 166:Drivers/lvgl/src/misc/lv_color.c **** 
 997              		.loc 1 166 46 view .LVU241
 998 0080 1B12     		asrs	r3, r3, #8
 166:Drivers/lvgl/src/misc/lv_color.c **** 
 999              		.loc 1 166 19 view .LVU242
 1000 0082 C3F1FF03 		rsb	r3, r3, #255
 166:Drivers/lvgl/src/misc/lv_color.c **** 
 1001              		.loc 1 166 12 view .LVU243
 1002 0086 01FB03F3 		mul	r3, r1, r3
 166:Drivers/lvgl/src/misc/lv_color.c **** 
 1003              		.loc 1 166 7 view .LVU244
 1004 008a C3F30723 		ubfx	r3, r3, #8, #8
 1005              	.LVL60:
 168:Drivers/lvgl/src/misc/lv_color.c ****         case 0:
 1006              		.loc 1 168 5 is_stmt 1 view .LVU245
 1007 008e BEF1040F 		cmp	lr, #4
 1008 0092 43D8     		bhi	.L61
 1009 0094 DFE80EF0 		tbb	[pc, lr]
 1010              	.L63:
 1011 0098 12       		.byte	(.L67-.L63)/2
 1012 0099 14       		.byte	(.L66-.L63)/2
 1013 009a 35       		.byte	(.L65-.L63)/2
 1014 009b 38       		.byte	(.L64-.L63)/2
 1015 009c 3D       		.byte	(.L62-.L63)/2
 1016              	.LVL61:
 1017 009d 00       		.p2align 1
 1018              	.L70:
 158:Drivers/lvgl/src/misc/lv_color.c ****     }
 1019              		.loc 1 158 9 view .LVU246
 158:Drivers/lvgl/src/misc/lv_color.c ****     }
 1020              		.loc 1 158 16 is_stmt 0 view .LVU247
 1021 009e 0A46     		mov	r2, r1
 1022 00a0 0846     		mov	r0, r1
 1023              	.LVL62:
 158:Drivers/lvgl/src/misc/lv_color.c ****     }
 1024              		.loc 1 158 16 view .LVU248
ARM GAS  /var/folders/qx/2_175_4n2s19vhvtspjhb3qh0000gn/T//ccAGjwjy.s 			page 25


 1025 00a2 FFF7FEFF 		bl	lv_color_make
 1026              	.LVL63:
 158:Drivers/lvgl/src/misc/lv_color.c ****     }
 1027              		.loc 1 158 16 view .LVU249
 1028 00a6 8DF80400 		strb	r0, [sp, #4]
 1029 00aa C0F30723 		ubfx	r3, r0, #8, #8
 1030 00ae 8DF80530 		strb	r3, [sp, #5]
 1031 00b2 C0F30740 		ubfx	r0, r0, #16, #8
 1032 00b6 8DF80600 		strb	r0, [sp, #6]
 1033 00ba 13E0     		b	.L60
 1034              	.LVL64:
 1035              	.L67:
 168:Drivers/lvgl/src/misc/lv_color.c ****         case 0:
 1036              		.loc 1 168 5 view .LVU250
 1037 00bc 0846     		mov	r0, r1
 1038              	.LVL65:
 168:Drivers/lvgl/src/misc/lv_color.c ****         case 0:
 1039              		.loc 1 168 5 view .LVU251
 1040 00be 1946     		mov	r1, r3
 1041              	.LVL66:
 1042              	.L66:
 201:Drivers/lvgl/src/misc/lv_color.c ****     return result;
 1043              		.loc 1 201 5 is_stmt 1 view .LVU252
 201:Drivers/lvgl/src/misc/lv_color.c ****     return result;
 1044              		.loc 1 201 25 is_stmt 0 view .LVU253
 1045 00c0 FFF7FEFF 		bl	lv_color_make
 1046              	.LVL67:
 201:Drivers/lvgl/src/misc/lv_color.c ****     return result;
 1047              		.loc 1 201 25 view .LVU254
 1048 00c4 8DF80000 		strb	r0, [sp]
 1049 00c8 C0F30723 		ubfx	r3, r0, #8, #8
 1050 00cc 8DF80130 		strb	r3, [sp, #1]
 1051 00d0 C0F30740 		ubfx	r0, r0, #16, #8
 1052 00d4 8DF80200 		strb	r0, [sp, #2]
 202:Drivers/lvgl/src/misc/lv_color.c **** }
 1053              		.loc 1 202 5 is_stmt 1 view .LVU255
 202:Drivers/lvgl/src/misc/lv_color.c **** }
 1054              		.loc 1 202 12 is_stmt 0 view .LVU256
 1055 00d8 009B     		ldr	r3, [sp]
 1056 00da ADF80430 		strh	r3, [sp, #4]	@ movhi
 1057 00de 1B0C     		lsrs	r3, r3, #16
 1058 00e0 8DF80630 		strb	r3, [sp, #6]
 1059              	.LVL68:
 1060              	.L60:
 203:Drivers/lvgl/src/misc/lv_color.c **** 
 1061              		.loc 1 203 1 view .LVU257
 1062 00e4 0020     		movs	r0, #0
 1063 00e6 9DF80430 		ldrb	r3, [sp, #4]	@ zero_extendqisi2
 1064 00ea 63F30700 		bfi	r0, r3, #0, #8
 1065 00ee 9DF80530 		ldrb	r3, [sp, #5]	@ zero_extendqisi2
 1066 00f2 63F30F20 		bfi	r0, r3, #8, #8
 1067 00f6 9DF80630 		ldrb	r3, [sp, #6]	@ zero_extendqisi2
 1068 00fa 63F31740 		bfi	r0, r3, #16, #8
 1069 00fe 02B0     		add	sp, sp, #8
 1070              	.LCFI27:
 1071              		.cfi_remember_state
 1072              		.cfi_def_cfa_offset 8
ARM GAS  /var/folders/qx/2_175_4n2s19vhvtspjhb3qh0000gn/T//ccAGjwjy.s 			page 26


 1073              		@ sp needed
 1074 0100 10BD     		pop	{r4, pc}
 1075              	.LVL69:
 1076              	.L65:
 1077              	.LCFI28:
 1078              		.cfi_restore_state
 180:Drivers/lvgl/src/misc/lv_color.c ****             g = v;
 1079              		.loc 1 180 13 is_stmt 1 view .LVU258
 181:Drivers/lvgl/src/misc/lv_color.c ****             b = t;
 1080              		.loc 1 181 13 view .LVU259
 182:Drivers/lvgl/src/misc/lv_color.c ****             break;
 1081              		.loc 1 182 13 view .LVU260
 183:Drivers/lvgl/src/misc/lv_color.c ****         case 3:
 1082              		.loc 1 183 13 view .LVU261
 180:Drivers/lvgl/src/misc/lv_color.c ****             g = v;
 1083              		.loc 1 180 15 is_stmt 0 view .LVU262
 1084 0102 1046     		mov	r0, r2
 1085              	.LVL70:
 182:Drivers/lvgl/src/misc/lv_color.c ****             break;
 1086              		.loc 1 182 15 view .LVU263
 1087 0104 1A46     		mov	r2, r3
 1088              	.LVL71:
 183:Drivers/lvgl/src/misc/lv_color.c ****         case 3:
 1089              		.loc 1 183 13 view .LVU264
 1090 0106 DBE7     		b	.L66
 1091              	.LVL72:
 1092              	.L64:
 185:Drivers/lvgl/src/misc/lv_color.c ****             g = q;
 1093              		.loc 1 185 13 is_stmt 1 view .LVU265
 186:Drivers/lvgl/src/misc/lv_color.c ****             b = v;
 1094              		.loc 1 186 13 view .LVU266
 187:Drivers/lvgl/src/misc/lv_color.c ****             break;
 1095              		.loc 1 187 13 view .LVU267
 188:Drivers/lvgl/src/misc/lv_color.c ****         case 4:
 1096              		.loc 1 188 13 view .LVU268
 1097 0108 0346     		mov	r3, r0
 1098              	.LVL73:
 185:Drivers/lvgl/src/misc/lv_color.c ****             g = q;
 1099              		.loc 1 185 15 is_stmt 0 view .LVU269
 1100 010a 1046     		mov	r0, r2
 1101              	.LVL74:
 187:Drivers/lvgl/src/misc/lv_color.c ****             break;
 1102              		.loc 1 187 15 view .LVU270
 1103 010c 0A46     		mov	r2, r1
 1104              	.LVL75:
 186:Drivers/lvgl/src/misc/lv_color.c ****             b = v;
 1105              		.loc 1 186 15 view .LVU271
 1106 010e 1946     		mov	r1, r3
 1107              	.LVL76:
 188:Drivers/lvgl/src/misc/lv_color.c ****         case 4:
 1108              		.loc 1 188 13 view .LVU272
 1109 0110 D6E7     		b	.L66
 1110              	.LVL77:
 1111              	.L62:
 190:Drivers/lvgl/src/misc/lv_color.c ****             g = p;
 1112              		.loc 1 190 13 is_stmt 1 view .LVU273
 191:Drivers/lvgl/src/misc/lv_color.c ****             b = v;
ARM GAS  /var/folders/qx/2_175_4n2s19vhvtspjhb3qh0000gn/T//ccAGjwjy.s 			page 27


 1113              		.loc 1 191 13 view .LVU274
 192:Drivers/lvgl/src/misc/lv_color.c ****             break;
 1114              		.loc 1 192 13 view .LVU275
 193:Drivers/lvgl/src/misc/lv_color.c ****         default:
 1115              		.loc 1 193 13 view .LVU276
 1116 0112 0846     		mov	r0, r1
 1117              	.LVL78:
 191:Drivers/lvgl/src/misc/lv_color.c ****             b = v;
 1118              		.loc 1 191 15 is_stmt 0 view .LVU277
 1119 0114 1146     		mov	r1, r2
 1120              	.LVL79:
 192:Drivers/lvgl/src/misc/lv_color.c ****             break;
 1121              		.loc 1 192 15 view .LVU278
 1122 0116 0246     		mov	r2, r0
 1123              	.LVL80:
 190:Drivers/lvgl/src/misc/lv_color.c ****             g = p;
 1124              		.loc 1 190 15 view .LVU279
 1125 0118 1846     		mov	r0, r3
 1126              	.LVL81:
 193:Drivers/lvgl/src/misc/lv_color.c ****         default:
 1127              		.loc 1 193 13 view .LVU280
 1128 011a D1E7     		b	.L66
 1129              	.LVL82:
 1130              	.L61:
 195:Drivers/lvgl/src/misc/lv_color.c ****             g = p;
 1131              		.loc 1 195 13 is_stmt 1 view .LVU281
 196:Drivers/lvgl/src/misc/lv_color.c ****             b = q;
 1132              		.loc 1 196 13 view .LVU282
 197:Drivers/lvgl/src/misc/lv_color.c ****             break;
 1133              		.loc 1 197 13 view .LVU283
 198:Drivers/lvgl/src/misc/lv_color.c ****     }
 1134              		.loc 1 198 13 view .LVU284
 1135 011c 0346     		mov	r3, r0
 1136              	.LVL83:
 195:Drivers/lvgl/src/misc/lv_color.c ****             g = p;
 1137              		.loc 1 195 15 is_stmt 0 view .LVU285
 1138 011e 0846     		mov	r0, r1
 1139              	.LVL84:
 196:Drivers/lvgl/src/misc/lv_color.c ****             b = q;
 1140              		.loc 1 196 15 view .LVU286
 1141 0120 1146     		mov	r1, r2
 1142              	.LVL85:
 197:Drivers/lvgl/src/misc/lv_color.c ****             break;
 1143              		.loc 1 197 15 view .LVU287
 1144 0122 1A46     		mov	r2, r3
 1145              	.LVL86:
 198:Drivers/lvgl/src/misc/lv_color.c ****     }
 1146              		.loc 1 198 13 view .LVU288
 1147 0124 CCE7     		b	.L66
 1148              	.L72:
 1149 0126 00BF     		.align	2
 1150              	.L71:
 1151 0128 176CC116 		.word	381774871
 1152 012c 1F85EB51 		.word	1374389535
 1153 0130 83BEA02F 		.word	799063683
 1154              		.cfi_endproc
 1155              	.LFE13:
ARM GAS  /var/folders/qx/2_175_4n2s19vhvtspjhb3qh0000gn/T//ccAGjwjy.s 			page 28


 1157              		.section	.text.lv_color32_make,"ax",%progbits
 1158              		.align	1
 1159              		.global	lv_color32_make
 1160              		.syntax unified
 1161              		.thumb
 1162              		.thumb_func
 1164              	lv_color32_make:
 1165              	.LVL87:
 1166              	.LFB22:
 299:Drivers/lvgl/src/misc/lv_color.c **** 
 300:Drivers/lvgl/src/misc/lv_color.c **** lv_color32_t lv_color32_make(uint8_t r, uint8_t g, uint8_t b, uint8_t a)
 301:Drivers/lvgl/src/misc/lv_color.c **** {
 1167              		.loc 1 301 1 is_stmt 1 view -0
 1168              		.cfi_startproc
 1169              		@ args = 0, pretend = 0, frame = 8
 1170              		@ frame_needed = 0, uses_anonymous_args = 0
 1171              		@ link register save eliminated.
 1172              		.loc 1 301 1 is_stmt 0 view .LVU290
 1173 0000 82B0     		sub	sp, sp, #8
 1174              	.LCFI29:
 1175              		.cfi_def_cfa_offset 8
 302:Drivers/lvgl/src/misc/lv_color.c ****     lv_color32_t ret;
 1176              		.loc 1 302 5 is_stmt 1 view .LVU291
 303:Drivers/lvgl/src/misc/lv_color.c ****     ret.red = r;
 1177              		.loc 1 303 5 view .LVU292
 1178              		.loc 1 303 13 is_stmt 0 view .LVU293
 1179 0002 8DF80200 		strb	r0, [sp, #2]
 304:Drivers/lvgl/src/misc/lv_color.c ****     ret.green = g;
 1180              		.loc 1 304 5 is_stmt 1 view .LVU294
 1181              		.loc 1 304 15 is_stmt 0 view .LVU295
 1182 0006 8DF80110 		strb	r1, [sp, #1]
 305:Drivers/lvgl/src/misc/lv_color.c ****     ret.blue = b;
 1183              		.loc 1 305 5 is_stmt 1 view .LVU296
 1184              		.loc 1 305 14 is_stmt 0 view .LVU297
 1185 000a 8DF80020 		strb	r2, [sp]
 306:Drivers/lvgl/src/misc/lv_color.c ****     ret.alpha = a;
 1186              		.loc 1 306 5 is_stmt 1 view .LVU298
 1187              		.loc 1 306 15 is_stmt 0 view .LVU299
 1188 000e 8DF80330 		strb	r3, [sp, #3]
 307:Drivers/lvgl/src/misc/lv_color.c ****     return ret;
 1189              		.loc 1 307 5 is_stmt 1 view .LVU300
 1190              		.loc 1 307 12 is_stmt 0 view .LVU301
 1191 0012 009B     		ldr	r3, [sp]
 1192              	.LVL88:
 1193              		.loc 1 307 12 view .LVU302
 1194 0014 0193     		str	r3, [sp, #4]
 1195 0016 0020     		movs	r0, #0
 1196              	.LVL89:
 1197              		.loc 1 307 12 view .LVU303
 1198 0018 9DF80430 		ldrb	r3, [sp, #4]	@ zero_extendqisi2
 1199 001c 63F30700 		bfi	r0, r3, #0, #8
 1200 0020 9DF80530 		ldrb	r3, [sp, #5]	@ zero_extendqisi2
 1201 0024 63F30F20 		bfi	r0, r3, #8, #8
 1202 0028 9DF80630 		ldrb	r3, [sp, #6]	@ zero_extendqisi2
 1203 002c 63F31740 		bfi	r0, r3, #16, #8
 1204 0030 9DF80730 		ldrb	r3, [sp, #7]	@ zero_extendqisi2
 1205 0034 63F31F60 		bfi	r0, r3, #24, #8
ARM GAS  /var/folders/qx/2_175_4n2s19vhvtspjhb3qh0000gn/T//ccAGjwjy.s 			page 29


 308:Drivers/lvgl/src/misc/lv_color.c **** }
 1206              		.loc 1 308 1 view .LVU304
 1207 0038 02B0     		add	sp, sp, #8
 1208              	.LCFI30:
 1209              		.cfi_def_cfa_offset 0
 1210              	.LVL90:
 1211              		.loc 1 308 1 view .LVU305
 1212              		@ sp needed
 1213 003a 7047     		bx	lr
 1214              		.cfi_endproc
 1215              	.LFE22:
 1217              		.section	.text.lv_color_hex3,"ax",%progbits
 1218              		.align	1
 1219              		.global	lv_color_hex3
 1220              		.syntax unified
 1221              		.thumb
 1222              		.thumb_func
 1224              	lv_color_hex3:
 1225              	.LVL91:
 1226              	.LFB23:
 309:Drivers/lvgl/src/misc/lv_color.c **** 
 310:Drivers/lvgl/src/misc/lv_color.c **** lv_color_t lv_color_hex3(uint32_t c)
 311:Drivers/lvgl/src/misc/lv_color.c **** {
 1227              		.loc 1 311 1 is_stmt 1 view -0
 1228              		.cfi_startproc
 1229              		@ args = 0, pretend = 0, frame = 8
 1230              		@ frame_needed = 0, uses_anonymous_args = 0
 1231              		.loc 1 311 1 is_stmt 0 view .LVU307
 1232 0000 10B5     		push	{r4, lr}
 1233              	.LCFI31:
 1234              		.cfi_def_cfa_offset 8
 1235              		.cfi_offset 4, -8
 1236              		.cfi_offset 14, -4
 1237 0002 82B0     		sub	sp, sp, #8
 1238              	.LCFI32:
 1239              		.cfi_def_cfa_offset 16
 312:Drivers/lvgl/src/misc/lv_color.c ****     return lv_color_make((uint8_t)(((c >> 4) & 0xF0) | ((c >> 8) & 0xF)), (uint8_t)((c & 0xF0) | ((
 1240              		.loc 1 312 5 is_stmt 1 view .LVU308
 1241              		.loc 1 312 46 is_stmt 0 view .LVU309
 1242 0004 C0F3071C 		ubfx	ip, r0, #4, #8
 1243 0008 0CF0F004 		and	r4, ip, #240
 1244              		.loc 1 312 66 view .LVU310
 1245 000c C0F3032E 		ubfx	lr, r0, #8, #4
 1246              		.loc 1 312 88 view .LVU311
 1247 0010 C2B2     		uxtb	r2, r0
 1248 0012 00F0F001 		and	r1, r0, #240
 313:Drivers/lvgl/src/misc/lv_color.c ****                          (uint8_t)((c & 0xF) | ((c & 0xF) << 4)));
 1249              		.loc 1 313 39 view .LVU312
 1250 0016 00F00F00 		and	r0, r0, #15
 1251              	.LVL92:
 1252              		.loc 1 313 59 view .LVU313
 1253 001a 1201     		lsls	r2, r2, #4
 1254 001c D2B2     		uxtb	r2, r2
 312:Drivers/lvgl/src/misc/lv_color.c ****     return lv_color_make((uint8_t)(((c >> 4) & 0xF0) | ((c >> 8) & 0xF)), (uint8_t)((c & 0xF0) | ((
 1255              		.loc 1 312 12 view .LVU314
 1256 001e 0CF00F0C 		and	ip, ip, #15
 1257 0022 0243     		orrs	r2, r2, r0
ARM GAS  /var/folders/qx/2_175_4n2s19vhvtspjhb3qh0000gn/T//ccAGjwjy.s 			page 30


 1258 0024 41EA0C01 		orr	r1, r1, ip
 1259 0028 44EA0E00 		orr	r0, r4, lr
 1260 002c FFF7FEFF 		bl	lv_color_make
 1261              	.LVL93:
 1262 0030 8DF80400 		strb	r0, [sp, #4]
 1263 0034 C0F30723 		ubfx	r3, r0, #8, #8
 1264 0038 8DF80530 		strb	r3, [sp, #5]
 1265 003c C0F30740 		ubfx	r0, r0, #16, #8
 1266 0040 8DF80600 		strb	r0, [sp, #6]
 312:Drivers/lvgl/src/misc/lv_color.c ****     return lv_color_make((uint8_t)(((c >> 4) & 0xF0) | ((c >> 8) & 0xF)), (uint8_t)((c & 0xF0) | ((
 1267              		.loc 1 312 12 discriminator 1 view .LVU315
 1268 0044 0020     		movs	r0, #0
 1269 0046 9DF80430 		ldrb	r3, [sp, #4]	@ zero_extendqisi2
 1270 004a 63F30700 		bfi	r0, r3, #0, #8
 1271 004e 9DF80530 		ldrb	r3, [sp, #5]	@ zero_extendqisi2
 1272 0052 63F30F20 		bfi	r0, r3, #8, #8
 1273 0056 9DF80630 		ldrb	r3, [sp, #6]	@ zero_extendqisi2
 1274 005a 63F31740 		bfi	r0, r3, #16, #8
 314:Drivers/lvgl/src/misc/lv_color.c **** }
 1275              		.loc 1 314 1 view .LVU316
 1276 005e 02B0     		add	sp, sp, #8
 1277              	.LCFI33:
 1278              		.cfi_def_cfa_offset 8
 1279              		@ sp needed
 1280 0060 10BD     		pop	{r4, pc}
 1281              		.cfi_endproc
 1282              	.LFE23:
 1284              		.section	.text.lv_color_16_16_mix,"ax",%progbits
 1285              		.align	1
 1286              		.global	lv_color_16_16_mix
 1287              		.syntax unified
 1288              		.thumb
 1289              		.thumb_func
 1291              	lv_color_16_16_mix:
 1292              	.LVL94:
 1293              	.LFB24:
 315:Drivers/lvgl/src/misc/lv_color.c **** 
 316:Drivers/lvgl/src/misc/lv_color.c **** uint16_t LV_ATTRIBUTE_FAST_MEM lv_color_16_16_mix(uint16_t c1, uint16_t c2, uint8_t mix)
 317:Drivers/lvgl/src/misc/lv_color.c **** {
 1294              		.loc 1 317 1 is_stmt 1 view -0
 1295              		.cfi_startproc
 1296              		@ args = 0, pretend = 0, frame = 0
 1297              		@ frame_needed = 0, uses_anonymous_args = 0
 1298              		@ link register save eliminated.
 318:Drivers/lvgl/src/misc/lv_color.c ****     if(mix == 255) return c1;
 1299              		.loc 1 318 5 view .LVU318
 1300              		.loc 1 318 7 is_stmt 0 view .LVU319
 1301 0000 FF2A     		cmp	r2, #255
 1302 0002 16D0     		beq	.L78
 319:Drivers/lvgl/src/misc/lv_color.c ****     if(mix == 0) return c2;
 1303              		.loc 1 319 5 is_stmt 1 view .LVU320
 1304              		.loc 1 319 7 is_stmt 0 view .LVU321
 1305 0004 A2B1     		cbz	r2, .L80
 320:Drivers/lvgl/src/misc/lv_color.c ****     if(c1 == c2) return c1;
 1306              		.loc 1 320 5 is_stmt 1 view .LVU322
 1307              		.loc 1 320 7 is_stmt 0 view .LVU323
 1308 0006 8842     		cmp	r0, r1
ARM GAS  /var/folders/qx/2_175_4n2s19vhvtspjhb3qh0000gn/T//ccAGjwjy.s 			page 31


 1309 0008 13D0     		beq	.L78
 321:Drivers/lvgl/src/misc/lv_color.c **** 
 322:Drivers/lvgl/src/misc/lv_color.c ****     uint16_t ret;
 1310              		.loc 1 322 5 is_stmt 1 view .LVU324
 323:Drivers/lvgl/src/misc/lv_color.c **** 
 324:Drivers/lvgl/src/misc/lv_color.c ****     /* Source: https://stackoverflow.com/a/50012418/1999969*/
 325:Drivers/lvgl/src/misc/lv_color.c ****     mix = (uint32_t)((uint32_t)mix + 4) >> 3;
 1311              		.loc 1 325 5 view .LVU325
 1312              		.loc 1 325 11 is_stmt 0 view .LVU326
 1313 000a 0432     		adds	r2, r2, #4
 1314              	.LVL95:
 326:Drivers/lvgl/src/misc/lv_color.c **** 
 327:Drivers/lvgl/src/misc/lv_color.c ****     /*0x7E0F81F = 0b00000111111000001111100000011111*/
 328:Drivers/lvgl/src/misc/lv_color.c ****     uint32_t bg = (uint32_t)(c2 | ((uint32_t)c2 << 16)) & 0x7E0F81F;
 1315              		.loc 1 328 5 is_stmt 1 view .LVU327
 1316              		.loc 1 328 19 is_stmt 0 view .LVU328
 1317 000c 01EB0141 		add	r1, r1, r1, lsl #16
 1318              	.LVL96:
 1319              		.loc 1 328 14 view .LVU329
 1320 0010 084B     		ldr	r3, .L82
 1321 0012 1940     		ands	r1, r1, r3
 1322              	.LVL97:
 329:Drivers/lvgl/src/misc/lv_color.c ****     uint32_t fg = (uint32_t)(c1 | ((uint32_t)c1 << 16)) & 0x7E0F81F;
 1323              		.loc 1 329 5 is_stmt 1 view .LVU330
 1324              		.loc 1 329 19 is_stmt 0 view .LVU331
 1325 0014 00EB0040 		add	r0, r0, r0, lsl #16
 1326              	.LVL98:
 1327              		.loc 1 329 14 view .LVU332
 1328 0018 1840     		ands	r0, r0, r3
 1329              	.LVL99:
 330:Drivers/lvgl/src/misc/lv_color.c ****     uint32_t result = ((((fg - bg) * mix) >> 5) + bg) & 0x7E0F81F;
 1330              		.loc 1 330 5 is_stmt 1 view .LVU333
 1331              		.loc 1 330 30 is_stmt 0 view .LVU334
 1332 001a 401A     		subs	r0, r0, r1
 1333              	.LVL100:
 1334              		.loc 1 330 36 view .LVU335
 1335 001c D208     		lsrs	r2, r2, #3
 1336              	.LVL101:
 1337              		.loc 1 330 36 view .LVU336
 1338 001e 00FB02F2 		mul	r2, r0, r2
 1339              		.loc 1 330 49 view .LVU337
 1340 0022 01EB5211 		add	r1, r1, r2, lsr #5
 1341              	.LVL102:
 1342              		.loc 1 330 14 view .LVU338
 1343 0026 1940     		ands	r1, r1, r3
 1344              	.LVL103:
 331:Drivers/lvgl/src/misc/lv_color.c ****     ret = (uint16_t)(result >> 16) | result;
 1345              		.loc 1 331 5 is_stmt 1 view .LVU339
 1346              		.loc 1 331 36 is_stmt 0 view .LVU340
 1347 0028 8BB2     		uxth	r3, r1
 1348              	.LVL104:
 1349              		.loc 1 331 9 view .LVU341
 1350 002a 43EA1140 		orr	r0, r3, r1, lsr #16
 1351              	.LVL105:
 332:Drivers/lvgl/src/misc/lv_color.c **** 
 333:Drivers/lvgl/src/misc/lv_color.c ****     return ret;
 1352              		.loc 1 333 5 is_stmt 1 view .LVU342
ARM GAS  /var/folders/qx/2_175_4n2s19vhvtspjhb3qh0000gn/T//ccAGjwjy.s 			page 32


 1353              		.loc 1 333 12 is_stmt 0 view .LVU343
 1354 002e 7047     		bx	lr
 1355              	.LVL106:
 1356              	.L80:
 319:Drivers/lvgl/src/misc/lv_color.c ****     if(c1 == c2) return c1;
 1357              		.loc 1 319 25 discriminator 1 view .LVU344
 1358 0030 0846     		mov	r0, r1
 1359              	.LVL107:
 1360              	.L78:
 334:Drivers/lvgl/src/misc/lv_color.c **** }
 1361              		.loc 1 334 1 view .LVU345
 1362 0032 7047     		bx	lr
 1363              	.L83:
 1364              		.align	2
 1365              	.L82:
 1366 0034 1FF8E007 		.word	132184095
 1367              		.cfi_endproc
 1368              	.LFE24:
 1370              		.section	.text.lv_color_white,"ax",%progbits
 1371              		.align	1
 1372              		.global	lv_color_white
 1373              		.syntax unified
 1374              		.thumb
 1375              		.thumb_func
 1377              	lv_color_white:
 1378              	.LFB25:
 335:Drivers/lvgl/src/misc/lv_color.c **** 
 336:Drivers/lvgl/src/misc/lv_color.c **** lv_color_t lv_color_white(void)
 337:Drivers/lvgl/src/misc/lv_color.c **** {
 1379              		.loc 1 337 1 is_stmt 1 view -0
 1380              		.cfi_startproc
 1381              		@ args = 0, pretend = 0, frame = 8
 1382              		@ frame_needed = 0, uses_anonymous_args = 0
 1383 0000 00B5     		push	{lr}
 1384              	.LCFI34:
 1385              		.cfi_def_cfa_offset 4
 1386              		.cfi_offset 14, -4
 1387 0002 83B0     		sub	sp, sp, #12
 1388              	.LCFI35:
 1389              		.cfi_def_cfa_offset 16
 338:Drivers/lvgl/src/misc/lv_color.c ****     return lv_color_make(0xff, 0xff, 0xff);
 1390              		.loc 1 338 5 view .LVU347
 1391              		.loc 1 338 12 is_stmt 0 view .LVU348
 1392 0004 FF22     		movs	r2, #255
 1393 0006 1146     		mov	r1, r2
 1394 0008 1046     		mov	r0, r2
 1395 000a FFF7FEFF 		bl	lv_color_make
 1396              	.LVL108:
 1397 000e 8DF80400 		strb	r0, [sp, #4]
 1398 0012 C0F30723 		ubfx	r3, r0, #8, #8
 1399 0016 8DF80530 		strb	r3, [sp, #5]
 1400 001a C0F30740 		ubfx	r0, r0, #16, #8
 1401 001e 8DF80600 		strb	r0, [sp, #6]
 1402              		.loc 1 338 12 discriminator 1 view .LVU349
 1403 0022 0020     		movs	r0, #0
 1404 0024 9DF80430 		ldrb	r3, [sp, #4]	@ zero_extendqisi2
 1405 0028 63F30700 		bfi	r0, r3, #0, #8
ARM GAS  /var/folders/qx/2_175_4n2s19vhvtspjhb3qh0000gn/T//ccAGjwjy.s 			page 33


 1406 002c 9DF80530 		ldrb	r3, [sp, #5]	@ zero_extendqisi2
 1407 0030 63F30F20 		bfi	r0, r3, #8, #8
 1408 0034 9DF80630 		ldrb	r3, [sp, #6]	@ zero_extendqisi2
 1409 0038 63F31740 		bfi	r0, r3, #16, #8
 339:Drivers/lvgl/src/misc/lv_color.c **** }
 1410              		.loc 1 339 1 view .LVU350
 1411 003c 03B0     		add	sp, sp, #12
 1412              	.LCFI36:
 1413              		.cfi_def_cfa_offset 4
 1414              		@ sp needed
 1415 003e 5DF804FB 		ldr	pc, [sp], #4
 1416              		.cfi_endproc
 1417              	.LFE25:
 1419              		.section	.text.lv_color_lighten,"ax",%progbits
 1420              		.align	1
 1421              		.global	lv_color_lighten
 1422              		.syntax unified
 1423              		.thumb
 1424              		.thumb_func
 1426              	lv_color_lighten:
 1427              	.LVL109:
 1428              	.LFB11:
 137:Drivers/lvgl/src/misc/lv_color.c **** 
 1429              		.loc 1 137 1 is_stmt 1 view -0
 1430              		.cfi_startproc
 1431              		@ args = 0, pretend = 0, frame = 16
 1432              		@ frame_needed = 0, uses_anonymous_args = 0
 137:Drivers/lvgl/src/misc/lv_color.c **** 
 1433              		.loc 1 137 1 is_stmt 0 view .LVU352
 1434 0000 10B5     		push	{r4, lr}
 1435              	.LCFI37:
 1436              		.cfi_def_cfa_offset 8
 1437              		.cfi_offset 4, -8
 1438              		.cfi_offset 14, -4
 1439 0002 84B0     		sub	sp, sp, #16
 1440              	.LCFI38:
 1441              		.cfi_def_cfa_offset 24
 1442 0004 0190     		str	r0, [sp, #4]
 1443 0006 0C46     		mov	r4, r1
 139:Drivers/lvgl/src/misc/lv_color.c **** }
 1444              		.loc 1 139 5 is_stmt 1 view .LVU353
 139:Drivers/lvgl/src/misc/lv_color.c **** }
 1445              		.loc 1 139 12 is_stmt 0 view .LVU354
 1446 0008 FFF7FEFF 		bl	lv_color_white
 1447              	.LVL110:
 139:Drivers/lvgl/src/misc/lv_color.c **** }
 1448              		.loc 1 139 12 view .LVU355
 1449 000c 8DF80C00 		strb	r0, [sp, #12]
 1450 0010 C0F30723 		ubfx	r3, r0, #8, #8
 1451 0014 8DF80D30 		strb	r3, [sp, #13]
 1452 0018 C0F30740 		ubfx	r0, r0, #16, #8
 1453 001c 8DF80E00 		strb	r0, [sp, #14]
 139:Drivers/lvgl/src/misc/lv_color.c **** }
 1454              		.loc 1 139 12 discriminator 1 view .LVU356
 1455 0020 2246     		mov	r2, r4
 1456 0022 0199     		ldr	r1, [sp, #4]
 1457 0024 0398     		ldr	r0, [sp, #12]
ARM GAS  /var/folders/qx/2_175_4n2s19vhvtspjhb3qh0000gn/T//ccAGjwjy.s 			page 34


 1458 0026 FFF7FEFF 		bl	lv_color_mix
 1459              	.LVL111:
 1460 002a 8DF80800 		strb	r0, [sp, #8]
 1461 002e C0F30723 		ubfx	r3, r0, #8, #8
 1462 0032 8DF80930 		strb	r3, [sp, #9]
 1463 0036 C0F30740 		ubfx	r0, r0, #16, #8
 1464 003a 8DF80A00 		strb	r0, [sp, #10]
 1465 003e 0020     		movs	r0, #0
 1466 0040 9DF80830 		ldrb	r3, [sp, #8]	@ zero_extendqisi2
 1467 0044 63F30700 		bfi	r0, r3, #0, #8
 1468 0048 9DF80930 		ldrb	r3, [sp, #9]	@ zero_extendqisi2
 1469 004c 63F30F20 		bfi	r0, r3, #8, #8
 1470 0050 9DF80A30 		ldrb	r3, [sp, #10]	@ zero_extendqisi2
 1471 0054 63F31740 		bfi	r0, r3, #16, #8
 140:Drivers/lvgl/src/misc/lv_color.c **** 
 1472              		.loc 1 140 1 view .LVU357
 1473 0058 04B0     		add	sp, sp, #16
 1474              	.LCFI39:
 1475              		.cfi_def_cfa_offset 8
 1476              		@ sp needed
 1477 005a 10BD     		pop	{r4, pc}
 140:Drivers/lvgl/src/misc/lv_color.c **** 
 1478              		.loc 1 140 1 view .LVU358
 1479              		.cfi_endproc
 1480              	.LFE11:
 1482              		.section	.text.lv_color_black,"ax",%progbits
 1483              		.align	1
 1484              		.global	lv_color_black
 1485              		.syntax unified
 1486              		.thumb
 1487              		.thumb_func
 1489              	lv_color_black:
 1490              	.LFB26:
 340:Drivers/lvgl/src/misc/lv_color.c **** 
 341:Drivers/lvgl/src/misc/lv_color.c **** lv_color_t lv_color_black(void)
 342:Drivers/lvgl/src/misc/lv_color.c **** {
 1491              		.loc 1 342 1 is_stmt 1 view -0
 1492              		.cfi_startproc
 1493              		@ args = 0, pretend = 0, frame = 8
 1494              		@ frame_needed = 0, uses_anonymous_args = 0
 1495 0000 00B5     		push	{lr}
 1496              	.LCFI40:
 1497              		.cfi_def_cfa_offset 4
 1498              		.cfi_offset 14, -4
 1499 0002 83B0     		sub	sp, sp, #12
 1500              	.LCFI41:
 1501              		.cfi_def_cfa_offset 16
 343:Drivers/lvgl/src/misc/lv_color.c ****     return lv_color_make(0x00, 0x00, 0x00);
 1502              		.loc 1 343 5 view .LVU360
 1503              		.loc 1 343 12 is_stmt 0 view .LVU361
 1504 0004 0022     		movs	r2, #0
 1505 0006 1146     		mov	r1, r2
 1506 0008 1046     		mov	r0, r2
 1507 000a FFF7FEFF 		bl	lv_color_make
 1508              	.LVL112:
 1509 000e 8DF80400 		strb	r0, [sp, #4]
 1510 0012 C0F30723 		ubfx	r3, r0, #8, #8
ARM GAS  /var/folders/qx/2_175_4n2s19vhvtspjhb3qh0000gn/T//ccAGjwjy.s 			page 35


 1511 0016 8DF80530 		strb	r3, [sp, #5]
 1512 001a C0F30740 		ubfx	r0, r0, #16, #8
 1513 001e 8DF80600 		strb	r0, [sp, #6]
 1514              		.loc 1 343 12 discriminator 1 view .LVU362
 1515 0022 0020     		movs	r0, #0
 1516 0024 9DF80430 		ldrb	r3, [sp, #4]	@ zero_extendqisi2
 1517 0028 63F30700 		bfi	r0, r3, #0, #8
 1518 002c 9DF80530 		ldrb	r3, [sp, #5]	@ zero_extendqisi2
 1519 0030 63F30F20 		bfi	r0, r3, #8, #8
 1520 0034 9DF80630 		ldrb	r3, [sp, #6]	@ zero_extendqisi2
 1521 0038 63F31740 		bfi	r0, r3, #16, #8
 344:Drivers/lvgl/src/misc/lv_color.c **** }
 1522              		.loc 1 344 1 view .LVU363
 1523 003c 03B0     		add	sp, sp, #12
 1524              	.LCFI42:
 1525              		.cfi_def_cfa_offset 4
 1526              		@ sp needed
 1527 003e 5DF804FB 		ldr	pc, [sp], #4
 1528              		.cfi_endproc
 1529              	.LFE26:
 1531              		.section	.text.lv_color_darken,"ax",%progbits
 1532              		.align	1
 1533              		.global	lv_color_darken
 1534              		.syntax unified
 1535              		.thumb
 1536              		.thumb_func
 1538              	lv_color_darken:
 1539              	.LVL113:
 1540              	.LFB12:
 143:Drivers/lvgl/src/misc/lv_color.c ****     return lv_color_mix(lv_color_black(), c, lvl);
 1541              		.loc 1 143 1 is_stmt 1 view -0
 1542              		.cfi_startproc
 1543              		@ args = 0, pretend = 0, frame = 16
 1544              		@ frame_needed = 0, uses_anonymous_args = 0
 143:Drivers/lvgl/src/misc/lv_color.c ****     return lv_color_mix(lv_color_black(), c, lvl);
 1545              		.loc 1 143 1 is_stmt 0 view .LVU365
 1546 0000 10B5     		push	{r4, lr}
 1547              	.LCFI43:
 1548              		.cfi_def_cfa_offset 8
 1549              		.cfi_offset 4, -8
 1550              		.cfi_offset 14, -4
 1551 0002 84B0     		sub	sp, sp, #16
 1552              	.LCFI44:
 1553              		.cfi_def_cfa_offset 24
 1554 0004 0190     		str	r0, [sp, #4]
 1555 0006 0C46     		mov	r4, r1
 144:Drivers/lvgl/src/misc/lv_color.c **** }
 1556              		.loc 1 144 5 is_stmt 1 view .LVU366
 144:Drivers/lvgl/src/misc/lv_color.c **** }
 1557              		.loc 1 144 12 is_stmt 0 view .LVU367
 1558 0008 FFF7FEFF 		bl	lv_color_black
 1559              	.LVL114:
 144:Drivers/lvgl/src/misc/lv_color.c **** }
 1560              		.loc 1 144 12 view .LVU368
 1561 000c 8DF80C00 		strb	r0, [sp, #12]
 1562 0010 C0F30723 		ubfx	r3, r0, #8, #8
 1563 0014 8DF80D30 		strb	r3, [sp, #13]
ARM GAS  /var/folders/qx/2_175_4n2s19vhvtspjhb3qh0000gn/T//ccAGjwjy.s 			page 36


 1564 0018 C0F30740 		ubfx	r0, r0, #16, #8
 1565 001c 8DF80E00 		strb	r0, [sp, #14]
 144:Drivers/lvgl/src/misc/lv_color.c **** }
 1566              		.loc 1 144 12 discriminator 1 view .LVU369
 1567 0020 2246     		mov	r2, r4
 1568 0022 0199     		ldr	r1, [sp, #4]
 1569 0024 0398     		ldr	r0, [sp, #12]
 1570 0026 FFF7FEFF 		bl	lv_color_mix
 1571              	.LVL115:
 1572 002a 8DF80800 		strb	r0, [sp, #8]
 1573 002e C0F30723 		ubfx	r3, r0, #8, #8
 1574 0032 8DF80930 		strb	r3, [sp, #9]
 1575 0036 C0F30740 		ubfx	r0, r0, #16, #8
 1576 003a 8DF80A00 		strb	r0, [sp, #10]
 1577 003e 0020     		movs	r0, #0
 1578 0040 9DF80830 		ldrb	r3, [sp, #8]	@ zero_extendqisi2
 1579 0044 63F30700 		bfi	r0, r3, #0, #8
 1580 0048 9DF80930 		ldrb	r3, [sp, #9]	@ zero_extendqisi2
 1581 004c 63F30F20 		bfi	r0, r3, #8, #8
 1582 0050 9DF80A30 		ldrb	r3, [sp, #10]	@ zero_extendqisi2
 1583 0054 63F31740 		bfi	r0, r3, #16, #8
 145:Drivers/lvgl/src/misc/lv_color.c **** 
 1584              		.loc 1 145 1 view .LVU370
 1585 0058 04B0     		add	sp, sp, #16
 1586              	.LCFI45:
 1587              		.cfi_def_cfa_offset 8
 1588              		@ sp needed
 1589 005a 10BD     		pop	{r4, pc}
 145:Drivers/lvgl/src/misc/lv_color.c **** 
 1590              		.loc 1 145 1 view .LVU371
 1591              		.cfi_endproc
 1592              	.LFE12:
 1594              		.section	.text.lv_color_filter_shade_cb,"ax",%progbits
 1595              		.align	1
 1596              		.syntax unified
 1597              		.thumb
 1598              		.thumb_func
 1600              	lv_color_filter_shade_cb:
 1601              	.LVL116:
 1602              	.LFB33:
 345:Drivers/lvgl/src/misc/lv_color.c **** 
 346:Drivers/lvgl/src/misc/lv_color.c **** void lv_color_premultiply(lv_color32_t * c)
 347:Drivers/lvgl/src/misc/lv_color.c **** {
 348:Drivers/lvgl/src/misc/lv_color.c ****     if(c->alpha == LV_OPA_COVER) {
 349:Drivers/lvgl/src/misc/lv_color.c ****         return;
 350:Drivers/lvgl/src/misc/lv_color.c ****     }
 351:Drivers/lvgl/src/misc/lv_color.c **** 
 352:Drivers/lvgl/src/misc/lv_color.c ****     if(c->alpha == LV_OPA_TRANSP) {
 353:Drivers/lvgl/src/misc/lv_color.c ****         lv_memzero(c, sizeof(lv_color32_t));
 354:Drivers/lvgl/src/misc/lv_color.c ****         return;
 355:Drivers/lvgl/src/misc/lv_color.c ****     }
 356:Drivers/lvgl/src/misc/lv_color.c **** 
 357:Drivers/lvgl/src/misc/lv_color.c ****     c->red = LV_OPA_MIX2(c->red, c->alpha);
 358:Drivers/lvgl/src/misc/lv_color.c ****     c->green = LV_OPA_MIX2(c->green, c->alpha);
 359:Drivers/lvgl/src/misc/lv_color.c ****     c->blue = LV_OPA_MIX2(c->blue, c->alpha);
 360:Drivers/lvgl/src/misc/lv_color.c **** }
 361:Drivers/lvgl/src/misc/lv_color.c **** 
ARM GAS  /var/folders/qx/2_175_4n2s19vhvtspjhb3qh0000gn/T//ccAGjwjy.s 			page 37


 362:Drivers/lvgl/src/misc/lv_color.c **** void lv_color16_premultiply(lv_color16_t * c, lv_opa_t a)
 363:Drivers/lvgl/src/misc/lv_color.c **** {
 364:Drivers/lvgl/src/misc/lv_color.c ****     if(a == LV_OPA_COVER) {
 365:Drivers/lvgl/src/misc/lv_color.c ****         return;
 366:Drivers/lvgl/src/misc/lv_color.c ****     }
 367:Drivers/lvgl/src/misc/lv_color.c **** 
 368:Drivers/lvgl/src/misc/lv_color.c ****     if(a == LV_OPA_TRANSP) {
 369:Drivers/lvgl/src/misc/lv_color.c ****         lv_memzero(c, sizeof(lv_color16_t));
 370:Drivers/lvgl/src/misc/lv_color.c ****         return;
 371:Drivers/lvgl/src/misc/lv_color.c ****     }
 372:Drivers/lvgl/src/misc/lv_color.c **** 
 373:Drivers/lvgl/src/misc/lv_color.c ****     c->red = LV_OPA_MIX2(c->red, a);
 374:Drivers/lvgl/src/misc/lv_color.c ****     c->green = LV_OPA_MIX2(c->green, a);
 375:Drivers/lvgl/src/misc/lv_color.c ****     c->blue = LV_OPA_MIX2(c->blue, a);
 376:Drivers/lvgl/src/misc/lv_color.c **** }
 377:Drivers/lvgl/src/misc/lv_color.c **** 
 378:Drivers/lvgl/src/misc/lv_color.c **** uint8_t lv_color_luminance(lv_color_t c)
 379:Drivers/lvgl/src/misc/lv_color.c **** {
 380:Drivers/lvgl/src/misc/lv_color.c ****     return (uint8_t)((uint16_t)(77u * c.red + 151u * c.green + 28u * c.blue) >> 8);
 381:Drivers/lvgl/src/misc/lv_color.c **** }
 382:Drivers/lvgl/src/misc/lv_color.c **** 
 383:Drivers/lvgl/src/misc/lv_color.c **** uint8_t lv_color16_luminance(const lv_color16_t c)
 384:Drivers/lvgl/src/misc/lv_color.c **** {
 385:Drivers/lvgl/src/misc/lv_color.c ****     return (uint8_t)((uint16_t)(635u * c.red + 613u * c.green + 231u * c.blue) >> 8);
 386:Drivers/lvgl/src/misc/lv_color.c **** }
 387:Drivers/lvgl/src/misc/lv_color.c **** 
 388:Drivers/lvgl/src/misc/lv_color.c **** uint8_t lv_color24_luminance(const uint8_t * c)
 389:Drivers/lvgl/src/misc/lv_color.c **** {
 390:Drivers/lvgl/src/misc/lv_color.c ****     return (uint8_t)((uint16_t)(77u * c[2] + 151u * c[1] + 28u * c[0]) >> 8);
 391:Drivers/lvgl/src/misc/lv_color.c **** }
 392:Drivers/lvgl/src/misc/lv_color.c **** 
 393:Drivers/lvgl/src/misc/lv_color.c **** uint8_t lv_color32_luminance(lv_color32_t c)
 394:Drivers/lvgl/src/misc/lv_color.c **** {
 395:Drivers/lvgl/src/misc/lv_color.c ****     return (uint8_t)((uint16_t)(77u * c.red + 151u * c.green + 28u * c.blue) >> 8);
 396:Drivers/lvgl/src/misc/lv_color.c **** }
 397:Drivers/lvgl/src/misc/lv_color.c **** 
 398:Drivers/lvgl/src/misc/lv_color.c **** 
 399:Drivers/lvgl/src/misc/lv_color.c **** /**********************
 400:Drivers/lvgl/src/misc/lv_color.c ****  *   STATIC FUNCTIONS
 401:Drivers/lvgl/src/misc/lv_color.c ****  **********************/
 402:Drivers/lvgl/src/misc/lv_color.c **** 
 403:Drivers/lvgl/src/misc/lv_color.c **** /**
 404:Drivers/lvgl/src/misc/lv_color.c ****  * Helper function to easily create color filters
 405:Drivers/lvgl/src/misc/lv_color.c ****  * @param dsc       pointer to a color filter descriptor
 406:Drivers/lvgl/src/misc/lv_color.c ****  * @param c         the color to modify
 407:Drivers/lvgl/src/misc/lv_color.c ****  * @param opa       the intensity of the modification
 408:Drivers/lvgl/src/misc/lv_color.c ****  *                      - LV_OPA_50:    do nothing
 409:Drivers/lvgl/src/misc/lv_color.c ****  *                      - < LV_OPA_50:  darken
 410:Drivers/lvgl/src/misc/lv_color.c ****  *                      - LV_OPA_0:     fully black
 411:Drivers/lvgl/src/misc/lv_color.c ****  *                      - > LV_OPA_50:  lighten
 412:Drivers/lvgl/src/misc/lv_color.c ****  *                      - LV_OPA_100:   fully white
 413:Drivers/lvgl/src/misc/lv_color.c ****  * @return          the modified color
 414:Drivers/lvgl/src/misc/lv_color.c ****  */
 415:Drivers/lvgl/src/misc/lv_color.c **** static lv_color_t lv_color_filter_shade_cb(const lv_color_filter_dsc_t * dsc, lv_color_t c, lv_opa_
 416:Drivers/lvgl/src/misc/lv_color.c **** {
 1603              		.loc 1 416 1 is_stmt 1 view -0
 1604              		.cfi_startproc
ARM GAS  /var/folders/qx/2_175_4n2s19vhvtspjhb3qh0000gn/T//ccAGjwjy.s 			page 38


 1605              		@ args = 0, pretend = 0, frame = 16
 1606              		@ frame_needed = 0, uses_anonymous_args = 0
 1607              		.loc 1 416 1 is_stmt 0 view .LVU373
 1608 0000 00B5     		push	{lr}
 1609              	.LCFI46:
 1610              		.cfi_def_cfa_offset 4
 1611              		.cfi_offset 14, -4
 1612 0002 85B0     		sub	sp, sp, #20
 1613              	.LCFI47:
 1614              		.cfi_def_cfa_offset 24
 1615 0004 0191     		str	r1, [sp, #4]
 417:Drivers/lvgl/src/misc/lv_color.c ****     LV_UNUSED(dsc);
 1616              		.loc 1 417 5 is_stmt 1 view .LVU374
 418:Drivers/lvgl/src/misc/lv_color.c ****     if(opa == LV_OPA_50) return c;
 1617              		.loc 1 418 5 view .LVU375
 1618              		.loc 1 418 7 is_stmt 0 view .LVU376
 1619 0006 7F2A     		cmp	r2, #127
 1620 0008 23D0     		beq	.L97
 419:Drivers/lvgl/src/misc/lv_color.c ****     if(opa < LV_OPA_50) return lv_color_lighten(c, (LV_OPA_50 - opa) * 2);
 1621              		.loc 1 419 5 is_stmt 1 view .LVU377
 1622              		.loc 1 419 7 is_stmt 0 view .LVU378
 1623 000a 7E2A     		cmp	r2, #126
 1624 000c 27D8     		bhi	.L95
 1625              		.loc 1 419 25 is_stmt 1 discriminator 1 view .LVU379
 1626              		.loc 1 419 63 is_stmt 0 discriminator 1 view .LVU380
 1627 000e C2F17F02 		rsb	r2, r2, #127
 1628              	.LVL117:
 1629              		.loc 1 419 32 discriminator 1 view .LVU381
 1630 0012 5100     		lsls	r1, r2, #1
 1631 0014 01F0FE01 		and	r1, r1, #254
 1632 0018 0198     		ldr	r0, [sp, #4]
 1633              	.LVL118:
 1634              		.loc 1 419 32 discriminator 1 view .LVU382
 1635 001a FFF7FEFF 		bl	lv_color_lighten
 1636              	.LVL119:
 1637 001e 8DF80C00 		strb	r0, [sp, #12]
 1638 0022 C0F30723 		ubfx	r3, r0, #8, #8
 1639 0026 8DF80D30 		strb	r3, [sp, #13]
 1640 002a C0F30740 		ubfx	r0, r0, #16, #8
 1641 002e 8DF80E00 		strb	r0, [sp, #14]
 1642              	.L94:
 420:Drivers/lvgl/src/misc/lv_color.c ****     else return lv_color_darken(c, (opa - LV_OPA_50 * LV_OPA_50) * 2);
 421:Drivers/lvgl/src/misc/lv_color.c **** }
 1643              		.loc 1 421 1 view .LVU383
 1644 0032 0020     		movs	r0, #0
 1645 0034 9DF80C30 		ldrb	r3, [sp, #12]	@ zero_extendqisi2
 1646 0038 63F30700 		bfi	r0, r3, #0, #8
 1647 003c 9DF80D30 		ldrb	r3, [sp, #13]	@ zero_extendqisi2
 1648 0040 63F30F20 		bfi	r0, r3, #8, #8
 1649 0044 9DF80E30 		ldrb	r3, [sp, #14]	@ zero_extendqisi2
 1650 0048 63F31740 		bfi	r0, r3, #16, #8
 1651 004c 05B0     		add	sp, sp, #20
 1652              	.LCFI48:
 1653              		.cfi_remember_state
 1654              		.cfi_def_cfa_offset 4
 1655              		@ sp needed
 1656 004e 5DF804FB 		ldr	pc, [sp], #4
ARM GAS  /var/folders/qx/2_175_4n2s19vhvtspjhb3qh0000gn/T//ccAGjwjy.s 			page 39


 1657              	.LVL120:
 1658              	.L97:
 1659              	.LCFI49:
 1660              		.cfi_restore_state
 418:Drivers/lvgl/src/misc/lv_color.c ****     if(opa < LV_OPA_50) return lv_color_lighten(c, (LV_OPA_50 - opa) * 2);
 1661              		.loc 1 418 26 is_stmt 1 discriminator 1 view .LVU384
 418:Drivers/lvgl/src/misc/lv_color.c ****     if(opa < LV_OPA_50) return lv_color_lighten(c, (LV_OPA_50 - opa) * 2);
 1662              		.loc 1 418 33 is_stmt 0 discriminator 1 view .LVU385
 1663 0052 ADF80C10 		strh	r1, [sp, #12]	@ movhi
 1664 0056 0B0C     		lsrs	r3, r1, #16
 1665 0058 8DF80E30 		strb	r3, [sp, #14]
 418:Drivers/lvgl/src/misc/lv_color.c ****     if(opa < LV_OPA_50) return lv_color_lighten(c, (LV_OPA_50 - opa) * 2);
 1666              		.loc 1 418 33 view .LVU386
 1667 005c E9E7     		b	.L94
 1668              	.L95:
 420:Drivers/lvgl/src/misc/lv_color.c ****     else return lv_color_darken(c, (opa - LV_OPA_50 * LV_OPA_50) * 2);
 1669              		.loc 1 420 10 is_stmt 1 view .LVU387
 420:Drivers/lvgl/src/misc/lv_color.c ****     else return lv_color_darken(c, (opa - LV_OPA_50 * LV_OPA_50) * 2);
 1670              		.loc 1 420 17 is_stmt 0 view .LVU388
 1671 005e 013A     		subs	r2, r2, #1
 1672              	.LVL121:
 420:Drivers/lvgl/src/misc/lv_color.c ****     else return lv_color_darken(c, (opa - LV_OPA_50 * LV_OPA_50) * 2);
 1673              		.loc 1 420 17 view .LVU389
 1674 0060 5100     		lsls	r1, r2, #1
 1675 0062 01F0FE01 		and	r1, r1, #254
 1676 0066 0198     		ldr	r0, [sp, #4]
 1677              	.LVL122:
 420:Drivers/lvgl/src/misc/lv_color.c ****     else return lv_color_darken(c, (opa - LV_OPA_50 * LV_OPA_50) * 2);
 1678              		.loc 1 420 17 view .LVU390
 1679 0068 FFF7FEFF 		bl	lv_color_darken
 1680              	.LVL123:
 1681 006c 8DF80C00 		strb	r0, [sp, #12]
 1682 0070 C0F30723 		ubfx	r3, r0, #8, #8
 1683 0074 8DF80D30 		strb	r3, [sp, #13]
 1684 0078 C0F30740 		ubfx	r0, r0, #16, #8
 1685 007c 8DF80E00 		strb	r0, [sp, #14]
 1686 0080 D7E7     		b	.L94
 1687              		.cfi_endproc
 1688              	.LFE33:
 1690              		.section	.text.lv_color_premultiply,"ax",%progbits
 1691              		.align	1
 1692              		.global	lv_color_premultiply
 1693              		.syntax unified
 1694              		.thumb
 1695              		.thumb_func
 1697              	lv_color_premultiply:
 1698              	.LVL124:
 1699              	.LFB27:
 347:Drivers/lvgl/src/misc/lv_color.c ****     if(c->alpha == LV_OPA_COVER) {
 1700              		.loc 1 347 1 is_stmt 1 view -0
 1701              		.cfi_startproc
 1702              		@ args = 0, pretend = 0, frame = 0
 1703              		@ frame_needed = 0, uses_anonymous_args = 0
 347:Drivers/lvgl/src/misc/lv_color.c ****     if(c->alpha == LV_OPA_COVER) {
 1704              		.loc 1 347 1 is_stmt 0 view .LVU392
 1705 0000 08B5     		push	{r3, lr}
 1706              	.LCFI50:
ARM GAS  /var/folders/qx/2_175_4n2s19vhvtspjhb3qh0000gn/T//ccAGjwjy.s 			page 40


 1707              		.cfi_def_cfa_offset 8
 1708              		.cfi_offset 3, -8
 1709              		.cfi_offset 14, -4
 348:Drivers/lvgl/src/misc/lv_color.c ****         return;
 1710              		.loc 1 348 5 is_stmt 1 view .LVU393
 348:Drivers/lvgl/src/misc/lv_color.c ****         return;
 1711              		.loc 1 348 9 is_stmt 0 view .LVU394
 1712 0002 C378     		ldrb	r3, [r0, #3]	@ zero_extendqisi2
 348:Drivers/lvgl/src/misc/lv_color.c ****         return;
 1713              		.loc 1 348 7 view .LVU395
 1714 0004 FF2B     		cmp	r3, #255
 1715 0006 0FD0     		beq	.L98
 352:Drivers/lvgl/src/misc/lv_color.c ****         lv_memzero(c, sizeof(lv_color32_t));
 1716              		.loc 1 352 5 is_stmt 1 view .LVU396
 352:Drivers/lvgl/src/misc/lv_color.c ****         lv_memzero(c, sizeof(lv_color32_t));
 1717              		.loc 1 352 7 is_stmt 0 view .LVU397
 1718 0008 7BB1     		cbz	r3, .L102
 357:Drivers/lvgl/src/misc/lv_color.c ****     c->green = LV_OPA_MIX2(c->green, c->alpha);
 1719              		.loc 1 357 5 is_stmt 1 view .LVU398
 357:Drivers/lvgl/src/misc/lv_color.c ****     c->green = LV_OPA_MIX2(c->green, c->alpha);
 1720              		.loc 1 357 14 is_stmt 0 view .LVU399
 1721 000a 8278     		ldrb	r2, [r0, #2]	@ zero_extendqisi2
 1722 000c 03FB02F2 		mul	r2, r3, r2
 1723 0010 120A     		lsrs	r2, r2, #8
 357:Drivers/lvgl/src/misc/lv_color.c ****     c->green = LV_OPA_MIX2(c->green, c->alpha);
 1724              		.loc 1 357 12 view .LVU400
 1725 0012 8270     		strb	r2, [r0, #2]
 358:Drivers/lvgl/src/misc/lv_color.c ****     c->blue = LV_OPA_MIX2(c->blue, c->alpha);
 1726              		.loc 1 358 5 is_stmt 1 view .LVU401
 358:Drivers/lvgl/src/misc/lv_color.c ****     c->blue = LV_OPA_MIX2(c->blue, c->alpha);
 1727              		.loc 1 358 16 is_stmt 0 view .LVU402
 1728 0014 4278     		ldrb	r2, [r0, #1]	@ zero_extendqisi2
 1729 0016 03FB02F2 		mul	r2, r3, r2
 1730 001a 120A     		lsrs	r2, r2, #8
 358:Drivers/lvgl/src/misc/lv_color.c ****     c->blue = LV_OPA_MIX2(c->blue, c->alpha);
 1731              		.loc 1 358 14 view .LVU403
 1732 001c 4270     		strb	r2, [r0, #1]
 359:Drivers/lvgl/src/misc/lv_color.c **** }
 1733              		.loc 1 359 5 is_stmt 1 view .LVU404
 359:Drivers/lvgl/src/misc/lv_color.c **** }
 1734              		.loc 1 359 15 is_stmt 0 view .LVU405
 1735 001e 0278     		ldrb	r2, [r0]	@ zero_extendqisi2
 1736 0020 02FB03F3 		mul	r3, r2, r3
 1737 0024 1B0A     		lsrs	r3, r3, #8
 359:Drivers/lvgl/src/misc/lv_color.c **** }
 1738              		.loc 1 359 13 view .LVU406
 1739 0026 0370     		strb	r3, [r0]
 1740              	.LVL125:
 1741              	.L98:
 360:Drivers/lvgl/src/misc/lv_color.c **** 
 1742              		.loc 1 360 1 view .LVU407
 1743 0028 08BD     		pop	{r3, pc}
 1744              	.LVL126:
 1745              	.L102:
 353:Drivers/lvgl/src/misc/lv_color.c ****         return;
 1746              		.loc 1 353 9 is_stmt 1 view .LVU408
 1747              	.LBB6:
ARM GAS  /var/folders/qx/2_175_4n2s19vhvtspjhb3qh0000gn/T//ccAGjwjy.s 			page 41


 1748              	.LBI6:
 1749              		.file 2 "Drivers/lvgl/src/misc/../stdlib/lv_string.h"
   1:Drivers/lvgl/src/misc/../stdlib/lv_string.h **** /**
   2:Drivers/lvgl/src/misc/../stdlib/lv_string.h ****  * @file lv_string.h
   3:Drivers/lvgl/src/misc/../stdlib/lv_string.h ****  *
   4:Drivers/lvgl/src/misc/../stdlib/lv_string.h ****  */
   5:Drivers/lvgl/src/misc/../stdlib/lv_string.h **** 
   6:Drivers/lvgl/src/misc/../stdlib/lv_string.h **** #ifndef LV_STRING_H
   7:Drivers/lvgl/src/misc/../stdlib/lv_string.h **** #define LV_STRING_H
   8:Drivers/lvgl/src/misc/../stdlib/lv_string.h **** 
   9:Drivers/lvgl/src/misc/../stdlib/lv_string.h **** #ifdef __cplusplus
  10:Drivers/lvgl/src/misc/../stdlib/lv_string.h **** extern "C" {
  11:Drivers/lvgl/src/misc/../stdlib/lv_string.h **** #endif
  12:Drivers/lvgl/src/misc/../stdlib/lv_string.h **** 
  13:Drivers/lvgl/src/misc/../stdlib/lv_string.h **** /*********************
  14:Drivers/lvgl/src/misc/../stdlib/lv_string.h ****  *      INCLUDES
  15:Drivers/lvgl/src/misc/../stdlib/lv_string.h ****  *********************/
  16:Drivers/lvgl/src/misc/../stdlib/lv_string.h **** #include "../lv_conf_internal.h"
  17:Drivers/lvgl/src/misc/../stdlib/lv_string.h **** #include "../misc/lv_types.h"
  18:Drivers/lvgl/src/misc/../stdlib/lv_string.h **** 
  19:Drivers/lvgl/src/misc/../stdlib/lv_string.h **** /*********************
  20:Drivers/lvgl/src/misc/../stdlib/lv_string.h ****  *      DEFINES
  21:Drivers/lvgl/src/misc/../stdlib/lv_string.h ****  *********************/
  22:Drivers/lvgl/src/misc/../stdlib/lv_string.h **** 
  23:Drivers/lvgl/src/misc/../stdlib/lv_string.h **** /**********************
  24:Drivers/lvgl/src/misc/../stdlib/lv_string.h ****  *      TYPEDEFS
  25:Drivers/lvgl/src/misc/../stdlib/lv_string.h ****  **********************/
  26:Drivers/lvgl/src/misc/../stdlib/lv_string.h **** 
  27:Drivers/lvgl/src/misc/../stdlib/lv_string.h **** /**********************
  28:Drivers/lvgl/src/misc/../stdlib/lv_string.h ****  * GLOBAL PROTOTYPES
  29:Drivers/lvgl/src/misc/../stdlib/lv_string.h ****  **********************/
  30:Drivers/lvgl/src/misc/../stdlib/lv_string.h **** 
  31:Drivers/lvgl/src/misc/../stdlib/lv_string.h **** /**
  32:Drivers/lvgl/src/misc/../stdlib/lv_string.h ****  * @brief Copies a block of memory from a source address to a destination address.
  33:Drivers/lvgl/src/misc/../stdlib/lv_string.h ****  * @param dst Pointer to the destination array where the content is to be copied.
  34:Drivers/lvgl/src/misc/../stdlib/lv_string.h ****  * @param src Pointer to the source of data to be copied.
  35:Drivers/lvgl/src/misc/../stdlib/lv_string.h ****  * @param len Number of bytes to copy.
  36:Drivers/lvgl/src/misc/../stdlib/lv_string.h ****  * @return Pointer to the destination array.
  37:Drivers/lvgl/src/misc/../stdlib/lv_string.h ****  * @note The function does not check for any overlapping of the source and destination memory block
  38:Drivers/lvgl/src/misc/../stdlib/lv_string.h ****  */
  39:Drivers/lvgl/src/misc/../stdlib/lv_string.h **** void * lv_memcpy(void * dst, const void * src, size_t len);
  40:Drivers/lvgl/src/misc/../stdlib/lv_string.h **** 
  41:Drivers/lvgl/src/misc/../stdlib/lv_string.h **** /**
  42:Drivers/lvgl/src/misc/../stdlib/lv_string.h ****  * @brief Fills a block of memory with a specified value.
  43:Drivers/lvgl/src/misc/../stdlib/lv_string.h ****  * @param dst Pointer to the destination array to fill with the specified value.
  44:Drivers/lvgl/src/misc/../stdlib/lv_string.h ****  * @param v Value to be set. The value is passed as an int, but the function fills
  45:Drivers/lvgl/src/misc/../stdlib/lv_string.h ****  *          the block of memory using the unsigned char conversion of this value.
  46:Drivers/lvgl/src/misc/../stdlib/lv_string.h ****  * @param len Number of bytes to be set to the value.
  47:Drivers/lvgl/src/misc/../stdlib/lv_string.h ****  */
  48:Drivers/lvgl/src/misc/../stdlib/lv_string.h **** void lv_memset(void * dst, uint8_t v, size_t len);
  49:Drivers/lvgl/src/misc/../stdlib/lv_string.h **** 
  50:Drivers/lvgl/src/misc/../stdlib/lv_string.h **** /**
  51:Drivers/lvgl/src/misc/../stdlib/lv_string.h ****  * @brief Move a block of memory from source to destination
  52:Drivers/lvgl/src/misc/../stdlib/lv_string.h ****  * @param dst Pointer to the destination array where the content is to be copied.
  53:Drivers/lvgl/src/misc/../stdlib/lv_string.h ****  * @param src Pointer to the source of data to be copied.
  54:Drivers/lvgl/src/misc/../stdlib/lv_string.h ****  * @param len Number of bytes to copy
  55:Drivers/lvgl/src/misc/../stdlib/lv_string.h ****  * @return Pointer to the destination array.
ARM GAS  /var/folders/qx/2_175_4n2s19vhvtspjhb3qh0000gn/T//ccAGjwjy.s 			page 42


  56:Drivers/lvgl/src/misc/../stdlib/lv_string.h ****  */
  57:Drivers/lvgl/src/misc/../stdlib/lv_string.h **** void * lv_memmove(void * dst, const void * src, size_t len);
  58:Drivers/lvgl/src/misc/../stdlib/lv_string.h **** 
  59:Drivers/lvgl/src/misc/../stdlib/lv_string.h **** /**
  60:Drivers/lvgl/src/misc/../stdlib/lv_string.h ****  * @brief This function will compare two memory blocks
  61:Drivers/lvgl/src/misc/../stdlib/lv_string.h ****  * @param p1 Pointer to the first memory block
  62:Drivers/lvgl/src/misc/../stdlib/lv_string.h ****  * @param p2 Pointer to the second memory block
  63:Drivers/lvgl/src/misc/../stdlib/lv_string.h ****  * @param len Number of bytes to compare
  64:Drivers/lvgl/src/misc/../stdlib/lv_string.h ****  * @return The difference between the value of the first unmatching byte.
  65:Drivers/lvgl/src/misc/../stdlib/lv_string.h ****  */
  66:Drivers/lvgl/src/misc/../stdlib/lv_string.h **** int lv_memcmp(const void * p1, const void * p2, size_t len);
  67:Drivers/lvgl/src/misc/../stdlib/lv_string.h **** 
  68:Drivers/lvgl/src/misc/../stdlib/lv_string.h **** /**
  69:Drivers/lvgl/src/misc/../stdlib/lv_string.h ****  * Same as `memset(dst, 0x00, len)`.
  70:Drivers/lvgl/src/misc/../stdlib/lv_string.h ****  * @param dst pointer to the destination buffer
  71:Drivers/lvgl/src/misc/../stdlib/lv_string.h ****  * @param len number of byte to set
  72:Drivers/lvgl/src/misc/../stdlib/lv_string.h ****  */
  73:Drivers/lvgl/src/misc/../stdlib/lv_string.h **** static inline void lv_memzero(void * dst, size_t len)
 1750              		.loc 2 73 20 view .LVU409
 1751              	.LBB7:
  74:Drivers/lvgl/src/misc/../stdlib/lv_string.h **** {
  75:Drivers/lvgl/src/misc/../stdlib/lv_string.h ****     lv_memset(dst, 0x00, len);
 1752              		.loc 2 75 5 view .LVU410
 1753 002a 0422     		movs	r2, #4
 1754 002c 0021     		movs	r1, #0
 1755 002e FFF7FEFF 		bl	lv_memset
 1756              	.LVL127:
 1757              		.loc 2 75 5 is_stmt 0 view .LVU411
 1758              	.LBE7:
 1759              	.LBE6:
 354:Drivers/lvgl/src/misc/lv_color.c ****     }
 1760              		.loc 1 354 9 is_stmt 1 view .LVU412
 1761 0032 F9E7     		b	.L98
 1762              		.cfi_endproc
 1763              	.LFE27:
 1765              		.section	.text.lv_color16_premultiply,"ax",%progbits
 1766              		.align	1
 1767              		.global	lv_color16_premultiply
 1768              		.syntax unified
 1769              		.thumb
 1770              		.thumb_func
 1772              	lv_color16_premultiply:
 1773              	.LVL128:
 1774              	.LFB28:
 363:Drivers/lvgl/src/misc/lv_color.c ****     if(a == LV_OPA_COVER) {
 1775              		.loc 1 363 1 view -0
 1776              		.cfi_startproc
 1777              		@ args = 0, pretend = 0, frame = 0
 1778              		@ frame_needed = 0, uses_anonymous_args = 0
 364:Drivers/lvgl/src/misc/lv_color.c ****         return;
 1779              		.loc 1 364 5 view .LVU414
 364:Drivers/lvgl/src/misc/lv_color.c ****         return;
 1780              		.loc 1 364 7 is_stmt 0 view .LVU415
 1781 0000 FF29     		cmp	r1, #255
 1782 0002 21D0     		beq	.L107
 363:Drivers/lvgl/src/misc/lv_color.c ****     if(a == LV_OPA_COVER) {
 1783              		.loc 1 363 1 view .LVU416
ARM GAS  /var/folders/qx/2_175_4n2s19vhvtspjhb3qh0000gn/T//ccAGjwjy.s 			page 43


 1784 0004 08B5     		push	{r3, lr}
 1785              	.LCFI51:
 1786              		.cfi_def_cfa_offset 8
 1787              		.cfi_offset 3, -8
 1788              		.cfi_offset 14, -4
 368:Drivers/lvgl/src/misc/lv_color.c ****         lv_memzero(c, sizeof(lv_color16_t));
 1789              		.loc 1 368 5 is_stmt 1 view .LVU417
 368:Drivers/lvgl/src/misc/lv_color.c ****         lv_memzero(c, sizeof(lv_color16_t));
 1790              		.loc 1 368 7 is_stmt 0 view .LVU418
 1791 0006 D9B1     		cbz	r1, .L110
 373:Drivers/lvgl/src/misc/lv_color.c ****     c->green = LV_OPA_MIX2(c->green, a);
 1792              		.loc 1 373 5 is_stmt 1 view .LVU419
 373:Drivers/lvgl/src/misc/lv_color.c ****     c->green = LV_OPA_MIX2(c->green, a);
 1793              		.loc 1 373 14 is_stmt 0 view .LVU420
 1794 0008 4378     		ldrb	r3, [r0, #1]	@ zero_extendqisi2
 1795 000a DA08     		lsrs	r2, r3, #3
 1796 000c 01FB02F2 		mul	r2, r1, r2
 1797 0010 120A     		lsrs	r2, r2, #8
 373:Drivers/lvgl/src/misc/lv_color.c ****     c->green = LV_OPA_MIX2(c->green, a);
 1798              		.loc 1 373 12 view .LVU421
 1799 0012 62F3C703 		bfi	r3, r2, #3, #5
 1800 0016 4370     		strb	r3, [r0, #1]
 374:Drivers/lvgl/src/misc/lv_color.c ****     c->blue = LV_OPA_MIX2(c->blue, a);
 1801              		.loc 1 374 5 is_stmt 1 view .LVU422
 374:Drivers/lvgl/src/misc/lv_color.c ****     c->blue = LV_OPA_MIX2(c->blue, a);
 1802              		.loc 1 374 16 is_stmt 0 view .LVU423
 1803 0018 0388     		ldrh	r3, [r0]
 1804 001a C3F34512 		ubfx	r2, r3, #5, #6
 1805 001e 01FB02F2 		mul	r2, r1, r2
 1806 0022 C2F30522 		ubfx	r2, r2, #8, #6
 374:Drivers/lvgl/src/misc/lv_color.c ****     c->blue = LV_OPA_MIX2(c->blue, a);
 1807              		.loc 1 374 14 view .LVU424
 1808 0026 62F34A13 		bfi	r3, r2, #5, #6
 1809 002a 0380     		strh	r3, [r0]	@ movhi
 375:Drivers/lvgl/src/misc/lv_color.c **** }
 1810              		.loc 1 375 5 is_stmt 1 view .LVU425
 375:Drivers/lvgl/src/misc/lv_color.c **** }
 1811              		.loc 1 375 15 is_stmt 0 view .LVU426
 1812 002c 0378     		ldrb	r3, [r0]	@ zero_extendqisi2
 1813 002e 03F01F02 		and	r2, r3, #31
 1814 0032 02FB01F1 		mul	r1, r2, r1
 1815              	.LVL129:
 375:Drivers/lvgl/src/misc/lv_color.c **** }
 1816              		.loc 1 375 15 view .LVU427
 1817 0036 090A     		lsrs	r1, r1, #8
 375:Drivers/lvgl/src/misc/lv_color.c **** }
 1818              		.loc 1 375 13 view .LVU428
 1819 0038 61F30403 		bfi	r3, r1, #0, #5
 1820 003c 0370     		strb	r3, [r0]
 1821              	.LVL130:
 1822              	.L103:
 376:Drivers/lvgl/src/misc/lv_color.c **** 
 1823              		.loc 1 376 1 view .LVU429
 1824 003e 08BD     		pop	{r3, pc}
 1825              	.LVL131:
 1826              	.L110:
 369:Drivers/lvgl/src/misc/lv_color.c ****         return;
ARM GAS  /var/folders/qx/2_175_4n2s19vhvtspjhb3qh0000gn/T//ccAGjwjy.s 			page 44


 1827              		.loc 1 369 9 is_stmt 1 view .LVU430
 1828              	.LBB8:
 1829              	.LBI8:
  73:Drivers/lvgl/src/misc/../stdlib/lv_string.h **** {
 1830              		.loc 2 73 20 view .LVU431
 1831              	.LBB9:
 1832              		.loc 2 75 5 view .LVU432
 1833 0040 0222     		movs	r2, #2
 1834 0042 FFF7FEFF 		bl	lv_memset
 1835              	.LVL132:
 1836              		.loc 2 75 5 is_stmt 0 view .LVU433
 1837              	.LBE9:
 1838              	.LBE8:
 370:Drivers/lvgl/src/misc/lv_color.c ****     }
 1839              		.loc 1 370 9 is_stmt 1 view .LVU434
 1840 0046 FAE7     		b	.L103
 1841              	.LVL133:
 1842              	.L107:
 1843              	.LCFI52:
 1844              		.cfi_def_cfa_offset 0
 1845              		.cfi_restore 3
 1846              		.cfi_restore 14
 370:Drivers/lvgl/src/misc/lv_color.c ****     }
 1847              		.loc 1 370 9 is_stmt 0 view .LVU435
 1848 0048 7047     		bx	lr
 1849              		.cfi_endproc
 1850              	.LFE28:
 1852              		.section	.text.lv_color_luminance,"ax",%progbits
 1853              		.align	1
 1854              		.global	lv_color_luminance
 1855              		.syntax unified
 1856              		.thumb
 1857              		.thumb_func
 1859              	lv_color_luminance:
 1860              	.LFB29:
 379:Drivers/lvgl/src/misc/lv_color.c ****     return (uint8_t)((uint16_t)(77u * c.red + 151u * c.green + 28u * c.blue) >> 8);
 1861              		.loc 1 379 1 is_stmt 1 view -0
 1862              		.cfi_startproc
 1863              		@ args = 0, pretend = 0, frame = 8
 1864              		@ frame_needed = 0, uses_anonymous_args = 0
 1865              		@ link register save eliminated.
 1866 0000 82B0     		sub	sp, sp, #8
 1867              	.LCFI53:
 1868              		.cfi_def_cfa_offset 8
 1869 0002 0190     		str	r0, [sp, #4]
 380:Drivers/lvgl/src/misc/lv_color.c **** }
 1870              		.loc 1 380 5 view .LVU437
 380:Drivers/lvgl/src/misc/lv_color.c **** }
 1871              		.loc 1 380 40 is_stmt 0 view .LVU438
 1872 0004 9DF80630 		ldrb	r3, [sp, #6]	@ zero_extendqisi2
 380:Drivers/lvgl/src/misc/lv_color.c **** }
 1873              		.loc 1 380 37 view .LVU439
 1874 0008 03EB8302 		add	r2, r3, r3, lsl #2
 1875 000c 03EB4203 		add	r3, r3, r2, lsl #1
 1876 0010 C3EBC303 		rsb	r3, r3, r3, lsl #3
 380:Drivers/lvgl/src/misc/lv_color.c **** }
 1877              		.loc 1 380 55 view .LVU440
ARM GAS  /var/folders/qx/2_175_4n2s19vhvtspjhb3qh0000gn/T//ccAGjwjy.s 			page 45


 1878 0014 9DF80520 		ldrb	r2, [sp, #5]	@ zero_extendqisi2
 380:Drivers/lvgl/src/misc/lv_color.c **** }
 1879              		.loc 1 380 52 view .LVU441
 1880 0018 02EB8201 		add	r1, r2, r2, lsl #2
 1881 001c C1EB0111 		rsb	r1, r1, r1, lsl #4
 1882 0020 02EB4102 		add	r2, r2, r1, lsl #1
 1883 0024 92B2     		uxth	r2, r2
 380:Drivers/lvgl/src/misc/lv_color.c **** }
 1884              		.loc 1 380 45 view .LVU442
 1885 0026 12FA83F0 		uxtah	r0, r2, r3
 380:Drivers/lvgl/src/misc/lv_color.c **** }
 1886              		.loc 1 380 71 view .LVU443
 1887 002a 9DF80430 		ldrb	r3, [sp, #4]	@ zero_extendqisi2
 380:Drivers/lvgl/src/misc/lv_color.c **** }
 1888              		.loc 1 380 68 view .LVU444
 1889 002e C3EBC303 		rsb	r3, r3, r3, lsl #3
 1890 0032 9A00     		lsls	r2, r3, #2
 1891 0034 92B2     		uxth	r2, r2
 380:Drivers/lvgl/src/misc/lv_color.c **** }
 1892              		.loc 1 380 22 view .LVU445
 1893 0036 12FA80F0 		uxtah	r0, r2, r0
 381:Drivers/lvgl/src/misc/lv_color.c **** 
 1894              		.loc 1 381 1 view .LVU446
 1895 003a C0F30720 		ubfx	r0, r0, #8, #8
 1896 003e 02B0     		add	sp, sp, #8
 1897              	.LCFI54:
 1898              		.cfi_def_cfa_offset 0
 1899              		@ sp needed
 1900 0040 7047     		bx	lr
 1901              		.cfi_endproc
 1902              	.LFE29:
 1904              		.section	.text.lv_color16_luminance,"ax",%progbits
 1905              		.align	1
 1906              		.global	lv_color16_luminance
 1907              		.syntax unified
 1908              		.thumb
 1909              		.thumb_func
 1911              	lv_color16_luminance:
 1912              	.LVL134:
 1913              	.LFB30:
 384:Drivers/lvgl/src/misc/lv_color.c ****     return (uint8_t)((uint16_t)(635u * c.red + 613u * c.green + 231u * c.blue) >> 8);
 1914              		.loc 1 384 1 is_stmt 1 view -0
 1915              		.cfi_startproc
 1916              		@ args = 0, pretend = 0, frame = 0
 1917              		@ frame_needed = 0, uses_anonymous_args = 0
 1918              		@ link register save eliminated.
 385:Drivers/lvgl/src/misc/lv_color.c **** }
 1919              		.loc 1 385 5 view .LVU448
 385:Drivers/lvgl/src/misc/lv_color.c **** }
 1920              		.loc 1 385 41 is_stmt 0 view .LVU449
 1921 0000 C0F3C423 		ubfx	r3, r0, #11, #5
 385:Drivers/lvgl/src/misc/lv_color.c **** }
 1922              		.loc 1 385 38 view .LVU450
 1923 0004 03EB8303 		add	r3, r3, r3, lsl #2
 1924 0008 C3EBC313 		rsb	r3, r3, r3, lsl #7
 385:Drivers/lvgl/src/misc/lv_color.c **** }
 1925              		.loc 1 385 56 view .LVU451
ARM GAS  /var/folders/qx/2_175_4n2s19vhvtspjhb3qh0000gn/T//ccAGjwjy.s 			page 46


 1926 000c C0F34512 		ubfx	r2, r0, #5, #6
 385:Drivers/lvgl/src/misc/lv_color.c **** }
 1927              		.loc 1 385 53 view .LVU452
 1928 0010 02EBC201 		add	r1, r2, r2, lsl #3
 1929 0014 01EB0111 		add	r1, r1, r1, lsl #4
 1930 0018 02EB8102 		add	r2, r2, r1, lsl #2
 1931 001c 92B2     		uxth	r2, r2
 385:Drivers/lvgl/src/misc/lv_color.c **** }
 1932              		.loc 1 385 46 view .LVU453
 1933 001e 12FA83F3 		uxtah	r3, r2, r3
 385:Drivers/lvgl/src/misc/lv_color.c **** }
 1934              		.loc 1 385 73 view .LVU454
 1935 0022 00F01F00 		and	r0, r0, #31
 1936              	.LVL135:
 385:Drivers/lvgl/src/misc/lv_color.c **** }
 1937              		.loc 1 385 70 view .LVU455
 1938 0026 C0EBC000 		rsb	r0, r0, r0, lsl #3
 1939 002a 00EB4010 		add	r0, r0, r0, lsl #5
 1940 002e 80B2     		uxth	r0, r0
 385:Drivers/lvgl/src/misc/lv_color.c **** }
 1941              		.loc 1 385 22 view .LVU456
 1942 0030 10FA83F0 		uxtah	r0, r0, r3
 386:Drivers/lvgl/src/misc/lv_color.c **** 
 1943              		.loc 1 386 1 view .LVU457
 1944 0034 C0F30720 		ubfx	r0, r0, #8, #8
 1945 0038 7047     		bx	lr
 1946              		.cfi_endproc
 1947              	.LFE30:
 1949              		.section	.text.lv_color24_luminance,"ax",%progbits
 1950              		.align	1
 1951              		.global	lv_color24_luminance
 1952              		.syntax unified
 1953              		.thumb
 1954              		.thumb_func
 1956              	lv_color24_luminance:
 1957              	.LVL136:
 1958              	.LFB31:
 389:Drivers/lvgl/src/misc/lv_color.c ****     return (uint8_t)((uint16_t)(77u * c[2] + 151u * c[1] + 28u * c[0]) >> 8);
 1959              		.loc 1 389 1 is_stmt 1 view -0
 1960              		.cfi_startproc
 1961              		@ args = 0, pretend = 0, frame = 0
 1962              		@ frame_needed = 0, uses_anonymous_args = 0
 1963              		@ link register save eliminated.
 390:Drivers/lvgl/src/misc/lv_color.c **** }
 1964              		.loc 1 390 5 view .LVU459
 390:Drivers/lvgl/src/misc/lv_color.c **** }
 1965              		.loc 1 390 40 is_stmt 0 view .LVU460
 1966 0000 8378     		ldrb	r3, [r0, #2]	@ zero_extendqisi2
 390:Drivers/lvgl/src/misc/lv_color.c **** }
 1967              		.loc 1 390 37 view .LVU461
 1968 0002 03EB8302 		add	r2, r3, r3, lsl #2
 1969 0006 03EB4203 		add	r3, r3, r2, lsl #1
 1970 000a C3EBC303 		rsb	r3, r3, r3, lsl #3
 390:Drivers/lvgl/src/misc/lv_color.c **** }
 1971              		.loc 1 390 54 view .LVU462
 1972 000e 4278     		ldrb	r2, [r0, #1]	@ zero_extendqisi2
 390:Drivers/lvgl/src/misc/lv_color.c **** }
ARM GAS  /var/folders/qx/2_175_4n2s19vhvtspjhb3qh0000gn/T//ccAGjwjy.s 			page 47


 1973              		.loc 1 390 51 view .LVU463
 1974 0010 02EB8201 		add	r1, r2, r2, lsl #2
 1975 0014 C1EB0111 		rsb	r1, r1, r1, lsl #4
 1976 0018 02EB4102 		add	r2, r2, r1, lsl #1
 1977 001c 92B2     		uxth	r2, r2
 390:Drivers/lvgl/src/misc/lv_color.c **** }
 1978              		.loc 1 390 44 view .LVU464
 1979 001e 12FA83F3 		uxtah	r3, r2, r3
 390:Drivers/lvgl/src/misc/lv_color.c **** }
 1980              		.loc 1 390 67 view .LVU465
 1981 0022 0278     		ldrb	r2, [r0]	@ zero_extendqisi2
 390:Drivers/lvgl/src/misc/lv_color.c **** }
 1982              		.loc 1 390 64 view .LVU466
 1983 0024 C2EBC202 		rsb	r2, r2, r2, lsl #3
 1984 0028 9200     		lsls	r2, r2, #2
 1985 002a 92B2     		uxth	r2, r2
 390:Drivers/lvgl/src/misc/lv_color.c **** }
 1986              		.loc 1 390 22 view .LVU467
 1987 002c 12FA83F0 		uxtah	r0, r2, r3
 1988              	.LVL137:
 391:Drivers/lvgl/src/misc/lv_color.c **** 
 1989              		.loc 1 391 1 view .LVU468
 1990 0030 C0F30720 		ubfx	r0, r0, #8, #8
 1991 0034 7047     		bx	lr
 1992              		.cfi_endproc
 1993              	.LFE31:
 1995              		.section	.text.lv_color32_luminance,"ax",%progbits
 1996              		.align	1
 1997              		.global	lv_color32_luminance
 1998              		.syntax unified
 1999              		.thumb
 2000              		.thumb_func
 2002              	lv_color32_luminance:
 2003              	.LFB32:
 394:Drivers/lvgl/src/misc/lv_color.c ****     return (uint8_t)((uint16_t)(77u * c.red + 151u * c.green + 28u * c.blue) >> 8);
 2004              		.loc 1 394 1 is_stmt 1 view -0
 2005              		.cfi_startproc
 2006              		@ args = 0, pretend = 0, frame = 8
 2007              		@ frame_needed = 0, uses_anonymous_args = 0
 2008              		@ link register save eliminated.
 2009 0000 82B0     		sub	sp, sp, #8
 2010              	.LCFI55:
 2011              		.cfi_def_cfa_offset 8
 2012 0002 0190     		str	r0, [sp, #4]
 395:Drivers/lvgl/src/misc/lv_color.c **** }
 2013              		.loc 1 395 5 view .LVU470
 395:Drivers/lvgl/src/misc/lv_color.c **** }
 2014              		.loc 1 395 40 is_stmt 0 view .LVU471
 2015 0004 9DF80630 		ldrb	r3, [sp, #6]	@ zero_extendqisi2
 395:Drivers/lvgl/src/misc/lv_color.c **** }
 2016              		.loc 1 395 37 view .LVU472
 2017 0008 03EB8302 		add	r2, r3, r3, lsl #2
 2018 000c 03EB4203 		add	r3, r3, r2, lsl #1
 2019 0010 C3EBC303 		rsb	r3, r3, r3, lsl #3
 395:Drivers/lvgl/src/misc/lv_color.c **** }
 2020              		.loc 1 395 55 view .LVU473
 2021 0014 9DF80520 		ldrb	r2, [sp, #5]	@ zero_extendqisi2
ARM GAS  /var/folders/qx/2_175_4n2s19vhvtspjhb3qh0000gn/T//ccAGjwjy.s 			page 48


 395:Drivers/lvgl/src/misc/lv_color.c **** }
 2022              		.loc 1 395 52 view .LVU474
 2023 0018 02EB8201 		add	r1, r2, r2, lsl #2
 2024 001c C1EB0111 		rsb	r1, r1, r1, lsl #4
 2025 0020 02EB4102 		add	r2, r2, r1, lsl #1
 2026 0024 92B2     		uxth	r2, r2
 395:Drivers/lvgl/src/misc/lv_color.c **** }
 2027              		.loc 1 395 45 view .LVU475
 2028 0026 12FA83F0 		uxtah	r0, r2, r3
 395:Drivers/lvgl/src/misc/lv_color.c **** }
 2029              		.loc 1 395 71 view .LVU476
 2030 002a 9DF80430 		ldrb	r3, [sp, #4]	@ zero_extendqisi2
 395:Drivers/lvgl/src/misc/lv_color.c **** }
 2031              		.loc 1 395 68 view .LVU477
 2032 002e C3EBC303 		rsb	r3, r3, r3, lsl #3
 2033 0032 9A00     		lsls	r2, r3, #2
 2034 0034 92B2     		uxth	r2, r2
 395:Drivers/lvgl/src/misc/lv_color.c **** }
 2035              		.loc 1 395 22 view .LVU478
 2036 0036 12FA80F0 		uxtah	r0, r2, r0
 396:Drivers/lvgl/src/misc/lv_color.c **** 
 2037              		.loc 1 396 1 view .LVU479
 2038 003a C0F30720 		ubfx	r0, r0, #8, #8
 2039 003e 02B0     		add	sp, sp, #8
 2040              	.LCFI56:
 2041              		.cfi_def_cfa_offset 0
 2042              		@ sp needed
 2043 0040 7047     		bx	lr
 2044              		.cfi_endproc
 2045              	.LFE32:
 2047              		.global	lv_color_filter_shade
 2048              		.section	.rodata.lv_color_filter_shade,"a"
 2049              		.align	2
 2052              	lv_color_filter_shade:
 2053 0000 00000000 		.word	lv_color_filter_shade_cb
 2054 0004 00000000 		.space	4
 2055              		.text
 2056              	.Letext0:
 2057              		.file 3 "/Applications/ArmGNUToolchain/14.3.rel1/arm-none-eabi/arm-none-eabi/include/machine/_defa
 2058              		.file 4 "/Applications/ArmGNUToolchain/14.3.rel1/arm-none-eabi/arm-none-eabi/include/sys/_stdint.h
 2059              		.file 5 "/Applications/ArmGNUToolchain/14.3.rel1/arm-none-eabi/lib/gcc/arm-none-eabi/14.3.1/includ
 2060              		.file 6 "Drivers/lvgl/src/misc/lv_types.h"
 2061              		.file 7 "Drivers/lvgl/src/misc/lv_color_op.h"
 2062              		.file 8 "Drivers/lvgl/src/misc/lv_color.h"
ARM GAS  /var/folders/qx/2_175_4n2s19vhvtspjhb3qh0000gn/T//ccAGjwjy.s 			page 49

