ARM GAS  /var/folders/qx/2_175_4n2s19vhvtspjhb3qh0000gn/T//cc1QUPW1.s 			page 1


   1              		.cpu cortex-m4
   2              		.arch armv7e-m
   3              		.fpu fpv4-sp-d16
   4              		.eabi_attribute 27, 1
   5              		.eabi_attribute 28, 1
   6              		.eabi_attribute 20, 1
   7              		.eabi_attribute 21, 1
   8              		.eabi_attribute 23, 3
   9              		.eabi_attribute 24, 1
  10              		.eabi_attribute 25, 1
  11              		.eabi_attribute 26, 1
  12              		.eabi_attribute 30, 1
  13              		.eabi_attribute 34, 1
  14              		.eabi_attribute 18, 4
  15              		.file	"lv_ll.c"
  16              		.text
  17              	.Ltext0:
  18              		.cfi_sections	.debug_frame
  19              		.file 1 "Drivers/lvgl/src/misc/lv_ll.c"
  20              		.section	.text.node_set_prev,"ax",%progbits
  21              		.align	1
  22              		.syntax unified
  23              		.thumb
  24              		.thumb_func
  26              	node_set_prev:
  27              	.LVL0:
  28              	.LFB17:
   1:Drivers/lvgl/src/misc/lv_ll.c **** /**
   2:Drivers/lvgl/src/misc/lv_ll.c ****  * @file lv_ll.c
   3:Drivers/lvgl/src/misc/lv_ll.c ****  * Handle linked lists.
   4:Drivers/lvgl/src/misc/lv_ll.c ****  * The nodes are dynamically allocated by the 'lv_mem' module,
   5:Drivers/lvgl/src/misc/lv_ll.c ****  */
   6:Drivers/lvgl/src/misc/lv_ll.c **** 
   7:Drivers/lvgl/src/misc/lv_ll.c **** /*********************
   8:Drivers/lvgl/src/misc/lv_ll.c ****  *      INCLUDES
   9:Drivers/lvgl/src/misc/lv_ll.c ****  *********************/
  10:Drivers/lvgl/src/misc/lv_ll.c **** #include "lv_ll.h"
  11:Drivers/lvgl/src/misc/lv_ll.c **** #include "../stdlib/lv_mem.h"
  12:Drivers/lvgl/src/misc/lv_ll.c **** 
  13:Drivers/lvgl/src/misc/lv_ll.c **** /*********************
  14:Drivers/lvgl/src/misc/lv_ll.c ****  *      DEFINES
  15:Drivers/lvgl/src/misc/lv_ll.c ****  *********************/
  16:Drivers/lvgl/src/misc/lv_ll.c **** #define LL_NODE_META_SIZE (sizeof(lv_ll_node_t *) + sizeof(lv_ll_node_t *))
  17:Drivers/lvgl/src/misc/lv_ll.c **** #define LL_PREV_P_OFFSET(ll_p) (ll_p->n_size)
  18:Drivers/lvgl/src/misc/lv_ll.c **** #define LL_NEXT_P_OFFSET(ll_p) (ll_p->n_size + sizeof(lv_ll_node_t *))
  19:Drivers/lvgl/src/misc/lv_ll.c **** 
  20:Drivers/lvgl/src/misc/lv_ll.c **** /**********************
  21:Drivers/lvgl/src/misc/lv_ll.c ****  *      TYPEDEFS
  22:Drivers/lvgl/src/misc/lv_ll.c ****  **********************/
  23:Drivers/lvgl/src/misc/lv_ll.c **** 
  24:Drivers/lvgl/src/misc/lv_ll.c **** /**********************
  25:Drivers/lvgl/src/misc/lv_ll.c ****  *  STATIC PROTOTYPES
  26:Drivers/lvgl/src/misc/lv_ll.c ****  **********************/
  27:Drivers/lvgl/src/misc/lv_ll.c **** static void node_set_prev(lv_ll_t * ll_p, lv_ll_node_t * act, lv_ll_node_t * prev);
  28:Drivers/lvgl/src/misc/lv_ll.c **** static void node_set_next(lv_ll_t * ll_p, lv_ll_node_t * act, lv_ll_node_t * next);
  29:Drivers/lvgl/src/misc/lv_ll.c **** 
  30:Drivers/lvgl/src/misc/lv_ll.c **** /**********************
ARM GAS  /var/folders/qx/2_175_4n2s19vhvtspjhb3qh0000gn/T//cc1QUPW1.s 			page 2


  31:Drivers/lvgl/src/misc/lv_ll.c ****  *  STATIC VARIABLES
  32:Drivers/lvgl/src/misc/lv_ll.c ****  **********************/
  33:Drivers/lvgl/src/misc/lv_ll.c **** 
  34:Drivers/lvgl/src/misc/lv_ll.c **** /**********************
  35:Drivers/lvgl/src/misc/lv_ll.c ****  *      MACROS
  36:Drivers/lvgl/src/misc/lv_ll.c ****  **********************/
  37:Drivers/lvgl/src/misc/lv_ll.c **** 
  38:Drivers/lvgl/src/misc/lv_ll.c **** /**********************
  39:Drivers/lvgl/src/misc/lv_ll.c ****  *   GLOBAL FUNCTIONS
  40:Drivers/lvgl/src/misc/lv_ll.c ****  **********************/
  41:Drivers/lvgl/src/misc/lv_ll.c **** 
  42:Drivers/lvgl/src/misc/lv_ll.c **** void lv_ll_init(lv_ll_t * ll_p, uint32_t node_size)
  43:Drivers/lvgl/src/misc/lv_ll.c **** {
  44:Drivers/lvgl/src/misc/lv_ll.c ****     ll_p->head = NULL;
  45:Drivers/lvgl/src/misc/lv_ll.c ****     ll_p->tail = NULL;
  46:Drivers/lvgl/src/misc/lv_ll.c **** #ifdef LV_ARCH_64
  47:Drivers/lvgl/src/misc/lv_ll.c ****     /*Round the size up to 8*/
  48:Drivers/lvgl/src/misc/lv_ll.c ****     node_size = (node_size + 7) & (~0x7);
  49:Drivers/lvgl/src/misc/lv_ll.c **** #else
  50:Drivers/lvgl/src/misc/lv_ll.c ****     /*Round the size up to 4*/
  51:Drivers/lvgl/src/misc/lv_ll.c ****     node_size = (node_size + 3) & (~0x3);
  52:Drivers/lvgl/src/misc/lv_ll.c **** #endif
  53:Drivers/lvgl/src/misc/lv_ll.c **** 
  54:Drivers/lvgl/src/misc/lv_ll.c ****     ll_p->n_size = node_size;
  55:Drivers/lvgl/src/misc/lv_ll.c **** }
  56:Drivers/lvgl/src/misc/lv_ll.c **** 
  57:Drivers/lvgl/src/misc/lv_ll.c **** void * lv_ll_ins_head(lv_ll_t * ll_p)
  58:Drivers/lvgl/src/misc/lv_ll.c **** {
  59:Drivers/lvgl/src/misc/lv_ll.c ****     lv_ll_node_t * n_new;
  60:Drivers/lvgl/src/misc/lv_ll.c **** 
  61:Drivers/lvgl/src/misc/lv_ll.c ****     n_new = lv_malloc(ll_p->n_size + LL_NODE_META_SIZE);
  62:Drivers/lvgl/src/misc/lv_ll.c **** 
  63:Drivers/lvgl/src/misc/lv_ll.c ****     if(n_new != NULL) {
  64:Drivers/lvgl/src/misc/lv_ll.c ****         node_set_prev(ll_p, n_new, NULL);       /*No prev. before the new head*/
  65:Drivers/lvgl/src/misc/lv_ll.c ****         node_set_next(ll_p, n_new, ll_p->head); /*After new comes the old head*/
  66:Drivers/lvgl/src/misc/lv_ll.c **** 
  67:Drivers/lvgl/src/misc/lv_ll.c ****         if(ll_p->head != NULL) { /*If there is old head then before it goes the new*/
  68:Drivers/lvgl/src/misc/lv_ll.c ****             node_set_prev(ll_p, ll_p->head, n_new);
  69:Drivers/lvgl/src/misc/lv_ll.c ****         }
  70:Drivers/lvgl/src/misc/lv_ll.c **** 
  71:Drivers/lvgl/src/misc/lv_ll.c ****         ll_p->head = n_new;      /*Set the new head in the dsc.*/
  72:Drivers/lvgl/src/misc/lv_ll.c ****         if(ll_p->tail == NULL) { /*If there is no tail (1. node) set the tail too*/
  73:Drivers/lvgl/src/misc/lv_ll.c ****             ll_p->tail = n_new;
  74:Drivers/lvgl/src/misc/lv_ll.c ****         }
  75:Drivers/lvgl/src/misc/lv_ll.c ****     }
  76:Drivers/lvgl/src/misc/lv_ll.c **** 
  77:Drivers/lvgl/src/misc/lv_ll.c ****     return n_new;
  78:Drivers/lvgl/src/misc/lv_ll.c **** }
  79:Drivers/lvgl/src/misc/lv_ll.c **** 
  80:Drivers/lvgl/src/misc/lv_ll.c **** void * lv_ll_ins_prev(lv_ll_t * ll_p, void * n_act)
  81:Drivers/lvgl/src/misc/lv_ll.c **** {
  82:Drivers/lvgl/src/misc/lv_ll.c ****     lv_ll_node_t * n_new;
  83:Drivers/lvgl/src/misc/lv_ll.c **** 
  84:Drivers/lvgl/src/misc/lv_ll.c ****     if(NULL == ll_p || NULL == n_act) return NULL;
  85:Drivers/lvgl/src/misc/lv_ll.c **** 
  86:Drivers/lvgl/src/misc/lv_ll.c ****     if(lv_ll_get_head(ll_p) == n_act) {
  87:Drivers/lvgl/src/misc/lv_ll.c ****         n_new = lv_ll_ins_head(ll_p);
ARM GAS  /var/folders/qx/2_175_4n2s19vhvtspjhb3qh0000gn/T//cc1QUPW1.s 			page 3


  88:Drivers/lvgl/src/misc/lv_ll.c ****         if(n_new == NULL) return NULL;
  89:Drivers/lvgl/src/misc/lv_ll.c ****     }
  90:Drivers/lvgl/src/misc/lv_ll.c ****     else {
  91:Drivers/lvgl/src/misc/lv_ll.c ****         n_new = lv_malloc(ll_p->n_size + LL_NODE_META_SIZE);
  92:Drivers/lvgl/src/misc/lv_ll.c ****         if(n_new == NULL) return NULL;
  93:Drivers/lvgl/src/misc/lv_ll.c **** 
  94:Drivers/lvgl/src/misc/lv_ll.c ****         lv_ll_node_t * n_prev;
  95:Drivers/lvgl/src/misc/lv_ll.c ****         n_prev = lv_ll_get_prev(ll_p, n_act);
  96:Drivers/lvgl/src/misc/lv_ll.c ****         node_set_next(ll_p, n_prev, n_new);
  97:Drivers/lvgl/src/misc/lv_ll.c ****         node_set_prev(ll_p, n_new, n_prev);
  98:Drivers/lvgl/src/misc/lv_ll.c ****         node_set_prev(ll_p, n_act, n_new);
  99:Drivers/lvgl/src/misc/lv_ll.c ****         node_set_next(ll_p, n_new, n_act);
 100:Drivers/lvgl/src/misc/lv_ll.c ****     }
 101:Drivers/lvgl/src/misc/lv_ll.c **** 
 102:Drivers/lvgl/src/misc/lv_ll.c ****     return n_new;
 103:Drivers/lvgl/src/misc/lv_ll.c **** }
 104:Drivers/lvgl/src/misc/lv_ll.c **** 
 105:Drivers/lvgl/src/misc/lv_ll.c **** void * lv_ll_ins_tail(lv_ll_t * ll_p)
 106:Drivers/lvgl/src/misc/lv_ll.c **** {
 107:Drivers/lvgl/src/misc/lv_ll.c ****     lv_ll_node_t * n_new;
 108:Drivers/lvgl/src/misc/lv_ll.c **** 
 109:Drivers/lvgl/src/misc/lv_ll.c ****     n_new = lv_malloc(ll_p->n_size + LL_NODE_META_SIZE);
 110:Drivers/lvgl/src/misc/lv_ll.c **** 
 111:Drivers/lvgl/src/misc/lv_ll.c ****     if(n_new != NULL) {
 112:Drivers/lvgl/src/misc/lv_ll.c ****         node_set_next(ll_p, n_new, NULL);       /*No next after the new tail*/
 113:Drivers/lvgl/src/misc/lv_ll.c ****         node_set_prev(ll_p, n_new, ll_p->tail); /*The prev. before new is the old tail*/
 114:Drivers/lvgl/src/misc/lv_ll.c ****         if(ll_p->tail != NULL) {                /*If there is old tail then the new comes after it*
 115:Drivers/lvgl/src/misc/lv_ll.c ****             node_set_next(ll_p, ll_p->tail, n_new);
 116:Drivers/lvgl/src/misc/lv_ll.c ****         }
 117:Drivers/lvgl/src/misc/lv_ll.c **** 
 118:Drivers/lvgl/src/misc/lv_ll.c ****         ll_p->tail = n_new;      /*Set the new tail in the dsc.*/
 119:Drivers/lvgl/src/misc/lv_ll.c ****         if(ll_p->head == NULL) { /*If there is no head (1. node) set the head too*/
 120:Drivers/lvgl/src/misc/lv_ll.c ****             ll_p->head = n_new;
 121:Drivers/lvgl/src/misc/lv_ll.c ****         }
 122:Drivers/lvgl/src/misc/lv_ll.c ****     }
 123:Drivers/lvgl/src/misc/lv_ll.c **** 
 124:Drivers/lvgl/src/misc/lv_ll.c ****     return n_new;
 125:Drivers/lvgl/src/misc/lv_ll.c **** }
 126:Drivers/lvgl/src/misc/lv_ll.c **** 
 127:Drivers/lvgl/src/misc/lv_ll.c **** void lv_ll_remove(lv_ll_t * ll_p, void * node_p)
 128:Drivers/lvgl/src/misc/lv_ll.c **** {
 129:Drivers/lvgl/src/misc/lv_ll.c ****     if(ll_p == NULL) return;
 130:Drivers/lvgl/src/misc/lv_ll.c **** 
 131:Drivers/lvgl/src/misc/lv_ll.c ****     if(lv_ll_get_head(ll_p) == node_p) {
 132:Drivers/lvgl/src/misc/lv_ll.c ****         /*The new head will be the node after 'node_p'*/
 133:Drivers/lvgl/src/misc/lv_ll.c ****         ll_p->head = lv_ll_get_next(ll_p, node_p);
 134:Drivers/lvgl/src/misc/lv_ll.c ****         if(ll_p->head == NULL) {
 135:Drivers/lvgl/src/misc/lv_ll.c ****             ll_p->tail = NULL;
 136:Drivers/lvgl/src/misc/lv_ll.c ****         }
 137:Drivers/lvgl/src/misc/lv_ll.c ****         else {
 138:Drivers/lvgl/src/misc/lv_ll.c ****             node_set_prev(ll_p, ll_p->head, NULL);
 139:Drivers/lvgl/src/misc/lv_ll.c ****         }
 140:Drivers/lvgl/src/misc/lv_ll.c ****     }
 141:Drivers/lvgl/src/misc/lv_ll.c ****     else if(lv_ll_get_tail(ll_p) == node_p) {
 142:Drivers/lvgl/src/misc/lv_ll.c ****         /*The new tail will be the node before 'node_p'*/
 143:Drivers/lvgl/src/misc/lv_ll.c ****         ll_p->tail = lv_ll_get_prev(ll_p, node_p);
 144:Drivers/lvgl/src/misc/lv_ll.c ****         if(ll_p->tail == NULL) {
ARM GAS  /var/folders/qx/2_175_4n2s19vhvtspjhb3qh0000gn/T//cc1QUPW1.s 			page 4


 145:Drivers/lvgl/src/misc/lv_ll.c ****             ll_p->head = NULL;
 146:Drivers/lvgl/src/misc/lv_ll.c ****         }
 147:Drivers/lvgl/src/misc/lv_ll.c ****         else {
 148:Drivers/lvgl/src/misc/lv_ll.c ****             node_set_next(ll_p, ll_p->tail, NULL);
 149:Drivers/lvgl/src/misc/lv_ll.c ****         }
 150:Drivers/lvgl/src/misc/lv_ll.c ****     }
 151:Drivers/lvgl/src/misc/lv_ll.c ****     else {
 152:Drivers/lvgl/src/misc/lv_ll.c ****         lv_ll_node_t * n_prev = lv_ll_get_prev(ll_p, node_p);
 153:Drivers/lvgl/src/misc/lv_ll.c ****         lv_ll_node_t * n_next = lv_ll_get_next(ll_p, node_p);
 154:Drivers/lvgl/src/misc/lv_ll.c **** 
 155:Drivers/lvgl/src/misc/lv_ll.c ****         node_set_next(ll_p, n_prev, n_next);
 156:Drivers/lvgl/src/misc/lv_ll.c ****         node_set_prev(ll_p, n_next, n_prev);
 157:Drivers/lvgl/src/misc/lv_ll.c ****     }
 158:Drivers/lvgl/src/misc/lv_ll.c **** }
 159:Drivers/lvgl/src/misc/lv_ll.c **** 
 160:Drivers/lvgl/src/misc/lv_ll.c **** void lv_ll_clear_custom(lv_ll_t * ll_p, void(*cleanup)(void *))
 161:Drivers/lvgl/src/misc/lv_ll.c **** {
 162:Drivers/lvgl/src/misc/lv_ll.c ****     void * i;
 163:Drivers/lvgl/src/misc/lv_ll.c ****     void * i_next;
 164:Drivers/lvgl/src/misc/lv_ll.c **** 
 165:Drivers/lvgl/src/misc/lv_ll.c ****     i      = lv_ll_get_head(ll_p);
 166:Drivers/lvgl/src/misc/lv_ll.c ****     i_next = NULL;
 167:Drivers/lvgl/src/misc/lv_ll.c **** 
 168:Drivers/lvgl/src/misc/lv_ll.c ****     while(i != NULL) {
 169:Drivers/lvgl/src/misc/lv_ll.c ****         i_next = lv_ll_get_next(ll_p, i);
 170:Drivers/lvgl/src/misc/lv_ll.c ****         if(cleanup == NULL) {
 171:Drivers/lvgl/src/misc/lv_ll.c ****             lv_ll_remove(ll_p, i);
 172:Drivers/lvgl/src/misc/lv_ll.c ****             lv_free(i);
 173:Drivers/lvgl/src/misc/lv_ll.c ****         }
 174:Drivers/lvgl/src/misc/lv_ll.c ****         else {
 175:Drivers/lvgl/src/misc/lv_ll.c ****             cleanup(i);
 176:Drivers/lvgl/src/misc/lv_ll.c ****         }
 177:Drivers/lvgl/src/misc/lv_ll.c ****         i = i_next;
 178:Drivers/lvgl/src/misc/lv_ll.c ****     }
 179:Drivers/lvgl/src/misc/lv_ll.c **** }
 180:Drivers/lvgl/src/misc/lv_ll.c **** 
 181:Drivers/lvgl/src/misc/lv_ll.c **** void lv_ll_chg_list(lv_ll_t * ll_ori_p, lv_ll_t * ll_new_p, void * node, bool head)
 182:Drivers/lvgl/src/misc/lv_ll.c **** {
 183:Drivers/lvgl/src/misc/lv_ll.c ****     lv_ll_remove(ll_ori_p, node);
 184:Drivers/lvgl/src/misc/lv_ll.c **** 
 185:Drivers/lvgl/src/misc/lv_ll.c ****     if(head) {
 186:Drivers/lvgl/src/misc/lv_ll.c ****         /*Set node as head*/
 187:Drivers/lvgl/src/misc/lv_ll.c ****         node_set_prev(ll_new_p, node, NULL);
 188:Drivers/lvgl/src/misc/lv_ll.c ****         node_set_next(ll_new_p, node, ll_new_p->head);
 189:Drivers/lvgl/src/misc/lv_ll.c **** 
 190:Drivers/lvgl/src/misc/lv_ll.c ****         if(ll_new_p->head != NULL) { /*If there is old head then before it goes the new*/
 191:Drivers/lvgl/src/misc/lv_ll.c ****             node_set_prev(ll_new_p, ll_new_p->head, node);
 192:Drivers/lvgl/src/misc/lv_ll.c ****         }
 193:Drivers/lvgl/src/misc/lv_ll.c **** 
 194:Drivers/lvgl/src/misc/lv_ll.c ****         ll_new_p->head = node;       /*Set the new head in the dsc.*/
 195:Drivers/lvgl/src/misc/lv_ll.c ****         if(ll_new_p->tail == NULL) { /*If there is no tail (first node) set the tail too*/
 196:Drivers/lvgl/src/misc/lv_ll.c ****             ll_new_p->tail = node;
 197:Drivers/lvgl/src/misc/lv_ll.c ****         }
 198:Drivers/lvgl/src/misc/lv_ll.c ****     }
 199:Drivers/lvgl/src/misc/lv_ll.c ****     else {
 200:Drivers/lvgl/src/misc/lv_ll.c ****         /*Set node as tail*/
 201:Drivers/lvgl/src/misc/lv_ll.c ****         node_set_prev(ll_new_p, node, ll_new_p->tail);
ARM GAS  /var/folders/qx/2_175_4n2s19vhvtspjhb3qh0000gn/T//cc1QUPW1.s 			page 5


 202:Drivers/lvgl/src/misc/lv_ll.c ****         node_set_next(ll_new_p, node, NULL);
 203:Drivers/lvgl/src/misc/lv_ll.c **** 
 204:Drivers/lvgl/src/misc/lv_ll.c ****         if(ll_new_p->tail != NULL) { /*If there is old tail then after it goes the new*/
 205:Drivers/lvgl/src/misc/lv_ll.c ****             node_set_next(ll_new_p, ll_new_p->tail, node);
 206:Drivers/lvgl/src/misc/lv_ll.c ****         }
 207:Drivers/lvgl/src/misc/lv_ll.c **** 
 208:Drivers/lvgl/src/misc/lv_ll.c ****         ll_new_p->tail = node;       /*Set the new tail in the dsc.*/
 209:Drivers/lvgl/src/misc/lv_ll.c ****         if(ll_new_p->head == NULL) { /*If there is no head (first node) set the head too*/
 210:Drivers/lvgl/src/misc/lv_ll.c ****             ll_new_p->head = node;
 211:Drivers/lvgl/src/misc/lv_ll.c ****         }
 212:Drivers/lvgl/src/misc/lv_ll.c ****     }
 213:Drivers/lvgl/src/misc/lv_ll.c **** }
 214:Drivers/lvgl/src/misc/lv_ll.c **** 
 215:Drivers/lvgl/src/misc/lv_ll.c **** void * lv_ll_get_head(const lv_ll_t * ll_p)
 216:Drivers/lvgl/src/misc/lv_ll.c **** {
 217:Drivers/lvgl/src/misc/lv_ll.c ****     if(ll_p == NULL) return NULL;
 218:Drivers/lvgl/src/misc/lv_ll.c ****     return ll_p->head;
 219:Drivers/lvgl/src/misc/lv_ll.c **** }
 220:Drivers/lvgl/src/misc/lv_ll.c **** 
 221:Drivers/lvgl/src/misc/lv_ll.c **** void * lv_ll_get_tail(const lv_ll_t * ll_p)
 222:Drivers/lvgl/src/misc/lv_ll.c **** {
 223:Drivers/lvgl/src/misc/lv_ll.c ****     if(ll_p == NULL) return NULL;
 224:Drivers/lvgl/src/misc/lv_ll.c ****     return ll_p->tail;
 225:Drivers/lvgl/src/misc/lv_ll.c **** }
 226:Drivers/lvgl/src/misc/lv_ll.c **** 
 227:Drivers/lvgl/src/misc/lv_ll.c **** void * lv_ll_get_next(const lv_ll_t * ll_p, const void * n_act)
 228:Drivers/lvgl/src/misc/lv_ll.c **** {
 229:Drivers/lvgl/src/misc/lv_ll.c ****     /*Pointer to the next node is stored in the end of this node.
 230:Drivers/lvgl/src/misc/lv_ll.c ****      *Go there and return the address found there*/
 231:Drivers/lvgl/src/misc/lv_ll.c ****     const lv_ll_node_t * n_act_d = n_act;
 232:Drivers/lvgl/src/misc/lv_ll.c ****     n_act_d += LL_NEXT_P_OFFSET(ll_p);
 233:Drivers/lvgl/src/misc/lv_ll.c ****     return *((lv_ll_node_t **)n_act_d);
 234:Drivers/lvgl/src/misc/lv_ll.c **** }
 235:Drivers/lvgl/src/misc/lv_ll.c **** 
 236:Drivers/lvgl/src/misc/lv_ll.c **** void * lv_ll_get_prev(const lv_ll_t * ll_p, const void * n_act)
 237:Drivers/lvgl/src/misc/lv_ll.c **** {
 238:Drivers/lvgl/src/misc/lv_ll.c ****     /*Pointer to the prev. node is stored in the end of this node.
 239:Drivers/lvgl/src/misc/lv_ll.c ****      *Go there and return the address found there*/
 240:Drivers/lvgl/src/misc/lv_ll.c ****     const lv_ll_node_t * n_act_d = n_act;
 241:Drivers/lvgl/src/misc/lv_ll.c ****     n_act_d += LL_PREV_P_OFFSET(ll_p);
 242:Drivers/lvgl/src/misc/lv_ll.c ****     return *((lv_ll_node_t **)n_act_d);
 243:Drivers/lvgl/src/misc/lv_ll.c **** }
 244:Drivers/lvgl/src/misc/lv_ll.c **** 
 245:Drivers/lvgl/src/misc/lv_ll.c **** uint32_t lv_ll_get_len(const lv_ll_t * ll_p)
 246:Drivers/lvgl/src/misc/lv_ll.c **** {
 247:Drivers/lvgl/src/misc/lv_ll.c ****     uint32_t len = 0;
 248:Drivers/lvgl/src/misc/lv_ll.c ****     void * node;
 249:Drivers/lvgl/src/misc/lv_ll.c **** 
 250:Drivers/lvgl/src/misc/lv_ll.c ****     for(node = lv_ll_get_head(ll_p); node != NULL; node = lv_ll_get_next(ll_p, node)) {
 251:Drivers/lvgl/src/misc/lv_ll.c ****         len++;
 252:Drivers/lvgl/src/misc/lv_ll.c ****     }
 253:Drivers/lvgl/src/misc/lv_ll.c **** 
 254:Drivers/lvgl/src/misc/lv_ll.c ****     return len;
 255:Drivers/lvgl/src/misc/lv_ll.c **** }
 256:Drivers/lvgl/src/misc/lv_ll.c **** 
 257:Drivers/lvgl/src/misc/lv_ll.c **** void lv_ll_move_before(lv_ll_t * ll_p, void * n_act, void * n_after)
 258:Drivers/lvgl/src/misc/lv_ll.c **** {
ARM GAS  /var/folders/qx/2_175_4n2s19vhvtspjhb3qh0000gn/T//cc1QUPW1.s 			page 6


 259:Drivers/lvgl/src/misc/lv_ll.c ****     if(n_act == n_after) return; /*Can't move before itself*/
 260:Drivers/lvgl/src/misc/lv_ll.c **** 
 261:Drivers/lvgl/src/misc/lv_ll.c ****     void * n_before;
 262:Drivers/lvgl/src/misc/lv_ll.c ****     if(n_after != NULL)
 263:Drivers/lvgl/src/misc/lv_ll.c ****         n_before = lv_ll_get_prev(ll_p, n_after);
 264:Drivers/lvgl/src/misc/lv_ll.c ****     else
 265:Drivers/lvgl/src/misc/lv_ll.c ****         n_before = lv_ll_get_tail(ll_p); /*if `n_after` is NULL `n_act` should be the new tail*/
 266:Drivers/lvgl/src/misc/lv_ll.c **** 
 267:Drivers/lvgl/src/misc/lv_ll.c ****     if(n_act == n_before) return; /*Already before `n_after`*/
 268:Drivers/lvgl/src/misc/lv_ll.c **** 
 269:Drivers/lvgl/src/misc/lv_ll.c ****     /*It's much easier to remove from the list and add again*/
 270:Drivers/lvgl/src/misc/lv_ll.c ****     lv_ll_remove(ll_p, n_act);
 271:Drivers/lvgl/src/misc/lv_ll.c **** 
 272:Drivers/lvgl/src/misc/lv_ll.c ****     /*Add again by setting the prev. and next nodes*/
 273:Drivers/lvgl/src/misc/lv_ll.c ****     node_set_next(ll_p, n_before, n_act);
 274:Drivers/lvgl/src/misc/lv_ll.c ****     node_set_prev(ll_p, n_act, n_before);
 275:Drivers/lvgl/src/misc/lv_ll.c ****     node_set_prev(ll_p, n_after, n_act);
 276:Drivers/lvgl/src/misc/lv_ll.c ****     node_set_next(ll_p, n_act, n_after);
 277:Drivers/lvgl/src/misc/lv_ll.c **** 
 278:Drivers/lvgl/src/misc/lv_ll.c ****     /*If `n_act` was moved before NULL then it become the new tail*/
 279:Drivers/lvgl/src/misc/lv_ll.c ****     if(n_after == NULL) ll_p->tail = n_act;
 280:Drivers/lvgl/src/misc/lv_ll.c **** 
 281:Drivers/lvgl/src/misc/lv_ll.c ****     /*If `n_act` was moved before `NULL` then it's the new head*/
 282:Drivers/lvgl/src/misc/lv_ll.c ****     if(n_before == NULL) ll_p->head = n_act;
 283:Drivers/lvgl/src/misc/lv_ll.c **** }
 284:Drivers/lvgl/src/misc/lv_ll.c **** 
 285:Drivers/lvgl/src/misc/lv_ll.c **** bool lv_ll_is_empty(lv_ll_t * ll_p)
 286:Drivers/lvgl/src/misc/lv_ll.c **** {
 287:Drivers/lvgl/src/misc/lv_ll.c ****     if(ll_p == NULL) return true;
 288:Drivers/lvgl/src/misc/lv_ll.c **** 
 289:Drivers/lvgl/src/misc/lv_ll.c ****     if(ll_p->head == NULL && ll_p->tail == NULL) return true;
 290:Drivers/lvgl/src/misc/lv_ll.c **** 
 291:Drivers/lvgl/src/misc/lv_ll.c ****     return false;
 292:Drivers/lvgl/src/misc/lv_ll.c **** }
 293:Drivers/lvgl/src/misc/lv_ll.c **** 
 294:Drivers/lvgl/src/misc/lv_ll.c **** void lv_ll_clear(lv_ll_t * ll_p)
 295:Drivers/lvgl/src/misc/lv_ll.c **** {
 296:Drivers/lvgl/src/misc/lv_ll.c ****     lv_ll_clear_custom(ll_p, NULL);
 297:Drivers/lvgl/src/misc/lv_ll.c **** }
 298:Drivers/lvgl/src/misc/lv_ll.c **** 
 299:Drivers/lvgl/src/misc/lv_ll.c **** /**********************
 300:Drivers/lvgl/src/misc/lv_ll.c ****  *   STATIC FUNCTIONS
 301:Drivers/lvgl/src/misc/lv_ll.c ****  **********************/
 302:Drivers/lvgl/src/misc/lv_ll.c **** 
 303:Drivers/lvgl/src/misc/lv_ll.c **** /**
 304:Drivers/lvgl/src/misc/lv_ll.c ****  * Set the previous node pointer of a node
 305:Drivers/lvgl/src/misc/lv_ll.c ****  * @param ll_p pointer to linked list
 306:Drivers/lvgl/src/misc/lv_ll.c ****  * @param act pointer to a node which prev. node pointer should be set
 307:Drivers/lvgl/src/misc/lv_ll.c ****  * @param prev pointer to a node which should be the previous node before 'act'
 308:Drivers/lvgl/src/misc/lv_ll.c ****  */
 309:Drivers/lvgl/src/misc/lv_ll.c **** static void node_set_prev(lv_ll_t * ll_p, lv_ll_node_t * act, lv_ll_node_t * prev)
 310:Drivers/lvgl/src/misc/lv_ll.c **** {
  29              		.loc 1 310 1 view -0
  30              		.cfi_startproc
  31              		@ args = 0, pretend = 0, frame = 0
  32              		@ frame_needed = 0, uses_anonymous_args = 0
  33              		@ link register save eliminated.
ARM GAS  /var/folders/qx/2_175_4n2s19vhvtspjhb3qh0000gn/T//cc1QUPW1.s 			page 7


 311:Drivers/lvgl/src/misc/lv_ll.c ****     if(act == NULL) return; /*Can't set the prev node of `NULL`*/
  34              		.loc 1 311 5 view .LVU1
  35              		.loc 1 311 7 is_stmt 0 view .LVU2
  36 0000 0B46     		mov	r3, r1
  37 0002 09B1     		cbz	r1, .L1
 312:Drivers/lvgl/src/misc/lv_ll.c **** 
 313:Drivers/lvgl/src/misc/lv_ll.c ****     uint8_t * act8 = (uint8_t *)act;
  38              		.loc 1 313 5 is_stmt 1 view .LVU3
  39              	.LVL1:
 314:Drivers/lvgl/src/misc/lv_ll.c **** 
 315:Drivers/lvgl/src/misc/lv_ll.c ****     act8 += LL_PREV_P_OFFSET(ll_p);
  40              		.loc 1 315 5 view .LVU4
  41              		.loc 1 315 13 is_stmt 0 view .LVU5
  42 0004 0168     		ldr	r1, [r0]
  43              	.LVL2:
 316:Drivers/lvgl/src/misc/lv_ll.c **** 
 317:Drivers/lvgl/src/misc/lv_ll.c ****     lv_ll_node_t ** act_node_p = (lv_ll_node_t **) act8;
  44              		.loc 1 317 5 is_stmt 1 view .LVU6
 318:Drivers/lvgl/src/misc/lv_ll.c ****     lv_ll_node_t ** prev_node_p = (lv_ll_node_t **) &prev;
  45              		.loc 1 318 5 view .LVU7
 319:Drivers/lvgl/src/misc/lv_ll.c **** 
 320:Drivers/lvgl/src/misc/lv_ll.c ****     *act_node_p = *prev_node_p;
  46              		.loc 1 320 5 view .LVU8
  47              		.loc 1 320 17 is_stmt 0 view .LVU9
  48 0006 5A50     		str	r2, [r3, r1]
  49              	.LVL3:
  50              	.L1:
 321:Drivers/lvgl/src/misc/lv_ll.c **** }
  51              		.loc 1 321 1 view .LVU10
  52 0008 7047     		bx	lr
  53              		.cfi_endproc
  54              	.LFE17:
  56              		.section	.text.node_set_next,"ax",%progbits
  57              		.align	1
  58              		.syntax unified
  59              		.thumb
  60              		.thumb_func
  62              	node_set_next:
  63              	.LVL4:
  64              	.LFB18:
 322:Drivers/lvgl/src/misc/lv_ll.c **** 
 323:Drivers/lvgl/src/misc/lv_ll.c **** /**
 324:Drivers/lvgl/src/misc/lv_ll.c ****  * Set the 'next node pointer' of a node
 325:Drivers/lvgl/src/misc/lv_ll.c ****  * @param ll_p pointer to linked list
 326:Drivers/lvgl/src/misc/lv_ll.c ****  * @param act pointer to a node which next node pointer should be set
 327:Drivers/lvgl/src/misc/lv_ll.c ****  * @param next pointer to a node which should be the next node before 'act'
 328:Drivers/lvgl/src/misc/lv_ll.c ****  */
 329:Drivers/lvgl/src/misc/lv_ll.c **** static void node_set_next(lv_ll_t * ll_p, lv_ll_node_t * act, lv_ll_node_t * next)
 330:Drivers/lvgl/src/misc/lv_ll.c **** {
  65              		.loc 1 330 1 is_stmt 1 view -0
  66              		.cfi_startproc
  67              		@ args = 0, pretend = 0, frame = 0
  68              		@ frame_needed = 0, uses_anonymous_args = 0
  69              		@ link register save eliminated.
 331:Drivers/lvgl/src/misc/lv_ll.c ****     if(act == NULL) return; /*Can't set the next node of `NULL`*/
  70              		.loc 1 331 5 view .LVU12
  71              		.loc 1 331 7 is_stmt 0 view .LVU13
ARM GAS  /var/folders/qx/2_175_4n2s19vhvtspjhb3qh0000gn/T//cc1QUPW1.s 			page 8


  72 0000 11B1     		cbz	r1, .L3
 332:Drivers/lvgl/src/misc/lv_ll.c ****     uint8_t * act8 = (uint8_t *)act;
  73              		.loc 1 332 5 is_stmt 1 view .LVU14
  74              	.LVL5:
 333:Drivers/lvgl/src/misc/lv_ll.c **** 
 334:Drivers/lvgl/src/misc/lv_ll.c ****     act8 += LL_NEXT_P_OFFSET(ll_p);
  75              		.loc 1 334 5 view .LVU15
  76              		.loc 1 334 13 is_stmt 0 view .LVU16
  77 0002 0368     		ldr	r3, [r0]
  78              		.loc 1 334 10 view .LVU17
  79 0004 0433     		adds	r3, r3, #4
  80              	.LVL6:
 335:Drivers/lvgl/src/misc/lv_ll.c ****     lv_ll_node_t ** act_node_p = (lv_ll_node_t **) act8;
  81              		.loc 1 335 5 is_stmt 1 view .LVU18
 336:Drivers/lvgl/src/misc/lv_ll.c ****     lv_ll_node_t ** next_node_p = (lv_ll_node_t **) &next;
  82              		.loc 1 336 5 view .LVU19
 337:Drivers/lvgl/src/misc/lv_ll.c **** 
 338:Drivers/lvgl/src/misc/lv_ll.c ****     *act_node_p = *next_node_p;
  83              		.loc 1 338 5 view .LVU20
  84              		.loc 1 338 17 is_stmt 0 view .LVU21
  85 0006 CA50     		str	r2, [r1, r3]
  86              	.LVL7:
  87              	.L3:
 339:Drivers/lvgl/src/misc/lv_ll.c **** }
  88              		.loc 1 339 1 view .LVU22
  89 0008 7047     		bx	lr
  90              		.cfi_endproc
  91              	.LFE18:
  93              		.section	.text.lv_ll_init,"ax",%progbits
  94              		.align	1
  95              		.global	lv_ll_init
  96              		.syntax unified
  97              		.thumb
  98              		.thumb_func
 100              	lv_ll_init:
 101              	.LVL8:
 102              	.LFB2:
  43:Drivers/lvgl/src/misc/lv_ll.c ****     ll_p->head = NULL;
 103              		.loc 1 43 1 is_stmt 1 view -0
 104              		.cfi_startproc
 105              		@ args = 0, pretend = 0, frame = 0
 106              		@ frame_needed = 0, uses_anonymous_args = 0
 107              		@ link register save eliminated.
  44:Drivers/lvgl/src/misc/lv_ll.c ****     ll_p->tail = NULL;
 108              		.loc 1 44 5 view .LVU24
  44:Drivers/lvgl/src/misc/lv_ll.c ****     ll_p->tail = NULL;
 109              		.loc 1 44 16 is_stmt 0 view .LVU25
 110 0000 0023     		movs	r3, #0
 111 0002 4360     		str	r3, [r0, #4]
  45:Drivers/lvgl/src/misc/lv_ll.c **** #ifdef LV_ARCH_64
 112              		.loc 1 45 5 is_stmt 1 view .LVU26
  45:Drivers/lvgl/src/misc/lv_ll.c **** #ifdef LV_ARCH_64
 113              		.loc 1 45 16 is_stmt 0 view .LVU27
 114 0004 8360     		str	r3, [r0, #8]
  51:Drivers/lvgl/src/misc/lv_ll.c **** #endif
 115              		.loc 1 51 5 is_stmt 1 view .LVU28
  51:Drivers/lvgl/src/misc/lv_ll.c **** #endif
ARM GAS  /var/folders/qx/2_175_4n2s19vhvtspjhb3qh0000gn/T//cc1QUPW1.s 			page 9


 116              		.loc 1 51 28 is_stmt 0 view .LVU29
 117 0006 0331     		adds	r1, r1, #3
 118              	.LVL9:
  51:Drivers/lvgl/src/misc/lv_ll.c **** #endif
 119              		.loc 1 51 15 view .LVU30
 120 0008 21F00301 		bic	r1, r1, #3
 121              	.LVL10:
  54:Drivers/lvgl/src/misc/lv_ll.c **** }
 122              		.loc 1 54 5 is_stmt 1 view .LVU31
  54:Drivers/lvgl/src/misc/lv_ll.c **** }
 123              		.loc 1 54 18 is_stmt 0 view .LVU32
 124 000c 0160     		str	r1, [r0]
  55:Drivers/lvgl/src/misc/lv_ll.c **** 
 125              		.loc 1 55 1 view .LVU33
 126 000e 7047     		bx	lr
 127              		.cfi_endproc
 128              	.LFE2:
 130              		.section	.text.lv_ll_ins_head,"ax",%progbits
 131              		.align	1
 132              		.global	lv_ll_ins_head
 133              		.syntax unified
 134              		.thumb
 135              		.thumb_func
 137              	lv_ll_ins_head:
 138              	.LVL11:
 139              	.LFB3:
  58:Drivers/lvgl/src/misc/lv_ll.c ****     lv_ll_node_t * n_new;
 140              		.loc 1 58 1 is_stmt 1 view -0
 141              		.cfi_startproc
 142              		@ args = 0, pretend = 0, frame = 0
 143              		@ frame_needed = 0, uses_anonymous_args = 0
  58:Drivers/lvgl/src/misc/lv_ll.c ****     lv_ll_node_t * n_new;
 144              		.loc 1 58 1 is_stmt 0 view .LVU35
 145 0000 38B5     		push	{r3, r4, r5, lr}
 146              	.LCFI0:
 147              		.cfi_def_cfa_offset 16
 148              		.cfi_offset 3, -16
 149              		.cfi_offset 4, -12
 150              		.cfi_offset 5, -8
 151              		.cfi_offset 14, -4
 152 0002 0446     		mov	r4, r0
  59:Drivers/lvgl/src/misc/lv_ll.c **** 
 153              		.loc 1 59 5 is_stmt 1 view .LVU36
  61:Drivers/lvgl/src/misc/lv_ll.c **** 
 154              		.loc 1 61 5 view .LVU37
  61:Drivers/lvgl/src/misc/lv_ll.c **** 
 155              		.loc 1 61 27 is_stmt 0 view .LVU38
 156 0004 0068     		ldr	r0, [r0]
 157              	.LVL12:
  61:Drivers/lvgl/src/misc/lv_ll.c **** 
 158              		.loc 1 61 13 view .LVU39
 159 0006 0830     		adds	r0, r0, #8
 160 0008 FFF7FEFF 		bl	lv_malloc
 161              	.LVL13:
  63:Drivers/lvgl/src/misc/lv_ll.c ****         node_set_prev(ll_p, n_new, NULL);       /*No prev. before the new head*/
 162              		.loc 1 63 5 is_stmt 1 view .LVU40
  63:Drivers/lvgl/src/misc/lv_ll.c ****         node_set_prev(ll_p, n_new, NULL);       /*No prev. before the new head*/
ARM GAS  /var/folders/qx/2_175_4n2s19vhvtspjhb3qh0000gn/T//cc1QUPW1.s 			page 10


 163              		.loc 1 63 7 is_stmt 0 view .LVU41
 164 000c 0546     		mov	r5, r0
 165 000e 90B1     		cbz	r0, .L6
  64:Drivers/lvgl/src/misc/lv_ll.c ****         node_set_next(ll_p, n_new, ll_p->head); /*After new comes the old head*/
 166              		.loc 1 64 9 is_stmt 1 view .LVU42
 167 0010 0022     		movs	r2, #0
 168 0012 0146     		mov	r1, r0
 169 0014 2046     		mov	r0, r4
 170              	.LVL14:
  64:Drivers/lvgl/src/misc/lv_ll.c ****         node_set_next(ll_p, n_new, ll_p->head); /*After new comes the old head*/
 171              		.loc 1 64 9 is_stmt 0 view .LVU43
 172 0016 FFF7FEFF 		bl	node_set_prev
 173              	.LVL15:
  65:Drivers/lvgl/src/misc/lv_ll.c **** 
 174              		.loc 1 65 9 is_stmt 1 view .LVU44
 175 001a 6268     		ldr	r2, [r4, #4]
 176 001c 2946     		mov	r1, r5
 177 001e 2046     		mov	r0, r4
 178 0020 FFF7FEFF 		bl	node_set_next
 179              	.LVL16:
  67:Drivers/lvgl/src/misc/lv_ll.c ****             node_set_prev(ll_p, ll_p->head, n_new);
 180              		.loc 1 67 9 view .LVU45
  67:Drivers/lvgl/src/misc/lv_ll.c ****             node_set_prev(ll_p, ll_p->head, n_new);
 181              		.loc 1 67 16 is_stmt 0 view .LVU46
 182 0024 6168     		ldr	r1, [r4, #4]
  67:Drivers/lvgl/src/misc/lv_ll.c ****             node_set_prev(ll_p, ll_p->head, n_new);
 183              		.loc 1 67 11 view .LVU47
 184 0026 19B1     		cbz	r1, .L8
  68:Drivers/lvgl/src/misc/lv_ll.c ****         }
 185              		.loc 1 68 13 is_stmt 1 view .LVU48
 186 0028 2A46     		mov	r2, r5
 187 002a 2046     		mov	r0, r4
 188 002c FFF7FEFF 		bl	node_set_prev
 189              	.LVL17:
 190              	.L8:
  71:Drivers/lvgl/src/misc/lv_ll.c ****         if(ll_p->tail == NULL) { /*If there is no tail (1. node) set the tail too*/
 191              		.loc 1 71 9 view .LVU49
  71:Drivers/lvgl/src/misc/lv_ll.c ****         if(ll_p->tail == NULL) { /*If there is no tail (1. node) set the tail too*/
 192              		.loc 1 71 20 is_stmt 0 view .LVU50
 193 0030 6560     		str	r5, [r4, #4]
  72:Drivers/lvgl/src/misc/lv_ll.c ****             ll_p->tail = n_new;
 194              		.loc 1 72 9 is_stmt 1 view .LVU51
  72:Drivers/lvgl/src/misc/lv_ll.c ****             ll_p->tail = n_new;
 195              		.loc 1 72 16 is_stmt 0 view .LVU52
 196 0032 A368     		ldr	r3, [r4, #8]
  72:Drivers/lvgl/src/misc/lv_ll.c ****             ll_p->tail = n_new;
 197              		.loc 1 72 11 view .LVU53
 198 0034 0BB1     		cbz	r3, .L10
 199              	.L6:
  78:Drivers/lvgl/src/misc/lv_ll.c **** 
 200              		.loc 1 78 1 view .LVU54
 201 0036 2846     		mov	r0, r5
 202 0038 38BD     		pop	{r3, r4, r5, pc}
 203              	.LVL18:
 204              	.L10:
  73:Drivers/lvgl/src/misc/lv_ll.c ****         }
 205              		.loc 1 73 13 is_stmt 1 view .LVU55
ARM GAS  /var/folders/qx/2_175_4n2s19vhvtspjhb3qh0000gn/T//cc1QUPW1.s 			page 11


  73:Drivers/lvgl/src/misc/lv_ll.c ****         }
 206              		.loc 1 73 24 is_stmt 0 view .LVU56
 207 003a A560     		str	r5, [r4, #8]
  77:Drivers/lvgl/src/misc/lv_ll.c **** }
 208              		.loc 1 77 5 is_stmt 1 view .LVU57
  77:Drivers/lvgl/src/misc/lv_ll.c **** }
 209              		.loc 1 77 12 is_stmt 0 view .LVU58
 210 003c FBE7     		b	.L6
 211              		.cfi_endproc
 212              	.LFE3:
 214              		.section	.text.lv_ll_ins_tail,"ax",%progbits
 215              		.align	1
 216              		.global	lv_ll_ins_tail
 217              		.syntax unified
 218              		.thumb
 219              		.thumb_func
 221              	lv_ll_ins_tail:
 222              	.LVL19:
 223              	.LFB5:
 106:Drivers/lvgl/src/misc/lv_ll.c ****     lv_ll_node_t * n_new;
 224              		.loc 1 106 1 is_stmt 1 view -0
 225              		.cfi_startproc
 226              		@ args = 0, pretend = 0, frame = 0
 227              		@ frame_needed = 0, uses_anonymous_args = 0
 106:Drivers/lvgl/src/misc/lv_ll.c ****     lv_ll_node_t * n_new;
 228              		.loc 1 106 1 is_stmt 0 view .LVU60
 229 0000 38B5     		push	{r3, r4, r5, lr}
 230              	.LCFI1:
 231              		.cfi_def_cfa_offset 16
 232              		.cfi_offset 3, -16
 233              		.cfi_offset 4, -12
 234              		.cfi_offset 5, -8
 235              		.cfi_offset 14, -4
 236 0002 0446     		mov	r4, r0
 107:Drivers/lvgl/src/misc/lv_ll.c **** 
 237              		.loc 1 107 5 is_stmt 1 view .LVU61
 109:Drivers/lvgl/src/misc/lv_ll.c **** 
 238              		.loc 1 109 5 view .LVU62
 109:Drivers/lvgl/src/misc/lv_ll.c **** 
 239              		.loc 1 109 27 is_stmt 0 view .LVU63
 240 0004 0068     		ldr	r0, [r0]
 241              	.LVL20:
 109:Drivers/lvgl/src/misc/lv_ll.c **** 
 242              		.loc 1 109 13 view .LVU64
 243 0006 0830     		adds	r0, r0, #8
 244 0008 FFF7FEFF 		bl	lv_malloc
 245              	.LVL21:
 111:Drivers/lvgl/src/misc/lv_ll.c ****         node_set_next(ll_p, n_new, NULL);       /*No next after the new tail*/
 246              		.loc 1 111 5 is_stmt 1 view .LVU65
 111:Drivers/lvgl/src/misc/lv_ll.c ****         node_set_next(ll_p, n_new, NULL);       /*No next after the new tail*/
 247              		.loc 1 111 7 is_stmt 0 view .LVU66
 248 000c 0546     		mov	r5, r0
 249 000e 90B1     		cbz	r0, .L11
 112:Drivers/lvgl/src/misc/lv_ll.c ****         node_set_prev(ll_p, n_new, ll_p->tail); /*The prev. before new is the old tail*/
 250              		.loc 1 112 9 is_stmt 1 view .LVU67
 251 0010 0022     		movs	r2, #0
 252 0012 0146     		mov	r1, r0
ARM GAS  /var/folders/qx/2_175_4n2s19vhvtspjhb3qh0000gn/T//cc1QUPW1.s 			page 12


 253 0014 2046     		mov	r0, r4
 254              	.LVL22:
 112:Drivers/lvgl/src/misc/lv_ll.c ****         node_set_prev(ll_p, n_new, ll_p->tail); /*The prev. before new is the old tail*/
 255              		.loc 1 112 9 is_stmt 0 view .LVU68
 256 0016 FFF7FEFF 		bl	node_set_next
 257              	.LVL23:
 113:Drivers/lvgl/src/misc/lv_ll.c ****         if(ll_p->tail != NULL) {                /*If there is old tail then the new comes after it*
 258              		.loc 1 113 9 is_stmt 1 view .LVU69
 259 001a A268     		ldr	r2, [r4, #8]
 260 001c 2946     		mov	r1, r5
 261 001e 2046     		mov	r0, r4
 262 0020 FFF7FEFF 		bl	node_set_prev
 263              	.LVL24:
 114:Drivers/lvgl/src/misc/lv_ll.c ****             node_set_next(ll_p, ll_p->tail, n_new);
 264              		.loc 1 114 9 view .LVU70
 114:Drivers/lvgl/src/misc/lv_ll.c ****             node_set_next(ll_p, ll_p->tail, n_new);
 265              		.loc 1 114 16 is_stmt 0 view .LVU71
 266 0024 A168     		ldr	r1, [r4, #8]
 114:Drivers/lvgl/src/misc/lv_ll.c ****             node_set_next(ll_p, ll_p->tail, n_new);
 267              		.loc 1 114 11 view .LVU72
 268 0026 19B1     		cbz	r1, .L13
 115:Drivers/lvgl/src/misc/lv_ll.c ****         }
 269              		.loc 1 115 13 is_stmt 1 view .LVU73
 270 0028 2A46     		mov	r2, r5
 271 002a 2046     		mov	r0, r4
 272 002c FFF7FEFF 		bl	node_set_next
 273              	.LVL25:
 274              	.L13:
 118:Drivers/lvgl/src/misc/lv_ll.c ****         if(ll_p->head == NULL) { /*If there is no head (1. node) set the head too*/
 275              		.loc 1 118 9 view .LVU74
 118:Drivers/lvgl/src/misc/lv_ll.c ****         if(ll_p->head == NULL) { /*If there is no head (1. node) set the head too*/
 276              		.loc 1 118 20 is_stmt 0 view .LVU75
 277 0030 A560     		str	r5, [r4, #8]
 119:Drivers/lvgl/src/misc/lv_ll.c ****             ll_p->head = n_new;
 278              		.loc 1 119 9 is_stmt 1 view .LVU76
 119:Drivers/lvgl/src/misc/lv_ll.c ****             ll_p->head = n_new;
 279              		.loc 1 119 16 is_stmt 0 view .LVU77
 280 0032 6368     		ldr	r3, [r4, #4]
 119:Drivers/lvgl/src/misc/lv_ll.c ****             ll_p->head = n_new;
 281              		.loc 1 119 11 view .LVU78
 282 0034 0BB1     		cbz	r3, .L15
 283              	.L11:
 125:Drivers/lvgl/src/misc/lv_ll.c **** 
 284              		.loc 1 125 1 view .LVU79
 285 0036 2846     		mov	r0, r5
 286 0038 38BD     		pop	{r3, r4, r5, pc}
 287              	.LVL26:
 288              	.L15:
 120:Drivers/lvgl/src/misc/lv_ll.c ****         }
 289              		.loc 1 120 13 is_stmt 1 view .LVU80
 120:Drivers/lvgl/src/misc/lv_ll.c ****         }
 290              		.loc 1 120 24 is_stmt 0 view .LVU81
 291 003a 6560     		str	r5, [r4, #4]
 124:Drivers/lvgl/src/misc/lv_ll.c **** }
 292              		.loc 1 124 5 is_stmt 1 view .LVU82
 124:Drivers/lvgl/src/misc/lv_ll.c **** }
 293              		.loc 1 124 12 is_stmt 0 view .LVU83
ARM GAS  /var/folders/qx/2_175_4n2s19vhvtspjhb3qh0000gn/T//cc1QUPW1.s 			page 13


 294 003c FBE7     		b	.L11
 295              		.cfi_endproc
 296              	.LFE5:
 298              		.section	.text.lv_ll_get_head,"ax",%progbits
 299              		.align	1
 300              		.global	lv_ll_get_head
 301              		.syntax unified
 302              		.thumb
 303              		.thumb_func
 305              	lv_ll_get_head:
 306              	.LVL27:
 307              	.LFB9:
 216:Drivers/lvgl/src/misc/lv_ll.c ****     if(ll_p == NULL) return NULL;
 308              		.loc 1 216 1 is_stmt 1 view -0
 309              		.cfi_startproc
 310              		@ args = 0, pretend = 0, frame = 0
 311              		@ frame_needed = 0, uses_anonymous_args = 0
 312              		@ link register save eliminated.
 217:Drivers/lvgl/src/misc/lv_ll.c ****     return ll_p->head;
 313              		.loc 1 217 5 view .LVU85
 217:Drivers/lvgl/src/misc/lv_ll.c ****     return ll_p->head;
 314              		.loc 1 217 7 is_stmt 0 view .LVU86
 315 0000 08B1     		cbz	r0, .L18
 218:Drivers/lvgl/src/misc/lv_ll.c **** }
 316              		.loc 1 218 5 is_stmt 1 view .LVU87
 218:Drivers/lvgl/src/misc/lv_ll.c **** }
 317              		.loc 1 218 16 is_stmt 0 view .LVU88
 318 0002 4068     		ldr	r0, [r0, #4]
 319              	.LVL28:
 218:Drivers/lvgl/src/misc/lv_ll.c **** }
 320              		.loc 1 218 16 view .LVU89
 321 0004 7047     		bx	lr
 322              	.LVL29:
 323              	.L18:
 219:Drivers/lvgl/src/misc/lv_ll.c **** 
 324              		.loc 1 219 1 view .LVU90
 325 0006 7047     		bx	lr
 326              		.cfi_endproc
 327              	.LFE9:
 329              		.section	.text.lv_ll_get_tail,"ax",%progbits
 330              		.align	1
 331              		.global	lv_ll_get_tail
 332              		.syntax unified
 333              		.thumb
 334              		.thumb_func
 336              	lv_ll_get_tail:
 337              	.LVL30:
 338              	.LFB10:
 222:Drivers/lvgl/src/misc/lv_ll.c ****     if(ll_p == NULL) return NULL;
 339              		.loc 1 222 1 is_stmt 1 view -0
 340              		.cfi_startproc
 341              		@ args = 0, pretend = 0, frame = 0
 342              		@ frame_needed = 0, uses_anonymous_args = 0
 343              		@ link register save eliminated.
 223:Drivers/lvgl/src/misc/lv_ll.c ****     return ll_p->tail;
 344              		.loc 1 223 5 view .LVU92
 223:Drivers/lvgl/src/misc/lv_ll.c ****     return ll_p->tail;
ARM GAS  /var/folders/qx/2_175_4n2s19vhvtspjhb3qh0000gn/T//cc1QUPW1.s 			page 14


 345              		.loc 1 223 7 is_stmt 0 view .LVU93
 346 0000 08B1     		cbz	r0, .L21
 224:Drivers/lvgl/src/misc/lv_ll.c **** }
 347              		.loc 1 224 5 is_stmt 1 view .LVU94
 224:Drivers/lvgl/src/misc/lv_ll.c **** }
 348              		.loc 1 224 16 is_stmt 0 view .LVU95
 349 0002 8068     		ldr	r0, [r0, #8]
 350              	.LVL31:
 224:Drivers/lvgl/src/misc/lv_ll.c **** }
 351              		.loc 1 224 16 view .LVU96
 352 0004 7047     		bx	lr
 353              	.LVL32:
 354              	.L21:
 225:Drivers/lvgl/src/misc/lv_ll.c **** 
 355              		.loc 1 225 1 view .LVU97
 356 0006 7047     		bx	lr
 357              		.cfi_endproc
 358              	.LFE10:
 360              		.section	.text.lv_ll_get_next,"ax",%progbits
 361              		.align	1
 362              		.global	lv_ll_get_next
 363              		.syntax unified
 364              		.thumb
 365              		.thumb_func
 367              	lv_ll_get_next:
 368              	.LVL33:
 369              	.LFB11:
 228:Drivers/lvgl/src/misc/lv_ll.c ****     /*Pointer to the next node is stored in the end of this node.
 370              		.loc 1 228 1 is_stmt 1 view -0
 371              		.cfi_startproc
 372              		@ args = 0, pretend = 0, frame = 0
 373              		@ frame_needed = 0, uses_anonymous_args = 0
 374              		@ link register save eliminated.
 231:Drivers/lvgl/src/misc/lv_ll.c ****     n_act_d += LL_NEXT_P_OFFSET(ll_p);
 375              		.loc 1 231 5 view .LVU99
 232:Drivers/lvgl/src/misc/lv_ll.c ****     return *((lv_ll_node_t **)n_act_d);
 376              		.loc 1 232 5 view .LVU100
 232:Drivers/lvgl/src/misc/lv_ll.c ****     return *((lv_ll_node_t **)n_act_d);
 377              		.loc 1 232 16 is_stmt 0 view .LVU101
 378 0000 0368     		ldr	r3, [r0]
 232:Drivers/lvgl/src/misc/lv_ll.c ****     return *((lv_ll_node_t **)n_act_d);
 379              		.loc 1 232 13 view .LVU102
 380 0002 0433     		adds	r3, r3, #4
 381              	.LVL34:
 233:Drivers/lvgl/src/misc/lv_ll.c **** }
 382              		.loc 1 233 5 is_stmt 1 view .LVU103
 234:Drivers/lvgl/src/misc/lv_ll.c **** 
 383              		.loc 1 234 1 is_stmt 0 view .LVU104
 384 0004 C858     		ldr	r0, [r1, r3]
 385              	.LVL35:
 234:Drivers/lvgl/src/misc/lv_ll.c **** 
 386              		.loc 1 234 1 view .LVU105
 387 0006 7047     		bx	lr
 388              		.cfi_endproc
 389              	.LFE11:
 391              		.section	.text.lv_ll_get_prev,"ax",%progbits
 392              		.align	1
ARM GAS  /var/folders/qx/2_175_4n2s19vhvtspjhb3qh0000gn/T//cc1QUPW1.s 			page 15


 393              		.global	lv_ll_get_prev
 394              		.syntax unified
 395              		.thumb
 396              		.thumb_func
 398              	lv_ll_get_prev:
 399              	.LVL36:
 400              	.LFB12:
 237:Drivers/lvgl/src/misc/lv_ll.c ****     /*Pointer to the prev. node is stored in the end of this node.
 401              		.loc 1 237 1 is_stmt 1 view -0
 402              		.cfi_startproc
 403              		@ args = 0, pretend = 0, frame = 0
 404              		@ frame_needed = 0, uses_anonymous_args = 0
 405              		@ link register save eliminated.
 240:Drivers/lvgl/src/misc/lv_ll.c ****     n_act_d += LL_PREV_P_OFFSET(ll_p);
 406              		.loc 1 240 5 view .LVU107
 241:Drivers/lvgl/src/misc/lv_ll.c ****     return *((lv_ll_node_t **)n_act_d);
 407              		.loc 1 241 5 view .LVU108
 241:Drivers/lvgl/src/misc/lv_ll.c ****     return *((lv_ll_node_t **)n_act_d);
 408              		.loc 1 241 16 is_stmt 0 view .LVU109
 409 0000 0368     		ldr	r3, [r0]
 410              	.LVL37:
 242:Drivers/lvgl/src/misc/lv_ll.c **** }
 411              		.loc 1 242 5 is_stmt 1 view .LVU110
 243:Drivers/lvgl/src/misc/lv_ll.c **** 
 412              		.loc 1 243 1 is_stmt 0 view .LVU111
 413 0002 C858     		ldr	r0, [r1, r3]
 414              	.LVL38:
 243:Drivers/lvgl/src/misc/lv_ll.c **** 
 415              		.loc 1 243 1 view .LVU112
 416 0004 7047     		bx	lr
 417              		.cfi_endproc
 418              	.LFE12:
 420              		.section	.text.lv_ll_ins_prev,"ax",%progbits
 421              		.align	1
 422              		.global	lv_ll_ins_prev
 423              		.syntax unified
 424              		.thumb
 425              		.thumb_func
 427              	lv_ll_ins_prev:
 428              	.LVL39:
 429              	.LFB4:
  81:Drivers/lvgl/src/misc/lv_ll.c ****     lv_ll_node_t * n_new;
 430              		.loc 1 81 1 is_stmt 1 view -0
 431              		.cfi_startproc
 432              		@ args = 0, pretend = 0, frame = 0
 433              		@ frame_needed = 0, uses_anonymous_args = 0
  81:Drivers/lvgl/src/misc/lv_ll.c ****     lv_ll_node_t * n_new;
 434              		.loc 1 81 1 is_stmt 0 view .LVU114
 435 0000 F8B5     		push	{r3, r4, r5, r6, r7, lr}
 436              	.LCFI2:
 437              		.cfi_def_cfa_offset 24
 438              		.cfi_offset 3, -24
 439              		.cfi_offset 4, -20
 440              		.cfi_offset 5, -16
 441              		.cfi_offset 6, -12
 442              		.cfi_offset 7, -8
 443              		.cfi_offset 14, -4
ARM GAS  /var/folders/qx/2_175_4n2s19vhvtspjhb3qh0000gn/T//cc1QUPW1.s 			page 16


  82:Drivers/lvgl/src/misc/lv_ll.c **** 
 444              		.loc 1 82 5 is_stmt 1 view .LVU115
  84:Drivers/lvgl/src/misc/lv_ll.c **** 
 445              		.loc 1 84 5 view .LVU116
  84:Drivers/lvgl/src/misc/lv_ll.c **** 
 446              		.loc 1 84 7 is_stmt 0 view .LVU117
 447 0002 0746     		mov	r7, r0
 448 0004 58B3     		cbz	r0, .L27
 449 0006 0C46     		mov	r4, r1
  84:Drivers/lvgl/src/misc/lv_ll.c **** 
 450              		.loc 1 84 21 discriminator 2 view .LVU118
 451 0008 59B3     		cbz	r1, .L28
  86:Drivers/lvgl/src/misc/lv_ll.c ****         n_new = lv_ll_ins_head(ll_p);
 452              		.loc 1 86 5 is_stmt 1 view .LVU119
  86:Drivers/lvgl/src/misc/lv_ll.c ****         n_new = lv_ll_ins_head(ll_p);
 453              		.loc 1 86 8 is_stmt 0 view .LVU120
 454 000a FFF7FEFF 		bl	lv_ll_get_head
 455              	.LVL40:
  86:Drivers/lvgl/src/misc/lv_ll.c ****         n_new = lv_ll_ins_head(ll_p);
 456              		.loc 1 86 7 discriminator 1 view .LVU121
 457 000e 8442     		cmp	r4, r0
 458 0010 20D0     		beq	.L30
 459              	.LBB2:
  91:Drivers/lvgl/src/misc/lv_ll.c ****         if(n_new == NULL) return NULL;
 460              		.loc 1 91 9 is_stmt 1 view .LVU122
  91:Drivers/lvgl/src/misc/lv_ll.c ****         if(n_new == NULL) return NULL;
 461              		.loc 1 91 31 is_stmt 0 view .LVU123
 462 0012 3868     		ldr	r0, [r7]
  91:Drivers/lvgl/src/misc/lv_ll.c ****         if(n_new == NULL) return NULL;
 463              		.loc 1 91 17 view .LVU124
 464 0014 0830     		adds	r0, r0, #8
 465 0016 FFF7FEFF 		bl	lv_malloc
 466              	.LVL41:
  92:Drivers/lvgl/src/misc/lv_ll.c **** 
 467              		.loc 1 92 9 is_stmt 1 view .LVU125
  92:Drivers/lvgl/src/misc/lv_ll.c **** 
 468              		.loc 1 92 11 is_stmt 0 view .LVU126
 469 001a 0546     		mov	r5, r0
 470 001c C0B1     		cbz	r0, .L24
  94:Drivers/lvgl/src/misc/lv_ll.c ****         n_prev = lv_ll_get_prev(ll_p, n_act);
 471              		.loc 1 94 9 is_stmt 1 view .LVU127
  95:Drivers/lvgl/src/misc/lv_ll.c ****         node_set_next(ll_p, n_prev, n_new);
 472              		.loc 1 95 9 view .LVU128
  95:Drivers/lvgl/src/misc/lv_ll.c ****         node_set_next(ll_p, n_prev, n_new);
 473              		.loc 1 95 18 is_stmt 0 view .LVU129
 474 001e 2146     		mov	r1, r4
 475 0020 3846     		mov	r0, r7
 476              	.LVL42:
  95:Drivers/lvgl/src/misc/lv_ll.c ****         node_set_next(ll_p, n_prev, n_new);
 477              		.loc 1 95 18 view .LVU130
 478 0022 FFF7FEFF 		bl	lv_ll_get_prev
 479              	.LVL43:
 480 0026 0646     		mov	r6, r0
 481              	.LVL44:
  96:Drivers/lvgl/src/misc/lv_ll.c ****         node_set_prev(ll_p, n_new, n_prev);
 482              		.loc 1 96 9 is_stmt 1 view .LVU131
 483 0028 2A46     		mov	r2, r5
ARM GAS  /var/folders/qx/2_175_4n2s19vhvtspjhb3qh0000gn/T//cc1QUPW1.s 			page 17


 484 002a 0146     		mov	r1, r0
 485 002c 3846     		mov	r0, r7
 486              	.LVL45:
  96:Drivers/lvgl/src/misc/lv_ll.c ****         node_set_prev(ll_p, n_new, n_prev);
 487              		.loc 1 96 9 is_stmt 0 view .LVU132
 488 002e FFF7FEFF 		bl	node_set_next
 489              	.LVL46:
  97:Drivers/lvgl/src/misc/lv_ll.c ****         node_set_prev(ll_p, n_act, n_new);
 490              		.loc 1 97 9 is_stmt 1 view .LVU133
 491 0032 3246     		mov	r2, r6
 492 0034 2946     		mov	r1, r5
 493 0036 3846     		mov	r0, r7
 494 0038 FFF7FEFF 		bl	node_set_prev
 495              	.LVL47:
  98:Drivers/lvgl/src/misc/lv_ll.c ****         node_set_next(ll_p, n_new, n_act);
 496              		.loc 1 98 9 view .LVU134
 497 003c 2A46     		mov	r2, r5
 498 003e 2146     		mov	r1, r4
 499 0040 3846     		mov	r0, r7
 500 0042 FFF7FEFF 		bl	node_set_prev
 501              	.LVL48:
  99:Drivers/lvgl/src/misc/lv_ll.c ****     }
 502              		.loc 1 99 9 view .LVU135
 503 0046 2246     		mov	r2, r4
 504 0048 2946     		mov	r1, r5
 505 004a 3846     		mov	r0, r7
 506 004c FFF7FEFF 		bl	node_set_next
 507              	.LVL49:
 508              	.L24:
  99:Drivers/lvgl/src/misc/lv_ll.c ****     }
 509              		.loc 1 99 9 is_stmt 0 view .LVU136
 510              	.LBE2:
 103:Drivers/lvgl/src/misc/lv_ll.c **** 
 511              		.loc 1 103 1 view .LVU137
 512 0050 2846     		mov	r0, r5
 513 0052 F8BD     		pop	{r3, r4, r5, r6, r7, pc}
 514              	.LVL50:
 515              	.L30:
  87:Drivers/lvgl/src/misc/lv_ll.c ****         if(n_new == NULL) return NULL;
 516              		.loc 1 87 9 is_stmt 1 view .LVU138
  87:Drivers/lvgl/src/misc/lv_ll.c ****         if(n_new == NULL) return NULL;
 517              		.loc 1 87 17 is_stmt 0 view .LVU139
 518 0054 3846     		mov	r0, r7
 519 0056 FFF7FEFF 		bl	lv_ll_ins_head
 520              	.LVL51:
 521 005a 0546     		mov	r5, r0
 522              	.LVL52:
  88:Drivers/lvgl/src/misc/lv_ll.c ****     }
 523              		.loc 1 88 9 is_stmt 1 view .LVU140
 524 005c F8E7     		b	.L24
 525              	.LVL53:
 526              	.L27:
  84:Drivers/lvgl/src/misc/lv_ll.c **** 
 527              		.loc 1 84 46 is_stmt 0 discriminator 3 view .LVU141
 528 005e 0546     		mov	r5, r0
 529 0060 F6E7     		b	.L24
 530              	.L28:
ARM GAS  /var/folders/qx/2_175_4n2s19vhvtspjhb3qh0000gn/T//cc1QUPW1.s 			page 18


  84:Drivers/lvgl/src/misc/lv_ll.c **** 
 531              		.loc 1 84 46 discriminator 3 view .LVU142
 532 0062 0D46     		mov	r5, r1
 533 0064 F4E7     		b	.L24
 534              		.cfi_endproc
 535              	.LFE4:
 537              		.section	.text.lv_ll_remove,"ax",%progbits
 538              		.align	1
 539              		.global	lv_ll_remove
 540              		.syntax unified
 541              		.thumb
 542              		.thumb_func
 544              	lv_ll_remove:
 545              	.LVL54:
 546              	.LFB6:
 128:Drivers/lvgl/src/misc/lv_ll.c ****     if(ll_p == NULL) return;
 547              		.loc 1 128 1 is_stmt 1 view -0
 548              		.cfi_startproc
 549              		@ args = 0, pretend = 0, frame = 0
 550              		@ frame_needed = 0, uses_anonymous_args = 0
 129:Drivers/lvgl/src/misc/lv_ll.c **** 
 551              		.loc 1 129 5 view .LVU144
 129:Drivers/lvgl/src/misc/lv_ll.c **** 
 552              		.loc 1 129 7 is_stmt 0 view .LVU145
 553 0000 0028     		cmp	r0, #0
 554 0002 3ED0     		beq	.L38
 128:Drivers/lvgl/src/misc/lv_ll.c ****     if(ll_p == NULL) return;
 555              		.loc 1 128 1 view .LVU146
 556 0004 70B5     		push	{r4, r5, r6, lr}
 557              	.LCFI3:
 558              		.cfi_def_cfa_offset 16
 559              		.cfi_offset 4, -16
 560              		.cfi_offset 5, -12
 561              		.cfi_offset 6, -8
 562              		.cfi_offset 14, -4
 563 0006 0C46     		mov	r4, r1
 564 0008 0546     		mov	r5, r0
 131:Drivers/lvgl/src/misc/lv_ll.c ****         /*The new head will be the node after 'node_p'*/
 565              		.loc 1 131 5 is_stmt 1 view .LVU147
 131:Drivers/lvgl/src/misc/lv_ll.c ****         /*The new head will be the node after 'node_p'*/
 566              		.loc 1 131 8 is_stmt 0 view .LVU148
 567 000a FFF7FEFF 		bl	lv_ll_get_head
 568              	.LVL55:
 131:Drivers/lvgl/src/misc/lv_ll.c ****         /*The new head will be the node after 'node_p'*/
 569              		.loc 1 131 7 discriminator 1 view .LVU149
 570 000e 8442     		cmp	r4, r0
 571 0010 19D0     		beq	.L41
 141:Drivers/lvgl/src/misc/lv_ll.c ****         /*The new tail will be the node before 'node_p'*/
 572              		.loc 1 141 10 is_stmt 1 view .LVU150
 141:Drivers/lvgl/src/misc/lv_ll.c ****         /*The new tail will be the node before 'node_p'*/
 573              		.loc 1 141 13 is_stmt 0 view .LVU151
 574 0012 2846     		mov	r0, r5
 575 0014 FFF7FEFF 		bl	lv_ll_get_tail
 576              	.LVL56:
 141:Drivers/lvgl/src/misc/lv_ll.c ****         /*The new tail will be the node before 'node_p'*/
 577              		.loc 1 141 12 discriminator 1 view .LVU152
 578 0018 8442     		cmp	r4, r0
ARM GAS  /var/folders/qx/2_175_4n2s19vhvtspjhb3qh0000gn/T//cc1QUPW1.s 			page 19


 579 001a 23D0     		beq	.L42
 580              	.LBB3:
 152:Drivers/lvgl/src/misc/lv_ll.c ****         lv_ll_node_t * n_next = lv_ll_get_next(ll_p, node_p);
 581              		.loc 1 152 9 is_stmt 1 view .LVU153
 152:Drivers/lvgl/src/misc/lv_ll.c ****         lv_ll_node_t * n_next = lv_ll_get_next(ll_p, node_p);
 582              		.loc 1 152 33 is_stmt 0 view .LVU154
 583 001c 2146     		mov	r1, r4
 584 001e 2846     		mov	r0, r5
 585 0020 FFF7FEFF 		bl	lv_ll_get_prev
 586              	.LVL57:
 587 0024 0646     		mov	r6, r0
 588              	.LVL58:
 153:Drivers/lvgl/src/misc/lv_ll.c **** 
 589              		.loc 1 153 9 is_stmt 1 view .LVU155
 153:Drivers/lvgl/src/misc/lv_ll.c **** 
 590              		.loc 1 153 33 is_stmt 0 view .LVU156
 591 0026 2146     		mov	r1, r4
 592 0028 2846     		mov	r0, r5
 593              	.LVL59:
 153:Drivers/lvgl/src/misc/lv_ll.c **** 
 594              		.loc 1 153 33 view .LVU157
 595 002a FFF7FEFF 		bl	lv_ll_get_next
 596              	.LVL60:
 597 002e 0446     		mov	r4, r0
 598              	.LVL61:
 155:Drivers/lvgl/src/misc/lv_ll.c ****         node_set_prev(ll_p, n_next, n_prev);
 599              		.loc 1 155 9 is_stmt 1 view .LVU158
 600 0030 0246     		mov	r2, r0
 601 0032 3146     		mov	r1, r6
 602 0034 2846     		mov	r0, r5
 603              	.LVL62:
 155:Drivers/lvgl/src/misc/lv_ll.c ****         node_set_prev(ll_p, n_next, n_prev);
 604              		.loc 1 155 9 is_stmt 0 view .LVU159
 605 0036 FFF7FEFF 		bl	node_set_next
 606              	.LVL63:
 156:Drivers/lvgl/src/misc/lv_ll.c ****     }
 607              		.loc 1 156 9 is_stmt 1 view .LVU160
 608 003a 3246     		mov	r2, r6
 609 003c 2146     		mov	r1, r4
 610 003e 2846     		mov	r0, r5
 611 0040 FFF7FEFF 		bl	node_set_prev
 612              	.LVL64:
 613              	.L31:
 156:Drivers/lvgl/src/misc/lv_ll.c ****     }
 614              		.loc 1 156 9 is_stmt 0 view .LVU161
 615              	.LBE3:
 158:Drivers/lvgl/src/misc/lv_ll.c **** 
 616              		.loc 1 158 1 view .LVU162
 617 0044 70BD     		pop	{r4, r5, r6, pc}
 618              	.LVL65:
 619              	.L41:
 133:Drivers/lvgl/src/misc/lv_ll.c ****         if(ll_p->head == NULL) {
 620              		.loc 1 133 9 is_stmt 1 view .LVU163
 133:Drivers/lvgl/src/misc/lv_ll.c ****         if(ll_p->head == NULL) {
 621              		.loc 1 133 22 is_stmt 0 view .LVU164
 622 0046 2146     		mov	r1, r4
 623 0048 2846     		mov	r0, r5
ARM GAS  /var/folders/qx/2_175_4n2s19vhvtspjhb3qh0000gn/T//cc1QUPW1.s 			page 20


 624 004a FFF7FEFF 		bl	lv_ll_get_next
 625              	.LVL66:
 626 004e 0146     		mov	r1, r0
 133:Drivers/lvgl/src/misc/lv_ll.c ****         if(ll_p->head == NULL) {
 627              		.loc 1 133 20 discriminator 1 view .LVU165
 628 0050 6860     		str	r0, [r5, #4]
 134:Drivers/lvgl/src/misc/lv_ll.c ****             ll_p->tail = NULL;
 629              		.loc 1 134 9 is_stmt 1 view .LVU166
 134:Drivers/lvgl/src/misc/lv_ll.c ****             ll_p->tail = NULL;
 630              		.loc 1 134 11 is_stmt 0 view .LVU167
 631 0052 20B1     		cbz	r0, .L43
 138:Drivers/lvgl/src/misc/lv_ll.c ****         }
 632              		.loc 1 138 13 is_stmt 1 view .LVU168
 633 0054 0022     		movs	r2, #0
 634 0056 2846     		mov	r0, r5
 635 0058 FFF7FEFF 		bl	node_set_prev
 636              	.LVL67:
 637 005c F2E7     		b	.L31
 638              	.L43:
 135:Drivers/lvgl/src/misc/lv_ll.c ****         }
 639              		.loc 1 135 13 view .LVU169
 135:Drivers/lvgl/src/misc/lv_ll.c ****         }
 640              		.loc 1 135 24 is_stmt 0 view .LVU170
 641 005e 0023     		movs	r3, #0
 642 0060 AB60     		str	r3, [r5, #8]
 643 0062 EFE7     		b	.L31
 644              	.L42:
 143:Drivers/lvgl/src/misc/lv_ll.c ****         if(ll_p->tail == NULL) {
 645              		.loc 1 143 9 is_stmt 1 view .LVU171
 143:Drivers/lvgl/src/misc/lv_ll.c ****         if(ll_p->tail == NULL) {
 646              		.loc 1 143 22 is_stmt 0 view .LVU172
 647 0064 2146     		mov	r1, r4
 648 0066 2846     		mov	r0, r5
 649 0068 FFF7FEFF 		bl	lv_ll_get_prev
 650              	.LVL68:
 651 006c 0146     		mov	r1, r0
 143:Drivers/lvgl/src/misc/lv_ll.c ****         if(ll_p->tail == NULL) {
 652              		.loc 1 143 20 discriminator 1 view .LVU173
 653 006e A860     		str	r0, [r5, #8]
 144:Drivers/lvgl/src/misc/lv_ll.c ****             ll_p->head = NULL;
 654              		.loc 1 144 9 is_stmt 1 view .LVU174
 144:Drivers/lvgl/src/misc/lv_ll.c ****             ll_p->head = NULL;
 655              		.loc 1 144 11 is_stmt 0 view .LVU175
 656 0070 20B1     		cbz	r0, .L44
 148:Drivers/lvgl/src/misc/lv_ll.c ****         }
 657              		.loc 1 148 13 is_stmt 1 view .LVU176
 658 0072 0022     		movs	r2, #0
 659 0074 2846     		mov	r0, r5
 660 0076 FFF7FEFF 		bl	node_set_next
 661              	.LVL69:
 662 007a E3E7     		b	.L31
 663              	.L44:
 145:Drivers/lvgl/src/misc/lv_ll.c ****         }
 664              		.loc 1 145 13 view .LVU177
 145:Drivers/lvgl/src/misc/lv_ll.c ****         }
 665              		.loc 1 145 24 is_stmt 0 view .LVU178
 666 007c 0023     		movs	r3, #0
ARM GAS  /var/folders/qx/2_175_4n2s19vhvtspjhb3qh0000gn/T//cc1QUPW1.s 			page 21


 667 007e 6B60     		str	r3, [r5, #4]
 668 0080 E0E7     		b	.L31
 669              	.LVL70:
 670              	.L38:
 671              	.LCFI4:
 672              		.cfi_def_cfa_offset 0
 673              		.cfi_restore 4
 674              		.cfi_restore 5
 675              		.cfi_restore 6
 676              		.cfi_restore 14
 145:Drivers/lvgl/src/misc/lv_ll.c ****         }
 677              		.loc 1 145 24 view .LVU179
 678 0082 7047     		bx	lr
 679              		.cfi_endproc
 680              	.LFE6:
 682              		.section	.text.lv_ll_clear_custom,"ax",%progbits
 683              		.align	1
 684              		.global	lv_ll_clear_custom
 685              		.syntax unified
 686              		.thumb
 687              		.thumb_func
 689              	lv_ll_clear_custom:
 690              	.LVL71:
 691              	.LFB7:
 161:Drivers/lvgl/src/misc/lv_ll.c ****     void * i;
 692              		.loc 1 161 1 is_stmt 1 view -0
 693              		.cfi_startproc
 694              		@ args = 0, pretend = 0, frame = 0
 695              		@ frame_needed = 0, uses_anonymous_args = 0
 161:Drivers/lvgl/src/misc/lv_ll.c ****     void * i;
 696              		.loc 1 161 1 is_stmt 0 view .LVU181
 697 0000 F8B5     		push	{r3, r4, r5, r6, r7, lr}
 698              	.LCFI5:
 699              		.cfi_def_cfa_offset 24
 700              		.cfi_offset 3, -24
 701              		.cfi_offset 4, -20
 702              		.cfi_offset 5, -16
 703              		.cfi_offset 6, -12
 704              		.cfi_offset 7, -8
 705              		.cfi_offset 14, -4
 706 0002 0746     		mov	r7, r0
 707 0004 0E46     		mov	r6, r1
 162:Drivers/lvgl/src/misc/lv_ll.c ****     void * i_next;
 708              		.loc 1 162 5 is_stmt 1 view .LVU182
 163:Drivers/lvgl/src/misc/lv_ll.c **** 
 709              		.loc 1 163 5 view .LVU183
 165:Drivers/lvgl/src/misc/lv_ll.c ****     i_next = NULL;
 710              		.loc 1 165 5 view .LVU184
 165:Drivers/lvgl/src/misc/lv_ll.c ****     i_next = NULL;
 711              		.loc 1 165 14 is_stmt 0 view .LVU185
 712 0006 FFF7FEFF 		bl	lv_ll_get_head
 713              	.LVL72:
 165:Drivers/lvgl/src/misc/lv_ll.c ****     i_next = NULL;
 714              		.loc 1 165 14 view .LVU186
 715 000a 0446     		mov	r4, r0
 716              	.LVL73:
 166:Drivers/lvgl/src/misc/lv_ll.c **** 
ARM GAS  /var/folders/qx/2_175_4n2s19vhvtspjhb3qh0000gn/T//cc1QUPW1.s 			page 22


 717              		.loc 1 166 5 is_stmt 1 view .LVU187
 168:Drivers/lvgl/src/misc/lv_ll.c ****         i_next = lv_ll_get_next(ll_p, i);
 718              		.loc 1 168 5 view .LVU188
 168:Drivers/lvgl/src/misc/lv_ll.c ****         i_next = lv_ll_get_next(ll_p, i);
 719              		.loc 1 168 10 is_stmt 0 view .LVU189
 720 000c 07E0     		b	.L46
 721              	.LVL74:
 722              	.L52:
 171:Drivers/lvgl/src/misc/lv_ll.c ****             lv_free(i);
 723              		.loc 1 171 13 is_stmt 1 view .LVU190
 724 000e 2146     		mov	r1, r4
 725 0010 3846     		mov	r0, r7
 726              	.LVL75:
 171:Drivers/lvgl/src/misc/lv_ll.c ****             lv_free(i);
 727              		.loc 1 171 13 is_stmt 0 view .LVU191
 728 0012 FFF7FEFF 		bl	lv_ll_remove
 729              	.LVL76:
 172:Drivers/lvgl/src/misc/lv_ll.c ****         }
 730              		.loc 1 172 13 is_stmt 1 view .LVU192
 731 0016 2046     		mov	r0, r4
 732 0018 FFF7FEFF 		bl	lv_free
 733              	.LVL77:
 734              	.L48:
 161:Drivers/lvgl/src/misc/lv_ll.c ****     void * i;
 735              		.loc 1 161 1 is_stmt 0 view .LVU193
 736 001c 2C46     		mov	r4, r5
 737              	.LVL78:
 738              	.L46:
 168:Drivers/lvgl/src/misc/lv_ll.c ****         i_next = lv_ll_get_next(ll_p, i);
 739              		.loc 1 168 13 is_stmt 1 view .LVU194
 740 001e 4CB1     		cbz	r4, .L51
 169:Drivers/lvgl/src/misc/lv_ll.c ****         if(cleanup == NULL) {
 741              		.loc 1 169 9 view .LVU195
 169:Drivers/lvgl/src/misc/lv_ll.c ****         if(cleanup == NULL) {
 742              		.loc 1 169 18 is_stmt 0 view .LVU196
 743 0020 2146     		mov	r1, r4
 744 0022 3846     		mov	r0, r7
 745 0024 FFF7FEFF 		bl	lv_ll_get_next
 746              	.LVL79:
 747 0028 0546     		mov	r5, r0
 748              	.LVL80:
 170:Drivers/lvgl/src/misc/lv_ll.c ****             lv_ll_remove(ll_p, i);
 749              		.loc 1 170 9 is_stmt 1 view .LVU197
 170:Drivers/lvgl/src/misc/lv_ll.c ****             lv_ll_remove(ll_p, i);
 750              		.loc 1 170 11 is_stmt 0 view .LVU198
 751 002a 002E     		cmp	r6, #0
 752 002c EFD0     		beq	.L52
 175:Drivers/lvgl/src/misc/lv_ll.c ****         }
 753              		.loc 1 175 13 is_stmt 1 view .LVU199
 754 002e 2046     		mov	r0, r4
 755              	.LVL81:
 175:Drivers/lvgl/src/misc/lv_ll.c ****         }
 756              		.loc 1 175 13 is_stmt 0 view .LVU200
 757 0030 B047     		blx	r6
 758              	.LVL82:
 759 0032 F3E7     		b	.L48
 760              	.LVL83:
ARM GAS  /var/folders/qx/2_175_4n2s19vhvtspjhb3qh0000gn/T//cc1QUPW1.s 			page 23


 761              	.L51:
 179:Drivers/lvgl/src/misc/lv_ll.c **** 
 762              		.loc 1 179 1 view .LVU201
 763 0034 F8BD     		pop	{r3, r4, r5, r6, r7, pc}
 179:Drivers/lvgl/src/misc/lv_ll.c **** 
 764              		.loc 1 179 1 view .LVU202
 765              		.cfi_endproc
 766              	.LFE7:
 768              		.section	.text.lv_ll_chg_list,"ax",%progbits
 769              		.align	1
 770              		.global	lv_ll_chg_list
 771              		.syntax unified
 772              		.thumb
 773              		.thumb_func
 775              	lv_ll_chg_list:
 776              	.LVL84:
 777              	.LFB8:
 182:Drivers/lvgl/src/misc/lv_ll.c ****     lv_ll_remove(ll_ori_p, node);
 778              		.loc 1 182 1 is_stmt 1 view -0
 779              		.cfi_startproc
 780              		@ args = 0, pretend = 0, frame = 0
 781              		@ frame_needed = 0, uses_anonymous_args = 0
 182:Drivers/lvgl/src/misc/lv_ll.c ****     lv_ll_remove(ll_ori_p, node);
 782              		.loc 1 182 1 is_stmt 0 view .LVU204
 783 0000 70B5     		push	{r4, r5, r6, lr}
 784              	.LCFI6:
 785              		.cfi_def_cfa_offset 16
 786              		.cfi_offset 4, -16
 787              		.cfi_offset 5, -12
 788              		.cfi_offset 6, -8
 789              		.cfi_offset 14, -4
 790 0002 0C46     		mov	r4, r1
 791 0004 1546     		mov	r5, r2
 792 0006 1E46     		mov	r6, r3
 183:Drivers/lvgl/src/misc/lv_ll.c **** 
 793              		.loc 1 183 5 is_stmt 1 view .LVU205
 794 0008 1146     		mov	r1, r2
 795              	.LVL85:
 183:Drivers/lvgl/src/misc/lv_ll.c **** 
 796              		.loc 1 183 5 is_stmt 0 view .LVU206
 797 000a FFF7FEFF 		bl	lv_ll_remove
 798              	.LVL86:
 185:Drivers/lvgl/src/misc/lv_ll.c ****         /*Set node as head*/
 799              		.loc 1 185 5 is_stmt 1 view .LVU207
 185:Drivers/lvgl/src/misc/lv_ll.c ****         /*Set node as head*/
 800              		.loc 1 185 7 is_stmt 0 view .LVU208
 801 000e AEB1     		cbz	r6, .L54
 187:Drivers/lvgl/src/misc/lv_ll.c ****         node_set_next(ll_new_p, node, ll_new_p->head);
 802              		.loc 1 187 9 is_stmt 1 view .LVU209
 803 0010 0022     		movs	r2, #0
 804 0012 2946     		mov	r1, r5
 805 0014 2046     		mov	r0, r4
 806 0016 FFF7FEFF 		bl	node_set_prev
 807              	.LVL87:
 188:Drivers/lvgl/src/misc/lv_ll.c **** 
 808              		.loc 1 188 9 view .LVU210
 809 001a 6268     		ldr	r2, [r4, #4]
ARM GAS  /var/folders/qx/2_175_4n2s19vhvtspjhb3qh0000gn/T//cc1QUPW1.s 			page 24


 810 001c 2946     		mov	r1, r5
 811 001e 2046     		mov	r0, r4
 812 0020 FFF7FEFF 		bl	node_set_next
 813              	.LVL88:
 190:Drivers/lvgl/src/misc/lv_ll.c ****             node_set_prev(ll_new_p, ll_new_p->head, node);
 814              		.loc 1 190 9 view .LVU211
 190:Drivers/lvgl/src/misc/lv_ll.c ****             node_set_prev(ll_new_p, ll_new_p->head, node);
 815              		.loc 1 190 20 is_stmt 0 view .LVU212
 816 0024 6168     		ldr	r1, [r4, #4]
 190:Drivers/lvgl/src/misc/lv_ll.c ****             node_set_prev(ll_new_p, ll_new_p->head, node);
 817              		.loc 1 190 11 view .LVU213
 818 0026 19B1     		cbz	r1, .L55
 191:Drivers/lvgl/src/misc/lv_ll.c ****         }
 819              		.loc 1 191 13 is_stmt 1 view .LVU214
 820 0028 2A46     		mov	r2, r5
 821 002a 2046     		mov	r0, r4
 822 002c FFF7FEFF 		bl	node_set_prev
 823              	.LVL89:
 824              	.L55:
 194:Drivers/lvgl/src/misc/lv_ll.c ****         if(ll_new_p->tail == NULL) { /*If there is no tail (first node) set the tail too*/
 825              		.loc 1 194 9 view .LVU215
 194:Drivers/lvgl/src/misc/lv_ll.c ****         if(ll_new_p->tail == NULL) { /*If there is no tail (first node) set the tail too*/
 826              		.loc 1 194 24 is_stmt 0 view .LVU216
 827 0030 6560     		str	r5, [r4, #4]
 195:Drivers/lvgl/src/misc/lv_ll.c ****             ll_new_p->tail = node;
 828              		.loc 1 195 9 is_stmt 1 view .LVU217
 195:Drivers/lvgl/src/misc/lv_ll.c ****             ll_new_p->tail = node;
 829              		.loc 1 195 20 is_stmt 0 view .LVU218
 830 0032 A368     		ldr	r3, [r4, #8]
 195:Drivers/lvgl/src/misc/lv_ll.c ****             ll_new_p->tail = node;
 831              		.loc 1 195 11 view .LVU219
 832 0034 03B1     		cbz	r3, .L59
 833              	.L53:
 213:Drivers/lvgl/src/misc/lv_ll.c **** 
 834              		.loc 1 213 1 view .LVU220
 835 0036 70BD     		pop	{r4, r5, r6, pc}
 836              	.LVL90:
 837              	.L59:
 196:Drivers/lvgl/src/misc/lv_ll.c ****         }
 838              		.loc 1 196 13 is_stmt 1 view .LVU221
 196:Drivers/lvgl/src/misc/lv_ll.c ****         }
 839              		.loc 1 196 28 is_stmt 0 view .LVU222
 840 0038 A560     		str	r5, [r4, #8]
 841 003a FCE7     		b	.L53
 842              	.L54:
 201:Drivers/lvgl/src/misc/lv_ll.c ****         node_set_next(ll_new_p, node, NULL);
 843              		.loc 1 201 9 is_stmt 1 view .LVU223
 844 003c A268     		ldr	r2, [r4, #8]
 845 003e 2946     		mov	r1, r5
 846 0040 2046     		mov	r0, r4
 847 0042 FFF7FEFF 		bl	node_set_prev
 848              	.LVL91:
 202:Drivers/lvgl/src/misc/lv_ll.c **** 
 849              		.loc 1 202 9 view .LVU224
 850 0046 0022     		movs	r2, #0
 851 0048 2946     		mov	r1, r5
 852 004a 2046     		mov	r0, r4
ARM GAS  /var/folders/qx/2_175_4n2s19vhvtspjhb3qh0000gn/T//cc1QUPW1.s 			page 25


 853 004c FFF7FEFF 		bl	node_set_next
 854              	.LVL92:
 204:Drivers/lvgl/src/misc/lv_ll.c ****             node_set_next(ll_new_p, ll_new_p->tail, node);
 855              		.loc 1 204 9 view .LVU225
 204:Drivers/lvgl/src/misc/lv_ll.c ****             node_set_next(ll_new_p, ll_new_p->tail, node);
 856              		.loc 1 204 20 is_stmt 0 view .LVU226
 857 0050 A168     		ldr	r1, [r4, #8]
 204:Drivers/lvgl/src/misc/lv_ll.c ****             node_set_next(ll_new_p, ll_new_p->tail, node);
 858              		.loc 1 204 11 view .LVU227
 859 0052 19B1     		cbz	r1, .L57
 205:Drivers/lvgl/src/misc/lv_ll.c ****         }
 860              		.loc 1 205 13 is_stmt 1 view .LVU228
 861 0054 2A46     		mov	r2, r5
 862 0056 2046     		mov	r0, r4
 863 0058 FFF7FEFF 		bl	node_set_next
 864              	.LVL93:
 865              	.L57:
 208:Drivers/lvgl/src/misc/lv_ll.c ****         if(ll_new_p->head == NULL) { /*If there is no head (first node) set the head too*/
 866              		.loc 1 208 9 view .LVU229
 208:Drivers/lvgl/src/misc/lv_ll.c ****         if(ll_new_p->head == NULL) { /*If there is no head (first node) set the head too*/
 867              		.loc 1 208 24 is_stmt 0 view .LVU230
 868 005c A560     		str	r5, [r4, #8]
 209:Drivers/lvgl/src/misc/lv_ll.c ****             ll_new_p->head = node;
 869              		.loc 1 209 9 is_stmt 1 view .LVU231
 209:Drivers/lvgl/src/misc/lv_ll.c ****             ll_new_p->head = node;
 870              		.loc 1 209 20 is_stmt 0 view .LVU232
 871 005e 6368     		ldr	r3, [r4, #4]
 209:Drivers/lvgl/src/misc/lv_ll.c ****             ll_new_p->head = node;
 872              		.loc 1 209 11 view .LVU233
 873 0060 002B     		cmp	r3, #0
 874 0062 E8D1     		bne	.L53
 210:Drivers/lvgl/src/misc/lv_ll.c ****         }
 875              		.loc 1 210 13 is_stmt 1 view .LVU234
 210:Drivers/lvgl/src/misc/lv_ll.c ****         }
 876              		.loc 1 210 28 is_stmt 0 view .LVU235
 877 0064 6560     		str	r5, [r4, #4]
 213:Drivers/lvgl/src/misc/lv_ll.c **** 
 878              		.loc 1 213 1 view .LVU236
 879 0066 E6E7     		b	.L53
 880              		.cfi_endproc
 881              	.LFE8:
 883              		.section	.text.lv_ll_get_len,"ax",%progbits
 884              		.align	1
 885              		.global	lv_ll_get_len
 886              		.syntax unified
 887              		.thumb
 888              		.thumb_func
 890              	lv_ll_get_len:
 891              	.LVL94:
 892              	.LFB13:
 246:Drivers/lvgl/src/misc/lv_ll.c ****     uint32_t len = 0;
 893              		.loc 1 246 1 is_stmt 1 view -0
 894              		.cfi_startproc
 895              		@ args = 0, pretend = 0, frame = 0
 896              		@ frame_needed = 0, uses_anonymous_args = 0
 246:Drivers/lvgl/src/misc/lv_ll.c ****     uint32_t len = 0;
 897              		.loc 1 246 1 is_stmt 0 view .LVU238
ARM GAS  /var/folders/qx/2_175_4n2s19vhvtspjhb3qh0000gn/T//cc1QUPW1.s 			page 26


 898 0000 38B5     		push	{r3, r4, r5, lr}
 899              	.LCFI7:
 900              		.cfi_def_cfa_offset 16
 901              		.cfi_offset 3, -16
 902              		.cfi_offset 4, -12
 903              		.cfi_offset 5, -8
 904              		.cfi_offset 14, -4
 905 0002 0546     		mov	r5, r0
 247:Drivers/lvgl/src/misc/lv_ll.c ****     void * node;
 906              		.loc 1 247 5 is_stmt 1 view .LVU239
 907              	.LVL95:
 248:Drivers/lvgl/src/misc/lv_ll.c **** 
 908              		.loc 1 248 5 view .LVU240
 250:Drivers/lvgl/src/misc/lv_ll.c ****         len++;
 909              		.loc 1 250 5 view .LVU241
 250:Drivers/lvgl/src/misc/lv_ll.c ****         len++;
 910              		.loc 1 250 16 is_stmt 0 view .LVU242
 911 0004 FFF7FEFF 		bl	lv_ll_get_head
 912              	.LVL96:
 250:Drivers/lvgl/src/misc/lv_ll.c ****         len++;
 913              		.loc 1 250 16 view .LVU243
 914 0008 0146     		mov	r1, r0
 915              	.LVL97:
 247:Drivers/lvgl/src/misc/lv_ll.c ****     void * node;
 916              		.loc 1 247 14 view .LVU244
 917 000a 0024     		movs	r4, #0
 250:Drivers/lvgl/src/misc/lv_ll.c ****         len++;
 918              		.loc 1 250 5 view .LVU245
 919 000c 04E0     		b	.L61
 920              	.LVL98:
 921              	.L62:
 251:Drivers/lvgl/src/misc/lv_ll.c ****     }
 922              		.loc 1 251 9 is_stmt 1 view .LVU246
 251:Drivers/lvgl/src/misc/lv_ll.c ****     }
 923              		.loc 1 251 12 is_stmt 0 view .LVU247
 924 000e 0134     		adds	r4, r4, #1
 925              	.LVL99:
 250:Drivers/lvgl/src/misc/lv_ll.c ****         len++;
 926              		.loc 1 250 57 is_stmt 1 discriminator 3 view .LVU248
 250:Drivers/lvgl/src/misc/lv_ll.c ****         len++;
 927              		.loc 1 250 59 is_stmt 0 discriminator 3 view .LVU249
 928 0010 2846     		mov	r0, r5
 929 0012 FFF7FEFF 		bl	lv_ll_get_next
 930              	.LVL100:
 250:Drivers/lvgl/src/misc/lv_ll.c ****         len++;
 931              		.loc 1 250 59 discriminator 3 view .LVU250
 932 0016 0146     		mov	r1, r0
 933              	.LVL101:
 934              	.L61:
 250:Drivers/lvgl/src/misc/lv_ll.c ****         len++;
 935              		.loc 1 250 43 is_stmt 1 discriminator 1 view .LVU251
 936 0018 0029     		cmp	r1, #0
 937 001a F8D1     		bne	.L62
 254:Drivers/lvgl/src/misc/lv_ll.c **** }
 938              		.loc 1 254 5 view .LVU252
 255:Drivers/lvgl/src/misc/lv_ll.c **** 
 939              		.loc 1 255 1 is_stmt 0 view .LVU253
ARM GAS  /var/folders/qx/2_175_4n2s19vhvtspjhb3qh0000gn/T//cc1QUPW1.s 			page 27


 940 001c 2046     		mov	r0, r4
 941 001e 38BD     		pop	{r3, r4, r5, pc}
 255:Drivers/lvgl/src/misc/lv_ll.c **** 
 942              		.loc 1 255 1 view .LVU254
 943              		.cfi_endproc
 944              	.LFE13:
 946              		.section	.text.lv_ll_move_before,"ax",%progbits
 947              		.align	1
 948              		.global	lv_ll_move_before
 949              		.syntax unified
 950              		.thumb
 951              		.thumb_func
 953              	lv_ll_move_before:
 954              	.LVL102:
 955              	.LFB14:
 258:Drivers/lvgl/src/misc/lv_ll.c ****     if(n_act == n_after) return; /*Can't move before itself*/
 956              		.loc 1 258 1 is_stmt 1 view -0
 957              		.cfi_startproc
 958              		@ args = 0, pretend = 0, frame = 0
 959              		@ frame_needed = 0, uses_anonymous_args = 0
 259:Drivers/lvgl/src/misc/lv_ll.c **** 
 960              		.loc 1 259 5 view .LVU256
 259:Drivers/lvgl/src/misc/lv_ll.c **** 
 961              		.loc 1 259 7 is_stmt 0 view .LVU257
 962 0000 9142     		cmp	r1, r2
 963 0002 2DD0     		beq	.L70
 258:Drivers/lvgl/src/misc/lv_ll.c ****     if(n_act == n_after) return; /*Can't move before itself*/
 964              		.loc 1 258 1 view .LVU258
 965 0004 F8B5     		push	{r3, r4, r5, r6, r7, lr}
 966              	.LCFI8:
 967              		.cfi_def_cfa_offset 24
 968              		.cfi_offset 3, -24
 969              		.cfi_offset 4, -20
 970              		.cfi_offset 5, -16
 971              		.cfi_offset 6, -12
 972              		.cfi_offset 7, -8
 973              		.cfi_offset 14, -4
 974 0006 0646     		mov	r6, r0
 975 0008 0C46     		mov	r4, r1
 976 000a 1546     		mov	r5, r2
 261:Drivers/lvgl/src/misc/lv_ll.c ****     if(n_after != NULL)
 977              		.loc 1 261 5 is_stmt 1 view .LVU259
 262:Drivers/lvgl/src/misc/lv_ll.c ****         n_before = lv_ll_get_prev(ll_p, n_after);
 978              		.loc 1 262 5 view .LVU260
 262:Drivers/lvgl/src/misc/lv_ll.c ****         n_before = lv_ll_get_prev(ll_p, n_after);
 979              		.loc 1 262 7 is_stmt 0 view .LVU261
 980 000c 02B3     		cbz	r2, .L66
 263:Drivers/lvgl/src/misc/lv_ll.c ****     else
 981              		.loc 1 263 9 is_stmt 1 view .LVU262
 263:Drivers/lvgl/src/misc/lv_ll.c ****     else
 982              		.loc 1 263 20 is_stmt 0 view .LVU263
 983 000e 1146     		mov	r1, r2
 984              	.LVL103:
 263:Drivers/lvgl/src/misc/lv_ll.c ****     else
 985              		.loc 1 263 20 view .LVU264
 986 0010 FFF7FEFF 		bl	lv_ll_get_prev
 987              	.LVL104:
ARM GAS  /var/folders/qx/2_175_4n2s19vhvtspjhb3qh0000gn/T//cc1QUPW1.s 			page 28


 263:Drivers/lvgl/src/misc/lv_ll.c ****     else
 988              		.loc 1 263 20 view .LVU265
 989 0014 0746     		mov	r7, r0
 990              	.LVL105:
 991              	.L67:
 267:Drivers/lvgl/src/misc/lv_ll.c **** 
 992              		.loc 1 267 5 is_stmt 1 view .LVU266
 267:Drivers/lvgl/src/misc/lv_ll.c **** 
 993              		.loc 1 267 7 is_stmt 0 view .LVU267
 994 0016 A742     		cmp	r7, r4
 995 0018 19D0     		beq	.L64
 270:Drivers/lvgl/src/misc/lv_ll.c **** 
 996              		.loc 1 270 5 is_stmt 1 view .LVU268
 997 001a 2146     		mov	r1, r4
 998 001c 3046     		mov	r0, r6
 999 001e FFF7FEFF 		bl	lv_ll_remove
 1000              	.LVL106:
 273:Drivers/lvgl/src/misc/lv_ll.c ****     node_set_prev(ll_p, n_act, n_before);
 1001              		.loc 1 273 5 view .LVU269
 1002 0022 2246     		mov	r2, r4
 1003 0024 3946     		mov	r1, r7
 1004 0026 3046     		mov	r0, r6
 1005 0028 FFF7FEFF 		bl	node_set_next
 1006              	.LVL107:
 274:Drivers/lvgl/src/misc/lv_ll.c ****     node_set_prev(ll_p, n_after, n_act);
 1007              		.loc 1 274 5 view .LVU270
 1008 002c 3A46     		mov	r2, r7
 1009 002e 2146     		mov	r1, r4
 1010 0030 3046     		mov	r0, r6
 1011 0032 FFF7FEFF 		bl	node_set_prev
 1012              	.LVL108:
 275:Drivers/lvgl/src/misc/lv_ll.c ****     node_set_next(ll_p, n_act, n_after);
 1013              		.loc 1 275 5 view .LVU271
 1014 0036 2246     		mov	r2, r4
 1015 0038 2946     		mov	r1, r5
 1016 003a 3046     		mov	r0, r6
 1017 003c FFF7FEFF 		bl	node_set_prev
 1018              	.LVL109:
 276:Drivers/lvgl/src/misc/lv_ll.c **** 
 1019              		.loc 1 276 5 view .LVU272
 1020 0040 2A46     		mov	r2, r5
 1021 0042 2146     		mov	r1, r4
 1022 0044 3046     		mov	r0, r6
 1023 0046 FFF7FEFF 		bl	node_set_next
 1024              	.LVL110:
 279:Drivers/lvgl/src/misc/lv_ll.c **** 
 1025              		.loc 1 279 5 view .LVU273
 279:Drivers/lvgl/src/misc/lv_ll.c **** 
 1026              		.loc 1 279 7 is_stmt 0 view .LVU274
 1027 004a 2DB1     		cbz	r5, .L73
 1028              	.L68:
 282:Drivers/lvgl/src/misc/lv_ll.c **** }
 1029              		.loc 1 282 5 is_stmt 1 view .LVU275
 282:Drivers/lvgl/src/misc/lv_ll.c **** }
 1030              		.loc 1 282 7 is_stmt 0 view .LVU276
 1031 004c 37B1     		cbz	r7, .L74
 1032              	.L64:
ARM GAS  /var/folders/qx/2_175_4n2s19vhvtspjhb3qh0000gn/T//cc1QUPW1.s 			page 29


 283:Drivers/lvgl/src/misc/lv_ll.c **** 
 1033              		.loc 1 283 1 view .LVU277
 1034 004e F8BD     		pop	{r3, r4, r5, r6, r7, pc}
 1035              	.LVL111:
 1036              	.L66:
 265:Drivers/lvgl/src/misc/lv_ll.c **** 
 1037              		.loc 1 265 9 is_stmt 1 view .LVU278
 265:Drivers/lvgl/src/misc/lv_ll.c **** 
 1038              		.loc 1 265 20 is_stmt 0 view .LVU279
 1039 0050 FFF7FEFF 		bl	lv_ll_get_tail
 1040              	.LVL112:
 265:Drivers/lvgl/src/misc/lv_ll.c **** 
 1041              		.loc 1 265 20 view .LVU280
 1042 0054 0746     		mov	r7, r0
 1043 0056 DEE7     		b	.L67
 1044              	.LVL113:
 1045              	.L73:
 279:Drivers/lvgl/src/misc/lv_ll.c **** 
 1046              		.loc 1 279 25 is_stmt 1 discriminator 1 view .LVU281
 279:Drivers/lvgl/src/misc/lv_ll.c **** 
 1047              		.loc 1 279 36 is_stmt 0 discriminator 1 view .LVU282
 1048 0058 B460     		str	r4, [r6, #8]
 1049 005a F7E7     		b	.L68
 1050              	.L74:
 282:Drivers/lvgl/src/misc/lv_ll.c **** }
 1051              		.loc 1 282 26 is_stmt 1 discriminator 1 view .LVU283
 282:Drivers/lvgl/src/misc/lv_ll.c **** }
 1052              		.loc 1 282 37 is_stmt 0 discriminator 1 view .LVU284
 1053 005c 7460     		str	r4, [r6, #4]
 1054 005e F6E7     		b	.L64
 1055              	.LVL114:
 1056              	.L70:
 1057              	.LCFI9:
 1058              		.cfi_def_cfa_offset 0
 1059              		.cfi_restore 3
 1060              		.cfi_restore 4
 1061              		.cfi_restore 5
 1062              		.cfi_restore 6
 1063              		.cfi_restore 7
 1064              		.cfi_restore 14
 282:Drivers/lvgl/src/misc/lv_ll.c **** }
 1065              		.loc 1 282 37 discriminator 1 view .LVU285
 1066 0060 7047     		bx	lr
 1067              		.cfi_endproc
 1068              	.LFE14:
 1070              		.section	.text.lv_ll_is_empty,"ax",%progbits
 1071              		.align	1
 1072              		.global	lv_ll_is_empty
 1073              		.syntax unified
 1074              		.thumb
 1075              		.thumb_func
 1077              	lv_ll_is_empty:
 1078              	.LVL115:
 1079              	.LFB15:
 286:Drivers/lvgl/src/misc/lv_ll.c ****     if(ll_p == NULL) return true;
 1080              		.loc 1 286 1 is_stmt 1 view -0
 1081              		.cfi_startproc
ARM GAS  /var/folders/qx/2_175_4n2s19vhvtspjhb3qh0000gn/T//cc1QUPW1.s 			page 30


 1082              		@ args = 0, pretend = 0, frame = 0
 1083              		@ frame_needed = 0, uses_anonymous_args = 0
 1084              		@ link register save eliminated.
 287:Drivers/lvgl/src/misc/lv_ll.c **** 
 1085              		.loc 1 287 5 view .LVU287
 287:Drivers/lvgl/src/misc/lv_ll.c **** 
 1086              		.loc 1 287 7 is_stmt 0 view .LVU288
 1087 0000 38B1     		cbz	r0, .L77
 289:Drivers/lvgl/src/misc/lv_ll.c **** 
 1088              		.loc 1 289 5 is_stmt 1 view .LVU289
 289:Drivers/lvgl/src/misc/lv_ll.c **** 
 1089              		.loc 1 289 12 is_stmt 0 view .LVU290
 1090 0002 4268     		ldr	r2, [r0, #4]
 289:Drivers/lvgl/src/misc/lv_ll.c **** 
 1091              		.loc 1 289 7 view .LVU291
 1092 0004 0AB1     		cbz	r2, .L80
 291:Drivers/lvgl/src/misc/lv_ll.c **** }
 1093              		.loc 1 291 12 view .LVU292
 1094 0006 0020     		movs	r0, #0
 1095              	.LVL116:
 291:Drivers/lvgl/src/misc/lv_ll.c **** }
 1096              		.loc 1 291 12 view .LVU293
 1097 0008 7047     		bx	lr
 1098              	.LVL117:
 1099              	.L80:
 289:Drivers/lvgl/src/misc/lv_ll.c **** 
 1100              		.loc 1 289 34 discriminator 1 view .LVU294
 1101 000a 8368     		ldr	r3, [r0, #8]
 289:Drivers/lvgl/src/misc/lv_ll.c **** 
 1102              		.loc 1 289 27 discriminator 1 view .LVU295
 1103 000c 1BB1     		cbz	r3, .L79
 291:Drivers/lvgl/src/misc/lv_ll.c **** }
 1104              		.loc 1 291 12 view .LVU296
 1105 000e 0020     		movs	r0, #0
 1106              	.LVL118:
 291:Drivers/lvgl/src/misc/lv_ll.c **** }
 1107              		.loc 1 291 12 view .LVU297
 1108 0010 7047     		bx	lr
 1109              	.LVL119:
 1110              	.L77:
 287:Drivers/lvgl/src/misc/lv_ll.c **** 
 1111              		.loc 1 287 29 discriminator 1 view .LVU298
 1112 0012 0120     		movs	r0, #1
 1113              	.LVL120:
 287:Drivers/lvgl/src/misc/lv_ll.c **** 
 1114              		.loc 1 287 29 discriminator 1 view .LVU299
 1115 0014 7047     		bx	lr
 1116              	.LVL121:
 1117              	.L79:
 289:Drivers/lvgl/src/misc/lv_ll.c **** 
 1118              		.loc 1 289 57 discriminator 2 view .LVU300
 1119 0016 0120     		movs	r0, #1
 1120              	.LVL122:
 292:Drivers/lvgl/src/misc/lv_ll.c **** 
 1121              		.loc 1 292 1 view .LVU301
 1122 0018 7047     		bx	lr
 1123              		.cfi_endproc
ARM GAS  /var/folders/qx/2_175_4n2s19vhvtspjhb3qh0000gn/T//cc1QUPW1.s 			page 31


 1124              	.LFE15:
 1126              		.section	.text.lv_ll_clear,"ax",%progbits
 1127              		.align	1
 1128              		.global	lv_ll_clear
 1129              		.syntax unified
 1130              		.thumb
 1131              		.thumb_func
 1133              	lv_ll_clear:
 1134              	.LVL123:
 1135              	.LFB16:
 295:Drivers/lvgl/src/misc/lv_ll.c ****     lv_ll_clear_custom(ll_p, NULL);
 1136              		.loc 1 295 1 is_stmt 1 view -0
 1137              		.cfi_startproc
 1138              		@ args = 0, pretend = 0, frame = 0
 1139              		@ frame_needed = 0, uses_anonymous_args = 0
 295:Drivers/lvgl/src/misc/lv_ll.c ****     lv_ll_clear_custom(ll_p, NULL);
 1140              		.loc 1 295 1 is_stmt 0 view .LVU303
 1141 0000 08B5     		push	{r3, lr}
 1142              	.LCFI10:
 1143              		.cfi_def_cfa_offset 8
 1144              		.cfi_offset 3, -8
 1145              		.cfi_offset 14, -4
 296:Drivers/lvgl/src/misc/lv_ll.c **** }
 1146              		.loc 1 296 5 is_stmt 1 view .LVU304
 1147 0002 0021     		movs	r1, #0
 1148 0004 FFF7FEFF 		bl	lv_ll_clear_custom
 1149              	.LVL124:
 297:Drivers/lvgl/src/misc/lv_ll.c **** 
 1150              		.loc 1 297 1 is_stmt 0 view .LVU305
 1151 0008 08BD     		pop	{r3, pc}
 1152              		.cfi_endproc
 1153              	.LFE16:
 1155              		.text
 1156              	.Letext0:
 1157              		.file 2 "/Applications/ArmGNUToolchain/14.3.rel1/arm-none-eabi/arm-none-eabi/include/machine/_defa
 1158              		.file 3 "/Applications/ArmGNUToolchain/14.3.rel1/arm-none-eabi/arm-none-eabi/include/sys/_stdint.h
 1159              		.file 4 "/Applications/ArmGNUToolchain/14.3.rel1/arm-none-eabi/lib/gcc/arm-none-eabi/14.3.1/includ
 1160              		.file 5 "Drivers/lvgl/src/misc/lv_ll.h"
 1161              		.file 6 "Drivers/lvgl/src/misc/../stdlib/lv_mem.h"
ARM GAS  /var/folders/qx/2_175_4n2s19vhvtspjhb3qh0000gn/T//cc1QUPW1.s 			page 32

