ARM GAS  /var/folders/qx/2_175_4n2s19vhvtspjhb3qh0000gn/T//ccc2Jk7F.s 			page 1


   1              		.cpu cortex-m4
   2              		.arch armv7e-m
   3              		.fpu fpv4-sp-d16
   4              		.eabi_attribute 27, 1
   5              		.eabi_attribute 28, 1
   6              		.eabi_attribute 20, 1
   7              		.eabi_attribute 21, 1
   8              		.eabi_attribute 23, 3
   9              		.eabi_attribute 24, 1
  10              		.eabi_attribute 25, 1
  11              		.eabi_attribute 26, 1
  12              		.eabi_attribute 30, 1
  13              		.eabi_attribute 34, 1
  14              		.eabi_attribute 18, 4
  15              		.file	"lv_text.c"
  16              		.text
  17              	.Ltext0:
  18              		.cfi_sections	.debug_frame
  19              		.file 1 "Drivers/lvgl/src/misc/lv_text.c"
  20              		.section	.text.lv_text_is_a_word,"ax",%progbits
  21              		.align	1
  22              		.syntax unified
  23              		.thumb
  24              		.thumb_func
  26              	lv_text_is_a_word:
  27              	.LVL0:
  28              	.LFB11:
  29              		.file 2 "Drivers/lvgl/src/misc/lv_text_private.h"
   1:Drivers/lvgl/src/misc/lv_text_private.h **** /**
   2:Drivers/lvgl/src/misc/lv_text_private.h ****  * @file lv_text_private.h
   3:Drivers/lvgl/src/misc/lv_text_private.h ****  *
   4:Drivers/lvgl/src/misc/lv_text_private.h ****  */
   5:Drivers/lvgl/src/misc/lv_text_private.h **** 
   6:Drivers/lvgl/src/misc/lv_text_private.h **** #ifndef LV_TEXT_PRIVATE_H
   7:Drivers/lvgl/src/misc/lv_text_private.h **** #define LV_TEXT_PRIVATE_H
   8:Drivers/lvgl/src/misc/lv_text_private.h **** 
   9:Drivers/lvgl/src/misc/lv_text_private.h **** #ifdef __cplusplus
  10:Drivers/lvgl/src/misc/lv_text_private.h **** extern "C" {
  11:Drivers/lvgl/src/misc/lv_text_private.h **** #endif
  12:Drivers/lvgl/src/misc/lv_text_private.h **** 
  13:Drivers/lvgl/src/misc/lv_text_private.h **** /*********************
  14:Drivers/lvgl/src/misc/lv_text_private.h ****  *      INCLUDES
  15:Drivers/lvgl/src/misc/lv_text_private.h ****  *********************/
  16:Drivers/lvgl/src/misc/lv_text_private.h **** 
  17:Drivers/lvgl/src/misc/lv_text_private.h **** #include "lv_text.h"
  18:Drivers/lvgl/src/misc/lv_text_private.h **** 
  19:Drivers/lvgl/src/misc/lv_text_private.h **** /*********************
  20:Drivers/lvgl/src/misc/lv_text_private.h ****  *      DEFINES
  21:Drivers/lvgl/src/misc/lv_text_private.h ****  *********************/
  22:Drivers/lvgl/src/misc/lv_text_private.h **** 
  23:Drivers/lvgl/src/misc/lv_text_private.h **** #ifndef LV_TXT_COLOR_CMD
  24:Drivers/lvgl/src/misc/lv_text_private.h **** #define LV_TXT_COLOR_CMD "#"
  25:Drivers/lvgl/src/misc/lv_text_private.h **** #endif
  26:Drivers/lvgl/src/misc/lv_text_private.h **** 
  27:Drivers/lvgl/src/misc/lv_text_private.h **** #define LV_TXT_ENC_UTF8 1
  28:Drivers/lvgl/src/misc/lv_text_private.h **** #define LV_TXT_ENC_ASCII 2
  29:Drivers/lvgl/src/misc/lv_text_private.h **** 
ARM GAS  /var/folders/qx/2_175_4n2s19vhvtspjhb3qh0000gn/T//ccc2Jk7F.s 			page 2


  30:Drivers/lvgl/src/misc/lv_text_private.h **** #define LV_TEXT_LEN_MAX UINT32_MAX
  31:Drivers/lvgl/src/misc/lv_text_private.h **** 
  32:Drivers/lvgl/src/misc/lv_text_private.h **** /**********************
  33:Drivers/lvgl/src/misc/lv_text_private.h ****  *      TYPEDEFS
  34:Drivers/lvgl/src/misc/lv_text_private.h ****  **********************/
  35:Drivers/lvgl/src/misc/lv_text_private.h **** 
  36:Drivers/lvgl/src/misc/lv_text_private.h **** /** State machine for text renderer. */
  37:Drivers/lvgl/src/misc/lv_text_private.h **** typedef enum {
  38:Drivers/lvgl/src/misc/lv_text_private.h ****     LV_TEXT_CMD_STATE_WAIT, /**< Waiting for command*/
  39:Drivers/lvgl/src/misc/lv_text_private.h ****     LV_TEXT_CMD_STATE_PAR,  /**< Processing the parameter*/
  40:Drivers/lvgl/src/misc/lv_text_private.h ****     LV_TEXT_CMD_STATE_IN,   /**< Processing the command*/
  41:Drivers/lvgl/src/misc/lv_text_private.h **** } lv_text_cmd_state_t;
  42:Drivers/lvgl/src/misc/lv_text_private.h **** 
  43:Drivers/lvgl/src/misc/lv_text_private.h **** typedef struct {
  44:Drivers/lvgl/src/misc/lv_text_private.h ****     int32_t letter_space;   /**< Letter space between letters*/
  45:Drivers/lvgl/src/misc/lv_text_private.h ****     int32_t line_space;     /**< Space between lines of text*/
  46:Drivers/lvgl/src/misc/lv_text_private.h ****     int32_t max_width;      /**< Max width of the text (break the lines to fit this size). Set COOR
  47:Drivers/lvgl/src/misc/lv_text_private.h ****     lv_text_flag_t text_flags;
  48:Drivers/lvgl/src/misc/lv_text_private.h **** } lv_text_attributes_t;
  49:Drivers/lvgl/src/misc/lv_text_private.h **** 
  50:Drivers/lvgl/src/misc/lv_text_private.h **** 
  51:Drivers/lvgl/src/misc/lv_text_private.h **** /**********************
  52:Drivers/lvgl/src/misc/lv_text_private.h ****  * GLOBAL PROTOTYPES
  53:Drivers/lvgl/src/misc/lv_text_private.h ****  **********************/
  54:Drivers/lvgl/src/misc/lv_text_private.h **** 
  55:Drivers/lvgl/src/misc/lv_text_private.h **** /**
  56:Drivers/lvgl/src/misc/lv_text_private.h ****  * Initialize the text attributes descriptor
  57:Drivers/lvgl/src/misc/lv_text_private.h ****  * @param attributes the text attributes descriptor to initialize
  58:Drivers/lvgl/src/misc/lv_text_private.h ****  */
  59:Drivers/lvgl/src/misc/lv_text_private.h **** void lv_text_attributes_init(lv_text_attributes_t * attributes);
  60:Drivers/lvgl/src/misc/lv_text_private.h **** 
  61:Drivers/lvgl/src/misc/lv_text_private.h **** /**
  62:Drivers/lvgl/src/misc/lv_text_private.h ****  * Get size of a text
  63:Drivers/lvgl/src/misc/lv_text_private.h ****  * @param size_res pointer to a 'point_t' variable to store the result
  64:Drivers/lvgl/src/misc/lv_text_private.h ****  * @param text pointer to a text
  65:Drivers/lvgl/src/misc/lv_text_private.h ****  * @param font pointer to font of the text
  66:Drivers/lvgl/src/misc/lv_text_private.h ****  * @param attributes the text attributes, flags for line break behaviour, spacing etc
  67:Drivers/lvgl/src/misc/lv_text_private.h ****  */
  68:Drivers/lvgl/src/misc/lv_text_private.h **** void lv_text_get_size_attributes(lv_point_t * size_res, const char * text, const lv_font_t * font,
  69:Drivers/lvgl/src/misc/lv_text_private.h ****                                  lv_text_attributes_t * attributes);
  70:Drivers/lvgl/src/misc/lv_text_private.h **** /**
  71:Drivers/lvgl/src/misc/lv_text_private.h ****  * Give the length of a text with a given font with text flags
  72:Drivers/lvgl/src/misc/lv_text_private.h ****  * @param txt a '\0' terminate string
  73:Drivers/lvgl/src/misc/lv_text_private.h ****  * @param length length of 'txt' in byte count and not characters (Á is 1 character but 2 bytes in
  74:Drivers/lvgl/src/misc/lv_text_private.h ****  * UTF-8)
  75:Drivers/lvgl/src/misc/lv_text_private.h ****  * @param font pointer to font of the text
  76:Drivers/lvgl/src/misc/lv_text_private.h ****  * @param attributes the text attributes, flags for line break behaviour, spacing etc
  77:Drivers/lvgl/src/misc/lv_text_private.h ****  * @return length of a char_num long text
  78:Drivers/lvgl/src/misc/lv_text_private.h ****  */
  79:Drivers/lvgl/src/misc/lv_text_private.h **** int32_t lv_text_get_width(const char * txt, uint32_t length, const lv_font_t * font,
  80:Drivers/lvgl/src/misc/lv_text_private.h ****                           const lv_text_attributes_t * attributes);
  81:Drivers/lvgl/src/misc/lv_text_private.h **** 
  82:Drivers/lvgl/src/misc/lv_text_private.h **** /**
  83:Drivers/lvgl/src/misc/lv_text_private.h ****  * Check if c is command state
  84:Drivers/lvgl/src/misc/lv_text_private.h ****  * @param state
  85:Drivers/lvgl/src/misc/lv_text_private.h ****  * @param c
  86:Drivers/lvgl/src/misc/lv_text_private.h ****  * @return True if c is state
ARM GAS  /var/folders/qx/2_175_4n2s19vhvtspjhb3qh0000gn/T//ccc2Jk7F.s 			page 3


  87:Drivers/lvgl/src/misc/lv_text_private.h ****  */
  88:Drivers/lvgl/src/misc/lv_text_private.h **** bool lv_text_is_cmd(lv_text_cmd_state_t * state, uint32_t c);
  89:Drivers/lvgl/src/misc/lv_text_private.h **** 
  90:Drivers/lvgl/src/misc/lv_text_private.h **** /**
  91:Drivers/lvgl/src/misc/lv_text_private.h ****  * Get the next line of text. Check line length and break chars too.
  92:Drivers/lvgl/src/misc/lv_text_private.h ****  * @param txt a '\0' terminated string
  93:Drivers/lvgl/src/misc/lv_text_private.h ****  * @param len length of 'txt' in bytes
  94:Drivers/lvgl/src/misc/lv_text_private.h ****  * @param font pointer to a font
  95:Drivers/lvgl/src/misc/lv_text_private.h ****  * @param used_width When used_width != NULL, save the width of this line if
  96:Drivers/lvgl/src/misc/lv_text_private.h ****  * flag == LV_TEXT_FLAG_NONE, otherwise save -1.
  97:Drivers/lvgl/src/misc/lv_text_private.h ****  * @param attributes text attributes, flags to control line break behaviour, spacing etc
  98:Drivers/lvgl/src/misc/lv_text_private.h ****  * @return the index of the first char of the new line
  99:Drivers/lvgl/src/misc/lv_text_private.h ****  *         (in byte index not letter index. With UTF-8  they are different)
 100:Drivers/lvgl/src/misc/lv_text_private.h ****  */
 101:Drivers/lvgl/src/misc/lv_text_private.h **** uint32_t lv_text_get_next_line(const char * txt, uint32_t len, const lv_font_t * font, int32_t * us
 102:Drivers/lvgl/src/misc/lv_text_private.h ****                                lv_text_attributes_t * attributes);
 103:Drivers/lvgl/src/misc/lv_text_private.h **** 
 104:Drivers/lvgl/src/misc/lv_text_private.h **** /**
 105:Drivers/lvgl/src/misc/lv_text_private.h ****  * Insert a string into another
 106:Drivers/lvgl/src/misc/lv_text_private.h ****  * @param txt_buf the original text (must be big enough for the result text and NULL terminated)
 107:Drivers/lvgl/src/misc/lv_text_private.h ****  * @param pos position to insert (0: before the original text, 1: after the first char etc.)
 108:Drivers/lvgl/src/misc/lv_text_private.h ****  * @param ins_txt text to insert, must be '\0' terminated
 109:Drivers/lvgl/src/misc/lv_text_private.h ****  */
 110:Drivers/lvgl/src/misc/lv_text_private.h **** void lv_text_ins(char * txt_buf, uint32_t pos, const char * ins_txt);
 111:Drivers/lvgl/src/misc/lv_text_private.h **** 
 112:Drivers/lvgl/src/misc/lv_text_private.h **** /**
 113:Drivers/lvgl/src/misc/lv_text_private.h ****  * Delete a part of a string
 114:Drivers/lvgl/src/misc/lv_text_private.h ****  * @param txt string to modify, must be '\0' terminated and should point to a heap or stack frame, 
 115:Drivers/lvgl/src/misc/lv_text_private.h ****  * @param pos position where to start the deleting (0: before the first char, 1: after the first
 116:Drivers/lvgl/src/misc/lv_text_private.h ****  * char etc.)
 117:Drivers/lvgl/src/misc/lv_text_private.h ****  * @param len number of characters to delete
 118:Drivers/lvgl/src/misc/lv_text_private.h ****  */
 119:Drivers/lvgl/src/misc/lv_text_private.h **** void lv_text_cut(char * txt, uint32_t pos, uint32_t len);
 120:Drivers/lvgl/src/misc/lv_text_private.h **** 
 121:Drivers/lvgl/src/misc/lv_text_private.h **** /**
 122:Drivers/lvgl/src/misc/lv_text_private.h ****  * Return a new formatted text. Memory will be allocated to store the text.
 123:Drivers/lvgl/src/misc/lv_text_private.h ****  * @param fmt `printf`-like format
 124:Drivers/lvgl/src/misc/lv_text_private.h ****  * @param ap items to print
 125:Drivers/lvgl/src/misc/lv_text_private.h **** 
 126:Drivers/lvgl/src/misc/lv_text_private.h ****  * @return pointer to the allocated text string.
 127:Drivers/lvgl/src/misc/lv_text_private.h ****  */
 128:Drivers/lvgl/src/misc/lv_text_private.h **** char * lv_text_set_text_vfmt(const char * fmt, va_list ap) LV_FORMAT_ATTRIBUTE(1, 0);
 129:Drivers/lvgl/src/misc/lv_text_private.h **** 
 130:Drivers/lvgl/src/misc/lv_text_private.h **** /**
 131:Drivers/lvgl/src/misc/lv_text_private.h ****  * Decode two encoded character from a string.
 132:Drivers/lvgl/src/misc/lv_text_private.h ****  * @param txt pointer to '\0' terminated string
 133:Drivers/lvgl/src/misc/lv_text_private.h ****  * @param letter the first decoded Unicode character or 0 on invalid data code
 134:Drivers/lvgl/src/misc/lv_text_private.h ****  * @param letter_next the second decoded Unicode character or 0 on invalid data code
 135:Drivers/lvgl/src/misc/lv_text_private.h ****  * @param ofs start index in 'txt' where to start.
 136:Drivers/lvgl/src/misc/lv_text_private.h ****  *                After the call it will point to the next encoded char in 'txt'.
 137:Drivers/lvgl/src/misc/lv_text_private.h ****  *                NULL to use txt[0] as index
 138:Drivers/lvgl/src/misc/lv_text_private.h ****  */
 139:Drivers/lvgl/src/misc/lv_text_private.h **** void lv_text_encoded_letter_next_2(const char * txt, uint32_t * letter, uint32_t * letter_next, uin
 140:Drivers/lvgl/src/misc/lv_text_private.h **** 
 141:Drivers/lvgl/src/misc/lv_text_private.h **** /**
 142:Drivers/lvgl/src/misc/lv_text_private.h ****  * Test if char is break char or not (a text can broken here or not)
 143:Drivers/lvgl/src/misc/lv_text_private.h ****  * @param letter a letter
ARM GAS  /var/folders/qx/2_175_4n2s19vhvtspjhb3qh0000gn/T//ccc2Jk7F.s 			page 4


 144:Drivers/lvgl/src/misc/lv_text_private.h ****  * @return false: 'letter' is not break char
 145:Drivers/lvgl/src/misc/lv_text_private.h ****  */
 146:Drivers/lvgl/src/misc/lv_text_private.h **** static inline bool lv_text_is_break_char(uint32_t letter)
 147:Drivers/lvgl/src/misc/lv_text_private.h **** {
 148:Drivers/lvgl/src/misc/lv_text_private.h ****     uint8_t i;
 149:Drivers/lvgl/src/misc/lv_text_private.h ****     bool ret = false;
 150:Drivers/lvgl/src/misc/lv_text_private.h **** 
 151:Drivers/lvgl/src/misc/lv_text_private.h ****     /*Compare the letter to TXT_BREAK_CHARS*/
 152:Drivers/lvgl/src/misc/lv_text_private.h ****     for(i = 0; LV_TXT_BREAK_CHARS[i] != '\0'; i++) {
 153:Drivers/lvgl/src/misc/lv_text_private.h ****         if(letter == (uint32_t)LV_TXT_BREAK_CHARS[i]) {
 154:Drivers/lvgl/src/misc/lv_text_private.h ****             ret = true; /*If match then it is break char*/
 155:Drivers/lvgl/src/misc/lv_text_private.h ****             break;
 156:Drivers/lvgl/src/misc/lv_text_private.h ****         }
 157:Drivers/lvgl/src/misc/lv_text_private.h ****     }
 158:Drivers/lvgl/src/misc/lv_text_private.h **** 
 159:Drivers/lvgl/src/misc/lv_text_private.h ****     return ret;
 160:Drivers/lvgl/src/misc/lv_text_private.h **** }
 161:Drivers/lvgl/src/misc/lv_text_private.h **** 
 162:Drivers/lvgl/src/misc/lv_text_private.h **** /**
 163:Drivers/lvgl/src/misc/lv_text_private.h ****  * Test if char is break char or not (a text can broken here or not)
 164:Drivers/lvgl/src/misc/lv_text_private.h ****  * @param letter a letter
 165:Drivers/lvgl/src/misc/lv_text_private.h ****  * @return false: 'letter' is not break char
 166:Drivers/lvgl/src/misc/lv_text_private.h ****  */
 167:Drivers/lvgl/src/misc/lv_text_private.h **** static inline bool lv_text_is_a_word(uint32_t letter)
 168:Drivers/lvgl/src/misc/lv_text_private.h **** {
  30              		.loc 2 168 1 view -0
  31              		.cfi_startproc
  32              		@ args = 0, pretend = 0, frame = 0
  33              		@ frame_needed = 0, uses_anonymous_args = 0
  34              		@ link register save eliminated.
 169:Drivers/lvgl/src/misc/lv_text_private.h ****     /*Cheap check on invalid letter*/
 170:Drivers/lvgl/src/misc/lv_text_private.h ****     if(letter == 0) return false;
  35              		.loc 2 170 5 view .LVU1
  36              		.loc 2 170 7 is_stmt 0 view .LVU2
  37 0000 30B3     		cbz	r0, .L3
 171:Drivers/lvgl/src/misc/lv_text_private.h **** 
 172:Drivers/lvgl/src/misc/lv_text_private.h ****     /*CJK Unified Ideographs*/
 173:Drivers/lvgl/src/misc/lv_text_private.h ****     if(letter >= 0x4E00 && letter <= 0x9FFF) {
  38              		.loc 2 173 5 is_stmt 1 view .LVU3
  39              		.loc 2 173 25 is_stmt 0 view .LVU4
  40 0002 A0F59C42 		sub	r2, r0, #19968
  41              		.loc 2 173 7 view .LVU5
  42 0006 B2F5A44F 		cmp	r2, #20992
  43 000a 23D3     		bcc	.L4
 174:Drivers/lvgl/src/misc/lv_text_private.h ****         return true;
 175:Drivers/lvgl/src/misc/lv_text_private.h ****     }
 176:Drivers/lvgl/src/misc/lv_text_private.h **** 
 177:Drivers/lvgl/src/misc/lv_text_private.h ****     /*Fullwidth ASCII variants*/
 178:Drivers/lvgl/src/misc/lv_text_private.h ****     if(letter >= 0xFF01 && letter <= 0xFF5E) {
  44              		.loc 2 178 5 is_stmt 1 view .LVU6
  45              		.loc 2 178 25 is_stmt 0 view .LVU7
  46 000c 00F17F42 		add	r2, r0, #-16777216
  47 0010 02F1FF12 		add	r2, r2, #16711935
  48              		.loc 2 178 7 view .LVU8
  49 0014 5D2A     		cmp	r2, #93
  50 0016 1FD9     		bls	.L5
 179:Drivers/lvgl/src/misc/lv_text_private.h ****         return true;
ARM GAS  /var/folders/qx/2_175_4n2s19vhvtspjhb3qh0000gn/T//ccc2Jk7F.s 			page 5


 180:Drivers/lvgl/src/misc/lv_text_private.h ****     }
 181:Drivers/lvgl/src/misc/lv_text_private.h **** 
 182:Drivers/lvgl/src/misc/lv_text_private.h ****     /*CJK symbols and punctuation*/
 183:Drivers/lvgl/src/misc/lv_text_private.h ****     if(letter >= 0x3000 && letter <= 0x303F) {
  51              		.loc 2 183 5 is_stmt 1 view .LVU9
  52              		.loc 2 183 25 is_stmt 0 view .LVU10
  53 0018 A0F54052 		sub	r2, r0, #12288
  54              		.loc 2 183 7 view .LVU11
  55 001c 3F2A     		cmp	r2, #63
  56 001e 1DD9     		bls	.L6
 184:Drivers/lvgl/src/misc/lv_text_private.h ****         return true;
 185:Drivers/lvgl/src/misc/lv_text_private.h ****     }
 186:Drivers/lvgl/src/misc/lv_text_private.h **** 
 187:Drivers/lvgl/src/misc/lv_text_private.h ****     /*CJK Radicals Supplement*/
 188:Drivers/lvgl/src/misc/lv_text_private.h ****     if(letter >= 0x2E80 && letter <= 0x2EFF) {
  57              		.loc 2 188 5 is_stmt 1 view .LVU12
  58              		.loc 2 188 25 is_stmt 0 view .LVU13
  59 0020 A0F53A52 		sub	r2, r0, #11904
  60              		.loc 2 188 7 view .LVU14
  61 0024 7F2A     		cmp	r2, #127
  62 0026 1BD9     		bls	.L7
 189:Drivers/lvgl/src/misc/lv_text_private.h ****         return true;
 190:Drivers/lvgl/src/misc/lv_text_private.h ****     }
 191:Drivers/lvgl/src/misc/lv_text_private.h **** 
 192:Drivers/lvgl/src/misc/lv_text_private.h ****     /*CJK Strokes*/
 193:Drivers/lvgl/src/misc/lv_text_private.h ****     if(letter >= 0x31C0 && letter <= 0x31EF) {
  63              		.loc 2 193 5 is_stmt 1 view .LVU15
  64              		.loc 2 193 25 is_stmt 0 view .LVU16
  65 0028 A0F54752 		sub	r2, r0, #12736
  66              		.loc 2 193 7 view .LVU17
  67 002c 2F2A     		cmp	r2, #47
  68 002e 19D9     		bls	.L8
 194:Drivers/lvgl/src/misc/lv_text_private.h ****         return true;
 195:Drivers/lvgl/src/misc/lv_text_private.h ****     }
 196:Drivers/lvgl/src/misc/lv_text_private.h **** 
 197:Drivers/lvgl/src/misc/lv_text_private.h ****     /*Hiragana and Katakana*/
 198:Drivers/lvgl/src/misc/lv_text_private.h ****     if(letter >= 0x3040 && letter <= 0x30FF) {
  69              		.loc 2 198 5 is_stmt 1 view .LVU18
  70              		.loc 2 198 25 is_stmt 0 view .LVU19
  71 0030 A0F54152 		sub	r2, r0, #12352
  72              		.loc 2 198 7 view .LVU20
  73 0034 BF2A     		cmp	r2, #191
  74 0036 17D9     		bls	.L9
 199:Drivers/lvgl/src/misc/lv_text_private.h ****         return true;
 200:Drivers/lvgl/src/misc/lv_text_private.h ****     }
 201:Drivers/lvgl/src/misc/lv_text_private.h **** 
 202:Drivers/lvgl/src/misc/lv_text_private.h ****     /*Chinese Vertical Forms*/
 203:Drivers/lvgl/src/misc/lv_text_private.h ****     if(letter >= 0xFE10 && letter <= 0xFE1F) {
  75              		.loc 2 203 5 is_stmt 1 view .LVU21
  76              		.loc 2 203 25 is_stmt 0 view .LVU22
  77 0038 A0F57E42 		sub	r2, r0, #65024
  78 003c 103A     		subs	r2, r2, #16
  79              		.loc 2 203 7 view .LVU23
  80 003e 0F2A     		cmp	r2, #15
  81 0040 14D9     		bls	.L10
 204:Drivers/lvgl/src/misc/lv_text_private.h ****         return true;
 205:Drivers/lvgl/src/misc/lv_text_private.h ****     }
ARM GAS  /var/folders/qx/2_175_4n2s19vhvtspjhb3qh0000gn/T//ccc2Jk7F.s 			page 6


 206:Drivers/lvgl/src/misc/lv_text_private.h **** 
 207:Drivers/lvgl/src/misc/lv_text_private.h ****     /*CJK Compatibility Forms*/
 208:Drivers/lvgl/src/misc/lv_text_private.h ****     if(letter >= 0xFE30 && letter <= 0xFE4F) {
  82              		.loc 2 208 5 is_stmt 1 view .LVU24
  83              		.loc 2 208 25 is_stmt 0 view .LVU25
  84 0042 A0F57E43 		sub	r3, r0, #65024
  85 0046 303B     		subs	r3, r3, #48
  86              		.loc 2 208 7 view .LVU26
  87 0048 1F2B     		cmp	r3, #31
  88 004a 11D9     		bls	.L11
 209:Drivers/lvgl/src/misc/lv_text_private.h ****         return true;
 210:Drivers/lvgl/src/misc/lv_text_private.h ****     }
 211:Drivers/lvgl/src/misc/lv_text_private.h **** 
 212:Drivers/lvgl/src/misc/lv_text_private.h ****     return false;
  89              		.loc 2 212 12 view .LVU27
  90 004c 0020     		movs	r0, #0
  91              	.LVL1:
  92              		.loc 2 212 12 view .LVU28
  93 004e 7047     		bx	lr
  94              	.LVL2:
  95              	.L3:
 170:Drivers/lvgl/src/misc/lv_text_private.h **** 
  96              		.loc 2 170 28 discriminator 1 view .LVU29
  97 0050 0020     		movs	r0, #0
  98              	.LVL3:
 170:Drivers/lvgl/src/misc/lv_text_private.h **** 
  99              		.loc 2 170 28 discriminator 1 view .LVU30
 100 0052 7047     		bx	lr
 101              	.LVL4:
 102              	.L4:
 174:Drivers/lvgl/src/misc/lv_text_private.h ****     }
 103              		.loc 2 174 16 view .LVU31
 104 0054 0120     		movs	r0, #1
 105              	.LVL5:
 174:Drivers/lvgl/src/misc/lv_text_private.h ****     }
 106              		.loc 2 174 16 view .LVU32
 107 0056 7047     		bx	lr
 108              	.LVL6:
 109              	.L5:
 179:Drivers/lvgl/src/misc/lv_text_private.h ****     }
 110              		.loc 2 179 16 view .LVU33
 111 0058 0120     		movs	r0, #1
 112              	.LVL7:
 179:Drivers/lvgl/src/misc/lv_text_private.h ****     }
 113              		.loc 2 179 16 view .LVU34
 114 005a 7047     		bx	lr
 115              	.LVL8:
 116              	.L6:
 184:Drivers/lvgl/src/misc/lv_text_private.h ****     }
 117              		.loc 2 184 16 view .LVU35
 118 005c 0120     		movs	r0, #1
 119              	.LVL9:
 184:Drivers/lvgl/src/misc/lv_text_private.h ****     }
 120              		.loc 2 184 16 view .LVU36
 121 005e 7047     		bx	lr
 122              	.LVL10:
 123              	.L7:
ARM GAS  /var/folders/qx/2_175_4n2s19vhvtspjhb3qh0000gn/T//ccc2Jk7F.s 			page 7


 189:Drivers/lvgl/src/misc/lv_text_private.h ****     }
 124              		.loc 2 189 16 view .LVU37
 125 0060 0120     		movs	r0, #1
 126              	.LVL11:
 189:Drivers/lvgl/src/misc/lv_text_private.h ****     }
 127              		.loc 2 189 16 view .LVU38
 128 0062 7047     		bx	lr
 129              	.LVL12:
 130              	.L8:
 194:Drivers/lvgl/src/misc/lv_text_private.h ****     }
 131              		.loc 2 194 16 view .LVU39
 132 0064 0120     		movs	r0, #1
 133              	.LVL13:
 194:Drivers/lvgl/src/misc/lv_text_private.h ****     }
 134              		.loc 2 194 16 view .LVU40
 135 0066 7047     		bx	lr
 136              	.LVL14:
 137              	.L9:
 199:Drivers/lvgl/src/misc/lv_text_private.h ****     }
 138              		.loc 2 199 16 view .LVU41
 139 0068 0120     		movs	r0, #1
 140              	.LVL15:
 199:Drivers/lvgl/src/misc/lv_text_private.h ****     }
 141              		.loc 2 199 16 view .LVU42
 142 006a 7047     		bx	lr
 143              	.LVL16:
 144              	.L10:
 204:Drivers/lvgl/src/misc/lv_text_private.h ****     }
 145              		.loc 2 204 16 view .LVU43
 146 006c 0120     		movs	r0, #1
 147              	.LVL17:
 204:Drivers/lvgl/src/misc/lv_text_private.h ****     }
 148              		.loc 2 204 16 view .LVU44
 149 006e 7047     		bx	lr
 150              	.LVL18:
 151              	.L11:
 209:Drivers/lvgl/src/misc/lv_text_private.h ****     }
 152              		.loc 2 209 16 view .LVU45
 153 0070 0120     		movs	r0, #1
 154              	.LVL19:
 213:Drivers/lvgl/src/misc/lv_text_private.h **** }
 155              		.loc 2 213 1 view .LVU46
 156 0072 7047     		bx	lr
 157              		.cfi_endproc
 158              	.LFE11:
 160              		.section	.text.lv_text_utf8_size,"ax",%progbits
 161              		.align	1
 162              		.syntax unified
 163              		.thumb
 164              		.thumb_func
 166              	lv_text_utf8_size:
 167              	.LVL20:
 168              	.LFB45:
   1:Drivers/lvgl/src/misc/lv_text.c **** /**
   2:Drivers/lvgl/src/misc/lv_text.c ****  * @file lv_text.c
   3:Drivers/lvgl/src/misc/lv_text.c ****  *
   4:Drivers/lvgl/src/misc/lv_text.c ****  */
ARM GAS  /var/folders/qx/2_175_4n2s19vhvtspjhb3qh0000gn/T//ccc2Jk7F.s 			page 8


   5:Drivers/lvgl/src/misc/lv_text.c **** 
   6:Drivers/lvgl/src/misc/lv_text.c **** /*********************
   7:Drivers/lvgl/src/misc/lv_text.c ****  *      INCLUDES
   8:Drivers/lvgl/src/misc/lv_text.c ****  *********************/
   9:Drivers/lvgl/src/misc/lv_text.c **** #include "lv_text_private.h"
  10:Drivers/lvgl/src/misc/lv_text.c **** #include "lv_text_ap.h"
  11:Drivers/lvgl/src/misc/lv_text.c **** #include "lv_math.h"
  12:Drivers/lvgl/src/misc/lv_text.c **** #include "lv_log.h"
  13:Drivers/lvgl/src/misc/lv_text.c **** #include "lv_assert.h"
  14:Drivers/lvgl/src/misc/lv_text.c **** #include "../stdlib/lv_mem.h"
  15:Drivers/lvgl/src/misc/lv_text.c **** #include "../stdlib/lv_string.h"
  16:Drivers/lvgl/src/misc/lv_text.c **** #include "../misc/lv_types.h"
  17:Drivers/lvgl/src/misc/lv_text.c **** 
  18:Drivers/lvgl/src/misc/lv_text.c **** /*********************
  19:Drivers/lvgl/src/misc/lv_text.c ****  *      DEFINES
  20:Drivers/lvgl/src/misc/lv_text.c ****  *********************/
  21:Drivers/lvgl/src/misc/lv_text.c **** #define NO_BREAK_FOUND UINT32_MAX
  22:Drivers/lvgl/src/misc/lv_text.c **** 
  23:Drivers/lvgl/src/misc/lv_text.c **** /**********************
  24:Drivers/lvgl/src/misc/lv_text.c ****  *      TYPEDEFS
  25:Drivers/lvgl/src/misc/lv_text.c ****  **********************/
  26:Drivers/lvgl/src/misc/lv_text.c **** 
  27:Drivers/lvgl/src/misc/lv_text.c **** /**********************
  28:Drivers/lvgl/src/misc/lv_text.c ****  *  STATIC PROTOTYPES
  29:Drivers/lvgl/src/misc/lv_text.c ****  **********************/
  30:Drivers/lvgl/src/misc/lv_text.c **** 
  31:Drivers/lvgl/src/misc/lv_text.c **** #if LV_TXT_ENC == LV_TXT_ENC_UTF8
  32:Drivers/lvgl/src/misc/lv_text.c ****     static uint8_t lv_text_utf8_size(const char * str);
  33:Drivers/lvgl/src/misc/lv_text.c ****     static uint32_t lv_text_unicode_to_utf8(uint32_t letter_uni);
  34:Drivers/lvgl/src/misc/lv_text.c ****     static uint32_t lv_text_utf8_conv_wc(uint32_t c);
  35:Drivers/lvgl/src/misc/lv_text.c ****     static uint32_t lv_text_utf8_next(const char * txt, uint32_t * i);
  36:Drivers/lvgl/src/misc/lv_text.c ****     static uint32_t lv_text_utf8_prev(const char * txt, uint32_t * i_start);
  37:Drivers/lvgl/src/misc/lv_text.c ****     static uint32_t lv_text_utf8_get_byte_id(const char * txt, uint32_t utf8_id);
  38:Drivers/lvgl/src/misc/lv_text.c ****     static uint32_t lv_text_utf8_get_char_id(const char * txt, uint32_t byte_id);
  39:Drivers/lvgl/src/misc/lv_text.c ****     static uint32_t lv_text_utf8_get_length(const char * txt);
  40:Drivers/lvgl/src/misc/lv_text.c **** #elif LV_TXT_ENC == LV_TXT_ENC_ASCII
  41:Drivers/lvgl/src/misc/lv_text.c ****     static uint8_t lv_text_iso8859_1_size(const char * str);
  42:Drivers/lvgl/src/misc/lv_text.c ****     static uint32_t lv_text_unicode_to_iso8859_1(uint32_t letter_uni);
  43:Drivers/lvgl/src/misc/lv_text.c ****     static uint32_t lv_text_iso8859_1_conv_wc(uint32_t c);
  44:Drivers/lvgl/src/misc/lv_text.c ****     static uint32_t lv_text_iso8859_1_next(const char * txt, uint32_t * i);
  45:Drivers/lvgl/src/misc/lv_text.c ****     static uint32_t lv_text_iso8859_1_prev(const char * txt, uint32_t * i_start);
  46:Drivers/lvgl/src/misc/lv_text.c ****     static uint32_t lv_text_iso8859_1_get_byte_id(const char * txt, uint32_t utf8_id);
  47:Drivers/lvgl/src/misc/lv_text.c ****     static uint32_t lv_text_iso8859_1_get_char_id(const char * txt, uint32_t byte_id);
  48:Drivers/lvgl/src/misc/lv_text.c ****     static uint32_t lv_text_iso8859_1_get_length(const char * txt);
  49:Drivers/lvgl/src/misc/lv_text.c **** #endif
  50:Drivers/lvgl/src/misc/lv_text.c **** /**********************
  51:Drivers/lvgl/src/misc/lv_text.c ****  *  STATIC VARIABLES
  52:Drivers/lvgl/src/misc/lv_text.c ****  **********************/
  53:Drivers/lvgl/src/misc/lv_text.c **** 
  54:Drivers/lvgl/src/misc/lv_text.c **** /**********************
  55:Drivers/lvgl/src/misc/lv_text.c ****  *  GLOBAL VARIABLES
  56:Drivers/lvgl/src/misc/lv_text.c ****  **********************/
  57:Drivers/lvgl/src/misc/lv_text.c **** #if LV_TXT_ENC == LV_TXT_ENC_UTF8
  58:Drivers/lvgl/src/misc/lv_text.c ****     uint8_t (*const lv_text_encoded_size)(const char *)                   = lv_text_utf8_size;
  59:Drivers/lvgl/src/misc/lv_text.c ****     uint32_t (*const lv_text_unicode_to_encoded)(uint32_t)                = lv_text_unicode_to_utf8
  60:Drivers/lvgl/src/misc/lv_text.c ****     uint32_t (*const lv_text_encoded_conv_wc)(uint32_t)                   = lv_text_utf8_conv_wc;
  61:Drivers/lvgl/src/misc/lv_text.c ****     uint32_t (*const lv_text_encoded_next)(const char *, uint32_t *)      = lv_text_utf8_next;
ARM GAS  /var/folders/qx/2_175_4n2s19vhvtspjhb3qh0000gn/T//ccc2Jk7F.s 			page 9


  62:Drivers/lvgl/src/misc/lv_text.c ****     uint32_t (*const lv_text_encoded_prev)(const char *, uint32_t *)      = lv_text_utf8_prev;
  63:Drivers/lvgl/src/misc/lv_text.c ****     uint32_t (*const lv_text_encoded_get_byte_id)(const char *, uint32_t) = lv_text_utf8_get_byte_i
  64:Drivers/lvgl/src/misc/lv_text.c ****     uint32_t (*const lv_text_encoded_get_char_id)(const char *, uint32_t) = lv_text_utf8_get_char_i
  65:Drivers/lvgl/src/misc/lv_text.c ****     uint32_t (*const lv_text_get_encoded_length)(const char *)            = lv_text_utf8_get_length
  66:Drivers/lvgl/src/misc/lv_text.c **** #elif LV_TXT_ENC == LV_TXT_ENC_ASCII
  67:Drivers/lvgl/src/misc/lv_text.c ****     uint8_t (*const lv_text_encoded_size)(const char *)                   = lv_text_iso8859_1_size;
  68:Drivers/lvgl/src/misc/lv_text.c ****     uint32_t (*const lv_text_unicode_to_encoded)(uint32_t)                = lv_text_unicode_to_iso8
  69:Drivers/lvgl/src/misc/lv_text.c ****     uint32_t (*const lv_text_encoded_conv_wc)(uint32_t)                   = lv_text_iso8859_1_conv_
  70:Drivers/lvgl/src/misc/lv_text.c ****     uint32_t (*const lv_text_encoded_next)(const char *, uint32_t *)      = lv_text_iso8859_1_next;
  71:Drivers/lvgl/src/misc/lv_text.c ****     uint32_t (*const lv_text_encoded_prev)(const char *, uint32_t *)      = lv_text_iso8859_1_prev;
  72:Drivers/lvgl/src/misc/lv_text.c ****     uint32_t (*const lv_text_encoded_get_byte_id)(const char *, uint32_t) = lv_text_iso8859_1_get_b
  73:Drivers/lvgl/src/misc/lv_text.c ****     uint32_t (*const lv_text_encoded_get_char_id)(const char *, uint32_t)     = lv_text_iso8859_1_g
  74:Drivers/lvgl/src/misc/lv_text.c ****     uint32_t (*const lv_text_get_encoded_length)(const char *)            = lv_text_iso8859_1_get_l
  75:Drivers/lvgl/src/misc/lv_text.c **** 
  76:Drivers/lvgl/src/misc/lv_text.c **** #endif
  77:Drivers/lvgl/src/misc/lv_text.c **** 
  78:Drivers/lvgl/src/misc/lv_text.c **** /**********************
  79:Drivers/lvgl/src/misc/lv_text.c ****  *      MACROS
  80:Drivers/lvgl/src/misc/lv_text.c ****  **********************/
  81:Drivers/lvgl/src/misc/lv_text.c **** 
  82:Drivers/lvgl/src/misc/lv_text.c **** #define LV_IS_ASCII(value)              ((value & 0x80U) == 0x00U)
  83:Drivers/lvgl/src/misc/lv_text.c **** #define LV_IS_2BYTES_UTF8_CODE(value)   ((value & 0xE0U) == 0xC0U)
  84:Drivers/lvgl/src/misc/lv_text.c **** #define LV_IS_3BYTES_UTF8_CODE(value)   ((value & 0xF0U) == 0xE0U)
  85:Drivers/lvgl/src/misc/lv_text.c **** #define LV_IS_4BYTES_UTF8_CODE(value)   ((value & 0xF8U) == 0xF0U)
  86:Drivers/lvgl/src/misc/lv_text.c **** #define LV_IS_INVALID_UTF8_CODE(value)  ((value & 0xC0U) != 0x80U)
  87:Drivers/lvgl/src/misc/lv_text.c **** 
  88:Drivers/lvgl/src/misc/lv_text.c **** /**********************
  89:Drivers/lvgl/src/misc/lv_text.c ****  *   GLOBAL FUNCTIONS
  90:Drivers/lvgl/src/misc/lv_text.c ****  **********************/
  91:Drivers/lvgl/src/misc/lv_text.c **** void lv_text_attributes_init(lv_text_attributes_t * attributes)
  92:Drivers/lvgl/src/misc/lv_text.c **** {
  93:Drivers/lvgl/src/misc/lv_text.c ****     lv_memzero(attributes, sizeof(lv_text_attributes_t));
  94:Drivers/lvgl/src/misc/lv_text.c **** }
  95:Drivers/lvgl/src/misc/lv_text.c **** 
  96:Drivers/lvgl/src/misc/lv_text.c **** void lv_text_get_size(lv_point_t * size_res, const char * text, const lv_font_t * font, int32_t let
  97:Drivers/lvgl/src/misc/lv_text.c ****                       int32_t line_space, int32_t max_width, lv_text_flag_t flag)
  98:Drivers/lvgl/src/misc/lv_text.c **** {
  99:Drivers/lvgl/src/misc/lv_text.c ****     lv_text_attributes_t attrs;
 100:Drivers/lvgl/src/misc/lv_text.c ****     lv_text_attributes_init(&attrs);
 101:Drivers/lvgl/src/misc/lv_text.c ****     attrs.line_space = line_space;
 102:Drivers/lvgl/src/misc/lv_text.c ****     attrs.max_width = max_width;
 103:Drivers/lvgl/src/misc/lv_text.c ****     attrs.text_flags = flag;
 104:Drivers/lvgl/src/misc/lv_text.c ****     attrs.letter_space = letter_space;
 105:Drivers/lvgl/src/misc/lv_text.c ****     lv_text_get_size_attributes(size_res, text, font, &attrs);
 106:Drivers/lvgl/src/misc/lv_text.c **** }
 107:Drivers/lvgl/src/misc/lv_text.c **** 
 108:Drivers/lvgl/src/misc/lv_text.c **** void lv_text_get_size_attributes(lv_point_t * size_res, const char * text, const lv_font_t * font,
 109:Drivers/lvgl/src/misc/lv_text.c ****                                  lv_text_attributes_t * attributes)
 110:Drivers/lvgl/src/misc/lv_text.c **** {
 111:Drivers/lvgl/src/misc/lv_text.c ****     uint32_t line_start     = 0;
 112:Drivers/lvgl/src/misc/lv_text.c ****     uint32_t new_line_start = 0;
 113:Drivers/lvgl/src/misc/lv_text.c ****     uint16_t letter_height  = 0;
 114:Drivers/lvgl/src/misc/lv_text.c ****     size_res->x = 0;
 115:Drivers/lvgl/src/misc/lv_text.c ****     size_res->y = 0;
 116:Drivers/lvgl/src/misc/lv_text.c **** 
 117:Drivers/lvgl/src/misc/lv_text.c ****     LV_ASSERT_NULL(attributes);
 118:Drivers/lvgl/src/misc/lv_text.c ****     LV_ASSERT_NULL(font);
ARM GAS  /var/folders/qx/2_175_4n2s19vhvtspjhb3qh0000gn/T//ccc2Jk7F.s 			page 10


 119:Drivers/lvgl/src/misc/lv_text.c ****     LV_ASSERT_NULL(text);
 120:Drivers/lvgl/src/misc/lv_text.c **** 
 121:Drivers/lvgl/src/misc/lv_text.c ****     letter_height = lv_font_get_line_height(font);
 122:Drivers/lvgl/src/misc/lv_text.c **** 
 123:Drivers/lvgl/src/misc/lv_text.c ****     if(attributes->text_flags & LV_TEXT_FLAG_EXPAND) {
 124:Drivers/lvgl/src/misc/lv_text.c ****         attributes->max_width = LV_COORD_MAX;
 125:Drivers/lvgl/src/misc/lv_text.c ****     }
 126:Drivers/lvgl/src/misc/lv_text.c **** 
 127:Drivers/lvgl/src/misc/lv_text.c ****     /*Calc. the height and longest line*/
 128:Drivers/lvgl/src/misc/lv_text.c ****     while(text[line_start] != '\0') {
 129:Drivers/lvgl/src/misc/lv_text.c ****         new_line_start += lv_text_get_next_line(
 130:Drivers/lvgl/src/misc/lv_text.c ****                               &text[line_start], LV_TEXT_LEN_MAX, font, NULL, attributes);
 131:Drivers/lvgl/src/misc/lv_text.c **** 
 132:Drivers/lvgl/src/misc/lv_text.c ****         if((unsigned long)size_res->y +
 133:Drivers/lvgl/src/misc/lv_text.c ****            (unsigned long)letter_height + (unsigned long)attributes->line_space > LV_MAX_OF(int32_t
 134:Drivers/lvgl/src/misc/lv_text.c ****             LV_LOG_WARN("integer overflow while calculating text height");
 135:Drivers/lvgl/src/misc/lv_text.c ****             return;
 136:Drivers/lvgl/src/misc/lv_text.c ****         }
 137:Drivers/lvgl/src/misc/lv_text.c ****         else {
 138:Drivers/lvgl/src/misc/lv_text.c ****             size_res->y += letter_height;
 139:Drivers/lvgl/src/misc/lv_text.c ****             size_res->y += attributes->line_space;
 140:Drivers/lvgl/src/misc/lv_text.c ****         }
 141:Drivers/lvgl/src/misc/lv_text.c **** 
 142:Drivers/lvgl/src/misc/lv_text.c ****         /*Calculate the longest line*/
 143:Drivers/lvgl/src/misc/lv_text.c ****         int32_t act_line_length = lv_text_get_width(
 144:Drivers/lvgl/src/misc/lv_text.c ****                                       &text[line_start], new_line_start - line_start, font, attribu
 145:Drivers/lvgl/src/misc/lv_text.c **** 
 146:Drivers/lvgl/src/misc/lv_text.c ****         size_res->x = LV_MAX(act_line_length, size_res->x);
 147:Drivers/lvgl/src/misc/lv_text.c ****         line_start  = new_line_start;
 148:Drivers/lvgl/src/misc/lv_text.c ****     }
 149:Drivers/lvgl/src/misc/lv_text.c **** 
 150:Drivers/lvgl/src/misc/lv_text.c ****     /*Make the text one line taller if the last character is '\n' or '\r'*/
 151:Drivers/lvgl/src/misc/lv_text.c ****     if((line_start != 0) && (text[line_start - 1] == '\n' || text[line_start - 1] == '\r')) {
 152:Drivers/lvgl/src/misc/lv_text.c ****         size_res->y += letter_height + attributes->line_space;
 153:Drivers/lvgl/src/misc/lv_text.c ****     }
 154:Drivers/lvgl/src/misc/lv_text.c **** 
 155:Drivers/lvgl/src/misc/lv_text.c ****     /*Correction with the last line space or set the height manually if the text is empty*/
 156:Drivers/lvgl/src/misc/lv_text.c ****     if(size_res->y == 0)
 157:Drivers/lvgl/src/misc/lv_text.c ****         size_res->y = letter_height;
 158:Drivers/lvgl/src/misc/lv_text.c ****     else
 159:Drivers/lvgl/src/misc/lv_text.c ****         size_res->y -= attributes->line_space;
 160:Drivers/lvgl/src/misc/lv_text.c **** }
 161:Drivers/lvgl/src/misc/lv_text.c **** 
 162:Drivers/lvgl/src/misc/lv_text.c **** bool lv_text_is_cmd(lv_text_cmd_state_t * state, uint32_t c)
 163:Drivers/lvgl/src/misc/lv_text.c **** {
 164:Drivers/lvgl/src/misc/lv_text.c ****     bool ret = false;
 165:Drivers/lvgl/src/misc/lv_text.c **** 
 166:Drivers/lvgl/src/misc/lv_text.c ****     if(c == (uint32_t)LV_TXT_COLOR_CMD[0]) {
 167:Drivers/lvgl/src/misc/lv_text.c ****         if(*state == LV_TEXT_CMD_STATE_WAIT) { /*Start char*/
 168:Drivers/lvgl/src/misc/lv_text.c ****             *state = LV_TEXT_CMD_STATE_PAR;
 169:Drivers/lvgl/src/misc/lv_text.c ****             ret = true;
 170:Drivers/lvgl/src/misc/lv_text.c ****         }
 171:Drivers/lvgl/src/misc/lv_text.c ****         /*Other start char in parameter is escaped cmd. char*/
 172:Drivers/lvgl/src/misc/lv_text.c ****         else if(*state == LV_TEXT_CMD_STATE_WAIT) {
 173:Drivers/lvgl/src/misc/lv_text.c ****             *state = LV_TEXT_CMD_STATE_WAIT;
 174:Drivers/lvgl/src/misc/lv_text.c ****         }
 175:Drivers/lvgl/src/misc/lv_text.c ****         /*Command end*/
ARM GAS  /var/folders/qx/2_175_4n2s19vhvtspjhb3qh0000gn/T//ccc2Jk7F.s 			page 11


 176:Drivers/lvgl/src/misc/lv_text.c ****         else if(*state == LV_TEXT_CMD_STATE_IN) {
 177:Drivers/lvgl/src/misc/lv_text.c ****             *state = LV_TEXT_CMD_STATE_WAIT;
 178:Drivers/lvgl/src/misc/lv_text.c ****             ret = true;
 179:Drivers/lvgl/src/misc/lv_text.c ****         }
 180:Drivers/lvgl/src/misc/lv_text.c ****     }
 181:Drivers/lvgl/src/misc/lv_text.c **** 
 182:Drivers/lvgl/src/misc/lv_text.c ****     /*Skip the color parameter and wait the space after it*/
 183:Drivers/lvgl/src/misc/lv_text.c ****     if(*state == LV_TEXT_CMD_STATE_PAR) {
 184:Drivers/lvgl/src/misc/lv_text.c ****         if(c == ' ') {
 185:Drivers/lvgl/src/misc/lv_text.c ****             *state = LV_TEXT_CMD_STATE_IN; /*After the parameter the text is in the command*/
 186:Drivers/lvgl/src/misc/lv_text.c ****         }
 187:Drivers/lvgl/src/misc/lv_text.c ****         ret = true;
 188:Drivers/lvgl/src/misc/lv_text.c ****     }
 189:Drivers/lvgl/src/misc/lv_text.c **** 
 190:Drivers/lvgl/src/misc/lv_text.c ****     return ret;
 191:Drivers/lvgl/src/misc/lv_text.c **** }
 192:Drivers/lvgl/src/misc/lv_text.c **** 
 193:Drivers/lvgl/src/misc/lv_text.c **** /**
 194:Drivers/lvgl/src/misc/lv_text.c ****  * Get the next word of text. A word is delimited by break characters.
 195:Drivers/lvgl/src/misc/lv_text.c ****  *
 196:Drivers/lvgl/src/misc/lv_text.c ****  * If the word cannot fit in the max_width space, obey LV_TXT_LINE_BREAK_LONG_* rules.
 197:Drivers/lvgl/src/misc/lv_text.c ****  *
 198:Drivers/lvgl/src/misc/lv_text.c ****  * If the next word cannot fit anything, return 0.
 199:Drivers/lvgl/src/misc/lv_text.c ****  *
 200:Drivers/lvgl/src/misc/lv_text.c ****  * If the first character is a break character, returns the next index.
 201:Drivers/lvgl/src/misc/lv_text.c ****  *
 202:Drivers/lvgl/src/misc/lv_text.c ****  * Example calls from lv_text_get_next_line() assuming sufficient max_width and
 203:Drivers/lvgl/src/misc/lv_text.c ****  * txt = "Test text\n"
 204:Drivers/lvgl/src/misc/lv_text.c ****  *        0123456789
 205:Drivers/lvgl/src/misc/lv_text.c ****  *
 206:Drivers/lvgl/src/misc/lv_text.c ****  * Calls would be as follows:
 207:Drivers/lvgl/src/misc/lv_text.c ****  *     1. Return i=4, pointing at breakchar ' ', for the string "Test"
 208:Drivers/lvgl/src/misc/lv_text.c ****  *     2. Return i=5, since i=4 was a breakchar.
 209:Drivers/lvgl/src/misc/lv_text.c ****  *     3. Return i=9, pointing at breakchar '\n'
 210:Drivers/lvgl/src/misc/lv_text.c ****  *     4. Parenting lv_text_get_next_line() would detect subsequent '\0'
 211:Drivers/lvgl/src/misc/lv_text.c ****  *
 212:Drivers/lvgl/src/misc/lv_text.c ****  * TODO: Returned word_w_ptr may overestimate the returned word's width when
 213:Drivers/lvgl/src/misc/lv_text.c ****  * max_width is reached. In current usage, this has no impact.
 214:Drivers/lvgl/src/misc/lv_text.c ****  *
 215:Drivers/lvgl/src/misc/lv_text.c ****  * @param txt a '\0' terminated string
 216:Drivers/lvgl/src/misc/lv_text.c ****  * @param font pointer to a font
 217:Drivers/lvgl/src/misc/lv_text.c ****  * @param letter_space letter space
 218:Drivers/lvgl/src/misc/lv_text.c ****  * @param max_width max width of the text (break the lines to fit this size). Set COORD_MAX to avoi
 219:Drivers/lvgl/src/misc/lv_text.c ****  * @param flags settings for the text from 'txt_flag_type' enum
 220:Drivers/lvgl/src/misc/lv_text.c ****  * @param[out] word_w_ptr width (in pixels) of the parsed word. May be NULL.
 221:Drivers/lvgl/src/misc/lv_text.c ****  * @param cmd_state Pointer to a lv_text_cmd_state_t variable which stored the current state of com
 222:Drivers/lvgl/src/misc/lv_text.c ****  * @return the index of the first char of the next word (in byte index not letter index. With UTF-8
 223:Drivers/lvgl/src/misc/lv_text.c ****  */
 224:Drivers/lvgl/src/misc/lv_text.c **** static uint32_t lv_text_get_next_word(const char * txt, const lv_font_t * font,
 225:Drivers/lvgl/src/misc/lv_text.c ****                                       int32_t letter_space, int32_t max_width,
 226:Drivers/lvgl/src/misc/lv_text.c ****                                       lv_text_flag_t flag, uint32_t * word_w_ptr,
 227:Drivers/lvgl/src/misc/lv_text.c ****                                       lv_text_cmd_state_t * cmd_state)
 228:Drivers/lvgl/src/misc/lv_text.c **** {
 229:Drivers/lvgl/src/misc/lv_text.c ****     if(txt == NULL || txt[0] == '\0') return 0;
 230:Drivers/lvgl/src/misc/lv_text.c ****     if(font == NULL) return 0;
 231:Drivers/lvgl/src/misc/lv_text.c **** 
 232:Drivers/lvgl/src/misc/lv_text.c ****     if(flag & LV_TEXT_FLAG_EXPAND) max_width = LV_COORD_MAX;
ARM GAS  /var/folders/qx/2_175_4n2s19vhvtspjhb3qh0000gn/T//ccc2Jk7F.s 			page 12


 233:Drivers/lvgl/src/misc/lv_text.c **** 
 234:Drivers/lvgl/src/misc/lv_text.c ****     uint32_t i = 0, i_next = 0, i_next_next = 0;  /*Iterating index into txt*/
 235:Drivers/lvgl/src/misc/lv_text.c ****     uint32_t letter = 0;      /*Letter at i*/
 236:Drivers/lvgl/src/misc/lv_text.c ****     uint32_t letter_next = 0; /*Letter at i_next*/
 237:Drivers/lvgl/src/misc/lv_text.c ****     int32_t letter_w;
 238:Drivers/lvgl/src/misc/lv_text.c ****     int32_t cur_w = 0;  /*Pixel Width of traversed string*/
 239:Drivers/lvgl/src/misc/lv_text.c ****     uint32_t word_len = 0;   /*Number of characters in the traversed word*/
 240:Drivers/lvgl/src/misc/lv_text.c ****     uint32_t break_index = NO_BREAK_FOUND; /*only used for "long" words*/
 241:Drivers/lvgl/src/misc/lv_text.c ****     uint32_t break_letter_count = 0; /*Number of characters up to the long word break point*/
 242:Drivers/lvgl/src/misc/lv_text.c **** 
 243:Drivers/lvgl/src/misc/lv_text.c ****     letter = lv_text_encoded_next(txt, &i_next);
 244:Drivers/lvgl/src/misc/lv_text.c ****     i_next_next = i_next;
 245:Drivers/lvgl/src/misc/lv_text.c **** 
 246:Drivers/lvgl/src/misc/lv_text.c ****     /*Obtain the full word, regardless if it fits or not in max_width*/
 247:Drivers/lvgl/src/misc/lv_text.c ****     while(txt[i] != '\0') {
 248:Drivers/lvgl/src/misc/lv_text.c ****         letter_next = lv_text_encoded_next(txt, &i_next_next);
 249:Drivers/lvgl/src/misc/lv_text.c ****         word_len++;
 250:Drivers/lvgl/src/misc/lv_text.c **** 
 251:Drivers/lvgl/src/misc/lv_text.c ****         /*Handle the recolor command*/
 252:Drivers/lvgl/src/misc/lv_text.c ****         if((flag & LV_TEXT_FLAG_RECOLOR) != 0) {
 253:Drivers/lvgl/src/misc/lv_text.c ****             if(lv_text_is_cmd(cmd_state, letter)) {
 254:Drivers/lvgl/src/misc/lv_text.c ****                 i = i_next;
 255:Drivers/lvgl/src/misc/lv_text.c ****                 i_next = i_next_next;
 256:Drivers/lvgl/src/misc/lv_text.c ****                 letter = letter_next;
 257:Drivers/lvgl/src/misc/lv_text.c ****                 continue;   /*Skip the letter if it is part of a command*/
 258:Drivers/lvgl/src/misc/lv_text.c ****             }
 259:Drivers/lvgl/src/misc/lv_text.c ****         }
 260:Drivers/lvgl/src/misc/lv_text.c **** 
 261:Drivers/lvgl/src/misc/lv_text.c ****         letter_w = lv_font_get_glyph_width(font, letter, letter_next);
 262:Drivers/lvgl/src/misc/lv_text.c ****         cur_w += letter_w;
 263:Drivers/lvgl/src/misc/lv_text.c **** 
 264:Drivers/lvgl/src/misc/lv_text.c ****         if(letter_w > 0) {
 265:Drivers/lvgl/src/misc/lv_text.c ****             cur_w += letter_space;
 266:Drivers/lvgl/src/misc/lv_text.c ****         }
 267:Drivers/lvgl/src/misc/lv_text.c **** 
 268:Drivers/lvgl/src/misc/lv_text.c ****         /*Test if this character fits within max_width*/
 269:Drivers/lvgl/src/misc/lv_text.c ****         if(break_index == NO_BREAK_FOUND && (cur_w - letter_space) > max_width) {
 270:Drivers/lvgl/src/misc/lv_text.c ****             break_index = i;
 271:Drivers/lvgl/src/misc/lv_text.c ****             break_letter_count = word_len - 1;
 272:Drivers/lvgl/src/misc/lv_text.c ****             if(flag & LV_TEXT_FLAG_BREAK_ALL) {
 273:Drivers/lvgl/src/misc/lv_text.c ****                 break;
 274:Drivers/lvgl/src/misc/lv_text.c ****             }
 275:Drivers/lvgl/src/misc/lv_text.c ****             /*break_index is now pointing at the character that doesn't fit*/
 276:Drivers/lvgl/src/misc/lv_text.c ****         }
 277:Drivers/lvgl/src/misc/lv_text.c **** 
 278:Drivers/lvgl/src/misc/lv_text.c ****         /*Check for new line chars and breakchars*/
 279:Drivers/lvgl/src/misc/lv_text.c ****         if(letter == '\n' || letter == '\r' || lv_text_is_break_char(letter)) {
 280:Drivers/lvgl/src/misc/lv_text.c ****             /*Update the output width on the first character if it fits.
 281:Drivers/lvgl/src/misc/lv_text.c ****              *Must do this here in case first letter is a break character.*/
 282:Drivers/lvgl/src/misc/lv_text.c ****             if(i == 0 && break_index == NO_BREAK_FOUND && word_w_ptr != NULL) *word_w_ptr = cur_w;
 283:Drivers/lvgl/src/misc/lv_text.c ****             word_len--;
 284:Drivers/lvgl/src/misc/lv_text.c ****             break;
 285:Drivers/lvgl/src/misc/lv_text.c ****         }
 286:Drivers/lvgl/src/misc/lv_text.c ****         else if(lv_text_is_a_word(letter_next) || lv_text_is_a_word(letter)) {
 287:Drivers/lvgl/src/misc/lv_text.c ****             /*Found a word for single letter, usually true for CJK*/
 288:Drivers/lvgl/src/misc/lv_text.c ****             *word_w_ptr = cur_w;
 289:Drivers/lvgl/src/misc/lv_text.c ****             i = i_next;
ARM GAS  /var/folders/qx/2_175_4n2s19vhvtspjhb3qh0000gn/T//ccc2Jk7F.s 			page 13


 290:Drivers/lvgl/src/misc/lv_text.c ****             break;
 291:Drivers/lvgl/src/misc/lv_text.c ****         }
 292:Drivers/lvgl/src/misc/lv_text.c **** 
 293:Drivers/lvgl/src/misc/lv_text.c ****         /*Update the output width*/
 294:Drivers/lvgl/src/misc/lv_text.c ****         if(word_w_ptr != NULL && break_index == NO_BREAK_FOUND) *word_w_ptr = cur_w;
 295:Drivers/lvgl/src/misc/lv_text.c **** 
 296:Drivers/lvgl/src/misc/lv_text.c ****         i = i_next;
 297:Drivers/lvgl/src/misc/lv_text.c ****         i_next = i_next_next;
 298:Drivers/lvgl/src/misc/lv_text.c ****         letter = letter_next;
 299:Drivers/lvgl/src/misc/lv_text.c ****     }
 300:Drivers/lvgl/src/misc/lv_text.c **** 
 301:Drivers/lvgl/src/misc/lv_text.c ****     /*Entire Word fits in the provided space*/
 302:Drivers/lvgl/src/misc/lv_text.c ****     if(break_index == NO_BREAK_FOUND) {
 303:Drivers/lvgl/src/misc/lv_text.c ****         if(word_len == 0 || (letter == '\r' && letter_next == '\n')) i = i_next;
 304:Drivers/lvgl/src/misc/lv_text.c ****         return i;
 305:Drivers/lvgl/src/misc/lv_text.c ****     }
 306:Drivers/lvgl/src/misc/lv_text.c **** 
 307:Drivers/lvgl/src/misc/lv_text.c **** #if LV_TXT_LINE_BREAK_LONG_LEN > 0
 308:Drivers/lvgl/src/misc/lv_text.c ****     /*Word doesn't fit in provided space, but isn't "long"*/
 309:Drivers/lvgl/src/misc/lv_text.c ****     if(word_len < LV_TXT_LINE_BREAK_LONG_LEN) {
 310:Drivers/lvgl/src/misc/lv_text.c ****         if(flag & LV_TEXT_FLAG_BREAK_ALL) return break_index;
 311:Drivers/lvgl/src/misc/lv_text.c ****         if(word_w_ptr != NULL) *word_w_ptr = 0; /*Return no word*/
 312:Drivers/lvgl/src/misc/lv_text.c ****         return 0;
 313:Drivers/lvgl/src/misc/lv_text.c ****     }
 314:Drivers/lvgl/src/misc/lv_text.c **** 
 315:Drivers/lvgl/src/misc/lv_text.c ****     /*Word is "long," but insufficient amounts can fit in provided space*/
 316:Drivers/lvgl/src/misc/lv_text.c ****     if(break_letter_count < LV_TXT_LINE_BREAK_LONG_PRE_MIN_LEN) {
 317:Drivers/lvgl/src/misc/lv_text.c ****         if(flag & LV_TEXT_FLAG_BREAK_ALL) return break_index;
 318:Drivers/lvgl/src/misc/lv_text.c ****         if(word_w_ptr != NULL) *word_w_ptr = 0;
 319:Drivers/lvgl/src/misc/lv_text.c ****         return 0;
 320:Drivers/lvgl/src/misc/lv_text.c ****     }
 321:Drivers/lvgl/src/misc/lv_text.c **** 
 322:Drivers/lvgl/src/misc/lv_text.c ****     /*Word is a "long", but letters may need to be better distributed*/
 323:Drivers/lvgl/src/misc/lv_text.c ****     {
 324:Drivers/lvgl/src/misc/lv_text.c ****         i = break_index;
 325:Drivers/lvgl/src/misc/lv_text.c ****         int32_t n_move = LV_TXT_LINE_BREAK_LONG_POST_MIN_LEN - (word_len - break_letter_count);
 326:Drivers/lvgl/src/misc/lv_text.c ****         /*Move pointer "i" backwards*/
 327:Drivers/lvgl/src/misc/lv_text.c ****         for(; n_move > 0; n_move--) {
 328:Drivers/lvgl/src/misc/lv_text.c ****             lv_text_encoded_prev(txt, &i);
 329:Drivers/lvgl/src/misc/lv_text.c ****             /**
 330:Drivers/lvgl/src/misc/lv_text.c ****              * TODO: it would be appropriate to update the returned
 331:Drivers/lvgl/src/misc/lv_text.c ****              * word width hereHowever, in current usage, this doesn't impact anything.
 332:Drivers/lvgl/src/misc/lv_text.c ****              */
 333:Drivers/lvgl/src/misc/lv_text.c ****         }
 334:Drivers/lvgl/src/misc/lv_text.c ****     }
 335:Drivers/lvgl/src/misc/lv_text.c ****     return i;
 336:Drivers/lvgl/src/misc/lv_text.c **** #else
 337:Drivers/lvgl/src/misc/lv_text.c ****     if(flag & LV_TEXT_FLAG_BREAK_ALL) return break_index;
 338:Drivers/lvgl/src/misc/lv_text.c ****     if(word_w_ptr != NULL) *word_w_ptr = 0; /*Return no word*/
 339:Drivers/lvgl/src/misc/lv_text.c ****     (void) break_letter_count;
 340:Drivers/lvgl/src/misc/lv_text.c ****     return 0;
 341:Drivers/lvgl/src/misc/lv_text.c **** #endif
 342:Drivers/lvgl/src/misc/lv_text.c **** }
 343:Drivers/lvgl/src/misc/lv_text.c **** 
 344:Drivers/lvgl/src/misc/lv_text.c **** uint32_t lv_text_get_next_line(const char * txt, uint32_t len,
 345:Drivers/lvgl/src/misc/lv_text.c ****                                const lv_font_t * font, int32_t * used_width, lv_text_attributes_t *
 346:Drivers/lvgl/src/misc/lv_text.c **** {
ARM GAS  /var/folders/qx/2_175_4n2s19vhvtspjhb3qh0000gn/T//ccc2Jk7F.s 			page 14


 347:Drivers/lvgl/src/misc/lv_text.c **** 
 348:Drivers/lvgl/src/misc/lv_text.c ****     if(used_width) *used_width = 0;
 349:Drivers/lvgl/src/misc/lv_text.c **** 
 350:Drivers/lvgl/src/misc/lv_text.c ****     if(txt == NULL) return 0;
 351:Drivers/lvgl/src/misc/lv_text.c ****     if(txt[0] == '\0') return 0;
 352:Drivers/lvgl/src/misc/lv_text.c ****     if(font == NULL) return 0;
 353:Drivers/lvgl/src/misc/lv_text.c **** 
 354:Drivers/lvgl/src/misc/lv_text.c ****     int32_t line_w = 0;
 355:Drivers/lvgl/src/misc/lv_text.c **** 
 356:Drivers/lvgl/src/misc/lv_text.c ****     /*If max_width doesn't matter simply find the new line character
 357:Drivers/lvgl/src/misc/lv_text.c ****      *without thinking about word wrapping*/
 358:Drivers/lvgl/src/misc/lv_text.c ****     if((attributes->text_flags & LV_TEXT_FLAG_EXPAND) ||
 359:Drivers/lvgl/src/misc/lv_text.c ****        (attributes->text_flags & LV_TEXT_FLAG_FIT)) {
 360:Drivers/lvgl/src/misc/lv_text.c **** 
 361:Drivers/lvgl/src/misc/lv_text.c ****         uint32_t i;
 362:Drivers/lvgl/src/misc/lv_text.c ****         for(i = 0; i < len && txt[i] != '\n' && txt[i] != '\r' && txt[i] != '\0'; i++) {
 363:Drivers/lvgl/src/misc/lv_text.c ****             /*Just find the new line chars or string ends by incrementing `i`*/
 364:Drivers/lvgl/src/misc/lv_text.c ****         }
 365:Drivers/lvgl/src/misc/lv_text.c ****         if(i < len && txt[i] != '\0') i++;    /*To go beyond `\n`*/
 366:Drivers/lvgl/src/misc/lv_text.c ****         if(used_width) *used_width = -1;
 367:Drivers/lvgl/src/misc/lv_text.c ****         return i;
 368:Drivers/lvgl/src/misc/lv_text.c ****     }
 369:Drivers/lvgl/src/misc/lv_text.c **** 
 370:Drivers/lvgl/src/misc/lv_text.c ****     if(attributes->text_flags & LV_TEXT_FLAG_EXPAND) {
 371:Drivers/lvgl/src/misc/lv_text.c ****         attributes->max_width = LV_COORD_MAX;
 372:Drivers/lvgl/src/misc/lv_text.c ****     }
 373:Drivers/lvgl/src/misc/lv_text.c ****     lv_text_cmd_state_t cmd_state = LV_TEXT_CMD_STATE_WAIT;
 374:Drivers/lvgl/src/misc/lv_text.c **** 
 375:Drivers/lvgl/src/misc/lv_text.c ****     uint32_t i = 0;                                        /*Iterating index into txt*/
 376:Drivers/lvgl/src/misc/lv_text.c ****     uint32_t max_width = attributes->max_width;
 377:Drivers/lvgl/src/misc/lv_text.c **** 
 378:Drivers/lvgl/src/misc/lv_text.c ****     while(i < len && txt[i] != '\0' && max_width > 0) {
 379:Drivers/lvgl/src/misc/lv_text.c ****         lv_text_flag_t word_flag = attributes->text_flags;
 380:Drivers/lvgl/src/misc/lv_text.c **** 
 381:Drivers/lvgl/src/misc/lv_text.c ****         if(i == 0) word_flag |= LV_TEXT_FLAG_BREAK_ALL;
 382:Drivers/lvgl/src/misc/lv_text.c **** 
 383:Drivers/lvgl/src/misc/lv_text.c ****         uint32_t word_w = 0;
 384:Drivers/lvgl/src/misc/lv_text.c ****         uint32_t advance = lv_text_get_next_word(&txt[i], font, attributes->letter_space,
 385:Drivers/lvgl/src/misc/lv_text.c ****                                                  max_width, word_flag, &word_w, &cmd_state);
 386:Drivers/lvgl/src/misc/lv_text.c ****         max_width -= word_w;
 387:Drivers/lvgl/src/misc/lv_text.c ****         line_w += word_w;
 388:Drivers/lvgl/src/misc/lv_text.c **** 
 389:Drivers/lvgl/src/misc/lv_text.c ****         if(advance == 0) {
 390:Drivers/lvgl/src/misc/lv_text.c ****             break;
 391:Drivers/lvgl/src/misc/lv_text.c ****         }
 392:Drivers/lvgl/src/misc/lv_text.c **** 
 393:Drivers/lvgl/src/misc/lv_text.c ****         i += advance;
 394:Drivers/lvgl/src/misc/lv_text.c **** 
 395:Drivers/lvgl/src/misc/lv_text.c ****         if(txt[0] == '\n' || txt[0] == '\r') break;
 396:Drivers/lvgl/src/misc/lv_text.c **** 
 397:Drivers/lvgl/src/misc/lv_text.c ****         if(txt[i] == '\n' || txt[i] == '\r') {
 398:Drivers/lvgl/src/misc/lv_text.c ****             i++;  /*Include the following newline in the current line*/
 399:Drivers/lvgl/src/misc/lv_text.c ****             break;
 400:Drivers/lvgl/src/misc/lv_text.c ****         }
 401:Drivers/lvgl/src/misc/lv_text.c ****     }
 402:Drivers/lvgl/src/misc/lv_text.c **** 
 403:Drivers/lvgl/src/misc/lv_text.c ****     /*Always step at least one to avoid infinite loops*/
ARM GAS  /var/folders/qx/2_175_4n2s19vhvtspjhb3qh0000gn/T//ccc2Jk7F.s 			page 15


 404:Drivers/lvgl/src/misc/lv_text.c ****     if(i == 0) {
 405:Drivers/lvgl/src/misc/lv_text.c ****         uint32_t letter = lv_text_encoded_next(txt, &i);
 406:Drivers/lvgl/src/misc/lv_text.c ****         if(used_width != NULL) {
 407:Drivers/lvgl/src/misc/lv_text.c ****             line_w = lv_font_get_glyph_width(font, letter, '\0');
 408:Drivers/lvgl/src/misc/lv_text.c ****         }
 409:Drivers/lvgl/src/misc/lv_text.c ****     }
 410:Drivers/lvgl/src/misc/lv_text.c **** 
 411:Drivers/lvgl/src/misc/lv_text.c ****     if(used_width != NULL) {
 412:Drivers/lvgl/src/misc/lv_text.c ****         *used_width = line_w;
 413:Drivers/lvgl/src/misc/lv_text.c ****     }
 414:Drivers/lvgl/src/misc/lv_text.c **** 
 415:Drivers/lvgl/src/misc/lv_text.c ****     return i;
 416:Drivers/lvgl/src/misc/lv_text.c **** }
 417:Drivers/lvgl/src/misc/lv_text.c **** 
 418:Drivers/lvgl/src/misc/lv_text.c **** int32_t lv_text_get_width(const char * txt, uint32_t length, const lv_font_t * font,
 419:Drivers/lvgl/src/misc/lv_text.c ****                           const lv_text_attributes_t * attributes)
 420:Drivers/lvgl/src/misc/lv_text.c **** {
 421:Drivers/lvgl/src/misc/lv_text.c ****     if(txt == NULL) return 0;
 422:Drivers/lvgl/src/misc/lv_text.c ****     if(font == NULL) return 0;
 423:Drivers/lvgl/src/misc/lv_text.c ****     if(txt[0] == '\0') return 0;
 424:Drivers/lvgl/src/misc/lv_text.c **** 
 425:Drivers/lvgl/src/misc/lv_text.c ****     uint32_t i                = 0;
 426:Drivers/lvgl/src/misc/lv_text.c ****     int32_t width             = 0;
 427:Drivers/lvgl/src/misc/lv_text.c ****     lv_text_cmd_state_t cmd_state = LV_TEXT_CMD_STATE_WAIT;
 428:Drivers/lvgl/src/misc/lv_text.c **** 
 429:Drivers/lvgl/src/misc/lv_text.c ****     if(length != 0) {
 430:Drivers/lvgl/src/misc/lv_text.c ****         while(txt[i] != '\0' && i < length) {
 431:Drivers/lvgl/src/misc/lv_text.c **** 
 432:Drivers/lvgl/src/misc/lv_text.c ****             uint32_t letter;
 433:Drivers/lvgl/src/misc/lv_text.c ****             uint32_t letter_next;
 434:Drivers/lvgl/src/misc/lv_text.c **** 
 435:Drivers/lvgl/src/misc/lv_text.c ****             lv_text_encoded_letter_next_2(txt, &letter, &letter_next, &i);
 436:Drivers/lvgl/src/misc/lv_text.c **** 
 437:Drivers/lvgl/src/misc/lv_text.c ****             if((attributes->text_flags & LV_TEXT_FLAG_RECOLOR) != 0) {
 438:Drivers/lvgl/src/misc/lv_text.c ****                 if(lv_text_is_cmd(&cmd_state, letter) != false) {
 439:Drivers/lvgl/src/misc/lv_text.c ****                     continue;
 440:Drivers/lvgl/src/misc/lv_text.c ****                 }
 441:Drivers/lvgl/src/misc/lv_text.c ****             }
 442:Drivers/lvgl/src/misc/lv_text.c **** 
 443:Drivers/lvgl/src/misc/lv_text.c ****             int32_t char_width = lv_font_get_glyph_width(font, letter, letter_next);
 444:Drivers/lvgl/src/misc/lv_text.c ****             if(char_width > 0) {
 445:Drivers/lvgl/src/misc/lv_text.c ****                 width += char_width;
 446:Drivers/lvgl/src/misc/lv_text.c ****                 width += attributes->letter_space;
 447:Drivers/lvgl/src/misc/lv_text.c ****             }
 448:Drivers/lvgl/src/misc/lv_text.c ****         }
 449:Drivers/lvgl/src/misc/lv_text.c **** 
 450:Drivers/lvgl/src/misc/lv_text.c ****         if(width > 0) {
 451:Drivers/lvgl/src/misc/lv_text.c ****             width -= attributes->letter_space; /*Trim the last letter space. Important if the text 
 452:Drivers/lvgl/src/misc/lv_text.c ****                                       aligned*/
 453:Drivers/lvgl/src/misc/lv_text.c ****         }
 454:Drivers/lvgl/src/misc/lv_text.c ****     }
 455:Drivers/lvgl/src/misc/lv_text.c **** 
 456:Drivers/lvgl/src/misc/lv_text.c ****     return width;
 457:Drivers/lvgl/src/misc/lv_text.c **** }
 458:Drivers/lvgl/src/misc/lv_text.c **** 
 459:Drivers/lvgl/src/misc/lv_text.c **** void lv_text_ins(char * txt_buf, uint32_t pos, const char * ins_txt)
 460:Drivers/lvgl/src/misc/lv_text.c **** {
ARM GAS  /var/folders/qx/2_175_4n2s19vhvtspjhb3qh0000gn/T//ccc2Jk7F.s 			page 16


 461:Drivers/lvgl/src/misc/lv_text.c ****     if(txt_buf == NULL || ins_txt == NULL) return;
 462:Drivers/lvgl/src/misc/lv_text.c **** 
 463:Drivers/lvgl/src/misc/lv_text.c ****     size_t old_len = lv_strlen(txt_buf);
 464:Drivers/lvgl/src/misc/lv_text.c ****     size_t ins_len = lv_strlen(ins_txt);
 465:Drivers/lvgl/src/misc/lv_text.c ****     if(ins_len == 0) return;
 466:Drivers/lvgl/src/misc/lv_text.c **** 
 467:Drivers/lvgl/src/misc/lv_text.c ****     size_t new_len = ins_len + old_len;
 468:Drivers/lvgl/src/misc/lv_text.c ****     pos              = lv_text_encoded_get_byte_id(txt_buf, pos); /*Convert to byte index instead o
 469:Drivers/lvgl/src/misc/lv_text.c **** 
 470:Drivers/lvgl/src/misc/lv_text.c ****     /*Copy the second part into the end to make place to text to insert*/
 471:Drivers/lvgl/src/misc/lv_text.c ****     size_t i;
 472:Drivers/lvgl/src/misc/lv_text.c ****     for(i = new_len; i >= pos + ins_len; i--) {
 473:Drivers/lvgl/src/misc/lv_text.c ****         txt_buf[i] = txt_buf[i - ins_len];
 474:Drivers/lvgl/src/misc/lv_text.c ****     }
 475:Drivers/lvgl/src/misc/lv_text.c **** 
 476:Drivers/lvgl/src/misc/lv_text.c ****     /*Copy the text into the new space*/
 477:Drivers/lvgl/src/misc/lv_text.c ****     lv_memcpy(txt_buf + pos, ins_txt, ins_len);
 478:Drivers/lvgl/src/misc/lv_text.c **** }
 479:Drivers/lvgl/src/misc/lv_text.c **** 
 480:Drivers/lvgl/src/misc/lv_text.c **** void lv_text_cut(char * txt, uint32_t pos, uint32_t len)
 481:Drivers/lvgl/src/misc/lv_text.c **** {
 482:Drivers/lvgl/src/misc/lv_text.c ****     if(txt == NULL) return;
 483:Drivers/lvgl/src/misc/lv_text.c **** 
 484:Drivers/lvgl/src/misc/lv_text.c ****     size_t old_len = lv_strlen(txt);
 485:Drivers/lvgl/src/misc/lv_text.c **** 
 486:Drivers/lvgl/src/misc/lv_text.c ****     pos = lv_text_encoded_get_byte_id(txt, pos); /*Convert to byte index instead of letter index*/
 487:Drivers/lvgl/src/misc/lv_text.c ****     len = lv_text_encoded_get_byte_id(&txt[pos], len);
 488:Drivers/lvgl/src/misc/lv_text.c **** 
 489:Drivers/lvgl/src/misc/lv_text.c ****     /*Copy the second part into the end to make place to text to insert*/
 490:Drivers/lvgl/src/misc/lv_text.c ****     uint32_t i;
 491:Drivers/lvgl/src/misc/lv_text.c ****     for(i = pos; i <= old_len - len; i++) {
 492:Drivers/lvgl/src/misc/lv_text.c ****         txt[i] = txt[i + len];
 493:Drivers/lvgl/src/misc/lv_text.c ****     }
 494:Drivers/lvgl/src/misc/lv_text.c **** }
 495:Drivers/lvgl/src/misc/lv_text.c **** 
 496:Drivers/lvgl/src/misc/lv_text.c **** char * lv_text_set_text_vfmt(const char * fmt, va_list ap)
 497:Drivers/lvgl/src/misc/lv_text.c **** {
 498:Drivers/lvgl/src/misc/lv_text.c ****     /*Allocate space for the new text by using trick from C99 standard section 7.19.6.12*/
 499:Drivers/lvgl/src/misc/lv_text.c ****     va_list ap_copy;
 500:Drivers/lvgl/src/misc/lv_text.c ****     va_copy(ap_copy, ap);
 501:Drivers/lvgl/src/misc/lv_text.c ****     uint32_t len = lv_vsnprintf(NULL, 0, fmt, ap_copy);
 502:Drivers/lvgl/src/misc/lv_text.c ****     va_end(ap_copy);
 503:Drivers/lvgl/src/misc/lv_text.c **** 
 504:Drivers/lvgl/src/misc/lv_text.c ****     char * text = 0;
 505:Drivers/lvgl/src/misc/lv_text.c **** #if LV_USE_ARABIC_PERSIAN_CHARS
 506:Drivers/lvgl/src/misc/lv_text.c ****     /*Put together the text according to the format string*/
 507:Drivers/lvgl/src/misc/lv_text.c ****     char * raw_txt = lv_malloc(len + 1);
 508:Drivers/lvgl/src/misc/lv_text.c ****     LV_ASSERT_MALLOC(raw_txt);
 509:Drivers/lvgl/src/misc/lv_text.c ****     if(raw_txt == NULL) {
 510:Drivers/lvgl/src/misc/lv_text.c ****         return NULL;
 511:Drivers/lvgl/src/misc/lv_text.c ****     }
 512:Drivers/lvgl/src/misc/lv_text.c **** 
 513:Drivers/lvgl/src/misc/lv_text.c ****     lv_vsnprintf(raw_txt, len + 1, fmt, ap);
 514:Drivers/lvgl/src/misc/lv_text.c **** 
 515:Drivers/lvgl/src/misc/lv_text.c ****     /*Get the size of the Arabic text and process it*/
 516:Drivers/lvgl/src/misc/lv_text.c ****     size_t len_ap = lv_text_ap_calc_bytes_count(raw_txt);
 517:Drivers/lvgl/src/misc/lv_text.c ****     text = lv_malloc(len_ap + 1);
ARM GAS  /var/folders/qx/2_175_4n2s19vhvtspjhb3qh0000gn/T//ccc2Jk7F.s 			page 17


 518:Drivers/lvgl/src/misc/lv_text.c ****     LV_ASSERT_MALLOC(text);
 519:Drivers/lvgl/src/misc/lv_text.c ****     if(text == NULL) {
 520:Drivers/lvgl/src/misc/lv_text.c ****         return NULL;
 521:Drivers/lvgl/src/misc/lv_text.c ****     }
 522:Drivers/lvgl/src/misc/lv_text.c ****     lv_text_ap_proc(raw_txt, text);
 523:Drivers/lvgl/src/misc/lv_text.c **** 
 524:Drivers/lvgl/src/misc/lv_text.c ****     lv_free(raw_txt);
 525:Drivers/lvgl/src/misc/lv_text.c **** #else
 526:Drivers/lvgl/src/misc/lv_text.c ****     text = lv_malloc(len + 1);
 527:Drivers/lvgl/src/misc/lv_text.c ****     LV_ASSERT_MALLOC(text);
 528:Drivers/lvgl/src/misc/lv_text.c ****     if(text == NULL) {
 529:Drivers/lvgl/src/misc/lv_text.c ****         return NULL;
 530:Drivers/lvgl/src/misc/lv_text.c ****     }
 531:Drivers/lvgl/src/misc/lv_text.c **** 
 532:Drivers/lvgl/src/misc/lv_text.c ****     lv_vsnprintf(text, len + 1, fmt, ap);
 533:Drivers/lvgl/src/misc/lv_text.c **** #endif
 534:Drivers/lvgl/src/misc/lv_text.c **** 
 535:Drivers/lvgl/src/misc/lv_text.c ****     return text;
 536:Drivers/lvgl/src/misc/lv_text.c **** }
 537:Drivers/lvgl/src/misc/lv_text.c **** 
 538:Drivers/lvgl/src/misc/lv_text.c **** void lv_text_encoded_letter_next_2(const char * txt, uint32_t * letter, uint32_t * letter_next, uin
 539:Drivers/lvgl/src/misc/lv_text.c **** {
 540:Drivers/lvgl/src/misc/lv_text.c ****     *letter = lv_text_encoded_next(txt, ofs);
 541:Drivers/lvgl/src/misc/lv_text.c ****     *letter_next = *letter != '\0' ? lv_text_encoded_next(&txt[*ofs], NULL) : 0;
 542:Drivers/lvgl/src/misc/lv_text.c **** }
 543:Drivers/lvgl/src/misc/lv_text.c **** 
 544:Drivers/lvgl/src/misc/lv_text.c **** #if LV_TXT_ENC == LV_TXT_ENC_UTF8
 545:Drivers/lvgl/src/misc/lv_text.c **** /*******************************
 546:Drivers/lvgl/src/misc/lv_text.c ****  *   UTF-8 ENCODER/DECODER
 547:Drivers/lvgl/src/misc/lv_text.c ****  ******************************/
 548:Drivers/lvgl/src/misc/lv_text.c **** 
 549:Drivers/lvgl/src/misc/lv_text.c **** /**
 550:Drivers/lvgl/src/misc/lv_text.c ****  * Give the size of an UTF-8 coded character
 551:Drivers/lvgl/src/misc/lv_text.c ****  * @param str pointer to a character in a string
 552:Drivers/lvgl/src/misc/lv_text.c ****  * @return length of the UTF-8 character (1,2,3 or 4), 0 on invalid code.
 553:Drivers/lvgl/src/misc/lv_text.c ****  */
 554:Drivers/lvgl/src/misc/lv_text.c **** static uint8_t lv_text_utf8_size(const char * str)
 555:Drivers/lvgl/src/misc/lv_text.c **** {
 169              		.loc 1 555 1 is_stmt 1 view -0
 170              		.cfi_startproc
 171              		@ args = 0, pretend = 0, frame = 0
 172              		@ frame_needed = 0, uses_anonymous_args = 0
 173              		@ link register save eliminated.
 556:Drivers/lvgl/src/misc/lv_text.c ****     if(LV_IS_ASCII(str[0]))
 174              		.loc 1 556 5 view .LVU48
 175              		.loc 1 556 8 is_stmt 0 view .LVU49
 176 0000 0378     		ldrb	r3, [r0]	@ zero_extendqisi2
 177 0002 90F90020 		ldrsb	r2, [r0]
 178              		.loc 1 556 7 view .LVU50
 179 0006 002A     		cmp	r2, #0
 180 0008 0DDA     		bge	.L14
 557:Drivers/lvgl/src/misc/lv_text.c ****         return 1;
 558:Drivers/lvgl/src/misc/lv_text.c ****     else if(LV_IS_2BYTES_UTF8_CODE(str[0]))
 181              		.loc 1 558 10 is_stmt 1 view .LVU51
 182              		.loc 1 558 12 is_stmt 0 view .LVU52
 183 000a 03F0E002 		and	r2, r3, #224
 184 000e C02A     		cmp	r2, #192
ARM GAS  /var/folders/qx/2_175_4n2s19vhvtspjhb3qh0000gn/T//ccc2Jk7F.s 			page 18


 185 0010 0BD0     		beq	.L15
 559:Drivers/lvgl/src/misc/lv_text.c ****         return 2;
 560:Drivers/lvgl/src/misc/lv_text.c ****     else if(LV_IS_3BYTES_UTF8_CODE(str[0]))
 186              		.loc 1 560 10 is_stmt 1 view .LVU53
 187              		.loc 1 560 12 is_stmt 0 view .LVU54
 188 0012 03F0F002 		and	r2, r3, #240
 189 0016 E02A     		cmp	r2, #224
 190 0018 09D0     		beq	.L16
 561:Drivers/lvgl/src/misc/lv_text.c ****         return 3;
 562:Drivers/lvgl/src/misc/lv_text.c ****     else if(LV_IS_4BYTES_UTF8_CODE(str[0]))
 191              		.loc 1 562 10 is_stmt 1 view .LVU55
 192              		.loc 1 562 12 is_stmt 0 view .LVU56
 193 001a 03F0F803 		and	r3, r3, #248
 194 001e F02B     		cmp	r3, #240
 195 0020 07D0     		beq	.L17
 563:Drivers/lvgl/src/misc/lv_text.c ****         return 4;
 564:Drivers/lvgl/src/misc/lv_text.c ****     return 0;
 196              		.loc 1 564 12 view .LVU57
 197 0022 0020     		movs	r0, #0
 198              	.LVL21:
 199              		.loc 1 564 12 view .LVU58
 200 0024 7047     		bx	lr
 201              	.LVL22:
 202              	.L14:
 557:Drivers/lvgl/src/misc/lv_text.c ****     else if(LV_IS_2BYTES_UTF8_CODE(str[0]))
 203              		.loc 1 557 16 view .LVU59
 204 0026 0120     		movs	r0, #1
 205              	.LVL23:
 557:Drivers/lvgl/src/misc/lv_text.c ****     else if(LV_IS_2BYTES_UTF8_CODE(str[0]))
 206              		.loc 1 557 16 view .LVU60
 207 0028 7047     		bx	lr
 208              	.LVL24:
 209              	.L15:
 559:Drivers/lvgl/src/misc/lv_text.c ****     else if(LV_IS_3BYTES_UTF8_CODE(str[0]))
 210              		.loc 1 559 16 view .LVU61
 211 002a 0220     		movs	r0, #2
 212              	.LVL25:
 559:Drivers/lvgl/src/misc/lv_text.c ****     else if(LV_IS_3BYTES_UTF8_CODE(str[0]))
 213              		.loc 1 559 16 view .LVU62
 214 002c 7047     		bx	lr
 215              	.LVL26:
 216              	.L16:
 561:Drivers/lvgl/src/misc/lv_text.c ****     else if(LV_IS_4BYTES_UTF8_CODE(str[0]))
 217              		.loc 1 561 16 view .LVU63
 218 002e 0320     		movs	r0, #3
 219              	.LVL27:
 561:Drivers/lvgl/src/misc/lv_text.c ****     else if(LV_IS_4BYTES_UTF8_CODE(str[0]))
 220              		.loc 1 561 16 view .LVU64
 221 0030 7047     		bx	lr
 222              	.LVL28:
 223              	.L17:
 563:Drivers/lvgl/src/misc/lv_text.c ****     return 0;
 224              		.loc 1 563 16 view .LVU65
 225 0032 0420     		movs	r0, #4
 226              	.LVL29:
 565:Drivers/lvgl/src/misc/lv_text.c **** }
 227              		.loc 1 565 1 view .LVU66
ARM GAS  /var/folders/qx/2_175_4n2s19vhvtspjhb3qh0000gn/T//ccc2Jk7F.s 			page 19


 228 0034 7047     		bx	lr
 229              		.cfi_endproc
 230              	.LFE45:
 232              		.section	.text.lv_text_unicode_to_utf8,"ax",%progbits
 233              		.align	1
 234              		.syntax unified
 235              		.thumb
 236              		.thumb_func
 238              	lv_text_unicode_to_utf8:
 239              	.LVL30:
 240              	.LFB46:
 566:Drivers/lvgl/src/misc/lv_text.c **** 
 567:Drivers/lvgl/src/misc/lv_text.c **** /**
 568:Drivers/lvgl/src/misc/lv_text.c ****  * Convert a Unicode letter to UTF-8.
 569:Drivers/lvgl/src/misc/lv_text.c ****  * @param letter_uni a Unicode letter
 570:Drivers/lvgl/src/misc/lv_text.c ****  * @return UTF-8 coded character in Little Endian to be compatible with C chars (e.g. 'Á', 'Ű')
 571:Drivers/lvgl/src/misc/lv_text.c ****  */
 572:Drivers/lvgl/src/misc/lv_text.c **** static uint32_t lv_text_unicode_to_utf8(uint32_t letter_uni)
 573:Drivers/lvgl/src/misc/lv_text.c **** {
 241              		.loc 1 573 1 is_stmt 1 view -0
 242              		.cfi_startproc
 243              		@ args = 0, pretend = 0, frame = 8
 244              		@ frame_needed = 0, uses_anonymous_args = 0
 245              		@ link register save eliminated.
 574:Drivers/lvgl/src/misc/lv_text.c ****     if(letter_uni < 128) return letter_uni;
 246              		.loc 1 574 5 view .LVU68
 247              		.loc 1 574 7 is_stmt 0 view .LVU69
 248 0000 7F28     		cmp	r0, #127
 249 0002 4ED9     		bls	.L26
 573:Drivers/lvgl/src/misc/lv_text.c ****     if(letter_uni < 128) return letter_uni;
 250              		.loc 1 573 1 view .LVU70
 251 0004 82B0     		sub	sp, sp, #8
 252              	.LCFI0:
 253              		.cfi_def_cfa_offset 8
 575:Drivers/lvgl/src/misc/lv_text.c ****     uint8_t bytes[4];
 254              		.loc 1 575 5 is_stmt 1 view .LVU71
 576:Drivers/lvgl/src/misc/lv_text.c **** 
 577:Drivers/lvgl/src/misc/lv_text.c ****     if(letter_uni < 0x0800) {
 255              		.loc 1 577 5 view .LVU72
 256              		.loc 1 577 7 is_stmt 0 view .LVU73
 257 0006 B0F5006F 		cmp	r0, #2048
 258 000a 13D2     		bcs	.L20
 578:Drivers/lvgl/src/misc/lv_text.c ****         bytes[0] = ((letter_uni >> 6) & 0x1F) | 0xC0;
 259              		.loc 1 578 9 is_stmt 1 view .LVU74
 260              		.loc 1 578 39 is_stmt 0 view .LVU75
 261 000c C0F38413 		ubfx	r3, r0, #6, #5
 262              		.loc 1 578 47 view .LVU76
 263 0010 43F0C003 		orr	r3, r3, #192
 264              		.loc 1 578 18 view .LVU77
 265 0014 8DF80430 		strb	r3, [sp, #4]
 579:Drivers/lvgl/src/misc/lv_text.c ****         bytes[1] = ((letter_uni >> 0) & 0x3F) | 0x80;
 266              		.loc 1 579 9 is_stmt 1 view .LVU78
 267              		.loc 1 579 39 is_stmt 0 view .LVU79
 268 0018 00F03F00 		and	r0, r0, #63
 269              	.LVL31:
 270              		.loc 1 579 47 view .LVU80
 271 001c 40F08000 		orr	r0, r0, #128
ARM GAS  /var/folders/qx/2_175_4n2s19vhvtspjhb3qh0000gn/T//ccc2Jk7F.s 			page 20


 272              		.loc 1 579 18 view .LVU81
 273 0020 8DF80500 		strb	r0, [sp, #5]
 580:Drivers/lvgl/src/misc/lv_text.c ****         bytes[2] = 0;
 274              		.loc 1 580 9 is_stmt 1 view .LVU82
 275              		.loc 1 580 18 is_stmt 0 view .LVU83
 276 0024 0023     		movs	r3, #0
 277 0026 8DF80630 		strb	r3, [sp, #6]
 581:Drivers/lvgl/src/misc/lv_text.c ****         bytes[3] = 0;
 278              		.loc 1 581 9 is_stmt 1 view .LVU84
 279              		.loc 1 581 18 is_stmt 0 view .LVU85
 280 002a 8DF80730 		strb	r3, [sp, #7]
 281              	.L21:
 582:Drivers/lvgl/src/misc/lv_text.c ****     }
 583:Drivers/lvgl/src/misc/lv_text.c ****     else if(letter_uni < 0x010000) {
 584:Drivers/lvgl/src/misc/lv_text.c ****         bytes[0] = ((letter_uni >> 12) & 0x0F) | 0xE0;
 585:Drivers/lvgl/src/misc/lv_text.c ****         bytes[1] = ((letter_uni >> 6) & 0x3F) | 0x80;
 586:Drivers/lvgl/src/misc/lv_text.c ****         bytes[2] = ((letter_uni >> 0) & 0x3F) | 0x80;
 587:Drivers/lvgl/src/misc/lv_text.c ****         bytes[3] = 0;
 588:Drivers/lvgl/src/misc/lv_text.c ****     }
 589:Drivers/lvgl/src/misc/lv_text.c ****     else if(letter_uni < 0x110000) {
 590:Drivers/lvgl/src/misc/lv_text.c ****         bytes[0] = ((letter_uni >> 18) & 0x07) | 0xF0;
 591:Drivers/lvgl/src/misc/lv_text.c ****         bytes[1] = ((letter_uni >> 12) & 0x3F) | 0x80;
 592:Drivers/lvgl/src/misc/lv_text.c ****         bytes[2] = ((letter_uni >> 6) & 0x3F) | 0x80;
 593:Drivers/lvgl/src/misc/lv_text.c ****         bytes[3] = ((letter_uni >> 0) & 0x3F) | 0x80;
 594:Drivers/lvgl/src/misc/lv_text.c ****     }
 595:Drivers/lvgl/src/misc/lv_text.c ****     else {
 596:Drivers/lvgl/src/misc/lv_text.c ****         return 0;
 597:Drivers/lvgl/src/misc/lv_text.c ****     }
 598:Drivers/lvgl/src/misc/lv_text.c **** 
 599:Drivers/lvgl/src/misc/lv_text.c ****     uint32_t * res_p = (uint32_t *)bytes;
 282              		.loc 1 599 5 is_stmt 1 view .LVU86
 283              	.LVL32:
 600:Drivers/lvgl/src/misc/lv_text.c ****     return *res_p;
 284              		.loc 1 600 5 view .LVU87
 285              		.loc 1 600 12 is_stmt 0 view .LVU88
 286 002e 0198     		ldr	r0, [sp, #4]
 287              	.LVL33:
 288              	.L18:
 601:Drivers/lvgl/src/misc/lv_text.c **** }
 289              		.loc 1 601 1 view .LVU89
 290 0030 02B0     		add	sp, sp, #8
 291              	.LCFI1:
 292              		.cfi_remember_state
 293              		.cfi_def_cfa_offset 0
 294              		@ sp needed
 295 0032 7047     		bx	lr
 296              	.LVL34:
 297              	.L20:
 298              	.LCFI2:
 299              		.cfi_restore_state
 583:Drivers/lvgl/src/misc/lv_text.c ****         bytes[0] = ((letter_uni >> 12) & 0x0F) | 0xE0;
 300              		.loc 1 583 10 is_stmt 1 view .LVU90
 583:Drivers/lvgl/src/misc/lv_text.c ****         bytes[0] = ((letter_uni >> 12) & 0x0F) | 0xE0;
 301              		.loc 1 583 12 is_stmt 0 view .LVU91
 302 0034 B0F5803F 		cmp	r0, #65536
 303 0038 15D2     		bcs	.L22
 584:Drivers/lvgl/src/misc/lv_text.c ****         bytes[1] = ((letter_uni >> 6) & 0x3F) | 0x80;
ARM GAS  /var/folders/qx/2_175_4n2s19vhvtspjhb3qh0000gn/T//ccc2Jk7F.s 			page 21


 304              		.loc 1 584 9 is_stmt 1 view .LVU92
 584:Drivers/lvgl/src/misc/lv_text.c ****         bytes[1] = ((letter_uni >> 6) & 0x3F) | 0x80;
 305              		.loc 1 584 40 is_stmt 0 view .LVU93
 306 003a C0F30333 		ubfx	r3, r0, #12, #4
 584:Drivers/lvgl/src/misc/lv_text.c ****         bytes[1] = ((letter_uni >> 6) & 0x3F) | 0x80;
 307              		.loc 1 584 48 view .LVU94
 308 003e 43F0E003 		orr	r3, r3, #224
 584:Drivers/lvgl/src/misc/lv_text.c ****         bytes[1] = ((letter_uni >> 6) & 0x3F) | 0x80;
 309              		.loc 1 584 18 view .LVU95
 310 0042 8DF80430 		strb	r3, [sp, #4]
 585:Drivers/lvgl/src/misc/lv_text.c ****         bytes[2] = ((letter_uni >> 0) & 0x3F) | 0x80;
 311              		.loc 1 585 9 is_stmt 1 view .LVU96
 585:Drivers/lvgl/src/misc/lv_text.c ****         bytes[2] = ((letter_uni >> 0) & 0x3F) | 0x80;
 312              		.loc 1 585 39 is_stmt 0 view .LVU97
 313 0046 C0F38513 		ubfx	r3, r0, #6, #6
 585:Drivers/lvgl/src/misc/lv_text.c ****         bytes[2] = ((letter_uni >> 0) & 0x3F) | 0x80;
 314              		.loc 1 585 47 view .LVU98
 315 004a 43F08003 		orr	r3, r3, #128
 585:Drivers/lvgl/src/misc/lv_text.c ****         bytes[2] = ((letter_uni >> 0) & 0x3F) | 0x80;
 316              		.loc 1 585 18 view .LVU99
 317 004e 8DF80530 		strb	r3, [sp, #5]
 586:Drivers/lvgl/src/misc/lv_text.c ****         bytes[3] = 0;
 318              		.loc 1 586 9 is_stmt 1 view .LVU100
 586:Drivers/lvgl/src/misc/lv_text.c ****         bytes[3] = 0;
 319              		.loc 1 586 39 is_stmt 0 view .LVU101
 320 0052 00F03F00 		and	r0, r0, #63
 321              	.LVL35:
 586:Drivers/lvgl/src/misc/lv_text.c ****         bytes[3] = 0;
 322              		.loc 1 586 47 view .LVU102
 323 0056 40F08000 		orr	r0, r0, #128
 586:Drivers/lvgl/src/misc/lv_text.c ****         bytes[3] = 0;
 324              		.loc 1 586 18 view .LVU103
 325 005a 8DF80600 		strb	r0, [sp, #6]
 587:Drivers/lvgl/src/misc/lv_text.c ****     }
 326              		.loc 1 587 9 is_stmt 1 view .LVU104
 587:Drivers/lvgl/src/misc/lv_text.c ****     }
 327              		.loc 1 587 18 is_stmt 0 view .LVU105
 328 005e 0023     		movs	r3, #0
 329 0060 8DF80730 		strb	r3, [sp, #7]
 330 0064 E3E7     		b	.L21
 331              	.LVL36:
 332              	.L22:
 589:Drivers/lvgl/src/misc/lv_text.c ****         bytes[0] = ((letter_uni >> 18) & 0x07) | 0xF0;
 333              		.loc 1 589 10 is_stmt 1 view .LVU106
 589:Drivers/lvgl/src/misc/lv_text.c ****         bytes[0] = ((letter_uni >> 18) & 0x07) | 0xF0;
 334              		.loc 1 589 12 is_stmt 0 view .LVU107
 335 0066 B0F5881F 		cmp	r0, #1114112
 336 006a 18D2     		bcs	.L24
 590:Drivers/lvgl/src/misc/lv_text.c ****         bytes[1] = ((letter_uni >> 12) & 0x3F) | 0x80;
 337              		.loc 1 590 9 is_stmt 1 view .LVU108
 590:Drivers/lvgl/src/misc/lv_text.c ****         bytes[1] = ((letter_uni >> 12) & 0x3F) | 0x80;
 338              		.loc 1 590 40 is_stmt 0 view .LVU109
 339 006c C0F38243 		ubfx	r3, r0, #18, #3
 590:Drivers/lvgl/src/misc/lv_text.c ****         bytes[1] = ((letter_uni >> 12) & 0x3F) | 0x80;
 340              		.loc 1 590 48 view .LVU110
 341 0070 43F0F003 		orr	r3, r3, #240
 590:Drivers/lvgl/src/misc/lv_text.c ****         bytes[1] = ((letter_uni >> 12) & 0x3F) | 0x80;
ARM GAS  /var/folders/qx/2_175_4n2s19vhvtspjhb3qh0000gn/T//ccc2Jk7F.s 			page 22


 342              		.loc 1 590 18 view .LVU111
 343 0074 8DF80430 		strb	r3, [sp, #4]
 591:Drivers/lvgl/src/misc/lv_text.c ****         bytes[2] = ((letter_uni >> 6) & 0x3F) | 0x80;
 344              		.loc 1 591 9 is_stmt 1 view .LVU112
 591:Drivers/lvgl/src/misc/lv_text.c ****         bytes[2] = ((letter_uni >> 6) & 0x3F) | 0x80;
 345              		.loc 1 591 40 is_stmt 0 view .LVU113
 346 0078 C0F30533 		ubfx	r3, r0, #12, #6
 591:Drivers/lvgl/src/misc/lv_text.c ****         bytes[2] = ((letter_uni >> 6) & 0x3F) | 0x80;
 347              		.loc 1 591 48 view .LVU114
 348 007c 43F08003 		orr	r3, r3, #128
 591:Drivers/lvgl/src/misc/lv_text.c ****         bytes[2] = ((letter_uni >> 6) & 0x3F) | 0x80;
 349              		.loc 1 591 18 view .LVU115
 350 0080 8DF80530 		strb	r3, [sp, #5]
 592:Drivers/lvgl/src/misc/lv_text.c ****         bytes[3] = ((letter_uni >> 0) & 0x3F) | 0x80;
 351              		.loc 1 592 9 is_stmt 1 view .LVU116
 592:Drivers/lvgl/src/misc/lv_text.c ****         bytes[3] = ((letter_uni >> 0) & 0x3F) | 0x80;
 352              		.loc 1 592 39 is_stmt 0 view .LVU117
 353 0084 C0F38513 		ubfx	r3, r0, #6, #6
 592:Drivers/lvgl/src/misc/lv_text.c ****         bytes[3] = ((letter_uni >> 0) & 0x3F) | 0x80;
 354              		.loc 1 592 47 view .LVU118
 355 0088 43F08003 		orr	r3, r3, #128
 592:Drivers/lvgl/src/misc/lv_text.c ****         bytes[3] = ((letter_uni >> 0) & 0x3F) | 0x80;
 356              		.loc 1 592 18 view .LVU119
 357 008c 8DF80630 		strb	r3, [sp, #6]
 593:Drivers/lvgl/src/misc/lv_text.c ****     }
 358              		.loc 1 593 9 is_stmt 1 view .LVU120
 593:Drivers/lvgl/src/misc/lv_text.c ****     }
 359              		.loc 1 593 39 is_stmt 0 view .LVU121
 360 0090 00F03F00 		and	r0, r0, #63
 361              	.LVL37:
 593:Drivers/lvgl/src/misc/lv_text.c ****     }
 362              		.loc 1 593 47 view .LVU122
 363 0094 40F08000 		orr	r0, r0, #128
 593:Drivers/lvgl/src/misc/lv_text.c ****     }
 364              		.loc 1 593 18 view .LVU123
 365 0098 8DF80700 		strb	r0, [sp, #7]
 366 009c C7E7     		b	.L21
 367              	.LVL38:
 368              	.L24:
 596:Drivers/lvgl/src/misc/lv_text.c ****     }
 369              		.loc 1 596 16 view .LVU124
 370 009e 0020     		movs	r0, #0
 371              	.LVL39:
 596:Drivers/lvgl/src/misc/lv_text.c ****     }
 372              		.loc 1 596 16 view .LVU125
 373 00a0 C6E7     		b	.L18
 374              	.LVL40:
 375              	.L26:
 376              	.LCFI3:
 377              		.cfi_def_cfa_offset 0
 378              		.loc 1 601 1 view .LVU126
 379 00a2 7047     		bx	lr
 380              		.cfi_endproc
 381              	.LFE46:
 383              		.section	.text.lv_text_utf8_next,"ax",%progbits
 384              		.align	1
 385              		.syntax unified
ARM GAS  /var/folders/qx/2_175_4n2s19vhvtspjhb3qh0000gn/T//ccc2Jk7F.s 			page 23


 386              		.thumb
 387              		.thumb_func
 389              	lv_text_utf8_next:
 390              	.LVL41:
 391              	.LFB48:
 602:Drivers/lvgl/src/misc/lv_text.c **** 
 603:Drivers/lvgl/src/misc/lv_text.c **** /**
 604:Drivers/lvgl/src/misc/lv_text.c ****  * Convert a wide character, e.g. 'Á' little endian to be UTF-8 compatible
 605:Drivers/lvgl/src/misc/lv_text.c ****  * @param c a wide character or a  Little endian number
 606:Drivers/lvgl/src/misc/lv_text.c ****  * @return `c` in big endian
 607:Drivers/lvgl/src/misc/lv_text.c ****  */
 608:Drivers/lvgl/src/misc/lv_text.c **** static uint32_t lv_text_utf8_conv_wc(uint32_t c)
 609:Drivers/lvgl/src/misc/lv_text.c **** {
 610:Drivers/lvgl/src/misc/lv_text.c **** #if LV_BIG_ENDIAN_SYSTEM == 0
 611:Drivers/lvgl/src/misc/lv_text.c ****     /*Swap the bytes (UTF-8 is big endian, but the MCUs are little endian)*/
 612:Drivers/lvgl/src/misc/lv_text.c ****     if((c & 0x80) != 0) {
 613:Drivers/lvgl/src/misc/lv_text.c ****         uint32_t swapped;
 614:Drivers/lvgl/src/misc/lv_text.c ****         uint8_t c8[4];
 615:Drivers/lvgl/src/misc/lv_text.c ****         lv_memcpy(c8, &c, 4);
 616:Drivers/lvgl/src/misc/lv_text.c ****         swapped = (c8[0] << 24) + (c8[1] << 16) + (c8[2] << 8) + (c8[3]);
 617:Drivers/lvgl/src/misc/lv_text.c ****         uint8_t i;
 618:Drivers/lvgl/src/misc/lv_text.c ****         for(i = 0; i < 4; i++) {
 619:Drivers/lvgl/src/misc/lv_text.c ****             if((swapped & 0xFF) == 0)
 620:Drivers/lvgl/src/misc/lv_text.c ****                 swapped = (swapped >> 8); /*Ignore leading zeros (they were in the end originally)*
 621:Drivers/lvgl/src/misc/lv_text.c ****         }
 622:Drivers/lvgl/src/misc/lv_text.c ****         c = swapped;
 623:Drivers/lvgl/src/misc/lv_text.c ****     }
 624:Drivers/lvgl/src/misc/lv_text.c **** #endif
 625:Drivers/lvgl/src/misc/lv_text.c ****     return c;
 626:Drivers/lvgl/src/misc/lv_text.c **** }
 627:Drivers/lvgl/src/misc/lv_text.c **** 
 628:Drivers/lvgl/src/misc/lv_text.c **** /**
 629:Drivers/lvgl/src/misc/lv_text.c ****  * Decode an UTF-8 character from a string.
 630:Drivers/lvgl/src/misc/lv_text.c ****  * @param txt pointer to '\0' terminated string
 631:Drivers/lvgl/src/misc/lv_text.c ****  * @param i start byte index in 'txt' where to start.
 632:Drivers/lvgl/src/misc/lv_text.c ****  *          After call it will point to the next UTF-8 char in 'txt'.
 633:Drivers/lvgl/src/misc/lv_text.c ****  *          NULL to use txt[0] as index
 634:Drivers/lvgl/src/misc/lv_text.c ****  * @return the decoded Unicode character or 0 on invalid UTF-8 code
 635:Drivers/lvgl/src/misc/lv_text.c ****  */
 636:Drivers/lvgl/src/misc/lv_text.c **** static uint32_t lv_text_utf8_next(const char * txt, uint32_t * i)
 637:Drivers/lvgl/src/misc/lv_text.c **** {
 392              		.loc 1 637 1 is_stmt 1 view -0
 393              		.cfi_startproc
 394              		@ args = 0, pretend = 0, frame = 8
 395              		@ frame_needed = 0, uses_anonymous_args = 0
 396              		.loc 1 637 1 is_stmt 0 view .LVU128
 397 0000 00B5     		push	{lr}
 398              	.LCFI4:
 399              		.cfi_def_cfa_offset 4
 400              		.cfi_offset 14, -4
 401 0002 83B0     		sub	sp, sp, #12
 402              	.LCFI5:
 403              		.cfi_def_cfa_offset 16
 638:Drivers/lvgl/src/misc/lv_text.c ****     /**
 639:Drivers/lvgl/src/misc/lv_text.c ****      * Unicode to UTF-8
 640:Drivers/lvgl/src/misc/lv_text.c ****      * 00000000 00000000 00000000 0xxxxxxx -> 0xxxxxxx
 641:Drivers/lvgl/src/misc/lv_text.c ****      * 00000000 00000000 00000yyy yyxxxxxx -> 110yyyyy 10xxxxxx
ARM GAS  /var/folders/qx/2_175_4n2s19vhvtspjhb3qh0000gn/T//ccc2Jk7F.s 			page 24


 642:Drivers/lvgl/src/misc/lv_text.c ****      * 00000000 00000000 zzzzyyyy yyxxxxxx -> 1110zzzz 10yyyyyy 10xxxxxx
 643:Drivers/lvgl/src/misc/lv_text.c ****      * 00000000 000wwwzz zzzzyyyy yyxxxxxx -> 11110www 10zzzzzz 10yyyyyy 10xxxxxx
 644:Drivers/lvgl/src/misc/lv_text.c ****      */
 645:Drivers/lvgl/src/misc/lv_text.c **** 
 646:Drivers/lvgl/src/misc/lv_text.c ****     uint32_t result = 0;
 404              		.loc 1 646 5 is_stmt 1 view .LVU129
 405              	.LVL42:
 647:Drivers/lvgl/src/misc/lv_text.c **** 
 648:Drivers/lvgl/src/misc/lv_text.c ****     /*Dummy 'i' pointer is required*/
 649:Drivers/lvgl/src/misc/lv_text.c ****     uint32_t i_tmp = 0;
 406              		.loc 1 649 5 view .LVU130
 407              		.loc 1 649 14 is_stmt 0 view .LVU131
 408 0004 0023     		movs	r3, #0
 409 0006 0193     		str	r3, [sp, #4]
 650:Drivers/lvgl/src/misc/lv_text.c ****     if(i == NULL) i = &i_tmp;
 410              		.loc 1 650 5 is_stmt 1 view .LVU132
 411              		.loc 1 650 7 is_stmt 0 view .LVU133
 412 0008 8C46     		mov	ip, r1
 413 000a 81B1     		cbz	r1, .L46
 414              	.L30:
 415              	.LVL43:
 651:Drivers/lvgl/src/misc/lv_text.c **** 
 652:Drivers/lvgl/src/misc/lv_text.c ****     /* Ensure the string is not null */
 653:Drivers/lvgl/src/misc/lv_text.c ****     if(txt == NULL || txt[*i] == '\0') {
 416              		.loc 1 653 5 is_stmt 1 view .LVU134
 417              		.loc 1 653 7 is_stmt 0 view .LVU135
 418 000c 0028     		cmp	r0, #0
 419 000e 7ED0     		beq	.L37
 420              		.loc 1 653 27 discriminator 1 view .LVU136
 421 0010 DCF80020 		ldr	r2, [ip]
 422              		.loc 1 653 26 discriminator 1 view .LVU137
 423 0014 835C     		ldrb	r3, [r0, r2]	@ zero_extendqisi2
 424              		.loc 1 653 20 discriminator 1 view .LVU138
 425 0016 002B     		cmp	r3, #0
 426 0018 7BD0     		beq	.L38
 654:Drivers/lvgl/src/misc/lv_text.c ****         return result;
 655:Drivers/lvgl/src/misc/lv_text.c ****     }
 656:Drivers/lvgl/src/misc/lv_text.c **** 
 657:Drivers/lvgl/src/misc/lv_text.c ****     /*Normal ASCII*/
 658:Drivers/lvgl/src/misc/lv_text.c ****     if(LV_IS_ASCII(txt[*i])) {
 427              		.loc 1 658 5 is_stmt 1 view .LVU139
 428              		.loc 1 658 7 is_stmt 0 view .LVU140
 429 001a 13F0800F 		tst	r3, #128
 430 001e 09D1     		bne	.L32
 659:Drivers/lvgl/src/misc/lv_text.c ****         result = txt[*i];
 431              		.loc 1 659 9 is_stmt 1 view .LVU141
 432              		.loc 1 659 16 is_stmt 0 view .LVU142
 433 0020 1846     		mov	r0, r3
 434              	.LVL44:
 660:Drivers/lvgl/src/misc/lv_text.c ****         (*i)++;
 435              		.loc 1 660 9 is_stmt 1 view .LVU143
 436              		.loc 1 660 13 is_stmt 0 view .LVU144
 437 0022 0132     		adds	r2, r2, #1
 438 0024 CCF80020 		str	r2, [ip]
 439              	.LVL45:
 440              	.L29:
 661:Drivers/lvgl/src/misc/lv_text.c ****     }
ARM GAS  /var/folders/qx/2_175_4n2s19vhvtspjhb3qh0000gn/T//ccc2Jk7F.s 			page 25


 662:Drivers/lvgl/src/misc/lv_text.c ****     /*Real UTF-8 decode*/
 663:Drivers/lvgl/src/misc/lv_text.c ****     else {
 664:Drivers/lvgl/src/misc/lv_text.c ****         /*2 bytes UTF-8 code*/
 665:Drivers/lvgl/src/misc/lv_text.c ****         if(LV_IS_2BYTES_UTF8_CODE(txt[*i])) {
 666:Drivers/lvgl/src/misc/lv_text.c ****             result = (uint32_t)(txt[*i] & 0x1F) << 6;
 667:Drivers/lvgl/src/misc/lv_text.c ****             (*i)++;
 668:Drivers/lvgl/src/misc/lv_text.c ****             if(LV_IS_INVALID_UTF8_CODE(txt[*i])) return 0;
 669:Drivers/lvgl/src/misc/lv_text.c ****             result += (txt[*i] & 0x3F);
 670:Drivers/lvgl/src/misc/lv_text.c ****             (*i)++;
 671:Drivers/lvgl/src/misc/lv_text.c ****         }
 672:Drivers/lvgl/src/misc/lv_text.c ****         /*3 bytes UTF-8 code*/
 673:Drivers/lvgl/src/misc/lv_text.c ****         else if(LV_IS_3BYTES_UTF8_CODE(txt[*i])) {
 674:Drivers/lvgl/src/misc/lv_text.c ****             result = (uint32_t)(txt[*i] & 0x0F) << 12;
 675:Drivers/lvgl/src/misc/lv_text.c ****             (*i)++;
 676:Drivers/lvgl/src/misc/lv_text.c **** 
 677:Drivers/lvgl/src/misc/lv_text.c ****             if(LV_IS_INVALID_UTF8_CODE(txt[*i])) return 0;
 678:Drivers/lvgl/src/misc/lv_text.c ****             result += (uint32_t)(txt[*i] & 0x3F) << 6;
 679:Drivers/lvgl/src/misc/lv_text.c ****             (*i)++;
 680:Drivers/lvgl/src/misc/lv_text.c **** 
 681:Drivers/lvgl/src/misc/lv_text.c ****             if(LV_IS_INVALID_UTF8_CODE(txt[*i])) return 0;
 682:Drivers/lvgl/src/misc/lv_text.c ****             result += (txt[*i] & 0x3F);
 683:Drivers/lvgl/src/misc/lv_text.c ****             (*i)++;
 684:Drivers/lvgl/src/misc/lv_text.c ****         }
 685:Drivers/lvgl/src/misc/lv_text.c ****         /*4 bytes UTF-8 code*/
 686:Drivers/lvgl/src/misc/lv_text.c ****         else if(LV_IS_4BYTES_UTF8_CODE(txt[*i])) {
 687:Drivers/lvgl/src/misc/lv_text.c ****             result = (uint32_t)(txt[*i] & 0x07) << 18;
 688:Drivers/lvgl/src/misc/lv_text.c ****             (*i)++;
 689:Drivers/lvgl/src/misc/lv_text.c **** 
 690:Drivers/lvgl/src/misc/lv_text.c ****             if(LV_IS_INVALID_UTF8_CODE(txt[*i])) return 0;
 691:Drivers/lvgl/src/misc/lv_text.c ****             result += (uint32_t)(txt[*i] & 0x3F) << 12;
 692:Drivers/lvgl/src/misc/lv_text.c ****             (*i)++;
 693:Drivers/lvgl/src/misc/lv_text.c **** 
 694:Drivers/lvgl/src/misc/lv_text.c ****             if(LV_IS_INVALID_UTF8_CODE(txt[*i])) return 0;
 695:Drivers/lvgl/src/misc/lv_text.c ****             result += (uint32_t)(txt[*i] & 0x3F) << 6;
 696:Drivers/lvgl/src/misc/lv_text.c ****             (*i)++;
 697:Drivers/lvgl/src/misc/lv_text.c **** 
 698:Drivers/lvgl/src/misc/lv_text.c ****             if(LV_IS_INVALID_UTF8_CODE(txt[*i])) return 0;
 699:Drivers/lvgl/src/misc/lv_text.c ****             result += txt[*i] & 0x3F;
 700:Drivers/lvgl/src/misc/lv_text.c ****             (*i)++;
 701:Drivers/lvgl/src/misc/lv_text.c ****         }
 702:Drivers/lvgl/src/misc/lv_text.c ****         else {
 703:Drivers/lvgl/src/misc/lv_text.c ****             (*i)++; /*Not UTF-8 char. Go the next.*/
 704:Drivers/lvgl/src/misc/lv_text.c ****         }
 705:Drivers/lvgl/src/misc/lv_text.c ****     }
 706:Drivers/lvgl/src/misc/lv_text.c ****     return result;
 707:Drivers/lvgl/src/misc/lv_text.c **** }
 441              		.loc 1 707 1 view .LVU145
 442 0028 03B0     		add	sp, sp, #12
 443              	.LCFI6:
 444              		.cfi_remember_state
 445              		.cfi_def_cfa_offset 4
 446              		@ sp needed
 447 002a 5DF804FB 		ldr	pc, [sp], #4
 448              	.LVL46:
 449              	.L46:
 450              	.LCFI7:
 451              		.cfi_restore_state
ARM GAS  /var/folders/qx/2_175_4n2s19vhvtspjhb3qh0000gn/T//ccc2Jk7F.s 			page 26


 650:Drivers/lvgl/src/misc/lv_text.c **** 
 452              		.loc 1 650 21 discriminator 1 view .LVU146
 453 002e 0DF1040C 		add	ip, sp, #4
 454 0032 EBE7     		b	.L30
 455              	.LVL47:
 456              	.L32:
 665:Drivers/lvgl/src/misc/lv_text.c ****             result = (uint32_t)(txt[*i] & 0x1F) << 6;
 457              		.loc 1 665 9 is_stmt 1 view .LVU147
 665:Drivers/lvgl/src/misc/lv_text.c ****             result = (uint32_t)(txt[*i] & 0x1F) << 6;
 458              		.loc 1 665 11 is_stmt 0 view .LVU148
 459 0034 03F0E001 		and	r1, r3, #224
 460 0038 C029     		cmp	r1, #192
 461 003a 0CD0     		beq	.L47
 673:Drivers/lvgl/src/misc/lv_text.c ****             result = (uint32_t)(txt[*i] & 0x0F) << 12;
 462              		.loc 1 673 14 is_stmt 1 view .LVU149
 673:Drivers/lvgl/src/misc/lv_text.c ****             result = (uint32_t)(txt[*i] & 0x0F) << 12;
 463              		.loc 1 673 16 is_stmt 0 view .LVU150
 464 003c 03F0F001 		and	r1, r3, #240
 465 0040 E029     		cmp	r1, #224
 466 0042 1AD0     		beq	.L48
 686:Drivers/lvgl/src/misc/lv_text.c ****             result = (uint32_t)(txt[*i] & 0x07) << 18;
 467              		.loc 1 686 14 is_stmt 1 view .LVU151
 686:Drivers/lvgl/src/misc/lv_text.c ****             result = (uint32_t)(txt[*i] & 0x07) << 18;
 468              		.loc 1 686 16 is_stmt 0 view .LVU152
 469 0044 03F0F801 		and	r1, r3, #248
 470 0048 F029     		cmp	r1, #240
 471 004a 34D0     		beq	.L49
 703:Drivers/lvgl/src/misc/lv_text.c ****         }
 472              		.loc 1 703 13 is_stmt 1 view .LVU153
 703:Drivers/lvgl/src/misc/lv_text.c ****         }
 473              		.loc 1 703 17 is_stmt 0 view .LVU154
 474 004c 0132     		adds	r2, r2, #1
 475 004e CCF80020 		str	r2, [ip]
 646:Drivers/lvgl/src/misc/lv_text.c **** 
 476              		.loc 1 646 14 view .LVU155
 477 0052 0020     		movs	r0, #0
 478              	.LVL48:
 646:Drivers/lvgl/src/misc/lv_text.c **** 
 479              		.loc 1 646 14 view .LVU156
 480 0054 E8E7     		b	.L29
 481              	.LVL49:
 482              	.L47:
 666:Drivers/lvgl/src/misc/lv_text.c ****             (*i)++;
 483              		.loc 1 666 13 is_stmt 1 view .LVU157
 666:Drivers/lvgl/src/misc/lv_text.c ****             (*i)++;
 484              		.loc 1 666 49 is_stmt 0 view .LVU158
 485 0056 9B01     		lsls	r3, r3, #6
 666:Drivers/lvgl/src/misc/lv_text.c ****             (*i)++;
 486              		.loc 1 666 20 view .LVU159
 487 0058 03F4F863 		and	r3, r3, #1984
 488              	.LVL50:
 667:Drivers/lvgl/src/misc/lv_text.c ****             if(LV_IS_INVALID_UTF8_CODE(txt[*i])) return 0;
 489              		.loc 1 667 13 is_stmt 1 view .LVU160
 667:Drivers/lvgl/src/misc/lv_text.c ****             if(LV_IS_INVALID_UTF8_CODE(txt[*i])) return 0;
 490              		.loc 1 667 17 is_stmt 0 view .LVU161
 491 005c 511C     		adds	r1, r2, #1
 492 005e CCF80010 		str	r1, [ip]
ARM GAS  /var/folders/qx/2_175_4n2s19vhvtspjhb3qh0000gn/T//ccc2Jk7F.s 			page 27


 668:Drivers/lvgl/src/misc/lv_text.c ****             result += (txt[*i] & 0x3F);
 493              		.loc 1 668 13 is_stmt 1 view .LVU162
 668:Drivers/lvgl/src/misc/lv_text.c ****             result += (txt[*i] & 0x3F);
 494              		.loc 1 668 16 is_stmt 0 view .LVU163
 495 0062 415C     		ldrb	r1, [r0, r1]	@ zero_extendqisi2
 668:Drivers/lvgl/src/misc/lv_text.c ****             result += (txt[*i] & 0x3F);
 496              		.loc 1 668 15 view .LVU164
 497 0064 01F0C000 		and	r0, r1, #192
 498              	.LVL51:
 668:Drivers/lvgl/src/misc/lv_text.c ****             result += (txt[*i] & 0x3F);
 499              		.loc 1 668 15 view .LVU165
 500 0068 8028     		cmp	r0, #128
 501 006a 54D1     		bne	.L39
 669:Drivers/lvgl/src/misc/lv_text.c ****             (*i)++;
 502              		.loc 1 669 13 is_stmt 1 view .LVU166
 669:Drivers/lvgl/src/misc/lv_text.c ****             (*i)++;
 503              		.loc 1 669 32 is_stmt 0 view .LVU167
 504 006c 01F03F01 		and	r1, r1, #63
 669:Drivers/lvgl/src/misc/lv_text.c ****             (*i)++;
 505              		.loc 1 669 20 view .LVU168
 506 0070 C818     		adds	r0, r1, r3
 507              	.LVL52:
 670:Drivers/lvgl/src/misc/lv_text.c ****         }
 508              		.loc 1 670 13 is_stmt 1 view .LVU169
 670:Drivers/lvgl/src/misc/lv_text.c ****         }
 509              		.loc 1 670 17 is_stmt 0 view .LVU170
 510 0072 0232     		adds	r2, r2, #2
 511 0074 CCF80020 		str	r2, [ip]
 512 0078 D6E7     		b	.L29
 513              	.LVL53:
 514              	.L48:
 674:Drivers/lvgl/src/misc/lv_text.c ****             (*i)++;
 515              		.loc 1 674 13 is_stmt 1 view .LVU171
 674:Drivers/lvgl/src/misc/lv_text.c ****             (*i)++;
 516              		.loc 1 674 49 is_stmt 0 view .LVU172
 517 007a 1B03     		lsls	r3, r3, #12
 674:Drivers/lvgl/src/misc/lv_text.c ****             (*i)++;
 518              		.loc 1 674 20 view .LVU173
 519 007c 9BB2     		uxth	r3, r3
 520              	.LVL54:
 675:Drivers/lvgl/src/misc/lv_text.c **** 
 521              		.loc 1 675 13 is_stmt 1 view .LVU174
 675:Drivers/lvgl/src/misc/lv_text.c **** 
 522              		.loc 1 675 17 is_stmt 0 view .LVU175
 523 007e 511C     		adds	r1, r2, #1
 524 0080 CCF80010 		str	r1, [ip]
 677:Drivers/lvgl/src/misc/lv_text.c ****             result += (uint32_t)(txt[*i] & 0x3F) << 6;
 525              		.loc 1 677 13 is_stmt 1 view .LVU176
 677:Drivers/lvgl/src/misc/lv_text.c ****             result += (uint32_t)(txt[*i] & 0x3F) << 6;
 526              		.loc 1 677 16 is_stmt 0 view .LVU177
 527 0084 415C     		ldrb	r1, [r0, r1]	@ zero_extendqisi2
 677:Drivers/lvgl/src/misc/lv_text.c ****             result += (uint32_t)(txt[*i] & 0x3F) << 6;
 528              		.loc 1 677 15 view .LVU178
 529 0086 01F0C00E 		and	lr, r1, #192
 530 008a BEF1800F 		cmp	lr, #128
 531 008e 44D1     		bne	.L40
 678:Drivers/lvgl/src/misc/lv_text.c ****             (*i)++;
ARM GAS  /var/folders/qx/2_175_4n2s19vhvtspjhb3qh0000gn/T//ccc2Jk7F.s 			page 28


 532              		.loc 1 678 13 is_stmt 1 view .LVU179
 678:Drivers/lvgl/src/misc/lv_text.c ****             (*i)++;
 533              		.loc 1 678 50 is_stmt 0 view .LVU180
 534 0090 8901     		lsls	r1, r1, #6
 535 0092 01F47C61 		and	r1, r1, #4032
 678:Drivers/lvgl/src/misc/lv_text.c ****             (*i)++;
 536              		.loc 1 678 20 view .LVU181
 537 0096 1944     		add	r1, r1, r3
 538              	.LVL55:
 679:Drivers/lvgl/src/misc/lv_text.c **** 
 539              		.loc 1 679 13 is_stmt 1 view .LVU182
 679:Drivers/lvgl/src/misc/lv_text.c **** 
 540              		.loc 1 679 17 is_stmt 0 view .LVU183
 541 0098 931C     		adds	r3, r2, #2
 542 009a CCF80030 		str	r3, [ip]
 681:Drivers/lvgl/src/misc/lv_text.c ****             result += (txt[*i] & 0x3F);
 543              		.loc 1 681 13 is_stmt 1 view .LVU184
 681:Drivers/lvgl/src/misc/lv_text.c ****             result += (txt[*i] & 0x3F);
 544              		.loc 1 681 16 is_stmt 0 view .LVU185
 545 009e C35C     		ldrb	r3, [r0, r3]	@ zero_extendqisi2
 681:Drivers/lvgl/src/misc/lv_text.c ****             result += (txt[*i] & 0x3F);
 546              		.loc 1 681 15 view .LVU186
 547 00a0 03F0C000 		and	r0, r3, #192
 548              	.LVL56:
 681:Drivers/lvgl/src/misc/lv_text.c ****             result += (txt[*i] & 0x3F);
 549              		.loc 1 681 15 view .LVU187
 550 00a4 8028     		cmp	r0, #128
 551 00a6 3AD1     		bne	.L41
 682:Drivers/lvgl/src/misc/lv_text.c ****             (*i)++;
 552              		.loc 1 682 13 is_stmt 1 view .LVU188
 682:Drivers/lvgl/src/misc/lv_text.c ****             (*i)++;
 553              		.loc 1 682 32 is_stmt 0 view .LVU189
 554 00a8 03F03F03 		and	r3, r3, #63
 682:Drivers/lvgl/src/misc/lv_text.c ****             (*i)++;
 555              		.loc 1 682 20 view .LVU190
 556 00ac 5818     		adds	r0, r3, r1
 557              	.LVL57:
 683:Drivers/lvgl/src/misc/lv_text.c ****         }
 558              		.loc 1 683 13 is_stmt 1 view .LVU191
 683:Drivers/lvgl/src/misc/lv_text.c ****         }
 559              		.loc 1 683 17 is_stmt 0 view .LVU192
 560 00ae 0332     		adds	r2, r2, #3
 561 00b0 CCF80020 		str	r2, [ip]
 562 00b4 B8E7     		b	.L29
 563              	.LVL58:
 564              	.L49:
 687:Drivers/lvgl/src/misc/lv_text.c ****             (*i)++;
 565              		.loc 1 687 13 is_stmt 1 view .LVU193
 687:Drivers/lvgl/src/misc/lv_text.c ****             (*i)++;
 566              		.loc 1 687 49 is_stmt 0 view .LVU194
 567 00b6 9B04     		lsls	r3, r3, #18
 687:Drivers/lvgl/src/misc/lv_text.c ****             (*i)++;
 568              		.loc 1 687 20 view .LVU195
 569 00b8 03F4E013 		and	r3, r3, #1835008
 570              	.LVL59:
 688:Drivers/lvgl/src/misc/lv_text.c **** 
 571              		.loc 1 688 13 is_stmt 1 view .LVU196
ARM GAS  /var/folders/qx/2_175_4n2s19vhvtspjhb3qh0000gn/T//ccc2Jk7F.s 			page 29


 688:Drivers/lvgl/src/misc/lv_text.c **** 
 572              		.loc 1 688 17 is_stmt 0 view .LVU197
 573 00bc 511C     		adds	r1, r2, #1
 574 00be CCF80010 		str	r1, [ip]
 690:Drivers/lvgl/src/misc/lv_text.c ****             result += (uint32_t)(txt[*i] & 0x3F) << 12;
 575              		.loc 1 690 13 is_stmt 1 view .LVU198
 690:Drivers/lvgl/src/misc/lv_text.c ****             result += (uint32_t)(txt[*i] & 0x3F) << 12;
 576              		.loc 1 690 16 is_stmt 0 view .LVU199
 577 00c2 415C     		ldrb	r1, [r0, r1]	@ zero_extendqisi2
 690:Drivers/lvgl/src/misc/lv_text.c ****             result += (uint32_t)(txt[*i] & 0x3F) << 12;
 578              		.loc 1 690 15 view .LVU200
 579 00c4 01F0C00E 		and	lr, r1, #192
 580 00c8 BEF1800F 		cmp	lr, #128
 581 00cc 29D1     		bne	.L42
 691:Drivers/lvgl/src/misc/lv_text.c ****             (*i)++;
 582              		.loc 1 691 13 is_stmt 1 view .LVU201
 691:Drivers/lvgl/src/misc/lv_text.c ****             (*i)++;
 583              		.loc 1 691 50 is_stmt 0 view .LVU202
 584 00ce 0903     		lsls	r1, r1, #12
 585 00d0 01F47C31 		and	r1, r1, #258048
 691:Drivers/lvgl/src/misc/lv_text.c ****             (*i)++;
 586              		.loc 1 691 20 view .LVU203
 587 00d4 1943     		orrs	r1, r1, r3
 588              	.LVL60:
 692:Drivers/lvgl/src/misc/lv_text.c **** 
 589              		.loc 1 692 13 is_stmt 1 view .LVU204
 692:Drivers/lvgl/src/misc/lv_text.c **** 
 590              		.loc 1 692 17 is_stmt 0 view .LVU205
 591 00d6 931C     		adds	r3, r2, #2
 592 00d8 CCF80030 		str	r3, [ip]
 694:Drivers/lvgl/src/misc/lv_text.c ****             result += (uint32_t)(txt[*i] & 0x3F) << 6;
 593              		.loc 1 694 13 is_stmt 1 view .LVU206
 694:Drivers/lvgl/src/misc/lv_text.c ****             result += (uint32_t)(txt[*i] & 0x3F) << 6;
 594              		.loc 1 694 16 is_stmt 0 view .LVU207
 595 00dc C35C     		ldrb	r3, [r0, r3]	@ zero_extendqisi2
 694:Drivers/lvgl/src/misc/lv_text.c ****             result += (uint32_t)(txt[*i] & 0x3F) << 6;
 596              		.loc 1 694 15 view .LVU208
 597 00de 03F0C00E 		and	lr, r3, #192
 598 00e2 BEF1800F 		cmp	lr, #128
 599 00e6 1ED1     		bne	.L43
 695:Drivers/lvgl/src/misc/lv_text.c ****             (*i)++;
 600              		.loc 1 695 13 is_stmt 1 view .LVU209
 695:Drivers/lvgl/src/misc/lv_text.c ****             (*i)++;
 601              		.loc 1 695 50 is_stmt 0 view .LVU210
 602 00e8 9B01     		lsls	r3, r3, #6
 603 00ea 03F47C63 		and	r3, r3, #4032
 695:Drivers/lvgl/src/misc/lv_text.c ****             (*i)++;
 604              		.loc 1 695 20 view .LVU211
 605 00ee 1944     		add	r1, r1, r3
 606              	.LVL61:
 696:Drivers/lvgl/src/misc/lv_text.c **** 
 607              		.loc 1 696 13 is_stmt 1 view .LVU212
 696:Drivers/lvgl/src/misc/lv_text.c **** 
 608              		.loc 1 696 17 is_stmt 0 view .LVU213
 609 00f0 D31C     		adds	r3, r2, #3
 610 00f2 CCF80030 		str	r3, [ip]
 698:Drivers/lvgl/src/misc/lv_text.c ****             result += txt[*i] & 0x3F;
ARM GAS  /var/folders/qx/2_175_4n2s19vhvtspjhb3qh0000gn/T//ccc2Jk7F.s 			page 30


 611              		.loc 1 698 13 is_stmt 1 view .LVU214
 698:Drivers/lvgl/src/misc/lv_text.c ****             result += txt[*i] & 0x3F;
 612              		.loc 1 698 16 is_stmt 0 view .LVU215
 613 00f6 C35C     		ldrb	r3, [r0, r3]	@ zero_extendqisi2
 698:Drivers/lvgl/src/misc/lv_text.c ****             result += txt[*i] & 0x3F;
 614              		.loc 1 698 15 view .LVU216
 615 00f8 03F0C000 		and	r0, r3, #192
 616              	.LVL62:
 698:Drivers/lvgl/src/misc/lv_text.c ****             result += txt[*i] & 0x3F;
 617              		.loc 1 698 15 view .LVU217
 618 00fc 8028     		cmp	r0, #128
 619 00fe 14D1     		bne	.L44
 699:Drivers/lvgl/src/misc/lv_text.c ****             (*i)++;
 620              		.loc 1 699 13 is_stmt 1 view .LVU218
 699:Drivers/lvgl/src/misc/lv_text.c ****             (*i)++;
 621              		.loc 1 699 31 is_stmt 0 view .LVU219
 622 0100 03F03F03 		and	r3, r3, #63
 699:Drivers/lvgl/src/misc/lv_text.c ****             (*i)++;
 623              		.loc 1 699 20 view .LVU220
 624 0104 5818     		adds	r0, r3, r1
 625              	.LVL63:
 700:Drivers/lvgl/src/misc/lv_text.c ****         }
 626              		.loc 1 700 13 is_stmt 1 view .LVU221
 700:Drivers/lvgl/src/misc/lv_text.c ****         }
 627              		.loc 1 700 17 is_stmt 0 view .LVU222
 628 0106 0432     		adds	r2, r2, #4
 629 0108 CCF80020 		str	r2, [ip]
 630 010c 8CE7     		b	.L29
 631              	.LVL64:
 632              	.L37:
 654:Drivers/lvgl/src/misc/lv_text.c ****     }
 633              		.loc 1 654 16 view .LVU223
 634 010e 0020     		movs	r0, #0
 635              	.LVL65:
 654:Drivers/lvgl/src/misc/lv_text.c ****     }
 636              		.loc 1 654 16 view .LVU224
 637 0110 8AE7     		b	.L29
 638              	.LVL66:
 639              	.L38:
 654:Drivers/lvgl/src/misc/lv_text.c ****     }
 640              		.loc 1 654 16 view .LVU225
 641 0112 0020     		movs	r0, #0
 642              	.LVL67:
 654:Drivers/lvgl/src/misc/lv_text.c ****     }
 643              		.loc 1 654 16 view .LVU226
 644 0114 88E7     		b	.L29
 645              	.LVL68:
 646              	.L39:
 668:Drivers/lvgl/src/misc/lv_text.c ****             result += (txt[*i] & 0x3F);
 647              		.loc 1 668 57 discriminator 1 view .LVU227
 648 0116 0020     		movs	r0, #0
 649 0118 86E7     		b	.L29
 650              	.LVL69:
 651              	.L40:
 677:Drivers/lvgl/src/misc/lv_text.c ****             result += (uint32_t)(txt[*i] & 0x3F) << 6;
 652              		.loc 1 677 57 discriminator 1 view .LVU228
 653 011a 0020     		movs	r0, #0
ARM GAS  /var/folders/qx/2_175_4n2s19vhvtspjhb3qh0000gn/T//ccc2Jk7F.s 			page 31


 654              	.LVL70:
 677:Drivers/lvgl/src/misc/lv_text.c ****             result += (uint32_t)(txt[*i] & 0x3F) << 6;
 655              		.loc 1 677 57 discriminator 1 view .LVU229
 656 011c 84E7     		b	.L29
 657              	.LVL71:
 658              	.L41:
 681:Drivers/lvgl/src/misc/lv_text.c ****             result += (txt[*i] & 0x3F);
 659              		.loc 1 681 57 discriminator 1 view .LVU230
 660 011e 0020     		movs	r0, #0
 661 0120 82E7     		b	.L29
 662              	.LVL72:
 663              	.L42:
 690:Drivers/lvgl/src/misc/lv_text.c ****             result += (uint32_t)(txt[*i] & 0x3F) << 12;
 664              		.loc 1 690 57 discriminator 1 view .LVU231
 665 0122 0020     		movs	r0, #0
 666              	.LVL73:
 690:Drivers/lvgl/src/misc/lv_text.c ****             result += (uint32_t)(txt[*i] & 0x3F) << 12;
 667              		.loc 1 690 57 discriminator 1 view .LVU232
 668 0124 80E7     		b	.L29
 669              	.LVL74:
 670              	.L43:
 694:Drivers/lvgl/src/misc/lv_text.c ****             result += (uint32_t)(txt[*i] & 0x3F) << 6;
 671              		.loc 1 694 57 discriminator 1 view .LVU233
 672 0126 0020     		movs	r0, #0
 673              	.LVL75:
 694:Drivers/lvgl/src/misc/lv_text.c ****             result += (uint32_t)(txt[*i] & 0x3F) << 6;
 674              		.loc 1 694 57 discriminator 1 view .LVU234
 675 0128 7EE7     		b	.L29
 676              	.L44:
 698:Drivers/lvgl/src/misc/lv_text.c ****             result += txt[*i] & 0x3F;
 677              		.loc 1 698 57 discriminator 1 view .LVU235
 678 012a 0020     		movs	r0, #0
 679              	.LVL76:
 698:Drivers/lvgl/src/misc/lv_text.c ****             result += txt[*i] & 0x3F;
 680              		.loc 1 698 57 discriminator 1 view .LVU236
 681 012c 7CE7     		b	.L29
 682              		.cfi_endproc
 683              	.LFE48:
 685              		.section	.text.lv_text_utf8_prev,"ax",%progbits
 686              		.align	1
 687              		.syntax unified
 688              		.thumb
 689              		.thumb_func
 691              	lv_text_utf8_prev:
 692              	.LVL77:
 693              	.LFB49:
 708:Drivers/lvgl/src/misc/lv_text.c **** 
 709:Drivers/lvgl/src/misc/lv_text.c **** /**
 710:Drivers/lvgl/src/misc/lv_text.c ****  * Get previous UTF-8 character form a string.
 711:Drivers/lvgl/src/misc/lv_text.c ****  * @param txt pointer to '\0' terminated string
 712:Drivers/lvgl/src/misc/lv_text.c ****  * @param i start byte index in 'txt' where to start. After the call it will point to the previous
 713:Drivers/lvgl/src/misc/lv_text.c ****  * UTF-8 char in 'txt'.
 714:Drivers/lvgl/src/misc/lv_text.c ****  * @return the decoded Unicode character or 0 on invalid UTF-8 code
 715:Drivers/lvgl/src/misc/lv_text.c ****  */
 716:Drivers/lvgl/src/misc/lv_text.c **** static uint32_t lv_text_utf8_prev(const char * txt, uint32_t * i)
 717:Drivers/lvgl/src/misc/lv_text.c **** {
 694              		.loc 1 717 1 is_stmt 1 view -0
ARM GAS  /var/folders/qx/2_175_4n2s19vhvtspjhb3qh0000gn/T//ccc2Jk7F.s 			page 32


 695              		.cfi_startproc
 696              		@ args = 0, pretend = 0, frame = 8
 697              		@ frame_needed = 0, uses_anonymous_args = 0
 698              		.loc 1 717 1 is_stmt 0 view .LVU238
 699 0000 F0B5     		push	{r4, r5, r6, r7, lr}
 700              	.LCFI8:
 701              		.cfi_def_cfa_offset 20
 702              		.cfi_offset 4, -20
 703              		.cfi_offset 5, -16
 704              		.cfi_offset 6, -12
 705              		.cfi_offset 7, -8
 706              		.cfi_offset 14, -4
 707 0002 83B0     		sub	sp, sp, #12
 708              	.LCFI9:
 709              		.cfi_def_cfa_offset 32
 710 0004 0746     		mov	r7, r0
 711 0006 0E46     		mov	r6, r1
 718:Drivers/lvgl/src/misc/lv_text.c ****     uint8_t c_size;
 712              		.loc 1 718 5 is_stmt 1 view .LVU239
 719:Drivers/lvgl/src/misc/lv_text.c ****     uint8_t cnt = 0;
 713              		.loc 1 719 5 view .LVU240
 714              	.LVL78:
 720:Drivers/lvgl/src/misc/lv_text.c **** 
 721:Drivers/lvgl/src/misc/lv_text.c ****     /*Try to find a !0 long UTF-8 char by stepping one character back*/
 722:Drivers/lvgl/src/misc/lv_text.c ****     (*i)--;
 715              		.loc 1 722 5 view .LVU241
 716              		.loc 1 722 6 is_stmt 0 view .LVU242
 717 0008 0B68     		ldr	r3, [r1]
 718              		.loc 1 722 9 view .LVU243
 719 000a 013B     		subs	r3, r3, #1
 720 000c 0B60     		str	r3, [r1]
 719:Drivers/lvgl/src/misc/lv_text.c ****     uint8_t cnt = 0;
 721              		.loc 1 719 13 view .LVU244
 722 000e 0024     		movs	r4, #0
 723 0010 04E0     		b	.L53
 724              	.LVL79:
 725              	.L57:
 723:Drivers/lvgl/src/misc/lv_text.c ****     do {
 724:Drivers/lvgl/src/misc/lv_text.c ****         if(cnt >= 4) return 0; /*No UTF-8 char found before the initial*/
 725:Drivers/lvgl/src/misc/lv_text.c **** 
 726:Drivers/lvgl/src/misc/lv_text.c ****         c_size = lv_text_encoded_size(&txt[*i]);
 727:Drivers/lvgl/src/misc/lv_text.c ****         if(c_size == 0) {
 728:Drivers/lvgl/src/misc/lv_text.c ****             if(*i != 0)
 729:Drivers/lvgl/src/misc/lv_text.c ****                 (*i)--;
 726              		.loc 1 729 17 is_stmt 1 view .LVU245
 727              		.loc 1 729 21 is_stmt 0 view .LVU246
 728 0012 013D     		subs	r5, r5, #1
 729 0014 3560     		str	r5, [r6]
 730              	.L52:
 730:Drivers/lvgl/src/misc/lv_text.c ****             else
 731:Drivers/lvgl/src/misc/lv_text.c ****                 return 0;
 732:Drivers/lvgl/src/misc/lv_text.c ****         }
 733:Drivers/lvgl/src/misc/lv_text.c ****         cnt++;
 731              		.loc 1 733 9 is_stmt 1 view .LVU247
 732              		.loc 1 733 12 is_stmt 0 view .LVU248
 733 0016 0134     		adds	r4, r4, #1
 734              	.LVL80:
ARM GAS  /var/folders/qx/2_175_4n2s19vhvtspjhb3qh0000gn/T//ccc2Jk7F.s 			page 33


 735              		.loc 1 733 12 view .LVU249
 736 0018 E4B2     		uxtb	r4, r4
 737              	.LVL81:
 734:Drivers/lvgl/src/misc/lv_text.c ****     } while(c_size == 0);
 738              		.loc 1 734 20 is_stmt 1 view .LVU250
 739 001a 5BB9     		cbnz	r3, .L56
 740              	.LVL82:
 741              	.L53:
 723:Drivers/lvgl/src/misc/lv_text.c ****     do {
 742              		.loc 1 723 5 view .LVU251
 724:Drivers/lvgl/src/misc/lv_text.c **** 
 743              		.loc 1 724 9 view .LVU252
 724:Drivers/lvgl/src/misc/lv_text.c **** 
 744              		.loc 1 724 11 is_stmt 0 view .LVU253
 745 001c 032C     		cmp	r4, #3
 746 001e 11D8     		bhi	.L54
 726:Drivers/lvgl/src/misc/lv_text.c ****         if(c_size == 0) {
 747              		.loc 1 726 9 is_stmt 1 view .LVU254
 726:Drivers/lvgl/src/misc/lv_text.c ****         if(c_size == 0) {
 748              		.loc 1 726 44 is_stmt 0 view .LVU255
 749 0020 3568     		ldr	r5, [r6]
 726:Drivers/lvgl/src/misc/lv_text.c ****         if(c_size == 0) {
 750              		.loc 1 726 18 view .LVU256
 751 0022 7819     		adds	r0, r7, r5
 752 0024 FFF7FEFF 		bl	lv_text_utf8_size
 753              	.LVL83:
 727:Drivers/lvgl/src/misc/lv_text.c ****             if(*i != 0)
 754              		.loc 1 727 9 is_stmt 1 view .LVU257
 727:Drivers/lvgl/src/misc/lv_text.c ****             if(*i != 0)
 755              		.loc 1 727 11 is_stmt 0 view .LVU258
 756 0028 0346     		mov	r3, r0
 757 002a 0028     		cmp	r0, #0
 758 002c F3D1     		bne	.L52
 728:Drivers/lvgl/src/misc/lv_text.c ****                 (*i)--;
 759              		.loc 1 728 13 is_stmt 1 view .LVU259
 728:Drivers/lvgl/src/misc/lv_text.c ****                 (*i)--;
 760              		.loc 1 728 15 is_stmt 0 view .LVU260
 761 002e 002D     		cmp	r5, #0
 762 0030 EFD1     		bne	.L57
 763 0032 08E0     		b	.L50
 764              	.L56:
 735:Drivers/lvgl/src/misc/lv_text.c **** 
 736:Drivers/lvgl/src/misc/lv_text.c ****     uint32_t i_tmp  = *i;
 765              		.loc 1 736 5 is_stmt 1 view .LVU261
 766              		.loc 1 736 23 is_stmt 0 view .LVU262
 767 0034 3368     		ldr	r3, [r6]
 768              		.loc 1 736 14 view .LVU263
 769 0036 0193     		str	r3, [sp, #4]
 737:Drivers/lvgl/src/misc/lv_text.c ****     uint32_t letter = lv_text_encoded_next(txt, &i_tmp); /*Character found, get it*/
 770              		.loc 1 737 5 is_stmt 1 view .LVU264
 771              		.loc 1 737 23 is_stmt 0 view .LVU265
 772 0038 01A9     		add	r1, sp, #4
 773 003a 3846     		mov	r0, r7
 774              	.LVL84:
 775              		.loc 1 737 23 view .LVU266
 776 003c FFF7FEFF 		bl	lv_text_utf8_next
 777              	.LVL85:
ARM GAS  /var/folders/qx/2_175_4n2s19vhvtspjhb3qh0000gn/T//ccc2Jk7F.s 			page 34


 778 0040 0546     		mov	r5, r0
 779              	.LVL86:
 738:Drivers/lvgl/src/misc/lv_text.c **** 
 739:Drivers/lvgl/src/misc/lv_text.c ****     return letter;
 780              		.loc 1 739 5 is_stmt 1 view .LVU267
 781              		.loc 1 739 12 is_stmt 0 view .LVU268
 782 0042 00E0     		b	.L50
 783              	.LVL87:
 784              	.L54:
 724:Drivers/lvgl/src/misc/lv_text.c **** 
 785              		.loc 1 724 29 discriminator 1 view .LVU269
 786 0044 0025     		movs	r5, #0
 787              	.L50:
 740:Drivers/lvgl/src/misc/lv_text.c **** }
 788              		.loc 1 740 1 view .LVU270
 789 0046 2846     		mov	r0, r5
 790 0048 03B0     		add	sp, sp, #12
 791              	.LCFI10:
 792              		.cfi_def_cfa_offset 20
 793              		@ sp needed
 794 004a F0BD     		pop	{r4, r5, r6, r7, pc}
 795              		.loc 1 740 1 view .LVU271
 796              		.cfi_endproc
 797              	.LFE49:
 799              		.section	.text.lv_text_utf8_get_byte_id,"ax",%progbits
 800              		.align	1
 801              		.syntax unified
 802              		.thumb
 803              		.thumb_func
 805              	lv_text_utf8_get_byte_id:
 806              	.LVL88:
 807              	.LFB50:
 741:Drivers/lvgl/src/misc/lv_text.c **** 
 742:Drivers/lvgl/src/misc/lv_text.c **** /**
 743:Drivers/lvgl/src/misc/lv_text.c ****  * Convert a character index (in an UTF-8 text) to byte index.
 744:Drivers/lvgl/src/misc/lv_text.c ****  * E.g. in "AÁRT" index of 'R' is 2th char but start at byte 3 because 'Á' is 2 bytes long
 745:Drivers/lvgl/src/misc/lv_text.c ****  * @param txt a '\0' terminated UTF-8 string
 746:Drivers/lvgl/src/misc/lv_text.c ****  * @param utf8_id character index
 747:Drivers/lvgl/src/misc/lv_text.c ****  * @return byte index of the 'utf8_id'th letter
 748:Drivers/lvgl/src/misc/lv_text.c ****  */
 749:Drivers/lvgl/src/misc/lv_text.c **** static uint32_t lv_text_utf8_get_byte_id(const char * txt, uint32_t utf8_id)
 750:Drivers/lvgl/src/misc/lv_text.c **** {
 808              		.loc 1 750 1 is_stmt 1 view -0
 809              		.cfi_startproc
 810              		@ args = 0, pretend = 0, frame = 0
 811              		@ frame_needed = 0, uses_anonymous_args = 0
 812              		.loc 1 750 1 is_stmt 0 view .LVU273
 813 0000 F8B5     		push	{r3, r4, r5, r6, r7, lr}
 814              	.LCFI11:
 815              		.cfi_def_cfa_offset 24
 816              		.cfi_offset 3, -24
 817              		.cfi_offset 4, -20
 818              		.cfi_offset 5, -16
 819              		.cfi_offset 6, -12
 820              		.cfi_offset 7, -8
 821              		.cfi_offset 14, -4
 822 0002 0646     		mov	r6, r0
ARM GAS  /var/folders/qx/2_175_4n2s19vhvtspjhb3qh0000gn/T//ccc2Jk7F.s 			page 35


 823 0004 0F46     		mov	r7, r1
 751:Drivers/lvgl/src/misc/lv_text.c ****     uint32_t i;
 824              		.loc 1 751 5 is_stmt 1 view .LVU274
 752:Drivers/lvgl/src/misc/lv_text.c ****     uint32_t byte_cnt = 0;
 825              		.loc 1 752 5 view .LVU275
 826              	.LVL89:
 753:Drivers/lvgl/src/misc/lv_text.c ****     for(i = 0; i < utf8_id && txt[byte_cnt] != '\0'; i++) {
 827              		.loc 1 753 5 view .LVU276
 752:Drivers/lvgl/src/misc/lv_text.c ****     uint32_t byte_cnt = 0;
 828              		.loc 1 752 14 is_stmt 0 view .LVU277
 829 0006 0024     		movs	r4, #0
 830              		.loc 1 753 11 view .LVU278
 831 0008 2546     		mov	r5, r4
 832              		.loc 1 753 5 view .LVU279
 833 000a 01E0     		b	.L59
 834              	.LVL90:
 835              	.L60:
 836              	.LBB6:
 754:Drivers/lvgl/src/misc/lv_text.c ****         uint8_t c_size = lv_text_encoded_size(&txt[byte_cnt]);
 755:Drivers/lvgl/src/misc/lv_text.c ****         /* If the char was invalid tell it's 1 byte long*/
 756:Drivers/lvgl/src/misc/lv_text.c ****         byte_cnt += c_size ? c_size : 1;
 837              		.loc 1 756 18 discriminator 4 view .LVU280
 838 000c 1C44     		add	r4, r4, r3
 839              	.LVL91:
 840              		.loc 1 756 18 discriminator 4 view .LVU281
 841              	.LBE6:
 753:Drivers/lvgl/src/misc/lv_text.c ****     for(i = 0; i < utf8_id && txt[byte_cnt] != '\0'; i++) {
 842              		.loc 1 753 55 is_stmt 1 discriminator 2 view .LVU282
 843 000e 0135     		adds	r5, r5, #1
 844              	.LVL92:
 845              	.L59:
 753:Drivers/lvgl/src/misc/lv_text.c ****     for(i = 0; i < utf8_id && txt[byte_cnt] != '\0'; i++) {
 846              		.loc 1 753 28 discriminator 1 view .LVU283
 847 0010 BD42     		cmp	r5, r7
 848 0012 09D2     		bcs	.L58
 753:Drivers/lvgl/src/misc/lv_text.c ****     for(i = 0; i < utf8_id && txt[byte_cnt] != '\0'; i++) {
 849              		.loc 1 753 34 is_stmt 0 discriminator 3 view .LVU284
 850 0014 3019     		adds	r0, r6, r4
 851 0016 335D     		ldrb	r3, [r6, r4]	@ zero_extendqisi2
 753:Drivers/lvgl/src/misc/lv_text.c ****     for(i = 0; i < utf8_id && txt[byte_cnt] != '\0'; i++) {
 852              		.loc 1 753 28 discriminator 3 view .LVU285
 853 0018 33B1     		cbz	r3, .L58
 854              	.LBB7:
 754:Drivers/lvgl/src/misc/lv_text.c ****         uint8_t c_size = lv_text_encoded_size(&txt[byte_cnt]);
 855              		.loc 1 754 9 is_stmt 1 view .LVU286
 754:Drivers/lvgl/src/misc/lv_text.c ****         uint8_t c_size = lv_text_encoded_size(&txt[byte_cnt]);
 856              		.loc 1 754 26 is_stmt 0 view .LVU287
 857 001a FFF7FEFF 		bl	lv_text_utf8_size
 858              	.LVL93:
 859              		.loc 1 756 9 is_stmt 1 view .LVU288
 860              		.loc 1 756 37 is_stmt 0 view .LVU289
 861 001e 0346     		mov	r3, r0
 862 0020 0028     		cmp	r0, #0
 863 0022 F3D1     		bne	.L60
 864              		.loc 1 756 37 discriminator 2 view .LVU290
 865 0024 0123     		movs	r3, #1
 866 0026 F1E7     		b	.L60
ARM GAS  /var/folders/qx/2_175_4n2s19vhvtspjhb3qh0000gn/T//ccc2Jk7F.s 			page 36


 867              	.LVL94:
 868              	.L58:
 869              		.loc 1 756 37 discriminator 2 view .LVU291
 870              	.LBE7:
 757:Drivers/lvgl/src/misc/lv_text.c ****     }
 758:Drivers/lvgl/src/misc/lv_text.c **** 
 759:Drivers/lvgl/src/misc/lv_text.c ****     return byte_cnt;
 760:Drivers/lvgl/src/misc/lv_text.c **** }
 871              		.loc 1 760 1 view .LVU292
 872 0028 2046     		mov	r0, r4
 873 002a F8BD     		pop	{r3, r4, r5, r6, r7, pc}
 874              		.loc 1 760 1 view .LVU293
 875              		.cfi_endproc
 876              	.LFE50:
 878              		.section	.text.lv_text_utf8_get_char_id,"ax",%progbits
 879              		.align	1
 880              		.syntax unified
 881              		.thumb
 882              		.thumb_func
 884              	lv_text_utf8_get_char_id:
 885              	.LVL95:
 886              	.LFB51:
 761:Drivers/lvgl/src/misc/lv_text.c **** 
 762:Drivers/lvgl/src/misc/lv_text.c **** /**
 763:Drivers/lvgl/src/misc/lv_text.c ****  * Convert a byte index (in an UTF-8 text) to character index.
 764:Drivers/lvgl/src/misc/lv_text.c ****  * E.g. in "AÁRT" index of 'R' is 2th char but start at byte 3 because 'Á' is 2 bytes long
 765:Drivers/lvgl/src/misc/lv_text.c ****  * @param txt a '\0' terminated UTF-8 string
 766:Drivers/lvgl/src/misc/lv_text.c ****  * @param byte_id byte index
 767:Drivers/lvgl/src/misc/lv_text.c ****  * @return character index of the letter at 'byte_id'th position
 768:Drivers/lvgl/src/misc/lv_text.c ****  */
 769:Drivers/lvgl/src/misc/lv_text.c **** static uint32_t lv_text_utf8_get_char_id(const char * txt, uint32_t byte_id)
 770:Drivers/lvgl/src/misc/lv_text.c **** {
 887              		.loc 1 770 1 is_stmt 1 view -0
 888              		.cfi_startproc
 889              		@ args = 0, pretend = 0, frame = 8
 890              		@ frame_needed = 0, uses_anonymous_args = 0
 891              		.loc 1 770 1 is_stmt 0 view .LVU295
 892 0000 70B5     		push	{r4, r5, r6, lr}
 893              	.LCFI12:
 894              		.cfi_def_cfa_offset 16
 895              		.cfi_offset 4, -16
 896              		.cfi_offset 5, -12
 897              		.cfi_offset 6, -8
 898              		.cfi_offset 14, -4
 899 0002 82B0     		sub	sp, sp, #8
 900              	.LCFI13:
 901              		.cfi_def_cfa_offset 24
 902 0004 0646     		mov	r6, r0
 903 0006 0D46     		mov	r5, r1
 771:Drivers/lvgl/src/misc/lv_text.c ****     uint32_t i        = 0;
 904              		.loc 1 771 5 is_stmt 1 view .LVU296
 905              		.loc 1 771 14 is_stmt 0 view .LVU297
 906 0008 0024     		movs	r4, #0
 907 000a 0194     		str	r4, [sp, #4]
 772:Drivers/lvgl/src/misc/lv_text.c ****     uint32_t char_cnt = 0;
 908              		.loc 1 772 5 is_stmt 1 view .LVU298
 909              	.LVL96:
ARM GAS  /var/folders/qx/2_175_4n2s19vhvtspjhb3qh0000gn/T//ccc2Jk7F.s 			page 37


 773:Drivers/lvgl/src/misc/lv_text.c **** 
 774:Drivers/lvgl/src/misc/lv_text.c ****     while(i < byte_id) {
 910              		.loc 1 774 5 view .LVU299
 911              		.loc 1 774 10 is_stmt 0 view .LVU300
 912 000c 04E0     		b	.L66
 913              	.LVL97:
 914              	.L67:
 775:Drivers/lvgl/src/misc/lv_text.c ****         lv_text_encoded_next(txt, &i); /*'i' points to the next letter so use the prev. value*/
 915              		.loc 1 775 9 is_stmt 1 view .LVU301
 916 000e 01A9     		add	r1, sp, #4
 917 0010 3046     		mov	r0, r6
 918 0012 FFF7FEFF 		bl	lv_text_utf8_next
 919              	.LVL98:
 776:Drivers/lvgl/src/misc/lv_text.c ****         char_cnt++;
 920              		.loc 1 776 9 view .LVU302
 921              		.loc 1 776 17 is_stmt 0 view .LVU303
 922 0016 0134     		adds	r4, r4, #1
 923              	.LVL99:
 924              	.L66:
 774:Drivers/lvgl/src/misc/lv_text.c ****         lv_text_encoded_next(txt, &i); /*'i' points to the next letter so use the prev. value*/
 925              		.loc 1 774 13 is_stmt 1 view .LVU304
 926 0018 019B     		ldr	r3, [sp, #4]
 927 001a AB42     		cmp	r3, r5
 928 001c F7D3     		bcc	.L67
 777:Drivers/lvgl/src/misc/lv_text.c ****     }
 778:Drivers/lvgl/src/misc/lv_text.c **** 
 779:Drivers/lvgl/src/misc/lv_text.c ****     return char_cnt;
 929              		.loc 1 779 5 view .LVU305
 780:Drivers/lvgl/src/misc/lv_text.c **** }
 930              		.loc 1 780 1 is_stmt 0 view .LVU306
 931 001e 2046     		mov	r0, r4
 932 0020 02B0     		add	sp, sp, #8
 933              	.LCFI14:
 934              		.cfi_def_cfa_offset 16
 935              		@ sp needed
 936 0022 70BD     		pop	{r4, r5, r6, pc}
 937              		.loc 1 780 1 view .LVU307
 938              		.cfi_endproc
 939              	.LFE51:
 941              		.section	.text.lv_text_utf8_get_length,"ax",%progbits
 942              		.align	1
 943              		.syntax unified
 944              		.thumb
 945              		.thumb_func
 947              	lv_text_utf8_get_length:
 948              	.LVL100:
 949              	.LFB52:
 781:Drivers/lvgl/src/misc/lv_text.c **** 
 782:Drivers/lvgl/src/misc/lv_text.c **** /**
 783:Drivers/lvgl/src/misc/lv_text.c ****  * Get the number of characters (and NOT bytes) in a string. Decode it with UTF-8 if enabled.
 784:Drivers/lvgl/src/misc/lv_text.c ****  * E.g.: "ÁBC" is 3 characters (but 4 bytes)
 785:Drivers/lvgl/src/misc/lv_text.c ****  * @param txt a '\0' terminated char string
 786:Drivers/lvgl/src/misc/lv_text.c ****  * @return number of characters
 787:Drivers/lvgl/src/misc/lv_text.c ****  */
 788:Drivers/lvgl/src/misc/lv_text.c **** static uint32_t lv_text_utf8_get_length(const char * txt)
 789:Drivers/lvgl/src/misc/lv_text.c **** {
 950              		.loc 1 789 1 is_stmt 1 view -0
ARM GAS  /var/folders/qx/2_175_4n2s19vhvtspjhb3qh0000gn/T//ccc2Jk7F.s 			page 38


 951              		.cfi_startproc
 952              		@ args = 0, pretend = 0, frame = 8
 953              		@ frame_needed = 0, uses_anonymous_args = 0
 954              		.loc 1 789 1 is_stmt 0 view .LVU309
 955 0000 30B5     		push	{r4, r5, lr}
 956              	.LCFI15:
 957              		.cfi_def_cfa_offset 12
 958              		.cfi_offset 4, -12
 959              		.cfi_offset 5, -8
 960              		.cfi_offset 14, -4
 961 0002 83B0     		sub	sp, sp, #12
 962              	.LCFI16:
 963              		.cfi_def_cfa_offset 24
 964 0004 0546     		mov	r5, r0
 790:Drivers/lvgl/src/misc/lv_text.c ****     uint32_t len = 0;
 965              		.loc 1 790 5 is_stmt 1 view .LVU310
 966              	.LVL101:
 791:Drivers/lvgl/src/misc/lv_text.c ****     uint32_t i   = 0;
 967              		.loc 1 791 5 view .LVU311
 968              		.loc 1 791 14 is_stmt 0 view .LVU312
 969 0006 0024     		movs	r4, #0
 970 0008 0194     		str	r4, [sp, #4]
 792:Drivers/lvgl/src/misc/lv_text.c **** 
 793:Drivers/lvgl/src/misc/lv_text.c ****     while(txt[i] != '\0') {
 971              		.loc 1 793 5 is_stmt 1 view .LVU313
 972              		.loc 1 793 10 is_stmt 0 view .LVU314
 973 000a 04E0     		b	.L70
 974              	.LVL102:
 975              	.L71:
 794:Drivers/lvgl/src/misc/lv_text.c ****         lv_text_encoded_next(txt, &i);
 976              		.loc 1 794 9 is_stmt 1 view .LVU315
 977 000c 01A9     		add	r1, sp, #4
 978 000e 2846     		mov	r0, r5
 979 0010 FFF7FEFF 		bl	lv_text_utf8_next
 980              	.LVL103:
 795:Drivers/lvgl/src/misc/lv_text.c ****         len++;
 981              		.loc 1 795 9 view .LVU316
 982              		.loc 1 795 12 is_stmt 0 view .LVU317
 983 0014 0134     		adds	r4, r4, #1
 984              	.LVL104:
 985              	.L70:
 793:Drivers/lvgl/src/misc/lv_text.c ****         lv_text_encoded_next(txt, &i);
 986              		.loc 1 793 18 is_stmt 1 view .LVU318
 793:Drivers/lvgl/src/misc/lv_text.c ****         lv_text_encoded_next(txt, &i);
 987              		.loc 1 793 14 is_stmt 0 view .LVU319
 988 0016 019B     		ldr	r3, [sp, #4]
 989 0018 EB5C     		ldrb	r3, [r5, r3]	@ zero_extendqisi2
 793:Drivers/lvgl/src/misc/lv_text.c ****         lv_text_encoded_next(txt, &i);
 990              		.loc 1 793 18 view .LVU320
 991 001a 002B     		cmp	r3, #0
 992 001c F6D1     		bne	.L71
 796:Drivers/lvgl/src/misc/lv_text.c ****     }
 797:Drivers/lvgl/src/misc/lv_text.c **** 
 798:Drivers/lvgl/src/misc/lv_text.c ****     return len;
 993              		.loc 1 798 5 is_stmt 1 view .LVU321
 799:Drivers/lvgl/src/misc/lv_text.c **** }
 994              		.loc 1 799 1 is_stmt 0 view .LVU322
ARM GAS  /var/folders/qx/2_175_4n2s19vhvtspjhb3qh0000gn/T//ccc2Jk7F.s 			page 39


 995 001e 2046     		mov	r0, r4
 996 0020 03B0     		add	sp, sp, #12
 997              	.LCFI17:
 998              		.cfi_def_cfa_offset 12
 999              		@ sp needed
 1000 0022 30BD     		pop	{r4, r5, pc}
 1001              		.loc 1 799 1 view .LVU323
 1002              		.cfi_endproc
 1003              	.LFE52:
 1005              		.section	.text.lv_text_utf8_conv_wc,"ax",%progbits
 1006              		.align	1
 1007              		.syntax unified
 1008              		.thumb
 1009              		.thumb_func
 1011              	lv_text_utf8_conv_wc:
 1012              	.LVL105:
 1013              	.LFB47:
 609:Drivers/lvgl/src/misc/lv_text.c **** #if LV_BIG_ENDIAN_SYSTEM == 0
 1014              		.loc 1 609 1 is_stmt 1 view -0
 1015              		.cfi_startproc
 1016              		@ args = 0, pretend = 0, frame = 16
 1017              		@ frame_needed = 0, uses_anonymous_args = 0
 609:Drivers/lvgl/src/misc/lv_text.c **** #if LV_BIG_ENDIAN_SYSTEM == 0
 1018              		.loc 1 609 1 is_stmt 0 view .LVU325
 1019 0000 00B5     		push	{lr}
 1020              	.LCFI18:
 1021              		.cfi_def_cfa_offset 4
 1022              		.cfi_offset 14, -4
 1023 0002 85B0     		sub	sp, sp, #20
 1024              	.LCFI19:
 1025              		.cfi_def_cfa_offset 24
 1026 0004 0190     		str	r0, [sp, #4]
 612:Drivers/lvgl/src/misc/lv_text.c ****         uint32_t swapped;
 1027              		.loc 1 612 5 is_stmt 1 view .LVU326
 612:Drivers/lvgl/src/misc/lv_text.c ****         uint32_t swapped;
 1028              		.loc 1 612 7 is_stmt 0 view .LVU327
 1029 0006 10F0800F 		tst	r0, #128
 1030 000a 03D1     		bne	.L79
 1031              	.LVL106:
 1032              	.L74:
 625:Drivers/lvgl/src/misc/lv_text.c **** }
 1033              		.loc 1 625 5 is_stmt 1 view .LVU328
 626:Drivers/lvgl/src/misc/lv_text.c **** 
 1034              		.loc 1 626 1 is_stmt 0 view .LVU329
 1035 000c 0198     		ldr	r0, [sp, #4]
 1036 000e 05B0     		add	sp, sp, #20
 1037              	.LCFI20:
 1038              		.cfi_remember_state
 1039              		.cfi_def_cfa_offset 4
 1040              		@ sp needed
 1041 0010 5DF804FB 		ldr	pc, [sp], #4
 1042              	.LVL107:
 1043              	.L79:
 1044              	.LCFI21:
 1045              		.cfi_restore_state
 1046              	.LBB8:
 613:Drivers/lvgl/src/misc/lv_text.c ****         uint8_t c8[4];
ARM GAS  /var/folders/qx/2_175_4n2s19vhvtspjhb3qh0000gn/T//ccc2Jk7F.s 			page 40


 1047              		.loc 1 613 9 is_stmt 1 view .LVU330
 614:Drivers/lvgl/src/misc/lv_text.c ****         lv_memcpy(c8, &c, 4);
 1048              		.loc 1 614 9 view .LVU331
 615:Drivers/lvgl/src/misc/lv_text.c ****         swapped = (c8[0] << 24) + (c8[1] << 16) + (c8[2] << 8) + (c8[3]);
 1049              		.loc 1 615 9 view .LVU332
 1050 0014 0422     		movs	r2, #4
 1051 0016 0DEB0201 		add	r1, sp, r2
 1052 001a 03A8     		add	r0, sp, #12
 1053              	.LVL108:
 615:Drivers/lvgl/src/misc/lv_text.c ****         swapped = (c8[0] << 24) + (c8[1] << 16) + (c8[2] << 8) + (c8[3]);
 1054              		.loc 1 615 9 is_stmt 0 view .LVU333
 1055 001c FFF7FEFF 		bl	lv_memcpy
 1056              	.LVL109:
 616:Drivers/lvgl/src/misc/lv_text.c ****         uint8_t i;
 1057              		.loc 1 616 9 is_stmt 1 view .LVU334
 616:Drivers/lvgl/src/misc/lv_text.c ****         uint8_t i;
 1058              		.loc 1 616 22 is_stmt 0 view .LVU335
 1059 0020 9DF80C30 		ldrb	r3, [sp, #12]	@ zero_extendqisi2
 616:Drivers/lvgl/src/misc/lv_text.c ****         uint8_t i;
 1060              		.loc 1 616 38 view .LVU336
 1061 0024 9DF80D20 		ldrb	r2, [sp, #13]	@ zero_extendqisi2
 616:Drivers/lvgl/src/misc/lv_text.c ****         uint8_t i;
 1062              		.loc 1 616 42 view .LVU337
 1063 0028 1204     		lsls	r2, r2, #16
 616:Drivers/lvgl/src/misc/lv_text.c ****         uint8_t i;
 1064              		.loc 1 616 33 view .LVU338
 1065 002a 02EB0362 		add	r2, r2, r3, lsl #24
 616:Drivers/lvgl/src/misc/lv_text.c ****         uint8_t i;
 1066              		.loc 1 616 54 view .LVU339
 1067 002e 9DF80E30 		ldrb	r3, [sp, #14]	@ zero_extendqisi2
 616:Drivers/lvgl/src/misc/lv_text.c ****         uint8_t i;
 1068              		.loc 1 616 49 view .LVU340
 1069 0032 02EB0322 		add	r2, r2, r3, lsl #8
 616:Drivers/lvgl/src/misc/lv_text.c ****         uint8_t i;
 1070              		.loc 1 616 69 view .LVU341
 1071 0036 9DF80F30 		ldrb	r3, [sp, #15]	@ zero_extendqisi2
 616:Drivers/lvgl/src/misc/lv_text.c ****         uint8_t i;
 1072              		.loc 1 616 64 view .LVU342
 1073 003a 1A44     		add	r2, r2, r3
 1074              	.LVL110:
 617:Drivers/lvgl/src/misc/lv_text.c ****         for(i = 0; i < 4; i++) {
 1075              		.loc 1 617 9 is_stmt 1 view .LVU343
 618:Drivers/lvgl/src/misc/lv_text.c ****             if((swapped & 0xFF) == 0)
 1076              		.loc 1 618 9 view .LVU344
 618:Drivers/lvgl/src/misc/lv_text.c ****             if((swapped & 0xFF) == 0)
 1077              		.loc 1 618 15 is_stmt 0 view .LVU345
 1078 003c 0023     		movs	r3, #0
 618:Drivers/lvgl/src/misc/lv_text.c ****             if((swapped & 0xFF) == 0)
 1079              		.loc 1 618 9 view .LVU346
 1080 003e 01E0     		b	.L75
 1081              	.LVL111:
 1082              	.L76:
 618:Drivers/lvgl/src/misc/lv_text.c ****             if((swapped & 0xFF) == 0)
 1083              		.loc 1 618 28 is_stmt 1 discriminator 2 view .LVU347
 1084 0040 0133     		adds	r3, r3, #1
 1085              	.LVL112:
 618:Drivers/lvgl/src/misc/lv_text.c ****             if((swapped & 0xFF) == 0)
ARM GAS  /var/folders/qx/2_175_4n2s19vhvtspjhb3qh0000gn/T//ccc2Jk7F.s 			page 41


 1086              		.loc 1 618 28 is_stmt 0 discriminator 2 view .LVU348
 1087 0042 DBB2     		uxtb	r3, r3
 1088              	.LVL113:
 1089              	.L75:
 618:Drivers/lvgl/src/misc/lv_text.c ****             if((swapped & 0xFF) == 0)
 1090              		.loc 1 618 22 is_stmt 1 discriminator 1 view .LVU349
 1091 0044 032B     		cmp	r3, #3
 1092 0046 04D8     		bhi	.L80
 619:Drivers/lvgl/src/misc/lv_text.c ****                 swapped = (swapped >> 8); /*Ignore leading zeros (they were in the end originally)*
 1093              		.loc 1 619 13 view .LVU350
 619:Drivers/lvgl/src/misc/lv_text.c ****                 swapped = (swapped >> 8); /*Ignore leading zeros (they were in the end originally)*
 1094              		.loc 1 619 15 is_stmt 0 view .LVU351
 1095 0048 12F0FF0F 		tst	r2, #255
 1096 004c F8D1     		bne	.L76
 620:Drivers/lvgl/src/misc/lv_text.c ****         }
 1097              		.loc 1 620 17 is_stmt 1 view .LVU352
 620:Drivers/lvgl/src/misc/lv_text.c ****         }
 1098              		.loc 1 620 25 is_stmt 0 view .LVU353
 1099 004e 120A     		lsrs	r2, r2, #8
 1100              	.LVL114:
 620:Drivers/lvgl/src/misc/lv_text.c ****         }
 1101              		.loc 1 620 25 view .LVU354
 1102 0050 F6E7     		b	.L76
 1103              	.LVL115:
 1104              	.L80:
 622:Drivers/lvgl/src/misc/lv_text.c ****     }
 1105              		.loc 1 622 9 is_stmt 1 view .LVU355
 622:Drivers/lvgl/src/misc/lv_text.c ****     }
 1106              		.loc 1 622 11 is_stmt 0 view .LVU356
 1107 0052 0192     		str	r2, [sp, #4]
 1108 0054 DAE7     		b	.L74
 1109              	.LBE8:
 1110              		.cfi_endproc
 1111              	.LFE47:
 1113              		.section	.text.lv_text_attributes_init,"ax",%progbits
 1114              		.align	1
 1115              		.global	lv_text_attributes_init
 1116              		.syntax unified
 1117              		.thumb
 1118              		.thumb_func
 1120              	lv_text_attributes_init:
 1121              	.LVL116:
 1122              	.LFB34:
  92:Drivers/lvgl/src/misc/lv_text.c ****     lv_memzero(attributes, sizeof(lv_text_attributes_t));
 1123              		.loc 1 92 1 is_stmt 1 view -0
 1124              		.cfi_startproc
 1125              		@ args = 0, pretend = 0, frame = 0
 1126              		@ frame_needed = 0, uses_anonymous_args = 0
  92:Drivers/lvgl/src/misc/lv_text.c ****     lv_memzero(attributes, sizeof(lv_text_attributes_t));
 1127              		.loc 1 92 1 is_stmt 0 view .LVU358
 1128 0000 08B5     		push	{r3, lr}
 1129              	.LCFI22:
 1130              		.cfi_def_cfa_offset 8
 1131              		.cfi_offset 3, -8
 1132              		.cfi_offset 14, -4
  93:Drivers/lvgl/src/misc/lv_text.c **** }
 1133              		.loc 1 93 5 is_stmt 1 view .LVU359
ARM GAS  /var/folders/qx/2_175_4n2s19vhvtspjhb3qh0000gn/T//ccc2Jk7F.s 			page 42


 1134              	.LVL117:
 1135              	.LBB9:
 1136              	.LBI9:
 1137              		.file 3 "Drivers/lvgl/src/misc/../font/../draw/../misc/../stdlib/lv_string.h"
   1:Drivers/lvgl/src/misc/../font/../draw/../misc/../stdlib/lv_string.h **** /**
   2:Drivers/lvgl/src/misc/../font/../draw/../misc/../stdlib/lv_string.h ****  * @file lv_string.h
   3:Drivers/lvgl/src/misc/../font/../draw/../misc/../stdlib/lv_string.h ****  *
   4:Drivers/lvgl/src/misc/../font/../draw/../misc/../stdlib/lv_string.h ****  */
   5:Drivers/lvgl/src/misc/../font/../draw/../misc/../stdlib/lv_string.h **** 
   6:Drivers/lvgl/src/misc/../font/../draw/../misc/../stdlib/lv_string.h **** #ifndef LV_STRING_H
   7:Drivers/lvgl/src/misc/../font/../draw/../misc/../stdlib/lv_string.h **** #define LV_STRING_H
   8:Drivers/lvgl/src/misc/../font/../draw/../misc/../stdlib/lv_string.h **** 
   9:Drivers/lvgl/src/misc/../font/../draw/../misc/../stdlib/lv_string.h **** #ifdef __cplusplus
  10:Drivers/lvgl/src/misc/../font/../draw/../misc/../stdlib/lv_string.h **** extern "C" {
  11:Drivers/lvgl/src/misc/../font/../draw/../misc/../stdlib/lv_string.h **** #endif
  12:Drivers/lvgl/src/misc/../font/../draw/../misc/../stdlib/lv_string.h **** 
  13:Drivers/lvgl/src/misc/../font/../draw/../misc/../stdlib/lv_string.h **** /*********************
  14:Drivers/lvgl/src/misc/../font/../draw/../misc/../stdlib/lv_string.h ****  *      INCLUDES
  15:Drivers/lvgl/src/misc/../font/../draw/../misc/../stdlib/lv_string.h ****  *********************/
  16:Drivers/lvgl/src/misc/../font/../draw/../misc/../stdlib/lv_string.h **** #include "../lv_conf_internal.h"
  17:Drivers/lvgl/src/misc/../font/../draw/../misc/../stdlib/lv_string.h **** #include "../misc/lv_types.h"
  18:Drivers/lvgl/src/misc/../font/../draw/../misc/../stdlib/lv_string.h **** 
  19:Drivers/lvgl/src/misc/../font/../draw/../misc/../stdlib/lv_string.h **** /*********************
  20:Drivers/lvgl/src/misc/../font/../draw/../misc/../stdlib/lv_string.h ****  *      DEFINES
  21:Drivers/lvgl/src/misc/../font/../draw/../misc/../stdlib/lv_string.h ****  *********************/
  22:Drivers/lvgl/src/misc/../font/../draw/../misc/../stdlib/lv_string.h **** 
  23:Drivers/lvgl/src/misc/../font/../draw/../misc/../stdlib/lv_string.h **** /**********************
  24:Drivers/lvgl/src/misc/../font/../draw/../misc/../stdlib/lv_string.h ****  *      TYPEDEFS
  25:Drivers/lvgl/src/misc/../font/../draw/../misc/../stdlib/lv_string.h ****  **********************/
  26:Drivers/lvgl/src/misc/../font/../draw/../misc/../stdlib/lv_string.h **** 
  27:Drivers/lvgl/src/misc/../font/../draw/../misc/../stdlib/lv_string.h **** /**********************
  28:Drivers/lvgl/src/misc/../font/../draw/../misc/../stdlib/lv_string.h ****  * GLOBAL PROTOTYPES
  29:Drivers/lvgl/src/misc/../font/../draw/../misc/../stdlib/lv_string.h ****  **********************/
  30:Drivers/lvgl/src/misc/../font/../draw/../misc/../stdlib/lv_string.h **** 
  31:Drivers/lvgl/src/misc/../font/../draw/../misc/../stdlib/lv_string.h **** /**
  32:Drivers/lvgl/src/misc/../font/../draw/../misc/../stdlib/lv_string.h ****  * @brief Copies a block of memory from a source address to a destination address.
  33:Drivers/lvgl/src/misc/../font/../draw/../misc/../stdlib/lv_string.h ****  * @param dst Pointer to the destination array where the content is to be copied.
  34:Drivers/lvgl/src/misc/../font/../draw/../misc/../stdlib/lv_string.h ****  * @param src Pointer to the source of data to be copied.
  35:Drivers/lvgl/src/misc/../font/../draw/../misc/../stdlib/lv_string.h ****  * @param len Number of bytes to copy.
  36:Drivers/lvgl/src/misc/../font/../draw/../misc/../stdlib/lv_string.h ****  * @return Pointer to the destination array.
  37:Drivers/lvgl/src/misc/../font/../draw/../misc/../stdlib/lv_string.h ****  * @note The function does not check for any overlapping of the source and destination memory block
  38:Drivers/lvgl/src/misc/../font/../draw/../misc/../stdlib/lv_string.h ****  */
  39:Drivers/lvgl/src/misc/../font/../draw/../misc/../stdlib/lv_string.h **** void * lv_memcpy(void * dst, const void * src, size_t len);
  40:Drivers/lvgl/src/misc/../font/../draw/../misc/../stdlib/lv_string.h **** 
  41:Drivers/lvgl/src/misc/../font/../draw/../misc/../stdlib/lv_string.h **** /**
  42:Drivers/lvgl/src/misc/../font/../draw/../misc/../stdlib/lv_string.h ****  * @brief Fills a block of memory with a specified value.
  43:Drivers/lvgl/src/misc/../font/../draw/../misc/../stdlib/lv_string.h ****  * @param dst Pointer to the destination array to fill with the specified value.
  44:Drivers/lvgl/src/misc/../font/../draw/../misc/../stdlib/lv_string.h ****  * @param v Value to be set. The value is passed as an int, but the function fills
  45:Drivers/lvgl/src/misc/../font/../draw/../misc/../stdlib/lv_string.h ****  *          the block of memory using the unsigned char conversion of this value.
  46:Drivers/lvgl/src/misc/../font/../draw/../misc/../stdlib/lv_string.h ****  * @param len Number of bytes to be set to the value.
  47:Drivers/lvgl/src/misc/../font/../draw/../misc/../stdlib/lv_string.h ****  */
  48:Drivers/lvgl/src/misc/../font/../draw/../misc/../stdlib/lv_string.h **** void lv_memset(void * dst, uint8_t v, size_t len);
  49:Drivers/lvgl/src/misc/../font/../draw/../misc/../stdlib/lv_string.h **** 
  50:Drivers/lvgl/src/misc/../font/../draw/../misc/../stdlib/lv_string.h **** /**
  51:Drivers/lvgl/src/misc/../font/../draw/../misc/../stdlib/lv_string.h ****  * @brief Move a block of memory from source to destination
  52:Drivers/lvgl/src/misc/../font/../draw/../misc/../stdlib/lv_string.h ****  * @param dst Pointer to the destination array where the content is to be copied.
  53:Drivers/lvgl/src/misc/../font/../draw/../misc/../stdlib/lv_string.h ****  * @param src Pointer to the source of data to be copied.
ARM GAS  /var/folders/qx/2_175_4n2s19vhvtspjhb3qh0000gn/T//ccc2Jk7F.s 			page 43


  54:Drivers/lvgl/src/misc/../font/../draw/../misc/../stdlib/lv_string.h ****  * @param len Number of bytes to copy
  55:Drivers/lvgl/src/misc/../font/../draw/../misc/../stdlib/lv_string.h ****  * @return Pointer to the destination array.
  56:Drivers/lvgl/src/misc/../font/../draw/../misc/../stdlib/lv_string.h ****  */
  57:Drivers/lvgl/src/misc/../font/../draw/../misc/../stdlib/lv_string.h **** void * lv_memmove(void * dst, const void * src, size_t len);
  58:Drivers/lvgl/src/misc/../font/../draw/../misc/../stdlib/lv_string.h **** 
  59:Drivers/lvgl/src/misc/../font/../draw/../misc/../stdlib/lv_string.h **** /**
  60:Drivers/lvgl/src/misc/../font/../draw/../misc/../stdlib/lv_string.h ****  * @brief This function will compare two memory blocks
  61:Drivers/lvgl/src/misc/../font/../draw/../misc/../stdlib/lv_string.h ****  * @param p1 Pointer to the first memory block
  62:Drivers/lvgl/src/misc/../font/../draw/../misc/../stdlib/lv_string.h ****  * @param p2 Pointer to the second memory block
  63:Drivers/lvgl/src/misc/../font/../draw/../misc/../stdlib/lv_string.h ****  * @param len Number of bytes to compare
  64:Drivers/lvgl/src/misc/../font/../draw/../misc/../stdlib/lv_string.h ****  * @return The difference between the value of the first unmatching byte.
  65:Drivers/lvgl/src/misc/../font/../draw/../misc/../stdlib/lv_string.h ****  */
  66:Drivers/lvgl/src/misc/../font/../draw/../misc/../stdlib/lv_string.h **** int lv_memcmp(const void * p1, const void * p2, size_t len);
  67:Drivers/lvgl/src/misc/../font/../draw/../misc/../stdlib/lv_string.h **** 
  68:Drivers/lvgl/src/misc/../font/../draw/../misc/../stdlib/lv_string.h **** /**
  69:Drivers/lvgl/src/misc/../font/../draw/../misc/../stdlib/lv_string.h ****  * Same as `memset(dst, 0x00, len)`.
  70:Drivers/lvgl/src/misc/../font/../draw/../misc/../stdlib/lv_string.h ****  * @param dst pointer to the destination buffer
  71:Drivers/lvgl/src/misc/../font/../draw/../misc/../stdlib/lv_string.h ****  * @param len number of byte to set
  72:Drivers/lvgl/src/misc/../font/../draw/../misc/../stdlib/lv_string.h ****  */
  73:Drivers/lvgl/src/misc/../font/../draw/../misc/../stdlib/lv_string.h **** static inline void lv_memzero(void * dst, size_t len)
 1138              		.loc 3 73 20 view .LVU360
 1139              	.LBB10:
  74:Drivers/lvgl/src/misc/../font/../draw/../misc/../stdlib/lv_string.h **** {
  75:Drivers/lvgl/src/misc/../font/../draw/../misc/../stdlib/lv_string.h ****     lv_memset(dst, 0x00, len);
 1140              		.loc 3 75 5 view .LVU361
 1141 0002 1022     		movs	r2, #16
 1142 0004 0021     		movs	r1, #0
 1143 0006 FFF7FEFF 		bl	lv_memset
 1144              	.LVL118:
 1145              		.loc 3 75 5 is_stmt 0 view .LVU362
 1146              	.LBE10:
 1147              	.LBE9:
  94:Drivers/lvgl/src/misc/lv_text.c **** 
 1148              		.loc 1 94 1 view .LVU363
 1149 000a 08BD     		pop	{r3, pc}
 1150              		.cfi_endproc
 1151              	.LFE34:
 1153              		.section	.text.lv_text_is_cmd,"ax",%progbits
 1154              		.align	1
 1155              		.global	lv_text_is_cmd
 1156              		.syntax unified
 1157              		.thumb
 1158              		.thumb_func
 1160              	lv_text_is_cmd:
 1161              	.LVL119:
 1162              	.LFB37:
 163:Drivers/lvgl/src/misc/lv_text.c ****     bool ret = false;
 1163              		.loc 1 163 1 is_stmt 1 view -0
 1164              		.cfi_startproc
 1165              		@ args = 0, pretend = 0, frame = 0
 1166              		@ frame_needed = 0, uses_anonymous_args = 0
 1167              		@ link register save eliminated.
 163:Drivers/lvgl/src/misc/lv_text.c ****     bool ret = false;
 1168              		.loc 1 163 1 is_stmt 0 view .LVU365
 1169 0000 0346     		mov	r3, r0
 164:Drivers/lvgl/src/misc/lv_text.c **** 
 1170              		.loc 1 164 5 is_stmt 1 view .LVU366
ARM GAS  /var/folders/qx/2_175_4n2s19vhvtspjhb3qh0000gn/T//ccc2Jk7F.s 			page 44


 1171              	.LVL120:
 166:Drivers/lvgl/src/misc/lv_text.c ****         if(*state == LV_TEXT_CMD_STATE_WAIT) { /*Start char*/
 1172              		.loc 1 166 5 view .LVU367
 166:Drivers/lvgl/src/misc/lv_text.c ****         if(*state == LV_TEXT_CMD_STATE_WAIT) { /*Start char*/
 1173              		.loc 1 166 7 is_stmt 0 view .LVU368
 1174 0002 2329     		cmp	r1, #35
 1175 0004 04D0     		beq	.L90
 164:Drivers/lvgl/src/misc/lv_text.c **** 
 1176              		.loc 1 164 10 view .LVU369
 1177 0006 0020     		movs	r0, #0
 1178              	.LVL121:
 1179              	.L84:
 183:Drivers/lvgl/src/misc/lv_text.c ****         if(c == ' ') {
 1180              		.loc 1 183 5 is_stmt 1 view .LVU370
 183:Drivers/lvgl/src/misc/lv_text.c ****         if(c == ' ') {
 1181              		.loc 1 183 8 is_stmt 0 view .LVU371
 1182 0008 1A78     		ldrb	r2, [r3]	@ zero_extendqisi2
 183:Drivers/lvgl/src/misc/lv_text.c ****         if(c == ' ') {
 1183              		.loc 1 183 7 view .LVU372
 1184 000a 012A     		cmp	r2, #1
 1185 000c 0DD0     		beq	.L91
 1186              	.LVL122:
 1187              	.L86:
 190:Drivers/lvgl/src/misc/lv_text.c **** }
 1188              		.loc 1 190 5 is_stmt 1 view .LVU373
 191:Drivers/lvgl/src/misc/lv_text.c **** 
 1189              		.loc 1 191 1 is_stmt 0 view .LVU374
 1190 000e 7047     		bx	lr
 1191              	.LVL123:
 1192              	.L90:
 167:Drivers/lvgl/src/misc/lv_text.c ****             *state = LV_TEXT_CMD_STATE_PAR;
 1193              		.loc 1 167 9 is_stmt 1 view .LVU375
 167:Drivers/lvgl/src/misc/lv_text.c ****             *state = LV_TEXT_CMD_STATE_PAR;
 1194              		.loc 1 167 12 is_stmt 0 view .LVU376
 1195 0010 0278     		ldrb	r2, [r0]	@ zero_extendqisi2
 167:Drivers/lvgl/src/misc/lv_text.c ****             *state = LV_TEXT_CMD_STATE_PAR;
 1196              		.loc 1 167 11 view .LVU377
 1197 0012 12B9     		cbnz	r2, .L85
 168:Drivers/lvgl/src/misc/lv_text.c ****             ret = true;
 1198              		.loc 1 168 13 is_stmt 1 view .LVU378
 168:Drivers/lvgl/src/misc/lv_text.c ****             ret = true;
 1199              		.loc 1 168 20 is_stmt 0 view .LVU379
 1200 0014 0120     		movs	r0, #1
 1201              	.LVL124:
 168:Drivers/lvgl/src/misc/lv_text.c ****             ret = true;
 1202              		.loc 1 168 20 view .LVU380
 1203 0016 1870     		strb	r0, [r3]
 169:Drivers/lvgl/src/misc/lv_text.c ****         }
 1204              		.loc 1 169 13 is_stmt 1 view .LVU381
 1205              	.LVL125:
 169:Drivers/lvgl/src/misc/lv_text.c ****         }
 1206              		.loc 1 169 13 is_stmt 0 view .LVU382
 1207 0018 F6E7     		b	.L84
 1208              	.LVL126:
 1209              	.L85:
 172:Drivers/lvgl/src/misc/lv_text.c ****             *state = LV_TEXT_CMD_STATE_WAIT;
 1210              		.loc 1 172 14 is_stmt 1 view .LVU383
ARM GAS  /var/folders/qx/2_175_4n2s19vhvtspjhb3qh0000gn/T//ccc2Jk7F.s 			page 45


 176:Drivers/lvgl/src/misc/lv_text.c ****             *state = LV_TEXT_CMD_STATE_WAIT;
 1211              		.loc 1 176 14 view .LVU384
 176:Drivers/lvgl/src/misc/lv_text.c ****             *state = LV_TEXT_CMD_STATE_WAIT;
 1212              		.loc 1 176 16 is_stmt 0 view .LVU385
 1213 001a 022A     		cmp	r2, #2
 1214 001c 01D0     		beq	.L92
 164:Drivers/lvgl/src/misc/lv_text.c **** 
 1215              		.loc 1 164 10 view .LVU386
 1216 001e 0020     		movs	r0, #0
 1217              	.LVL127:
 164:Drivers/lvgl/src/misc/lv_text.c **** 
 1218              		.loc 1 164 10 view .LVU387
 1219 0020 F2E7     		b	.L84
 1220              	.LVL128:
 1221              	.L92:
 177:Drivers/lvgl/src/misc/lv_text.c ****             ret = true;
 1222              		.loc 1 177 13 is_stmt 1 view .LVU388
 177:Drivers/lvgl/src/misc/lv_text.c ****             ret = true;
 1223              		.loc 1 177 20 is_stmt 0 view .LVU389
 1224 0022 0022     		movs	r2, #0
 1225 0024 0270     		strb	r2, [r0]
 178:Drivers/lvgl/src/misc/lv_text.c ****         }
 1226              		.loc 1 178 13 is_stmt 1 view .LVU390
 1227              	.LVL129:
 178:Drivers/lvgl/src/misc/lv_text.c ****         }
 1228              		.loc 1 178 17 is_stmt 0 view .LVU391
 1229 0026 0120     		movs	r0, #1
 1230              	.LVL130:
 178:Drivers/lvgl/src/misc/lv_text.c ****         }
 1231              		.loc 1 178 17 view .LVU392
 1232 0028 EEE7     		b	.L84
 1233              	.LVL131:
 1234              	.L91:
 184:Drivers/lvgl/src/misc/lv_text.c ****             *state = LV_TEXT_CMD_STATE_IN; /*After the parameter the text is in the command*/
 1235              		.loc 1 184 9 is_stmt 1 view .LVU393
 184:Drivers/lvgl/src/misc/lv_text.c ****             *state = LV_TEXT_CMD_STATE_IN; /*After the parameter the text is in the command*/
 1236              		.loc 1 184 11 is_stmt 0 view .LVU394
 1237 002a 2029     		cmp	r1, #32
 1238 002c 01D0     		beq	.L93
 187:Drivers/lvgl/src/misc/lv_text.c ****     }
 1239              		.loc 1 187 13 view .LVU395
 1240 002e 0120     		movs	r0, #1
 1241              	.LVL132:
 187:Drivers/lvgl/src/misc/lv_text.c ****     }
 1242              		.loc 1 187 13 view .LVU396
 1243 0030 EDE7     		b	.L86
 1244              	.LVL133:
 1245              	.L93:
 185:Drivers/lvgl/src/misc/lv_text.c ****         }
 1246              		.loc 1 185 13 is_stmt 1 view .LVU397
 185:Drivers/lvgl/src/misc/lv_text.c ****         }
 1247              		.loc 1 185 20 is_stmt 0 view .LVU398
 1248 0032 0222     		movs	r2, #2
 1249 0034 1A70     		strb	r2, [r3]
 187:Drivers/lvgl/src/misc/lv_text.c ****     }
 1250              		.loc 1 187 13 view .LVU399
 1251 0036 0120     		movs	r0, #1
ARM GAS  /var/folders/qx/2_175_4n2s19vhvtspjhb3qh0000gn/T//ccc2Jk7F.s 			page 46


 1252              	.LVL134:
 187:Drivers/lvgl/src/misc/lv_text.c ****     }
 1253              		.loc 1 187 13 view .LVU400
 1254 0038 7047     		bx	lr
 1255              		.cfi_endproc
 1256              	.LFE37:
 1258              		.section	.rodata.lv_text_get_next_word.str1.4,"aMS",%progbits,1
 1259              		.align	2
 1260              	.LC0:
 1261 0000 202C2E3B 		.ascii	" ,.;:-_)]}\000"
 1261      3A2D5F29 
 1261      5D7D00
 1262              		.section	.text.lv_text_get_next_word,"ax",%progbits
 1263              		.align	1
 1264              		.syntax unified
 1265              		.thumb
 1266              		.thumb_func
 1268              	lv_text_get_next_word:
 1269              	.LVL135:
 1270              	.LFB38:
 228:Drivers/lvgl/src/misc/lv_text.c ****     if(txt == NULL || txt[0] == '\0') return 0;
 1271              		.loc 1 228 1 is_stmt 1 view -0
 1272              		.cfi_startproc
 1273              		@ args = 12, pretend = 0, frame = 24
 1274              		@ frame_needed = 0, uses_anonymous_args = 0
 228:Drivers/lvgl/src/misc/lv_text.c ****     if(txt == NULL || txt[0] == '\0') return 0;
 1275              		.loc 1 228 1 is_stmt 0 view .LVU402
 1276 0000 2DE9F04F 		push	{r4, r5, r6, r7, r8, r9, r10, fp, lr}
 1277              	.LCFI23:
 1278              		.cfi_def_cfa_offset 36
 1279              		.cfi_offset 4, -36
 1280              		.cfi_offset 5, -32
 1281              		.cfi_offset 6, -28
 1282              		.cfi_offset 7, -24
 1283              		.cfi_offset 8, -20
 1284              		.cfi_offset 9, -16
 1285              		.cfi_offset 10, -12
 1286              		.cfi_offset 11, -8
 1287              		.cfi_offset 14, -4
 1288 0004 87B0     		sub	sp, sp, #28
 1289              	.LCFI24:
 1290              		.cfi_def_cfa_offset 64
 1291 0006 0291     		str	r1, [sp, #8]
 1292 0008 0192     		str	r2, [sp, #4]
 1293 000a 0393     		str	r3, [sp, #12]
 1294 000c 9DF840B0 		ldrb	fp, [sp, #64]	@ zero_extendqisi2
 229:Drivers/lvgl/src/misc/lv_text.c ****     if(font == NULL) return 0;
 1295              		.loc 1 229 5 is_stmt 1 view .LVU403
 229:Drivers/lvgl/src/misc/lv_text.c ****     if(font == NULL) return 0;
 1296              		.loc 1 229 7 is_stmt 0 view .LVU404
 1297 0010 0028     		cmp	r0, #0
 1298 0012 00F0A280 		beq	.L115
 1299 0016 8046     		mov	r8, r0
 229:Drivers/lvgl/src/misc/lv_text.c ****     if(font == NULL) return 0;
 1300              		.loc 1 229 26 discriminator 2 view .LVU405
 1301 0018 0378     		ldrb	r3, [r0]	@ zero_extendqisi2
 1302              	.LVL136:
ARM GAS  /var/folders/qx/2_175_4n2s19vhvtspjhb3qh0000gn/T//ccc2Jk7F.s 			page 47


 229:Drivers/lvgl/src/misc/lv_text.c ****     if(font == NULL) return 0;
 1303              		.loc 1 229 20 discriminator 2 view .LVU406
 1304 001a 002B     		cmp	r3, #0
 1305 001c 00F0A080 		beq	.L116
 230:Drivers/lvgl/src/misc/lv_text.c **** 
 1306              		.loc 1 230 5 is_stmt 1 view .LVU407
 230:Drivers/lvgl/src/misc/lv_text.c **** 
 1307              		.loc 1 230 7 is_stmt 0 view .LVU408
 1308 0020 0029     		cmp	r1, #0
 1309 0022 00F0A380 		beq	.L117
 232:Drivers/lvgl/src/misc/lv_text.c **** 
 1310              		.loc 1 232 5 is_stmt 1 view .LVU409
 232:Drivers/lvgl/src/misc/lv_text.c **** 
 1311              		.loc 1 232 7 is_stmt 0 view .LVU410
 1312 0026 1BF0010F 		tst	fp, #1
 1313 002a 02D0     		beq	.L96
 232:Drivers/lvgl/src/misc/lv_text.c **** 
 1314              		.loc 1 232 46 discriminator 1 view .LVU411
 1315 002c 6FF06043 		mvn	r3, #-536870912
 1316 0030 0393     		str	r3, [sp, #12]
 1317              	.LVL137:
 1318              	.L96:
 234:Drivers/lvgl/src/misc/lv_text.c ****     uint32_t letter = 0;      /*Letter at i*/
 1319              		.loc 1 234 5 is_stmt 1 view .LVU412
 234:Drivers/lvgl/src/misc/lv_text.c ****     uint32_t letter = 0;      /*Letter at i*/
 1320              		.loc 1 234 21 is_stmt 0 view .LVU413
 1321 0032 0027     		movs	r7, #0
 1322 0034 0597     		str	r7, [sp, #20]
 234:Drivers/lvgl/src/misc/lv_text.c ****     uint32_t letter = 0;      /*Letter at i*/
 1323              		.loc 1 234 33 view .LVU414
 1324 0036 0497     		str	r7, [sp, #16]
 235:Drivers/lvgl/src/misc/lv_text.c ****     uint32_t letter_next = 0; /*Letter at i_next*/
 1325              		.loc 1 235 5 is_stmt 1 view .LVU415
 1326              	.LVL138:
 236:Drivers/lvgl/src/misc/lv_text.c ****     int32_t letter_w;
 1327              		.loc 1 236 5 view .LVU416
 237:Drivers/lvgl/src/misc/lv_text.c ****     int32_t cur_w = 0;  /*Pixel Width of traversed string*/
 1328              		.loc 1 237 5 view .LVU417
 238:Drivers/lvgl/src/misc/lv_text.c ****     uint32_t word_len = 0;   /*Number of characters in the traversed word*/
 1329              		.loc 1 238 5 view .LVU418
 239:Drivers/lvgl/src/misc/lv_text.c ****     uint32_t break_index = NO_BREAK_FOUND; /*only used for "long" words*/
 1330              		.loc 1 239 5 view .LVU419
 240:Drivers/lvgl/src/misc/lv_text.c ****     uint32_t break_letter_count = 0; /*Number of characters up to the long word break point*/
 1331              		.loc 1 240 5 view .LVU420
 241:Drivers/lvgl/src/misc/lv_text.c **** 
 1332              		.loc 1 241 5 view .LVU421
 243:Drivers/lvgl/src/misc/lv_text.c ****     i_next_next = i_next;
 1333              		.loc 1 243 5 view .LVU422
 243:Drivers/lvgl/src/misc/lv_text.c ****     i_next_next = i_next;
 1334              		.loc 1 243 14 is_stmt 0 view .LVU423
 1335 0038 05A9     		add	r1, sp, #20
 1336              	.LVL139:
 243:Drivers/lvgl/src/misc/lv_text.c ****     i_next_next = i_next;
 1337              		.loc 1 243 14 view .LVU424
 1338 003a 4046     		mov	r0, r8
 1339              	.LVL140:
 243:Drivers/lvgl/src/misc/lv_text.c ****     i_next_next = i_next;
ARM GAS  /var/folders/qx/2_175_4n2s19vhvtspjhb3qh0000gn/T//ccc2Jk7F.s 			page 48


 1340              		.loc 1 243 14 view .LVU425
 1341 003c FFF7FEFF 		bl	lv_text_utf8_next
 1342              	.LVL141:
 243:Drivers/lvgl/src/misc/lv_text.c ****     i_next_next = i_next;
 1343              		.loc 1 243 14 view .LVU426
 1344 0040 0446     		mov	r4, r0
 1345              	.LVL142:
 244:Drivers/lvgl/src/misc/lv_text.c **** 
 1346              		.loc 1 244 5 is_stmt 1 view .LVU427
 244:Drivers/lvgl/src/misc/lv_text.c **** 
 1347              		.loc 1 244 17 is_stmt 0 view .LVU428
 1348 0042 059B     		ldr	r3, [sp, #20]
 1349 0044 0493     		str	r3, [sp, #16]
 247:Drivers/lvgl/src/misc/lv_text.c ****         letter_next = lv_text_encoded_next(txt, &i_next_next);
 1350              		.loc 1 247 5 is_stmt 1 view .LVU429
 240:Drivers/lvgl/src/misc/lv_text.c ****     uint32_t break_letter_count = 0; /*Number of characters up to the long word break point*/
 1351              		.loc 1 240 14 is_stmt 0 view .LVU430
 1352 0046 4FF0FF3A 		mov	r10, #-1
 239:Drivers/lvgl/src/misc/lv_text.c ****     uint32_t break_index = NO_BREAK_FOUND; /*only used for "long" words*/
 1353              		.loc 1 239 14 view .LVU431
 1354 004a B946     		mov	r9, r7
 238:Drivers/lvgl/src/misc/lv_text.c ****     uint32_t word_len = 0;   /*Number of characters in the traversed word*/
 1355              		.loc 1 238 13 view .LVU432
 1356 004c 3E46     		mov	r6, r7
 236:Drivers/lvgl/src/misc/lv_text.c ****     int32_t letter_w;
 1357              		.loc 1 236 14 view .LVU433
 1358 004e 3D46     		mov	r5, r7
 247:Drivers/lvgl/src/misc/lv_text.c ****         letter_next = lv_text_encoded_next(txt, &i_next_next);
 1359              		.loc 1 247 10 view .LVU434
 1360 0050 1BE0     		b	.L97
 1361              	.LVL143:
 1362              	.L126:
 254:Drivers/lvgl/src/misc/lv_text.c ****                 i_next = i_next_next;
 1363              		.loc 1 254 17 is_stmt 1 view .LVU435
 254:Drivers/lvgl/src/misc/lv_text.c ****                 i_next = i_next_next;
 1364              		.loc 1 254 19 is_stmt 0 view .LVU436
 1365 0052 059F     		ldr	r7, [sp, #20]
 1366              	.LVL144:
 255:Drivers/lvgl/src/misc/lv_text.c ****                 letter = letter_next;
 1367              		.loc 1 255 17 is_stmt 1 view .LVU437
 255:Drivers/lvgl/src/misc/lv_text.c ****                 letter = letter_next;
 1368              		.loc 1 255 24 is_stmt 0 view .LVU438
 1369 0054 049B     		ldr	r3, [sp, #16]
 1370 0056 0593     		str	r3, [sp, #20]
 256:Drivers/lvgl/src/misc/lv_text.c ****                 continue;   /*Skip the letter if it is part of a command*/
 1371              		.loc 1 256 17 is_stmt 1 view .LVU439
 1372              	.LVL145:
 257:Drivers/lvgl/src/misc/lv_text.c ****             }
 1373              		.loc 1 257 17 view .LVU440
 1374 0058 14E0     		b	.L99
 1375              	.LVL146:
 1376              	.L127:
 1377              	.LBB11:
 1378              	.LBB12:
 149:Drivers/lvgl/src/misc/lv_text_private.h **** 
 1379              		.loc 2 149 10 is_stmt 0 view .LVU441
 1380 005a 0023     		movs	r3, #0
ARM GAS  /var/folders/qx/2_175_4n2s19vhvtspjhb3qh0000gn/T//ccc2Jk7F.s 			page 49


 1381              	.LVL147:
 1382              	.L105:
 159:Drivers/lvgl/src/misc/lv_text_private.h **** }
 1383              		.loc 2 159 5 is_stmt 1 view .LVU442
 159:Drivers/lvgl/src/misc/lv_text_private.h **** }
 1384              		.loc 2 159 5 is_stmt 0 view .LVU443
 1385              	.LBE12:
 1386              	.LBE11:
 279:Drivers/lvgl/src/misc/lv_text.c ****             /*Update the output width on the first character if it fits.
 1387              		.loc 1 279 45 discriminator 1 view .LVU444
 1388 005c 002B     		cmp	r3, #0
 1389 005e 4FD1     		bne	.L103
 286:Drivers/lvgl/src/misc/lv_text.c ****             /*Found a word for single letter, usually true for CJK*/
 1390              		.loc 1 286 14 is_stmt 1 view .LVU445
 286:Drivers/lvgl/src/misc/lv_text.c ****             /*Found a word for single letter, usually true for CJK*/
 1391              		.loc 1 286 17 is_stmt 0 view .LVU446
 1392 0060 2846     		mov	r0, r5
 1393              	.LVL148:
 286:Drivers/lvgl/src/misc/lv_text.c ****             /*Found a word for single letter, usually true for CJK*/
 1394              		.loc 1 286 17 view .LVU447
 1395 0062 FFF7FEFF 		bl	lv_text_is_a_word
 1396              	.LVL149:
 286:Drivers/lvgl/src/misc/lv_text.c ****             /*Found a word for single letter, usually true for CJK*/
 1397              		.loc 1 286 16 discriminator 1 view .LVU448
 1398 0066 0028     		cmp	r0, #0
 1399 0068 52D1     		bne	.L109
 286:Drivers/lvgl/src/misc/lv_text.c ****             /*Found a word for single letter, usually true for CJK*/
 1400              		.loc 1 286 51 discriminator 1 view .LVU449
 1401 006a 2046     		mov	r0, r4
 1402 006c FFF7FEFF 		bl	lv_text_is_a_word
 1403              	.LVL150:
 286:Drivers/lvgl/src/misc/lv_text.c ****             /*Found a word for single letter, usually true for CJK*/
 1404              		.loc 1 286 48 discriminator 1 view .LVU450
 1405 0070 0028     		cmp	r0, #0
 1406 0072 4DD1     		bne	.L109
 294:Drivers/lvgl/src/misc/lv_text.c **** 
 1407              		.loc 1 294 9 is_stmt 1 view .LVU451
 294:Drivers/lvgl/src/misc/lv_text.c **** 
 1408              		.loc 1 294 11 is_stmt 0 view .LVU452
 1409 0074 119B     		ldr	r3, [sp, #68]
 1410 0076 13B1     		cbz	r3, .L111
 294:Drivers/lvgl/src/misc/lv_text.c **** 
 1411              		.loc 1 294 31 discriminator 1 view .LVU453
 1412 0078 BAF1FF3F 		cmp	r10, #-1
 1413 007c 59D0     		beq	.L125
 1414              	.L111:
 296:Drivers/lvgl/src/misc/lv_text.c ****         i_next = i_next_next;
 1415              		.loc 1 296 9 is_stmt 1 view .LVU454
 296:Drivers/lvgl/src/misc/lv_text.c ****         i_next = i_next_next;
 1416              		.loc 1 296 11 is_stmt 0 view .LVU455
 1417 007e 059F     		ldr	r7, [sp, #20]
 1418              	.LVL151:
 297:Drivers/lvgl/src/misc/lv_text.c ****         letter = letter_next;
 1419              		.loc 1 297 9 is_stmt 1 view .LVU456
 297:Drivers/lvgl/src/misc/lv_text.c ****         letter = letter_next;
 1420              		.loc 1 297 16 is_stmt 0 view .LVU457
 1421 0080 049B     		ldr	r3, [sp, #16]
ARM GAS  /var/folders/qx/2_175_4n2s19vhvtspjhb3qh0000gn/T//ccc2Jk7F.s 			page 50


 1422 0082 0593     		str	r3, [sp, #20]
 298:Drivers/lvgl/src/misc/lv_text.c ****     }
 1423              		.loc 1 298 9 is_stmt 1 view .LVU458
 1424              	.LVL152:
 1425              	.L99:
 1426              	.LBB15:
 1427              	.LBB13:
 149:Drivers/lvgl/src/misc/lv_text_private.h **** 
 1428              		.loc 2 149 10 is_stmt 0 view .LVU459
 1429 0084 DDF80090 		ldr	r9, [sp]
 1430 0088 2C46     		mov	r4, r5
 1431              	.LVL153:
 1432              	.L97:
 149:Drivers/lvgl/src/misc/lv_text_private.h **** 
 1433              		.loc 2 149 10 view .LVU460
 1434              	.LBE13:
 1435              	.LBE15:
 247:Drivers/lvgl/src/misc/lv_text.c ****         letter_next = lv_text_encoded_next(txt, &i_next_next);
 1436              		.loc 1 247 18 is_stmt 1 view .LVU461
 247:Drivers/lvgl/src/misc/lv_text.c ****         letter_next = lv_text_encoded_next(txt, &i_next_next);
 1437              		.loc 1 247 14 is_stmt 0 view .LVU462
 1438 008a 18F80730 		ldrb	r3, [r8, r7]	@ zero_extendqisi2
 247:Drivers/lvgl/src/misc/lv_text.c ****         letter_next = lv_text_encoded_next(txt, &i_next_next);
 1439              		.loc 1 247 18 view .LVU463
 1440 008e 002B     		cmp	r3, #0
 1441 0090 43D0     		beq	.L102
 248:Drivers/lvgl/src/misc/lv_text.c ****         word_len++;
 1442              		.loc 1 248 9 is_stmt 1 view .LVU464
 248:Drivers/lvgl/src/misc/lv_text.c ****         word_len++;
 1443              		.loc 1 248 23 is_stmt 0 view .LVU465
 1444 0092 04A9     		add	r1, sp, #16
 1445 0094 4046     		mov	r0, r8
 1446 0096 FFF7FEFF 		bl	lv_text_utf8_next
 1447              	.LVL154:
 1448 009a 0546     		mov	r5, r0
 1449              	.LVL155:
 249:Drivers/lvgl/src/misc/lv_text.c **** 
 1450              		.loc 1 249 9 is_stmt 1 view .LVU466
 249:Drivers/lvgl/src/misc/lv_text.c **** 
 1451              		.loc 1 249 17 is_stmt 0 view .LVU467
 1452 009c 09F10103 		add	r3, r9, #1
 1453 00a0 0093     		str	r3, [sp]
 1454              	.LVL156:
 252:Drivers/lvgl/src/misc/lv_text.c ****             if(lv_text_is_cmd(cmd_state, letter)) {
 1455              		.loc 1 252 9 is_stmt 1 view .LVU468
 252:Drivers/lvgl/src/misc/lv_text.c ****             if(lv_text_is_cmd(cmd_state, letter)) {
 1456              		.loc 1 252 11 is_stmt 0 view .LVU469
 1457 00a2 1BF0080F 		tst	fp, #8
 1458 00a6 05D0     		beq	.L98
 253:Drivers/lvgl/src/misc/lv_text.c ****                 i = i_next;
 1459              		.loc 1 253 13 is_stmt 1 view .LVU470
 253:Drivers/lvgl/src/misc/lv_text.c ****                 i = i_next;
 1460              		.loc 1 253 16 is_stmt 0 view .LVU471
 1461 00a8 2146     		mov	r1, r4
 1462 00aa 1298     		ldr	r0, [sp, #72]
 1463              	.LVL157:
 253:Drivers/lvgl/src/misc/lv_text.c ****                 i = i_next;
ARM GAS  /var/folders/qx/2_175_4n2s19vhvtspjhb3qh0000gn/T//ccc2Jk7F.s 			page 51


 1464              		.loc 1 253 16 view .LVU472
 1465 00ac FFF7FEFF 		bl	lv_text_is_cmd
 1466              	.LVL158:
 253:Drivers/lvgl/src/misc/lv_text.c ****                 i = i_next;
 1467              		.loc 1 253 15 discriminator 1 view .LVU473
 1468 00b0 0028     		cmp	r0, #0
 1469 00b2 CED1     		bne	.L126
 1470              	.L98:
 261:Drivers/lvgl/src/misc/lv_text.c ****         cur_w += letter_w;
 1471              		.loc 1 261 9 is_stmt 1 view .LVU474
 261:Drivers/lvgl/src/misc/lv_text.c ****         cur_w += letter_w;
 1472              		.loc 1 261 20 is_stmt 0 view .LVU475
 1473 00b4 2A46     		mov	r2, r5
 1474 00b6 2146     		mov	r1, r4
 1475 00b8 0298     		ldr	r0, [sp, #8]
 1476 00ba FFF7FEFF 		bl	lv_font_get_glyph_width
 1477              	.LVL159:
 262:Drivers/lvgl/src/misc/lv_text.c **** 
 1478              		.loc 1 262 9 is_stmt 1 view .LVU476
 262:Drivers/lvgl/src/misc/lv_text.c **** 
 1479              		.loc 1 262 15 is_stmt 0 view .LVU477
 1480 00be 0644     		add	r6, r6, r0
 1481              	.LVL160:
 264:Drivers/lvgl/src/misc/lv_text.c ****             cur_w += letter_space;
 1482              		.loc 1 264 9 is_stmt 1 view .LVU478
 264:Drivers/lvgl/src/misc/lv_text.c ****             cur_w += letter_space;
 1483              		.loc 1 264 11 is_stmt 0 view .LVU479
 1484 00c0 0028     		cmp	r0, #0
 1485 00c2 01DD     		ble	.L100
 265:Drivers/lvgl/src/misc/lv_text.c ****         }
 1486              		.loc 1 265 13 is_stmt 1 view .LVU480
 265:Drivers/lvgl/src/misc/lv_text.c ****         }
 1487              		.loc 1 265 19 is_stmt 0 view .LVU481
 1488 00c4 019B     		ldr	r3, [sp, #4]
 1489 00c6 1E44     		add	r6, r6, r3
 1490              	.LVL161:
 1491              	.L100:
 269:Drivers/lvgl/src/misc/lv_text.c ****             break_index = i;
 1492              		.loc 1 269 9 is_stmt 1 view .LVU482
 269:Drivers/lvgl/src/misc/lv_text.c ****             break_index = i;
 1493              		.loc 1 269 11 is_stmt 0 view .LVU483
 1494 00c8 BAF1FF3F 		cmp	r10, #-1
 1495 00cc 08D1     		bne	.L101
 269:Drivers/lvgl/src/misc/lv_text.c ****             break_index = i;
 1496              		.loc 1 269 52 discriminator 1 view .LVU484
 1497 00ce 019B     		ldr	r3, [sp, #4]
 1498 00d0 F31A     		subs	r3, r6, r3
 269:Drivers/lvgl/src/misc/lv_text.c ****             break_index = i;
 1499              		.loc 1 269 42 discriminator 1 view .LVU485
 1500 00d2 039A     		ldr	r2, [sp, #12]
 1501 00d4 9342     		cmp	r3, r2
 1502 00d6 03DD     		ble	.L101
 270:Drivers/lvgl/src/misc/lv_text.c ****             break_letter_count = word_len - 1;
 1503              		.loc 1 270 13 is_stmt 1 view .LVU486
 1504              	.LVL162:
 271:Drivers/lvgl/src/misc/lv_text.c ****             if(flag & LV_TEXT_FLAG_BREAK_ALL) {
 1505              		.loc 1 271 13 view .LVU487
ARM GAS  /var/folders/qx/2_175_4n2s19vhvtspjhb3qh0000gn/T//ccc2Jk7F.s 			page 52


 272:Drivers/lvgl/src/misc/lv_text.c ****                 break;
 1506              		.loc 1 272 13 view .LVU488
 272:Drivers/lvgl/src/misc/lv_text.c ****                 break;
 1507              		.loc 1 272 15 is_stmt 0 view .LVU489
 1508 00d8 1BF0040F 		tst	fp, #4
 1509 00dc 2BD1     		bne	.L119
 270:Drivers/lvgl/src/misc/lv_text.c ****             break_letter_count = word_len - 1;
 1510              		.loc 1 270 25 view .LVU490
 1511 00de BA46     		mov	r10, r7
 1512              	.LVL163:
 1513              	.L101:
 279:Drivers/lvgl/src/misc/lv_text.c ****             /*Update the output width on the first character if it fits.
 1514              		.loc 1 279 9 is_stmt 1 view .LVU491
 279:Drivers/lvgl/src/misc/lv_text.c ****             /*Update the output width on the first character if it fits.
 1515              		.loc 1 279 11 is_stmt 0 view .LVU492
 1516 00e0 0A2C     		cmp	r4, #10
 1517 00e2 0DD0     		beq	.L103
 279:Drivers/lvgl/src/misc/lv_text.c ****             /*Update the output width on the first character if it fits.
 1518              		.loc 1 279 27 discriminator 1 view .LVU493
 1519 00e4 0D2C     		cmp	r4, #13
 1520 00e6 0BD0     		beq	.L103
 1521              	.LBB16:
 1522              	.LBB14:
 152:Drivers/lvgl/src/misc/lv_text_private.h ****         if(letter == (uint32_t)LV_TXT_BREAK_CHARS[i]) {
 1523              		.loc 2 152 11 view .LVU494
 1524 00e8 0023     		movs	r3, #0
 1525              	.L104:
 1526              	.LVL164:
 152:Drivers/lvgl/src/misc/lv_text_private.h ****         if(letter == (uint32_t)LV_TXT_BREAK_CHARS[i]) {
 1527              		.loc 2 152 38 is_stmt 1 discriminator 1 view .LVU495
 152:Drivers/lvgl/src/misc/lv_text_private.h ****         if(letter == (uint32_t)LV_TXT_BREAK_CHARS[i]) {
 1528              		.loc 2 152 34 is_stmt 0 discriminator 1 view .LVU496
 1529 00ea 234A     		ldr	r2, .L130
 1530 00ec D25C     		ldrb	r2, [r2, r3]	@ zero_extendqisi2
 152:Drivers/lvgl/src/misc/lv_text_private.h ****         if(letter == (uint32_t)LV_TXT_BREAK_CHARS[i]) {
 1531              		.loc 2 152 38 discriminator 1 view .LVU497
 1532 00ee 002A     		cmp	r2, #0
 1533 00f0 B3D0     		beq	.L127
 153:Drivers/lvgl/src/misc/lv_text_private.h ****             ret = true; /*If match then it is break char*/
 1534              		.loc 2 153 9 is_stmt 1 view .LVU498
 153:Drivers/lvgl/src/misc/lv_text_private.h ****             ret = true; /*If match then it is break char*/
 1535              		.loc 2 153 11 is_stmt 0 view .LVU499
 1536 00f2 9442     		cmp	r4, r2
 1537 00f4 02D0     		beq	.L120
 152:Drivers/lvgl/src/misc/lv_text_private.h ****         if(letter == (uint32_t)LV_TXT_BREAK_CHARS[i]) {
 1538              		.loc 2 152 48 is_stmt 1 discriminator 2 view .LVU500
 1539 00f6 0133     		adds	r3, r3, #1
 1540              	.LVL165:
 152:Drivers/lvgl/src/misc/lv_text_private.h ****         if(letter == (uint32_t)LV_TXT_BREAK_CHARS[i]) {
 1541              		.loc 2 152 48 is_stmt 0 discriminator 2 view .LVU501
 1542 00f8 DBB2     		uxtb	r3, r3
 1543              	.LVL166:
 152:Drivers/lvgl/src/misc/lv_text_private.h ****         if(letter == (uint32_t)LV_TXT_BREAK_CHARS[i]) {
 1544              		.loc 2 152 48 discriminator 2 view .LVU502
 1545 00fa F6E7     		b	.L104
 1546              	.LVL167:
 1547              	.L120:
ARM GAS  /var/folders/qx/2_175_4n2s19vhvtspjhb3qh0000gn/T//ccc2Jk7F.s 			page 53


 154:Drivers/lvgl/src/misc/lv_text_private.h ****             break;
 1548              		.loc 2 154 17 view .LVU503
 1549 00fc 0123     		movs	r3, #1
 1550              	.LVL168:
 154:Drivers/lvgl/src/misc/lv_text_private.h ****             break;
 1551              		.loc 2 154 17 view .LVU504
 1552 00fe ADE7     		b	.L105
 1553              	.LVL169:
 1554              	.L103:
 154:Drivers/lvgl/src/misc/lv_text_private.h ****             break;
 1555              		.loc 2 154 17 view .LVU505
 1556              	.LBE14:
 1557              	.LBE16:
 282:Drivers/lvgl/src/misc/lv_text.c ****             word_len--;
 1558              		.loc 1 282 13 is_stmt 1 view .LVU506
 282:Drivers/lvgl/src/misc/lv_text.c ****             word_len--;
 1559              		.loc 1 282 15 is_stmt 0 view .LVU507
 1560 0100 5FB9     		cbnz	r7, .L102
 282:Drivers/lvgl/src/misc/lv_text.c ****             word_len--;
 1561              		.loc 1 282 23 discriminator 1 view .LVU508
 1562 0102 BAF1FF3F 		cmp	r10, #-1
 1563 0106 0BD1     		bne	.L108
 282:Drivers/lvgl/src/misc/lv_text.c ****             word_len--;
 1564              		.loc 1 282 56 discriminator 2 view .LVU509
 1565 0108 119B     		ldr	r3, [sp, #68]
 1566 010a 33B1     		cbz	r3, .L102
 282:Drivers/lvgl/src/misc/lv_text.c ****             word_len--;
 1567              		.loc 1 282 79 is_stmt 1 discriminator 3 view .LVU510
 282:Drivers/lvgl/src/misc/lv_text.c ****             word_len--;
 1568              		.loc 1 282 91 is_stmt 0 discriminator 3 view .LVU511
 1569 010c 1E60     		str	r6, [r3]
 1570 010e 04E0     		b	.L102
 1571              	.LVL170:
 1572              	.L109:
 288:Drivers/lvgl/src/misc/lv_text.c ****             i = i_next;
 1573              		.loc 1 288 13 is_stmt 1 view .LVU512
 288:Drivers/lvgl/src/misc/lv_text.c ****             i = i_next;
 1574              		.loc 1 288 25 is_stmt 0 view .LVU513
 1575 0110 119B     		ldr	r3, [sp, #68]
 1576 0112 1E60     		str	r6, [r3]
 289:Drivers/lvgl/src/misc/lv_text.c ****             break;
 1577              		.loc 1 289 13 is_stmt 1 view .LVU514
 289:Drivers/lvgl/src/misc/lv_text.c ****             break;
 1578              		.loc 1 289 15 is_stmt 0 view .LVU515
 1579 0114 059F     		ldr	r7, [sp, #20]
 1580              	.LVL171:
 290:Drivers/lvgl/src/misc/lv_text.c ****         }
 1581              		.loc 1 290 13 is_stmt 1 view .LVU516
 249:Drivers/lvgl/src/misc/lv_text.c **** 
 1582              		.loc 1 249 17 is_stmt 0 view .LVU517
 1583 0116 DDF80090 		ldr	r9, [sp]
 1584              	.LVL172:
 1585              	.L102:
 302:Drivers/lvgl/src/misc/lv_text.c ****         if(word_len == 0 || (letter == '\r' && letter_next == '\n')) i = i_next;
 1586              		.loc 1 302 5 is_stmt 1 view .LVU518
 302:Drivers/lvgl/src/misc/lv_text.c ****         if(word_len == 0 || (letter == '\r' && letter_next == '\n')) i = i_next;
 1587              		.loc 1 302 7 is_stmt 0 view .LVU519
ARM GAS  /var/folders/qx/2_175_4n2s19vhvtspjhb3qh0000gn/T//ccc2Jk7F.s 			page 54


 1588 011a BAF1FF3F 		cmp	r10, #-1
 1589 011e 0ED0     		beq	.L128
 1590              	.LVL173:
 1591              	.L108:
 337:Drivers/lvgl/src/misc/lv_text.c ****     if(word_w_ptr != NULL) *word_w_ptr = 0; /*Return no word*/
 1592              		.loc 1 337 5 is_stmt 1 view .LVU520
 337:Drivers/lvgl/src/misc/lv_text.c ****     if(word_w_ptr != NULL) *word_w_ptr = 0; /*Return no word*/
 1593              		.loc 1 337 7 is_stmt 0 view .LVU521
 1594 0120 1BF0040F 		tst	fp, #4
 1595 0124 1ED1     		bne	.L94
 338:Drivers/lvgl/src/misc/lv_text.c ****     (void) break_letter_count;
 1596              		.loc 1 338 5 is_stmt 1 view .LVU522
 338:Drivers/lvgl/src/misc/lv_text.c ****     (void) break_letter_count;
 1597              		.loc 1 338 7 is_stmt 0 view .LVU523
 1598 0126 119B     		ldr	r3, [sp, #68]
 1599 0128 1BB3     		cbz	r3, .L123
 338:Drivers/lvgl/src/misc/lv_text.c ****     (void) break_letter_count;
 1600              		.loc 1 338 28 is_stmt 1 discriminator 1 view .LVU524
 338:Drivers/lvgl/src/misc/lv_text.c ****     (void) break_letter_count;
 1601              		.loc 1 338 40 is_stmt 0 discriminator 1 view .LVU525
 1602 012a 0021     		movs	r1, #0
 1603 012c 1960     		str	r1, [r3]
 340:Drivers/lvgl/src/misc/lv_text.c **** #endif
 1604              		.loc 1 340 12 view .LVU526
 1605 012e 8A46     		mov	r10, r1
 1606 0130 18E0     		b	.L94
 1607              	.LVL174:
 1608              	.L125:
 294:Drivers/lvgl/src/misc/lv_text.c **** 
 1609              		.loc 1 294 65 is_stmt 1 discriminator 2 view .LVU527
 294:Drivers/lvgl/src/misc/lv_text.c **** 
 1610              		.loc 1 294 77 is_stmt 0 discriminator 2 view .LVU528
 1611 0132 1E60     		str	r6, [r3]
 1612 0134 A3E7     		b	.L111
 1613              	.LVL175:
 1614              	.L119:
 270:Drivers/lvgl/src/misc/lv_text.c ****             break_letter_count = word_len - 1;
 1615              		.loc 1 270 25 view .LVU529
 1616 0136 BA46     		mov	r10, r7
 249:Drivers/lvgl/src/misc/lv_text.c **** 
 1617              		.loc 1 249 17 view .LVU530
 1618 0138 DDF80090 		ldr	r9, [sp]
 1619              	.LVL176:
 249:Drivers/lvgl/src/misc/lv_text.c **** 
 1620              		.loc 1 249 17 view .LVU531
 1621 013c EDE7     		b	.L102
 1622              	.LVL177:
 1623              	.L128:
 303:Drivers/lvgl/src/misc/lv_text.c ****         return i;
 1624              		.loc 1 303 9 is_stmt 1 view .LVU532
 303:Drivers/lvgl/src/misc/lv_text.c ****         return i;
 1625              		.loc 1 303 11 is_stmt 0 view .LVU533
 1626 013e B9F1000F 		cmp	r9, #0
 1627 0142 07D0     		beq	.L113
 303:Drivers/lvgl/src/misc/lv_text.c ****         return i;
 1628              		.loc 1 303 26 discriminator 2 view .LVU534
 1629 0144 0D2C     		cmp	r4, #13
ARM GAS  /var/folders/qx/2_175_4n2s19vhvtspjhb3qh0000gn/T//ccc2Jk7F.s 			page 55


 1630 0146 01D0     		beq	.L129
 1631 0148 BA46     		mov	r10, r7
 1632              	.LVL178:
 303:Drivers/lvgl/src/misc/lv_text.c ****         return i;
 1633              		.loc 1 303 26 discriminator 2 view .LVU535
 1634 014a 0BE0     		b	.L94
 1635              	.LVL179:
 1636              	.L129:
 303:Drivers/lvgl/src/misc/lv_text.c ****         return i;
 1637              		.loc 1 303 45 discriminator 3 view .LVU536
 1638 014c 0A2D     		cmp	r5, #10
 1639 014e 01D0     		beq	.L113
 1640 0150 BA46     		mov	r10, r7
 1641              	.LVL180:
 304:Drivers/lvgl/src/misc/lv_text.c ****     }
 1642              		.loc 1 304 9 is_stmt 1 view .LVU537
 304:Drivers/lvgl/src/misc/lv_text.c ****     }
 1643              		.loc 1 304 16 is_stmt 0 view .LVU538
 1644 0152 07E0     		b	.L94
 1645              	.LVL181:
 1646              	.L113:
 303:Drivers/lvgl/src/misc/lv_text.c ****         return i;
 1647              		.loc 1 303 70 is_stmt 1 discriminator 4 view .LVU539
 303:Drivers/lvgl/src/misc/lv_text.c ****         return i;
 1648              		.loc 1 303 72 is_stmt 0 discriminator 4 view .LVU540
 1649 0154 DDF814A0 		ldr	r10, [sp, #20]
 1650              	.LVL182:
 303:Drivers/lvgl/src/misc/lv_text.c ****         return i;
 1651              		.loc 1 303 72 discriminator 4 view .LVU541
 1652 0158 04E0     		b	.L94
 1653              	.LVL183:
 1654              	.L115:
 229:Drivers/lvgl/src/misc/lv_text.c ****     if(font == NULL) return 0;
 1655              		.loc 1 229 46 discriminator 3 view .LVU542
 1656 015a 4FF0000A 		mov	r10, #0
 1657 015e 01E0     		b	.L94
 1658              	.LVL184:
 1659              	.L116:
 229:Drivers/lvgl/src/misc/lv_text.c ****     if(font == NULL) return 0;
 1660              		.loc 1 229 46 discriminator 3 view .LVU543
 1661 0160 4FF0000A 		mov	r10, #0
 1662              	.LVL185:
 1663              	.L94:
 342:Drivers/lvgl/src/misc/lv_text.c **** 
 1664              		.loc 1 342 1 view .LVU544
 1665 0164 5046     		mov	r0, r10
 1666 0166 07B0     		add	sp, sp, #28
 1667              	.LCFI25:
 1668              		.cfi_remember_state
 1669              		.cfi_def_cfa_offset 36
 1670              		@ sp needed
 1671 0168 BDE8F08F 		pop	{r4, r5, r6, r7, r8, r9, r10, fp, pc}
 1672              	.LVL186:
 1673              	.L117:
 1674              	.LCFI26:
 1675              		.cfi_restore_state
 230:Drivers/lvgl/src/misc/lv_text.c **** 
ARM GAS  /var/folders/qx/2_175_4n2s19vhvtspjhb3qh0000gn/T//ccc2Jk7F.s 			page 56


 1676              		.loc 1 230 29 discriminator 1 view .LVU545
 1677 016c 4FF0000A 		mov	r10, #0
 1678 0170 F8E7     		b	.L94
 1679              	.LVL187:
 1680              	.L123:
 340:Drivers/lvgl/src/misc/lv_text.c **** #endif
 1681              		.loc 1 340 12 view .LVU546
 1682 0172 4FF0000A 		mov	r10, #0
 1683 0176 F5E7     		b	.L94
 1684              	.L131:
 1685              		.align	2
 1686              	.L130:
 1687 0178 00000000 		.word	.LC0
 1688              		.cfi_endproc
 1689              	.LFE38:
 1691              		.section	.text.lv_text_get_next_line,"ax",%progbits
 1692              		.align	1
 1693              		.global	lv_text_get_next_line
 1694              		.syntax unified
 1695              		.thumb
 1696              		.thumb_func
 1698              	lv_text_get_next_line:
 1699              	.LVL188:
 1700              	.LFB39:
 346:Drivers/lvgl/src/misc/lv_text.c **** 
 1701              		.loc 1 346 1 is_stmt 1 view -0
 1702              		.cfi_startproc
 1703              		@ args = 4, pretend = 0, frame = 16
 1704              		@ frame_needed = 0, uses_anonymous_args = 0
 346:Drivers/lvgl/src/misc/lv_text.c **** 
 1705              		.loc 1 346 1 is_stmt 0 view .LVU548
 1706 0000 2DE9F047 		push	{r4, r5, r6, r7, r8, r9, r10, lr}
 1707              	.LCFI27:
 1708              		.cfi_def_cfa_offset 32
 1709              		.cfi_offset 4, -32
 1710              		.cfi_offset 5, -28
 1711              		.cfi_offset 6, -24
 1712              		.cfi_offset 7, -20
 1713              		.cfi_offset 8, -16
 1714              		.cfi_offset 9, -12
 1715              		.cfi_offset 10, -8
 1716              		.cfi_offset 14, -4
 1717 0004 88B0     		sub	sp, sp, #32
 1718              	.LCFI28:
 1719              		.cfi_def_cfa_offset 64
 1720 0006 0446     		mov	r4, r0
 1721 0008 0D46     		mov	r5, r1
 1722 000a 1746     		mov	r7, r2
 1723 000c DDF84090 		ldr	r9, [sp, #64]
 348:Drivers/lvgl/src/misc/lv_text.c **** 
 1724              		.loc 1 348 5 is_stmt 1 view .LVU549
 348:Drivers/lvgl/src/misc/lv_text.c **** 
 1725              		.loc 1 348 7 is_stmt 0 view .LVU550
 1726 0010 9846     		mov	r8, r3
 1727 0012 13B1     		cbz	r3, .L133
 348:Drivers/lvgl/src/misc/lv_text.c **** 
 1728              		.loc 1 348 20 is_stmt 1 discriminator 1 view .LVU551
ARM GAS  /var/folders/qx/2_175_4n2s19vhvtspjhb3qh0000gn/T//ccc2Jk7F.s 			page 57


 348:Drivers/lvgl/src/misc/lv_text.c **** 
 1729              		.loc 1 348 32 is_stmt 0 discriminator 1 view .LVU552
 1730 0014 0023     		movs	r3, #0
 1731              	.LVL189:
 348:Drivers/lvgl/src/misc/lv_text.c **** 
 1732              		.loc 1 348 32 discriminator 1 view .LVU553
 1733 0016 C8F80030 		str	r3, [r8]
 1734              	.L133:
 350:Drivers/lvgl/src/misc/lv_text.c ****     if(txt[0] == '\0') return 0;
 1735              		.loc 1 350 5 is_stmt 1 view .LVU554
 350:Drivers/lvgl/src/misc/lv_text.c ****     if(txt[0] == '\0') return 0;
 1736              		.loc 1 350 7 is_stmt 0 view .LVU555
 1737 001a 002C     		cmp	r4, #0
 1738 001c 76D0     		beq	.L151
 351:Drivers/lvgl/src/misc/lv_text.c ****     if(font == NULL) return 0;
 1739              		.loc 1 351 5 is_stmt 1 view .LVU556
 351:Drivers/lvgl/src/misc/lv_text.c ****     if(font == NULL) return 0;
 1740              		.loc 1 351 11 is_stmt 0 view .LVU557
 1741 001e 2378     		ldrb	r3, [r4]	@ zero_extendqisi2
 351:Drivers/lvgl/src/misc/lv_text.c ****     if(font == NULL) return 0;
 1742              		.loc 1 351 7 view .LVU558
 1743 0020 002B     		cmp	r3, #0
 1744 0022 75D0     		beq	.L152
 352:Drivers/lvgl/src/misc/lv_text.c **** 
 1745              		.loc 1 352 5 is_stmt 1 view .LVU559
 352:Drivers/lvgl/src/misc/lv_text.c **** 
 1746              		.loc 1 352 7 is_stmt 0 view .LVU560
 1747 0024 002F     		cmp	r7, #0
 1748 0026 77D0     		beq	.L153
 354:Drivers/lvgl/src/misc/lv_text.c **** 
 1749              		.loc 1 354 5 is_stmt 1 view .LVU561
 1750              	.LVL190:
 358:Drivers/lvgl/src/misc/lv_text.c ****        (attributes->text_flags & LV_TEXT_FLAG_FIT)) {
 1751              		.loc 1 358 5 view .LVU562
 358:Drivers/lvgl/src/misc/lv_text.c ****        (attributes->text_flags & LV_TEXT_FLAG_FIT)) {
 1752              		.loc 1 358 19 is_stmt 0 view .LVU563
 1753 0028 99F80C30 		ldrb	r3, [r9, #12]	@ zero_extendqisi2
 358:Drivers/lvgl/src/misc/lv_text.c ****        (attributes->text_flags & LV_TEXT_FLAG_FIT)) {
 1754              		.loc 1 358 7 view .LVU564
 1755 002c 13F0010F 		tst	r3, #1
 1756 0030 21D1     		bne	.L154
 358:Drivers/lvgl/src/misc/lv_text.c ****        (attributes->text_flags & LV_TEXT_FLAG_FIT)) {
 1757              		.loc 1 358 55 discriminator 1 view .LVU565
 1758 0032 13F0020F 		tst	r3, #2
 1759 0036 20D1     		bne	.L158
 370:Drivers/lvgl/src/misc/lv_text.c ****         attributes->max_width = LV_COORD_MAX;
 1760              		.loc 1 370 5 is_stmt 1 view .LVU566
 373:Drivers/lvgl/src/misc/lv_text.c **** 
 1761              		.loc 1 373 5 view .LVU567
 373:Drivers/lvgl/src/misc/lv_text.c **** 
 1762              		.loc 1 373 25 is_stmt 0 view .LVU568
 1763 0038 0023     		movs	r3, #0
 1764 003a 8DF81F30 		strb	r3, [sp, #31]
 375:Drivers/lvgl/src/misc/lv_text.c ****     uint32_t max_width = attributes->max_width;
 1765              		.loc 1 375 5 is_stmt 1 view .LVU569
 375:Drivers/lvgl/src/misc/lv_text.c ****     uint32_t max_width = attributes->max_width;
 1766              		.loc 1 375 14 is_stmt 0 view .LVU570
ARM GAS  /var/folders/qx/2_175_4n2s19vhvtspjhb3qh0000gn/T//ccc2Jk7F.s 			page 58


 1767 003e 0693     		str	r3, [sp, #24]
 376:Drivers/lvgl/src/misc/lv_text.c **** 
 1768              		.loc 1 376 5 is_stmt 1 view .LVU571
 376:Drivers/lvgl/src/misc/lv_text.c **** 
 1769              		.loc 1 376 36 is_stmt 0 view .LVU572
 1770 0040 D9F80860 		ldr	r6, [r9, #8]
 1771              	.LVL191:
 378:Drivers/lvgl/src/misc/lv_text.c ****         lv_text_flag_t word_flag = attributes->text_flags;
 1772              		.loc 1 378 5 is_stmt 1 view .LVU573
 354:Drivers/lvgl/src/misc/lv_text.c **** 
 1773              		.loc 1 354 13 is_stmt 0 view .LVU574
 1774 0044 9A46     		mov	r10, r3
 378:Drivers/lvgl/src/misc/lv_text.c ****         lv_text_flag_t word_flag = attributes->text_flags;
 1775              		.loc 1 378 10 view .LVU575
 1776 0046 3AE0     		b	.L142
 1777              	.LVL192:
 1778              	.L139:
 1779              	.LBB17:
 364:Drivers/lvgl/src/misc/lv_text.c ****         if(i < len && txt[i] != '\0') i++;    /*To go beyond `\n`*/
 1780              		.loc 1 364 9 is_stmt 1 view .LVU576
 362:Drivers/lvgl/src/misc/lv_text.c ****             /*Just find the new line chars or string ends by incrementing `i`*/
 1781              		.loc 1 362 84 discriminator 6 view .LVU577
 1782 0048 0130     		adds	r0, r0, #1
 1783              	.LVL193:
 1784              	.L137:
 362:Drivers/lvgl/src/misc/lv_text.c ****             /*Just find the new line chars or string ends by incrementing `i`*/
 1785              		.loc 1 362 64 discriminator 1 view .LVU578
 1786 004a A842     		cmp	r0, r5
 1787 004c 06D2     		bcs	.L138
 362:Drivers/lvgl/src/misc/lv_text.c ****             /*Just find the new line chars or string ends by incrementing `i`*/
 1788              		.loc 1 362 34 is_stmt 0 discriminator 3 view .LVU579
 1789 004e 235C     		ldrb	r3, [r4, r0]	@ zero_extendqisi2
 362:Drivers/lvgl/src/misc/lv_text.c ****             /*Just find the new line chars or string ends by incrementing `i`*/
 1790              		.loc 1 362 28 discriminator 3 view .LVU580
 1791 0050 0A2B     		cmp	r3, #10
 1792 0052 03D0     		beq	.L138
 362:Drivers/lvgl/src/misc/lv_text.c ****             /*Just find the new line chars or string ends by incrementing `i`*/
 1793              		.loc 1 362 46 discriminator 4 view .LVU581
 1794 0054 0D2B     		cmp	r3, #13
 1795 0056 01D0     		beq	.L138
 362:Drivers/lvgl/src/misc/lv_text.c ****             /*Just find the new line chars or string ends by incrementing `i`*/
 1796              		.loc 1 362 64 discriminator 5 view .LVU582
 1797 0058 002B     		cmp	r3, #0
 1798 005a F5D1     		bne	.L139
 1799              	.L138:
 365:Drivers/lvgl/src/misc/lv_text.c ****         if(used_width) *used_width = -1;
 1800              		.loc 1 365 9 is_stmt 1 view .LVU583
 365:Drivers/lvgl/src/misc/lv_text.c ****         if(used_width) *used_width = -1;
 1801              		.loc 1 365 11 is_stmt 0 view .LVU584
 1802 005c A842     		cmp	r0, r5
 1803 005e 02D2     		bcs	.L140
 365:Drivers/lvgl/src/misc/lv_text.c ****         if(used_width) *used_width = -1;
 1804              		.loc 1 365 26 discriminator 1 view .LVU585
 1805 0060 235C     		ldrb	r3, [r4, r0]	@ zero_extendqisi2
 365:Drivers/lvgl/src/misc/lv_text.c ****         if(used_width) *used_width = -1;
 1806              		.loc 1 365 20 discriminator 1 view .LVU586
 1807 0062 03B1     		cbz	r3, .L140
ARM GAS  /var/folders/qx/2_175_4n2s19vhvtspjhb3qh0000gn/T//ccc2Jk7F.s 			page 59


 365:Drivers/lvgl/src/misc/lv_text.c ****         if(used_width) *used_width = -1;
 1808              		.loc 1 365 39 is_stmt 1 discriminator 2 view .LVU587
 365:Drivers/lvgl/src/misc/lv_text.c ****         if(used_width) *used_width = -1;
 1809              		.loc 1 365 40 is_stmt 0 discriminator 2 view .LVU588
 1810 0064 0130     		adds	r0, r0, #1
 1811              	.LVL194:
 1812              	.L140:
 366:Drivers/lvgl/src/misc/lv_text.c ****         return i;
 1813              		.loc 1 366 9 is_stmt 1 view .LVU589
 366:Drivers/lvgl/src/misc/lv_text.c ****         return i;
 1814              		.loc 1 366 11 is_stmt 0 view .LVU590
 1815 0066 B8F1000F 		cmp	r8, #0
 1816 006a 52D0     		beq	.L132
 366:Drivers/lvgl/src/misc/lv_text.c ****         return i;
 1817              		.loc 1 366 24 is_stmt 1 discriminator 1 view .LVU591
 366:Drivers/lvgl/src/misc/lv_text.c ****         return i;
 1818              		.loc 1 366 36 is_stmt 0 discriminator 1 view .LVU592
 1819 006c 4FF0FF33 		mov	r3, #-1
 1820 0070 C8F80030 		str	r3, [r8]
 367:Drivers/lvgl/src/misc/lv_text.c ****     }
 1821              		.loc 1 367 9 is_stmt 1 view .LVU593
 367:Drivers/lvgl/src/misc/lv_text.c ****     }
 1822              		.loc 1 367 16 is_stmt 0 view .LVU594
 1823 0074 4DE0     		b	.L132
 1824              	.LVL195:
 1825              	.L154:
 367:Drivers/lvgl/src/misc/lv_text.c ****     }
 1826              		.loc 1 367 16 view .LVU595
 1827              	.LBE17:
 1828 0076 0020     		movs	r0, #0
 1829              	.LVL196:
 367:Drivers/lvgl/src/misc/lv_text.c ****     }
 1830              		.loc 1 367 16 view .LVU596
 1831 0078 E7E7     		b	.L137
 1832              	.LVL197:
 1833              	.L158:
 367:Drivers/lvgl/src/misc/lv_text.c ****     }
 1834              		.loc 1 367 16 view .LVU597
 1835 007a 0020     		movs	r0, #0
 1836              	.LVL198:
 367:Drivers/lvgl/src/misc/lv_text.c ****     }
 1837              		.loc 1 367 16 view .LVU598
 1838 007c E5E7     		b	.L137
 1839              	.LVL199:
 1840              	.L143:
 1841              	.LBB18:
 383:Drivers/lvgl/src/misc/lv_text.c ****         uint32_t advance = lv_text_get_next_word(&txt[i], font, attributes->letter_space,
 1842              		.loc 1 383 9 is_stmt 1 view .LVU599
 383:Drivers/lvgl/src/misc/lv_text.c ****         uint32_t advance = lv_text_get_next_word(&txt[i], font, attributes->letter_space,
 1843              		.loc 1 383 18 is_stmt 0 view .LVU600
 1844 007e 0023     		movs	r3, #0
 1845 0080 0593     		str	r3, [sp, #20]
 384:Drivers/lvgl/src/misc/lv_text.c ****                                                  max_width, word_flag, &word_w, &cmd_state);
 1846              		.loc 1 384 9 is_stmt 1 view .LVU601
 384:Drivers/lvgl/src/misc/lv_text.c ****                                                  max_width, word_flag, &word_w, &cmd_state);
 1847              		.loc 1 384 28 is_stmt 0 view .LVU602
 1848 0082 0DF11F03 		add	r3, sp, #31
ARM GAS  /var/folders/qx/2_175_4n2s19vhvtspjhb3qh0000gn/T//ccc2Jk7F.s 			page 60


 1849 0086 0293     		str	r3, [sp, #8]
 1850 0088 05AB     		add	r3, sp, #20
 1851 008a 0193     		str	r3, [sp, #4]
 1852 008c 0092     		str	r2, [sp]
 1853 008e 3346     		mov	r3, r6
 1854 0090 D9F80020 		ldr	r2, [r9]
 1855              	.LVL200:
 384:Drivers/lvgl/src/misc/lv_text.c ****                                                  max_width, word_flag, &word_w, &cmd_state);
 1856              		.loc 1 384 28 view .LVU603
 1857 0094 3946     		mov	r1, r7
 1858 0096 FFF7FEFF 		bl	lv_text_get_next_word
 1859              	.LVL201:
 386:Drivers/lvgl/src/misc/lv_text.c ****         line_w += word_w;
 1860              		.loc 1 386 9 is_stmt 1 view .LVU604
 386:Drivers/lvgl/src/misc/lv_text.c ****         line_w += word_w;
 1861              		.loc 1 386 19 is_stmt 0 view .LVU605
 1862 009a 059B     		ldr	r3, [sp, #20]
 1863 009c F61A     		subs	r6, r6, r3
 1864              	.LVL202:
 387:Drivers/lvgl/src/misc/lv_text.c **** 
 1865              		.loc 1 387 9 is_stmt 1 view .LVU606
 387:Drivers/lvgl/src/misc/lv_text.c **** 
 1866              		.loc 1 387 16 is_stmt 0 view .LVU607
 1867 009e 9A44     		add	r10, r10, r3
 1868              	.LVL203:
 389:Drivers/lvgl/src/misc/lv_text.c ****             break;
 1869              		.loc 1 389 9 is_stmt 1 view .LVU608
 389:Drivers/lvgl/src/misc/lv_text.c ****             break;
 1870              		.loc 1 389 11 is_stmt 0 view .LVU609
 1871 00a0 0346     		mov	r3, r0
 1872 00a2 E0B1     		cbz	r0, .L147
 393:Drivers/lvgl/src/misc/lv_text.c **** 
 1873              		.loc 1 393 9 is_stmt 1 view .LVU610
 393:Drivers/lvgl/src/misc/lv_text.c **** 
 1874              		.loc 1 393 11 is_stmt 0 view .LVU611
 1875 00a4 069A     		ldr	r2, [sp, #24]
 1876 00a6 1344     		add	r3, r3, r2
 1877 00a8 0693     		str	r3, [sp, #24]
 395:Drivers/lvgl/src/misc/lv_text.c **** 
 1878              		.loc 1 395 9 is_stmt 1 view .LVU612
 395:Drivers/lvgl/src/misc/lv_text.c **** 
 1879              		.loc 1 395 15 is_stmt 0 view .LVU613
 1880 00aa 2278     		ldrb	r2, [r4]	@ zero_extendqisi2
 395:Drivers/lvgl/src/misc/lv_text.c **** 
 1881              		.loc 1 395 11 view .LVU614
 1882 00ac 0A2A     		cmp	r2, #10
 1883 00ae 16D0     		beq	.L147
 395:Drivers/lvgl/src/misc/lv_text.c **** 
 1884              		.loc 1 395 27 discriminator 1 view .LVU615
 1885 00b0 0D2A     		cmp	r2, #13
 1886 00b2 14D0     		beq	.L147
 397:Drivers/lvgl/src/misc/lv_text.c ****             i++;  /*Include the following newline in the current line*/
 1887              		.loc 1 397 9 is_stmt 1 view .LVU616
 397:Drivers/lvgl/src/misc/lv_text.c ****             i++;  /*Include the following newline in the current line*/
 1888              		.loc 1 397 15 is_stmt 0 view .LVU617
 1889 00b4 E25C     		ldrb	r2, [r4, r3]	@ zero_extendqisi2
 397:Drivers/lvgl/src/misc/lv_text.c ****             i++;  /*Include the following newline in the current line*/
ARM GAS  /var/folders/qx/2_175_4n2s19vhvtspjhb3qh0000gn/T//ccc2Jk7F.s 			page 61


 1890              		.loc 1 397 11 view .LVU618
 1891 00b6 0A2A     		cmp	r2, #10
 1892 00b8 0FD0     		beq	.L145
 397:Drivers/lvgl/src/misc/lv_text.c ****             i++;  /*Include the following newline in the current line*/
 1893              		.loc 1 397 27 discriminator 1 view .LVU619
 1894 00ba 0D2A     		cmp	r2, #13
 1895 00bc 0DD0     		beq	.L145
 1896              	.LVL204:
 1897              	.L142:
 397:Drivers/lvgl/src/misc/lv_text.c ****             i++;  /*Include the following newline in the current line*/
 1898              		.loc 1 397 27 discriminator 1 view .LVU620
 1899              	.LBE18:
 378:Drivers/lvgl/src/misc/lv_text.c ****         lv_text_flag_t word_flag = attributes->text_flags;
 1900              		.loc 1 378 37 is_stmt 1 view .LVU621
 378:Drivers/lvgl/src/misc/lv_text.c ****         lv_text_flag_t word_flag = attributes->text_flags;
 1901              		.loc 1 378 13 is_stmt 0 view .LVU622
 1902 00be 069B     		ldr	r3, [sp, #24]
 378:Drivers/lvgl/src/misc/lv_text.c ****         lv_text_flag_t word_flag = attributes->text_flags;
 1903              		.loc 1 378 37 view .LVU623
 1904 00c0 AB42     		cmp	r3, r5
 1905 00c2 0CD2     		bcs	.L147
 378:Drivers/lvgl/src/misc/lv_text.c ****         lv_text_flag_t word_flag = attributes->text_flags;
 1906              		.loc 1 378 25 discriminator 1 view .LVU624
 1907 00c4 E018     		adds	r0, r4, r3
 1908 00c6 E25C     		ldrb	r2, [r4, r3]	@ zero_extendqisi2
 378:Drivers/lvgl/src/misc/lv_text.c ****         lv_text_flag_t word_flag = attributes->text_flags;
 1909              		.loc 1 378 19 discriminator 1 view .LVU625
 1910 00c8 4AB1     		cbz	r2, .L147
 378:Drivers/lvgl/src/misc/lv_text.c ****         lv_text_flag_t word_flag = attributes->text_flags;
 1911              		.loc 1 378 37 discriminator 2 view .LVU626
 1912 00ca 46B1     		cbz	r6, .L147
 1913              	.LBB19:
 379:Drivers/lvgl/src/misc/lv_text.c **** 
 1914              		.loc 1 379 9 is_stmt 1 view .LVU627
 379:Drivers/lvgl/src/misc/lv_text.c **** 
 1915              		.loc 1 379 24 is_stmt 0 view .LVU628
 1916 00cc 99F80C20 		ldrb	r2, [r9, #12]	@ zero_extendqisi2
 1917              	.LVL205:
 381:Drivers/lvgl/src/misc/lv_text.c **** 
 1918              		.loc 1 381 9 is_stmt 1 view .LVU629
 381:Drivers/lvgl/src/misc/lv_text.c **** 
 1919              		.loc 1 381 11 is_stmt 0 view .LVU630
 1920 00d0 002B     		cmp	r3, #0
 1921 00d2 D4D1     		bne	.L143
 381:Drivers/lvgl/src/misc/lv_text.c **** 
 1922              		.loc 1 381 20 is_stmt 1 discriminator 1 view .LVU631
 381:Drivers/lvgl/src/misc/lv_text.c **** 
 1923              		.loc 1 381 30 is_stmt 0 discriminator 1 view .LVU632
 1924 00d4 42F00402 		orr	r2, r2, #4
 1925              	.LVL206:
 381:Drivers/lvgl/src/misc/lv_text.c **** 
 1926              		.loc 1 381 30 discriminator 1 view .LVU633
 1927 00d8 D1E7     		b	.L143
 1928              	.LVL207:
 1929              	.L145:
 398:Drivers/lvgl/src/misc/lv_text.c ****             break;
 1930              		.loc 1 398 13 is_stmt 1 view .LVU634
ARM GAS  /var/folders/qx/2_175_4n2s19vhvtspjhb3qh0000gn/T//ccc2Jk7F.s 			page 62


 398:Drivers/lvgl/src/misc/lv_text.c ****             break;
 1931              		.loc 1 398 14 is_stmt 0 view .LVU635
 1932 00da 0133     		adds	r3, r3, #1
 1933 00dc 0693     		str	r3, [sp, #24]
 399:Drivers/lvgl/src/misc/lv_text.c ****         }
 1934              		.loc 1 399 13 is_stmt 1 view .LVU636
 1935              	.LVL208:
 1936              	.L147:
 399:Drivers/lvgl/src/misc/lv_text.c ****         }
 1937              		.loc 1 399 13 is_stmt 0 view .LVU637
 1938              	.LBE19:
 404:Drivers/lvgl/src/misc/lv_text.c ****         uint32_t letter = lv_text_encoded_next(txt, &i);
 1939              		.loc 1 404 5 is_stmt 1 view .LVU638
 404:Drivers/lvgl/src/misc/lv_text.c ****         uint32_t letter = lv_text_encoded_next(txt, &i);
 1940              		.loc 1 404 10 is_stmt 0 view .LVU639
 1941 00de 069B     		ldr	r3, [sp, #24]
 404:Drivers/lvgl/src/misc/lv_text.c ****         uint32_t letter = lv_text_encoded_next(txt, &i);
 1942              		.loc 1 404 7 view .LVU640
 1943 00e0 33B1     		cbz	r3, .L159
 1944              	.LVL209:
 1945              	.L149:
 411:Drivers/lvgl/src/misc/lv_text.c ****         *used_width = line_w;
 1946              		.loc 1 411 5 is_stmt 1 view .LVU641
 411:Drivers/lvgl/src/misc/lv_text.c ****         *used_width = line_w;
 1947              		.loc 1 411 7 is_stmt 0 view .LVU642
 1948 00e2 B8F1000F 		cmp	r8, #0
 1949 00e6 01D0     		beq	.L150
 412:Drivers/lvgl/src/misc/lv_text.c ****     }
 1950              		.loc 1 412 9 is_stmt 1 view .LVU643
 412:Drivers/lvgl/src/misc/lv_text.c ****     }
 1951              		.loc 1 412 21 is_stmt 0 view .LVU644
 1952 00e8 C8F800A0 		str	r10, [r8]
 1953              	.L150:
 1954              	.LVL210:
 415:Drivers/lvgl/src/misc/lv_text.c **** }
 1955              		.loc 1 415 5 is_stmt 1 view .LVU645
 415:Drivers/lvgl/src/misc/lv_text.c **** }
 1956              		.loc 1 415 12 is_stmt 0 view .LVU646
 1957 00ec 0698     		ldr	r0, [sp, #24]
 1958 00ee 10E0     		b	.L132
 1959              	.LVL211:
 1960              	.L159:
 1961              	.LBB20:
 405:Drivers/lvgl/src/misc/lv_text.c ****         if(used_width != NULL) {
 1962              		.loc 1 405 9 is_stmt 1 view .LVU647
 405:Drivers/lvgl/src/misc/lv_text.c ****         if(used_width != NULL) {
 1963              		.loc 1 405 27 is_stmt 0 view .LVU648
 1964 00f0 06A9     		add	r1, sp, #24
 1965 00f2 2046     		mov	r0, r4
 1966 00f4 FFF7FEFF 		bl	lv_text_utf8_next
 1967              	.LVL212:
 1968 00f8 0146     		mov	r1, r0
 1969              	.LVL213:
 406:Drivers/lvgl/src/misc/lv_text.c ****             line_w = lv_font_get_glyph_width(font, letter, '\0');
 1970              		.loc 1 406 9 is_stmt 1 view .LVU649
 406:Drivers/lvgl/src/misc/lv_text.c ****             line_w = lv_font_get_glyph_width(font, letter, '\0');
 1971              		.loc 1 406 11 is_stmt 0 view .LVU650
ARM GAS  /var/folders/qx/2_175_4n2s19vhvtspjhb3qh0000gn/T//ccc2Jk7F.s 			page 63


 1972 00fa B8F1000F 		cmp	r8, #0
 1973 00fe F5D0     		beq	.L150
 407:Drivers/lvgl/src/misc/lv_text.c ****         }
 1974              		.loc 1 407 13 is_stmt 1 view .LVU651
 407:Drivers/lvgl/src/misc/lv_text.c ****         }
 1975              		.loc 1 407 22 is_stmt 0 view .LVU652
 1976 0100 0022     		movs	r2, #0
 1977 0102 3846     		mov	r0, r7
 1978              	.LVL214:
 407:Drivers/lvgl/src/misc/lv_text.c ****         }
 1979              		.loc 1 407 22 view .LVU653
 1980 0104 FFF7FEFF 		bl	lv_font_get_glyph_width
 1981              	.LVL215:
 407:Drivers/lvgl/src/misc/lv_text.c ****         }
 1982              		.loc 1 407 20 discriminator 1 view .LVU654
 1983 0108 8246     		mov	r10, r0
 1984              	.LVL216:
 407:Drivers/lvgl/src/misc/lv_text.c ****         }
 1985              		.loc 1 407 20 discriminator 1 view .LVU655
 1986 010a EAE7     		b	.L149
 1987              	.LVL217:
 1988              	.L151:
 407:Drivers/lvgl/src/misc/lv_text.c ****         }
 1989              		.loc 1 407 20 discriminator 1 view .LVU656
 1990              	.LBE20:
 350:Drivers/lvgl/src/misc/lv_text.c ****     if(txt[0] == '\0') return 0;
 1991              		.loc 1 350 28 discriminator 1 view .LVU657
 1992 010c 0020     		movs	r0, #0
 1993              	.LVL218:
 350:Drivers/lvgl/src/misc/lv_text.c ****     if(txt[0] == '\0') return 0;
 1994              		.loc 1 350 28 discriminator 1 view .LVU658
 1995 010e 00E0     		b	.L132
 1996              	.LVL219:
 1997              	.L152:
 351:Drivers/lvgl/src/misc/lv_text.c ****     if(font == NULL) return 0;
 1998              		.loc 1 351 31 discriminator 1 view .LVU659
 1999 0110 0020     		movs	r0, #0
 2000              	.LVL220:
 2001              	.L132:
 416:Drivers/lvgl/src/misc/lv_text.c **** 
 2002              		.loc 1 416 1 view .LVU660
 2003 0112 08B0     		add	sp, sp, #32
 2004              	.LCFI29:
 2005              		.cfi_remember_state
 2006              		.cfi_def_cfa_offset 32
 2007              		@ sp needed
 2008 0114 BDE8F087 		pop	{r4, r5, r6, r7, r8, r9, r10, pc}
 2009              	.LVL221:
 2010              	.L153:
 2011              	.LCFI30:
 2012              		.cfi_restore_state
 352:Drivers/lvgl/src/misc/lv_text.c **** 
 2013              		.loc 1 352 29 discriminator 1 view .LVU661
 2014 0118 0020     		movs	r0, #0
 2015              	.LVL222:
 352:Drivers/lvgl/src/misc/lv_text.c **** 
 2016              		.loc 1 352 29 discriminator 1 view .LVU662
ARM GAS  /var/folders/qx/2_175_4n2s19vhvtspjhb3qh0000gn/T//ccc2Jk7F.s 			page 64


 2017 011a FAE7     		b	.L132
 2018              		.cfi_endproc
 2019              	.LFE39:
 2021              		.section	.text.lv_text_ins,"ax",%progbits
 2022              		.align	1
 2023              		.global	lv_text_ins
 2024              		.syntax unified
 2025              		.thumb
 2026              		.thumb_func
 2028              	lv_text_ins:
 2029              	.LVL223:
 2030              	.LFB41:
 460:Drivers/lvgl/src/misc/lv_text.c ****     if(txt_buf == NULL || ins_txt == NULL) return;
 2031              		.loc 1 460 1 is_stmt 1 view -0
 2032              		.cfi_startproc
 2033              		@ args = 0, pretend = 0, frame = 0
 2034              		@ frame_needed = 0, uses_anonymous_args = 0
 461:Drivers/lvgl/src/misc/lv_text.c **** 
 2035              		.loc 1 461 5 view .LVU664
 461:Drivers/lvgl/src/misc/lv_text.c **** 
 2036              		.loc 1 461 7 is_stmt 0 view .LVU665
 2037 0000 08B3     		cbz	r0, .L165
 460:Drivers/lvgl/src/misc/lv_text.c ****     if(txt_buf == NULL || ins_txt == NULL) return;
 2038              		.loc 1 460 1 view .LVU666
 2039 0002 2DE9F041 		push	{r4, r5, r6, r7, r8, lr}
 2040              	.LCFI31:
 2041              		.cfi_def_cfa_offset 24
 2042              		.cfi_offset 4, -24
 2043              		.cfi_offset 5, -20
 2044              		.cfi_offset 6, -16
 2045              		.cfi_offset 7, -12
 2046              		.cfi_offset 8, -8
 2047              		.cfi_offset 14, -4
 2048 0006 8846     		mov	r8, r1
 2049 0008 1746     		mov	r7, r2
 2050 000a 0546     		mov	r5, r0
 461:Drivers/lvgl/src/misc/lv_text.c **** 
 2051              		.loc 1 461 24 discriminator 2 view .LVU667
 2052 000c CAB1     		cbz	r2, .L160
 463:Drivers/lvgl/src/misc/lv_text.c ****     size_t ins_len = lv_strlen(ins_txt);
 2053              		.loc 1 463 5 is_stmt 1 view .LVU668
 463:Drivers/lvgl/src/misc/lv_text.c ****     size_t ins_len = lv_strlen(ins_txt);
 2054              		.loc 1 463 22 is_stmt 0 view .LVU669
 2055 000e FFF7FEFF 		bl	lv_strlen
 2056              	.LVL224:
 463:Drivers/lvgl/src/misc/lv_text.c ****     size_t ins_len = lv_strlen(ins_txt);
 2057              		.loc 1 463 22 view .LVU670
 2058 0012 0446     		mov	r4, r0
 2059              	.LVL225:
 464:Drivers/lvgl/src/misc/lv_text.c ****     if(ins_len == 0) return;
 2060              		.loc 1 464 5 is_stmt 1 view .LVU671
 464:Drivers/lvgl/src/misc/lv_text.c ****     if(ins_len == 0) return;
 2061              		.loc 1 464 22 is_stmt 0 view .LVU672
 2062 0014 3846     		mov	r0, r7
 2063              	.LVL226:
 464:Drivers/lvgl/src/misc/lv_text.c ****     if(ins_len == 0) return;
 2064              		.loc 1 464 22 view .LVU673
ARM GAS  /var/folders/qx/2_175_4n2s19vhvtspjhb3qh0000gn/T//ccc2Jk7F.s 			page 65


 2065 0016 FFF7FEFF 		bl	lv_strlen
 2066              	.LVL227:
 465:Drivers/lvgl/src/misc/lv_text.c **** 
 2067              		.loc 1 465 5 is_stmt 1 view .LVU674
 465:Drivers/lvgl/src/misc/lv_text.c **** 
 2068              		.loc 1 465 7 is_stmt 0 view .LVU675
 2069 001a 0646     		mov	r6, r0
 2070 001c 88B1     		cbz	r0, .L160
 467:Drivers/lvgl/src/misc/lv_text.c ****     pos              = lv_text_encoded_get_byte_id(txt_buf, pos); /*Convert to byte index instead o
 2071              		.loc 1 467 5 is_stmt 1 view .LVU676
 467:Drivers/lvgl/src/misc/lv_text.c ****     pos              = lv_text_encoded_get_byte_id(txt_buf, pos); /*Convert to byte index instead o
 2072              		.loc 1 467 12 is_stmt 0 view .LVU677
 2073 001e 0444     		add	r4, r4, r0
 2074              	.LVL228:
 468:Drivers/lvgl/src/misc/lv_text.c **** 
 2075              		.loc 1 468 5 is_stmt 1 view .LVU678
 468:Drivers/lvgl/src/misc/lv_text.c **** 
 2076              		.loc 1 468 24 is_stmt 0 view .LVU679
 2077 0020 4146     		mov	r1, r8
 2078 0022 2846     		mov	r0, r5
 2079              	.LVL229:
 468:Drivers/lvgl/src/misc/lv_text.c **** 
 2080              		.loc 1 468 24 view .LVU680
 2081 0024 FFF7FEFF 		bl	lv_text_utf8_get_byte_id
 2082              	.LVL230:
 471:Drivers/lvgl/src/misc/lv_text.c ****     for(i = new_len; i >= pos + ins_len; i--) {
 2083              		.loc 1 471 5 is_stmt 1 view .LVU681
 472:Drivers/lvgl/src/misc/lv_text.c ****         txt_buf[i] = txt_buf[i - ins_len];
 2084              		.loc 1 472 5 view .LVU682
 2085              	.L162:
 472:Drivers/lvgl/src/misc/lv_text.c ****         txt_buf[i] = txt_buf[i - ins_len];
 2086              		.loc 1 472 24 discriminator 1 view .LVU683
 472:Drivers/lvgl/src/misc/lv_text.c ****         txt_buf[i] = txt_buf[i - ins_len];
 2087              		.loc 1 472 31 is_stmt 0 discriminator 1 view .LVU684
 2088 0028 3318     		adds	r3, r6, r0
 472:Drivers/lvgl/src/misc/lv_text.c ****         txt_buf[i] = txt_buf[i - ins_len];
 2089              		.loc 1 472 24 discriminator 1 view .LVU685
 2090 002a A342     		cmp	r3, r4
 2091 002c 04D8     		bhi	.L168
 473:Drivers/lvgl/src/misc/lv_text.c ****     }
 2092              		.loc 1 473 9 is_stmt 1 view .LVU686
 473:Drivers/lvgl/src/misc/lv_text.c ****     }
 2093              		.loc 1 473 32 is_stmt 0 view .LVU687
 2094 002e A31B     		subs	r3, r4, r6
 473:Drivers/lvgl/src/misc/lv_text.c ****     }
 2095              		.loc 1 473 29 view .LVU688
 2096 0030 EB5C     		ldrb	r3, [r5, r3]	@ zero_extendqisi2
 473:Drivers/lvgl/src/misc/lv_text.c ****     }
 2097              		.loc 1 473 20 view .LVU689
 2098 0032 2B55     		strb	r3, [r5, r4]
 472:Drivers/lvgl/src/misc/lv_text.c ****         txt_buf[i] = txt_buf[i - ins_len];
 2099              		.loc 1 472 43 is_stmt 1 discriminator 3 view .LVU690
 2100 0034 013C     		subs	r4, r4, #1
 2101              	.LVL231:
 472:Drivers/lvgl/src/misc/lv_text.c ****         txt_buf[i] = txt_buf[i - ins_len];
 2102              		.loc 1 472 43 is_stmt 0 discriminator 3 view .LVU691
 2103 0036 F7E7     		b	.L162
ARM GAS  /var/folders/qx/2_175_4n2s19vhvtspjhb3qh0000gn/T//ccc2Jk7F.s 			page 66


 2104              	.LVL232:
 2105              	.L168:
 477:Drivers/lvgl/src/misc/lv_text.c **** }
 2106              		.loc 1 477 5 is_stmt 1 view .LVU692
 2107 0038 3246     		mov	r2, r6
 2108 003a 3946     		mov	r1, r7
 2109 003c 2844     		add	r0, r0, r5
 2110              	.LVL233:
 477:Drivers/lvgl/src/misc/lv_text.c **** }
 2111              		.loc 1 477 5 is_stmt 0 view .LVU693
 2112 003e FFF7FEFF 		bl	lv_memcpy
 2113              	.LVL234:
 2114              	.L160:
 478:Drivers/lvgl/src/misc/lv_text.c **** 
 2115              		.loc 1 478 1 view .LVU694
 2116 0042 BDE8F081 		pop	{r4, r5, r6, r7, r8, pc}
 2117              	.LVL235:
 2118              	.L165:
 2119              	.LCFI32:
 2120              		.cfi_def_cfa_offset 0
 2121              		.cfi_restore 4
 2122              		.cfi_restore 5
 2123              		.cfi_restore 6
 2124              		.cfi_restore 7
 2125              		.cfi_restore 8
 2126              		.cfi_restore 14
 478:Drivers/lvgl/src/misc/lv_text.c **** 
 2127              		.loc 1 478 1 view .LVU695
 2128 0046 7047     		bx	lr
 2129              		.cfi_endproc
 2130              	.LFE41:
 2132              		.section	.text.lv_text_cut,"ax",%progbits
 2133              		.align	1
 2134              		.global	lv_text_cut
 2135              		.syntax unified
 2136              		.thumb
 2137              		.thumb_func
 2139              	lv_text_cut:
 2140              	.LVL236:
 2141              	.LFB42:
 481:Drivers/lvgl/src/misc/lv_text.c ****     if(txt == NULL) return;
 2142              		.loc 1 481 1 is_stmt 1 view -0
 2143              		.cfi_startproc
 2144              		@ args = 0, pretend = 0, frame = 0
 2145              		@ frame_needed = 0, uses_anonymous_args = 0
 482:Drivers/lvgl/src/misc/lv_text.c **** 
 2146              		.loc 1 482 5 view .LVU697
 482:Drivers/lvgl/src/misc/lv_text.c **** 
 2147              		.loc 1 482 7 is_stmt 0 view .LVU698
 2148 0000 C0B1     		cbz	r0, .L174
 481:Drivers/lvgl/src/misc/lv_text.c ****     if(txt == NULL) return;
 2149              		.loc 1 481 1 view .LVU699
 2150 0002 F8B5     		push	{r3, r4, r5, r6, r7, lr}
 2151              	.LCFI33:
 2152              		.cfi_def_cfa_offset 24
 2153              		.cfi_offset 3, -24
 2154              		.cfi_offset 4, -20
ARM GAS  /var/folders/qx/2_175_4n2s19vhvtspjhb3qh0000gn/T//ccc2Jk7F.s 			page 67


 2155              		.cfi_offset 5, -16
 2156              		.cfi_offset 6, -12
 2157              		.cfi_offset 7, -8
 2158              		.cfi_offset 14, -4
 2159 0004 0C46     		mov	r4, r1
 2160 0006 1746     		mov	r7, r2
 2161 0008 0546     		mov	r5, r0
 484:Drivers/lvgl/src/misc/lv_text.c **** 
 2162              		.loc 1 484 5 is_stmt 1 view .LVU700
 484:Drivers/lvgl/src/misc/lv_text.c **** 
 2163              		.loc 1 484 22 is_stmt 0 view .LVU701
 2164 000a FFF7FEFF 		bl	lv_strlen
 2165              	.LVL237:
 484:Drivers/lvgl/src/misc/lv_text.c **** 
 2166              		.loc 1 484 22 view .LVU702
 2167 000e 0646     		mov	r6, r0
 2168              	.LVL238:
 486:Drivers/lvgl/src/misc/lv_text.c ****     len = lv_text_encoded_get_byte_id(&txt[pos], len);
 2169              		.loc 1 486 5 is_stmt 1 view .LVU703
 486:Drivers/lvgl/src/misc/lv_text.c ****     len = lv_text_encoded_get_byte_id(&txt[pos], len);
 2170              		.loc 1 486 11 is_stmt 0 view .LVU704
 2171 0010 2146     		mov	r1, r4
 2172 0012 2846     		mov	r0, r5
 2173              	.LVL239:
 486:Drivers/lvgl/src/misc/lv_text.c ****     len = lv_text_encoded_get_byte_id(&txt[pos], len);
 2174              		.loc 1 486 11 view .LVU705
 2175 0014 FFF7FEFF 		bl	lv_text_utf8_get_byte_id
 2176              	.LVL240:
 2177 0018 0446     		mov	r4, r0
 2178              	.LVL241:
 487:Drivers/lvgl/src/misc/lv_text.c **** 
 2179              		.loc 1 487 5 is_stmt 1 view .LVU706
 487:Drivers/lvgl/src/misc/lv_text.c **** 
 2180              		.loc 1 487 11 is_stmt 0 view .LVU707
 2181 001a 3946     		mov	r1, r7
 2182 001c 2818     		adds	r0, r5, r0
 2183              	.LVL242:
 487:Drivers/lvgl/src/misc/lv_text.c **** 
 2184              		.loc 1 487 11 view .LVU708
 2185 001e FFF7FEFF 		bl	lv_text_utf8_get_byte_id
 2186              	.LVL243:
 490:Drivers/lvgl/src/misc/lv_text.c ****     for(i = pos; i <= old_len - len; i++) {
 2187              		.loc 1 490 5 is_stmt 1 view .LVU709
 491:Drivers/lvgl/src/misc/lv_text.c ****         txt[i] = txt[i + len];
 2188              		.loc 1 491 5 view .LVU710
 491:Drivers/lvgl/src/misc/lv_text.c ****         txt[i] = txt[i + len];
 2189              		.loc 1 491 5 is_stmt 0 view .LVU711
 2190 0022 03E0     		b	.L171
 2191              	.LVL244:
 2192              	.L172:
 492:Drivers/lvgl/src/misc/lv_text.c ****     }
 2193              		.loc 1 492 9 is_stmt 1 view .LVU712
 492:Drivers/lvgl/src/misc/lv_text.c ****     }
 2194              		.loc 1 492 24 is_stmt 0 view .LVU713
 2195 0024 2318     		adds	r3, r4, r0
 492:Drivers/lvgl/src/misc/lv_text.c ****     }
 2196              		.loc 1 492 21 view .LVU714
ARM GAS  /var/folders/qx/2_175_4n2s19vhvtspjhb3qh0000gn/T//ccc2Jk7F.s 			page 68


 2197 0026 EB5C     		ldrb	r3, [r5, r3]	@ zero_extendqisi2
 492:Drivers/lvgl/src/misc/lv_text.c ****     }
 2198              		.loc 1 492 16 view .LVU715
 2199 0028 2B55     		strb	r3, [r5, r4]
 491:Drivers/lvgl/src/misc/lv_text.c ****         txt[i] = txt[i + len];
 2200              		.loc 1 491 39 is_stmt 1 discriminator 3 view .LVU716
 2201 002a 0134     		adds	r4, r4, #1
 2202              	.LVL245:
 2203              	.L171:
 491:Drivers/lvgl/src/misc/lv_text.c ****         txt[i] = txt[i + len];
 2204              		.loc 1 491 20 discriminator 1 view .LVU717
 491:Drivers/lvgl/src/misc/lv_text.c ****         txt[i] = txt[i + len];
 2205              		.loc 1 491 31 is_stmt 0 discriminator 1 view .LVU718
 2206 002c 331A     		subs	r3, r6, r0
 491:Drivers/lvgl/src/misc/lv_text.c ****         txt[i] = txt[i + len];
 2207              		.loc 1 491 20 discriminator 1 view .LVU719
 2208 002e A342     		cmp	r3, r4
 2209 0030 F8D2     		bcs	.L172
 494:Drivers/lvgl/src/misc/lv_text.c **** 
 2210              		.loc 1 494 1 view .LVU720
 2211 0032 F8BD     		pop	{r3, r4, r5, r6, r7, pc}
 2212              	.LVL246:
 2213              	.L174:
 2214              	.LCFI34:
 2215              		.cfi_def_cfa_offset 0
 2216              		.cfi_restore 3
 2217              		.cfi_restore 4
 2218              		.cfi_restore 5
 2219              		.cfi_restore 6
 2220              		.cfi_restore 7
 2221              		.cfi_restore 14
 494:Drivers/lvgl/src/misc/lv_text.c **** 
 2222              		.loc 1 494 1 view .LVU721
 2223 0034 7047     		bx	lr
 2224              		.cfi_endproc
 2225              	.LFE42:
 2227              		.section	.text.lv_text_set_text_vfmt,"ax",%progbits
 2228              		.align	1
 2229              		.global	lv_text_set_text_vfmt
 2230              		.syntax unified
 2231              		.thumb
 2232              		.thumb_func
 2234              	lv_text_set_text_vfmt:
 2235              	.LVL247:
 2236              	.LFB43:
 497:Drivers/lvgl/src/misc/lv_text.c ****     /*Allocate space for the new text by using trick from C99 standard section 7.19.6.12*/
 2237              		.loc 1 497 1 is_stmt 1 view -0
 2238              		.cfi_startproc
 2239              		@ args = 0, pretend = 0, frame = 8
 2240              		@ frame_needed = 0, uses_anonymous_args = 0
 497:Drivers/lvgl/src/misc/lv_text.c ****     /*Allocate space for the new text by using trick from C99 standard section 7.19.6.12*/
 2241              		.loc 1 497 1 is_stmt 0 view .LVU723
 2242 0000 F0B5     		push	{r4, r5, r6, r7, lr}
 2243              	.LCFI35:
 2244              		.cfi_def_cfa_offset 20
 2245              		.cfi_offset 4, -20
 2246              		.cfi_offset 5, -16
ARM GAS  /var/folders/qx/2_175_4n2s19vhvtspjhb3qh0000gn/T//ccc2Jk7F.s 			page 69


 2247              		.cfi_offset 6, -12
 2248              		.cfi_offset 7, -8
 2249              		.cfi_offset 14, -4
 2250 0002 83B0     		sub	sp, sp, #12
 2251              	.LCFI36:
 2252              		.cfi_def_cfa_offset 32
 2253 0004 0646     		mov	r6, r0
 2254 0006 0C46     		mov	r4, r1
 2255              	.LVL248:
 499:Drivers/lvgl/src/misc/lv_text.c ****     va_copy(ap_copy, ap);
 2256              		.loc 1 499 5 is_stmt 1 view .LVU724
 500:Drivers/lvgl/src/misc/lv_text.c ****     uint32_t len = lv_vsnprintf(NULL, 0, fmt, ap_copy);
 2257              		.loc 1 500 5 view .LVU725
 500:Drivers/lvgl/src/misc/lv_text.c ****     uint32_t len = lv_vsnprintf(NULL, 0, fmt, ap_copy);
 2258              		.loc 1 500 5 is_stmt 0 view .LVU726
 2259 0008 0191     		str	r1, [sp, #4]
 501:Drivers/lvgl/src/misc/lv_text.c ****     va_end(ap_copy);
 2260              		.loc 1 501 5 is_stmt 1 view .LVU727
 501:Drivers/lvgl/src/misc/lv_text.c ****     va_end(ap_copy);
 2261              		.loc 1 501 20 is_stmt 0 view .LVU728
 2262 000a 0B46     		mov	r3, r1
 2263 000c 0246     		mov	r2, r0
 2264 000e 0021     		movs	r1, #0
 2265              	.LVL249:
 501:Drivers/lvgl/src/misc/lv_text.c ****     va_end(ap_copy);
 2266              		.loc 1 501 20 view .LVU729
 2267 0010 0846     		mov	r0, r1
 2268              	.LVL250:
 501:Drivers/lvgl/src/misc/lv_text.c ****     va_end(ap_copy);
 2269              		.loc 1 501 20 view .LVU730
 2270 0012 FFF7FEFF 		bl	lv_vsnprintf
 2271              	.LVL251:
 502:Drivers/lvgl/src/misc/lv_text.c **** 
 2272              		.loc 1 502 5 is_stmt 1 view .LVU731
 504:Drivers/lvgl/src/misc/lv_text.c **** #if LV_USE_ARABIC_PERSIAN_CHARS
 2273              		.loc 1 504 5 view .LVU732
 526:Drivers/lvgl/src/misc/lv_text.c ****     LV_ASSERT_MALLOC(text);
 2274              		.loc 1 526 5 view .LVU733
 526:Drivers/lvgl/src/misc/lv_text.c ****     LV_ASSERT_MALLOC(text);
 2275              		.loc 1 526 26 is_stmt 0 view .LVU734
 2276 0016 451C     		adds	r5, r0, #1
 526:Drivers/lvgl/src/misc/lv_text.c ****     LV_ASSERT_MALLOC(text);
 2277              		.loc 1 526 12 view .LVU735
 2278 0018 2846     		mov	r0, r5
 2279              	.LVL252:
 526:Drivers/lvgl/src/misc/lv_text.c ****     LV_ASSERT_MALLOC(text);
 2280              		.loc 1 526 12 view .LVU736
 2281 001a FFF7FEFF 		bl	lv_malloc
 2282              	.LVL253:
 527:Drivers/lvgl/src/misc/lv_text.c ****     if(text == NULL) {
 2283              		.loc 1 527 5 is_stmt 1 view .LVU737
 527:Drivers/lvgl/src/misc/lv_text.c ****     if(text == NULL) {
 2284              		.loc 1 527 5 view .LVU738
 2285 001e 40B1     		cbz	r0, .L179
 2286 0020 0746     		mov	r7, r0
 527:Drivers/lvgl/src/misc/lv_text.c ****     if(text == NULL) {
 2287              		.loc 1 527 5 view .LVU739
ARM GAS  /var/folders/qx/2_175_4n2s19vhvtspjhb3qh0000gn/T//ccc2Jk7F.s 			page 70


 527:Drivers/lvgl/src/misc/lv_text.c ****     if(text == NULL) {
 2288              		.loc 1 527 27 view .LVU740
 528:Drivers/lvgl/src/misc/lv_text.c ****         return NULL;
 2289              		.loc 1 528 5 view .LVU741
 532:Drivers/lvgl/src/misc/lv_text.c **** #endif
 2290              		.loc 1 532 5 view .LVU742
 2291              	.LVL254:
 532:Drivers/lvgl/src/misc/lv_text.c **** #endif
 2292              		.loc 1 532 5 is_stmt 0 view .LVU743
 2293 0022 2346     		mov	r3, r4
 2294 0024 3246     		mov	r2, r6
 2295 0026 2946     		mov	r1, r5
 2296 0028 FFF7FEFF 		bl	lv_vsnprintf
 2297              	.LVL255:
 535:Drivers/lvgl/src/misc/lv_text.c **** }
 2298              		.loc 1 535 5 is_stmt 1 view .LVU744
 536:Drivers/lvgl/src/misc/lv_text.c **** 
 2299              		.loc 1 536 1 is_stmt 0 view .LVU745
 2300 002c 3846     		mov	r0, r7
 2301 002e 03B0     		add	sp, sp, #12
 2302              	.LCFI37:
 2303              		.cfi_remember_state
 2304              		.cfi_def_cfa_offset 20
 2305              		@ sp needed
 2306 0030 F0BD     		pop	{r4, r5, r6, r7, pc}
 2307              	.LVL256:
 2308              	.L179:
 2309              	.LCFI38:
 2310              		.cfi_restore_state
 527:Drivers/lvgl/src/misc/lv_text.c ****     if(text == NULL) {
 2311              		.loc 1 527 5 is_stmt 1 view .LVU746
 527:Drivers/lvgl/src/misc/lv_text.c ****     if(text == NULL) {
 2312              		.loc 1 527 5 view .LVU747
 527:Drivers/lvgl/src/misc/lv_text.c ****     if(text == NULL) {
 2313              		.loc 1 527 5 view .LVU748
 527:Drivers/lvgl/src/misc/lv_text.c ****     if(text == NULL) {
 2314              		.loc 1 527 5 view .LVU749
 527:Drivers/lvgl/src/misc/lv_text.c ****     if(text == NULL) {
 2315              		.loc 1 527 5 view .LVU750
 2316 0032 FEE7     		b	.L179
 2317              		.cfi_endproc
 2318              	.LFE43:
 2320              		.section	.text.lv_text_encoded_letter_next_2,"ax",%progbits
 2321              		.align	1
 2322              		.global	lv_text_encoded_letter_next_2
 2323              		.syntax unified
 2324              		.thumb
 2325              		.thumb_func
 2327              	lv_text_encoded_letter_next_2:
 2328              	.LVL257:
 2329              	.LFB44:
 539:Drivers/lvgl/src/misc/lv_text.c ****     *letter = lv_text_encoded_next(txt, ofs);
 2330              		.loc 1 539 1 view -0
 2331              		.cfi_startproc
 2332              		@ args = 0, pretend = 0, frame = 0
 2333              		@ frame_needed = 0, uses_anonymous_args = 0
 539:Drivers/lvgl/src/misc/lv_text.c ****     *letter = lv_text_encoded_next(txt, ofs);
ARM GAS  /var/folders/qx/2_175_4n2s19vhvtspjhb3qh0000gn/T//ccc2Jk7F.s 			page 71


 2334              		.loc 1 539 1 is_stmt 0 view .LVU752
 2335 0000 F8B5     		push	{r3, r4, r5, r6, r7, lr}
 2336              	.LCFI39:
 2337              		.cfi_def_cfa_offset 24
 2338              		.cfi_offset 3, -24
 2339              		.cfi_offset 4, -20
 2340              		.cfi_offset 5, -16
 2341              		.cfi_offset 6, -12
 2342              		.cfi_offset 7, -8
 2343              		.cfi_offset 14, -4
 2344 0002 0746     		mov	r7, r0
 2345 0004 0E46     		mov	r6, r1
 2346 0006 1546     		mov	r5, r2
 2347 0008 1C46     		mov	r4, r3
 540:Drivers/lvgl/src/misc/lv_text.c ****     *letter_next = *letter != '\0' ? lv_text_encoded_next(&txt[*ofs], NULL) : 0;
 2348              		.loc 1 540 5 is_stmt 1 view .LVU753
 540:Drivers/lvgl/src/misc/lv_text.c ****     *letter_next = *letter != '\0' ? lv_text_encoded_next(&txt[*ofs], NULL) : 0;
 2349              		.loc 1 540 15 is_stmt 0 view .LVU754
 2350 000a 1946     		mov	r1, r3
 2351              	.LVL258:
 540:Drivers/lvgl/src/misc/lv_text.c ****     *letter_next = *letter != '\0' ? lv_text_encoded_next(&txt[*ofs], NULL) : 0;
 2352              		.loc 1 540 15 view .LVU755
 2353 000c FFF7FEFF 		bl	lv_text_utf8_next
 2354              	.LVL259:
 540:Drivers/lvgl/src/misc/lv_text.c ****     *letter_next = *letter != '\0' ? lv_text_encoded_next(&txt[*ofs], NULL) : 0;
 2355              		.loc 1 540 13 discriminator 1 view .LVU756
 2356 0010 3060     		str	r0, [r6]
 541:Drivers/lvgl/src/misc/lv_text.c **** }
 2357              		.loc 1 541 5 is_stmt 1 view .LVU757
 541:Drivers/lvgl/src/misc/lv_text.c **** }
 2358              		.loc 1 541 77 is_stmt 0 view .LVU758
 2359 0012 08B9     		cbnz	r0, .L184
 2360              	.L182:
 541:Drivers/lvgl/src/misc/lv_text.c **** }
 2361              		.loc 1 541 18 discriminator 4 view .LVU759
 2362 0014 2860     		str	r0, [r5]
 542:Drivers/lvgl/src/misc/lv_text.c **** 
 2363              		.loc 1 542 1 view .LVU760
 2364 0016 F8BD     		pop	{r3, r4, r5, r6, r7, pc}
 2365              	.LVL260:
 2366              	.L184:
 541:Drivers/lvgl/src/misc/lv_text.c **** }
 2367              		.loc 1 541 64 discriminator 1 view .LVU761
 2368 0018 2068     		ldr	r0, [r4]
 541:Drivers/lvgl/src/misc/lv_text.c **** }
 2369              		.loc 1 541 38 discriminator 1 view .LVU762
 2370 001a 0021     		movs	r1, #0
 2371 001c 3844     		add	r0, r0, r7
 2372 001e FFF7FEFF 		bl	lv_text_utf8_next
 2373              	.LVL261:
 2374 0022 F7E7     		b	.L182
 2375              		.cfi_endproc
 2376              	.LFE44:
 2378              		.section	.text.lv_text_get_width,"ax",%progbits
 2379              		.align	1
 2380              		.global	lv_text_get_width
 2381              		.syntax unified
ARM GAS  /var/folders/qx/2_175_4n2s19vhvtspjhb3qh0000gn/T//ccc2Jk7F.s 			page 72


 2382              		.thumb
 2383              		.thumb_func
 2385              	lv_text_get_width:
 2386              	.LVL262:
 2387              	.LFB40:
 420:Drivers/lvgl/src/misc/lv_text.c ****     if(txt == NULL) return 0;
 2388              		.loc 1 420 1 is_stmt 1 view -0
 2389              		.cfi_startproc
 2390              		@ args = 0, pretend = 0, frame = 16
 2391              		@ frame_needed = 0, uses_anonymous_args = 0
 420:Drivers/lvgl/src/misc/lv_text.c ****     if(txt == NULL) return 0;
 2392              		.loc 1 420 1 is_stmt 0 view .LVU764
 2393 0000 2DE9F041 		push	{r4, r5, r6, r7, r8, lr}
 2394              	.LCFI40:
 2395              		.cfi_def_cfa_offset 24
 2396              		.cfi_offset 4, -24
 2397              		.cfi_offset 5, -20
 2398              		.cfi_offset 6, -16
 2399              		.cfi_offset 7, -12
 2400              		.cfi_offset 8, -8
 2401              		.cfi_offset 14, -4
 2402 0004 84B0     		sub	sp, sp, #16
 2403              	.LCFI41:
 2404              		.cfi_def_cfa_offset 40
 421:Drivers/lvgl/src/misc/lv_text.c ****     if(font == NULL) return 0;
 2405              		.loc 1 421 5 is_stmt 1 view .LVU765
 421:Drivers/lvgl/src/misc/lv_text.c ****     if(font == NULL) return 0;
 2406              		.loc 1 421 7 is_stmt 0 view .LVU766
 2407 0006 0028     		cmp	r0, #0
 2408 0008 36D0     		beq	.L193
 2409 000a 0F46     		mov	r7, r1
 2410 000c 9046     		mov	r8, r2
 2411 000e 1D46     		mov	r5, r3
 2412 0010 0646     		mov	r6, r0
 422:Drivers/lvgl/src/misc/lv_text.c ****     if(txt[0] == '\0') return 0;
 2413              		.loc 1 422 5 is_stmt 1 view .LVU767
 422:Drivers/lvgl/src/misc/lv_text.c ****     if(txt[0] == '\0') return 0;
 2414              		.loc 1 422 7 is_stmt 0 view .LVU768
 2415 0012 002A     		cmp	r2, #0
 2416 0014 32D0     		beq	.L194
 423:Drivers/lvgl/src/misc/lv_text.c **** 
 2417              		.loc 1 423 5 is_stmt 1 view .LVU769
 423:Drivers/lvgl/src/misc/lv_text.c **** 
 2418              		.loc 1 423 11 is_stmt 0 view .LVU770
 2419 0016 0378     		ldrb	r3, [r0]	@ zero_extendqisi2
 2420              	.LVL263:
 423:Drivers/lvgl/src/misc/lv_text.c **** 
 2421              		.loc 1 423 7 view .LVU771
 2422 0018 93B3     		cbz	r3, .L195
 425:Drivers/lvgl/src/misc/lv_text.c ****     int32_t width             = 0;
 2423              		.loc 1 425 5 is_stmt 1 view .LVU772
 425:Drivers/lvgl/src/misc/lv_text.c ****     int32_t width             = 0;
 2424              		.loc 1 425 14 is_stmt 0 view .LVU773
 2425 001a 0023     		movs	r3, #0
 2426 001c 0393     		str	r3, [sp, #12]
 426:Drivers/lvgl/src/misc/lv_text.c ****     lv_text_cmd_state_t cmd_state = LV_TEXT_CMD_STATE_WAIT;
 2427              		.loc 1 426 5 is_stmt 1 view .LVU774
ARM GAS  /var/folders/qx/2_175_4n2s19vhvtspjhb3qh0000gn/T//ccc2Jk7F.s 			page 73


 2428              	.LVL264:
 427:Drivers/lvgl/src/misc/lv_text.c **** 
 2429              		.loc 1 427 5 view .LVU775
 427:Drivers/lvgl/src/misc/lv_text.c **** 
 2430              		.loc 1 427 25 is_stmt 0 view .LVU776
 2431 001e 8DF80B30 		strb	r3, [sp, #11]
 429:Drivers/lvgl/src/misc/lv_text.c ****         while(txt[i] != '\0' && i < length) {
 2432              		.loc 1 429 5 is_stmt 1 view .LVU777
 429:Drivers/lvgl/src/misc/lv_text.c ****         while(txt[i] != '\0' && i < length) {
 2433              		.loc 1 429 7 is_stmt 0 view .LVU778
 2434 0022 11BB     		cbnz	r1, .L196
 426:Drivers/lvgl/src/misc/lv_text.c ****     lv_text_cmd_state_t cmd_state = LV_TEXT_CMD_STATE_WAIT;
 2435              		.loc 1 426 13 view .LVU779
 2436 0024 1C46     		mov	r4, r3
 2437 0026 2CE0     		b	.L185
 2438              	.LVL265:
 2439              	.L188:
 2440              	.LBB21:
 443:Drivers/lvgl/src/misc/lv_text.c ****             if(char_width > 0) {
 2441              		.loc 1 443 13 is_stmt 1 view .LVU780
 443:Drivers/lvgl/src/misc/lv_text.c ****             if(char_width > 0) {
 2442              		.loc 1 443 34 is_stmt 0 view .LVU781
 2443 0028 019A     		ldr	r2, [sp, #4]
 2444 002a 0099     		ldr	r1, [sp]
 2445 002c 4046     		mov	r0, r8
 2446 002e FFF7FEFF 		bl	lv_font_get_glyph_width
 2447              	.LVL266:
 444:Drivers/lvgl/src/misc/lv_text.c ****                 width += char_width;
 2448              		.loc 1 444 13 is_stmt 1 view .LVU782
 444:Drivers/lvgl/src/misc/lv_text.c ****                 width += char_width;
 2449              		.loc 1 444 15 is_stmt 0 view .LVU783
 2450 0032 0028     		cmp	r0, #0
 444:Drivers/lvgl/src/misc/lv_text.c ****                 width += char_width;
 2451              		.loc 1 444 15 view .LVU784
 2452 0034 02DD     		ble	.L187
 445:Drivers/lvgl/src/misc/lv_text.c ****                 width += attributes->letter_space;
 2453              		.loc 1 445 17 is_stmt 1 view .LVU785
 445:Drivers/lvgl/src/misc/lv_text.c ****                 width += attributes->letter_space;
 2454              		.loc 1 445 23 is_stmt 0 view .LVU786
 2455 0036 2044     		add	r0, r0, r4
 2456              	.LVL267:
 446:Drivers/lvgl/src/misc/lv_text.c ****             }
 2457              		.loc 1 446 17 is_stmt 1 view .LVU787
 446:Drivers/lvgl/src/misc/lv_text.c ****             }
 2458              		.loc 1 446 36 is_stmt 0 view .LVU788
 2459 0038 2C68     		ldr	r4, [r5]
 446:Drivers/lvgl/src/misc/lv_text.c ****             }
 2460              		.loc 1 446 23 view .LVU789
 2461 003a 0444     		add	r4, r4, r0
 2462              	.LVL268:
 2463              	.L187:
 446:Drivers/lvgl/src/misc/lv_text.c ****             }
 2464              		.loc 1 446 23 view .LVU790
 2465              	.LBE21:
 430:Drivers/lvgl/src/misc/lv_text.c **** 
 2466              		.loc 1 430 30 is_stmt 1 view .LVU791
 430:Drivers/lvgl/src/misc/lv_text.c **** 
ARM GAS  /var/folders/qx/2_175_4n2s19vhvtspjhb3qh0000gn/T//ccc2Jk7F.s 			page 74


 2467              		.loc 1 430 18 is_stmt 0 view .LVU792
 2468 003c 039B     		ldr	r3, [sp, #12]
 2469 003e F25C     		ldrb	r2, [r6, r3]	@ zero_extendqisi2
 430:Drivers/lvgl/src/misc/lv_text.c **** 
 2470              		.loc 1 430 30 view .LVU793
 2471 0040 AAB1     		cbz	r2, .L191
 430:Drivers/lvgl/src/misc/lv_text.c **** 
 2472              		.loc 1 430 30 discriminator 1 view .LVU794
 2473 0042 BB42     		cmp	r3, r7
 2474 0044 13D2     		bcs	.L191
 2475              	.LBB22:
 432:Drivers/lvgl/src/misc/lv_text.c ****             uint32_t letter_next;
 2476              		.loc 1 432 13 is_stmt 1 view .LVU795
 433:Drivers/lvgl/src/misc/lv_text.c **** 
 2477              		.loc 1 433 13 view .LVU796
 435:Drivers/lvgl/src/misc/lv_text.c **** 
 2478              		.loc 1 435 13 view .LVU797
 2479 0046 03AB     		add	r3, sp, #12
 2480 0048 01AA     		add	r2, sp, #4
 2481 004a 6946     		mov	r1, sp
 2482 004c 3046     		mov	r0, r6
 2483 004e FFF7FEFF 		bl	lv_text_encoded_letter_next_2
 2484              	.LVL269:
 437:Drivers/lvgl/src/misc/lv_text.c ****                 if(lv_text_is_cmd(&cmd_state, letter) != false) {
 2485              		.loc 1 437 13 view .LVU798
 437:Drivers/lvgl/src/misc/lv_text.c ****                 if(lv_text_is_cmd(&cmd_state, letter) != false) {
 2486              		.loc 1 437 27 is_stmt 0 view .LVU799
 2487 0052 2B7B     		ldrb	r3, [r5, #12]	@ zero_extendqisi2
 437:Drivers/lvgl/src/misc/lv_text.c ****                 if(lv_text_is_cmd(&cmd_state, letter) != false) {
 2488              		.loc 1 437 15 view .LVU800
 2489 0054 13F0080F 		tst	r3, #8
 2490 0058 E6D0     		beq	.L188
 438:Drivers/lvgl/src/misc/lv_text.c ****                     continue;
 2491              		.loc 1 438 17 is_stmt 1 view .LVU801
 438:Drivers/lvgl/src/misc/lv_text.c ****                     continue;
 2492              		.loc 1 438 20 is_stmt 0 view .LVU802
 2493 005a 0099     		ldr	r1, [sp]
 2494 005c 0DF10B00 		add	r0, sp, #11
 2495 0060 FFF7FEFF 		bl	lv_text_is_cmd
 2496              	.LVL270:
 438:Drivers/lvgl/src/misc/lv_text.c ****                     continue;
 2497              		.loc 1 438 19 discriminator 1 view .LVU803
 2498 0064 0028     		cmp	r0, #0
 2499 0066 DFD0     		beq	.L188
 2500 0068 E8E7     		b	.L187
 2501              	.LVL271:
 2502              	.L196:
 438:Drivers/lvgl/src/misc/lv_text.c ****                     continue;
 2503              		.loc 1 438 19 discriminator 1 view .LVU804
 2504              	.LBE22:
 426:Drivers/lvgl/src/misc/lv_text.c ****     lv_text_cmd_state_t cmd_state = LV_TEXT_CMD_STATE_WAIT;
 2505              		.loc 1 426 13 view .LVU805
 2506 006a 0024     		movs	r4, #0
 2507 006c E6E7     		b	.L187
 2508              	.LVL272:
 2509              	.L191:
 450:Drivers/lvgl/src/misc/lv_text.c ****             width -= attributes->letter_space; /*Trim the last letter space. Important if the text 
ARM GAS  /var/folders/qx/2_175_4n2s19vhvtspjhb3qh0000gn/T//ccc2Jk7F.s 			page 75


 2510              		.loc 1 450 9 is_stmt 1 view .LVU806
 450:Drivers/lvgl/src/misc/lv_text.c ****             width -= attributes->letter_space; /*Trim the last letter space. Important if the text 
 2511              		.loc 1 450 11 is_stmt 0 view .LVU807
 2512 006e 002C     		cmp	r4, #0
 2513 0070 07DD     		ble	.L185
 451:Drivers/lvgl/src/misc/lv_text.c ****                                       aligned*/
 2514              		.loc 1 451 13 is_stmt 1 view .LVU808
 451:Drivers/lvgl/src/misc/lv_text.c ****                                       aligned*/
 2515              		.loc 1 451 32 is_stmt 0 view .LVU809
 2516 0072 2B68     		ldr	r3, [r5]
 451:Drivers/lvgl/src/misc/lv_text.c ****                                       aligned*/
 2517              		.loc 1 451 19 view .LVU810
 2518 0074 E41A     		subs	r4, r4, r3
 2519              	.LVL273:
 451:Drivers/lvgl/src/misc/lv_text.c ****                                       aligned*/
 2520              		.loc 1 451 19 view .LVU811
 2521 0076 04E0     		b	.L185
 2522              	.LVL274:
 2523              	.L193:
 421:Drivers/lvgl/src/misc/lv_text.c ****     if(font == NULL) return 0;
 2524              		.loc 1 421 28 discriminator 1 view .LVU812
 2525 0078 0024     		movs	r4, #0
 2526 007a 02E0     		b	.L185
 2527              	.L194:
 422:Drivers/lvgl/src/misc/lv_text.c ****     if(txt[0] == '\0') return 0;
 2528              		.loc 1 422 29 discriminator 1 view .LVU813
 2529 007c 0024     		movs	r4, #0
 2530 007e 00E0     		b	.L185
 2531              	.LVL275:
 2532              	.L195:
 423:Drivers/lvgl/src/misc/lv_text.c **** 
 2533              		.loc 1 423 31 discriminator 1 view .LVU814
 2534 0080 0024     		movs	r4, #0
 2535              	.LVL276:
 2536              	.L185:
 457:Drivers/lvgl/src/misc/lv_text.c **** 
 2537              		.loc 1 457 1 view .LVU815
 2538 0082 2046     		mov	r0, r4
 2539 0084 04B0     		add	sp, sp, #16
 2540              	.LCFI42:
 2541              		.cfi_def_cfa_offset 24
 2542              		@ sp needed
 2543 0086 BDE8F081 		pop	{r4, r5, r6, r7, r8, pc}
 2544              		.cfi_endproc
 2545              	.LFE40:
 2547              		.section	.text.lv_text_get_size_attributes,"ax",%progbits
 2548              		.align	1
 2549              		.global	lv_text_get_size_attributes
 2550              		.syntax unified
 2551              		.thumb
 2552              		.thumb_func
 2554              	lv_text_get_size_attributes:
 2555              	.LVL277:
 2556              	.LFB36:
 110:Drivers/lvgl/src/misc/lv_text.c ****     uint32_t line_start     = 0;
 2557              		.loc 1 110 1 is_stmt 1 view -0
 2558              		.cfi_startproc
ARM GAS  /var/folders/qx/2_175_4n2s19vhvtspjhb3qh0000gn/T//ccc2Jk7F.s 			page 76


 2559              		@ args = 0, pretend = 0, frame = 0
 2560              		@ frame_needed = 0, uses_anonymous_args = 0
 110:Drivers/lvgl/src/misc/lv_text.c ****     uint32_t line_start     = 0;
 2561              		.loc 1 110 1 is_stmt 0 view .LVU817
 2562 0000 2DE9F047 		push	{r4, r5, r6, r7, r8, r9, r10, lr}
 2563              	.LCFI43:
 2564              		.cfi_def_cfa_offset 32
 2565              		.cfi_offset 4, -32
 2566              		.cfi_offset 5, -28
 2567              		.cfi_offset 6, -24
 2568              		.cfi_offset 7, -20
 2569              		.cfi_offset 8, -16
 2570              		.cfi_offset 9, -12
 2571              		.cfi_offset 10, -8
 2572              		.cfi_offset 14, -4
 2573 0004 82B0     		sub	sp, sp, #8
 2574              	.LCFI44:
 2575              		.cfi_def_cfa_offset 40
 2576 0006 9046     		mov	r8, r2
 111:Drivers/lvgl/src/misc/lv_text.c ****     uint32_t new_line_start = 0;
 2577              		.loc 1 111 5 is_stmt 1 view .LVU818
 2578              	.LVL278:
 112:Drivers/lvgl/src/misc/lv_text.c ****     uint16_t letter_height  = 0;
 2579              		.loc 1 112 5 view .LVU819
 113:Drivers/lvgl/src/misc/lv_text.c ****     size_res->x = 0;
 2580              		.loc 1 113 5 view .LVU820
 114:Drivers/lvgl/src/misc/lv_text.c ****     size_res->y = 0;
 2581              		.loc 1 114 5 view .LVU821
 114:Drivers/lvgl/src/misc/lv_text.c ****     size_res->y = 0;
 2582              		.loc 1 114 17 is_stmt 0 view .LVU822
 2583 0008 0022     		movs	r2, #0
 2584              	.LVL279:
 114:Drivers/lvgl/src/misc/lv_text.c ****     size_res->y = 0;
 2585              		.loc 1 114 17 view .LVU823
 2586 000a 0260     		str	r2, [r0]
 115:Drivers/lvgl/src/misc/lv_text.c **** 
 2587              		.loc 1 115 5 is_stmt 1 view .LVU824
 115:Drivers/lvgl/src/misc/lv_text.c **** 
 2588              		.loc 1 115 17 is_stmt 0 view .LVU825
 2589 000c 4260     		str	r2, [r0, #4]
 117:Drivers/lvgl/src/misc/lv_text.c ****     LV_ASSERT_NULL(font);
 2590              		.loc 1 117 5 is_stmt 1 view .LVU826
 117:Drivers/lvgl/src/misc/lv_text.c ****     LV_ASSERT_NULL(font);
 2591              		.loc 1 117 5 view .LVU827
 2592 000e 002B     		cmp	r3, #0
 2593 0010 3AD0     		beq	.L200
 2594 0012 0446     		mov	r4, r0
 2595 0014 0F46     		mov	r7, r1
 2596 0016 1D46     		mov	r5, r3
 117:Drivers/lvgl/src/misc/lv_text.c ****     LV_ASSERT_NULL(font);
 2597              		.loc 1 117 5 view .LVU828
 117:Drivers/lvgl/src/misc/lv_text.c ****     LV_ASSERT_NULL(font);
 2598              		.loc 1 117 31 view .LVU829
 118:Drivers/lvgl/src/misc/lv_text.c ****     LV_ASSERT_NULL(text);
 2599              		.loc 1 118 5 view .LVU830
 118:Drivers/lvgl/src/misc/lv_text.c ****     LV_ASSERT_NULL(text);
 2600              		.loc 1 118 5 view .LVU831
ARM GAS  /var/folders/qx/2_175_4n2s19vhvtspjhb3qh0000gn/T//ccc2Jk7F.s 			page 77


 2601 0018 B8F1000F 		cmp	r8, #0
 2602 001c 35D0     		beq	.L202
 118:Drivers/lvgl/src/misc/lv_text.c ****     LV_ASSERT_NULL(text);
 2603              		.loc 1 118 5 view .LVU832
 118:Drivers/lvgl/src/misc/lv_text.c ****     LV_ASSERT_NULL(text);
 2604              		.loc 1 118 25 view .LVU833
 119:Drivers/lvgl/src/misc/lv_text.c **** 
 2605              		.loc 1 119 5 view .LVU834
 119:Drivers/lvgl/src/misc/lv_text.c **** 
 2606              		.loc 1 119 5 view .LVU835
 2607 001e A9B3     		cbz	r1, .L204
 119:Drivers/lvgl/src/misc/lv_text.c **** 
 2608              		.loc 1 119 5 view .LVU836
 119:Drivers/lvgl/src/misc/lv_text.c **** 
 2609              		.loc 1 119 25 view .LVU837
 121:Drivers/lvgl/src/misc/lv_text.c **** 
 2610              		.loc 1 121 5 view .LVU838
 121:Drivers/lvgl/src/misc/lv_text.c **** 
 2611              		.loc 1 121 21 is_stmt 0 view .LVU839
 2612 0020 4046     		mov	r0, r8
 2613              	.LVL280:
 121:Drivers/lvgl/src/misc/lv_text.c **** 
 2614              		.loc 1 121 21 view .LVU840
 2615 0022 FFF7FEFF 		bl	lv_font_get_line_height
 2616              	.LVL281:
 121:Drivers/lvgl/src/misc/lv_text.c **** 
 2617              		.loc 1 121 21 view .LVU841
 2618 0026 8246     		mov	r10, r0
 2619              	.LVL282:
 123:Drivers/lvgl/src/misc/lv_text.c ****         attributes->max_width = LV_COORD_MAX;
 2620              		.loc 1 123 5 is_stmt 1 view .LVU842
 123:Drivers/lvgl/src/misc/lv_text.c ****         attributes->max_width = LV_COORD_MAX;
 2621              		.loc 1 123 18 is_stmt 0 view .LVU843
 2622 0028 2B7B     		ldrb	r3, [r5, #12]	@ zero_extendqisi2
 123:Drivers/lvgl/src/misc/lv_text.c ****         attributes->max_width = LV_COORD_MAX;
 2623              		.loc 1 123 7 view .LVU844
 2624 002a 13F0010F 		tst	r3, #1
 2625 002e 02D0     		beq	.L205
 124:Drivers/lvgl/src/misc/lv_text.c ****     }
 2626              		.loc 1 124 9 is_stmt 1 view .LVU845
 124:Drivers/lvgl/src/misc/lv_text.c ****     }
 2627              		.loc 1 124 31 is_stmt 0 view .LVU846
 2628 0030 6FF06043 		mvn	r3, #-536870912
 2629 0034 AB60     		str	r3, [r5, #8]
 2630              	.L205:
 110:Drivers/lvgl/src/misc/lv_text.c ****     uint32_t line_start     = 0;
 2631              		.loc 1 110 1 view .LVU847
 2632 0036 0026     		movs	r6, #0
 2633              	.LVL283:
 2634              	.L207:
 128:Drivers/lvgl/src/misc/lv_text.c ****         new_line_start += lv_text_get_next_line(
 2635              		.loc 1 128 28 is_stmt 1 view .LVU848
 128:Drivers/lvgl/src/misc/lv_text.c ****         new_line_start += lv_text_get_next_line(
 2636              		.loc 1 128 15 is_stmt 0 view .LVU849
 2637 0038 07EB0609 		add	r9, r7, r6
 2638 003c BB5D     		ldrb	r3, [r7, r6]	@ zero_extendqisi2
 128:Drivers/lvgl/src/misc/lv_text.c ****         new_line_start += lv_text_get_next_line(
ARM GAS  /var/folders/qx/2_175_4n2s19vhvtspjhb3qh0000gn/T//ccc2Jk7F.s 			page 78


 2639              		.loc 1 128 28 view .LVU850
 2640 003e 33B3     		cbz	r3, .L213
 2641              	.LBB23:
 129:Drivers/lvgl/src/misc/lv_text.c ****                               &text[line_start], LV_TEXT_LEN_MAX, font, NULL, attributes);
 2642              		.loc 1 129 9 is_stmt 1 view .LVU851
 129:Drivers/lvgl/src/misc/lv_text.c ****                               &text[line_start], LV_TEXT_LEN_MAX, font, NULL, attributes);
 2643              		.loc 1 129 27 is_stmt 0 view .LVU852
 2644 0040 0095     		str	r5, [sp]
 2645 0042 0023     		movs	r3, #0
 2646 0044 4246     		mov	r2, r8
 2647 0046 4FF0FF31 		mov	r1, #-1
 2648 004a 4846     		mov	r0, r9
 2649 004c FFF7FEFF 		bl	lv_text_get_next_line
 2650              	.LVL284:
 2651 0050 0146     		mov	r1, r0
 129:Drivers/lvgl/src/misc/lv_text.c ****                               &text[line_start], LV_TEXT_LEN_MAX, font, NULL, attributes);
 2652              		.loc 1 129 24 discriminator 1 view .LVU853
 2653 0052 0644     		add	r6, r6, r0
 2654              	.LVL285:
 132:Drivers/lvgl/src/misc/lv_text.c ****            (unsigned long)letter_height + (unsigned long)attributes->line_space > LV_MAX_OF(int32_t
 2655              		.loc 1 132 9 is_stmt 1 view .LVU854
 132:Drivers/lvgl/src/misc/lv_text.c ****            (unsigned long)letter_height + (unsigned long)attributes->line_space > LV_MAX_OF(int32_t
 2656              		.loc 1 132 35 is_stmt 0 view .LVU855
 2657 0054 6368     		ldr	r3, [r4, #4]
 2658 0056 1FFA8AF2 		uxth	r2, r10
 132:Drivers/lvgl/src/misc/lv_text.c ****            (unsigned long)letter_height + (unsigned long)attributes->line_space > LV_MAX_OF(int32_t
 2659              		.loc 1 132 39 view .LVU856
 2660 005a 03EB020C 		add	ip, r3, r2
 133:Drivers/lvgl/src/misc/lv_text.c ****             LV_LOG_WARN("integer overflow while calculating text height");
 2661              		.loc 1 133 68 view .LVU857
 2662 005e 6868     		ldr	r0, [r5, #4]
 132:Drivers/lvgl/src/misc/lv_text.c ****            (unsigned long)letter_height + (unsigned long)attributes->line_space > LV_MAX_OF(int32_t
 2663              		.loc 1 132 11 view .LVU858
 2664 0060 1CEB000F 		cmn	ip, r0
 2665 0064 25D4     		bmi	.L198
 138:Drivers/lvgl/src/misc/lv_text.c ****             size_res->y += attributes->line_space;
 2666              		.loc 1 138 13 is_stmt 1 view .LVU859
 138:Drivers/lvgl/src/misc/lv_text.c ****             size_res->y += attributes->line_space;
 2667              		.loc 1 138 25 is_stmt 0 view .LVU860
 2668 0066 6346     		mov	r3, ip
 2669 0068 C4F804C0 		str	ip, [r4, #4]
 139:Drivers/lvgl/src/misc/lv_text.c ****         }
 2670              		.loc 1 139 13 is_stmt 1 view .LVU861
 139:Drivers/lvgl/src/misc/lv_text.c ****         }
 2671              		.loc 1 139 38 is_stmt 0 view .LVU862
 2672 006c 6A68     		ldr	r2, [r5, #4]
 139:Drivers/lvgl/src/misc/lv_text.c ****         }
 2673              		.loc 1 139 25 view .LVU863
 2674 006e 1344     		add	r3, r3, r2
 2675 0070 6360     		str	r3, [r4, #4]
 143:Drivers/lvgl/src/misc/lv_text.c ****                                       &text[line_start], new_line_start - line_start, font, attribu
 2676              		.loc 1 143 9 is_stmt 1 view .LVU864
 143:Drivers/lvgl/src/misc/lv_text.c ****                                       &text[line_start], new_line_start - line_start, font, attribu
 2677              		.loc 1 143 35 is_stmt 0 view .LVU865
 2678 0072 2B46     		mov	r3, r5
 2679 0074 4246     		mov	r2, r8
 2680 0076 4846     		mov	r0, r9
ARM GAS  /var/folders/qx/2_175_4n2s19vhvtspjhb3qh0000gn/T//ccc2Jk7F.s 			page 79


 2681 0078 FFF7FEFF 		bl	lv_text_get_width
 2682              	.LVL286:
 146:Drivers/lvgl/src/misc/lv_text.c ****         line_start  = new_line_start;
 2683              		.loc 1 146 9 is_stmt 1 view .LVU866
 146:Drivers/lvgl/src/misc/lv_text.c ****         line_start  = new_line_start;
 2684              		.loc 1 146 23 is_stmt 0 view .LVU867
 2685 007c 2368     		ldr	r3, [r4]
 2686 007e 9842     		cmp	r0, r3
 2687 0080 B8BF     		it	lt
 2688 0082 1846     		movlt	r0, r3
 2689              	.LVL287:
 146:Drivers/lvgl/src/misc/lv_text.c ****         line_start  = new_line_start;
 2690              		.loc 1 146 21 view .LVU868
 2691 0084 2060     		str	r0, [r4]
 147:Drivers/lvgl/src/misc/lv_text.c ****     }
 2692              		.loc 1 147 9 is_stmt 1 view .LVU869
 2693              	.LVL288:
 147:Drivers/lvgl/src/misc/lv_text.c ****     }
 2694              		.loc 1 147 9 is_stmt 0 view .LVU870
 2695 0086 D7E7     		b	.L207
 2696              	.LVL289:
 2697              	.L200:
 147:Drivers/lvgl/src/misc/lv_text.c ****     }
 2698              		.loc 1 147 9 view .LVU871
 2699              	.LBE23:
 117:Drivers/lvgl/src/misc/lv_text.c ****     LV_ASSERT_NULL(font);
 2700              		.loc 1 117 5 is_stmt 1 view .LVU872
 117:Drivers/lvgl/src/misc/lv_text.c ****     LV_ASSERT_NULL(font);
 2701              		.loc 1 117 5 view .LVU873
 117:Drivers/lvgl/src/misc/lv_text.c ****     LV_ASSERT_NULL(font);
 2702              		.loc 1 117 5 view .LVU874
 117:Drivers/lvgl/src/misc/lv_text.c ****     LV_ASSERT_NULL(font);
 2703              		.loc 1 117 5 view .LVU875
 117:Drivers/lvgl/src/misc/lv_text.c ****     LV_ASSERT_NULL(font);
 2704              		.loc 1 117 5 view .LVU876
 2705 0088 FEE7     		b	.L200
 2706              	.L202:
 118:Drivers/lvgl/src/misc/lv_text.c ****     LV_ASSERT_NULL(text);
 2707              		.loc 1 118 5 view .LVU877
 118:Drivers/lvgl/src/misc/lv_text.c ****     LV_ASSERT_NULL(text);
 2708              		.loc 1 118 5 view .LVU878
 118:Drivers/lvgl/src/misc/lv_text.c ****     LV_ASSERT_NULL(text);
 2709              		.loc 1 118 5 view .LVU879
 118:Drivers/lvgl/src/misc/lv_text.c ****     LV_ASSERT_NULL(text);
 2710              		.loc 1 118 5 view .LVU880
 118:Drivers/lvgl/src/misc/lv_text.c ****     LV_ASSERT_NULL(text);
 2711              		.loc 1 118 5 view .LVU881
 2712 008a FEE7     		b	.L202
 2713              	.L204:
 119:Drivers/lvgl/src/misc/lv_text.c **** 
 2714              		.loc 1 119 5 view .LVU882
 119:Drivers/lvgl/src/misc/lv_text.c **** 
 2715              		.loc 1 119 5 view .LVU883
 119:Drivers/lvgl/src/misc/lv_text.c **** 
 2716              		.loc 1 119 5 view .LVU884
 119:Drivers/lvgl/src/misc/lv_text.c **** 
 2717              		.loc 1 119 5 view .LVU885
ARM GAS  /var/folders/qx/2_175_4n2s19vhvtspjhb3qh0000gn/T//ccc2Jk7F.s 			page 80


 119:Drivers/lvgl/src/misc/lv_text.c **** 
 2718              		.loc 1 119 5 view .LVU886
 2719 008c FEE7     		b	.L204
 2720              	.LVL290:
 2721              	.L213:
 151:Drivers/lvgl/src/misc/lv_text.c ****         size_res->y += letter_height + attributes->line_space;
 2722              		.loc 1 151 5 view .LVU887
 151:Drivers/lvgl/src/misc/lv_text.c ****         size_res->y += letter_height + attributes->line_space;
 2723              		.loc 1 151 7 is_stmt 0 view .LVU888
 2724 008e 5EB1     		cbz	r6, .L209
 151:Drivers/lvgl/src/misc/lv_text.c ****         size_res->y += letter_height + attributes->line_space;
 2725              		.loc 1 151 34 discriminator 1 view .LVU889
 2726 0090 19F8013C 		ldrb	r3, [r9, #-1]	@ zero_extendqisi2
 151:Drivers/lvgl/src/misc/lv_text.c ****         size_res->y += letter_height + attributes->line_space;
 2727              		.loc 1 151 26 discriminator 1 view .LVU890
 2728 0094 0A2B     		cmp	r3, #10
 2729 0096 01D0     		beq	.L210
 151:Drivers/lvgl/src/misc/lv_text.c ****         size_res->y += letter_height + attributes->line_space;
 2730              		.loc 1 151 59 discriminator 2 view .LVU891
 2731 0098 0D2B     		cmp	r3, #13
 2732 009a 05D1     		bne	.L209
 2733              	.L210:
 152:Drivers/lvgl/src/misc/lv_text.c ****     }
 2734              		.loc 1 152 9 is_stmt 1 view .LVU892
 152:Drivers/lvgl/src/misc/lv_text.c ****     }
 2735              		.loc 1 152 17 is_stmt 0 view .LVU893
 2736 009c 6368     		ldr	r3, [r4, #4]
 152:Drivers/lvgl/src/misc/lv_text.c ****     }
 2737              		.loc 1 152 50 view .LVU894
 2738 009e 6A68     		ldr	r2, [r5, #4]
 152:Drivers/lvgl/src/misc/lv_text.c ****     }
 2739              		.loc 1 152 38 view .LVU895
 2740 00a0 12FA8AF2 		uxtah	r2, r2, r10
 152:Drivers/lvgl/src/misc/lv_text.c ****     }
 2741              		.loc 1 152 21 view .LVU896
 2742 00a4 1344     		add	r3, r3, r2
 2743 00a6 6360     		str	r3, [r4, #4]
 2744              	.L209:
 156:Drivers/lvgl/src/misc/lv_text.c ****         size_res->y = letter_height;
 2745              		.loc 1 156 5 is_stmt 1 view .LVU897
 156:Drivers/lvgl/src/misc/lv_text.c ****         size_res->y = letter_height;
 2746              		.loc 1 156 16 is_stmt 0 view .LVU898
 2747 00a8 6368     		ldr	r3, [r4, #4]
 156:Drivers/lvgl/src/misc/lv_text.c ****         size_res->y = letter_height;
 2748              		.loc 1 156 7 view .LVU899
 2749 00aa 2BB9     		cbnz	r3, .L211
 157:Drivers/lvgl/src/misc/lv_text.c ****     else
 2750              		.loc 1 157 9 is_stmt 1 view .LVU900
 157:Drivers/lvgl/src/misc/lv_text.c ****     else
 2751              		.loc 1 157 21 is_stmt 0 view .LVU901
 2752 00ac 1FFA8AF3 		uxth	r3, r10
 2753 00b0 6360     		str	r3, [r4, #4]
 2754              	.LVL291:
 2755              	.L198:
 160:Drivers/lvgl/src/misc/lv_text.c **** 
 2756              		.loc 1 160 1 view .LVU902
 2757 00b2 02B0     		add	sp, sp, #8
ARM GAS  /var/folders/qx/2_175_4n2s19vhvtspjhb3qh0000gn/T//ccc2Jk7F.s 			page 81


 2758              	.LCFI45:
 2759              		.cfi_remember_state
 2760              		.cfi_def_cfa_offset 32
 2761              		@ sp needed
 2762 00b4 BDE8F087 		pop	{r4, r5, r6, r7, r8, r9, r10, pc}
 2763              	.LVL292:
 2764              	.L211:
 2765              	.LCFI46:
 2766              		.cfi_restore_state
 159:Drivers/lvgl/src/misc/lv_text.c **** }
 2767              		.loc 1 159 9 is_stmt 1 view .LVU903
 159:Drivers/lvgl/src/misc/lv_text.c **** }
 2768              		.loc 1 159 34 is_stmt 0 view .LVU904
 2769 00b8 6A68     		ldr	r2, [r5, #4]
 159:Drivers/lvgl/src/misc/lv_text.c **** }
 2770              		.loc 1 159 21 view .LVU905
 2771 00ba 9B1A     		subs	r3, r3, r2
 2772 00bc 6360     		str	r3, [r4, #4]
 2773 00be F8E7     		b	.L198
 2774              		.cfi_endproc
 2775              	.LFE36:
 2777              		.section	.text.lv_text_get_size,"ax",%progbits
 2778              		.align	1
 2779              		.global	lv_text_get_size
 2780              		.syntax unified
 2781              		.thumb
 2782              		.thumb_func
 2784              	lv_text_get_size:
 2785              	.LVL293:
 2786              	.LFB35:
  98:Drivers/lvgl/src/misc/lv_text.c ****     lv_text_attributes_t attrs;
 2787              		.loc 1 98 1 is_stmt 1 view -0
 2788              		.cfi_startproc
 2789              		@ args = 12, pretend = 0, frame = 16
 2790              		@ frame_needed = 0, uses_anonymous_args = 0
  98:Drivers/lvgl/src/misc/lv_text.c ****     lv_text_attributes_t attrs;
 2791              		.loc 1 98 1 is_stmt 0 view .LVU907
 2792 0000 2DE9F041 		push	{r4, r5, r6, r7, r8, lr}
 2793              	.LCFI47:
 2794              		.cfi_def_cfa_offset 24
 2795              		.cfi_offset 4, -24
 2796              		.cfi_offset 5, -20
 2797              		.cfi_offset 6, -16
 2798              		.cfi_offset 7, -12
 2799              		.cfi_offset 8, -8
 2800              		.cfi_offset 14, -4
 2801 0004 84B0     		sub	sp, sp, #16
 2802              	.LCFI48:
 2803              		.cfi_def_cfa_offset 40
 2804 0006 0446     		mov	r4, r0
 2805 0008 0D46     		mov	r5, r1
 2806 000a 1646     		mov	r6, r2
 2807 000c 1F46     		mov	r7, r3
  99:Drivers/lvgl/src/misc/lv_text.c ****     lv_text_attributes_init(&attrs);
 2808              		.loc 1 99 5 is_stmt 1 view .LVU908
 100:Drivers/lvgl/src/misc/lv_text.c ****     attrs.line_space = line_space;
 2809              		.loc 1 100 5 view .LVU909
ARM GAS  /var/folders/qx/2_175_4n2s19vhvtspjhb3qh0000gn/T//ccc2Jk7F.s 			page 82


 2810 000e 6846     		mov	r0, sp
 2811              	.LVL294:
 100:Drivers/lvgl/src/misc/lv_text.c ****     attrs.line_space = line_space;
 2812              		.loc 1 100 5 is_stmt 0 view .LVU910
 2813 0010 FFF7FEFF 		bl	lv_text_attributes_init
 2814              	.LVL295:
 101:Drivers/lvgl/src/misc/lv_text.c ****     attrs.max_width = max_width;
 2815              		.loc 1 101 5 is_stmt 1 view .LVU911
 101:Drivers/lvgl/src/misc/lv_text.c ****     attrs.max_width = max_width;
 2816              		.loc 1 101 22 is_stmt 0 view .LVU912
 2817 0014 0A9B     		ldr	r3, [sp, #40]
 2818 0016 0193     		str	r3, [sp, #4]
 102:Drivers/lvgl/src/misc/lv_text.c ****     attrs.text_flags = flag;
 2819              		.loc 1 102 5 is_stmt 1 view .LVU913
 102:Drivers/lvgl/src/misc/lv_text.c ****     attrs.text_flags = flag;
 2820              		.loc 1 102 21 is_stmt 0 view .LVU914
 2821 0018 0B9B     		ldr	r3, [sp, #44]
 2822 001a 0293     		str	r3, [sp, #8]
 103:Drivers/lvgl/src/misc/lv_text.c ****     attrs.letter_space = letter_space;
 2823              		.loc 1 103 5 is_stmt 1 view .LVU915
 103:Drivers/lvgl/src/misc/lv_text.c ****     attrs.letter_space = letter_space;
 2824              		.loc 1 103 22 is_stmt 0 view .LVU916
 2825 001c 9DF83030 		ldrb	r3, [sp, #48]	@ zero_extendqisi2
 2826 0020 8DF80C30 		strb	r3, [sp, #12]
 104:Drivers/lvgl/src/misc/lv_text.c ****     lv_text_get_size_attributes(size_res, text, font, &attrs);
 2827              		.loc 1 104 5 is_stmt 1 view .LVU917
 104:Drivers/lvgl/src/misc/lv_text.c ****     lv_text_get_size_attributes(size_res, text, font, &attrs);
 2828              		.loc 1 104 24 is_stmt 0 view .LVU918
 2829 0024 0097     		str	r7, [sp]
 105:Drivers/lvgl/src/misc/lv_text.c **** }
 2830              		.loc 1 105 5 is_stmt 1 view .LVU919
 2831 0026 6B46     		mov	r3, sp
 2832 0028 3246     		mov	r2, r6
 2833 002a 2946     		mov	r1, r5
 2834 002c 2046     		mov	r0, r4
 2835 002e FFF7FEFF 		bl	lv_text_get_size_attributes
 2836              	.LVL296:
 106:Drivers/lvgl/src/misc/lv_text.c **** 
 2837              		.loc 1 106 1 is_stmt 0 view .LVU920
 2838 0032 04B0     		add	sp, sp, #16
 2839              	.LCFI49:
 2840              		.cfi_def_cfa_offset 24
 2841              		@ sp needed
 2842 0034 BDE8F081 		pop	{r4, r5, r6, r7, r8, pc}
 106:Drivers/lvgl/src/misc/lv_text.c **** 
 2843              		.loc 1 106 1 view .LVU921
 2844              		.cfi_endproc
 2845              	.LFE35:
 2847              		.global	lv_text_get_encoded_length
 2848              		.section	.rodata.lv_text_get_encoded_length,"a"
 2849              		.align	2
 2852              	lv_text_get_encoded_length:
 2853 0000 00000000 		.word	lv_text_utf8_get_length
 2854              		.global	lv_text_encoded_get_char_id
 2855              		.section	.rodata.lv_text_encoded_get_char_id,"a"
 2856              		.align	2
 2859              	lv_text_encoded_get_char_id:
ARM GAS  /var/folders/qx/2_175_4n2s19vhvtspjhb3qh0000gn/T//ccc2Jk7F.s 			page 83


 2860 0000 00000000 		.word	lv_text_utf8_get_char_id
 2861              		.global	lv_text_encoded_get_byte_id
 2862              		.section	.rodata.lv_text_encoded_get_byte_id,"a"
 2863              		.align	2
 2866              	lv_text_encoded_get_byte_id:
 2867 0000 00000000 		.word	lv_text_utf8_get_byte_id
 2868              		.global	lv_text_encoded_prev
 2869              		.section	.rodata.lv_text_encoded_prev,"a"
 2870              		.align	2
 2873              	lv_text_encoded_prev:
 2874 0000 00000000 		.word	lv_text_utf8_prev
 2875              		.global	lv_text_encoded_next
 2876              		.section	.rodata.lv_text_encoded_next,"a"
 2877              		.align	2
 2880              	lv_text_encoded_next:
 2881 0000 00000000 		.word	lv_text_utf8_next
 2882              		.global	lv_text_encoded_conv_wc
 2883              		.section	.rodata.lv_text_encoded_conv_wc,"a"
 2884              		.align	2
 2887              	lv_text_encoded_conv_wc:
 2888 0000 00000000 		.word	lv_text_utf8_conv_wc
 2889              		.global	lv_text_unicode_to_encoded
 2890              		.section	.rodata.lv_text_unicode_to_encoded,"a"
 2891              		.align	2
 2894              	lv_text_unicode_to_encoded:
 2895 0000 00000000 		.word	lv_text_unicode_to_utf8
 2896              		.global	lv_text_encoded_size
 2897              		.section	.rodata.lv_text_encoded_size,"a"
 2898              		.align	2
 2901              	lv_text_encoded_size:
 2902 0000 00000000 		.word	lv_text_utf8_size
 2903              		.text
 2904              	.Letext0:
 2905              		.file 4 "/Applications/ArmGNUToolchain/14.3.rel1/arm-none-eabi/arm-none-eabi/include/machine/_defa
 2906              		.file 5 "/Applications/ArmGNUToolchain/14.3.rel1/arm-none-eabi/arm-none-eabi/include/sys/_stdint.h
 2907              		.file 6 "/Applications/ArmGNUToolchain/14.3.rel1/arm-none-eabi/lib/gcc/arm-none-eabi/14.3.1/includ
 2908              		.file 7 "/Applications/ArmGNUToolchain/14.3.rel1/arm-none-eabi/lib/gcc/arm-none-eabi/14.3.1/includ
 2909              		.file 8 "Drivers/lvgl/src/misc/lv_types.h"
 2910              		.file 9 "Drivers/lvgl/src/misc/../font/lv_font.h"
 2911              		.file 10 "Drivers/lvgl/src/misc/../font/../draw/lv_draw_buf.h"
 2912              		.file 11 "Drivers/lvgl/src/misc/lv_area.h"
 2913              		.file 12 "Drivers/lvgl/src/misc/../font/../draw/lv_image_dsc.h"
 2914              		.file 13 "Drivers/lvgl/src/misc/lv_text.h"
 2915              		.file 14 "Drivers/lvgl/src/misc/../font/../draw/../misc/../stdlib/lv_mem.h"
 2916              		.file 15 "Drivers/lvgl/src/misc/../stdlib/lv_sprintf.h"
 2917              		.file 16 "<built-in>"
ARM GAS  /var/folders/qx/2_175_4n2s19vhvtspjhb3qh0000gn/T//ccc2Jk7F.s 			page 84


DEFINED SYMBOLS
                            *ABS*:00000000 lv_text.c
/var/folders/qx/2_175_4n2s19vhvtspjhb3qh0000gn/T//ccc2Jk7F.s:21     .text.lv_text_is_a_word:00000000 $t
/var/folders/qx/2_175_4n2s19vhvtspjhb3qh0000gn/T//ccc2Jk7F.s:26     .text.lv_text_is_a_word:00000000 lv_text_is_a_word
/var/folders/qx/2_175_4n2s19vhvtspjhb3qh0000gn/T//ccc2Jk7F.s:161    .text.lv_text_utf8_size:00000000 $t
/var/folders/qx/2_175_4n2s19vhvtspjhb3qh0000gn/T//ccc2Jk7F.s:166    .text.lv_text_utf8_size:00000000 lv_text_utf8_size
/var/folders/qx/2_175_4n2s19vhvtspjhb3qh0000gn/T//ccc2Jk7F.s:233    .text.lv_text_unicode_to_utf8:00000000 $t
/var/folders/qx/2_175_4n2s19vhvtspjhb3qh0000gn/T//ccc2Jk7F.s:238    .text.lv_text_unicode_to_utf8:00000000 lv_text_unicode_to_utf8
/var/folders/qx/2_175_4n2s19vhvtspjhb3qh0000gn/T//ccc2Jk7F.s:384    .text.lv_text_utf8_next:00000000 $t
/var/folders/qx/2_175_4n2s19vhvtspjhb3qh0000gn/T//ccc2Jk7F.s:389    .text.lv_text_utf8_next:00000000 lv_text_utf8_next
/var/folders/qx/2_175_4n2s19vhvtspjhb3qh0000gn/T//ccc2Jk7F.s:686    .text.lv_text_utf8_prev:00000000 $t
/var/folders/qx/2_175_4n2s19vhvtspjhb3qh0000gn/T//ccc2Jk7F.s:691    .text.lv_text_utf8_prev:00000000 lv_text_utf8_prev
/var/folders/qx/2_175_4n2s19vhvtspjhb3qh0000gn/T//ccc2Jk7F.s:800    .text.lv_text_utf8_get_byte_id:00000000 $t
/var/folders/qx/2_175_4n2s19vhvtspjhb3qh0000gn/T//ccc2Jk7F.s:805    .text.lv_text_utf8_get_byte_id:00000000 lv_text_utf8_get_byte_id
/var/folders/qx/2_175_4n2s19vhvtspjhb3qh0000gn/T//ccc2Jk7F.s:879    .text.lv_text_utf8_get_char_id:00000000 $t
/var/folders/qx/2_175_4n2s19vhvtspjhb3qh0000gn/T//ccc2Jk7F.s:884    .text.lv_text_utf8_get_char_id:00000000 lv_text_utf8_get_char_id
/var/folders/qx/2_175_4n2s19vhvtspjhb3qh0000gn/T//ccc2Jk7F.s:942    .text.lv_text_utf8_get_length:00000000 $t
/var/folders/qx/2_175_4n2s19vhvtspjhb3qh0000gn/T//ccc2Jk7F.s:947    .text.lv_text_utf8_get_length:00000000 lv_text_utf8_get_length
/var/folders/qx/2_175_4n2s19vhvtspjhb3qh0000gn/T//ccc2Jk7F.s:1006   .text.lv_text_utf8_conv_wc:00000000 $t
/var/folders/qx/2_175_4n2s19vhvtspjhb3qh0000gn/T//ccc2Jk7F.s:1011   .text.lv_text_utf8_conv_wc:00000000 lv_text_utf8_conv_wc
/var/folders/qx/2_175_4n2s19vhvtspjhb3qh0000gn/T//ccc2Jk7F.s:1114   .text.lv_text_attributes_init:00000000 $t
/var/folders/qx/2_175_4n2s19vhvtspjhb3qh0000gn/T//ccc2Jk7F.s:1120   .text.lv_text_attributes_init:00000000 lv_text_attributes_init
/var/folders/qx/2_175_4n2s19vhvtspjhb3qh0000gn/T//ccc2Jk7F.s:1154   .text.lv_text_is_cmd:00000000 $t
/var/folders/qx/2_175_4n2s19vhvtspjhb3qh0000gn/T//ccc2Jk7F.s:1160   .text.lv_text_is_cmd:00000000 lv_text_is_cmd
/var/folders/qx/2_175_4n2s19vhvtspjhb3qh0000gn/T//ccc2Jk7F.s:1259   .rodata.lv_text_get_next_word.str1.4:00000000 $d
/var/folders/qx/2_175_4n2s19vhvtspjhb3qh0000gn/T//ccc2Jk7F.s:1263   .text.lv_text_get_next_word:00000000 $t
/var/folders/qx/2_175_4n2s19vhvtspjhb3qh0000gn/T//ccc2Jk7F.s:1268   .text.lv_text_get_next_word:00000000 lv_text_get_next_word
/var/folders/qx/2_175_4n2s19vhvtspjhb3qh0000gn/T//ccc2Jk7F.s:1687   .text.lv_text_get_next_word:00000178 $d
/var/folders/qx/2_175_4n2s19vhvtspjhb3qh0000gn/T//ccc2Jk7F.s:1692   .text.lv_text_get_next_line:00000000 $t
/var/folders/qx/2_175_4n2s19vhvtspjhb3qh0000gn/T//ccc2Jk7F.s:1698   .text.lv_text_get_next_line:00000000 lv_text_get_next_line
/var/folders/qx/2_175_4n2s19vhvtspjhb3qh0000gn/T//ccc2Jk7F.s:2022   .text.lv_text_ins:00000000 $t
/var/folders/qx/2_175_4n2s19vhvtspjhb3qh0000gn/T//ccc2Jk7F.s:2028   .text.lv_text_ins:00000000 lv_text_ins
/var/folders/qx/2_175_4n2s19vhvtspjhb3qh0000gn/T//ccc2Jk7F.s:2133   .text.lv_text_cut:00000000 $t
/var/folders/qx/2_175_4n2s19vhvtspjhb3qh0000gn/T//ccc2Jk7F.s:2139   .text.lv_text_cut:00000000 lv_text_cut
/var/folders/qx/2_175_4n2s19vhvtspjhb3qh0000gn/T//ccc2Jk7F.s:2228   .text.lv_text_set_text_vfmt:00000000 $t
/var/folders/qx/2_175_4n2s19vhvtspjhb3qh0000gn/T//ccc2Jk7F.s:2234   .text.lv_text_set_text_vfmt:00000000 lv_text_set_text_vfmt
/var/folders/qx/2_175_4n2s19vhvtspjhb3qh0000gn/T//ccc2Jk7F.s:2321   .text.lv_text_encoded_letter_next_2:00000000 $t
/var/folders/qx/2_175_4n2s19vhvtspjhb3qh0000gn/T//ccc2Jk7F.s:2327   .text.lv_text_encoded_letter_next_2:00000000 lv_text_encoded_letter_next_2
/var/folders/qx/2_175_4n2s19vhvtspjhb3qh0000gn/T//ccc2Jk7F.s:2379   .text.lv_text_get_width:00000000 $t
/var/folders/qx/2_175_4n2s19vhvtspjhb3qh0000gn/T//ccc2Jk7F.s:2385   .text.lv_text_get_width:00000000 lv_text_get_width
/var/folders/qx/2_175_4n2s19vhvtspjhb3qh0000gn/T//ccc2Jk7F.s:2548   .text.lv_text_get_size_attributes:00000000 $t
/var/folders/qx/2_175_4n2s19vhvtspjhb3qh0000gn/T//ccc2Jk7F.s:2554   .text.lv_text_get_size_attributes:00000000 lv_text_get_size_attributes
/var/folders/qx/2_175_4n2s19vhvtspjhb3qh0000gn/T//ccc2Jk7F.s:2778   .text.lv_text_get_size:00000000 $t
/var/folders/qx/2_175_4n2s19vhvtspjhb3qh0000gn/T//ccc2Jk7F.s:2784   .text.lv_text_get_size:00000000 lv_text_get_size
/var/folders/qx/2_175_4n2s19vhvtspjhb3qh0000gn/T//ccc2Jk7F.s:2852   .rodata.lv_text_get_encoded_length:00000000 lv_text_get_encoded_length
/var/folders/qx/2_175_4n2s19vhvtspjhb3qh0000gn/T//ccc2Jk7F.s:2849   .rodata.lv_text_get_encoded_length:00000000 $d
/var/folders/qx/2_175_4n2s19vhvtspjhb3qh0000gn/T//ccc2Jk7F.s:2859   .rodata.lv_text_encoded_get_char_id:00000000 lv_text_encoded_get_char_id
/var/folders/qx/2_175_4n2s19vhvtspjhb3qh0000gn/T//ccc2Jk7F.s:2856   .rodata.lv_text_encoded_get_char_id:00000000 $d
/var/folders/qx/2_175_4n2s19vhvtspjhb3qh0000gn/T//ccc2Jk7F.s:2866   .rodata.lv_text_encoded_get_byte_id:00000000 lv_text_encoded_get_byte_id
/var/folders/qx/2_175_4n2s19vhvtspjhb3qh0000gn/T//ccc2Jk7F.s:2863   .rodata.lv_text_encoded_get_byte_id:00000000 $d
/var/folders/qx/2_175_4n2s19vhvtspjhb3qh0000gn/T//ccc2Jk7F.s:2873   .rodata.lv_text_encoded_prev:00000000 lv_text_encoded_prev
/var/folders/qx/2_175_4n2s19vhvtspjhb3qh0000gn/T//ccc2Jk7F.s:2870   .rodata.lv_text_encoded_prev:00000000 $d
/var/folders/qx/2_175_4n2s19vhvtspjhb3qh0000gn/T//ccc2Jk7F.s:2880   .rodata.lv_text_encoded_next:00000000 lv_text_encoded_next
/var/folders/qx/2_175_4n2s19vhvtspjhb3qh0000gn/T//ccc2Jk7F.s:2877   .rodata.lv_text_encoded_next:00000000 $d
/var/folders/qx/2_175_4n2s19vhvtspjhb3qh0000gn/T//ccc2Jk7F.s:2887   .rodata.lv_text_encoded_conv_wc:00000000 lv_text_encoded_conv_wc
/var/folders/qx/2_175_4n2s19vhvtspjhb3qh0000gn/T//ccc2Jk7F.s:2884   .rodata.lv_text_encoded_conv_wc:00000000 $d
/var/folders/qx/2_175_4n2s19vhvtspjhb3qh0000gn/T//ccc2Jk7F.s:2894   .rodata.lv_text_unicode_to_encoded:00000000 lv_text_unicode_to_encoded
ARM GAS  /var/folders/qx/2_175_4n2s19vhvtspjhb3qh0000gn/T//ccc2Jk7F.s 			page 85


/var/folders/qx/2_175_4n2s19vhvtspjhb3qh0000gn/T//ccc2Jk7F.s:2891   .rodata.lv_text_unicode_to_encoded:00000000 $d
/var/folders/qx/2_175_4n2s19vhvtspjhb3qh0000gn/T//ccc2Jk7F.s:2901   .rodata.lv_text_encoded_size:00000000 lv_text_encoded_size
/var/folders/qx/2_175_4n2s19vhvtspjhb3qh0000gn/T//ccc2Jk7F.s:2898   .rodata.lv_text_encoded_size:00000000 $d

UNDEFINED SYMBOLS
lv_memcpy
lv_memset
lv_font_get_glyph_width
lv_strlen
lv_vsnprintf
lv_malloc
lv_font_get_line_height
