ARM GAS  /var/folders/qx/2_175_4n2s19vhvtspjhb3qh0000gn/T//cckyXFEd.s 			page 1


   1              		.cpu cortex-m4
   2              		.arch armv7e-m
   3              		.fpu fpv4-sp-d16
   4              		.eabi_attribute 27, 1
   5              		.eabi_attribute 28, 1
   6              		.eabi_attribute 20, 1
   7              		.eabi_attribute 21, 1
   8              		.eabi_attribute 23, 3
   9              		.eabi_attribute 24, 1
  10              		.eabi_attribute 25, 1
  11              		.eabi_attribute 26, 1
  12              		.eabi_attribute 30, 1
  13              		.eabi_attribute 34, 1
  14              		.eabi_attribute 18, 4
  15              		.file	"lv_timer.c"
  16              		.text
  17              	.Ltext0:
  18              		.cfi_sections	.debug_frame
  19              		.file 1 "Drivers/lvgl/src/misc/lv_timer.c"
  20              		.section	.text.lv_timer_handler_resume,"ax",%progbits
  21              		.align	1
  22              		.syntax unified
  23              		.thumb
  24              		.thumb_func
  26              	lv_timer_handler_resume:
  27              	.LFB218:
   1:Drivers/lvgl/src/misc/lv_timer.c **** /**
   2:Drivers/lvgl/src/misc/lv_timer.c ****  * @file lv_timer.c
   3:Drivers/lvgl/src/misc/lv_timer.c ****  */
   4:Drivers/lvgl/src/misc/lv_timer.c **** 
   5:Drivers/lvgl/src/misc/lv_timer.c **** /*********************
   6:Drivers/lvgl/src/misc/lv_timer.c ****  *      INCLUDES
   7:Drivers/lvgl/src/misc/lv_timer.c ****  *********************/
   8:Drivers/lvgl/src/misc/lv_timer.c **** #include "lv_timer_private.h"
   9:Drivers/lvgl/src/misc/lv_timer.c **** #include "../core/lv_global.h"
  10:Drivers/lvgl/src/misc/lv_timer.c **** #include "../tick/lv_tick.h"
  11:Drivers/lvgl/src/misc/lv_timer.c **** #include "../stdlib/lv_mem.h"
  12:Drivers/lvgl/src/misc/lv_timer.c **** #include "../stdlib/lv_sprintf.h"
  13:Drivers/lvgl/src/misc/lv_timer.c **** #include "lv_assert.h"
  14:Drivers/lvgl/src/misc/lv_timer.c **** #include "lv_ll.h"
  15:Drivers/lvgl/src/misc/lv_timer.c **** #include "lv_profiler.h"
  16:Drivers/lvgl/src/misc/lv_timer.c **** 
  17:Drivers/lvgl/src/misc/lv_timer.c **** /*********************
  18:Drivers/lvgl/src/misc/lv_timer.c ****  *      DEFINES
  19:Drivers/lvgl/src/misc/lv_timer.c ****  *********************/
  20:Drivers/lvgl/src/misc/lv_timer.c **** 
  21:Drivers/lvgl/src/misc/lv_timer.c **** #define IDLE_MEAS_PERIOD 500 /*[ms]*/
  22:Drivers/lvgl/src/misc/lv_timer.c **** #define DEF_PERIOD 500
  23:Drivers/lvgl/src/misc/lv_timer.c **** 
  24:Drivers/lvgl/src/misc/lv_timer.c **** #define state LV_GLOBAL_DEFAULT()->timer_state
  25:Drivers/lvgl/src/misc/lv_timer.c **** #define timer_ll_p &(state.timer_ll)
  26:Drivers/lvgl/src/misc/lv_timer.c **** 
  27:Drivers/lvgl/src/misc/lv_timer.c **** /**********************
  28:Drivers/lvgl/src/misc/lv_timer.c ****  *      TYPEDEFS
  29:Drivers/lvgl/src/misc/lv_timer.c ****  **********************/
  30:Drivers/lvgl/src/misc/lv_timer.c **** 
  31:Drivers/lvgl/src/misc/lv_timer.c **** /**********************
ARM GAS  /var/folders/qx/2_175_4n2s19vhvtspjhb3qh0000gn/T//cckyXFEd.s 			page 2


  32:Drivers/lvgl/src/misc/lv_timer.c ****  *  STATIC PROTOTYPES
  33:Drivers/lvgl/src/misc/lv_timer.c ****  **********************/
  34:Drivers/lvgl/src/misc/lv_timer.c **** static bool lv_timer_exec(lv_timer_t * timer);
  35:Drivers/lvgl/src/misc/lv_timer.c **** static uint32_t lv_timer_time_remaining(lv_timer_t * timer);
  36:Drivers/lvgl/src/misc/lv_timer.c **** static void lv_timer_handler_resume(void);
  37:Drivers/lvgl/src/misc/lv_timer.c **** 
  38:Drivers/lvgl/src/misc/lv_timer.c **** /**********************
  39:Drivers/lvgl/src/misc/lv_timer.c ****  *  STATIC VARIABLES
  40:Drivers/lvgl/src/misc/lv_timer.c ****  **********************/
  41:Drivers/lvgl/src/misc/lv_timer.c **** 
  42:Drivers/lvgl/src/misc/lv_timer.c **** /**********************
  43:Drivers/lvgl/src/misc/lv_timer.c ****  *      MACROS
  44:Drivers/lvgl/src/misc/lv_timer.c ****  **********************/
  45:Drivers/lvgl/src/misc/lv_timer.c **** #if LV_USE_LOG && LV_LOG_TRACE_TIMER
  46:Drivers/lvgl/src/misc/lv_timer.c ****     #define LV_TRACE_TIMER(...) LV_LOG_TRACE(__VA_ARGS__)
  47:Drivers/lvgl/src/misc/lv_timer.c **** #else
  48:Drivers/lvgl/src/misc/lv_timer.c ****     #define LV_TRACE_TIMER(...)
  49:Drivers/lvgl/src/misc/lv_timer.c **** #endif
  50:Drivers/lvgl/src/misc/lv_timer.c **** 
  51:Drivers/lvgl/src/misc/lv_timer.c **** /**********************
  52:Drivers/lvgl/src/misc/lv_timer.c ****  *   GLOBAL FUNCTIONS
  53:Drivers/lvgl/src/misc/lv_timer.c ****  **********************/
  54:Drivers/lvgl/src/misc/lv_timer.c **** 
  55:Drivers/lvgl/src/misc/lv_timer.c **** void lv_timer_core_init(void)
  56:Drivers/lvgl/src/misc/lv_timer.c **** {
  57:Drivers/lvgl/src/misc/lv_timer.c ****     lv_ll_init(timer_ll_p, sizeof(lv_timer_t));
  58:Drivers/lvgl/src/misc/lv_timer.c **** 
  59:Drivers/lvgl/src/misc/lv_timer.c ****     /*Initially enable the lv_timer handling*/
  60:Drivers/lvgl/src/misc/lv_timer.c ****     lv_timer_enable(true);
  61:Drivers/lvgl/src/misc/lv_timer.c **** }
  62:Drivers/lvgl/src/misc/lv_timer.c **** 
  63:Drivers/lvgl/src/misc/lv_timer.c **** LV_ATTRIBUTE_TIMER_HANDLER uint32_t lv_timer_handler(void)
  64:Drivers/lvgl/src/misc/lv_timer.c **** {
  65:Drivers/lvgl/src/misc/lv_timer.c ****     LV_TRACE_TIMER("begin");
  66:Drivers/lvgl/src/misc/lv_timer.c **** 
  67:Drivers/lvgl/src/misc/lv_timer.c ****     lv_timer_state_t * state_p = &state;
  68:Drivers/lvgl/src/misc/lv_timer.c ****     /*Avoid concurrent running of the timer handler*/
  69:Drivers/lvgl/src/misc/lv_timer.c ****     if(state_p->already_running) {
  70:Drivers/lvgl/src/misc/lv_timer.c ****         LV_TRACE_TIMER("already running, concurrent calls are not allow, returning");
  71:Drivers/lvgl/src/misc/lv_timer.c ****         return 1;
  72:Drivers/lvgl/src/misc/lv_timer.c ****     }
  73:Drivers/lvgl/src/misc/lv_timer.c ****     state_p->already_running = true;
  74:Drivers/lvgl/src/misc/lv_timer.c **** 
  75:Drivers/lvgl/src/misc/lv_timer.c ****     if(state_p->lv_timer_run == false) {
  76:Drivers/lvgl/src/misc/lv_timer.c ****         state_p->already_running = false; /*Release mutex*/
  77:Drivers/lvgl/src/misc/lv_timer.c ****         return 1;
  78:Drivers/lvgl/src/misc/lv_timer.c ****     }
  79:Drivers/lvgl/src/misc/lv_timer.c **** 
  80:Drivers/lvgl/src/misc/lv_timer.c ****     LV_PROFILER_TIMER_BEGIN;
  81:Drivers/lvgl/src/misc/lv_timer.c ****     lv_lock();
  82:Drivers/lvgl/src/misc/lv_timer.c **** 
  83:Drivers/lvgl/src/misc/lv_timer.c ****     uint32_t handler_start = lv_tick_get();
  84:Drivers/lvgl/src/misc/lv_timer.c **** 
  85:Drivers/lvgl/src/misc/lv_timer.c ****     if(handler_start == 0) {
  86:Drivers/lvgl/src/misc/lv_timer.c ****         state.run_cnt++;
  87:Drivers/lvgl/src/misc/lv_timer.c ****         if(state.run_cnt > 100) {
  88:Drivers/lvgl/src/misc/lv_timer.c ****             state.run_cnt = 0;
ARM GAS  /var/folders/qx/2_175_4n2s19vhvtspjhb3qh0000gn/T//cckyXFEd.s 			page 3


  89:Drivers/lvgl/src/misc/lv_timer.c ****             LV_LOG_WARN("It seems lv_tick_inc() is not called.");
  90:Drivers/lvgl/src/misc/lv_timer.c ****         }
  91:Drivers/lvgl/src/misc/lv_timer.c ****     }
  92:Drivers/lvgl/src/misc/lv_timer.c **** 
  93:Drivers/lvgl/src/misc/lv_timer.c ****     /*Run all timer from the list*/
  94:Drivers/lvgl/src/misc/lv_timer.c ****     lv_timer_t * next;
  95:Drivers/lvgl/src/misc/lv_timer.c ****     lv_timer_t * timer_active;
  96:Drivers/lvgl/src/misc/lv_timer.c ****     lv_ll_t * timer_head = timer_ll_p;
  97:Drivers/lvgl/src/misc/lv_timer.c ****     do {
  98:Drivers/lvgl/src/misc/lv_timer.c ****         state_p->timer_deleted             = false;
  99:Drivers/lvgl/src/misc/lv_timer.c ****         state_p->timer_created             = false;
 100:Drivers/lvgl/src/misc/lv_timer.c **** 
 101:Drivers/lvgl/src/misc/lv_timer.c ****         timer_active = lv_ll_get_head(timer_head);
 102:Drivers/lvgl/src/misc/lv_timer.c ****         while(timer_active) {
 103:Drivers/lvgl/src/misc/lv_timer.c ****             /*The timer might be deleted if it runs only once ('repeat_count = 1')
 104:Drivers/lvgl/src/misc/lv_timer.c ****              *So get next element until the current is surely valid*/
 105:Drivers/lvgl/src/misc/lv_timer.c ****             next = lv_ll_get_next(timer_head, timer_active);
 106:Drivers/lvgl/src/misc/lv_timer.c **** 
 107:Drivers/lvgl/src/misc/lv_timer.c ****             if(lv_timer_exec(timer_active)) {
 108:Drivers/lvgl/src/misc/lv_timer.c ****                 /*If a timer was created or deleted then this or the next item might be corrupted*/
 109:Drivers/lvgl/src/misc/lv_timer.c ****                 if(state_p->timer_created || state_p->timer_deleted) {
 110:Drivers/lvgl/src/misc/lv_timer.c ****                     LV_TRACE_TIMER("Start from the first timer again because a timer was created or
 111:Drivers/lvgl/src/misc/lv_timer.c ****                     break;
 112:Drivers/lvgl/src/misc/lv_timer.c ****                 }
 113:Drivers/lvgl/src/misc/lv_timer.c ****             }
 114:Drivers/lvgl/src/misc/lv_timer.c **** 
 115:Drivers/lvgl/src/misc/lv_timer.c ****             timer_active = next; /*Load the next timer*/
 116:Drivers/lvgl/src/misc/lv_timer.c ****         }
 117:Drivers/lvgl/src/misc/lv_timer.c ****     } while(timer_active);
 118:Drivers/lvgl/src/misc/lv_timer.c **** 
 119:Drivers/lvgl/src/misc/lv_timer.c ****     uint32_t time_until_next = LV_NO_TIMER_READY;
 120:Drivers/lvgl/src/misc/lv_timer.c ****     next = lv_ll_get_head(timer_head);
 121:Drivers/lvgl/src/misc/lv_timer.c ****     while(next) {
 122:Drivers/lvgl/src/misc/lv_timer.c ****         if(!next->paused) {
 123:Drivers/lvgl/src/misc/lv_timer.c ****             uint32_t delay = lv_timer_time_remaining(next);
 124:Drivers/lvgl/src/misc/lv_timer.c ****             if(delay < time_until_next)
 125:Drivers/lvgl/src/misc/lv_timer.c ****                 time_until_next = delay;
 126:Drivers/lvgl/src/misc/lv_timer.c ****         }
 127:Drivers/lvgl/src/misc/lv_timer.c **** 
 128:Drivers/lvgl/src/misc/lv_timer.c ****         next = lv_ll_get_next(timer_head, next); /*Find the next timer*/
 129:Drivers/lvgl/src/misc/lv_timer.c ****     }
 130:Drivers/lvgl/src/misc/lv_timer.c **** 
 131:Drivers/lvgl/src/misc/lv_timer.c ****     state_p->busy_time += lv_tick_elaps(handler_start);
 132:Drivers/lvgl/src/misc/lv_timer.c ****     uint32_t idle_period_time = lv_tick_elaps(state_p->idle_period_start);
 133:Drivers/lvgl/src/misc/lv_timer.c ****     if(idle_period_time >= IDLE_MEAS_PERIOD) {
 134:Drivers/lvgl/src/misc/lv_timer.c ****         state_p->idle_last         = (state_p->busy_time * 100) / idle_period_time;  /*Calculate th
 135:Drivers/lvgl/src/misc/lv_timer.c ****         state_p->idle_last         = state_p->idle_last > 100 ? 0 : 100 - state_p->idle_last; /*But
 136:Drivers/lvgl/src/misc/lv_timer.c ****         state_p->busy_time         = 0;
 137:Drivers/lvgl/src/misc/lv_timer.c ****         state_p->idle_period_start = lv_tick_get();
 138:Drivers/lvgl/src/misc/lv_timer.c ****     }
 139:Drivers/lvgl/src/misc/lv_timer.c **** 
 140:Drivers/lvgl/src/misc/lv_timer.c ****     state_p->timer_time_until_next = time_until_next;
 141:Drivers/lvgl/src/misc/lv_timer.c ****     state_p->already_running = false; /*Release the mutex*/
 142:Drivers/lvgl/src/misc/lv_timer.c **** 
 143:Drivers/lvgl/src/misc/lv_timer.c ****     LV_TRACE_TIMER("finished (%" LV_PRIu32 " ms until the next timer call)", time_until_next);
 144:Drivers/lvgl/src/misc/lv_timer.c ****     lv_unlock();
 145:Drivers/lvgl/src/misc/lv_timer.c **** 
ARM GAS  /var/folders/qx/2_175_4n2s19vhvtspjhb3qh0000gn/T//cckyXFEd.s 			page 4


 146:Drivers/lvgl/src/misc/lv_timer.c ****     LV_PROFILER_TIMER_END;
 147:Drivers/lvgl/src/misc/lv_timer.c ****     return time_until_next;
 148:Drivers/lvgl/src/misc/lv_timer.c **** }
 149:Drivers/lvgl/src/misc/lv_timer.c **** 
 150:Drivers/lvgl/src/misc/lv_timer.c **** LV_ATTRIBUTE_TIMER_HANDLER void lv_timer_periodic_handler(void)
 151:Drivers/lvgl/src/misc/lv_timer.c **** {
 152:Drivers/lvgl/src/misc/lv_timer.c ****     lv_timer_state_t * state_p = &state;
 153:Drivers/lvgl/src/misc/lv_timer.c ****     if(lv_tick_elaps(state_p->periodic_last_tick) >= state_p->timer_time_until_next) {
 154:Drivers/lvgl/src/misc/lv_timer.c ****         LV_TRACE_TIMER("calling lv_timer_handler()");
 155:Drivers/lvgl/src/misc/lv_timer.c ****         lv_timer_handler();
 156:Drivers/lvgl/src/misc/lv_timer.c ****         state_p->periodic_last_tick = lv_tick_get();
 157:Drivers/lvgl/src/misc/lv_timer.c ****     }
 158:Drivers/lvgl/src/misc/lv_timer.c **** }
 159:Drivers/lvgl/src/misc/lv_timer.c **** 
 160:Drivers/lvgl/src/misc/lv_timer.c **** lv_timer_t * lv_timer_create_basic(void)
 161:Drivers/lvgl/src/misc/lv_timer.c **** {
 162:Drivers/lvgl/src/misc/lv_timer.c ****     return lv_timer_create(NULL, DEF_PERIOD, NULL);
 163:Drivers/lvgl/src/misc/lv_timer.c **** }
 164:Drivers/lvgl/src/misc/lv_timer.c **** 
 165:Drivers/lvgl/src/misc/lv_timer.c **** lv_timer_t * lv_timer_create(lv_timer_cb_t timer_xcb, uint32_t period, void * user_data)
 166:Drivers/lvgl/src/misc/lv_timer.c **** {
 167:Drivers/lvgl/src/misc/lv_timer.c ****     lv_timer_t * new_timer = NULL;
 168:Drivers/lvgl/src/misc/lv_timer.c **** 
 169:Drivers/lvgl/src/misc/lv_timer.c ****     new_timer = lv_ll_ins_head(timer_ll_p);
 170:Drivers/lvgl/src/misc/lv_timer.c ****     LV_ASSERT_MALLOC(new_timer);
 171:Drivers/lvgl/src/misc/lv_timer.c ****     if(new_timer == NULL) return NULL;
 172:Drivers/lvgl/src/misc/lv_timer.c **** 
 173:Drivers/lvgl/src/misc/lv_timer.c ****     new_timer->period = period;
 174:Drivers/lvgl/src/misc/lv_timer.c ****     new_timer->timer_cb = timer_xcb;
 175:Drivers/lvgl/src/misc/lv_timer.c ****     new_timer->repeat_count = -1;
 176:Drivers/lvgl/src/misc/lv_timer.c ****     new_timer->paused = 0;
 177:Drivers/lvgl/src/misc/lv_timer.c ****     new_timer->last_run = lv_tick_get();
 178:Drivers/lvgl/src/misc/lv_timer.c ****     new_timer->user_data = user_data;
 179:Drivers/lvgl/src/misc/lv_timer.c ****     new_timer->auto_delete = true;
 180:Drivers/lvgl/src/misc/lv_timer.c **** #if LV_USE_EXT_DATA
 181:Drivers/lvgl/src/misc/lv_timer.c ****     new_timer->ext_data.free_cb = NULL;
 182:Drivers/lvgl/src/misc/lv_timer.c ****     new_timer->ext_data.data = NULL;
 183:Drivers/lvgl/src/misc/lv_timer.c **** #endif
 184:Drivers/lvgl/src/misc/lv_timer.c **** 
 185:Drivers/lvgl/src/misc/lv_timer.c ****     state.timer_created = true;
 186:Drivers/lvgl/src/misc/lv_timer.c **** 
 187:Drivers/lvgl/src/misc/lv_timer.c ****     lv_timer_handler_resume();
 188:Drivers/lvgl/src/misc/lv_timer.c **** 
 189:Drivers/lvgl/src/misc/lv_timer.c ****     return new_timer;
 190:Drivers/lvgl/src/misc/lv_timer.c **** }
 191:Drivers/lvgl/src/misc/lv_timer.c **** 
 192:Drivers/lvgl/src/misc/lv_timer.c **** void lv_timer_set_cb(lv_timer_t * timer, lv_timer_cb_t timer_cb)
 193:Drivers/lvgl/src/misc/lv_timer.c **** {
 194:Drivers/lvgl/src/misc/lv_timer.c ****     LV_ASSERT_NULL(timer);
 195:Drivers/lvgl/src/misc/lv_timer.c ****     timer->timer_cb = timer_cb;
 196:Drivers/lvgl/src/misc/lv_timer.c **** }
 197:Drivers/lvgl/src/misc/lv_timer.c **** 
 198:Drivers/lvgl/src/misc/lv_timer.c **** void lv_timer_delete(lv_timer_t * timer)
 199:Drivers/lvgl/src/misc/lv_timer.c **** {
 200:Drivers/lvgl/src/misc/lv_timer.c ****     lv_ll_remove(timer_ll_p, timer);
 201:Drivers/lvgl/src/misc/lv_timer.c ****     state.timer_deleted = true;
 202:Drivers/lvgl/src/misc/lv_timer.c **** 
ARM GAS  /var/folders/qx/2_175_4n2s19vhvtspjhb3qh0000gn/T//cckyXFEd.s 			page 5


 203:Drivers/lvgl/src/misc/lv_timer.c **** #if LV_USE_EXT_DATA
 204:Drivers/lvgl/src/misc/lv_timer.c ****     if(timer->ext_data.free_cb) {
 205:Drivers/lvgl/src/misc/lv_timer.c ****         timer->ext_data.free_cb(timer->ext_data.data);
 206:Drivers/lvgl/src/misc/lv_timer.c ****         timer->ext_data.data = NULL;
 207:Drivers/lvgl/src/misc/lv_timer.c ****     }
 208:Drivers/lvgl/src/misc/lv_timer.c **** #endif
 209:Drivers/lvgl/src/misc/lv_timer.c **** 
 210:Drivers/lvgl/src/misc/lv_timer.c ****     lv_free(timer);
 211:Drivers/lvgl/src/misc/lv_timer.c **** }
 212:Drivers/lvgl/src/misc/lv_timer.c **** 
 213:Drivers/lvgl/src/misc/lv_timer.c **** void lv_timer_pause(lv_timer_t * timer)
 214:Drivers/lvgl/src/misc/lv_timer.c **** {
 215:Drivers/lvgl/src/misc/lv_timer.c ****     LV_ASSERT_NULL(timer);
 216:Drivers/lvgl/src/misc/lv_timer.c ****     timer->paused = true;
 217:Drivers/lvgl/src/misc/lv_timer.c **** }
 218:Drivers/lvgl/src/misc/lv_timer.c **** 
 219:Drivers/lvgl/src/misc/lv_timer.c **** void lv_timer_resume(lv_timer_t * timer)
 220:Drivers/lvgl/src/misc/lv_timer.c **** {
 221:Drivers/lvgl/src/misc/lv_timer.c ****     LV_ASSERT_NULL(timer);
 222:Drivers/lvgl/src/misc/lv_timer.c ****     timer->paused = false;
 223:Drivers/lvgl/src/misc/lv_timer.c ****     lv_timer_handler_resume();
 224:Drivers/lvgl/src/misc/lv_timer.c **** }
 225:Drivers/lvgl/src/misc/lv_timer.c **** 
 226:Drivers/lvgl/src/misc/lv_timer.c **** void lv_timer_set_period(lv_timer_t * timer, uint32_t period)
 227:Drivers/lvgl/src/misc/lv_timer.c **** {
 228:Drivers/lvgl/src/misc/lv_timer.c ****     LV_ASSERT_NULL(timer);
 229:Drivers/lvgl/src/misc/lv_timer.c ****     timer->period = period;
 230:Drivers/lvgl/src/misc/lv_timer.c ****     lv_timer_handler_resume();
 231:Drivers/lvgl/src/misc/lv_timer.c **** }
 232:Drivers/lvgl/src/misc/lv_timer.c **** 
 233:Drivers/lvgl/src/misc/lv_timer.c **** void lv_timer_ready(lv_timer_t * timer)
 234:Drivers/lvgl/src/misc/lv_timer.c **** {
 235:Drivers/lvgl/src/misc/lv_timer.c ****     LV_ASSERT_NULL(timer);
 236:Drivers/lvgl/src/misc/lv_timer.c ****     timer->last_run = lv_tick_get() - timer->period - 1;
 237:Drivers/lvgl/src/misc/lv_timer.c ****     lv_timer_handler_resume();
 238:Drivers/lvgl/src/misc/lv_timer.c **** }
 239:Drivers/lvgl/src/misc/lv_timer.c **** 
 240:Drivers/lvgl/src/misc/lv_timer.c **** void lv_timer_set_repeat_count(lv_timer_t * timer, int32_t repeat_count)
 241:Drivers/lvgl/src/misc/lv_timer.c **** {
 242:Drivers/lvgl/src/misc/lv_timer.c ****     LV_ASSERT_NULL(timer);
 243:Drivers/lvgl/src/misc/lv_timer.c ****     timer->repeat_count = repeat_count;
 244:Drivers/lvgl/src/misc/lv_timer.c **** }
 245:Drivers/lvgl/src/misc/lv_timer.c **** 
 246:Drivers/lvgl/src/misc/lv_timer.c **** void lv_timer_set_auto_delete(lv_timer_t * timer, bool auto_delete)
 247:Drivers/lvgl/src/misc/lv_timer.c **** {
 248:Drivers/lvgl/src/misc/lv_timer.c ****     LV_ASSERT_NULL(timer);
 249:Drivers/lvgl/src/misc/lv_timer.c ****     timer->auto_delete = auto_delete;
 250:Drivers/lvgl/src/misc/lv_timer.c **** }
 251:Drivers/lvgl/src/misc/lv_timer.c **** 
 252:Drivers/lvgl/src/misc/lv_timer.c **** void lv_timer_set_user_data(lv_timer_t * timer, void * user_data)
 253:Drivers/lvgl/src/misc/lv_timer.c **** {
 254:Drivers/lvgl/src/misc/lv_timer.c ****     LV_ASSERT_NULL(timer);
 255:Drivers/lvgl/src/misc/lv_timer.c ****     timer->user_data = user_data;
 256:Drivers/lvgl/src/misc/lv_timer.c **** }
 257:Drivers/lvgl/src/misc/lv_timer.c **** 
 258:Drivers/lvgl/src/misc/lv_timer.c **** void lv_timer_reset(lv_timer_t * timer)
 259:Drivers/lvgl/src/misc/lv_timer.c **** {
ARM GAS  /var/folders/qx/2_175_4n2s19vhvtspjhb3qh0000gn/T//cckyXFEd.s 			page 6


 260:Drivers/lvgl/src/misc/lv_timer.c ****     LV_ASSERT_NULL(timer);
 261:Drivers/lvgl/src/misc/lv_timer.c ****     timer->last_run = lv_tick_get();
 262:Drivers/lvgl/src/misc/lv_timer.c ****     lv_timer_handler_resume();
 263:Drivers/lvgl/src/misc/lv_timer.c **** }
 264:Drivers/lvgl/src/misc/lv_timer.c **** 
 265:Drivers/lvgl/src/misc/lv_timer.c **** void lv_timer_enable(bool en)
 266:Drivers/lvgl/src/misc/lv_timer.c **** {
 267:Drivers/lvgl/src/misc/lv_timer.c ****     state.lv_timer_run = en;
 268:Drivers/lvgl/src/misc/lv_timer.c ****     if(en) lv_timer_handler_resume();
 269:Drivers/lvgl/src/misc/lv_timer.c **** }
 270:Drivers/lvgl/src/misc/lv_timer.c **** 
 271:Drivers/lvgl/src/misc/lv_timer.c **** void lv_timer_core_deinit(void)
 272:Drivers/lvgl/src/misc/lv_timer.c **** {
 273:Drivers/lvgl/src/misc/lv_timer.c ****     lv_timer_enable(false);
 274:Drivers/lvgl/src/misc/lv_timer.c **** 
 275:Drivers/lvgl/src/misc/lv_timer.c ****     lv_ll_clear(timer_ll_p);
 276:Drivers/lvgl/src/misc/lv_timer.c **** }
 277:Drivers/lvgl/src/misc/lv_timer.c **** 
 278:Drivers/lvgl/src/misc/lv_timer.c **** uint32_t lv_timer_get_idle(void)
 279:Drivers/lvgl/src/misc/lv_timer.c **** {
 280:Drivers/lvgl/src/misc/lv_timer.c ****     return state.idle_last;
 281:Drivers/lvgl/src/misc/lv_timer.c **** }
 282:Drivers/lvgl/src/misc/lv_timer.c **** 
 283:Drivers/lvgl/src/misc/lv_timer.c **** uint32_t lv_timer_get_time_until_next(void)
 284:Drivers/lvgl/src/misc/lv_timer.c **** {
 285:Drivers/lvgl/src/misc/lv_timer.c ****     return state.timer_time_until_next;
 286:Drivers/lvgl/src/misc/lv_timer.c **** }
 287:Drivers/lvgl/src/misc/lv_timer.c **** 
 288:Drivers/lvgl/src/misc/lv_timer.c **** lv_timer_t * lv_timer_get_next(lv_timer_t * timer)
 289:Drivers/lvgl/src/misc/lv_timer.c **** {
 290:Drivers/lvgl/src/misc/lv_timer.c ****     if(timer == NULL) return lv_ll_get_head(timer_ll_p);
 291:Drivers/lvgl/src/misc/lv_timer.c ****     else return lv_ll_get_next(timer_ll_p, timer);
 292:Drivers/lvgl/src/misc/lv_timer.c **** }
 293:Drivers/lvgl/src/misc/lv_timer.c **** 
 294:Drivers/lvgl/src/misc/lv_timer.c **** LV_ATTRIBUTE_TIMER_HANDLER uint32_t lv_timer_handler_run_in_period(uint32_t period)
 295:Drivers/lvgl/src/misc/lv_timer.c **** {
 296:Drivers/lvgl/src/misc/lv_timer.c ****     static uint32_t last_tick = 0;
 297:Drivers/lvgl/src/misc/lv_timer.c **** 
 298:Drivers/lvgl/src/misc/lv_timer.c ****     if(lv_tick_elaps(last_tick) >= period) {
 299:Drivers/lvgl/src/misc/lv_timer.c ****         last_tick = lv_tick_get();
 300:Drivers/lvgl/src/misc/lv_timer.c ****         return lv_timer_handler();
 301:Drivers/lvgl/src/misc/lv_timer.c ****     }
 302:Drivers/lvgl/src/misc/lv_timer.c ****     return 1;
 303:Drivers/lvgl/src/misc/lv_timer.c **** }
 304:Drivers/lvgl/src/misc/lv_timer.c **** 
 305:Drivers/lvgl/src/misc/lv_timer.c **** void * lv_timer_get_user_data(lv_timer_t * timer)
 306:Drivers/lvgl/src/misc/lv_timer.c **** {
 307:Drivers/lvgl/src/misc/lv_timer.c ****     return timer->user_data;
 308:Drivers/lvgl/src/misc/lv_timer.c **** }
 309:Drivers/lvgl/src/misc/lv_timer.c **** 
 310:Drivers/lvgl/src/misc/lv_timer.c **** bool lv_timer_get_paused(lv_timer_t * timer)
 311:Drivers/lvgl/src/misc/lv_timer.c **** {
 312:Drivers/lvgl/src/misc/lv_timer.c ****     return timer->paused;
 313:Drivers/lvgl/src/misc/lv_timer.c **** }
 314:Drivers/lvgl/src/misc/lv_timer.c **** 
 315:Drivers/lvgl/src/misc/lv_timer.c **** #if LV_USE_EXT_DATA
 316:Drivers/lvgl/src/misc/lv_timer.c **** void lv_timer_set_external_data(lv_timer_t * timer, void * data, void (* free_cb)(void * data))
ARM GAS  /var/folders/qx/2_175_4n2s19vhvtspjhb3qh0000gn/T//cckyXFEd.s 			page 7


 317:Drivers/lvgl/src/misc/lv_timer.c **** {
 318:Drivers/lvgl/src/misc/lv_timer.c ****     if(!timer) {
 319:Drivers/lvgl/src/misc/lv_timer.c ****         LV_LOG_WARN("Can't attach external user data and destructor callback to a NULL timer");
 320:Drivers/lvgl/src/misc/lv_timer.c ****         return;
 321:Drivers/lvgl/src/misc/lv_timer.c ****     }
 322:Drivers/lvgl/src/misc/lv_timer.c **** 
 323:Drivers/lvgl/src/misc/lv_timer.c ****     timer->ext_data.data = data;
 324:Drivers/lvgl/src/misc/lv_timer.c ****     timer->ext_data.free_cb = free_cb;
 325:Drivers/lvgl/src/misc/lv_timer.c **** }
 326:Drivers/lvgl/src/misc/lv_timer.c **** #endif
 327:Drivers/lvgl/src/misc/lv_timer.c **** 
 328:Drivers/lvgl/src/misc/lv_timer.c **** /**********************
 329:Drivers/lvgl/src/misc/lv_timer.c ****  *   STATIC FUNCTIONS
 330:Drivers/lvgl/src/misc/lv_timer.c ****  **********************/
 331:Drivers/lvgl/src/misc/lv_timer.c **** 
 332:Drivers/lvgl/src/misc/lv_timer.c **** /**
 333:Drivers/lvgl/src/misc/lv_timer.c ****  * Execute timer if its remaining time is zero
 334:Drivers/lvgl/src/misc/lv_timer.c ****  * @param timer pointer to lv_timer
 335:Drivers/lvgl/src/misc/lv_timer.c ****  * @return true: execute, false: not executed
 336:Drivers/lvgl/src/misc/lv_timer.c ****  */
 337:Drivers/lvgl/src/misc/lv_timer.c **** static bool lv_timer_exec(lv_timer_t * timer)
 338:Drivers/lvgl/src/misc/lv_timer.c **** {
 339:Drivers/lvgl/src/misc/lv_timer.c ****     if(timer->paused) return false;
 340:Drivers/lvgl/src/misc/lv_timer.c **** 
 341:Drivers/lvgl/src/misc/lv_timer.c ****     bool exec = false;
 342:Drivers/lvgl/src/misc/lv_timer.c ****     if(lv_timer_time_remaining(timer) == 0) {
 343:Drivers/lvgl/src/misc/lv_timer.c ****         /* Decrement the repeat count before executing the timer_cb.
 344:Drivers/lvgl/src/misc/lv_timer.c ****          * If any timer is deleted `if(timer->repeat_count == 0)` is not executed below
 345:Drivers/lvgl/src/misc/lv_timer.c ****          * but at least the repeat count is zero and the timer can be deleted in the next round*/
 346:Drivers/lvgl/src/misc/lv_timer.c ****         int32_t original_repeat_count = timer->repeat_count;
 347:Drivers/lvgl/src/misc/lv_timer.c ****         if(timer->repeat_count > 0) timer->repeat_count--;
 348:Drivers/lvgl/src/misc/lv_timer.c ****         timer->last_run = lv_tick_get();
 349:Drivers/lvgl/src/misc/lv_timer.c ****         LV_TRACE_TIMER("calling timer callback: %p", *((void **)&timer->timer_cb));
 350:Drivers/lvgl/src/misc/lv_timer.c **** 
 351:Drivers/lvgl/src/misc/lv_timer.c ****         if(timer->timer_cb && original_repeat_count != 0) {
 352:Drivers/lvgl/src/misc/lv_timer.c ****             LV_PROFILER_TIMER_BEGIN_TAG("timer_cb");
 353:Drivers/lvgl/src/misc/lv_timer.c ****             timer->timer_cb(timer);
 354:Drivers/lvgl/src/misc/lv_timer.c ****             LV_PROFILER_TIMER_END_TAG("timer_cb");
 355:Drivers/lvgl/src/misc/lv_timer.c ****         }
 356:Drivers/lvgl/src/misc/lv_timer.c **** 
 357:Drivers/lvgl/src/misc/lv_timer.c ****         if(!state.timer_deleted) {
 358:Drivers/lvgl/src/misc/lv_timer.c ****             LV_TRACE_TIMER("timer callback %p finished", *((void **)&timer->timer_cb));
 359:Drivers/lvgl/src/misc/lv_timer.c ****         }
 360:Drivers/lvgl/src/misc/lv_timer.c ****         else {
 361:Drivers/lvgl/src/misc/lv_timer.c ****             LV_TRACE_TIMER("timer callback finished");
 362:Drivers/lvgl/src/misc/lv_timer.c ****         }
 363:Drivers/lvgl/src/misc/lv_timer.c **** 
 364:Drivers/lvgl/src/misc/lv_timer.c ****         LV_ASSERT_MEM_INTEGRITY();
 365:Drivers/lvgl/src/misc/lv_timer.c ****         exec = true;
 366:Drivers/lvgl/src/misc/lv_timer.c ****     }
 367:Drivers/lvgl/src/misc/lv_timer.c **** 
 368:Drivers/lvgl/src/misc/lv_timer.c ****     if(state.timer_deleted == false) { /*The timer might be deleted by itself as well*/
 369:Drivers/lvgl/src/misc/lv_timer.c ****         if(timer->repeat_count == 0) { /*The repeat count is over, delete the timer*/
 370:Drivers/lvgl/src/misc/lv_timer.c ****             if(timer->auto_delete) {
 371:Drivers/lvgl/src/misc/lv_timer.c ****                 LV_TRACE_TIMER("deleting timer with %p callback because the repeat count is over", 
 372:Drivers/lvgl/src/misc/lv_timer.c ****                 lv_timer_delete(timer);
 373:Drivers/lvgl/src/misc/lv_timer.c ****             }
ARM GAS  /var/folders/qx/2_175_4n2s19vhvtspjhb3qh0000gn/T//cckyXFEd.s 			page 8


 374:Drivers/lvgl/src/misc/lv_timer.c ****             else {
 375:Drivers/lvgl/src/misc/lv_timer.c ****                 LV_TRACE_TIMER("pausing timer with %p callback because the repeat count is over", *
 376:Drivers/lvgl/src/misc/lv_timer.c ****                 lv_timer_pause(timer);
 377:Drivers/lvgl/src/misc/lv_timer.c ****             }
 378:Drivers/lvgl/src/misc/lv_timer.c ****         }
 379:Drivers/lvgl/src/misc/lv_timer.c ****     }
 380:Drivers/lvgl/src/misc/lv_timer.c **** 
 381:Drivers/lvgl/src/misc/lv_timer.c ****     return exec;
 382:Drivers/lvgl/src/misc/lv_timer.c **** }
 383:Drivers/lvgl/src/misc/lv_timer.c **** 
 384:Drivers/lvgl/src/misc/lv_timer.c **** /**
 385:Drivers/lvgl/src/misc/lv_timer.c ****  * Find out how much time remains before a timer must be run.
 386:Drivers/lvgl/src/misc/lv_timer.c ****  * @param timer pointer to lv_timer
 387:Drivers/lvgl/src/misc/lv_timer.c ****  * @return the time remaining, or 0 if it needs to be run again
 388:Drivers/lvgl/src/misc/lv_timer.c ****  */
 389:Drivers/lvgl/src/misc/lv_timer.c **** static uint32_t lv_timer_time_remaining(lv_timer_t * timer)
 390:Drivers/lvgl/src/misc/lv_timer.c **** {
 391:Drivers/lvgl/src/misc/lv_timer.c ****     /*Check if at least 'period' time elapsed*/
 392:Drivers/lvgl/src/misc/lv_timer.c ****     uint32_t elp = lv_tick_elaps(timer->last_run);
 393:Drivers/lvgl/src/misc/lv_timer.c ****     if(elp >= timer->period)
 394:Drivers/lvgl/src/misc/lv_timer.c ****         return 0;
 395:Drivers/lvgl/src/misc/lv_timer.c ****     return timer->period - elp;
 396:Drivers/lvgl/src/misc/lv_timer.c **** }
 397:Drivers/lvgl/src/misc/lv_timer.c **** 
 398:Drivers/lvgl/src/misc/lv_timer.c **** /**
 399:Drivers/lvgl/src/misc/lv_timer.c ****  * Call the ready lv_timer
 400:Drivers/lvgl/src/misc/lv_timer.c ****  */
 401:Drivers/lvgl/src/misc/lv_timer.c **** static void lv_timer_handler_resume(void)
 402:Drivers/lvgl/src/misc/lv_timer.c **** {
  28              		.loc 1 402 1 view -0
  29              		.cfi_startproc
  30              		@ args = 0, pretend = 0, frame = 0
  31              		@ frame_needed = 0, uses_anonymous_args = 0
  32 0000 08B5     		push	{r3, lr}
  33              	.LCFI0:
  34              		.cfi_def_cfa_offset 8
  35              		.cfi_offset 3, -8
  36              		.cfi_offset 14, -4
 403:Drivers/lvgl/src/misc/lv_timer.c ****     /*If there is a timer which is ready to run then resume the timer loop*/
 404:Drivers/lvgl/src/misc/lv_timer.c ****     state.timer_time_until_next = 0;
  37              		.loc 1 404 5 view .LVU1
  38              		.loc 1 404 33 is_stmt 0 view .LVU2
  39 0002 064B     		ldr	r3, .L4
  40 0004 0022     		movs	r2, #0
  41 0006 C3F88820 		str	r2, [r3, #136]
 405:Drivers/lvgl/src/misc/lv_timer.c ****     if(state.resume_cb) {
  42              		.loc 1 405 5 is_stmt 1 view .LVU3
  43              		.loc 1 405 13 is_stmt 0 view .LVU4
  44 000a D3F8A030 		ldr	r3, [r3, #160]
  45              		.loc 1 405 7 view .LVU5
  46 000e 1BB1     		cbz	r3, .L1
 406:Drivers/lvgl/src/misc/lv_timer.c ****         state.resume_cb(state.resume_data);
  47              		.loc 1 406 9 is_stmt 1 view .LVU6
  48 0010 024A     		ldr	r2, .L4
  49 0012 D2F8A400 		ldr	r0, [r2, #164]
  50 0016 9847     		blx	r3
  51              	.LVL0:
ARM GAS  /var/folders/qx/2_175_4n2s19vhvtspjhb3qh0000gn/T//cckyXFEd.s 			page 9


  52              	.L1:
 407:Drivers/lvgl/src/misc/lv_timer.c ****     }
 408:Drivers/lvgl/src/misc/lv_timer.c **** }
  53              		.loc 1 408 1 is_stmt 0 view .LVU7
  54 0018 08BD     		pop	{r3, pc}
  55              	.L5:
  56 001a 00BF     		.align	2
  57              	.L4:
  58 001c 00000000 		.word	lv_global
  59              		.cfi_endproc
  60              	.LFE218:
  62              		.section	.text.lv_timer_time_remaining,"ax",%progbits
  63              		.align	1
  64              		.syntax unified
  65              		.thumb
  66              		.thumb_func
  68              	lv_timer_time_remaining:
  69              	.LVL1:
  70              	.LFB217:
 390:Drivers/lvgl/src/misc/lv_timer.c ****     /*Check if at least 'period' time elapsed*/
  71              		.loc 1 390 1 is_stmt 1 view -0
  72              		.cfi_startproc
  73              		@ args = 0, pretend = 0, frame = 0
  74              		@ frame_needed = 0, uses_anonymous_args = 0
 390:Drivers/lvgl/src/misc/lv_timer.c ****     /*Check if at least 'period' time elapsed*/
  75              		.loc 1 390 1 is_stmt 0 view .LVU9
  76 0000 10B5     		push	{r4, lr}
  77              	.LCFI1:
  78              		.cfi_def_cfa_offset 8
  79              		.cfi_offset 4, -8
  80              		.cfi_offset 14, -4
  81 0002 0446     		mov	r4, r0
 392:Drivers/lvgl/src/misc/lv_timer.c ****     if(elp >= timer->period)
  82              		.loc 1 392 5 is_stmt 1 view .LVU10
 392:Drivers/lvgl/src/misc/lv_timer.c ****     if(elp >= timer->period)
  83              		.loc 1 392 20 is_stmt 0 view .LVU11
  84 0004 4068     		ldr	r0, [r0, #4]
  85              	.LVL2:
 392:Drivers/lvgl/src/misc/lv_timer.c ****     if(elp >= timer->period)
  86              		.loc 1 392 20 view .LVU12
  87 0006 FFF7FEFF 		bl	lv_tick_elaps
  88              	.LVL3:
 393:Drivers/lvgl/src/misc/lv_timer.c ****         return 0;
  89              		.loc 1 393 5 is_stmt 1 view .LVU13
 393:Drivers/lvgl/src/misc/lv_timer.c ****         return 0;
  90              		.loc 1 393 20 is_stmt 0 view .LVU14
  91 000a 2368     		ldr	r3, [r4]
 393:Drivers/lvgl/src/misc/lv_timer.c ****         return 0;
  92              		.loc 1 393 7 view .LVU15
  93 000c 8342     		cmp	r3, r0
  94 000e 01D9     		bls	.L8
 395:Drivers/lvgl/src/misc/lv_timer.c **** }
  95              		.loc 1 395 5 is_stmt 1 view .LVU16
 395:Drivers/lvgl/src/misc/lv_timer.c **** }
  96              		.loc 1 395 26 is_stmt 0 view .LVU17
  97 0010 181A     		subs	r0, r3, r0
  98              	.LVL4:
ARM GAS  /var/folders/qx/2_175_4n2s19vhvtspjhb3qh0000gn/T//cckyXFEd.s 			page 10


  99              	.L6:
 396:Drivers/lvgl/src/misc/lv_timer.c **** 
 100              		.loc 1 396 1 view .LVU18
 101 0012 10BD     		pop	{r4, pc}
 102              	.LVL5:
 103              	.L8:
 394:Drivers/lvgl/src/misc/lv_timer.c ****     return timer->period - elp;
 104              		.loc 1 394 16 view .LVU19
 105 0014 0020     		movs	r0, #0
 106              	.LVL6:
 394:Drivers/lvgl/src/misc/lv_timer.c ****     return timer->period - elp;
 107              		.loc 1 394 16 view .LVU20
 108 0016 FCE7     		b	.L6
 109              		.cfi_endproc
 110              	.LFE217:
 112              		.section	.text.lv_timer_create,"ax",%progbits
 113              		.align	1
 114              		.global	lv_timer_create
 115              		.syntax unified
 116              		.thumb
 117              		.thumb_func
 119              	lv_timer_create:
 120              	.LVL7:
 121              	.LFB197:
 166:Drivers/lvgl/src/misc/lv_timer.c ****     lv_timer_t * new_timer = NULL;
 122              		.loc 1 166 1 is_stmt 1 view -0
 123              		.cfi_startproc
 124              		@ args = 0, pretend = 0, frame = 0
 125              		@ frame_needed = 0, uses_anonymous_args = 0
 166:Drivers/lvgl/src/misc/lv_timer.c ****     lv_timer_t * new_timer = NULL;
 126              		.loc 1 166 1 is_stmt 0 view .LVU22
 127 0000 F8B5     		push	{r3, r4, r5, r6, r7, lr}
 128              	.LCFI2:
 129              		.cfi_def_cfa_offset 24
 130              		.cfi_offset 3, -24
 131              		.cfi_offset 4, -20
 132              		.cfi_offset 5, -16
 133              		.cfi_offset 6, -12
 134              		.cfi_offset 7, -8
 135              		.cfi_offset 14, -4
 136 0002 0646     		mov	r6, r0
 137 0004 0F46     		mov	r7, r1
 138 0006 1546     		mov	r5, r2
 167:Drivers/lvgl/src/misc/lv_timer.c **** 
 139              		.loc 1 167 5 is_stmt 1 view .LVU23
 140              	.LVL8:
 169:Drivers/lvgl/src/misc/lv_timer.c ****     LV_ASSERT_MALLOC(new_timer);
 141              		.loc 1 169 5 view .LVU24
 169:Drivers/lvgl/src/misc/lv_timer.c ****     LV_ASSERT_MALLOC(new_timer);
 142              		.loc 1 169 17 is_stmt 0 view .LVU25
 143 0008 0E48     		ldr	r0, .L14
 144              	.LVL9:
 169:Drivers/lvgl/src/misc/lv_timer.c ****     LV_ASSERT_MALLOC(new_timer);
 145              		.loc 1 169 17 view .LVU26
 146 000a FFF7FEFF 		bl	lv_ll_ins_head
 147              	.LVL10:
 170:Drivers/lvgl/src/misc/lv_timer.c ****     if(new_timer == NULL) return NULL;
ARM GAS  /var/folders/qx/2_175_4n2s19vhvtspjhb3qh0000gn/T//cckyXFEd.s 			page 11


 148              		.loc 1 170 5 is_stmt 1 view .LVU27
 170:Drivers/lvgl/src/misc/lv_timer.c ****     if(new_timer == NULL) return NULL;
 149              		.loc 1 170 5 view .LVU28
 150 000e B8B1     		cbz	r0, .L12
 151 0010 0446     		mov	r4, r0
 170:Drivers/lvgl/src/misc/lv_timer.c ****     if(new_timer == NULL) return NULL;
 152              		.loc 1 170 5 view .LVU29
 170:Drivers/lvgl/src/misc/lv_timer.c ****     if(new_timer == NULL) return NULL;
 153              		.loc 1 170 32 view .LVU30
 171:Drivers/lvgl/src/misc/lv_timer.c **** 
 154              		.loc 1 171 5 view .LVU31
 173:Drivers/lvgl/src/misc/lv_timer.c ****     new_timer->timer_cb = timer_xcb;
 155              		.loc 1 173 5 view .LVU32
 173:Drivers/lvgl/src/misc/lv_timer.c ****     new_timer->timer_cb = timer_xcb;
 156              		.loc 1 173 23 is_stmt 0 view .LVU33
 157 0012 0760     		str	r7, [r0]
 174:Drivers/lvgl/src/misc/lv_timer.c ****     new_timer->repeat_count = -1;
 158              		.loc 1 174 5 is_stmt 1 view .LVU34
 174:Drivers/lvgl/src/misc/lv_timer.c ****     new_timer->repeat_count = -1;
 159              		.loc 1 174 25 is_stmt 0 view .LVU35
 160 0014 8660     		str	r6, [r0, #8]
 175:Drivers/lvgl/src/misc/lv_timer.c ****     new_timer->paused = 0;
 161              		.loc 1 175 5 is_stmt 1 view .LVU36
 175:Drivers/lvgl/src/misc/lv_timer.c ****     new_timer->paused = 0;
 162              		.loc 1 175 29 is_stmt 0 view .LVU37
 163 0016 4FF0FF33 		mov	r3, #-1
 164 001a 0361     		str	r3, [r0, #16]
 176:Drivers/lvgl/src/misc/lv_timer.c ****     new_timer->last_run = lv_tick_get();
 165              		.loc 1 176 5 is_stmt 1 view .LVU38
 176:Drivers/lvgl/src/misc/lv_timer.c ****     new_timer->last_run = lv_tick_get();
 166              		.loc 1 176 23 is_stmt 0 view .LVU39
 167 001c 0023     		movs	r3, #0
 168 001e 4361     		str	r3, [r0, #20]
 177:Drivers/lvgl/src/misc/lv_timer.c ****     new_timer->user_data = user_data;
 169              		.loc 1 177 5 is_stmt 1 view .LVU40
 177:Drivers/lvgl/src/misc/lv_timer.c ****     new_timer->user_data = user_data;
 170              		.loc 1 177 27 is_stmt 0 view .LVU41
 171 0020 FFF7FEFF 		bl	lv_tick_get
 172              	.LVL11:
 177:Drivers/lvgl/src/misc/lv_timer.c ****     new_timer->user_data = user_data;
 173              		.loc 1 177 25 discriminator 1 view .LVU42
 174 0024 6060     		str	r0, [r4, #4]
 178:Drivers/lvgl/src/misc/lv_timer.c ****     new_timer->auto_delete = true;
 175              		.loc 1 178 5 is_stmt 1 view .LVU43
 178:Drivers/lvgl/src/misc/lv_timer.c ****     new_timer->auto_delete = true;
 176              		.loc 1 178 26 is_stmt 0 view .LVU44
 177 0026 E560     		str	r5, [r4, #12]
 179:Drivers/lvgl/src/misc/lv_timer.c **** #if LV_USE_EXT_DATA
 178              		.loc 1 179 5 is_stmt 1 view .LVU45
 179:Drivers/lvgl/src/misc/lv_timer.c **** #if LV_USE_EXT_DATA
 179              		.loc 1 179 28 is_stmt 0 view .LVU46
 180 0028 237E     		ldrb	r3, [r4, #24]	@ zero_extendqisi2
 181 002a 43F00103 		orr	r3, r3, #1
 182 002e 2376     		strb	r3, [r4, #24]
 185:Drivers/lvgl/src/misc/lv_timer.c **** 
 183              		.loc 1 185 5 is_stmt 1 view .LVU47
 185:Drivers/lvgl/src/misc/lv_timer.c **** 
ARM GAS  /var/folders/qx/2_175_4n2s19vhvtspjhb3qh0000gn/T//cckyXFEd.s 			page 12


 184              		.loc 1 185 25 is_stmt 0 view .LVU48
 185 0030 054B     		ldr	r3, .L14+4
 186 0032 0122     		movs	r2, #1
 187 0034 83F88720 		strb	r2, [r3, #135]
 187:Drivers/lvgl/src/misc/lv_timer.c **** 
 188              		.loc 1 187 5 is_stmt 1 view .LVU49
 189 0038 FFF7FEFF 		bl	lv_timer_handler_resume
 190              	.LVL12:
 189:Drivers/lvgl/src/misc/lv_timer.c **** }
 191              		.loc 1 189 5 view .LVU50
 190:Drivers/lvgl/src/misc/lv_timer.c **** 
 192              		.loc 1 190 1 is_stmt 0 view .LVU51
 193 003c 2046     		mov	r0, r4
 194 003e F8BD     		pop	{r3, r4, r5, r6, r7, pc}
 195              	.LVL13:
 196              	.L12:
 170:Drivers/lvgl/src/misc/lv_timer.c ****     if(new_timer == NULL) return NULL;
 197              		.loc 1 170 5 is_stmt 1 view .LVU52
 170:Drivers/lvgl/src/misc/lv_timer.c ****     if(new_timer == NULL) return NULL;
 198              		.loc 1 170 5 view .LVU53
 170:Drivers/lvgl/src/misc/lv_timer.c ****     if(new_timer == NULL) return NULL;
 199              		.loc 1 170 5 view .LVU54
 170:Drivers/lvgl/src/misc/lv_timer.c ****     if(new_timer == NULL) return NULL;
 200              		.loc 1 170 5 view .LVU55
 170:Drivers/lvgl/src/misc/lv_timer.c ****     if(new_timer == NULL) return NULL;
 201              		.loc 1 170 5 view .LVU56
 202 0040 FEE7     		b	.L12
 203              	.L15:
 204 0042 00BF     		.align	2
 205              	.L14:
 206 0044 78000000 		.word	lv_global+120
 207 0048 00000000 		.word	lv_global
 208              		.cfi_endproc
 209              	.LFE197:
 211              		.section	.text.lv_timer_create_basic,"ax",%progbits
 212              		.align	1
 213              		.global	lv_timer_create_basic
 214              		.syntax unified
 215              		.thumb
 216              		.thumb_func
 218              	lv_timer_create_basic:
 219              	.LFB196:
 161:Drivers/lvgl/src/misc/lv_timer.c ****     return lv_timer_create(NULL, DEF_PERIOD, NULL);
 220              		.loc 1 161 1 view -0
 221              		.cfi_startproc
 222              		@ args = 0, pretend = 0, frame = 0
 223              		@ frame_needed = 0, uses_anonymous_args = 0
 224 0000 08B5     		push	{r3, lr}
 225              	.LCFI3:
 226              		.cfi_def_cfa_offset 8
 227              		.cfi_offset 3, -8
 228              		.cfi_offset 14, -4
 162:Drivers/lvgl/src/misc/lv_timer.c **** }
 229              		.loc 1 162 5 view .LVU58
 162:Drivers/lvgl/src/misc/lv_timer.c **** }
 230              		.loc 1 162 12 is_stmt 0 view .LVU59
 231 0002 0022     		movs	r2, #0
ARM GAS  /var/folders/qx/2_175_4n2s19vhvtspjhb3qh0000gn/T//cckyXFEd.s 			page 13


 232 0004 4FF4FA71 		mov	r1, #500
 233 0008 1046     		mov	r0, r2
 234 000a FFF7FEFF 		bl	lv_timer_create
 235              	.LVL14:
 163:Drivers/lvgl/src/misc/lv_timer.c **** 
 236              		.loc 1 163 1 view .LVU60
 237 000e 08BD     		pop	{r3, pc}
 238              		.cfi_endproc
 239              	.LFE196:
 241              		.section	.text.lv_timer_set_cb,"ax",%progbits
 242              		.align	1
 243              		.global	lv_timer_set_cb
 244              		.syntax unified
 245              		.thumb
 246              		.thumb_func
 248              	lv_timer_set_cb:
 249              	.LVL15:
 250              	.LFB198:
 193:Drivers/lvgl/src/misc/lv_timer.c ****     LV_ASSERT_NULL(timer);
 251              		.loc 1 193 1 is_stmt 1 view -0
 252              		.cfi_startproc
 253              		@ args = 0, pretend = 0, frame = 0
 254              		@ frame_needed = 0, uses_anonymous_args = 0
 255              		@ link register save eliminated.
 194:Drivers/lvgl/src/misc/lv_timer.c ****     timer->timer_cb = timer_cb;
 256              		.loc 1 194 5 view .LVU62
 194:Drivers/lvgl/src/misc/lv_timer.c ****     timer->timer_cb = timer_cb;
 257              		.loc 1 194 5 view .LVU63
 258 0000 08B1     		cbz	r0, .L20
 194:Drivers/lvgl/src/misc/lv_timer.c ****     timer->timer_cb = timer_cb;
 259              		.loc 1 194 5 view .LVU64
 194:Drivers/lvgl/src/misc/lv_timer.c ****     timer->timer_cb = timer_cb;
 260              		.loc 1 194 26 view .LVU65
 195:Drivers/lvgl/src/misc/lv_timer.c **** }
 261              		.loc 1 195 5 view .LVU66
 195:Drivers/lvgl/src/misc/lv_timer.c **** }
 262              		.loc 1 195 21 is_stmt 0 view .LVU67
 263 0002 8160     		str	r1, [r0, #8]
 196:Drivers/lvgl/src/misc/lv_timer.c **** 
 264              		.loc 1 196 1 view .LVU68
 265 0004 7047     		bx	lr
 266              	.L20:
 194:Drivers/lvgl/src/misc/lv_timer.c ****     timer->timer_cb = timer_cb;
 267              		.loc 1 194 5 is_stmt 1 view .LVU69
 194:Drivers/lvgl/src/misc/lv_timer.c ****     timer->timer_cb = timer_cb;
 268              		.loc 1 194 5 view .LVU70
 194:Drivers/lvgl/src/misc/lv_timer.c ****     timer->timer_cb = timer_cb;
 269              		.loc 1 194 5 view .LVU71
 194:Drivers/lvgl/src/misc/lv_timer.c ****     timer->timer_cb = timer_cb;
 270              		.loc 1 194 5 view .LVU72
 194:Drivers/lvgl/src/misc/lv_timer.c ****     timer->timer_cb = timer_cb;
 271              		.loc 1 194 5 view .LVU73
 272 0006 FEE7     		b	.L20
 273              		.cfi_endproc
 274              	.LFE198:
 276              		.section	.text.lv_timer_delete,"ax",%progbits
 277              		.align	1
ARM GAS  /var/folders/qx/2_175_4n2s19vhvtspjhb3qh0000gn/T//cckyXFEd.s 			page 14


 278              		.global	lv_timer_delete
 279              		.syntax unified
 280              		.thumb
 281              		.thumb_func
 283              	lv_timer_delete:
 284              	.LVL16:
 285              	.LFB199:
 199:Drivers/lvgl/src/misc/lv_timer.c ****     lv_ll_remove(timer_ll_p, timer);
 286              		.loc 1 199 1 view -0
 287              		.cfi_startproc
 288              		@ args = 0, pretend = 0, frame = 0
 289              		@ frame_needed = 0, uses_anonymous_args = 0
 199:Drivers/lvgl/src/misc/lv_timer.c ****     lv_ll_remove(timer_ll_p, timer);
 290              		.loc 1 199 1 is_stmt 0 view .LVU75
 291 0000 38B5     		push	{r3, r4, r5, lr}
 292              	.LCFI4:
 293              		.cfi_def_cfa_offset 16
 294              		.cfi_offset 3, -16
 295              		.cfi_offset 4, -12
 296              		.cfi_offset 5, -8
 297              		.cfi_offset 14, -4
 298 0002 0446     		mov	r4, r0
 200:Drivers/lvgl/src/misc/lv_timer.c ****     state.timer_deleted = true;
 299              		.loc 1 200 5 is_stmt 1 view .LVU76
 300 0004 054D     		ldr	r5, .L23
 301 0006 0146     		mov	r1, r0
 302 0008 2846     		mov	r0, r5
 303              	.LVL17:
 200:Drivers/lvgl/src/misc/lv_timer.c ****     state.timer_deleted = true;
 304              		.loc 1 200 5 is_stmt 0 view .LVU77
 305 000a FFF7FEFF 		bl	lv_ll_remove
 306              	.LVL18:
 201:Drivers/lvgl/src/misc/lv_timer.c **** 
 307              		.loc 1 201 5 is_stmt 1 view .LVU78
 201:Drivers/lvgl/src/misc/lv_timer.c **** 
 308              		.loc 1 201 25 is_stmt 0 view .LVU79
 309 000e 0123     		movs	r3, #1
 310 0010 AB73     		strb	r3, [r5, #14]
 210:Drivers/lvgl/src/misc/lv_timer.c **** }
 311              		.loc 1 210 5 is_stmt 1 view .LVU80
 312 0012 2046     		mov	r0, r4
 313 0014 FFF7FEFF 		bl	lv_free
 314              	.LVL19:
 211:Drivers/lvgl/src/misc/lv_timer.c **** 
 315              		.loc 1 211 1 is_stmt 0 view .LVU81
 316 0018 38BD     		pop	{r3, r4, r5, pc}
 317              	.LVL20:
 318              	.L24:
 211:Drivers/lvgl/src/misc/lv_timer.c **** 
 319              		.loc 1 211 1 view .LVU82
 320 001a 00BF     		.align	2
 321              	.L23:
 322 001c 78000000 		.word	lv_global+120
 323              		.cfi_endproc
 324              	.LFE199:
 326              		.section	.text.lv_timer_pause,"ax",%progbits
 327              		.align	1
ARM GAS  /var/folders/qx/2_175_4n2s19vhvtspjhb3qh0000gn/T//cckyXFEd.s 			page 15


 328              		.global	lv_timer_pause
 329              		.syntax unified
 330              		.thumb
 331              		.thumb_func
 333              	lv_timer_pause:
 334              	.LVL21:
 335              	.LFB200:
 214:Drivers/lvgl/src/misc/lv_timer.c ****     LV_ASSERT_NULL(timer);
 336              		.loc 1 214 1 is_stmt 1 view -0
 337              		.cfi_startproc
 338              		@ args = 0, pretend = 0, frame = 0
 339              		@ frame_needed = 0, uses_anonymous_args = 0
 340              		@ link register save eliminated.
 215:Drivers/lvgl/src/misc/lv_timer.c ****     timer->paused = true;
 341              		.loc 1 215 5 view .LVU84
 215:Drivers/lvgl/src/misc/lv_timer.c ****     timer->paused = true;
 342              		.loc 1 215 5 view .LVU85
 343 0000 10B1     		cbz	r0, .L27
 215:Drivers/lvgl/src/misc/lv_timer.c ****     timer->paused = true;
 344              		.loc 1 215 5 view .LVU86
 215:Drivers/lvgl/src/misc/lv_timer.c ****     timer->paused = true;
 345              		.loc 1 215 26 view .LVU87
 216:Drivers/lvgl/src/misc/lv_timer.c **** }
 346              		.loc 1 216 5 view .LVU88
 216:Drivers/lvgl/src/misc/lv_timer.c **** }
 347              		.loc 1 216 19 is_stmt 0 view .LVU89
 348 0002 0122     		movs	r2, #1
 349 0004 4261     		str	r2, [r0, #20]
 217:Drivers/lvgl/src/misc/lv_timer.c **** 
 350              		.loc 1 217 1 view .LVU90
 351 0006 7047     		bx	lr
 352              	.L27:
 215:Drivers/lvgl/src/misc/lv_timer.c ****     timer->paused = true;
 353              		.loc 1 215 5 is_stmt 1 view .LVU91
 215:Drivers/lvgl/src/misc/lv_timer.c ****     timer->paused = true;
 354              		.loc 1 215 5 view .LVU92
 215:Drivers/lvgl/src/misc/lv_timer.c ****     timer->paused = true;
 355              		.loc 1 215 5 view .LVU93
 215:Drivers/lvgl/src/misc/lv_timer.c ****     timer->paused = true;
 356              		.loc 1 215 5 view .LVU94
 215:Drivers/lvgl/src/misc/lv_timer.c ****     timer->paused = true;
 357              		.loc 1 215 5 view .LVU95
 358 0008 FEE7     		b	.L27
 359              		.cfi_endproc
 360              	.LFE200:
 362              		.section	.text.lv_timer_exec,"ax",%progbits
 363              		.align	1
 364              		.syntax unified
 365              		.thumb
 366              		.thumb_func
 368              	lv_timer_exec:
 369              	.LVL22:
 370              	.LFB216:
 338:Drivers/lvgl/src/misc/lv_timer.c ****     if(timer->paused) return false;
 371              		.loc 1 338 1 view -0
 372              		.cfi_startproc
 373              		@ args = 0, pretend = 0, frame = 0
ARM GAS  /var/folders/qx/2_175_4n2s19vhvtspjhb3qh0000gn/T//cckyXFEd.s 			page 16


 374              		@ frame_needed = 0, uses_anonymous_args = 0
 338:Drivers/lvgl/src/misc/lv_timer.c ****     if(timer->paused) return false;
 375              		.loc 1 338 1 is_stmt 0 view .LVU97
 376 0000 38B5     		push	{r3, r4, r5, lr}
 377              	.LCFI5:
 378              		.cfi_def_cfa_offset 16
 379              		.cfi_offset 3, -16
 380              		.cfi_offset 4, -12
 381              		.cfi_offset 5, -8
 382              		.cfi_offset 14, -4
 339:Drivers/lvgl/src/misc/lv_timer.c **** 
 383              		.loc 1 339 5 is_stmt 1 view .LVU98
 339:Drivers/lvgl/src/misc/lv_timer.c **** 
 384              		.loc 1 339 13 is_stmt 0 view .LVU99
 385 0002 4369     		ldr	r3, [r0, #20]
 339:Drivers/lvgl/src/misc/lv_timer.c **** 
 386              		.loc 1 339 7 view .LVU100
 387 0004 13B1     		cbz	r3, .L37
 339:Drivers/lvgl/src/misc/lv_timer.c **** 
 388              		.loc 1 339 30 discriminator 1 view .LVU101
 389 0006 0025     		movs	r5, #0
 390              	.LVL23:
 391              	.L29:
 382:Drivers/lvgl/src/misc/lv_timer.c **** 
 392              		.loc 1 382 1 view .LVU102
 393 0008 2846     		mov	r0, r5
 394 000a 38BD     		pop	{r3, r4, r5, pc}
 395              	.LVL24:
 396              	.L37:
 382:Drivers/lvgl/src/misc/lv_timer.c **** 
 397              		.loc 1 382 1 view .LVU103
 398 000c 0446     		mov	r4, r0
 341:Drivers/lvgl/src/misc/lv_timer.c ****     if(lv_timer_time_remaining(timer) == 0) {
 399              		.loc 1 341 5 is_stmt 1 view .LVU104
 400              	.LVL25:
 342:Drivers/lvgl/src/misc/lv_timer.c ****         /* Decrement the repeat count before executing the timer_cb.
 401              		.loc 1 342 5 view .LVU105
 342:Drivers/lvgl/src/misc/lv_timer.c ****         /* Decrement the repeat count before executing the timer_cb.
 402              		.loc 1 342 8 is_stmt 0 view .LVU106
 403 000e FFF7FEFF 		bl	lv_timer_time_remaining
 404              	.LVL26:
 342:Drivers/lvgl/src/misc/lv_timer.c ****         /* Decrement the repeat count before executing the timer_cb.
 405              		.loc 1 342 7 discriminator 1 view .LVU107
 406 0012 E8B9     		cbnz	r0, .L35
 407              	.LBB2:
 346:Drivers/lvgl/src/misc/lv_timer.c ****         if(timer->repeat_count > 0) timer->repeat_count--;
 408              		.loc 1 346 9 is_stmt 1 view .LVU108
 346:Drivers/lvgl/src/misc/lv_timer.c ****         if(timer->repeat_count > 0) timer->repeat_count--;
 409              		.loc 1 346 17 is_stmt 0 view .LVU109
 410 0014 2569     		ldr	r5, [r4, #16]
 411              	.LVL27:
 347:Drivers/lvgl/src/misc/lv_timer.c ****         timer->last_run = lv_tick_get();
 412              		.loc 1 347 9 is_stmt 1 view .LVU110
 347:Drivers/lvgl/src/misc/lv_timer.c ****         timer->last_run = lv_tick_get();
 413              		.loc 1 347 11 is_stmt 0 view .LVU111
 414 0016 002D     		cmp	r5, #0
 415 0018 01DD     		ble	.L31
ARM GAS  /var/folders/qx/2_175_4n2s19vhvtspjhb3qh0000gn/T//cckyXFEd.s 			page 17


 347:Drivers/lvgl/src/misc/lv_timer.c ****         timer->last_run = lv_tick_get();
 416              		.loc 1 347 37 is_stmt 1 discriminator 1 view .LVU112
 347:Drivers/lvgl/src/misc/lv_timer.c ****         timer->last_run = lv_tick_get();
 417              		.loc 1 347 56 is_stmt 0 discriminator 1 view .LVU113
 418 001a 6B1E     		subs	r3, r5, #1
 419 001c 2361     		str	r3, [r4, #16]
 420              	.L31:
 348:Drivers/lvgl/src/misc/lv_timer.c ****         LV_TRACE_TIMER("calling timer callback: %p", *((void **)&timer->timer_cb));
 421              		.loc 1 348 9 is_stmt 1 view .LVU114
 348:Drivers/lvgl/src/misc/lv_timer.c ****         LV_TRACE_TIMER("calling timer callback: %p", *((void **)&timer->timer_cb));
 422              		.loc 1 348 27 is_stmt 0 view .LVU115
 423 001e FFF7FEFF 		bl	lv_tick_get
 424              	.LVL28:
 348:Drivers/lvgl/src/misc/lv_timer.c ****         LV_TRACE_TIMER("calling timer callback: %p", *((void **)&timer->timer_cb));
 425              		.loc 1 348 25 discriminator 1 view .LVU116
 426 0022 6060     		str	r0, [r4, #4]
 349:Drivers/lvgl/src/misc/lv_timer.c **** 
 427              		.loc 1 349 83 is_stmt 1 view .LVU117
 351:Drivers/lvgl/src/misc/lv_timer.c ****             LV_PROFILER_TIMER_BEGIN_TAG("timer_cb");
 428              		.loc 1 351 9 view .LVU118
 351:Drivers/lvgl/src/misc/lv_timer.c ****             LV_PROFILER_TIMER_BEGIN_TAG("timer_cb");
 429              		.loc 1 351 17 is_stmt 0 view .LVU119
 430 0024 A368     		ldr	r3, [r4, #8]
 351:Drivers/lvgl/src/misc/lv_timer.c ****             LV_PROFILER_TIMER_BEGIN_TAG("timer_cb");
 431              		.loc 1 351 11 view .LVU120
 432 0026 13B1     		cbz	r3, .L32
 351:Drivers/lvgl/src/misc/lv_timer.c ****             LV_PROFILER_TIMER_BEGIN_TAG("timer_cb");
 433              		.loc 1 351 28 discriminator 1 view .LVU121
 434 0028 0DB1     		cbz	r5, .L32
 352:Drivers/lvgl/src/misc/lv_timer.c ****             timer->timer_cb(timer);
 435              		.loc 1 352 52 is_stmt 1 view .LVU122
 353:Drivers/lvgl/src/misc/lv_timer.c ****             LV_PROFILER_TIMER_END_TAG("timer_cb");
 436              		.loc 1 353 13 view .LVU123
 437 002a 2046     		mov	r0, r4
 438 002c 9847     		blx	r3
 439              	.LVL29:
 440              	.L32:
 354:Drivers/lvgl/src/misc/lv_timer.c ****         }
 441              		.loc 1 354 50 view .LVU124
 357:Drivers/lvgl/src/misc/lv_timer.c ****             LV_TRACE_TIMER("timer callback %p finished", *((void **)&timer->timer_cb));
 442              		.loc 1 357 9 view .LVU125
 358:Drivers/lvgl/src/misc/lv_timer.c ****         }
 443              		.loc 1 358 87 view .LVU126
 361:Drivers/lvgl/src/misc/lv_timer.c ****         }
 444              		.loc 1 361 54 view .LVU127
 364:Drivers/lvgl/src/misc/lv_timer.c ****         exec = true;
 445              		.loc 1 364 34 view .LVU128
 365:Drivers/lvgl/src/misc/lv_timer.c ****     }
 446              		.loc 1 365 9 view .LVU129
 365:Drivers/lvgl/src/misc/lv_timer.c ****     }
 447              		.loc 1 365 14 is_stmt 0 view .LVU130
 448 002e 0125     		movs	r5, #1
 449              	.LVL30:
 450              	.L30:
 365:Drivers/lvgl/src/misc/lv_timer.c ****     }
 451              		.loc 1 365 14 view .LVU131
 452              	.LBE2:
ARM GAS  /var/folders/qx/2_175_4n2s19vhvtspjhb3qh0000gn/T//cckyXFEd.s 			page 18


 368:Drivers/lvgl/src/misc/lv_timer.c ****         if(timer->repeat_count == 0) { /*The repeat count is over, delete the timer*/
 453              		.loc 1 368 5 is_stmt 1 view .LVU132
 368:Drivers/lvgl/src/misc/lv_timer.c ****         if(timer->repeat_count == 0) { /*The repeat count is over, delete the timer*/
 454              		.loc 1 368 13 is_stmt 0 view .LVU133
 455 0030 0A4B     		ldr	r3, .L38
 456 0032 93F88630 		ldrb	r3, [r3, #134]	@ zero_extendqisi2
 368:Drivers/lvgl/src/misc/lv_timer.c ****         if(timer->repeat_count == 0) { /*The repeat count is over, delete the timer*/
 457              		.loc 1 368 7 view .LVU134
 458 0036 002B     		cmp	r3, #0
 459 0038 E6D1     		bne	.L29
 369:Drivers/lvgl/src/misc/lv_timer.c ****             if(timer->auto_delete) {
 460              		.loc 1 369 9 is_stmt 1 view .LVU135
 369:Drivers/lvgl/src/misc/lv_timer.c ****             if(timer->auto_delete) {
 461              		.loc 1 369 17 is_stmt 0 view .LVU136
 462 003a 2369     		ldr	r3, [r4, #16]
 369:Drivers/lvgl/src/misc/lv_timer.c ****             if(timer->auto_delete) {
 463              		.loc 1 369 11 view .LVU137
 464 003c 002B     		cmp	r3, #0
 465 003e E3D1     		bne	.L29
 370:Drivers/lvgl/src/misc/lv_timer.c ****                 LV_TRACE_TIMER("deleting timer with %p callback because the repeat count is over", 
 466              		.loc 1 370 13 is_stmt 1 view .LVU138
 370:Drivers/lvgl/src/misc/lv_timer.c ****                 LV_TRACE_TIMER("deleting timer with %p callback because the repeat count is over", 
 467              		.loc 1 370 16 is_stmt 0 view .LVU139
 468 0040 237E     		ldrb	r3, [r4, #24]	@ zero_extendqisi2
 370:Drivers/lvgl/src/misc/lv_timer.c ****                 LV_TRACE_TIMER("deleting timer with %p callback because the repeat count is over", 
 469              		.loc 1 370 15 view .LVU140
 470 0042 13F0010F 		tst	r3, #1
 471 0046 05D0     		beq	.L33
 371:Drivers/lvgl/src/misc/lv_timer.c ****                 lv_timer_delete(timer);
 472              		.loc 1 371 129 is_stmt 1 view .LVU141
 372:Drivers/lvgl/src/misc/lv_timer.c ****             }
 473              		.loc 1 372 17 view .LVU142
 474 0048 2046     		mov	r0, r4
 475 004a FFF7FEFF 		bl	lv_timer_delete
 476              	.LVL31:
 477 004e DBE7     		b	.L29
 478              	.LVL32:
 479              	.L35:
 341:Drivers/lvgl/src/misc/lv_timer.c ****     if(lv_timer_time_remaining(timer) == 0) {
 480              		.loc 1 341 10 is_stmt 0 view .LVU143
 481 0050 0025     		movs	r5, #0
 482 0052 EDE7     		b	.L30
 483              	.LVL33:
 484              	.L33:
 375:Drivers/lvgl/src/misc/lv_timer.c ****                 lv_timer_pause(timer);
 485              		.loc 1 375 128 is_stmt 1 view .LVU144
 376:Drivers/lvgl/src/misc/lv_timer.c ****             }
 486              		.loc 1 376 17 view .LVU145
 487 0054 2046     		mov	r0, r4
 488 0056 FFF7FEFF 		bl	lv_timer_pause
 489              	.LVL34:
 490 005a D5E7     		b	.L29
 491              	.L39:
 492              		.align	2
 493              	.L38:
 494 005c 00000000 		.word	lv_global
 495              		.cfi_endproc
ARM GAS  /var/folders/qx/2_175_4n2s19vhvtspjhb3qh0000gn/T//cckyXFEd.s 			page 19


 496              	.LFE216:
 498              		.section	.text.lv_timer_handler,"ax",%progbits
 499              		.align	1
 500              		.global	lv_timer_handler
 501              		.syntax unified
 502              		.thumb
 503              		.thumb_func
 505              	lv_timer_handler:
 506              	.LFB194:
  64:Drivers/lvgl/src/misc/lv_timer.c ****     LV_TRACE_TIMER("begin");
 507              		.loc 1 64 1 view -0
 508              		.cfi_startproc
 509              		@ args = 0, pretend = 0, frame = 0
 510              		@ frame_needed = 0, uses_anonymous_args = 0
 511 0000 70B5     		push	{r4, r5, r6, lr}
 512              	.LCFI6:
 513              		.cfi_def_cfa_offset 16
 514              		.cfi_offset 4, -16
 515              		.cfi_offset 5, -12
 516              		.cfi_offset 6, -8
 517              		.cfi_offset 14, -4
  65:Drivers/lvgl/src/misc/lv_timer.c **** 
 518              		.loc 1 65 28 view .LVU147
  67:Drivers/lvgl/src/misc/lv_timer.c ****     /*Avoid concurrent running of the timer handler*/
 519              		.loc 1 67 5 view .LVU148
 520              	.LVL35:
  69:Drivers/lvgl/src/misc/lv_timer.c ****         LV_TRACE_TIMER("already running, concurrent calls are not allow, returning");
 521              		.loc 1 69 5 view .LVU149
  69:Drivers/lvgl/src/misc/lv_timer.c ****         LV_TRACE_TIMER("already running, concurrent calls are not allow, returning");
 522              		.loc 1 69 15 is_stmt 0 view .LVU150
 523 0002 494B     		ldr	r3, .L60
 524 0004 93F88C30 		ldrb	r3, [r3, #140]	@ zero_extendqisi2
  69:Drivers/lvgl/src/misc/lv_timer.c ****         LV_TRACE_TIMER("already running, concurrent calls are not allow, returning");
 525              		.loc 1 69 7 view .LVU151
 526 0008 002B     		cmp	r3, #0
 527 000a 40F08980 		bne	.L53
  73:Drivers/lvgl/src/misc/lv_timer.c **** 
 528              		.loc 1 73 5 is_stmt 1 view .LVU152
  73:Drivers/lvgl/src/misc/lv_timer.c **** 
 529              		.loc 1 73 30 is_stmt 0 view .LVU153
 530 000e 464B     		ldr	r3, .L60
 531 0010 0122     		movs	r2, #1
 532 0012 83F88C20 		strb	r2, [r3, #140]
  75:Drivers/lvgl/src/misc/lv_timer.c ****         state_p->already_running = false; /*Release mutex*/
 533              		.loc 1 75 5 is_stmt 1 view .LVU154
  75:Drivers/lvgl/src/misc/lv_timer.c ****         state_p->already_running = false; /*Release mutex*/
 534              		.loc 1 75 15 is_stmt 0 view .LVU155
 535 0016 93F88430 		ldrb	r3, [r3, #132]	@ zero_extendqisi2
  75:Drivers/lvgl/src/misc/lv_timer.c ****         state_p->already_running = false; /*Release mutex*/
 536              		.loc 1 75 7 view .LVU156
 537 001a 2BB9     		cbnz	r3, .L42
  76:Drivers/lvgl/src/misc/lv_timer.c ****         return 1;
 538              		.loc 1 76 9 is_stmt 1 view .LVU157
  76:Drivers/lvgl/src/misc/lv_timer.c ****         return 1;
 539              		.loc 1 76 34 is_stmt 0 view .LVU158
 540 001c 424B     		ldr	r3, .L60
 541 001e 0022     		movs	r2, #0
ARM GAS  /var/folders/qx/2_175_4n2s19vhvtspjhb3qh0000gn/T//cckyXFEd.s 			page 20


 542 0020 83F88C20 		strb	r2, [r3, #140]
  77:Drivers/lvgl/src/misc/lv_timer.c ****     }
 543              		.loc 1 77 9 is_stmt 1 view .LVU159
  77:Drivers/lvgl/src/misc/lv_timer.c ****     }
 544              		.loc 1 77 16 is_stmt 0 view .LVU160
 545 0024 0125     		movs	r5, #1
 546 0026 7CE0     		b	.L40
 547              	.L42:
  80:Drivers/lvgl/src/misc/lv_timer.c ****     lv_lock();
 548              		.loc 1 80 28 is_stmt 1 view .LVU161
  81:Drivers/lvgl/src/misc/lv_timer.c **** 
 549              		.loc 1 81 5 view .LVU162
 550 0028 FFF7FEFF 		bl	lv_lock
 551              	.LVL36:
  83:Drivers/lvgl/src/misc/lv_timer.c **** 
 552              		.loc 1 83 5 view .LVU163
  83:Drivers/lvgl/src/misc/lv_timer.c **** 
 553              		.loc 1 83 30 is_stmt 0 view .LVU164
 554 002c FFF7FEFF 		bl	lv_tick_get
 555              	.LVL37:
  85:Drivers/lvgl/src/misc/lv_timer.c ****         state.run_cnt++;
 556              		.loc 1 85 5 is_stmt 1 view .LVU165
  85:Drivers/lvgl/src/misc/lv_timer.c ****         state.run_cnt++;
 557              		.loc 1 85 7 is_stmt 0 view .LVU166
 558 0030 0646     		mov	r6, r0
 559 0032 F8B9     		cbnz	r0, .L47
  86:Drivers/lvgl/src/misc/lv_timer.c ****         if(state.run_cnt > 100) {
 560              		.loc 1 86 9 is_stmt 1 view .LVU167
  86:Drivers/lvgl/src/misc/lv_timer.c ****         if(state.run_cnt > 100) {
 561              		.loc 1 86 14 is_stmt 0 view .LVU168
 562 0034 3C4A     		ldr	r2, .L60
 563 0036 D2F89C30 		ldr	r3, [r2, #156]
  86:Drivers/lvgl/src/misc/lv_timer.c ****         if(state.run_cnt > 100) {
 564              		.loc 1 86 22 view .LVU169
 565 003a 0133     		adds	r3, r3, #1
 566 003c C2F89C30 		str	r3, [r2, #156]
  87:Drivers/lvgl/src/misc/lv_timer.c ****             state.run_cnt = 0;
 567              		.loc 1 87 9 is_stmt 1 view .LVU170
  87:Drivers/lvgl/src/misc/lv_timer.c ****             state.run_cnt = 0;
 568              		.loc 1 87 11 is_stmt 0 view .LVU171
 569 0040 642B     		cmp	r3, #100
 570 0042 17D9     		bls	.L47
  88:Drivers/lvgl/src/misc/lv_timer.c ****             LV_LOG_WARN("It seems lv_tick_inc() is not called.");
 571              		.loc 1 88 13 is_stmt 1 view .LVU172
  88:Drivers/lvgl/src/misc/lv_timer.c ****             LV_LOG_WARN("It seems lv_tick_inc() is not called.");
 572              		.loc 1 88 27 is_stmt 0 view .LVU173
 573 0044 1346     		mov	r3, r2
 574 0046 0022     		movs	r2, #0
 575 0048 C3F89C20 		str	r2, [r3, #156]
 576 004c 12E0     		b	.L47
 577              	.LVL38:
 578              	.L54:
  88:Drivers/lvgl/src/misc/lv_timer.c ****             LV_LOG_WARN("It seems lv_tick_inc() is not called.");
 579              		.loc 1 88 27 view .LVU174
 580 004e 2C46     		mov	r4, r5
 581              	.LVL39:
 582              	.L44:
ARM GAS  /var/folders/qx/2_175_4n2s19vhvtspjhb3qh0000gn/T//cckyXFEd.s 			page 21


 102:Drivers/lvgl/src/misc/lv_timer.c ****             /*The timer might be deleted if it runs only once ('repeat_count = 1')
 583              		.loc 1 102 15 is_stmt 1 view .LVU175
 584 0050 7CB1     		cbz	r4, .L45
 105:Drivers/lvgl/src/misc/lv_timer.c **** 
 585              		.loc 1 105 13 view .LVU176
 105:Drivers/lvgl/src/misc/lv_timer.c **** 
 586              		.loc 1 105 20 is_stmt 0 view .LVU177
 587 0052 2146     		mov	r1, r4
 588 0054 3548     		ldr	r0, .L60+4
 589              	.LVL40:
 105:Drivers/lvgl/src/misc/lv_timer.c **** 
 590              		.loc 1 105 20 view .LVU178
 591 0056 FFF7FEFF 		bl	lv_ll_get_next
 592              	.LVL41:
 105:Drivers/lvgl/src/misc/lv_timer.c **** 
 593              		.loc 1 105 20 view .LVU179
 594 005a 0546     		mov	r5, r0
 595              	.LVL42:
 107:Drivers/lvgl/src/misc/lv_timer.c ****                 /*If a timer was created or deleted then this or the next item might be corrupted*/
 596              		.loc 1 107 13 is_stmt 1 view .LVU180
 107:Drivers/lvgl/src/misc/lv_timer.c ****                 /*If a timer was created or deleted then this or the next item might be corrupted*/
 597              		.loc 1 107 16 is_stmt 0 view .LVU181
 598 005c 2046     		mov	r0, r4
 599              	.LVL43:
 107:Drivers/lvgl/src/misc/lv_timer.c ****                 /*If a timer was created or deleted then this or the next item might be corrupted*/
 600              		.loc 1 107 16 view .LVU182
 601 005e FFF7FEFF 		bl	lv_timer_exec
 602              	.LVL44:
 107:Drivers/lvgl/src/misc/lv_timer.c ****                 /*If a timer was created or deleted then this or the next item might be corrupted*/
 603              		.loc 1 107 15 discriminator 1 view .LVU183
 604 0062 0028     		cmp	r0, #0
 605 0064 F3D0     		beq	.L54
 109:Drivers/lvgl/src/misc/lv_timer.c ****                     LV_TRACE_TIMER("Start from the first timer again because a timer was created or
 606              		.loc 1 109 17 is_stmt 1 view .LVU184
 109:Drivers/lvgl/src/misc/lv_timer.c ****                     LV_TRACE_TIMER("Start from the first timer again because a timer was created or
 607              		.loc 1 109 43 is_stmt 0 view .LVU185
 608 0066 304B     		ldr	r3, .L60
 609 0068 B3F88630 		ldrh	r3, [r3, #134]
 109:Drivers/lvgl/src/misc/lv_timer.c ****                     LV_TRACE_TIMER("Start from the first timer again because a timer was created or
 610              		.loc 1 109 19 view .LVU186
 611 006c 0BB9     		cbnz	r3, .L45
 612 006e 2C46     		mov	r4, r5
 613              	.LVL45:
 109:Drivers/lvgl/src/misc/lv_timer.c ****                     LV_TRACE_TIMER("Start from the first timer again because a timer was created or
 614              		.loc 1 109 19 view .LVU187
 615 0070 EEE7     		b	.L44
 616              	.LVL46:
 617              	.L45:
 117:Drivers/lvgl/src/misc/lv_timer.c **** 
 618              		.loc 1 117 13 is_stmt 1 view .LVU188
 619 0072 54B1     		cbz	r4, .L58
 620              	.LVL47:
 621              	.L47:
  97:Drivers/lvgl/src/misc/lv_timer.c ****         state_p->timer_deleted             = false;
 622              		.loc 1 97 5 view .LVU189
  98:Drivers/lvgl/src/misc/lv_timer.c ****         state_p->timer_created             = false;
 623              		.loc 1 98 9 view .LVU190
ARM GAS  /var/folders/qx/2_175_4n2s19vhvtspjhb3qh0000gn/T//cckyXFEd.s 			page 22


  98:Drivers/lvgl/src/misc/lv_timer.c ****         state_p->timer_created             = false;
 624              		.loc 1 98 44 is_stmt 0 view .LVU191
 625 0074 2C48     		ldr	r0, .L60
 626 0076 0023     		movs	r3, #0
 627 0078 80F88630 		strb	r3, [r0, #134]
  99:Drivers/lvgl/src/misc/lv_timer.c **** 
 628              		.loc 1 99 9 is_stmt 1 view .LVU192
  99:Drivers/lvgl/src/misc/lv_timer.c **** 
 629              		.loc 1 99 44 is_stmt 0 view .LVU193
 630 007c 80F88730 		strb	r3, [r0, #135]
 101:Drivers/lvgl/src/misc/lv_timer.c ****         while(timer_active) {
 631              		.loc 1 101 9 is_stmt 1 view .LVU194
 101:Drivers/lvgl/src/misc/lv_timer.c ****         while(timer_active) {
 632              		.loc 1 101 24 is_stmt 0 view .LVU195
 633 0080 7830     		adds	r0, r0, #120
 634 0082 FFF7FEFF 		bl	lv_ll_get_head
 635              	.LVL48:
 636 0086 0446     		mov	r4, r0
 637              	.LVL49:
 102:Drivers/lvgl/src/misc/lv_timer.c ****             /*The timer might be deleted if it runs only once ('repeat_count = 1')
 638              		.loc 1 102 9 is_stmt 1 view .LVU196
 102:Drivers/lvgl/src/misc/lv_timer.c ****             /*The timer might be deleted if it runs only once ('repeat_count = 1')
 639              		.loc 1 102 14 is_stmt 0 view .LVU197
 640 0088 E2E7     		b	.L44
 641              	.LVL50:
 642              	.L58:
 119:Drivers/lvgl/src/misc/lv_timer.c ****     next = lv_ll_get_head(timer_head);
 643              		.loc 1 119 5 is_stmt 1 view .LVU198
 120:Drivers/lvgl/src/misc/lv_timer.c ****     while(next) {
 644              		.loc 1 120 5 view .LVU199
 120:Drivers/lvgl/src/misc/lv_timer.c ****     while(next) {
 645              		.loc 1 120 12 is_stmt 0 view .LVU200
 646 008a 2848     		ldr	r0, .L60+4
 647              	.LVL51:
 120:Drivers/lvgl/src/misc/lv_timer.c ****     while(next) {
 648              		.loc 1 120 12 view .LVU201
 649 008c FFF7FEFF 		bl	lv_ll_get_head
 650              	.LVL52:
 120:Drivers/lvgl/src/misc/lv_timer.c ****     while(next) {
 651              		.loc 1 120 12 view .LVU202
 652 0090 0446     		mov	r4, r0
 653              	.LVL53:
 121:Drivers/lvgl/src/misc/lv_timer.c ****         if(!next->paused) {
 654              		.loc 1 121 5 is_stmt 1 view .LVU203
 119:Drivers/lvgl/src/misc/lv_timer.c ****     next = lv_ll_get_head(timer_head);
 655              		.loc 1 119 14 is_stmt 0 view .LVU204
 656 0092 4FF0FF35 		mov	r5, #-1
 121:Drivers/lvgl/src/misc/lv_timer.c ****         if(!next->paused) {
 657              		.loc 1 121 10 view .LVU205
 658 0096 04E0     		b	.L48
 659              	.LVL54:
 660              	.L49:
 128:Drivers/lvgl/src/misc/lv_timer.c ****     }
 661              		.loc 1 128 9 is_stmt 1 view .LVU206
 128:Drivers/lvgl/src/misc/lv_timer.c ****     }
 662              		.loc 1 128 16 is_stmt 0 view .LVU207
 663 0098 2146     		mov	r1, r4
ARM GAS  /var/folders/qx/2_175_4n2s19vhvtspjhb3qh0000gn/T//cckyXFEd.s 			page 23


 664 009a 2448     		ldr	r0, .L60+4
 665              	.LVL55:
 128:Drivers/lvgl/src/misc/lv_timer.c ****     }
 666              		.loc 1 128 16 view .LVU208
 667 009c FFF7FEFF 		bl	lv_ll_get_next
 668              	.LVL56:
 128:Drivers/lvgl/src/misc/lv_timer.c ****     }
 669              		.loc 1 128 16 view .LVU209
 670 00a0 0446     		mov	r4, r0
 671              	.LVL57:
 672              	.L48:
 121:Drivers/lvgl/src/misc/lv_timer.c ****         if(!next->paused) {
 673              		.loc 1 121 11 is_stmt 1 view .LVU210
 674 00a2 4CB1     		cbz	r4, .L59
 122:Drivers/lvgl/src/misc/lv_timer.c ****             uint32_t delay = lv_timer_time_remaining(next);
 675              		.loc 1 122 9 view .LVU211
 122:Drivers/lvgl/src/misc/lv_timer.c ****             uint32_t delay = lv_timer_time_remaining(next);
 676              		.loc 1 122 17 is_stmt 0 view .LVU212
 677 00a4 6369     		ldr	r3, [r4, #20]
 122:Drivers/lvgl/src/misc/lv_timer.c ****             uint32_t delay = lv_timer_time_remaining(next);
 678              		.loc 1 122 11 view .LVU213
 679 00a6 002B     		cmp	r3, #0
 680 00a8 F6D1     		bne	.L49
 681              	.LBB3:
 123:Drivers/lvgl/src/misc/lv_timer.c ****             if(delay < time_until_next)
 682              		.loc 1 123 13 is_stmt 1 view .LVU214
 123:Drivers/lvgl/src/misc/lv_timer.c ****             if(delay < time_until_next)
 683              		.loc 1 123 30 is_stmt 0 view .LVU215
 684 00aa 2046     		mov	r0, r4
 685 00ac FFF7FEFF 		bl	lv_timer_time_remaining
 686              	.LVL58:
 124:Drivers/lvgl/src/misc/lv_timer.c ****                 time_until_next = delay;
 687              		.loc 1 124 13 is_stmt 1 view .LVU216
 124:Drivers/lvgl/src/misc/lv_timer.c ****                 time_until_next = delay;
 688              		.loc 1 124 15 is_stmt 0 view .LVU217
 689 00b0 8542     		cmp	r5, r0
 690 00b2 F1D9     		bls	.L49
 125:Drivers/lvgl/src/misc/lv_timer.c ****         }
 691              		.loc 1 125 33 view .LVU218
 692 00b4 0546     		mov	r5, r0
 693              	.LVL59:
 125:Drivers/lvgl/src/misc/lv_timer.c ****         }
 694              		.loc 1 125 33 view .LVU219
 695 00b6 EFE7     		b	.L49
 696              	.LVL60:
 697              	.L59:
 125:Drivers/lvgl/src/misc/lv_timer.c ****         }
 698              		.loc 1 125 33 view .LVU220
 699              	.LBE3:
 131:Drivers/lvgl/src/misc/lv_timer.c ****     uint32_t idle_period_time = lv_tick_elaps(state_p->idle_period_start);
 700              		.loc 1 131 5 is_stmt 1 view .LVU221
 131:Drivers/lvgl/src/misc/lv_timer.c ****     uint32_t idle_period_time = lv_tick_elaps(state_p->idle_period_start);
 701              		.loc 1 131 27 is_stmt 0 view .LVU222
 702 00b8 3046     		mov	r0, r6
 703 00ba FFF7FEFF 		bl	lv_tick_elaps
 704              	.LVL61:
 131:Drivers/lvgl/src/misc/lv_timer.c ****     uint32_t idle_period_time = lv_tick_elaps(state_p->idle_period_start);
ARM GAS  /var/folders/qx/2_175_4n2s19vhvtspjhb3qh0000gn/T//cckyXFEd.s 			page 24


 705              		.loc 1 131 12 discriminator 1 view .LVU223
 706 00be 1A4B     		ldr	r3, .L60
 707 00c0 D3F89420 		ldr	r2, [r3, #148]
 131:Drivers/lvgl/src/misc/lv_timer.c ****     uint32_t idle_period_time = lv_tick_elaps(state_p->idle_period_start);
 708              		.loc 1 131 24 discriminator 1 view .LVU224
 709 00c4 0244     		add	r2, r2, r0
 710 00c6 C3F89420 		str	r2, [r3, #148]
 132:Drivers/lvgl/src/misc/lv_timer.c ****     if(idle_period_time >= IDLE_MEAS_PERIOD) {
 711              		.loc 1 132 5 is_stmt 1 view .LVU225
 132:Drivers/lvgl/src/misc/lv_timer.c ****     if(idle_period_time >= IDLE_MEAS_PERIOD) {
 712              		.loc 1 132 33 is_stmt 0 view .LVU226
 713 00ca D3F89800 		ldr	r0, [r3, #152]
 714 00ce FFF7FEFF 		bl	lv_tick_elaps
 715              	.LVL62:
 133:Drivers/lvgl/src/misc/lv_timer.c ****         state_p->idle_last         = (state_p->busy_time * 100) / idle_period_time;  /*Calculate th
 716              		.loc 1 133 5 is_stmt 1 view .LVU227
 133:Drivers/lvgl/src/misc/lv_timer.c ****         state_p->idle_last         = (state_p->busy_time * 100) / idle_period_time;  /*Calculate th
 717              		.loc 1 133 7 is_stmt 0 view .LVU228
 718 00d2 B0F5FA7F 		cmp	r0, #500
 719 00d6 18D3     		bcc	.L51
 134:Drivers/lvgl/src/misc/lv_timer.c ****         state_p->idle_last         = state_p->idle_last > 100 ? 0 : 100 - state_p->idle_last; /*But
 720              		.loc 1 134 9 is_stmt 1 view .LVU229
 134:Drivers/lvgl/src/misc/lv_timer.c ****         state_p->idle_last         = state_p->idle_last > 100 ? 0 : 100 - state_p->idle_last; /*But
 721              		.loc 1 134 46 is_stmt 0 view .LVU230
 722 00d8 134A     		ldr	r2, .L60
 723 00da D2F89430 		ldr	r3, [r2, #148]
 134:Drivers/lvgl/src/misc/lv_timer.c ****         state_p->idle_last         = state_p->idle_last > 100 ? 0 : 100 - state_p->idle_last; /*But
 724              		.loc 1 134 58 view .LVU231
 725 00de 6421     		movs	r1, #100
 726 00e0 01FB03F3 		mul	r3, r1, r3
 134:Drivers/lvgl/src/misc/lv_timer.c ****         state_p->idle_last         = state_p->idle_last > 100 ? 0 : 100 - state_p->idle_last; /*But
 727              		.loc 1 134 65 view .LVU232
 728 00e4 B3FBF0F3 		udiv	r3, r3, r0
 134:Drivers/lvgl/src/misc/lv_timer.c ****         state_p->idle_last         = state_p->idle_last > 100 ? 0 : 100 - state_p->idle_last; /*But
 729              		.loc 1 134 36 view .LVU233
 730 00e8 DBB2     		uxtb	r3, r3
 731 00ea 82F88530 		strb	r3, [r2, #133]
 135:Drivers/lvgl/src/misc/lv_timer.c ****         state_p->busy_time         = 0;
 732              		.loc 1 135 9 is_stmt 1 view .LVU234
 135:Drivers/lvgl/src/misc/lv_timer.c ****         state_p->busy_time         = 0;
 733              		.loc 1 135 36 is_stmt 0 view .LVU235
 734 00ee 8B42     		cmp	r3, r1
 735 00f0 14D8     		bhi	.L56
 135:Drivers/lvgl/src/misc/lv_timer.c ****         state_p->busy_time         = 0;
 736              		.loc 1 135 36 discriminator 1 view .LVU236
 737 00f2 CB1A     		subs	r3, r1, r3
 738 00f4 DBB2     		uxtb	r3, r3
 739              	.L52:
 135:Drivers/lvgl/src/misc/lv_timer.c ****         state_p->busy_time         = 0;
 740              		.loc 1 135 36 discriminator 4 view .LVU237
 741 00f6 0C4C     		ldr	r4, .L60
 742              	.LVL63:
 135:Drivers/lvgl/src/misc/lv_timer.c ****         state_p->busy_time         = 0;
 743              		.loc 1 135 36 discriminator 4 view .LVU238
 744 00f8 84F88530 		strb	r3, [r4, #133]
 136:Drivers/lvgl/src/misc/lv_timer.c ****         state_p->idle_period_start = lv_tick_get();
 745              		.loc 1 136 9 is_stmt 1 view .LVU239
ARM GAS  /var/folders/qx/2_175_4n2s19vhvtspjhb3qh0000gn/T//cckyXFEd.s 			page 25


 136:Drivers/lvgl/src/misc/lv_timer.c ****         state_p->idle_period_start = lv_tick_get();
 746              		.loc 1 136 36 is_stmt 0 view .LVU240
 747 00fc 0023     		movs	r3, #0
 748 00fe C4F89430 		str	r3, [r4, #148]
 137:Drivers/lvgl/src/misc/lv_timer.c ****     }
 749              		.loc 1 137 9 is_stmt 1 view .LVU241
 137:Drivers/lvgl/src/misc/lv_timer.c ****     }
 750              		.loc 1 137 38 is_stmt 0 view .LVU242
 751 0102 FFF7FEFF 		bl	lv_tick_get
 752              	.LVL64:
 137:Drivers/lvgl/src/misc/lv_timer.c ****     }
 753              		.loc 1 137 36 discriminator 1 view .LVU243
 754 0106 C4F89800 		str	r0, [r4, #152]
 755              	.L51:
 140:Drivers/lvgl/src/misc/lv_timer.c ****     state_p->already_running = false; /*Release the mutex*/
 756              		.loc 1 140 5 is_stmt 1 view .LVU244
 140:Drivers/lvgl/src/misc/lv_timer.c ****     state_p->already_running = false; /*Release the mutex*/
 757              		.loc 1 140 36 is_stmt 0 view .LVU245
 758 010a 074B     		ldr	r3, .L60
 759 010c C3F88850 		str	r5, [r3, #136]
 141:Drivers/lvgl/src/misc/lv_timer.c **** 
 760              		.loc 1 141 5 is_stmt 1 view .LVU246
 141:Drivers/lvgl/src/misc/lv_timer.c **** 
 761              		.loc 1 141 30 is_stmt 0 view .LVU247
 762 0110 0022     		movs	r2, #0
 763 0112 83F88C20 		strb	r2, [r3, #140]
 143:Drivers/lvgl/src/misc/lv_timer.c ****     lv_unlock();
 764              		.loc 1 143 94 is_stmt 1 view .LVU248
 144:Drivers/lvgl/src/misc/lv_timer.c **** 
 765              		.loc 1 144 5 view .LVU249
 766 0116 FFF7FEFF 		bl	lv_unlock
 767              	.LVL65:
 146:Drivers/lvgl/src/misc/lv_timer.c ****     return time_until_next;
 768              		.loc 1 146 26 view .LVU250
 147:Drivers/lvgl/src/misc/lv_timer.c **** }
 769              		.loc 1 147 5 view .LVU251
 147:Drivers/lvgl/src/misc/lv_timer.c **** }
 770              		.loc 1 147 12 is_stmt 0 view .LVU252
 771 011a 02E0     		b	.L40
 772              	.LVL66:
 773              	.L56:
 135:Drivers/lvgl/src/misc/lv_timer.c ****         state_p->busy_time         = 0;
 774              		.loc 1 135 36 discriminator 2 view .LVU253
 775 011c 0023     		movs	r3, #0
 776 011e EAE7     		b	.L52
 777              	.LVL67:
 778              	.L53:
  71:Drivers/lvgl/src/misc/lv_timer.c ****     }
 779              		.loc 1 71 16 view .LVU254
 780 0120 0125     		movs	r5, #1
 781              	.L40:
 148:Drivers/lvgl/src/misc/lv_timer.c **** 
 782              		.loc 1 148 1 view .LVU255
 783 0122 2846     		mov	r0, r5
 784 0124 70BD     		pop	{r4, r5, r6, pc}
 785              	.L61:
 786 0126 00BF     		.align	2
ARM GAS  /var/folders/qx/2_175_4n2s19vhvtspjhb3qh0000gn/T//cckyXFEd.s 			page 26


 787              	.L60:
 788 0128 00000000 		.word	lv_global
 789 012c 78000000 		.word	lv_global+120
 790              		.cfi_endproc
 791              	.LFE194:
 793              		.section	.text.lv_timer_periodic_handler,"ax",%progbits
 794              		.align	1
 795              		.global	lv_timer_periodic_handler
 796              		.syntax unified
 797              		.thumb
 798              		.thumb_func
 800              	lv_timer_periodic_handler:
 801              	.LFB195:
 151:Drivers/lvgl/src/misc/lv_timer.c ****     lv_timer_state_t * state_p = &state;
 802              		.loc 1 151 1 is_stmt 1 view -0
 803              		.cfi_startproc
 804              		@ args = 0, pretend = 0, frame = 0
 805              		@ frame_needed = 0, uses_anonymous_args = 0
 806 0000 10B5     		push	{r4, lr}
 807              	.LCFI7:
 808              		.cfi_def_cfa_offset 8
 809              		.cfi_offset 4, -8
 810              		.cfi_offset 14, -4
 152:Drivers/lvgl/src/misc/lv_timer.c ****     if(lv_tick_elaps(state_p->periodic_last_tick) >= state_p->timer_time_until_next) {
 811              		.loc 1 152 5 view .LVU257
 812              	.LVL68:
 153:Drivers/lvgl/src/misc/lv_timer.c ****         LV_TRACE_TIMER("calling lv_timer_handler()");
 813              		.loc 1 153 5 view .LVU258
 153:Drivers/lvgl/src/misc/lv_timer.c ****         LV_TRACE_TIMER("calling lv_timer_handler()");
 814              		.loc 1 153 8 is_stmt 0 view .LVU259
 815 0002 084C     		ldr	r4, .L66
 816 0004 D4F89000 		ldr	r0, [r4, #144]
 817 0008 FFF7FEFF 		bl	lv_tick_elaps
 818              	.LVL69:
 153:Drivers/lvgl/src/misc/lv_timer.c ****         LV_TRACE_TIMER("calling lv_timer_handler()");
 819              		.loc 1 153 61 discriminator 1 view .LVU260
 820 000c D4F88830 		ldr	r3, [r4, #136]
 153:Drivers/lvgl/src/misc/lv_timer.c ****         LV_TRACE_TIMER("calling lv_timer_handler()");
 821              		.loc 1 153 7 discriminator 1 view .LVU261
 822 0010 9842     		cmp	r0, r3
 823 0012 00D2     		bcs	.L65
 824              	.L62:
 158:Drivers/lvgl/src/misc/lv_timer.c **** 
 825              		.loc 1 158 1 view .LVU262
 826 0014 10BD     		pop	{r4, pc}
 827              	.L65:
 154:Drivers/lvgl/src/misc/lv_timer.c ****         lv_timer_handler();
 828              		.loc 1 154 53 is_stmt 1 view .LVU263
 155:Drivers/lvgl/src/misc/lv_timer.c ****         state_p->periodic_last_tick = lv_tick_get();
 829              		.loc 1 155 9 view .LVU264
 830 0016 FFF7FEFF 		bl	lv_timer_handler
 831              	.LVL70:
 156:Drivers/lvgl/src/misc/lv_timer.c ****     }
 832              		.loc 1 156 9 view .LVU265
 156:Drivers/lvgl/src/misc/lv_timer.c ****     }
 833              		.loc 1 156 39 is_stmt 0 view .LVU266
 834 001a FFF7FEFF 		bl	lv_tick_get
ARM GAS  /var/folders/qx/2_175_4n2s19vhvtspjhb3qh0000gn/T//cckyXFEd.s 			page 27


 835              	.LVL71:
 156:Drivers/lvgl/src/misc/lv_timer.c ****     }
 836              		.loc 1 156 37 discriminator 1 view .LVU267
 837 001e C4F89000 		str	r0, [r4, #144]
 158:Drivers/lvgl/src/misc/lv_timer.c **** 
 838              		.loc 1 158 1 view .LVU268
 839 0022 F7E7     		b	.L62
 840              	.L67:
 841              		.align	2
 842              	.L66:
 843 0024 00000000 		.word	lv_global
 844              		.cfi_endproc
 845              	.LFE195:
 847              		.section	.text.lv_timer_resume,"ax",%progbits
 848              		.align	1
 849              		.global	lv_timer_resume
 850              		.syntax unified
 851              		.thumb
 852              		.thumb_func
 854              	lv_timer_resume:
 855              	.LVL72:
 856              	.LFB201:
 220:Drivers/lvgl/src/misc/lv_timer.c ****     LV_ASSERT_NULL(timer);
 857              		.loc 1 220 1 is_stmt 1 view -0
 858              		.cfi_startproc
 859              		@ args = 0, pretend = 0, frame = 0
 860              		@ frame_needed = 0, uses_anonymous_args = 0
 221:Drivers/lvgl/src/misc/lv_timer.c ****     timer->paused = false;
 861              		.loc 1 221 5 view .LVU270
 221:Drivers/lvgl/src/misc/lv_timer.c ****     timer->paused = false;
 862              		.loc 1 221 5 view .LVU271
 863 0000 28B1     		cbz	r0, .L70
 220:Drivers/lvgl/src/misc/lv_timer.c ****     LV_ASSERT_NULL(timer);
 864              		.loc 1 220 1 is_stmt 0 view .LVU272
 865 0002 08B5     		push	{r3, lr}
 866              	.LCFI8:
 867              		.cfi_def_cfa_offset 8
 868              		.cfi_offset 3, -8
 869              		.cfi_offset 14, -4
 221:Drivers/lvgl/src/misc/lv_timer.c ****     timer->paused = false;
 870              		.loc 1 221 5 is_stmt 1 view .LVU273
 221:Drivers/lvgl/src/misc/lv_timer.c ****     timer->paused = false;
 871              		.loc 1 221 26 view .LVU274
 222:Drivers/lvgl/src/misc/lv_timer.c ****     lv_timer_handler_resume();
 872              		.loc 1 222 5 view .LVU275
 222:Drivers/lvgl/src/misc/lv_timer.c ****     lv_timer_handler_resume();
 873              		.loc 1 222 19 is_stmt 0 view .LVU276
 874 0004 0022     		movs	r2, #0
 875 0006 4261     		str	r2, [r0, #20]
 223:Drivers/lvgl/src/misc/lv_timer.c **** }
 876              		.loc 1 223 5 is_stmt 1 view .LVU277
 877 0008 FFF7FEFF 		bl	lv_timer_handler_resume
 878              	.LVL73:
 224:Drivers/lvgl/src/misc/lv_timer.c **** 
 879              		.loc 1 224 1 is_stmt 0 view .LVU278
 880 000c 08BD     		pop	{r3, pc}
 881              	.LVL74:
ARM GAS  /var/folders/qx/2_175_4n2s19vhvtspjhb3qh0000gn/T//cckyXFEd.s 			page 28


 882              	.L70:
 883              	.LCFI9:
 884              		.cfi_def_cfa_offset 0
 885              		.cfi_restore 3
 886              		.cfi_restore 14
 221:Drivers/lvgl/src/misc/lv_timer.c ****     timer->paused = false;
 887              		.loc 1 221 5 is_stmt 1 view .LVU279
 221:Drivers/lvgl/src/misc/lv_timer.c ****     timer->paused = false;
 888              		.loc 1 221 5 view .LVU280
 221:Drivers/lvgl/src/misc/lv_timer.c ****     timer->paused = false;
 889              		.loc 1 221 5 view .LVU281
 221:Drivers/lvgl/src/misc/lv_timer.c ****     timer->paused = false;
 890              		.loc 1 221 5 view .LVU282
 221:Drivers/lvgl/src/misc/lv_timer.c ****     timer->paused = false;
 891              		.loc 1 221 5 view .LVU283
 892 000e FEE7     		b	.L70
 893              		.cfi_endproc
 894              	.LFE201:
 896              		.section	.text.lv_timer_set_period,"ax",%progbits
 897              		.align	1
 898              		.global	lv_timer_set_period
 899              		.syntax unified
 900              		.thumb
 901              		.thumb_func
 903              	lv_timer_set_period:
 904              	.LVL75:
 905              	.LFB202:
 227:Drivers/lvgl/src/misc/lv_timer.c ****     LV_ASSERT_NULL(timer);
 906              		.loc 1 227 1 view -0
 907              		.cfi_startproc
 908              		@ args = 0, pretend = 0, frame = 0
 909              		@ frame_needed = 0, uses_anonymous_args = 0
 228:Drivers/lvgl/src/misc/lv_timer.c ****     timer->period = period;
 910              		.loc 1 228 5 view .LVU285
 228:Drivers/lvgl/src/misc/lv_timer.c ****     timer->period = period;
 911              		.loc 1 228 5 view .LVU286
 912 0000 20B1     		cbz	r0, .L75
 227:Drivers/lvgl/src/misc/lv_timer.c ****     LV_ASSERT_NULL(timer);
 913              		.loc 1 227 1 is_stmt 0 view .LVU287
 914 0002 08B5     		push	{r3, lr}
 915              	.LCFI10:
 916              		.cfi_def_cfa_offset 8
 917              		.cfi_offset 3, -8
 918              		.cfi_offset 14, -4
 228:Drivers/lvgl/src/misc/lv_timer.c ****     timer->period = period;
 919              		.loc 1 228 5 is_stmt 1 view .LVU288
 228:Drivers/lvgl/src/misc/lv_timer.c ****     timer->period = period;
 920              		.loc 1 228 26 view .LVU289
 229:Drivers/lvgl/src/misc/lv_timer.c ****     lv_timer_handler_resume();
 921              		.loc 1 229 5 view .LVU290
 229:Drivers/lvgl/src/misc/lv_timer.c ****     lv_timer_handler_resume();
 922              		.loc 1 229 19 is_stmt 0 view .LVU291
 923 0004 0160     		str	r1, [r0]
 230:Drivers/lvgl/src/misc/lv_timer.c **** }
 924              		.loc 1 230 5 is_stmt 1 view .LVU292
 925 0006 FFF7FEFF 		bl	lv_timer_handler_resume
 926              	.LVL76:
ARM GAS  /var/folders/qx/2_175_4n2s19vhvtspjhb3qh0000gn/T//cckyXFEd.s 			page 29


 231:Drivers/lvgl/src/misc/lv_timer.c **** 
 927              		.loc 1 231 1 is_stmt 0 view .LVU293
 928 000a 08BD     		pop	{r3, pc}
 929              	.LVL77:
 930              	.L75:
 931              	.LCFI11:
 932              		.cfi_def_cfa_offset 0
 933              		.cfi_restore 3
 934              		.cfi_restore 14
 228:Drivers/lvgl/src/misc/lv_timer.c ****     timer->period = period;
 935              		.loc 1 228 5 is_stmt 1 view .LVU294
 228:Drivers/lvgl/src/misc/lv_timer.c ****     timer->period = period;
 936              		.loc 1 228 5 view .LVU295
 228:Drivers/lvgl/src/misc/lv_timer.c ****     timer->period = period;
 937              		.loc 1 228 5 view .LVU296
 228:Drivers/lvgl/src/misc/lv_timer.c ****     timer->period = period;
 938              		.loc 1 228 5 view .LVU297
 228:Drivers/lvgl/src/misc/lv_timer.c ****     timer->period = period;
 939              		.loc 1 228 5 view .LVU298
 940 000c FEE7     		b	.L75
 941              		.cfi_endproc
 942              	.LFE202:
 944              		.section	.text.lv_timer_ready,"ax",%progbits
 945              		.align	1
 946              		.global	lv_timer_ready
 947              		.syntax unified
 948              		.thumb
 949              		.thumb_func
 951              	lv_timer_ready:
 952              	.LVL78:
 953              	.LFB203:
 234:Drivers/lvgl/src/misc/lv_timer.c ****     LV_ASSERT_NULL(timer);
 954              		.loc 1 234 1 view -0
 955              		.cfi_startproc
 956              		@ args = 0, pretend = 0, frame = 0
 957              		@ frame_needed = 0, uses_anonymous_args = 0
 235:Drivers/lvgl/src/misc/lv_timer.c ****     timer->last_run = lv_tick_get() - timer->period - 1;
 958              		.loc 1 235 5 view .LVU300
 235:Drivers/lvgl/src/misc/lv_timer.c ****     timer->last_run = lv_tick_get() - timer->period - 1;
 959              		.loc 1 235 5 view .LVU301
 960 0000 50B1     		cbz	r0, .L80
 234:Drivers/lvgl/src/misc/lv_timer.c ****     LV_ASSERT_NULL(timer);
 961              		.loc 1 234 1 is_stmt 0 view .LVU302
 962 0002 10B5     		push	{r4, lr}
 963              	.LCFI12:
 964              		.cfi_def_cfa_offset 8
 965              		.cfi_offset 4, -8
 966              		.cfi_offset 14, -4
 967 0004 0446     		mov	r4, r0
 235:Drivers/lvgl/src/misc/lv_timer.c ****     timer->last_run = lv_tick_get() - timer->period - 1;
 968              		.loc 1 235 5 is_stmt 1 view .LVU303
 235:Drivers/lvgl/src/misc/lv_timer.c ****     timer->last_run = lv_tick_get() - timer->period - 1;
 969              		.loc 1 235 26 view .LVU304
 236:Drivers/lvgl/src/misc/lv_timer.c ****     lv_timer_handler_resume();
 970              		.loc 1 236 5 view .LVU305
 236:Drivers/lvgl/src/misc/lv_timer.c ****     lv_timer_handler_resume();
 971              		.loc 1 236 23 is_stmt 0 view .LVU306
ARM GAS  /var/folders/qx/2_175_4n2s19vhvtspjhb3qh0000gn/T//cckyXFEd.s 			page 30


 972 0006 FFF7FEFF 		bl	lv_tick_get
 973              	.LVL79:
 236:Drivers/lvgl/src/misc/lv_timer.c ****     lv_timer_handler_resume();
 974              		.loc 1 236 44 discriminator 1 view .LVU307
 975 000a 2368     		ldr	r3, [r4]
 236:Drivers/lvgl/src/misc/lv_timer.c ****     lv_timer_handler_resume();
 976              		.loc 1 236 37 discriminator 1 view .LVU308
 977 000c C31A     		subs	r3, r0, r3
 236:Drivers/lvgl/src/misc/lv_timer.c ****     lv_timer_handler_resume();
 978              		.loc 1 236 53 discriminator 1 view .LVU309
 979 000e 013B     		subs	r3, r3, #1
 236:Drivers/lvgl/src/misc/lv_timer.c ****     lv_timer_handler_resume();
 980              		.loc 1 236 21 discriminator 1 view .LVU310
 981 0010 6360     		str	r3, [r4, #4]
 237:Drivers/lvgl/src/misc/lv_timer.c **** }
 982              		.loc 1 237 5 is_stmt 1 view .LVU311
 983 0012 FFF7FEFF 		bl	lv_timer_handler_resume
 984              	.LVL80:
 238:Drivers/lvgl/src/misc/lv_timer.c **** 
 985              		.loc 1 238 1 is_stmt 0 view .LVU312
 986 0016 10BD     		pop	{r4, pc}
 987              	.LVL81:
 988              	.L80:
 989              	.LCFI13:
 990              		.cfi_def_cfa_offset 0
 991              		.cfi_restore 4
 992              		.cfi_restore 14
 235:Drivers/lvgl/src/misc/lv_timer.c ****     timer->last_run = lv_tick_get() - timer->period - 1;
 993              		.loc 1 235 5 is_stmt 1 view .LVU313
 235:Drivers/lvgl/src/misc/lv_timer.c ****     timer->last_run = lv_tick_get() - timer->period - 1;
 994              		.loc 1 235 5 view .LVU314
 235:Drivers/lvgl/src/misc/lv_timer.c ****     timer->last_run = lv_tick_get() - timer->period - 1;
 995              		.loc 1 235 5 view .LVU315
 235:Drivers/lvgl/src/misc/lv_timer.c ****     timer->last_run = lv_tick_get() - timer->period - 1;
 996              		.loc 1 235 5 view .LVU316
 235:Drivers/lvgl/src/misc/lv_timer.c ****     timer->last_run = lv_tick_get() - timer->period - 1;
 997              		.loc 1 235 5 view .LVU317
 998 0018 FEE7     		b	.L80
 999              		.cfi_endproc
 1000              	.LFE203:
 1002              		.section	.text.lv_timer_set_repeat_count,"ax",%progbits
 1003              		.align	1
 1004              		.global	lv_timer_set_repeat_count
 1005              		.syntax unified
 1006              		.thumb
 1007              		.thumb_func
 1009              	lv_timer_set_repeat_count:
 1010              	.LVL82:
 1011              	.LFB204:
 241:Drivers/lvgl/src/misc/lv_timer.c ****     LV_ASSERT_NULL(timer);
 1012              		.loc 1 241 1 view -0
 1013              		.cfi_startproc
 1014              		@ args = 0, pretend = 0, frame = 0
 1015              		@ frame_needed = 0, uses_anonymous_args = 0
 1016              		@ link register save eliminated.
 242:Drivers/lvgl/src/misc/lv_timer.c ****     timer->repeat_count = repeat_count;
 1017              		.loc 1 242 5 view .LVU319
ARM GAS  /var/folders/qx/2_175_4n2s19vhvtspjhb3qh0000gn/T//cckyXFEd.s 			page 31


 242:Drivers/lvgl/src/misc/lv_timer.c ****     timer->repeat_count = repeat_count;
 1018              		.loc 1 242 5 view .LVU320
 1019 0000 08B1     		cbz	r0, .L85
 242:Drivers/lvgl/src/misc/lv_timer.c ****     timer->repeat_count = repeat_count;
 1020              		.loc 1 242 5 view .LVU321
 242:Drivers/lvgl/src/misc/lv_timer.c ****     timer->repeat_count = repeat_count;
 1021              		.loc 1 242 26 view .LVU322
 243:Drivers/lvgl/src/misc/lv_timer.c **** }
 1022              		.loc 1 243 5 view .LVU323
 243:Drivers/lvgl/src/misc/lv_timer.c **** }
 1023              		.loc 1 243 25 is_stmt 0 view .LVU324
 1024 0002 0161     		str	r1, [r0, #16]
 244:Drivers/lvgl/src/misc/lv_timer.c **** 
 1025              		.loc 1 244 1 view .LVU325
 1026 0004 7047     		bx	lr
 1027              	.L85:
 242:Drivers/lvgl/src/misc/lv_timer.c ****     timer->repeat_count = repeat_count;
 1028              		.loc 1 242 5 is_stmt 1 view .LVU326
 242:Drivers/lvgl/src/misc/lv_timer.c ****     timer->repeat_count = repeat_count;
 1029              		.loc 1 242 5 view .LVU327
 242:Drivers/lvgl/src/misc/lv_timer.c ****     timer->repeat_count = repeat_count;
 1030              		.loc 1 242 5 view .LVU328
 242:Drivers/lvgl/src/misc/lv_timer.c ****     timer->repeat_count = repeat_count;
 1031              		.loc 1 242 5 view .LVU329
 242:Drivers/lvgl/src/misc/lv_timer.c ****     timer->repeat_count = repeat_count;
 1032              		.loc 1 242 5 view .LVU330
 1033 0006 FEE7     		b	.L85
 1034              		.cfi_endproc
 1035              	.LFE204:
 1037              		.section	.text.lv_timer_set_auto_delete,"ax",%progbits
 1038              		.align	1
 1039              		.global	lv_timer_set_auto_delete
 1040              		.syntax unified
 1041              		.thumb
 1042              		.thumb_func
 1044              	lv_timer_set_auto_delete:
 1045              	.LVL83:
 1046              	.LFB205:
 247:Drivers/lvgl/src/misc/lv_timer.c ****     LV_ASSERT_NULL(timer);
 1047              		.loc 1 247 1 view -0
 1048              		.cfi_startproc
 1049              		@ args = 0, pretend = 0, frame = 0
 1050              		@ frame_needed = 0, uses_anonymous_args = 0
 1051              		@ link register save eliminated.
 248:Drivers/lvgl/src/misc/lv_timer.c ****     timer->auto_delete = auto_delete;
 1052              		.loc 1 248 5 view .LVU332
 248:Drivers/lvgl/src/misc/lv_timer.c ****     timer->auto_delete = auto_delete;
 1053              		.loc 1 248 5 view .LVU333
 1054 0000 20B1     		cbz	r0, .L88
 248:Drivers/lvgl/src/misc/lv_timer.c ****     timer->auto_delete = auto_delete;
 1055              		.loc 1 248 5 view .LVU334
 248:Drivers/lvgl/src/misc/lv_timer.c ****     timer->auto_delete = auto_delete;
 1056              		.loc 1 248 26 view .LVU335
 249:Drivers/lvgl/src/misc/lv_timer.c **** }
 1057              		.loc 1 249 5 view .LVU336
 249:Drivers/lvgl/src/misc/lv_timer.c **** }
 1058              		.loc 1 249 24 is_stmt 0 view .LVU337
ARM GAS  /var/folders/qx/2_175_4n2s19vhvtspjhb3qh0000gn/T//cckyXFEd.s 			page 32


 1059 0002 027E     		ldrb	r2, [r0, #24]	@ zero_extendqisi2
 1060 0004 61F30002 		bfi	r2, r1, #0, #1
 1061 0008 0276     		strb	r2, [r0, #24]
 250:Drivers/lvgl/src/misc/lv_timer.c **** 
 1062              		.loc 1 250 1 view .LVU338
 1063 000a 7047     		bx	lr
 1064              	.L88:
 248:Drivers/lvgl/src/misc/lv_timer.c ****     timer->auto_delete = auto_delete;
 1065              		.loc 1 248 5 is_stmt 1 view .LVU339
 248:Drivers/lvgl/src/misc/lv_timer.c ****     timer->auto_delete = auto_delete;
 1066              		.loc 1 248 5 view .LVU340
 248:Drivers/lvgl/src/misc/lv_timer.c ****     timer->auto_delete = auto_delete;
 1067              		.loc 1 248 5 view .LVU341
 248:Drivers/lvgl/src/misc/lv_timer.c ****     timer->auto_delete = auto_delete;
 1068              		.loc 1 248 5 view .LVU342
 248:Drivers/lvgl/src/misc/lv_timer.c ****     timer->auto_delete = auto_delete;
 1069              		.loc 1 248 5 view .LVU343
 1070 000c FEE7     		b	.L88
 1071              		.cfi_endproc
 1072              	.LFE205:
 1074              		.section	.text.lv_timer_set_user_data,"ax",%progbits
 1075              		.align	1
 1076              		.global	lv_timer_set_user_data
 1077              		.syntax unified
 1078              		.thumb
 1079              		.thumb_func
 1081              	lv_timer_set_user_data:
 1082              	.LVL84:
 1083              	.LFB206:
 253:Drivers/lvgl/src/misc/lv_timer.c ****     LV_ASSERT_NULL(timer);
 1084              		.loc 1 253 1 view -0
 1085              		.cfi_startproc
 1086              		@ args = 0, pretend = 0, frame = 0
 1087              		@ frame_needed = 0, uses_anonymous_args = 0
 1088              		@ link register save eliminated.
 254:Drivers/lvgl/src/misc/lv_timer.c ****     timer->user_data = user_data;
 1089              		.loc 1 254 5 view .LVU345
 254:Drivers/lvgl/src/misc/lv_timer.c ****     timer->user_data = user_data;
 1090              		.loc 1 254 5 view .LVU346
 1091 0000 08B1     		cbz	r0, .L91
 254:Drivers/lvgl/src/misc/lv_timer.c ****     timer->user_data = user_data;
 1092              		.loc 1 254 5 view .LVU347
 254:Drivers/lvgl/src/misc/lv_timer.c ****     timer->user_data = user_data;
 1093              		.loc 1 254 26 view .LVU348
 255:Drivers/lvgl/src/misc/lv_timer.c **** }
 1094              		.loc 1 255 5 view .LVU349
 255:Drivers/lvgl/src/misc/lv_timer.c **** }
 1095              		.loc 1 255 22 is_stmt 0 view .LVU350
 1096 0002 C160     		str	r1, [r0, #12]
 256:Drivers/lvgl/src/misc/lv_timer.c **** 
 1097              		.loc 1 256 1 view .LVU351
 1098 0004 7047     		bx	lr
 1099              	.L91:
 254:Drivers/lvgl/src/misc/lv_timer.c ****     timer->user_data = user_data;
 1100              		.loc 1 254 5 is_stmt 1 view .LVU352
 254:Drivers/lvgl/src/misc/lv_timer.c ****     timer->user_data = user_data;
 1101              		.loc 1 254 5 view .LVU353
ARM GAS  /var/folders/qx/2_175_4n2s19vhvtspjhb3qh0000gn/T//cckyXFEd.s 			page 33


 254:Drivers/lvgl/src/misc/lv_timer.c ****     timer->user_data = user_data;
 1102              		.loc 1 254 5 view .LVU354
 254:Drivers/lvgl/src/misc/lv_timer.c ****     timer->user_data = user_data;
 1103              		.loc 1 254 5 view .LVU355
 254:Drivers/lvgl/src/misc/lv_timer.c ****     timer->user_data = user_data;
 1104              		.loc 1 254 5 view .LVU356
 1105 0006 FEE7     		b	.L91
 1106              		.cfi_endproc
 1107              	.LFE206:
 1109              		.section	.text.lv_timer_reset,"ax",%progbits
 1110              		.align	1
 1111              		.global	lv_timer_reset
 1112              		.syntax unified
 1113              		.thumb
 1114              		.thumb_func
 1116              	lv_timer_reset:
 1117              	.LVL85:
 1118              	.LFB207:
 259:Drivers/lvgl/src/misc/lv_timer.c ****     LV_ASSERT_NULL(timer);
 1119              		.loc 1 259 1 view -0
 1120              		.cfi_startproc
 1121              		@ args = 0, pretend = 0, frame = 0
 1122              		@ frame_needed = 0, uses_anonymous_args = 0
 260:Drivers/lvgl/src/misc/lv_timer.c ****     timer->last_run = lv_tick_get();
 1123              		.loc 1 260 5 view .LVU358
 260:Drivers/lvgl/src/misc/lv_timer.c ****     timer->last_run = lv_tick_get();
 1124              		.loc 1 260 5 view .LVU359
 1125 0000 38B1     		cbz	r0, .L94
 259:Drivers/lvgl/src/misc/lv_timer.c ****     LV_ASSERT_NULL(timer);
 1126              		.loc 1 259 1 is_stmt 0 view .LVU360
 1127 0002 10B5     		push	{r4, lr}
 1128              	.LCFI14:
 1129              		.cfi_def_cfa_offset 8
 1130              		.cfi_offset 4, -8
 1131              		.cfi_offset 14, -4
 1132 0004 0446     		mov	r4, r0
 260:Drivers/lvgl/src/misc/lv_timer.c ****     timer->last_run = lv_tick_get();
 1133              		.loc 1 260 5 is_stmt 1 view .LVU361
 260:Drivers/lvgl/src/misc/lv_timer.c ****     timer->last_run = lv_tick_get();
 1134              		.loc 1 260 26 view .LVU362
 261:Drivers/lvgl/src/misc/lv_timer.c ****     lv_timer_handler_resume();
 1135              		.loc 1 261 5 view .LVU363
 261:Drivers/lvgl/src/misc/lv_timer.c ****     lv_timer_handler_resume();
 1136              		.loc 1 261 23 is_stmt 0 view .LVU364
 1137 0006 FFF7FEFF 		bl	lv_tick_get
 1138              	.LVL86:
 261:Drivers/lvgl/src/misc/lv_timer.c ****     lv_timer_handler_resume();
 1139              		.loc 1 261 21 discriminator 1 view .LVU365
 1140 000a 6060     		str	r0, [r4, #4]
 262:Drivers/lvgl/src/misc/lv_timer.c **** }
 1141              		.loc 1 262 5 is_stmt 1 view .LVU366
 1142 000c FFF7FEFF 		bl	lv_timer_handler_resume
 1143              	.LVL87:
 263:Drivers/lvgl/src/misc/lv_timer.c **** 
 1144              		.loc 1 263 1 is_stmt 0 view .LVU367
 1145 0010 10BD     		pop	{r4, pc}
 1146              	.LVL88:
ARM GAS  /var/folders/qx/2_175_4n2s19vhvtspjhb3qh0000gn/T//cckyXFEd.s 			page 34


 1147              	.L94:
 1148              	.LCFI15:
 1149              		.cfi_def_cfa_offset 0
 1150              		.cfi_restore 4
 1151              		.cfi_restore 14
 260:Drivers/lvgl/src/misc/lv_timer.c ****     timer->last_run = lv_tick_get();
 1152              		.loc 1 260 5 is_stmt 1 view .LVU368
 260:Drivers/lvgl/src/misc/lv_timer.c ****     timer->last_run = lv_tick_get();
 1153              		.loc 1 260 5 view .LVU369
 260:Drivers/lvgl/src/misc/lv_timer.c ****     timer->last_run = lv_tick_get();
 1154              		.loc 1 260 5 view .LVU370
 260:Drivers/lvgl/src/misc/lv_timer.c ****     timer->last_run = lv_tick_get();
 1155              		.loc 1 260 5 view .LVU371
 260:Drivers/lvgl/src/misc/lv_timer.c ****     timer->last_run = lv_tick_get();
 1156              		.loc 1 260 5 view .LVU372
 1157 0012 FEE7     		b	.L94
 1158              		.cfi_endproc
 1159              	.LFE207:
 1161              		.section	.text.lv_timer_enable,"ax",%progbits
 1162              		.align	1
 1163              		.global	lv_timer_enable
 1164              		.syntax unified
 1165              		.thumb
 1166              		.thumb_func
 1168              	lv_timer_enable:
 1169              	.LVL89:
 1170              	.LFB208:
 266:Drivers/lvgl/src/misc/lv_timer.c ****     state.lv_timer_run = en;
 1171              		.loc 1 266 1 view -0
 1172              		.cfi_startproc
 1173              		@ args = 0, pretend = 0, frame = 0
 1174              		@ frame_needed = 0, uses_anonymous_args = 0
 266:Drivers/lvgl/src/misc/lv_timer.c ****     state.lv_timer_run = en;
 1175              		.loc 1 266 1 is_stmt 0 view .LVU374
 1176 0000 08B5     		push	{r3, lr}
 1177              	.LCFI16:
 1178              		.cfi_def_cfa_offset 8
 1179              		.cfi_offset 3, -8
 1180              		.cfi_offset 14, -4
 267:Drivers/lvgl/src/misc/lv_timer.c ****     if(en) lv_timer_handler_resume();
 1181              		.loc 1 267 5 is_stmt 1 view .LVU375
 267:Drivers/lvgl/src/misc/lv_timer.c ****     if(en) lv_timer_handler_resume();
 1182              		.loc 1 267 24 is_stmt 0 view .LVU376
 1183 0002 044B     		ldr	r3, .L101
 1184 0004 83F88400 		strb	r0, [r3, #132]
 268:Drivers/lvgl/src/misc/lv_timer.c **** }
 1185              		.loc 1 268 5 is_stmt 1 view .LVU377
 268:Drivers/lvgl/src/misc/lv_timer.c **** }
 1186              		.loc 1 268 7 is_stmt 0 view .LVU378
 1187 0008 00B9     		cbnz	r0, .L100
 1188              	.LVL90:
 1189              	.L97:
 269:Drivers/lvgl/src/misc/lv_timer.c **** 
 1190              		.loc 1 269 1 view .LVU379
 1191 000a 08BD     		pop	{r3, pc}
 1192              	.LVL91:
 1193              	.L100:
ARM GAS  /var/folders/qx/2_175_4n2s19vhvtspjhb3qh0000gn/T//cckyXFEd.s 			page 35


 268:Drivers/lvgl/src/misc/lv_timer.c **** }
 1194              		.loc 1 268 12 is_stmt 1 discriminator 1 view .LVU380
 1195 000c FFF7FEFF 		bl	lv_timer_handler_resume
 1196              	.LVL92:
 269:Drivers/lvgl/src/misc/lv_timer.c **** 
 1197              		.loc 1 269 1 is_stmt 0 view .LVU381
 1198 0010 FBE7     		b	.L97
 1199              	.L102:
 1200 0012 00BF     		.align	2
 1201              	.L101:
 1202 0014 00000000 		.word	lv_global
 1203              		.cfi_endproc
 1204              	.LFE208:
 1206              		.section	.text.lv_timer_core_init,"ax",%progbits
 1207              		.align	1
 1208              		.global	lv_timer_core_init
 1209              		.syntax unified
 1210              		.thumb
 1211              		.thumb_func
 1213              	lv_timer_core_init:
 1214              	.LFB193:
  56:Drivers/lvgl/src/misc/lv_timer.c ****     lv_ll_init(timer_ll_p, sizeof(lv_timer_t));
 1215              		.loc 1 56 1 is_stmt 1 view -0
 1216              		.cfi_startproc
 1217              		@ args = 0, pretend = 0, frame = 0
 1218              		@ frame_needed = 0, uses_anonymous_args = 0
 1219 0000 08B5     		push	{r3, lr}
 1220              	.LCFI17:
 1221              		.cfi_def_cfa_offset 8
 1222              		.cfi_offset 3, -8
 1223              		.cfi_offset 14, -4
  57:Drivers/lvgl/src/misc/lv_timer.c **** 
 1224              		.loc 1 57 5 view .LVU383
 1225 0002 1C21     		movs	r1, #28
 1226 0004 0348     		ldr	r0, .L105
 1227 0006 FFF7FEFF 		bl	lv_ll_init
 1228              	.LVL93:
  60:Drivers/lvgl/src/misc/lv_timer.c **** }
 1229              		.loc 1 60 5 view .LVU384
 1230 000a 0120     		movs	r0, #1
 1231 000c FFF7FEFF 		bl	lv_timer_enable
 1232              	.LVL94:
  61:Drivers/lvgl/src/misc/lv_timer.c **** 
 1233              		.loc 1 61 1 is_stmt 0 view .LVU385
 1234 0010 08BD     		pop	{r3, pc}
 1235              	.L106:
 1236 0012 00BF     		.align	2
 1237              	.L105:
 1238 0014 78000000 		.word	lv_global+120
 1239              		.cfi_endproc
 1240              	.LFE193:
 1242              		.section	.text.lv_timer_core_deinit,"ax",%progbits
 1243              		.align	1
 1244              		.global	lv_timer_core_deinit
 1245              		.syntax unified
 1246              		.thumb
 1247              		.thumb_func
ARM GAS  /var/folders/qx/2_175_4n2s19vhvtspjhb3qh0000gn/T//cckyXFEd.s 			page 36


 1249              	lv_timer_core_deinit:
 1250              	.LFB209:
 272:Drivers/lvgl/src/misc/lv_timer.c ****     lv_timer_enable(false);
 1251              		.loc 1 272 1 is_stmt 1 view -0
 1252              		.cfi_startproc
 1253              		@ args = 0, pretend = 0, frame = 0
 1254              		@ frame_needed = 0, uses_anonymous_args = 0
 1255 0000 08B5     		push	{r3, lr}
 1256              	.LCFI18:
 1257              		.cfi_def_cfa_offset 8
 1258              		.cfi_offset 3, -8
 1259              		.cfi_offset 14, -4
 273:Drivers/lvgl/src/misc/lv_timer.c **** 
 1260              		.loc 1 273 5 view .LVU387
 1261 0002 0020     		movs	r0, #0
 1262 0004 FFF7FEFF 		bl	lv_timer_enable
 1263              	.LVL95:
 275:Drivers/lvgl/src/misc/lv_timer.c **** }
 1264              		.loc 1 275 5 view .LVU388
 1265 0008 0148     		ldr	r0, .L109
 1266 000a FFF7FEFF 		bl	lv_ll_clear
 1267              	.LVL96:
 276:Drivers/lvgl/src/misc/lv_timer.c **** 
 1268              		.loc 1 276 1 is_stmt 0 view .LVU389
 1269 000e 08BD     		pop	{r3, pc}
 1270              	.L110:
 1271              		.align	2
 1272              	.L109:
 1273 0010 78000000 		.word	lv_global+120
 1274              		.cfi_endproc
 1275              	.LFE209:
 1277              		.section	.text.lv_timer_get_idle,"ax",%progbits
 1278              		.align	1
 1279              		.global	lv_timer_get_idle
 1280              		.syntax unified
 1281              		.thumb
 1282              		.thumb_func
 1284              	lv_timer_get_idle:
 1285              	.LFB210:
 279:Drivers/lvgl/src/misc/lv_timer.c ****     return state.idle_last;
 1286              		.loc 1 279 1 is_stmt 1 view -0
 1287              		.cfi_startproc
 1288              		@ args = 0, pretend = 0, frame = 0
 1289              		@ frame_needed = 0, uses_anonymous_args = 0
 1290              		@ link register save eliminated.
 280:Drivers/lvgl/src/misc/lv_timer.c **** }
 1291              		.loc 1 280 5 view .LVU391
 281:Drivers/lvgl/src/misc/lv_timer.c **** 
 1292              		.loc 1 281 1 is_stmt 0 view .LVU392
 1293 0000 014B     		ldr	r3, .L112
 1294 0002 93F88500 		ldrb	r0, [r3, #133]	@ zero_extendqisi2
 1295 0006 7047     		bx	lr
 1296              	.L113:
 1297              		.align	2
 1298              	.L112:
 1299 0008 00000000 		.word	lv_global
 1300              		.cfi_endproc
ARM GAS  /var/folders/qx/2_175_4n2s19vhvtspjhb3qh0000gn/T//cckyXFEd.s 			page 37


 1301              	.LFE210:
 1303              		.section	.text.lv_timer_get_time_until_next,"ax",%progbits
 1304              		.align	1
 1305              		.global	lv_timer_get_time_until_next
 1306              		.syntax unified
 1307              		.thumb
 1308              		.thumb_func
 1310              	lv_timer_get_time_until_next:
 1311              	.LFB211:
 284:Drivers/lvgl/src/misc/lv_timer.c ****     return state.timer_time_until_next;
 1312              		.loc 1 284 1 is_stmt 1 view -0
 1313              		.cfi_startproc
 1314              		@ args = 0, pretend = 0, frame = 0
 1315              		@ frame_needed = 0, uses_anonymous_args = 0
 1316              		@ link register save eliminated.
 285:Drivers/lvgl/src/misc/lv_timer.c **** }
 1317              		.loc 1 285 5 view .LVU394
 285:Drivers/lvgl/src/misc/lv_timer.c **** }
 1318              		.loc 1 285 17 is_stmt 0 view .LVU395
 1319 0000 014B     		ldr	r3, .L115
 1320 0002 D3F88800 		ldr	r0, [r3, #136]
 286:Drivers/lvgl/src/misc/lv_timer.c **** 
 1321              		.loc 1 286 1 view .LVU396
 1322 0006 7047     		bx	lr
 1323              	.L116:
 1324              		.align	2
 1325              	.L115:
 1326 0008 00000000 		.word	lv_global
 1327              		.cfi_endproc
 1328              	.LFE211:
 1330              		.section	.text.lv_timer_get_next,"ax",%progbits
 1331              		.align	1
 1332              		.global	lv_timer_get_next
 1333              		.syntax unified
 1334              		.thumb
 1335              		.thumb_func
 1337              	lv_timer_get_next:
 1338              	.LVL97:
 1339              	.LFB212:
 289:Drivers/lvgl/src/misc/lv_timer.c ****     if(timer == NULL) return lv_ll_get_head(timer_ll_p);
 1340              		.loc 1 289 1 is_stmt 1 view -0
 1341              		.cfi_startproc
 1342              		@ args = 0, pretend = 0, frame = 0
 1343              		@ frame_needed = 0, uses_anonymous_args = 0
 289:Drivers/lvgl/src/misc/lv_timer.c ****     if(timer == NULL) return lv_ll_get_head(timer_ll_p);
 1344              		.loc 1 289 1 is_stmt 0 view .LVU398
 1345 0000 08B5     		push	{r3, lr}
 1346              	.LCFI19:
 1347              		.cfi_def_cfa_offset 8
 1348              		.cfi_offset 3, -8
 1349              		.cfi_offset 14, -4
 290:Drivers/lvgl/src/misc/lv_timer.c ****     else return lv_ll_get_next(timer_ll_p, timer);
 1350              		.loc 1 290 5 is_stmt 1 view .LVU399
 290:Drivers/lvgl/src/misc/lv_timer.c ****     else return lv_ll_get_next(timer_ll_p, timer);
 1351              		.loc 1 290 7 is_stmt 0 view .LVU400
 1352 0002 20B1     		cbz	r0, .L121
 1353 0004 0146     		mov	r1, r0
ARM GAS  /var/folders/qx/2_175_4n2s19vhvtspjhb3qh0000gn/T//cckyXFEd.s 			page 38


 291:Drivers/lvgl/src/misc/lv_timer.c **** }
 1354              		.loc 1 291 10 is_stmt 1 view .LVU401
 291:Drivers/lvgl/src/misc/lv_timer.c **** }
 1355              		.loc 1 291 17 is_stmt 0 view .LVU402
 1356 0006 0448     		ldr	r0, .L122
 1357              	.LVL98:
 291:Drivers/lvgl/src/misc/lv_timer.c **** }
 1358              		.loc 1 291 17 view .LVU403
 1359 0008 FFF7FEFF 		bl	lv_ll_get_next
 1360              	.LVL99:
 1361              	.L117:
 292:Drivers/lvgl/src/misc/lv_timer.c **** 
 1362              		.loc 1 292 1 view .LVU404
 1363 000c 08BD     		pop	{r3, pc}
 1364              	.LVL100:
 1365              	.L121:
 290:Drivers/lvgl/src/misc/lv_timer.c ****     else return lv_ll_get_next(timer_ll_p, timer);
 1366              		.loc 1 290 23 is_stmt 1 discriminator 1 view .LVU405
 290:Drivers/lvgl/src/misc/lv_timer.c ****     else return lv_ll_get_next(timer_ll_p, timer);
 1367              		.loc 1 290 30 is_stmt 0 discriminator 1 view .LVU406
 1368 000e 0248     		ldr	r0, .L122
 1369              	.LVL101:
 290:Drivers/lvgl/src/misc/lv_timer.c ****     else return lv_ll_get_next(timer_ll_p, timer);
 1370              		.loc 1 290 30 discriminator 1 view .LVU407
 1371 0010 FFF7FEFF 		bl	lv_ll_get_head
 1372              	.LVL102:
 290:Drivers/lvgl/src/misc/lv_timer.c ****     else return lv_ll_get_next(timer_ll_p, timer);
 1373              		.loc 1 290 30 view .LVU408
 1374 0014 FAE7     		b	.L117
 1375              	.L123:
 1376 0016 00BF     		.align	2
 1377              	.L122:
 1378 0018 78000000 		.word	lv_global+120
 1379              		.cfi_endproc
 1380              	.LFE212:
 1382              		.section	.text.lv_timer_handler_run_in_period,"ax",%progbits
 1383              		.align	1
 1384              		.global	lv_timer_handler_run_in_period
 1385              		.syntax unified
 1386              		.thumb
 1387              		.thumb_func
 1389              	lv_timer_handler_run_in_period:
 1390              	.LVL103:
 1391              	.LFB213:
 295:Drivers/lvgl/src/misc/lv_timer.c ****     static uint32_t last_tick = 0;
 1392              		.loc 1 295 1 is_stmt 1 view -0
 1393              		.cfi_startproc
 1394              		@ args = 0, pretend = 0, frame = 0
 1395              		@ frame_needed = 0, uses_anonymous_args = 0
 295:Drivers/lvgl/src/misc/lv_timer.c ****     static uint32_t last_tick = 0;
 1396              		.loc 1 295 1 is_stmt 0 view .LVU410
 1397 0000 10B5     		push	{r4, lr}
 1398              	.LCFI20:
 1399              		.cfi_def_cfa_offset 8
 1400              		.cfi_offset 4, -8
 1401              		.cfi_offset 14, -4
 1402 0002 0446     		mov	r4, r0
ARM GAS  /var/folders/qx/2_175_4n2s19vhvtspjhb3qh0000gn/T//cckyXFEd.s 			page 39


 296:Drivers/lvgl/src/misc/lv_timer.c **** 
 1403              		.loc 1 296 5 is_stmt 1 view .LVU411
 298:Drivers/lvgl/src/misc/lv_timer.c ****         last_tick = lv_tick_get();
 1404              		.loc 1 298 5 view .LVU412
 298:Drivers/lvgl/src/misc/lv_timer.c ****         last_tick = lv_tick_get();
 1405              		.loc 1 298 8 is_stmt 0 view .LVU413
 1406 0004 074B     		ldr	r3, .L129
 1407 0006 1868     		ldr	r0, [r3]
 1408              	.LVL104:
 298:Drivers/lvgl/src/misc/lv_timer.c ****         last_tick = lv_tick_get();
 1409              		.loc 1 298 8 view .LVU414
 1410 0008 FFF7FEFF 		bl	lv_tick_elaps
 1411              	.LVL105:
 298:Drivers/lvgl/src/misc/lv_timer.c ****         last_tick = lv_tick_get();
 1412              		.loc 1 298 7 discriminator 1 view .LVU415
 1413 000c A042     		cmp	r0, r4
 1414 000e 01D2     		bcs	.L128
 302:Drivers/lvgl/src/misc/lv_timer.c **** }
 1415              		.loc 1 302 12 view .LVU416
 1416 0010 0120     		movs	r0, #1
 1417              	.L124:
 303:Drivers/lvgl/src/misc/lv_timer.c **** 
 1418              		.loc 1 303 1 view .LVU417
 1419 0012 10BD     		pop	{r4, pc}
 1420              	.LVL106:
 1421              	.L128:
 299:Drivers/lvgl/src/misc/lv_timer.c ****         return lv_timer_handler();
 1422              		.loc 1 299 9 is_stmt 1 view .LVU418
 299:Drivers/lvgl/src/misc/lv_timer.c ****         return lv_timer_handler();
 1423              		.loc 1 299 21 is_stmt 0 view .LVU419
 1424 0014 FFF7FEFF 		bl	lv_tick_get
 1425              	.LVL107:
 299:Drivers/lvgl/src/misc/lv_timer.c ****         return lv_timer_handler();
 1426              		.loc 1 299 19 discriminator 1 view .LVU420
 1427 0018 024B     		ldr	r3, .L129
 1428 001a 1860     		str	r0, [r3]
 300:Drivers/lvgl/src/misc/lv_timer.c ****     }
 1429              		.loc 1 300 9 is_stmt 1 view .LVU421
 300:Drivers/lvgl/src/misc/lv_timer.c ****     }
 1430              		.loc 1 300 16 is_stmt 0 view .LVU422
 1431 001c FFF7FEFF 		bl	lv_timer_handler
 1432              	.LVL108:
 1433 0020 F7E7     		b	.L124
 1434              	.L130:
 1435 0022 00BF     		.align	2
 1436              	.L129:
 1437 0024 00000000 		.word	last_tick.0
 1438              		.cfi_endproc
 1439              	.LFE213:
 1441              		.section	.text.lv_timer_get_user_data,"ax",%progbits
 1442              		.align	1
 1443              		.global	lv_timer_get_user_data
 1444              		.syntax unified
 1445              		.thumb
 1446              		.thumb_func
 1448              	lv_timer_get_user_data:
 1449              	.LVL109:
ARM GAS  /var/folders/qx/2_175_4n2s19vhvtspjhb3qh0000gn/T//cckyXFEd.s 			page 40


 1450              	.LFB214:
 306:Drivers/lvgl/src/misc/lv_timer.c ****     return timer->user_data;
 1451              		.loc 1 306 1 is_stmt 1 view -0
 1452              		.cfi_startproc
 1453              		@ args = 0, pretend = 0, frame = 0
 1454              		@ frame_needed = 0, uses_anonymous_args = 0
 1455              		@ link register save eliminated.
 307:Drivers/lvgl/src/misc/lv_timer.c **** }
 1456              		.loc 1 307 5 view .LVU424
 308:Drivers/lvgl/src/misc/lv_timer.c **** 
 1457              		.loc 1 308 1 is_stmt 0 view .LVU425
 1458 0000 C068     		ldr	r0, [r0, #12]
 1459              	.LVL110:
 308:Drivers/lvgl/src/misc/lv_timer.c **** 
 1460              		.loc 1 308 1 view .LVU426
 1461 0002 7047     		bx	lr
 1462              		.cfi_endproc
 1463              	.LFE214:
 1465              		.section	.text.lv_timer_get_paused,"ax",%progbits
 1466              		.align	1
 1467              		.global	lv_timer_get_paused
 1468              		.syntax unified
 1469              		.thumb
 1470              		.thumb_func
 1472              	lv_timer_get_paused:
 1473              	.LVL111:
 1474              	.LFB215:
 311:Drivers/lvgl/src/misc/lv_timer.c ****     return timer->paused;
 1475              		.loc 1 311 1 is_stmt 1 view -0
 1476              		.cfi_startproc
 1477              		@ args = 0, pretend = 0, frame = 0
 1478              		@ frame_needed = 0, uses_anonymous_args = 0
 1479              		@ link register save eliminated.
 312:Drivers/lvgl/src/misc/lv_timer.c **** }
 1480              		.loc 1 312 5 view .LVU428
 312:Drivers/lvgl/src/misc/lv_timer.c **** }
 1481              		.loc 1 312 17 is_stmt 0 view .LVU429
 1482 0000 4069     		ldr	r0, [r0, #20]
 1483              	.LVL112:
 313:Drivers/lvgl/src/misc/lv_timer.c **** 
 1484              		.loc 1 313 1 view .LVU430
 1485 0002 0038     		subs	r0, r0, #0
 1486 0004 18BF     		it	ne
 1487 0006 0120     		movne	r0, #1
 1488 0008 7047     		bx	lr
 1489              		.cfi_endproc
 1490              	.LFE215:
 1492              		.section	.text.lv_timer_handler_set_resume_cb,"ax",%progbits
 1493              		.align	1
 1494              		.global	lv_timer_handler_set_resume_cb
 1495              		.syntax unified
 1496              		.thumb
 1497              		.thumb_func
 1499              	lv_timer_handler_set_resume_cb:
 1500              	.LVL113:
 1501              	.LFB219:
 409:Drivers/lvgl/src/misc/lv_timer.c **** 
ARM GAS  /var/folders/qx/2_175_4n2s19vhvtspjhb3qh0000gn/T//cckyXFEd.s 			page 41


 410:Drivers/lvgl/src/misc/lv_timer.c **** void lv_timer_handler_set_resume_cb(lv_timer_handler_resume_cb_t cb, void * data)
 411:Drivers/lvgl/src/misc/lv_timer.c **** {
 1502              		.loc 1 411 1 is_stmt 1 view -0
 1503              		.cfi_startproc
 1504              		@ args = 0, pretend = 0, frame = 0
 1505              		@ frame_needed = 0, uses_anonymous_args = 0
 1506              		@ link register save eliminated.
 412:Drivers/lvgl/src/misc/lv_timer.c ****     state.resume_cb = cb;
 1507              		.loc 1 412 5 view .LVU432
 1508              		.loc 1 412 21 is_stmt 0 view .LVU433
 1509 0000 024B     		ldr	r3, .L134
 1510 0002 C3F8A000 		str	r0, [r3, #160]
 413:Drivers/lvgl/src/misc/lv_timer.c ****     state.resume_data = data;
 1511              		.loc 1 413 5 is_stmt 1 view .LVU434
 1512              		.loc 1 413 23 is_stmt 0 view .LVU435
 1513 0006 C3F8A410 		str	r1, [r3, #164]
 414:Drivers/lvgl/src/misc/lv_timer.c **** }
 1514              		.loc 1 414 1 view .LVU436
 1515 000a 7047     		bx	lr
 1516              	.L135:
 1517              		.align	2
 1518              	.L134:
 1519 000c 00000000 		.word	lv_global
 1520              		.cfi_endproc
 1521              	.LFE219:
 1523              		.section	.bss.last_tick.0,"aw",%nobits
 1524              		.align	2
 1527              	last_tick.0:
 1528 0000 00000000 		.space	4
 1529              		.text
 1530              	.Letext0:
 1531              		.file 2 "/Applications/ArmGNUToolchain/14.3.rel1/arm-none-eabi/arm-none-eabi/include/machine/_defa
 1532              		.file 3 "/Applications/ArmGNUToolchain/14.3.rel1/arm-none-eabi/arm-none-eabi/include/sys/_stdint.h
 1533              		.file 4 "/Applications/ArmGNUToolchain/14.3.rel1/arm-none-eabi/lib/gcc/arm-none-eabi/14.3.1/includ
 1534              		.file 5 "Drivers/lvgl/src/misc/../tick/../misc/lv_types.h"
 1535              		.file 6 "Drivers/lvgl/src/misc/../core/../draw/lv_draw.h"
 1536              		.file 7 "Drivers/lvgl/src/misc/../core/../draw/lv_draw_private.h"
 1537              		.file 8 "Drivers/lvgl/src/misc/lv_timer_private.h"
 1538              		.file 9 "Drivers/lvgl/src/misc/../core/../draw/../misc/cache/class/../lv_cache_private.h"
 1539              		.file 10 "Drivers/lvgl/src/misc/../core/../draw/lv_draw_buf_private.h"
 1540              		.file 11 "Drivers/lvgl/src/misc/../core/../draw/../misc/../font/../draw/lv_draw_buf.h"
 1541              		.file 12 "Drivers/lvgl/src/misc/../tick/lv_tick.h"
 1542              		.file 13 "Drivers/lvgl/src/misc/lv_ll.h"
 1543              		.file 14 "Drivers/lvgl/src/misc/lv_timer.h"
 1544              		.file 15 "Drivers/lvgl/src/misc/../core/../draw/../misc/../font/../draw/../misc/lv_area.h"
 1545              		.file 16 "Drivers/lvgl/src/misc/../core/../draw/../misc/../font/../draw/../misc/lv_color.h"
 1546              		.file 17 "Drivers/lvgl/src/misc/../core/../draw/../misc/../font/../draw/lv_image_dsc.h"
 1547              		.file 18 "Drivers/lvgl/src/misc/../core/../draw/../misc/../layouts/lv_layout.h"
 1548              		.file 19 "Drivers/lvgl/src/misc/../core/../osal/lv_os_none.h"
 1549              		.file 20 "Drivers/lvgl/src/misc/../core/../stdlib/builtin/lv_tlsf.h"
 1550              		.file 21 "Drivers/lvgl/src/misc/../core/../misc/lv_anim_private.h"
 1551              		.file 22 "Drivers/lvgl/src/misc/../core/../tick/lv_tick_private.h"
 1552              		.file 23 "Drivers/lvgl/src/misc/../core/../draw/sw/lv_draw_sw_mask_private.h"
 1553              		.file 24 "Drivers/lvgl/src/misc/../core/../stdlib/builtin/lv_tlsf_private.h"
 1554              		.file 25 "Drivers/lvgl/src/misc/../core/../layouts/lv_layout_private.h"
 1555              		.file 26 "Drivers/lvgl/src/misc/../core/lv_global.h"
 1556              		.file 27 "Drivers/lvgl/src/misc/../core/../draw/../misc/../font/../draw/../misc/../stdlib/lv_mem.h
ARM GAS  /var/folders/qx/2_175_4n2s19vhvtspjhb3qh0000gn/T//cckyXFEd.s 			page 42


 1557              		.file 28 "Drivers/lvgl/src/misc/../core/../osal/lv_os.h"
ARM GAS  /var/folders/qx/2_175_4n2s19vhvtspjhb3qh0000gn/T//cckyXFEd.s 			page 43

