ARM GAS  /var/folders/qx/2_175_4n2s19vhvtspjhb3qh0000gn/T//ccmbJJmj.s 			page 1


   1              		.cpu cortex-m4
   2              		.arch armv7e-m
   3              		.fpu fpv4-sp-d16
   4              		.eabi_attribute 27, 1
   5              		.eabi_attribute 28, 1
   6              		.eabi_attribute 20, 1
   7              		.eabi_attribute 21, 1
   8              		.eabi_attribute 23, 3
   9              		.eabi_attribute 24, 1
  10              		.eabi_attribute 25, 1
  11              		.eabi_attribute 26, 1
  12              		.eabi_attribute 30, 1
  13              		.eabi_attribute 34, 1
  14              		.eabi_attribute 18, 4
  15              		.file	"lv_scale.c"
  16              		.text
  17              	.Ltext0:
  18              		.cfi_sections	.debug_frame
  19              		.file 1 "Drivers/lvgl/src/widgets/scale/lv_scale.c"
  20              		.section	.text.scale_store_main_line_tick_width_compensation,"ax",%progbits
  21              		.align	1
  22              		.syntax unified
  23              		.thumb
  24              		.thumb_func
  26              	scale_store_main_line_tick_width_compensation:
  27              	.LVL0:
  28              	.LFB232:
   1:Drivers/lvgl/src/widgets/scale/lv_scale.c **** /**
   2:Drivers/lvgl/src/widgets/scale/lv_scale.c ****  * @file lv_scale.c
   3:Drivers/lvgl/src/widgets/scale/lv_scale.c ****  *
   4:Drivers/lvgl/src/widgets/scale/lv_scale.c ****  */
   5:Drivers/lvgl/src/widgets/scale/lv_scale.c **** 
   6:Drivers/lvgl/src/widgets/scale/lv_scale.c **** /*********************
   7:Drivers/lvgl/src/widgets/scale/lv_scale.c ****  *      INCLUDES
   8:Drivers/lvgl/src/widgets/scale/lv_scale.c ****  *********************/
   9:Drivers/lvgl/src/widgets/scale/lv_scale.c **** #include "lv_scale_private.h"
  10:Drivers/lvgl/src/widgets/scale/lv_scale.c **** #include "../../core/lv_obj_private.h"
  11:Drivers/lvgl/src/widgets/scale/lv_scale.c **** #include "../../core/lv_obj_class_private.h"
  12:Drivers/lvgl/src/widgets/scale/lv_scale.c **** #if LV_USE_SCALE != 0
  13:Drivers/lvgl/src/widgets/scale/lv_scale.c **** 
  14:Drivers/lvgl/src/widgets/scale/lv_scale.c **** #include "../../core/lv_group.h"
  15:Drivers/lvgl/src/widgets/scale/lv_scale.c **** #include "../../misc/lv_assert.h"
  16:Drivers/lvgl/src/widgets/scale/lv_scale.c **** #include "../../misc/lv_math.h"
  17:Drivers/lvgl/src/widgets/scale/lv_scale.c **** #include "../../misc/lv_text_private.h"
  18:Drivers/lvgl/src/widgets/scale/lv_scale.c **** #include "../../core/lv_observer_private.h"
  19:Drivers/lvgl/src/widgets/scale/lv_scale.c **** #include "../../draw/lv_draw_arc.h"
  20:Drivers/lvgl/src/widgets/scale/lv_scale.c **** 
  21:Drivers/lvgl/src/widgets/scale/lv_scale.c **** /*********************
  22:Drivers/lvgl/src/widgets/scale/lv_scale.c ****  *      DEFINES
  23:Drivers/lvgl/src/widgets/scale/lv_scale.c ****  *********************/
  24:Drivers/lvgl/src/widgets/scale/lv_scale.c **** #define MY_CLASS (&lv_scale_class)
  25:Drivers/lvgl/src/widgets/scale/lv_scale.c **** 
  26:Drivers/lvgl/src/widgets/scale/lv_scale.c **** #define LV_SCALE_LABEL_TXT_LEN          (20U)
  27:Drivers/lvgl/src/widgets/scale/lv_scale.c **** #define LV_SCALE_DEFAULT_ANGLE_RANGE    ((uint32_t) 270U)
  28:Drivers/lvgl/src/widgets/scale/lv_scale.c **** #define LV_SCALE_DEFAULT_ROTATION       ((int32_t) 135U)
  29:Drivers/lvgl/src/widgets/scale/lv_scale.c **** #define LV_SCALE_TICK_IDX_DEFAULT_ID    ((uint32_t) 255U)
  30:Drivers/lvgl/src/widgets/scale/lv_scale.c **** #define LV_SCALE_DEFAULT_LABEL_GAP      ((uint32_t) 15U)
ARM GAS  /var/folders/qx/2_175_4n2s19vhvtspjhb3qh0000gn/T//ccmbJJmj.s 			page 2


  31:Drivers/lvgl/src/widgets/scale/lv_scale.c **** 
  32:Drivers/lvgl/src/widgets/scale/lv_scale.c **** /**********************
  33:Drivers/lvgl/src/widgets/scale/lv_scale.c ****  *      TYPEDEFS
  34:Drivers/lvgl/src/widgets/scale/lv_scale.c ****  **********************/
  35:Drivers/lvgl/src/widgets/scale/lv_scale.c **** 
  36:Drivers/lvgl/src/widgets/scale/lv_scale.c **** /**********************
  37:Drivers/lvgl/src/widgets/scale/lv_scale.c ****  *  STATIC PROTOTYPES
  38:Drivers/lvgl/src/widgets/scale/lv_scale.c ****  **********************/
  39:Drivers/lvgl/src/widgets/scale/lv_scale.c **** 
  40:Drivers/lvgl/src/widgets/scale/lv_scale.c **** static void lv_scale_constructor(const lv_obj_class_t * class_p, lv_obj_t * obj);
  41:Drivers/lvgl/src/widgets/scale/lv_scale.c **** static void lv_scale_destructor(const lv_obj_class_t * class_p, lv_obj_t * obj);
  42:Drivers/lvgl/src/widgets/scale/lv_scale.c **** static void lv_scale_event(const lv_obj_class_t * class_p, lv_event_t * event);
  43:Drivers/lvgl/src/widgets/scale/lv_scale.c **** 
  44:Drivers/lvgl/src/widgets/scale/lv_scale.c **** static void scale_draw_main(lv_obj_t * obj, lv_event_t * event);
  45:Drivers/lvgl/src/widgets/scale/lv_scale.c **** static void scale_draw_indicator(lv_obj_t * obj, lv_event_t * event);
  46:Drivers/lvgl/src/widgets/scale/lv_scale.c **** static void scale_draw_label(lv_obj_t * obj, lv_event_t * event, lv_draw_label_dsc_t * label_dsc,
  47:Drivers/lvgl/src/widgets/scale/lv_scale.c ****                              const uint32_t major_tick_idx, const int32_t tick_value, lv_point_t * 
  48:Drivers/lvgl/src/widgets/scale/lv_scale.c **** static void scale_calculate_main_compensation(lv_obj_t * obj);
  49:Drivers/lvgl/src/widgets/scale/lv_scale.c **** 
  50:Drivers/lvgl/src/widgets/scale/lv_scale.c **** static void scale_get_center(const lv_obj_t * obj, lv_point_t * center, int32_t * arc_r);
  51:Drivers/lvgl/src/widgets/scale/lv_scale.c **** static void scale_get_tick_points(lv_obj_t * obj, const uint32_t tick_idx, bool is_major_tick,
  52:Drivers/lvgl/src/widgets/scale/lv_scale.c ****                                   lv_point_t * tick_point_a, lv_point_t * tick_point_b);
  53:Drivers/lvgl/src/widgets/scale/lv_scale.c **** static void scale_get_label_coords(lv_obj_t * obj, lv_draw_label_dsc_t * label_dsc, lv_point_t * ti
  54:Drivers/lvgl/src/widgets/scale/lv_scale.c ****                                    lv_area_t * label_coords);
  55:Drivers/lvgl/src/widgets/scale/lv_scale.c **** static void scale_set_indicator_label_properties(lv_obj_t * obj, lv_draw_label_dsc_t * label_dsc,
  56:Drivers/lvgl/src/widgets/scale/lv_scale.c ****                                                  const lv_style_t * indicator_section_style);
  57:Drivers/lvgl/src/widgets/scale/lv_scale.c **** static void scale_set_line_properties(lv_obj_t * obj, lv_draw_line_dsc_t * line_dsc, const lv_style
  58:Drivers/lvgl/src/widgets/scale/lv_scale.c ****                                       lv_part_t part);
  59:Drivers/lvgl/src/widgets/scale/lv_scale.c **** static void scale_set_arc_properties(lv_obj_t * obj, lv_draw_arc_dsc_t * arc_dsc, const lv_style_t 
  60:Drivers/lvgl/src/widgets/scale/lv_scale.c **** /* Helpers */
  61:Drivers/lvgl/src/widgets/scale/lv_scale.c **** static void scale_find_section_tick_idx(lv_obj_t * obj);
  62:Drivers/lvgl/src/widgets/scale/lv_scale.c **** static void scale_store_main_line_tick_width_compensation(lv_obj_t * obj, const uint32_t tick_idx,
  63:Drivers/lvgl/src/widgets/scale/lv_scale.c ****                                                           const bool is_major_tick, const int32_t m
  64:Drivers/lvgl/src/widgets/scale/lv_scale.c **** static void scale_store_section_line_tick_width_compensation(lv_obj_t * obj, const bool is_major_ti
  65:Drivers/lvgl/src/widgets/scale/lv_scale.c ****                                                              lv_draw_line_dsc_t * major_tick_dsc, l
  66:Drivers/lvgl/src/widgets/scale/lv_scale.c ****                                                              const int32_t tick_value, const uint8_
  67:Drivers/lvgl/src/widgets/scale/lv_scale.c **** static void scale_build_custom_label_text(lv_obj_t * obj, lv_draw_label_dsc_t * label_dsc,
  68:Drivers/lvgl/src/widgets/scale/lv_scale.c ****                                           const uint16_t major_tick_idx);
  69:Drivers/lvgl/src/widgets/scale/lv_scale.c **** 
  70:Drivers/lvgl/src/widgets/scale/lv_scale.c **** static void scale_free_line_needle_points_cb(lv_event_t * e);
  71:Drivers/lvgl/src/widgets/scale/lv_scale.c **** 
  72:Drivers/lvgl/src/widgets/scale/lv_scale.c **** static bool scale_is_major_tick(lv_scale_t * scale, uint32_t tick_idx);
  73:Drivers/lvgl/src/widgets/scale/lv_scale.c **** 
  74:Drivers/lvgl/src/widgets/scale/lv_scale.c **** static lv_result_t update_needle(lv_scale_t * scale, lv_obj_t * needle, int32_t length, int32_t val
  75:Drivers/lvgl/src/widgets/scale/lv_scale.c **** static void needle_deleted_cb(lv_event_t * e);
  76:Drivers/lvgl/src/widgets/scale/lv_scale.c **** 
  77:Drivers/lvgl/src/widgets/scale/lv_scale.c **** #if LV_USE_OBSERVER
  78:Drivers/lvgl/src/widgets/scale/lv_scale.c ****     static void scale_section_min_value_observer_cb(lv_observer_t * observer, lv_subject_t * subjec
  79:Drivers/lvgl/src/widgets/scale/lv_scale.c ****     static void scale_section_max_value_observer_cb(lv_observer_t * observer, lv_subject_t * subjec
  80:Drivers/lvgl/src/widgets/scale/lv_scale.c **** #endif /*LV_USE_OBSERVER*/
  81:Drivers/lvgl/src/widgets/scale/lv_scale.c **** 
  82:Drivers/lvgl/src/widgets/scale/lv_scale.c **** /**********************
  83:Drivers/lvgl/src/widgets/scale/lv_scale.c ****  *  STATIC VARIABLES
  84:Drivers/lvgl/src/widgets/scale/lv_scale.c ****  **********************/
  85:Drivers/lvgl/src/widgets/scale/lv_scale.c **** 
  86:Drivers/lvgl/src/widgets/scale/lv_scale.c **** #if LV_USE_OBJ_PROPERTY
  87:Drivers/lvgl/src/widgets/scale/lv_scale.c **** static const lv_property_ops_t lv_scale_properties[] = {
ARM GAS  /var/folders/qx/2_175_4n2s19vhvtspjhb3qh0000gn/T//ccmbJJmj.s 			page 3


  88:Drivers/lvgl/src/widgets/scale/lv_scale.c ****     {
  89:Drivers/lvgl/src/widgets/scale/lv_scale.c ****         .id = LV_PROPERTY_SCALE_MODE,
  90:Drivers/lvgl/src/widgets/scale/lv_scale.c ****         .setter = lv_scale_set_mode,
  91:Drivers/lvgl/src/widgets/scale/lv_scale.c ****         .getter = lv_scale_get_mode,
  92:Drivers/lvgl/src/widgets/scale/lv_scale.c ****     },
  93:Drivers/lvgl/src/widgets/scale/lv_scale.c ****     {
  94:Drivers/lvgl/src/widgets/scale/lv_scale.c ****         .id = LV_PROPERTY_SCALE_TOTAL_TICK_COUNT,
  95:Drivers/lvgl/src/widgets/scale/lv_scale.c ****         .setter = lv_scale_set_total_tick_count,
  96:Drivers/lvgl/src/widgets/scale/lv_scale.c ****         .getter = lv_scale_get_total_tick_count,
  97:Drivers/lvgl/src/widgets/scale/lv_scale.c ****     },
  98:Drivers/lvgl/src/widgets/scale/lv_scale.c ****     {
  99:Drivers/lvgl/src/widgets/scale/lv_scale.c ****         .id = LV_PROPERTY_SCALE_MAJOR_TICK_EVERY,
 100:Drivers/lvgl/src/widgets/scale/lv_scale.c ****         .setter = lv_scale_set_major_tick_every,
 101:Drivers/lvgl/src/widgets/scale/lv_scale.c ****         .getter = lv_scale_get_major_tick_every,
 102:Drivers/lvgl/src/widgets/scale/lv_scale.c ****     },
 103:Drivers/lvgl/src/widgets/scale/lv_scale.c ****     {
 104:Drivers/lvgl/src/widgets/scale/lv_scale.c ****         .id = LV_PROPERTY_SCALE_LABEL_SHOW,
 105:Drivers/lvgl/src/widgets/scale/lv_scale.c ****         .setter = lv_scale_set_label_show,
 106:Drivers/lvgl/src/widgets/scale/lv_scale.c ****         .getter = lv_scale_get_label_show,
 107:Drivers/lvgl/src/widgets/scale/lv_scale.c ****     },
 108:Drivers/lvgl/src/widgets/scale/lv_scale.c ****     {
 109:Drivers/lvgl/src/widgets/scale/lv_scale.c ****         .id = LV_PROPERTY_SCALE_ANGLE_RANGE,
 110:Drivers/lvgl/src/widgets/scale/lv_scale.c ****         .setter = lv_scale_set_angle_range,
 111:Drivers/lvgl/src/widgets/scale/lv_scale.c ****         .getter = lv_scale_get_angle_range,
 112:Drivers/lvgl/src/widgets/scale/lv_scale.c ****     },
 113:Drivers/lvgl/src/widgets/scale/lv_scale.c ****     {
 114:Drivers/lvgl/src/widgets/scale/lv_scale.c ****         .id = LV_PROPERTY_SCALE_ROTATION,
 115:Drivers/lvgl/src/widgets/scale/lv_scale.c ****         .setter = lv_scale_set_rotation,
 116:Drivers/lvgl/src/widgets/scale/lv_scale.c ****         .getter = lv_scale_get_rotation,
 117:Drivers/lvgl/src/widgets/scale/lv_scale.c ****     },
 118:Drivers/lvgl/src/widgets/scale/lv_scale.c ****     {
 119:Drivers/lvgl/src/widgets/scale/lv_scale.c ****         .id = LV_PROPERTY_SCALE_RANGE_MIN_VALUE,
 120:Drivers/lvgl/src/widgets/scale/lv_scale.c ****         .setter = lv_scale_set_min_value,
 121:Drivers/lvgl/src/widgets/scale/lv_scale.c ****         .getter = lv_scale_get_range_min_value,
 122:Drivers/lvgl/src/widgets/scale/lv_scale.c ****     },
 123:Drivers/lvgl/src/widgets/scale/lv_scale.c ****     {
 124:Drivers/lvgl/src/widgets/scale/lv_scale.c ****         .id = LV_PROPERTY_SCALE_RANGE_MAX_VALUE,
 125:Drivers/lvgl/src/widgets/scale/lv_scale.c ****         .setter = lv_scale_set_max_value,
 126:Drivers/lvgl/src/widgets/scale/lv_scale.c ****         .getter = lv_scale_get_range_max_value,
 127:Drivers/lvgl/src/widgets/scale/lv_scale.c ****     },
 128:Drivers/lvgl/src/widgets/scale/lv_scale.c **** };
 129:Drivers/lvgl/src/widgets/scale/lv_scale.c **** #endif
 130:Drivers/lvgl/src/widgets/scale/lv_scale.c **** 
 131:Drivers/lvgl/src/widgets/scale/lv_scale.c **** const lv_obj_class_t lv_scale_class  = {
 132:Drivers/lvgl/src/widgets/scale/lv_scale.c ****     .constructor_cb = lv_scale_constructor,
 133:Drivers/lvgl/src/widgets/scale/lv_scale.c ****     .destructor_cb = lv_scale_destructor,
 134:Drivers/lvgl/src/widgets/scale/lv_scale.c ****     .event_cb = lv_scale_event,
 135:Drivers/lvgl/src/widgets/scale/lv_scale.c ****     .instance_size = sizeof(lv_scale_t),
 136:Drivers/lvgl/src/widgets/scale/lv_scale.c ****     .editable = LV_OBJ_CLASS_EDITABLE_TRUE,
 137:Drivers/lvgl/src/widgets/scale/lv_scale.c ****     .base_class = &lv_obj_class,
 138:Drivers/lvgl/src/widgets/scale/lv_scale.c ****     .name = "lv_scale",
 139:Drivers/lvgl/src/widgets/scale/lv_scale.c ****     LV_PROPERTY_CLASS_FIELDS(scale, SCALE)
 140:Drivers/lvgl/src/widgets/scale/lv_scale.c **** };
 141:Drivers/lvgl/src/widgets/scale/lv_scale.c **** 
 142:Drivers/lvgl/src/widgets/scale/lv_scale.c **** /**********************
 143:Drivers/lvgl/src/widgets/scale/lv_scale.c ****  *      MACROS
 144:Drivers/lvgl/src/widgets/scale/lv_scale.c ****  **********************/
ARM GAS  /var/folders/qx/2_175_4n2s19vhvtspjhb3qh0000gn/T//ccmbJJmj.s 			page 4


 145:Drivers/lvgl/src/widgets/scale/lv_scale.c **** 
 146:Drivers/lvgl/src/widgets/scale/lv_scale.c **** /**********************
 147:Drivers/lvgl/src/widgets/scale/lv_scale.c ****  *   GLOBAL FUNCTIONS
 148:Drivers/lvgl/src/widgets/scale/lv_scale.c ****  **********************/
 149:Drivers/lvgl/src/widgets/scale/lv_scale.c **** 
 150:Drivers/lvgl/src/widgets/scale/lv_scale.c **** lv_obj_t * lv_scale_create(lv_obj_t * parent)
 151:Drivers/lvgl/src/widgets/scale/lv_scale.c **** {
 152:Drivers/lvgl/src/widgets/scale/lv_scale.c ****     LV_LOG_INFO("begin");
 153:Drivers/lvgl/src/widgets/scale/lv_scale.c ****     lv_obj_t * obj = lv_obj_class_create_obj(MY_CLASS, parent);
 154:Drivers/lvgl/src/widgets/scale/lv_scale.c ****     lv_obj_class_init_obj(obj);
 155:Drivers/lvgl/src/widgets/scale/lv_scale.c ****     return obj;
 156:Drivers/lvgl/src/widgets/scale/lv_scale.c **** }
 157:Drivers/lvgl/src/widgets/scale/lv_scale.c **** 
 158:Drivers/lvgl/src/widgets/scale/lv_scale.c **** /*======================
 159:Drivers/lvgl/src/widgets/scale/lv_scale.c ****  * Add/remove functions
 160:Drivers/lvgl/src/widgets/scale/lv_scale.c ****  *=====================*/
 161:Drivers/lvgl/src/widgets/scale/lv_scale.c **** 
 162:Drivers/lvgl/src/widgets/scale/lv_scale.c **** /*
 163:Drivers/lvgl/src/widgets/scale/lv_scale.c ****  * New object specific "add" or "remove" functions come here
 164:Drivers/lvgl/src/widgets/scale/lv_scale.c ****  */
 165:Drivers/lvgl/src/widgets/scale/lv_scale.c **** 
 166:Drivers/lvgl/src/widgets/scale/lv_scale.c **** /*=====================
 167:Drivers/lvgl/src/widgets/scale/lv_scale.c ****  * Setter functions
 168:Drivers/lvgl/src/widgets/scale/lv_scale.c ****  *====================*/
 169:Drivers/lvgl/src/widgets/scale/lv_scale.c **** 
 170:Drivers/lvgl/src/widgets/scale/lv_scale.c **** void lv_scale_set_mode(lv_obj_t * obj, lv_scale_mode_t mode)
 171:Drivers/lvgl/src/widgets/scale/lv_scale.c **** {
 172:Drivers/lvgl/src/widgets/scale/lv_scale.c ****     LV_ASSERT_OBJ(obj, MY_CLASS);
 173:Drivers/lvgl/src/widgets/scale/lv_scale.c ****     lv_scale_t * scale = (lv_scale_t *)obj;
 174:Drivers/lvgl/src/widgets/scale/lv_scale.c **** 
 175:Drivers/lvgl/src/widgets/scale/lv_scale.c ****     scale->mode = mode;
 176:Drivers/lvgl/src/widgets/scale/lv_scale.c **** 
 177:Drivers/lvgl/src/widgets/scale/lv_scale.c ****     lv_obj_invalidate(obj);
 178:Drivers/lvgl/src/widgets/scale/lv_scale.c **** }
 179:Drivers/lvgl/src/widgets/scale/lv_scale.c **** 
 180:Drivers/lvgl/src/widgets/scale/lv_scale.c **** void lv_scale_set_total_tick_count(lv_obj_t * obj, uint32_t total_tick_count)
 181:Drivers/lvgl/src/widgets/scale/lv_scale.c **** {
 182:Drivers/lvgl/src/widgets/scale/lv_scale.c ****     LV_ASSERT_OBJ(obj, MY_CLASS);
 183:Drivers/lvgl/src/widgets/scale/lv_scale.c ****     lv_scale_t * scale = (lv_scale_t *)obj;
 184:Drivers/lvgl/src/widgets/scale/lv_scale.c **** 
 185:Drivers/lvgl/src/widgets/scale/lv_scale.c ****     scale->total_tick_count = total_tick_count;
 186:Drivers/lvgl/src/widgets/scale/lv_scale.c **** 
 187:Drivers/lvgl/src/widgets/scale/lv_scale.c ****     lv_obj_invalidate(obj);
 188:Drivers/lvgl/src/widgets/scale/lv_scale.c **** }
 189:Drivers/lvgl/src/widgets/scale/lv_scale.c **** 
 190:Drivers/lvgl/src/widgets/scale/lv_scale.c **** void lv_scale_set_major_tick_every(lv_obj_t * obj, uint32_t major_tick_every)
 191:Drivers/lvgl/src/widgets/scale/lv_scale.c **** {
 192:Drivers/lvgl/src/widgets/scale/lv_scale.c ****     LV_ASSERT_OBJ(obj, MY_CLASS);
 193:Drivers/lvgl/src/widgets/scale/lv_scale.c ****     lv_scale_t * scale = (lv_scale_t *)obj;
 194:Drivers/lvgl/src/widgets/scale/lv_scale.c **** 
 195:Drivers/lvgl/src/widgets/scale/lv_scale.c ****     scale->major_tick_every = major_tick_every;
 196:Drivers/lvgl/src/widgets/scale/lv_scale.c **** 
 197:Drivers/lvgl/src/widgets/scale/lv_scale.c ****     lv_obj_invalidate(obj);
 198:Drivers/lvgl/src/widgets/scale/lv_scale.c **** }
 199:Drivers/lvgl/src/widgets/scale/lv_scale.c **** 
 200:Drivers/lvgl/src/widgets/scale/lv_scale.c **** void lv_scale_set_label_show(lv_obj_t * obj, bool show_label)
 201:Drivers/lvgl/src/widgets/scale/lv_scale.c **** {
ARM GAS  /var/folders/qx/2_175_4n2s19vhvtspjhb3qh0000gn/T//ccmbJJmj.s 			page 5


 202:Drivers/lvgl/src/widgets/scale/lv_scale.c ****     LV_ASSERT_OBJ(obj, MY_CLASS);
 203:Drivers/lvgl/src/widgets/scale/lv_scale.c ****     lv_scale_t * scale = (lv_scale_t *)obj;
 204:Drivers/lvgl/src/widgets/scale/lv_scale.c **** 
 205:Drivers/lvgl/src/widgets/scale/lv_scale.c ****     scale->label_enabled = show_label;
 206:Drivers/lvgl/src/widgets/scale/lv_scale.c **** 
 207:Drivers/lvgl/src/widgets/scale/lv_scale.c ****     lv_obj_invalidate(obj);
 208:Drivers/lvgl/src/widgets/scale/lv_scale.c **** }
 209:Drivers/lvgl/src/widgets/scale/lv_scale.c **** 
 210:Drivers/lvgl/src/widgets/scale/lv_scale.c **** void lv_scale_set_range(lv_obj_t * obj, int32_t min, int32_t max)
 211:Drivers/lvgl/src/widgets/scale/lv_scale.c **** {
 212:Drivers/lvgl/src/widgets/scale/lv_scale.c ****     LV_ASSERT_OBJ(obj, MY_CLASS);
 213:Drivers/lvgl/src/widgets/scale/lv_scale.c ****     lv_scale_t * scale = (lv_scale_t *)obj;
 214:Drivers/lvgl/src/widgets/scale/lv_scale.c **** 
 215:Drivers/lvgl/src/widgets/scale/lv_scale.c ****     scale->range_min = min;
 216:Drivers/lvgl/src/widgets/scale/lv_scale.c ****     scale->range_max = max;
 217:Drivers/lvgl/src/widgets/scale/lv_scale.c **** 
 218:Drivers/lvgl/src/widgets/scale/lv_scale.c ****     lv_obj_invalidate(obj);
 219:Drivers/lvgl/src/widgets/scale/lv_scale.c **** }
 220:Drivers/lvgl/src/widgets/scale/lv_scale.c **** 
 221:Drivers/lvgl/src/widgets/scale/lv_scale.c **** void lv_scale_set_min_value(lv_obj_t * obj, int32_t min)
 222:Drivers/lvgl/src/widgets/scale/lv_scale.c **** {
 223:Drivers/lvgl/src/widgets/scale/lv_scale.c ****     LV_ASSERT_OBJ(obj, MY_CLASS);
 224:Drivers/lvgl/src/widgets/scale/lv_scale.c ****     lv_scale_t * scale = (lv_scale_t *)obj;
 225:Drivers/lvgl/src/widgets/scale/lv_scale.c ****     if(scale->range_min == min) return;
 226:Drivers/lvgl/src/widgets/scale/lv_scale.c ****     scale->range_min = min;
 227:Drivers/lvgl/src/widgets/scale/lv_scale.c **** 
 228:Drivers/lvgl/src/widgets/scale/lv_scale.c ****     lv_obj_invalidate(obj);
 229:Drivers/lvgl/src/widgets/scale/lv_scale.c **** }
 230:Drivers/lvgl/src/widgets/scale/lv_scale.c **** 
 231:Drivers/lvgl/src/widgets/scale/lv_scale.c **** void lv_scale_set_max_value(lv_obj_t * obj, int32_t max)
 232:Drivers/lvgl/src/widgets/scale/lv_scale.c **** {
 233:Drivers/lvgl/src/widgets/scale/lv_scale.c ****     LV_ASSERT_OBJ(obj, MY_CLASS);
 234:Drivers/lvgl/src/widgets/scale/lv_scale.c ****     lv_scale_t * scale = (lv_scale_t *)obj;
 235:Drivers/lvgl/src/widgets/scale/lv_scale.c ****     if(scale->range_max == max) return;
 236:Drivers/lvgl/src/widgets/scale/lv_scale.c ****     scale->range_max = max;
 237:Drivers/lvgl/src/widgets/scale/lv_scale.c **** 
 238:Drivers/lvgl/src/widgets/scale/lv_scale.c ****     lv_obj_invalidate(obj);
 239:Drivers/lvgl/src/widgets/scale/lv_scale.c **** }
 240:Drivers/lvgl/src/widgets/scale/lv_scale.c **** 
 241:Drivers/lvgl/src/widgets/scale/lv_scale.c **** void lv_scale_set_angle_range(lv_obj_t * obj, uint32_t angle_range)
 242:Drivers/lvgl/src/widgets/scale/lv_scale.c **** {
 243:Drivers/lvgl/src/widgets/scale/lv_scale.c ****     LV_ASSERT_OBJ(obj, MY_CLASS);
 244:Drivers/lvgl/src/widgets/scale/lv_scale.c ****     lv_scale_t * scale = (lv_scale_t *)obj;
 245:Drivers/lvgl/src/widgets/scale/lv_scale.c **** 
 246:Drivers/lvgl/src/widgets/scale/lv_scale.c ****     scale->angle_range = angle_range;
 247:Drivers/lvgl/src/widgets/scale/lv_scale.c **** 
 248:Drivers/lvgl/src/widgets/scale/lv_scale.c ****     lv_obj_invalidate(obj);
 249:Drivers/lvgl/src/widgets/scale/lv_scale.c **** }
 250:Drivers/lvgl/src/widgets/scale/lv_scale.c **** 
 251:Drivers/lvgl/src/widgets/scale/lv_scale.c **** void lv_scale_set_rotation(lv_obj_t * obj, int32_t rotation)
 252:Drivers/lvgl/src/widgets/scale/lv_scale.c **** {
 253:Drivers/lvgl/src/widgets/scale/lv_scale.c ****     LV_ASSERT_OBJ(obj, MY_CLASS);
 254:Drivers/lvgl/src/widgets/scale/lv_scale.c ****     lv_scale_t * scale = (lv_scale_t *)obj;
 255:Drivers/lvgl/src/widgets/scale/lv_scale.c ****     int32_t normalized_angle = rotation;
 256:Drivers/lvgl/src/widgets/scale/lv_scale.c **** 
 257:Drivers/lvgl/src/widgets/scale/lv_scale.c ****     if(normalized_angle < 0 || normalized_angle > 360) {
 258:Drivers/lvgl/src/widgets/scale/lv_scale.c ****         normalized_angle = rotation % 360;
ARM GAS  /var/folders/qx/2_175_4n2s19vhvtspjhb3qh0000gn/T//ccmbJJmj.s 			page 6


 259:Drivers/lvgl/src/widgets/scale/lv_scale.c **** 
 260:Drivers/lvgl/src/widgets/scale/lv_scale.c ****         if(normalized_angle < 0) {
 261:Drivers/lvgl/src/widgets/scale/lv_scale.c ****             normalized_angle += 360;
 262:Drivers/lvgl/src/widgets/scale/lv_scale.c ****         }
 263:Drivers/lvgl/src/widgets/scale/lv_scale.c ****     }
 264:Drivers/lvgl/src/widgets/scale/lv_scale.c **** 
 265:Drivers/lvgl/src/widgets/scale/lv_scale.c ****     scale->rotation = normalized_angle;
 266:Drivers/lvgl/src/widgets/scale/lv_scale.c ****     lv_obj_invalidate(obj);
 267:Drivers/lvgl/src/widgets/scale/lv_scale.c **** }
 268:Drivers/lvgl/src/widgets/scale/lv_scale.c **** 
 269:Drivers/lvgl/src/widgets/scale/lv_scale.c **** void lv_scale_set_line_needle_value(lv_obj_t * obj, lv_obj_t * needle_line, int32_t needle_length,
 270:Drivers/lvgl/src/widgets/scale/lv_scale.c ****                                     int32_t value)
 271:Drivers/lvgl/src/widgets/scale/lv_scale.c **** {
 272:Drivers/lvgl/src/widgets/scale/lv_scale.c ****     int32_t angle;
 273:Drivers/lvgl/src/widgets/scale/lv_scale.c ****     int32_t scale_width, scale_height;
 274:Drivers/lvgl/src/widgets/scale/lv_scale.c ****     int32_t actual_needle_length;
 275:Drivers/lvgl/src/widgets/scale/lv_scale.c ****     int32_t needle_length_x, needle_length_y;
 276:Drivers/lvgl/src/widgets/scale/lv_scale.c ****     lv_point_precise_t * needle_line_points = NULL;
 277:Drivers/lvgl/src/widgets/scale/lv_scale.c **** 
 278:Drivers/lvgl/src/widgets/scale/lv_scale.c ****     LV_ASSERT_OBJ(obj, MY_CLASS);
 279:Drivers/lvgl/src/widgets/scale/lv_scale.c ****     lv_scale_t * scale = (lv_scale_t *)obj;
 280:Drivers/lvgl/src/widgets/scale/lv_scale.c ****     if((scale->mode != LV_SCALE_MODE_ROUND_INNER) &&
 281:Drivers/lvgl/src/widgets/scale/lv_scale.c ****        (scale->mode != LV_SCALE_MODE_ROUND_OUTER)) {
 282:Drivers/lvgl/src/widgets/scale/lv_scale.c ****         return;
 283:Drivers/lvgl/src/widgets/scale/lv_scale.c ****     }
 284:Drivers/lvgl/src/widgets/scale/lv_scale.c **** 
 285:Drivers/lvgl/src/widgets/scale/lv_scale.c ****     lv_obj_align(needle_line, LV_ALIGN_TOP_LEFT, 0, 0);
 286:Drivers/lvgl/src/widgets/scale/lv_scale.c **** 
 287:Drivers/lvgl/src/widgets/scale/lv_scale.c ****     scale_width = lv_obj_get_style_width(obj, LV_PART_MAIN);
 288:Drivers/lvgl/src/widgets/scale/lv_scale.c ****     scale_height = lv_obj_get_style_height(obj, LV_PART_MAIN);
 289:Drivers/lvgl/src/widgets/scale/lv_scale.c **** 
 290:Drivers/lvgl/src/widgets/scale/lv_scale.c ****     if(scale_width != scale_height) {
 291:Drivers/lvgl/src/widgets/scale/lv_scale.c ****         return;
 292:Drivers/lvgl/src/widgets/scale/lv_scale.c ****     }
 293:Drivers/lvgl/src/widgets/scale/lv_scale.c **** 
 294:Drivers/lvgl/src/widgets/scale/lv_scale.c ****     if(needle_length >= scale_width / 2) {
 295:Drivers/lvgl/src/widgets/scale/lv_scale.c ****         actual_needle_length = scale_width / 2;
 296:Drivers/lvgl/src/widgets/scale/lv_scale.c ****     }
 297:Drivers/lvgl/src/widgets/scale/lv_scale.c ****     else if(needle_length >= 0) {
 298:Drivers/lvgl/src/widgets/scale/lv_scale.c ****         actual_needle_length = needle_length;
 299:Drivers/lvgl/src/widgets/scale/lv_scale.c ****     }
 300:Drivers/lvgl/src/widgets/scale/lv_scale.c ****     else if(needle_length + scale_width / 2 < 0) {
 301:Drivers/lvgl/src/widgets/scale/lv_scale.c ****         actual_needle_length = 0;
 302:Drivers/lvgl/src/widgets/scale/lv_scale.c ****     }
 303:Drivers/lvgl/src/widgets/scale/lv_scale.c ****     else {
 304:Drivers/lvgl/src/widgets/scale/lv_scale.c ****         actual_needle_length = scale_width / 2 + needle_length;
 305:Drivers/lvgl/src/widgets/scale/lv_scale.c ****     }
 306:Drivers/lvgl/src/widgets/scale/lv_scale.c **** 
 307:Drivers/lvgl/src/widgets/scale/lv_scale.c ****     if(value < scale->range_min) {
 308:Drivers/lvgl/src/widgets/scale/lv_scale.c ****         angle = 0;
 309:Drivers/lvgl/src/widgets/scale/lv_scale.c ****     }
 310:Drivers/lvgl/src/widgets/scale/lv_scale.c ****     else if(value > scale->range_max) {
 311:Drivers/lvgl/src/widgets/scale/lv_scale.c ****         angle = scale->angle_range;
 312:Drivers/lvgl/src/widgets/scale/lv_scale.c ****     }
 313:Drivers/lvgl/src/widgets/scale/lv_scale.c ****     else {
 314:Drivers/lvgl/src/widgets/scale/lv_scale.c ****         angle = scale->angle_range * (value - scale->range_min) / (scale->range_max - scale->range_
 315:Drivers/lvgl/src/widgets/scale/lv_scale.c ****     }
ARM GAS  /var/folders/qx/2_175_4n2s19vhvtspjhb3qh0000gn/T//ccmbJJmj.s 			page 7


 316:Drivers/lvgl/src/widgets/scale/lv_scale.c **** 
 317:Drivers/lvgl/src/widgets/scale/lv_scale.c ****     needle_length_x = (actual_needle_length * lv_trigo_cos(scale->rotation + angle)) >> LV_TRIGO_SH
 318:Drivers/lvgl/src/widgets/scale/lv_scale.c ****     needle_length_y = (actual_needle_length * lv_trigo_sin(scale->rotation + angle)) >> LV_TRIGO_SH
 319:Drivers/lvgl/src/widgets/scale/lv_scale.c **** 
 320:Drivers/lvgl/src/widgets/scale/lv_scale.c ****     if(lv_line_is_point_array_mutable(needle_line) && lv_line_get_point_count(needle_line) >= 2) {
 321:Drivers/lvgl/src/widgets/scale/lv_scale.c ****         needle_line_points = lv_line_get_points_mutable(needle_line);
 322:Drivers/lvgl/src/widgets/scale/lv_scale.c ****     }
 323:Drivers/lvgl/src/widgets/scale/lv_scale.c **** 
 324:Drivers/lvgl/src/widgets/scale/lv_scale.c ****     if(needle_line_points == NULL) {
 325:Drivers/lvgl/src/widgets/scale/lv_scale.c ****         uint32_t i;
 326:Drivers/lvgl/src/widgets/scale/lv_scale.c ****         uint32_t line_event_cnt = lv_obj_get_event_count(needle_line);
 327:Drivers/lvgl/src/widgets/scale/lv_scale.c ****         for(i = 0; i < line_event_cnt; i++) {
 328:Drivers/lvgl/src/widgets/scale/lv_scale.c ****             lv_event_dsc_t * dsc = lv_obj_get_event_dsc(needle_line, i);
 329:Drivers/lvgl/src/widgets/scale/lv_scale.c ****             if(lv_event_dsc_get_cb(dsc) == scale_free_line_needle_points_cb) {
 330:Drivers/lvgl/src/widgets/scale/lv_scale.c ****                 needle_line_points = lv_event_dsc_get_user_data(dsc);
 331:Drivers/lvgl/src/widgets/scale/lv_scale.c ****                 break;
 332:Drivers/lvgl/src/widgets/scale/lv_scale.c ****             }
 333:Drivers/lvgl/src/widgets/scale/lv_scale.c ****         }
 334:Drivers/lvgl/src/widgets/scale/lv_scale.c ****     }
 335:Drivers/lvgl/src/widgets/scale/lv_scale.c **** 
 336:Drivers/lvgl/src/widgets/scale/lv_scale.c ****     if(needle_line_points == NULL) {
 337:Drivers/lvgl/src/widgets/scale/lv_scale.c ****         needle_line_points = lv_malloc(sizeof(lv_point_precise_t) * 2);
 338:Drivers/lvgl/src/widgets/scale/lv_scale.c ****         LV_ASSERT_MALLOC(needle_line_points);
 339:Drivers/lvgl/src/widgets/scale/lv_scale.c ****         if(needle_line_points == NULL) return;
 340:Drivers/lvgl/src/widgets/scale/lv_scale.c ****         lv_obj_add_event_cb(needle_line, scale_free_line_needle_points_cb, LV_EVENT_DELETE, needle_
 341:Drivers/lvgl/src/widgets/scale/lv_scale.c ****     }
 342:Drivers/lvgl/src/widgets/scale/lv_scale.c **** 
 343:Drivers/lvgl/src/widgets/scale/lv_scale.c ****     needle_line_points[0].x = scale_width / 2;
 344:Drivers/lvgl/src/widgets/scale/lv_scale.c ****     needle_line_points[0].y = scale_height / 2;
 345:Drivers/lvgl/src/widgets/scale/lv_scale.c ****     needle_line_points[1].x = scale_width / 2 + needle_length_x;
 346:Drivers/lvgl/src/widgets/scale/lv_scale.c ****     needle_line_points[1].y = scale_height / 2 + needle_length_y;
 347:Drivers/lvgl/src/widgets/scale/lv_scale.c **** 
 348:Drivers/lvgl/src/widgets/scale/lv_scale.c ****     lv_line_set_points_mutable(needle_line, needle_line_points, 2);
 349:Drivers/lvgl/src/widgets/scale/lv_scale.c **** 
 350:Drivers/lvgl/src/widgets/scale/lv_scale.c ****     update_needle(scale, needle_line, needle_length, value);
 351:Drivers/lvgl/src/widgets/scale/lv_scale.c **** }
 352:Drivers/lvgl/src/widgets/scale/lv_scale.c **** 
 353:Drivers/lvgl/src/widgets/scale/lv_scale.c **** void lv_scale_set_image_needle_value(lv_obj_t * obj, lv_obj_t * needle_img, int32_t value)
 354:Drivers/lvgl/src/widgets/scale/lv_scale.c **** {
 355:Drivers/lvgl/src/widgets/scale/lv_scale.c ****     int32_t angle;
 356:Drivers/lvgl/src/widgets/scale/lv_scale.c ****     LV_ASSERT_OBJ(obj, MY_CLASS);
 357:Drivers/lvgl/src/widgets/scale/lv_scale.c ****     lv_scale_t * scale = (lv_scale_t *)obj;
 358:Drivers/lvgl/src/widgets/scale/lv_scale.c ****     if((scale->mode != LV_SCALE_MODE_ROUND_INNER) &&
 359:Drivers/lvgl/src/widgets/scale/lv_scale.c ****        (scale->mode != LV_SCALE_MODE_ROUND_OUTER)) {
 360:Drivers/lvgl/src/widgets/scale/lv_scale.c ****         return;
 361:Drivers/lvgl/src/widgets/scale/lv_scale.c ****     }
 362:Drivers/lvgl/src/widgets/scale/lv_scale.c **** 
 363:Drivers/lvgl/src/widgets/scale/lv_scale.c ****     if(value < scale->range_min) {
 364:Drivers/lvgl/src/widgets/scale/lv_scale.c ****         angle = 0;
 365:Drivers/lvgl/src/widgets/scale/lv_scale.c ****     }
 366:Drivers/lvgl/src/widgets/scale/lv_scale.c ****     else if(value > scale->range_max) {
 367:Drivers/lvgl/src/widgets/scale/lv_scale.c ****         angle = scale->angle_range;
 368:Drivers/lvgl/src/widgets/scale/lv_scale.c ****     }
 369:Drivers/lvgl/src/widgets/scale/lv_scale.c ****     else {
 370:Drivers/lvgl/src/widgets/scale/lv_scale.c ****         angle = scale->angle_range * (value - scale->range_min) / (scale->range_max - scale->range_
 371:Drivers/lvgl/src/widgets/scale/lv_scale.c ****     }
 372:Drivers/lvgl/src/widgets/scale/lv_scale.c **** 
ARM GAS  /var/folders/qx/2_175_4n2s19vhvtspjhb3qh0000gn/T//ccmbJJmj.s 			page 8


 373:Drivers/lvgl/src/widgets/scale/lv_scale.c ****     lv_image_set_rotation(needle_img, (scale->rotation + angle) * 10);
 374:Drivers/lvgl/src/widgets/scale/lv_scale.c ****     update_needle(scale, needle_img, 0, value);
 375:Drivers/lvgl/src/widgets/scale/lv_scale.c **** }
 376:Drivers/lvgl/src/widgets/scale/lv_scale.c **** 
 377:Drivers/lvgl/src/widgets/scale/lv_scale.c **** void lv_scale_set_text_src(lv_obj_t * obj, const char * txt_src[])
 378:Drivers/lvgl/src/widgets/scale/lv_scale.c **** {
 379:Drivers/lvgl/src/widgets/scale/lv_scale.c ****     LV_ASSERT_OBJ(obj, MY_CLASS);
 380:Drivers/lvgl/src/widgets/scale/lv_scale.c ****     lv_scale_t * scale = (lv_scale_t *)obj;
 381:Drivers/lvgl/src/widgets/scale/lv_scale.c **** 
 382:Drivers/lvgl/src/widgets/scale/lv_scale.c ****     scale->txt_src = txt_src;
 383:Drivers/lvgl/src/widgets/scale/lv_scale.c ****     scale->custom_label_cnt = 0;
 384:Drivers/lvgl/src/widgets/scale/lv_scale.c ****     if(scale->txt_src) {
 385:Drivers/lvgl/src/widgets/scale/lv_scale.c ****         int32_t idx;
 386:Drivers/lvgl/src/widgets/scale/lv_scale.c ****         for(idx = 0; txt_src[idx]; ++idx) {
 387:Drivers/lvgl/src/widgets/scale/lv_scale.c ****             scale->custom_label_cnt++;
 388:Drivers/lvgl/src/widgets/scale/lv_scale.c ****         }
 389:Drivers/lvgl/src/widgets/scale/lv_scale.c ****     }
 390:Drivers/lvgl/src/widgets/scale/lv_scale.c **** 
 391:Drivers/lvgl/src/widgets/scale/lv_scale.c ****     lv_obj_invalidate(obj);
 392:Drivers/lvgl/src/widgets/scale/lv_scale.c **** }
 393:Drivers/lvgl/src/widgets/scale/lv_scale.c **** 
 394:Drivers/lvgl/src/widgets/scale/lv_scale.c **** void lv_scale_set_post_draw(lv_obj_t * obj, bool en)
 395:Drivers/lvgl/src/widgets/scale/lv_scale.c **** {
 396:Drivers/lvgl/src/widgets/scale/lv_scale.c ****     LV_ASSERT_OBJ(obj, MY_CLASS);
 397:Drivers/lvgl/src/widgets/scale/lv_scale.c ****     lv_scale_t * scale = (lv_scale_t *)obj;
 398:Drivers/lvgl/src/widgets/scale/lv_scale.c **** 
 399:Drivers/lvgl/src/widgets/scale/lv_scale.c ****     scale->post_draw = en;
 400:Drivers/lvgl/src/widgets/scale/lv_scale.c **** 
 401:Drivers/lvgl/src/widgets/scale/lv_scale.c ****     lv_obj_invalidate(obj);
 402:Drivers/lvgl/src/widgets/scale/lv_scale.c **** }
 403:Drivers/lvgl/src/widgets/scale/lv_scale.c **** 
 404:Drivers/lvgl/src/widgets/scale/lv_scale.c **** void lv_scale_set_draw_ticks_on_top(lv_obj_t * obj, bool en)
 405:Drivers/lvgl/src/widgets/scale/lv_scale.c **** {
 406:Drivers/lvgl/src/widgets/scale/lv_scale.c ****     LV_ASSERT_OBJ(obj, MY_CLASS);
 407:Drivers/lvgl/src/widgets/scale/lv_scale.c ****     lv_scale_t * scale = (lv_scale_t *)obj;
 408:Drivers/lvgl/src/widgets/scale/lv_scale.c **** 
 409:Drivers/lvgl/src/widgets/scale/lv_scale.c ****     scale->draw_ticks_on_top = en;
 410:Drivers/lvgl/src/widgets/scale/lv_scale.c **** 
 411:Drivers/lvgl/src/widgets/scale/lv_scale.c ****     lv_obj_invalidate(obj);
 412:Drivers/lvgl/src/widgets/scale/lv_scale.c **** }
 413:Drivers/lvgl/src/widgets/scale/lv_scale.c **** 
 414:Drivers/lvgl/src/widgets/scale/lv_scale.c **** lv_scale_section_t * lv_scale_add_section(lv_obj_t * obj)
 415:Drivers/lvgl/src/widgets/scale/lv_scale.c **** {
 416:Drivers/lvgl/src/widgets/scale/lv_scale.c ****     LV_ASSERT_OBJ(obj, MY_CLASS);
 417:Drivers/lvgl/src/widgets/scale/lv_scale.c **** 
 418:Drivers/lvgl/src/widgets/scale/lv_scale.c ****     lv_scale_t * scale = (lv_scale_t *)obj;
 419:Drivers/lvgl/src/widgets/scale/lv_scale.c ****     lv_scale_section_t * section = lv_ll_ins_head(&scale->section_ll);
 420:Drivers/lvgl/src/widgets/scale/lv_scale.c ****     LV_ASSERT_MALLOC(section);
 421:Drivers/lvgl/src/widgets/scale/lv_scale.c ****     if(section == NULL) return NULL;
 422:Drivers/lvgl/src/widgets/scale/lv_scale.c **** 
 423:Drivers/lvgl/src/widgets/scale/lv_scale.c ****     /* Section default values */
 424:Drivers/lvgl/src/widgets/scale/lv_scale.c ****     lv_memzero(section, sizeof(lv_scale_section_t));
 425:Drivers/lvgl/src/widgets/scale/lv_scale.c ****     section->first_tick_idx_in_section = LV_SCALE_TICK_IDX_DEFAULT_ID;
 426:Drivers/lvgl/src/widgets/scale/lv_scale.c ****     section->last_tick_idx_in_section = LV_SCALE_TICK_IDX_DEFAULT_ID;
 427:Drivers/lvgl/src/widgets/scale/lv_scale.c ****     /* Initial range is [0..-1] to make it "neutral" (i.e. will not be drawn until user
 428:Drivers/lvgl/src/widgets/scale/lv_scale.c ****      * sets a different range).  `range_min` is already 0 from `lv_memzero()` above. */
 429:Drivers/lvgl/src/widgets/scale/lv_scale.c ****     section->range_max = -1;
ARM GAS  /var/folders/qx/2_175_4n2s19vhvtspjhb3qh0000gn/T//ccmbJJmj.s 			page 9


 430:Drivers/lvgl/src/widgets/scale/lv_scale.c **** 
 431:Drivers/lvgl/src/widgets/scale/lv_scale.c ****     return section;
 432:Drivers/lvgl/src/widgets/scale/lv_scale.c **** }
 433:Drivers/lvgl/src/widgets/scale/lv_scale.c **** 
 434:Drivers/lvgl/src/widgets/scale/lv_scale.c **** 
 435:Drivers/lvgl/src/widgets/scale/lv_scale.c **** void lv_scale_set_section_range(lv_obj_t * scale, lv_scale_section_t * section, int32_t min, int32_
 436:Drivers/lvgl/src/widgets/scale/lv_scale.c **** {
 437:Drivers/lvgl/src/widgets/scale/lv_scale.c ****     LV_ASSERT_OBJ(scale, MY_CLASS);
 438:Drivers/lvgl/src/widgets/scale/lv_scale.c ****     LV_ASSERT_NULL(section);
 439:Drivers/lvgl/src/widgets/scale/lv_scale.c **** 
 440:Drivers/lvgl/src/widgets/scale/lv_scale.c ****     lv_scale_set_section_min_value(scale, section, min);
 441:Drivers/lvgl/src/widgets/scale/lv_scale.c ****     lv_scale_set_section_max_value(scale, section, max);
 442:Drivers/lvgl/src/widgets/scale/lv_scale.c **** }
 443:Drivers/lvgl/src/widgets/scale/lv_scale.c **** 
 444:Drivers/lvgl/src/widgets/scale/lv_scale.c **** void lv_scale_set_section_min_value(lv_obj_t * scale, lv_scale_section_t * section, int32_t min)
 445:Drivers/lvgl/src/widgets/scale/lv_scale.c **** {
 446:Drivers/lvgl/src/widgets/scale/lv_scale.c ****     LV_ASSERT_OBJ(scale, MY_CLASS);
 447:Drivers/lvgl/src/widgets/scale/lv_scale.c ****     LV_ASSERT_NULL(section);
 448:Drivers/lvgl/src/widgets/scale/lv_scale.c **** 
 449:Drivers/lvgl/src/widgets/scale/lv_scale.c ****     if(section->range_min == min) return;
 450:Drivers/lvgl/src/widgets/scale/lv_scale.c ****     section->range_min = min;
 451:Drivers/lvgl/src/widgets/scale/lv_scale.c ****     lv_obj_invalidate(scale);
 452:Drivers/lvgl/src/widgets/scale/lv_scale.c **** }
 453:Drivers/lvgl/src/widgets/scale/lv_scale.c **** 
 454:Drivers/lvgl/src/widgets/scale/lv_scale.c **** void lv_scale_set_section_max_value(lv_obj_t * scale, lv_scale_section_t * section, int32_t max)
 455:Drivers/lvgl/src/widgets/scale/lv_scale.c **** {
 456:Drivers/lvgl/src/widgets/scale/lv_scale.c ****     LV_ASSERT_OBJ(scale, MY_CLASS);
 457:Drivers/lvgl/src/widgets/scale/lv_scale.c ****     LV_ASSERT_NULL(section);
 458:Drivers/lvgl/src/widgets/scale/lv_scale.c **** 
 459:Drivers/lvgl/src/widgets/scale/lv_scale.c ****     if(section->range_max == max) return;
 460:Drivers/lvgl/src/widgets/scale/lv_scale.c ****     section->range_max = max;
 461:Drivers/lvgl/src/widgets/scale/lv_scale.c ****     lv_obj_invalidate(scale);
 462:Drivers/lvgl/src/widgets/scale/lv_scale.c **** }
 463:Drivers/lvgl/src/widgets/scale/lv_scale.c **** 
 464:Drivers/lvgl/src/widgets/scale/lv_scale.c **** void lv_scale_section_set_range(lv_scale_section_t * section, int32_t min, int32_t max)
 465:Drivers/lvgl/src/widgets/scale/lv_scale.c **** {
 466:Drivers/lvgl/src/widgets/scale/lv_scale.c ****     if(NULL == section) return;
 467:Drivers/lvgl/src/widgets/scale/lv_scale.c **** 
 468:Drivers/lvgl/src/widgets/scale/lv_scale.c ****     section->range_min = min;
 469:Drivers/lvgl/src/widgets/scale/lv_scale.c ****     section->range_max = max;
 470:Drivers/lvgl/src/widgets/scale/lv_scale.c **** }
 471:Drivers/lvgl/src/widgets/scale/lv_scale.c **** 
 472:Drivers/lvgl/src/widgets/scale/lv_scale.c **** 
 473:Drivers/lvgl/src/widgets/scale/lv_scale.c **** void lv_scale_set_section_style_main(lv_obj_t * scale, lv_scale_section_t * section, const lv_style
 474:Drivers/lvgl/src/widgets/scale/lv_scale.c **** {
 475:Drivers/lvgl/src/widgets/scale/lv_scale.c ****     LV_ASSERT_OBJ(scale, MY_CLASS);
 476:Drivers/lvgl/src/widgets/scale/lv_scale.c ****     LV_ASSERT_NULL(section);
 477:Drivers/lvgl/src/widgets/scale/lv_scale.c **** 
 478:Drivers/lvgl/src/widgets/scale/lv_scale.c ****     section->main_style = style;
 479:Drivers/lvgl/src/widgets/scale/lv_scale.c ****     lv_obj_invalidate(scale);
 480:Drivers/lvgl/src/widgets/scale/lv_scale.c **** }
 481:Drivers/lvgl/src/widgets/scale/lv_scale.c **** 
 482:Drivers/lvgl/src/widgets/scale/lv_scale.c **** void lv_scale_set_section_style_indicator(lv_obj_t * scale, lv_scale_section_t * section, const lv_
 483:Drivers/lvgl/src/widgets/scale/lv_scale.c **** {
 484:Drivers/lvgl/src/widgets/scale/lv_scale.c ****     LV_ASSERT_OBJ(scale, MY_CLASS);
 485:Drivers/lvgl/src/widgets/scale/lv_scale.c ****     LV_ASSERT_NULL(section);
 486:Drivers/lvgl/src/widgets/scale/lv_scale.c **** 
ARM GAS  /var/folders/qx/2_175_4n2s19vhvtspjhb3qh0000gn/T//ccmbJJmj.s 			page 10


 487:Drivers/lvgl/src/widgets/scale/lv_scale.c ****     section->indicator_style = style;
 488:Drivers/lvgl/src/widgets/scale/lv_scale.c ****     lv_obj_invalidate(scale);
 489:Drivers/lvgl/src/widgets/scale/lv_scale.c **** }
 490:Drivers/lvgl/src/widgets/scale/lv_scale.c **** 
 491:Drivers/lvgl/src/widgets/scale/lv_scale.c **** void lv_scale_set_section_style_items(lv_obj_t * scale, lv_scale_section_t * section, const lv_styl
 492:Drivers/lvgl/src/widgets/scale/lv_scale.c **** {
 493:Drivers/lvgl/src/widgets/scale/lv_scale.c ****     LV_ASSERT_OBJ(scale, MY_CLASS);
 494:Drivers/lvgl/src/widgets/scale/lv_scale.c ****     LV_ASSERT_NULL(section);
 495:Drivers/lvgl/src/widgets/scale/lv_scale.c **** 
 496:Drivers/lvgl/src/widgets/scale/lv_scale.c ****     section->items_style = style;
 497:Drivers/lvgl/src/widgets/scale/lv_scale.c ****     lv_obj_invalidate(scale);
 498:Drivers/lvgl/src/widgets/scale/lv_scale.c **** }
 499:Drivers/lvgl/src/widgets/scale/lv_scale.c **** 
 500:Drivers/lvgl/src/widgets/scale/lv_scale.c **** void lv_scale_section_set_style(lv_scale_section_t * section, lv_part_t part, lv_style_t * section_
 501:Drivers/lvgl/src/widgets/scale/lv_scale.c **** {
 502:Drivers/lvgl/src/widgets/scale/lv_scale.c ****     LV_LOG_WARN("Deprecated, use lv_scale_set_section_style_main/indicator/items instead");
 503:Drivers/lvgl/src/widgets/scale/lv_scale.c **** 
 504:Drivers/lvgl/src/widgets/scale/lv_scale.c ****     if(NULL == section) return;
 505:Drivers/lvgl/src/widgets/scale/lv_scale.c **** 
 506:Drivers/lvgl/src/widgets/scale/lv_scale.c ****     switch(part) {
 507:Drivers/lvgl/src/widgets/scale/lv_scale.c ****         case LV_PART_MAIN:
 508:Drivers/lvgl/src/widgets/scale/lv_scale.c ****             section->main_style = section_part_style;
 509:Drivers/lvgl/src/widgets/scale/lv_scale.c ****             break;
 510:Drivers/lvgl/src/widgets/scale/lv_scale.c ****         case LV_PART_INDICATOR:
 511:Drivers/lvgl/src/widgets/scale/lv_scale.c ****             section->indicator_style = section_part_style;
 512:Drivers/lvgl/src/widgets/scale/lv_scale.c ****             break;
 513:Drivers/lvgl/src/widgets/scale/lv_scale.c ****         case LV_PART_ITEMS:
 514:Drivers/lvgl/src/widgets/scale/lv_scale.c ****             section->items_style = section_part_style;
 515:Drivers/lvgl/src/widgets/scale/lv_scale.c ****             break;
 516:Drivers/lvgl/src/widgets/scale/lv_scale.c ****         default:
 517:Drivers/lvgl/src/widgets/scale/lv_scale.c ****             /* Invalid part */
 518:Drivers/lvgl/src/widgets/scale/lv_scale.c ****             break;
 519:Drivers/lvgl/src/widgets/scale/lv_scale.c ****     }
 520:Drivers/lvgl/src/widgets/scale/lv_scale.c **** }
 521:Drivers/lvgl/src/widgets/scale/lv_scale.c **** 
 522:Drivers/lvgl/src/widgets/scale/lv_scale.c **** /*=====================
 523:Drivers/lvgl/src/widgets/scale/lv_scale.c ****  * Getter functions
 524:Drivers/lvgl/src/widgets/scale/lv_scale.c ****  *====================*/
 525:Drivers/lvgl/src/widgets/scale/lv_scale.c **** 
 526:Drivers/lvgl/src/widgets/scale/lv_scale.c **** lv_scale_mode_t lv_scale_get_mode(lv_obj_t * obj)
 527:Drivers/lvgl/src/widgets/scale/lv_scale.c **** {
 528:Drivers/lvgl/src/widgets/scale/lv_scale.c ****     lv_scale_t * scale = (lv_scale_t *)obj;
 529:Drivers/lvgl/src/widgets/scale/lv_scale.c ****     return scale->mode;
 530:Drivers/lvgl/src/widgets/scale/lv_scale.c **** }
 531:Drivers/lvgl/src/widgets/scale/lv_scale.c **** 
 532:Drivers/lvgl/src/widgets/scale/lv_scale.c **** int32_t lv_scale_get_total_tick_count(lv_obj_t * obj)
 533:Drivers/lvgl/src/widgets/scale/lv_scale.c **** {
 534:Drivers/lvgl/src/widgets/scale/lv_scale.c ****     lv_scale_t * scale = (lv_scale_t *)obj;
 535:Drivers/lvgl/src/widgets/scale/lv_scale.c ****     return scale->total_tick_count;
 536:Drivers/lvgl/src/widgets/scale/lv_scale.c **** }
 537:Drivers/lvgl/src/widgets/scale/lv_scale.c **** 
 538:Drivers/lvgl/src/widgets/scale/lv_scale.c **** int32_t lv_scale_get_major_tick_every(lv_obj_t * obj)
 539:Drivers/lvgl/src/widgets/scale/lv_scale.c **** {
 540:Drivers/lvgl/src/widgets/scale/lv_scale.c ****     lv_scale_t * scale = (lv_scale_t *)obj;
 541:Drivers/lvgl/src/widgets/scale/lv_scale.c ****     return scale->major_tick_every;
 542:Drivers/lvgl/src/widgets/scale/lv_scale.c **** }
 543:Drivers/lvgl/src/widgets/scale/lv_scale.c **** 
ARM GAS  /var/folders/qx/2_175_4n2s19vhvtspjhb3qh0000gn/T//ccmbJJmj.s 			page 11


 544:Drivers/lvgl/src/widgets/scale/lv_scale.c **** int32_t lv_scale_get_rotation(lv_obj_t * obj)
 545:Drivers/lvgl/src/widgets/scale/lv_scale.c **** {
 546:Drivers/lvgl/src/widgets/scale/lv_scale.c ****     lv_scale_t * scale = (lv_scale_t *)obj;
 547:Drivers/lvgl/src/widgets/scale/lv_scale.c ****     return scale->rotation;
 548:Drivers/lvgl/src/widgets/scale/lv_scale.c **** }
 549:Drivers/lvgl/src/widgets/scale/lv_scale.c **** 
 550:Drivers/lvgl/src/widgets/scale/lv_scale.c **** bool lv_scale_get_label_show(lv_obj_t * obj)
 551:Drivers/lvgl/src/widgets/scale/lv_scale.c **** {
 552:Drivers/lvgl/src/widgets/scale/lv_scale.c ****     lv_scale_t * scale = (lv_scale_t *)obj;
 553:Drivers/lvgl/src/widgets/scale/lv_scale.c ****     return scale->label_enabled;
 554:Drivers/lvgl/src/widgets/scale/lv_scale.c **** }
 555:Drivers/lvgl/src/widgets/scale/lv_scale.c **** 
 556:Drivers/lvgl/src/widgets/scale/lv_scale.c **** uint32_t lv_scale_get_angle_range(lv_obj_t * obj)
 557:Drivers/lvgl/src/widgets/scale/lv_scale.c **** {
 558:Drivers/lvgl/src/widgets/scale/lv_scale.c ****     lv_scale_t * scale = (lv_scale_t *)obj;
 559:Drivers/lvgl/src/widgets/scale/lv_scale.c ****     return scale->angle_range;
 560:Drivers/lvgl/src/widgets/scale/lv_scale.c **** }
 561:Drivers/lvgl/src/widgets/scale/lv_scale.c **** 
 562:Drivers/lvgl/src/widgets/scale/lv_scale.c **** int32_t lv_scale_get_range_min_value(lv_obj_t * obj)
 563:Drivers/lvgl/src/widgets/scale/lv_scale.c **** {
 564:Drivers/lvgl/src/widgets/scale/lv_scale.c ****     lv_scale_t * scale = (lv_scale_t *)obj;
 565:Drivers/lvgl/src/widgets/scale/lv_scale.c ****     return scale->range_min;
 566:Drivers/lvgl/src/widgets/scale/lv_scale.c **** }
 567:Drivers/lvgl/src/widgets/scale/lv_scale.c **** 
 568:Drivers/lvgl/src/widgets/scale/lv_scale.c **** int32_t lv_scale_get_range_max_value(lv_obj_t * obj)
 569:Drivers/lvgl/src/widgets/scale/lv_scale.c **** {
 570:Drivers/lvgl/src/widgets/scale/lv_scale.c ****     lv_scale_t * scale = (lv_scale_t *)obj;
 571:Drivers/lvgl/src/widgets/scale/lv_scale.c ****     return scale->range_max;
 572:Drivers/lvgl/src/widgets/scale/lv_scale.c **** }
 573:Drivers/lvgl/src/widgets/scale/lv_scale.c **** 
 574:Drivers/lvgl/src/widgets/scale/lv_scale.c **** /*=====================
 575:Drivers/lvgl/src/widgets/scale/lv_scale.c ****  * Other functions
 576:Drivers/lvgl/src/widgets/scale/lv_scale.c ****  *====================*/
 577:Drivers/lvgl/src/widgets/scale/lv_scale.c **** 
 578:Drivers/lvgl/src/widgets/scale/lv_scale.c **** #if LV_USE_OBSERVER
 579:Drivers/lvgl/src/widgets/scale/lv_scale.c **** 
 580:Drivers/lvgl/src/widgets/scale/lv_scale.c **** lv_observer_t * lv_scale_bind_section_min_value(lv_obj_t * obj, lv_scale_section_t * section, lv_su
 581:Drivers/lvgl/src/widgets/scale/lv_scale.c **** {
 582:Drivers/lvgl/src/widgets/scale/lv_scale.c ****     LV_ASSERT_NULL(subject);
 583:Drivers/lvgl/src/widgets/scale/lv_scale.c ****     LV_ASSERT_OBJ(obj, MY_CLASS);
 584:Drivers/lvgl/src/widgets/scale/lv_scale.c ****     LV_ASSERT_NULL(section);
 585:Drivers/lvgl/src/widgets/scale/lv_scale.c **** 
 586:Drivers/lvgl/src/widgets/scale/lv_scale.c ****     if(subject->type != LV_SUBJECT_TYPE_INT) {
 587:Drivers/lvgl/src/widgets/scale/lv_scale.c ****         LV_LOG_WARN("Incompatible subject type: %d", subject->type);
 588:Drivers/lvgl/src/widgets/scale/lv_scale.c ****         return NULL;
 589:Drivers/lvgl/src/widgets/scale/lv_scale.c ****     }
 590:Drivers/lvgl/src/widgets/scale/lv_scale.c **** 
 591:Drivers/lvgl/src/widgets/scale/lv_scale.c ****     lv_observer_t * observer = lv_subject_add_observer_obj(subject, scale_section_min_value_observe
 592:Drivers/lvgl/src/widgets/scale/lv_scale.c **** 
 593:Drivers/lvgl/src/widgets/scale/lv_scale.c ****     return observer;
 594:Drivers/lvgl/src/widgets/scale/lv_scale.c **** }
 595:Drivers/lvgl/src/widgets/scale/lv_scale.c **** 
 596:Drivers/lvgl/src/widgets/scale/lv_scale.c **** lv_observer_t * lv_scale_bind_section_max_value(lv_obj_t * obj, lv_scale_section_t * section, lv_su
 597:Drivers/lvgl/src/widgets/scale/lv_scale.c **** {
 598:Drivers/lvgl/src/widgets/scale/lv_scale.c ****     LV_ASSERT_NULL(subject);
 599:Drivers/lvgl/src/widgets/scale/lv_scale.c ****     LV_ASSERT_OBJ(obj, MY_CLASS);
 600:Drivers/lvgl/src/widgets/scale/lv_scale.c ****     LV_ASSERT_NULL(section);
ARM GAS  /var/folders/qx/2_175_4n2s19vhvtspjhb3qh0000gn/T//ccmbJJmj.s 			page 12


 601:Drivers/lvgl/src/widgets/scale/lv_scale.c **** 
 602:Drivers/lvgl/src/widgets/scale/lv_scale.c ****     if(subject->type != LV_SUBJECT_TYPE_INT) {
 603:Drivers/lvgl/src/widgets/scale/lv_scale.c ****         LV_LOG_WARN("Incompatible subject type: %d", subject->type);
 604:Drivers/lvgl/src/widgets/scale/lv_scale.c ****         return NULL;
 605:Drivers/lvgl/src/widgets/scale/lv_scale.c ****     }
 606:Drivers/lvgl/src/widgets/scale/lv_scale.c **** 
 607:Drivers/lvgl/src/widgets/scale/lv_scale.c ****     lv_observer_t * observer = lv_subject_add_observer_obj(subject, scale_section_max_value_observe
 608:Drivers/lvgl/src/widgets/scale/lv_scale.c **** 
 609:Drivers/lvgl/src/widgets/scale/lv_scale.c ****     return observer;
 610:Drivers/lvgl/src/widgets/scale/lv_scale.c **** }
 611:Drivers/lvgl/src/widgets/scale/lv_scale.c **** 
 612:Drivers/lvgl/src/widgets/scale/lv_scale.c **** #endif /*LV_USE_OBSERVER*/
 613:Drivers/lvgl/src/widgets/scale/lv_scale.c **** 
 614:Drivers/lvgl/src/widgets/scale/lv_scale.c **** /**********************
 615:Drivers/lvgl/src/widgets/scale/lv_scale.c ****  *   STATIC FUNCTIONS
 616:Drivers/lvgl/src/widgets/scale/lv_scale.c ****  **********************/
 617:Drivers/lvgl/src/widgets/scale/lv_scale.c **** 
 618:Drivers/lvgl/src/widgets/scale/lv_scale.c **** static void lv_scale_constructor(const lv_obj_class_t * class_p, lv_obj_t * obj)
 619:Drivers/lvgl/src/widgets/scale/lv_scale.c **** {
 620:Drivers/lvgl/src/widgets/scale/lv_scale.c ****     LV_UNUSED(class_p);
 621:Drivers/lvgl/src/widgets/scale/lv_scale.c ****     LV_TRACE_OBJ_CREATE("begin");
 622:Drivers/lvgl/src/widgets/scale/lv_scale.c **** 
 623:Drivers/lvgl/src/widgets/scale/lv_scale.c ****     lv_scale_t * scale = (lv_scale_t *)obj;
 624:Drivers/lvgl/src/widgets/scale/lv_scale.c **** 
 625:Drivers/lvgl/src/widgets/scale/lv_scale.c ****     lv_ll_init(&scale->section_ll, sizeof(lv_scale_section_t));
 626:Drivers/lvgl/src/widgets/scale/lv_scale.c **** 
 627:Drivers/lvgl/src/widgets/scale/lv_scale.c ****     scale->total_tick_count = LV_SCALE_TOTAL_TICK_COUNT_DEFAULT;
 628:Drivers/lvgl/src/widgets/scale/lv_scale.c ****     scale->major_tick_every = LV_SCALE_MAJOR_TICK_EVERY_DEFAULT;
 629:Drivers/lvgl/src/widgets/scale/lv_scale.c ****     scale->mode = LV_SCALE_MODE_HORIZONTAL_BOTTOM;
 630:Drivers/lvgl/src/widgets/scale/lv_scale.c ****     scale->label_enabled = LV_SCALE_LABEL_ENABLED_DEFAULT;
 631:Drivers/lvgl/src/widgets/scale/lv_scale.c ****     scale->angle_range = LV_SCALE_DEFAULT_ANGLE_RANGE;
 632:Drivers/lvgl/src/widgets/scale/lv_scale.c ****     scale->rotation = LV_SCALE_DEFAULT_ROTATION;
 633:Drivers/lvgl/src/widgets/scale/lv_scale.c ****     scale->range_min = 0;
 634:Drivers/lvgl/src/widgets/scale/lv_scale.c ****     scale->range_max = 100;
 635:Drivers/lvgl/src/widgets/scale/lv_scale.c ****     scale->last_tick_width = 0;
 636:Drivers/lvgl/src/widgets/scale/lv_scale.c ****     scale->first_tick_width = 0;
 637:Drivers/lvgl/src/widgets/scale/lv_scale.c ****     scale->post_draw = false;
 638:Drivers/lvgl/src/widgets/scale/lv_scale.c ****     scale->draw_ticks_on_top = false;
 639:Drivers/lvgl/src/widgets/scale/lv_scale.c ****     scale->custom_label_cnt = 0;
 640:Drivers/lvgl/src/widgets/scale/lv_scale.c ****     scale->txt_src = NULL;
 641:Drivers/lvgl/src/widgets/scale/lv_scale.c ****     lv_array_init(&scale->needles, 0, sizeof(lv_scale_needle_t));
 642:Drivers/lvgl/src/widgets/scale/lv_scale.c **** 
 643:Drivers/lvgl/src/widgets/scale/lv_scale.c ****     lv_obj_remove_flag(obj, LV_OBJ_FLAG_SCROLLABLE);
 644:Drivers/lvgl/src/widgets/scale/lv_scale.c **** 
 645:Drivers/lvgl/src/widgets/scale/lv_scale.c ****     LV_TRACE_OBJ_CREATE("finished");
 646:Drivers/lvgl/src/widgets/scale/lv_scale.c **** }
 647:Drivers/lvgl/src/widgets/scale/lv_scale.c **** 
 648:Drivers/lvgl/src/widgets/scale/lv_scale.c **** static void lv_scale_destructor(const lv_obj_class_t * class_p, lv_obj_t * obj)
 649:Drivers/lvgl/src/widgets/scale/lv_scale.c **** {
 650:Drivers/lvgl/src/widgets/scale/lv_scale.c ****     LV_UNUSED(class_p);
 651:Drivers/lvgl/src/widgets/scale/lv_scale.c ****     LV_TRACE_OBJ_CREATE("begin");
 652:Drivers/lvgl/src/widgets/scale/lv_scale.c **** 
 653:Drivers/lvgl/src/widgets/scale/lv_scale.c ****     lv_scale_t * scale = (lv_scale_t *)obj;
 654:Drivers/lvgl/src/widgets/scale/lv_scale.c ****     lv_scale_section_t * section;
 655:Drivers/lvgl/src/widgets/scale/lv_scale.c ****     while(scale->section_ll.head) {
 656:Drivers/lvgl/src/widgets/scale/lv_scale.c ****         section = lv_ll_get_head(&scale->section_ll);
 657:Drivers/lvgl/src/widgets/scale/lv_scale.c ****         lv_ll_remove(&scale->section_ll, section);
ARM GAS  /var/folders/qx/2_175_4n2s19vhvtspjhb3qh0000gn/T//ccmbJJmj.s 			page 13


 658:Drivers/lvgl/src/widgets/scale/lv_scale.c ****         lv_free(section);
 659:Drivers/lvgl/src/widgets/scale/lv_scale.c ****     }
 660:Drivers/lvgl/src/widgets/scale/lv_scale.c ****     lv_ll_clear(&scale->section_ll);
 661:Drivers/lvgl/src/widgets/scale/lv_scale.c **** 
 662:Drivers/lvgl/src/widgets/scale/lv_scale.c ****     size_t needle_count = lv_array_size(&scale->needles);
 663:Drivers/lvgl/src/widgets/scale/lv_scale.c ****     for(size_t i = 0; i < needle_count; ++i) {
 664:Drivers/lvgl/src/widgets/scale/lv_scale.c ****         lv_scale_needle_t * scale_needle = lv_array_at(&scale->needles, i);
 665:Drivers/lvgl/src/widgets/scale/lv_scale.c ****         lv_obj_remove_event_cb(scale_needle->obj, needle_deleted_cb);
 666:Drivers/lvgl/src/widgets/scale/lv_scale.c ****     }
 667:Drivers/lvgl/src/widgets/scale/lv_scale.c ****     lv_array_deinit(&scale->needles);
 668:Drivers/lvgl/src/widgets/scale/lv_scale.c **** 
 669:Drivers/lvgl/src/widgets/scale/lv_scale.c ****     LV_TRACE_OBJ_CREATE("finished");
 670:Drivers/lvgl/src/widgets/scale/lv_scale.c **** }
 671:Drivers/lvgl/src/widgets/scale/lv_scale.c **** 
 672:Drivers/lvgl/src/widgets/scale/lv_scale.c **** static void lv_scale_event(const lv_obj_class_t * class_p, lv_event_t * event)
 673:Drivers/lvgl/src/widgets/scale/lv_scale.c **** {
 674:Drivers/lvgl/src/widgets/scale/lv_scale.c ****     LV_UNUSED(class_p);
 675:Drivers/lvgl/src/widgets/scale/lv_scale.c **** 
 676:Drivers/lvgl/src/widgets/scale/lv_scale.c ****     /*Call the ancestor's event handler*/
 677:Drivers/lvgl/src/widgets/scale/lv_scale.c ****     lv_result_t res = lv_obj_event_base(MY_CLASS, event);
 678:Drivers/lvgl/src/widgets/scale/lv_scale.c ****     if(res != LV_RESULT_OK) return;
 679:Drivers/lvgl/src/widgets/scale/lv_scale.c **** 
 680:Drivers/lvgl/src/widgets/scale/lv_scale.c ****     lv_event_code_t event_code = lv_event_get_code(event);
 681:Drivers/lvgl/src/widgets/scale/lv_scale.c ****     lv_obj_t * obj = lv_event_get_current_target(event);
 682:Drivers/lvgl/src/widgets/scale/lv_scale.c ****     lv_scale_t * scale = (lv_scale_t *) obj;
 683:Drivers/lvgl/src/widgets/scale/lv_scale.c ****     LV_UNUSED(scale);
 684:Drivers/lvgl/src/widgets/scale/lv_scale.c **** 
 685:Drivers/lvgl/src/widgets/scale/lv_scale.c ****     if(event_code == LV_EVENT_DRAW_MAIN) {
 686:Drivers/lvgl/src/widgets/scale/lv_scale.c ****         if(scale->post_draw == false) {
 687:Drivers/lvgl/src/widgets/scale/lv_scale.c ****             scale_find_section_tick_idx(obj);
 688:Drivers/lvgl/src/widgets/scale/lv_scale.c ****             scale_calculate_main_compensation(obj);
 689:Drivers/lvgl/src/widgets/scale/lv_scale.c **** 
 690:Drivers/lvgl/src/widgets/scale/lv_scale.c ****             if(scale->draw_ticks_on_top) {
 691:Drivers/lvgl/src/widgets/scale/lv_scale.c ****                 scale_draw_main(obj, event);
 692:Drivers/lvgl/src/widgets/scale/lv_scale.c ****                 scale_draw_indicator(obj, event);
 693:Drivers/lvgl/src/widgets/scale/lv_scale.c ****             }
 694:Drivers/lvgl/src/widgets/scale/lv_scale.c ****             else {
 695:Drivers/lvgl/src/widgets/scale/lv_scale.c ****                 scale_draw_indicator(obj, event);
 696:Drivers/lvgl/src/widgets/scale/lv_scale.c ****                 scale_draw_main(obj, event);
 697:Drivers/lvgl/src/widgets/scale/lv_scale.c ****             }
 698:Drivers/lvgl/src/widgets/scale/lv_scale.c ****         }
 699:Drivers/lvgl/src/widgets/scale/lv_scale.c ****     }
 700:Drivers/lvgl/src/widgets/scale/lv_scale.c ****     if(event_code == LV_EVENT_DRAW_POST) {
 701:Drivers/lvgl/src/widgets/scale/lv_scale.c ****         if(scale->post_draw == true) {
 702:Drivers/lvgl/src/widgets/scale/lv_scale.c ****             scale_find_section_tick_idx(obj);
 703:Drivers/lvgl/src/widgets/scale/lv_scale.c ****             scale_calculate_main_compensation(obj);
 704:Drivers/lvgl/src/widgets/scale/lv_scale.c **** 
 705:Drivers/lvgl/src/widgets/scale/lv_scale.c ****             if(scale->draw_ticks_on_top) {
 706:Drivers/lvgl/src/widgets/scale/lv_scale.c ****                 scale_draw_main(obj, event);
 707:Drivers/lvgl/src/widgets/scale/lv_scale.c ****                 scale_draw_indicator(obj, event);
 708:Drivers/lvgl/src/widgets/scale/lv_scale.c ****             }
 709:Drivers/lvgl/src/widgets/scale/lv_scale.c ****             else {
 710:Drivers/lvgl/src/widgets/scale/lv_scale.c ****                 scale_draw_indicator(obj, event);
 711:Drivers/lvgl/src/widgets/scale/lv_scale.c ****                 scale_draw_main(obj, event);
 712:Drivers/lvgl/src/widgets/scale/lv_scale.c ****             }
 713:Drivers/lvgl/src/widgets/scale/lv_scale.c ****         }
 714:Drivers/lvgl/src/widgets/scale/lv_scale.c ****     }
ARM GAS  /var/folders/qx/2_175_4n2s19vhvtspjhb3qh0000gn/T//ccmbJJmj.s 			page 14


 715:Drivers/lvgl/src/widgets/scale/lv_scale.c ****     else if(event_code == LV_EVENT_REFR_EXT_DRAW_SIZE) {
 716:Drivers/lvgl/src/widgets/scale/lv_scale.c ****         /* NOTE: Extend scale draw size so the first tick label can be shown */
 717:Drivers/lvgl/src/widgets/scale/lv_scale.c ****         lv_event_set_ext_draw_size(event, 100);
 718:Drivers/lvgl/src/widgets/scale/lv_scale.c ****     }
 719:Drivers/lvgl/src/widgets/scale/lv_scale.c ****     else if(event_code == LV_EVENT_STYLE_CHANGED) {
 720:Drivers/lvgl/src/widgets/scale/lv_scale.c ****         size_t needle_count = lv_array_size(&scale->needles);
 721:Drivers/lvgl/src/widgets/scale/lv_scale.c ****         for(size_t i = 0; i < needle_count; ++i) {
 722:Drivers/lvgl/src/widgets/scale/lv_scale.c ****             lv_scale_needle_t * needle = lv_array_at(&scale->needles, i);
 723:Drivers/lvgl/src/widgets/scale/lv_scale.c ****             if(lv_obj_has_class(needle->obj, &lv_line_class)) {
 724:Drivers/lvgl/src/widgets/scale/lv_scale.c ****                 lv_scale_set_line_needle_value(obj, needle->obj, needle->length, needle->value);
 725:Drivers/lvgl/src/widgets/scale/lv_scale.c ****             }
 726:Drivers/lvgl/src/widgets/scale/lv_scale.c ****             else {
 727:Drivers/lvgl/src/widgets/scale/lv_scale.c ****                 lv_scale_set_image_needle_value(obj, needle->obj, needle->value);
 728:Drivers/lvgl/src/widgets/scale/lv_scale.c ****             }
 729:Drivers/lvgl/src/widgets/scale/lv_scale.c ****         }
 730:Drivers/lvgl/src/widgets/scale/lv_scale.c ****     }
 731:Drivers/lvgl/src/widgets/scale/lv_scale.c ****     else {
 732:Drivers/lvgl/src/widgets/scale/lv_scale.c ****         /* Nothing to do. Invalid event */
 733:Drivers/lvgl/src/widgets/scale/lv_scale.c ****     }
 734:Drivers/lvgl/src/widgets/scale/lv_scale.c **** }
 735:Drivers/lvgl/src/widgets/scale/lv_scale.c **** 
 736:Drivers/lvgl/src/widgets/scale/lv_scale.c **** static void scale_draw_indicator(lv_obj_t * obj, lv_event_t * event)
 737:Drivers/lvgl/src/widgets/scale/lv_scale.c **** {
 738:Drivers/lvgl/src/widgets/scale/lv_scale.c ****     lv_scale_t * scale = (lv_scale_t *)obj;
 739:Drivers/lvgl/src/widgets/scale/lv_scale.c ****     lv_layer_t * layer = lv_event_get_layer(event);
 740:Drivers/lvgl/src/widgets/scale/lv_scale.c **** 
 741:Drivers/lvgl/src/widgets/scale/lv_scale.c ****     if(scale->total_tick_count <= 1) return;
 742:Drivers/lvgl/src/widgets/scale/lv_scale.c **** 
 743:Drivers/lvgl/src/widgets/scale/lv_scale.c ****     lv_draw_label_dsc_t label_dsc;
 744:Drivers/lvgl/src/widgets/scale/lv_scale.c ****     lv_draw_label_dsc_init(&label_dsc);
 745:Drivers/lvgl/src/widgets/scale/lv_scale.c ****     label_dsc.base.layer = layer;
 746:Drivers/lvgl/src/widgets/scale/lv_scale.c ****     /* Formatting the labels with the configured style for LV_PART_INDICATOR */
 747:Drivers/lvgl/src/widgets/scale/lv_scale.c ****     lv_obj_init_draw_label_dsc(obj, LV_PART_INDICATOR, &label_dsc);
 748:Drivers/lvgl/src/widgets/scale/lv_scale.c **** 
 749:Drivers/lvgl/src/widgets/scale/lv_scale.c **** 
 750:Drivers/lvgl/src/widgets/scale/lv_scale.c ****     /* Major tick style */
 751:Drivers/lvgl/src/widgets/scale/lv_scale.c ****     lv_draw_line_dsc_t major_tick_dsc;
 752:Drivers/lvgl/src/widgets/scale/lv_scale.c ****     lv_draw_line_dsc_init(&major_tick_dsc);
 753:Drivers/lvgl/src/widgets/scale/lv_scale.c ****     major_tick_dsc.base.layer = layer;
 754:Drivers/lvgl/src/widgets/scale/lv_scale.c ****     lv_obj_init_draw_line_dsc(obj, LV_PART_INDICATOR, &major_tick_dsc);
 755:Drivers/lvgl/src/widgets/scale/lv_scale.c ****     if(LV_SCALE_MODE_ROUND_OUTER == scale->mode || LV_SCALE_MODE_ROUND_INNER == scale->mode) {
 756:Drivers/lvgl/src/widgets/scale/lv_scale.c ****         major_tick_dsc.raw_end = 0;
 757:Drivers/lvgl/src/widgets/scale/lv_scale.c ****     }
 758:Drivers/lvgl/src/widgets/scale/lv_scale.c **** 
 759:Drivers/lvgl/src/widgets/scale/lv_scale.c ****     /* Configure line draw descriptor for the minor tick drawing */
 760:Drivers/lvgl/src/widgets/scale/lv_scale.c ****     lv_draw_line_dsc_t minor_tick_dsc;
 761:Drivers/lvgl/src/widgets/scale/lv_scale.c ****     lv_draw_line_dsc_init(&minor_tick_dsc);
 762:Drivers/lvgl/src/widgets/scale/lv_scale.c ****     minor_tick_dsc.base.layer = layer;
 763:Drivers/lvgl/src/widgets/scale/lv_scale.c ****     lv_obj_init_draw_line_dsc(obj, LV_PART_ITEMS, &minor_tick_dsc);
 764:Drivers/lvgl/src/widgets/scale/lv_scale.c **** 
 765:Drivers/lvgl/src/widgets/scale/lv_scale.c ****     /* Main line style */
 766:Drivers/lvgl/src/widgets/scale/lv_scale.c ****     lv_draw_line_dsc_t main_line_dsc;
 767:Drivers/lvgl/src/widgets/scale/lv_scale.c ****     lv_draw_line_dsc_init(&main_line_dsc);
 768:Drivers/lvgl/src/widgets/scale/lv_scale.c ****     main_line_dsc.base.layer = layer;
 769:Drivers/lvgl/src/widgets/scale/lv_scale.c ****     lv_obj_init_draw_line_dsc(obj, LV_PART_MAIN, &main_line_dsc);
 770:Drivers/lvgl/src/widgets/scale/lv_scale.c **** 
 771:Drivers/lvgl/src/widgets/scale/lv_scale.c ****     /* These 2 values need to be signed since they are being passed
ARM GAS  /var/folders/qx/2_175_4n2s19vhvtspjhb3qh0000gn/T//ccmbJJmj.s 			page 15


 772:Drivers/lvgl/src/widgets/scale/lv_scale.c ****      * to `lv_map()` which expects signed integers. */
 773:Drivers/lvgl/src/widgets/scale/lv_scale.c ****     const int32_t total_tick_count = scale->total_tick_count;
 774:Drivers/lvgl/src/widgets/scale/lv_scale.c ****     int32_t tick_idx = 0;
 775:Drivers/lvgl/src/widgets/scale/lv_scale.c ****     uint32_t major_tick_idx = 0U;
 776:Drivers/lvgl/src/widgets/scale/lv_scale.c ****     for(tick_idx = 0; tick_idx < total_tick_count; tick_idx++) {
 777:Drivers/lvgl/src/widgets/scale/lv_scale.c ****         /* A major tick is the one which has a label in it */
 778:Drivers/lvgl/src/widgets/scale/lv_scale.c ****         bool is_major_tick = scale_is_major_tick(scale, tick_idx);
 779:Drivers/lvgl/src/widgets/scale/lv_scale.c ****         if(is_major_tick) major_tick_idx++;
 780:Drivers/lvgl/src/widgets/scale/lv_scale.c **** 
 781:Drivers/lvgl/src/widgets/scale/lv_scale.c ****         const int32_t tick_value = lv_map(tick_idx, 0, total_tick_count - 1, scale->range_min, scal
 782:Drivers/lvgl/src/widgets/scale/lv_scale.c **** 
 783:Drivers/lvgl/src/widgets/scale/lv_scale.c ****         label_dsc.base.id1 = tick_idx;
 784:Drivers/lvgl/src/widgets/scale/lv_scale.c ****         label_dsc.base.id2 = tick_value;
 785:Drivers/lvgl/src/widgets/scale/lv_scale.c ****         label_dsc.base.layer = layer;
 786:Drivers/lvgl/src/widgets/scale/lv_scale.c **** 
 787:Drivers/lvgl/src/widgets/scale/lv_scale.c ****         /* Overwrite label and tick properties if tick value is within section range */
 788:Drivers/lvgl/src/widgets/scale/lv_scale.c ****         lv_scale_section_t * section;
 789:Drivers/lvgl/src/widgets/scale/lv_scale.c ****         LV_LL_READ_BACK(&scale->section_ll, section) {
 790:Drivers/lvgl/src/widgets/scale/lv_scale.c ****             if(section->range_min <= tick_value && section->range_max >= tick_value) {
 791:Drivers/lvgl/src/widgets/scale/lv_scale.c ****                 if(is_major_tick) {
 792:Drivers/lvgl/src/widgets/scale/lv_scale.c ****                     scale_set_indicator_label_properties(obj, &label_dsc, section->indicator_style)
 793:Drivers/lvgl/src/widgets/scale/lv_scale.c ****                     scale_set_line_properties(obj, &major_tick_dsc, section->indicator_style, LV_PA
 794:Drivers/lvgl/src/widgets/scale/lv_scale.c ****                 }
 795:Drivers/lvgl/src/widgets/scale/lv_scale.c ****                 else {
 796:Drivers/lvgl/src/widgets/scale/lv_scale.c ****                     scale_set_line_properties(obj, &minor_tick_dsc, section->items_style, LV_PART_I
 797:Drivers/lvgl/src/widgets/scale/lv_scale.c ****                 }
 798:Drivers/lvgl/src/widgets/scale/lv_scale.c ****                 break;
 799:Drivers/lvgl/src/widgets/scale/lv_scale.c ****             }
 800:Drivers/lvgl/src/widgets/scale/lv_scale.c ****             else {
 801:Drivers/lvgl/src/widgets/scale/lv_scale.c ****                 /* Tick is not in section, get the proper styles */
 802:Drivers/lvgl/src/widgets/scale/lv_scale.c ****                 lv_obj_init_draw_label_dsc(obj, LV_PART_INDICATOR, &label_dsc);
 803:Drivers/lvgl/src/widgets/scale/lv_scale.c ****                 lv_obj_init_draw_line_dsc(obj, LV_PART_INDICATOR, &major_tick_dsc);
 804:Drivers/lvgl/src/widgets/scale/lv_scale.c ****                 lv_obj_init_draw_line_dsc(obj, LV_PART_ITEMS, &minor_tick_dsc);
 805:Drivers/lvgl/src/widgets/scale/lv_scale.c ****             }
 806:Drivers/lvgl/src/widgets/scale/lv_scale.c ****         }
 807:Drivers/lvgl/src/widgets/scale/lv_scale.c **** 
 808:Drivers/lvgl/src/widgets/scale/lv_scale.c ****         /* The tick is represented by a line. We need two points to draw it */
 809:Drivers/lvgl/src/widgets/scale/lv_scale.c ****         lv_point_t tick_point_a;
 810:Drivers/lvgl/src/widgets/scale/lv_scale.c ****         lv_point_t tick_point_b;
 811:Drivers/lvgl/src/widgets/scale/lv_scale.c ****         scale_get_tick_points(obj, tick_idx, is_major_tick, &tick_point_a, &tick_point_b);
 812:Drivers/lvgl/src/widgets/scale/lv_scale.c **** 
 813:Drivers/lvgl/src/widgets/scale/lv_scale.c ****         /* Setup a label if they're enabled and we're drawing a major tick */
 814:Drivers/lvgl/src/widgets/scale/lv_scale.c ****         if(scale->label_enabled && is_major_tick) {
 815:Drivers/lvgl/src/widgets/scale/lv_scale.c ****             scale_draw_label(obj, event, &label_dsc, major_tick_idx, tick_value, &tick_point_b, tic
 816:Drivers/lvgl/src/widgets/scale/lv_scale.c ****         }
 817:Drivers/lvgl/src/widgets/scale/lv_scale.c **** 
 818:Drivers/lvgl/src/widgets/scale/lv_scale.c ****         if(is_major_tick) {
 819:Drivers/lvgl/src/widgets/scale/lv_scale.c ****             major_tick_dsc.p1 = lv_point_to_precise(&tick_point_a);
 820:Drivers/lvgl/src/widgets/scale/lv_scale.c ****             major_tick_dsc.p2 = lv_point_to_precise(&tick_point_b);
 821:Drivers/lvgl/src/widgets/scale/lv_scale.c ****             major_tick_dsc.base.id1 = tick_idx;
 822:Drivers/lvgl/src/widgets/scale/lv_scale.c ****             major_tick_dsc.base.id2 = tick_value;
 823:Drivers/lvgl/src/widgets/scale/lv_scale.c ****             lv_draw_line(layer, &major_tick_dsc);
 824:Drivers/lvgl/src/widgets/scale/lv_scale.c ****         }
 825:Drivers/lvgl/src/widgets/scale/lv_scale.c ****         else {
 826:Drivers/lvgl/src/widgets/scale/lv_scale.c ****             minor_tick_dsc.p1 = lv_point_to_precise(&tick_point_a);
 827:Drivers/lvgl/src/widgets/scale/lv_scale.c ****             minor_tick_dsc.p2 = lv_point_to_precise(&tick_point_b);
 828:Drivers/lvgl/src/widgets/scale/lv_scale.c ****             minor_tick_dsc.base.id1 = tick_idx;
ARM GAS  /var/folders/qx/2_175_4n2s19vhvtspjhb3qh0000gn/T//ccmbJJmj.s 			page 16


 829:Drivers/lvgl/src/widgets/scale/lv_scale.c ****             minor_tick_dsc.base.id2 = tick_value;
 830:Drivers/lvgl/src/widgets/scale/lv_scale.c ****             lv_draw_line(layer, &minor_tick_dsc);
 831:Drivers/lvgl/src/widgets/scale/lv_scale.c ****         }
 832:Drivers/lvgl/src/widgets/scale/lv_scale.c ****     }
 833:Drivers/lvgl/src/widgets/scale/lv_scale.c **** }
 834:Drivers/lvgl/src/widgets/scale/lv_scale.c **** 
 835:Drivers/lvgl/src/widgets/scale/lv_scale.c **** static void scale_draw_label(lv_obj_t * obj, lv_event_t * event, lv_draw_label_dsc_t * label_dsc,
 836:Drivers/lvgl/src/widgets/scale/lv_scale.c ****                              const uint32_t major_tick_idx, const int32_t tick_value, lv_point_t * 
 837:Drivers/lvgl/src/widgets/scale/lv_scale.c ****                              const uint32_t tick_idx)
 838:Drivers/lvgl/src/widgets/scale/lv_scale.c **** {
 839:Drivers/lvgl/src/widgets/scale/lv_scale.c ****     lv_scale_t * scale = (lv_scale_t *)obj;
 840:Drivers/lvgl/src/widgets/scale/lv_scale.c ****     lv_layer_t * layer = lv_event_get_layer(event);
 841:Drivers/lvgl/src/widgets/scale/lv_scale.c **** 
 842:Drivers/lvgl/src/widgets/scale/lv_scale.c ****     /* Label text setup */
 843:Drivers/lvgl/src/widgets/scale/lv_scale.c ****     char text_buffer[LV_SCALE_LABEL_TXT_LEN] = {0};
 844:Drivers/lvgl/src/widgets/scale/lv_scale.c ****     lv_area_t label_coords;
 845:Drivers/lvgl/src/widgets/scale/lv_scale.c **** 
 846:Drivers/lvgl/src/widgets/scale/lv_scale.c ****     /* Check if the custom text array has element for this major tick index */
 847:Drivers/lvgl/src/widgets/scale/lv_scale.c ****     if(scale->txt_src) {
 848:Drivers/lvgl/src/widgets/scale/lv_scale.c ****         scale_build_custom_label_text(obj, label_dsc, major_tick_idx);
 849:Drivers/lvgl/src/widgets/scale/lv_scale.c ****     }
 850:Drivers/lvgl/src/widgets/scale/lv_scale.c ****     else { /* Add label with mapped values */
 851:Drivers/lvgl/src/widgets/scale/lv_scale.c ****         lv_snprintf(text_buffer, sizeof(text_buffer), "%" LV_PRId32, tick_value);
 852:Drivers/lvgl/src/widgets/scale/lv_scale.c ****         label_dsc->text = text_buffer;
 853:Drivers/lvgl/src/widgets/scale/lv_scale.c ****         label_dsc->text_local = 1;
 854:Drivers/lvgl/src/widgets/scale/lv_scale.c ****     }
 855:Drivers/lvgl/src/widgets/scale/lv_scale.c **** 
 856:Drivers/lvgl/src/widgets/scale/lv_scale.c ****     int32_t translate_x = lv_obj_get_style_translate_x(obj, LV_PART_INDICATOR);
 857:Drivers/lvgl/src/widgets/scale/lv_scale.c ****     int32_t translate_y = lv_obj_get_style_translate_y(obj, LV_PART_INDICATOR);
 858:Drivers/lvgl/src/widgets/scale/lv_scale.c ****     int32_t label_rotation = lv_obj_get_style_transform_rotation(obj, LV_PART_INDICATOR);
 859:Drivers/lvgl/src/widgets/scale/lv_scale.c ****     int32_t translate_rotation = 0;
 860:Drivers/lvgl/src/widgets/scale/lv_scale.c **** 
 861:Drivers/lvgl/src/widgets/scale/lv_scale.c ****     if((LV_SCALE_MODE_VERTICAL_LEFT == scale->mode || LV_SCALE_MODE_VERTICAL_RIGHT == scale->mode)
 862:Drivers/lvgl/src/widgets/scale/lv_scale.c ****        || (LV_SCALE_MODE_HORIZONTAL_BOTTOM == scale->mode || LV_SCALE_MODE_HORIZONTAL_TOP == scale-
 863:Drivers/lvgl/src/widgets/scale/lv_scale.c ****         lv_point_t label_origin;
 864:Drivers/lvgl/src/widgets/scale/lv_scale.c ****         label_origin.x = tick_point_b->x + translate_x;
 865:Drivers/lvgl/src/widgets/scale/lv_scale.c ****         label_origin.y = tick_point_b->y + translate_y;
 866:Drivers/lvgl/src/widgets/scale/lv_scale.c ****         scale_get_label_coords(obj, label_dsc, &label_origin, &label_coords);
 867:Drivers/lvgl/src/widgets/scale/lv_scale.c ****         label_rotation = (label_rotation & LV_SCALE_ROTATION_ANGLE_MASK);
 868:Drivers/lvgl/src/widgets/scale/lv_scale.c ****     }
 869:Drivers/lvgl/src/widgets/scale/lv_scale.c ****     else if(LV_SCALE_MODE_ROUND_OUTER == scale->mode || LV_SCALE_MODE_ROUND_INNER == scale->mode) {
 870:Drivers/lvgl/src/widgets/scale/lv_scale.c ****         translate_rotation = lv_obj_get_style_translate_radial(obj, LV_PART_INDICATOR);
 871:Drivers/lvgl/src/widgets/scale/lv_scale.c ****         uint32_t label_gap = lv_obj_get_style_pad_radial(obj, LV_PART_INDICATOR) + LV_SCALE_DEFAULT
 872:Drivers/lvgl/src/widgets/scale/lv_scale.c **** 
 873:Drivers/lvgl/src/widgets/scale/lv_scale.c ****         lv_area_t scale_area;
 874:Drivers/lvgl/src/widgets/scale/lv_scale.c ****         lv_obj_get_content_coords(obj, &scale_area);
 875:Drivers/lvgl/src/widgets/scale/lv_scale.c **** 
 876:Drivers/lvgl/src/widgets/scale/lv_scale.c ****         /* Find the center of the scale */
 877:Drivers/lvgl/src/widgets/scale/lv_scale.c ****         lv_point_t center_point;
 878:Drivers/lvgl/src/widgets/scale/lv_scale.c ****         int32_t radius_edge = LV_MIN(lv_area_get_width(&scale_area) / 2, lv_area_get_height(&scale_
 879:Drivers/lvgl/src/widgets/scale/lv_scale.c ****         center_point.x = scale_area.x1 + radius_edge;
 880:Drivers/lvgl/src/widgets/scale/lv_scale.c ****         center_point.y = scale_area.y1 + radius_edge;
 881:Drivers/lvgl/src/widgets/scale/lv_scale.c **** 
 882:Drivers/lvgl/src/widgets/scale/lv_scale.c ****         const int32_t major_len = lv_obj_get_style_length(obj, LV_PART_INDICATOR);
 883:Drivers/lvgl/src/widgets/scale/lv_scale.c **** 
 884:Drivers/lvgl/src/widgets/scale/lv_scale.c ****         /* Also take into consideration the letter space of the style */
 885:Drivers/lvgl/src/widgets/scale/lv_scale.c ****         int32_t angle_upscale = ((tick_idx * scale->angle_range) * 10U) / (scale->total_tick_count 
ARM GAS  /var/folders/qx/2_175_4n2s19vhvtspjhb3qh0000gn/T//ccmbJJmj.s 			page 17


 886:Drivers/lvgl/src/widgets/scale/lv_scale.c ****                                 (translate_rotation * 10);
 887:Drivers/lvgl/src/widgets/scale/lv_scale.c ****         angle_upscale += scale->rotation * 10;
 888:Drivers/lvgl/src/widgets/scale/lv_scale.c **** 
 889:Drivers/lvgl/src/widgets/scale/lv_scale.c ****         uint32_t radius_text = 0;
 890:Drivers/lvgl/src/widgets/scale/lv_scale.c ****         if(LV_SCALE_MODE_ROUND_INNER == scale->mode) {
 891:Drivers/lvgl/src/widgets/scale/lv_scale.c ****             radius_text = (radius_edge - major_len) - (label_gap + label_dsc->letter_space);
 892:Drivers/lvgl/src/widgets/scale/lv_scale.c ****         }
 893:Drivers/lvgl/src/widgets/scale/lv_scale.c ****         else if(LV_SCALE_MODE_ROUND_OUTER == scale->mode) {
 894:Drivers/lvgl/src/widgets/scale/lv_scale.c ****             radius_text = (radius_edge + major_len) + (label_gap + label_dsc->letter_space);
 895:Drivers/lvgl/src/widgets/scale/lv_scale.c ****         }
 896:Drivers/lvgl/src/widgets/scale/lv_scale.c ****         else { /* Nothing to do */ }
 897:Drivers/lvgl/src/widgets/scale/lv_scale.c **** 
 898:Drivers/lvgl/src/widgets/scale/lv_scale.c ****         lv_point_t point;
 899:Drivers/lvgl/src/widgets/scale/lv_scale.c ****         point.x = center_point.x + radius_text + translate_x;
 900:Drivers/lvgl/src/widgets/scale/lv_scale.c ****         point.y = center_point.y + translate_y;
 901:Drivers/lvgl/src/widgets/scale/lv_scale.c ****         int32_t label_rotation_temp = 0;
 902:Drivers/lvgl/src/widgets/scale/lv_scale.c **** 
 903:Drivers/lvgl/src/widgets/scale/lv_scale.c ****         if(label_rotation & LV_SCALE_LABEL_ROTATE_MATCH_TICKS) {
 904:Drivers/lvgl/src/widgets/scale/lv_scale.c ****             label_rotation_temp = (label_rotation & LV_SCALE_ROTATION_ANGLE_MASK) + angle_upscale;
 905:Drivers/lvgl/src/widgets/scale/lv_scale.c **** 
 906:Drivers/lvgl/src/widgets/scale/lv_scale.c ****             /* keep text upright if the user asked for it, otherwise it will be upside-down on half
 907:Drivers/lvgl/src/widgets/scale/lv_scale.c ****             if(label_rotation & LV_SCALE_LABEL_ROTATE_KEEP_UPRIGHT) {
 908:Drivers/lvgl/src/widgets/scale/lv_scale.c ****                 while(label_rotation_temp > 3600) {
 909:Drivers/lvgl/src/widgets/scale/lv_scale.c ****                     label_rotation_temp -= 3600;
 910:Drivers/lvgl/src/widgets/scale/lv_scale.c ****                 }
 911:Drivers/lvgl/src/widgets/scale/lv_scale.c ****                 if(label_rotation_temp > 900 && label_rotation_temp < 2400) {
 912:Drivers/lvgl/src/widgets/scale/lv_scale.c ****                     label_rotation_temp += 1800;
 913:Drivers/lvgl/src/widgets/scale/lv_scale.c ****                 }
 914:Drivers/lvgl/src/widgets/scale/lv_scale.c ****             }
 915:Drivers/lvgl/src/widgets/scale/lv_scale.c ****             label_rotation = label_rotation_temp;
 916:Drivers/lvgl/src/widgets/scale/lv_scale.c ****         }
 917:Drivers/lvgl/src/widgets/scale/lv_scale.c ****         else {
 918:Drivers/lvgl/src/widgets/scale/lv_scale.c ****             label_rotation = label_rotation & LV_SCALE_ROTATION_ANGLE_MASK;
 919:Drivers/lvgl/src/widgets/scale/lv_scale.c ****         }
 920:Drivers/lvgl/src/widgets/scale/lv_scale.c **** 
 921:Drivers/lvgl/src/widgets/scale/lv_scale.c ****         lv_point_transform(&point, angle_upscale, LV_SCALE_NONE, LV_SCALE_NONE, &center_point, fals
 922:Drivers/lvgl/src/widgets/scale/lv_scale.c ****         scale_get_label_coords(obj, label_dsc, &point, &label_coords);
 923:Drivers/lvgl/src/widgets/scale/lv_scale.c ****     }
 924:Drivers/lvgl/src/widgets/scale/lv_scale.c ****     /* Invalid mode */
 925:Drivers/lvgl/src/widgets/scale/lv_scale.c ****     else {
 926:Drivers/lvgl/src/widgets/scale/lv_scale.c ****         return;
 927:Drivers/lvgl/src/widgets/scale/lv_scale.c ****     }
 928:Drivers/lvgl/src/widgets/scale/lv_scale.c **** 
 929:Drivers/lvgl/src/widgets/scale/lv_scale.c ****     if(label_rotation > 0) {
 930:Drivers/lvgl/src/widgets/scale/lv_scale.c ****         /*Draw the label to a new layer and draw the layer rotated*/
 931:Drivers/lvgl/src/widgets/scale/lv_scale.c ****         lv_layer_t * layer_label = lv_draw_layer_create(layer, LV_COLOR_FORMAT_ARGB8888, &label_coo
 932:Drivers/lvgl/src/widgets/scale/lv_scale.c ****         lv_draw_label(layer_label, label_dsc, &label_coords);
 933:Drivers/lvgl/src/widgets/scale/lv_scale.c **** 
 934:Drivers/lvgl/src/widgets/scale/lv_scale.c ****         lv_point_t pivot_point;
 935:Drivers/lvgl/src/widgets/scale/lv_scale.c ****         /* Set pivot point to the center of the label so it matches the scale curve */
 936:Drivers/lvgl/src/widgets/scale/lv_scale.c ****         pivot_point.x = lv_area_get_width(&label_coords) / 2;
 937:Drivers/lvgl/src/widgets/scale/lv_scale.c ****         pivot_point.y = lv_area_get_height(&label_coords) / 2;
 938:Drivers/lvgl/src/widgets/scale/lv_scale.c **** 
 939:Drivers/lvgl/src/widgets/scale/lv_scale.c ****         lv_draw_image_dsc_t layer_draw_dsc;
 940:Drivers/lvgl/src/widgets/scale/lv_scale.c ****         lv_draw_image_dsc_init(&layer_draw_dsc);
 941:Drivers/lvgl/src/widgets/scale/lv_scale.c ****         layer_draw_dsc.src = layer_label;
 942:Drivers/lvgl/src/widgets/scale/lv_scale.c ****         layer_draw_dsc.rotation = label_rotation;
ARM GAS  /var/folders/qx/2_175_4n2s19vhvtspjhb3qh0000gn/T//ccmbJJmj.s 			page 18


 943:Drivers/lvgl/src/widgets/scale/lv_scale.c ****         layer_draw_dsc.pivot = pivot_point;
 944:Drivers/lvgl/src/widgets/scale/lv_scale.c ****         lv_draw_layer(layer, &layer_draw_dsc, &label_coords);
 945:Drivers/lvgl/src/widgets/scale/lv_scale.c ****     }
 946:Drivers/lvgl/src/widgets/scale/lv_scale.c ****     else {
 947:Drivers/lvgl/src/widgets/scale/lv_scale.c ****         lv_draw_label(layer, label_dsc, &label_coords);
 948:Drivers/lvgl/src/widgets/scale/lv_scale.c ****     }
 949:Drivers/lvgl/src/widgets/scale/lv_scale.c **** 
 950:Drivers/lvgl/src/widgets/scale/lv_scale.c ****     if(label_dsc->text_local) {
 951:Drivers/lvgl/src/widgets/scale/lv_scale.c ****         /* clear the reference to the text buffer on the stack */
 952:Drivers/lvgl/src/widgets/scale/lv_scale.c ****         label_dsc->text = NULL;
 953:Drivers/lvgl/src/widgets/scale/lv_scale.c ****         label_dsc->text_local = false;
 954:Drivers/lvgl/src/widgets/scale/lv_scale.c ****     }
 955:Drivers/lvgl/src/widgets/scale/lv_scale.c **** }
 956:Drivers/lvgl/src/widgets/scale/lv_scale.c **** 
 957:Drivers/lvgl/src/widgets/scale/lv_scale.c **** static void scale_calculate_main_compensation(lv_obj_t * obj)
 958:Drivers/lvgl/src/widgets/scale/lv_scale.c **** {
 959:Drivers/lvgl/src/widgets/scale/lv_scale.c ****     lv_scale_t * scale = (lv_scale_t *)obj;
 960:Drivers/lvgl/src/widgets/scale/lv_scale.c **** 
 961:Drivers/lvgl/src/widgets/scale/lv_scale.c ****     const uint32_t total_tick_count = scale->total_tick_count;
 962:Drivers/lvgl/src/widgets/scale/lv_scale.c **** 
 963:Drivers/lvgl/src/widgets/scale/lv_scale.c ****     if(total_tick_count <= 1) return;
 964:Drivers/lvgl/src/widgets/scale/lv_scale.c ****     /* Not supported in round modes */
 965:Drivers/lvgl/src/widgets/scale/lv_scale.c ****     if(LV_SCALE_MODE_ROUND_OUTER == scale->mode || LV_SCALE_MODE_ROUND_INNER == scale->mode) return
 966:Drivers/lvgl/src/widgets/scale/lv_scale.c **** 
 967:Drivers/lvgl/src/widgets/scale/lv_scale.c ****     /* Major tick style */
 968:Drivers/lvgl/src/widgets/scale/lv_scale.c ****     lv_draw_line_dsc_t major_tick_dsc;
 969:Drivers/lvgl/src/widgets/scale/lv_scale.c ****     lv_draw_line_dsc_init(&major_tick_dsc);
 970:Drivers/lvgl/src/widgets/scale/lv_scale.c ****     lv_obj_init_draw_line_dsc(obj, LV_PART_INDICATOR, &major_tick_dsc);
 971:Drivers/lvgl/src/widgets/scale/lv_scale.c **** 
 972:Drivers/lvgl/src/widgets/scale/lv_scale.c ****     /* Configure line draw descriptor for the minor tick drawing */
 973:Drivers/lvgl/src/widgets/scale/lv_scale.c ****     lv_draw_line_dsc_t minor_tick_dsc;
 974:Drivers/lvgl/src/widgets/scale/lv_scale.c ****     lv_draw_line_dsc_init(&minor_tick_dsc);
 975:Drivers/lvgl/src/widgets/scale/lv_scale.c ****     lv_obj_init_draw_line_dsc(obj, LV_PART_ITEMS, &minor_tick_dsc);
 976:Drivers/lvgl/src/widgets/scale/lv_scale.c **** 
 977:Drivers/lvgl/src/widgets/scale/lv_scale.c ****     uint32_t tick_idx = 0;
 978:Drivers/lvgl/src/widgets/scale/lv_scale.c ****     for(tick_idx = 0; tick_idx < total_tick_count; tick_idx++) {
 979:Drivers/lvgl/src/widgets/scale/lv_scale.c **** 
 980:Drivers/lvgl/src/widgets/scale/lv_scale.c ****         const bool is_major_tick = scale_is_major_tick(scale, tick_idx);
 981:Drivers/lvgl/src/widgets/scale/lv_scale.c **** 
 982:Drivers/lvgl/src/widgets/scale/lv_scale.c ****         const int32_t tick_value = lv_map(tick_idx, 0, total_tick_count - 1, scale->range_min, scal
 983:Drivers/lvgl/src/widgets/scale/lv_scale.c **** 
 984:Drivers/lvgl/src/widgets/scale/lv_scale.c ****         /* Overwrite label and tick properties if tick value is within section range */
 985:Drivers/lvgl/src/widgets/scale/lv_scale.c ****         lv_scale_section_t * section;
 986:Drivers/lvgl/src/widgets/scale/lv_scale.c ****         LV_LL_READ_BACK(&scale->section_ll, section) {
 987:Drivers/lvgl/src/widgets/scale/lv_scale.c ****             if(section->range_min <= tick_value && section->range_max >= tick_value) {
 988:Drivers/lvgl/src/widgets/scale/lv_scale.c ****                 if(is_major_tick) {
 989:Drivers/lvgl/src/widgets/scale/lv_scale.c ****                     scale_set_line_properties(obj, &major_tick_dsc, section->indicator_style, LV_PA
 990:Drivers/lvgl/src/widgets/scale/lv_scale.c ****                 }
 991:Drivers/lvgl/src/widgets/scale/lv_scale.c ****                 else {
 992:Drivers/lvgl/src/widgets/scale/lv_scale.c ****                     scale_set_line_properties(obj, &minor_tick_dsc, section->items_style, LV_PART_I
 993:Drivers/lvgl/src/widgets/scale/lv_scale.c ****                 }
 994:Drivers/lvgl/src/widgets/scale/lv_scale.c ****                 break;
 995:Drivers/lvgl/src/widgets/scale/lv_scale.c ****             }
 996:Drivers/lvgl/src/widgets/scale/lv_scale.c ****             else {
 997:Drivers/lvgl/src/widgets/scale/lv_scale.c ****                 /* Tick is not in section, get the proper styles */
 998:Drivers/lvgl/src/widgets/scale/lv_scale.c ****                 lv_obj_init_draw_line_dsc(obj, LV_PART_INDICATOR, &major_tick_dsc);
 999:Drivers/lvgl/src/widgets/scale/lv_scale.c ****                 lv_obj_init_draw_line_dsc(obj, LV_PART_ITEMS, &minor_tick_dsc);
ARM GAS  /var/folders/qx/2_175_4n2s19vhvtspjhb3qh0000gn/T//ccmbJJmj.s 			page 19


1000:Drivers/lvgl/src/widgets/scale/lv_scale.c ****             }
1001:Drivers/lvgl/src/widgets/scale/lv_scale.c ****         }
1002:Drivers/lvgl/src/widgets/scale/lv_scale.c **** 
1003:Drivers/lvgl/src/widgets/scale/lv_scale.c ****         /* The tick is represented by a line. We need two points to draw it */
1004:Drivers/lvgl/src/widgets/scale/lv_scale.c ****         lv_point_t tick_point_a;
1005:Drivers/lvgl/src/widgets/scale/lv_scale.c ****         lv_point_t tick_point_b;
1006:Drivers/lvgl/src/widgets/scale/lv_scale.c ****         scale_get_tick_points(obj, tick_idx, is_major_tick, &tick_point_a, &tick_point_b);
1007:Drivers/lvgl/src/widgets/scale/lv_scale.c **** 
1008:Drivers/lvgl/src/widgets/scale/lv_scale.c ****         /* Store initial and last tick widths to be used in the main line drawing */
1009:Drivers/lvgl/src/widgets/scale/lv_scale.c ****         scale_store_main_line_tick_width_compensation(obj, tick_idx, is_major_tick, major_tick_dsc.
1010:Drivers/lvgl/src/widgets/scale/lv_scale.c ****         /* Store the first and last section tick vertical/horizontal position */
1011:Drivers/lvgl/src/widgets/scale/lv_scale.c ****         scale_store_section_line_tick_width_compensation(obj, is_major_tick, &major_tick_dsc, &mino
1012:Drivers/lvgl/src/widgets/scale/lv_scale.c ****                                                          tick_value, tick_idx, &tick_point_a);
1013:Drivers/lvgl/src/widgets/scale/lv_scale.c ****     }
1014:Drivers/lvgl/src/widgets/scale/lv_scale.c **** }
1015:Drivers/lvgl/src/widgets/scale/lv_scale.c **** 
1016:Drivers/lvgl/src/widgets/scale/lv_scale.c **** static void scale_draw_main(lv_obj_t * obj, lv_event_t * event)
1017:Drivers/lvgl/src/widgets/scale/lv_scale.c **** {
1018:Drivers/lvgl/src/widgets/scale/lv_scale.c ****     lv_scale_t * scale = (lv_scale_t *)obj;
1019:Drivers/lvgl/src/widgets/scale/lv_scale.c ****     lv_layer_t * layer = lv_event_get_layer(event);
1020:Drivers/lvgl/src/widgets/scale/lv_scale.c **** 
1021:Drivers/lvgl/src/widgets/scale/lv_scale.c ****     if(scale->total_tick_count <= 1) return;
1022:Drivers/lvgl/src/widgets/scale/lv_scale.c **** 
1023:Drivers/lvgl/src/widgets/scale/lv_scale.c ****     if((LV_SCALE_MODE_VERTICAL_LEFT == scale->mode || LV_SCALE_MODE_VERTICAL_RIGHT == scale->mode)
1024:Drivers/lvgl/src/widgets/scale/lv_scale.c ****        || (LV_SCALE_MODE_HORIZONTAL_BOTTOM == scale->mode || LV_SCALE_MODE_HORIZONTAL_TOP == scale-
1025:Drivers/lvgl/src/widgets/scale/lv_scale.c **** 
1026:Drivers/lvgl/src/widgets/scale/lv_scale.c ****         /* Configure both line and label draw descriptors for the tick and label drawings */
1027:Drivers/lvgl/src/widgets/scale/lv_scale.c ****         lv_draw_line_dsc_t line_dsc;
1028:Drivers/lvgl/src/widgets/scale/lv_scale.c ****         lv_draw_line_dsc_init(&line_dsc);
1029:Drivers/lvgl/src/widgets/scale/lv_scale.c ****         line_dsc.base.layer = layer;
1030:Drivers/lvgl/src/widgets/scale/lv_scale.c ****         lv_obj_init_draw_line_dsc(obj, LV_PART_MAIN, &line_dsc);
1031:Drivers/lvgl/src/widgets/scale/lv_scale.c **** 
1032:Drivers/lvgl/src/widgets/scale/lv_scale.c ****         /* Get style properties so they can be used in the main line drawing */
1033:Drivers/lvgl/src/widgets/scale/lv_scale.c ****         const int32_t border_width = lv_obj_get_style_border_width(obj, LV_PART_MAIN);
1034:Drivers/lvgl/src/widgets/scale/lv_scale.c ****         const int32_t pad_top = lv_obj_get_style_pad_top(obj, LV_PART_MAIN) + border_width;
1035:Drivers/lvgl/src/widgets/scale/lv_scale.c ****         const int32_t pad_bottom = lv_obj_get_style_pad_bottom(obj, LV_PART_MAIN) + border_width;
1036:Drivers/lvgl/src/widgets/scale/lv_scale.c ****         const int32_t pad_left = lv_obj_get_style_pad_left(obj, LV_PART_MAIN) + border_width;
1037:Drivers/lvgl/src/widgets/scale/lv_scale.c ****         const int32_t pad_right = lv_obj_get_style_pad_right(obj, LV_PART_MAIN) + border_width;
1038:Drivers/lvgl/src/widgets/scale/lv_scale.c **** 
1039:Drivers/lvgl/src/widgets/scale/lv_scale.c ****         int32_t x_ofs = 0;
1040:Drivers/lvgl/src/widgets/scale/lv_scale.c ****         int32_t y_ofs = 0;
1041:Drivers/lvgl/src/widgets/scale/lv_scale.c **** 
1042:Drivers/lvgl/src/widgets/scale/lv_scale.c ****         if(LV_SCALE_MODE_VERTICAL_LEFT == scale->mode) {
1043:Drivers/lvgl/src/widgets/scale/lv_scale.c ****             x_ofs = obj->coords.x2 + (line_dsc.width / 2) - pad_right;
1044:Drivers/lvgl/src/widgets/scale/lv_scale.c ****             y_ofs = obj->coords.y1 + pad_top;
1045:Drivers/lvgl/src/widgets/scale/lv_scale.c ****         }
1046:Drivers/lvgl/src/widgets/scale/lv_scale.c ****         else if(LV_SCALE_MODE_VERTICAL_RIGHT == scale->mode) {
1047:Drivers/lvgl/src/widgets/scale/lv_scale.c ****             x_ofs = obj->coords.x1 + (line_dsc.width / 2) + pad_left;
1048:Drivers/lvgl/src/widgets/scale/lv_scale.c ****             y_ofs = obj->coords.y1 + pad_top;
1049:Drivers/lvgl/src/widgets/scale/lv_scale.c ****         }
1050:Drivers/lvgl/src/widgets/scale/lv_scale.c ****         if(LV_SCALE_MODE_HORIZONTAL_BOTTOM == scale->mode) {
1051:Drivers/lvgl/src/widgets/scale/lv_scale.c ****             x_ofs = obj->coords.x1 + pad_right;
1052:Drivers/lvgl/src/widgets/scale/lv_scale.c ****             y_ofs = obj->coords.y1 + (line_dsc.width / 2) + pad_top;
1053:Drivers/lvgl/src/widgets/scale/lv_scale.c ****         }
1054:Drivers/lvgl/src/widgets/scale/lv_scale.c ****         else if(LV_SCALE_MODE_HORIZONTAL_TOP == scale->mode) {
1055:Drivers/lvgl/src/widgets/scale/lv_scale.c ****             x_ofs = obj->coords.x1 + pad_left;
1056:Drivers/lvgl/src/widgets/scale/lv_scale.c ****             y_ofs = obj->coords.y2 + (line_dsc.width / 2) - pad_bottom;
ARM GAS  /var/folders/qx/2_175_4n2s19vhvtspjhb3qh0000gn/T//ccmbJJmj.s 			page 20


1057:Drivers/lvgl/src/widgets/scale/lv_scale.c ****         }
1058:Drivers/lvgl/src/widgets/scale/lv_scale.c ****         else { /* Nothing to do */ }
1059:Drivers/lvgl/src/widgets/scale/lv_scale.c **** 
1060:Drivers/lvgl/src/widgets/scale/lv_scale.c ****         lv_point_t main_line_point_a;
1061:Drivers/lvgl/src/widgets/scale/lv_scale.c ****         lv_point_t main_line_point_b;
1062:Drivers/lvgl/src/widgets/scale/lv_scale.c **** 
1063:Drivers/lvgl/src/widgets/scale/lv_scale.c ****         /* Setup the tick points */
1064:Drivers/lvgl/src/widgets/scale/lv_scale.c ****         if(LV_SCALE_MODE_VERTICAL_LEFT == scale->mode || LV_SCALE_MODE_VERTICAL_RIGHT == scale->mod
1065:Drivers/lvgl/src/widgets/scale/lv_scale.c ****             main_line_point_a.x = x_ofs - 1;
1066:Drivers/lvgl/src/widgets/scale/lv_scale.c ****             main_line_point_a.y = y_ofs;
1067:Drivers/lvgl/src/widgets/scale/lv_scale.c ****             main_line_point_b.x = x_ofs - 1;
1068:Drivers/lvgl/src/widgets/scale/lv_scale.c ****             main_line_point_b.y = obj->coords.y2 - pad_bottom;
1069:Drivers/lvgl/src/widgets/scale/lv_scale.c **** 
1070:Drivers/lvgl/src/widgets/scale/lv_scale.c ****             /* Adjust main line with initial and last tick width */
1071:Drivers/lvgl/src/widgets/scale/lv_scale.c ****             main_line_point_a.y -= scale->last_tick_width / 2;
1072:Drivers/lvgl/src/widgets/scale/lv_scale.c ****             main_line_point_b.y += scale->first_tick_width / 2;
1073:Drivers/lvgl/src/widgets/scale/lv_scale.c ****         }
1074:Drivers/lvgl/src/widgets/scale/lv_scale.c ****         else {
1075:Drivers/lvgl/src/widgets/scale/lv_scale.c ****             main_line_point_a.x = x_ofs;
1076:Drivers/lvgl/src/widgets/scale/lv_scale.c ****             main_line_point_a.y = y_ofs;
1077:Drivers/lvgl/src/widgets/scale/lv_scale.c ****             /* X of second point starts at the edge of the object minus the left pad */
1078:Drivers/lvgl/src/widgets/scale/lv_scale.c ****             main_line_point_b.x = obj->coords.x2 - (pad_left);
1079:Drivers/lvgl/src/widgets/scale/lv_scale.c ****             main_line_point_b.y = y_ofs;
1080:Drivers/lvgl/src/widgets/scale/lv_scale.c **** 
1081:Drivers/lvgl/src/widgets/scale/lv_scale.c ****             /* Adjust main line with initial and last tick width */
1082:Drivers/lvgl/src/widgets/scale/lv_scale.c ****             main_line_point_a.x -= scale->last_tick_width / 2;
1083:Drivers/lvgl/src/widgets/scale/lv_scale.c ****             main_line_point_b.x += scale->first_tick_width / 2;
1084:Drivers/lvgl/src/widgets/scale/lv_scale.c ****         }
1085:Drivers/lvgl/src/widgets/scale/lv_scale.c **** 
1086:Drivers/lvgl/src/widgets/scale/lv_scale.c ****         line_dsc.p1 = lv_point_to_precise(&main_line_point_a);
1087:Drivers/lvgl/src/widgets/scale/lv_scale.c ****         line_dsc.p2 = lv_point_to_precise(&main_line_point_b);
1088:Drivers/lvgl/src/widgets/scale/lv_scale.c ****         lv_draw_line(layer, &line_dsc);
1089:Drivers/lvgl/src/widgets/scale/lv_scale.c **** 
1090:Drivers/lvgl/src/widgets/scale/lv_scale.c ****         lv_scale_section_t * section;
1091:Drivers/lvgl/src/widgets/scale/lv_scale.c ****         LV_LL_READ_BACK(&scale->section_ll, section) {
1092:Drivers/lvgl/src/widgets/scale/lv_scale.c ****             lv_draw_line_dsc_t section_line_dsc;
1093:Drivers/lvgl/src/widgets/scale/lv_scale.c ****             lv_draw_line_dsc_init(&section_line_dsc);
1094:Drivers/lvgl/src/widgets/scale/lv_scale.c ****             section_line_dsc.base.layer = layer;
1095:Drivers/lvgl/src/widgets/scale/lv_scale.c ****             lv_obj_init_draw_line_dsc(obj, LV_PART_MAIN, &section_line_dsc);
1096:Drivers/lvgl/src/widgets/scale/lv_scale.c **** 
1097:Drivers/lvgl/src/widgets/scale/lv_scale.c ****             /* Calculate the points of the section line */
1098:Drivers/lvgl/src/widgets/scale/lv_scale.c ****             lv_point_t section_point_a;
1099:Drivers/lvgl/src/widgets/scale/lv_scale.c ****             lv_point_t section_point_b;
1100:Drivers/lvgl/src/widgets/scale/lv_scale.c **** 
1101:Drivers/lvgl/src/widgets/scale/lv_scale.c ****             const int32_t first_tick_width_halved = (int32_t)(section->first_tick_in_section_width 
1102:Drivers/lvgl/src/widgets/scale/lv_scale.c ****             const int32_t last_tick_width_halved = (int32_t)(section->last_tick_in_section_width / 
1103:Drivers/lvgl/src/widgets/scale/lv_scale.c **** 
1104:Drivers/lvgl/src/widgets/scale/lv_scale.c ****             /* Calculate the position of the section based on the ticks (first and last) index */
1105:Drivers/lvgl/src/widgets/scale/lv_scale.c ****             if(LV_SCALE_MODE_VERTICAL_LEFT == scale->mode || LV_SCALE_MODE_VERTICAL_RIGHT == scale-
1106:Drivers/lvgl/src/widgets/scale/lv_scale.c ****                 /* Calculate position of the first tick in the section */
1107:Drivers/lvgl/src/widgets/scale/lv_scale.c ****                 section_point_a.x = main_line_point_a.x;
1108:Drivers/lvgl/src/widgets/scale/lv_scale.c ****                 section_point_a.y = section->first_tick_in_section.y + first_tick_width_halved;
1109:Drivers/lvgl/src/widgets/scale/lv_scale.c **** 
1110:Drivers/lvgl/src/widgets/scale/lv_scale.c ****                 /* Calculate position of the last tick in the section */
1111:Drivers/lvgl/src/widgets/scale/lv_scale.c ****                 section_point_b.x = main_line_point_a.x;
1112:Drivers/lvgl/src/widgets/scale/lv_scale.c ****                 section_point_b.y = section->last_tick_in_section.y - last_tick_width_halved;
1113:Drivers/lvgl/src/widgets/scale/lv_scale.c ****             }
ARM GAS  /var/folders/qx/2_175_4n2s19vhvtspjhb3qh0000gn/T//ccmbJJmj.s 			page 21


1114:Drivers/lvgl/src/widgets/scale/lv_scale.c ****             else {
1115:Drivers/lvgl/src/widgets/scale/lv_scale.c ****                 /* Calculate position of the first tick in the section */
1116:Drivers/lvgl/src/widgets/scale/lv_scale.c ****                 section_point_a.x = section->first_tick_in_section.x - first_tick_width_halved;
1117:Drivers/lvgl/src/widgets/scale/lv_scale.c ****                 section_point_a.y = main_line_point_a.y;
1118:Drivers/lvgl/src/widgets/scale/lv_scale.c **** 
1119:Drivers/lvgl/src/widgets/scale/lv_scale.c ****                 /* Calculate position of the last tick in the section */
1120:Drivers/lvgl/src/widgets/scale/lv_scale.c ****                 section_point_b.x = section->last_tick_in_section.x + last_tick_width_halved;
1121:Drivers/lvgl/src/widgets/scale/lv_scale.c ****                 section_point_b.y = main_line_point_a.y;
1122:Drivers/lvgl/src/widgets/scale/lv_scale.c ****             }
1123:Drivers/lvgl/src/widgets/scale/lv_scale.c **** 
1124:Drivers/lvgl/src/widgets/scale/lv_scale.c ****             scale_set_line_properties(obj, &section_line_dsc, section->main_style, LV_PART_MAIN);
1125:Drivers/lvgl/src/widgets/scale/lv_scale.c **** 
1126:Drivers/lvgl/src/widgets/scale/lv_scale.c ****             section_line_dsc.p1.x = section_point_a.x;
1127:Drivers/lvgl/src/widgets/scale/lv_scale.c ****             section_line_dsc.p1.y = section_point_a.y;
1128:Drivers/lvgl/src/widgets/scale/lv_scale.c ****             section_line_dsc.p2.x = section_point_b.x;
1129:Drivers/lvgl/src/widgets/scale/lv_scale.c ****             section_line_dsc.p2.y = section_point_b.y;
1130:Drivers/lvgl/src/widgets/scale/lv_scale.c ****             lv_draw_line(layer, &section_line_dsc);
1131:Drivers/lvgl/src/widgets/scale/lv_scale.c ****         }
1132:Drivers/lvgl/src/widgets/scale/lv_scale.c ****     }
1133:Drivers/lvgl/src/widgets/scale/lv_scale.c ****     else if(LV_SCALE_MODE_ROUND_OUTER == scale->mode || LV_SCALE_MODE_ROUND_INNER == scale->mode) {
1134:Drivers/lvgl/src/widgets/scale/lv_scale.c ****         /* Configure arc draw descriptors for the main part */
1135:Drivers/lvgl/src/widgets/scale/lv_scale.c ****         lv_draw_arc_dsc_t arc_dsc;
1136:Drivers/lvgl/src/widgets/scale/lv_scale.c ****         lv_draw_arc_dsc_init(&arc_dsc);
1137:Drivers/lvgl/src/widgets/scale/lv_scale.c ****         arc_dsc.base.layer = layer;
1138:Drivers/lvgl/src/widgets/scale/lv_scale.c ****         lv_obj_init_draw_arc_dsc(obj, LV_PART_MAIN, &arc_dsc);
1139:Drivers/lvgl/src/widgets/scale/lv_scale.c **** 
1140:Drivers/lvgl/src/widgets/scale/lv_scale.c ****         lv_point_t arc_center;
1141:Drivers/lvgl/src/widgets/scale/lv_scale.c ****         int32_t arc_radius;
1142:Drivers/lvgl/src/widgets/scale/lv_scale.c ****         scale_get_center(obj, &arc_center, &arc_radius);
1143:Drivers/lvgl/src/widgets/scale/lv_scale.c **** 
1144:Drivers/lvgl/src/widgets/scale/lv_scale.c ****         /* TODO: Add compensation for the width of the first and last tick over the arc */
1145:Drivers/lvgl/src/widgets/scale/lv_scale.c ****         const int32_t start_angle = lv_map(scale->range_min, scale->range_min, scale->range_max, sc
1146:Drivers/lvgl/src/widgets/scale/lv_scale.c ****                                            scale->rotation + scale->angle_range);
1147:Drivers/lvgl/src/widgets/scale/lv_scale.c ****         const int32_t end_angle = lv_map(scale->range_max, scale->range_min, scale->range_max, scal
1148:Drivers/lvgl/src/widgets/scale/lv_scale.c ****                                          scale->rotation + scale->angle_range);
1149:Drivers/lvgl/src/widgets/scale/lv_scale.c **** 
1150:Drivers/lvgl/src/widgets/scale/lv_scale.c ****         arc_dsc.center = arc_center;
1151:Drivers/lvgl/src/widgets/scale/lv_scale.c ****         arc_dsc.radius = arc_radius;
1152:Drivers/lvgl/src/widgets/scale/lv_scale.c ****         arc_dsc.start_angle = start_angle;
1153:Drivers/lvgl/src/widgets/scale/lv_scale.c ****         arc_dsc.end_angle = end_angle;
1154:Drivers/lvgl/src/widgets/scale/lv_scale.c **** 
1155:Drivers/lvgl/src/widgets/scale/lv_scale.c ****         lv_draw_arc(layer, &arc_dsc);
1156:Drivers/lvgl/src/widgets/scale/lv_scale.c **** 
1157:Drivers/lvgl/src/widgets/scale/lv_scale.c ****         lv_scale_section_t * section;
1158:Drivers/lvgl/src/widgets/scale/lv_scale.c ****         LV_LL_READ_BACK(&scale->section_ll, section) {
1159:Drivers/lvgl/src/widgets/scale/lv_scale.c ****             lv_draw_arc_dsc_t main_arc_section_dsc;
1160:Drivers/lvgl/src/widgets/scale/lv_scale.c ****             lv_draw_arc_dsc_init(&main_arc_section_dsc);
1161:Drivers/lvgl/src/widgets/scale/lv_scale.c ****             main_arc_section_dsc.base.layer = layer;
1162:Drivers/lvgl/src/widgets/scale/lv_scale.c ****             lv_obj_init_draw_arc_dsc(obj, LV_PART_MAIN, &main_arc_section_dsc);
1163:Drivers/lvgl/src/widgets/scale/lv_scale.c **** 
1164:Drivers/lvgl/src/widgets/scale/lv_scale.c ****             lv_point_t section_arc_center;
1165:Drivers/lvgl/src/widgets/scale/lv_scale.c ****             int32_t section_arc_radius;
1166:Drivers/lvgl/src/widgets/scale/lv_scale.c ****             scale_get_center(obj, &section_arc_center, &section_arc_radius);
1167:Drivers/lvgl/src/widgets/scale/lv_scale.c **** 
1168:Drivers/lvgl/src/widgets/scale/lv_scale.c ****             /* TODO: Add compensation for the width of the first and last tick over the arc */
1169:Drivers/lvgl/src/widgets/scale/lv_scale.c ****             const int32_t section_start_angle = lv_map(section->range_min, scale->range_min, scale-
1170:Drivers/lvgl/src/widgets/scale/lv_scale.c ****                                                        scale->rotation + scale->angle_range);
ARM GAS  /var/folders/qx/2_175_4n2s19vhvtspjhb3qh0000gn/T//ccmbJJmj.s 			page 22


1171:Drivers/lvgl/src/widgets/scale/lv_scale.c ****             const int32_t section_end_angle = lv_map(section->range_max, scale->range_min, scale->r
1172:Drivers/lvgl/src/widgets/scale/lv_scale.c ****                                                      scale->rotation + scale->angle_range);
1173:Drivers/lvgl/src/widgets/scale/lv_scale.c **** 
1174:Drivers/lvgl/src/widgets/scale/lv_scale.c ****             scale_set_arc_properties(obj, &main_arc_section_dsc, section->main_style);
1175:Drivers/lvgl/src/widgets/scale/lv_scale.c **** 
1176:Drivers/lvgl/src/widgets/scale/lv_scale.c ****             main_arc_section_dsc.center = section_arc_center;
1177:Drivers/lvgl/src/widgets/scale/lv_scale.c ****             main_arc_section_dsc.radius = section_arc_radius;
1178:Drivers/lvgl/src/widgets/scale/lv_scale.c ****             main_arc_section_dsc.start_angle = section_start_angle;
1179:Drivers/lvgl/src/widgets/scale/lv_scale.c ****             main_arc_section_dsc.end_angle = section_end_angle;
1180:Drivers/lvgl/src/widgets/scale/lv_scale.c **** 
1181:Drivers/lvgl/src/widgets/scale/lv_scale.c ****             lv_draw_arc(layer, &main_arc_section_dsc);
1182:Drivers/lvgl/src/widgets/scale/lv_scale.c ****         }
1183:Drivers/lvgl/src/widgets/scale/lv_scale.c ****     }
1184:Drivers/lvgl/src/widgets/scale/lv_scale.c ****     else { /* Nothing to do */ }
1185:Drivers/lvgl/src/widgets/scale/lv_scale.c **** }
1186:Drivers/lvgl/src/widgets/scale/lv_scale.c **** 
1187:Drivers/lvgl/src/widgets/scale/lv_scale.c **** /**
1188:Drivers/lvgl/src/widgets/scale/lv_scale.c ****  * Get center point and radius of scale arc
1189:Drivers/lvgl/src/widgets/scale/lv_scale.c ****  * @param obj       pointer to a scale object
1190:Drivers/lvgl/src/widgets/scale/lv_scale.c ****  * @param center    pointer to center
1191:Drivers/lvgl/src/widgets/scale/lv_scale.c ****  * @param arc_r     pointer to arc radius
1192:Drivers/lvgl/src/widgets/scale/lv_scale.c ****  */
1193:Drivers/lvgl/src/widgets/scale/lv_scale.c **** static void scale_get_center(const lv_obj_t * obj, lv_point_t * center, int32_t * arc_r)
1194:Drivers/lvgl/src/widgets/scale/lv_scale.c **** {
1195:Drivers/lvgl/src/widgets/scale/lv_scale.c ****     int32_t left_bg = lv_obj_get_style_pad_left(obj, LV_PART_MAIN);
1196:Drivers/lvgl/src/widgets/scale/lv_scale.c ****     int32_t right_bg = lv_obj_get_style_pad_right(obj, LV_PART_MAIN);
1197:Drivers/lvgl/src/widgets/scale/lv_scale.c ****     int32_t top_bg = lv_obj_get_style_pad_top(obj, LV_PART_MAIN);
1198:Drivers/lvgl/src/widgets/scale/lv_scale.c ****     int32_t bottom_bg = lv_obj_get_style_pad_bottom(obj, LV_PART_MAIN);
1199:Drivers/lvgl/src/widgets/scale/lv_scale.c **** 
1200:Drivers/lvgl/src/widgets/scale/lv_scale.c ****     int32_t r = (LV_MIN(lv_obj_get_width(obj) - left_bg - right_bg, lv_obj_get_height(obj) - top_bg
1201:Drivers/lvgl/src/widgets/scale/lv_scale.c **** 
1202:Drivers/lvgl/src/widgets/scale/lv_scale.c ****     center->x = obj->coords.x1 + r + left_bg;
1203:Drivers/lvgl/src/widgets/scale/lv_scale.c ****     center->y = obj->coords.y1 + r + top_bg;
1204:Drivers/lvgl/src/widgets/scale/lv_scale.c **** 
1205:Drivers/lvgl/src/widgets/scale/lv_scale.c ****     if(arc_r) *arc_r = r;
1206:Drivers/lvgl/src/widgets/scale/lv_scale.c **** }
1207:Drivers/lvgl/src/widgets/scale/lv_scale.c **** 
1208:Drivers/lvgl/src/widgets/scale/lv_scale.c **** /**
1209:Drivers/lvgl/src/widgets/scale/lv_scale.c ****  * Get points for ticks
1210:Drivers/lvgl/src/widgets/scale/lv_scale.c ****  *
1211:Drivers/lvgl/src/widgets/scale/lv_scale.c ****  * In order to draw ticks we need two points, this interface returns both points for all scale mode
1212:Drivers/lvgl/src/widgets/scale/lv_scale.c ****  *
1213:Drivers/lvgl/src/widgets/scale/lv_scale.c ****  * @param obj       pointer to a scale object
1214:Drivers/lvgl/src/widgets/scale/lv_scale.c ****  * @param tick_idx  index of the current tick
1215:Drivers/lvgl/src/widgets/scale/lv_scale.c ****  * @param is_major_tick true if tick_idx is a major tick
1216:Drivers/lvgl/src/widgets/scale/lv_scale.c ****  * @param tick_point_a  pointer to point 'a' of the tick
1217:Drivers/lvgl/src/widgets/scale/lv_scale.c ****  * @param tick_point_b  pointer to point 'b' of the tick
1218:Drivers/lvgl/src/widgets/scale/lv_scale.c ****  */
1219:Drivers/lvgl/src/widgets/scale/lv_scale.c **** static void scale_get_tick_points(lv_obj_t * obj, const uint32_t tick_idx, bool is_major_tick,
1220:Drivers/lvgl/src/widgets/scale/lv_scale.c ****                                   lv_point_t * tick_point_a, lv_point_t * tick_point_b)
1221:Drivers/lvgl/src/widgets/scale/lv_scale.c **** {
1222:Drivers/lvgl/src/widgets/scale/lv_scale.c ****     lv_scale_t * scale = (lv_scale_t *)obj;
1223:Drivers/lvgl/src/widgets/scale/lv_scale.c **** 
1224:Drivers/lvgl/src/widgets/scale/lv_scale.c ****     /* Main line style */
1225:Drivers/lvgl/src/widgets/scale/lv_scale.c ****     lv_draw_line_dsc_t main_line_dsc;
1226:Drivers/lvgl/src/widgets/scale/lv_scale.c ****     lv_draw_line_dsc_init(&main_line_dsc);
1227:Drivers/lvgl/src/widgets/scale/lv_scale.c ****     lv_obj_init_draw_line_dsc(obj, LV_PART_MAIN, &main_line_dsc);
ARM GAS  /var/folders/qx/2_175_4n2s19vhvtspjhb3qh0000gn/T//ccmbJJmj.s 			page 23


1228:Drivers/lvgl/src/widgets/scale/lv_scale.c **** 
1229:Drivers/lvgl/src/widgets/scale/lv_scale.c ****     int32_t minor_len = 0;
1230:Drivers/lvgl/src/widgets/scale/lv_scale.c ****     int32_t major_len = 0;
1231:Drivers/lvgl/src/widgets/scale/lv_scale.c ****     int32_t radial_offset = 0;
1232:Drivers/lvgl/src/widgets/scale/lv_scale.c **** 
1233:Drivers/lvgl/src/widgets/scale/lv_scale.c ****     if(is_major_tick) {
1234:Drivers/lvgl/src/widgets/scale/lv_scale.c ****         major_len = lv_obj_get_style_length(obj, LV_PART_INDICATOR);
1235:Drivers/lvgl/src/widgets/scale/lv_scale.c ****         radial_offset = lv_obj_get_style_radial_offset(obj, LV_PART_INDICATOR);
1236:Drivers/lvgl/src/widgets/scale/lv_scale.c ****     }
1237:Drivers/lvgl/src/widgets/scale/lv_scale.c ****     else {
1238:Drivers/lvgl/src/widgets/scale/lv_scale.c ****         minor_len = lv_obj_get_style_length(obj, LV_PART_ITEMS);
1239:Drivers/lvgl/src/widgets/scale/lv_scale.c ****         radial_offset = lv_obj_get_style_radial_offset(obj, LV_PART_ITEMS);
1240:Drivers/lvgl/src/widgets/scale/lv_scale.c ****     }
1241:Drivers/lvgl/src/widgets/scale/lv_scale.c **** 
1242:Drivers/lvgl/src/widgets/scale/lv_scale.c ****     if((LV_SCALE_MODE_VERTICAL_LEFT == scale->mode || LV_SCALE_MODE_VERTICAL_RIGHT == scale->mode)
1243:Drivers/lvgl/src/widgets/scale/lv_scale.c ****        || (LV_SCALE_MODE_HORIZONTAL_BOTTOM == scale->mode || LV_SCALE_MODE_HORIZONTAL_TOP == scale-
1244:Drivers/lvgl/src/widgets/scale/lv_scale.c **** 
1245:Drivers/lvgl/src/widgets/scale/lv_scale.c ****         /* Get style properties so they can be used in the tick and label drawing */
1246:Drivers/lvgl/src/widgets/scale/lv_scale.c ****         const int32_t border_width = lv_obj_get_style_border_width(obj, LV_PART_MAIN);
1247:Drivers/lvgl/src/widgets/scale/lv_scale.c ****         const int32_t pad_top = lv_obj_get_style_pad_top(obj, LV_PART_MAIN) + border_width;
1248:Drivers/lvgl/src/widgets/scale/lv_scale.c ****         const int32_t pad_bottom = lv_obj_get_style_pad_bottom(obj, LV_PART_MAIN) + border_width;
1249:Drivers/lvgl/src/widgets/scale/lv_scale.c ****         const int32_t pad_right = lv_obj_get_style_pad_right(obj, LV_PART_MAIN) + border_width;
1250:Drivers/lvgl/src/widgets/scale/lv_scale.c ****         const int32_t pad_left = lv_obj_get_style_pad_left(obj, LV_PART_MAIN) + border_width;
1251:Drivers/lvgl/src/widgets/scale/lv_scale.c ****         const int32_t tick_pad_right = lv_obj_get_style_pad_right(obj, LV_PART_ITEMS);
1252:Drivers/lvgl/src/widgets/scale/lv_scale.c ****         const int32_t tick_pad_left = lv_obj_get_style_pad_left(obj, LV_PART_ITEMS);
1253:Drivers/lvgl/src/widgets/scale/lv_scale.c ****         const int32_t tick_pad_top = lv_obj_get_style_pad_top(obj, LV_PART_ITEMS);
1254:Drivers/lvgl/src/widgets/scale/lv_scale.c ****         const int32_t tick_pad_bottom = lv_obj_get_style_pad_bottom(obj, LV_PART_ITEMS);
1255:Drivers/lvgl/src/widgets/scale/lv_scale.c **** 
1256:Drivers/lvgl/src/widgets/scale/lv_scale.c ****         int32_t x_ofs = 0;
1257:Drivers/lvgl/src/widgets/scale/lv_scale.c ****         int32_t y_ofs = 0;
1258:Drivers/lvgl/src/widgets/scale/lv_scale.c **** 
1259:Drivers/lvgl/src/widgets/scale/lv_scale.c ****         if(LV_SCALE_MODE_VERTICAL_LEFT == scale->mode) {
1260:Drivers/lvgl/src/widgets/scale/lv_scale.c ****             x_ofs = obj->coords.x2 + (main_line_dsc.width / 2) - pad_right;
1261:Drivers/lvgl/src/widgets/scale/lv_scale.c ****             y_ofs = obj->coords.y1 + (pad_top + tick_pad_top);
1262:Drivers/lvgl/src/widgets/scale/lv_scale.c ****         }
1263:Drivers/lvgl/src/widgets/scale/lv_scale.c ****         else if(LV_SCALE_MODE_VERTICAL_RIGHT == scale->mode) {
1264:Drivers/lvgl/src/widgets/scale/lv_scale.c ****             x_ofs = obj->coords.x1 + (main_line_dsc.width / 2) + pad_left;
1265:Drivers/lvgl/src/widgets/scale/lv_scale.c ****             y_ofs = obj->coords.y1 + (pad_top + tick_pad_top);
1266:Drivers/lvgl/src/widgets/scale/lv_scale.c ****         }
1267:Drivers/lvgl/src/widgets/scale/lv_scale.c ****         else if(LV_SCALE_MODE_HORIZONTAL_BOTTOM == scale->mode) {
1268:Drivers/lvgl/src/widgets/scale/lv_scale.c ****             x_ofs = obj->coords.x1 + (pad_right + tick_pad_right);
1269:Drivers/lvgl/src/widgets/scale/lv_scale.c ****             y_ofs = obj->coords.y1 + (main_line_dsc.width / 2) + pad_top;
1270:Drivers/lvgl/src/widgets/scale/lv_scale.c ****         }
1271:Drivers/lvgl/src/widgets/scale/lv_scale.c ****         /* LV_SCALE_MODE_HORIZONTAL_TOP == scale->mode */
1272:Drivers/lvgl/src/widgets/scale/lv_scale.c ****         else {
1273:Drivers/lvgl/src/widgets/scale/lv_scale.c ****             x_ofs = obj->coords.x1 + (pad_left + tick_pad_left);
1274:Drivers/lvgl/src/widgets/scale/lv_scale.c ****             y_ofs = obj->coords.y2 + (main_line_dsc.width / 2) - pad_bottom;
1275:Drivers/lvgl/src/widgets/scale/lv_scale.c ****         }
1276:Drivers/lvgl/src/widgets/scale/lv_scale.c **** 
1277:Drivers/lvgl/src/widgets/scale/lv_scale.c ****         /* Adjust length when tick will be drawn on horizontal top or vertical right scales */
1278:Drivers/lvgl/src/widgets/scale/lv_scale.c ****         if((LV_SCALE_MODE_HORIZONTAL_TOP == scale->mode) || (LV_SCALE_MODE_VERTICAL_RIGHT == scale-
1279:Drivers/lvgl/src/widgets/scale/lv_scale.c ****             if(is_major_tick) {
1280:Drivers/lvgl/src/widgets/scale/lv_scale.c ****                 major_len *= -1;
1281:Drivers/lvgl/src/widgets/scale/lv_scale.c ****             }
1282:Drivers/lvgl/src/widgets/scale/lv_scale.c ****             else {
1283:Drivers/lvgl/src/widgets/scale/lv_scale.c ****                 minor_len *= -1;
1284:Drivers/lvgl/src/widgets/scale/lv_scale.c ****             }
ARM GAS  /var/folders/qx/2_175_4n2s19vhvtspjhb3qh0000gn/T//ccmbJJmj.s 			page 24


1285:Drivers/lvgl/src/widgets/scale/lv_scale.c ****         }
1286:Drivers/lvgl/src/widgets/scale/lv_scale.c ****         else { /* Nothing to do */ }
1287:Drivers/lvgl/src/widgets/scale/lv_scale.c **** 
1288:Drivers/lvgl/src/widgets/scale/lv_scale.c ****         const int32_t tick_length = is_major_tick ? major_len : minor_len;
1289:Drivers/lvgl/src/widgets/scale/lv_scale.c ****         /* NOTE
1290:Drivers/lvgl/src/widgets/scale/lv_scale.c ****          * Minus 1 because tick count starts at 0
1291:Drivers/lvgl/src/widgets/scale/lv_scale.c ****          * TODO
1292:Drivers/lvgl/src/widgets/scale/lv_scale.c ****          * What if total_tick_count is 1? This will lead to an division by 0 further down */
1293:Drivers/lvgl/src/widgets/scale/lv_scale.c ****         const uint32_t tmp_tick_count = scale->total_tick_count - 1U;
1294:Drivers/lvgl/src/widgets/scale/lv_scale.c **** 
1295:Drivers/lvgl/src/widgets/scale/lv_scale.c ****         /* Calculate the position of the tick points based on the mode and tick index */
1296:Drivers/lvgl/src/widgets/scale/lv_scale.c ****         if(LV_SCALE_MODE_VERTICAL_LEFT == scale->mode || LV_SCALE_MODE_VERTICAL_RIGHT == scale->mod
1297:Drivers/lvgl/src/widgets/scale/lv_scale.c ****             /* Vertical position starts at y2 of the scale main line, we start at y2 because the ti
1298:Drivers/lvgl/src/widgets/scale/lv_scale.c ****             int32_t vertical_position = obj->coords.y2 - (pad_bottom + tick_pad_bottom);
1299:Drivers/lvgl/src/widgets/scale/lv_scale.c **** 
1300:Drivers/lvgl/src/widgets/scale/lv_scale.c ****             /* Position the last tick */
1301:Drivers/lvgl/src/widgets/scale/lv_scale.c ****             if(tmp_tick_count == tick_idx) {
1302:Drivers/lvgl/src/widgets/scale/lv_scale.c ****                 vertical_position = y_ofs;
1303:Drivers/lvgl/src/widgets/scale/lv_scale.c ****             }
1304:Drivers/lvgl/src/widgets/scale/lv_scale.c ****             /* Otherwise adjust the tick position depending of its index and number of ticks on the
1305:Drivers/lvgl/src/widgets/scale/lv_scale.c ****             else if(0 != tick_idx) {
1306:Drivers/lvgl/src/widgets/scale/lv_scale.c ****                 const int32_t scale_total_height = lv_obj_get_height(obj) - (pad_top + pad_bottom +
1307:Drivers/lvgl/src/widgets/scale/lv_scale.c ****                 const int32_t offset = ((int32_t) tick_idx * (int32_t) scale_total_height) / (int32
1308:Drivers/lvgl/src/widgets/scale/lv_scale.c ****                 vertical_position -= offset;
1309:Drivers/lvgl/src/widgets/scale/lv_scale.c ****             }
1310:Drivers/lvgl/src/widgets/scale/lv_scale.c ****             else { /* Nothing to do */ }
1311:Drivers/lvgl/src/widgets/scale/lv_scale.c **** 
1312:Drivers/lvgl/src/widgets/scale/lv_scale.c ****             tick_point_a->x = x_ofs - 1; /* Move extra pixel out of scale boundary */
1313:Drivers/lvgl/src/widgets/scale/lv_scale.c ****             tick_point_a->y = vertical_position;
1314:Drivers/lvgl/src/widgets/scale/lv_scale.c ****             tick_point_b->x = tick_point_a->x - tick_length;
1315:Drivers/lvgl/src/widgets/scale/lv_scale.c ****             tick_point_b->y = vertical_position;
1316:Drivers/lvgl/src/widgets/scale/lv_scale.c ****         }
1317:Drivers/lvgl/src/widgets/scale/lv_scale.c ****         else {
1318:Drivers/lvgl/src/widgets/scale/lv_scale.c ****             /* Horizontal position starts at x1 of the scale main line */
1319:Drivers/lvgl/src/widgets/scale/lv_scale.c ****             int32_t horizontal_position = x_ofs;
1320:Drivers/lvgl/src/widgets/scale/lv_scale.c **** 
1321:Drivers/lvgl/src/widgets/scale/lv_scale.c ****             /* Position the last tick */
1322:Drivers/lvgl/src/widgets/scale/lv_scale.c ****             if(tmp_tick_count == tick_idx) {
1323:Drivers/lvgl/src/widgets/scale/lv_scale.c ****                 horizontal_position = obj->coords.x2 - (pad_left + tick_pad_left);
1324:Drivers/lvgl/src/widgets/scale/lv_scale.c ****             }
1325:Drivers/lvgl/src/widgets/scale/lv_scale.c ****             /* Otherwise adjust the tick position depending of its index and number of ticks on the
1326:Drivers/lvgl/src/widgets/scale/lv_scale.c ****             else if(0U != tick_idx) {
1327:Drivers/lvgl/src/widgets/scale/lv_scale.c ****                 const int32_t scale_total_width = lv_obj_get_width(obj) - (pad_right + pad_left + t
1328:Drivers/lvgl/src/widgets/scale/lv_scale.c ****                 const int32_t offset = ((int32_t) tick_idx * (int32_t) scale_total_width) / (int32_
1329:Drivers/lvgl/src/widgets/scale/lv_scale.c ****                 horizontal_position += offset;
1330:Drivers/lvgl/src/widgets/scale/lv_scale.c ****             }
1331:Drivers/lvgl/src/widgets/scale/lv_scale.c ****             else { /* Nothing to do */ }
1332:Drivers/lvgl/src/widgets/scale/lv_scale.c **** 
1333:Drivers/lvgl/src/widgets/scale/lv_scale.c ****             tick_point_a->x = horizontal_position;
1334:Drivers/lvgl/src/widgets/scale/lv_scale.c ****             tick_point_a->y = y_ofs;
1335:Drivers/lvgl/src/widgets/scale/lv_scale.c ****             tick_point_b->x = horizontal_position;
1336:Drivers/lvgl/src/widgets/scale/lv_scale.c ****             tick_point_b->y = tick_point_a->y + tick_length;
1337:Drivers/lvgl/src/widgets/scale/lv_scale.c ****         }
1338:Drivers/lvgl/src/widgets/scale/lv_scale.c ****     }
1339:Drivers/lvgl/src/widgets/scale/lv_scale.c ****     else if(LV_SCALE_MODE_ROUND_OUTER == scale->mode || LV_SCALE_MODE_ROUND_INNER == scale->mode) {
1340:Drivers/lvgl/src/widgets/scale/lv_scale.c ****         lv_area_t scale_area;
1341:Drivers/lvgl/src/widgets/scale/lv_scale.c ****         lv_obj_get_content_coords(obj, &scale_area);
ARM GAS  /var/folders/qx/2_175_4n2s19vhvtspjhb3qh0000gn/T//ccmbJJmj.s 			page 25


1342:Drivers/lvgl/src/widgets/scale/lv_scale.c **** 
1343:Drivers/lvgl/src/widgets/scale/lv_scale.c ****         /* Find the center of the scale */
1344:Drivers/lvgl/src/widgets/scale/lv_scale.c ****         lv_point_t center_point;
1345:Drivers/lvgl/src/widgets/scale/lv_scale.c ****         const int32_t radius_edge = LV_MIN(lv_area_get_width(&scale_area) / 2, lv_area_get_height(&
1346:Drivers/lvgl/src/widgets/scale/lv_scale.c ****         center_point.x = scale_area.x1 + radius_edge;
1347:Drivers/lvgl/src/widgets/scale/lv_scale.c ****         center_point.y = scale_area.y1 + radius_edge;
1348:Drivers/lvgl/src/widgets/scale/lv_scale.c **** 
1349:Drivers/lvgl/src/widgets/scale/lv_scale.c ****         int32_t angle_upscale = (int32_t)((tick_idx * scale->angle_range) * 10U) / (scale->total_ti
1350:Drivers/lvgl/src/widgets/scale/lv_scale.c ****         angle_upscale += scale->rotation * 10;
1351:Drivers/lvgl/src/widgets/scale/lv_scale.c **** 
1352:Drivers/lvgl/src/widgets/scale/lv_scale.c ****         /* Draw a little bit longer lines to be sure the mask will clip them correctly
1353:Drivers/lvgl/src/widgets/scale/lv_scale.c ****          * and to get a better precision. Adding the main line width to the calculation so we don't
1354:Drivers/lvgl/src/widgets/scale/lv_scale.c ****          * between the arc and the ticks */
1355:Drivers/lvgl/src/widgets/scale/lv_scale.c ****         int32_t point_closer_to_arc = 0;
1356:Drivers/lvgl/src/widgets/scale/lv_scale.c ****         int32_t adjusted_radio_with_tick_len = 0;
1357:Drivers/lvgl/src/widgets/scale/lv_scale.c ****         if(LV_SCALE_MODE_ROUND_INNER == scale->mode) {
1358:Drivers/lvgl/src/widgets/scale/lv_scale.c ****             point_closer_to_arc = radius_edge - main_line_dsc.width;
1359:Drivers/lvgl/src/widgets/scale/lv_scale.c ****             adjusted_radio_with_tick_len = point_closer_to_arc - (is_major_tick ? major_len : minor
1360:Drivers/lvgl/src/widgets/scale/lv_scale.c ****         }
1361:Drivers/lvgl/src/widgets/scale/lv_scale.c ****         /* LV_SCALE_MODE_ROUND_OUTER == scale->mode */
1362:Drivers/lvgl/src/widgets/scale/lv_scale.c ****         else {
1363:Drivers/lvgl/src/widgets/scale/lv_scale.c ****             point_closer_to_arc = radius_edge - main_line_dsc.width;
1364:Drivers/lvgl/src/widgets/scale/lv_scale.c ****             adjusted_radio_with_tick_len = point_closer_to_arc + (is_major_tick ? major_len : minor
1365:Drivers/lvgl/src/widgets/scale/lv_scale.c ****         }
1366:Drivers/lvgl/src/widgets/scale/lv_scale.c **** 
1367:Drivers/lvgl/src/widgets/scale/lv_scale.c ****         tick_point_a->x = center_point.x + point_closer_to_arc + radial_offset;
1368:Drivers/lvgl/src/widgets/scale/lv_scale.c ****         tick_point_a->y = center_point.y;
1369:Drivers/lvgl/src/widgets/scale/lv_scale.c ****         lv_point_transform(tick_point_a, angle_upscale, LV_SCALE_NONE, LV_SCALE_NONE, &center_point
1370:Drivers/lvgl/src/widgets/scale/lv_scale.c **** 
1371:Drivers/lvgl/src/widgets/scale/lv_scale.c ****         tick_point_b->x = center_point.x + adjusted_radio_with_tick_len + radial_offset;
1372:Drivers/lvgl/src/widgets/scale/lv_scale.c ****         tick_point_b->y = center_point.y;
1373:Drivers/lvgl/src/widgets/scale/lv_scale.c ****         lv_point_transform(tick_point_b, angle_upscale, LV_SCALE_NONE, LV_SCALE_NONE, &center_point
1374:Drivers/lvgl/src/widgets/scale/lv_scale.c ****     }
1375:Drivers/lvgl/src/widgets/scale/lv_scale.c ****     else { /* Nothing to do */ }
1376:Drivers/lvgl/src/widgets/scale/lv_scale.c **** }
1377:Drivers/lvgl/src/widgets/scale/lv_scale.c **** 
1378:Drivers/lvgl/src/widgets/scale/lv_scale.c **** /**
1379:Drivers/lvgl/src/widgets/scale/lv_scale.c ****  * Get coordinates for label
1380:Drivers/lvgl/src/widgets/scale/lv_scale.c ****  *
1381:Drivers/lvgl/src/widgets/scale/lv_scale.c ****  * @param obj       pointer to a scale object
1382:Drivers/lvgl/src/widgets/scale/lv_scale.c ****  * @param label_dsc pointer to label descriptor
1383:Drivers/lvgl/src/widgets/scale/lv_scale.c ****  * @param tick_point    pointer to reference tick
1384:Drivers/lvgl/src/widgets/scale/lv_scale.c ****  * @param label_coords  pointer to label coordinates output
1385:Drivers/lvgl/src/widgets/scale/lv_scale.c ****  */
1386:Drivers/lvgl/src/widgets/scale/lv_scale.c **** static void scale_get_label_coords(lv_obj_t * obj, lv_draw_label_dsc_t * label_dsc, lv_point_t * ti
1387:Drivers/lvgl/src/widgets/scale/lv_scale.c ****                                    lv_area_t * label_coords)
1388:Drivers/lvgl/src/widgets/scale/lv_scale.c **** {
1389:Drivers/lvgl/src/widgets/scale/lv_scale.c ****     lv_scale_t * scale = (lv_scale_t *)obj;
1390:Drivers/lvgl/src/widgets/scale/lv_scale.c **** 
1391:Drivers/lvgl/src/widgets/scale/lv_scale.c ****     lv_text_attributes_t attributes = {0};
1392:Drivers/lvgl/src/widgets/scale/lv_scale.c ****     attributes.letter_space = label_dsc->letter_space;
1393:Drivers/lvgl/src/widgets/scale/lv_scale.c ****     attributes.line_space = label_dsc->line_space;
1394:Drivers/lvgl/src/widgets/scale/lv_scale.c ****     attributes.max_width = LV_COORD_MAX;
1395:Drivers/lvgl/src/widgets/scale/lv_scale.c ****     attributes.text_flags = LV_TEXT_FLAG_NONE;
1396:Drivers/lvgl/src/widgets/scale/lv_scale.c **** 
1397:Drivers/lvgl/src/widgets/scale/lv_scale.c ****     /* Reserve appropriate size for the tick label */
1398:Drivers/lvgl/src/widgets/scale/lv_scale.c ****     lv_point_t label_size;
ARM GAS  /var/folders/qx/2_175_4n2s19vhvtspjhb3qh0000gn/T//ccmbJJmj.s 			page 26


1399:Drivers/lvgl/src/widgets/scale/lv_scale.c **** 
1400:Drivers/lvgl/src/widgets/scale/lv_scale.c ****     if(label_dsc->text != NULL) {
1401:Drivers/lvgl/src/widgets/scale/lv_scale.c ****         lv_text_get_size_attributes(&label_size, label_dsc->text, label_dsc->font, &attributes);
1402:Drivers/lvgl/src/widgets/scale/lv_scale.c ****     }
1403:Drivers/lvgl/src/widgets/scale/lv_scale.c ****     else {
1404:Drivers/lvgl/src/widgets/scale/lv_scale.c ****         label_size.x = 0;
1405:Drivers/lvgl/src/widgets/scale/lv_scale.c ****         label_size.y = 0;
1406:Drivers/lvgl/src/widgets/scale/lv_scale.c ****     }
1407:Drivers/lvgl/src/widgets/scale/lv_scale.c **** 
1408:Drivers/lvgl/src/widgets/scale/lv_scale.c ****     /* Set the label draw area at some distance of the major tick */
1409:Drivers/lvgl/src/widgets/scale/lv_scale.c ****     if((LV_SCALE_MODE_HORIZONTAL_BOTTOM == scale->mode) || (LV_SCALE_MODE_HORIZONTAL_TOP == scale->
1410:Drivers/lvgl/src/widgets/scale/lv_scale.c ****         label_coords->x1 = tick_point->x - (label_size.x / 2);
1411:Drivers/lvgl/src/widgets/scale/lv_scale.c ****         label_coords->x2 = tick_point->x + (label_size.x / 2);
1412:Drivers/lvgl/src/widgets/scale/lv_scale.c **** 
1413:Drivers/lvgl/src/widgets/scale/lv_scale.c ****         if(LV_SCALE_MODE_HORIZONTAL_BOTTOM == scale->mode) {
1414:Drivers/lvgl/src/widgets/scale/lv_scale.c ****             label_coords->y1 = tick_point->y + lv_obj_get_style_pad_bottom(obj, LV_PART_INDICATOR);
1415:Drivers/lvgl/src/widgets/scale/lv_scale.c ****             label_coords->y2 = label_coords->y1 + label_size.y;
1416:Drivers/lvgl/src/widgets/scale/lv_scale.c ****         }
1417:Drivers/lvgl/src/widgets/scale/lv_scale.c ****         else {
1418:Drivers/lvgl/src/widgets/scale/lv_scale.c ****             label_coords->y2 = tick_point->y - lv_obj_get_style_pad_top(obj, LV_PART_INDICATOR);
1419:Drivers/lvgl/src/widgets/scale/lv_scale.c ****             label_coords->y1 = label_coords->y2 - label_size.y;
1420:Drivers/lvgl/src/widgets/scale/lv_scale.c ****         }
1421:Drivers/lvgl/src/widgets/scale/lv_scale.c ****     }
1422:Drivers/lvgl/src/widgets/scale/lv_scale.c ****     else if((LV_SCALE_MODE_VERTICAL_LEFT == scale->mode) || (LV_SCALE_MODE_VERTICAL_RIGHT == scale-
1423:Drivers/lvgl/src/widgets/scale/lv_scale.c ****         label_coords->y1 = tick_point->y - (label_size.y / 2);
1424:Drivers/lvgl/src/widgets/scale/lv_scale.c ****         label_coords->y2 = tick_point->y + (label_size.y / 2);
1425:Drivers/lvgl/src/widgets/scale/lv_scale.c **** 
1426:Drivers/lvgl/src/widgets/scale/lv_scale.c ****         if(LV_SCALE_MODE_VERTICAL_LEFT == scale->mode) {
1427:Drivers/lvgl/src/widgets/scale/lv_scale.c ****             label_coords->x1 = tick_point->x - label_size.x - lv_obj_get_style_pad_left(obj, LV_PAR
1428:Drivers/lvgl/src/widgets/scale/lv_scale.c ****             label_coords->x2 = tick_point->x - lv_obj_get_style_pad_left(obj, LV_PART_INDICATOR);
1429:Drivers/lvgl/src/widgets/scale/lv_scale.c ****         }
1430:Drivers/lvgl/src/widgets/scale/lv_scale.c ****         else {
1431:Drivers/lvgl/src/widgets/scale/lv_scale.c ****             label_coords->x1 = tick_point->x + lv_obj_get_style_pad_right(obj, LV_PART_INDICATOR);
1432:Drivers/lvgl/src/widgets/scale/lv_scale.c ****             label_coords->x2 = tick_point->x + label_size.x + lv_obj_get_style_pad_right(obj, LV_PA
1433:Drivers/lvgl/src/widgets/scale/lv_scale.c ****         }
1434:Drivers/lvgl/src/widgets/scale/lv_scale.c ****     }
1435:Drivers/lvgl/src/widgets/scale/lv_scale.c ****     else if(LV_SCALE_MODE_ROUND_OUTER == scale->mode || LV_SCALE_MODE_ROUND_INNER == scale->mode) {
1436:Drivers/lvgl/src/widgets/scale/lv_scale.c ****         label_coords->x1 = tick_point->x - (label_size.x / 2);
1437:Drivers/lvgl/src/widgets/scale/lv_scale.c ****         label_coords->y1 = tick_point->y - (label_size.y / 2);
1438:Drivers/lvgl/src/widgets/scale/lv_scale.c ****         label_coords->x2 = label_coords->x1 + label_size.x;
1439:Drivers/lvgl/src/widgets/scale/lv_scale.c ****         label_coords->y2 = label_coords->y1 + label_size.y;
1440:Drivers/lvgl/src/widgets/scale/lv_scale.c ****     }
1441:Drivers/lvgl/src/widgets/scale/lv_scale.c ****     else { /* Nothing to do */ }
1442:Drivers/lvgl/src/widgets/scale/lv_scale.c **** }
1443:Drivers/lvgl/src/widgets/scale/lv_scale.c **** 
1444:Drivers/lvgl/src/widgets/scale/lv_scale.c **** /**
1445:Drivers/lvgl/src/widgets/scale/lv_scale.c ****  * Set line properties
1446:Drivers/lvgl/src/widgets/scale/lv_scale.c ****  *
1447:Drivers/lvgl/src/widgets/scale/lv_scale.c ****  * Checks if the line has a custom section configuration or not and sets the properties accordingly
1448:Drivers/lvgl/src/widgets/scale/lv_scale.c ****  *
1449:Drivers/lvgl/src/widgets/scale/lv_scale.c ****  * @param obj       pointer to a scale object
1450:Drivers/lvgl/src/widgets/scale/lv_scale.c ****  * @param line_dsc  pointer to line descriptor
1451:Drivers/lvgl/src/widgets/scale/lv_scale.c ****  * @param items_section_style  pointer to indicator section style
1452:Drivers/lvgl/src/widgets/scale/lv_scale.c ****  * @param part      line part, example: LV_PART_INDICATOR, LV_PART_ITEMS, LV_PART_MAIN
1453:Drivers/lvgl/src/widgets/scale/lv_scale.c ****  */
1454:Drivers/lvgl/src/widgets/scale/lv_scale.c **** static void scale_set_line_properties(lv_obj_t * obj, lv_draw_line_dsc_t * line_dsc, const lv_style
1455:Drivers/lvgl/src/widgets/scale/lv_scale.c ****                                       lv_part_t part)
ARM GAS  /var/folders/qx/2_175_4n2s19vhvtspjhb3qh0000gn/T//ccmbJJmj.s 			page 27


1456:Drivers/lvgl/src/widgets/scale/lv_scale.c **** {
1457:Drivers/lvgl/src/widgets/scale/lv_scale.c ****     if(section_style) {
1458:Drivers/lvgl/src/widgets/scale/lv_scale.c ****         lv_style_value_t value;
1459:Drivers/lvgl/src/widgets/scale/lv_scale.c ****         lv_style_res_t res;
1460:Drivers/lvgl/src/widgets/scale/lv_scale.c **** 
1461:Drivers/lvgl/src/widgets/scale/lv_scale.c ****         /* Line width */
1462:Drivers/lvgl/src/widgets/scale/lv_scale.c ****         res = lv_style_get_prop(section_style, LV_STYLE_LINE_WIDTH, &value);
1463:Drivers/lvgl/src/widgets/scale/lv_scale.c ****         if(res == LV_STYLE_RES_FOUND) {
1464:Drivers/lvgl/src/widgets/scale/lv_scale.c ****             line_dsc->width = (int32_t)value.num;
1465:Drivers/lvgl/src/widgets/scale/lv_scale.c ****         }
1466:Drivers/lvgl/src/widgets/scale/lv_scale.c ****         else {
1467:Drivers/lvgl/src/widgets/scale/lv_scale.c ****             line_dsc->width = lv_obj_get_style_line_width(obj, part);
1468:Drivers/lvgl/src/widgets/scale/lv_scale.c ****         }
1469:Drivers/lvgl/src/widgets/scale/lv_scale.c **** 
1470:Drivers/lvgl/src/widgets/scale/lv_scale.c ****         /* Line color */
1471:Drivers/lvgl/src/widgets/scale/lv_scale.c ****         res = lv_style_get_prop(section_style, LV_STYLE_LINE_COLOR, &value);
1472:Drivers/lvgl/src/widgets/scale/lv_scale.c ****         if(res == LV_STYLE_RES_FOUND) {
1473:Drivers/lvgl/src/widgets/scale/lv_scale.c ****             line_dsc->color = value.color;
1474:Drivers/lvgl/src/widgets/scale/lv_scale.c ****         }
1475:Drivers/lvgl/src/widgets/scale/lv_scale.c ****         else {
1476:Drivers/lvgl/src/widgets/scale/lv_scale.c ****             line_dsc->color = lv_obj_get_style_line_color(obj, part);
1477:Drivers/lvgl/src/widgets/scale/lv_scale.c ****         }
1478:Drivers/lvgl/src/widgets/scale/lv_scale.c **** 
1479:Drivers/lvgl/src/widgets/scale/lv_scale.c ****         /* Line opa */
1480:Drivers/lvgl/src/widgets/scale/lv_scale.c ****         res = lv_style_get_prop(section_style, LV_STYLE_LINE_OPA, &value);
1481:Drivers/lvgl/src/widgets/scale/lv_scale.c ****         if(res == LV_STYLE_RES_FOUND) {
1482:Drivers/lvgl/src/widgets/scale/lv_scale.c ****             line_dsc->opa = (lv_opa_t)value.num;
1483:Drivers/lvgl/src/widgets/scale/lv_scale.c ****         }
1484:Drivers/lvgl/src/widgets/scale/lv_scale.c ****         else {
1485:Drivers/lvgl/src/widgets/scale/lv_scale.c ****             line_dsc->opa = lv_obj_get_style_line_opa(obj, part);
1486:Drivers/lvgl/src/widgets/scale/lv_scale.c ****         }
1487:Drivers/lvgl/src/widgets/scale/lv_scale.c ****     }
1488:Drivers/lvgl/src/widgets/scale/lv_scale.c ****     else {
1489:Drivers/lvgl/src/widgets/scale/lv_scale.c ****         line_dsc->color = lv_obj_get_style_line_color(obj, part);
1490:Drivers/lvgl/src/widgets/scale/lv_scale.c ****         line_dsc->opa = lv_obj_get_style_line_opa(obj, part);
1491:Drivers/lvgl/src/widgets/scale/lv_scale.c ****         line_dsc->width = lv_obj_get_style_line_width(obj, part);
1492:Drivers/lvgl/src/widgets/scale/lv_scale.c ****     }
1493:Drivers/lvgl/src/widgets/scale/lv_scale.c **** }
1494:Drivers/lvgl/src/widgets/scale/lv_scale.c **** 
1495:Drivers/lvgl/src/widgets/scale/lv_scale.c **** /**
1496:Drivers/lvgl/src/widgets/scale/lv_scale.c ****  * Set arc properties
1497:Drivers/lvgl/src/widgets/scale/lv_scale.c ****  *
1498:Drivers/lvgl/src/widgets/scale/lv_scale.c ****  * Checks if the arc has a custom section configuration or not and sets the properties accordingly.
1499:Drivers/lvgl/src/widgets/scale/lv_scale.c ****  *
1500:Drivers/lvgl/src/widgets/scale/lv_scale.c ****  * @param obj       pointer to a scale object
1501:Drivers/lvgl/src/widgets/scale/lv_scale.c ****  * @param arc_dsc  pointer to arc descriptor
1502:Drivers/lvgl/src/widgets/scale/lv_scale.c ****  * @param items_section_style  pointer to indicator section style
1503:Drivers/lvgl/src/widgets/scale/lv_scale.c ****  */
1504:Drivers/lvgl/src/widgets/scale/lv_scale.c **** static void scale_set_arc_properties(lv_obj_t * obj, lv_draw_arc_dsc_t * arc_dsc, const lv_style_t 
1505:Drivers/lvgl/src/widgets/scale/lv_scale.c **** {
1506:Drivers/lvgl/src/widgets/scale/lv_scale.c ****     if(section_style) {
1507:Drivers/lvgl/src/widgets/scale/lv_scale.c ****         lv_style_value_t value;
1508:Drivers/lvgl/src/widgets/scale/lv_scale.c ****         lv_style_res_t res;
1509:Drivers/lvgl/src/widgets/scale/lv_scale.c **** 
1510:Drivers/lvgl/src/widgets/scale/lv_scale.c ****         /* arc width */
1511:Drivers/lvgl/src/widgets/scale/lv_scale.c ****         res = lv_style_get_prop(section_style, LV_STYLE_ARC_WIDTH, &value);
1512:Drivers/lvgl/src/widgets/scale/lv_scale.c ****         if(res == LV_STYLE_RES_FOUND) {
ARM GAS  /var/folders/qx/2_175_4n2s19vhvtspjhb3qh0000gn/T//ccmbJJmj.s 			page 28


1513:Drivers/lvgl/src/widgets/scale/lv_scale.c ****             arc_dsc->width = (int32_t)value.num;
1514:Drivers/lvgl/src/widgets/scale/lv_scale.c ****         }
1515:Drivers/lvgl/src/widgets/scale/lv_scale.c ****         else {
1516:Drivers/lvgl/src/widgets/scale/lv_scale.c ****             arc_dsc->width = lv_obj_get_style_arc_width(obj, LV_PART_MAIN);
1517:Drivers/lvgl/src/widgets/scale/lv_scale.c ****         }
1518:Drivers/lvgl/src/widgets/scale/lv_scale.c **** 
1519:Drivers/lvgl/src/widgets/scale/lv_scale.c ****         /* arc color */
1520:Drivers/lvgl/src/widgets/scale/lv_scale.c ****         res = lv_style_get_prop(section_style, LV_STYLE_ARC_COLOR, &value);
1521:Drivers/lvgl/src/widgets/scale/lv_scale.c ****         if(res == LV_STYLE_RES_FOUND) {
1522:Drivers/lvgl/src/widgets/scale/lv_scale.c ****             arc_dsc->color = value.color;
1523:Drivers/lvgl/src/widgets/scale/lv_scale.c ****         }
1524:Drivers/lvgl/src/widgets/scale/lv_scale.c ****         else {
1525:Drivers/lvgl/src/widgets/scale/lv_scale.c ****             arc_dsc->color = lv_obj_get_style_arc_color(obj, LV_PART_MAIN);
1526:Drivers/lvgl/src/widgets/scale/lv_scale.c ****         }
1527:Drivers/lvgl/src/widgets/scale/lv_scale.c **** 
1528:Drivers/lvgl/src/widgets/scale/lv_scale.c ****         /* arc opa */
1529:Drivers/lvgl/src/widgets/scale/lv_scale.c ****         res = lv_style_get_prop(section_style, LV_STYLE_ARC_OPA, &value);
1530:Drivers/lvgl/src/widgets/scale/lv_scale.c ****         if(res == LV_STYLE_RES_FOUND) {
1531:Drivers/lvgl/src/widgets/scale/lv_scale.c ****             arc_dsc->opa = (lv_opa_t)value.num;
1532:Drivers/lvgl/src/widgets/scale/lv_scale.c ****         }
1533:Drivers/lvgl/src/widgets/scale/lv_scale.c ****         else {
1534:Drivers/lvgl/src/widgets/scale/lv_scale.c ****             arc_dsc->opa = lv_obj_get_style_arc_opa(obj, LV_PART_MAIN);
1535:Drivers/lvgl/src/widgets/scale/lv_scale.c ****         }
1536:Drivers/lvgl/src/widgets/scale/lv_scale.c **** 
1537:Drivers/lvgl/src/widgets/scale/lv_scale.c ****         /* arc rounded */
1538:Drivers/lvgl/src/widgets/scale/lv_scale.c ****         res = lv_style_get_prop(section_style, LV_STYLE_ARC_ROUNDED, &value);
1539:Drivers/lvgl/src/widgets/scale/lv_scale.c ****         if(res == LV_STYLE_RES_FOUND) {
1540:Drivers/lvgl/src/widgets/scale/lv_scale.c ****             arc_dsc->rounded = (uint8_t)value.num;
1541:Drivers/lvgl/src/widgets/scale/lv_scale.c ****         }
1542:Drivers/lvgl/src/widgets/scale/lv_scale.c ****         else {
1543:Drivers/lvgl/src/widgets/scale/lv_scale.c ****             arc_dsc->rounded = lv_obj_get_style_arc_rounded(obj, LV_PART_MAIN);
1544:Drivers/lvgl/src/widgets/scale/lv_scale.c ****         }
1545:Drivers/lvgl/src/widgets/scale/lv_scale.c **** 
1546:Drivers/lvgl/src/widgets/scale/lv_scale.c ****         /* arc image src */
1547:Drivers/lvgl/src/widgets/scale/lv_scale.c ****         res = lv_style_get_prop(section_style, LV_STYLE_ARC_IMAGE_SRC, &value);
1548:Drivers/lvgl/src/widgets/scale/lv_scale.c ****         if(res == LV_STYLE_RES_FOUND) {
1549:Drivers/lvgl/src/widgets/scale/lv_scale.c ****             arc_dsc->img_src = (const void *)value.ptr;
1550:Drivers/lvgl/src/widgets/scale/lv_scale.c ****         }
1551:Drivers/lvgl/src/widgets/scale/lv_scale.c ****         else {
1552:Drivers/lvgl/src/widgets/scale/lv_scale.c ****             arc_dsc->img_src = lv_obj_get_style_arc_image_src(obj, LV_PART_MAIN);
1553:Drivers/lvgl/src/widgets/scale/lv_scale.c ****         }
1554:Drivers/lvgl/src/widgets/scale/lv_scale.c ****     }
1555:Drivers/lvgl/src/widgets/scale/lv_scale.c ****     else {
1556:Drivers/lvgl/src/widgets/scale/lv_scale.c ****         arc_dsc->color = lv_obj_get_style_arc_color(obj, LV_PART_MAIN);
1557:Drivers/lvgl/src/widgets/scale/lv_scale.c ****         arc_dsc->opa = lv_obj_get_style_arc_opa(obj, LV_PART_MAIN);
1558:Drivers/lvgl/src/widgets/scale/lv_scale.c ****         arc_dsc->width = lv_obj_get_style_arc_width(obj, LV_PART_MAIN);
1559:Drivers/lvgl/src/widgets/scale/lv_scale.c ****         arc_dsc->rounded = lv_obj_get_style_arc_rounded(obj, LV_PART_MAIN);
1560:Drivers/lvgl/src/widgets/scale/lv_scale.c ****         arc_dsc->img_src = lv_obj_get_style_arc_image_src(obj, LV_PART_MAIN);
1561:Drivers/lvgl/src/widgets/scale/lv_scale.c ****     }
1562:Drivers/lvgl/src/widgets/scale/lv_scale.c **** }
1563:Drivers/lvgl/src/widgets/scale/lv_scale.c **** 
1564:Drivers/lvgl/src/widgets/scale/lv_scale.c **** /**
1565:Drivers/lvgl/src/widgets/scale/lv_scale.c ****  * Set indicator label properties
1566:Drivers/lvgl/src/widgets/scale/lv_scale.c ****  *
1567:Drivers/lvgl/src/widgets/scale/lv_scale.c ****  * Checks if the indicator has a custom section configuration or not and sets the properties accord
1568:Drivers/lvgl/src/widgets/scale/lv_scale.c ****  *
1569:Drivers/lvgl/src/widgets/scale/lv_scale.c ****  * @param obj       pointer to a scale object
ARM GAS  /var/folders/qx/2_175_4n2s19vhvtspjhb3qh0000gn/T//ccmbJJmj.s 			page 29


1570:Drivers/lvgl/src/widgets/scale/lv_scale.c ****  * @param label_dsc  pointer to label descriptor
1571:Drivers/lvgl/src/widgets/scale/lv_scale.c ****  * @param items_section_style  pointer to indicator section style
1572:Drivers/lvgl/src/widgets/scale/lv_scale.c ****  */
1573:Drivers/lvgl/src/widgets/scale/lv_scale.c **** static void scale_set_indicator_label_properties(lv_obj_t * obj, lv_draw_label_dsc_t * label_dsc,
1574:Drivers/lvgl/src/widgets/scale/lv_scale.c ****                                                  const lv_style_t * indicator_section_style)
1575:Drivers/lvgl/src/widgets/scale/lv_scale.c **** {
1576:Drivers/lvgl/src/widgets/scale/lv_scale.c ****     if(indicator_section_style) {
1577:Drivers/lvgl/src/widgets/scale/lv_scale.c ****         lv_style_value_t value;
1578:Drivers/lvgl/src/widgets/scale/lv_scale.c ****         lv_style_res_t res;
1579:Drivers/lvgl/src/widgets/scale/lv_scale.c **** 
1580:Drivers/lvgl/src/widgets/scale/lv_scale.c ****         /* Text color */
1581:Drivers/lvgl/src/widgets/scale/lv_scale.c ****         res = lv_style_get_prop(indicator_section_style, LV_STYLE_TEXT_COLOR, &value);
1582:Drivers/lvgl/src/widgets/scale/lv_scale.c ****         if(res == LV_STYLE_RES_FOUND) {
1583:Drivers/lvgl/src/widgets/scale/lv_scale.c ****             label_dsc->color = value.color;
1584:Drivers/lvgl/src/widgets/scale/lv_scale.c ****         }
1585:Drivers/lvgl/src/widgets/scale/lv_scale.c ****         else {
1586:Drivers/lvgl/src/widgets/scale/lv_scale.c ****             label_dsc->color = lv_obj_get_style_text_color(obj, LV_PART_INDICATOR);
1587:Drivers/lvgl/src/widgets/scale/lv_scale.c ****         }
1588:Drivers/lvgl/src/widgets/scale/lv_scale.c **** 
1589:Drivers/lvgl/src/widgets/scale/lv_scale.c ****         /* Text opa */
1590:Drivers/lvgl/src/widgets/scale/lv_scale.c ****         res = lv_style_get_prop(indicator_section_style, LV_STYLE_TEXT_OPA, &value);
1591:Drivers/lvgl/src/widgets/scale/lv_scale.c ****         if(res == LV_STYLE_RES_FOUND) {
1592:Drivers/lvgl/src/widgets/scale/lv_scale.c ****             label_dsc->opa = (lv_opa_t)value.num;
1593:Drivers/lvgl/src/widgets/scale/lv_scale.c ****         }
1594:Drivers/lvgl/src/widgets/scale/lv_scale.c ****         else {
1595:Drivers/lvgl/src/widgets/scale/lv_scale.c ****             label_dsc->opa = lv_obj_get_style_text_opa(obj, LV_PART_INDICATOR);
1596:Drivers/lvgl/src/widgets/scale/lv_scale.c ****         }
1597:Drivers/lvgl/src/widgets/scale/lv_scale.c **** 
1598:Drivers/lvgl/src/widgets/scale/lv_scale.c ****         /* Text letter space */
1599:Drivers/lvgl/src/widgets/scale/lv_scale.c ****         res = lv_style_get_prop(indicator_section_style, LV_STYLE_TEXT_LETTER_SPACE, &value);
1600:Drivers/lvgl/src/widgets/scale/lv_scale.c ****         if(res == LV_STYLE_RES_FOUND) {
1601:Drivers/lvgl/src/widgets/scale/lv_scale.c ****             label_dsc->letter_space = (int32_t)value.num;
1602:Drivers/lvgl/src/widgets/scale/lv_scale.c ****         }
1603:Drivers/lvgl/src/widgets/scale/lv_scale.c ****         else {
1604:Drivers/lvgl/src/widgets/scale/lv_scale.c ****             label_dsc->letter_space = lv_obj_get_style_text_letter_space(obj, LV_PART_INDICATOR);
1605:Drivers/lvgl/src/widgets/scale/lv_scale.c ****         }
1606:Drivers/lvgl/src/widgets/scale/lv_scale.c **** 
1607:Drivers/lvgl/src/widgets/scale/lv_scale.c ****         /* Text font */
1608:Drivers/lvgl/src/widgets/scale/lv_scale.c ****         res = lv_style_get_prop(indicator_section_style, LV_STYLE_TEXT_FONT, &value);
1609:Drivers/lvgl/src/widgets/scale/lv_scale.c ****         if(res == LV_STYLE_RES_FOUND) {
1610:Drivers/lvgl/src/widgets/scale/lv_scale.c ****             label_dsc->font = (const lv_font_t *)value.ptr;
1611:Drivers/lvgl/src/widgets/scale/lv_scale.c ****         }
1612:Drivers/lvgl/src/widgets/scale/lv_scale.c ****         else {
1613:Drivers/lvgl/src/widgets/scale/lv_scale.c ****             label_dsc->font = lv_obj_get_style_text_font(obj, LV_PART_INDICATOR);
1614:Drivers/lvgl/src/widgets/scale/lv_scale.c ****         }
1615:Drivers/lvgl/src/widgets/scale/lv_scale.c ****     }
1616:Drivers/lvgl/src/widgets/scale/lv_scale.c ****     else {
1617:Drivers/lvgl/src/widgets/scale/lv_scale.c ****         /* If label is not within a range then get the indicator style */
1618:Drivers/lvgl/src/widgets/scale/lv_scale.c ****         label_dsc->color = lv_obj_get_style_text_color(obj, LV_PART_INDICATOR);
1619:Drivers/lvgl/src/widgets/scale/lv_scale.c ****         label_dsc->opa = lv_obj_get_style_text_opa(obj, LV_PART_INDICATOR);
1620:Drivers/lvgl/src/widgets/scale/lv_scale.c ****         label_dsc->letter_space = lv_obj_get_style_text_letter_space(obj, LV_PART_INDICATOR);
1621:Drivers/lvgl/src/widgets/scale/lv_scale.c ****         label_dsc->font = lv_obj_get_style_text_font(obj, LV_PART_INDICATOR);
1622:Drivers/lvgl/src/widgets/scale/lv_scale.c ****     }
1623:Drivers/lvgl/src/widgets/scale/lv_scale.c **** }
1624:Drivers/lvgl/src/widgets/scale/lv_scale.c **** 
1625:Drivers/lvgl/src/widgets/scale/lv_scale.c **** static void scale_find_section_tick_idx(lv_obj_t * obj)
1626:Drivers/lvgl/src/widgets/scale/lv_scale.c **** {
ARM GAS  /var/folders/qx/2_175_4n2s19vhvtspjhb3qh0000gn/T//ccmbJJmj.s 			page 30


1627:Drivers/lvgl/src/widgets/scale/lv_scale.c ****     lv_scale_t * scale = (lv_scale_t *)obj;
1628:Drivers/lvgl/src/widgets/scale/lv_scale.c **** 
1629:Drivers/lvgl/src/widgets/scale/lv_scale.c ****     const int32_t min_out = scale->range_min;
1630:Drivers/lvgl/src/widgets/scale/lv_scale.c ****     const int32_t max_out = scale->range_max;
1631:Drivers/lvgl/src/widgets/scale/lv_scale.c ****     const uint32_t total_tick_count = scale->total_tick_count;
1632:Drivers/lvgl/src/widgets/scale/lv_scale.c **** 
1633:Drivers/lvgl/src/widgets/scale/lv_scale.c ****     /* Section handling */
1634:Drivers/lvgl/src/widgets/scale/lv_scale.c ****     uint32_t tick_idx = 0;
1635:Drivers/lvgl/src/widgets/scale/lv_scale.c ****     for(tick_idx = 0; tick_idx < total_tick_count; tick_idx++) {
1636:Drivers/lvgl/src/widgets/scale/lv_scale.c ****         bool is_major_tick = scale_is_major_tick(scale, tick_idx);
1637:Drivers/lvgl/src/widgets/scale/lv_scale.c **** 
1638:Drivers/lvgl/src/widgets/scale/lv_scale.c ****         const int32_t tick_value = lv_map(tick_idx, 0, total_tick_count - 1, min_out, max_out);
1639:Drivers/lvgl/src/widgets/scale/lv_scale.c **** 
1640:Drivers/lvgl/src/widgets/scale/lv_scale.c ****         lv_scale_section_t * section;
1641:Drivers/lvgl/src/widgets/scale/lv_scale.c ****         LV_LL_READ_BACK(&scale->section_ll, section) {
1642:Drivers/lvgl/src/widgets/scale/lv_scale.c ****             if(section->range_min <= tick_value && section->range_max >= tick_value) {
1643:Drivers/lvgl/src/widgets/scale/lv_scale.c ****                 if(LV_SCALE_TICK_IDX_DEFAULT_ID == section->first_tick_idx_in_section) {
1644:Drivers/lvgl/src/widgets/scale/lv_scale.c ****                     section->first_tick_idx_in_section = tick_idx;
1645:Drivers/lvgl/src/widgets/scale/lv_scale.c ****                     section->first_tick_idx_is_major = is_major_tick;
1646:Drivers/lvgl/src/widgets/scale/lv_scale.c ****                 }
1647:Drivers/lvgl/src/widgets/scale/lv_scale.c ****                 if(LV_SCALE_TICK_IDX_DEFAULT_ID == section->last_tick_idx_in_section) {
1648:Drivers/lvgl/src/widgets/scale/lv_scale.c ****                     /* This gets it initialized when the beginning and ending range values are the 
1649:Drivers/lvgl/src/widgets/scale/lv_scale.c ****                     section->last_tick_idx_in_section = tick_idx;
1650:Drivers/lvgl/src/widgets/scale/lv_scale.c ****                     section->last_tick_idx_is_major = is_major_tick;
1651:Drivers/lvgl/src/widgets/scale/lv_scale.c ****                 }
1652:Drivers/lvgl/src/widgets/scale/lv_scale.c ****                 /* Now keep setting the `last_tick_idx_...` values as we
1653:Drivers/lvgl/src/widgets/scale/lv_scale.c ****                  * proceed through the `for` loop so it is left with the
1654:Drivers/lvgl/src/widgets/scale/lv_scale.c ****                  * actual last-tick value that is within the Scale's range. */
1655:Drivers/lvgl/src/widgets/scale/lv_scale.c ****                 else if(section->first_tick_idx_in_section != tick_idx) {
1656:Drivers/lvgl/src/widgets/scale/lv_scale.c ****                     section->last_tick_idx_in_section = tick_idx;
1657:Drivers/lvgl/src/widgets/scale/lv_scale.c ****                     section->last_tick_idx_is_major = is_major_tick;
1658:Drivers/lvgl/src/widgets/scale/lv_scale.c ****                 }
1659:Drivers/lvgl/src/widgets/scale/lv_scale.c ****             }
1660:Drivers/lvgl/src/widgets/scale/lv_scale.c ****             else {
1661:Drivers/lvgl/src/widgets/scale/lv_scale.c ****                 /* `tick_value` is outside Section's range.
1662:Drivers/lvgl/src/widgets/scale/lv_scale.c ****                  * Nothing to do. */
1663:Drivers/lvgl/src/widgets/scale/lv_scale.c ****             }
1664:Drivers/lvgl/src/widgets/scale/lv_scale.c ****         }
1665:Drivers/lvgl/src/widgets/scale/lv_scale.c ****     }
1666:Drivers/lvgl/src/widgets/scale/lv_scale.c **** }
1667:Drivers/lvgl/src/widgets/scale/lv_scale.c **** 
1668:Drivers/lvgl/src/widgets/scale/lv_scale.c **** /**
1669:Drivers/lvgl/src/widgets/scale/lv_scale.c ****  * Stores the width of the initial and last tick of the main line
1670:Drivers/lvgl/src/widgets/scale/lv_scale.c ****  *
1671:Drivers/lvgl/src/widgets/scale/lv_scale.c ****  * This width is used to compensate the main line drawing taking into consideration the widths of b
1672:Drivers/lvgl/src/widgets/scale/lv_scale.c ****  *
1673:Drivers/lvgl/src/widgets/scale/lv_scale.c ****  * @param obj       pointer to a scale object
1674:Drivers/lvgl/src/widgets/scale/lv_scale.c ****  * @param tick_idx  index of the current tick
1675:Drivers/lvgl/src/widgets/scale/lv_scale.c ****  * @param is_major_tick true if tick_idx is a major tick
1676:Drivers/lvgl/src/widgets/scale/lv_scale.c ****  * @param major_tick_width width of the major tick
1677:Drivers/lvgl/src/widgets/scale/lv_scale.c ****  * @param minor_tick_width width of the minor tick
1678:Drivers/lvgl/src/widgets/scale/lv_scale.c ****  */
1679:Drivers/lvgl/src/widgets/scale/lv_scale.c **** static void scale_store_main_line_tick_width_compensation(lv_obj_t * obj, const uint32_t tick_idx,
1680:Drivers/lvgl/src/widgets/scale/lv_scale.c ****                                                           const bool is_major_tick, const int32_t m
1681:Drivers/lvgl/src/widgets/scale/lv_scale.c **** {
  29              		.loc 1 1681 1 view -0
  30              		.cfi_startproc
ARM GAS  /var/folders/qx/2_175_4n2s19vhvtspjhb3qh0000gn/T//ccmbJJmj.s 			page 31


  31              		@ args = 4, pretend = 0, frame = 0
  32              		@ frame_needed = 0, uses_anonymous_args = 0
  33              		@ link register save eliminated.
1682:Drivers/lvgl/src/widgets/scale/lv_scale.c ****     lv_scale_t * scale = (lv_scale_t *)obj;
  34              		.loc 1 1682 5 view .LVU1
1683:Drivers/lvgl/src/widgets/scale/lv_scale.c ****     const bool is_first_tick = 0U == tick_idx;
  35              		.loc 1 1683 5 view .LVU2
1684:Drivers/lvgl/src/widgets/scale/lv_scale.c ****     const bool is_last_tick = scale->total_tick_count == tick_idx;
  36              		.loc 1 1684 5 view .LVU3
  37              		.loc 1 1684 36 is_stmt 0 view .LVU4
  38 0000 B0F848C0 		ldrh	ip, [r0, #72]
  39 0004 CCF30E0C 		ubfx	ip, ip, #0, #15
  40              	.LVL1:
1685:Drivers/lvgl/src/widgets/scale/lv_scale.c ****     const int32_t tick_width = is_major_tick ? major_tick_width : minor_tick_width;
  41              		.loc 1 1685 5 is_stmt 1 view .LVU5
  42              		.loc 1 1685 65 is_stmt 0 view .LVU6
  43 0008 02B1     		cbz	r2, .L2
  44              		.loc 1 1685 65 discriminator 1 view .LVU7
  45 000a 0093     		str	r3, [sp]
  46              	.LVL2:
  47              	.L2:
1686:Drivers/lvgl/src/widgets/scale/lv_scale.c **** 
1687:Drivers/lvgl/src/widgets/scale/lv_scale.c ****     /* Exit early if tick_idx is neither the first nor last tick on the main line */
1688:Drivers/lvgl/src/widgets/scale/lv_scale.c ****     if(((!is_last_tick) && (!is_first_tick))
  48              		.loc 1 1688 5 is_stmt 1 view .LVU8
  49              		.loc 1 1688 7 is_stmt 0 view .LVU9
  50 000c 8C45     		cmp	ip, r1
  51 000e 00D0     		beq	.L3
  52              		.loc 1 1688 25 discriminator 1 view .LVU10
  53 0010 69B9     		cbnz	r1, .L1
  54              	.L3:
1689:Drivers/lvgl/src/widgets/scale/lv_scale.c ****        /* Exit early if scale mode is round. It doesn't support main line compensation */
1690:Drivers/lvgl/src/widgets/scale/lv_scale.c ****        || ((LV_SCALE_MODE_ROUND_INNER == scale->mode) || (LV_SCALE_MODE_ROUND_OUTER == scale->mode)
  55              		.loc 1 1690 47 view .LVU11
  56 0012 90F83C30 		ldrb	r3, [r0, #60]	@ zero_extendqisi2
  57              	.LVL3:
  58              		.loc 1 1690 8 view .LVU12
  59 0016 082B     		cmp	r3, #8
  60 0018 09D0     		beq	.L1
  61              		.loc 1 1690 55 discriminator 1 view .LVU13
  62 001a 102B     		cmp	r3, #16
  63 001c 07D0     		beq	.L1
1691:Drivers/lvgl/src/widgets/scale/lv_scale.c ****         return;
1692:Drivers/lvgl/src/widgets/scale/lv_scale.c ****     }
1693:Drivers/lvgl/src/widgets/scale/lv_scale.c **** 
1694:Drivers/lvgl/src/widgets/scale/lv_scale.c ****     if(is_last_tick) {
  64              		.loc 1 1694 5 is_stmt 1 view .LVU14
  65              		.loc 1 1694 7 is_stmt 0 view .LVU15
  66 001e 8C45     		cmp	ip, r1
  67 0020 06D0     		beq	.L10
1695:Drivers/lvgl/src/widgets/scale/lv_scale.c ****         /* Mode is vertical */
1696:Drivers/lvgl/src/widgets/scale/lv_scale.c ****         if((LV_SCALE_MODE_VERTICAL_LEFT == scale->mode) || (LV_SCALE_MODE_VERTICAL_RIGHT == scale->
1697:Drivers/lvgl/src/widgets/scale/lv_scale.c ****             scale->last_tick_width = tick_width;
1698:Drivers/lvgl/src/widgets/scale/lv_scale.c ****         }
1699:Drivers/lvgl/src/widgets/scale/lv_scale.c ****         /* Mode is horizontal */
1700:Drivers/lvgl/src/widgets/scale/lv_scale.c ****         else {
1701:Drivers/lvgl/src/widgets/scale/lv_scale.c ****             scale->first_tick_width = tick_width;
ARM GAS  /var/folders/qx/2_175_4n2s19vhvtspjhb3qh0000gn/T//ccmbJJmj.s 			page 32


1702:Drivers/lvgl/src/widgets/scale/lv_scale.c ****         }
1703:Drivers/lvgl/src/widgets/scale/lv_scale.c ****     }
1704:Drivers/lvgl/src/widgets/scale/lv_scale.c ****     /* is_first_tick */
1705:Drivers/lvgl/src/widgets/scale/lv_scale.c ****     else {
1706:Drivers/lvgl/src/widgets/scale/lv_scale.c ****         /* Mode is vertical */
1707:Drivers/lvgl/src/widgets/scale/lv_scale.c ****         if((LV_SCALE_MODE_VERTICAL_LEFT == scale->mode) || (LV_SCALE_MODE_VERTICAL_RIGHT == scale->
  68              		.loc 1 1707 9 is_stmt 1 view .LVU16
  69              		.loc 1 1707 11 is_stmt 0 view .LVU17
  70 0022 022B     		cmp	r3, #2
  71 0024 0ED0     		beq	.L8
  72              		.loc 1 1707 57 discriminator 1 view .LVU18
  73 0026 042B     		cmp	r3, #4
  74 0028 0CD0     		beq	.L8
1708:Drivers/lvgl/src/widgets/scale/lv_scale.c ****             scale->first_tick_width = tick_width;
1709:Drivers/lvgl/src/widgets/scale/lv_scale.c ****         }
1710:Drivers/lvgl/src/widgets/scale/lv_scale.c ****         /* Mode is horizontal */
1711:Drivers/lvgl/src/widgets/scale/lv_scale.c ****         else {
1712:Drivers/lvgl/src/widgets/scale/lv_scale.c ****             scale->last_tick_width = tick_width;
  75              		.loc 1 1712 13 is_stmt 1 view .LVU19
  76              		.loc 1 1712 36 is_stmt 0 view .LVU20
  77 002a 009B     		ldr	r3, [sp]
  78 002c C365     		str	r3, [r0, #92]
  79              	.L1:
1713:Drivers/lvgl/src/widgets/scale/lv_scale.c ****         }
1714:Drivers/lvgl/src/widgets/scale/lv_scale.c ****     }
1715:Drivers/lvgl/src/widgets/scale/lv_scale.c **** }
  80              		.loc 1 1715 1 view .LVU21
  81 002e 7047     		bx	lr
  82              	.L10:
1696:Drivers/lvgl/src/widgets/scale/lv_scale.c ****             scale->last_tick_width = tick_width;
  83              		.loc 1 1696 9 is_stmt 1 view .LVU22
1696:Drivers/lvgl/src/widgets/scale/lv_scale.c ****             scale->last_tick_width = tick_width;
  84              		.loc 1 1696 11 is_stmt 0 view .LVU23
  85 0030 022B     		cmp	r3, #2
  86 0032 04D0     		beq	.L6
1696:Drivers/lvgl/src/widgets/scale/lv_scale.c ****             scale->last_tick_width = tick_width;
  87              		.loc 1 1696 57 discriminator 1 view .LVU24
  88 0034 042B     		cmp	r3, #4
  89 0036 02D0     		beq	.L6
1701:Drivers/lvgl/src/widgets/scale/lv_scale.c ****         }
  90              		.loc 1 1701 13 is_stmt 1 view .LVU25
1701:Drivers/lvgl/src/widgets/scale/lv_scale.c ****         }
  91              		.loc 1 1701 37 is_stmt 0 view .LVU26
  92 0038 009B     		ldr	r3, [sp]
  93 003a 0366     		str	r3, [r0, #96]
  94 003c 7047     		bx	lr
  95              	.L6:
1697:Drivers/lvgl/src/widgets/scale/lv_scale.c ****         }
  96              		.loc 1 1697 13 is_stmt 1 view .LVU27
1697:Drivers/lvgl/src/widgets/scale/lv_scale.c ****         }
  97              		.loc 1 1697 36 is_stmt 0 view .LVU28
  98 003e 009B     		ldr	r3, [sp]
  99 0040 C365     		str	r3, [r0, #92]
 100 0042 7047     		bx	lr
 101              	.L8:
1708:Drivers/lvgl/src/widgets/scale/lv_scale.c ****         }
 102              		.loc 1 1708 13 is_stmt 1 view .LVU29
ARM GAS  /var/folders/qx/2_175_4n2s19vhvtspjhb3qh0000gn/T//ccmbJJmj.s 			page 33


1708:Drivers/lvgl/src/widgets/scale/lv_scale.c ****         }
 103              		.loc 1 1708 37 is_stmt 0 view .LVU30
 104 0044 009B     		ldr	r3, [sp]
 105 0046 0366     		str	r3, [r0, #96]
 106 0048 7047     		bx	lr
 107              		.cfi_endproc
 108              	.LFE232:
 110              		.section	.text.scale_build_custom_label_text,"ax",%progbits
 111              		.align	1
 112              		.syntax unified
 113              		.thumb
 114              		.thumb_func
 116              	scale_build_custom_label_text:
 117              	.LVL4:
 118              	.LFB233:
1716:Drivers/lvgl/src/widgets/scale/lv_scale.c **** 
1717:Drivers/lvgl/src/widgets/scale/lv_scale.c **** /**
1718:Drivers/lvgl/src/widgets/scale/lv_scale.c ****  * Sets the text of the tick label descriptor when using custom labels
1719:Drivers/lvgl/src/widgets/scale/lv_scale.c ****  *
1720:Drivers/lvgl/src/widgets/scale/lv_scale.c ****  * Sets the text pointer when valid custom label is available, otherwise set it to NULL.
1721:Drivers/lvgl/src/widgets/scale/lv_scale.c ****  *
1722:Drivers/lvgl/src/widgets/scale/lv_scale.c ****  * @param obj       pointer to a scale object
1723:Drivers/lvgl/src/widgets/scale/lv_scale.c ****  * @param label_dsc pointer to the label descriptor
1724:Drivers/lvgl/src/widgets/scale/lv_scale.c ****  * @param major_tick_idx  index of the current major tick
1725:Drivers/lvgl/src/widgets/scale/lv_scale.c ****  */
1726:Drivers/lvgl/src/widgets/scale/lv_scale.c **** static void scale_build_custom_label_text(lv_obj_t * obj, lv_draw_label_dsc_t * label_dsc,
1727:Drivers/lvgl/src/widgets/scale/lv_scale.c ****                                           const uint16_t major_tick_idx)
1728:Drivers/lvgl/src/widgets/scale/lv_scale.c **** {
 119              		.loc 1 1728 1 is_stmt 1 view -0
 120              		.cfi_startproc
 121              		@ args = 0, pretend = 0, frame = 0
 122              		@ frame_needed = 0, uses_anonymous_args = 0
 123              		@ link register save eliminated.
1729:Drivers/lvgl/src/widgets/scale/lv_scale.c ****     lv_scale_t * scale = (lv_scale_t *) obj;
 124              		.loc 1 1729 5 view .LVU32
1730:Drivers/lvgl/src/widgets/scale/lv_scale.c **** 
1731:Drivers/lvgl/src/widgets/scale/lv_scale.c ****     /* Check if the scale has valid custom labels available,
1732:Drivers/lvgl/src/widgets/scale/lv_scale.c ****      * this avoids reading past txt_src array when the scale requires more tick labels than availab
1733:Drivers/lvgl/src/widgets/scale/lv_scale.c ****     if(major_tick_idx <= scale->custom_label_cnt) {
 125              		.loc 1 1733 5 view .LVU33
 126              		.loc 1 1733 31 is_stmt 0 view .LVU34
 127 0000 836D     		ldr	r3, [r0, #88]
 128              		.loc 1 1733 7 view .LVU35
 129 0002 9A42     		cmp	r2, r3
 130 0004 11DC     		bgt	.L12
1734:Drivers/lvgl/src/widgets/scale/lv_scale.c ****         if(scale->txt_src[major_tick_idx - 1U]) {
 131              		.loc 1 1734 9 is_stmt 1 view .LVU36
 132              		.loc 1 1734 17 is_stmt 0 view .LVU37
 133 0006 836B     		ldr	r3, [r0, #56]
 134              		.loc 1 1734 26 view .LVU38
 135 0008 02F18042 		add	r2, r2, #1073741824
 136              	.LVL5:
 137              		.loc 1 1734 26 view .LVU39
 138 000c 013A     		subs	r2, r2, #1
 139              	.LVL6:
 140              		.loc 1 1734 26 view .LVU40
 141 000e 53F82230 		ldr	r3, [r3, r2, lsl #2]
ARM GAS  /var/folders/qx/2_175_4n2s19vhvtspjhb3qh0000gn/T//ccmbJJmj.s 			page 34


 142              		.loc 1 1734 11 view .LVU41
 143 0012 3BB1     		cbz	r3, .L13
1735:Drivers/lvgl/src/widgets/scale/lv_scale.c ****             label_dsc->text = scale->txt_src[major_tick_idx - 1U];
 144              		.loc 1 1735 13 is_stmt 1 view .LVU42
 145              		.loc 1 1735 29 is_stmt 0 view .LVU43
 146 0014 CB61     		str	r3, [r1, #28]
1736:Drivers/lvgl/src/widgets/scale/lv_scale.c ****             label_dsc->text_local = 0;
 147              		.loc 1 1736 13 is_stmt 1 view .LVU44
 148              		.loc 1 1736 35 is_stmt 0 view .LVU45
 149 0016 91F85D30 		ldrb	r3, [r1, #93]	@ zero_extendqisi2
 150 001a 23F00103 		bic	r3, r3, #1
 151 001e 81F85D30 		strb	r3, [r1, #93]
 152 0022 7047     		bx	lr
 153              	.L13:
1737:Drivers/lvgl/src/widgets/scale/lv_scale.c ****         }
1738:Drivers/lvgl/src/widgets/scale/lv_scale.c ****         else {
1739:Drivers/lvgl/src/widgets/scale/lv_scale.c ****             label_dsc->text = NULL;
 154              		.loc 1 1739 13 is_stmt 1 view .LVU46
 155              		.loc 1 1739 29 is_stmt 0 view .LVU47
 156 0024 0023     		movs	r3, #0
 157 0026 CB61     		str	r3, [r1, #28]
 158 0028 7047     		bx	lr
 159              	.LVL7:
 160              	.L12:
1740:Drivers/lvgl/src/widgets/scale/lv_scale.c ****         }
1741:Drivers/lvgl/src/widgets/scale/lv_scale.c ****     }
1742:Drivers/lvgl/src/widgets/scale/lv_scale.c ****     else {
1743:Drivers/lvgl/src/widgets/scale/lv_scale.c ****         label_dsc->text = NULL;
 161              		.loc 1 1743 9 is_stmt 1 view .LVU48
 162              		.loc 1 1743 25 is_stmt 0 view .LVU49
 163 002a 0023     		movs	r3, #0
 164 002c CB61     		str	r3, [r1, #28]
1744:Drivers/lvgl/src/widgets/scale/lv_scale.c ****     }
1745:Drivers/lvgl/src/widgets/scale/lv_scale.c **** }
 165              		.loc 1 1745 1 view .LVU50
 166 002e 7047     		bx	lr
 167              		.cfi_endproc
 168              	.LFE233:
 170              		.section	.text.scale_is_major_tick,"ax",%progbits
 171              		.align	1
 172              		.syntax unified
 173              		.thumb
 174              		.thumb_func
 176              	scale_is_major_tick:
 177              	.LVL8:
 178              	.LFB236:
1746:Drivers/lvgl/src/widgets/scale/lv_scale.c **** 
1747:Drivers/lvgl/src/widgets/scale/lv_scale.c **** /**
1748:Drivers/lvgl/src/widgets/scale/lv_scale.c ****  * Stores tick width compensation information for main line sections
1749:Drivers/lvgl/src/widgets/scale/lv_scale.c ****  *
1750:Drivers/lvgl/src/widgets/scale/lv_scale.c ****  * @param obj       pointer to a scale object
1751:Drivers/lvgl/src/widgets/scale/lv_scale.c ****  * @param is_major_tick Indicates if tick is major or not
1752:Drivers/lvgl/src/widgets/scale/lv_scale.c ****  * @param major_tick_dsc pointer to the major_tick_dsc
1753:Drivers/lvgl/src/widgets/scale/lv_scale.c ****  * @param minor_tick_dsc pointer to the minor_tick_dsc
1754:Drivers/lvgl/src/widgets/scale/lv_scale.c ****  * @param tick_value Current tick value, used to know if tick_idx belongs to a section or not
1755:Drivers/lvgl/src/widgets/scale/lv_scale.c ****  * @param tick_idx Current tick index
1756:Drivers/lvgl/src/widgets/scale/lv_scale.c ****  * @param tick_point_a Pointer to tick point a
ARM GAS  /var/folders/qx/2_175_4n2s19vhvtspjhb3qh0000gn/T//ccmbJJmj.s 			page 35


1757:Drivers/lvgl/src/widgets/scale/lv_scale.c ****  */
1758:Drivers/lvgl/src/widgets/scale/lv_scale.c **** static void scale_store_section_line_tick_width_compensation(lv_obj_t * obj, const bool is_major_ti
1759:Drivers/lvgl/src/widgets/scale/lv_scale.c ****                                                              lv_draw_line_dsc_t * major_tick_dsc, l
1760:Drivers/lvgl/src/widgets/scale/lv_scale.c ****                                                              const int32_t tick_value, const uint8_
1761:Drivers/lvgl/src/widgets/scale/lv_scale.c **** {
1762:Drivers/lvgl/src/widgets/scale/lv_scale.c ****     lv_scale_t * scale = (lv_scale_t *) obj;
1763:Drivers/lvgl/src/widgets/scale/lv_scale.c ****     lv_scale_section_t * section;
1764:Drivers/lvgl/src/widgets/scale/lv_scale.c **** 
1765:Drivers/lvgl/src/widgets/scale/lv_scale.c ****     LV_LL_READ_BACK(&scale->section_ll, section) {
1766:Drivers/lvgl/src/widgets/scale/lv_scale.c ****         if(section->range_min <= tick_value && section->range_max >= tick_value) {
1767:Drivers/lvgl/src/widgets/scale/lv_scale.c ****             if(is_major_tick) {
1768:Drivers/lvgl/src/widgets/scale/lv_scale.c ****                 scale_set_line_properties(obj, major_tick_dsc, section->indicator_style, LV_PART_IN
1769:Drivers/lvgl/src/widgets/scale/lv_scale.c ****             }
1770:Drivers/lvgl/src/widgets/scale/lv_scale.c ****             else {
1771:Drivers/lvgl/src/widgets/scale/lv_scale.c ****                 scale_set_line_properties(obj, minor_tick_dsc, section->items_style, LV_PART_ITEMS)
1772:Drivers/lvgl/src/widgets/scale/lv_scale.c ****             }
1773:Drivers/lvgl/src/widgets/scale/lv_scale.c ****         }
1774:Drivers/lvgl/src/widgets/scale/lv_scale.c **** 
1775:Drivers/lvgl/src/widgets/scale/lv_scale.c ****         int32_t tmp_width = 0;
1776:Drivers/lvgl/src/widgets/scale/lv_scale.c **** 
1777:Drivers/lvgl/src/widgets/scale/lv_scale.c ****         if(tick_idx == section->first_tick_idx_in_section) {
1778:Drivers/lvgl/src/widgets/scale/lv_scale.c ****             if(section->first_tick_idx_is_major) {
1779:Drivers/lvgl/src/widgets/scale/lv_scale.c ****                 tmp_width = major_tick_dsc->width;
1780:Drivers/lvgl/src/widgets/scale/lv_scale.c ****             }
1781:Drivers/lvgl/src/widgets/scale/lv_scale.c ****             else {
1782:Drivers/lvgl/src/widgets/scale/lv_scale.c ****                 tmp_width = minor_tick_dsc->width;
1783:Drivers/lvgl/src/widgets/scale/lv_scale.c ****             }
1784:Drivers/lvgl/src/widgets/scale/lv_scale.c **** 
1785:Drivers/lvgl/src/widgets/scale/lv_scale.c ****             section->first_tick_in_section = *tick_point_a;
1786:Drivers/lvgl/src/widgets/scale/lv_scale.c ****             /* Add 1px as adjustment if tmp_width is odd */
1787:Drivers/lvgl/src/widgets/scale/lv_scale.c ****             if(tmp_width & 0x01U) {
1788:Drivers/lvgl/src/widgets/scale/lv_scale.c ****                 if(LV_SCALE_MODE_VERTICAL_LEFT == scale->mode || LV_SCALE_MODE_VERTICAL_RIGHT == sc
1789:Drivers/lvgl/src/widgets/scale/lv_scale.c ****                     tmp_width += 1;
1790:Drivers/lvgl/src/widgets/scale/lv_scale.c ****                 }
1791:Drivers/lvgl/src/widgets/scale/lv_scale.c ****                 else {
1792:Drivers/lvgl/src/widgets/scale/lv_scale.c ****                     tmp_width -= 1;
1793:Drivers/lvgl/src/widgets/scale/lv_scale.c ****                 }
1794:Drivers/lvgl/src/widgets/scale/lv_scale.c ****             }
1795:Drivers/lvgl/src/widgets/scale/lv_scale.c ****             section->first_tick_in_section_width = tmp_width;
1796:Drivers/lvgl/src/widgets/scale/lv_scale.c ****         }
1797:Drivers/lvgl/src/widgets/scale/lv_scale.c **** 
1798:Drivers/lvgl/src/widgets/scale/lv_scale.c ****         /* This can also apply when
1799:Drivers/lvgl/src/widgets/scale/lv_scale.c ****          * (tick_idx == section->first_tick_idx_in_section) when the
1800:Drivers/lvgl/src/widgets/scale/lv_scale.c ****          * beginning and ending values of the range are the same. */
1801:Drivers/lvgl/src/widgets/scale/lv_scale.c ****         if(tick_idx == section->last_tick_idx_in_section) {
1802:Drivers/lvgl/src/widgets/scale/lv_scale.c ****             if(section->last_tick_idx_is_major) {
1803:Drivers/lvgl/src/widgets/scale/lv_scale.c ****                 tmp_width = major_tick_dsc->width;
1804:Drivers/lvgl/src/widgets/scale/lv_scale.c ****             }
1805:Drivers/lvgl/src/widgets/scale/lv_scale.c ****             else {
1806:Drivers/lvgl/src/widgets/scale/lv_scale.c ****                 tmp_width = minor_tick_dsc->width;
1807:Drivers/lvgl/src/widgets/scale/lv_scale.c ****             }
1808:Drivers/lvgl/src/widgets/scale/lv_scale.c **** 
1809:Drivers/lvgl/src/widgets/scale/lv_scale.c ****             section->last_tick_in_section = *tick_point_a;
1810:Drivers/lvgl/src/widgets/scale/lv_scale.c ****             /* Add 1px as adjustment if tmp_width is odd */
1811:Drivers/lvgl/src/widgets/scale/lv_scale.c ****             if(tmp_width & 0x01U) {
1812:Drivers/lvgl/src/widgets/scale/lv_scale.c ****                 if(LV_SCALE_MODE_VERTICAL_LEFT == scale->mode || LV_SCALE_MODE_VERTICAL_RIGHT == sc
1813:Drivers/lvgl/src/widgets/scale/lv_scale.c ****                     tmp_width -= 1;
ARM GAS  /var/folders/qx/2_175_4n2s19vhvtspjhb3qh0000gn/T//ccmbJJmj.s 			page 36


1814:Drivers/lvgl/src/widgets/scale/lv_scale.c ****                 }
1815:Drivers/lvgl/src/widgets/scale/lv_scale.c ****                 else {
1816:Drivers/lvgl/src/widgets/scale/lv_scale.c ****                     tmp_width += 1;
1817:Drivers/lvgl/src/widgets/scale/lv_scale.c ****                 }
1818:Drivers/lvgl/src/widgets/scale/lv_scale.c ****             }
1819:Drivers/lvgl/src/widgets/scale/lv_scale.c ****             section->last_tick_in_section_width = tmp_width;
1820:Drivers/lvgl/src/widgets/scale/lv_scale.c ****         }
1821:Drivers/lvgl/src/widgets/scale/lv_scale.c ****         else { /* Nothing to do */ }
1822:Drivers/lvgl/src/widgets/scale/lv_scale.c ****     }
1823:Drivers/lvgl/src/widgets/scale/lv_scale.c **** }
1824:Drivers/lvgl/src/widgets/scale/lv_scale.c **** 
1825:Drivers/lvgl/src/widgets/scale/lv_scale.c **** static void scale_free_line_needle_points_cb(lv_event_t * e)
1826:Drivers/lvgl/src/widgets/scale/lv_scale.c **** {
1827:Drivers/lvgl/src/widgets/scale/lv_scale.c ****     lv_point_precise_t * needle_line_points = lv_event_get_user_data(e);
1828:Drivers/lvgl/src/widgets/scale/lv_scale.c ****     lv_free(needle_line_points);
1829:Drivers/lvgl/src/widgets/scale/lv_scale.c **** }
1830:Drivers/lvgl/src/widgets/scale/lv_scale.c **** 
1831:Drivers/lvgl/src/widgets/scale/lv_scale.c **** static bool scale_is_major_tick(lv_scale_t * scale, uint32_t tick_idx)
1832:Drivers/lvgl/src/widgets/scale/lv_scale.c **** {
 179              		.loc 1 1832 1 is_stmt 1 view -0
 180              		.cfi_startproc
 181              		@ args = 0, pretend = 0, frame = 0
 182              		@ frame_needed = 0, uses_anonymous_args = 0
 183              		@ link register save eliminated.
1833:Drivers/lvgl/src/widgets/scale/lv_scale.c ****     return scale->major_tick_every != 0 && tick_idx % scale->major_tick_every == 0;
 184              		.loc 1 1833 5 view .LVU52
 185              		.loc 1 1833 36 is_stmt 0 view .LVU53
 186 0000 826C     		ldr	r2, [r0, #72]
 187 0002 084B     		ldr	r3, .L19
 188 0004 1340     		ands	r3, r3, r2
 189              		.loc 1 1833 41 view .LVU54
 190 0006 43B1     		cbz	r3, .L17
 191              		.loc 1 1833 60 discriminator 1 view .LVU55
 192 0008 C2F3CE33 		ubfx	r3, r2, #15, #15
 193              		.loc 1 1833 53 discriminator 1 view .LVU56
 194 000c B1FBF3F2 		udiv	r2, r1, r3
 195 0010 03FB1211 		mls	r1, r3, r2, r1
 196              	.LVL9:
 197              		.loc 1 1833 41 discriminator 1 view .LVU57
 198 0014 19B1     		cbz	r1, .L18
 199              		.loc 1 1833 41 discriminator 4 view .LVU58
 200 0016 0020     		movs	r0, #0
 201              	.LVL10:
 202              		.loc 1 1833 41 discriminator 4 view .LVU59
 203 0018 7047     		bx	lr
 204              	.LVL11:
 205              	.L17:
 206              		.loc 1 1833 41 discriminator 4 view .LVU60
 207 001a 0020     		movs	r0, #0
 208              	.LVL12:
 209              		.loc 1 1833 41 discriminator 4 view .LVU61
 210 001c 7047     		bx	lr
 211              	.LVL13:
 212              	.L18:
 213              		.loc 1 1833 41 discriminator 3 view .LVU62
 214 001e 0120     		movs	r0, #1
 215              	.LVL14:
ARM GAS  /var/folders/qx/2_175_4n2s19vhvtspjhb3qh0000gn/T//ccmbJJmj.s 			page 37


1834:Drivers/lvgl/src/widgets/scale/lv_scale.c **** }
 216              		.loc 1 1834 1 view .LVU63
 217 0020 7047     		bx	lr
 218              	.L20:
 219 0022 00BF     		.align	2
 220              	.L19:
 221 0024 0080FF3F 		.word	1073709056
 222              		.cfi_endproc
 223              	.LFE236:
 225              		.section	.text.scale_find_section_tick_idx,"ax",%progbits
 226              		.align	1
 227              		.syntax unified
 228              		.thumb
 229              		.thumb_func
 231              	scale_find_section_tick_idx:
 232              	.LVL15:
 233              	.LFB231:
1626:Drivers/lvgl/src/widgets/scale/lv_scale.c ****     lv_scale_t * scale = (lv_scale_t *)obj;
 234              		.loc 1 1626 1 is_stmt 1 view -0
 235              		.cfi_startproc
 236              		@ args = 0, pretend = 0, frame = 0
 237              		@ frame_needed = 0, uses_anonymous_args = 0
1626:Drivers/lvgl/src/widgets/scale/lv_scale.c ****     lv_scale_t * scale = (lv_scale_t *)obj;
 238              		.loc 1 1626 1 is_stmt 0 view .LVU65
 239 0000 2DE9F04F 		push	{r4, r5, r6, r7, r8, r9, r10, fp, lr}
 240              	.LCFI0:
 241              		.cfi_def_cfa_offset 36
 242              		.cfi_offset 4, -36
 243              		.cfi_offset 5, -32
 244              		.cfi_offset 6, -28
 245              		.cfi_offset 7, -24
 246              		.cfi_offset 8, -20
 247              		.cfi_offset 9, -16
 248              		.cfi_offset 10, -12
 249              		.cfi_offset 11, -8
 250              		.cfi_offset 14, -4
 251 0004 83B0     		sub	sp, sp, #12
 252              	.LCFI1:
 253              		.cfi_def_cfa_offset 48
 254 0006 8046     		mov	r8, r0
1627:Drivers/lvgl/src/widgets/scale/lv_scale.c **** 
 255              		.loc 1 1627 5 is_stmt 1 view .LVU66
 256              	.LVL16:
1629:Drivers/lvgl/src/widgets/scale/lv_scale.c ****     const int32_t max_out = scale->range_max;
 257              		.loc 1 1629 5 view .LVU67
1629:Drivers/lvgl/src/widgets/scale/lv_scale.c ****     const int32_t max_out = scale->range_max;
 258              		.loc 1 1629 19 is_stmt 0 view .LVU68
 259 0008 D0F840B0 		ldr	fp, [r0, #64]
 260              	.LVL17:
1630:Drivers/lvgl/src/widgets/scale/lv_scale.c ****     const uint32_t total_tick_count = scale->total_tick_count;
 261              		.loc 1 1630 5 is_stmt 1 view .LVU69
1630:Drivers/lvgl/src/widgets/scale/lv_scale.c ****     const uint32_t total_tick_count = scale->total_tick_count;
 262              		.loc 1 1630 19 is_stmt 0 view .LVU70
 263 000c D0F844A0 		ldr	r10, [r0, #68]
 264              	.LVL18:
1631:Drivers/lvgl/src/widgets/scale/lv_scale.c **** 
 265              		.loc 1 1631 5 is_stmt 1 view .LVU71
ARM GAS  /var/folders/qx/2_175_4n2s19vhvtspjhb3qh0000gn/T//ccmbJJmj.s 			page 38


1631:Drivers/lvgl/src/widgets/scale/lv_scale.c **** 
 266              		.loc 1 1631 44 is_stmt 0 view .LVU72
 267 0010 B0F84890 		ldrh	r9, [r0, #72]
 268 0014 C9F30E09 		ubfx	r9, r9, #0, #15
 269              	.LVL19:
1634:Drivers/lvgl/src/widgets/scale/lv_scale.c ****     for(tick_idx = 0; tick_idx < total_tick_count; tick_idx++) {
 270              		.loc 1 1634 5 is_stmt 1 view .LVU73
1635:Drivers/lvgl/src/widgets/scale/lv_scale.c ****         bool is_major_tick = scale_is_major_tick(scale, tick_idx);
 271              		.loc 1 1635 5 view .LVU74
1635:Drivers/lvgl/src/widgets/scale/lv_scale.c ****         bool is_major_tick = scale_is_major_tick(scale, tick_idx);
 272              		.loc 1 1635 18 is_stmt 0 view .LVU75
 273 0018 0026     		movs	r6, #0
1635:Drivers/lvgl/src/widgets/scale/lv_scale.c ****         bool is_major_tick = scale_is_major_tick(scale, tick_idx);
 274              		.loc 1 1635 5 view .LVU76
 275 001a 2BE0     		b	.L22
 276              	.LVL20:
 277              	.L31:
 278              	.LBB159:
1644:Drivers/lvgl/src/widgets/scale/lv_scale.c ****                     section->first_tick_idx_is_major = is_major_tick;
 279              		.loc 1 1644 21 is_stmt 1 view .LVU77
1644:Drivers/lvgl/src/widgets/scale/lv_scale.c ****                     section->first_tick_idx_is_major = is_major_tick;
 280              		.loc 1 1644 56 is_stmt 0 view .LVU78
 281 001c 4E61     		str	r6, [r1, #20]
1645:Drivers/lvgl/src/widgets/scale/lv_scale.c ****                 }
 282              		.loc 1 1645 21 is_stmt 1 view .LVU79
1645:Drivers/lvgl/src/widgets/scale/lv_scale.c ****                 }
 283              		.loc 1 1645 54 is_stmt 0 view .LVU80
 284 001e 91F83430 		ldrb	r3, [r1, #52]	@ zero_extendqisi2
 285 0022 67F30003 		bfi	r3, r7, #0, #1
 286 0026 81F83430 		strb	r3, [r1, #52]
 287 002a 14E0     		b	.L25
 288              	.L32:
1649:Drivers/lvgl/src/widgets/scale/lv_scale.c ****                     section->last_tick_idx_is_major = is_major_tick;
 289              		.loc 1 1649 21 is_stmt 1 view .LVU81
1649:Drivers/lvgl/src/widgets/scale/lv_scale.c ****                     section->last_tick_idx_is_major = is_major_tick;
 290              		.loc 1 1649 55 is_stmt 0 view .LVU82
 291 002c 8E61     		str	r6, [r1, #24]
1650:Drivers/lvgl/src/widgets/scale/lv_scale.c ****                 }
 292              		.loc 1 1650 21 is_stmt 1 view .LVU83
1650:Drivers/lvgl/src/widgets/scale/lv_scale.c ****                 }
 293              		.loc 1 1650 53 is_stmt 0 view .LVU84
 294 002e 91F83430 		ldrb	r3, [r1, #52]	@ zero_extendqisi2
 295 0032 67F34103 		bfi	r3, r7, #1, #1
 296 0036 81F83430 		strb	r3, [r1, #52]
 297              	.L24:
1663:Drivers/lvgl/src/widgets/scale/lv_scale.c ****         }
 298              		.loc 1 1663 13 is_stmt 1 view .LVU85
1641:Drivers/lvgl/src/widgets/scale/lv_scale.c ****             if(section->range_min <= tick_value && section->range_max >= tick_value) {
 299              		.loc 1 1641 9 discriminator 2 view .LVU86
 300 003a 2846     		mov	r0, r5
 301 003c FFF7FEFF 		bl	lv_ll_get_prev
 302              	.LVL21:
1641:Drivers/lvgl/src/widgets/scale/lv_scale.c ****             if(section->range_min <= tick_value && section->range_max >= tick_value) {
 303              		.loc 1 1641 9 is_stmt 0 discriminator 2 view .LVU87
 304 0040 0146     		mov	r1, r0
 305              	.LVL22:
 306              	.L23:
ARM GAS  /var/folders/qx/2_175_4n2s19vhvtspjhb3qh0000gn/T//ccmbJJmj.s 			page 39


1641:Drivers/lvgl/src/widgets/scale/lv_scale.c ****             if(section->range_min <= tick_value && section->range_max >= tick_value) {
 307              		.loc 1 1641 9 is_stmt 1 discriminator 1 view .LVU88
 308 0042 B1B1     		cbz	r1, .L30
1642:Drivers/lvgl/src/widgets/scale/lv_scale.c ****                 if(LV_SCALE_TICK_IDX_DEFAULT_ID == section->first_tick_idx_in_section) {
 309              		.loc 1 1642 13 view .LVU89
1642:Drivers/lvgl/src/widgets/scale/lv_scale.c ****                 if(LV_SCALE_TICK_IDX_DEFAULT_ID == section->first_tick_idx_in_section) {
 310              		.loc 1 1642 23 is_stmt 0 view .LVU90
 311 0044 CB68     		ldr	r3, [r1, #12]
1642:Drivers/lvgl/src/widgets/scale/lv_scale.c ****                 if(LV_SCALE_TICK_IDX_DEFAULT_ID == section->first_tick_idx_in_section) {
 312              		.loc 1 1642 15 view .LVU91
 313 0046 A342     		cmp	r3, r4
 314 0048 F7DC     		bgt	.L24
1642:Drivers/lvgl/src/widgets/scale/lv_scale.c ****                 if(LV_SCALE_TICK_IDX_DEFAULT_ID == section->first_tick_idx_in_section) {
 315              		.loc 1 1642 59 discriminator 1 view .LVU92
 316 004a 0B69     		ldr	r3, [r1, #16]
1642:Drivers/lvgl/src/widgets/scale/lv_scale.c ****                 if(LV_SCALE_TICK_IDX_DEFAULT_ID == section->first_tick_idx_in_section) {
 317              		.loc 1 1642 49 discriminator 1 view .LVU93
 318 004c A342     		cmp	r3, r4
 319 004e F4DB     		blt	.L24
1643:Drivers/lvgl/src/widgets/scale/lv_scale.c ****                     section->first_tick_idx_in_section = tick_idx;
 320              		.loc 1 1643 17 is_stmt 1 view .LVU94
1643:Drivers/lvgl/src/widgets/scale/lv_scale.c ****                     section->first_tick_idx_in_section = tick_idx;
 321              		.loc 1 1643 59 is_stmt 0 view .LVU95
 322 0050 4B69     		ldr	r3, [r1, #20]
1643:Drivers/lvgl/src/widgets/scale/lv_scale.c ****                     section->first_tick_idx_in_section = tick_idx;
 323              		.loc 1 1643 19 view .LVU96
 324 0052 FF2B     		cmp	r3, #255
 325 0054 E2D0     		beq	.L31
 326              	.L25:
1647:Drivers/lvgl/src/widgets/scale/lv_scale.c ****                     /* This gets it initialized when the beginning and ending range values are the 
 327              		.loc 1 1647 17 is_stmt 1 view .LVU97
1647:Drivers/lvgl/src/widgets/scale/lv_scale.c ****                     /* This gets it initialized when the beginning and ending range values are the 
 328              		.loc 1 1647 59 is_stmt 0 view .LVU98
 329 0056 8B69     		ldr	r3, [r1, #24]
1647:Drivers/lvgl/src/widgets/scale/lv_scale.c ****                     /* This gets it initialized when the beginning and ending range values are the 
 330              		.loc 1 1647 19 view .LVU99
 331 0058 FF2B     		cmp	r3, #255
 332 005a E7D0     		beq	.L32
1655:Drivers/lvgl/src/widgets/scale/lv_scale.c ****                     section->last_tick_idx_in_section = tick_idx;
 333              		.loc 1 1655 22 is_stmt 1 view .LVU100
1655:Drivers/lvgl/src/widgets/scale/lv_scale.c ****                     section->last_tick_idx_in_section = tick_idx;
 334              		.loc 1 1655 32 is_stmt 0 view .LVU101
 335 005c 4B69     		ldr	r3, [r1, #20]
1655:Drivers/lvgl/src/widgets/scale/lv_scale.c ****                     section->last_tick_idx_in_section = tick_idx;
 336              		.loc 1 1655 24 view .LVU102
 337 005e B342     		cmp	r3, r6
 338 0060 EBD0     		beq	.L24
1656:Drivers/lvgl/src/widgets/scale/lv_scale.c ****                     section->last_tick_idx_is_major = is_major_tick;
 339              		.loc 1 1656 21 is_stmt 1 view .LVU103
1656:Drivers/lvgl/src/widgets/scale/lv_scale.c ****                     section->last_tick_idx_is_major = is_major_tick;
 340              		.loc 1 1656 55 is_stmt 0 view .LVU104
 341 0062 8E61     		str	r6, [r1, #24]
1657:Drivers/lvgl/src/widgets/scale/lv_scale.c ****                 }
 342              		.loc 1 1657 21 is_stmt 1 view .LVU105
1657:Drivers/lvgl/src/widgets/scale/lv_scale.c ****                 }
 343              		.loc 1 1657 53 is_stmt 0 view .LVU106
 344 0064 91F83430 		ldrb	r3, [r1, #52]	@ zero_extendqisi2
ARM GAS  /var/folders/qx/2_175_4n2s19vhvtspjhb3qh0000gn/T//ccmbJJmj.s 			page 40


 345 0068 67F34103 		bfi	r3, r7, #1, #1
 346 006c 81F83430 		strb	r3, [r1, #52]
 347 0070 E3E7     		b	.L24
 348              	.L30:
1657:Drivers/lvgl/src/widgets/scale/lv_scale.c ****                 }
 349              		.loc 1 1657 53 view .LVU107
 350              	.LBE159:
1635:Drivers/lvgl/src/widgets/scale/lv_scale.c ****         bool is_major_tick = scale_is_major_tick(scale, tick_idx);
 351              		.loc 1 1635 60 is_stmt 1 discriminator 2 view .LVU108
 352 0072 0136     		adds	r6, r6, #1
 353              	.LVL23:
 354              	.L22:
1635:Drivers/lvgl/src/widgets/scale/lv_scale.c ****         bool is_major_tick = scale_is_major_tick(scale, tick_idx);
 355              		.loc 1 1635 32 discriminator 1 view .LVU109
 356 0074 4E45     		cmp	r6, r9
 357 0076 15D2     		bcs	.L33
 358              	.LBB160:
1636:Drivers/lvgl/src/widgets/scale/lv_scale.c **** 
 359              		.loc 1 1636 9 view .LVU110
1636:Drivers/lvgl/src/widgets/scale/lv_scale.c **** 
 360              		.loc 1 1636 30 is_stmt 0 view .LVU111
 361 0078 3146     		mov	r1, r6
 362 007a 4046     		mov	r0, r8
 363 007c FFF7FEFF 		bl	scale_is_major_tick
 364              	.LVL24:
 365 0080 0746     		mov	r7, r0
 366              	.LVL25:
1638:Drivers/lvgl/src/widgets/scale/lv_scale.c **** 
 367              		.loc 1 1638 9 is_stmt 1 view .LVU112
1638:Drivers/lvgl/src/widgets/scale/lv_scale.c **** 
 368              		.loc 1 1638 36 is_stmt 0 view .LVU113
 369 0082 CDF800A0 		str	r10, [sp]
 370 0086 5B46     		mov	r3, fp
 371 0088 09F1FF32 		add	r2, r9, #-1
 372 008c 0021     		movs	r1, #0
 373 008e 3046     		mov	r0, r6
 374 0090 FFF7FEFF 		bl	lv_map
 375              	.LVL26:
 376 0094 0446     		mov	r4, r0
 377              	.LVL27:
1640:Drivers/lvgl/src/widgets/scale/lv_scale.c ****         LV_LL_READ_BACK(&scale->section_ll, section) {
 378              		.loc 1 1640 9 is_stmt 1 view .LVU114
1641:Drivers/lvgl/src/widgets/scale/lv_scale.c ****             if(section->range_min <= tick_value && section->range_max >= tick_value) {
 379              		.loc 1 1641 9 view .LVU115
 380 0096 08F12C05 		add	r5, r8, #44
 381 009a 2846     		mov	r0, r5
 382              	.LVL28:
1641:Drivers/lvgl/src/widgets/scale/lv_scale.c ****             if(section->range_min <= tick_value && section->range_max >= tick_value) {
 383              		.loc 1 1641 9 is_stmt 0 view .LVU116
 384 009c FFF7FEFF 		bl	lv_ll_get_tail
 385              	.LVL29:
 386 00a0 0146     		mov	r1, r0
 387              	.LVL30:
1641:Drivers/lvgl/src/widgets/scale/lv_scale.c ****             if(section->range_min <= tick_value && section->range_max >= tick_value) {
 388              		.loc 1 1641 9 view .LVU117
 389 00a2 CEE7     		b	.L23
 390              	.LVL31:
ARM GAS  /var/folders/qx/2_175_4n2s19vhvtspjhb3qh0000gn/T//ccmbJJmj.s 			page 41


 391              	.L33:
1641:Drivers/lvgl/src/widgets/scale/lv_scale.c ****             if(section->range_min <= tick_value && section->range_max >= tick_value) {
 392              		.loc 1 1641 9 view .LVU118
 393              	.LBE160:
1666:Drivers/lvgl/src/widgets/scale/lv_scale.c **** 
 394              		.loc 1 1666 1 view .LVU119
 395 00a4 03B0     		add	sp, sp, #12
 396              	.LCFI2:
 397              		.cfi_def_cfa_offset 36
 398              		@ sp needed
 399 00a6 BDE8F08F 		pop	{r4, r5, r6, r7, r8, r9, r10, fp, pc}
1666:Drivers/lvgl/src/widgets/scale/lv_scale.c **** 
 400              		.loc 1 1666 1 view .LVU120
 401              		.cfi_endproc
 402              	.LFE231:
 404              		.section	.text.scale_set_line_properties,"ax",%progbits
 405              		.align	1
 406              		.syntax unified
 407              		.thumb
 408              		.thumb_func
 410              	scale_set_line_properties:
 411              	.LVL32:
 412              	.LFB228:
1456:Drivers/lvgl/src/widgets/scale/lv_scale.c ****     if(section_style) {
 413              		.loc 1 1456 1 is_stmt 1 view -0
 414              		.cfi_startproc
 415              		@ args = 0, pretend = 0, frame = 24
 416              		@ frame_needed = 0, uses_anonymous_args = 0
1456:Drivers/lvgl/src/widgets/scale/lv_scale.c ****     if(section_style) {
 417              		.loc 1 1456 1 is_stmt 0 view .LVU122
 418 0000 F0B5     		push	{r4, r5, r6, r7, lr}
 419              	.LCFI3:
 420              		.cfi_def_cfa_offset 20
 421              		.cfi_offset 4, -20
 422              		.cfi_offset 5, -16
 423              		.cfi_offset 6, -12
 424              		.cfi_offset 7, -8
 425              		.cfi_offset 14, -4
 426 0002 87B0     		sub	sp, sp, #28
 427              	.LCFI4:
 428              		.cfi_def_cfa_offset 48
 429 0004 0746     		mov	r7, r0
 430 0006 0C46     		mov	r4, r1
 431 0008 1D46     		mov	r5, r3
1457:Drivers/lvgl/src/widgets/scale/lv_scale.c ****         lv_style_value_t value;
 432              		.loc 1 1457 5 is_stmt 1 view .LVU123
1457:Drivers/lvgl/src/widgets/scale/lv_scale.c ****         lv_style_value_t value;
 433              		.loc 1 1457 7 is_stmt 0 view .LVU124
 434 000a 002A     		cmp	r2, #0
 435 000c 4AD0     		beq	.L35
 436 000e 1646     		mov	r6, r2
 437              	.LBB161:
1458:Drivers/lvgl/src/widgets/scale/lv_scale.c ****         lv_style_res_t res;
 438              		.loc 1 1458 9 is_stmt 1 view .LVU125
1459:Drivers/lvgl/src/widgets/scale/lv_scale.c **** 
 439              		.loc 1 1459 9 view .LVU126
1462:Drivers/lvgl/src/widgets/scale/lv_scale.c ****         if(res == LV_STYLE_RES_FOUND) {
ARM GAS  /var/folders/qx/2_175_4n2s19vhvtspjhb3qh0000gn/T//ccmbJJmj.s 			page 42


 440              		.loc 1 1462 9 view .LVU127
1462:Drivers/lvgl/src/widgets/scale/lv_scale.c ****         if(res == LV_STYLE_RES_FOUND) {
 441              		.loc 1 1462 15 is_stmt 0 view .LVU128
 442 0010 6A46     		mov	r2, sp
 443              	.LVL33:
1462:Drivers/lvgl/src/widgets/scale/lv_scale.c ****         if(res == LV_STYLE_RES_FOUND) {
 444              		.loc 1 1462 15 view .LVU129
 445 0012 4821     		movs	r1, #72
 446              	.LVL34:
1462:Drivers/lvgl/src/widgets/scale/lv_scale.c ****         if(res == LV_STYLE_RES_FOUND) {
 447              		.loc 1 1462 15 view .LVU130
 448 0014 3046     		mov	r0, r6
 449              	.LVL35:
1462:Drivers/lvgl/src/widgets/scale/lv_scale.c ****         if(res == LV_STYLE_RES_FOUND) {
 450              		.loc 1 1462 15 view .LVU131
 451 0016 FFF7FEFF 		bl	lv_style_get_prop
 452              	.LVL36:
1463:Drivers/lvgl/src/widgets/scale/lv_scale.c ****             line_dsc->width = (int32_t)value.num;
 453              		.loc 1 1463 9 is_stmt 1 view .LVU132
1463:Drivers/lvgl/src/widgets/scale/lv_scale.c ****             line_dsc->width = (int32_t)value.num;
 454              		.loc 1 1463 11 is_stmt 0 view .LVU133
 455 001a 0128     		cmp	r0, #1
 456 001c 1AD1     		bne	.L36
1464:Drivers/lvgl/src/widgets/scale/lv_scale.c ****         }
 457              		.loc 1 1464 13 is_stmt 1 view .LVU134
1464:Drivers/lvgl/src/widgets/scale/lv_scale.c ****         }
 458              		.loc 1 1464 45 is_stmt 0 view .LVU135
 459 001e 009B     		ldr	r3, [sp]
1464:Drivers/lvgl/src/widgets/scale/lv_scale.c ****         }
 460              		.loc 1 1464 29 view .LVU136
 461 0020 2363     		str	r3, [r4, #48]
 462              	.LVL37:
 463              	.L37:
1471:Drivers/lvgl/src/widgets/scale/lv_scale.c ****         if(res == LV_STYLE_RES_FOUND) {
 464              		.loc 1 1471 9 is_stmt 1 view .LVU137
1471:Drivers/lvgl/src/widgets/scale/lv_scale.c ****         if(res == LV_STYLE_RES_FOUND) {
 465              		.loc 1 1471 15 is_stmt 0 view .LVU138
 466 0022 6A46     		mov	r2, sp
 467 0024 4C21     		movs	r1, #76
 468 0026 3046     		mov	r0, r6
 469 0028 FFF7FEFF 		bl	lv_style_get_prop
 470              	.LVL38:
1472:Drivers/lvgl/src/widgets/scale/lv_scale.c ****             line_dsc->color = value.color;
 471              		.loc 1 1472 9 is_stmt 1 view .LVU139
1472:Drivers/lvgl/src/widgets/scale/lv_scale.c ****             line_dsc->color = value.color;
 472              		.loc 1 1472 11 is_stmt 0 view .LVU140
 473 002c 0128     		cmp	r0, #1
 474 002e 19D1     		bne	.L38
1473:Drivers/lvgl/src/widgets/scale/lv_scale.c ****         }
 475              		.loc 1 1473 13 is_stmt 1 view .LVU141
1473:Drivers/lvgl/src/widgets/scale/lv_scale.c ****         }
 476              		.loc 1 1473 29 is_stmt 0 view .LVU142
 477 0030 009B     		ldr	r3, [sp]
 478 0032 A385     		strh	r3, [r4, #44]	@ movhi
 479 0034 1B0C     		lsrs	r3, r3, #16
 480 0036 84F82E30 		strb	r3, [r4, #46]
 481              	.LVL39:
ARM GAS  /var/folders/qx/2_175_4n2s19vhvtspjhb3qh0000gn/T//ccmbJJmj.s 			page 43


 482              	.L39:
1480:Drivers/lvgl/src/widgets/scale/lv_scale.c ****         if(res == LV_STYLE_RES_FOUND) {
 483              		.loc 1 1480 9 is_stmt 1 view .LVU143
1480:Drivers/lvgl/src/widgets/scale/lv_scale.c ****         if(res == LV_STYLE_RES_FOUND) {
 484              		.loc 1 1480 15 is_stmt 0 view .LVU144
 485 003a 6A46     		mov	r2, sp
 486 003c 4D21     		movs	r1, #77
 487 003e 3046     		mov	r0, r6
 488 0040 FFF7FEFF 		bl	lv_style_get_prop
 489              	.LVL40:
1481:Drivers/lvgl/src/widgets/scale/lv_scale.c ****             line_dsc->opa = (lv_opa_t)value.num;
 490              		.loc 1 1481 9 is_stmt 1 view .LVU145
1481:Drivers/lvgl/src/widgets/scale/lv_scale.c ****             line_dsc->opa = (lv_opa_t)value.num;
 491              		.loc 1 1481 11 is_stmt 0 view .LVU146
 492 0044 0128     		cmp	r0, #1
 493 0046 24D1     		bne	.L40
1482:Drivers/lvgl/src/widgets/scale/lv_scale.c ****         }
 494              		.loc 1 1482 13 is_stmt 1 view .LVU147
1482:Drivers/lvgl/src/widgets/scale/lv_scale.c ****         }
 495              		.loc 1 1482 29 is_stmt 0 view .LVU148
 496 0048 9DF80030 		ldrb	r3, [sp]	@ zero_extendqisi2
1482:Drivers/lvgl/src/widgets/scale/lv_scale.c ****         }
 497              		.loc 1 1482 27 view .LVU149
 498 004c 84F83C30 		strb	r3, [r4, #60]
 499              	.LVL41:
 500              	.L34:
1482:Drivers/lvgl/src/widgets/scale/lv_scale.c ****         }
 501              		.loc 1 1482 27 view .LVU150
 502              	.LBE161:
1493:Drivers/lvgl/src/widgets/scale/lv_scale.c **** 
 503              		.loc 1 1493 1 view .LVU151
 504 0050 07B0     		add	sp, sp, #28
 505              	.LCFI5:
 506              		.cfi_remember_state
 507              		.cfi_def_cfa_offset 20
 508              		@ sp needed
 509 0052 F0BD     		pop	{r4, r5, r6, r7, pc}
 510              	.LVL42:
 511              	.L36:
 512              	.LCFI6:
 513              		.cfi_restore_state
 514              	.LBB168:
1467:Drivers/lvgl/src/widgets/scale/lv_scale.c ****         }
 515              		.loc 1 1467 13 is_stmt 1 view .LVU152
 516              	.LBB162:
 517              	.LBI162:
 518              		.file 2 "Drivers/lvgl/src/widgets/scale/../../core/lv_obj_style_gen.h"
   1:Drivers/lvgl/src/widgets/scale/../../core/lv_obj_style_gen.h **** 
   2:Drivers/lvgl/src/widgets/scale/../../core/lv_obj_style_gen.h **** /*
   3:Drivers/lvgl/src/widgets/scale/../../core/lv_obj_style_gen.h ****  **********************************************************************
   4:Drivers/lvgl/src/widgets/scale/../../core/lv_obj_style_gen.h ****  *                            DO NOT EDIT
   5:Drivers/lvgl/src/widgets/scale/../../core/lv_obj_style_gen.h ****  * This file is automatically generated by "style_api_gen.py"
   6:Drivers/lvgl/src/widgets/scale/../../core/lv_obj_style_gen.h ****  **********************************************************************
   7:Drivers/lvgl/src/widgets/scale/../../core/lv_obj_style_gen.h ****  */
   8:Drivers/lvgl/src/widgets/scale/../../core/lv_obj_style_gen.h **** 
   9:Drivers/lvgl/src/widgets/scale/../../core/lv_obj_style_gen.h **** 
  10:Drivers/lvgl/src/widgets/scale/../../core/lv_obj_style_gen.h **** #ifndef LV_OBJ_STYLE_GEN_H
ARM GAS  /var/folders/qx/2_175_4n2s19vhvtspjhb3qh0000gn/T//ccmbJJmj.s 			page 44


  11:Drivers/lvgl/src/widgets/scale/../../core/lv_obj_style_gen.h **** #define LV_OBJ_STYLE_GEN_H
  12:Drivers/lvgl/src/widgets/scale/../../core/lv_obj_style_gen.h **** 
  13:Drivers/lvgl/src/widgets/scale/../../core/lv_obj_style_gen.h **** #ifdef __cplusplus
  14:Drivers/lvgl/src/widgets/scale/../../core/lv_obj_style_gen.h **** extern "C" {
  15:Drivers/lvgl/src/widgets/scale/../../core/lv_obj_style_gen.h **** #endif
  16:Drivers/lvgl/src/widgets/scale/../../core/lv_obj_style_gen.h **** 
  17:Drivers/lvgl/src/widgets/scale/../../core/lv_obj_style_gen.h **** #include "../misc/lv_area.h"
  18:Drivers/lvgl/src/widgets/scale/../../core/lv_obj_style_gen.h **** #include "../misc/lv_style.h"
  19:Drivers/lvgl/src/widgets/scale/../../core/lv_obj_style_gen.h **** #include "../core/lv_obj_style.h"
  20:Drivers/lvgl/src/widgets/scale/../../core/lv_obj_style_gen.h **** #include "../misc/lv_types.h"
  21:Drivers/lvgl/src/widgets/scale/../../core/lv_obj_style_gen.h **** 
  22:Drivers/lvgl/src/widgets/scale/../../core/lv_obj_style_gen.h **** static inline int32_t lv_obj_get_style_width(const lv_obj_t * obj, lv_part_t part)
  23:Drivers/lvgl/src/widgets/scale/../../core/lv_obj_style_gen.h **** {
  24:Drivers/lvgl/src/widgets/scale/../../core/lv_obj_style_gen.h ****     lv_style_value_t v = lv_obj_get_style_prop(obj, part, LV_STYLE_WIDTH);
  25:Drivers/lvgl/src/widgets/scale/../../core/lv_obj_style_gen.h ****     return (int32_t)v.num;
  26:Drivers/lvgl/src/widgets/scale/../../core/lv_obj_style_gen.h **** }
  27:Drivers/lvgl/src/widgets/scale/../../core/lv_obj_style_gen.h **** 
  28:Drivers/lvgl/src/widgets/scale/../../core/lv_obj_style_gen.h **** static inline int32_t lv_obj_get_style_min_width(const lv_obj_t * obj, lv_part_t part)
  29:Drivers/lvgl/src/widgets/scale/../../core/lv_obj_style_gen.h **** {
  30:Drivers/lvgl/src/widgets/scale/../../core/lv_obj_style_gen.h ****     lv_style_value_t v = lv_obj_get_style_prop(obj, part, LV_STYLE_MIN_WIDTH);
  31:Drivers/lvgl/src/widgets/scale/../../core/lv_obj_style_gen.h ****     return (int32_t)v.num;
  32:Drivers/lvgl/src/widgets/scale/../../core/lv_obj_style_gen.h **** }
  33:Drivers/lvgl/src/widgets/scale/../../core/lv_obj_style_gen.h **** 
  34:Drivers/lvgl/src/widgets/scale/../../core/lv_obj_style_gen.h **** static inline int32_t lv_obj_get_style_max_width(const lv_obj_t * obj, lv_part_t part)
  35:Drivers/lvgl/src/widgets/scale/../../core/lv_obj_style_gen.h **** {
  36:Drivers/lvgl/src/widgets/scale/../../core/lv_obj_style_gen.h ****     lv_style_value_t v = lv_obj_get_style_prop(obj, part, LV_STYLE_MAX_WIDTH);
  37:Drivers/lvgl/src/widgets/scale/../../core/lv_obj_style_gen.h ****     return (int32_t)v.num;
  38:Drivers/lvgl/src/widgets/scale/../../core/lv_obj_style_gen.h **** }
  39:Drivers/lvgl/src/widgets/scale/../../core/lv_obj_style_gen.h **** 
  40:Drivers/lvgl/src/widgets/scale/../../core/lv_obj_style_gen.h **** static inline int32_t lv_obj_get_style_height(const lv_obj_t * obj, lv_part_t part)
  41:Drivers/lvgl/src/widgets/scale/../../core/lv_obj_style_gen.h **** {
  42:Drivers/lvgl/src/widgets/scale/../../core/lv_obj_style_gen.h ****     lv_style_value_t v = lv_obj_get_style_prop(obj, part, LV_STYLE_HEIGHT);
  43:Drivers/lvgl/src/widgets/scale/../../core/lv_obj_style_gen.h ****     return (int32_t)v.num;
  44:Drivers/lvgl/src/widgets/scale/../../core/lv_obj_style_gen.h **** }
  45:Drivers/lvgl/src/widgets/scale/../../core/lv_obj_style_gen.h **** 
  46:Drivers/lvgl/src/widgets/scale/../../core/lv_obj_style_gen.h **** static inline int32_t lv_obj_get_style_min_height(const lv_obj_t * obj, lv_part_t part)
  47:Drivers/lvgl/src/widgets/scale/../../core/lv_obj_style_gen.h **** {
  48:Drivers/lvgl/src/widgets/scale/../../core/lv_obj_style_gen.h ****     lv_style_value_t v = lv_obj_get_style_prop(obj, part, LV_STYLE_MIN_HEIGHT);
  49:Drivers/lvgl/src/widgets/scale/../../core/lv_obj_style_gen.h ****     return (int32_t)v.num;
  50:Drivers/lvgl/src/widgets/scale/../../core/lv_obj_style_gen.h **** }
  51:Drivers/lvgl/src/widgets/scale/../../core/lv_obj_style_gen.h **** 
  52:Drivers/lvgl/src/widgets/scale/../../core/lv_obj_style_gen.h **** static inline int32_t lv_obj_get_style_max_height(const lv_obj_t * obj, lv_part_t part)
  53:Drivers/lvgl/src/widgets/scale/../../core/lv_obj_style_gen.h **** {
  54:Drivers/lvgl/src/widgets/scale/../../core/lv_obj_style_gen.h ****     lv_style_value_t v = lv_obj_get_style_prop(obj, part, LV_STYLE_MAX_HEIGHT);
  55:Drivers/lvgl/src/widgets/scale/../../core/lv_obj_style_gen.h ****     return (int32_t)v.num;
  56:Drivers/lvgl/src/widgets/scale/../../core/lv_obj_style_gen.h **** }
  57:Drivers/lvgl/src/widgets/scale/../../core/lv_obj_style_gen.h **** 
  58:Drivers/lvgl/src/widgets/scale/../../core/lv_obj_style_gen.h **** static inline int32_t lv_obj_get_style_length(const lv_obj_t * obj, lv_part_t part)
  59:Drivers/lvgl/src/widgets/scale/../../core/lv_obj_style_gen.h **** {
  60:Drivers/lvgl/src/widgets/scale/../../core/lv_obj_style_gen.h ****     lv_style_value_t v = lv_obj_get_style_prop(obj, part, LV_STYLE_LENGTH);
  61:Drivers/lvgl/src/widgets/scale/../../core/lv_obj_style_gen.h ****     return (int32_t)v.num;
  62:Drivers/lvgl/src/widgets/scale/../../core/lv_obj_style_gen.h **** }
  63:Drivers/lvgl/src/widgets/scale/../../core/lv_obj_style_gen.h **** 
  64:Drivers/lvgl/src/widgets/scale/../../core/lv_obj_style_gen.h **** static inline int32_t lv_obj_get_style_x(const lv_obj_t * obj, lv_part_t part)
  65:Drivers/lvgl/src/widgets/scale/../../core/lv_obj_style_gen.h **** {
  66:Drivers/lvgl/src/widgets/scale/../../core/lv_obj_style_gen.h ****     lv_style_value_t v = lv_obj_get_style_prop(obj, part, LV_STYLE_X);
  67:Drivers/lvgl/src/widgets/scale/../../core/lv_obj_style_gen.h ****     return (int32_t)v.num;
ARM GAS  /var/folders/qx/2_175_4n2s19vhvtspjhb3qh0000gn/T//ccmbJJmj.s 			page 45


  68:Drivers/lvgl/src/widgets/scale/../../core/lv_obj_style_gen.h **** }
  69:Drivers/lvgl/src/widgets/scale/../../core/lv_obj_style_gen.h **** 
  70:Drivers/lvgl/src/widgets/scale/../../core/lv_obj_style_gen.h **** static inline int32_t lv_obj_get_style_y(const lv_obj_t * obj, lv_part_t part)
  71:Drivers/lvgl/src/widgets/scale/../../core/lv_obj_style_gen.h **** {
  72:Drivers/lvgl/src/widgets/scale/../../core/lv_obj_style_gen.h ****     lv_style_value_t v = lv_obj_get_style_prop(obj, part, LV_STYLE_Y);
  73:Drivers/lvgl/src/widgets/scale/../../core/lv_obj_style_gen.h ****     return (int32_t)v.num;
  74:Drivers/lvgl/src/widgets/scale/../../core/lv_obj_style_gen.h **** }
  75:Drivers/lvgl/src/widgets/scale/../../core/lv_obj_style_gen.h **** 
  76:Drivers/lvgl/src/widgets/scale/../../core/lv_obj_style_gen.h **** static inline lv_align_t lv_obj_get_style_align(const lv_obj_t * obj, lv_part_t part)
  77:Drivers/lvgl/src/widgets/scale/../../core/lv_obj_style_gen.h **** {
  78:Drivers/lvgl/src/widgets/scale/../../core/lv_obj_style_gen.h ****     lv_style_value_t v = lv_obj_get_style_prop(obj, part, LV_STYLE_ALIGN);
  79:Drivers/lvgl/src/widgets/scale/../../core/lv_obj_style_gen.h ****     return (lv_align_t)v.num;
  80:Drivers/lvgl/src/widgets/scale/../../core/lv_obj_style_gen.h **** }
  81:Drivers/lvgl/src/widgets/scale/../../core/lv_obj_style_gen.h **** 
  82:Drivers/lvgl/src/widgets/scale/../../core/lv_obj_style_gen.h **** static inline int32_t lv_obj_get_style_transform_width(const lv_obj_t * obj, lv_part_t part)
  83:Drivers/lvgl/src/widgets/scale/../../core/lv_obj_style_gen.h **** {
  84:Drivers/lvgl/src/widgets/scale/../../core/lv_obj_style_gen.h ****     lv_style_value_t v = lv_obj_get_style_prop(obj, part, LV_STYLE_TRANSFORM_WIDTH);
  85:Drivers/lvgl/src/widgets/scale/../../core/lv_obj_style_gen.h ****     return (int32_t)v.num;
  86:Drivers/lvgl/src/widgets/scale/../../core/lv_obj_style_gen.h **** }
  87:Drivers/lvgl/src/widgets/scale/../../core/lv_obj_style_gen.h **** 
  88:Drivers/lvgl/src/widgets/scale/../../core/lv_obj_style_gen.h **** static inline int32_t lv_obj_get_style_transform_height(const lv_obj_t * obj, lv_part_t part)
  89:Drivers/lvgl/src/widgets/scale/../../core/lv_obj_style_gen.h **** {
  90:Drivers/lvgl/src/widgets/scale/../../core/lv_obj_style_gen.h ****     lv_style_value_t v = lv_obj_get_style_prop(obj, part, LV_STYLE_TRANSFORM_HEIGHT);
  91:Drivers/lvgl/src/widgets/scale/../../core/lv_obj_style_gen.h ****     return (int32_t)v.num;
  92:Drivers/lvgl/src/widgets/scale/../../core/lv_obj_style_gen.h **** }
  93:Drivers/lvgl/src/widgets/scale/../../core/lv_obj_style_gen.h **** 
  94:Drivers/lvgl/src/widgets/scale/../../core/lv_obj_style_gen.h **** static inline int32_t lv_obj_get_style_translate_x(const lv_obj_t * obj, lv_part_t part)
  95:Drivers/lvgl/src/widgets/scale/../../core/lv_obj_style_gen.h **** {
  96:Drivers/lvgl/src/widgets/scale/../../core/lv_obj_style_gen.h ****     lv_style_value_t v = lv_obj_get_style_prop(obj, part, LV_STYLE_TRANSLATE_X);
  97:Drivers/lvgl/src/widgets/scale/../../core/lv_obj_style_gen.h ****     return (int32_t)v.num;
  98:Drivers/lvgl/src/widgets/scale/../../core/lv_obj_style_gen.h **** }
  99:Drivers/lvgl/src/widgets/scale/../../core/lv_obj_style_gen.h **** 
 100:Drivers/lvgl/src/widgets/scale/../../core/lv_obj_style_gen.h **** static inline int32_t lv_obj_get_style_translate_y(const lv_obj_t * obj, lv_part_t part)
 101:Drivers/lvgl/src/widgets/scale/../../core/lv_obj_style_gen.h **** {
 102:Drivers/lvgl/src/widgets/scale/../../core/lv_obj_style_gen.h ****     lv_style_value_t v = lv_obj_get_style_prop(obj, part, LV_STYLE_TRANSLATE_Y);
 103:Drivers/lvgl/src/widgets/scale/../../core/lv_obj_style_gen.h ****     return (int32_t)v.num;
 104:Drivers/lvgl/src/widgets/scale/../../core/lv_obj_style_gen.h **** }
 105:Drivers/lvgl/src/widgets/scale/../../core/lv_obj_style_gen.h **** 
 106:Drivers/lvgl/src/widgets/scale/../../core/lv_obj_style_gen.h **** static inline int32_t lv_obj_get_style_translate_radial(const lv_obj_t * obj, lv_part_t part)
 107:Drivers/lvgl/src/widgets/scale/../../core/lv_obj_style_gen.h **** {
 108:Drivers/lvgl/src/widgets/scale/../../core/lv_obj_style_gen.h ****     lv_style_value_t v = lv_obj_get_style_prop(obj, part, LV_STYLE_TRANSLATE_RADIAL);
 109:Drivers/lvgl/src/widgets/scale/../../core/lv_obj_style_gen.h ****     return (int32_t)v.num;
 110:Drivers/lvgl/src/widgets/scale/../../core/lv_obj_style_gen.h **** }
 111:Drivers/lvgl/src/widgets/scale/../../core/lv_obj_style_gen.h **** 
 112:Drivers/lvgl/src/widgets/scale/../../core/lv_obj_style_gen.h **** static inline int32_t lv_obj_get_style_transform_scale_x(const lv_obj_t * obj, lv_part_t part)
 113:Drivers/lvgl/src/widgets/scale/../../core/lv_obj_style_gen.h **** {
 114:Drivers/lvgl/src/widgets/scale/../../core/lv_obj_style_gen.h ****     lv_style_value_t v = lv_obj_get_style_prop(obj, part, LV_STYLE_TRANSFORM_SCALE_X);
 115:Drivers/lvgl/src/widgets/scale/../../core/lv_obj_style_gen.h ****     return (int32_t)v.num;
 116:Drivers/lvgl/src/widgets/scale/../../core/lv_obj_style_gen.h **** }
 117:Drivers/lvgl/src/widgets/scale/../../core/lv_obj_style_gen.h **** 
 118:Drivers/lvgl/src/widgets/scale/../../core/lv_obj_style_gen.h **** static inline int32_t lv_obj_get_style_transform_scale_y(const lv_obj_t * obj, lv_part_t part)
 119:Drivers/lvgl/src/widgets/scale/../../core/lv_obj_style_gen.h **** {
 120:Drivers/lvgl/src/widgets/scale/../../core/lv_obj_style_gen.h ****     lv_style_value_t v = lv_obj_get_style_prop(obj, part, LV_STYLE_TRANSFORM_SCALE_Y);
 121:Drivers/lvgl/src/widgets/scale/../../core/lv_obj_style_gen.h ****     return (int32_t)v.num;
 122:Drivers/lvgl/src/widgets/scale/../../core/lv_obj_style_gen.h **** }
 123:Drivers/lvgl/src/widgets/scale/../../core/lv_obj_style_gen.h **** 
 124:Drivers/lvgl/src/widgets/scale/../../core/lv_obj_style_gen.h **** static inline int32_t lv_obj_get_style_transform_rotation(const lv_obj_t * obj, lv_part_t part)
ARM GAS  /var/folders/qx/2_175_4n2s19vhvtspjhb3qh0000gn/T//ccmbJJmj.s 			page 46


 125:Drivers/lvgl/src/widgets/scale/../../core/lv_obj_style_gen.h **** {
 126:Drivers/lvgl/src/widgets/scale/../../core/lv_obj_style_gen.h ****     lv_style_value_t v = lv_obj_get_style_prop(obj, part, LV_STYLE_TRANSFORM_ROTATION);
 127:Drivers/lvgl/src/widgets/scale/../../core/lv_obj_style_gen.h ****     return (int32_t)v.num;
 128:Drivers/lvgl/src/widgets/scale/../../core/lv_obj_style_gen.h **** }
 129:Drivers/lvgl/src/widgets/scale/../../core/lv_obj_style_gen.h **** 
 130:Drivers/lvgl/src/widgets/scale/../../core/lv_obj_style_gen.h **** static inline int32_t lv_obj_get_style_transform_pivot_x(const lv_obj_t * obj, lv_part_t part)
 131:Drivers/lvgl/src/widgets/scale/../../core/lv_obj_style_gen.h **** {
 132:Drivers/lvgl/src/widgets/scale/../../core/lv_obj_style_gen.h ****     lv_style_value_t v = lv_obj_get_style_prop(obj, part, LV_STYLE_TRANSFORM_PIVOT_X);
 133:Drivers/lvgl/src/widgets/scale/../../core/lv_obj_style_gen.h ****     return (int32_t)v.num;
 134:Drivers/lvgl/src/widgets/scale/../../core/lv_obj_style_gen.h **** }
 135:Drivers/lvgl/src/widgets/scale/../../core/lv_obj_style_gen.h **** 
 136:Drivers/lvgl/src/widgets/scale/../../core/lv_obj_style_gen.h **** static inline int32_t lv_obj_get_style_transform_pivot_y(const lv_obj_t * obj, lv_part_t part)
 137:Drivers/lvgl/src/widgets/scale/../../core/lv_obj_style_gen.h **** {
 138:Drivers/lvgl/src/widgets/scale/../../core/lv_obj_style_gen.h ****     lv_style_value_t v = lv_obj_get_style_prop(obj, part, LV_STYLE_TRANSFORM_PIVOT_Y);
 139:Drivers/lvgl/src/widgets/scale/../../core/lv_obj_style_gen.h ****     return (int32_t)v.num;
 140:Drivers/lvgl/src/widgets/scale/../../core/lv_obj_style_gen.h **** }
 141:Drivers/lvgl/src/widgets/scale/../../core/lv_obj_style_gen.h **** 
 142:Drivers/lvgl/src/widgets/scale/../../core/lv_obj_style_gen.h **** static inline int32_t lv_obj_get_style_transform_skew_x(const lv_obj_t * obj, lv_part_t part)
 143:Drivers/lvgl/src/widgets/scale/../../core/lv_obj_style_gen.h **** {
 144:Drivers/lvgl/src/widgets/scale/../../core/lv_obj_style_gen.h ****     lv_style_value_t v = lv_obj_get_style_prop(obj, part, LV_STYLE_TRANSFORM_SKEW_X);
 145:Drivers/lvgl/src/widgets/scale/../../core/lv_obj_style_gen.h ****     return (int32_t)v.num;
 146:Drivers/lvgl/src/widgets/scale/../../core/lv_obj_style_gen.h **** }
 147:Drivers/lvgl/src/widgets/scale/../../core/lv_obj_style_gen.h **** 
 148:Drivers/lvgl/src/widgets/scale/../../core/lv_obj_style_gen.h **** static inline int32_t lv_obj_get_style_transform_skew_y(const lv_obj_t * obj, lv_part_t part)
 149:Drivers/lvgl/src/widgets/scale/../../core/lv_obj_style_gen.h **** {
 150:Drivers/lvgl/src/widgets/scale/../../core/lv_obj_style_gen.h ****     lv_style_value_t v = lv_obj_get_style_prop(obj, part, LV_STYLE_TRANSFORM_SKEW_Y);
 151:Drivers/lvgl/src/widgets/scale/../../core/lv_obj_style_gen.h ****     return (int32_t)v.num;
 152:Drivers/lvgl/src/widgets/scale/../../core/lv_obj_style_gen.h **** }
 153:Drivers/lvgl/src/widgets/scale/../../core/lv_obj_style_gen.h **** 
 154:Drivers/lvgl/src/widgets/scale/../../core/lv_obj_style_gen.h **** static inline int32_t lv_obj_get_style_pad_top(const lv_obj_t * obj, lv_part_t part)
 155:Drivers/lvgl/src/widgets/scale/../../core/lv_obj_style_gen.h **** {
 156:Drivers/lvgl/src/widgets/scale/../../core/lv_obj_style_gen.h ****     lv_style_value_t v = lv_obj_get_style_prop(obj, part, LV_STYLE_PAD_TOP);
 157:Drivers/lvgl/src/widgets/scale/../../core/lv_obj_style_gen.h ****     return (int32_t)v.num;
 158:Drivers/lvgl/src/widgets/scale/../../core/lv_obj_style_gen.h **** }
 159:Drivers/lvgl/src/widgets/scale/../../core/lv_obj_style_gen.h **** 
 160:Drivers/lvgl/src/widgets/scale/../../core/lv_obj_style_gen.h **** static inline int32_t lv_obj_get_style_pad_bottom(const lv_obj_t * obj, lv_part_t part)
 161:Drivers/lvgl/src/widgets/scale/../../core/lv_obj_style_gen.h **** {
 162:Drivers/lvgl/src/widgets/scale/../../core/lv_obj_style_gen.h ****     lv_style_value_t v = lv_obj_get_style_prop(obj, part, LV_STYLE_PAD_BOTTOM);
 163:Drivers/lvgl/src/widgets/scale/../../core/lv_obj_style_gen.h ****     return (int32_t)v.num;
 164:Drivers/lvgl/src/widgets/scale/../../core/lv_obj_style_gen.h **** }
 165:Drivers/lvgl/src/widgets/scale/../../core/lv_obj_style_gen.h **** 
 166:Drivers/lvgl/src/widgets/scale/../../core/lv_obj_style_gen.h **** static inline int32_t lv_obj_get_style_pad_left(const lv_obj_t * obj, lv_part_t part)
 167:Drivers/lvgl/src/widgets/scale/../../core/lv_obj_style_gen.h **** {
 168:Drivers/lvgl/src/widgets/scale/../../core/lv_obj_style_gen.h ****     lv_style_value_t v = lv_obj_get_style_prop(obj, part, LV_STYLE_PAD_LEFT);
 169:Drivers/lvgl/src/widgets/scale/../../core/lv_obj_style_gen.h ****     return (int32_t)v.num;
 170:Drivers/lvgl/src/widgets/scale/../../core/lv_obj_style_gen.h **** }
 171:Drivers/lvgl/src/widgets/scale/../../core/lv_obj_style_gen.h **** 
 172:Drivers/lvgl/src/widgets/scale/../../core/lv_obj_style_gen.h **** static inline int32_t lv_obj_get_style_pad_right(const lv_obj_t * obj, lv_part_t part)
 173:Drivers/lvgl/src/widgets/scale/../../core/lv_obj_style_gen.h **** {
 174:Drivers/lvgl/src/widgets/scale/../../core/lv_obj_style_gen.h ****     lv_style_value_t v = lv_obj_get_style_prop(obj, part, LV_STYLE_PAD_RIGHT);
 175:Drivers/lvgl/src/widgets/scale/../../core/lv_obj_style_gen.h ****     return (int32_t)v.num;
 176:Drivers/lvgl/src/widgets/scale/../../core/lv_obj_style_gen.h **** }
 177:Drivers/lvgl/src/widgets/scale/../../core/lv_obj_style_gen.h **** 
 178:Drivers/lvgl/src/widgets/scale/../../core/lv_obj_style_gen.h **** static inline int32_t lv_obj_get_style_pad_row(const lv_obj_t * obj, lv_part_t part)
 179:Drivers/lvgl/src/widgets/scale/../../core/lv_obj_style_gen.h **** {
 180:Drivers/lvgl/src/widgets/scale/../../core/lv_obj_style_gen.h ****     lv_style_value_t v = lv_obj_get_style_prop(obj, part, LV_STYLE_PAD_ROW);
 181:Drivers/lvgl/src/widgets/scale/../../core/lv_obj_style_gen.h ****     return (int32_t)v.num;
ARM GAS  /var/folders/qx/2_175_4n2s19vhvtspjhb3qh0000gn/T//ccmbJJmj.s 			page 47


 182:Drivers/lvgl/src/widgets/scale/../../core/lv_obj_style_gen.h **** }
 183:Drivers/lvgl/src/widgets/scale/../../core/lv_obj_style_gen.h **** 
 184:Drivers/lvgl/src/widgets/scale/../../core/lv_obj_style_gen.h **** static inline int32_t lv_obj_get_style_pad_column(const lv_obj_t * obj, lv_part_t part)
 185:Drivers/lvgl/src/widgets/scale/../../core/lv_obj_style_gen.h **** {
 186:Drivers/lvgl/src/widgets/scale/../../core/lv_obj_style_gen.h ****     lv_style_value_t v = lv_obj_get_style_prop(obj, part, LV_STYLE_PAD_COLUMN);
 187:Drivers/lvgl/src/widgets/scale/../../core/lv_obj_style_gen.h ****     return (int32_t)v.num;
 188:Drivers/lvgl/src/widgets/scale/../../core/lv_obj_style_gen.h **** }
 189:Drivers/lvgl/src/widgets/scale/../../core/lv_obj_style_gen.h **** 
 190:Drivers/lvgl/src/widgets/scale/../../core/lv_obj_style_gen.h **** static inline int32_t lv_obj_get_style_pad_radial(const lv_obj_t * obj, lv_part_t part)
 191:Drivers/lvgl/src/widgets/scale/../../core/lv_obj_style_gen.h **** {
 192:Drivers/lvgl/src/widgets/scale/../../core/lv_obj_style_gen.h ****     lv_style_value_t v = lv_obj_get_style_prop(obj, part, LV_STYLE_PAD_RADIAL);
 193:Drivers/lvgl/src/widgets/scale/../../core/lv_obj_style_gen.h ****     return (int32_t)v.num;
 194:Drivers/lvgl/src/widgets/scale/../../core/lv_obj_style_gen.h **** }
 195:Drivers/lvgl/src/widgets/scale/../../core/lv_obj_style_gen.h **** 
 196:Drivers/lvgl/src/widgets/scale/../../core/lv_obj_style_gen.h **** static inline int32_t lv_obj_get_style_margin_top(const lv_obj_t * obj, lv_part_t part)
 197:Drivers/lvgl/src/widgets/scale/../../core/lv_obj_style_gen.h **** {
 198:Drivers/lvgl/src/widgets/scale/../../core/lv_obj_style_gen.h ****     lv_style_value_t v = lv_obj_get_style_prop(obj, part, LV_STYLE_MARGIN_TOP);
 199:Drivers/lvgl/src/widgets/scale/../../core/lv_obj_style_gen.h ****     return (int32_t)v.num;
 200:Drivers/lvgl/src/widgets/scale/../../core/lv_obj_style_gen.h **** }
 201:Drivers/lvgl/src/widgets/scale/../../core/lv_obj_style_gen.h **** 
 202:Drivers/lvgl/src/widgets/scale/../../core/lv_obj_style_gen.h **** static inline int32_t lv_obj_get_style_margin_bottom(const lv_obj_t * obj, lv_part_t part)
 203:Drivers/lvgl/src/widgets/scale/../../core/lv_obj_style_gen.h **** {
 204:Drivers/lvgl/src/widgets/scale/../../core/lv_obj_style_gen.h ****     lv_style_value_t v = lv_obj_get_style_prop(obj, part, LV_STYLE_MARGIN_BOTTOM);
 205:Drivers/lvgl/src/widgets/scale/../../core/lv_obj_style_gen.h ****     return (int32_t)v.num;
 206:Drivers/lvgl/src/widgets/scale/../../core/lv_obj_style_gen.h **** }
 207:Drivers/lvgl/src/widgets/scale/../../core/lv_obj_style_gen.h **** 
 208:Drivers/lvgl/src/widgets/scale/../../core/lv_obj_style_gen.h **** static inline int32_t lv_obj_get_style_margin_left(const lv_obj_t * obj, lv_part_t part)
 209:Drivers/lvgl/src/widgets/scale/../../core/lv_obj_style_gen.h **** {
 210:Drivers/lvgl/src/widgets/scale/../../core/lv_obj_style_gen.h ****     lv_style_value_t v = lv_obj_get_style_prop(obj, part, LV_STYLE_MARGIN_LEFT);
 211:Drivers/lvgl/src/widgets/scale/../../core/lv_obj_style_gen.h ****     return (int32_t)v.num;
 212:Drivers/lvgl/src/widgets/scale/../../core/lv_obj_style_gen.h **** }
 213:Drivers/lvgl/src/widgets/scale/../../core/lv_obj_style_gen.h **** 
 214:Drivers/lvgl/src/widgets/scale/../../core/lv_obj_style_gen.h **** static inline int32_t lv_obj_get_style_margin_right(const lv_obj_t * obj, lv_part_t part)
 215:Drivers/lvgl/src/widgets/scale/../../core/lv_obj_style_gen.h **** {
 216:Drivers/lvgl/src/widgets/scale/../../core/lv_obj_style_gen.h ****     lv_style_value_t v = lv_obj_get_style_prop(obj, part, LV_STYLE_MARGIN_RIGHT);
 217:Drivers/lvgl/src/widgets/scale/../../core/lv_obj_style_gen.h ****     return (int32_t)v.num;
 218:Drivers/lvgl/src/widgets/scale/../../core/lv_obj_style_gen.h **** }
 219:Drivers/lvgl/src/widgets/scale/../../core/lv_obj_style_gen.h **** 
 220:Drivers/lvgl/src/widgets/scale/../../core/lv_obj_style_gen.h **** static inline lv_color_t lv_obj_get_style_bg_color(const lv_obj_t * obj, lv_part_t part)
 221:Drivers/lvgl/src/widgets/scale/../../core/lv_obj_style_gen.h **** {
 222:Drivers/lvgl/src/widgets/scale/../../core/lv_obj_style_gen.h ****     lv_style_value_t v = lv_obj_get_style_prop(obj, part, LV_STYLE_BG_COLOR);
 223:Drivers/lvgl/src/widgets/scale/../../core/lv_obj_style_gen.h ****     return v.color;
 224:Drivers/lvgl/src/widgets/scale/../../core/lv_obj_style_gen.h **** }
 225:Drivers/lvgl/src/widgets/scale/../../core/lv_obj_style_gen.h **** 
 226:Drivers/lvgl/src/widgets/scale/../../core/lv_obj_style_gen.h **** static inline lv_color_t lv_obj_get_style_bg_color_filtered(const lv_obj_t * obj, lv_part_t part)
 227:Drivers/lvgl/src/widgets/scale/../../core/lv_obj_style_gen.h **** {
 228:Drivers/lvgl/src/widgets/scale/../../core/lv_obj_style_gen.h ****     lv_style_value_t v = lv_obj_style_apply_color_filter(obj, part, lv_obj_get_style_prop(obj, part
 229:Drivers/lvgl/src/widgets/scale/../../core/lv_obj_style_gen.h ****     return v.color;
 230:Drivers/lvgl/src/widgets/scale/../../core/lv_obj_style_gen.h **** }
 231:Drivers/lvgl/src/widgets/scale/../../core/lv_obj_style_gen.h **** 
 232:Drivers/lvgl/src/widgets/scale/../../core/lv_obj_style_gen.h **** static inline lv_opa_t lv_obj_get_style_bg_opa(const lv_obj_t * obj, lv_part_t part)
 233:Drivers/lvgl/src/widgets/scale/../../core/lv_obj_style_gen.h **** {
 234:Drivers/lvgl/src/widgets/scale/../../core/lv_obj_style_gen.h ****     lv_style_value_t v = lv_obj_get_style_prop(obj, part, LV_STYLE_BG_OPA);
 235:Drivers/lvgl/src/widgets/scale/../../core/lv_obj_style_gen.h ****     return (lv_opa_t)v.num;
 236:Drivers/lvgl/src/widgets/scale/../../core/lv_obj_style_gen.h **** }
 237:Drivers/lvgl/src/widgets/scale/../../core/lv_obj_style_gen.h **** 
 238:Drivers/lvgl/src/widgets/scale/../../core/lv_obj_style_gen.h **** static inline lv_color_t lv_obj_get_style_bg_grad_color(const lv_obj_t * obj, lv_part_t part)
ARM GAS  /var/folders/qx/2_175_4n2s19vhvtspjhb3qh0000gn/T//ccmbJJmj.s 			page 48


 239:Drivers/lvgl/src/widgets/scale/../../core/lv_obj_style_gen.h **** {
 240:Drivers/lvgl/src/widgets/scale/../../core/lv_obj_style_gen.h ****     lv_style_value_t v = lv_obj_get_style_prop(obj, part, LV_STYLE_BG_GRAD_COLOR);
 241:Drivers/lvgl/src/widgets/scale/../../core/lv_obj_style_gen.h ****     return v.color;
 242:Drivers/lvgl/src/widgets/scale/../../core/lv_obj_style_gen.h **** }
 243:Drivers/lvgl/src/widgets/scale/../../core/lv_obj_style_gen.h **** 
 244:Drivers/lvgl/src/widgets/scale/../../core/lv_obj_style_gen.h **** static inline lv_color_t lv_obj_get_style_bg_grad_color_filtered(const lv_obj_t * obj, lv_part_t pa
 245:Drivers/lvgl/src/widgets/scale/../../core/lv_obj_style_gen.h **** {
 246:Drivers/lvgl/src/widgets/scale/../../core/lv_obj_style_gen.h ****     lv_style_value_t v = lv_obj_style_apply_color_filter(obj, part, lv_obj_get_style_prop(obj, part
 247:Drivers/lvgl/src/widgets/scale/../../core/lv_obj_style_gen.h ****                                                                                           LV_STYLE_
 248:Drivers/lvgl/src/widgets/scale/../../core/lv_obj_style_gen.h ****     return v.color;
 249:Drivers/lvgl/src/widgets/scale/../../core/lv_obj_style_gen.h **** }
 250:Drivers/lvgl/src/widgets/scale/../../core/lv_obj_style_gen.h **** 
 251:Drivers/lvgl/src/widgets/scale/../../core/lv_obj_style_gen.h **** static inline lv_grad_dir_t lv_obj_get_style_bg_grad_dir(const lv_obj_t * obj, lv_part_t part)
 252:Drivers/lvgl/src/widgets/scale/../../core/lv_obj_style_gen.h **** {
 253:Drivers/lvgl/src/widgets/scale/../../core/lv_obj_style_gen.h ****     lv_style_value_t v = lv_obj_get_style_prop(obj, part, LV_STYLE_BG_GRAD_DIR);
 254:Drivers/lvgl/src/widgets/scale/../../core/lv_obj_style_gen.h ****     return (lv_grad_dir_t)v.num;
 255:Drivers/lvgl/src/widgets/scale/../../core/lv_obj_style_gen.h **** }
 256:Drivers/lvgl/src/widgets/scale/../../core/lv_obj_style_gen.h **** 
 257:Drivers/lvgl/src/widgets/scale/../../core/lv_obj_style_gen.h **** static inline int32_t lv_obj_get_style_bg_main_stop(const lv_obj_t * obj, lv_part_t part)
 258:Drivers/lvgl/src/widgets/scale/../../core/lv_obj_style_gen.h **** {
 259:Drivers/lvgl/src/widgets/scale/../../core/lv_obj_style_gen.h ****     lv_style_value_t v = lv_obj_get_style_prop(obj, part, LV_STYLE_BG_MAIN_STOP);
 260:Drivers/lvgl/src/widgets/scale/../../core/lv_obj_style_gen.h ****     return (int32_t)v.num;
 261:Drivers/lvgl/src/widgets/scale/../../core/lv_obj_style_gen.h **** }
 262:Drivers/lvgl/src/widgets/scale/../../core/lv_obj_style_gen.h **** 
 263:Drivers/lvgl/src/widgets/scale/../../core/lv_obj_style_gen.h **** static inline int32_t lv_obj_get_style_bg_grad_stop(const lv_obj_t * obj, lv_part_t part)
 264:Drivers/lvgl/src/widgets/scale/../../core/lv_obj_style_gen.h **** {
 265:Drivers/lvgl/src/widgets/scale/../../core/lv_obj_style_gen.h ****     lv_style_value_t v = lv_obj_get_style_prop(obj, part, LV_STYLE_BG_GRAD_STOP);
 266:Drivers/lvgl/src/widgets/scale/../../core/lv_obj_style_gen.h ****     return (int32_t)v.num;
 267:Drivers/lvgl/src/widgets/scale/../../core/lv_obj_style_gen.h **** }
 268:Drivers/lvgl/src/widgets/scale/../../core/lv_obj_style_gen.h **** 
 269:Drivers/lvgl/src/widgets/scale/../../core/lv_obj_style_gen.h **** static inline lv_opa_t lv_obj_get_style_bg_main_opa(const lv_obj_t * obj, lv_part_t part)
 270:Drivers/lvgl/src/widgets/scale/../../core/lv_obj_style_gen.h **** {
 271:Drivers/lvgl/src/widgets/scale/../../core/lv_obj_style_gen.h ****     lv_style_value_t v = lv_obj_get_style_prop(obj, part, LV_STYLE_BG_MAIN_OPA);
 272:Drivers/lvgl/src/widgets/scale/../../core/lv_obj_style_gen.h ****     return (lv_opa_t)v.num;
 273:Drivers/lvgl/src/widgets/scale/../../core/lv_obj_style_gen.h **** }
 274:Drivers/lvgl/src/widgets/scale/../../core/lv_obj_style_gen.h **** 
 275:Drivers/lvgl/src/widgets/scale/../../core/lv_obj_style_gen.h **** static inline lv_opa_t lv_obj_get_style_bg_grad_opa(const lv_obj_t * obj, lv_part_t part)
 276:Drivers/lvgl/src/widgets/scale/../../core/lv_obj_style_gen.h **** {
 277:Drivers/lvgl/src/widgets/scale/../../core/lv_obj_style_gen.h ****     lv_style_value_t v = lv_obj_get_style_prop(obj, part, LV_STYLE_BG_GRAD_OPA);
 278:Drivers/lvgl/src/widgets/scale/../../core/lv_obj_style_gen.h ****     return (lv_opa_t)v.num;
 279:Drivers/lvgl/src/widgets/scale/../../core/lv_obj_style_gen.h **** }
 280:Drivers/lvgl/src/widgets/scale/../../core/lv_obj_style_gen.h **** 
 281:Drivers/lvgl/src/widgets/scale/../../core/lv_obj_style_gen.h **** static inline const lv_grad_dsc_t * lv_obj_get_style_bg_grad(const lv_obj_t * obj, lv_part_t part)
 282:Drivers/lvgl/src/widgets/scale/../../core/lv_obj_style_gen.h **** {
 283:Drivers/lvgl/src/widgets/scale/../../core/lv_obj_style_gen.h ****     lv_style_value_t v = lv_obj_get_style_prop(obj, part, LV_STYLE_BG_GRAD);
 284:Drivers/lvgl/src/widgets/scale/../../core/lv_obj_style_gen.h ****     return (const lv_grad_dsc_t *)v.ptr;
 285:Drivers/lvgl/src/widgets/scale/../../core/lv_obj_style_gen.h **** }
 286:Drivers/lvgl/src/widgets/scale/../../core/lv_obj_style_gen.h **** 
 287:Drivers/lvgl/src/widgets/scale/../../core/lv_obj_style_gen.h **** static inline const void * lv_obj_get_style_bg_image_src(const lv_obj_t * obj, lv_part_t part)
 288:Drivers/lvgl/src/widgets/scale/../../core/lv_obj_style_gen.h **** {
 289:Drivers/lvgl/src/widgets/scale/../../core/lv_obj_style_gen.h ****     lv_style_value_t v = lv_obj_get_style_prop(obj, part, LV_STYLE_BG_IMAGE_SRC);
 290:Drivers/lvgl/src/widgets/scale/../../core/lv_obj_style_gen.h ****     return (const void *)v.ptr;
 291:Drivers/lvgl/src/widgets/scale/../../core/lv_obj_style_gen.h **** }
 292:Drivers/lvgl/src/widgets/scale/../../core/lv_obj_style_gen.h **** 
 293:Drivers/lvgl/src/widgets/scale/../../core/lv_obj_style_gen.h **** static inline lv_opa_t lv_obj_get_style_bg_image_opa(const lv_obj_t * obj, lv_part_t part)
 294:Drivers/lvgl/src/widgets/scale/../../core/lv_obj_style_gen.h **** {
 295:Drivers/lvgl/src/widgets/scale/../../core/lv_obj_style_gen.h ****     lv_style_value_t v = lv_obj_get_style_prop(obj, part, LV_STYLE_BG_IMAGE_OPA);
ARM GAS  /var/folders/qx/2_175_4n2s19vhvtspjhb3qh0000gn/T//ccmbJJmj.s 			page 49


 296:Drivers/lvgl/src/widgets/scale/../../core/lv_obj_style_gen.h ****     return (lv_opa_t)v.num;
 297:Drivers/lvgl/src/widgets/scale/../../core/lv_obj_style_gen.h **** }
 298:Drivers/lvgl/src/widgets/scale/../../core/lv_obj_style_gen.h **** 
 299:Drivers/lvgl/src/widgets/scale/../../core/lv_obj_style_gen.h **** static inline lv_color_t lv_obj_get_style_bg_image_recolor(const lv_obj_t * obj, lv_part_t part)
 300:Drivers/lvgl/src/widgets/scale/../../core/lv_obj_style_gen.h **** {
 301:Drivers/lvgl/src/widgets/scale/../../core/lv_obj_style_gen.h ****     lv_style_value_t v = lv_obj_get_style_prop(obj, part, LV_STYLE_BG_IMAGE_RECOLOR);
 302:Drivers/lvgl/src/widgets/scale/../../core/lv_obj_style_gen.h ****     return v.color;
 303:Drivers/lvgl/src/widgets/scale/../../core/lv_obj_style_gen.h **** }
 304:Drivers/lvgl/src/widgets/scale/../../core/lv_obj_style_gen.h **** 
 305:Drivers/lvgl/src/widgets/scale/../../core/lv_obj_style_gen.h **** static inline lv_color_t lv_obj_get_style_bg_image_recolor_filtered(const lv_obj_t * obj, lv_part_t
 306:Drivers/lvgl/src/widgets/scale/../../core/lv_obj_style_gen.h **** {
 307:Drivers/lvgl/src/widgets/scale/../../core/lv_obj_style_gen.h ****     lv_style_value_t v = lv_obj_style_apply_color_filter(obj, part, lv_obj_get_style_prop(obj, part
 308:Drivers/lvgl/src/widgets/scale/../../core/lv_obj_style_gen.h ****                                                                                           LV_STYLE_
 309:Drivers/lvgl/src/widgets/scale/../../core/lv_obj_style_gen.h ****     return v.color;
 310:Drivers/lvgl/src/widgets/scale/../../core/lv_obj_style_gen.h **** }
 311:Drivers/lvgl/src/widgets/scale/../../core/lv_obj_style_gen.h **** 
 312:Drivers/lvgl/src/widgets/scale/../../core/lv_obj_style_gen.h **** static inline lv_opa_t lv_obj_get_style_bg_image_recolor_opa(const lv_obj_t * obj, lv_part_t part)
 313:Drivers/lvgl/src/widgets/scale/../../core/lv_obj_style_gen.h **** {
 314:Drivers/lvgl/src/widgets/scale/../../core/lv_obj_style_gen.h ****     lv_style_value_t v = lv_obj_get_style_prop(obj, part, LV_STYLE_BG_IMAGE_RECOLOR_OPA);
 315:Drivers/lvgl/src/widgets/scale/../../core/lv_obj_style_gen.h ****     return (lv_opa_t)v.num;
 316:Drivers/lvgl/src/widgets/scale/../../core/lv_obj_style_gen.h **** }
 317:Drivers/lvgl/src/widgets/scale/../../core/lv_obj_style_gen.h **** 
 318:Drivers/lvgl/src/widgets/scale/../../core/lv_obj_style_gen.h **** static inline bool lv_obj_get_style_bg_image_tiled(const lv_obj_t * obj, lv_part_t part)
 319:Drivers/lvgl/src/widgets/scale/../../core/lv_obj_style_gen.h **** {
 320:Drivers/lvgl/src/widgets/scale/../../core/lv_obj_style_gen.h ****     lv_style_value_t v = lv_obj_get_style_prop(obj, part, LV_STYLE_BG_IMAGE_TILED);
 321:Drivers/lvgl/src/widgets/scale/../../core/lv_obj_style_gen.h ****     return (bool)v.num;
 322:Drivers/lvgl/src/widgets/scale/../../core/lv_obj_style_gen.h **** }
 323:Drivers/lvgl/src/widgets/scale/../../core/lv_obj_style_gen.h **** 
 324:Drivers/lvgl/src/widgets/scale/../../core/lv_obj_style_gen.h **** static inline lv_color_t lv_obj_get_style_border_color(const lv_obj_t * obj, lv_part_t part)
 325:Drivers/lvgl/src/widgets/scale/../../core/lv_obj_style_gen.h **** {
 326:Drivers/lvgl/src/widgets/scale/../../core/lv_obj_style_gen.h ****     lv_style_value_t v = lv_obj_get_style_prop(obj, part, LV_STYLE_BORDER_COLOR);
 327:Drivers/lvgl/src/widgets/scale/../../core/lv_obj_style_gen.h ****     return v.color;
 328:Drivers/lvgl/src/widgets/scale/../../core/lv_obj_style_gen.h **** }
 329:Drivers/lvgl/src/widgets/scale/../../core/lv_obj_style_gen.h **** 
 330:Drivers/lvgl/src/widgets/scale/../../core/lv_obj_style_gen.h **** static inline lv_color_t lv_obj_get_style_border_color_filtered(const lv_obj_t * obj, lv_part_t par
 331:Drivers/lvgl/src/widgets/scale/../../core/lv_obj_style_gen.h **** {
 332:Drivers/lvgl/src/widgets/scale/../../core/lv_obj_style_gen.h ****     lv_style_value_t v = lv_obj_style_apply_color_filter(obj, part, lv_obj_get_style_prop(obj, part
 333:Drivers/lvgl/src/widgets/scale/../../core/lv_obj_style_gen.h ****                                                                                           LV_STYLE_
 334:Drivers/lvgl/src/widgets/scale/../../core/lv_obj_style_gen.h ****     return v.color;
 335:Drivers/lvgl/src/widgets/scale/../../core/lv_obj_style_gen.h **** }
 336:Drivers/lvgl/src/widgets/scale/../../core/lv_obj_style_gen.h **** 
 337:Drivers/lvgl/src/widgets/scale/../../core/lv_obj_style_gen.h **** static inline lv_opa_t lv_obj_get_style_border_opa(const lv_obj_t * obj, lv_part_t part)
 338:Drivers/lvgl/src/widgets/scale/../../core/lv_obj_style_gen.h **** {
 339:Drivers/lvgl/src/widgets/scale/../../core/lv_obj_style_gen.h ****     lv_style_value_t v = lv_obj_get_style_prop(obj, part, LV_STYLE_BORDER_OPA);
 340:Drivers/lvgl/src/widgets/scale/../../core/lv_obj_style_gen.h ****     return (lv_opa_t)v.num;
 341:Drivers/lvgl/src/widgets/scale/../../core/lv_obj_style_gen.h **** }
 342:Drivers/lvgl/src/widgets/scale/../../core/lv_obj_style_gen.h **** 
 343:Drivers/lvgl/src/widgets/scale/../../core/lv_obj_style_gen.h **** static inline int32_t lv_obj_get_style_border_width(const lv_obj_t * obj, lv_part_t part)
 344:Drivers/lvgl/src/widgets/scale/../../core/lv_obj_style_gen.h **** {
 345:Drivers/lvgl/src/widgets/scale/../../core/lv_obj_style_gen.h ****     lv_style_value_t v = lv_obj_get_style_prop(obj, part, LV_STYLE_BORDER_WIDTH);
 346:Drivers/lvgl/src/widgets/scale/../../core/lv_obj_style_gen.h ****     return (int32_t)v.num;
 347:Drivers/lvgl/src/widgets/scale/../../core/lv_obj_style_gen.h **** }
 348:Drivers/lvgl/src/widgets/scale/../../core/lv_obj_style_gen.h **** 
 349:Drivers/lvgl/src/widgets/scale/../../core/lv_obj_style_gen.h **** static inline lv_border_side_t lv_obj_get_style_border_side(const lv_obj_t * obj, lv_part_t part)
 350:Drivers/lvgl/src/widgets/scale/../../core/lv_obj_style_gen.h **** {
 351:Drivers/lvgl/src/widgets/scale/../../core/lv_obj_style_gen.h ****     lv_style_value_t v = lv_obj_get_style_prop(obj, part, LV_STYLE_BORDER_SIDE);
 352:Drivers/lvgl/src/widgets/scale/../../core/lv_obj_style_gen.h ****     return (lv_border_side_t)v.num;
ARM GAS  /var/folders/qx/2_175_4n2s19vhvtspjhb3qh0000gn/T//ccmbJJmj.s 			page 50


 353:Drivers/lvgl/src/widgets/scale/../../core/lv_obj_style_gen.h **** }
 354:Drivers/lvgl/src/widgets/scale/../../core/lv_obj_style_gen.h **** 
 355:Drivers/lvgl/src/widgets/scale/../../core/lv_obj_style_gen.h **** static inline bool lv_obj_get_style_border_post(const lv_obj_t * obj, lv_part_t part)
 356:Drivers/lvgl/src/widgets/scale/../../core/lv_obj_style_gen.h **** {
 357:Drivers/lvgl/src/widgets/scale/../../core/lv_obj_style_gen.h ****     lv_style_value_t v = lv_obj_get_style_prop(obj, part, LV_STYLE_BORDER_POST);
 358:Drivers/lvgl/src/widgets/scale/../../core/lv_obj_style_gen.h ****     return (bool)v.num;
 359:Drivers/lvgl/src/widgets/scale/../../core/lv_obj_style_gen.h **** }
 360:Drivers/lvgl/src/widgets/scale/../../core/lv_obj_style_gen.h **** 
 361:Drivers/lvgl/src/widgets/scale/../../core/lv_obj_style_gen.h **** static inline int32_t lv_obj_get_style_outline_width(const lv_obj_t * obj, lv_part_t part)
 362:Drivers/lvgl/src/widgets/scale/../../core/lv_obj_style_gen.h **** {
 363:Drivers/lvgl/src/widgets/scale/../../core/lv_obj_style_gen.h ****     lv_style_value_t v = lv_obj_get_style_prop(obj, part, LV_STYLE_OUTLINE_WIDTH);
 364:Drivers/lvgl/src/widgets/scale/../../core/lv_obj_style_gen.h ****     return (int32_t)v.num;
 365:Drivers/lvgl/src/widgets/scale/../../core/lv_obj_style_gen.h **** }
 366:Drivers/lvgl/src/widgets/scale/../../core/lv_obj_style_gen.h **** 
 367:Drivers/lvgl/src/widgets/scale/../../core/lv_obj_style_gen.h **** static inline lv_color_t lv_obj_get_style_outline_color(const lv_obj_t * obj, lv_part_t part)
 368:Drivers/lvgl/src/widgets/scale/../../core/lv_obj_style_gen.h **** {
 369:Drivers/lvgl/src/widgets/scale/../../core/lv_obj_style_gen.h ****     lv_style_value_t v = lv_obj_get_style_prop(obj, part, LV_STYLE_OUTLINE_COLOR);
 370:Drivers/lvgl/src/widgets/scale/../../core/lv_obj_style_gen.h ****     return v.color;
 371:Drivers/lvgl/src/widgets/scale/../../core/lv_obj_style_gen.h **** }
 372:Drivers/lvgl/src/widgets/scale/../../core/lv_obj_style_gen.h **** 
 373:Drivers/lvgl/src/widgets/scale/../../core/lv_obj_style_gen.h **** static inline lv_color_t lv_obj_get_style_outline_color_filtered(const lv_obj_t * obj, lv_part_t pa
 374:Drivers/lvgl/src/widgets/scale/../../core/lv_obj_style_gen.h **** {
 375:Drivers/lvgl/src/widgets/scale/../../core/lv_obj_style_gen.h ****     lv_style_value_t v = lv_obj_style_apply_color_filter(obj, part, lv_obj_get_style_prop(obj, part
 376:Drivers/lvgl/src/widgets/scale/../../core/lv_obj_style_gen.h ****                                                                                           LV_STYLE_
 377:Drivers/lvgl/src/widgets/scale/../../core/lv_obj_style_gen.h ****     return v.color;
 378:Drivers/lvgl/src/widgets/scale/../../core/lv_obj_style_gen.h **** }
 379:Drivers/lvgl/src/widgets/scale/../../core/lv_obj_style_gen.h **** 
 380:Drivers/lvgl/src/widgets/scale/../../core/lv_obj_style_gen.h **** static inline lv_opa_t lv_obj_get_style_outline_opa(const lv_obj_t * obj, lv_part_t part)
 381:Drivers/lvgl/src/widgets/scale/../../core/lv_obj_style_gen.h **** {
 382:Drivers/lvgl/src/widgets/scale/../../core/lv_obj_style_gen.h ****     lv_style_value_t v = lv_obj_get_style_prop(obj, part, LV_STYLE_OUTLINE_OPA);
 383:Drivers/lvgl/src/widgets/scale/../../core/lv_obj_style_gen.h ****     return (lv_opa_t)v.num;
 384:Drivers/lvgl/src/widgets/scale/../../core/lv_obj_style_gen.h **** }
 385:Drivers/lvgl/src/widgets/scale/../../core/lv_obj_style_gen.h **** 
 386:Drivers/lvgl/src/widgets/scale/../../core/lv_obj_style_gen.h **** static inline int32_t lv_obj_get_style_outline_pad(const lv_obj_t * obj, lv_part_t part)
 387:Drivers/lvgl/src/widgets/scale/../../core/lv_obj_style_gen.h **** {
 388:Drivers/lvgl/src/widgets/scale/../../core/lv_obj_style_gen.h ****     lv_style_value_t v = lv_obj_get_style_prop(obj, part, LV_STYLE_OUTLINE_PAD);
 389:Drivers/lvgl/src/widgets/scale/../../core/lv_obj_style_gen.h ****     return (int32_t)v.num;
 390:Drivers/lvgl/src/widgets/scale/../../core/lv_obj_style_gen.h **** }
 391:Drivers/lvgl/src/widgets/scale/../../core/lv_obj_style_gen.h **** 
 392:Drivers/lvgl/src/widgets/scale/../../core/lv_obj_style_gen.h **** static inline int32_t lv_obj_get_style_shadow_width(const lv_obj_t * obj, lv_part_t part)
 393:Drivers/lvgl/src/widgets/scale/../../core/lv_obj_style_gen.h **** {
 394:Drivers/lvgl/src/widgets/scale/../../core/lv_obj_style_gen.h ****     lv_style_value_t v = lv_obj_get_style_prop(obj, part, LV_STYLE_SHADOW_WIDTH);
 395:Drivers/lvgl/src/widgets/scale/../../core/lv_obj_style_gen.h ****     return (int32_t)v.num;
 396:Drivers/lvgl/src/widgets/scale/../../core/lv_obj_style_gen.h **** }
 397:Drivers/lvgl/src/widgets/scale/../../core/lv_obj_style_gen.h **** 
 398:Drivers/lvgl/src/widgets/scale/../../core/lv_obj_style_gen.h **** static inline int32_t lv_obj_get_style_shadow_offset_x(const lv_obj_t * obj, lv_part_t part)
 399:Drivers/lvgl/src/widgets/scale/../../core/lv_obj_style_gen.h **** {
 400:Drivers/lvgl/src/widgets/scale/../../core/lv_obj_style_gen.h ****     lv_style_value_t v = lv_obj_get_style_prop(obj, part, LV_STYLE_SHADOW_OFFSET_X);
 401:Drivers/lvgl/src/widgets/scale/../../core/lv_obj_style_gen.h ****     return (int32_t)v.num;
 402:Drivers/lvgl/src/widgets/scale/../../core/lv_obj_style_gen.h **** }
 403:Drivers/lvgl/src/widgets/scale/../../core/lv_obj_style_gen.h **** 
 404:Drivers/lvgl/src/widgets/scale/../../core/lv_obj_style_gen.h **** static inline int32_t lv_obj_get_style_shadow_offset_y(const lv_obj_t * obj, lv_part_t part)
 405:Drivers/lvgl/src/widgets/scale/../../core/lv_obj_style_gen.h **** {
 406:Drivers/lvgl/src/widgets/scale/../../core/lv_obj_style_gen.h ****     lv_style_value_t v = lv_obj_get_style_prop(obj, part, LV_STYLE_SHADOW_OFFSET_Y);
 407:Drivers/lvgl/src/widgets/scale/../../core/lv_obj_style_gen.h ****     return (int32_t)v.num;
 408:Drivers/lvgl/src/widgets/scale/../../core/lv_obj_style_gen.h **** }
 409:Drivers/lvgl/src/widgets/scale/../../core/lv_obj_style_gen.h **** 
ARM GAS  /var/folders/qx/2_175_4n2s19vhvtspjhb3qh0000gn/T//ccmbJJmj.s 			page 51


 410:Drivers/lvgl/src/widgets/scale/../../core/lv_obj_style_gen.h **** static inline int32_t lv_obj_get_style_shadow_spread(const lv_obj_t * obj, lv_part_t part)
 411:Drivers/lvgl/src/widgets/scale/../../core/lv_obj_style_gen.h **** {
 412:Drivers/lvgl/src/widgets/scale/../../core/lv_obj_style_gen.h ****     lv_style_value_t v = lv_obj_get_style_prop(obj, part, LV_STYLE_SHADOW_SPREAD);
 413:Drivers/lvgl/src/widgets/scale/../../core/lv_obj_style_gen.h ****     return (int32_t)v.num;
 414:Drivers/lvgl/src/widgets/scale/../../core/lv_obj_style_gen.h **** }
 415:Drivers/lvgl/src/widgets/scale/../../core/lv_obj_style_gen.h **** 
 416:Drivers/lvgl/src/widgets/scale/../../core/lv_obj_style_gen.h **** static inline lv_color_t lv_obj_get_style_shadow_color(const lv_obj_t * obj, lv_part_t part)
 417:Drivers/lvgl/src/widgets/scale/../../core/lv_obj_style_gen.h **** {
 418:Drivers/lvgl/src/widgets/scale/../../core/lv_obj_style_gen.h ****     lv_style_value_t v = lv_obj_get_style_prop(obj, part, LV_STYLE_SHADOW_COLOR);
 419:Drivers/lvgl/src/widgets/scale/../../core/lv_obj_style_gen.h ****     return v.color;
 420:Drivers/lvgl/src/widgets/scale/../../core/lv_obj_style_gen.h **** }
 421:Drivers/lvgl/src/widgets/scale/../../core/lv_obj_style_gen.h **** 
 422:Drivers/lvgl/src/widgets/scale/../../core/lv_obj_style_gen.h **** static inline lv_color_t lv_obj_get_style_shadow_color_filtered(const lv_obj_t * obj, lv_part_t par
 423:Drivers/lvgl/src/widgets/scale/../../core/lv_obj_style_gen.h **** {
 424:Drivers/lvgl/src/widgets/scale/../../core/lv_obj_style_gen.h ****     lv_style_value_t v = lv_obj_style_apply_color_filter(obj, part, lv_obj_get_style_prop(obj, part
 425:Drivers/lvgl/src/widgets/scale/../../core/lv_obj_style_gen.h ****                                                                                           LV_STYLE_
 426:Drivers/lvgl/src/widgets/scale/../../core/lv_obj_style_gen.h ****     return v.color;
 427:Drivers/lvgl/src/widgets/scale/../../core/lv_obj_style_gen.h **** }
 428:Drivers/lvgl/src/widgets/scale/../../core/lv_obj_style_gen.h **** 
 429:Drivers/lvgl/src/widgets/scale/../../core/lv_obj_style_gen.h **** static inline lv_opa_t lv_obj_get_style_shadow_opa(const lv_obj_t * obj, lv_part_t part)
 430:Drivers/lvgl/src/widgets/scale/../../core/lv_obj_style_gen.h **** {
 431:Drivers/lvgl/src/widgets/scale/../../core/lv_obj_style_gen.h ****     lv_style_value_t v = lv_obj_get_style_prop(obj, part, LV_STYLE_SHADOW_OPA);
 432:Drivers/lvgl/src/widgets/scale/../../core/lv_obj_style_gen.h ****     return (lv_opa_t)v.num;
 433:Drivers/lvgl/src/widgets/scale/../../core/lv_obj_style_gen.h **** }
 434:Drivers/lvgl/src/widgets/scale/../../core/lv_obj_style_gen.h **** 
 435:Drivers/lvgl/src/widgets/scale/../../core/lv_obj_style_gen.h **** static inline lv_opa_t lv_obj_get_style_image_opa(const lv_obj_t * obj, lv_part_t part)
 436:Drivers/lvgl/src/widgets/scale/../../core/lv_obj_style_gen.h **** {
 437:Drivers/lvgl/src/widgets/scale/../../core/lv_obj_style_gen.h ****     lv_style_value_t v = lv_obj_get_style_prop(obj, part, LV_STYLE_IMAGE_OPA);
 438:Drivers/lvgl/src/widgets/scale/../../core/lv_obj_style_gen.h ****     return (lv_opa_t)v.num;
 439:Drivers/lvgl/src/widgets/scale/../../core/lv_obj_style_gen.h **** }
 440:Drivers/lvgl/src/widgets/scale/../../core/lv_obj_style_gen.h **** 
 441:Drivers/lvgl/src/widgets/scale/../../core/lv_obj_style_gen.h **** static inline lv_color_t lv_obj_get_style_image_recolor(const lv_obj_t * obj, lv_part_t part)
 442:Drivers/lvgl/src/widgets/scale/../../core/lv_obj_style_gen.h **** {
 443:Drivers/lvgl/src/widgets/scale/../../core/lv_obj_style_gen.h ****     lv_style_value_t v = lv_obj_get_style_prop(obj, part, LV_STYLE_IMAGE_RECOLOR);
 444:Drivers/lvgl/src/widgets/scale/../../core/lv_obj_style_gen.h ****     return v.color;
 445:Drivers/lvgl/src/widgets/scale/../../core/lv_obj_style_gen.h **** }
 446:Drivers/lvgl/src/widgets/scale/../../core/lv_obj_style_gen.h **** 
 447:Drivers/lvgl/src/widgets/scale/../../core/lv_obj_style_gen.h **** static inline lv_color_t lv_obj_get_style_image_recolor_filtered(const lv_obj_t * obj, lv_part_t pa
 448:Drivers/lvgl/src/widgets/scale/../../core/lv_obj_style_gen.h **** {
 449:Drivers/lvgl/src/widgets/scale/../../core/lv_obj_style_gen.h ****     lv_style_value_t v = lv_obj_style_apply_color_filter(obj, part, lv_obj_get_style_prop(obj, part
 450:Drivers/lvgl/src/widgets/scale/../../core/lv_obj_style_gen.h ****                                                                                           LV_STYLE_
 451:Drivers/lvgl/src/widgets/scale/../../core/lv_obj_style_gen.h ****     return v.color;
 452:Drivers/lvgl/src/widgets/scale/../../core/lv_obj_style_gen.h **** }
 453:Drivers/lvgl/src/widgets/scale/../../core/lv_obj_style_gen.h **** 
 454:Drivers/lvgl/src/widgets/scale/../../core/lv_obj_style_gen.h **** static inline lv_opa_t lv_obj_get_style_image_recolor_opa(const lv_obj_t * obj, lv_part_t part)
 455:Drivers/lvgl/src/widgets/scale/../../core/lv_obj_style_gen.h **** {
 456:Drivers/lvgl/src/widgets/scale/../../core/lv_obj_style_gen.h ****     lv_style_value_t v = lv_obj_get_style_prop(obj, part, LV_STYLE_IMAGE_RECOLOR_OPA);
 457:Drivers/lvgl/src/widgets/scale/../../core/lv_obj_style_gen.h ****     return (lv_opa_t)v.num;
 458:Drivers/lvgl/src/widgets/scale/../../core/lv_obj_style_gen.h **** }
 459:Drivers/lvgl/src/widgets/scale/../../core/lv_obj_style_gen.h **** 
 460:Drivers/lvgl/src/widgets/scale/../../core/lv_obj_style_gen.h **** static inline const lv_image_colorkey_t * lv_obj_get_style_image_colorkey(const lv_obj_t * obj, lv_
 461:Drivers/lvgl/src/widgets/scale/../../core/lv_obj_style_gen.h **** {
 462:Drivers/lvgl/src/widgets/scale/../../core/lv_obj_style_gen.h ****     lv_style_value_t v = lv_obj_get_style_prop(obj, part, LV_STYLE_IMAGE_COLORKEY);
 463:Drivers/lvgl/src/widgets/scale/../../core/lv_obj_style_gen.h ****     return (const lv_image_colorkey_t *)v.ptr;
 464:Drivers/lvgl/src/widgets/scale/../../core/lv_obj_style_gen.h **** }
 465:Drivers/lvgl/src/widgets/scale/../../core/lv_obj_style_gen.h **** 
 466:Drivers/lvgl/src/widgets/scale/../../core/lv_obj_style_gen.h **** static inline int32_t lv_obj_get_style_line_width(const lv_obj_t * obj, lv_part_t part)
ARM GAS  /var/folders/qx/2_175_4n2s19vhvtspjhb3qh0000gn/T//ccmbJJmj.s 			page 52


 519              		.loc 2 466 23 view .LVU153
 520              	.LBB163:
 467:Drivers/lvgl/src/widgets/scale/../../core/lv_obj_style_gen.h **** {
 468:Drivers/lvgl/src/widgets/scale/../../core/lv_obj_style_gen.h ****     lv_style_value_t v = lv_obj_get_style_prop(obj, part, LV_STYLE_LINE_WIDTH);
 521              		.loc 2 468 5 view .LVU154
 522              		.loc 2 468 26 is_stmt 0 view .LVU155
 523 0054 4822     		movs	r2, #72
 524 0056 2946     		mov	r1, r5
 525 0058 3846     		mov	r0, r7
 526              	.LVL43:
 527              		.loc 2 468 26 view .LVU156
 528 005a FFF7FEFF 		bl	lv_obj_get_style_prop
 529              	.LVL44:
 530 005e 0190     		str	r0, [sp, #4]
 469:Drivers/lvgl/src/widgets/scale/../../core/lv_obj_style_gen.h ****     return (int32_t)v.num;
 531              		.loc 2 469 5 is_stmt 1 view .LVU157
 532              	.LVL45:
 533              		.loc 2 469 5 is_stmt 0 view .LVU158
 534              	.LBE163:
 535              	.LBE162:
1467:Drivers/lvgl/src/widgets/scale/lv_scale.c ****         }
 536              		.loc 1 1467 29 discriminator 1 view .LVU159
 537 0060 2063     		str	r0, [r4, #48]
 538 0062 DEE7     		b	.L37
 539              	.LVL46:
 540              	.L38:
1476:Drivers/lvgl/src/widgets/scale/lv_scale.c ****         }
 541              		.loc 1 1476 13 is_stmt 1 view .LVU160
 542              	.LBB164:
 543              	.LBI164:
 470:Drivers/lvgl/src/widgets/scale/../../core/lv_obj_style_gen.h **** }
 471:Drivers/lvgl/src/widgets/scale/../../core/lv_obj_style_gen.h **** 
 472:Drivers/lvgl/src/widgets/scale/../../core/lv_obj_style_gen.h **** static inline int32_t lv_obj_get_style_line_dash_width(const lv_obj_t * obj, lv_part_t part)
 473:Drivers/lvgl/src/widgets/scale/../../core/lv_obj_style_gen.h **** {
 474:Drivers/lvgl/src/widgets/scale/../../core/lv_obj_style_gen.h ****     lv_style_value_t v = lv_obj_get_style_prop(obj, part, LV_STYLE_LINE_DASH_WIDTH);
 475:Drivers/lvgl/src/widgets/scale/../../core/lv_obj_style_gen.h ****     return (int32_t)v.num;
 476:Drivers/lvgl/src/widgets/scale/../../core/lv_obj_style_gen.h **** }
 477:Drivers/lvgl/src/widgets/scale/../../core/lv_obj_style_gen.h **** 
 478:Drivers/lvgl/src/widgets/scale/../../core/lv_obj_style_gen.h **** static inline int32_t lv_obj_get_style_line_dash_gap(const lv_obj_t * obj, lv_part_t part)
 479:Drivers/lvgl/src/widgets/scale/../../core/lv_obj_style_gen.h **** {
 480:Drivers/lvgl/src/widgets/scale/../../core/lv_obj_style_gen.h ****     lv_style_value_t v = lv_obj_get_style_prop(obj, part, LV_STYLE_LINE_DASH_GAP);
 481:Drivers/lvgl/src/widgets/scale/../../core/lv_obj_style_gen.h ****     return (int32_t)v.num;
 482:Drivers/lvgl/src/widgets/scale/../../core/lv_obj_style_gen.h **** }
 483:Drivers/lvgl/src/widgets/scale/../../core/lv_obj_style_gen.h **** 
 484:Drivers/lvgl/src/widgets/scale/../../core/lv_obj_style_gen.h **** static inline bool lv_obj_get_style_line_rounded(const lv_obj_t * obj, lv_part_t part)
 485:Drivers/lvgl/src/widgets/scale/../../core/lv_obj_style_gen.h **** {
 486:Drivers/lvgl/src/widgets/scale/../../core/lv_obj_style_gen.h ****     lv_style_value_t v = lv_obj_get_style_prop(obj, part, LV_STYLE_LINE_ROUNDED);
 487:Drivers/lvgl/src/widgets/scale/../../core/lv_obj_style_gen.h ****     return (bool)v.num;
 488:Drivers/lvgl/src/widgets/scale/../../core/lv_obj_style_gen.h **** }
 489:Drivers/lvgl/src/widgets/scale/../../core/lv_obj_style_gen.h **** 
 490:Drivers/lvgl/src/widgets/scale/../../core/lv_obj_style_gen.h **** static inline lv_color_t lv_obj_get_style_line_color(const lv_obj_t * obj, lv_part_t part)
 544              		.loc 2 490 26 view .LVU161
 545              	.LBB165:
 491:Drivers/lvgl/src/widgets/scale/../../core/lv_obj_style_gen.h **** {
 492:Drivers/lvgl/src/widgets/scale/../../core/lv_obj_style_gen.h ****     lv_style_value_t v = lv_obj_get_style_prop(obj, part, LV_STYLE_LINE_COLOR);
 546              		.loc 2 492 5 view .LVU162
 547              		.loc 2 492 26 is_stmt 0 view .LVU163
ARM GAS  /var/folders/qx/2_175_4n2s19vhvtspjhb3qh0000gn/T//ccmbJJmj.s 			page 53


 548 0064 4C22     		movs	r2, #76
 549 0066 2946     		mov	r1, r5
 550 0068 3846     		mov	r0, r7
 551              	.LVL47:
 552              		.loc 2 492 26 view .LVU164
 553 006a FFF7FEFF 		bl	lv_obj_get_style_prop
 554              	.LVL48:
 555 006e 0190     		str	r0, [sp, #4]
 493:Drivers/lvgl/src/widgets/scale/../../core/lv_obj_style_gen.h ****     return v.color;
 556              		.loc 2 493 5 is_stmt 1 view .LVU165
 557              		.loc 2 493 13 is_stmt 0 view .LVU166
 558 0070 ADF80C00 		strh	r0, [sp, #12]	@ movhi
 559 0074 030C     		lsrs	r3, r0, #16
 560 0076 8DF80E30 		strb	r3, [sp, #14]
 561 007a 039B     		ldr	r3, [sp, #12]
 562 007c ADF80830 		strh	r3, [sp, #8]	@ movhi
 563 0080 1B0C     		lsrs	r3, r3, #16
 564 0082 8DF80A30 		strb	r3, [sp, #10]
 565              	.LVL49:
 566              		.loc 2 493 13 view .LVU167
 567              	.LBE165:
 568              	.LBE164:
1476:Drivers/lvgl/src/widgets/scale/lv_scale.c ****         }
 569              		.loc 1 1476 31 view .LVU168
 570 0086 029B     		ldr	r3, [sp, #8]
 571 0088 A385     		strh	r3, [r4, #44]	@ movhi
 572 008a 1B0C     		lsrs	r3, r3, #16
 573 008c 84F82E30 		strb	r3, [r4, #46]
 574 0090 D3E7     		b	.L39
 575              	.LVL50:
 576              	.L40:
1485:Drivers/lvgl/src/widgets/scale/lv_scale.c ****         }
 577              		.loc 1 1485 13 is_stmt 1 view .LVU169
 578              	.LBB166:
 579              	.LBI166:
 494:Drivers/lvgl/src/widgets/scale/../../core/lv_obj_style_gen.h **** }
 495:Drivers/lvgl/src/widgets/scale/../../core/lv_obj_style_gen.h **** 
 496:Drivers/lvgl/src/widgets/scale/../../core/lv_obj_style_gen.h **** static inline lv_color_t lv_obj_get_style_line_color_filtered(const lv_obj_t * obj, lv_part_t part)
 497:Drivers/lvgl/src/widgets/scale/../../core/lv_obj_style_gen.h **** {
 498:Drivers/lvgl/src/widgets/scale/../../core/lv_obj_style_gen.h ****     lv_style_value_t v = lv_obj_style_apply_color_filter(obj, part, lv_obj_get_style_prop(obj, part
 499:Drivers/lvgl/src/widgets/scale/../../core/lv_obj_style_gen.h ****     return v.color;
 500:Drivers/lvgl/src/widgets/scale/../../core/lv_obj_style_gen.h **** }
 501:Drivers/lvgl/src/widgets/scale/../../core/lv_obj_style_gen.h **** 
 502:Drivers/lvgl/src/widgets/scale/../../core/lv_obj_style_gen.h **** static inline lv_opa_t lv_obj_get_style_line_opa(const lv_obj_t * obj, lv_part_t part)
 580              		.loc 2 502 24 view .LVU170
 581              	.LBB167:
 503:Drivers/lvgl/src/widgets/scale/../../core/lv_obj_style_gen.h **** {
 504:Drivers/lvgl/src/widgets/scale/../../core/lv_obj_style_gen.h ****     lv_style_value_t v = lv_obj_get_style_prop(obj, part, LV_STYLE_LINE_OPA);
 582              		.loc 2 504 5 view .LVU171
 583              		.loc 2 504 26 is_stmt 0 view .LVU172
 584 0092 4D22     		movs	r2, #77
 585 0094 2946     		mov	r1, r5
 586 0096 3846     		mov	r0, r7
 587              	.LVL51:
 588              		.loc 2 504 26 view .LVU173
 589 0098 FFF7FEFF 		bl	lv_obj_get_style_prop
 590              	.LVL52:
ARM GAS  /var/folders/qx/2_175_4n2s19vhvtspjhb3qh0000gn/T//ccmbJJmj.s 			page 54


 591 009c 0190     		str	r0, [sp, #4]
 505:Drivers/lvgl/src/widgets/scale/../../core/lv_obj_style_gen.h ****     return (lv_opa_t)v.num;
 592              		.loc 2 505 5 is_stmt 1 view .LVU174
 593              	.LVL53:
 594              		.loc 2 505 5 is_stmt 0 view .LVU175
 595              	.LBE167:
 596              	.LBE166:
1485:Drivers/lvgl/src/widgets/scale/lv_scale.c ****         }
 597              		.loc 1 1485 27 discriminator 1 view .LVU176
 598 009e 84F83C00 		strb	r0, [r4, #60]
 599 00a2 D5E7     		b	.L34
 600              	.LVL54:
 601              	.L35:
1485:Drivers/lvgl/src/widgets/scale/lv_scale.c ****         }
 602              		.loc 1 1485 27 discriminator 1 view .LVU177
 603              	.LBE168:
1489:Drivers/lvgl/src/widgets/scale/lv_scale.c ****         line_dsc->opa = lv_obj_get_style_line_opa(obj, part);
 604              		.loc 1 1489 9 is_stmt 1 view .LVU178
 605              	.LBB169:
 606              	.LBI169:
 490:Drivers/lvgl/src/widgets/scale/../../core/lv_obj_style_gen.h **** {
 607              		.loc 2 490 26 view .LVU179
 608              	.LBB170:
 492:Drivers/lvgl/src/widgets/scale/../../core/lv_obj_style_gen.h ****     return v.color;
 609              		.loc 2 492 5 view .LVU180
 492:Drivers/lvgl/src/widgets/scale/../../core/lv_obj_style_gen.h ****     return v.color;
 610              		.loc 2 492 26 is_stmt 0 view .LVU181
 611 00a4 4C22     		movs	r2, #76
 612              	.LVL55:
 492:Drivers/lvgl/src/widgets/scale/../../core/lv_obj_style_gen.h ****     return v.color;
 613              		.loc 2 492 26 view .LVU182
 614 00a6 1946     		mov	r1, r3
 615              	.LVL56:
 492:Drivers/lvgl/src/widgets/scale/../../core/lv_obj_style_gen.h ****     return v.color;
 616              		.loc 2 492 26 view .LVU183
 617 00a8 FFF7FEFF 		bl	lv_obj_get_style_prop
 618              	.LVL57:
 492:Drivers/lvgl/src/widgets/scale/../../core/lv_obj_style_gen.h ****     return v.color;
 619              		.loc 2 492 26 view .LVU184
 620 00ac 0190     		str	r0, [sp, #4]
 493:Drivers/lvgl/src/widgets/scale/../../core/lv_obj_style_gen.h **** }
 621              		.loc 2 493 5 is_stmt 1 view .LVU185
 493:Drivers/lvgl/src/widgets/scale/../../core/lv_obj_style_gen.h **** }
 622              		.loc 2 493 13 is_stmt 0 view .LVU186
 623 00ae ADF81400 		strh	r0, [sp, #20]	@ movhi
 624 00b2 030C     		lsrs	r3, r0, #16
 625 00b4 8DF81630 		strb	r3, [sp, #22]
 626 00b8 059B     		ldr	r3, [sp, #20]
 627 00ba ADF81030 		strh	r3, [sp, #16]	@ movhi
 628 00be 1B0C     		lsrs	r3, r3, #16
 629 00c0 8DF81230 		strb	r3, [sp, #18]
 630              	.LVL58:
 493:Drivers/lvgl/src/widgets/scale/../../core/lv_obj_style_gen.h **** }
 631              		.loc 2 493 13 view .LVU187
 632              	.LBE170:
 633              	.LBE169:
1489:Drivers/lvgl/src/widgets/scale/lv_scale.c ****         line_dsc->opa = lv_obj_get_style_line_opa(obj, part);
ARM GAS  /var/folders/qx/2_175_4n2s19vhvtspjhb3qh0000gn/T//ccmbJJmj.s 			page 55


 634              		.loc 1 1489 27 view .LVU188
 635 00c4 049B     		ldr	r3, [sp, #16]
 636 00c6 A385     		strh	r3, [r4, #44]	@ movhi
 637 00c8 1B0C     		lsrs	r3, r3, #16
 638 00ca 84F82E30 		strb	r3, [r4, #46]
1490:Drivers/lvgl/src/widgets/scale/lv_scale.c ****         line_dsc->width = lv_obj_get_style_line_width(obj, part);
 639              		.loc 1 1490 9 is_stmt 1 view .LVU189
 640              	.LVL59:
 641              	.LBB171:
 642              	.LBI171:
 502:Drivers/lvgl/src/widgets/scale/../../core/lv_obj_style_gen.h **** {
 643              		.loc 2 502 24 view .LVU190
 644              	.LBB172:
 504:Drivers/lvgl/src/widgets/scale/../../core/lv_obj_style_gen.h ****     return (lv_opa_t)v.num;
 645              		.loc 2 504 5 view .LVU191
 504:Drivers/lvgl/src/widgets/scale/../../core/lv_obj_style_gen.h ****     return (lv_opa_t)v.num;
 646              		.loc 2 504 26 is_stmt 0 view .LVU192
 647 00ce 4D22     		movs	r2, #77
 648 00d0 2946     		mov	r1, r5
 649 00d2 3846     		mov	r0, r7
 650 00d4 FFF7FEFF 		bl	lv_obj_get_style_prop
 651              	.LVL60:
 652 00d8 0190     		str	r0, [sp, #4]
 653              		.loc 2 505 5 is_stmt 1 view .LVU193
 654              	.LVL61:
 655              		.loc 2 505 5 is_stmt 0 view .LVU194
 656              	.LBE172:
 657              	.LBE171:
1490:Drivers/lvgl/src/widgets/scale/lv_scale.c ****         line_dsc->width = lv_obj_get_style_line_width(obj, part);
 658              		.loc 1 1490 23 discriminator 1 view .LVU195
 659 00da 84F83C00 		strb	r0, [r4, #60]
1491:Drivers/lvgl/src/widgets/scale/lv_scale.c ****     }
 660              		.loc 1 1491 9 is_stmt 1 view .LVU196
 661              	.LVL62:
 662              	.LBB173:
 663              	.LBI173:
 466:Drivers/lvgl/src/widgets/scale/../../core/lv_obj_style_gen.h **** {
 664              		.loc 2 466 23 view .LVU197
 665              	.LBB174:
 468:Drivers/lvgl/src/widgets/scale/../../core/lv_obj_style_gen.h ****     return (int32_t)v.num;
 666              		.loc 2 468 5 view .LVU198
 468:Drivers/lvgl/src/widgets/scale/../../core/lv_obj_style_gen.h ****     return (int32_t)v.num;
 667              		.loc 2 468 26 is_stmt 0 view .LVU199
 668 00de 4822     		movs	r2, #72
 669 00e0 2946     		mov	r1, r5
 670 00e2 3846     		mov	r0, r7
 671 00e4 FFF7FEFF 		bl	lv_obj_get_style_prop
 672              	.LVL63:
 673 00e8 0190     		str	r0, [sp, #4]
 469:Drivers/lvgl/src/widgets/scale/../../core/lv_obj_style_gen.h **** }
 674              		.loc 2 469 5 is_stmt 1 view .LVU200
 675              	.LVL64:
 469:Drivers/lvgl/src/widgets/scale/../../core/lv_obj_style_gen.h **** }
 676              		.loc 2 469 5 is_stmt 0 view .LVU201
 677              	.LBE174:
 678              	.LBE173:
1491:Drivers/lvgl/src/widgets/scale/lv_scale.c ****     }
ARM GAS  /var/folders/qx/2_175_4n2s19vhvtspjhb3qh0000gn/T//ccmbJJmj.s 			page 56


 679              		.loc 1 1491 25 discriminator 1 view .LVU202
 680 00ea 2063     		str	r0, [r4, #48]
1493:Drivers/lvgl/src/widgets/scale/lv_scale.c **** 
 681              		.loc 1 1493 1 view .LVU203
 682 00ec B0E7     		b	.L34
 683              		.cfi_endproc
 684              	.LFE228:
 686              		.section	.text.scale_store_section_line_tick_width_compensation,"ax",%progbits
 687              		.align	1
 688              		.syntax unified
 689              		.thumb
 690              		.thumb_func
 692              	scale_store_section_line_tick_width_compensation:
 693              	.LVL65:
 694              	.LFB234:
1761:Drivers/lvgl/src/widgets/scale/lv_scale.c ****     lv_scale_t * scale = (lv_scale_t *) obj;
 695              		.loc 1 1761 1 is_stmt 1 view -0
 696              		.cfi_startproc
 697              		@ args = 12, pretend = 0, frame = 8
 698              		@ frame_needed = 0, uses_anonymous_args = 0
1761:Drivers/lvgl/src/widgets/scale/lv_scale.c ****     lv_scale_t * scale = (lv_scale_t *) obj;
 699              		.loc 1 1761 1 is_stmt 0 view .LVU205
 700 0000 2DE9F04F 		push	{r4, r5, r6, r7, r8, r9, r10, fp, lr}
 701              	.LCFI7:
 702              		.cfi_def_cfa_offset 36
 703              		.cfi_offset 4, -36
 704              		.cfi_offset 5, -32
 705              		.cfi_offset 6, -28
 706              		.cfi_offset 7, -24
 707              		.cfi_offset 8, -20
 708              		.cfi_offset 9, -16
 709              		.cfi_offset 10, -12
 710              		.cfi_offset 11, -8
 711              		.cfi_offset 14, -4
 712 0004 83B0     		sub	sp, sp, #12
 713              	.LCFI8:
 714              		.cfi_def_cfa_offset 48
 715 0006 8146     		mov	r9, r0
 716 0008 0191     		str	r1, [sp, #4]
 717 000a 9346     		mov	fp, r2
 718 000c 9A46     		mov	r10, r3
 719 000e 0C9E     		ldr	r6, [sp, #48]
 720 0010 9DF83450 		ldrb	r5, [sp, #52]	@ zero_extendqisi2
 721 0014 0E9F     		ldr	r7, [sp, #56]
1762:Drivers/lvgl/src/widgets/scale/lv_scale.c ****     lv_scale_section_t * section;
 722              		.loc 1 1762 5 is_stmt 1 view .LVU206
 723              	.LVL66:
1763:Drivers/lvgl/src/widgets/scale/lv_scale.c **** 
 724              		.loc 1 1763 5 view .LVU207
1765:Drivers/lvgl/src/widgets/scale/lv_scale.c ****         if(section->range_min <= tick_value && section->range_max >= tick_value) {
 725              		.loc 1 1765 5 view .LVU208
 726 0016 00F12C08 		add	r8, r0, #44
 727 001a 4046     		mov	r0, r8
 728              	.LVL67:
1765:Drivers/lvgl/src/widgets/scale/lv_scale.c ****         if(section->range_min <= tick_value && section->range_max >= tick_value) {
 729              		.loc 1 1765 5 is_stmt 0 view .LVU209
 730 001c FFF7FEFF 		bl	lv_ll_get_tail
ARM GAS  /var/folders/qx/2_175_4n2s19vhvtspjhb3qh0000gn/T//ccmbJJmj.s 			page 57


 731              	.LVL68:
1765:Drivers/lvgl/src/widgets/scale/lv_scale.c ****         if(section->range_min <= tick_value && section->range_max >= tick_value) {
 732              		.loc 1 1765 5 view .LVU210
 733 0020 0446     		mov	r4, r0
 734              	.LVL69:
1765:Drivers/lvgl/src/widgets/scale/lv_scale.c ****         if(section->range_min <= tick_value && section->range_max >= tick_value) {
 735              		.loc 1 1765 5 view .LVU211
 736 0022 11E0     		b	.L45
 737              	.LVL70:
 738              	.L47:
 739              	.LBB175:
1771:Drivers/lvgl/src/widgets/scale/lv_scale.c ****             }
 740              		.loc 1 1771 17 is_stmt 1 view .LVU212
 741 0024 4FF4A023 		mov	r3, #327680
 742 0028 A268     		ldr	r2, [r4, #8]
 743 002a 5146     		mov	r1, r10
 744 002c 4846     		mov	r0, r9
 745 002e FFF7FEFF 		bl	scale_set_line_properties
 746              	.LVL71:
 747              	.L46:
1775:Drivers/lvgl/src/widgets/scale/lv_scale.c **** 
 748              		.loc 1 1775 9 view .LVU213
1777:Drivers/lvgl/src/widgets/scale/lv_scale.c ****             if(section->first_tick_idx_is_major) {
 749              		.loc 1 1777 9 view .LVU214
1777:Drivers/lvgl/src/widgets/scale/lv_scale.c ****             if(section->first_tick_idx_is_major) {
 750              		.loc 1 1777 31 is_stmt 0 view .LVU215
 751 0032 6369     		ldr	r3, [r4, #20]
1777:Drivers/lvgl/src/widgets/scale/lv_scale.c ****             if(section->first_tick_idx_is_major) {
 752              		.loc 1 1777 11 view .LVU216
 753 0034 9D42     		cmp	r5, r3
 754 0036 1AD0     		beq	.L62
 755              	.LVL72:
 756              	.L48:
1801:Drivers/lvgl/src/widgets/scale/lv_scale.c ****             if(section->last_tick_idx_is_major) {
 757              		.loc 1 1801 9 is_stmt 1 view .LVU217
1801:Drivers/lvgl/src/widgets/scale/lv_scale.c ****             if(section->last_tick_idx_is_major) {
 758              		.loc 1 1801 31 is_stmt 0 view .LVU218
 759 0038 A369     		ldr	r3, [r4, #24]
1801:Drivers/lvgl/src/widgets/scale/lv_scale.c ****             if(section->last_tick_idx_is_major) {
 760              		.loc 1 1801 11 view .LVU219
 761 003a 9D42     		cmp	r5, r3
 762 003c 35D0     		beq	.L63
 763              	.L54:
1821:Drivers/lvgl/src/widgets/scale/lv_scale.c ****     }
 764              		.loc 1 1821 36 is_stmt 1 view .LVU220
 765              	.LBE175:
1765:Drivers/lvgl/src/widgets/scale/lv_scale.c ****         if(section->range_min <= tick_value && section->range_max >= tick_value) {
 766              		.loc 1 1765 5 discriminator 2 view .LVU221
 767 003e 2146     		mov	r1, r4
 768 0040 4046     		mov	r0, r8
 769 0042 FFF7FEFF 		bl	lv_ll_get_prev
 770              	.LVL73:
 771 0046 0446     		mov	r4, r0
 772              	.LVL74:
 773              	.L45:
1765:Drivers/lvgl/src/widgets/scale/lv_scale.c ****         if(section->range_min <= tick_value && section->range_max >= tick_value) {
 774              		.loc 1 1765 5 discriminator 1 view .LVU222
ARM GAS  /var/folders/qx/2_175_4n2s19vhvtspjhb3qh0000gn/T//ccmbJJmj.s 			page 58


 775 0048 002C     		cmp	r4, #0
 776 004a 4CD0     		beq	.L64
 777              	.LBB176:
1766:Drivers/lvgl/src/widgets/scale/lv_scale.c ****             if(is_major_tick) {
 778              		.loc 1 1766 9 view .LVU223
1766:Drivers/lvgl/src/widgets/scale/lv_scale.c ****             if(is_major_tick) {
 779              		.loc 1 1766 19 is_stmt 0 view .LVU224
 780 004c E368     		ldr	r3, [r4, #12]
1766:Drivers/lvgl/src/widgets/scale/lv_scale.c ****             if(is_major_tick) {
 781              		.loc 1 1766 11 view .LVU225
 782 004e B342     		cmp	r3, r6
 783 0050 EFDC     		bgt	.L46
1766:Drivers/lvgl/src/widgets/scale/lv_scale.c ****             if(is_major_tick) {
 784              		.loc 1 1766 55 discriminator 1 view .LVU226
 785 0052 2369     		ldr	r3, [r4, #16]
1766:Drivers/lvgl/src/widgets/scale/lv_scale.c ****             if(is_major_tick) {
 786              		.loc 1 1766 45 discriminator 1 view .LVU227
 787 0054 B342     		cmp	r3, r6
 788 0056 ECDB     		blt	.L46
1767:Drivers/lvgl/src/widgets/scale/lv_scale.c ****                 scale_set_line_properties(obj, major_tick_dsc, section->indicator_style, LV_PART_IN
 789              		.loc 1 1767 13 is_stmt 1 view .LVU228
1767:Drivers/lvgl/src/widgets/scale/lv_scale.c ****                 scale_set_line_properties(obj, major_tick_dsc, section->indicator_style, LV_PART_IN
 790              		.loc 1 1767 15 is_stmt 0 view .LVU229
 791 0058 019B     		ldr	r3, [sp, #4]
 792 005a 002B     		cmp	r3, #0
 793 005c E2D0     		beq	.L47
1768:Drivers/lvgl/src/widgets/scale/lv_scale.c ****             }
 794              		.loc 1 1768 17 is_stmt 1 view .LVU230
 795 005e 4FF40033 		mov	r3, #131072
 796 0062 6268     		ldr	r2, [r4, #4]
 797 0064 5946     		mov	r1, fp
 798 0066 4846     		mov	r0, r9
 799 0068 FFF7FEFF 		bl	scale_set_line_properties
 800              	.LVL75:
 801 006c E1E7     		b	.L46
 802              	.LVL76:
 803              	.L62:
1778:Drivers/lvgl/src/widgets/scale/lv_scale.c ****                 tmp_width = major_tick_dsc->width;
 804              		.loc 1 1778 13 view .LVU231
1778:Drivers/lvgl/src/widgets/scale/lv_scale.c ****                 tmp_width = major_tick_dsc->width;
 805              		.loc 1 1778 16 is_stmt 0 view .LVU232
 806 006e 94F83430 		ldrb	r3, [r4, #52]	@ zero_extendqisi2
1778:Drivers/lvgl/src/widgets/scale/lv_scale.c ****                 tmp_width = major_tick_dsc->width;
 807              		.loc 1 1778 15 view .LVU233
 808 0072 13F0010F 		tst	r3, #1
 809 0076 12D0     		beq	.L49
1779:Drivers/lvgl/src/widgets/scale/lv_scale.c ****             }
 810              		.loc 1 1779 17 is_stmt 1 view .LVU234
1779:Drivers/lvgl/src/widgets/scale/lv_scale.c ****             }
 811              		.loc 1 1779 27 is_stmt 0 view .LVU235
 812 0078 DBF83020 		ldr	r2, [fp, #48]
 813              	.LVL77:
 814              	.L50:
1785:Drivers/lvgl/src/widgets/scale/lv_scale.c ****             /* Add 1px as adjustment if tmp_width is odd */
 815              		.loc 1 1785 13 is_stmt 1 view .LVU236
1785:Drivers/lvgl/src/widgets/scale/lv_scale.c ****             /* Add 1px as adjustment if tmp_width is odd */
 816              		.loc 1 1785 44 is_stmt 0 view .LVU237
ARM GAS  /var/folders/qx/2_175_4n2s19vhvtspjhb3qh0000gn/T//ccmbJJmj.s 			page 59


 817 007c 04F12403 		add	r3, r4, #36
 818 0080 97E80300 		ldm	r7, {r0, r1}
 819 0084 83E80300 		stm	r3, {r0, r1}
1787:Drivers/lvgl/src/widgets/scale/lv_scale.c ****                 if(LV_SCALE_MODE_VERTICAL_LEFT == scale->mode || LV_SCALE_MODE_VERTICAL_RIGHT == sc
 820              		.loc 1 1787 13 is_stmt 1 view .LVU238
1787:Drivers/lvgl/src/widgets/scale/lv_scale.c ****                 if(LV_SCALE_MODE_VERTICAL_LEFT == scale->mode || LV_SCALE_MODE_VERTICAL_RIGHT == sc
 821              		.loc 1 1787 15 is_stmt 0 view .LVU239
 822 0088 12F0010F 		tst	r2, #1
 823 008c 0BD0     		beq	.L51
1788:Drivers/lvgl/src/widgets/scale/lv_scale.c ****                     tmp_width += 1;
 824              		.loc 1 1788 17 is_stmt 1 view .LVU240
1788:Drivers/lvgl/src/widgets/scale/lv_scale.c ****                     tmp_width += 1;
 825              		.loc 1 1788 56 is_stmt 0 view .LVU241
 826 008e 99F83C30 		ldrb	r3, [r9, #60]	@ zero_extendqisi2
1788:Drivers/lvgl/src/widgets/scale/lv_scale.c ****                     tmp_width += 1;
 827              		.loc 1 1788 19 view .LVU242
 828 0092 022B     		cmp	r3, #2
 829 0094 06D0     		beq	.L52
1788:Drivers/lvgl/src/widgets/scale/lv_scale.c ****                     tmp_width += 1;
 830              		.loc 1 1788 63 discriminator 1 view .LVU243
 831 0096 042B     		cmp	r3, #4
 832 0098 04D0     		beq	.L52
1792:Drivers/lvgl/src/widgets/scale/lv_scale.c ****                 }
 833              		.loc 1 1792 21 is_stmt 1 view .LVU244
1792:Drivers/lvgl/src/widgets/scale/lv_scale.c ****                 }
 834              		.loc 1 1792 31 is_stmt 0 view .LVU245
 835 009a 013A     		subs	r2, r2, #1
 836              	.LVL78:
1792:Drivers/lvgl/src/widgets/scale/lv_scale.c ****                 }
 837              		.loc 1 1792 31 view .LVU246
 838 009c 03E0     		b	.L51
 839              	.LVL79:
 840              	.L49:
1782:Drivers/lvgl/src/widgets/scale/lv_scale.c ****             }
 841              		.loc 1 1782 17 is_stmt 1 view .LVU247
1782:Drivers/lvgl/src/widgets/scale/lv_scale.c ****             }
 842              		.loc 1 1782 27 is_stmt 0 view .LVU248
 843 009e DAF83020 		ldr	r2, [r10, #48]
 844 00a2 EBE7     		b	.L50
 845              	.LVL80:
 846              	.L52:
1789:Drivers/lvgl/src/widgets/scale/lv_scale.c ****                 }
 847              		.loc 1 1789 21 is_stmt 1 view .LVU249
1789:Drivers/lvgl/src/widgets/scale/lv_scale.c ****                 }
 848              		.loc 1 1789 31 is_stmt 0 view .LVU250
 849 00a4 0132     		adds	r2, r2, #1
 850              	.LVL81:
 851              	.L51:
1795:Drivers/lvgl/src/widgets/scale/lv_scale.c ****         }
 852              		.loc 1 1795 13 is_stmt 1 view .LVU251
1795:Drivers/lvgl/src/widgets/scale/lv_scale.c ****         }
 853              		.loc 1 1795 50 is_stmt 0 view .LVU252
 854 00a6 E261     		str	r2, [r4, #28]
 855 00a8 C6E7     		b	.L48
 856              	.LVL82:
 857              	.L63:
1802:Drivers/lvgl/src/widgets/scale/lv_scale.c ****                 tmp_width = major_tick_dsc->width;
ARM GAS  /var/folders/qx/2_175_4n2s19vhvtspjhb3qh0000gn/T//ccmbJJmj.s 			page 60


 858              		.loc 1 1802 13 is_stmt 1 view .LVU253
1802:Drivers/lvgl/src/widgets/scale/lv_scale.c ****                 tmp_width = major_tick_dsc->width;
 859              		.loc 1 1802 16 is_stmt 0 view .LVU254
 860 00aa 94F83430 		ldrb	r3, [r4, #52]	@ zero_extendqisi2
1802:Drivers/lvgl/src/widgets/scale/lv_scale.c ****                 tmp_width = major_tick_dsc->width;
 861              		.loc 1 1802 15 view .LVU255
 862 00ae 13F0020F 		tst	r3, #2
 863 00b2 12D0     		beq	.L55
1803:Drivers/lvgl/src/widgets/scale/lv_scale.c ****             }
 864              		.loc 1 1803 17 is_stmt 1 view .LVU256
1803:Drivers/lvgl/src/widgets/scale/lv_scale.c ****             }
 865              		.loc 1 1803 27 is_stmt 0 view .LVU257
 866 00b4 DBF83020 		ldr	r2, [fp, #48]
 867              	.LVL83:
 868              	.L56:
1809:Drivers/lvgl/src/widgets/scale/lv_scale.c ****             /* Add 1px as adjustment if tmp_width is odd */
 869              		.loc 1 1809 13 is_stmt 1 view .LVU258
1809:Drivers/lvgl/src/widgets/scale/lv_scale.c ****             /* Add 1px as adjustment if tmp_width is odd */
 870              		.loc 1 1809 43 is_stmt 0 view .LVU259
 871 00b8 04F12C03 		add	r3, r4, #44
 872 00bc 97E80300 		ldm	r7, {r0, r1}
 873 00c0 83E80300 		stm	r3, {r0, r1}
1811:Drivers/lvgl/src/widgets/scale/lv_scale.c ****                 if(LV_SCALE_MODE_VERTICAL_LEFT == scale->mode || LV_SCALE_MODE_VERTICAL_RIGHT == sc
 874              		.loc 1 1811 13 is_stmt 1 view .LVU260
1811:Drivers/lvgl/src/widgets/scale/lv_scale.c ****                 if(LV_SCALE_MODE_VERTICAL_LEFT == scale->mode || LV_SCALE_MODE_VERTICAL_RIGHT == sc
 875              		.loc 1 1811 15 is_stmt 0 view .LVU261
 876 00c4 12F0010F 		tst	r2, #1
 877 00c8 0BD0     		beq	.L57
1812:Drivers/lvgl/src/widgets/scale/lv_scale.c ****                     tmp_width -= 1;
 878              		.loc 1 1812 17 is_stmt 1 view .LVU262
1812:Drivers/lvgl/src/widgets/scale/lv_scale.c ****                     tmp_width -= 1;
 879              		.loc 1 1812 56 is_stmt 0 view .LVU263
 880 00ca 99F83C30 		ldrb	r3, [r9, #60]	@ zero_extendqisi2
1812:Drivers/lvgl/src/widgets/scale/lv_scale.c ****                     tmp_width -= 1;
 881              		.loc 1 1812 19 view .LVU264
 882 00ce 022B     		cmp	r3, #2
 883 00d0 06D0     		beq	.L58
1812:Drivers/lvgl/src/widgets/scale/lv_scale.c ****                     tmp_width -= 1;
 884              		.loc 1 1812 63 discriminator 1 view .LVU265
 885 00d2 042B     		cmp	r3, #4
 886 00d4 04D0     		beq	.L58
1816:Drivers/lvgl/src/widgets/scale/lv_scale.c ****                 }
 887              		.loc 1 1816 21 is_stmt 1 view .LVU266
1816:Drivers/lvgl/src/widgets/scale/lv_scale.c ****                 }
 888              		.loc 1 1816 31 is_stmt 0 view .LVU267
 889 00d6 0132     		adds	r2, r2, #1
 890              	.LVL84:
1816:Drivers/lvgl/src/widgets/scale/lv_scale.c ****                 }
 891              		.loc 1 1816 31 view .LVU268
 892 00d8 03E0     		b	.L57
 893              	.LVL85:
 894              	.L55:
1806:Drivers/lvgl/src/widgets/scale/lv_scale.c ****             }
 895              		.loc 1 1806 17 is_stmt 1 view .LVU269
1806:Drivers/lvgl/src/widgets/scale/lv_scale.c ****             }
 896              		.loc 1 1806 27 is_stmt 0 view .LVU270
 897 00da DAF83020 		ldr	r2, [r10, #48]
ARM GAS  /var/folders/qx/2_175_4n2s19vhvtspjhb3qh0000gn/T//ccmbJJmj.s 			page 61


 898 00de EBE7     		b	.L56
 899              	.LVL86:
 900              	.L58:
1813:Drivers/lvgl/src/widgets/scale/lv_scale.c ****                 }
 901              		.loc 1 1813 21 is_stmt 1 view .LVU271
1813:Drivers/lvgl/src/widgets/scale/lv_scale.c ****                 }
 902              		.loc 1 1813 31 is_stmt 0 view .LVU272
 903 00e0 013A     		subs	r2, r2, #1
 904              	.LVL87:
 905              	.L57:
1819:Drivers/lvgl/src/widgets/scale/lv_scale.c ****         }
 906              		.loc 1 1819 13 is_stmt 1 view .LVU273
1819:Drivers/lvgl/src/widgets/scale/lv_scale.c ****         }
 907              		.loc 1 1819 49 is_stmt 0 view .LVU274
 908 00e2 2262     		str	r2, [r4, #32]
 909 00e4 ABE7     		b	.L54
 910              	.LVL88:
 911              	.L64:
1819:Drivers/lvgl/src/widgets/scale/lv_scale.c ****         }
 912              		.loc 1 1819 49 view .LVU275
 913              	.LBE176:
1823:Drivers/lvgl/src/widgets/scale/lv_scale.c **** 
 914              		.loc 1 1823 1 view .LVU276
 915 00e6 03B0     		add	sp, sp, #12
 916              	.LCFI9:
 917              		.cfi_def_cfa_offset 36
 918              		@ sp needed
 919 00e8 BDE8F08F 		pop	{r4, r5, r6, r7, r8, r9, r10, fp, pc}
1823:Drivers/lvgl/src/widgets/scale/lv_scale.c **** 
 920              		.loc 1 1823 1 view .LVU277
 921              		.cfi_endproc
 922              	.LFE234:
 924              		.section	.text.scale_set_indicator_label_properties,"ax",%progbits
 925              		.align	1
 926              		.syntax unified
 927              		.thumb
 928              		.thumb_func
 930              	scale_set_indicator_label_properties:
 931              	.LVL89:
 932              	.LFB230:
1575:Drivers/lvgl/src/widgets/scale/lv_scale.c ****     if(indicator_section_style) {
 933              		.loc 1 1575 1 is_stmt 1 view -0
 934              		.cfi_startproc
 935              		@ args = 0, pretend = 0, frame = 24
 936              		@ frame_needed = 0, uses_anonymous_args = 0
1575:Drivers/lvgl/src/widgets/scale/lv_scale.c ****     if(indicator_section_style) {
 937              		.loc 1 1575 1 is_stmt 0 view .LVU279
 938 0000 70B5     		push	{r4, r5, r6, lr}
 939              	.LCFI10:
 940              		.cfi_def_cfa_offset 16
 941              		.cfi_offset 4, -16
 942              		.cfi_offset 5, -12
 943              		.cfi_offset 6, -8
 944              		.cfi_offset 14, -4
 945 0002 86B0     		sub	sp, sp, #24
 946              	.LCFI11:
 947              		.cfi_def_cfa_offset 40
ARM GAS  /var/folders/qx/2_175_4n2s19vhvtspjhb3qh0000gn/T//ccmbJJmj.s 			page 62


 948 0004 0546     		mov	r5, r0
 949 0006 0C46     		mov	r4, r1
1576:Drivers/lvgl/src/widgets/scale/lv_scale.c ****         lv_style_value_t value;
 950              		.loc 1 1576 5 is_stmt 1 view .LVU280
1576:Drivers/lvgl/src/widgets/scale/lv_scale.c ****         lv_style_value_t value;
 951              		.loc 1 1576 7 is_stmt 0 view .LVU281
 952 0008 002A     		cmp	r2, #0
 953 000a 5FD0     		beq	.L66
 954 000c 1646     		mov	r6, r2
 955              	.LBB177:
1577:Drivers/lvgl/src/widgets/scale/lv_scale.c ****         lv_style_res_t res;
 956              		.loc 1 1577 9 is_stmt 1 view .LVU282
1578:Drivers/lvgl/src/widgets/scale/lv_scale.c **** 
 957              		.loc 1 1578 9 view .LVU283
1581:Drivers/lvgl/src/widgets/scale/lv_scale.c ****         if(res == LV_STYLE_RES_FOUND) {
 958              		.loc 1 1581 9 view .LVU284
1581:Drivers/lvgl/src/widgets/scale/lv_scale.c ****         if(res == LV_STYLE_RES_FOUND) {
 959              		.loc 1 1581 15 is_stmt 0 view .LVU285
 960 000e 6A46     		mov	r2, sp
 961              	.LVL90:
1581:Drivers/lvgl/src/widgets/scale/lv_scale.c ****         if(res == LV_STYLE_RES_FOUND) {
 962              		.loc 1 1581 15 view .LVU286
 963 0010 5821     		movs	r1, #88
 964              	.LVL91:
1581:Drivers/lvgl/src/widgets/scale/lv_scale.c ****         if(res == LV_STYLE_RES_FOUND) {
 965              		.loc 1 1581 15 view .LVU287
 966 0012 3046     		mov	r0, r6
 967              	.LVL92:
1581:Drivers/lvgl/src/widgets/scale/lv_scale.c ****         if(res == LV_STYLE_RES_FOUND) {
 968              		.loc 1 1581 15 view .LVU288
 969 0014 FFF7FEFF 		bl	lv_style_get_prop
 970              	.LVL93:
1582:Drivers/lvgl/src/widgets/scale/lv_scale.c ****             label_dsc->color = value.color;
 971              		.loc 1 1582 9 is_stmt 1 view .LVU289
1582:Drivers/lvgl/src/widgets/scale/lv_scale.c ****             label_dsc->color = value.color;
 972              		.loc 1 1582 11 is_stmt 0 view .LVU290
 973 0018 0128     		cmp	r0, #1
 974 001a 23D1     		bne	.L67
1583:Drivers/lvgl/src/widgets/scale/lv_scale.c ****         }
 975              		.loc 1 1583 13 is_stmt 1 view .LVU291
1583:Drivers/lvgl/src/widgets/scale/lv_scale.c ****         }
 976              		.loc 1 1583 30 is_stmt 0 view .LVU292
 977 001c 009B     		ldr	r3, [sp]
 978 001e A385     		strh	r3, [r4, #44]	@ movhi
 979 0020 1B0C     		lsrs	r3, r3, #16
 980 0022 84F82E30 		strb	r3, [r4, #46]
 981              	.LVL94:
 982              	.L68:
1590:Drivers/lvgl/src/widgets/scale/lv_scale.c ****         if(res == LV_STYLE_RES_FOUND) {
 983              		.loc 1 1590 9 is_stmt 1 view .LVU293
1590:Drivers/lvgl/src/widgets/scale/lv_scale.c ****         if(res == LV_STYLE_RES_FOUND) {
 984              		.loc 1 1590 15 is_stmt 0 view .LVU294
 985 0026 6A46     		mov	r2, sp
 986 0028 5921     		movs	r1, #89
 987 002a 3046     		mov	r0, r6
 988 002c FFF7FEFF 		bl	lv_style_get_prop
 989              	.LVL95:
ARM GAS  /var/folders/qx/2_175_4n2s19vhvtspjhb3qh0000gn/T//ccmbJJmj.s 			page 63


1591:Drivers/lvgl/src/widgets/scale/lv_scale.c ****             label_dsc->opa = (lv_opa_t)value.num;
 990              		.loc 1 1591 9 is_stmt 1 view .LVU295
1591:Drivers/lvgl/src/widgets/scale/lv_scale.c ****             label_dsc->opa = (lv_opa_t)value.num;
 991              		.loc 1 1591 11 is_stmt 0 view .LVU296
 992 0030 0128     		cmp	r0, #1
 993 0032 2FD1     		bne	.L69
1592:Drivers/lvgl/src/widgets/scale/lv_scale.c ****         }
 994              		.loc 1 1592 13 is_stmt 1 view .LVU297
1592:Drivers/lvgl/src/widgets/scale/lv_scale.c ****         }
 995              		.loc 1 1592 30 is_stmt 0 view .LVU298
 996 0034 9DF80030 		ldrb	r3, [sp]	@ zero_extendqisi2
1592:Drivers/lvgl/src/widgets/scale/lv_scale.c ****         }
 997              		.loc 1 1592 28 view .LVU299
 998 0038 84F85A30 		strb	r3, [r4, #90]
 999              	.LVL96:
 1000              	.L70:
1599:Drivers/lvgl/src/widgets/scale/lv_scale.c ****         if(res == LV_STYLE_RES_FOUND) {
 1001              		.loc 1 1599 9 is_stmt 1 view .LVU300
1599:Drivers/lvgl/src/widgets/scale/lv_scale.c ****         if(res == LV_STYLE_RES_FOUND) {
 1002              		.loc 1 1599 15 is_stmt 0 view .LVU301
 1003 003c 6A46     		mov	r2, sp
 1004 003e 5B21     		movs	r1, #91
 1005 0040 3046     		mov	r0, r6
 1006 0042 FFF7FEFF 		bl	lv_style_get_prop
 1007              	.LVL97:
1600:Drivers/lvgl/src/widgets/scale/lv_scale.c ****             label_dsc->letter_space = (int32_t)value.num;
 1008              		.loc 1 1600 9 is_stmt 1 view .LVU302
1600:Drivers/lvgl/src/widgets/scale/lv_scale.c ****             label_dsc->letter_space = (int32_t)value.num;
 1009              		.loc 1 1600 11 is_stmt 0 view .LVU303
 1010 0046 0128     		cmp	r0, #1
 1011 0048 2ED1     		bne	.L71
1601:Drivers/lvgl/src/widgets/scale/lv_scale.c ****         }
 1012              		.loc 1 1601 13 is_stmt 1 view .LVU304
1601:Drivers/lvgl/src/widgets/scale/lv_scale.c ****         }
 1013              		.loc 1 1601 53 is_stmt 0 view .LVU305
 1014 004a 009B     		ldr	r3, [sp]
1601:Drivers/lvgl/src/widgets/scale/lv_scale.c ****         }
 1015              		.loc 1 1601 37 view .LVU306
 1016 004c 6363     		str	r3, [r4, #52]
 1017              	.LVL98:
 1018              	.L72:
1608:Drivers/lvgl/src/widgets/scale/lv_scale.c ****         if(res == LV_STYLE_RES_FOUND) {
 1019              		.loc 1 1608 9 is_stmt 1 view .LVU307
1608:Drivers/lvgl/src/widgets/scale/lv_scale.c ****         if(res == LV_STYLE_RES_FOUND) {
 1020              		.loc 1 1608 15 is_stmt 0 view .LVU308
 1021 004e 6A46     		mov	r2, sp
 1022 0050 5A21     		movs	r1, #90
 1023 0052 3046     		mov	r0, r6
 1024 0054 FFF7FEFF 		bl	lv_style_get_prop
 1025              	.LVL99:
1609:Drivers/lvgl/src/widgets/scale/lv_scale.c ****             label_dsc->font = (const lv_font_t *)value.ptr;
 1026              		.loc 1 1609 9 is_stmt 1 view .LVU309
1609:Drivers/lvgl/src/widgets/scale/lv_scale.c ****             label_dsc->font = (const lv_font_t *)value.ptr;
 1027              		.loc 1 1609 11 is_stmt 0 view .LVU310
 1028 0058 0128     		cmp	r0, #1
 1029 005a 2ED1     		bne	.L73
1610:Drivers/lvgl/src/widgets/scale/lv_scale.c ****         }
ARM GAS  /var/folders/qx/2_175_4n2s19vhvtspjhb3qh0000gn/T//ccmbJJmj.s 			page 64


 1030              		.loc 1 1610 13 is_stmt 1 view .LVU311
1610:Drivers/lvgl/src/widgets/scale/lv_scale.c ****         }
 1031              		.loc 1 1610 55 is_stmt 0 view .LVU312
 1032 005c 009B     		ldr	r3, [sp]
1610:Drivers/lvgl/src/widgets/scale/lv_scale.c ****         }
 1033              		.loc 1 1610 29 view .LVU313
 1034 005e A362     		str	r3, [r4, #40]
 1035              	.LVL100:
 1036              	.L65:
1610:Drivers/lvgl/src/widgets/scale/lv_scale.c ****         }
 1037              		.loc 1 1610 29 view .LVU314
 1038              	.LBE177:
1623:Drivers/lvgl/src/widgets/scale/lv_scale.c **** 
 1039              		.loc 1 1623 1 view .LVU315
 1040 0060 06B0     		add	sp, sp, #24
 1041              	.LCFI12:
 1042              		.cfi_remember_state
 1043              		.cfi_def_cfa_offset 16
 1044              		@ sp needed
 1045 0062 70BD     		pop	{r4, r5, r6, pc}
 1046              	.LVL101:
 1047              	.L67:
 1048              	.LCFI13:
 1049              		.cfi_restore_state
 1050              	.LBB186:
1586:Drivers/lvgl/src/widgets/scale/lv_scale.c ****         }
 1051              		.loc 1 1586 13 is_stmt 1 view .LVU316
 1052              	.LBB178:
 1053              	.LBI178:
 506:Drivers/lvgl/src/widgets/scale/../../core/lv_obj_style_gen.h **** }
 507:Drivers/lvgl/src/widgets/scale/../../core/lv_obj_style_gen.h **** 
 508:Drivers/lvgl/src/widgets/scale/../../core/lv_obj_style_gen.h **** static inline int32_t lv_obj_get_style_arc_width(const lv_obj_t * obj, lv_part_t part)
 509:Drivers/lvgl/src/widgets/scale/../../core/lv_obj_style_gen.h **** {
 510:Drivers/lvgl/src/widgets/scale/../../core/lv_obj_style_gen.h ****     lv_style_value_t v = lv_obj_get_style_prop(obj, part, LV_STYLE_ARC_WIDTH);
 511:Drivers/lvgl/src/widgets/scale/../../core/lv_obj_style_gen.h ****     return (int32_t)v.num;
 512:Drivers/lvgl/src/widgets/scale/../../core/lv_obj_style_gen.h **** }
 513:Drivers/lvgl/src/widgets/scale/../../core/lv_obj_style_gen.h **** 
 514:Drivers/lvgl/src/widgets/scale/../../core/lv_obj_style_gen.h **** static inline bool lv_obj_get_style_arc_rounded(const lv_obj_t * obj, lv_part_t part)
 515:Drivers/lvgl/src/widgets/scale/../../core/lv_obj_style_gen.h **** {
 516:Drivers/lvgl/src/widgets/scale/../../core/lv_obj_style_gen.h ****     lv_style_value_t v = lv_obj_get_style_prop(obj, part, LV_STYLE_ARC_ROUNDED);
 517:Drivers/lvgl/src/widgets/scale/../../core/lv_obj_style_gen.h ****     return (bool)v.num;
 518:Drivers/lvgl/src/widgets/scale/../../core/lv_obj_style_gen.h **** }
 519:Drivers/lvgl/src/widgets/scale/../../core/lv_obj_style_gen.h **** 
 520:Drivers/lvgl/src/widgets/scale/../../core/lv_obj_style_gen.h **** static inline lv_color_t lv_obj_get_style_arc_color(const lv_obj_t * obj, lv_part_t part)
 521:Drivers/lvgl/src/widgets/scale/../../core/lv_obj_style_gen.h **** {
 522:Drivers/lvgl/src/widgets/scale/../../core/lv_obj_style_gen.h ****     lv_style_value_t v = lv_obj_get_style_prop(obj, part, LV_STYLE_ARC_COLOR);
 523:Drivers/lvgl/src/widgets/scale/../../core/lv_obj_style_gen.h ****     return v.color;
 524:Drivers/lvgl/src/widgets/scale/../../core/lv_obj_style_gen.h **** }
 525:Drivers/lvgl/src/widgets/scale/../../core/lv_obj_style_gen.h **** 
 526:Drivers/lvgl/src/widgets/scale/../../core/lv_obj_style_gen.h **** static inline lv_color_t lv_obj_get_style_arc_color_filtered(const lv_obj_t * obj, lv_part_t part)
 527:Drivers/lvgl/src/widgets/scale/../../core/lv_obj_style_gen.h **** {
 528:Drivers/lvgl/src/widgets/scale/../../core/lv_obj_style_gen.h ****     lv_style_value_t v = lv_obj_style_apply_color_filter(obj, part, lv_obj_get_style_prop(obj, part
 529:Drivers/lvgl/src/widgets/scale/../../core/lv_obj_style_gen.h ****     return v.color;
 530:Drivers/lvgl/src/widgets/scale/../../core/lv_obj_style_gen.h **** }
 531:Drivers/lvgl/src/widgets/scale/../../core/lv_obj_style_gen.h **** 
 532:Drivers/lvgl/src/widgets/scale/../../core/lv_obj_style_gen.h **** static inline lv_opa_t lv_obj_get_style_arc_opa(const lv_obj_t * obj, lv_part_t part)
 533:Drivers/lvgl/src/widgets/scale/../../core/lv_obj_style_gen.h **** {
ARM GAS  /var/folders/qx/2_175_4n2s19vhvtspjhb3qh0000gn/T//ccmbJJmj.s 			page 65


 534:Drivers/lvgl/src/widgets/scale/../../core/lv_obj_style_gen.h ****     lv_style_value_t v = lv_obj_get_style_prop(obj, part, LV_STYLE_ARC_OPA);
 535:Drivers/lvgl/src/widgets/scale/../../core/lv_obj_style_gen.h ****     return (lv_opa_t)v.num;
 536:Drivers/lvgl/src/widgets/scale/../../core/lv_obj_style_gen.h **** }
 537:Drivers/lvgl/src/widgets/scale/../../core/lv_obj_style_gen.h **** 
 538:Drivers/lvgl/src/widgets/scale/../../core/lv_obj_style_gen.h **** static inline const void * lv_obj_get_style_arc_image_src(const lv_obj_t * obj, lv_part_t part)
 539:Drivers/lvgl/src/widgets/scale/../../core/lv_obj_style_gen.h **** {
 540:Drivers/lvgl/src/widgets/scale/../../core/lv_obj_style_gen.h ****     lv_style_value_t v = lv_obj_get_style_prop(obj, part, LV_STYLE_ARC_IMAGE_SRC);
 541:Drivers/lvgl/src/widgets/scale/../../core/lv_obj_style_gen.h ****     return (const void *)v.ptr;
 542:Drivers/lvgl/src/widgets/scale/../../core/lv_obj_style_gen.h **** }
 543:Drivers/lvgl/src/widgets/scale/../../core/lv_obj_style_gen.h **** 
 544:Drivers/lvgl/src/widgets/scale/../../core/lv_obj_style_gen.h **** static inline lv_color_t lv_obj_get_style_text_color(const lv_obj_t * obj, lv_part_t part)
 1054              		.loc 2 544 26 view .LVU317
 1055              	.LBB179:
 545:Drivers/lvgl/src/widgets/scale/../../core/lv_obj_style_gen.h **** {
 546:Drivers/lvgl/src/widgets/scale/../../core/lv_obj_style_gen.h ****     lv_style_value_t v = lv_obj_get_style_prop(obj, part, LV_STYLE_TEXT_COLOR);
 1056              		.loc 2 546 5 view .LVU318
 1057              		.loc 2 546 26 is_stmt 0 view .LVU319
 1058 0064 5822     		movs	r2, #88
 1059 0066 4FF40031 		mov	r1, #131072
 1060 006a 2846     		mov	r0, r5
 1061              	.LVL102:
 1062              		.loc 2 546 26 view .LVU320
 1063 006c FFF7FEFF 		bl	lv_obj_get_style_prop
 1064              	.LVL103:
 1065 0070 0190     		str	r0, [sp, #4]
 547:Drivers/lvgl/src/widgets/scale/../../core/lv_obj_style_gen.h ****     return v.color;
 1066              		.loc 2 547 5 is_stmt 1 view .LVU321
 1067              		.loc 2 547 13 is_stmt 0 view .LVU322
 1068 0072 ADF80C00 		strh	r0, [sp, #12]	@ movhi
 1069 0076 030C     		lsrs	r3, r0, #16
 1070 0078 8DF80E30 		strb	r3, [sp, #14]
 1071 007c 039B     		ldr	r3, [sp, #12]
 1072 007e ADF80830 		strh	r3, [sp, #8]	@ movhi
 1073 0082 1B0C     		lsrs	r3, r3, #16
 1074 0084 8DF80A30 		strb	r3, [sp, #10]
 1075              	.LVL104:
 1076              		.loc 2 547 13 view .LVU323
 1077              	.LBE179:
 1078              	.LBE178:
1586:Drivers/lvgl/src/widgets/scale/lv_scale.c ****         }
 1079              		.loc 1 1586 32 view .LVU324
 1080 0088 029B     		ldr	r3, [sp, #8]
 1081 008a A385     		strh	r3, [r4, #44]	@ movhi
 1082 008c 1B0C     		lsrs	r3, r3, #16
 1083 008e 84F82E30 		strb	r3, [r4, #46]
 1084 0092 C8E7     		b	.L68
 1085              	.LVL105:
 1086              	.L69:
1595:Drivers/lvgl/src/widgets/scale/lv_scale.c ****         }
 1087              		.loc 1 1595 13 is_stmt 1 view .LVU325
 1088              	.LBB180:
 1089              	.LBI180:
 548:Drivers/lvgl/src/widgets/scale/../../core/lv_obj_style_gen.h **** }
 549:Drivers/lvgl/src/widgets/scale/../../core/lv_obj_style_gen.h **** 
 550:Drivers/lvgl/src/widgets/scale/../../core/lv_obj_style_gen.h **** static inline lv_color_t lv_obj_get_style_text_color_filtered(const lv_obj_t * obj, lv_part_t part)
 551:Drivers/lvgl/src/widgets/scale/../../core/lv_obj_style_gen.h **** {
 552:Drivers/lvgl/src/widgets/scale/../../core/lv_obj_style_gen.h ****     lv_style_value_t v = lv_obj_style_apply_color_filter(obj, part, lv_obj_get_style_prop(obj, part
ARM GAS  /var/folders/qx/2_175_4n2s19vhvtspjhb3qh0000gn/T//ccmbJJmj.s 			page 66


 553:Drivers/lvgl/src/widgets/scale/../../core/lv_obj_style_gen.h ****     return v.color;
 554:Drivers/lvgl/src/widgets/scale/../../core/lv_obj_style_gen.h **** }
 555:Drivers/lvgl/src/widgets/scale/../../core/lv_obj_style_gen.h **** 
 556:Drivers/lvgl/src/widgets/scale/../../core/lv_obj_style_gen.h **** static inline lv_opa_t lv_obj_get_style_text_opa(const lv_obj_t * obj, lv_part_t part)
 1090              		.loc 2 556 24 view .LVU326
 1091              	.LBB181:
 557:Drivers/lvgl/src/widgets/scale/../../core/lv_obj_style_gen.h **** {
 558:Drivers/lvgl/src/widgets/scale/../../core/lv_obj_style_gen.h ****     lv_style_value_t v = lv_obj_get_style_prop(obj, part, LV_STYLE_TEXT_OPA);
 1092              		.loc 2 558 5 view .LVU327
 1093              		.loc 2 558 26 is_stmt 0 view .LVU328
 1094 0094 5922     		movs	r2, #89
 1095 0096 4FF40031 		mov	r1, #131072
 1096 009a 2846     		mov	r0, r5
 1097              	.LVL106:
 1098              		.loc 2 558 26 view .LVU329
 1099 009c FFF7FEFF 		bl	lv_obj_get_style_prop
 1100              	.LVL107:
 1101 00a0 0190     		str	r0, [sp, #4]
 559:Drivers/lvgl/src/widgets/scale/../../core/lv_obj_style_gen.h ****     return (lv_opa_t)v.num;
 1102              		.loc 2 559 5 is_stmt 1 view .LVU330
 1103              	.LVL108:
 1104              		.loc 2 559 5 is_stmt 0 view .LVU331
 1105              	.LBE181:
 1106              	.LBE180:
1595:Drivers/lvgl/src/widgets/scale/lv_scale.c ****         }
 1107              		.loc 1 1595 28 discriminator 1 view .LVU332
 1108 00a2 84F85A00 		strb	r0, [r4, #90]
 1109 00a6 C9E7     		b	.L70
 1110              	.LVL109:
 1111              	.L71:
1604:Drivers/lvgl/src/widgets/scale/lv_scale.c ****         }
 1112              		.loc 1 1604 13 is_stmt 1 view .LVU333
 1113              	.LBB182:
 1114              	.LBI182:
 560:Drivers/lvgl/src/widgets/scale/../../core/lv_obj_style_gen.h **** }
 561:Drivers/lvgl/src/widgets/scale/../../core/lv_obj_style_gen.h **** 
 562:Drivers/lvgl/src/widgets/scale/../../core/lv_obj_style_gen.h **** static inline const lv_font_t * lv_obj_get_style_text_font(const lv_obj_t * obj, lv_part_t part)
 563:Drivers/lvgl/src/widgets/scale/../../core/lv_obj_style_gen.h **** {
 564:Drivers/lvgl/src/widgets/scale/../../core/lv_obj_style_gen.h ****     lv_style_value_t v = lv_obj_get_style_prop(obj, part, LV_STYLE_TEXT_FONT);
 565:Drivers/lvgl/src/widgets/scale/../../core/lv_obj_style_gen.h ****     return (const lv_font_t *)v.ptr;
 566:Drivers/lvgl/src/widgets/scale/../../core/lv_obj_style_gen.h **** }
 567:Drivers/lvgl/src/widgets/scale/../../core/lv_obj_style_gen.h **** 
 568:Drivers/lvgl/src/widgets/scale/../../core/lv_obj_style_gen.h **** static inline int32_t lv_obj_get_style_text_letter_space(const lv_obj_t * obj, lv_part_t part)
 1115              		.loc 2 568 23 view .LVU334
 1116              	.LBB183:
 569:Drivers/lvgl/src/widgets/scale/../../core/lv_obj_style_gen.h **** {
 570:Drivers/lvgl/src/widgets/scale/../../core/lv_obj_style_gen.h ****     lv_style_value_t v = lv_obj_get_style_prop(obj, part, LV_STYLE_TEXT_LETTER_SPACE);
 1117              		.loc 2 570 5 view .LVU335
 1118              		.loc 2 570 26 is_stmt 0 view .LVU336
 1119 00a8 5B22     		movs	r2, #91
 1120 00aa 4FF40031 		mov	r1, #131072
 1121 00ae 2846     		mov	r0, r5
 1122              	.LVL110:
 1123              		.loc 2 570 26 view .LVU337
 1124 00b0 FFF7FEFF 		bl	lv_obj_get_style_prop
 1125              	.LVL111:
 1126 00b4 0190     		str	r0, [sp, #4]
ARM GAS  /var/folders/qx/2_175_4n2s19vhvtspjhb3qh0000gn/T//ccmbJJmj.s 			page 67


 571:Drivers/lvgl/src/widgets/scale/../../core/lv_obj_style_gen.h ****     return (int32_t)v.num;
 1127              		.loc 2 571 5 is_stmt 1 view .LVU338
 1128              	.LVL112:
 1129              		.loc 2 571 5 is_stmt 0 view .LVU339
 1130              	.LBE183:
 1131              	.LBE182:
1604:Drivers/lvgl/src/widgets/scale/lv_scale.c ****         }
 1132              		.loc 1 1604 37 discriminator 1 view .LVU340
 1133 00b6 6063     		str	r0, [r4, #52]
 1134 00b8 C9E7     		b	.L72
 1135              	.LVL113:
 1136              	.L73:
1613:Drivers/lvgl/src/widgets/scale/lv_scale.c ****         }
 1137              		.loc 1 1613 13 is_stmt 1 view .LVU341
 1138              	.LBB184:
 1139              	.LBI184:
 562:Drivers/lvgl/src/widgets/scale/../../core/lv_obj_style_gen.h **** {
 1140              		.loc 2 562 33 view .LVU342
 1141              	.LBB185:
 564:Drivers/lvgl/src/widgets/scale/../../core/lv_obj_style_gen.h ****     return (const lv_font_t *)v.ptr;
 1142              		.loc 2 564 5 view .LVU343
 564:Drivers/lvgl/src/widgets/scale/../../core/lv_obj_style_gen.h ****     return (const lv_font_t *)v.ptr;
 1143              		.loc 2 564 26 is_stmt 0 view .LVU344
 1144 00ba 5A22     		movs	r2, #90
 1145 00bc 4FF40031 		mov	r1, #131072
 1146 00c0 2846     		mov	r0, r5
 1147              	.LVL114:
 564:Drivers/lvgl/src/widgets/scale/../../core/lv_obj_style_gen.h ****     return (const lv_font_t *)v.ptr;
 1148              		.loc 2 564 26 view .LVU345
 1149 00c2 FFF7FEFF 		bl	lv_obj_get_style_prop
 1150              	.LVL115:
 1151 00c6 0190     		str	r0, [sp, #4]
 565:Drivers/lvgl/src/widgets/scale/../../core/lv_obj_style_gen.h **** }
 1152              		.loc 2 565 5 is_stmt 1 view .LVU346
 1153              	.LVL116:
 565:Drivers/lvgl/src/widgets/scale/../../core/lv_obj_style_gen.h **** }
 1154              		.loc 2 565 5 is_stmt 0 view .LVU347
 1155              	.LBE185:
 1156              	.LBE184:
1613:Drivers/lvgl/src/widgets/scale/lv_scale.c ****         }
 1157              		.loc 1 1613 29 discriminator 1 view .LVU348
 1158 00c8 A062     		str	r0, [r4, #40]
 1159 00ca C9E7     		b	.L65
 1160              	.LVL117:
 1161              	.L66:
1613:Drivers/lvgl/src/widgets/scale/lv_scale.c ****         }
 1162              		.loc 1 1613 29 discriminator 1 view .LVU349
 1163              	.LBE186:
1618:Drivers/lvgl/src/widgets/scale/lv_scale.c ****         label_dsc->opa = lv_obj_get_style_text_opa(obj, LV_PART_INDICATOR);
 1164              		.loc 1 1618 9 is_stmt 1 view .LVU350
 1165              	.LBB187:
 1166              	.LBI187:
 544:Drivers/lvgl/src/widgets/scale/../../core/lv_obj_style_gen.h **** {
 1167              		.loc 2 544 26 view .LVU351
 1168              	.LBB188:
 546:Drivers/lvgl/src/widgets/scale/../../core/lv_obj_style_gen.h ****     return v.color;
 1169              		.loc 2 546 5 view .LVU352
ARM GAS  /var/folders/qx/2_175_4n2s19vhvtspjhb3qh0000gn/T//ccmbJJmj.s 			page 68


 546:Drivers/lvgl/src/widgets/scale/../../core/lv_obj_style_gen.h ****     return v.color;
 1170              		.loc 2 546 26 is_stmt 0 view .LVU353
 1171 00cc 5822     		movs	r2, #88
 1172              	.LVL118:
 546:Drivers/lvgl/src/widgets/scale/../../core/lv_obj_style_gen.h ****     return v.color;
 1173              		.loc 2 546 26 view .LVU354
 1174 00ce 4FF40031 		mov	r1, #131072
 1175              	.LVL119:
 546:Drivers/lvgl/src/widgets/scale/../../core/lv_obj_style_gen.h ****     return v.color;
 1176              		.loc 2 546 26 view .LVU355
 1177 00d2 FFF7FEFF 		bl	lv_obj_get_style_prop
 1178              	.LVL120:
 546:Drivers/lvgl/src/widgets/scale/../../core/lv_obj_style_gen.h ****     return v.color;
 1179              		.loc 2 546 26 view .LVU356
 1180 00d6 0190     		str	r0, [sp, #4]
 547:Drivers/lvgl/src/widgets/scale/../../core/lv_obj_style_gen.h **** }
 1181              		.loc 2 547 5 is_stmt 1 view .LVU357
 547:Drivers/lvgl/src/widgets/scale/../../core/lv_obj_style_gen.h **** }
 1182              		.loc 2 547 13 is_stmt 0 view .LVU358
 1183 00d8 ADF81400 		strh	r0, [sp, #20]	@ movhi
 1184 00dc 030C     		lsrs	r3, r0, #16
 1185 00de 8DF81630 		strb	r3, [sp, #22]
 1186 00e2 059B     		ldr	r3, [sp, #20]
 1187 00e4 ADF81030 		strh	r3, [sp, #16]	@ movhi
 1188 00e8 1B0C     		lsrs	r3, r3, #16
 1189 00ea 8DF81230 		strb	r3, [sp, #18]
 1190              	.LVL121:
 547:Drivers/lvgl/src/widgets/scale/../../core/lv_obj_style_gen.h **** }
 1191              		.loc 2 547 13 view .LVU359
 1192              	.LBE188:
 1193              	.LBE187:
1618:Drivers/lvgl/src/widgets/scale/lv_scale.c ****         label_dsc->opa = lv_obj_get_style_text_opa(obj, LV_PART_INDICATOR);
 1194              		.loc 1 1618 28 view .LVU360
 1195 00ee 049B     		ldr	r3, [sp, #16]
 1196 00f0 A385     		strh	r3, [r4, #44]	@ movhi
 1197 00f2 1B0C     		lsrs	r3, r3, #16
 1198 00f4 84F82E30 		strb	r3, [r4, #46]
1619:Drivers/lvgl/src/widgets/scale/lv_scale.c ****         label_dsc->letter_space = lv_obj_get_style_text_letter_space(obj, LV_PART_INDICATOR);
 1199              		.loc 1 1619 9 is_stmt 1 view .LVU361
 1200              	.LVL122:
 1201              	.LBB189:
 1202              	.LBI189:
 556:Drivers/lvgl/src/widgets/scale/../../core/lv_obj_style_gen.h **** {
 1203              		.loc 2 556 24 view .LVU362
 1204              	.LBB190:
 558:Drivers/lvgl/src/widgets/scale/../../core/lv_obj_style_gen.h ****     return (lv_opa_t)v.num;
 1205              		.loc 2 558 5 view .LVU363
 558:Drivers/lvgl/src/widgets/scale/../../core/lv_obj_style_gen.h ****     return (lv_opa_t)v.num;
 1206              		.loc 2 558 26 is_stmt 0 view .LVU364
 1207 00f8 5922     		movs	r2, #89
 1208 00fa 4FF40031 		mov	r1, #131072
 1209 00fe 2846     		mov	r0, r5
 1210 0100 FFF7FEFF 		bl	lv_obj_get_style_prop
 1211              	.LVL123:
 1212 0104 0190     		str	r0, [sp, #4]
 559:Drivers/lvgl/src/widgets/scale/../../core/lv_obj_style_gen.h **** }
 1213              		.loc 2 559 5 is_stmt 1 view .LVU365
ARM GAS  /var/folders/qx/2_175_4n2s19vhvtspjhb3qh0000gn/T//ccmbJJmj.s 			page 69


 1214              	.LVL124:
 559:Drivers/lvgl/src/widgets/scale/../../core/lv_obj_style_gen.h **** }
 1215              		.loc 2 559 5 is_stmt 0 view .LVU366
 1216              	.LBE190:
 1217              	.LBE189:
1619:Drivers/lvgl/src/widgets/scale/lv_scale.c ****         label_dsc->letter_space = lv_obj_get_style_text_letter_space(obj, LV_PART_INDICATOR);
 1218              		.loc 1 1619 24 discriminator 1 view .LVU367
 1219 0106 84F85A00 		strb	r0, [r4, #90]
1620:Drivers/lvgl/src/widgets/scale/lv_scale.c ****         label_dsc->font = lv_obj_get_style_text_font(obj, LV_PART_INDICATOR);
 1220              		.loc 1 1620 9 is_stmt 1 view .LVU368
 1221              	.LVL125:
 1222              	.LBB191:
 1223              	.LBI191:
 568:Drivers/lvgl/src/widgets/scale/../../core/lv_obj_style_gen.h **** {
 1224              		.loc 2 568 23 view .LVU369
 1225              	.LBB192:
 570:Drivers/lvgl/src/widgets/scale/../../core/lv_obj_style_gen.h ****     return (int32_t)v.num;
 1226              		.loc 2 570 5 view .LVU370
 570:Drivers/lvgl/src/widgets/scale/../../core/lv_obj_style_gen.h ****     return (int32_t)v.num;
 1227              		.loc 2 570 26 is_stmt 0 view .LVU371
 1228 010a 5B22     		movs	r2, #91
 1229 010c 4FF40031 		mov	r1, #131072
 1230 0110 2846     		mov	r0, r5
 1231 0112 FFF7FEFF 		bl	lv_obj_get_style_prop
 1232              	.LVL126:
 1233 0116 0190     		str	r0, [sp, #4]
 1234              		.loc 2 571 5 is_stmt 1 view .LVU372
 1235              	.LVL127:
 1236              		.loc 2 571 5 is_stmt 0 view .LVU373
 1237              	.LBE192:
 1238              	.LBE191:
1620:Drivers/lvgl/src/widgets/scale/lv_scale.c ****         label_dsc->font = lv_obj_get_style_text_font(obj, LV_PART_INDICATOR);
 1239              		.loc 1 1620 33 discriminator 1 view .LVU374
 1240 0118 6063     		str	r0, [r4, #52]
1621:Drivers/lvgl/src/widgets/scale/lv_scale.c ****     }
 1241              		.loc 1 1621 9 is_stmt 1 view .LVU375
 1242              	.LVL128:
 1243              	.LBB193:
 1244              	.LBI193:
 562:Drivers/lvgl/src/widgets/scale/../../core/lv_obj_style_gen.h **** {
 1245              		.loc 2 562 33 view .LVU376
 1246              	.LBB194:
 564:Drivers/lvgl/src/widgets/scale/../../core/lv_obj_style_gen.h ****     return (const lv_font_t *)v.ptr;
 1247              		.loc 2 564 5 view .LVU377
 564:Drivers/lvgl/src/widgets/scale/../../core/lv_obj_style_gen.h ****     return (const lv_font_t *)v.ptr;
 1248              		.loc 2 564 26 is_stmt 0 view .LVU378
 1249 011a 5A22     		movs	r2, #90
 1250 011c 4FF40031 		mov	r1, #131072
 1251 0120 2846     		mov	r0, r5
 1252 0122 FFF7FEFF 		bl	lv_obj_get_style_prop
 1253              	.LVL129:
 1254 0126 0190     		str	r0, [sp, #4]
 565:Drivers/lvgl/src/widgets/scale/../../core/lv_obj_style_gen.h **** }
 1255              		.loc 2 565 5 is_stmt 1 view .LVU379
 1256              	.LVL130:
 565:Drivers/lvgl/src/widgets/scale/../../core/lv_obj_style_gen.h **** }
 1257              		.loc 2 565 5 is_stmt 0 view .LVU380
ARM GAS  /var/folders/qx/2_175_4n2s19vhvtspjhb3qh0000gn/T//ccmbJJmj.s 			page 70


 1258              	.LBE194:
 1259              	.LBE193:
1621:Drivers/lvgl/src/widgets/scale/lv_scale.c ****     }
 1260              		.loc 1 1621 25 discriminator 1 view .LVU381
 1261 0128 A062     		str	r0, [r4, #40]
1623:Drivers/lvgl/src/widgets/scale/lv_scale.c **** 
 1262              		.loc 1 1623 1 view .LVU382
 1263 012a 99E7     		b	.L65
 1264              		.cfi_endproc
 1265              	.LFE230:
 1267              		.section	.text.scale_set_arc_properties,"ax",%progbits
 1268              		.align	1
 1269              		.syntax unified
 1270              		.thumb
 1271              		.thumb_func
 1273              	scale_set_arc_properties:
 1274              	.LVL131:
 1275              	.LFB229:
1505:Drivers/lvgl/src/widgets/scale/lv_scale.c ****     if(section_style) {
 1276              		.loc 1 1505 1 is_stmt 1 view -0
 1277              		.cfi_startproc
 1278              		@ args = 0, pretend = 0, frame = 24
 1279              		@ frame_needed = 0, uses_anonymous_args = 0
1505:Drivers/lvgl/src/widgets/scale/lv_scale.c ****     if(section_style) {
 1280              		.loc 1 1505 1 is_stmt 0 view .LVU384
 1281 0000 70B5     		push	{r4, r5, r6, lr}
 1282              	.LCFI14:
 1283              		.cfi_def_cfa_offset 16
 1284              		.cfi_offset 4, -16
 1285              		.cfi_offset 5, -12
 1286              		.cfi_offset 6, -8
 1287              		.cfi_offset 14, -4
 1288 0002 86B0     		sub	sp, sp, #24
 1289              	.LCFI15:
 1290              		.cfi_def_cfa_offset 40
 1291 0004 0546     		mov	r5, r0
 1292 0006 0C46     		mov	r4, r1
1506:Drivers/lvgl/src/widgets/scale/lv_scale.c ****         lv_style_value_t value;
 1293              		.loc 1 1506 5 is_stmt 1 view .LVU385
1506:Drivers/lvgl/src/widgets/scale/lv_scale.c ****         lv_style_value_t value;
 1294              		.loc 1 1506 7 is_stmt 0 view .LVU386
 1295 0008 002A     		cmp	r2, #0
 1296 000a 77D0     		beq	.L78
 1297 000c 1646     		mov	r6, r2
 1298              	.LBB195:
1507:Drivers/lvgl/src/widgets/scale/lv_scale.c ****         lv_style_res_t res;
 1299              		.loc 1 1507 9 is_stmt 1 view .LVU387
1508:Drivers/lvgl/src/widgets/scale/lv_scale.c **** 
 1300              		.loc 1 1508 9 view .LVU388
1511:Drivers/lvgl/src/widgets/scale/lv_scale.c ****         if(res == LV_STYLE_RES_FOUND) {
 1301              		.loc 1 1511 9 view .LVU389
1511:Drivers/lvgl/src/widgets/scale/lv_scale.c ****         if(res == LV_STYLE_RES_FOUND) {
 1302              		.loc 1 1511 15 is_stmt 0 view .LVU390
 1303 000e 6A46     		mov	r2, sp
 1304              	.LVL132:
1511:Drivers/lvgl/src/widgets/scale/lv_scale.c ****         if(res == LV_STYLE_RES_FOUND) {
 1305              		.loc 1 1511 15 view .LVU391
ARM GAS  /var/folders/qx/2_175_4n2s19vhvtspjhb3qh0000gn/T//ccmbJJmj.s 			page 71


 1306 0010 5021     		movs	r1, #80
 1307              	.LVL133:
1511:Drivers/lvgl/src/widgets/scale/lv_scale.c ****         if(res == LV_STYLE_RES_FOUND) {
 1308              		.loc 1 1511 15 view .LVU392
 1309 0012 3046     		mov	r0, r6
 1310              	.LVL134:
1511:Drivers/lvgl/src/widgets/scale/lv_scale.c ****         if(res == LV_STYLE_RES_FOUND) {
 1311              		.loc 1 1511 15 view .LVU393
 1312 0014 FFF7FEFF 		bl	lv_style_get_prop
 1313              	.LVL135:
1512:Drivers/lvgl/src/widgets/scale/lv_scale.c ****             arc_dsc->width = (int32_t)value.num;
 1314              		.loc 1 1512 9 is_stmt 1 view .LVU394
1512:Drivers/lvgl/src/widgets/scale/lv_scale.c ****             arc_dsc->width = (int32_t)value.num;
 1315              		.loc 1 1512 11 is_stmt 0 view .LVU395
 1316 0018 0128     		cmp	r0, #1
 1317 001a 30D1     		bne	.L79
1513:Drivers/lvgl/src/widgets/scale/lv_scale.c ****         }
 1318              		.loc 1 1513 13 is_stmt 1 view .LVU396
1513:Drivers/lvgl/src/widgets/scale/lv_scale.c ****         }
 1319              		.loc 1 1513 44 is_stmt 0 view .LVU397
 1320 001c 009B     		ldr	r3, [sp]
1513:Drivers/lvgl/src/widgets/scale/lv_scale.c ****         }
 1321              		.loc 1 1513 28 view .LVU398
 1322 001e 2362     		str	r3, [r4, #32]
 1323              	.LVL136:
 1324              	.L80:
1520:Drivers/lvgl/src/widgets/scale/lv_scale.c ****         if(res == LV_STYLE_RES_FOUND) {
 1325              		.loc 1 1520 9 is_stmt 1 view .LVU399
1520:Drivers/lvgl/src/widgets/scale/lv_scale.c ****         if(res == LV_STYLE_RES_FOUND) {
 1326              		.loc 1 1520 15 is_stmt 0 view .LVU400
 1327 0020 6A46     		mov	r2, sp
 1328 0022 5221     		movs	r1, #82
 1329 0024 3046     		mov	r0, r6
 1330 0026 FFF7FEFF 		bl	lv_style_get_prop
 1331              	.LVL137:
1521:Drivers/lvgl/src/widgets/scale/lv_scale.c ****             arc_dsc->color = value.color;
 1332              		.loc 1 1521 9 is_stmt 1 view .LVU401
1521:Drivers/lvgl/src/widgets/scale/lv_scale.c ****             arc_dsc->color = value.color;
 1333              		.loc 1 1521 11 is_stmt 0 view .LVU402
 1334 002a 0128     		cmp	r0, #1
 1335 002c 2FD1     		bne	.L81
1522:Drivers/lvgl/src/widgets/scale/lv_scale.c ****         }
 1336              		.loc 1 1522 13 is_stmt 1 view .LVU403
1522:Drivers/lvgl/src/widgets/scale/lv_scale.c ****         }
 1337              		.loc 1 1522 28 is_stmt 0 view .LVU404
 1338 002e 009B     		ldr	r3, [sp]
 1339 0030 A383     		strh	r3, [r4, #28]	@ movhi
 1340 0032 1B0C     		lsrs	r3, r3, #16
 1341 0034 A377     		strb	r3, [r4, #30]
 1342              	.LVL138:
 1343              	.L82:
1529:Drivers/lvgl/src/widgets/scale/lv_scale.c ****         if(res == LV_STYLE_RES_FOUND) {
 1344              		.loc 1 1529 9 is_stmt 1 view .LVU405
1529:Drivers/lvgl/src/widgets/scale/lv_scale.c ****         if(res == LV_STYLE_RES_FOUND) {
 1345              		.loc 1 1529 15 is_stmt 0 view .LVU406
 1346 0036 6A46     		mov	r2, sp
 1347 0038 5321     		movs	r1, #83
ARM GAS  /var/folders/qx/2_175_4n2s19vhvtspjhb3qh0000gn/T//ccmbJJmj.s 			page 72


 1348 003a 3046     		mov	r0, r6
 1349 003c FFF7FEFF 		bl	lv_style_get_prop
 1350              	.LVL139:
1530:Drivers/lvgl/src/widgets/scale/lv_scale.c ****             arc_dsc->opa = (lv_opa_t)value.num;
 1351              		.loc 1 1530 9 is_stmt 1 view .LVU407
1530:Drivers/lvgl/src/widgets/scale/lv_scale.c ****             arc_dsc->opa = (lv_opa_t)value.num;
 1352              		.loc 1 1530 11 is_stmt 0 view .LVU408
 1353 0040 0128     		cmp	r0, #1
 1354 0042 3AD1     		bne	.L83
1531:Drivers/lvgl/src/widgets/scale/lv_scale.c ****         }
 1355              		.loc 1 1531 13 is_stmt 1 view .LVU409
1531:Drivers/lvgl/src/widgets/scale/lv_scale.c ****         }
 1356              		.loc 1 1531 28 is_stmt 0 view .LVU410
 1357 0044 9DF80030 		ldrb	r3, [sp]	@ zero_extendqisi2
1531:Drivers/lvgl/src/widgets/scale/lv_scale.c ****         }
 1358              		.loc 1 1531 26 view .LVU411
 1359 0048 84F83A30 		strb	r3, [r4, #58]
 1360              	.LVL140:
 1361              	.L84:
1538:Drivers/lvgl/src/widgets/scale/lv_scale.c ****         if(res == LV_STYLE_RES_FOUND) {
 1362              		.loc 1 1538 9 is_stmt 1 view .LVU412
1538:Drivers/lvgl/src/widgets/scale/lv_scale.c ****         if(res == LV_STYLE_RES_FOUND) {
 1363              		.loc 1 1538 15 is_stmt 0 view .LVU413
 1364 004c 6A46     		mov	r2, sp
 1365 004e 5121     		movs	r1, #81
 1366 0050 3046     		mov	r0, r6
 1367 0052 FFF7FEFF 		bl	lv_style_get_prop
 1368              	.LVL141:
1539:Drivers/lvgl/src/widgets/scale/lv_scale.c ****             arc_dsc->rounded = (uint8_t)value.num;
 1369              		.loc 1 1539 9 is_stmt 1 view .LVU414
1539:Drivers/lvgl/src/widgets/scale/lv_scale.c ****             arc_dsc->rounded = (uint8_t)value.num;
 1370              		.loc 1 1539 11 is_stmt 0 view .LVU415
 1371 0056 0128     		cmp	r0, #1
 1372 0058 38D1     		bne	.L85
1540:Drivers/lvgl/src/widgets/scale/lv_scale.c ****         }
 1373              		.loc 1 1540 13 is_stmt 1 view .LVU416
1540:Drivers/lvgl/src/widgets/scale/lv_scale.c ****         }
 1374              		.loc 1 1540 30 is_stmt 0 view .LVU417
 1375 005a 94F83B30 		ldrb	r3, [r4, #59]	@ zero_extendqisi2
 1376 005e 009A     		ldr	r2, [sp]
 1377 0060 62F30003 		bfi	r3, r2, #0, #1
 1378 0064 84F83B30 		strb	r3, [r4, #59]
 1379              	.LVL142:
 1380              	.L86:
1547:Drivers/lvgl/src/widgets/scale/lv_scale.c ****         if(res == LV_STYLE_RES_FOUND) {
 1381              		.loc 1 1547 9 is_stmt 1 view .LVU418
1547:Drivers/lvgl/src/widgets/scale/lv_scale.c ****         if(res == LV_STYLE_RES_FOUND) {
 1382              		.loc 1 1547 15 is_stmt 0 view .LVU419
 1383 0068 6A46     		mov	r2, sp
 1384 006a 5421     		movs	r1, #84
 1385 006c 3046     		mov	r0, r6
 1386 006e FFF7FEFF 		bl	lv_style_get_prop
 1387              	.LVL143:
1548:Drivers/lvgl/src/widgets/scale/lv_scale.c ****             arc_dsc->img_src = (const void *)value.ptr;
 1388              		.loc 1 1548 9 is_stmt 1 view .LVU420
1548:Drivers/lvgl/src/widgets/scale/lv_scale.c ****             arc_dsc->img_src = (const void *)value.ptr;
 1389              		.loc 1 1548 11 is_stmt 0 view .LVU421
ARM GAS  /var/folders/qx/2_175_4n2s19vhvtspjhb3qh0000gn/T//ccmbJJmj.s 			page 73


 1390 0072 0128     		cmp	r0, #1
 1391 0074 3AD1     		bne	.L87
1549:Drivers/lvgl/src/widgets/scale/lv_scale.c ****         }
 1392              		.loc 1 1549 13 is_stmt 1 view .LVU422
1549:Drivers/lvgl/src/widgets/scale/lv_scale.c ****         }
 1393              		.loc 1 1549 32 is_stmt 0 view .LVU423
 1394 0076 009B     		ldr	r3, [sp]
1549:Drivers/lvgl/src/widgets/scale/lv_scale.c ****         }
 1395              		.loc 1 1549 30 view .LVU424
 1396 0078 6363     		str	r3, [r4, #52]
 1397              	.LVL144:
 1398              	.L77:
1549:Drivers/lvgl/src/widgets/scale/lv_scale.c ****         }
 1399              		.loc 1 1549 30 view .LVU425
 1400              	.LBE195:
1562:Drivers/lvgl/src/widgets/scale/lv_scale.c **** 
 1401              		.loc 1 1562 1 view .LVU426
 1402 007a 06B0     		add	sp, sp, #24
 1403              	.LCFI16:
 1404              		.cfi_remember_state
 1405              		.cfi_def_cfa_offset 16
 1406              		@ sp needed
 1407 007c 70BD     		pop	{r4, r5, r6, pc}
 1408              	.LVL145:
 1409              	.L79:
 1410              	.LCFI17:
 1411              		.cfi_restore_state
 1412              	.LBB206:
1516:Drivers/lvgl/src/widgets/scale/lv_scale.c ****         }
 1413              		.loc 1 1516 13 is_stmt 1 view .LVU427
 1414              	.LBB196:
 1415              	.LBI196:
 508:Drivers/lvgl/src/widgets/scale/../../core/lv_obj_style_gen.h **** {
 1416              		.loc 2 508 23 view .LVU428
 1417              	.LBB197:
 510:Drivers/lvgl/src/widgets/scale/../../core/lv_obj_style_gen.h ****     return (int32_t)v.num;
 1418              		.loc 2 510 5 view .LVU429
 510:Drivers/lvgl/src/widgets/scale/../../core/lv_obj_style_gen.h ****     return (int32_t)v.num;
 1419              		.loc 2 510 26 is_stmt 0 view .LVU430
 1420 007e 5022     		movs	r2, #80
 1421 0080 0021     		movs	r1, #0
 1422 0082 2846     		mov	r0, r5
 1423              	.LVL146:
 510:Drivers/lvgl/src/widgets/scale/../../core/lv_obj_style_gen.h ****     return (int32_t)v.num;
 1424              		.loc 2 510 26 view .LVU431
 1425 0084 FFF7FEFF 		bl	lv_obj_get_style_prop
 1426              	.LVL147:
 1427 0088 0190     		str	r0, [sp, #4]
 511:Drivers/lvgl/src/widgets/scale/../../core/lv_obj_style_gen.h **** }
 1428              		.loc 2 511 5 is_stmt 1 view .LVU432
 1429              	.LVL148:
 511:Drivers/lvgl/src/widgets/scale/../../core/lv_obj_style_gen.h **** }
 1430              		.loc 2 511 5 is_stmt 0 view .LVU433
 1431              	.LBE197:
 1432              	.LBE196:
1516:Drivers/lvgl/src/widgets/scale/lv_scale.c ****         }
 1433              		.loc 1 1516 28 discriminator 1 view .LVU434
ARM GAS  /var/folders/qx/2_175_4n2s19vhvtspjhb3qh0000gn/T//ccmbJJmj.s 			page 74


 1434 008a 2062     		str	r0, [r4, #32]
 1435 008c C8E7     		b	.L80
 1436              	.LVL149:
 1437              	.L81:
1525:Drivers/lvgl/src/widgets/scale/lv_scale.c ****         }
 1438              		.loc 1 1525 13 is_stmt 1 view .LVU435
 1439              	.LBB198:
 1440              	.LBI198:
 520:Drivers/lvgl/src/widgets/scale/../../core/lv_obj_style_gen.h **** {
 1441              		.loc 2 520 26 view .LVU436
 1442              	.LBB199:
 522:Drivers/lvgl/src/widgets/scale/../../core/lv_obj_style_gen.h ****     return v.color;
 1443              		.loc 2 522 5 view .LVU437
 522:Drivers/lvgl/src/widgets/scale/../../core/lv_obj_style_gen.h ****     return v.color;
 1444              		.loc 2 522 26 is_stmt 0 view .LVU438
 1445 008e 5222     		movs	r2, #82
 1446 0090 0021     		movs	r1, #0
 1447 0092 2846     		mov	r0, r5
 1448              	.LVL150:
 522:Drivers/lvgl/src/widgets/scale/../../core/lv_obj_style_gen.h ****     return v.color;
 1449              		.loc 2 522 26 view .LVU439
 1450 0094 FFF7FEFF 		bl	lv_obj_get_style_prop
 1451              	.LVL151:
 1452 0098 0190     		str	r0, [sp, #4]
 523:Drivers/lvgl/src/widgets/scale/../../core/lv_obj_style_gen.h **** }
 1453              		.loc 2 523 5 is_stmt 1 view .LVU440
 523:Drivers/lvgl/src/widgets/scale/../../core/lv_obj_style_gen.h **** }
 1454              		.loc 2 523 13 is_stmt 0 view .LVU441
 1455 009a ADF80C00 		strh	r0, [sp, #12]	@ movhi
 1456 009e 030C     		lsrs	r3, r0, #16
 1457 00a0 8DF80E30 		strb	r3, [sp, #14]
 1458 00a4 039B     		ldr	r3, [sp, #12]
 1459 00a6 ADF80830 		strh	r3, [sp, #8]	@ movhi
 1460 00aa 1B0C     		lsrs	r3, r3, #16
 1461 00ac 8DF80A30 		strb	r3, [sp, #10]
 1462              	.LVL152:
 523:Drivers/lvgl/src/widgets/scale/../../core/lv_obj_style_gen.h **** }
 1463              		.loc 2 523 13 view .LVU442
 1464              	.LBE199:
 1465              	.LBE198:
1525:Drivers/lvgl/src/widgets/scale/lv_scale.c ****         }
 1466              		.loc 1 1525 30 view .LVU443
 1467 00b0 029B     		ldr	r3, [sp, #8]
 1468 00b2 A383     		strh	r3, [r4, #28]	@ movhi
 1469 00b4 1B0C     		lsrs	r3, r3, #16
 1470 00b6 A377     		strb	r3, [r4, #30]
 1471 00b8 BDE7     		b	.L82
 1472              	.LVL153:
 1473              	.L83:
1534:Drivers/lvgl/src/widgets/scale/lv_scale.c ****         }
 1474              		.loc 1 1534 13 is_stmt 1 view .LVU444
 1475              	.LBB200:
 1476              	.LBI200:
 532:Drivers/lvgl/src/widgets/scale/../../core/lv_obj_style_gen.h **** {
 1477              		.loc 2 532 24 view .LVU445
 1478              	.LBB201:
 534:Drivers/lvgl/src/widgets/scale/../../core/lv_obj_style_gen.h ****     return (lv_opa_t)v.num;
ARM GAS  /var/folders/qx/2_175_4n2s19vhvtspjhb3qh0000gn/T//ccmbJJmj.s 			page 75


 1479              		.loc 2 534 5 view .LVU446
 534:Drivers/lvgl/src/widgets/scale/../../core/lv_obj_style_gen.h ****     return (lv_opa_t)v.num;
 1480              		.loc 2 534 26 is_stmt 0 view .LVU447
 1481 00ba 5322     		movs	r2, #83
 1482 00bc 0021     		movs	r1, #0
 1483 00be 2846     		mov	r0, r5
 1484              	.LVL154:
 534:Drivers/lvgl/src/widgets/scale/../../core/lv_obj_style_gen.h ****     return (lv_opa_t)v.num;
 1485              		.loc 2 534 26 view .LVU448
 1486 00c0 FFF7FEFF 		bl	lv_obj_get_style_prop
 1487              	.LVL155:
 1488 00c4 0190     		str	r0, [sp, #4]
 535:Drivers/lvgl/src/widgets/scale/../../core/lv_obj_style_gen.h **** }
 1489              		.loc 2 535 5 is_stmt 1 view .LVU449
 1490              	.LVL156:
 535:Drivers/lvgl/src/widgets/scale/../../core/lv_obj_style_gen.h **** }
 1491              		.loc 2 535 5 is_stmt 0 view .LVU450
 1492              	.LBE201:
 1493              	.LBE200:
1534:Drivers/lvgl/src/widgets/scale/lv_scale.c ****         }
 1494              		.loc 1 1534 26 discriminator 1 view .LVU451
 1495 00c6 84F83A00 		strb	r0, [r4, #58]
 1496 00ca BFE7     		b	.L84
 1497              	.LVL157:
 1498              	.L85:
1543:Drivers/lvgl/src/widgets/scale/lv_scale.c ****         }
 1499              		.loc 1 1543 13 is_stmt 1 view .LVU452
 1500              	.LBB202:
 1501              	.LBI202:
 514:Drivers/lvgl/src/widgets/scale/../../core/lv_obj_style_gen.h **** {
 1502              		.loc 2 514 20 view .LVU453
 1503              	.LBB203:
 516:Drivers/lvgl/src/widgets/scale/../../core/lv_obj_style_gen.h ****     return (bool)v.num;
 1504              		.loc 2 516 5 view .LVU454
 516:Drivers/lvgl/src/widgets/scale/../../core/lv_obj_style_gen.h ****     return (bool)v.num;
 1505              		.loc 2 516 26 is_stmt 0 view .LVU455
 1506 00cc 5122     		movs	r2, #81
 1507 00ce 0021     		movs	r1, #0
 1508 00d0 2846     		mov	r0, r5
 1509              	.LVL158:
 516:Drivers/lvgl/src/widgets/scale/../../core/lv_obj_style_gen.h ****     return (bool)v.num;
 1510              		.loc 2 516 26 view .LVU456
 1511 00d2 FFF7FEFF 		bl	lv_obj_get_style_prop
 1512              	.LVL159:
 1513 00d6 0190     		str	r0, [sp, #4]
 517:Drivers/lvgl/src/widgets/scale/../../core/lv_obj_style_gen.h **** }
 1514              		.loc 2 517 5 is_stmt 1 view .LVU457
 517:Drivers/lvgl/src/widgets/scale/../../core/lv_obj_style_gen.h **** }
 1515              		.loc 2 517 12 is_stmt 0 view .LVU458
 1516 00d8 0038     		subs	r0, r0, #0
 1517 00da 18BF     		it	ne
 1518 00dc 0120     		movne	r0, #1
 1519              	.LVL160:
 517:Drivers/lvgl/src/widgets/scale/../../core/lv_obj_style_gen.h **** }
 1520              		.loc 2 517 12 view .LVU459
 1521              	.LBE203:
 1522              	.LBE202:
ARM GAS  /var/folders/qx/2_175_4n2s19vhvtspjhb3qh0000gn/T//ccmbJJmj.s 			page 76


1543:Drivers/lvgl/src/widgets/scale/lv_scale.c ****         }
 1523              		.loc 1 1543 30 discriminator 1 view .LVU460
 1524 00de 94F83B30 		ldrb	r3, [r4, #59]	@ zero_extendqisi2
 1525 00e2 60F30003 		bfi	r3, r0, #0, #1
 1526 00e6 84F83B30 		strb	r3, [r4, #59]
 1527 00ea BDE7     		b	.L86
 1528              	.LVL161:
 1529              	.L87:
1552:Drivers/lvgl/src/widgets/scale/lv_scale.c ****         }
 1530              		.loc 1 1552 13 is_stmt 1 view .LVU461
 1531              	.LBB204:
 1532              	.LBI204:
 538:Drivers/lvgl/src/widgets/scale/../../core/lv_obj_style_gen.h **** {
 1533              		.loc 2 538 28 view .LVU462
 1534              	.LBB205:
 540:Drivers/lvgl/src/widgets/scale/../../core/lv_obj_style_gen.h ****     return (const void *)v.ptr;
 1535              		.loc 2 540 5 view .LVU463
 540:Drivers/lvgl/src/widgets/scale/../../core/lv_obj_style_gen.h ****     return (const void *)v.ptr;
 1536              		.loc 2 540 26 is_stmt 0 view .LVU464
 1537 00ec 5422     		movs	r2, #84
 1538 00ee 0021     		movs	r1, #0
 1539 00f0 2846     		mov	r0, r5
 1540              	.LVL162:
 540:Drivers/lvgl/src/widgets/scale/../../core/lv_obj_style_gen.h ****     return (const void *)v.ptr;
 1541              		.loc 2 540 26 view .LVU465
 1542 00f2 FFF7FEFF 		bl	lv_obj_get_style_prop
 1543              	.LVL163:
 1544 00f6 0190     		str	r0, [sp, #4]
 541:Drivers/lvgl/src/widgets/scale/../../core/lv_obj_style_gen.h **** }
 1545              		.loc 2 541 5 is_stmt 1 view .LVU466
 1546              	.LVL164:
 541:Drivers/lvgl/src/widgets/scale/../../core/lv_obj_style_gen.h **** }
 1547              		.loc 2 541 5 is_stmt 0 view .LVU467
 1548              	.LBE205:
 1549              	.LBE204:
1552:Drivers/lvgl/src/widgets/scale/lv_scale.c ****         }
 1550              		.loc 1 1552 30 discriminator 1 view .LVU468
 1551 00f8 6063     		str	r0, [r4, #52]
 1552 00fa BEE7     		b	.L77
 1553              	.LVL165:
 1554              	.L78:
1552:Drivers/lvgl/src/widgets/scale/lv_scale.c ****         }
 1555              		.loc 1 1552 30 discriminator 1 view .LVU469
 1556              	.LBE206:
1556:Drivers/lvgl/src/widgets/scale/lv_scale.c ****         arc_dsc->opa = lv_obj_get_style_arc_opa(obj, LV_PART_MAIN);
 1557              		.loc 1 1556 9 is_stmt 1 view .LVU470
 1558              	.LBB207:
 1559              	.LBI207:
 520:Drivers/lvgl/src/widgets/scale/../../core/lv_obj_style_gen.h **** {
 1560              		.loc 2 520 26 view .LVU471
 1561              	.LBB208:
 522:Drivers/lvgl/src/widgets/scale/../../core/lv_obj_style_gen.h ****     return v.color;
 1562              		.loc 2 522 5 view .LVU472
 522:Drivers/lvgl/src/widgets/scale/../../core/lv_obj_style_gen.h ****     return v.color;
 1563              		.loc 2 522 26 is_stmt 0 view .LVU473
 1564 00fc 5222     		movs	r2, #82
 1565              	.LVL166:
ARM GAS  /var/folders/qx/2_175_4n2s19vhvtspjhb3qh0000gn/T//ccmbJJmj.s 			page 77


 522:Drivers/lvgl/src/widgets/scale/../../core/lv_obj_style_gen.h ****     return v.color;
 1566              		.loc 2 522 26 view .LVU474
 1567 00fe 0021     		movs	r1, #0
 1568              	.LVL167:
 522:Drivers/lvgl/src/widgets/scale/../../core/lv_obj_style_gen.h ****     return v.color;
 1569              		.loc 2 522 26 view .LVU475
 1570 0100 FFF7FEFF 		bl	lv_obj_get_style_prop
 1571              	.LVL168:
 522:Drivers/lvgl/src/widgets/scale/../../core/lv_obj_style_gen.h ****     return v.color;
 1572              		.loc 2 522 26 view .LVU476
 1573 0104 0190     		str	r0, [sp, #4]
 523:Drivers/lvgl/src/widgets/scale/../../core/lv_obj_style_gen.h **** }
 1574              		.loc 2 523 5 is_stmt 1 view .LVU477
 523:Drivers/lvgl/src/widgets/scale/../../core/lv_obj_style_gen.h **** }
 1575              		.loc 2 523 13 is_stmt 0 view .LVU478
 1576 0106 ADF81400 		strh	r0, [sp, #20]	@ movhi
 1577 010a 030C     		lsrs	r3, r0, #16
 1578 010c 8DF81630 		strb	r3, [sp, #22]
 1579 0110 059B     		ldr	r3, [sp, #20]
 1580 0112 ADF81030 		strh	r3, [sp, #16]	@ movhi
 1581 0116 1B0C     		lsrs	r3, r3, #16
 1582 0118 8DF81230 		strb	r3, [sp, #18]
 1583              	.LVL169:
 523:Drivers/lvgl/src/widgets/scale/../../core/lv_obj_style_gen.h **** }
 1584              		.loc 2 523 13 view .LVU479
 1585              	.LBE208:
 1586              	.LBE207:
1556:Drivers/lvgl/src/widgets/scale/lv_scale.c ****         arc_dsc->opa = lv_obj_get_style_arc_opa(obj, LV_PART_MAIN);
 1587              		.loc 1 1556 26 view .LVU480
 1588 011c 049B     		ldr	r3, [sp, #16]
 1589 011e A383     		strh	r3, [r4, #28]	@ movhi
 1590 0120 1B0C     		lsrs	r3, r3, #16
 1591 0122 A377     		strb	r3, [r4, #30]
1557:Drivers/lvgl/src/widgets/scale/lv_scale.c ****         arc_dsc->width = lv_obj_get_style_arc_width(obj, LV_PART_MAIN);
 1592              		.loc 1 1557 9 is_stmt 1 view .LVU481
 1593              	.LVL170:
 1594              	.LBB209:
 1595              	.LBI209:
 532:Drivers/lvgl/src/widgets/scale/../../core/lv_obj_style_gen.h **** {
 1596              		.loc 2 532 24 view .LVU482
 1597              	.LBB210:
 534:Drivers/lvgl/src/widgets/scale/../../core/lv_obj_style_gen.h ****     return (lv_opa_t)v.num;
 1598              		.loc 2 534 5 view .LVU483
 534:Drivers/lvgl/src/widgets/scale/../../core/lv_obj_style_gen.h ****     return (lv_opa_t)v.num;
 1599              		.loc 2 534 26 is_stmt 0 view .LVU484
 1600 0124 5322     		movs	r2, #83
 1601 0126 0021     		movs	r1, #0
 1602 0128 2846     		mov	r0, r5
 1603 012a FFF7FEFF 		bl	lv_obj_get_style_prop
 1604              	.LVL171:
 1605 012e 0190     		str	r0, [sp, #4]
 535:Drivers/lvgl/src/widgets/scale/../../core/lv_obj_style_gen.h **** }
 1606              		.loc 2 535 5 is_stmt 1 view .LVU485
 1607              	.LVL172:
 535:Drivers/lvgl/src/widgets/scale/../../core/lv_obj_style_gen.h **** }
 1608              		.loc 2 535 5 is_stmt 0 view .LVU486
 1609              	.LBE210:
ARM GAS  /var/folders/qx/2_175_4n2s19vhvtspjhb3qh0000gn/T//ccmbJJmj.s 			page 78


 1610              	.LBE209:
1557:Drivers/lvgl/src/widgets/scale/lv_scale.c ****         arc_dsc->width = lv_obj_get_style_arc_width(obj, LV_PART_MAIN);
 1611              		.loc 1 1557 22 discriminator 1 view .LVU487
 1612 0130 84F83A00 		strb	r0, [r4, #58]
1558:Drivers/lvgl/src/widgets/scale/lv_scale.c ****         arc_dsc->rounded = lv_obj_get_style_arc_rounded(obj, LV_PART_MAIN);
 1613              		.loc 1 1558 9 is_stmt 1 view .LVU488
 1614              	.LVL173:
 1615              	.LBB211:
 1616              	.LBI211:
 508:Drivers/lvgl/src/widgets/scale/../../core/lv_obj_style_gen.h **** {
 1617              		.loc 2 508 23 view .LVU489
 1618              	.LBB212:
 510:Drivers/lvgl/src/widgets/scale/../../core/lv_obj_style_gen.h ****     return (int32_t)v.num;
 1619              		.loc 2 510 5 view .LVU490
 510:Drivers/lvgl/src/widgets/scale/../../core/lv_obj_style_gen.h ****     return (int32_t)v.num;
 1620              		.loc 2 510 26 is_stmt 0 view .LVU491
 1621 0134 5022     		movs	r2, #80
 1622 0136 0021     		movs	r1, #0
 1623 0138 2846     		mov	r0, r5
 1624 013a FFF7FEFF 		bl	lv_obj_get_style_prop
 1625              	.LVL174:
 1626 013e 0190     		str	r0, [sp, #4]
 511:Drivers/lvgl/src/widgets/scale/../../core/lv_obj_style_gen.h **** }
 1627              		.loc 2 511 5 is_stmt 1 view .LVU492
 1628              	.LVL175:
 511:Drivers/lvgl/src/widgets/scale/../../core/lv_obj_style_gen.h **** }
 1629              		.loc 2 511 5 is_stmt 0 view .LVU493
 1630              	.LBE212:
 1631              	.LBE211:
1558:Drivers/lvgl/src/widgets/scale/lv_scale.c ****         arc_dsc->rounded = lv_obj_get_style_arc_rounded(obj, LV_PART_MAIN);
 1632              		.loc 1 1558 24 discriminator 1 view .LVU494
 1633 0140 2062     		str	r0, [r4, #32]
1559:Drivers/lvgl/src/widgets/scale/lv_scale.c ****         arc_dsc->img_src = lv_obj_get_style_arc_image_src(obj, LV_PART_MAIN);
 1634              		.loc 1 1559 9 is_stmt 1 view .LVU495
 1635              	.LVL176:
 1636              	.LBB213:
 1637              	.LBI213:
 514:Drivers/lvgl/src/widgets/scale/../../core/lv_obj_style_gen.h **** {
 1638              		.loc 2 514 20 view .LVU496
 1639              	.LBB214:
 516:Drivers/lvgl/src/widgets/scale/../../core/lv_obj_style_gen.h ****     return (bool)v.num;
 1640              		.loc 2 516 5 view .LVU497
 516:Drivers/lvgl/src/widgets/scale/../../core/lv_obj_style_gen.h ****     return (bool)v.num;
 1641              		.loc 2 516 26 is_stmt 0 view .LVU498
 1642 0142 5122     		movs	r2, #81
 1643 0144 0021     		movs	r1, #0
 1644 0146 2846     		mov	r0, r5
 1645 0148 FFF7FEFF 		bl	lv_obj_get_style_prop
 1646              	.LVL177:
 1647 014c 0190     		str	r0, [sp, #4]
 517:Drivers/lvgl/src/widgets/scale/../../core/lv_obj_style_gen.h **** }
 1648              		.loc 2 517 5 is_stmt 1 view .LVU499
 517:Drivers/lvgl/src/widgets/scale/../../core/lv_obj_style_gen.h **** }
 1649              		.loc 2 517 12 is_stmt 0 view .LVU500
 1650 014e 0038     		subs	r0, r0, #0
 1651 0150 18BF     		it	ne
 1652 0152 0120     		movne	r0, #1
ARM GAS  /var/folders/qx/2_175_4n2s19vhvtspjhb3qh0000gn/T//ccmbJJmj.s 			page 79


 1653              	.LVL178:
 517:Drivers/lvgl/src/widgets/scale/../../core/lv_obj_style_gen.h **** }
 1654              		.loc 2 517 12 view .LVU501
 1655              	.LBE214:
 1656              	.LBE213:
1559:Drivers/lvgl/src/widgets/scale/lv_scale.c ****         arc_dsc->img_src = lv_obj_get_style_arc_image_src(obj, LV_PART_MAIN);
 1657              		.loc 1 1559 26 discriminator 1 view .LVU502
 1658 0154 94F83B30 		ldrb	r3, [r4, #59]	@ zero_extendqisi2
 1659 0158 60F30003 		bfi	r3, r0, #0, #1
 1660 015c 84F83B30 		strb	r3, [r4, #59]
1560:Drivers/lvgl/src/widgets/scale/lv_scale.c ****     }
 1661              		.loc 1 1560 9 is_stmt 1 view .LVU503
 1662              	.LVL179:
 1663              	.LBB215:
 1664              	.LBI215:
 538:Drivers/lvgl/src/widgets/scale/../../core/lv_obj_style_gen.h **** {
 1665              		.loc 2 538 28 view .LVU504
 1666              	.LBB216:
 540:Drivers/lvgl/src/widgets/scale/../../core/lv_obj_style_gen.h ****     return (const void *)v.ptr;
 1667              		.loc 2 540 5 view .LVU505
 540:Drivers/lvgl/src/widgets/scale/../../core/lv_obj_style_gen.h ****     return (const void *)v.ptr;
 1668              		.loc 2 540 26 is_stmt 0 view .LVU506
 1669 0160 5422     		movs	r2, #84
 1670 0162 0021     		movs	r1, #0
 1671 0164 2846     		mov	r0, r5
 1672 0166 FFF7FEFF 		bl	lv_obj_get_style_prop
 1673              	.LVL180:
 1674 016a 0190     		str	r0, [sp, #4]
 541:Drivers/lvgl/src/widgets/scale/../../core/lv_obj_style_gen.h **** }
 1675              		.loc 2 541 5 is_stmt 1 view .LVU507
 1676              	.LVL181:
 541:Drivers/lvgl/src/widgets/scale/../../core/lv_obj_style_gen.h **** }
 1677              		.loc 2 541 5 is_stmt 0 view .LVU508
 1678              	.LBE216:
 1679              	.LBE215:
1560:Drivers/lvgl/src/widgets/scale/lv_scale.c ****     }
 1680              		.loc 1 1560 26 discriminator 1 view .LVU509
 1681 016c 6063     		str	r0, [r4, #52]
1562:Drivers/lvgl/src/widgets/scale/lv_scale.c **** 
 1682              		.loc 1 1562 1 view .LVU510
 1683 016e 84E7     		b	.L77
 1684              		.cfi_endproc
 1685              	.LFE229:
 1687              		.section	.text.scale_get_center,"ax",%progbits
 1688              		.align	1
 1689              		.syntax unified
 1690              		.thumb
 1691              		.thumb_func
 1693              	scale_get_center:
 1694              	.LVL182:
 1695              	.LFB225:
1194:Drivers/lvgl/src/widgets/scale/lv_scale.c ****     int32_t left_bg = lv_obj_get_style_pad_left(obj, LV_PART_MAIN);
 1696              		.loc 1 1194 1 is_stmt 1 view -0
 1697              		.cfi_startproc
 1698              		@ args = 0, pretend = 0, frame = 8
 1699              		@ frame_needed = 0, uses_anonymous_args = 0
1194:Drivers/lvgl/src/widgets/scale/lv_scale.c ****     int32_t left_bg = lv_obj_get_style_pad_left(obj, LV_PART_MAIN);
ARM GAS  /var/folders/qx/2_175_4n2s19vhvtspjhb3qh0000gn/T//ccmbJJmj.s 			page 80


 1700              		.loc 1 1194 1 is_stmt 0 view .LVU512
 1701 0000 2DE9F04F 		push	{r4, r5, r6, r7, r8, r9, r10, fp, lr}
 1702              	.LCFI18:
 1703              		.cfi_def_cfa_offset 36
 1704              		.cfi_offset 4, -36
 1705              		.cfi_offset 5, -32
 1706              		.cfi_offset 6, -28
 1707              		.cfi_offset 7, -24
 1708              		.cfi_offset 8, -20
 1709              		.cfi_offset 9, -16
 1710              		.cfi_offset 10, -12
 1711              		.cfi_offset 11, -8
 1712              		.cfi_offset 14, -4
 1713 0004 83B0     		sub	sp, sp, #12
 1714              	.LCFI19:
 1715              		.cfi_def_cfa_offset 48
 1716 0006 0446     		mov	r4, r0
 1717 0008 0F46     		mov	r7, r1
 1718 000a 9046     		mov	r8, r2
1195:Drivers/lvgl/src/widgets/scale/lv_scale.c ****     int32_t right_bg = lv_obj_get_style_pad_right(obj, LV_PART_MAIN);
 1719              		.loc 1 1195 5 is_stmt 1 view .LVU513
 1720              	.LVL183:
 1721              	.LBB217:
 1722              	.LBI217:
 166:Drivers/lvgl/src/widgets/scale/../../core/lv_obj_style_gen.h **** {
 1723              		.loc 2 166 23 view .LVU514
 1724              	.LBB218:
 168:Drivers/lvgl/src/widgets/scale/../../core/lv_obj_style_gen.h ****     return (int32_t)v.num;
 1725              		.loc 2 168 5 view .LVU515
 168:Drivers/lvgl/src/widgets/scale/../../core/lv_obj_style_gen.h ****     return (int32_t)v.num;
 1726              		.loc 2 168 26 is_stmt 0 view .LVU516
 1727 000c 1222     		movs	r2, #18
 1728              	.LVL184:
 168:Drivers/lvgl/src/widgets/scale/../../core/lv_obj_style_gen.h ****     return (int32_t)v.num;
 1729              		.loc 2 168 26 view .LVU517
 1730 000e 0021     		movs	r1, #0
 1731              	.LVL185:
 168:Drivers/lvgl/src/widgets/scale/../../core/lv_obj_style_gen.h ****     return (int32_t)v.num;
 1732              		.loc 2 168 26 view .LVU518
 1733 0010 FFF7FEFF 		bl	lv_obj_get_style_prop
 1734              	.LVL186:
 168:Drivers/lvgl/src/widgets/scale/../../core/lv_obj_style_gen.h ****     return (int32_t)v.num;
 1735              		.loc 2 168 26 view .LVU519
 1736 0014 0646     		mov	r6, r0
 1737 0016 0190     		str	r0, [sp, #4]
 169:Drivers/lvgl/src/widgets/scale/../../core/lv_obj_style_gen.h **** }
 1738              		.loc 2 169 5 is_stmt 1 view .LVU520
 1739              	.LVL187:
 169:Drivers/lvgl/src/widgets/scale/../../core/lv_obj_style_gen.h **** }
 1740              		.loc 2 169 5 is_stmt 0 view .LVU521
 1741              	.LBE218:
 1742              	.LBE217:
1196:Drivers/lvgl/src/widgets/scale/lv_scale.c ****     int32_t top_bg = lv_obj_get_style_pad_top(obj, LV_PART_MAIN);
 1743              		.loc 1 1196 5 is_stmt 1 view .LVU522
 1744              	.LBB219:
 1745              	.LBI219:
 172:Drivers/lvgl/src/widgets/scale/../../core/lv_obj_style_gen.h **** {
ARM GAS  /var/folders/qx/2_175_4n2s19vhvtspjhb3qh0000gn/T//ccmbJJmj.s 			page 81


 1746              		.loc 2 172 23 view .LVU523
 1747              	.LBB220:
 174:Drivers/lvgl/src/widgets/scale/../../core/lv_obj_style_gen.h ****     return (int32_t)v.num;
 1748              		.loc 2 174 5 view .LVU524
 174:Drivers/lvgl/src/widgets/scale/../../core/lv_obj_style_gen.h ****     return (int32_t)v.num;
 1749              		.loc 2 174 26 is_stmt 0 view .LVU525
 1750 0018 1322     		movs	r2, #19
 1751 001a 0021     		movs	r1, #0
 1752 001c 2046     		mov	r0, r4
 1753              	.LVL188:
 174:Drivers/lvgl/src/widgets/scale/../../core/lv_obj_style_gen.h ****     return (int32_t)v.num;
 1754              		.loc 2 174 26 view .LVU526
 1755 001e FFF7FEFF 		bl	lv_obj_get_style_prop
 1756              	.LVL189:
 1757 0022 8246     		mov	r10, r0
 1758 0024 0190     		str	r0, [sp, #4]
 175:Drivers/lvgl/src/widgets/scale/../../core/lv_obj_style_gen.h **** }
 1759              		.loc 2 175 5 is_stmt 1 view .LVU527
 1760              	.LVL190:
 175:Drivers/lvgl/src/widgets/scale/../../core/lv_obj_style_gen.h **** }
 1761              		.loc 2 175 5 is_stmt 0 view .LVU528
 1762              	.LBE220:
 1763              	.LBE219:
1197:Drivers/lvgl/src/widgets/scale/lv_scale.c ****     int32_t bottom_bg = lv_obj_get_style_pad_bottom(obj, LV_PART_MAIN);
 1764              		.loc 1 1197 5 is_stmt 1 view .LVU529
 1765              	.LBB221:
 1766              	.LBI221:
 154:Drivers/lvgl/src/widgets/scale/../../core/lv_obj_style_gen.h **** {
 1767              		.loc 2 154 23 view .LVU530
 1768              	.LBB222:
 156:Drivers/lvgl/src/widgets/scale/../../core/lv_obj_style_gen.h ****     return (int32_t)v.num;
 1769              		.loc 2 156 5 view .LVU531
 156:Drivers/lvgl/src/widgets/scale/../../core/lv_obj_style_gen.h ****     return (int32_t)v.num;
 1770              		.loc 2 156 26 is_stmt 0 view .LVU532
 1771 0026 1022     		movs	r2, #16
 1772 0028 0021     		movs	r1, #0
 1773 002a 2046     		mov	r0, r4
 1774              	.LVL191:
 156:Drivers/lvgl/src/widgets/scale/../../core/lv_obj_style_gen.h ****     return (int32_t)v.num;
 1775              		.loc 2 156 26 view .LVU533
 1776 002c FFF7FEFF 		bl	lv_obj_get_style_prop
 1777              	.LVL192:
 1778 0030 0546     		mov	r5, r0
 1779 0032 0190     		str	r0, [sp, #4]
 157:Drivers/lvgl/src/widgets/scale/../../core/lv_obj_style_gen.h **** }
 1780              		.loc 2 157 5 is_stmt 1 view .LVU534
 1781              	.LVL193:
 157:Drivers/lvgl/src/widgets/scale/../../core/lv_obj_style_gen.h **** }
 1782              		.loc 2 157 5 is_stmt 0 view .LVU535
 1783              	.LBE222:
 1784              	.LBE221:
1198:Drivers/lvgl/src/widgets/scale/lv_scale.c **** 
 1785              		.loc 1 1198 5 is_stmt 1 view .LVU536
 1786              	.LBB223:
 1787              	.LBI223:
 160:Drivers/lvgl/src/widgets/scale/../../core/lv_obj_style_gen.h **** {
 1788              		.loc 2 160 23 view .LVU537
ARM GAS  /var/folders/qx/2_175_4n2s19vhvtspjhb3qh0000gn/T//ccmbJJmj.s 			page 82


 1789              	.LBB224:
 162:Drivers/lvgl/src/widgets/scale/../../core/lv_obj_style_gen.h ****     return (int32_t)v.num;
 1790              		.loc 2 162 5 view .LVU538
 162:Drivers/lvgl/src/widgets/scale/../../core/lv_obj_style_gen.h ****     return (int32_t)v.num;
 1791              		.loc 2 162 26 is_stmt 0 view .LVU539
 1792 0034 1122     		movs	r2, #17
 1793 0036 0021     		movs	r1, #0
 1794 0038 2046     		mov	r0, r4
 1795              	.LVL194:
 162:Drivers/lvgl/src/widgets/scale/../../core/lv_obj_style_gen.h ****     return (int32_t)v.num;
 1796              		.loc 2 162 26 view .LVU540
 1797 003a FFF7FEFF 		bl	lv_obj_get_style_prop
 1798              	.LVL195:
 1799 003e 8146     		mov	r9, r0
 1800 0040 0190     		str	r0, [sp, #4]
 163:Drivers/lvgl/src/widgets/scale/../../core/lv_obj_style_gen.h **** }
 1801              		.loc 2 163 5 is_stmt 1 view .LVU541
 1802              	.LVL196:
 163:Drivers/lvgl/src/widgets/scale/../../core/lv_obj_style_gen.h **** }
 1803              		.loc 2 163 5 is_stmt 0 view .LVU542
 1804              	.LBE224:
 1805              	.LBE223:
1200:Drivers/lvgl/src/widgets/scale/lv_scale.c **** 
 1806              		.loc 1 1200 5 is_stmt 1 view .LVU543
1200:Drivers/lvgl/src/widgets/scale/lv_scale.c **** 
 1807              		.loc 1 1200 18 is_stmt 0 view .LVU544
 1808 0042 2046     		mov	r0, r4
 1809              	.LVL197:
1200:Drivers/lvgl/src/widgets/scale/lv_scale.c **** 
 1810              		.loc 1 1200 18 view .LVU545
 1811 0044 FFF7FEFF 		bl	lv_obj_get_width
 1812              	.LVL198:
1200:Drivers/lvgl/src/widgets/scale/lv_scale.c **** 
 1813              		.loc 1 1200 18 discriminator 1 view .LVU546
 1814 0048 A0EB060B 		sub	fp, r0, r6
 1815 004c ABEB0A0B 		sub	fp, fp, r10
 1816 0050 2046     		mov	r0, r4
 1817 0052 FFF7FEFF 		bl	lv_obj_get_height
 1818              	.LVL199:
1200:Drivers/lvgl/src/widgets/scale/lv_scale.c **** 
 1819              		.loc 1 1200 18 discriminator 2 view .LVU547
 1820 0056 401B     		subs	r0, r0, r5
 1821 0058 A0EB0900 		sub	r0, r0, r9
1200:Drivers/lvgl/src/widgets/scale/lv_scale.c **** 
 1822              		.loc 1 1200 115 discriminator 2 view .LVU548
 1823 005c 8345     		cmp	fp, r0
 1824 005e 18DA     		bge	.L92
1200:Drivers/lvgl/src/widgets/scale/lv_scale.c **** 
 1825              		.loc 1 1200 18 discriminator 1 view .LVU549
 1826 0060 2046     		mov	r0, r4
 1827 0062 FFF7FEFF 		bl	lv_obj_get_width
 1828              	.LVL200:
 1829 0066 831B     		subs	r3, r0, r6
 1830 0068 A3EB0A03 		sub	r3, r3, r10
1200:Drivers/lvgl/src/widgets/scale/lv_scale.c **** 
 1831              		.loc 1 1200 115 discriminator 1 view .LVU550
 1832 006c 03EBD373 		add	r3, r3, r3, lsr #31
ARM GAS  /var/folders/qx/2_175_4n2s19vhvtspjhb3qh0000gn/T//ccmbJJmj.s 			page 83


 1833 0070 5B10     		asrs	r3, r3, #1
 1834              	.L93:
 1835              	.LVL201:
1202:Drivers/lvgl/src/widgets/scale/lv_scale.c ****     center->y = obj->coords.y1 + r + top_bg;
 1836              		.loc 1 1202 5 is_stmt 1 view .LVU551
1202:Drivers/lvgl/src/widgets/scale/lv_scale.c ****     center->y = obj->coords.y1 + r + top_bg;
 1837              		.loc 1 1202 28 is_stmt 0 view .LVU552
 1838 0072 6269     		ldr	r2, [r4, #20]
1202:Drivers/lvgl/src/widgets/scale/lv_scale.c ****     center->y = obj->coords.y1 + r + top_bg;
 1839              		.loc 1 1202 32 view .LVU553
 1840 0074 1A44     		add	r2, r2, r3
1202:Drivers/lvgl/src/widgets/scale/lv_scale.c ****     center->y = obj->coords.y1 + r + top_bg;
 1841              		.loc 1 1202 36 view .LVU554
 1842 0076 3244     		add	r2, r2, r6
1202:Drivers/lvgl/src/widgets/scale/lv_scale.c ****     center->y = obj->coords.y1 + r + top_bg;
 1843              		.loc 1 1202 15 view .LVU555
 1844 0078 3A60     		str	r2, [r7]
1203:Drivers/lvgl/src/widgets/scale/lv_scale.c **** 
 1845              		.loc 1 1203 5 is_stmt 1 view .LVU556
1203:Drivers/lvgl/src/widgets/scale/lv_scale.c **** 
 1846              		.loc 1 1203 28 is_stmt 0 view .LVU557
 1847 007a A269     		ldr	r2, [r4, #24]
1203:Drivers/lvgl/src/widgets/scale/lv_scale.c **** 
 1848              		.loc 1 1203 32 view .LVU558
 1849 007c 1A44     		add	r2, r2, r3
1203:Drivers/lvgl/src/widgets/scale/lv_scale.c **** 
 1850              		.loc 1 1203 36 view .LVU559
 1851 007e 2A44     		add	r2, r2, r5
1203:Drivers/lvgl/src/widgets/scale/lv_scale.c **** 
 1852              		.loc 1 1203 15 view .LVU560
 1853 0080 7A60     		str	r2, [r7, #4]
1205:Drivers/lvgl/src/widgets/scale/lv_scale.c **** }
 1854              		.loc 1 1205 5 is_stmt 1 view .LVU561
1205:Drivers/lvgl/src/widgets/scale/lv_scale.c **** }
 1855              		.loc 1 1205 7 is_stmt 0 view .LVU562
 1856 0082 B8F1000F 		cmp	r8, #0
 1857 0086 01D0     		beq	.L91
1205:Drivers/lvgl/src/widgets/scale/lv_scale.c **** }
 1858              		.loc 1 1205 15 is_stmt 1 discriminator 1 view .LVU563
1205:Drivers/lvgl/src/widgets/scale/lv_scale.c **** }
 1859              		.loc 1 1205 22 is_stmt 0 discriminator 1 view .LVU564
 1860 0088 C8F80030 		str	r3, [r8]
 1861              	.L91:
1206:Drivers/lvgl/src/widgets/scale/lv_scale.c **** 
 1862              		.loc 1 1206 1 view .LVU565
 1863 008c 03B0     		add	sp, sp, #12
 1864              	.LCFI20:
 1865              		.cfi_remember_state
 1866              		.cfi_def_cfa_offset 36
 1867              		@ sp needed
 1868 008e BDE8F08F 		pop	{r4, r5, r6, r7, r8, r9, r10, fp, pc}
 1869              	.LVL202:
 1870              	.L92:
 1871              	.LCFI21:
 1872              		.cfi_restore_state
1200:Drivers/lvgl/src/widgets/scale/lv_scale.c **** 
 1873              		.loc 1 1200 18 discriminator 2 view .LVU566
ARM GAS  /var/folders/qx/2_175_4n2s19vhvtspjhb3qh0000gn/T//ccmbJJmj.s 			page 84


 1874 0092 2046     		mov	r0, r4
 1875 0094 FFF7FEFF 		bl	lv_obj_get_height
 1876              	.LVL203:
1200:Drivers/lvgl/src/widgets/scale/lv_scale.c **** 
 1877              		.loc 1 1200 18 discriminator 1 view .LVU567
 1878 0098 431B     		subs	r3, r0, r5
 1879 009a A3EB0903 		sub	r3, r3, r9
1200:Drivers/lvgl/src/widgets/scale/lv_scale.c **** 
 1880              		.loc 1 1200 115 discriminator 1 view .LVU568
 1881 009e 03EBD373 		add	r3, r3, r3, lsr #31
 1882 00a2 5B10     		asrs	r3, r3, #1
 1883 00a4 E5E7     		b	.L93
 1884              		.cfi_endproc
 1885              	.LFE225:
 1887              		.section	.text.scale_get_tick_points,"ax",%progbits
 1888              		.align	1
 1889              		.syntax unified
 1890              		.thumb
 1891              		.thumb_func
 1893              	scale_get_tick_points:
 1894              	.LVL204:
 1895              	.LFB226:
1221:Drivers/lvgl/src/widgets/scale/lv_scale.c ****     lv_scale_t * scale = (lv_scale_t *)obj;
 1896              		.loc 1 1221 1 is_stmt 1 view -0
 1897              		.cfi_startproc
 1898              		@ args = 4, pretend = 0, frame = 120
 1899              		@ frame_needed = 0, uses_anonymous_args = 0
1221:Drivers/lvgl/src/widgets/scale/lv_scale.c ****     lv_scale_t * scale = (lv_scale_t *)obj;
 1900              		.loc 1 1221 1 is_stmt 0 view .LVU570
 1901 0000 2DE9F04F 		push	{r4, r5, r6, r7, r8, r9, r10, fp, lr}
 1902              	.LCFI22:
 1903              		.cfi_def_cfa_offset 36
 1904              		.cfi_offset 4, -36
 1905              		.cfi_offset 5, -32
 1906              		.cfi_offset 6, -28
 1907              		.cfi_offset 7, -24
 1908              		.cfi_offset 8, -20
 1909              		.cfi_offset 9, -16
 1910              		.cfi_offset 10, -12
 1911              		.cfi_offset 11, -8
 1912              		.cfi_offset 14, -4
 1913 0004 A1B0     		sub	sp, sp, #132
 1914              	.LCFI23:
 1915              		.cfi_def_cfa_offset 168
 1916 0006 0446     		mov	r4, r0
 1917 0008 0F46     		mov	r7, r1
 1918 000a 9146     		mov	r9, r2
 1919 000c 1E46     		mov	r6, r3
1222:Drivers/lvgl/src/widgets/scale/lv_scale.c **** 
 1920              		.loc 1 1222 5 is_stmt 1 view .LVU571
 1921              	.LVL205:
1225:Drivers/lvgl/src/widgets/scale/lv_scale.c ****     lv_draw_line_dsc_init(&main_line_dsc);
 1922              		.loc 1 1225 5 view .LVU572
1226:Drivers/lvgl/src/widgets/scale/lv_scale.c ****     lv_obj_init_draw_line_dsc(obj, LV_PART_MAIN, &main_line_dsc);
 1923              		.loc 1 1226 5 view .LVU573
 1924 000e 10AD     		add	r5, sp, #64
 1925 0010 2846     		mov	r0, r5
ARM GAS  /var/folders/qx/2_175_4n2s19vhvtspjhb3qh0000gn/T//ccmbJJmj.s 			page 85


 1926              	.LVL206:
1226:Drivers/lvgl/src/widgets/scale/lv_scale.c ****     lv_obj_init_draw_line_dsc(obj, LV_PART_MAIN, &main_line_dsc);
 1927              		.loc 1 1226 5 is_stmt 0 view .LVU574
 1928 0012 FFF7FEFF 		bl	lv_draw_line_dsc_init
 1929              	.LVL207:
1227:Drivers/lvgl/src/widgets/scale/lv_scale.c **** 
 1930              		.loc 1 1227 5 is_stmt 1 view .LVU575
 1931 0016 2A46     		mov	r2, r5
 1932 0018 0021     		movs	r1, #0
 1933 001a 2046     		mov	r0, r4
 1934 001c FFF7FEFF 		bl	lv_obj_init_draw_line_dsc
 1935              	.LVL208:
1229:Drivers/lvgl/src/widgets/scale/lv_scale.c ****     int32_t major_len = 0;
 1936              		.loc 1 1229 5 view .LVU576
1230:Drivers/lvgl/src/widgets/scale/lv_scale.c ****     int32_t radial_offset = 0;
 1937              		.loc 1 1230 5 view .LVU577
1231:Drivers/lvgl/src/widgets/scale/lv_scale.c **** 
 1938              		.loc 1 1231 5 view .LVU578
1233:Drivers/lvgl/src/widgets/scale/lv_scale.c ****         major_len = lv_obj_get_style_length(obj, LV_PART_INDICATOR);
 1939              		.loc 1 1233 5 view .LVU579
1233:Drivers/lvgl/src/widgets/scale/lv_scale.c ****         major_len = lv_obj_get_style_length(obj, LV_PART_INDICATOR);
 1940              		.loc 1 1233 7 is_stmt 0 view .LVU580
 1941 0020 B9F1000F 		cmp	r9, #0
 1942 0024 28D0     		beq	.L97
1234:Drivers/lvgl/src/widgets/scale/lv_scale.c ****         radial_offset = lv_obj_get_style_radial_offset(obj, LV_PART_INDICATOR);
 1943              		.loc 1 1234 9 is_stmt 1 view .LVU581
 1944              	.LVL209:
 1945              	.LBB225:
 1946              	.LBI225:
  58:Drivers/lvgl/src/widgets/scale/../../core/lv_obj_style_gen.h **** {
 1947              		.loc 2 58 23 view .LVU582
 1948              	.LBB226:
  60:Drivers/lvgl/src/widgets/scale/../../core/lv_obj_style_gen.h ****     return (int32_t)v.num;
 1949              		.loc 2 60 5 view .LVU583
  60:Drivers/lvgl/src/widgets/scale/../../core/lv_obj_style_gen.h ****     return (int32_t)v.num;
 1950              		.loc 2 60 26 is_stmt 0 view .LVU584
 1951 0026 0322     		movs	r2, #3
 1952 0028 4FF40031 		mov	r1, #131072
 1953 002c 2046     		mov	r0, r4
 1954 002e FFF7FEFF 		bl	lv_obj_get_style_prop
 1955              	.LVL210:
 1956 0032 0C90     		str	r0, [sp, #48]
  61:Drivers/lvgl/src/widgets/scale/../../core/lv_obj_style_gen.h **** }
 1957              		.loc 2 61 5 is_stmt 1 view .LVU585
  61:Drivers/lvgl/src/widgets/scale/../../core/lv_obj_style_gen.h **** }
 1958              		.loc 2 61 12 is_stmt 0 view .LVU586
 1959 0034 0290     		str	r0, [sp, #8]
 1960              	.LVL211:
  61:Drivers/lvgl/src/widgets/scale/../../core/lv_obj_style_gen.h **** }
 1961              		.loc 2 61 12 view .LVU587
 1962              	.LBE226:
 1963              	.LBE225:
1235:Drivers/lvgl/src/widgets/scale/lv_scale.c ****     }
 1964              		.loc 1 1235 9 is_stmt 1 view .LVU588
 1965              	.LBB227:
 1966              	.LBI227:
 572:Drivers/lvgl/src/widgets/scale/../../core/lv_obj_style_gen.h **** }
ARM GAS  /var/folders/qx/2_175_4n2s19vhvtspjhb3qh0000gn/T//ccmbJJmj.s 			page 86


 573:Drivers/lvgl/src/widgets/scale/../../core/lv_obj_style_gen.h **** 
 574:Drivers/lvgl/src/widgets/scale/../../core/lv_obj_style_gen.h **** static inline int32_t lv_obj_get_style_text_line_space(const lv_obj_t * obj, lv_part_t part)
 575:Drivers/lvgl/src/widgets/scale/../../core/lv_obj_style_gen.h **** {
 576:Drivers/lvgl/src/widgets/scale/../../core/lv_obj_style_gen.h ****     lv_style_value_t v = lv_obj_get_style_prop(obj, part, LV_STYLE_TEXT_LINE_SPACE);
 577:Drivers/lvgl/src/widgets/scale/../../core/lv_obj_style_gen.h ****     return (int32_t)v.num;
 578:Drivers/lvgl/src/widgets/scale/../../core/lv_obj_style_gen.h **** }
 579:Drivers/lvgl/src/widgets/scale/../../core/lv_obj_style_gen.h **** 
 580:Drivers/lvgl/src/widgets/scale/../../core/lv_obj_style_gen.h **** static inline lv_text_decor_t lv_obj_get_style_text_decor(const lv_obj_t * obj, lv_part_t part)
 581:Drivers/lvgl/src/widgets/scale/../../core/lv_obj_style_gen.h **** {
 582:Drivers/lvgl/src/widgets/scale/../../core/lv_obj_style_gen.h ****     lv_style_value_t v = lv_obj_get_style_prop(obj, part, LV_STYLE_TEXT_DECOR);
 583:Drivers/lvgl/src/widgets/scale/../../core/lv_obj_style_gen.h ****     return (lv_text_decor_t)v.num;
 584:Drivers/lvgl/src/widgets/scale/../../core/lv_obj_style_gen.h **** }
 585:Drivers/lvgl/src/widgets/scale/../../core/lv_obj_style_gen.h **** 
 586:Drivers/lvgl/src/widgets/scale/../../core/lv_obj_style_gen.h **** static inline lv_text_align_t lv_obj_get_style_text_align(const lv_obj_t * obj, lv_part_t part)
 587:Drivers/lvgl/src/widgets/scale/../../core/lv_obj_style_gen.h **** {
 588:Drivers/lvgl/src/widgets/scale/../../core/lv_obj_style_gen.h ****     lv_style_value_t v = lv_obj_get_style_prop(obj, part, LV_STYLE_TEXT_ALIGN);
 589:Drivers/lvgl/src/widgets/scale/../../core/lv_obj_style_gen.h ****     return (lv_text_align_t)v.num;
 590:Drivers/lvgl/src/widgets/scale/../../core/lv_obj_style_gen.h **** }
 591:Drivers/lvgl/src/widgets/scale/../../core/lv_obj_style_gen.h **** 
 592:Drivers/lvgl/src/widgets/scale/../../core/lv_obj_style_gen.h **** static inline lv_color_t lv_obj_get_style_text_outline_stroke_color(const lv_obj_t * obj, lv_part_t
 593:Drivers/lvgl/src/widgets/scale/../../core/lv_obj_style_gen.h **** {
 594:Drivers/lvgl/src/widgets/scale/../../core/lv_obj_style_gen.h ****     lv_style_value_t v = lv_obj_get_style_prop(obj, part, LV_STYLE_TEXT_OUTLINE_STROKE_COLOR);
 595:Drivers/lvgl/src/widgets/scale/../../core/lv_obj_style_gen.h ****     return v.color;
 596:Drivers/lvgl/src/widgets/scale/../../core/lv_obj_style_gen.h **** }
 597:Drivers/lvgl/src/widgets/scale/../../core/lv_obj_style_gen.h **** 
 598:Drivers/lvgl/src/widgets/scale/../../core/lv_obj_style_gen.h **** static inline lv_color_t lv_obj_get_style_text_outline_stroke_color_filtered(const lv_obj_t * obj, 
 599:Drivers/lvgl/src/widgets/scale/../../core/lv_obj_style_gen.h **** {
 600:Drivers/lvgl/src/widgets/scale/../../core/lv_obj_style_gen.h ****     lv_style_value_t v = lv_obj_style_apply_color_filter(obj, part, lv_obj_get_style_prop(obj, part
 601:Drivers/lvgl/src/widgets/scale/../../core/lv_obj_style_gen.h ****                                                                                           LV_STYLE_
 602:Drivers/lvgl/src/widgets/scale/../../core/lv_obj_style_gen.h ****     return v.color;
 603:Drivers/lvgl/src/widgets/scale/../../core/lv_obj_style_gen.h **** }
 604:Drivers/lvgl/src/widgets/scale/../../core/lv_obj_style_gen.h **** 
 605:Drivers/lvgl/src/widgets/scale/../../core/lv_obj_style_gen.h **** static inline int32_t lv_obj_get_style_text_outline_stroke_width(const lv_obj_t * obj, lv_part_t pa
 606:Drivers/lvgl/src/widgets/scale/../../core/lv_obj_style_gen.h **** {
 607:Drivers/lvgl/src/widgets/scale/../../core/lv_obj_style_gen.h ****     lv_style_value_t v = lv_obj_get_style_prop(obj, part, LV_STYLE_TEXT_OUTLINE_STROKE_WIDTH);
 608:Drivers/lvgl/src/widgets/scale/../../core/lv_obj_style_gen.h ****     return (int32_t)v.num;
 609:Drivers/lvgl/src/widgets/scale/../../core/lv_obj_style_gen.h **** }
 610:Drivers/lvgl/src/widgets/scale/../../core/lv_obj_style_gen.h **** 
 611:Drivers/lvgl/src/widgets/scale/../../core/lv_obj_style_gen.h **** static inline lv_opa_t lv_obj_get_style_text_outline_stroke_opa(const lv_obj_t * obj, lv_part_t par
 612:Drivers/lvgl/src/widgets/scale/../../core/lv_obj_style_gen.h **** {
 613:Drivers/lvgl/src/widgets/scale/../../core/lv_obj_style_gen.h ****     lv_style_value_t v = lv_obj_get_style_prop(obj, part, LV_STYLE_TEXT_OUTLINE_STROKE_OPA);
 614:Drivers/lvgl/src/widgets/scale/../../core/lv_obj_style_gen.h ****     return (lv_opa_t)v.num;
 615:Drivers/lvgl/src/widgets/scale/../../core/lv_obj_style_gen.h **** }
 616:Drivers/lvgl/src/widgets/scale/../../core/lv_obj_style_gen.h **** 
 617:Drivers/lvgl/src/widgets/scale/../../core/lv_obj_style_gen.h **** static inline int32_t lv_obj_get_style_radius(const lv_obj_t * obj, lv_part_t part)
 618:Drivers/lvgl/src/widgets/scale/../../core/lv_obj_style_gen.h **** {
 619:Drivers/lvgl/src/widgets/scale/../../core/lv_obj_style_gen.h ****     lv_style_value_t v = lv_obj_get_style_prop(obj, part, LV_STYLE_RADIUS);
 620:Drivers/lvgl/src/widgets/scale/../../core/lv_obj_style_gen.h ****     return (int32_t)v.num;
 621:Drivers/lvgl/src/widgets/scale/../../core/lv_obj_style_gen.h **** }
 622:Drivers/lvgl/src/widgets/scale/../../core/lv_obj_style_gen.h **** 
 623:Drivers/lvgl/src/widgets/scale/../../core/lv_obj_style_gen.h **** static inline int32_t lv_obj_get_style_radial_offset(const lv_obj_t * obj, lv_part_t part)
 1967              		.loc 2 623 23 view .LVU589
 1968              	.LBB228:
 624:Drivers/lvgl/src/widgets/scale/../../core/lv_obj_style_gen.h **** {
 625:Drivers/lvgl/src/widgets/scale/../../core/lv_obj_style_gen.h ****     lv_style_value_t v = lv_obj_get_style_prop(obj, part, LV_STYLE_RADIAL_OFFSET);
 1969              		.loc 2 625 5 view .LVU590
 1970              		.loc 2 625 26 is_stmt 0 view .LVU591
ARM GAS  /var/folders/qx/2_175_4n2s19vhvtspjhb3qh0000gn/T//ccmbJJmj.s 			page 87


 1971 0036 0D22     		movs	r2, #13
 1972 0038 4FF40031 		mov	r1, #131072
 1973 003c 2046     		mov	r0, r4
 1974              	.LVL212:
 1975              		.loc 2 625 26 view .LVU592
 1976 003e FFF7FEFF 		bl	lv_obj_get_style_prop
 1977              	.LVL213:
 1978              		.loc 2 625 26 view .LVU593
 1979 0042 0C90     		str	r0, [sp, #48]
 626:Drivers/lvgl/src/widgets/scale/../../core/lv_obj_style_gen.h ****     return (int32_t)v.num;
 1980              		.loc 2 626 5 is_stmt 1 view .LVU594
 1981              		.loc 2 626 12 is_stmt 0 view .LVU595
 1982 0044 8046     		mov	r8, r0
 1983              	.LVL214:
 1984              		.loc 2 626 12 view .LVU596
 1985              	.LBE228:
 1986              	.LBE227:
1229:Drivers/lvgl/src/widgets/scale/lv_scale.c ****     int32_t major_len = 0;
 1987              		.loc 1 1229 13 view .LVU597
 1988 0046 0025     		movs	r5, #0
 1989              	.LVL215:
 1990              	.L98:
1242:Drivers/lvgl/src/widgets/scale/lv_scale.c ****        || (LV_SCALE_MODE_HORIZONTAL_BOTTOM == scale->mode || LV_SCALE_MODE_HORIZONTAL_TOP == scale-
 1991              		.loc 1 1242 5 is_stmt 1 view .LVU598
1242:Drivers/lvgl/src/widgets/scale/lv_scale.c ****        || (LV_SCALE_MODE_HORIZONTAL_BOTTOM == scale->mode || LV_SCALE_MODE_HORIZONTAL_TOP == scale-
 1992              		.loc 1 1242 45 is_stmt 0 view .LVU599
 1993 0048 94F83C30 		ldrb	r3, [r4, #60]	@ zero_extendqisi2
 1994 004c 102B     		cmp	r3, #16
 1995 004e 00F2EE80 		bhi	.L96
 1996 0052 DFE813F0 		tbh	[pc, r3, lsl #1]
 1997              	.L101:
 1998 0056 2400     		.2byte	(.L102-.L101)/2
 1999 0058 2400     		.2byte	(.L102-.L101)/2
 2000 005a 2400     		.2byte	(.L102-.L101)/2
 2001 005c EC00     		.2byte	(.L96-.L101)/2
 2002 005e 2400     		.2byte	(.L102-.L101)/2
 2003 0060 EC00     		.2byte	(.L96-.L101)/2
 2004 0062 EC00     		.2byte	(.L96-.L101)/2
 2005 0064 EC00     		.2byte	(.L96-.L101)/2
 2006 0066 1901     		.2byte	(.L100-.L101)/2
 2007 0068 EC00     		.2byte	(.L96-.L101)/2
 2008 006a EC00     		.2byte	(.L96-.L101)/2
 2009 006c EC00     		.2byte	(.L96-.L101)/2
 2010 006e EC00     		.2byte	(.L96-.L101)/2
 2011 0070 EC00     		.2byte	(.L96-.L101)/2
 2012 0072 EC00     		.2byte	(.L96-.L101)/2
 2013 0074 EC00     		.2byte	(.L96-.L101)/2
 2014 0076 1901     		.2byte	(.L100-.L101)/2
 2015              	.LVL216:
 2016              		.p2align 1
 2017              	.L97:
1238:Drivers/lvgl/src/widgets/scale/lv_scale.c ****         radial_offset = lv_obj_get_style_radial_offset(obj, LV_PART_ITEMS);
 2018              		.loc 1 1238 9 is_stmt 1 view .LVU600
 2019              	.LBB229:
 2020              	.LBI229:
  58:Drivers/lvgl/src/widgets/scale/../../core/lv_obj_style_gen.h **** {
 2021              		.loc 2 58 23 view .LVU601
ARM GAS  /var/folders/qx/2_175_4n2s19vhvtspjhb3qh0000gn/T//ccmbJJmj.s 			page 88


 2022              	.LBB230:
  60:Drivers/lvgl/src/widgets/scale/../../core/lv_obj_style_gen.h ****     return (int32_t)v.num;
 2023              		.loc 2 60 5 view .LVU602
  60:Drivers/lvgl/src/widgets/scale/../../core/lv_obj_style_gen.h ****     return (int32_t)v.num;
 2024              		.loc 2 60 26 is_stmt 0 view .LVU603
 2025 0078 0322     		movs	r2, #3
 2026 007a 4FF4A021 		mov	r1, #327680
 2027 007e 2046     		mov	r0, r4
 2028 0080 FFF7FEFF 		bl	lv_obj_get_style_prop
 2029              	.LVL217:
 2030 0084 0546     		mov	r5, r0
 2031 0086 0C90     		str	r0, [sp, #48]
  61:Drivers/lvgl/src/widgets/scale/../../core/lv_obj_style_gen.h **** }
 2032              		.loc 2 61 5 is_stmt 1 view .LVU604
 2033              	.LVL218:
  61:Drivers/lvgl/src/widgets/scale/../../core/lv_obj_style_gen.h **** }
 2034              		.loc 2 61 5 is_stmt 0 view .LVU605
 2035              	.LBE230:
 2036              	.LBE229:
1239:Drivers/lvgl/src/widgets/scale/lv_scale.c ****     }
 2037              		.loc 1 1239 9 is_stmt 1 view .LVU606
 2038              	.LBB231:
 2039              	.LBI231:
 623:Drivers/lvgl/src/widgets/scale/../../core/lv_obj_style_gen.h **** {
 2040              		.loc 2 623 23 view .LVU607
 2041              	.LBB232:
 625:Drivers/lvgl/src/widgets/scale/../../core/lv_obj_style_gen.h ****     return (int32_t)v.num;
 2042              		.loc 2 625 5 view .LVU608
 625:Drivers/lvgl/src/widgets/scale/../../core/lv_obj_style_gen.h ****     return (int32_t)v.num;
 2043              		.loc 2 625 26 is_stmt 0 view .LVU609
 2044 0088 0D22     		movs	r2, #13
 2045 008a 4FF4A021 		mov	r1, #327680
 2046 008e 2046     		mov	r0, r4
 2047              	.LVL219:
 625:Drivers/lvgl/src/widgets/scale/../../core/lv_obj_style_gen.h ****     return (int32_t)v.num;
 2048              		.loc 2 625 26 view .LVU610
 2049 0090 FFF7FEFF 		bl	lv_obj_get_style_prop
 2050              	.LVL220:
 2051 0094 0C90     		str	r0, [sp, #48]
 2052              		.loc 2 626 5 is_stmt 1 view .LVU611
 2053              		.loc 2 626 12 is_stmt 0 view .LVU612
 2054 0096 8046     		mov	r8, r0
 2055              	.LVL221:
 2056              		.loc 2 626 12 view .LVU613
 2057              	.LBE232:
 2058              	.LBE231:
1230:Drivers/lvgl/src/widgets/scale/lv_scale.c ****     int32_t radial_offset = 0;
 2059              		.loc 1 1230 13 view .LVU614
 2060 0098 0023     		movs	r3, #0
 2061 009a 0293     		str	r3, [sp, #8]
 2062 009c D4E7     		b	.L98
 2063              	.LVL222:
 2064              	.L102:
 2065              	.LBB233:
1246:Drivers/lvgl/src/widgets/scale/lv_scale.c ****         const int32_t pad_top = lv_obj_get_style_pad_top(obj, LV_PART_MAIN) + border_width;
 2066              		.loc 1 1246 9 is_stmt 1 view .LVU615
 2067              	.LBB234:
ARM GAS  /var/folders/qx/2_175_4n2s19vhvtspjhb3qh0000gn/T//ccmbJJmj.s 			page 89


 2068              	.LBI234:
 343:Drivers/lvgl/src/widgets/scale/../../core/lv_obj_style_gen.h **** {
 2069              		.loc 2 343 23 view .LVU616
 2070              	.LBB235:
 345:Drivers/lvgl/src/widgets/scale/../../core/lv_obj_style_gen.h ****     return (int32_t)v.num;
 2071              		.loc 2 345 5 view .LVU617
 345:Drivers/lvgl/src/widgets/scale/../../core/lv_obj_style_gen.h ****     return (int32_t)v.num;
 2072              		.loc 2 345 26 is_stmt 0 view .LVU618
 2073 009e 3022     		movs	r2, #48
 2074 00a0 0021     		movs	r1, #0
 2075 00a2 2046     		mov	r0, r4
 2076 00a4 FFF7FEFF 		bl	lv_obj_get_style_prop
 2077              	.LVL223:
 2078 00a8 8346     		mov	fp, r0
 2079 00aa 0C90     		str	r0, [sp, #48]
 346:Drivers/lvgl/src/widgets/scale/../../core/lv_obj_style_gen.h **** }
 2080              		.loc 2 346 5 is_stmt 1 view .LVU619
 2081              	.LVL224:
 346:Drivers/lvgl/src/widgets/scale/../../core/lv_obj_style_gen.h **** }
 2082              		.loc 2 346 5 is_stmt 0 view .LVU620
 2083              	.LBE235:
 2084              	.LBE234:
1247:Drivers/lvgl/src/widgets/scale/lv_scale.c ****         const int32_t pad_bottom = lv_obj_get_style_pad_bottom(obj, LV_PART_MAIN) + border_width;
 2085              		.loc 1 1247 9 is_stmt 1 view .LVU621
 2086              	.LBB236:
 2087              	.LBI236:
 154:Drivers/lvgl/src/widgets/scale/../../core/lv_obj_style_gen.h **** {
 2088              		.loc 2 154 23 view .LVU622
 2089              	.LBB237:
 156:Drivers/lvgl/src/widgets/scale/../../core/lv_obj_style_gen.h ****     return (int32_t)v.num;
 2090              		.loc 2 156 5 view .LVU623
 156:Drivers/lvgl/src/widgets/scale/../../core/lv_obj_style_gen.h ****     return (int32_t)v.num;
 2091              		.loc 2 156 26 is_stmt 0 view .LVU624
 2092 00ac 1022     		movs	r2, #16
 2093 00ae 0021     		movs	r1, #0
 2094 00b0 2046     		mov	r0, r4
 2095              	.LVL225:
 156:Drivers/lvgl/src/widgets/scale/../../core/lv_obj_style_gen.h ****     return (int32_t)v.num;
 2096              		.loc 2 156 26 view .LVU625
 2097 00b2 FFF7FEFF 		bl	lv_obj_get_style_prop
 2098              	.LVL226:
 2099 00b6 0C90     		str	r0, [sp, #48]
 157:Drivers/lvgl/src/widgets/scale/../../core/lv_obj_style_gen.h **** }
 2100              		.loc 2 157 5 is_stmt 1 view .LVU626
 2101              	.LVL227:
 157:Drivers/lvgl/src/widgets/scale/../../core/lv_obj_style_gen.h **** }
 2102              		.loc 2 157 5 is_stmt 0 view .LVU627
 2103              	.LBE237:
 2104              	.LBE236:
1247:Drivers/lvgl/src/widgets/scale/lv_scale.c ****         const int32_t pad_bottom = lv_obj_get_style_pad_bottom(obj, LV_PART_MAIN) + border_width;
 2105              		.loc 1 1247 23 discriminator 1 view .LVU628
 2106 00b8 00EB0B03 		add	r3, r0, fp
 2107 00bc 0393     		str	r3, [sp, #12]
 2108              	.LVL228:
1248:Drivers/lvgl/src/widgets/scale/lv_scale.c ****         const int32_t pad_right = lv_obj_get_style_pad_right(obj, LV_PART_MAIN) + border_width;
 2109              		.loc 1 1248 9 is_stmt 1 view .LVU629
 2110              	.LBB238:
ARM GAS  /var/folders/qx/2_175_4n2s19vhvtspjhb3qh0000gn/T//ccmbJJmj.s 			page 90


 2111              	.LBI238:
 160:Drivers/lvgl/src/widgets/scale/../../core/lv_obj_style_gen.h **** {
 2112              		.loc 2 160 23 view .LVU630
 2113              	.LBB239:
 162:Drivers/lvgl/src/widgets/scale/../../core/lv_obj_style_gen.h ****     return (int32_t)v.num;
 2114              		.loc 2 162 5 view .LVU631
 162:Drivers/lvgl/src/widgets/scale/../../core/lv_obj_style_gen.h ****     return (int32_t)v.num;
 2115              		.loc 2 162 26 is_stmt 0 view .LVU632
 2116 00be 1122     		movs	r2, #17
 2117 00c0 0021     		movs	r1, #0
 2118 00c2 2046     		mov	r0, r4
 2119 00c4 FFF7FEFF 		bl	lv_obj_get_style_prop
 2120              	.LVL229:
 162:Drivers/lvgl/src/widgets/scale/../../core/lv_obj_style_gen.h ****     return (int32_t)v.num;
 2121              		.loc 2 162 26 view .LVU633
 2122 00c8 0C90     		str	r0, [sp, #48]
 163:Drivers/lvgl/src/widgets/scale/../../core/lv_obj_style_gen.h **** }
 2123              		.loc 2 163 5 is_stmt 1 view .LVU634
 2124              	.LVL230:
 163:Drivers/lvgl/src/widgets/scale/../../core/lv_obj_style_gen.h **** }
 2125              		.loc 2 163 5 is_stmt 0 view .LVU635
 2126              	.LBE239:
 2127              	.LBE238:
1248:Drivers/lvgl/src/widgets/scale/lv_scale.c ****         const int32_t pad_right = lv_obj_get_style_pad_right(obj, LV_PART_MAIN) + border_width;
 2128              		.loc 1 1248 23 discriminator 1 view .LVU636
 2129 00ca 00EB0B0A 		add	r10, r0, fp
 2130              	.LVL231:
1249:Drivers/lvgl/src/widgets/scale/lv_scale.c ****         const int32_t pad_left = lv_obj_get_style_pad_left(obj, LV_PART_MAIN) + border_width;
 2131              		.loc 1 1249 9 is_stmt 1 view .LVU637
 2132              	.LBB240:
 2133              	.LBI240:
 172:Drivers/lvgl/src/widgets/scale/../../core/lv_obj_style_gen.h **** {
 2134              		.loc 2 172 23 view .LVU638
 2135              	.LBB241:
 174:Drivers/lvgl/src/widgets/scale/../../core/lv_obj_style_gen.h ****     return (int32_t)v.num;
 2136              		.loc 2 174 5 view .LVU639
 174:Drivers/lvgl/src/widgets/scale/../../core/lv_obj_style_gen.h ****     return (int32_t)v.num;
 2137              		.loc 2 174 26 is_stmt 0 view .LVU640
 2138 00ce 1322     		movs	r2, #19
 2139 00d0 0021     		movs	r1, #0
 2140 00d2 2046     		mov	r0, r4
 2141 00d4 FFF7FEFF 		bl	lv_obj_get_style_prop
 2142              	.LVL232:
 2143 00d8 0C90     		str	r0, [sp, #48]
 175:Drivers/lvgl/src/widgets/scale/../../core/lv_obj_style_gen.h **** }
 2144              		.loc 2 175 5 is_stmt 1 view .LVU641
 2145              	.LVL233:
 175:Drivers/lvgl/src/widgets/scale/../../core/lv_obj_style_gen.h **** }
 2146              		.loc 2 175 5 is_stmt 0 view .LVU642
 2147              	.LBE241:
 2148              	.LBE240:
1249:Drivers/lvgl/src/widgets/scale/lv_scale.c ****         const int32_t pad_left = lv_obj_get_style_pad_left(obj, LV_PART_MAIN) + border_width;
 2149              		.loc 1 1249 23 discriminator 1 view .LVU643
 2150 00da 00EB0B03 		add	r3, r0, fp
 2151 00de 0793     		str	r3, [sp, #28]
 2152              	.LVL234:
1250:Drivers/lvgl/src/widgets/scale/lv_scale.c ****         const int32_t tick_pad_right = lv_obj_get_style_pad_right(obj, LV_PART_ITEMS);
ARM GAS  /var/folders/qx/2_175_4n2s19vhvtspjhb3qh0000gn/T//ccmbJJmj.s 			page 91


 2153              		.loc 1 1250 9 is_stmt 1 view .LVU644
 2154              	.LBB242:
 2155              	.LBI242:
 166:Drivers/lvgl/src/widgets/scale/../../core/lv_obj_style_gen.h **** {
 2156              		.loc 2 166 23 view .LVU645
 2157              	.LBB243:
 168:Drivers/lvgl/src/widgets/scale/../../core/lv_obj_style_gen.h ****     return (int32_t)v.num;
 2158              		.loc 2 168 5 view .LVU646
 168:Drivers/lvgl/src/widgets/scale/../../core/lv_obj_style_gen.h ****     return (int32_t)v.num;
 2159              		.loc 2 168 26 is_stmt 0 view .LVU647
 2160 00e0 1222     		movs	r2, #18
 2161 00e2 0021     		movs	r1, #0
 2162 00e4 2046     		mov	r0, r4
 2163 00e6 FFF7FEFF 		bl	lv_obj_get_style_prop
 2164              	.LVL235:
 168:Drivers/lvgl/src/widgets/scale/../../core/lv_obj_style_gen.h ****     return (int32_t)v.num;
 2165              		.loc 2 168 26 view .LVU648
 2166 00ea 0C90     		str	r0, [sp, #48]
 169:Drivers/lvgl/src/widgets/scale/../../core/lv_obj_style_gen.h **** }
 2167              		.loc 2 169 5 is_stmt 1 view .LVU649
 2168              	.LVL236:
 169:Drivers/lvgl/src/widgets/scale/../../core/lv_obj_style_gen.h **** }
 2169              		.loc 2 169 5 is_stmt 0 view .LVU650
 2170              	.LBE243:
 2171              	.LBE242:
1250:Drivers/lvgl/src/widgets/scale/lv_scale.c ****         const int32_t tick_pad_right = lv_obj_get_style_pad_right(obj, LV_PART_ITEMS);
 2172              		.loc 1 1250 23 discriminator 1 view .LVU651
 2173 00ec 8344     		add	fp, fp, r0
 2174              	.LVL237:
1251:Drivers/lvgl/src/widgets/scale/lv_scale.c ****         const int32_t tick_pad_left = lv_obj_get_style_pad_left(obj, LV_PART_ITEMS);
 2175              		.loc 1 1251 9 is_stmt 1 view .LVU652
 2176              	.LBB244:
 2177              	.LBI244:
 172:Drivers/lvgl/src/widgets/scale/../../core/lv_obj_style_gen.h **** {
 2178              		.loc 2 172 23 view .LVU653
 2179              	.LBB245:
 174:Drivers/lvgl/src/widgets/scale/../../core/lv_obj_style_gen.h ****     return (int32_t)v.num;
 2180              		.loc 2 174 5 view .LVU654
 174:Drivers/lvgl/src/widgets/scale/../../core/lv_obj_style_gen.h ****     return (int32_t)v.num;
 2181              		.loc 2 174 26 is_stmt 0 view .LVU655
 2182 00ee 1322     		movs	r2, #19
 2183 00f0 4FF4A021 		mov	r1, #327680
 2184 00f4 2046     		mov	r0, r4
 2185 00f6 FFF7FEFF 		bl	lv_obj_get_style_prop
 2186              	.LVL238:
 2187 00fa 0990     		str	r0, [sp, #36]
 2188 00fc 0C90     		str	r0, [sp, #48]
 175:Drivers/lvgl/src/widgets/scale/../../core/lv_obj_style_gen.h **** }
 2189              		.loc 2 175 5 is_stmt 1 view .LVU656
 2190              	.LVL239:
 175:Drivers/lvgl/src/widgets/scale/../../core/lv_obj_style_gen.h **** }
 2191              		.loc 2 175 5 is_stmt 0 view .LVU657
 2192              	.LBE245:
 2193              	.LBE244:
1252:Drivers/lvgl/src/widgets/scale/lv_scale.c ****         const int32_t tick_pad_top = lv_obj_get_style_pad_top(obj, LV_PART_ITEMS);
 2194              		.loc 1 1252 9 is_stmt 1 view .LVU658
 2195              	.LBB246:
ARM GAS  /var/folders/qx/2_175_4n2s19vhvtspjhb3qh0000gn/T//ccmbJJmj.s 			page 92


 2196              	.LBI246:
 166:Drivers/lvgl/src/widgets/scale/../../core/lv_obj_style_gen.h **** {
 2197              		.loc 2 166 23 view .LVU659
 2198              	.LBB247:
 168:Drivers/lvgl/src/widgets/scale/../../core/lv_obj_style_gen.h ****     return (int32_t)v.num;
 2199              		.loc 2 168 5 view .LVU660
 168:Drivers/lvgl/src/widgets/scale/../../core/lv_obj_style_gen.h ****     return (int32_t)v.num;
 2200              		.loc 2 168 26 is_stmt 0 view .LVU661
 2201 00fe 1222     		movs	r2, #18
 2202 0100 4FF4A021 		mov	r1, #327680
 2203 0104 2046     		mov	r0, r4
 2204              	.LVL240:
 168:Drivers/lvgl/src/widgets/scale/../../core/lv_obj_style_gen.h ****     return (int32_t)v.num;
 2205              		.loc 2 168 26 view .LVU662
 2206 0106 FFF7FEFF 		bl	lv_obj_get_style_prop
 2207              	.LVL241:
 168:Drivers/lvgl/src/widgets/scale/../../core/lv_obj_style_gen.h ****     return (int32_t)v.num;
 2208              		.loc 2 168 26 view .LVU663
 2209 010a 0890     		str	r0, [sp, #32]
 2210 010c 0C90     		str	r0, [sp, #48]
 169:Drivers/lvgl/src/widgets/scale/../../core/lv_obj_style_gen.h **** }
 2211              		.loc 2 169 5 is_stmt 1 view .LVU664
 2212              	.LVL242:
 169:Drivers/lvgl/src/widgets/scale/../../core/lv_obj_style_gen.h **** }
 2213              		.loc 2 169 5 is_stmt 0 view .LVU665
 2214              	.LBE247:
 2215              	.LBE246:
1253:Drivers/lvgl/src/widgets/scale/lv_scale.c ****         const int32_t tick_pad_bottom = lv_obj_get_style_pad_bottom(obj, LV_PART_ITEMS);
 2216              		.loc 1 1253 9 is_stmt 1 view .LVU666
 2217              	.LBB248:
 2218              	.LBI248:
 154:Drivers/lvgl/src/widgets/scale/../../core/lv_obj_style_gen.h **** {
 2219              		.loc 2 154 23 view .LVU667
 2220              	.LBB249:
 156:Drivers/lvgl/src/widgets/scale/../../core/lv_obj_style_gen.h ****     return (int32_t)v.num;
 2221              		.loc 2 156 5 view .LVU668
 156:Drivers/lvgl/src/widgets/scale/../../core/lv_obj_style_gen.h ****     return (int32_t)v.num;
 2222              		.loc 2 156 26 is_stmt 0 view .LVU669
 2223 010e 1022     		movs	r2, #16
 2224 0110 4FF4A021 		mov	r1, #327680
 2225 0114 2046     		mov	r0, r4
 2226              	.LVL243:
 156:Drivers/lvgl/src/widgets/scale/../../core/lv_obj_style_gen.h ****     return (int32_t)v.num;
 2227              		.loc 2 156 26 view .LVU670
 2228 0116 FFF7FEFF 		bl	lv_obj_get_style_prop
 2229              	.LVL244:
 156:Drivers/lvgl/src/widgets/scale/../../core/lv_obj_style_gen.h ****     return (int32_t)v.num;
 2230              		.loc 2 156 26 view .LVU671
 2231 011a 0490     		str	r0, [sp, #16]
 2232 011c 0C90     		str	r0, [sp, #48]
 157:Drivers/lvgl/src/widgets/scale/../../core/lv_obj_style_gen.h **** }
 2233              		.loc 2 157 5 is_stmt 1 view .LVU672
 2234              	.LVL245:
 157:Drivers/lvgl/src/widgets/scale/../../core/lv_obj_style_gen.h **** }
 2235              		.loc 2 157 5 is_stmt 0 view .LVU673
 2236              	.LBE249:
 2237              	.LBE248:
ARM GAS  /var/folders/qx/2_175_4n2s19vhvtspjhb3qh0000gn/T//ccmbJJmj.s 			page 93


1254:Drivers/lvgl/src/widgets/scale/lv_scale.c **** 
 2238              		.loc 1 1254 9 is_stmt 1 view .LVU674
 2239              	.LBB250:
 2240              	.LBI250:
 160:Drivers/lvgl/src/widgets/scale/../../core/lv_obj_style_gen.h **** {
 2241              		.loc 2 160 23 view .LVU675
 2242              	.LBB251:
 162:Drivers/lvgl/src/widgets/scale/../../core/lv_obj_style_gen.h ****     return (int32_t)v.num;
 2243              		.loc 2 162 5 view .LVU676
 162:Drivers/lvgl/src/widgets/scale/../../core/lv_obj_style_gen.h ****     return (int32_t)v.num;
 2244              		.loc 2 162 26 is_stmt 0 view .LVU677
 2245 011e 1122     		movs	r2, #17
 2246 0120 4FF4A021 		mov	r1, #327680
 2247 0124 2046     		mov	r0, r4
 2248              	.LVL246:
 162:Drivers/lvgl/src/widgets/scale/../../core/lv_obj_style_gen.h ****     return (int32_t)v.num;
 2249              		.loc 2 162 26 view .LVU678
 2250 0126 FFF7FEFF 		bl	lv_obj_get_style_prop
 2251              	.LVL247:
 162:Drivers/lvgl/src/widgets/scale/../../core/lv_obj_style_gen.h ****     return (int32_t)v.num;
 2252              		.loc 2 162 26 view .LVU679
 2253 012a 0590     		str	r0, [sp, #20]
 2254 012c 0C90     		str	r0, [sp, #48]
 163:Drivers/lvgl/src/widgets/scale/../../core/lv_obj_style_gen.h **** }
 2255              		.loc 2 163 5 is_stmt 1 view .LVU680
 2256              	.LVL248:
 163:Drivers/lvgl/src/widgets/scale/../../core/lv_obj_style_gen.h **** }
 2257              		.loc 2 163 5 is_stmt 0 view .LVU681
 2258              	.LBE251:
 2259              	.LBE250:
1256:Drivers/lvgl/src/widgets/scale/lv_scale.c ****         int32_t y_ofs = 0;
 2260              		.loc 1 1256 9 is_stmt 1 view .LVU682
1257:Drivers/lvgl/src/widgets/scale/lv_scale.c **** 
 2261              		.loc 1 1257 9 view .LVU683
1259:Drivers/lvgl/src/widgets/scale/lv_scale.c ****             x_ofs = obj->coords.x2 + (main_line_dsc.width / 2) - pad_right;
 2262              		.loc 1 1259 9 view .LVU684
1259:Drivers/lvgl/src/widgets/scale/lv_scale.c ****             x_ofs = obj->coords.x2 + (main_line_dsc.width / 2) - pad_right;
 2263              		.loc 1 1259 48 is_stmt 0 view .LVU685
 2264 012e 94F83C30 		ldrb	r3, [r4, #60]	@ zero_extendqisi2
1259:Drivers/lvgl/src/widgets/scale/lv_scale.c ****             x_ofs = obj->coords.x2 + (main_line_dsc.width / 2) - pad_right;
 2265              		.loc 1 1259 11 view .LVU686
 2266 0132 022B     		cmp	r3, #2
 2267 0134 12D0     		beq	.L125
1263:Drivers/lvgl/src/widgets/scale/lv_scale.c ****             x_ofs = obj->coords.x1 + (main_line_dsc.width / 2) + pad_left;
 2268              		.loc 1 1263 14 is_stmt 1 view .LVU687
1263:Drivers/lvgl/src/widgets/scale/lv_scale.c ****             x_ofs = obj->coords.x1 + (main_line_dsc.width / 2) + pad_left;
 2269              		.loc 1 1263 16 is_stmt 0 view .LVU688
 2270 0136 042B     		cmp	r3, #4
 2271 0138 27D0     		beq	.L126
1267:Drivers/lvgl/src/widgets/scale/lv_scale.c ****             x_ofs = obj->coords.x1 + (pad_right + tick_pad_right);
 2272              		.loc 1 1267 14 is_stmt 1 view .LVU689
1267:Drivers/lvgl/src/widgets/scale/lv_scale.c ****             x_ofs = obj->coords.x1 + (pad_right + tick_pad_right);
 2273              		.loc 1 1267 16 is_stmt 0 view .LVU690
 2274 013a 012B     		cmp	r3, #1
 2275 013c 34D0     		beq	.L127
1273:Drivers/lvgl/src/widgets/scale/lv_scale.c ****             y_ofs = obj->coords.y2 + (main_line_dsc.width / 2) - pad_bottom;
 2276              		.loc 1 1273 13 is_stmt 1 view .LVU691
ARM GAS  /var/folders/qx/2_175_4n2s19vhvtspjhb3qh0000gn/T//ccmbJJmj.s 			page 94


1273:Drivers/lvgl/src/widgets/scale/lv_scale.c ****             y_ofs = obj->coords.y2 + (main_line_dsc.width / 2) - pad_bottom;
 2277              		.loc 1 1273 32 is_stmt 0 view .LVU692
 2278 013e 6169     		ldr	r1, [r4, #20]
1273:Drivers/lvgl/src/widgets/scale/lv_scale.c ****             y_ofs = obj->coords.y2 + (main_line_dsc.width / 2) - pad_bottom;
 2279              		.loc 1 1273 48 view .LVU693
 2280 0140 089A     		ldr	r2, [sp, #32]
 2281 0142 5A44     		add	r2, fp, r2
1273:Drivers/lvgl/src/widgets/scale/lv_scale.c ****             y_ofs = obj->coords.y2 + (main_line_dsc.width / 2) - pad_bottom;
 2282              		.loc 1 1273 19 view .LVU694
 2283 0144 01EB0208 		add	r8, r1, r2
 2284              	.LVL249:
1274:Drivers/lvgl/src/widgets/scale/lv_scale.c ****         }
 2285              		.loc 1 1274 13 is_stmt 1 view .LVU695
1274:Drivers/lvgl/src/widgets/scale/lv_scale.c ****         }
 2286              		.loc 1 1274 32 is_stmt 0 view .LVU696
 2287 0148 216A     		ldr	r1, [r4, #32]
1274:Drivers/lvgl/src/widgets/scale/lv_scale.c ****         }
 2288              		.loc 1 1274 52 view .LVU697
 2289 014a 1C9A     		ldr	r2, [sp, #112]
1274:Drivers/lvgl/src/widgets/scale/lv_scale.c ****         }
 2290              		.loc 1 1274 59 view .LVU698
 2291 014c 02EBD272 		add	r2, r2, r2, lsr #31
1274:Drivers/lvgl/src/widgets/scale/lv_scale.c ****         }
 2292              		.loc 1 1274 36 view .LVU699
 2293 0150 01EB6201 		add	r1, r1, r2, asr #1
1274:Drivers/lvgl/src/widgets/scale/lv_scale.c ****         }
 2294              		.loc 1 1274 19 view .LVU700
 2295 0154 A1EB0A02 		sub	r2, r1, r10
 2296 0158 0692     		str	r2, [sp, #24]
 2297 015a 0EE0     		b	.L104
 2298              	.LVL250:
 2299              	.L125:
1260:Drivers/lvgl/src/widgets/scale/lv_scale.c ****             y_ofs = obj->coords.y1 + (pad_top + tick_pad_top);
 2300              		.loc 1 1260 13 is_stmt 1 view .LVU701
1260:Drivers/lvgl/src/widgets/scale/lv_scale.c ****             y_ofs = obj->coords.y1 + (pad_top + tick_pad_top);
 2301              		.loc 1 1260 32 is_stmt 0 view .LVU702
 2302 015c E169     		ldr	r1, [r4, #28]
1260:Drivers/lvgl/src/widgets/scale/lv_scale.c ****             y_ofs = obj->coords.y1 + (pad_top + tick_pad_top);
 2303              		.loc 1 1260 52 view .LVU703
 2304 015e 1C9A     		ldr	r2, [sp, #112]
1260:Drivers/lvgl/src/widgets/scale/lv_scale.c ****             y_ofs = obj->coords.y1 + (pad_top + tick_pad_top);
 2305              		.loc 1 1260 59 view .LVU704
 2306 0160 02EBD272 		add	r2, r2, r2, lsr #31
1260:Drivers/lvgl/src/widgets/scale/lv_scale.c ****             y_ofs = obj->coords.y1 + (pad_top + tick_pad_top);
 2307              		.loc 1 1260 36 view .LVU705
 2308 0164 01EB6201 		add	r1, r1, r2, asr #1
1260:Drivers/lvgl/src/widgets/scale/lv_scale.c ****             y_ofs = obj->coords.y1 + (pad_top + tick_pad_top);
 2309              		.loc 1 1260 19 view .LVU706
 2310 0168 079A     		ldr	r2, [sp, #28]
 2311 016a A1EB0208 		sub	r8, r1, r2
 2312              	.LVL251:
1261:Drivers/lvgl/src/widgets/scale/lv_scale.c ****         }
 2313              		.loc 1 1261 13 is_stmt 1 view .LVU707
1261:Drivers/lvgl/src/widgets/scale/lv_scale.c ****         }
 2314              		.loc 1 1261 32 is_stmt 0 view .LVU708
 2315 016e A169     		ldr	r1, [r4, #24]
1261:Drivers/lvgl/src/widgets/scale/lv_scale.c ****         }
ARM GAS  /var/folders/qx/2_175_4n2s19vhvtspjhb3qh0000gn/T//ccmbJJmj.s 			page 95


 2316              		.loc 1 1261 47 view .LVU709
 2317 0170 039A     		ldr	r2, [sp, #12]
 2318 0172 0498     		ldr	r0, [sp, #16]
 2319              	.LVL252:
1261:Drivers/lvgl/src/widgets/scale/lv_scale.c ****         }
 2320              		.loc 1 1261 47 view .LVU710
 2321 0174 0244     		add	r2, r2, r0
1261:Drivers/lvgl/src/widgets/scale/lv_scale.c ****         }
 2322              		.loc 1 1261 19 view .LVU711
 2323 0176 8A18     		adds	r2, r1, r2
 2324 0178 0692     		str	r2, [sp, #24]
 2325              	.LVL253:
 2326              	.L104:
1278:Drivers/lvgl/src/widgets/scale/lv_scale.c ****             if(is_major_tick) {
 2327              		.loc 1 1278 9 is_stmt 1 view .LVU712
1278:Drivers/lvgl/src/widgets/scale/lv_scale.c ****             if(is_major_tick) {
 2328              		.loc 1 1278 11 is_stmt 0 view .LVU713
 2329 017a 2BB3     		cbz	r3, .L107
1278:Drivers/lvgl/src/widgets/scale/lv_scale.c ****             if(is_major_tick) {
 2330              		.loc 1 1278 58 discriminator 1 view .LVU714
 2331 017c 042B     		cmp	r3, #4
 2332 017e 23D0     		beq	.L107
1288:Drivers/lvgl/src/widgets/scale/lv_scale.c ****         /* NOTE
 2333              		.loc 1 1288 9 is_stmt 1 view .LVU715
1288:Drivers/lvgl/src/widgets/scale/lv_scale.c ****         /* NOTE
 2334              		.loc 1 1288 63 is_stmt 0 view .LVU716
 2335 0180 B9F1000F 		cmp	r9, #0
 2336 0184 25D0     		beq	.L110
1288:Drivers/lvgl/src/widgets/scale/lv_scale.c ****         /* NOTE
 2337              		.loc 1 1288 63 discriminator 1 view .LVU717
 2338 0186 029D     		ldr	r5, [sp, #8]
 2339              	.LVL254:
1288:Drivers/lvgl/src/widgets/scale/lv_scale.c ****         /* NOTE
 2340              		.loc 1 1288 63 discriminator 1 view .LVU718
 2341 0188 23E0     		b	.L110
 2342              	.LVL255:
 2343              	.L126:
1264:Drivers/lvgl/src/widgets/scale/lv_scale.c ****             y_ofs = obj->coords.y1 + (pad_top + tick_pad_top);
 2344              		.loc 1 1264 13 is_stmt 1 view .LVU719
1264:Drivers/lvgl/src/widgets/scale/lv_scale.c ****             y_ofs = obj->coords.y1 + (pad_top + tick_pad_top);
 2345              		.loc 1 1264 32 is_stmt 0 view .LVU720
 2346 018a 6169     		ldr	r1, [r4, #20]
1264:Drivers/lvgl/src/widgets/scale/lv_scale.c ****             y_ofs = obj->coords.y1 + (pad_top + tick_pad_top);
 2347              		.loc 1 1264 52 view .LVU721
 2348 018c 1C9A     		ldr	r2, [sp, #112]
1264:Drivers/lvgl/src/widgets/scale/lv_scale.c ****             y_ofs = obj->coords.y1 + (pad_top + tick_pad_top);
 2349              		.loc 1 1264 59 view .LVU722
 2350 018e 02EBD272 		add	r2, r2, r2, lsr #31
1264:Drivers/lvgl/src/widgets/scale/lv_scale.c ****             y_ofs = obj->coords.y1 + (pad_top + tick_pad_top);
 2351              		.loc 1 1264 36 view .LVU723
 2352 0192 01EB6201 		add	r1, r1, r2, asr #1
1264:Drivers/lvgl/src/widgets/scale/lv_scale.c ****             y_ofs = obj->coords.y1 + (pad_top + tick_pad_top);
 2353              		.loc 1 1264 19 view .LVU724
 2354 0196 01EB0B08 		add	r8, r1, fp
 2355              	.LVL256:
1265:Drivers/lvgl/src/widgets/scale/lv_scale.c ****         }
 2356              		.loc 1 1265 13 is_stmt 1 view .LVU725
ARM GAS  /var/folders/qx/2_175_4n2s19vhvtspjhb3qh0000gn/T//ccmbJJmj.s 			page 96


1265:Drivers/lvgl/src/widgets/scale/lv_scale.c ****         }
 2357              		.loc 1 1265 32 is_stmt 0 view .LVU726
 2358 019a A169     		ldr	r1, [r4, #24]
1265:Drivers/lvgl/src/widgets/scale/lv_scale.c ****         }
 2359              		.loc 1 1265 47 view .LVU727
 2360 019c 039A     		ldr	r2, [sp, #12]
 2361 019e 0498     		ldr	r0, [sp, #16]
 2362              	.LVL257:
1265:Drivers/lvgl/src/widgets/scale/lv_scale.c ****         }
 2363              		.loc 1 1265 47 view .LVU728
 2364 01a0 0244     		add	r2, r2, r0
1265:Drivers/lvgl/src/widgets/scale/lv_scale.c ****         }
 2365              		.loc 1 1265 19 view .LVU729
 2366 01a2 8A18     		adds	r2, r1, r2
 2367 01a4 0692     		str	r2, [sp, #24]
 2368              	.LVL258:
1265:Drivers/lvgl/src/widgets/scale/lv_scale.c ****         }
 2369              		.loc 1 1265 19 view .LVU730
 2370 01a6 E8E7     		b	.L104
 2371              	.LVL259:
 2372              	.L127:
1268:Drivers/lvgl/src/widgets/scale/lv_scale.c ****             y_ofs = obj->coords.y1 + (main_line_dsc.width / 2) + pad_top;
 2373              		.loc 1 1268 13 is_stmt 1 view .LVU731
1268:Drivers/lvgl/src/widgets/scale/lv_scale.c ****             y_ofs = obj->coords.y1 + (main_line_dsc.width / 2) + pad_top;
 2374              		.loc 1 1268 32 is_stmt 0 view .LVU732
 2375 01a8 6169     		ldr	r1, [r4, #20]
1268:Drivers/lvgl/src/widgets/scale/lv_scale.c ****             y_ofs = obj->coords.y1 + (main_line_dsc.width / 2) + pad_top;
 2376              		.loc 1 1268 49 view .LVU733
 2377 01aa 079A     		ldr	r2, [sp, #28]
 2378 01ac 0998     		ldr	r0, [sp, #36]
 2379              	.LVL260:
1268:Drivers/lvgl/src/widgets/scale/lv_scale.c ****             y_ofs = obj->coords.y1 + (main_line_dsc.width / 2) + pad_top;
 2380              		.loc 1 1268 49 view .LVU734
 2381 01ae 0244     		add	r2, r2, r0
1268:Drivers/lvgl/src/widgets/scale/lv_scale.c ****             y_ofs = obj->coords.y1 + (main_line_dsc.width / 2) + pad_top;
 2382              		.loc 1 1268 19 view .LVU735
 2383 01b0 01EB0208 		add	r8, r1, r2
 2384              	.LVL261:
1269:Drivers/lvgl/src/widgets/scale/lv_scale.c ****         }
 2385              		.loc 1 1269 13 is_stmt 1 view .LVU736
1269:Drivers/lvgl/src/widgets/scale/lv_scale.c ****         }
 2386              		.loc 1 1269 32 is_stmt 0 view .LVU737
 2387 01b4 A169     		ldr	r1, [r4, #24]
1269:Drivers/lvgl/src/widgets/scale/lv_scale.c ****         }
 2388              		.loc 1 1269 52 view .LVU738
 2389 01b6 1C9A     		ldr	r2, [sp, #112]
1269:Drivers/lvgl/src/widgets/scale/lv_scale.c ****         }
 2390              		.loc 1 1269 59 view .LVU739
 2391 01b8 02EBD272 		add	r2, r2, r2, lsr #31
1269:Drivers/lvgl/src/widgets/scale/lv_scale.c ****         }
 2392              		.loc 1 1269 36 view .LVU740
 2393 01bc 01EB6201 		add	r1, r1, r2, asr #1
1269:Drivers/lvgl/src/widgets/scale/lv_scale.c ****         }
 2394              		.loc 1 1269 19 view .LVU741
 2395 01c0 039A     		ldr	r2, [sp, #12]
 2396 01c2 8A18     		adds	r2, r1, r2
 2397 01c4 0692     		str	r2, [sp, #24]
ARM GAS  /var/folders/qx/2_175_4n2s19vhvtspjhb3qh0000gn/T//ccmbJJmj.s 			page 97


 2398              	.LVL262:
1269:Drivers/lvgl/src/widgets/scale/lv_scale.c ****         }
 2399              		.loc 1 1269 19 view .LVU742
 2400 01c6 D8E7     		b	.L104
 2401              	.LVL263:
 2402              	.L107:
1279:Drivers/lvgl/src/widgets/scale/lv_scale.c ****                 major_len *= -1;
 2403              		.loc 1 1279 13 is_stmt 1 view .LVU743
1279:Drivers/lvgl/src/widgets/scale/lv_scale.c ****                 major_len *= -1;
 2404              		.loc 1 1279 15 is_stmt 0 view .LVU744
 2405 01c8 B9F1000F 		cmp	r9, #0
 2406 01cc 1BD0     		beq	.L109
1280:Drivers/lvgl/src/widgets/scale/lv_scale.c ****             }
 2407              		.loc 1 1280 17 is_stmt 1 view .LVU745
1280:Drivers/lvgl/src/widgets/scale/lv_scale.c ****             }
 2408              		.loc 1 1280 27 is_stmt 0 view .LVU746
 2409 01ce 029A     		ldr	r2, [sp, #8]
 2410 01d0 5542     		rsbs	r5, r2, #0
 2411              	.LVL264:
1288:Drivers/lvgl/src/widgets/scale/lv_scale.c ****         /* NOTE
 2412              		.loc 1 1288 9 is_stmt 1 view .LVU747
 2413              	.L110:
1293:Drivers/lvgl/src/widgets/scale/lv_scale.c **** 
 2414              		.loc 1 1293 9 view .LVU748
1293:Drivers/lvgl/src/widgets/scale/lv_scale.c **** 
 2415              		.loc 1 1293 46 is_stmt 0 view .LVU749
 2416 01d2 B4F84890 		ldrh	r9, [r4, #72]
 2417              	.LVL265:
1293:Drivers/lvgl/src/widgets/scale/lv_scale.c **** 
 2418              		.loc 1 1293 46 view .LVU750
 2419 01d6 C9F30E09 		ubfx	r9, r9, #0, #15
1293:Drivers/lvgl/src/widgets/scale/lv_scale.c **** 
 2420              		.loc 1 1293 24 view .LVU751
 2421 01da 09F1FF39 		add	r9, r9, #-1
 2422              	.LVL266:
1296:Drivers/lvgl/src/widgets/scale/lv_scale.c ****             /* Vertical position starts at y2 of the scale main line, we start at y2 because the ti
 2423              		.loc 1 1296 9 is_stmt 1 view .LVU752
1296:Drivers/lvgl/src/widgets/scale/lv_scale.c ****             /* Vertical position starts at y2 of the scale main line, we start at y2 because the ti
 2424              		.loc 1 1296 11 is_stmt 0 view .LVU753
 2425 01de 022B     		cmp	r3, #2
 2426 01e0 13D0     		beq	.L111
1296:Drivers/lvgl/src/widgets/scale/lv_scale.c ****             /* Vertical position starts at y2 of the scale main line, we start at y2 because the ti
 2427              		.loc 1 1296 55 discriminator 1 view .LVU754
 2428 01e2 042B     		cmp	r3, #4
 2429 01e4 11D0     		beq	.L111
 2430              	.LBB252:
1319:Drivers/lvgl/src/widgets/scale/lv_scale.c **** 
 2431              		.loc 1 1319 13 is_stmt 1 view .LVU755
 2432              	.LVL267:
1322:Drivers/lvgl/src/widgets/scale/lv_scale.c ****                 horizontal_position = obj->coords.x2 - (pad_left + tick_pad_left);
 2433              		.loc 1 1322 13 view .LVU756
1322:Drivers/lvgl/src/widgets/scale/lv_scale.c ****                 horizontal_position = obj->coords.x2 - (pad_left + tick_pad_left);
 2434              		.loc 1 1322 15 is_stmt 0 view .LVU757
 2435 01e6 4F45     		cmp	r7, r9
 2436 01e8 38D0     		beq	.L128
1326:Drivers/lvgl/src/widgets/scale/lv_scale.c ****                 const int32_t scale_total_width = lv_obj_get_width(obj) - (pad_right + pad_left + t
 2437              		.loc 1 1326 18 is_stmt 1 view .LVU758
ARM GAS  /var/folders/qx/2_175_4n2s19vhvtspjhb3qh0000gn/T//ccmbJJmj.s 			page 98


1326:Drivers/lvgl/src/widgets/scale/lv_scale.c ****                 const int32_t scale_total_width = lv_obj_get_width(obj) - (pad_right + pad_left + t
 2438              		.loc 1 1326 20 is_stmt 0 view .LVU759
 2439 01ea 002F     		cmp	r7, #0
 2440 01ec 3CD1     		bne	.L129
 2441              	.LVL268:
 2442              	.L115:
1331:Drivers/lvgl/src/widgets/scale/lv_scale.c **** 
 2443              		.loc 1 1331 40 is_stmt 1 view .LVU760
1333:Drivers/lvgl/src/widgets/scale/lv_scale.c ****             tick_point_a->y = y_ofs;
 2444              		.loc 1 1333 13 view .LVU761
1333:Drivers/lvgl/src/widgets/scale/lv_scale.c ****             tick_point_a->y = y_ofs;
 2445              		.loc 1 1333 29 is_stmt 0 view .LVU762
 2446 01ee C6F80080 		str	r8, [r6]
1334:Drivers/lvgl/src/widgets/scale/lv_scale.c ****             tick_point_b->x = horizontal_position;
 2447              		.loc 1 1334 13 is_stmt 1 view .LVU763
1334:Drivers/lvgl/src/widgets/scale/lv_scale.c ****             tick_point_b->x = horizontal_position;
 2448              		.loc 1 1334 29 is_stmt 0 view .LVU764
 2449 01f2 069B     		ldr	r3, [sp, #24]
 2450 01f4 7360     		str	r3, [r6, #4]
1335:Drivers/lvgl/src/widgets/scale/lv_scale.c ****             tick_point_b->y = tick_point_a->y + tick_length;
 2451              		.loc 1 1335 13 is_stmt 1 view .LVU765
1335:Drivers/lvgl/src/widgets/scale/lv_scale.c ****             tick_point_b->y = tick_point_a->y + tick_length;
 2452              		.loc 1 1335 29 is_stmt 0 view .LVU766
 2453 01f6 2A9B     		ldr	r3, [sp, #168]
 2454 01f8 C3F80080 		str	r8, [r3]
1336:Drivers/lvgl/src/widgets/scale/lv_scale.c ****         }
 2455              		.loc 1 1336 13 is_stmt 1 view .LVU767
1336:Drivers/lvgl/src/widgets/scale/lv_scale.c ****         }
 2456              		.loc 1 1336 43 is_stmt 0 view .LVU768
 2457 01fc 7368     		ldr	r3, [r6, #4]
1336:Drivers/lvgl/src/widgets/scale/lv_scale.c ****         }
 2458              		.loc 1 1336 47 view .LVU769
 2459 01fe 2B44     		add	r3, r3, r5
1336:Drivers/lvgl/src/widgets/scale/lv_scale.c ****         }
 2460              		.loc 1 1336 29 view .LVU770
 2461 0200 2A9A     		ldr	r2, [sp, #168]
 2462 0202 5360     		str	r3, [r2, #4]
 2463 0204 13E0     		b	.L96
 2464              	.LVL269:
 2465              	.L109:
1336:Drivers/lvgl/src/widgets/scale/lv_scale.c ****         }
 2466              		.loc 1 1336 29 view .LVU771
 2467              	.LBE252:
1283:Drivers/lvgl/src/widgets/scale/lv_scale.c ****             }
 2468              		.loc 1 1283 17 is_stmt 1 view .LVU772
1283:Drivers/lvgl/src/widgets/scale/lv_scale.c ****             }
 2469              		.loc 1 1283 27 is_stmt 0 view .LVU773
 2470 0206 6D42     		rsbs	r5, r5, #0
 2471              	.LVL270:
1288:Drivers/lvgl/src/widgets/scale/lv_scale.c ****         /* NOTE
 2472              		.loc 1 1288 9 is_stmt 1 view .LVU774
 2473 0208 E3E7     		b	.L110
 2474              	.LVL271:
 2475              	.L111:
 2476              	.LBB254:
1298:Drivers/lvgl/src/widgets/scale/lv_scale.c **** 
 2477              		.loc 1 1298 13 view .LVU775
ARM GAS  /var/folders/qx/2_175_4n2s19vhvtspjhb3qh0000gn/T//ccmbJJmj.s 			page 99


1298:Drivers/lvgl/src/widgets/scale/lv_scale.c **** 
 2478              		.loc 1 1298 52 is_stmt 0 view .LVU776
 2479 020a 226A     		ldr	r2, [r4, #32]
1298:Drivers/lvgl/src/widgets/scale/lv_scale.c **** 
 2480              		.loc 1 1298 70 view .LVU777
 2481 020c 059B     		ldr	r3, [sp, #20]
 2482 020e 5344     		add	r3, r10, r3
1298:Drivers/lvgl/src/widgets/scale/lv_scale.c **** 
 2483              		.loc 1 1298 21 view .LVU778
 2484 0210 A2EB030B 		sub	fp, r2, r3
 2485              	.LVL272:
1301:Drivers/lvgl/src/widgets/scale/lv_scale.c ****                 vertical_position = y_ofs;
 2486              		.loc 1 1301 13 is_stmt 1 view .LVU779
1301:Drivers/lvgl/src/widgets/scale/lv_scale.c ****                 vertical_position = y_ofs;
 2487              		.loc 1 1301 15 is_stmt 0 view .LVU780
 2488 0214 4F45     		cmp	r7, r9
 2489 0216 1ED0     		beq	.L122
1305:Drivers/lvgl/src/widgets/scale/lv_scale.c ****                 const int32_t scale_total_height = lv_obj_get_height(obj) - (pad_top + pad_bottom +
 2490              		.loc 1 1305 18 is_stmt 1 view .LVU781
1305:Drivers/lvgl/src/widgets/scale/lv_scale.c ****                 const int32_t scale_total_height = lv_obj_get_height(obj) - (pad_top + pad_bottom +
 2491              		.loc 1 1305 20 is_stmt 0 view .LVU782
 2492 0218 67B9     		cbnz	r7, .L130
 2493              	.LVL273:
 2494              	.L113:
1310:Drivers/lvgl/src/widgets/scale/lv_scale.c **** 
 2495              		.loc 1 1310 40 is_stmt 1 view .LVU783
1312:Drivers/lvgl/src/widgets/scale/lv_scale.c ****             tick_point_a->y = vertical_position;
 2496              		.loc 1 1312 13 view .LVU784
1312:Drivers/lvgl/src/widgets/scale/lv_scale.c ****             tick_point_a->y = vertical_position;
 2497              		.loc 1 1312 37 is_stmt 0 view .LVU785
 2498 021a 08F1FF33 		add	r3, r8, #-1
1312:Drivers/lvgl/src/widgets/scale/lv_scale.c ****             tick_point_a->y = vertical_position;
 2499              		.loc 1 1312 29 view .LVU786
 2500 021e 3360     		str	r3, [r6]
1313:Drivers/lvgl/src/widgets/scale/lv_scale.c ****             tick_point_b->x = tick_point_a->x - tick_length;
 2501              		.loc 1 1313 13 is_stmt 1 view .LVU787
1313:Drivers/lvgl/src/widgets/scale/lv_scale.c ****             tick_point_b->x = tick_point_a->x - tick_length;
 2502              		.loc 1 1313 29 is_stmt 0 view .LVU788
 2503 0220 C6F804B0 		str	fp, [r6, #4]
1314:Drivers/lvgl/src/widgets/scale/lv_scale.c ****             tick_point_b->y = vertical_position;
 2504              		.loc 1 1314 13 is_stmt 1 view .LVU789
1314:Drivers/lvgl/src/widgets/scale/lv_scale.c ****             tick_point_b->y = vertical_position;
 2505              		.loc 1 1314 47 is_stmt 0 view .LVU790
 2506 0224 5B1B     		subs	r3, r3, r5
1314:Drivers/lvgl/src/widgets/scale/lv_scale.c ****             tick_point_b->y = vertical_position;
 2507              		.loc 1 1314 29 view .LVU791
 2508 0226 2A9A     		ldr	r2, [sp, #168]
 2509 0228 1360     		str	r3, [r2]
1315:Drivers/lvgl/src/widgets/scale/lv_scale.c ****         }
 2510              		.loc 1 1315 13 is_stmt 1 view .LVU792
1315:Drivers/lvgl/src/widgets/scale/lv_scale.c ****         }
 2511              		.loc 1 1315 29 is_stmt 0 view .LVU793
 2512 022a C2F804B0 		str	fp, [r2, #4]
 2513              	.LVL274:
 2514              	.L96:
1315:Drivers/lvgl/src/widgets/scale/lv_scale.c ****         }
 2515              		.loc 1 1315 29 view .LVU794
ARM GAS  /var/folders/qx/2_175_4n2s19vhvtspjhb3qh0000gn/T//ccmbJJmj.s 			page 100


 2516              	.LBE254:
 2517              	.LBE233:
1376:Drivers/lvgl/src/widgets/scale/lv_scale.c **** 
 2518              		.loc 1 1376 1 view .LVU795
 2519 022e 21B0     		add	sp, sp, #132
 2520              	.LCFI24:
 2521              		.cfi_remember_state
 2522              		.cfi_def_cfa_offset 36
 2523              		@ sp needed
 2524 0230 BDE8F08F 		pop	{r4, r5, r6, r7, r8, r9, r10, fp, pc}
 2525              	.LVL275:
 2526              	.L130:
 2527              	.LCFI25:
 2528              		.cfi_restore_state
 2529              	.LBB258:
 2530              	.LBB256:
 2531              	.LBB255:
1306:Drivers/lvgl/src/widgets/scale/lv_scale.c ****                 const int32_t offset = ((int32_t) tick_idx * (int32_t) scale_total_height) / (int32
 2532              		.loc 1 1306 17 is_stmt 1 view .LVU796
1306:Drivers/lvgl/src/widgets/scale/lv_scale.c ****                 const int32_t offset = ((int32_t) tick_idx * (int32_t) scale_total_height) / (int32
 2533              		.loc 1 1306 52 is_stmt 0 view .LVU797
 2534 0234 2046     		mov	r0, r4
 2535 0236 FFF7FEFF 		bl	lv_obj_get_height
 2536              	.LVL276:
1306:Drivers/lvgl/src/widgets/scale/lv_scale.c ****                 const int32_t offset = ((int32_t) tick_idx * (int32_t) scale_total_height) / (int32
 2537              		.loc 1 1306 86 discriminator 1 view .LVU798
 2538 023a 039B     		ldr	r3, [sp, #12]
 2539 023c 5344     		add	r3, r3, r10
1306:Drivers/lvgl/src/widgets/scale/lv_scale.c ****                 const int32_t offset = ((int32_t) tick_idx * (int32_t) scale_total_height) / (int32
 2540              		.loc 1 1306 99 discriminator 1 view .LVU799
 2541 023e 049A     		ldr	r2, [sp, #16]
 2542 0240 1344     		add	r3, r3, r2
1306:Drivers/lvgl/src/widgets/scale/lv_scale.c ****                 const int32_t offset = ((int32_t) tick_idx * (int32_t) scale_total_height) / (int32
 2543              		.loc 1 1306 114 discriminator 1 view .LVU800
 2544 0242 059A     		ldr	r2, [sp, #20]
 2545 0244 1344     		add	r3, r3, r2
1306:Drivers/lvgl/src/widgets/scale/lv_scale.c ****                 const int32_t offset = ((int32_t) tick_idx * (int32_t) scale_total_height) / (int32
 2546              		.loc 1 1306 31 discriminator 1 view .LVU801
 2547 0246 C31A     		subs	r3, r0, r3
 2548              	.LVL277:
1307:Drivers/lvgl/src/widgets/scale/lv_scale.c ****                 vertical_position -= offset;
 2549              		.loc 1 1307 17 is_stmt 1 view .LVU802
1307:Drivers/lvgl/src/widgets/scale/lv_scale.c ****                 vertical_position -= offset;
 2550              		.loc 1 1307 60 is_stmt 0 view .LVU803
 2551 0248 07FB03F3 		mul	r3, r7, r3
 2552              	.LVL278:
1307:Drivers/lvgl/src/widgets/scale/lv_scale.c ****                 vertical_position -= offset;
 2553              		.loc 1 1307 31 view .LVU804
 2554 024c 93FBF9F3 		sdiv	r3, r3, r9
 2555              	.LVL279:
1308:Drivers/lvgl/src/widgets/scale/lv_scale.c ****             }
 2556              		.loc 1 1308 17 is_stmt 1 view .LVU805
1308:Drivers/lvgl/src/widgets/scale/lv_scale.c ****             }
 2557              		.loc 1 1308 35 is_stmt 0 view .LVU806
 2558 0250 ABEB030B 		sub	fp, fp, r3
 2559              	.LVL280:
1308:Drivers/lvgl/src/widgets/scale/lv_scale.c ****             }
ARM GAS  /var/folders/qx/2_175_4n2s19vhvtspjhb3qh0000gn/T//ccmbJJmj.s 			page 101


 2560              		.loc 1 1308 35 view .LVU807
 2561              	.LBE255:
 2562 0254 E1E7     		b	.L113
 2563              	.LVL281:
 2564              	.L122:
1302:Drivers/lvgl/src/widgets/scale/lv_scale.c ****             }
 2565              		.loc 1 1302 35 view .LVU808
 2566 0256 DDF818B0 		ldr	fp, [sp, #24]
 2567              	.LVL282:
1302:Drivers/lvgl/src/widgets/scale/lv_scale.c ****             }
 2568              		.loc 1 1302 35 view .LVU809
 2569 025a DEE7     		b	.L113
 2570              	.LVL283:
 2571              	.L128:
1302:Drivers/lvgl/src/widgets/scale/lv_scale.c ****             }
 2572              		.loc 1 1302 35 view .LVU810
 2573              	.LBE256:
 2574              	.LBB257:
1323:Drivers/lvgl/src/widgets/scale/lv_scale.c ****             }
 2575              		.loc 1 1323 17 is_stmt 1 view .LVU811
1323:Drivers/lvgl/src/widgets/scale/lv_scale.c ****             }
 2576              		.loc 1 1323 50 is_stmt 0 view .LVU812
 2577 025c E269     		ldr	r2, [r4, #28]
1323:Drivers/lvgl/src/widgets/scale/lv_scale.c ****             }
 2578              		.loc 1 1323 66 view .LVU813
 2579 025e 089B     		ldr	r3, [sp, #32]
 2580 0260 5B44     		add	r3, r3, fp
1323:Drivers/lvgl/src/widgets/scale/lv_scale.c ****             }
 2581              		.loc 1 1323 37 view .LVU814
 2582 0262 A2EB0308 		sub	r8, r2, r3
 2583              	.LVL284:
1323:Drivers/lvgl/src/widgets/scale/lv_scale.c ****             }
 2584              		.loc 1 1323 37 view .LVU815
 2585 0266 C2E7     		b	.L115
 2586              	.LVL285:
 2587              	.L129:
 2588              	.LBB253:
1327:Drivers/lvgl/src/widgets/scale/lv_scale.c ****                 const int32_t offset = ((int32_t) tick_idx * (int32_t) scale_total_width) / (int32_
 2589              		.loc 1 1327 17 is_stmt 1 view .LVU816
1327:Drivers/lvgl/src/widgets/scale/lv_scale.c ****                 const int32_t offset = ((int32_t) tick_idx * (int32_t) scale_total_width) / (int32_
 2590              		.loc 1 1327 51 is_stmt 0 view .LVU817
 2591 0268 2046     		mov	r0, r4
 2592 026a FFF7FEFF 		bl	lv_obj_get_width
 2593              	.LVL286:
1327:Drivers/lvgl/src/widgets/scale/lv_scale.c ****                 const int32_t offset = ((int32_t) tick_idx * (int32_t) scale_total_width) / (int32_
 2594              		.loc 1 1327 86 discriminator 1 view .LVU818
 2595 026e 079B     		ldr	r3, [sp, #28]
 2596 0270 5B44     		add	r3, r3, fp
1327:Drivers/lvgl/src/widgets/scale/lv_scale.c ****                 const int32_t offset = ((int32_t) tick_idx * (int32_t) scale_total_width) / (int32_
 2597              		.loc 1 1327 97 discriminator 1 view .LVU819
 2598 0272 099A     		ldr	r2, [sp, #36]
 2599 0274 1344     		add	r3, r3, r2
1327:Drivers/lvgl/src/widgets/scale/lv_scale.c ****                 const int32_t offset = ((int32_t) tick_idx * (int32_t) scale_total_width) / (int32_
 2600              		.loc 1 1327 114 discriminator 1 view .LVU820
 2601 0276 089A     		ldr	r2, [sp, #32]
 2602 0278 1344     		add	r3, r3, r2
1327:Drivers/lvgl/src/widgets/scale/lv_scale.c ****                 const int32_t offset = ((int32_t) tick_idx * (int32_t) scale_total_width) / (int32_
ARM GAS  /var/folders/qx/2_175_4n2s19vhvtspjhb3qh0000gn/T//ccmbJJmj.s 			page 102


 2603              		.loc 1 1327 31 discriminator 1 view .LVU821
 2604 027a C31A     		subs	r3, r0, r3
 2605              	.LVL287:
1328:Drivers/lvgl/src/widgets/scale/lv_scale.c ****                 horizontal_position += offset;
 2606              		.loc 1 1328 17 is_stmt 1 view .LVU822
1328:Drivers/lvgl/src/widgets/scale/lv_scale.c ****                 horizontal_position += offset;
 2607              		.loc 1 1328 60 is_stmt 0 view .LVU823
 2608 027c 07FB03F3 		mul	r3, r7, r3
 2609              	.LVL288:
1328:Drivers/lvgl/src/widgets/scale/lv_scale.c ****                 horizontal_position += offset;
 2610              		.loc 1 1328 31 view .LVU824
 2611 0280 93FBF9F3 		sdiv	r3, r3, r9
 2612              	.LVL289:
1329:Drivers/lvgl/src/widgets/scale/lv_scale.c ****             }
 2613              		.loc 1 1329 17 is_stmt 1 view .LVU825
1329:Drivers/lvgl/src/widgets/scale/lv_scale.c ****             }
 2614              		.loc 1 1329 37 is_stmt 0 view .LVU826
 2615 0284 9844     		add	r8, r8, r3
 2616              	.LVL290:
1329:Drivers/lvgl/src/widgets/scale/lv_scale.c ****             }
 2617              		.loc 1 1329 37 view .LVU827
 2618              	.LBE253:
 2619 0286 B2E7     		b	.L115
 2620              	.LVL291:
 2621              	.L100:
1329:Drivers/lvgl/src/widgets/scale/lv_scale.c ****             }
 2622              		.loc 1 1329 37 view .LVU828
 2623              	.LBE257:
 2624              	.LBE258:
 2625              	.LBB259:
1340:Drivers/lvgl/src/widgets/scale/lv_scale.c ****         lv_obj_get_content_coords(obj, &scale_area);
 2626              		.loc 1 1340 9 is_stmt 1 view .LVU829
1341:Drivers/lvgl/src/widgets/scale/lv_scale.c **** 
 2627              		.loc 1 1341 9 view .LVU830
 2628 0288 0DF1300B 		add	fp, sp, #48
 2629 028c 5946     		mov	r1, fp
 2630 028e 2046     		mov	r0, r4
 2631 0290 FFF7FEFF 		bl	lv_obj_get_content_coords
 2632              	.LVL292:
1344:Drivers/lvgl/src/widgets/scale/lv_scale.c ****         const int32_t radius_edge = LV_MIN(lv_area_get_width(&scale_area) / 2, lv_area_get_height(&
 2633              		.loc 1 1344 9 view .LVU831
1345:Drivers/lvgl/src/widgets/scale/lv_scale.c ****         center_point.x = scale_area.x1 + radius_edge;
 2634              		.loc 1 1345 9 view .LVU832
1345:Drivers/lvgl/src/widgets/scale/lv_scale.c ****         center_point.x = scale_area.x1 + radius_edge;
 2635              		.loc 1 1345 37 is_stmt 0 view .LVU833
 2636 0294 5846     		mov	r0, fp
 2637 0296 FFF7FEFF 		bl	lv_area_get_width
 2638              	.LVL293:
1345:Drivers/lvgl/src/widgets/scale/lv_scale.c ****         center_point.x = scale_area.x1 + radius_edge;
 2639              		.loc 1 1345 37 discriminator 1 view .LVU834
 2640 029a 00EBD070 		add	r0, r0, r0, lsr #31
 2641 029e 4FEA600A 		asr	r10, r0, #1
 2642 02a2 5846     		mov	r0, fp
 2643 02a4 FFF7FEFF 		bl	lv_area_get_height
 2644              	.LVL294:
1345:Drivers/lvgl/src/widgets/scale/lv_scale.c ****         center_point.x = scale_area.x1 + radius_edge;
 2645              		.loc 1 1345 37 discriminator 2 view .LVU835
ARM GAS  /var/folders/qx/2_175_4n2s19vhvtspjhb3qh0000gn/T//ccmbJJmj.s 			page 103


 2646 02a8 00EBD070 		add	r0, r0, r0, lsr #31
 2647 02ac BAEB600F 		cmp	r10, r0, asr #1
 2648 02b0 4CDA     		bge	.L116
1345:Drivers/lvgl/src/widgets/scale/lv_scale.c ****         center_point.x = scale_area.x1 + radius_edge;
 2649              		.loc 1 1345 37 discriminator 1 view .LVU836
 2650 02b2 5846     		mov	r0, fp
 2651 02b4 FFF7FEFF 		bl	lv_area_get_width
 2652              	.LVL295:
 2653 02b8 00EBD070 		add	r0, r0, r0, lsr #31
 2654 02bc 4310     		asrs	r3, r0, #1
 2655              	.L117:
 2656              	.LVL296:
1346:Drivers/lvgl/src/widgets/scale/lv_scale.c ****         center_point.y = scale_area.y1 + radius_edge;
 2657              		.loc 1 1346 9 is_stmt 1 view .LVU837
1346:Drivers/lvgl/src/widgets/scale/lv_scale.c ****         center_point.y = scale_area.y1 + radius_edge;
 2658              		.loc 1 1346 36 is_stmt 0 view .LVU838
 2659 02be 0C99     		ldr	r1, [sp, #48]
1346:Drivers/lvgl/src/widgets/scale/lv_scale.c ****         center_point.y = scale_area.y1 + radius_edge;
 2660              		.loc 1 1346 40 view .LVU839
 2661 02c0 1944     		add	r1, r1, r3
1346:Drivers/lvgl/src/widgets/scale/lv_scale.c ****         center_point.y = scale_area.y1 + radius_edge;
 2662              		.loc 1 1346 24 view .LVU840
 2663 02c2 0A91     		str	r1, [sp, #40]
1347:Drivers/lvgl/src/widgets/scale/lv_scale.c **** 
 2664              		.loc 1 1347 9 is_stmt 1 view .LVU841
1347:Drivers/lvgl/src/widgets/scale/lv_scale.c **** 
 2665              		.loc 1 1347 36 is_stmt 0 view .LVU842
 2666 02c4 0D9A     		ldr	r2, [sp, #52]
1347:Drivers/lvgl/src/widgets/scale/lv_scale.c **** 
 2667              		.loc 1 1347 40 view .LVU843
 2668 02c6 1A44     		add	r2, r2, r3
1347:Drivers/lvgl/src/widgets/scale/lv_scale.c **** 
 2669              		.loc 1 1347 24 view .LVU844
 2670 02c8 0B92     		str	r2, [sp, #44]
1349:Drivers/lvgl/src/widgets/scale/lv_scale.c ****         angle_upscale += scale->rotation * 10;
 2671              		.loc 1 1349 9 is_stmt 1 view .LVU845
1349:Drivers/lvgl/src/widgets/scale/lv_scale.c ****         angle_upscale += scale->rotation * 10;
 2672              		.loc 1 1349 60 is_stmt 0 view .LVU846
 2673 02ca 226D     		ldr	r2, [r4, #80]
1349:Drivers/lvgl/src/widgets/scale/lv_scale.c ****         angle_upscale += scale->rotation * 10;
 2674              		.loc 1 1349 53 view .LVU847
 2675 02cc 07FB02F2 		mul	r2, r7, r2
1349:Drivers/lvgl/src/widgets/scale/lv_scale.c ****         angle_upscale += scale->rotation * 10;
 2676              		.loc 1 1349 75 view .LVU848
 2677 02d0 02EB8207 		add	r7, r2, r2, lsl #2
 2678              	.LVL297:
1349:Drivers/lvgl/src/widgets/scale/lv_scale.c ****         angle_upscale += scale->rotation * 10;
 2679              		.loc 1 1349 75 view .LVU849
 2680 02d4 7F00     		lsls	r7, r7, #1
1349:Drivers/lvgl/src/widgets/scale/lv_scale.c ****         angle_upscale += scale->rotation * 10;
 2681              		.loc 1 1349 90 view .LVU850
 2682 02d6 B4F84820 		ldrh	r2, [r4, #72]
 2683 02da C2F30E02 		ubfx	r2, r2, #0, #15
1349:Drivers/lvgl/src/widgets/scale/lv_scale.c ****         angle_upscale += scale->rotation * 10;
 2684              		.loc 1 1349 109 view .LVU851
 2685 02de 013A     		subs	r2, r2, #1
1349:Drivers/lvgl/src/widgets/scale/lv_scale.c ****         angle_upscale += scale->rotation * 10;
ARM GAS  /var/folders/qx/2_175_4n2s19vhvtspjhb3qh0000gn/T//ccmbJJmj.s 			page 104


 2686              		.loc 1 1349 82 view .LVU852
 2687 02e0 B7FBF2F7 		udiv	r7, r7, r2
 2688              	.LVL298:
1350:Drivers/lvgl/src/widgets/scale/lv_scale.c **** 
 2689              		.loc 1 1350 9 is_stmt 1 view .LVU853
1350:Drivers/lvgl/src/widgets/scale/lv_scale.c **** 
 2690              		.loc 1 1350 31 is_stmt 0 view .LVU854
 2691 02e4 626D     		ldr	r2, [r4, #84]
1350:Drivers/lvgl/src/widgets/scale/lv_scale.c **** 
 2692              		.loc 1 1350 42 view .LVU855
 2693 02e6 02EB8202 		add	r2, r2, r2, lsl #2
1350:Drivers/lvgl/src/widgets/scale/lv_scale.c **** 
 2694              		.loc 1 1350 23 view .LVU856
 2695 02ea 07EB4207 		add	r7, r7, r2, lsl #1
 2696              	.LVL299:
1355:Drivers/lvgl/src/widgets/scale/lv_scale.c ****         int32_t adjusted_radio_with_tick_len = 0;
 2697              		.loc 1 1355 9 is_stmt 1 view .LVU857
1356:Drivers/lvgl/src/widgets/scale/lv_scale.c ****         if(LV_SCALE_MODE_ROUND_INNER == scale->mode) {
 2698              		.loc 1 1356 9 view .LVU858
1357:Drivers/lvgl/src/widgets/scale/lv_scale.c ****             point_closer_to_arc = radius_edge - main_line_dsc.width;
 2699              		.loc 1 1357 9 view .LVU859
1357:Drivers/lvgl/src/widgets/scale/lv_scale.c ****             point_closer_to_arc = radius_edge - main_line_dsc.width;
 2700              		.loc 1 1357 46 is_stmt 0 view .LVU860
 2701 02ee 94F83C20 		ldrb	r2, [r4, #60]	@ zero_extendqisi2
1357:Drivers/lvgl/src/widgets/scale/lv_scale.c ****             point_closer_to_arc = radius_edge - main_line_dsc.width;
 2702              		.loc 1 1357 11 view .LVU861
 2703 02f2 082A     		cmp	r2, #8
 2704 02f4 31D0     		beq	.L131
1363:Drivers/lvgl/src/widgets/scale/lv_scale.c ****             adjusted_radio_with_tick_len = point_closer_to_arc + (is_major_tick ? major_len : minor
 2705              		.loc 1 1363 13 is_stmt 1 view .LVU862
1363:Drivers/lvgl/src/widgets/scale/lv_scale.c ****             adjusted_radio_with_tick_len = point_closer_to_arc + (is_major_tick ? major_len : minor
 2706              		.loc 1 1363 62 is_stmt 0 view .LVU863
 2707 02f6 1C9A     		ldr	r2, [sp, #112]
1363:Drivers/lvgl/src/widgets/scale/lv_scale.c ****             adjusted_radio_with_tick_len = point_closer_to_arc + (is_major_tick ? major_len : minor
 2708              		.loc 1 1363 33 view .LVU864
 2709 02f8 9B1A     		subs	r3, r3, r2
 2710              	.LVL300:
1364:Drivers/lvgl/src/widgets/scale/lv_scale.c ****         }
 2711              		.loc 1 1364 13 is_stmt 1 view .LVU865
1364:Drivers/lvgl/src/widgets/scale/lv_scale.c ****         }
 2712              		.loc 1 1364 93 is_stmt 0 view .LVU866
 2713 02fa B9F1000F 		cmp	r9, #0
 2714 02fe 00D0     		beq	.L121
1364:Drivers/lvgl/src/widgets/scale/lv_scale.c ****         }
 2715              		.loc 1 1364 93 discriminator 1 view .LVU867
 2716 0300 029D     		ldr	r5, [sp, #8]
 2717              	.LVL301:
 2718              	.L121:
1364:Drivers/lvgl/src/widgets/scale/lv_scale.c ****         }
 2719              		.loc 1 1364 42 discriminator 4 view .LVU868
 2720 0302 1D44     		add	r5, r5, r3
 2721              	.LVL302:
 2722              	.L120:
1367:Drivers/lvgl/src/widgets/scale/lv_scale.c ****         tick_point_a->y = center_point.y;
 2723              		.loc 1 1367 9 is_stmt 1 view .LVU869
1367:Drivers/lvgl/src/widgets/scale/lv_scale.c ****         tick_point_a->y = center_point.y;
 2724              		.loc 1 1367 42 is_stmt 0 view .LVU870
ARM GAS  /var/folders/qx/2_175_4n2s19vhvtspjhb3qh0000gn/T//ccmbJJmj.s 			page 105


 2725 0304 1944     		add	r1, r1, r3
1367:Drivers/lvgl/src/widgets/scale/lv_scale.c ****         tick_point_a->y = center_point.y;
 2726              		.loc 1 1367 64 view .LVU871
 2727 0306 4144     		add	r1, r1, r8
1367:Drivers/lvgl/src/widgets/scale/lv_scale.c ****         tick_point_a->y = center_point.y;
 2728              		.loc 1 1367 25 view .LVU872
 2729 0308 3160     		str	r1, [r6]
1368:Drivers/lvgl/src/widgets/scale/lv_scale.c ****         lv_point_transform(tick_point_a, angle_upscale, LV_SCALE_NONE, LV_SCALE_NONE, &center_point
 2730              		.loc 1 1368 9 is_stmt 1 view .LVU873
1368:Drivers/lvgl/src/widgets/scale/lv_scale.c ****         lv_point_transform(tick_point_a, angle_upscale, LV_SCALE_NONE, LV_SCALE_NONE, &center_point
 2731              		.loc 1 1368 39 is_stmt 0 view .LVU874
 2732 030a 0B9B     		ldr	r3, [sp, #44]
 2733              	.LVL303:
1368:Drivers/lvgl/src/widgets/scale/lv_scale.c ****         lv_point_transform(tick_point_a, angle_upscale, LV_SCALE_NONE, LV_SCALE_NONE, &center_point
 2734              		.loc 1 1368 25 view .LVU875
 2735 030c 7360     		str	r3, [r6, #4]
1369:Drivers/lvgl/src/widgets/scale/lv_scale.c **** 
 2736              		.loc 1 1369 9 is_stmt 1 view .LVU876
 2737 030e 4FF00009 		mov	r9, #0
 2738 0312 CDF80490 		str	r9, [sp, #4]
 2739 0316 0AAC     		add	r4, sp, #40
 2740              	.LVL304:
1369:Drivers/lvgl/src/widgets/scale/lv_scale.c **** 
 2741              		.loc 1 1369 9 is_stmt 0 view .LVU877
 2742 0318 0094     		str	r4, [sp]
 2743 031a 4FF48073 		mov	r3, #256
 2744 031e 1A46     		mov	r2, r3
 2745 0320 3946     		mov	r1, r7
 2746 0322 3046     		mov	r0, r6
 2747 0324 FFF7FEFF 		bl	lv_point_transform
 2748              	.LVL305:
1371:Drivers/lvgl/src/widgets/scale/lv_scale.c ****         tick_point_b->y = center_point.y;
 2749              		.loc 1 1371 9 is_stmt 1 view .LVU878
1371:Drivers/lvgl/src/widgets/scale/lv_scale.c ****         tick_point_b->y = center_point.y;
 2750              		.loc 1 1371 39 is_stmt 0 view .LVU879
 2751 0328 0A9B     		ldr	r3, [sp, #40]
1371:Drivers/lvgl/src/widgets/scale/lv_scale.c ****         tick_point_b->y = center_point.y;
 2752              		.loc 1 1371 42 view .LVU880
 2753 032a 2B44     		add	r3, r3, r5
1371:Drivers/lvgl/src/widgets/scale/lv_scale.c ****         tick_point_b->y = center_point.y;
 2754              		.loc 1 1371 73 view .LVU881
 2755 032c 4344     		add	r3, r3, r8
1371:Drivers/lvgl/src/widgets/scale/lv_scale.c ****         tick_point_b->y = center_point.y;
 2756              		.loc 1 1371 25 view .LVU882
 2757 032e 2A9A     		ldr	r2, [sp, #168]
 2758 0330 1360     		str	r3, [r2]
1372:Drivers/lvgl/src/widgets/scale/lv_scale.c ****         lv_point_transform(tick_point_b, angle_upscale, LV_SCALE_NONE, LV_SCALE_NONE, &center_point
 2759              		.loc 1 1372 9 is_stmt 1 view .LVU883
1372:Drivers/lvgl/src/widgets/scale/lv_scale.c ****         lv_point_transform(tick_point_b, angle_upscale, LV_SCALE_NONE, LV_SCALE_NONE, &center_point
 2760              		.loc 1 1372 39 is_stmt 0 view .LVU884
 2761 0332 0B9B     		ldr	r3, [sp, #44]
1372:Drivers/lvgl/src/widgets/scale/lv_scale.c ****         lv_point_transform(tick_point_b, angle_upscale, LV_SCALE_NONE, LV_SCALE_NONE, &center_point
 2762              		.loc 1 1372 25 view .LVU885
 2763 0334 5360     		str	r3, [r2, #4]
1373:Drivers/lvgl/src/widgets/scale/lv_scale.c ****     }
 2764              		.loc 1 1373 9 is_stmt 1 view .LVU886
 2765 0336 CDF80490 		str	r9, [sp, #4]
ARM GAS  /var/folders/qx/2_175_4n2s19vhvtspjhb3qh0000gn/T//ccmbJJmj.s 			page 106


 2766 033a 0094     		str	r4, [sp]
 2767 033c 4FF48073 		mov	r3, #256
 2768 0340 1A46     		mov	r2, r3
 2769 0342 3946     		mov	r1, r7
 2770 0344 2A98     		ldr	r0, [sp, #168]
 2771 0346 FFF7FEFF 		bl	lv_point_transform
 2772              	.LVL306:
 2773              	.LBE259:
1376:Drivers/lvgl/src/widgets/scale/lv_scale.c **** 
 2774              		.loc 1 1376 1 is_stmt 0 view .LVU887
 2775 034a 70E7     		b	.L96
 2776              	.LVL307:
 2777              	.L116:
 2778              	.LBB260:
1345:Drivers/lvgl/src/widgets/scale/lv_scale.c ****         center_point.x = scale_area.x1 + radius_edge;
 2779              		.loc 1 1345 37 discriminator 2 view .LVU888
 2780 034c 0CA8     		add	r0, sp, #48
 2781 034e FFF7FEFF 		bl	lv_area_get_height
 2782              	.LVL308:
1345:Drivers/lvgl/src/widgets/scale/lv_scale.c ****         center_point.x = scale_area.x1 + radius_edge;
 2783              		.loc 1 1345 37 discriminator 1 view .LVU889
 2784 0352 00EBD070 		add	r0, r0, r0, lsr #31
 2785 0356 4310     		asrs	r3, r0, #1
 2786 0358 B1E7     		b	.L117
 2787              	.LVL309:
 2788              	.L131:
1358:Drivers/lvgl/src/widgets/scale/lv_scale.c ****             adjusted_radio_with_tick_len = point_closer_to_arc - (is_major_tick ? major_len : minor
 2789              		.loc 1 1358 13 is_stmt 1 view .LVU890
1358:Drivers/lvgl/src/widgets/scale/lv_scale.c ****             adjusted_radio_with_tick_len = point_closer_to_arc - (is_major_tick ? major_len : minor
 2790              		.loc 1 1358 62 is_stmt 0 view .LVU891
 2791 035a 1C9A     		ldr	r2, [sp, #112]
1358:Drivers/lvgl/src/widgets/scale/lv_scale.c ****             adjusted_radio_with_tick_len = point_closer_to_arc - (is_major_tick ? major_len : minor
 2792              		.loc 1 1358 33 view .LVU892
 2793 035c 9B1A     		subs	r3, r3, r2
 2794              	.LVL310:
1359:Drivers/lvgl/src/widgets/scale/lv_scale.c ****         }
 2795              		.loc 1 1359 13 is_stmt 1 view .LVU893
1359:Drivers/lvgl/src/widgets/scale/lv_scale.c ****         }
 2796              		.loc 1 1359 93 is_stmt 0 view .LVU894
 2797 035e B9F1000F 		cmp	r9, #0
 2798 0362 00D0     		beq	.L119
1359:Drivers/lvgl/src/widgets/scale/lv_scale.c ****         }
 2799              		.loc 1 1359 93 discriminator 1 view .LVU895
 2800 0364 029D     		ldr	r5, [sp, #8]
 2801              	.LVL311:
 2802              	.L119:
1359:Drivers/lvgl/src/widgets/scale/lv_scale.c ****         }
 2803              		.loc 1 1359 42 discriminator 4 view .LVU896
 2804 0366 5D1B     		subs	r5, r3, r5
 2805              	.LVL312:
1359:Drivers/lvgl/src/widgets/scale/lv_scale.c ****         }
 2806              		.loc 1 1359 42 discriminator 4 view .LVU897
 2807 0368 CCE7     		b	.L120
 2808              	.LBE260:
 2809              		.cfi_endproc
 2810              	.LFE226:
 2812              		.section	.text.scale_calculate_main_compensation,"ax",%progbits
ARM GAS  /var/folders/qx/2_175_4n2s19vhvtspjhb3qh0000gn/T//ccmbJJmj.s 			page 107


 2813              		.align	1
 2814              		.syntax unified
 2815              		.thumb
 2816              		.thumb_func
 2818              	scale_calculate_main_compensation:
 2819              	.LVL313:
 2820              	.LFB223:
 958:Drivers/lvgl/src/widgets/scale/lv_scale.c ****     lv_scale_t * scale = (lv_scale_t *)obj;
 2821              		.loc 1 958 1 is_stmt 1 view -0
 2822              		.cfi_startproc
 2823              		@ args = 0, pretend = 0, frame = 144
 2824              		@ frame_needed = 0, uses_anonymous_args = 0
 958:Drivers/lvgl/src/widgets/scale/lv_scale.c ****     lv_scale_t * scale = (lv_scale_t *)obj;
 2825              		.loc 1 958 1 is_stmt 0 view .LVU899
 2826 0000 2DE9F047 		push	{r4, r5, r6, r7, r8, r9, r10, lr}
 2827              	.LCFI26:
 2828              		.cfi_def_cfa_offset 32
 2829              		.cfi_offset 4, -32
 2830              		.cfi_offset 5, -28
 2831              		.cfi_offset 6, -24
 2832              		.cfi_offset 7, -20
 2833              		.cfi_offset 8, -16
 2834              		.cfi_offset 9, -12
 2835              		.cfi_offset 10, -8
 2836              		.cfi_offset 14, -4
 2837 0004 A8B0     		sub	sp, sp, #160
 2838              	.LCFI27:
 2839              		.cfi_def_cfa_offset 192
 959:Drivers/lvgl/src/widgets/scale/lv_scale.c **** 
 2840              		.loc 1 959 5 is_stmt 1 view .LVU900
 2841              	.LVL314:
 961:Drivers/lvgl/src/widgets/scale/lv_scale.c **** 
 2842              		.loc 1 961 5 view .LVU901
 961:Drivers/lvgl/src/widgets/scale/lv_scale.c **** 
 2843              		.loc 1 961 44 is_stmt 0 view .LVU902
 2844 0006 B0F848A0 		ldrh	r10, [r0, #72]
 2845 000a CAF30E0A 		ubfx	r10, r10, #0, #15
 2846              	.LVL315:
 963:Drivers/lvgl/src/widgets/scale/lv_scale.c ****     /* Not supported in round modes */
 2847              		.loc 1 963 5 is_stmt 1 view .LVU903
 963:Drivers/lvgl/src/widgets/scale/lv_scale.c ****     /* Not supported in round modes */
 2848              		.loc 1 963 7 is_stmt 0 view .LVU904
 2849 000e BAF1010F 		cmp	r10, #1
 2850 0012 7DD9     		bls	.L132
 2851 0014 0546     		mov	r5, r0
 965:Drivers/lvgl/src/widgets/scale/lv_scale.c **** 
 2852              		.loc 1 965 5 is_stmt 1 view .LVU905
 965:Drivers/lvgl/src/widgets/scale/lv_scale.c **** 
 2853              		.loc 1 965 42 is_stmt 0 view .LVU906
 2854 0016 90F83C30 		ldrb	r3, [r0, #60]	@ zero_extendqisi2
 965:Drivers/lvgl/src/widgets/scale/lv_scale.c **** 
 2855              		.loc 1 965 7 view .LVU907
 2856 001a 102B     		cmp	r3, #16
 2857 001c 78D0     		beq	.L132
 965:Drivers/lvgl/src/widgets/scale/lv_scale.c **** 
 2858              		.loc 1 965 49 discriminator 2 view .LVU908
 2859 001e 082B     		cmp	r3, #8
ARM GAS  /var/folders/qx/2_175_4n2s19vhvtspjhb3qh0000gn/T//ccmbJJmj.s 			page 108


 2860 0020 76D0     		beq	.L132
 968:Drivers/lvgl/src/widgets/scale/lv_scale.c ****     lv_draw_line_dsc_init(&major_tick_dsc);
 2861              		.loc 1 968 5 is_stmt 1 view .LVU909
 969:Drivers/lvgl/src/widgets/scale/lv_scale.c ****     lv_obj_init_draw_line_dsc(obj, LV_PART_INDICATOR, &major_tick_dsc);
 2862              		.loc 1 969 5 view .LVU910
 2863 0022 18AC     		add	r4, sp, #96
 2864 0024 2046     		mov	r0, r4
 2865              	.LVL316:
 969:Drivers/lvgl/src/widgets/scale/lv_scale.c ****     lv_obj_init_draw_line_dsc(obj, LV_PART_INDICATOR, &major_tick_dsc);
 2866              		.loc 1 969 5 is_stmt 0 view .LVU911
 2867 0026 FFF7FEFF 		bl	lv_draw_line_dsc_init
 2868              	.LVL317:
 970:Drivers/lvgl/src/widgets/scale/lv_scale.c **** 
 2869              		.loc 1 970 5 is_stmt 1 view .LVU912
 2870 002a 2246     		mov	r2, r4
 2871 002c 4FF40031 		mov	r1, #131072
 2872 0030 2846     		mov	r0, r5
 2873 0032 FFF7FEFF 		bl	lv_obj_init_draw_line_dsc
 2874              	.LVL318:
 973:Drivers/lvgl/src/widgets/scale/lv_scale.c ****     lv_draw_line_dsc_init(&minor_tick_dsc);
 2875              		.loc 1 973 5 view .LVU913
 974:Drivers/lvgl/src/widgets/scale/lv_scale.c ****     lv_obj_init_draw_line_dsc(obj, LV_PART_ITEMS, &minor_tick_dsc);
 2876              		.loc 1 974 5 view .LVU914
 2877 0036 08AC     		add	r4, sp, #32
 2878 0038 2046     		mov	r0, r4
 2879 003a FFF7FEFF 		bl	lv_draw_line_dsc_init
 2880              	.LVL319:
 975:Drivers/lvgl/src/widgets/scale/lv_scale.c **** 
 2881              		.loc 1 975 5 view .LVU915
 2882 003e 2246     		mov	r2, r4
 2883 0040 4FF4A021 		mov	r1, #327680
 2884 0044 2846     		mov	r0, r5
 2885 0046 FFF7FEFF 		bl	lv_obj_init_draw_line_dsc
 2886              	.LVL320:
 977:Drivers/lvgl/src/widgets/scale/lv_scale.c ****     for(tick_idx = 0; tick_idx < total_tick_count; tick_idx++) {
 2887              		.loc 1 977 5 view .LVU916
 978:Drivers/lvgl/src/widgets/scale/lv_scale.c **** 
 2888              		.loc 1 978 5 view .LVU917
 978:Drivers/lvgl/src/widgets/scale/lv_scale.c **** 
 2889              		.loc 1 978 18 is_stmt 0 view .LVU918
 2890 004a 4FF00008 		mov	r8, #0
 978:Drivers/lvgl/src/widgets/scale/lv_scale.c **** 
 2891              		.loc 1 978 5 view .LVU919
 2892 004e 47E0     		b	.L134
 2893              	.LVL321:
 2894              	.L137:
 2895              	.LBB261:
 992:Drivers/lvgl/src/widgets/scale/lv_scale.c ****                 }
 2896              		.loc 1 992 21 is_stmt 1 view .LVU920
 2897 0050 4FF4A023 		mov	r3, #327680
 2898 0054 A268     		ldr	r2, [r4, #8]
 2899 0056 08A9     		add	r1, sp, #32
 2900 0058 2846     		mov	r0, r5
 2901 005a FFF7FEFF 		bl	scale_set_line_properties
 2902              	.LVL322:
 2903 005e 21E0     		b	.L138
 2904              	.L136:
ARM GAS  /var/folders/qx/2_175_4n2s19vhvtspjhb3qh0000gn/T//ccmbJJmj.s 			page 109


 998:Drivers/lvgl/src/widgets/scale/lv_scale.c ****                 lv_obj_init_draw_line_dsc(obj, LV_PART_ITEMS, &minor_tick_dsc);
 2905              		.loc 1 998 17 view .LVU921
 2906 0060 18AA     		add	r2, sp, #96
 2907 0062 4FF40031 		mov	r1, #131072
 2908 0066 2846     		mov	r0, r5
 2909 0068 FFF7FEFF 		bl	lv_obj_init_draw_line_dsc
 2910              	.LVL323:
 999:Drivers/lvgl/src/widgets/scale/lv_scale.c ****             }
 2911              		.loc 1 999 17 view .LVU922
 2912 006c 08AA     		add	r2, sp, #32
 2913 006e 4FF4A021 		mov	r1, #327680
 2914 0072 2846     		mov	r0, r5
 2915 0074 FFF7FEFF 		bl	lv_obj_init_draw_line_dsc
 2916              	.LVL324:
 986:Drivers/lvgl/src/widgets/scale/lv_scale.c ****             if(section->range_min <= tick_value && section->range_max >= tick_value) {
 2917              		.loc 1 986 9 discriminator 2 view .LVU923
 2918 0078 2146     		mov	r1, r4
 2919 007a 3846     		mov	r0, r7
 2920 007c FFF7FEFF 		bl	lv_ll_get_prev
 2921              	.LVL325:
 2922 0080 0446     		mov	r4, r0
 2923              	.LVL326:
 2924              	.L135:
 986:Drivers/lvgl/src/widgets/scale/lv_scale.c ****             if(section->range_min <= tick_value && section->range_max >= tick_value) {
 2925              		.loc 1 986 9 discriminator 1 view .LVU924
 2926 0082 7CB1     		cbz	r4, .L138
 987:Drivers/lvgl/src/widgets/scale/lv_scale.c ****                 if(is_major_tick) {
 2927              		.loc 1 987 13 view .LVU925
 987:Drivers/lvgl/src/widgets/scale/lv_scale.c ****                 if(is_major_tick) {
 2928              		.loc 1 987 23 is_stmt 0 view .LVU926
 2929 0084 E368     		ldr	r3, [r4, #12]
 987:Drivers/lvgl/src/widgets/scale/lv_scale.c ****                 if(is_major_tick) {
 2930              		.loc 1 987 15 view .LVU927
 2931 0086 B342     		cmp	r3, r6
 2932 0088 EADC     		bgt	.L136
 987:Drivers/lvgl/src/widgets/scale/lv_scale.c ****                 if(is_major_tick) {
 2933              		.loc 1 987 59 discriminator 1 view .LVU928
 2934 008a 2369     		ldr	r3, [r4, #16]
 987:Drivers/lvgl/src/widgets/scale/lv_scale.c ****                 if(is_major_tick) {
 2935              		.loc 1 987 49 discriminator 1 view .LVU929
 2936 008c B342     		cmp	r3, r6
 2937 008e E7DB     		blt	.L136
 988:Drivers/lvgl/src/widgets/scale/lv_scale.c ****                     scale_set_line_properties(obj, &major_tick_dsc, section->indicator_style, LV_PA
 2938              		.loc 1 988 17 is_stmt 1 view .LVU930
 988:Drivers/lvgl/src/widgets/scale/lv_scale.c ****                     scale_set_line_properties(obj, &major_tick_dsc, section->indicator_style, LV_PA
 2939              		.loc 1 988 19 is_stmt 0 view .LVU931
 2940 0090 B9F1000F 		cmp	r9, #0
 2941 0094 DCD0     		beq	.L137
 989:Drivers/lvgl/src/widgets/scale/lv_scale.c ****                 }
 2942              		.loc 1 989 21 is_stmt 1 view .LVU932
 2943 0096 4FF40033 		mov	r3, #131072
 2944 009a 6268     		ldr	r2, [r4, #4]
 2945 009c 18A9     		add	r1, sp, #96
 2946 009e 2846     		mov	r0, r5
 2947 00a0 FFF7FEFF 		bl	scale_set_line_properties
 2948              	.LVL327:
 2949              	.L138:
ARM GAS  /var/folders/qx/2_175_4n2s19vhvtspjhb3qh0000gn/T//ccmbJJmj.s 			page 110


1004:Drivers/lvgl/src/widgets/scale/lv_scale.c ****         lv_point_t tick_point_b;
 2950              		.loc 1 1004 9 view .LVU933
1005:Drivers/lvgl/src/widgets/scale/lv_scale.c ****         scale_get_tick_points(obj, tick_idx, is_major_tick, &tick_point_a, &tick_point_b);
 2951              		.loc 1 1005 9 view .LVU934
1006:Drivers/lvgl/src/widgets/scale/lv_scale.c **** 
 2952              		.loc 1 1006 9 view .LVU935
 2953 00a4 04AC     		add	r4, sp, #16
 2954              	.LVL328:
1006:Drivers/lvgl/src/widgets/scale/lv_scale.c **** 
 2955              		.loc 1 1006 9 is_stmt 0 view .LVU936
 2956 00a6 06AB     		add	r3, sp, #24
 2957 00a8 0093     		str	r3, [sp]
 2958 00aa 2346     		mov	r3, r4
 2959 00ac 4A46     		mov	r2, r9
 2960 00ae 4146     		mov	r1, r8
 2961 00b0 2846     		mov	r0, r5
 2962 00b2 FFF7FEFF 		bl	scale_get_tick_points
 2963              	.LVL329:
1009:Drivers/lvgl/src/widgets/scale/lv_scale.c ****         /* Store the first and last section tick vertical/horizontal position */
 2964              		.loc 1 1009 9 is_stmt 1 view .LVU937
 2965 00b6 149B     		ldr	r3, [sp, #80]
 2966 00b8 0093     		str	r3, [sp]
 2967 00ba 249B     		ldr	r3, [sp, #144]
 2968 00bc 4A46     		mov	r2, r9
 2969 00be 4146     		mov	r1, r8
 2970 00c0 2846     		mov	r0, r5
 2971 00c2 FFF7FEFF 		bl	scale_store_main_line_tick_width_compensation
 2972              	.LVL330:
1011:Drivers/lvgl/src/widgets/scale/lv_scale.c ****                                                          tick_value, tick_idx, &tick_point_a);
 2973              		.loc 1 1011 9 view .LVU938
 2974 00c6 0294     		str	r4, [sp, #8]
 2975 00c8 5FFA88F3 		uxtb	r3, r8
 2976 00cc 0193     		str	r3, [sp, #4]
 2977 00ce 0096     		str	r6, [sp]
 2978 00d0 08AB     		add	r3, sp, #32
 2979 00d2 18AA     		add	r2, sp, #96
 2980 00d4 4946     		mov	r1, r9
 2981 00d6 2846     		mov	r0, r5
 2982 00d8 FFF7FEFF 		bl	scale_store_section_line_tick_width_compensation
 2983              	.LVL331:
 2984              	.LBE261:
 978:Drivers/lvgl/src/widgets/scale/lv_scale.c **** 
 2985              		.loc 1 978 60 discriminator 2 view .LVU939
 2986 00dc 08F10108 		add	r8, r8, #1
 2987              	.LVL332:
 2988              	.L134:
 978:Drivers/lvgl/src/widgets/scale/lv_scale.c **** 
 2989              		.loc 1 978 32 discriminator 1 view .LVU940
 2990 00e0 D045     		cmp	r8, r10
 2991 00e2 15D2     		bcs	.L132
 2992              	.LBB262:
 980:Drivers/lvgl/src/widgets/scale/lv_scale.c **** 
 2993              		.loc 1 980 9 view .LVU941
 980:Drivers/lvgl/src/widgets/scale/lv_scale.c **** 
 2994              		.loc 1 980 36 is_stmt 0 view .LVU942
 2995 00e4 4146     		mov	r1, r8
 2996 00e6 2846     		mov	r0, r5
ARM GAS  /var/folders/qx/2_175_4n2s19vhvtspjhb3qh0000gn/T//ccmbJJmj.s 			page 111


 2997 00e8 FFF7FEFF 		bl	scale_is_major_tick
 2998              	.LVL333:
 2999 00ec 8146     		mov	r9, r0
 3000              	.LVL334:
 982:Drivers/lvgl/src/widgets/scale/lv_scale.c **** 
 3001              		.loc 1 982 9 is_stmt 1 view .LVU943
 982:Drivers/lvgl/src/widgets/scale/lv_scale.c **** 
 3002              		.loc 1 982 36 is_stmt 0 view .LVU944
 3003 00ee 6B6C     		ldr	r3, [r5, #68]
 3004 00f0 0093     		str	r3, [sp]
 3005 00f2 2B6C     		ldr	r3, [r5, #64]
 3006 00f4 0AF1FF32 		add	r2, r10, #-1
 3007 00f8 0021     		movs	r1, #0
 3008 00fa 4046     		mov	r0, r8
 3009 00fc FFF7FEFF 		bl	lv_map
 3010              	.LVL335:
 3011 0100 0646     		mov	r6, r0
 3012              	.LVL336:
 985:Drivers/lvgl/src/widgets/scale/lv_scale.c ****         LV_LL_READ_BACK(&scale->section_ll, section) {
 3013              		.loc 1 985 9 is_stmt 1 view .LVU945
 986:Drivers/lvgl/src/widgets/scale/lv_scale.c ****             if(section->range_min <= tick_value && section->range_max >= tick_value) {
 3014              		.loc 1 986 9 view .LVU946
 3015 0102 05F12C07 		add	r7, r5, #44
 3016 0106 3846     		mov	r0, r7
 3017              	.LVL337:
 986:Drivers/lvgl/src/widgets/scale/lv_scale.c ****             if(section->range_min <= tick_value && section->range_max >= tick_value) {
 3018              		.loc 1 986 9 is_stmt 0 view .LVU947
 3019 0108 FFF7FEFF 		bl	lv_ll_get_tail
 3020              	.LVL338:
 3021 010c 0446     		mov	r4, r0
 3022              	.LVL339:
 986:Drivers/lvgl/src/widgets/scale/lv_scale.c ****             if(section->range_min <= tick_value && section->range_max >= tick_value) {
 3023              		.loc 1 986 9 view .LVU948
 3024 010e B8E7     		b	.L135
 3025              	.LVL340:
 3026              	.L132:
 986:Drivers/lvgl/src/widgets/scale/lv_scale.c ****             if(section->range_min <= tick_value && section->range_max >= tick_value) {
 3027              		.loc 1 986 9 view .LVU949
 3028              	.LBE262:
1014:Drivers/lvgl/src/widgets/scale/lv_scale.c **** 
 3029              		.loc 1 1014 1 view .LVU950
 3030 0110 28B0     		add	sp, sp, #160
 3031              	.LCFI28:
 3032              		.cfi_def_cfa_offset 32
 3033              		@ sp needed
 3034 0112 BDE8F087 		pop	{r4, r5, r6, r7, r8, r9, r10, pc}
1014:Drivers/lvgl/src/widgets/scale/lv_scale.c **** 
 3035              		.loc 1 1014 1 view .LVU951
 3036              		.cfi_endproc
 3037              	.LFE223:
 3039              		.section	.text.scale_get_label_coords,"ax",%progbits
 3040              		.align	1
 3041              		.syntax unified
 3042              		.thumb
 3043              		.thumb_func
 3045              	scale_get_label_coords:
 3046              	.LVL341:
ARM GAS  /var/folders/qx/2_175_4n2s19vhvtspjhb3qh0000gn/T//ccmbJJmj.s 			page 112


 3047              	.LFB227:
1388:Drivers/lvgl/src/widgets/scale/lv_scale.c ****     lv_scale_t * scale = (lv_scale_t *)obj;
 3048              		.loc 1 1388 1 is_stmt 1 view -0
 3049              		.cfi_startproc
 3050              		@ args = 0, pretend = 0, frame = 32
 3051              		@ frame_needed = 0, uses_anonymous_args = 0
1388:Drivers/lvgl/src/widgets/scale/lv_scale.c ****     lv_scale_t * scale = (lv_scale_t *)obj;
 3052              		.loc 1 1388 1 is_stmt 0 view .LVU953
 3053 0000 F0B5     		push	{r4, r5, r6, r7, lr}
 3054              	.LCFI29:
 3055              		.cfi_def_cfa_offset 20
 3056              		.cfi_offset 4, -20
 3057              		.cfi_offset 5, -16
 3058              		.cfi_offset 6, -12
 3059              		.cfi_offset 7, -8
 3060              		.cfi_offset 14, -4
 3061 0002 89B0     		sub	sp, sp, #36
 3062              	.LCFI30:
 3063              		.cfi_def_cfa_offset 56
 3064 0004 0446     		mov	r4, r0
 3065 0006 8C46     		mov	ip, r1
 3066 0008 1646     		mov	r6, r2
 3067 000a 1D46     		mov	r5, r3
1389:Drivers/lvgl/src/widgets/scale/lv_scale.c **** 
 3068              		.loc 1 1389 5 is_stmt 1 view .LVU954
 3069              	.LVL342:
1391:Drivers/lvgl/src/widgets/scale/lv_scale.c ****     attributes.letter_space = label_dsc->letter_space;
 3070              		.loc 1 1391 5 view .LVU955
1391:Drivers/lvgl/src/widgets/scale/lv_scale.c ****     attributes.letter_space = label_dsc->letter_space;
 3071              		.loc 1 1391 26 is_stmt 0 view .LVU956
 3072 000c 0021     		movs	r1, #0
 3073              	.LVL343:
1391:Drivers/lvgl/src/widgets/scale/lv_scale.c ****     attributes.letter_space = label_dsc->letter_space;
 3074              		.loc 1 1391 26 view .LVU957
 3075 000e 0491     		str	r1, [sp, #16]
 3076 0010 0591     		str	r1, [sp, #20]
 3077 0012 0691     		str	r1, [sp, #24]
 3078 0014 0791     		str	r1, [sp, #28]
1392:Drivers/lvgl/src/widgets/scale/lv_scale.c ****     attributes.line_space = label_dsc->line_space;
 3079              		.loc 1 1392 5 is_stmt 1 view .LVU958
1392:Drivers/lvgl/src/widgets/scale/lv_scale.c ****     attributes.line_space = label_dsc->line_space;
 3080              		.loc 1 1392 40 is_stmt 0 view .LVU959
 3081 0016 DCF83430 		ldr	r3, [ip, #52]
 3082              	.LVL344:
1392:Drivers/lvgl/src/widgets/scale/lv_scale.c ****     attributes.line_space = label_dsc->line_space;
 3083              		.loc 1 1392 29 view .LVU960
 3084 001a 0493     		str	r3, [sp, #16]
1393:Drivers/lvgl/src/widgets/scale/lv_scale.c ****     attributes.max_width = LV_COORD_MAX;
 3085              		.loc 1 1393 5 is_stmt 1 view .LVU961
1393:Drivers/lvgl/src/widgets/scale/lv_scale.c ****     attributes.max_width = LV_COORD_MAX;
 3086              		.loc 1 1393 38 is_stmt 0 view .LVU962
 3087 001c DCF83030 		ldr	r3, [ip, #48]
1393:Drivers/lvgl/src/widgets/scale/lv_scale.c ****     attributes.max_width = LV_COORD_MAX;
 3088              		.loc 1 1393 27 view .LVU963
 3089 0020 0593     		str	r3, [sp, #20]
1394:Drivers/lvgl/src/widgets/scale/lv_scale.c ****     attributes.text_flags = LV_TEXT_FLAG_NONE;
 3090              		.loc 1 1394 5 is_stmt 1 view .LVU964
ARM GAS  /var/folders/qx/2_175_4n2s19vhvtspjhb3qh0000gn/T//ccmbJJmj.s 			page 113


1394:Drivers/lvgl/src/widgets/scale/lv_scale.c ****     attributes.text_flags = LV_TEXT_FLAG_NONE;
 3091              		.loc 1 1394 26 is_stmt 0 view .LVU965
 3092 0022 6FF06043 		mvn	r3, #-536870912
 3093 0026 0693     		str	r3, [sp, #24]
1395:Drivers/lvgl/src/widgets/scale/lv_scale.c **** 
 3094              		.loc 1 1395 5 is_stmt 1 view .LVU966
1398:Drivers/lvgl/src/widgets/scale/lv_scale.c **** 
 3095              		.loc 1 1398 5 view .LVU967
1400:Drivers/lvgl/src/widgets/scale/lv_scale.c ****         lv_text_get_size_attributes(&label_size, label_dsc->text, label_dsc->font, &attributes);
 3096              		.loc 1 1400 5 view .LVU968
1400:Drivers/lvgl/src/widgets/scale/lv_scale.c ****         lv_text_get_size_attributes(&label_size, label_dsc->text, label_dsc->font, &attributes);
 3097              		.loc 1 1400 17 is_stmt 0 view .LVU969
 3098 0028 DCF81C10 		ldr	r1, [ip, #28]
1400:Drivers/lvgl/src/widgets/scale/lv_scale.c ****         lv_text_get_size_attributes(&label_size, label_dsc->text, label_dsc->font, &attributes);
 3099              		.loc 1 1400 7 view .LVU970
 3100 002c A9B1     		cbz	r1, .L144
1401:Drivers/lvgl/src/widgets/scale/lv_scale.c ****     }
 3101              		.loc 1 1401 9 is_stmt 1 view .LVU971
 3102 002e 04AB     		add	r3, sp, #16
 3103 0030 DCF82820 		ldr	r2, [ip, #40]
 3104              	.LVL345:
1401:Drivers/lvgl/src/widgets/scale/lv_scale.c ****     }
 3105              		.loc 1 1401 9 is_stmt 0 view .LVU972
 3106 0034 02A8     		add	r0, sp, #8
 3107              	.LVL346:
1401:Drivers/lvgl/src/widgets/scale/lv_scale.c ****     }
 3108              		.loc 1 1401 9 view .LVU973
 3109 0036 FFF7FEFF 		bl	lv_text_get_size_attributes
 3110              	.LVL347:
 3111              	.L145:
1409:Drivers/lvgl/src/widgets/scale/lv_scale.c ****         label_coords->x1 = tick_point->x - (label_size.x / 2);
 3112              		.loc 1 1409 5 is_stmt 1 view .LVU974
1409:Drivers/lvgl/src/widgets/scale/lv_scale.c ****         label_coords->x1 = tick_point->x - (label_size.x / 2);
 3113              		.loc 1 1409 49 is_stmt 0 view .LVU975
 3114 003a 94F83C30 		ldrb	r3, [r4, #60]	@ zero_extendqisi2
 3115 003e 102B     		cmp	r3, #16
 3116 0040 00F28980 		bhi	.L143
 3117 0044 DFE803F0 		tbb	[pc, r3]
 3118              	.L148:
 3119 0048 0D       		.byte	(.L150-.L148)/2
 3120 0049 0D       		.byte	(.L150-.L148)/2
 3121 004a 38       		.byte	(.L149-.L148)/2
 3122 004b 87       		.byte	(.L143-.L148)/2
 3123 004c 38       		.byte	(.L149-.L148)/2
 3124 004d 87       		.byte	(.L143-.L148)/2
 3125 004e 87       		.byte	(.L143-.L148)/2
 3126 004f 87       		.byte	(.L143-.L148)/2
 3127 0050 75       		.byte	(.L147-.L148)/2
 3128 0051 87       		.byte	(.L143-.L148)/2
 3129 0052 87       		.byte	(.L143-.L148)/2
 3130 0053 87       		.byte	(.L143-.L148)/2
 3131 0054 87       		.byte	(.L143-.L148)/2
 3132 0055 87       		.byte	(.L143-.L148)/2
 3133 0056 87       		.byte	(.L143-.L148)/2
 3134 0057 87       		.byte	(.L143-.L148)/2
 3135 0058 75       		.byte	(.L147-.L148)/2
 3136              	.LVL348:
ARM GAS  /var/folders/qx/2_175_4n2s19vhvtspjhb3qh0000gn/T//ccmbJJmj.s 			page 114


 3137 0059 00       		.p2align 1
 3138              	.L144:
1404:Drivers/lvgl/src/widgets/scale/lv_scale.c ****         label_size.y = 0;
 3139              		.loc 1 1404 9 is_stmt 1 view .LVU976
1404:Drivers/lvgl/src/widgets/scale/lv_scale.c ****         label_size.y = 0;
 3140              		.loc 1 1404 22 is_stmt 0 view .LVU977
 3141 005a 0023     		movs	r3, #0
 3142 005c 0293     		str	r3, [sp, #8]
1405:Drivers/lvgl/src/widgets/scale/lv_scale.c ****     }
 3143              		.loc 1 1405 9 is_stmt 1 view .LVU978
1405:Drivers/lvgl/src/widgets/scale/lv_scale.c ****     }
 3144              		.loc 1 1405 22 is_stmt 0 view .LVU979
 3145 005e 0393     		str	r3, [sp, #12]
 3146 0060 EBE7     		b	.L145
 3147              	.LVL349:
 3148              	.L150:
1410:Drivers/lvgl/src/widgets/scale/lv_scale.c ****         label_coords->x2 = tick_point->x + (label_size.x / 2);
 3149              		.loc 1 1410 9 is_stmt 1 view .LVU980
1410:Drivers/lvgl/src/widgets/scale/lv_scale.c ****         label_coords->x2 = tick_point->x + (label_size.x / 2);
 3150              		.loc 1 1410 38 is_stmt 0 view .LVU981
 3151 0062 3268     		ldr	r2, [r6]
1410:Drivers/lvgl/src/widgets/scale/lv_scale.c ****         label_coords->x2 = tick_point->x + (label_size.x / 2);
 3152              		.loc 1 1410 55 view .LVU982
 3153 0064 029B     		ldr	r3, [sp, #8]
1410:Drivers/lvgl/src/widgets/scale/lv_scale.c ****         label_coords->x2 = tick_point->x + (label_size.x / 2);
 3154              		.loc 1 1410 58 view .LVU983
 3155 0066 03EBD373 		add	r3, r3, r3, lsr #31
1410:Drivers/lvgl/src/widgets/scale/lv_scale.c ****         label_coords->x2 = tick_point->x + (label_size.x / 2);
 3156              		.loc 1 1410 42 view .LVU984
 3157 006a A2EB6302 		sub	r2, r2, r3, asr #1
1410:Drivers/lvgl/src/widgets/scale/lv_scale.c ****         label_coords->x2 = tick_point->x + (label_size.x / 2);
 3158              		.loc 1 1410 26 view .LVU985
 3159 006e 2A60     		str	r2, [r5]
1411:Drivers/lvgl/src/widgets/scale/lv_scale.c **** 
 3160              		.loc 1 1411 9 is_stmt 1 view .LVU986
1411:Drivers/lvgl/src/widgets/scale/lv_scale.c **** 
 3161              		.loc 1 1411 38 is_stmt 0 view .LVU987
 3162 0070 3268     		ldr	r2, [r6]
1411:Drivers/lvgl/src/widgets/scale/lv_scale.c **** 
 3163              		.loc 1 1411 42 view .LVU988
 3164 0072 02EB6302 		add	r2, r2, r3, asr #1
1411:Drivers/lvgl/src/widgets/scale/lv_scale.c **** 
 3165              		.loc 1 1411 26 view .LVU989
 3166 0076 AA60     		str	r2, [r5, #8]
1413:Drivers/lvgl/src/widgets/scale/lv_scale.c ****             label_coords->y1 = tick_point->y + lv_obj_get_style_pad_bottom(obj, LV_PART_INDICATOR);
 3167              		.loc 1 1413 9 is_stmt 1 view .LVU990
1413:Drivers/lvgl/src/widgets/scale/lv_scale.c ****             label_coords->y1 = tick_point->y + lv_obj_get_style_pad_bottom(obj, LV_PART_INDICATOR);
 3168              		.loc 1 1413 52 is_stmt 0 view .LVU991
 3169 0078 94F83C30 		ldrb	r3, [r4, #60]	@ zero_extendqisi2
1413:Drivers/lvgl/src/widgets/scale/lv_scale.c ****             label_coords->y1 = tick_point->y + lv_obj_get_style_pad_bottom(obj, LV_PART_INDICATOR);
 3170              		.loc 1 1413 11 view .LVU992
 3171 007c 012B     		cmp	r3, #1
 3172 007e 0DD0     		beq	.L155
1418:Drivers/lvgl/src/widgets/scale/lv_scale.c ****             label_coords->y1 = label_coords->y2 - label_size.y;
 3173              		.loc 1 1418 13 is_stmt 1 view .LVU993
1418:Drivers/lvgl/src/widgets/scale/lv_scale.c ****             label_coords->y1 = label_coords->y2 - label_size.y;
 3174              		.loc 1 1418 42 is_stmt 0 view .LVU994
ARM GAS  /var/folders/qx/2_175_4n2s19vhvtspjhb3qh0000gn/T//ccmbJJmj.s 			page 115


 3175 0080 7668     		ldr	r6, [r6, #4]
 3176              	.LVL350:
 3177              	.LBB263:
 3178              	.LBI263:
 154:Drivers/lvgl/src/widgets/scale/../../core/lv_obj_style_gen.h **** {
 3179              		.loc 2 154 23 is_stmt 1 view .LVU995
 3180              	.LBB264:
 156:Drivers/lvgl/src/widgets/scale/../../core/lv_obj_style_gen.h ****     return (int32_t)v.num;
 3181              		.loc 2 156 5 view .LVU996
 156:Drivers/lvgl/src/widgets/scale/../../core/lv_obj_style_gen.h ****     return (int32_t)v.num;
 3182              		.loc 2 156 26 is_stmt 0 view .LVU997
 3183 0082 1022     		movs	r2, #16
 3184 0084 4FF40031 		mov	r1, #131072
 3185 0088 2046     		mov	r0, r4
 3186 008a FFF7FEFF 		bl	lv_obj_get_style_prop
 3187              	.LVL351:
 3188 008e 0190     		str	r0, [sp, #4]
 157:Drivers/lvgl/src/widgets/scale/../../core/lv_obj_style_gen.h **** }
 3189              		.loc 2 157 5 is_stmt 1 view .LVU998
 3190              	.LVL352:
 157:Drivers/lvgl/src/widgets/scale/../../core/lv_obj_style_gen.h **** }
 3191              		.loc 2 157 5 is_stmt 0 view .LVU999
 3192              	.LBE264:
 3193              	.LBE263:
1418:Drivers/lvgl/src/widgets/scale/lv_scale.c ****             label_coords->y1 = label_coords->y2 - label_size.y;
 3194              		.loc 1 1418 46 discriminator 1 view .LVU1000
 3195 0090 331A     		subs	r3, r6, r0
1418:Drivers/lvgl/src/widgets/scale/lv_scale.c ****             label_coords->y1 = label_coords->y2 - label_size.y;
 3196              		.loc 1 1418 30 discriminator 1 view .LVU1001
 3197 0092 EB60     		str	r3, [r5, #12]
1419:Drivers/lvgl/src/widgets/scale/lv_scale.c ****         }
 3198              		.loc 1 1419 13 is_stmt 1 view .LVU1002
1419:Drivers/lvgl/src/widgets/scale/lv_scale.c ****         }
 3199              		.loc 1 1419 61 is_stmt 0 view .LVU1003
 3200 0094 039A     		ldr	r2, [sp, #12]
1419:Drivers/lvgl/src/widgets/scale/lv_scale.c ****         }
 3201              		.loc 1 1419 49 view .LVU1004
 3202 0096 9B1A     		subs	r3, r3, r2
1419:Drivers/lvgl/src/widgets/scale/lv_scale.c ****         }
 3203              		.loc 1 1419 30 view .LVU1005
 3204 0098 6B60     		str	r3, [r5, #4]
 3205 009a 5CE0     		b	.L143
 3206              	.LVL353:
 3207              	.L155:
1414:Drivers/lvgl/src/widgets/scale/lv_scale.c ****             label_coords->y2 = label_coords->y1 + label_size.y;
 3208              		.loc 1 1414 13 is_stmt 1 view .LVU1006
1414:Drivers/lvgl/src/widgets/scale/lv_scale.c ****             label_coords->y2 = label_coords->y1 + label_size.y;
 3209              		.loc 1 1414 42 is_stmt 0 view .LVU1007
 3210 009c 7668     		ldr	r6, [r6, #4]
 3211              	.LVL354:
 3212              	.LBB265:
 3213              	.LBI265:
 160:Drivers/lvgl/src/widgets/scale/../../core/lv_obj_style_gen.h **** {
 3214              		.loc 2 160 23 is_stmt 1 view .LVU1008
 3215              	.LBB266:
 162:Drivers/lvgl/src/widgets/scale/../../core/lv_obj_style_gen.h ****     return (int32_t)v.num;
 3216              		.loc 2 162 5 view .LVU1009
ARM GAS  /var/folders/qx/2_175_4n2s19vhvtspjhb3qh0000gn/T//ccmbJJmj.s 			page 116


 162:Drivers/lvgl/src/widgets/scale/../../core/lv_obj_style_gen.h ****     return (int32_t)v.num;
 3217              		.loc 2 162 26 is_stmt 0 view .LVU1010
 3218 009e 1122     		movs	r2, #17
 3219 00a0 4FF40031 		mov	r1, #131072
 3220 00a4 2046     		mov	r0, r4
 3221 00a6 FFF7FEFF 		bl	lv_obj_get_style_prop
 3222              	.LVL355:
 3223 00aa 0190     		str	r0, [sp, #4]
 163:Drivers/lvgl/src/widgets/scale/../../core/lv_obj_style_gen.h **** }
 3224              		.loc 2 163 5 is_stmt 1 view .LVU1011
 3225              	.LVL356:
 163:Drivers/lvgl/src/widgets/scale/../../core/lv_obj_style_gen.h **** }
 3226              		.loc 2 163 5 is_stmt 0 view .LVU1012
 3227              	.LBE266:
 3228              	.LBE265:
1414:Drivers/lvgl/src/widgets/scale/lv_scale.c ****             label_coords->y2 = label_coords->y1 + label_size.y;
 3229              		.loc 1 1414 46 discriminator 1 view .LVU1013
 3230 00ac 3318     		adds	r3, r6, r0
1414:Drivers/lvgl/src/widgets/scale/lv_scale.c ****             label_coords->y2 = label_coords->y1 + label_size.y;
 3231              		.loc 1 1414 30 discriminator 1 view .LVU1014
 3232 00ae 6B60     		str	r3, [r5, #4]
1415:Drivers/lvgl/src/widgets/scale/lv_scale.c ****         }
 3233              		.loc 1 1415 13 is_stmt 1 view .LVU1015
1415:Drivers/lvgl/src/widgets/scale/lv_scale.c ****         }
 3234              		.loc 1 1415 61 is_stmt 0 view .LVU1016
 3235 00b0 039A     		ldr	r2, [sp, #12]
1415:Drivers/lvgl/src/widgets/scale/lv_scale.c ****         }
 3236              		.loc 1 1415 49 view .LVU1017
 3237 00b2 1344     		add	r3, r3, r2
1415:Drivers/lvgl/src/widgets/scale/lv_scale.c ****         }
 3238              		.loc 1 1415 30 view .LVU1018
 3239 00b4 EB60     		str	r3, [r5, #12]
 3240 00b6 4EE0     		b	.L143
 3241              	.LVL357:
 3242              	.L149:
1423:Drivers/lvgl/src/widgets/scale/lv_scale.c ****         label_coords->y2 = tick_point->y + (label_size.y / 2);
 3243              		.loc 1 1423 9 is_stmt 1 view .LVU1019
1423:Drivers/lvgl/src/widgets/scale/lv_scale.c ****         label_coords->y2 = tick_point->y + (label_size.y / 2);
 3244              		.loc 1 1423 38 is_stmt 0 view .LVU1020
 3245 00b8 7268     		ldr	r2, [r6, #4]
1423:Drivers/lvgl/src/widgets/scale/lv_scale.c ****         label_coords->y2 = tick_point->y + (label_size.y / 2);
 3246              		.loc 1 1423 55 view .LVU1021
 3247 00ba 039B     		ldr	r3, [sp, #12]
1423:Drivers/lvgl/src/widgets/scale/lv_scale.c ****         label_coords->y2 = tick_point->y + (label_size.y / 2);
 3248              		.loc 1 1423 58 view .LVU1022
 3249 00bc 03EBD373 		add	r3, r3, r3, lsr #31
1423:Drivers/lvgl/src/widgets/scale/lv_scale.c ****         label_coords->y2 = tick_point->y + (label_size.y / 2);
 3250              		.loc 1 1423 42 view .LVU1023
 3251 00c0 A2EB6302 		sub	r2, r2, r3, asr #1
1423:Drivers/lvgl/src/widgets/scale/lv_scale.c ****         label_coords->y2 = tick_point->y + (label_size.y / 2);
 3252              		.loc 1 1423 26 view .LVU1024
 3253 00c4 6A60     		str	r2, [r5, #4]
1424:Drivers/lvgl/src/widgets/scale/lv_scale.c **** 
 3254              		.loc 1 1424 9 is_stmt 1 view .LVU1025
1424:Drivers/lvgl/src/widgets/scale/lv_scale.c **** 
 3255              		.loc 1 1424 38 is_stmt 0 view .LVU1026
 3256 00c6 7268     		ldr	r2, [r6, #4]
ARM GAS  /var/folders/qx/2_175_4n2s19vhvtspjhb3qh0000gn/T//ccmbJJmj.s 			page 117


1424:Drivers/lvgl/src/widgets/scale/lv_scale.c **** 
 3257              		.loc 1 1424 42 view .LVU1027
 3258 00c8 02EB6302 		add	r2, r2, r3, asr #1
1424:Drivers/lvgl/src/widgets/scale/lv_scale.c **** 
 3259              		.loc 1 1424 26 view .LVU1028
 3260 00cc EA60     		str	r2, [r5, #12]
1426:Drivers/lvgl/src/widgets/scale/lv_scale.c ****             label_coords->x1 = tick_point->x - label_size.x - lv_obj_get_style_pad_left(obj, LV_PAR
 3261              		.loc 1 1426 9 is_stmt 1 view .LVU1029
1426:Drivers/lvgl/src/widgets/scale/lv_scale.c ****             label_coords->x1 = tick_point->x - label_size.x - lv_obj_get_style_pad_left(obj, LV_PAR
 3262              		.loc 1 1426 48 is_stmt 0 view .LVU1030
 3263 00ce 94F83C30 		ldrb	r3, [r4, #60]	@ zero_extendqisi2
1426:Drivers/lvgl/src/widgets/scale/lv_scale.c ****             label_coords->x1 = tick_point->x - label_size.x - lv_obj_get_style_pad_left(obj, LV_PAR
 3264              		.loc 1 1426 11 view .LVU1031
 3265 00d2 022B     		cmp	r3, #2
 3266 00d4 16D0     		beq	.L156
1431:Drivers/lvgl/src/widgets/scale/lv_scale.c ****             label_coords->x2 = tick_point->x + label_size.x + lv_obj_get_style_pad_right(obj, LV_PA
 3267              		.loc 1 1431 13 is_stmt 1 view .LVU1032
1431:Drivers/lvgl/src/widgets/scale/lv_scale.c ****             label_coords->x2 = tick_point->x + label_size.x + lv_obj_get_style_pad_right(obj, LV_PA
 3268              		.loc 1 1431 42 is_stmt 0 view .LVU1033
 3269 00d6 3768     		ldr	r7, [r6]
 3270              	.LVL358:
 3271              	.LBB267:
 3272              	.LBI267:
 172:Drivers/lvgl/src/widgets/scale/../../core/lv_obj_style_gen.h **** {
 3273              		.loc 2 172 23 is_stmt 1 view .LVU1034
 3274              	.LBB268:
 174:Drivers/lvgl/src/widgets/scale/../../core/lv_obj_style_gen.h ****     return (int32_t)v.num;
 3275              		.loc 2 174 5 view .LVU1035
 174:Drivers/lvgl/src/widgets/scale/../../core/lv_obj_style_gen.h ****     return (int32_t)v.num;
 3276              		.loc 2 174 26 is_stmt 0 view .LVU1036
 3277 00d8 1322     		movs	r2, #19
 3278 00da 4FF40031 		mov	r1, #131072
 3279 00de 2046     		mov	r0, r4
 3280 00e0 FFF7FEFF 		bl	lv_obj_get_style_prop
 3281              	.LVL359:
 3282 00e4 0190     		str	r0, [sp, #4]
 175:Drivers/lvgl/src/widgets/scale/../../core/lv_obj_style_gen.h **** }
 3283              		.loc 2 175 5 is_stmt 1 view .LVU1037
 3284              	.LVL360:
 175:Drivers/lvgl/src/widgets/scale/../../core/lv_obj_style_gen.h **** }
 3285              		.loc 2 175 5 is_stmt 0 view .LVU1038
 3286              	.LBE268:
 3287              	.LBE267:
1431:Drivers/lvgl/src/widgets/scale/lv_scale.c ****             label_coords->x2 = tick_point->x + label_size.x + lv_obj_get_style_pad_right(obj, LV_PA
 3288              		.loc 1 1431 46 discriminator 1 view .LVU1039
 3289 00e6 0744     		add	r7, r7, r0
1431:Drivers/lvgl/src/widgets/scale/lv_scale.c ****             label_coords->x2 = tick_point->x + label_size.x + lv_obj_get_style_pad_right(obj, LV_PA
 3290              		.loc 1 1431 30 discriminator 1 view .LVU1040
 3291 00e8 2F60     		str	r7, [r5]
1432:Drivers/lvgl/src/widgets/scale/lv_scale.c ****         }
 3292              		.loc 1 1432 13 is_stmt 1 view .LVU1041
1432:Drivers/lvgl/src/widgets/scale/lv_scale.c ****         }
 3293              		.loc 1 1432 42 is_stmt 0 view .LVU1042
 3294 00ea 3668     		ldr	r6, [r6]
 3295              	.LVL361:
1432:Drivers/lvgl/src/widgets/scale/lv_scale.c ****         }
 3296              		.loc 1 1432 58 view .LVU1043
ARM GAS  /var/folders/qx/2_175_4n2s19vhvtspjhb3qh0000gn/T//ccmbJJmj.s 			page 118


 3297 00ec 029B     		ldr	r3, [sp, #8]
1432:Drivers/lvgl/src/widgets/scale/lv_scale.c ****         }
 3298              		.loc 1 1432 46 view .LVU1044
 3299 00ee 1E44     		add	r6, r6, r3
 3300              	.LVL362:
 3301              	.LBB269:
 3302              	.LBI269:
 172:Drivers/lvgl/src/widgets/scale/../../core/lv_obj_style_gen.h **** {
 3303              		.loc 2 172 23 is_stmt 1 view .LVU1045
 3304              	.LBB270:
 174:Drivers/lvgl/src/widgets/scale/../../core/lv_obj_style_gen.h ****     return (int32_t)v.num;
 3305              		.loc 2 174 5 view .LVU1046
 174:Drivers/lvgl/src/widgets/scale/../../core/lv_obj_style_gen.h ****     return (int32_t)v.num;
 3306              		.loc 2 174 26 is_stmt 0 view .LVU1047
 3307 00f0 1322     		movs	r2, #19
 3308 00f2 4FF40031 		mov	r1, #131072
 3309 00f6 2046     		mov	r0, r4
 3310 00f8 FFF7FEFF 		bl	lv_obj_get_style_prop
 3311              	.LVL363:
 3312 00fc 0190     		str	r0, [sp, #4]
 175:Drivers/lvgl/src/widgets/scale/../../core/lv_obj_style_gen.h **** }
 3313              		.loc 2 175 5 is_stmt 1 view .LVU1048
 3314              	.LVL364:
 175:Drivers/lvgl/src/widgets/scale/../../core/lv_obj_style_gen.h **** }
 3315              		.loc 2 175 5 is_stmt 0 view .LVU1049
 3316              	.LBE270:
 3317              	.LBE269:
1432:Drivers/lvgl/src/widgets/scale/lv_scale.c ****         }
 3318              		.loc 1 1432 61 discriminator 1 view .LVU1050
 3319 00fe 0644     		add	r6, r6, r0
1432:Drivers/lvgl/src/widgets/scale/lv_scale.c ****         }
 3320              		.loc 1 1432 30 discriminator 1 view .LVU1051
 3321 0100 AE60     		str	r6, [r5, #8]
 3322 0102 28E0     		b	.L143
 3323              	.LVL365:
 3324              	.L156:
1427:Drivers/lvgl/src/widgets/scale/lv_scale.c ****             label_coords->x2 = tick_point->x - lv_obj_get_style_pad_left(obj, LV_PART_INDICATOR);
 3325              		.loc 1 1427 13 is_stmt 1 view .LVU1052
1427:Drivers/lvgl/src/widgets/scale/lv_scale.c ****             label_coords->x2 = tick_point->x - lv_obj_get_style_pad_left(obj, LV_PART_INDICATOR);
 3326              		.loc 1 1427 42 is_stmt 0 view .LVU1053
 3327 0104 3768     		ldr	r7, [r6]
1427:Drivers/lvgl/src/widgets/scale/lv_scale.c ****             label_coords->x2 = tick_point->x - lv_obj_get_style_pad_left(obj, LV_PART_INDICATOR);
 3328              		.loc 1 1427 58 view .LVU1054
 3329 0106 029B     		ldr	r3, [sp, #8]
1427:Drivers/lvgl/src/widgets/scale/lv_scale.c ****             label_coords->x2 = tick_point->x - lv_obj_get_style_pad_left(obj, LV_PART_INDICATOR);
 3330              		.loc 1 1427 46 view .LVU1055
 3331 0108 FF1A     		subs	r7, r7, r3
 3332              	.LVL366:
 3333              	.LBB271:
 3334              	.LBI271:
 166:Drivers/lvgl/src/widgets/scale/../../core/lv_obj_style_gen.h **** {
 3335              		.loc 2 166 23 is_stmt 1 view .LVU1056
 3336              	.LBB272:
 168:Drivers/lvgl/src/widgets/scale/../../core/lv_obj_style_gen.h ****     return (int32_t)v.num;
 3337              		.loc 2 168 5 view .LVU1057
 168:Drivers/lvgl/src/widgets/scale/../../core/lv_obj_style_gen.h ****     return (int32_t)v.num;
 3338              		.loc 2 168 26 is_stmt 0 view .LVU1058
ARM GAS  /var/folders/qx/2_175_4n2s19vhvtspjhb3qh0000gn/T//ccmbJJmj.s 			page 119


 3339 010a 1222     		movs	r2, #18
 3340 010c 4FF40031 		mov	r1, #131072
 3341 0110 2046     		mov	r0, r4
 3342 0112 FFF7FEFF 		bl	lv_obj_get_style_prop
 3343              	.LVL367:
 3344 0116 0190     		str	r0, [sp, #4]
 169:Drivers/lvgl/src/widgets/scale/../../core/lv_obj_style_gen.h **** }
 3345              		.loc 2 169 5 is_stmt 1 view .LVU1059
 3346              	.LVL368:
 169:Drivers/lvgl/src/widgets/scale/../../core/lv_obj_style_gen.h **** }
 3347              		.loc 2 169 5 is_stmt 0 view .LVU1060
 3348              	.LBE272:
 3349              	.LBE271:
1427:Drivers/lvgl/src/widgets/scale/lv_scale.c ****             label_coords->x2 = tick_point->x - lv_obj_get_style_pad_left(obj, LV_PART_INDICATOR);
 3350              		.loc 1 1427 61 discriminator 1 view .LVU1061
 3351 0118 3F1A     		subs	r7, r7, r0
1427:Drivers/lvgl/src/widgets/scale/lv_scale.c ****             label_coords->x2 = tick_point->x - lv_obj_get_style_pad_left(obj, LV_PART_INDICATOR);
 3352              		.loc 1 1427 30 discriminator 1 view .LVU1062
 3353 011a 2F60     		str	r7, [r5]
1428:Drivers/lvgl/src/widgets/scale/lv_scale.c ****         }
 3354              		.loc 1 1428 13 is_stmt 1 view .LVU1063
1428:Drivers/lvgl/src/widgets/scale/lv_scale.c ****         }
 3355              		.loc 1 1428 42 is_stmt 0 view .LVU1064
 3356 011c 3668     		ldr	r6, [r6]
 3357              	.LVL369:
 3358              	.LBB273:
 3359              	.LBI273:
 166:Drivers/lvgl/src/widgets/scale/../../core/lv_obj_style_gen.h **** {
 3360              		.loc 2 166 23 is_stmt 1 view .LVU1065
 3361              	.LBB274:
 168:Drivers/lvgl/src/widgets/scale/../../core/lv_obj_style_gen.h ****     return (int32_t)v.num;
 3362              		.loc 2 168 5 view .LVU1066
 168:Drivers/lvgl/src/widgets/scale/../../core/lv_obj_style_gen.h ****     return (int32_t)v.num;
 3363              		.loc 2 168 26 is_stmt 0 view .LVU1067
 3364 011e 1222     		movs	r2, #18
 3365 0120 4FF40031 		mov	r1, #131072
 3366 0124 2046     		mov	r0, r4
 3367 0126 FFF7FEFF 		bl	lv_obj_get_style_prop
 3368              	.LVL370:
 3369 012a 0190     		str	r0, [sp, #4]
 169:Drivers/lvgl/src/widgets/scale/../../core/lv_obj_style_gen.h **** }
 3370              		.loc 2 169 5 is_stmt 1 view .LVU1068
 3371              	.LVL371:
 169:Drivers/lvgl/src/widgets/scale/../../core/lv_obj_style_gen.h **** }
 3372              		.loc 2 169 5 is_stmt 0 view .LVU1069
 3373              	.LBE274:
 3374              	.LBE273:
1428:Drivers/lvgl/src/widgets/scale/lv_scale.c ****         }
 3375              		.loc 1 1428 46 discriminator 1 view .LVU1070
 3376 012c 361A     		subs	r6, r6, r0
1428:Drivers/lvgl/src/widgets/scale/lv_scale.c ****         }
 3377              		.loc 1 1428 30 discriminator 1 view .LVU1071
 3378 012e AE60     		str	r6, [r5, #8]
 3379 0130 11E0     		b	.L143
 3380              	.LVL372:
 3381              	.L147:
1436:Drivers/lvgl/src/widgets/scale/lv_scale.c ****         label_coords->y1 = tick_point->y - (label_size.y / 2);
ARM GAS  /var/folders/qx/2_175_4n2s19vhvtspjhb3qh0000gn/T//ccmbJJmj.s 			page 120


 3382              		.loc 1 1436 9 is_stmt 1 view .LVU1072
1436:Drivers/lvgl/src/widgets/scale/lv_scale.c ****         label_coords->y1 = tick_point->y - (label_size.y / 2);
 3383              		.loc 1 1436 38 is_stmt 0 view .LVU1073
 3384 0132 3268     		ldr	r2, [r6]
1436:Drivers/lvgl/src/widgets/scale/lv_scale.c ****         label_coords->y1 = tick_point->y - (label_size.y / 2);
 3385              		.loc 1 1436 55 view .LVU1074
 3386 0134 0298     		ldr	r0, [sp, #8]
1436:Drivers/lvgl/src/widgets/scale/lv_scale.c ****         label_coords->y1 = tick_point->y - (label_size.y / 2);
 3387              		.loc 1 1436 58 view .LVU1075
 3388 0136 00EBD073 		add	r3, r0, r0, lsr #31
1436:Drivers/lvgl/src/widgets/scale/lv_scale.c ****         label_coords->y1 = tick_point->y - (label_size.y / 2);
 3389              		.loc 1 1436 42 view .LVU1076
 3390 013a A2EB6302 		sub	r2, r2, r3, asr #1
1436:Drivers/lvgl/src/widgets/scale/lv_scale.c ****         label_coords->y1 = tick_point->y - (label_size.y / 2);
 3391              		.loc 1 1436 26 view .LVU1077
 3392 013e 2A60     		str	r2, [r5]
1437:Drivers/lvgl/src/widgets/scale/lv_scale.c ****         label_coords->x2 = label_coords->x1 + label_size.x;
 3393              		.loc 1 1437 9 is_stmt 1 view .LVU1078
1437:Drivers/lvgl/src/widgets/scale/lv_scale.c ****         label_coords->x2 = label_coords->x1 + label_size.x;
 3394              		.loc 1 1437 38 is_stmt 0 view .LVU1079
 3395 0140 7368     		ldr	r3, [r6, #4]
1437:Drivers/lvgl/src/widgets/scale/lv_scale.c ****         label_coords->x2 = label_coords->x1 + label_size.x;
 3396              		.loc 1 1437 55 view .LVU1080
 3397 0142 0399     		ldr	r1, [sp, #12]
1437:Drivers/lvgl/src/widgets/scale/lv_scale.c ****         label_coords->x2 = label_coords->x1 + label_size.x;
 3398              		.loc 1 1437 58 view .LVU1081
 3399 0144 01EBD174 		add	r4, r1, r1, lsr #31
 3400              	.LVL373:
1437:Drivers/lvgl/src/widgets/scale/lv_scale.c ****         label_coords->x2 = label_coords->x1 + label_size.x;
 3401              		.loc 1 1437 42 view .LVU1082
 3402 0148 A3EB6403 		sub	r3, r3, r4, asr #1
1437:Drivers/lvgl/src/widgets/scale/lv_scale.c ****         label_coords->x2 = label_coords->x1 + label_size.x;
 3403              		.loc 1 1437 26 view .LVU1083
 3404 014c 6B60     		str	r3, [r5, #4]
1438:Drivers/lvgl/src/widgets/scale/lv_scale.c ****         label_coords->y2 = label_coords->y1 + label_size.y;
 3405              		.loc 1 1438 9 is_stmt 1 view .LVU1084
1438:Drivers/lvgl/src/widgets/scale/lv_scale.c ****         label_coords->y2 = label_coords->y1 + label_size.y;
 3406              		.loc 1 1438 45 is_stmt 0 view .LVU1085
 3407 014e 0244     		add	r2, r2, r0
1438:Drivers/lvgl/src/widgets/scale/lv_scale.c ****         label_coords->y2 = label_coords->y1 + label_size.y;
 3408              		.loc 1 1438 26 view .LVU1086
 3409 0150 AA60     		str	r2, [r5, #8]
1439:Drivers/lvgl/src/widgets/scale/lv_scale.c ****     }
 3410              		.loc 1 1439 9 is_stmt 1 view .LVU1087
1439:Drivers/lvgl/src/widgets/scale/lv_scale.c ****     }
 3411              		.loc 1 1439 45 is_stmt 0 view .LVU1088
 3412 0152 0B44     		add	r3, r3, r1
1439:Drivers/lvgl/src/widgets/scale/lv_scale.c ****     }
 3413              		.loc 1 1439 26 view .LVU1089
 3414 0154 EB60     		str	r3, [r5, #12]
 3415              	.LVL374:
 3416              	.L143:
1442:Drivers/lvgl/src/widgets/scale/lv_scale.c **** 
 3417              		.loc 1 1442 1 view .LVU1090
 3418 0156 09B0     		add	sp, sp, #36
 3419              	.LCFI31:
 3420              		.cfi_def_cfa_offset 20
ARM GAS  /var/folders/qx/2_175_4n2s19vhvtspjhb3qh0000gn/T//ccmbJJmj.s 			page 121


 3421              		@ sp needed
 3422 0158 F0BD     		pop	{r4, r5, r6, r7, pc}
1442:Drivers/lvgl/src/widgets/scale/lv_scale.c **** 
 3423              		.loc 1 1442 1 view .LVU1091
 3424              		.cfi_endproc
 3425              	.LFE227:
 3427              		.section	.rodata.scale_draw_label.str1.4,"aMS",%progbits,1
 3428              		.align	2
 3429              	.LC0:
 3430 0000 256C6400 		.ascii	"%ld\000"
 3431              		.section	.text.scale_draw_label,"ax",%progbits
 3432              		.align	1
 3433              		.syntax unified
 3434              		.thumb
 3435              		.thumb_func
 3437              	scale_draw_label:
 3438              	.LVL375:
 3439              	.LFB222:
 838:Drivers/lvgl/src/widgets/scale/lv_scale.c ****     lv_scale_t * scale = (lv_scale_t *)obj;
 3440              		.loc 1 838 1 is_stmt 1 view -0
 3441              		.cfi_startproc
 3442              		@ args = 12, pretend = 0, frame = 176
 3443              		@ frame_needed = 0, uses_anonymous_args = 0
 838:Drivers/lvgl/src/widgets/scale/lv_scale.c ****     lv_scale_t * scale = (lv_scale_t *)obj;
 3444              		.loc 1 838 1 is_stmt 0 view .LVU1093
 3445 0000 2DE9F04F 		push	{r4, r5, r6, r7, r8, r9, r10, fp, lr}
 3446              	.LCFI32:
 3447              		.cfi_def_cfa_offset 36
 3448              		.cfi_offset 4, -36
 3449              		.cfi_offset 5, -32
 3450              		.cfi_offset 6, -28
 3451              		.cfi_offset 7, -24
 3452              		.cfi_offset 8, -20
 3453              		.cfi_offset 9, -16
 3454              		.cfi_offset 10, -12
 3455              		.cfi_offset 11, -8
 3456              		.cfi_offset 14, -4
 3457 0004 AFB0     		sub	sp, sp, #188
 3458              	.LCFI33:
 3459              		.cfi_def_cfa_offset 224
 3460 0006 0446     		mov	r4, r0
 3461 0008 1546     		mov	r5, r2
 3462 000a 1E46     		mov	r6, r3
 839:Drivers/lvgl/src/widgets/scale/lv_scale.c ****     lv_layer_t * layer = lv_event_get_layer(event);
 3463              		.loc 1 839 5 is_stmt 1 view .LVU1094
 3464              	.LVL376:
 840:Drivers/lvgl/src/widgets/scale/lv_scale.c **** 
 3465              		.loc 1 840 5 view .LVU1095
 840:Drivers/lvgl/src/widgets/scale/lv_scale.c **** 
 3466              		.loc 1 840 26 is_stmt 0 view .LVU1096
 3467 000c 0846     		mov	r0, r1
 3468              	.LVL377:
 840:Drivers/lvgl/src/widgets/scale/lv_scale.c **** 
 3469              		.loc 1 840 26 view .LVU1097
 3470 000e FFF7FEFF 		bl	lv_event_get_layer
 3471              	.LVL378:
 840:Drivers/lvgl/src/widgets/scale/lv_scale.c **** 
ARM GAS  /var/folders/qx/2_175_4n2s19vhvtspjhb3qh0000gn/T//ccmbJJmj.s 			page 122


 3472              		.loc 1 840 26 view .LVU1098
 3473 0012 8146     		mov	r9, r0
 3474              	.LVL379:
 843:Drivers/lvgl/src/widgets/scale/lv_scale.c ****     lv_area_t label_coords;
 3475              		.loc 1 843 5 is_stmt 1 view .LVU1099
 843:Drivers/lvgl/src/widgets/scale/lv_scale.c ****     lv_area_t label_coords;
 3476              		.loc 1 843 10 is_stmt 0 view .LVU1100
 3477 0014 0021     		movs	r1, #0
 3478 0016 2991     		str	r1, [sp, #164]
 3479 0018 2A91     		str	r1, [sp, #168]
 3480 001a 2B91     		str	r1, [sp, #172]
 3481 001c 2C91     		str	r1, [sp, #176]
 3482 001e 2D91     		str	r1, [sp, #180]
 844:Drivers/lvgl/src/widgets/scale/lv_scale.c **** 
 3483              		.loc 1 844 5 is_stmt 1 view .LVU1101
 847:Drivers/lvgl/src/widgets/scale/lv_scale.c ****         scale_build_custom_label_text(obj, label_dsc, major_tick_idx);
 3484              		.loc 1 847 5 view .LVU1102
 847:Drivers/lvgl/src/widgets/scale/lv_scale.c ****         scale_build_custom_label_text(obj, label_dsc, major_tick_idx);
 3485              		.loc 1 847 13 is_stmt 0 view .LVU1103
 3486 0020 A36B     		ldr	r3, [r4, #56]
 847:Drivers/lvgl/src/widgets/scale/lv_scale.c ****         scale_build_custom_label_text(obj, label_dsc, major_tick_idx);
 3487              		.loc 1 847 7 view .LVU1104
 3488 0022 5BB3     		cbz	r3, .L158
 848:Drivers/lvgl/src/widgets/scale/lv_scale.c ****     }
 3489              		.loc 1 848 9 is_stmt 1 view .LVU1105
 3490 0024 B2B2     		uxth	r2, r6
 3491 0026 2946     		mov	r1, r5
 3492 0028 2046     		mov	r0, r4
 3493              	.LVL380:
 848:Drivers/lvgl/src/widgets/scale/lv_scale.c ****     }
 3494              		.loc 1 848 9 is_stmt 0 view .LVU1106
 3495 002a FFF7FEFF 		bl	scale_build_custom_label_text
 3496              	.LVL381:
 3497              	.L159:
 856:Drivers/lvgl/src/widgets/scale/lv_scale.c ****     int32_t translate_y = lv_obj_get_style_translate_y(obj, LV_PART_INDICATOR);
 3498              		.loc 1 856 5 is_stmt 1 view .LVU1107
 3499              	.LBB275:
 3500              	.LBI275:
  94:Drivers/lvgl/src/widgets/scale/../../core/lv_obj_style_gen.h **** {
 3501              		.loc 2 94 23 view .LVU1108
 3502              	.LBB276:
  96:Drivers/lvgl/src/widgets/scale/../../core/lv_obj_style_gen.h ****     return (int32_t)v.num;
 3503              		.loc 2 96 5 view .LVU1109
  96:Drivers/lvgl/src/widgets/scale/../../core/lv_obj_style_gen.h ****     return (int32_t)v.num;
 3504              		.loc 2 96 26 is_stmt 0 view .LVU1110
 3505 002e 6C22     		movs	r2, #108
 3506 0030 4FF40031 		mov	r1, #131072
 3507 0034 2046     		mov	r0, r4
 3508 0036 FFF7FEFF 		bl	lv_obj_get_style_prop
 3509              	.LVL382:
 3510 003a 0646     		mov	r6, r0
 3511 003c 0990     		str	r0, [sp, #36]
  97:Drivers/lvgl/src/widgets/scale/../../core/lv_obj_style_gen.h **** }
 3512              		.loc 2 97 5 is_stmt 1 view .LVU1111
 3513              	.LVL383:
  97:Drivers/lvgl/src/widgets/scale/../../core/lv_obj_style_gen.h **** }
 3514              		.loc 2 97 5 is_stmt 0 view .LVU1112
ARM GAS  /var/folders/qx/2_175_4n2s19vhvtspjhb3qh0000gn/T//ccmbJJmj.s 			page 123


 3515              	.LBE276:
 3516              	.LBE275:
 857:Drivers/lvgl/src/widgets/scale/lv_scale.c ****     int32_t label_rotation = lv_obj_get_style_transform_rotation(obj, LV_PART_INDICATOR);
 3517              		.loc 1 857 5 is_stmt 1 view .LVU1113
 3518              	.LBB277:
 3519              	.LBI277:
 100:Drivers/lvgl/src/widgets/scale/../../core/lv_obj_style_gen.h **** {
 3520              		.loc 2 100 23 view .LVU1114
 3521              	.LBB278:
 102:Drivers/lvgl/src/widgets/scale/../../core/lv_obj_style_gen.h ****     return (int32_t)v.num;
 3522              		.loc 2 102 5 view .LVU1115
 102:Drivers/lvgl/src/widgets/scale/../../core/lv_obj_style_gen.h ****     return (int32_t)v.num;
 3523              		.loc 2 102 26 is_stmt 0 view .LVU1116
 3524 003e 6D22     		movs	r2, #109
 3525 0040 4FF40031 		mov	r1, #131072
 3526 0044 2046     		mov	r0, r4
 3527              	.LVL384:
 102:Drivers/lvgl/src/widgets/scale/../../core/lv_obj_style_gen.h ****     return (int32_t)v.num;
 3528              		.loc 2 102 26 view .LVU1117
 3529 0046 FFF7FEFF 		bl	lv_obj_get_style_prop
 3530              	.LVL385:
 3531 004a 8046     		mov	r8, r0
 3532 004c 0990     		str	r0, [sp, #36]
 103:Drivers/lvgl/src/widgets/scale/../../core/lv_obj_style_gen.h **** }
 3533              		.loc 2 103 5 is_stmt 1 view .LVU1118
 3534              	.LVL386:
 103:Drivers/lvgl/src/widgets/scale/../../core/lv_obj_style_gen.h **** }
 3535              		.loc 2 103 5 is_stmt 0 view .LVU1119
 3536              	.LBE278:
 3537              	.LBE277:
 858:Drivers/lvgl/src/widgets/scale/lv_scale.c ****     int32_t translate_rotation = 0;
 3538              		.loc 1 858 5 is_stmt 1 view .LVU1120
 3539              	.LBB279:
 3540              	.LBI279:
 124:Drivers/lvgl/src/widgets/scale/../../core/lv_obj_style_gen.h **** {
 3541              		.loc 2 124 23 view .LVU1121
 3542              	.LBB280:
 126:Drivers/lvgl/src/widgets/scale/../../core/lv_obj_style_gen.h ****     return (int32_t)v.num;
 3543              		.loc 2 126 5 view .LVU1122
 126:Drivers/lvgl/src/widgets/scale/../../core/lv_obj_style_gen.h ****     return (int32_t)v.num;
 3544              		.loc 2 126 26 is_stmt 0 view .LVU1123
 3545 004e 7022     		movs	r2, #112
 3546 0050 4FF40031 		mov	r1, #131072
 3547 0054 2046     		mov	r0, r4
 3548              	.LVL387:
 126:Drivers/lvgl/src/widgets/scale/../../core/lv_obj_style_gen.h ****     return (int32_t)v.num;
 3549              		.loc 2 126 26 view .LVU1124
 3550 0056 FFF7FEFF 		bl	lv_obj_get_style_prop
 3551              	.LVL388:
 3552 005a 0746     		mov	r7, r0
 3553 005c 0990     		str	r0, [sp, #36]
 127:Drivers/lvgl/src/widgets/scale/../../core/lv_obj_style_gen.h **** }
 3554              		.loc 2 127 5 is_stmt 1 view .LVU1125
 3555              	.LVL389:
 127:Drivers/lvgl/src/widgets/scale/../../core/lv_obj_style_gen.h **** }
 3556              		.loc 2 127 5 is_stmt 0 view .LVU1126
 3557              	.LBE280:
ARM GAS  /var/folders/qx/2_175_4n2s19vhvtspjhb3qh0000gn/T//ccmbJJmj.s 			page 124


 3558              	.LBE279:
 859:Drivers/lvgl/src/widgets/scale/lv_scale.c **** 
 3559              		.loc 1 859 5 is_stmt 1 view .LVU1127
 861:Drivers/lvgl/src/widgets/scale/lv_scale.c ****        || (LV_SCALE_MODE_HORIZONTAL_BOTTOM == scale->mode || LV_SCALE_MODE_HORIZONTAL_TOP == scale-
 3560              		.loc 1 861 5 view .LVU1128
 861:Drivers/lvgl/src/widgets/scale/lv_scale.c ****        || (LV_SCALE_MODE_HORIZONTAL_BOTTOM == scale->mode || LV_SCALE_MODE_HORIZONTAL_TOP == scale-
 3561              		.loc 1 861 45 is_stmt 0 view .LVU1129
 3562 005e 94F83C30 		ldrb	r3, [r4, #60]	@ zero_extendqisi2
 3563 0062 102B     		cmp	r3, #16
 3564 0064 64D8     		bhi	.L157
 3565 0066 DFE803F0 		tbb	[pc, r3]
 3566              	.L162:
 3567 006a 18       		.byte	(.L163-.L162)/2
 3568 006b 18       		.byte	(.L163-.L162)/2
 3569 006c 18       		.byte	(.L163-.L162)/2
 3570 006d 63       		.byte	(.L157-.L162)/2
 3571 006e 18       		.byte	(.L163-.L162)/2
 3572 006f 63       		.byte	(.L157-.L162)/2
 3573 0070 63       		.byte	(.L157-.L162)/2
 3574 0071 63       		.byte	(.L157-.L162)/2
 3575 0072 66       		.byte	(.L161-.L162)/2
 3576 0073 63       		.byte	(.L157-.L162)/2
 3577 0074 63       		.byte	(.L157-.L162)/2
 3578 0075 63       		.byte	(.L157-.L162)/2
 3579 0076 63       		.byte	(.L157-.L162)/2
 3580 0077 63       		.byte	(.L157-.L162)/2
 3581 0078 63       		.byte	(.L157-.L162)/2
 3582 0079 63       		.byte	(.L157-.L162)/2
 3583 007a 66       		.byte	(.L161-.L162)/2
 3584              	.LVL390:
 3585 007b 00       		.p2align 1
 3586              	.L158:
 851:Drivers/lvgl/src/widgets/scale/lv_scale.c ****         label_dsc->text = text_buffer;
 3587              		.loc 1 851 9 is_stmt 1 view .LVU1130
 3588 007c 29AE     		add	r6, sp, #164
 3589              	.LVL391:
 851:Drivers/lvgl/src/widgets/scale/lv_scale.c ****         label_dsc->text = text_buffer;
 3590              		.loc 1 851 9 is_stmt 0 view .LVU1131
 3591 007e 389B     		ldr	r3, [sp, #224]
 3592 0080 824A     		ldr	r2, .L182
 3593 0082 1421     		movs	r1, #20
 3594 0084 3046     		mov	r0, r6
 3595              	.LVL392:
 851:Drivers/lvgl/src/widgets/scale/lv_scale.c ****         label_dsc->text = text_buffer;
 3596              		.loc 1 851 9 view .LVU1132
 3597 0086 FFF7FEFF 		bl	lv_snprintf
 3598              	.LVL393:
 852:Drivers/lvgl/src/widgets/scale/lv_scale.c ****         label_dsc->text_local = 1;
 3599              		.loc 1 852 9 is_stmt 1 view .LVU1133
 852:Drivers/lvgl/src/widgets/scale/lv_scale.c ****         label_dsc->text_local = 1;
 3600              		.loc 1 852 25 is_stmt 0 view .LVU1134
 3601 008a EE61     		str	r6, [r5, #28]
 853:Drivers/lvgl/src/widgets/scale/lv_scale.c ****     }
 3602              		.loc 1 853 9 is_stmt 1 view .LVU1135
 853:Drivers/lvgl/src/widgets/scale/lv_scale.c ****     }
 3603              		.loc 1 853 31 is_stmt 0 view .LVU1136
 3604 008c 95F85D30 		ldrb	r3, [r5, #93]	@ zero_extendqisi2
ARM GAS  /var/folders/qx/2_175_4n2s19vhvtspjhb3qh0000gn/T//ccmbJJmj.s 			page 125


 3605 0090 43F00103 		orr	r3, r3, #1
 3606 0094 85F85D30 		strb	r3, [r5, #93]
 3607              	.LVL394:
 853:Drivers/lvgl/src/widgets/scale/lv_scale.c ****     }
 3608              		.loc 1 853 31 view .LVU1137
 3609 0098 C9E7     		b	.L159
 3610              	.LVL395:
 3611              	.L163:
 3612              	.LBB281:
 863:Drivers/lvgl/src/widgets/scale/lv_scale.c ****         label_origin.x = tick_point_b->x + translate_x;
 3613              		.loc 1 863 9 is_stmt 1 view .LVU1138
 864:Drivers/lvgl/src/widgets/scale/lv_scale.c ****         label_origin.y = tick_point_b->y + translate_y;
 3614              		.loc 1 864 9 view .LVU1139
 864:Drivers/lvgl/src/widgets/scale/lv_scale.c ****         label_origin.y = tick_point_b->y + translate_y;
 3615              		.loc 1 864 38 is_stmt 0 view .LVU1140
 3616 009a 399B     		ldr	r3, [sp, #228]
 3617 009c 1B68     		ldr	r3, [r3]
 864:Drivers/lvgl/src/widgets/scale/lv_scale.c ****         label_origin.y = tick_point_b->y + translate_y;
 3618              		.loc 1 864 42 view .LVU1141
 3619 009e 3344     		add	r3, r3, r6
 864:Drivers/lvgl/src/widgets/scale/lv_scale.c ****         label_origin.y = tick_point_b->y + translate_y;
 3620              		.loc 1 864 24 view .LVU1142
 3621 00a0 0993     		str	r3, [sp, #36]
 865:Drivers/lvgl/src/widgets/scale/lv_scale.c ****         scale_get_label_coords(obj, label_dsc, &label_origin, &label_coords);
 3622              		.loc 1 865 9 is_stmt 1 view .LVU1143
 865:Drivers/lvgl/src/widgets/scale/lv_scale.c ****         scale_get_label_coords(obj, label_dsc, &label_origin, &label_coords);
 3623              		.loc 1 865 38 is_stmt 0 view .LVU1144
 3624 00a2 399B     		ldr	r3, [sp, #228]
 3625 00a4 5B68     		ldr	r3, [r3, #4]
 865:Drivers/lvgl/src/widgets/scale/lv_scale.c ****         scale_get_label_coords(obj, label_dsc, &label_origin, &label_coords);
 3626              		.loc 1 865 42 view .LVU1145
 3627 00a6 4344     		add	r3, r3, r8
 865:Drivers/lvgl/src/widgets/scale/lv_scale.c ****         scale_get_label_coords(obj, label_dsc, &label_origin, &label_coords);
 3628              		.loc 1 865 24 view .LVU1146
 3629 00a8 0A93     		str	r3, [sp, #40]
 866:Drivers/lvgl/src/widgets/scale/lv_scale.c ****         label_rotation = (label_rotation & LV_SCALE_ROTATION_ANGLE_MASK);
 3630              		.loc 1 866 9 is_stmt 1 view .LVU1147
 3631 00aa 25AB     		add	r3, sp, #148
 3632 00ac 09AA     		add	r2, sp, #36
 3633 00ae 2946     		mov	r1, r5
 3634 00b0 2046     		mov	r0, r4
 3635              	.LVL396:
 866:Drivers/lvgl/src/widgets/scale/lv_scale.c ****         label_rotation = (label_rotation & LV_SCALE_ROTATION_ANGLE_MASK);
 3636              		.loc 1 866 9 is_stmt 0 view .LVU1148
 3637 00b2 FFF7FEFF 		bl	scale_get_label_coords
 3638              	.LVL397:
 867:Drivers/lvgl/src/widgets/scale/lv_scale.c ****     }
 3639              		.loc 1 867 9 is_stmt 1 view .LVU1149
 867:Drivers/lvgl/src/widgets/scale/lv_scale.c ****     }
 3640              		.loc 1 867 24 is_stmt 0 view .LVU1150
 3641 00b6 C7F31206 		ubfx	r6, r7, #0, #19
 3642              	.LVL398:
 3643              	.L164:
 867:Drivers/lvgl/src/widgets/scale/lv_scale.c ****     }
 3644              		.loc 1 867 24 view .LVU1151
 3645              	.LBE281:
 929:Drivers/lvgl/src/widgets/scale/lv_scale.c ****         /*Draw the label to a new layer and draw the layer rotated*/
ARM GAS  /var/folders/qx/2_175_4n2s19vhvtspjhb3qh0000gn/T//ccmbJJmj.s 			page 126


 3646              		.loc 1 929 5 is_stmt 1 view .LVU1152
 929:Drivers/lvgl/src/widgets/scale/lv_scale.c ****         /*Draw the label to a new layer and draw the layer rotated*/
 3647              		.loc 1 929 7 is_stmt 0 view .LVU1153
 3648 00ba 002E     		cmp	r6, #0
 3649 00bc 40F3DF80 		ble	.L174
 3650              	.LBB282:
 931:Drivers/lvgl/src/widgets/scale/lv_scale.c ****         lv_draw_label(layer_label, label_dsc, &label_coords);
 3651              		.loc 1 931 9 is_stmt 1 view .LVU1154
 931:Drivers/lvgl/src/widgets/scale/lv_scale.c ****         lv_draw_label(layer_label, label_dsc, &label_coords);
 3652              		.loc 1 931 36 is_stmt 0 view .LVU1155
 3653 00c0 25AC     		add	r4, sp, #148
 3654              	.LVL399:
 931:Drivers/lvgl/src/widgets/scale/lv_scale.c ****         lv_draw_label(layer_label, label_dsc, &label_coords);
 3655              		.loc 1 931 36 view .LVU1156
 3656 00c2 2246     		mov	r2, r4
 3657 00c4 1021     		movs	r1, #16
 3658 00c6 4846     		mov	r0, r9
 3659 00c8 FFF7FEFF 		bl	lv_draw_layer_create
 3660              	.LVL400:
 3661 00cc 0746     		mov	r7, r0
 3662              	.LVL401:
 932:Drivers/lvgl/src/widgets/scale/lv_scale.c **** 
 3663              		.loc 1 932 9 is_stmt 1 view .LVU1157
 3664 00ce 2246     		mov	r2, r4
 3665 00d0 2946     		mov	r1, r5
 3666 00d2 FFF7FEFF 		bl	lv_draw_label
 3667              	.LVL402:
 934:Drivers/lvgl/src/widgets/scale/lv_scale.c ****         /* Set pivot point to the center of the label so it matches the scale curve */
 3668              		.loc 1 934 9 view .LVU1158
 936:Drivers/lvgl/src/widgets/scale/lv_scale.c ****         pivot_point.y = lv_area_get_height(&label_coords) / 2;
 3669              		.loc 1 936 9 view .LVU1159
 936:Drivers/lvgl/src/widgets/scale/lv_scale.c ****         pivot_point.y = lv_area_get_height(&label_coords) / 2;
 3670              		.loc 1 936 25 is_stmt 0 view .LVU1160
 3671 00d6 2046     		mov	r0, r4
 3672 00d8 FFF7FEFF 		bl	lv_area_get_width
 3673              	.LVL403:
 936:Drivers/lvgl/src/widgets/scale/lv_scale.c ****         pivot_point.y = lv_area_get_height(&label_coords) / 2;
 3674              		.loc 1 936 58 discriminator 1 view .LVU1161
 3675 00dc 00EBD070 		add	r0, r0, r0, lsr #31
 3676 00e0 4010     		asrs	r0, r0, #1
 936:Drivers/lvgl/src/widgets/scale/lv_scale.c ****         pivot_point.y = lv_area_get_height(&label_coords) / 2;
 3677              		.loc 1 936 23 discriminator 1 view .LVU1162
 3678 00e2 0790     		str	r0, [sp, #28]
 937:Drivers/lvgl/src/widgets/scale/lv_scale.c **** 
 3679              		.loc 1 937 9 is_stmt 1 view .LVU1163
 937:Drivers/lvgl/src/widgets/scale/lv_scale.c **** 
 3680              		.loc 1 937 25 is_stmt 0 view .LVU1164
 3681 00e4 2046     		mov	r0, r4
 3682 00e6 FFF7FEFF 		bl	lv_area_get_height
 3683              	.LVL404:
 937:Drivers/lvgl/src/widgets/scale/lv_scale.c **** 
 3684              		.loc 1 937 59 discriminator 1 view .LVU1165
 3685 00ea 00EBD070 		add	r0, r0, r0, lsr #31
 3686 00ee 4010     		asrs	r0, r0, #1
 937:Drivers/lvgl/src/widgets/scale/lv_scale.c **** 
 3687              		.loc 1 937 23 discriminator 1 view .LVU1166
 3688 00f0 0890     		str	r0, [sp, #32]
ARM GAS  /var/folders/qx/2_175_4n2s19vhvtspjhb3qh0000gn/T//ccmbJJmj.s 			page 127


 939:Drivers/lvgl/src/widgets/scale/lv_scale.c ****         lv_draw_image_dsc_init(&layer_draw_dsc);
 3689              		.loc 1 939 9 is_stmt 1 view .LVU1167
 940:Drivers/lvgl/src/widgets/scale/lv_scale.c ****         layer_draw_dsc.src = layer_label;
 3690              		.loc 1 940 9 view .LVU1168
 3691 00f2 0DF12408 		add	r8, sp, #36
 3692              	.LVL405:
 940:Drivers/lvgl/src/widgets/scale/lv_scale.c ****         layer_draw_dsc.src = layer_label;
 3693              		.loc 1 940 9 is_stmt 0 view .LVU1169
 3694 00f6 4046     		mov	r0, r8
 3695 00f8 FFF7FEFF 		bl	lv_draw_image_dsc_init
 3696              	.LVL406:
 941:Drivers/lvgl/src/widgets/scale/lv_scale.c ****         layer_draw_dsc.rotation = label_rotation;
 3697              		.loc 1 941 9 is_stmt 1 view .LVU1170
 941:Drivers/lvgl/src/widgets/scale/lv_scale.c ****         layer_draw_dsc.rotation = label_rotation;
 3698              		.loc 1 941 28 is_stmt 0 view .LVU1171
 3699 00fc 1097     		str	r7, [sp, #64]
 942:Drivers/lvgl/src/widgets/scale/lv_scale.c ****         layer_draw_dsc.pivot = pivot_point;
 3700              		.loc 1 942 9 is_stmt 1 view .LVU1172
 942:Drivers/lvgl/src/widgets/scale/lv_scale.c ****         layer_draw_dsc.pivot = pivot_point;
 3701              		.loc 1 942 33 is_stmt 0 view .LVU1173
 3702 00fe 1596     		str	r6, [sp, #84]
 943:Drivers/lvgl/src/widgets/scale/lv_scale.c ****         lv_draw_layer(layer, &layer_draw_dsc, &label_coords);
 3703              		.loc 1 943 9 is_stmt 1 view .LVU1174
 943:Drivers/lvgl/src/widgets/scale/lv_scale.c ****         lv_draw_layer(layer, &layer_draw_dsc, &label_coords);
 3704              		.loc 1 943 30 is_stmt 0 view .LVU1175
 3705 0100 1AAB     		add	r3, sp, #104
 3706 0102 07AA     		add	r2, sp, #28
 3707 0104 92E80300 		ldm	r2, {r0, r1}
 3708 0108 83E80300 		stm	r3, {r0, r1}
 944:Drivers/lvgl/src/widgets/scale/lv_scale.c ****     }
 3709              		.loc 1 944 9 is_stmt 1 view .LVU1176
 3710 010c 2246     		mov	r2, r4
 3711 010e 4146     		mov	r1, r8
 3712 0110 4846     		mov	r0, r9
 3713 0112 FFF7FEFF 		bl	lv_draw_layer
 3714              	.LVL407:
 3715              	.L175:
 944:Drivers/lvgl/src/widgets/scale/lv_scale.c ****     }
 3716              		.loc 1 944 9 is_stmt 0 view .LVU1177
 3717              	.LBE282:
 950:Drivers/lvgl/src/widgets/scale/lv_scale.c ****         /* clear the reference to the text buffer on the stack */
 3718              		.loc 1 950 5 is_stmt 1 view .LVU1178
 950:Drivers/lvgl/src/widgets/scale/lv_scale.c ****         /* clear the reference to the text buffer on the stack */
 3719              		.loc 1 950 8 is_stmt 0 view .LVU1179
 3720 0116 95F85D30 		ldrb	r3, [r5, #93]	@ zero_extendqisi2
 950:Drivers/lvgl/src/widgets/scale/lv_scale.c ****         /* clear the reference to the text buffer on the stack */
 3721              		.loc 1 950 7 view .LVU1180
 3722 011a 13F0010F 		tst	r3, #1
 3723 011e 07D0     		beq	.L157
 952:Drivers/lvgl/src/widgets/scale/lv_scale.c ****         label_dsc->text_local = false;
 3724              		.loc 1 952 9 is_stmt 1 view .LVU1181
 952:Drivers/lvgl/src/widgets/scale/lv_scale.c ****         label_dsc->text_local = false;
 3725              		.loc 1 952 25 is_stmt 0 view .LVU1182
 3726 0120 0022     		movs	r2, #0
 3727 0122 EA61     		str	r2, [r5, #28]
 953:Drivers/lvgl/src/widgets/scale/lv_scale.c ****     }
 3728              		.loc 1 953 9 is_stmt 1 view .LVU1183
ARM GAS  /var/folders/qx/2_175_4n2s19vhvtspjhb3qh0000gn/T//ccmbJJmj.s 			page 128


 953:Drivers/lvgl/src/widgets/scale/lv_scale.c ****     }
 3729              		.loc 1 953 31 is_stmt 0 view .LVU1184
 3730 0124 95F85D30 		ldrb	r3, [r5, #93]	@ zero_extendqisi2
 3731 0128 62F30003 		bfi	r3, r2, #0, #1
 3732 012c 85F85D30 		strb	r3, [r5, #93]
 3733              	.LVL408:
 3734              	.L157:
 955:Drivers/lvgl/src/widgets/scale/lv_scale.c **** 
 3735              		.loc 1 955 1 view .LVU1185
 3736 0130 2FB0     		add	sp, sp, #188
 3737              	.LCFI34:
 3738              		.cfi_remember_state
 3739              		.cfi_def_cfa_offset 36
 3740              		@ sp needed
 3741 0132 BDE8F08F 		pop	{r4, r5, r6, r7, r8, r9, r10, fp, pc}
 3742              	.LVL409:
 3743              	.L161:
 3744              	.LCFI35:
 3745              		.cfi_restore_state
 3746              	.LBB283:
 870:Drivers/lvgl/src/widgets/scale/lv_scale.c ****         uint32_t label_gap = lv_obj_get_style_pad_radial(obj, LV_PART_INDICATOR) + LV_SCALE_DEFAULT
 3747              		.loc 1 870 9 is_stmt 1 view .LVU1186
 3748              	.LBB284:
 3749              	.LBI284:
 106:Drivers/lvgl/src/widgets/scale/../../core/lv_obj_style_gen.h **** {
 3750              		.loc 2 106 23 view .LVU1187
 3751              	.LBB285:
 108:Drivers/lvgl/src/widgets/scale/../../core/lv_obj_style_gen.h ****     return (int32_t)v.num;
 3752              		.loc 2 108 5 view .LVU1188
 108:Drivers/lvgl/src/widgets/scale/../../core/lv_obj_style_gen.h ****     return (int32_t)v.num;
 3753              		.loc 2 108 26 is_stmt 0 view .LVU1189
 3754 0136 7722     		movs	r2, #119
 3755 0138 4FF40031 		mov	r1, #131072
 3756 013c 2046     		mov	r0, r4
 3757              	.LVL410:
 108:Drivers/lvgl/src/widgets/scale/../../core/lv_obj_style_gen.h ****     return (int32_t)v.num;
 3758              		.loc 2 108 26 view .LVU1190
 3759 013e FFF7FEFF 		bl	lv_obj_get_style_prop
 3760              	.LVL411:
 3761 0142 8246     		mov	r10, r0
 3762 0144 0990     		str	r0, [sp, #36]
 109:Drivers/lvgl/src/widgets/scale/../../core/lv_obj_style_gen.h **** }
 3763              		.loc 2 109 5 is_stmt 1 view .LVU1191
 3764              	.LVL412:
 109:Drivers/lvgl/src/widgets/scale/../../core/lv_obj_style_gen.h **** }
 3765              		.loc 2 109 5 is_stmt 0 view .LVU1192
 3766              	.LBE285:
 3767              	.LBE284:
 871:Drivers/lvgl/src/widgets/scale/lv_scale.c **** 
 3768              		.loc 1 871 9 is_stmt 1 view .LVU1193
 3769              	.LBB286:
 3770              	.LBI286:
 190:Drivers/lvgl/src/widgets/scale/../../core/lv_obj_style_gen.h **** {
 3771              		.loc 2 190 23 view .LVU1194
 3772              	.LBB287:
 192:Drivers/lvgl/src/widgets/scale/../../core/lv_obj_style_gen.h ****     return (int32_t)v.num;
 3773              		.loc 2 192 5 view .LVU1195
ARM GAS  /var/folders/qx/2_175_4n2s19vhvtspjhb3qh0000gn/T//ccmbJJmj.s 			page 129


 192:Drivers/lvgl/src/widgets/scale/../../core/lv_obj_style_gen.h ****     return (int32_t)v.num;
 3774              		.loc 2 192 26 is_stmt 0 view .LVU1196
 3775 0146 0E22     		movs	r2, #14
 3776 0148 4FF40031 		mov	r1, #131072
 3777 014c 2046     		mov	r0, r4
 3778              	.LVL413:
 192:Drivers/lvgl/src/widgets/scale/../../core/lv_obj_style_gen.h ****     return (int32_t)v.num;
 3779              		.loc 2 192 26 view .LVU1197
 3780 014e FFF7FEFF 		bl	lv_obj_get_style_prop
 3781              	.LVL414:
 3782 0152 0990     		str	r0, [sp, #36]
 193:Drivers/lvgl/src/widgets/scale/../../core/lv_obj_style_gen.h **** }
 3783              		.loc 2 193 5 is_stmt 1 view .LVU1198
 3784              	.LVL415:
 193:Drivers/lvgl/src/widgets/scale/../../core/lv_obj_style_gen.h **** }
 3785              		.loc 2 193 5 is_stmt 0 view .LVU1199
 3786              	.LBE287:
 3787              	.LBE286:
 871:Drivers/lvgl/src/widgets/scale/lv_scale.c **** 
 3788              		.loc 1 871 18 discriminator 1 view .LVU1200
 3789 0154 00F10F03 		add	r3, r0, #15
 3790 0158 0393     		str	r3, [sp, #12]
 3791              	.LVL416:
 873:Drivers/lvgl/src/widgets/scale/lv_scale.c ****         lv_obj_get_content_coords(obj, &scale_area);
 3792              		.loc 1 873 9 is_stmt 1 view .LVU1201
 874:Drivers/lvgl/src/widgets/scale/lv_scale.c **** 
 3793              		.loc 1 874 9 view .LVU1202
 3794 015a 0DF1240B 		add	fp, sp, #36
 3795 015e 5946     		mov	r1, fp
 3796 0160 2046     		mov	r0, r4
 3797 0162 FFF7FEFF 		bl	lv_obj_get_content_coords
 3798              	.LVL417:
 877:Drivers/lvgl/src/widgets/scale/lv_scale.c ****         int32_t radius_edge = LV_MIN(lv_area_get_width(&scale_area) / 2, lv_area_get_height(&scale_
 3799              		.loc 1 877 9 view .LVU1203
 878:Drivers/lvgl/src/widgets/scale/lv_scale.c ****         center_point.x = scale_area.x1 + radius_edge;
 3800              		.loc 1 878 9 view .LVU1204
 878:Drivers/lvgl/src/widgets/scale/lv_scale.c ****         center_point.x = scale_area.x1 + radius_edge;
 3801              		.loc 1 878 31 is_stmt 0 view .LVU1205
 3802 0166 5846     		mov	r0, fp
 3803 0168 FFF7FEFF 		bl	lv_area_get_width
 3804              	.LVL418:
 878:Drivers/lvgl/src/widgets/scale/lv_scale.c ****         center_point.x = scale_area.x1 + radius_edge;
 3805              		.loc 1 878 31 discriminator 1 view .LVU1206
 3806 016c 00EBD070 		add	r0, r0, r0, lsr #31
 3807 0170 4310     		asrs	r3, r0, #1
 3808 0172 0293     		str	r3, [sp, #8]
 3809 0174 5846     		mov	r0, fp
 3810 0176 FFF7FEFF 		bl	lv_area_get_height
 3811              	.LVL419:
 878:Drivers/lvgl/src/widgets/scale/lv_scale.c ****         center_point.x = scale_area.x1 + radius_edge;
 3812              		.loc 1 878 31 discriminator 2 view .LVU1207
 3813 017a 00EBD070 		add	r0, r0, r0, lsr #31
 3814 017e 029B     		ldr	r3, [sp, #8]
 3815 0180 B3EB600F 		cmp	r3, r0, asr #1
 3816 0184 43DA     		bge	.L165
 878:Drivers/lvgl/src/widgets/scale/lv_scale.c ****         center_point.x = scale_area.x1 + radius_edge;
 3817              		.loc 1 878 31 discriminator 1 view .LVU1208
ARM GAS  /var/folders/qx/2_175_4n2s19vhvtspjhb3qh0000gn/T//ccmbJJmj.s 			page 130


 3818 0186 5846     		mov	r0, fp
 3819 0188 FFF7FEFF 		bl	lv_area_get_width
 3820              	.LVL420:
 3821 018c 00EBD070 		add	r0, r0, r0, lsr #31
 3822 0190 4FEA600B 		asr	fp, r0, #1
 3823              	.L166:
 3824              	.LVL421:
 879:Drivers/lvgl/src/widgets/scale/lv_scale.c ****         center_point.y = scale_area.y1 + radius_edge;
 3825              		.loc 1 879 9 is_stmt 1 view .LVU1209
 879:Drivers/lvgl/src/widgets/scale/lv_scale.c ****         center_point.y = scale_area.y1 + radius_edge;
 3826              		.loc 1 879 36 is_stmt 0 view .LVU1210
 3827 0194 099B     		ldr	r3, [sp, #36]
 879:Drivers/lvgl/src/widgets/scale/lv_scale.c ****         center_point.y = scale_area.y1 + radius_edge;
 3828              		.loc 1 879 40 view .LVU1211
 3829 0196 5B44     		add	r3, r3, fp
 879:Drivers/lvgl/src/widgets/scale/lv_scale.c ****         center_point.y = scale_area.y1 + radius_edge;
 3830              		.loc 1 879 24 view .LVU1212
 3831 0198 0593     		str	r3, [sp, #20]
 880:Drivers/lvgl/src/widgets/scale/lv_scale.c **** 
 3832              		.loc 1 880 9 is_stmt 1 view .LVU1213
 880:Drivers/lvgl/src/widgets/scale/lv_scale.c **** 
 3833              		.loc 1 880 36 is_stmt 0 view .LVU1214
 3834 019a 0A9B     		ldr	r3, [sp, #40]
 880:Drivers/lvgl/src/widgets/scale/lv_scale.c **** 
 3835              		.loc 1 880 40 view .LVU1215
 3836 019c 5B44     		add	r3, r3, fp
 880:Drivers/lvgl/src/widgets/scale/lv_scale.c **** 
 3837              		.loc 1 880 24 view .LVU1216
 3838 019e 0693     		str	r3, [sp, #24]
 882:Drivers/lvgl/src/widgets/scale/lv_scale.c **** 
 3839              		.loc 1 882 9 is_stmt 1 view .LVU1217
 3840              	.LVL422:
 3841              	.LBB288:
 3842              	.LBI288:
  58:Drivers/lvgl/src/widgets/scale/../../core/lv_obj_style_gen.h **** {
 3843              		.loc 2 58 23 view .LVU1218
 3844              	.LBB289:
  60:Drivers/lvgl/src/widgets/scale/../../core/lv_obj_style_gen.h ****     return (int32_t)v.num;
 3845              		.loc 2 60 5 view .LVU1219
  60:Drivers/lvgl/src/widgets/scale/../../core/lv_obj_style_gen.h ****     return (int32_t)v.num;
 3846              		.loc 2 60 26 is_stmt 0 view .LVU1220
 3847 01a0 0322     		movs	r2, #3
 3848 01a2 4FF40031 		mov	r1, #131072
 3849 01a6 2046     		mov	r0, r4
 3850 01a8 FFF7FEFF 		bl	lv_obj_get_style_prop
 3851              	.LVL423:
 3852 01ac 0790     		str	r0, [sp, #28]
  61:Drivers/lvgl/src/widgets/scale/../../core/lv_obj_style_gen.h **** }
 3853              		.loc 2 61 5 is_stmt 1 view .LVU1221
 3854              	.LVL424:
  61:Drivers/lvgl/src/widgets/scale/../../core/lv_obj_style_gen.h **** }
 3855              		.loc 2 61 5 is_stmt 0 view .LVU1222
 3856              	.LBE289:
 3857              	.LBE288:
 885:Drivers/lvgl/src/widgets/scale/lv_scale.c ****                                 (translate_rotation * 10);
 3858              		.loc 1 885 9 is_stmt 1 view .LVU1223
 885:Drivers/lvgl/src/widgets/scale/lv_scale.c ****                                 (translate_rotation * 10);
ARM GAS  /var/folders/qx/2_175_4n2s19vhvtspjhb3qh0000gn/T//ccmbJJmj.s 			page 131


 3859              		.loc 1 885 51 is_stmt 0 view .LVU1224
 3860 01ae 236D     		ldr	r3, [r4, #80]
 885:Drivers/lvgl/src/widgets/scale/lv_scale.c ****                                 (translate_rotation * 10);
 3861              		.loc 1 885 44 view .LVU1225
 3862 01b0 3A9A     		ldr	r2, [sp, #232]
 3863 01b2 02FB03F3 		mul	r3, r2, r3
 885:Drivers/lvgl/src/widgets/scale/lv_scale.c ****                                 (translate_rotation * 10);
 3864              		.loc 1 885 66 view .LVU1226
 3865 01b6 03EB8301 		add	r1, r3, r3, lsl #2
 3866 01ba 4900     		lsls	r1, r1, #1
 885:Drivers/lvgl/src/widgets/scale/lv_scale.c ****                                 (translate_rotation * 10);
 3867              		.loc 1 885 81 view .LVU1227
 3868 01bc B4F84830 		ldrh	r3, [r4, #72]
 3869 01c0 C3F30E03 		ubfx	r3, r3, #0, #15
 885:Drivers/lvgl/src/widgets/scale/lv_scale.c ****                                 (translate_rotation * 10);
 3870              		.loc 1 885 100 view .LVU1228
 3871 01c4 013B     		subs	r3, r3, #1
 885:Drivers/lvgl/src/widgets/scale/lv_scale.c ****                                 (translate_rotation * 10);
 3872              		.loc 1 885 73 view .LVU1229
 3873 01c6 B1FBF3F1 		udiv	r1, r1, r3
 886:Drivers/lvgl/src/widgets/scale/lv_scale.c ****         angle_upscale += scale->rotation * 10;
 3874              		.loc 1 886 53 view .LVU1230
 3875 01ca 0AEB8A0A 		add	r10, r10, r10, lsl #2
 3876              	.LVL425:
 885:Drivers/lvgl/src/widgets/scale/lv_scale.c ****                                 (translate_rotation * 10);
 3877              		.loc 1 885 106 view .LVU1231
 3878 01ce 01EB4A01 		add	r1, r1, r10, lsl #1
 3879              	.LVL426:
 887:Drivers/lvgl/src/widgets/scale/lv_scale.c **** 
 3880              		.loc 1 887 9 is_stmt 1 view .LVU1232
 887:Drivers/lvgl/src/widgets/scale/lv_scale.c **** 
 3881              		.loc 1 887 31 is_stmt 0 view .LVU1233
 3882 01d2 636D     		ldr	r3, [r4, #84]
 887:Drivers/lvgl/src/widgets/scale/lv_scale.c **** 
 3883              		.loc 1 887 42 view .LVU1234
 3884 01d4 03EB8303 		add	r3, r3, r3, lsl #2
 887:Drivers/lvgl/src/widgets/scale/lv_scale.c **** 
 3885              		.loc 1 887 23 view .LVU1235
 3886 01d8 01EB4301 		add	r1, r1, r3, lsl #1
 3887              	.LVL427:
 889:Drivers/lvgl/src/widgets/scale/lv_scale.c ****         if(LV_SCALE_MODE_ROUND_INNER == scale->mode) {
 3888              		.loc 1 889 9 is_stmt 1 view .LVU1236
 890:Drivers/lvgl/src/widgets/scale/lv_scale.c ****             radius_text = (radius_edge - major_len) - (label_gap + label_dsc->letter_space);
 3889              		.loc 1 890 9 view .LVU1237
 890:Drivers/lvgl/src/widgets/scale/lv_scale.c ****             radius_text = (radius_edge - major_len) - (label_gap + label_dsc->letter_space);
 3890              		.loc 1 890 46 is_stmt 0 view .LVU1238
 3891 01dc 94F83C30 		ldrb	r3, [r4, #60]	@ zero_extendqisi2
 890:Drivers/lvgl/src/widgets/scale/lv_scale.c ****             radius_text = (radius_edge - major_len) - (label_gap + label_dsc->letter_space);
 3892              		.loc 1 890 11 view .LVU1239
 3893 01e0 082B     		cmp	r3, #8
 3894 01e2 1CD0     		beq	.L180
 893:Drivers/lvgl/src/widgets/scale/lv_scale.c ****             radius_text = (radius_edge + major_len) + (label_gap + label_dsc->letter_space);
 3895              		.loc 1 893 14 is_stmt 1 view .LVU1240
 893:Drivers/lvgl/src/widgets/scale/lv_scale.c ****             radius_text = (radius_edge + major_len) + (label_gap + label_dsc->letter_space);
 3896              		.loc 1 893 16 is_stmt 0 view .LVU1241
 3897 01e4 102B     		cmp	r3, #16
 3898 01e6 22D0     		beq	.L181
ARM GAS  /var/folders/qx/2_175_4n2s19vhvtspjhb3qh0000gn/T//ccmbJJmj.s 			page 132


 889:Drivers/lvgl/src/widgets/scale/lv_scale.c ****         if(LV_SCALE_MODE_ROUND_INNER == scale->mode) {
 3899              		.loc 1 889 18 view .LVU1242
 3900 01e8 4FF0000B 		mov	fp, #0
 3901              	.LVL428:
 3902              	.L168:
 896:Drivers/lvgl/src/widgets/scale/lv_scale.c **** 
 3903              		.loc 1 896 36 is_stmt 1 view .LVU1243
 898:Drivers/lvgl/src/widgets/scale/lv_scale.c ****         point.x = center_point.x + radius_text + translate_x;
 3904              		.loc 1 898 9 view .LVU1244
 899:Drivers/lvgl/src/widgets/scale/lv_scale.c ****         point.y = center_point.y + translate_y;
 3905              		.loc 1 899 9 view .LVU1245
 899:Drivers/lvgl/src/widgets/scale/lv_scale.c ****         point.y = center_point.y + translate_y;
 3906              		.loc 1 899 31 is_stmt 0 view .LVU1246
 3907 01ec 059B     		ldr	r3, [sp, #20]
 899:Drivers/lvgl/src/widgets/scale/lv_scale.c ****         point.y = center_point.y + translate_y;
 3908              		.loc 1 899 34 view .LVU1247
 3909 01ee 5B44     		add	r3, r3, fp
 899:Drivers/lvgl/src/widgets/scale/lv_scale.c ****         point.y = center_point.y + translate_y;
 3910              		.loc 1 899 48 view .LVU1248
 3911 01f0 1E44     		add	r6, r6, r3
 3912              	.LVL429:
 899:Drivers/lvgl/src/widgets/scale/lv_scale.c ****         point.y = center_point.y + translate_y;
 3913              		.loc 1 899 17 view .LVU1249
 3914 01f2 0796     		str	r6, [sp, #28]
 900:Drivers/lvgl/src/widgets/scale/lv_scale.c ****         int32_t label_rotation_temp = 0;
 3915              		.loc 1 900 9 is_stmt 1 view .LVU1250
 900:Drivers/lvgl/src/widgets/scale/lv_scale.c ****         int32_t label_rotation_temp = 0;
 3916              		.loc 1 900 31 is_stmt 0 view .LVU1251
 3917 01f4 069B     		ldr	r3, [sp, #24]
 900:Drivers/lvgl/src/widgets/scale/lv_scale.c ****         int32_t label_rotation_temp = 0;
 3918              		.loc 1 900 34 view .LVU1252
 3919 01f6 4344     		add	r3, r3, r8
 900:Drivers/lvgl/src/widgets/scale/lv_scale.c ****         int32_t label_rotation_temp = 0;
 3920              		.loc 1 900 17 view .LVU1253
 3921 01f8 0893     		str	r3, [sp, #32]
 901:Drivers/lvgl/src/widgets/scale/lv_scale.c **** 
 3922              		.loc 1 901 9 is_stmt 1 view .LVU1254
 3923              	.LVL430:
 903:Drivers/lvgl/src/widgets/scale/lv_scale.c ****             label_rotation_temp = (label_rotation & LV_SCALE_ROTATION_ANGLE_MASK) + angle_upscale;
 3924              		.loc 1 903 9 view .LVU1255
 903:Drivers/lvgl/src/widgets/scale/lv_scale.c ****             label_rotation_temp = (label_rotation & LV_SCALE_ROTATION_ANGLE_MASK) + angle_upscale;
 3925              		.loc 1 903 11 is_stmt 0 view .LVU1256
 3926 01fa 17F4801F 		tst	r7, #1048576
 3927 01fe 2AD0     		beq	.L169
 904:Drivers/lvgl/src/widgets/scale/lv_scale.c **** 
 3928              		.loc 1 904 13 is_stmt 1 view .LVU1257
 904:Drivers/lvgl/src/widgets/scale/lv_scale.c **** 
 3929              		.loc 1 904 51 is_stmt 0 view .LVU1258
 3930 0200 C7F31206 		ubfx	r6, r7, #0, #19
 904:Drivers/lvgl/src/widgets/scale/lv_scale.c **** 
 3931              		.loc 1 904 33 view .LVU1259
 3932 0204 0E44     		add	r6, r6, r1
 3933              	.LVL431:
 907:Drivers/lvgl/src/widgets/scale/lv_scale.c ****                 while(label_rotation_temp > 3600) {
 3934              		.loc 1 907 13 is_stmt 1 view .LVU1260
 907:Drivers/lvgl/src/widgets/scale/lv_scale.c ****                 while(label_rotation_temp > 3600) {
 3935              		.loc 1 907 15 is_stmt 0 view .LVU1261
ARM GAS  /var/folders/qx/2_175_4n2s19vhvtspjhb3qh0000gn/T//ccmbJJmj.s 			page 133


 3936 0206 17F4002F 		tst	r7, #524288
 3937 020a 18D1     		bne	.L170
 3938 020c 25E0     		b	.L171
 3939              	.LVL432:
 3940              	.L165:
 878:Drivers/lvgl/src/widgets/scale/lv_scale.c ****         center_point.x = scale_area.x1 + radius_edge;
 3941              		.loc 1 878 31 discriminator 2 view .LVU1262
 3942 020e 09A8     		add	r0, sp, #36
 3943 0210 FFF7FEFF 		bl	lv_area_get_height
 3944              	.LVL433:
 878:Drivers/lvgl/src/widgets/scale/lv_scale.c ****         center_point.x = scale_area.x1 + radius_edge;
 3945              		.loc 1 878 31 discriminator 1 view .LVU1263
 3946 0214 00EBD070 		add	r0, r0, r0, lsr #31
 3947 0218 4FEA600B 		asr	fp, r0, #1
 3948 021c BAE7     		b	.L166
 3949              	.LVL434:
 3950              	.L180:
 891:Drivers/lvgl/src/widgets/scale/lv_scale.c ****         }
 3951              		.loc 1 891 13 is_stmt 1 view .LVU1264
 891:Drivers/lvgl/src/widgets/scale/lv_scale.c ****         }
 3952              		.loc 1 891 40 is_stmt 0 view .LVU1265
 3953 021e ABEB000B 		sub	fp, fp, r0
 3954              	.LVL435:
 891:Drivers/lvgl/src/widgets/scale/lv_scale.c ****         }
 3955              		.loc 1 891 77 view .LVU1266
 3956 0222 6B6B     		ldr	r3, [r5, #52]
 891:Drivers/lvgl/src/widgets/scale/lv_scale.c ****         }
 3957              		.loc 1 891 66 view .LVU1267
 3958 0224 039A     		ldr	r2, [sp, #12]
 3959 0226 1344     		add	r3, r3, r2
 891:Drivers/lvgl/src/widgets/scale/lv_scale.c ****         }
 3960              		.loc 1 891 25 view .LVU1268
 3961 0228 ABEB030B 		sub	fp, fp, r3
 3962              	.LVL436:
 891:Drivers/lvgl/src/widgets/scale/lv_scale.c ****         }
 3963              		.loc 1 891 25 view .LVU1269
 3964 022c DEE7     		b	.L168
 3965              	.LVL437:
 3966              	.L181:
 894:Drivers/lvgl/src/widgets/scale/lv_scale.c ****         }
 3967              		.loc 1 894 13 is_stmt 1 view .LVU1270
 894:Drivers/lvgl/src/widgets/scale/lv_scale.c ****         }
 3968              		.loc 1 894 40 is_stmt 0 view .LVU1271
 3969 022e 8344     		add	fp, fp, r0
 3970              	.LVL438:
 894:Drivers/lvgl/src/widgets/scale/lv_scale.c ****         }
 3971              		.loc 1 894 77 view .LVU1272
 3972 0230 6B6B     		ldr	r3, [r5, #52]
 894:Drivers/lvgl/src/widgets/scale/lv_scale.c ****         }
 3973              		.loc 1 894 66 view .LVU1273
 3974 0232 039A     		ldr	r2, [sp, #12]
 3975 0234 1344     		add	r3, r3, r2
 894:Drivers/lvgl/src/widgets/scale/lv_scale.c ****         }
 3976              		.loc 1 894 25 view .LVU1274
 3977 0236 9B44     		add	fp, fp, r3
 3978              	.LVL439:
 894:Drivers/lvgl/src/widgets/scale/lv_scale.c ****         }
ARM GAS  /var/folders/qx/2_175_4n2s19vhvtspjhb3qh0000gn/T//ccmbJJmj.s 			page 134


 3979              		.loc 1 894 25 view .LVU1275
 3980 0238 D8E7     		b	.L168
 3981              	.LVL440:
 3982              	.L172:
 909:Drivers/lvgl/src/widgets/scale/lv_scale.c ****                 }
 3983              		.loc 1 909 21 is_stmt 1 view .LVU1276
 909:Drivers/lvgl/src/widgets/scale/lv_scale.c ****                 }
 3984              		.loc 1 909 41 is_stmt 0 view .LVU1277
 3985 023a A6F56166 		sub	r6, r6, #3600
 3986              	.LVL441:
 3987              	.L170:
 908:Drivers/lvgl/src/widgets/scale/lv_scale.c ****                     label_rotation_temp -= 3600;
 3988              		.loc 1 908 43 is_stmt 1 view .LVU1278
 3989 023e B6F5616F 		cmp	r6, #3600
 3990 0242 FADC     		bgt	.L172
 911:Drivers/lvgl/src/widgets/scale/lv_scale.c ****                     label_rotation_temp += 1800;
 3991              		.loc 1 911 17 view .LVU1279
 911:Drivers/lvgl/src/widgets/scale/lv_scale.c ****                     label_rotation_temp += 1800;
 3992              		.loc 1 911 46 is_stmt 0 view .LVU1280
 3993 0244 A6F28532 		subw	r2, r6, #901
 911:Drivers/lvgl/src/widgets/scale/lv_scale.c ****                     label_rotation_temp += 1800;
 3994              		.loc 1 911 19 view .LVU1281
 3995 0248 40F2DA53 		movw	r3, #1498
 3996 024c 9A42     		cmp	r2, r3
 3997 024e 04D8     		bhi	.L171
 912:Drivers/lvgl/src/widgets/scale/lv_scale.c ****                 }
 3998              		.loc 1 912 21 is_stmt 1 view .LVU1282
 912:Drivers/lvgl/src/widgets/scale/lv_scale.c ****                 }
 3999              		.loc 1 912 41 is_stmt 0 view .LVU1283
 4000 0250 06F5E166 		add	r6, r6, #1800
 4001              	.LVL442:
 912:Drivers/lvgl/src/widgets/scale/lv_scale.c ****                 }
 4002              		.loc 1 912 41 view .LVU1284
 4003 0254 01E0     		b	.L171
 4004              	.LVL443:
 4005              	.L169:
 918:Drivers/lvgl/src/widgets/scale/lv_scale.c ****         }
 4006              		.loc 1 918 13 is_stmt 1 view .LVU1285
 918:Drivers/lvgl/src/widgets/scale/lv_scale.c ****         }
 4007              		.loc 1 918 28 is_stmt 0 view .LVU1286
 4008 0256 C7F31206 		ubfx	r6, r7, #0, #19
 4009              	.LVL444:
 4010              	.L171:
 921:Drivers/lvgl/src/widgets/scale/lv_scale.c ****         scale_get_label_coords(obj, label_dsc, &point, &label_coords);
 4011              		.loc 1 921 9 is_stmt 1 view .LVU1287
 4012 025a 07AF     		add	r7, sp, #28
 4013 025c 0023     		movs	r3, #0
 4014 025e 0193     		str	r3, [sp, #4]
 4015 0260 05AB     		add	r3, sp, #20
 4016 0262 0093     		str	r3, [sp]
 4017 0264 4FF48073 		mov	r3, #256
 4018 0268 1A46     		mov	r2, r3
 4019 026a 3846     		mov	r0, r7
 4020              	.LVL445:
 921:Drivers/lvgl/src/widgets/scale/lv_scale.c ****         scale_get_label_coords(obj, label_dsc, &point, &label_coords);
 4021              		.loc 1 921 9 is_stmt 0 view .LVU1288
 4022 026c FFF7FEFF 		bl	lv_point_transform
ARM GAS  /var/folders/qx/2_175_4n2s19vhvtspjhb3qh0000gn/T//ccmbJJmj.s 			page 135


 4023              	.LVL446:
 922:Drivers/lvgl/src/widgets/scale/lv_scale.c ****     }
 4024              		.loc 1 922 9 is_stmt 1 view .LVU1289
 4025 0270 25AB     		add	r3, sp, #148
 4026 0272 3A46     		mov	r2, r7
 4027 0274 2946     		mov	r1, r5
 4028 0276 2046     		mov	r0, r4
 4029 0278 FFF7FEFF 		bl	scale_get_label_coords
 4030              	.LVL447:
 4031              	.LBE283:
 869:Drivers/lvgl/src/widgets/scale/lv_scale.c ****         translate_rotation = lv_obj_get_style_translate_radial(obj, LV_PART_INDICATOR);
 4032              		.loc 1 869 99 is_stmt 0 view .LVU1290
 4033 027c 1DE7     		b	.L164
 4034              	.LVL448:
 4035              	.L174:
 947:Drivers/lvgl/src/widgets/scale/lv_scale.c ****     }
 4036              		.loc 1 947 9 is_stmt 1 view .LVU1291
 4037 027e 25AA     		add	r2, sp, #148
 4038 0280 2946     		mov	r1, r5
 4039 0282 4846     		mov	r0, r9
 4040 0284 FFF7FEFF 		bl	lv_draw_label
 4041              	.LVL449:
 4042 0288 45E7     		b	.L175
 4043              	.L183:
 4044 028a 00BF     		.align	2
 4045              	.L182:
 4046 028c 00000000 		.word	.LC0
 4047              		.cfi_endproc
 4048              	.LFE222:
 4050              		.section	.text.scale_draw_indicator,"ax",%progbits
 4051              		.align	1
 4052              		.syntax unified
 4053              		.thumb
 4054              		.thumb_func
 4056              	scale_draw_indicator:
 4057              	.LVL450:
 4058              	.LFB221:
 737:Drivers/lvgl/src/widgets/scale/lv_scale.c ****     lv_scale_t * scale = (lv_scale_t *)obj;
 4059              		.loc 1 737 1 view -0
 4060              		.cfi_startproc
 4061              		@ args = 0, pretend = 0, frame = 344
 4062              		@ frame_needed = 0, uses_anonymous_args = 0
 737:Drivers/lvgl/src/widgets/scale/lv_scale.c ****     lv_scale_t * scale = (lv_scale_t *)obj;
 4063              		.loc 1 737 1 is_stmt 0 view .LVU1293
 4064 0000 2DE9F04F 		push	{r4, r5, r6, r7, r8, r9, r10, fp, lr}
 4065              	.LCFI36:
 4066              		.cfi_def_cfa_offset 36
 4067              		.cfi_offset 4, -36
 4068              		.cfi_offset 5, -32
 4069              		.cfi_offset 6, -28
 4070              		.cfi_offset 7, -24
 4071              		.cfi_offset 8, -20
 4072              		.cfi_offset 9, -16
 4073              		.cfi_offset 10, -12
 4074              		.cfi_offset 11, -8
 4075              		.cfi_offset 14, -4
 4076 0004 DBB0     		sub	sp, sp, #364
ARM GAS  /var/folders/qx/2_175_4n2s19vhvtspjhb3qh0000gn/T//ccmbJJmj.s 			page 136


 4077              	.LCFI37:
 4078              		.cfi_def_cfa_offset 400
 4079 0006 0546     		mov	r5, r0
 4080 0008 0791     		str	r1, [sp, #28]
 738:Drivers/lvgl/src/widgets/scale/lv_scale.c ****     lv_layer_t * layer = lv_event_get_layer(event);
 4081              		.loc 1 738 5 is_stmt 1 view .LVU1294
 4082              	.LVL451:
 739:Drivers/lvgl/src/widgets/scale/lv_scale.c **** 
 4083              		.loc 1 739 5 view .LVU1295
 739:Drivers/lvgl/src/widgets/scale/lv_scale.c **** 
 4084              		.loc 1 739 26 is_stmt 0 view .LVU1296
 4085 000a 0846     		mov	r0, r1
 4086              	.LVL452:
 739:Drivers/lvgl/src/widgets/scale/lv_scale.c **** 
 4087              		.loc 1 739 26 view .LVU1297
 4088 000c FFF7FEFF 		bl	lv_event_get_layer
 4089              	.LVL453:
 739:Drivers/lvgl/src/widgets/scale/lv_scale.c **** 
 4090              		.loc 1 739 26 view .LVU1298
 4091 0010 0590     		str	r0, [sp, #20]
 4092              	.LVL454:
 741:Drivers/lvgl/src/widgets/scale/lv_scale.c **** 
 4093              		.loc 1 741 5 is_stmt 1 view .LVU1299
 741:Drivers/lvgl/src/widgets/scale/lv_scale.c **** 
 4094              		.loc 1 741 13 is_stmt 0 view .LVU1300
 4095 0012 B5F84830 		ldrh	r3, [r5, #72]
 4096 0016 C3F30E03 		ubfx	r3, r3, #0, #15
 741:Drivers/lvgl/src/widgets/scale/lv_scale.c **** 
 4097              		.loc 1 741 7 view .LVU1301
 4098 001a 012B     		cmp	r3, #1
 4099 001c 40F2ED80 		bls	.L184
 4100 0020 0646     		mov	r6, r0
 743:Drivers/lvgl/src/widgets/scale/lv_scale.c ****     lv_draw_label_dsc_init(&label_dsc);
 4101              		.loc 1 743 5 is_stmt 1 view .LVU1302
 744:Drivers/lvgl/src/widgets/scale/lv_scale.c ****     label_dsc.base.layer = layer;
 4102              		.loc 1 744 5 view .LVU1303
 4103 0022 3FAC     		add	r4, sp, #252
 4104 0024 2046     		mov	r0, r4
 4105              	.LVL455:
 744:Drivers/lvgl/src/widgets/scale/lv_scale.c ****     label_dsc.base.layer = layer;
 4106              		.loc 1 744 5 is_stmt 0 view .LVU1304
 4107 0026 FFF7FEFF 		bl	lv_draw_label_dsc_init
 4108              	.LVL456:
 745:Drivers/lvgl/src/widgets/scale/lv_scale.c ****     /* Formatting the labels with the configured style for LV_PART_INDICATOR */
 4109              		.loc 1 745 5 is_stmt 1 view .LVU1305
 745:Drivers/lvgl/src/widgets/scale/lv_scale.c ****     /* Formatting the labels with the configured style for LV_PART_INDICATOR */
 4110              		.loc 1 745 26 is_stmt 0 view .LVU1306
 4111 002a 4396     		str	r6, [sp, #268]
 747:Drivers/lvgl/src/widgets/scale/lv_scale.c **** 
 4112              		.loc 1 747 5 is_stmt 1 view .LVU1307
 4113 002c 2246     		mov	r2, r4
 4114 002e 4FF40031 		mov	r1, #131072
 4115 0032 2846     		mov	r0, r5
 4116 0034 FFF7FEFF 		bl	lv_obj_init_draw_label_dsc
 4117              	.LVL457:
 751:Drivers/lvgl/src/widgets/scale/lv_scale.c ****     lv_draw_line_dsc_init(&major_tick_dsc);
 4118              		.loc 1 751 5 view .LVU1308
ARM GAS  /var/folders/qx/2_175_4n2s19vhvtspjhb3qh0000gn/T//ccmbJJmj.s 			page 137


 752:Drivers/lvgl/src/widgets/scale/lv_scale.c ****     major_tick_dsc.base.layer = layer;
 4119              		.loc 1 752 5 view .LVU1309
 4120 0038 2FAC     		add	r4, sp, #188
 4121 003a 2046     		mov	r0, r4
 4122 003c FFF7FEFF 		bl	lv_draw_line_dsc_init
 4123              	.LVL458:
 753:Drivers/lvgl/src/widgets/scale/lv_scale.c ****     lv_obj_init_draw_line_dsc(obj, LV_PART_INDICATOR, &major_tick_dsc);
 4124              		.loc 1 753 5 view .LVU1310
 753:Drivers/lvgl/src/widgets/scale/lv_scale.c ****     lv_obj_init_draw_line_dsc(obj, LV_PART_INDICATOR, &major_tick_dsc);
 4125              		.loc 1 753 31 is_stmt 0 view .LVU1311
 4126 0040 3396     		str	r6, [sp, #204]
 754:Drivers/lvgl/src/widgets/scale/lv_scale.c ****     if(LV_SCALE_MODE_ROUND_OUTER == scale->mode || LV_SCALE_MODE_ROUND_INNER == scale->mode) {
 4127              		.loc 1 754 5 is_stmt 1 view .LVU1312
 4128 0042 2246     		mov	r2, r4
 4129 0044 4FF40031 		mov	r1, #131072
 4130 0048 2846     		mov	r0, r5
 4131 004a FFF7FEFF 		bl	lv_obj_init_draw_line_dsc
 4132              	.LVL459:
 755:Drivers/lvgl/src/widgets/scale/lv_scale.c ****         major_tick_dsc.raw_end = 0;
 4133              		.loc 1 755 5 view .LVU1313
 755:Drivers/lvgl/src/widgets/scale/lv_scale.c ****         major_tick_dsc.raw_end = 0;
 4134              		.loc 1 755 42 is_stmt 0 view .LVU1314
 4135 004e 95F83C30 		ldrb	r3, [r5, #60]	@ zero_extendqisi2
 755:Drivers/lvgl/src/widgets/scale/lv_scale.c ****         major_tick_dsc.raw_end = 0;
 4136              		.loc 1 755 7 view .LVU1315
 4137 0052 102B     		cmp	r3, #16
 4138 0054 01D0     		beq	.L187
 755:Drivers/lvgl/src/widgets/scale/lv_scale.c ****         major_tick_dsc.raw_end = 0;
 4139              		.loc 1 755 49 discriminator 1 view .LVU1316
 4140 0056 082B     		cmp	r3, #8
 4141 0058 05D1     		bne	.L188
 4142              	.L187:
 756:Drivers/lvgl/src/widgets/scale/lv_scale.c ****     }
 4143              		.loc 1 756 9 is_stmt 1 view .LVU1317
 756:Drivers/lvgl/src/widgets/scale/lv_scale.c ****     }
 4144              		.loc 1 756 32 is_stmt 0 view .LVU1318
 4145 005a 9DF8F930 		ldrb	r3, [sp, #249]	@ zero_extendqisi2
 4146 005e 23F00403 		bic	r3, r3, #4
 4147 0062 8DF8F930 		strb	r3, [sp, #249]
 4148              	.L188:
 760:Drivers/lvgl/src/widgets/scale/lv_scale.c ****     lv_draw_line_dsc_init(&minor_tick_dsc);
 4149              		.loc 1 760 5 is_stmt 1 view .LVU1319
 761:Drivers/lvgl/src/widgets/scale/lv_scale.c ****     minor_tick_dsc.base.layer = layer;
 4150              		.loc 1 761 5 view .LVU1320
 4151 0066 1FAC     		add	r4, sp, #124
 4152 0068 2046     		mov	r0, r4
 4153 006a FFF7FEFF 		bl	lv_draw_line_dsc_init
 4154              	.LVL460:
 762:Drivers/lvgl/src/widgets/scale/lv_scale.c ****     lv_obj_init_draw_line_dsc(obj, LV_PART_ITEMS, &minor_tick_dsc);
 4155              		.loc 1 762 5 view .LVU1321
 762:Drivers/lvgl/src/widgets/scale/lv_scale.c ****     lv_obj_init_draw_line_dsc(obj, LV_PART_ITEMS, &minor_tick_dsc);
 4156              		.loc 1 762 31 is_stmt 0 view .LVU1322
 4157 006e 059E     		ldr	r6, [sp, #20]
 4158              	.LVL461:
 762:Drivers/lvgl/src/widgets/scale/lv_scale.c ****     lv_obj_init_draw_line_dsc(obj, LV_PART_ITEMS, &minor_tick_dsc);
 4159              		.loc 1 762 31 view .LVU1323
 4160 0070 2396     		str	r6, [sp, #140]
ARM GAS  /var/folders/qx/2_175_4n2s19vhvtspjhb3qh0000gn/T//ccmbJJmj.s 			page 138


 763:Drivers/lvgl/src/widgets/scale/lv_scale.c **** 
 4161              		.loc 1 763 5 is_stmt 1 view .LVU1324
 4162 0072 2246     		mov	r2, r4
 4163 0074 4FF4A021 		mov	r1, #327680
 4164 0078 2846     		mov	r0, r5
 4165 007a FFF7FEFF 		bl	lv_obj_init_draw_line_dsc
 4166              	.LVL462:
 766:Drivers/lvgl/src/widgets/scale/lv_scale.c ****     lv_draw_line_dsc_init(&main_line_dsc);
 4167              		.loc 1 766 5 view .LVU1325
 767:Drivers/lvgl/src/widgets/scale/lv_scale.c ****     main_line_dsc.base.layer = layer;
 4168              		.loc 1 767 5 view .LVU1326
 4169 007e 0FAC     		add	r4, sp, #60
 4170 0080 2046     		mov	r0, r4
 4171 0082 FFF7FEFF 		bl	lv_draw_line_dsc_init
 4172              	.LVL463:
 768:Drivers/lvgl/src/widgets/scale/lv_scale.c ****     lv_obj_init_draw_line_dsc(obj, LV_PART_MAIN, &main_line_dsc);
 4173              		.loc 1 768 5 view .LVU1327
 768:Drivers/lvgl/src/widgets/scale/lv_scale.c ****     lv_obj_init_draw_line_dsc(obj, LV_PART_MAIN, &main_line_dsc);
 4174              		.loc 1 768 30 is_stmt 0 view .LVU1328
 4175 0086 1396     		str	r6, [sp, #76]
 769:Drivers/lvgl/src/widgets/scale/lv_scale.c **** 
 4176              		.loc 1 769 5 is_stmt 1 view .LVU1329
 4177 0088 2246     		mov	r2, r4
 4178 008a 0021     		movs	r1, #0
 4179 008c 2846     		mov	r0, r5
 4180 008e FFF7FEFF 		bl	lv_obj_init_draw_line_dsc
 4181              	.LVL464:
 773:Drivers/lvgl/src/widgets/scale/lv_scale.c ****     int32_t tick_idx = 0;
 4182              		.loc 1 773 5 view .LVU1330
 773:Drivers/lvgl/src/widgets/scale/lv_scale.c ****     int32_t tick_idx = 0;
 4183              		.loc 1 773 43 is_stmt 0 view .LVU1331
 4184 0092 B5F84830 		ldrh	r3, [r5, #72]
 4185 0096 C3F30E0B 		ubfx	fp, r3, #0, #15
 4186              	.LVL465:
 774:Drivers/lvgl/src/widgets/scale/lv_scale.c ****     uint32_t major_tick_idx = 0U;
 4187              		.loc 1 774 5 is_stmt 1 view .LVU1332
 775:Drivers/lvgl/src/widgets/scale/lv_scale.c ****     for(tick_idx = 0; tick_idx < total_tick_count; tick_idx++) {
 4188              		.loc 1 775 5 view .LVU1333
 776:Drivers/lvgl/src/widgets/scale/lv_scale.c ****         /* A major tick is the one which has a label in it */
 4189              		.loc 1 776 5 view .LVU1334
 775:Drivers/lvgl/src/widgets/scale/lv_scale.c ****     for(tick_idx = 0; tick_idx < total_tick_count; tick_idx++) {
 4190              		.loc 1 775 14 is_stmt 0 view .LVU1335
 4191 009a 0023     		movs	r3, #0
 4192 009c 0693     		str	r3, [sp, #24]
 776:Drivers/lvgl/src/widgets/scale/lv_scale.c ****         /* A major tick is the one which has a label in it */
 4193              		.loc 1 776 18 view .LVU1336
 4194 009e 9846     		mov	r8, r3
 776:Drivers/lvgl/src/widgets/scale/lv_scale.c ****         /* A major tick is the one which has a label in it */
 4195              		.loc 1 776 5 view .LVU1337
 4196 00a0 6EE0     		b	.L189
 4197              	.LVL466:
 4198              	.L193:
 4199              	.LBB290:
 796:Drivers/lvgl/src/widgets/scale/lv_scale.c ****                 }
 4200              		.loc 1 796 21 is_stmt 1 view .LVU1338
 4201 00a2 4FF4A023 		mov	r3, #327680
 4202 00a6 A268     		ldr	r2, [r4, #8]
ARM GAS  /var/folders/qx/2_175_4n2s19vhvtspjhb3qh0000gn/T//ccmbJJmj.s 			page 139


 4203 00a8 1FA9     		add	r1, sp, #124
 4204 00aa 2846     		mov	r0, r5
 4205 00ac FFF7FEFF 		bl	scale_set_line_properties
 4206              	.LVL467:
 4207 00b0 2CE0     		b	.L194
 4208              	.L192:
 802:Drivers/lvgl/src/widgets/scale/lv_scale.c ****                 lv_obj_init_draw_line_dsc(obj, LV_PART_INDICATOR, &major_tick_dsc);
 4209              		.loc 1 802 17 view .LVU1339
 4210 00b2 3FAA     		add	r2, sp, #252
 4211 00b4 4FF40031 		mov	r1, #131072
 4212 00b8 2846     		mov	r0, r5
 4213 00ba FFF7FEFF 		bl	lv_obj_init_draw_label_dsc
 4214              	.LVL468:
 803:Drivers/lvgl/src/widgets/scale/lv_scale.c ****                 lv_obj_init_draw_line_dsc(obj, LV_PART_ITEMS, &minor_tick_dsc);
 4215              		.loc 1 803 17 view .LVU1340
 4216 00be 2FAA     		add	r2, sp, #188
 4217 00c0 4FF40031 		mov	r1, #131072
 4218 00c4 2846     		mov	r0, r5
 4219 00c6 FFF7FEFF 		bl	lv_obj_init_draw_line_dsc
 4220              	.LVL469:
 804:Drivers/lvgl/src/widgets/scale/lv_scale.c ****             }
 4221              		.loc 1 804 17 view .LVU1341
 4222 00ca 1FAA     		add	r2, sp, #124
 4223 00cc 4FF4A021 		mov	r1, #327680
 4224 00d0 2846     		mov	r0, r5
 4225 00d2 FFF7FEFF 		bl	lv_obj_init_draw_line_dsc
 4226              	.LVL470:
 789:Drivers/lvgl/src/widgets/scale/lv_scale.c ****             if(section->range_min <= tick_value && section->range_max >= tick_value) {
 4227              		.loc 1 789 9 discriminator 2 view .LVU1342
 4228 00d6 2146     		mov	r1, r4
 4229 00d8 3846     		mov	r0, r7
 4230 00da FFF7FEFF 		bl	lv_ll_get_prev
 4231              	.LVL471:
 4232 00de 0446     		mov	r4, r0
 4233              	.LVL472:
 4234              	.L191:
 789:Drivers/lvgl/src/widgets/scale/lv_scale.c ****             if(section->range_min <= tick_value && section->range_max >= tick_value) {
 4235              		.loc 1 789 9 discriminator 1 view .LVU1343
 4236 00e0 A4B1     		cbz	r4, .L194
 790:Drivers/lvgl/src/widgets/scale/lv_scale.c ****                 if(is_major_tick) {
 4237              		.loc 1 790 13 view .LVU1344
 790:Drivers/lvgl/src/widgets/scale/lv_scale.c ****                 if(is_major_tick) {
 4238              		.loc 1 790 23 is_stmt 0 view .LVU1345
 4239 00e2 E368     		ldr	r3, [r4, #12]
 790:Drivers/lvgl/src/widgets/scale/lv_scale.c ****                 if(is_major_tick) {
 4240              		.loc 1 790 15 view .LVU1346
 4241 00e4 B342     		cmp	r3, r6
 4242 00e6 E4DC     		bgt	.L192
 790:Drivers/lvgl/src/widgets/scale/lv_scale.c ****                 if(is_major_tick) {
 4243              		.loc 1 790 59 discriminator 1 view .LVU1347
 4244 00e8 2369     		ldr	r3, [r4, #16]
 790:Drivers/lvgl/src/widgets/scale/lv_scale.c ****                 if(is_major_tick) {
 4245              		.loc 1 790 49 discriminator 1 view .LVU1348
 4246 00ea B342     		cmp	r3, r6
 4247 00ec E1DB     		blt	.L192
 791:Drivers/lvgl/src/widgets/scale/lv_scale.c ****                     scale_set_indicator_label_properties(obj, &label_dsc, section->indicator_style)
 4248              		.loc 1 791 17 is_stmt 1 view .LVU1349
ARM GAS  /var/folders/qx/2_175_4n2s19vhvtspjhb3qh0000gn/T//ccmbJJmj.s 			page 140


 791:Drivers/lvgl/src/widgets/scale/lv_scale.c ****                     scale_set_indicator_label_properties(obj, &label_dsc, section->indicator_style)
 4249              		.loc 1 791 19 is_stmt 0 view .LVU1350
 4250 00ee BAF1000F 		cmp	r10, #0
 4251 00f2 D6D0     		beq	.L193
 792:Drivers/lvgl/src/widgets/scale/lv_scale.c ****                     scale_set_line_properties(obj, &major_tick_dsc, section->indicator_style, LV_PA
 4252              		.loc 1 792 21 is_stmt 1 view .LVU1351
 4253 00f4 6268     		ldr	r2, [r4, #4]
 4254 00f6 3FA9     		add	r1, sp, #252
 4255 00f8 2846     		mov	r0, r5
 4256 00fa FFF7FEFF 		bl	scale_set_indicator_label_properties
 4257              	.LVL473:
 793:Drivers/lvgl/src/widgets/scale/lv_scale.c ****                 }
 4258              		.loc 1 793 21 view .LVU1352
 4259 00fe 4FF40033 		mov	r3, #131072
 4260 0102 6268     		ldr	r2, [r4, #4]
 4261 0104 2FA9     		add	r1, sp, #188
 4262 0106 2846     		mov	r0, r5
 4263 0108 FFF7FEFF 		bl	scale_set_line_properties
 4264              	.LVL474:
 4265              	.L194:
 809:Drivers/lvgl/src/widgets/scale/lv_scale.c ****         lv_point_t tick_point_b;
 4266              		.loc 1 809 9 view .LVU1353
 810:Drivers/lvgl/src/widgets/scale/lv_scale.c ****         scale_get_tick_points(obj, tick_idx, is_major_tick, &tick_point_a, &tick_point_b);
 4267              		.loc 1 810 9 view .LVU1354
 811:Drivers/lvgl/src/widgets/scale/lv_scale.c **** 
 4268              		.loc 1 811 9 view .LVU1355
 4269 010c 0DAB     		add	r3, sp, #52
 4270 010e 0093     		str	r3, [sp]
 4271 0110 0BAB     		add	r3, sp, #44
 4272 0112 5246     		mov	r2, r10
 4273 0114 4946     		mov	r1, r9
 4274 0116 2846     		mov	r0, r5
 4275 0118 FFF7FEFF 		bl	scale_get_tick_points
 4276              	.LVL475:
 814:Drivers/lvgl/src/widgets/scale/lv_scale.c ****             scale_draw_label(obj, event, &label_dsc, major_tick_idx, tick_value, &tick_point_b, tic
 4277              		.loc 1 814 9 view .LVU1356
 814:Drivers/lvgl/src/widgets/scale/lv_scale.c ****             scale_draw_label(obj, event, &label_dsc, major_tick_idx, tick_value, &tick_point_b, tic
 4278              		.loc 1 814 12 is_stmt 0 view .LVU1357
 4279 011c 95F84B30 		ldrb	r3, [r5, #75]	@ zero_extendqisi2
 814:Drivers/lvgl/src/widgets/scale/lv_scale.c ****             scale_draw_label(obj, event, &label_dsc, major_tick_idx, tick_value, &tick_point_b, tic
 4280              		.loc 1 814 11 view .LVU1358
 4281 0120 13F0400F 		tst	r3, #64
 4282 0124 0DD0     		beq	.L196
 814:Drivers/lvgl/src/widgets/scale/lv_scale.c ****             scale_draw_label(obj, event, &label_dsc, major_tick_idx, tick_value, &tick_point_b, tic
 4283              		.loc 1 814 33 discriminator 1 view .LVU1359
 4284 0126 BAF1000F 		cmp	r10, #0
 4285 012a 0DD0     		beq	.L197
 815:Drivers/lvgl/src/widgets/scale/lv_scale.c ****         }
 4286              		.loc 1 815 13 is_stmt 1 view .LVU1360
 4287 012c CDF80890 		str	r9, [sp, #8]
 4288 0130 0DAB     		add	r3, sp, #52
 4289 0132 0193     		str	r3, [sp, #4]
 4290 0134 0096     		str	r6, [sp]
 4291 0136 069B     		ldr	r3, [sp, #24]
 4292 0138 3FAA     		add	r2, sp, #252
 4293 013a 0799     		ldr	r1, [sp, #28]
 4294 013c 2846     		mov	r0, r5
ARM GAS  /var/folders/qx/2_175_4n2s19vhvtspjhb3qh0000gn/T//ccmbJJmj.s 			page 141


 4295 013e FFF7FEFF 		bl	scale_draw_label
 4296              	.LVL476:
 4297              	.L196:
 818:Drivers/lvgl/src/widgets/scale/lv_scale.c ****             major_tick_dsc.p1 = lv_point_to_precise(&tick_point_a);
 4298              		.loc 1 818 9 view .LVU1361
 818:Drivers/lvgl/src/widgets/scale/lv_scale.c ****             major_tick_dsc.p1 = lv_point_to_precise(&tick_point_a);
 4299              		.loc 1 818 11 is_stmt 0 view .LVU1362
 4300 0142 BAF1000F 		cmp	r10, #0
 4301 0146 3DD1     		bne	.L201
 4302              	.L197:
 826:Drivers/lvgl/src/widgets/scale/lv_scale.c ****             minor_tick_dsc.p2 = lv_point_to_precise(&tick_point_b);
 4303              		.loc 1 826 13 is_stmt 1 view .LVU1363
 826:Drivers/lvgl/src/widgets/scale/lv_scale.c ****             minor_tick_dsc.p2 = lv_point_to_precise(&tick_point_b);
 4304              		.loc 1 826 33 is_stmt 0 view .LVU1364
 4305 0148 08AC     		add	r4, sp, #32
 4306              	.LVL477:
 826:Drivers/lvgl/src/widgets/scale/lv_scale.c ****             minor_tick_dsc.p2 = lv_point_to_precise(&tick_point_b);
 4307              		.loc 1 826 33 view .LVU1365
 4308 014a 0BA9     		add	r1, sp, #44
 4309 014c 2046     		mov	r0, r4
 4310 014e FFF7FEFF 		bl	lv_point_to_precise
 4311              	.LVL478:
 4312 0152 26AB     		add	r3, sp, #152
 4313 0154 94E80300 		ldm	r4, {r0, r1}
 4314 0158 83E80300 		stm	r3, {r0, r1}
 827:Drivers/lvgl/src/widgets/scale/lv_scale.c ****             minor_tick_dsc.base.id1 = tick_idx;
 4315              		.loc 1 827 13 is_stmt 1 view .LVU1366
 827:Drivers/lvgl/src/widgets/scale/lv_scale.c ****             minor_tick_dsc.base.id1 = tick_idx;
 4316              		.loc 1 827 33 is_stmt 0 view .LVU1367
 4317 015c 0DA9     		add	r1, sp, #52
 4318 015e 2046     		mov	r0, r4
 4319 0160 FFF7FEFF 		bl	lv_point_to_precise
 4320              	.LVL479:
 4321 0164 28AB     		add	r3, sp, #160
 4322 0166 94E80300 		ldm	r4, {r0, r1}
 4323 016a 83E80300 		stm	r3, {r0, r1}
 828:Drivers/lvgl/src/widgets/scale/lv_scale.c ****             minor_tick_dsc.base.id2 = tick_value;
 4324              		.loc 1 828 13 is_stmt 1 view .LVU1368
 828:Drivers/lvgl/src/widgets/scale/lv_scale.c ****             minor_tick_dsc.base.id2 = tick_value;
 4325              		.loc 1 828 37 is_stmt 0 view .LVU1369
 4326 016e CDF88490 		str	r9, [sp, #132]
 829:Drivers/lvgl/src/widgets/scale/lv_scale.c ****             lv_draw_line(layer, &minor_tick_dsc);
 4327              		.loc 1 829 13 is_stmt 1 view .LVU1370
 829:Drivers/lvgl/src/widgets/scale/lv_scale.c ****             lv_draw_line(layer, &minor_tick_dsc);
 4328              		.loc 1 829 37 is_stmt 0 view .LVU1371
 4329 0172 2296     		str	r6, [sp, #136]
 830:Drivers/lvgl/src/widgets/scale/lv_scale.c ****         }
 4330              		.loc 1 830 13 is_stmt 1 view .LVU1372
 4331 0174 1FA9     		add	r1, sp, #124
 4332 0176 0598     		ldr	r0, [sp, #20]
 4333 0178 FFF7FEFF 		bl	lv_draw_line
 4334              	.LVL480:
 4335              	.L198:
 830:Drivers/lvgl/src/widgets/scale/lv_scale.c ****         }
 4336              		.loc 1 830 13 is_stmt 0 view .LVU1373
 4337              	.LBE290:
 776:Drivers/lvgl/src/widgets/scale/lv_scale.c ****         /* A major tick is the one which has a label in it */
ARM GAS  /var/folders/qx/2_175_4n2s19vhvtspjhb3qh0000gn/T//ccmbJJmj.s 			page 142


 4338              		.loc 1 776 60 is_stmt 1 discriminator 2 view .LVU1374
 4339 017c 08F10108 		add	r8, r8, #1
 4340              	.LVL481:
 4341              	.L189:
 776:Drivers/lvgl/src/widgets/scale/lv_scale.c ****         /* A major tick is the one which has a label in it */
 4342              		.loc 1 776 32 discriminator 1 view .LVU1375
 4343 0180 D845     		cmp	r8, fp
 4344 0182 3ADA     		bge	.L184
 4345              	.LBB291:
 778:Drivers/lvgl/src/widgets/scale/lv_scale.c ****         if(is_major_tick) major_tick_idx++;
 4346              		.loc 1 778 9 view .LVU1376
 778:Drivers/lvgl/src/widgets/scale/lv_scale.c ****         if(is_major_tick) major_tick_idx++;
 4347              		.loc 1 778 30 is_stmt 0 view .LVU1377
 4348 0184 C146     		mov	r9, r8
 4349 0186 4146     		mov	r1, r8
 4350 0188 2846     		mov	r0, r5
 4351 018a FFF7FEFF 		bl	scale_is_major_tick
 4352              	.LVL482:
 779:Drivers/lvgl/src/widgets/scale/lv_scale.c **** 
 4353              		.loc 1 779 9 is_stmt 1 view .LVU1378
 779:Drivers/lvgl/src/widgets/scale/lv_scale.c **** 
 4354              		.loc 1 779 11 is_stmt 0 view .LVU1379
 4355 018e 8246     		mov	r10, r0
 4356 0190 10B1     		cbz	r0, .L190
 779:Drivers/lvgl/src/widgets/scale/lv_scale.c **** 
 4357              		.loc 1 779 27 is_stmt 1 discriminator 1 view .LVU1380
 779:Drivers/lvgl/src/widgets/scale/lv_scale.c **** 
 4358              		.loc 1 779 41 is_stmt 0 discriminator 1 view .LVU1381
 4359 0192 069B     		ldr	r3, [sp, #24]
 4360 0194 0133     		adds	r3, r3, #1
 4361 0196 0693     		str	r3, [sp, #24]
 4362              	.LVL483:
 4363              	.L190:
 781:Drivers/lvgl/src/widgets/scale/lv_scale.c **** 
 4364              		.loc 1 781 9 is_stmt 1 view .LVU1382
 781:Drivers/lvgl/src/widgets/scale/lv_scale.c **** 
 4365              		.loc 1 781 36 is_stmt 0 view .LVU1383
 4366 0198 6B6C     		ldr	r3, [r5, #68]
 4367 019a 0093     		str	r3, [sp]
 4368 019c 2B6C     		ldr	r3, [r5, #64]
 4369 019e 0BF1FF32 		add	r2, fp, #-1
 4370 01a2 0021     		movs	r1, #0
 4371 01a4 4046     		mov	r0, r8
 4372              	.LVL484:
 781:Drivers/lvgl/src/widgets/scale/lv_scale.c **** 
 4373              		.loc 1 781 36 view .LVU1384
 4374 01a6 FFF7FEFF 		bl	lv_map
 4375              	.LVL485:
 4376 01aa 0646     		mov	r6, r0
 4377              	.LVL486:
 783:Drivers/lvgl/src/widgets/scale/lv_scale.c ****         label_dsc.base.id2 = tick_value;
 4378              		.loc 1 783 9 is_stmt 1 view .LVU1385
 783:Drivers/lvgl/src/widgets/scale/lv_scale.c ****         label_dsc.base.id2 = tick_value;
 4379              		.loc 1 783 28 is_stmt 0 view .LVU1386
 4380 01ac CDF80491 		str	r9, [sp, #260]
 784:Drivers/lvgl/src/widgets/scale/lv_scale.c ****         label_dsc.base.layer = layer;
 4381              		.loc 1 784 9 is_stmt 1 view .LVU1387
ARM GAS  /var/folders/qx/2_175_4n2s19vhvtspjhb3qh0000gn/T//ccmbJJmj.s 			page 143


 784:Drivers/lvgl/src/widgets/scale/lv_scale.c ****         label_dsc.base.layer = layer;
 4382              		.loc 1 784 28 is_stmt 0 view .LVU1388
 4383 01b0 4290     		str	r0, [sp, #264]
 785:Drivers/lvgl/src/widgets/scale/lv_scale.c **** 
 4384              		.loc 1 785 9 is_stmt 1 view .LVU1389
 785:Drivers/lvgl/src/widgets/scale/lv_scale.c **** 
 4385              		.loc 1 785 30 is_stmt 0 view .LVU1390
 4386 01b2 059B     		ldr	r3, [sp, #20]
 4387 01b4 4393     		str	r3, [sp, #268]
 788:Drivers/lvgl/src/widgets/scale/lv_scale.c ****         LV_LL_READ_BACK(&scale->section_ll, section) {
 4388              		.loc 1 788 9 is_stmt 1 view .LVU1391
 789:Drivers/lvgl/src/widgets/scale/lv_scale.c ****             if(section->range_min <= tick_value && section->range_max >= tick_value) {
 4389              		.loc 1 789 9 view .LVU1392
 4390 01b6 05F12C07 		add	r7, r5, #44
 4391 01ba 3846     		mov	r0, r7
 4392              	.LVL487:
 789:Drivers/lvgl/src/widgets/scale/lv_scale.c ****             if(section->range_min <= tick_value && section->range_max >= tick_value) {
 4393              		.loc 1 789 9 is_stmt 0 view .LVU1393
 4394 01bc FFF7FEFF 		bl	lv_ll_get_tail
 4395              	.LVL488:
 4396 01c0 0446     		mov	r4, r0
 4397              	.LVL489:
 789:Drivers/lvgl/src/widgets/scale/lv_scale.c ****             if(section->range_min <= tick_value && section->range_max >= tick_value) {
 4398              		.loc 1 789 9 view .LVU1394
 4399 01c2 8DE7     		b	.L191
 4400              	.LVL490:
 4401              	.L201:
 819:Drivers/lvgl/src/widgets/scale/lv_scale.c ****             major_tick_dsc.p2 = lv_point_to_precise(&tick_point_b);
 4402              		.loc 1 819 13 is_stmt 1 view .LVU1395
 819:Drivers/lvgl/src/widgets/scale/lv_scale.c ****             major_tick_dsc.p2 = lv_point_to_precise(&tick_point_b);
 4403              		.loc 1 819 33 is_stmt 0 view .LVU1396
 4404 01c4 08AC     		add	r4, sp, #32
 4405              	.LVL491:
 819:Drivers/lvgl/src/widgets/scale/lv_scale.c ****             major_tick_dsc.p2 = lv_point_to_precise(&tick_point_b);
 4406              		.loc 1 819 33 view .LVU1397
 4407 01c6 0BA9     		add	r1, sp, #44
 4408 01c8 2046     		mov	r0, r4
 4409 01ca FFF7FEFF 		bl	lv_point_to_precise
 4410              	.LVL492:
 4411 01ce 36AB     		add	r3, sp, #216
 4412 01d0 94E80300 		ldm	r4, {r0, r1}
 4413 01d4 83E80300 		stm	r3, {r0, r1}
 820:Drivers/lvgl/src/widgets/scale/lv_scale.c ****             major_tick_dsc.base.id1 = tick_idx;
 4414              		.loc 1 820 13 is_stmt 1 view .LVU1398
 820:Drivers/lvgl/src/widgets/scale/lv_scale.c ****             major_tick_dsc.base.id1 = tick_idx;
 4415              		.loc 1 820 33 is_stmt 0 view .LVU1399
 4416 01d8 0DA9     		add	r1, sp, #52
 4417 01da 2046     		mov	r0, r4
 4418 01dc FFF7FEFF 		bl	lv_point_to_precise
 4419              	.LVL493:
 4420 01e0 38AB     		add	r3, sp, #224
 4421 01e2 94E80300 		ldm	r4, {r0, r1}
 4422 01e6 83E80300 		stm	r3, {r0, r1}
 821:Drivers/lvgl/src/widgets/scale/lv_scale.c ****             major_tick_dsc.base.id2 = tick_value;
 4423              		.loc 1 821 13 is_stmt 1 view .LVU1400
 821:Drivers/lvgl/src/widgets/scale/lv_scale.c ****             major_tick_dsc.base.id2 = tick_value;
 4424              		.loc 1 821 37 is_stmt 0 view .LVU1401
ARM GAS  /var/folders/qx/2_175_4n2s19vhvtspjhb3qh0000gn/T//ccmbJJmj.s 			page 144


 4425 01ea CDF8C490 		str	r9, [sp, #196]
 822:Drivers/lvgl/src/widgets/scale/lv_scale.c ****             lv_draw_line(layer, &major_tick_dsc);
 4426              		.loc 1 822 13 is_stmt 1 view .LVU1402
 822:Drivers/lvgl/src/widgets/scale/lv_scale.c ****             lv_draw_line(layer, &major_tick_dsc);
 4427              		.loc 1 822 37 is_stmt 0 view .LVU1403
 4428 01ee 3296     		str	r6, [sp, #200]
 823:Drivers/lvgl/src/widgets/scale/lv_scale.c ****         }
 4429              		.loc 1 823 13 is_stmt 1 view .LVU1404
 4430 01f0 2FA9     		add	r1, sp, #188
 4431 01f2 0598     		ldr	r0, [sp, #20]
 4432 01f4 FFF7FEFF 		bl	lv_draw_line
 4433              	.LVL494:
 4434 01f8 C0E7     		b	.L198
 4435              	.LVL495:
 4436              	.L184:
 823:Drivers/lvgl/src/widgets/scale/lv_scale.c ****         }
 4437              		.loc 1 823 13 is_stmt 0 view .LVU1405
 4438              	.LBE291:
 833:Drivers/lvgl/src/widgets/scale/lv_scale.c **** 
 4439              		.loc 1 833 1 view .LVU1406
 4440 01fa 5BB0     		add	sp, sp, #364
 4441              	.LCFI38:
 4442              		.cfi_def_cfa_offset 36
 4443              		@ sp needed
 4444 01fc BDE8F08F 		pop	{r4, r5, r6, r7, r8, r9, r10, fp, pc}
 833:Drivers/lvgl/src/widgets/scale/lv_scale.c **** 
 4445              		.loc 1 833 1 view .LVU1407
 4446              		.cfi_endproc
 4447              	.LFE221:
 4449              		.section	.text.scale_draw_main,"ax",%progbits
 4450              		.align	1
 4451              		.syntax unified
 4452              		.thumb
 4453              		.thumb_func
 4455              	scale_draw_main:
 4456              	.LVL496:
 4457              	.LFB224:
1017:Drivers/lvgl/src/widgets/scale/lv_scale.c ****     lv_scale_t * scale = (lv_scale_t *)obj;
 4458              		.loc 1 1017 1 is_stmt 1 view -0
 4459              		.cfi_startproc
 4460              		@ args = 0, pretend = 0, frame = 168
 4461              		@ frame_needed = 0, uses_anonymous_args = 0
1017:Drivers/lvgl/src/widgets/scale/lv_scale.c ****     lv_scale_t * scale = (lv_scale_t *)obj;
 4462              		.loc 1 1017 1 is_stmt 0 view .LVU1409
 4463 0000 2DE9F04F 		push	{r4, r5, r6, r7, r8, r9, r10, fp, lr}
 4464              	.LCFI39:
 4465              		.cfi_def_cfa_offset 36
 4466              		.cfi_offset 4, -36
 4467              		.cfi_offset 5, -32
 4468              		.cfi_offset 6, -28
 4469              		.cfi_offset 7, -24
 4470              		.cfi_offset 8, -20
 4471              		.cfi_offset 9, -16
 4472              		.cfi_offset 10, -12
 4473              		.cfi_offset 11, -8
 4474              		.cfi_offset 14, -4
 4475 0004 ADB0     		sub	sp, sp, #180
ARM GAS  /var/folders/qx/2_175_4n2s19vhvtspjhb3qh0000gn/T//ccmbJJmj.s 			page 145


 4476              	.LCFI40:
 4477              		.cfi_def_cfa_offset 216
 4478 0006 0446     		mov	r4, r0
1018:Drivers/lvgl/src/widgets/scale/lv_scale.c ****     lv_layer_t * layer = lv_event_get_layer(event);
 4479              		.loc 1 1018 5 is_stmt 1 view .LVU1410
 4480              	.LVL497:
1019:Drivers/lvgl/src/widgets/scale/lv_scale.c **** 
 4481              		.loc 1 1019 5 view .LVU1411
1019:Drivers/lvgl/src/widgets/scale/lv_scale.c **** 
 4482              		.loc 1 1019 26 is_stmt 0 view .LVU1412
 4483 0008 0846     		mov	r0, r1
 4484              	.LVL498:
1019:Drivers/lvgl/src/widgets/scale/lv_scale.c **** 
 4485              		.loc 1 1019 26 view .LVU1413
 4486 000a FFF7FEFF 		bl	lv_event_get_layer
 4487              	.LVL499:
1021:Drivers/lvgl/src/widgets/scale/lv_scale.c **** 
 4488              		.loc 1 1021 5 is_stmt 1 view .LVU1414
1021:Drivers/lvgl/src/widgets/scale/lv_scale.c **** 
 4489              		.loc 1 1021 13 is_stmt 0 view .LVU1415
 4490 000e B4F84830 		ldrh	r3, [r4, #72]
 4491 0012 C3F30E03 		ubfx	r3, r3, #0, #15
1021:Drivers/lvgl/src/widgets/scale/lv_scale.c **** 
 4492              		.loc 1 1021 7 view .LVU1416
 4493 0016 012B     		cmp	r3, #1
 4494 0018 40F28781 		bls	.L202
 4495 001c 0646     		mov	r6, r0
1023:Drivers/lvgl/src/widgets/scale/lv_scale.c ****        || (LV_SCALE_MODE_HORIZONTAL_BOTTOM == scale->mode || LV_SCALE_MODE_HORIZONTAL_TOP == scale-
 4496              		.loc 1 1023 5 is_stmt 1 view .LVU1417
1023:Drivers/lvgl/src/widgets/scale/lv_scale.c ****        || (LV_SCALE_MODE_HORIZONTAL_BOTTOM == scale->mode || LV_SCALE_MODE_HORIZONTAL_TOP == scale-
 4497              		.loc 1 1023 45 is_stmt 0 view .LVU1418
 4498 001e 94F83C30 		ldrb	r3, [r4, #60]	@ zero_extendqisi2
 4499 0022 102B     		cmp	r3, #16
 4500 0024 00F28181 		bhi	.L202
 4501 0028 DFE813F0 		tbh	[pc, r3, lsl #1]
 4502              	.L205:
 4503 002c 1100     		.2byte	(.L206-.L205)/2
 4504 002e 1100     		.2byte	(.L206-.L205)/2
 4505 0030 1100     		.2byte	(.L206-.L205)/2
 4506 0032 7F01     		.2byte	(.L202-.L205)/2
 4507 0034 1100     		.2byte	(.L206-.L205)/2
 4508 0036 7F01     		.2byte	(.L202-.L205)/2
 4509 0038 7F01     		.2byte	(.L202-.L205)/2
 4510 003a 7F01     		.2byte	(.L202-.L205)/2
 4511 003c 0401     		.2byte	(.L204-.L205)/2
 4512 003e 7F01     		.2byte	(.L202-.L205)/2
 4513 0040 7F01     		.2byte	(.L202-.L205)/2
 4514 0042 7F01     		.2byte	(.L202-.L205)/2
 4515 0044 7F01     		.2byte	(.L202-.L205)/2
 4516 0046 7F01     		.2byte	(.L202-.L205)/2
 4517 0048 7F01     		.2byte	(.L202-.L205)/2
 4518 004a 7F01     		.2byte	(.L202-.L205)/2
 4519 004c 0401     		.2byte	(.L204-.L205)/2
 4520              		.p2align 1
 4521              	.L206:
 4522              	.LBB292:
1027:Drivers/lvgl/src/widgets/scale/lv_scale.c ****         lv_draw_line_dsc_init(&line_dsc);
ARM GAS  /var/folders/qx/2_175_4n2s19vhvtspjhb3qh0000gn/T//ccmbJJmj.s 			page 146


 4523              		.loc 1 1027 9 is_stmt 1 view .LVU1419
1028:Drivers/lvgl/src/widgets/scale/lv_scale.c ****         line_dsc.base.layer = layer;
 4524              		.loc 1 1028 9 view .LVU1420
 4525 004e 0CAD     		add	r5, sp, #48
 4526 0050 2846     		mov	r0, r5
 4527              	.LVL500:
1028:Drivers/lvgl/src/widgets/scale/lv_scale.c ****         line_dsc.base.layer = layer;
 4528              		.loc 1 1028 9 is_stmt 0 view .LVU1421
 4529 0052 FFF7FEFF 		bl	lv_draw_line_dsc_init
 4530              	.LVL501:
1029:Drivers/lvgl/src/widgets/scale/lv_scale.c ****         lv_obj_init_draw_line_dsc(obj, LV_PART_MAIN, &line_dsc);
 4531              		.loc 1 1029 9 is_stmt 1 view .LVU1422
1029:Drivers/lvgl/src/widgets/scale/lv_scale.c ****         lv_obj_init_draw_line_dsc(obj, LV_PART_MAIN, &line_dsc);
 4532              		.loc 1 1029 29 is_stmt 0 view .LVU1423
 4533 0056 1096     		str	r6, [sp, #64]
1030:Drivers/lvgl/src/widgets/scale/lv_scale.c **** 
 4534              		.loc 1 1030 9 is_stmt 1 view .LVU1424
 4535 0058 2A46     		mov	r2, r5
 4536 005a 0021     		movs	r1, #0
 4537 005c 2046     		mov	r0, r4
 4538 005e FFF7FEFF 		bl	lv_obj_init_draw_line_dsc
 4539              	.LVL502:
1033:Drivers/lvgl/src/widgets/scale/lv_scale.c ****         const int32_t pad_top = lv_obj_get_style_pad_top(obj, LV_PART_MAIN) + border_width;
 4540              		.loc 1 1033 9 view .LVU1425
 4541              	.LBB293:
 4542              	.LBI293:
 343:Drivers/lvgl/src/widgets/scale/../../core/lv_obj_style_gen.h **** {
 4543              		.loc 2 343 23 view .LVU1426
 4544              	.LBB294:
 345:Drivers/lvgl/src/widgets/scale/../../core/lv_obj_style_gen.h ****     return (int32_t)v.num;
 4545              		.loc 2 345 5 view .LVU1427
 345:Drivers/lvgl/src/widgets/scale/../../core/lv_obj_style_gen.h ****     return (int32_t)v.num;
 4546              		.loc 2 345 26 is_stmt 0 view .LVU1428
 4547 0062 3022     		movs	r2, #48
 4548 0064 0021     		movs	r1, #0
 4549 0066 2046     		mov	r0, r4
 4550 0068 FFF7FEFF 		bl	lv_obj_get_style_prop
 4551              	.LVL503:
 4552 006c 0546     		mov	r5, r0
 4553 006e 1C90     		str	r0, [sp, #112]
 346:Drivers/lvgl/src/widgets/scale/../../core/lv_obj_style_gen.h **** }
 4554              		.loc 2 346 5 is_stmt 1 view .LVU1429
 4555              	.LVL504:
 346:Drivers/lvgl/src/widgets/scale/../../core/lv_obj_style_gen.h **** }
 4556              		.loc 2 346 5 is_stmt 0 view .LVU1430
 4557              	.LBE294:
 4558              	.LBE293:
1034:Drivers/lvgl/src/widgets/scale/lv_scale.c ****         const int32_t pad_bottom = lv_obj_get_style_pad_bottom(obj, LV_PART_MAIN) + border_width;
 4559              		.loc 1 1034 9 is_stmt 1 view .LVU1431
 4560              	.LBB295:
 4561              	.LBI295:
 154:Drivers/lvgl/src/widgets/scale/../../core/lv_obj_style_gen.h **** {
 4562              		.loc 2 154 23 view .LVU1432
 4563              	.LBB296:
 156:Drivers/lvgl/src/widgets/scale/../../core/lv_obj_style_gen.h ****     return (int32_t)v.num;
 4564              		.loc 2 156 5 view .LVU1433
 156:Drivers/lvgl/src/widgets/scale/../../core/lv_obj_style_gen.h ****     return (int32_t)v.num;
ARM GAS  /var/folders/qx/2_175_4n2s19vhvtspjhb3qh0000gn/T//ccmbJJmj.s 			page 147


 4565              		.loc 2 156 26 is_stmt 0 view .LVU1434
 4566 0070 1022     		movs	r2, #16
 4567 0072 0021     		movs	r1, #0
 4568 0074 2046     		mov	r0, r4
 4569              	.LVL505:
 156:Drivers/lvgl/src/widgets/scale/../../core/lv_obj_style_gen.h ****     return (int32_t)v.num;
 4570              		.loc 2 156 26 view .LVU1435
 4571 0076 FFF7FEFF 		bl	lv_obj_get_style_prop
 4572              	.LVL506:
 4573 007a 1C90     		str	r0, [sp, #112]
 157:Drivers/lvgl/src/widgets/scale/../../core/lv_obj_style_gen.h **** }
 4574              		.loc 2 157 5 is_stmt 1 view .LVU1436
 4575              	.LVL507:
 157:Drivers/lvgl/src/widgets/scale/../../core/lv_obj_style_gen.h **** }
 4576              		.loc 2 157 5 is_stmt 0 view .LVU1437
 4577              	.LBE296:
 4578              	.LBE295:
1034:Drivers/lvgl/src/widgets/scale/lv_scale.c ****         const int32_t pad_bottom = lv_obj_get_style_pad_bottom(obj, LV_PART_MAIN) + border_width;
 4579              		.loc 1 1034 23 discriminator 1 view .LVU1438
 4580 007c 00EB0509 		add	r9, r0, r5
 4581              	.LVL508:
1035:Drivers/lvgl/src/widgets/scale/lv_scale.c ****         const int32_t pad_left = lv_obj_get_style_pad_left(obj, LV_PART_MAIN) + border_width;
 4582              		.loc 1 1035 9 is_stmt 1 view .LVU1439
 4583              	.LBB297:
 4584              	.LBI297:
 160:Drivers/lvgl/src/widgets/scale/../../core/lv_obj_style_gen.h **** {
 4585              		.loc 2 160 23 view .LVU1440
 4586              	.LBB298:
 162:Drivers/lvgl/src/widgets/scale/../../core/lv_obj_style_gen.h ****     return (int32_t)v.num;
 4587              		.loc 2 162 5 view .LVU1441
 162:Drivers/lvgl/src/widgets/scale/../../core/lv_obj_style_gen.h ****     return (int32_t)v.num;
 4588              		.loc 2 162 26 is_stmt 0 view .LVU1442
 4589 0080 1122     		movs	r2, #17
 4590 0082 0021     		movs	r1, #0
 4591 0084 2046     		mov	r0, r4
 4592 0086 FFF7FEFF 		bl	lv_obj_get_style_prop
 4593              	.LVL509:
 4594 008a 1C90     		str	r0, [sp, #112]
 163:Drivers/lvgl/src/widgets/scale/../../core/lv_obj_style_gen.h **** }
 4595              		.loc 2 163 5 is_stmt 1 view .LVU1443
 4596              	.LVL510:
 163:Drivers/lvgl/src/widgets/scale/../../core/lv_obj_style_gen.h **** }
 4597              		.loc 2 163 5 is_stmt 0 view .LVU1444
 4598              	.LBE298:
 4599              	.LBE297:
1035:Drivers/lvgl/src/widgets/scale/lv_scale.c ****         const int32_t pad_left = lv_obj_get_style_pad_left(obj, LV_PART_MAIN) + border_width;
 4600              		.loc 1 1035 23 discriminator 1 view .LVU1445
 4601 008c 00EB0508 		add	r8, r0, r5
 4602              	.LVL511:
1036:Drivers/lvgl/src/widgets/scale/lv_scale.c ****         const int32_t pad_right = lv_obj_get_style_pad_right(obj, LV_PART_MAIN) + border_width;
 4603              		.loc 1 1036 9 is_stmt 1 view .LVU1446
 4604              	.LBB299:
 4605              	.LBI299:
 166:Drivers/lvgl/src/widgets/scale/../../core/lv_obj_style_gen.h **** {
 4606              		.loc 2 166 23 view .LVU1447
 4607              	.LBB300:
 168:Drivers/lvgl/src/widgets/scale/../../core/lv_obj_style_gen.h ****     return (int32_t)v.num;
ARM GAS  /var/folders/qx/2_175_4n2s19vhvtspjhb3qh0000gn/T//ccmbJJmj.s 			page 148


 4608              		.loc 2 168 5 view .LVU1448
 168:Drivers/lvgl/src/widgets/scale/../../core/lv_obj_style_gen.h ****     return (int32_t)v.num;
 4609              		.loc 2 168 26 is_stmt 0 view .LVU1449
 4610 0090 1222     		movs	r2, #18
 4611 0092 0021     		movs	r1, #0
 4612 0094 2046     		mov	r0, r4
 4613 0096 FFF7FEFF 		bl	lv_obj_get_style_prop
 4614              	.LVL512:
 4615 009a 1C90     		str	r0, [sp, #112]
 169:Drivers/lvgl/src/widgets/scale/../../core/lv_obj_style_gen.h **** }
 4616              		.loc 2 169 5 is_stmt 1 view .LVU1450
 4617              	.LVL513:
 169:Drivers/lvgl/src/widgets/scale/../../core/lv_obj_style_gen.h **** }
 4618              		.loc 2 169 5 is_stmt 0 view .LVU1451
 4619              	.LBE300:
 4620              	.LBE299:
1036:Drivers/lvgl/src/widgets/scale/lv_scale.c ****         const int32_t pad_right = lv_obj_get_style_pad_right(obj, LV_PART_MAIN) + border_width;
 4621              		.loc 1 1036 23 discriminator 1 view .LVU1452
 4622 009c 4719     		adds	r7, r0, r5
 4623              	.LVL514:
1037:Drivers/lvgl/src/widgets/scale/lv_scale.c **** 
 4624              		.loc 1 1037 9 is_stmt 1 view .LVU1453
 4625              	.LBB301:
 4626              	.LBI301:
 172:Drivers/lvgl/src/widgets/scale/../../core/lv_obj_style_gen.h **** {
 4627              		.loc 2 172 23 view .LVU1454
 4628              	.LBB302:
 174:Drivers/lvgl/src/widgets/scale/../../core/lv_obj_style_gen.h ****     return (int32_t)v.num;
 4629              		.loc 2 174 5 view .LVU1455
 174:Drivers/lvgl/src/widgets/scale/../../core/lv_obj_style_gen.h ****     return (int32_t)v.num;
 4630              		.loc 2 174 26 is_stmt 0 view .LVU1456
 4631 009e 1322     		movs	r2, #19
 4632 00a0 0021     		movs	r1, #0
 4633 00a2 2046     		mov	r0, r4
 4634 00a4 FFF7FEFF 		bl	lv_obj_get_style_prop
 4635              	.LVL515:
 4636 00a8 1C90     		str	r0, [sp, #112]
 175:Drivers/lvgl/src/widgets/scale/../../core/lv_obj_style_gen.h **** }
 4637              		.loc 2 175 5 is_stmt 1 view .LVU1457
 4638              	.LVL516:
 175:Drivers/lvgl/src/widgets/scale/../../core/lv_obj_style_gen.h **** }
 4639              		.loc 2 175 5 is_stmt 0 view .LVU1458
 4640              	.LBE302:
 4641              	.LBE301:
1037:Drivers/lvgl/src/widgets/scale/lv_scale.c **** 
 4642              		.loc 1 1037 23 discriminator 1 view .LVU1459
 4643 00aa 2844     		add	r0, r0, r5
 4644              	.LVL517:
1039:Drivers/lvgl/src/widgets/scale/lv_scale.c ****         int32_t y_ofs = 0;
 4645              		.loc 1 1039 9 is_stmt 1 view .LVU1460
1040:Drivers/lvgl/src/widgets/scale/lv_scale.c **** 
 4646              		.loc 1 1040 9 view .LVU1461
1042:Drivers/lvgl/src/widgets/scale/lv_scale.c ****             x_ofs = obj->coords.x2 + (line_dsc.width / 2) - pad_right;
 4647              		.loc 1 1042 9 view .LVU1462
1042:Drivers/lvgl/src/widgets/scale/lv_scale.c ****             x_ofs = obj->coords.x2 + (line_dsc.width / 2) - pad_right;
 4648              		.loc 1 1042 48 is_stmt 0 view .LVU1463
 4649 00ac 94F83C20 		ldrb	r2, [r4, #60]	@ zero_extendqisi2
ARM GAS  /var/folders/qx/2_175_4n2s19vhvtspjhb3qh0000gn/T//ccmbJJmj.s 			page 149


1042:Drivers/lvgl/src/widgets/scale/lv_scale.c ****             x_ofs = obj->coords.x2 + (line_dsc.width / 2) - pad_right;
 4650              		.loc 1 1042 11 view .LVU1464
 4651 00b0 022A     		cmp	r2, #2
 4652 00b2 11D0     		beq	.L224
1046:Drivers/lvgl/src/widgets/scale/lv_scale.c ****             x_ofs = obj->coords.x1 + (line_dsc.width / 2) + pad_left;
 4653              		.loc 1 1046 14 is_stmt 1 view .LVU1465
1046:Drivers/lvgl/src/widgets/scale/lv_scale.c ****             x_ofs = obj->coords.x1 + (line_dsc.width / 2) + pad_left;
 4654              		.loc 1 1046 16 is_stmt 0 view .LVU1466
 4655 00b4 042A     		cmp	r2, #4
 4656 00b6 19D0     		beq	.L225
1040:Drivers/lvgl/src/widgets/scale/lv_scale.c **** 
 4657              		.loc 1 1040 17 view .LVU1467
 4658 00b8 0021     		movs	r1, #0
1039:Drivers/lvgl/src/widgets/scale/lv_scale.c ****         int32_t y_ofs = 0;
 4659              		.loc 1 1039 17 view .LVU1468
 4660 00ba 0B46     		mov	r3, r1
 4661              	.LVL518:
 4662              	.L208:
1050:Drivers/lvgl/src/widgets/scale/lv_scale.c ****             x_ofs = obj->coords.x1 + pad_right;
 4663              		.loc 1 1050 9 is_stmt 1 view .LVU1469
1050:Drivers/lvgl/src/widgets/scale/lv_scale.c ****             x_ofs = obj->coords.x1 + pad_right;
 4664              		.loc 1 1050 11 is_stmt 0 view .LVU1470
 4665 00bc 012A     		cmp	r2, #1
 4666 00be 1FD0     		beq	.L226
1054:Drivers/lvgl/src/widgets/scale/lv_scale.c ****             x_ofs = obj->coords.x1 + pad_left;
 4667              		.loc 1 1054 14 is_stmt 1 view .LVU1471
1054:Drivers/lvgl/src/widgets/scale/lv_scale.c ****             x_ofs = obj->coords.x1 + pad_left;
 4668              		.loc 1 1054 16 is_stmt 0 view .LVU1472
 4669 00c0 3ABB     		cbnz	r2, .L210
1055:Drivers/lvgl/src/widgets/scale/lv_scale.c ****             y_ofs = obj->coords.y2 + (line_dsc.width / 2) - pad_bottom;
 4670              		.loc 1 1055 13 is_stmt 1 view .LVU1473
1055:Drivers/lvgl/src/widgets/scale/lv_scale.c ****             y_ofs = obj->coords.y2 + (line_dsc.width / 2) - pad_bottom;
 4671              		.loc 1 1055 32 is_stmt 0 view .LVU1474
 4672 00c2 6369     		ldr	r3, [r4, #20]
 4673              	.LVL519:
1055:Drivers/lvgl/src/widgets/scale/lv_scale.c ****             y_ofs = obj->coords.y2 + (line_dsc.width / 2) - pad_bottom;
 4674              		.loc 1 1055 19 view .LVU1475
 4675 00c4 3B44     		add	r3, r3, r7
 4676              	.LVL520:
1056:Drivers/lvgl/src/widgets/scale/lv_scale.c ****         }
 4677              		.loc 1 1056 13 is_stmt 1 view .LVU1476
1056:Drivers/lvgl/src/widgets/scale/lv_scale.c ****         }
 4678              		.loc 1 1056 32 is_stmt 0 view .LVU1477
 4679 00c6 216A     		ldr	r1, [r4, #32]
 4680              	.LVL521:
1056:Drivers/lvgl/src/widgets/scale/lv_scale.c ****         }
 4681              		.loc 1 1056 47 view .LVU1478
 4682 00c8 1898     		ldr	r0, [sp, #96]
 4683              	.LVL522:
1056:Drivers/lvgl/src/widgets/scale/lv_scale.c ****         }
 4684              		.loc 1 1056 54 view .LVU1479
 4685 00ca 00EBD070 		add	r0, r0, r0, lsr #31
1056:Drivers/lvgl/src/widgets/scale/lv_scale.c ****         }
 4686              		.loc 1 1056 36 view .LVU1480
 4687 00ce 01EB6001 		add	r1, r1, r0, asr #1
1056:Drivers/lvgl/src/widgets/scale/lv_scale.c ****         }
 4688              		.loc 1 1056 19 view .LVU1481
ARM GAS  /var/folders/qx/2_175_4n2s19vhvtspjhb3qh0000gn/T//ccmbJJmj.s 			page 150


 4689 00d2 A1EB0801 		sub	r1, r1, r8
 4690 00d6 1CE0     		b	.L210
 4691              	.LVL523:
 4692              	.L224:
1043:Drivers/lvgl/src/widgets/scale/lv_scale.c ****             y_ofs = obj->coords.y1 + pad_top;
 4693              		.loc 1 1043 13 is_stmt 1 view .LVU1482
1043:Drivers/lvgl/src/widgets/scale/lv_scale.c ****             y_ofs = obj->coords.y1 + pad_top;
 4694              		.loc 1 1043 32 is_stmt 0 view .LVU1483
 4695 00d8 E369     		ldr	r3, [r4, #28]
1043:Drivers/lvgl/src/widgets/scale/lv_scale.c ****             y_ofs = obj->coords.y1 + pad_top;
 4696              		.loc 1 1043 47 view .LVU1484
 4697 00da 1899     		ldr	r1, [sp, #96]
1043:Drivers/lvgl/src/widgets/scale/lv_scale.c ****             y_ofs = obj->coords.y1 + pad_top;
 4698              		.loc 1 1043 54 view .LVU1485
 4699 00dc 01EBD171 		add	r1, r1, r1, lsr #31
1043:Drivers/lvgl/src/widgets/scale/lv_scale.c ****             y_ofs = obj->coords.y1 + pad_top;
 4700              		.loc 1 1043 36 view .LVU1486
 4701 00e0 03EB6103 		add	r3, r3, r1, asr #1
1043:Drivers/lvgl/src/widgets/scale/lv_scale.c ****             y_ofs = obj->coords.y1 + pad_top;
 4702              		.loc 1 1043 19 view .LVU1487
 4703 00e4 1B1A     		subs	r3, r3, r0
 4704              	.LVL524:
1044:Drivers/lvgl/src/widgets/scale/lv_scale.c ****         }
 4705              		.loc 1 1044 13 is_stmt 1 view .LVU1488
1044:Drivers/lvgl/src/widgets/scale/lv_scale.c ****         }
 4706              		.loc 1 1044 32 is_stmt 0 view .LVU1489
 4707 00e6 A169     		ldr	r1, [r4, #24]
1044:Drivers/lvgl/src/widgets/scale/lv_scale.c ****         }
 4708              		.loc 1 1044 19 view .LVU1490
 4709 00e8 4944     		add	r1, r1, r9
 4710              	.LVL525:
1044:Drivers/lvgl/src/widgets/scale/lv_scale.c ****         }
 4711              		.loc 1 1044 19 view .LVU1491
 4712 00ea E7E7     		b	.L208
 4713              	.LVL526:
 4714              	.L225:
1047:Drivers/lvgl/src/widgets/scale/lv_scale.c ****             y_ofs = obj->coords.y1 + pad_top;
 4715              		.loc 1 1047 13 is_stmt 1 view .LVU1492
1047:Drivers/lvgl/src/widgets/scale/lv_scale.c ****             y_ofs = obj->coords.y1 + pad_top;
 4716              		.loc 1 1047 32 is_stmt 0 view .LVU1493
 4717 00ec 6369     		ldr	r3, [r4, #20]
1047:Drivers/lvgl/src/widgets/scale/lv_scale.c ****             y_ofs = obj->coords.y1 + pad_top;
 4718              		.loc 1 1047 47 view .LVU1494
 4719 00ee 1899     		ldr	r1, [sp, #96]
1047:Drivers/lvgl/src/widgets/scale/lv_scale.c ****             y_ofs = obj->coords.y1 + pad_top;
 4720              		.loc 1 1047 54 view .LVU1495
 4721 00f0 01EBD171 		add	r1, r1, r1, lsr #31
1047:Drivers/lvgl/src/widgets/scale/lv_scale.c ****             y_ofs = obj->coords.y1 + pad_top;
 4722              		.loc 1 1047 36 view .LVU1496
 4723 00f4 03EB6103 		add	r3, r3, r1, asr #1
1047:Drivers/lvgl/src/widgets/scale/lv_scale.c ****             y_ofs = obj->coords.y1 + pad_top;
 4724              		.loc 1 1047 19 view .LVU1497
 4725 00f8 3B44     		add	r3, r3, r7
 4726              	.LVL527:
1048:Drivers/lvgl/src/widgets/scale/lv_scale.c ****         }
 4727              		.loc 1 1048 13 is_stmt 1 view .LVU1498
1048:Drivers/lvgl/src/widgets/scale/lv_scale.c ****         }
ARM GAS  /var/folders/qx/2_175_4n2s19vhvtspjhb3qh0000gn/T//ccmbJJmj.s 			page 151


 4728              		.loc 1 1048 32 is_stmt 0 view .LVU1499
 4729 00fa A169     		ldr	r1, [r4, #24]
1048:Drivers/lvgl/src/widgets/scale/lv_scale.c ****         }
 4730              		.loc 1 1048 19 view .LVU1500
 4731 00fc 4944     		add	r1, r1, r9
 4732              	.LVL528:
1048:Drivers/lvgl/src/widgets/scale/lv_scale.c ****         }
 4733              		.loc 1 1048 19 view .LVU1501
 4734 00fe DDE7     		b	.L208
 4735              	.L226:
1051:Drivers/lvgl/src/widgets/scale/lv_scale.c ****             y_ofs = obj->coords.y1 + (line_dsc.width / 2) + pad_top;
 4736              		.loc 1 1051 13 is_stmt 1 view .LVU1502
1051:Drivers/lvgl/src/widgets/scale/lv_scale.c ****             y_ofs = obj->coords.y1 + (line_dsc.width / 2) + pad_top;
 4737              		.loc 1 1051 32 is_stmt 0 view .LVU1503
 4738 0100 6369     		ldr	r3, [r4, #20]
 4739              	.LVL529:
1051:Drivers/lvgl/src/widgets/scale/lv_scale.c ****             y_ofs = obj->coords.y1 + (line_dsc.width / 2) + pad_top;
 4740              		.loc 1 1051 19 view .LVU1504
 4741 0102 0344     		add	r3, r3, r0
 4742              	.LVL530:
1052:Drivers/lvgl/src/widgets/scale/lv_scale.c ****         }
 4743              		.loc 1 1052 13 is_stmt 1 view .LVU1505
1052:Drivers/lvgl/src/widgets/scale/lv_scale.c ****         }
 4744              		.loc 1 1052 32 is_stmt 0 view .LVU1506
 4745 0104 A169     		ldr	r1, [r4, #24]
 4746              	.LVL531:
1052:Drivers/lvgl/src/widgets/scale/lv_scale.c ****         }
 4747              		.loc 1 1052 47 view .LVU1507
 4748 0106 1898     		ldr	r0, [sp, #96]
 4749              	.LVL532:
1052:Drivers/lvgl/src/widgets/scale/lv_scale.c ****         }
 4750              		.loc 1 1052 54 view .LVU1508
 4751 0108 00EBD070 		add	r0, r0, r0, lsr #31
1052:Drivers/lvgl/src/widgets/scale/lv_scale.c ****         }
 4752              		.loc 1 1052 36 view .LVU1509
 4753 010c 01EB6001 		add	r1, r1, r0, asr #1
1052:Drivers/lvgl/src/widgets/scale/lv_scale.c ****         }
 4754              		.loc 1 1052 19 view .LVU1510
 4755 0110 4944     		add	r1, r1, r9
 4756              	.LVL533:
 4757              	.L210:
1058:Drivers/lvgl/src/widgets/scale/lv_scale.c **** 
 4758              		.loc 1 1058 36 is_stmt 1 view .LVU1511
1060:Drivers/lvgl/src/widgets/scale/lv_scale.c ****         lv_point_t main_line_point_b;
 4759              		.loc 1 1060 9 view .LVU1512
1061:Drivers/lvgl/src/widgets/scale/lv_scale.c **** 
 4760              		.loc 1 1061 9 view .LVU1513
1064:Drivers/lvgl/src/widgets/scale/lv_scale.c ****             main_line_point_a.x = x_ofs - 1;
 4761              		.loc 1 1064 9 view .LVU1514
1064:Drivers/lvgl/src/widgets/scale/lv_scale.c ****             main_line_point_a.x = x_ofs - 1;
 4762              		.loc 1 1064 11 is_stmt 0 view .LVU1515
 4763 0112 022A     		cmp	r2, #2
 4764 0114 14D0     		beq	.L211
1064:Drivers/lvgl/src/widgets/scale/lv_scale.c ****             main_line_point_a.x = x_ofs - 1;
 4765              		.loc 1 1064 55 discriminator 1 view .LVU1516
 4766 0116 042A     		cmp	r2, #4
 4767 0118 12D0     		beq	.L211
ARM GAS  /var/folders/qx/2_175_4n2s19vhvtspjhb3qh0000gn/T//ccmbJJmj.s 			page 152


1075:Drivers/lvgl/src/widgets/scale/lv_scale.c ****             main_line_point_a.y = y_ofs;
 4768              		.loc 1 1075 13 is_stmt 1 view .LVU1517
1075:Drivers/lvgl/src/widgets/scale/lv_scale.c ****             main_line_point_a.y = y_ofs;
 4769              		.loc 1 1075 33 is_stmt 0 view .LVU1518
 4770 011a 0493     		str	r3, [sp, #16]
1076:Drivers/lvgl/src/widgets/scale/lv_scale.c ****             /* X of second point starts at the edge of the object minus the left pad */
 4771              		.loc 1 1076 13 is_stmt 1 view .LVU1519
1076:Drivers/lvgl/src/widgets/scale/lv_scale.c ****             /* X of second point starts at the edge of the object minus the left pad */
 4772              		.loc 1 1076 33 is_stmt 0 view .LVU1520
 4773 011c 0591     		str	r1, [sp, #20]
1078:Drivers/lvgl/src/widgets/scale/lv_scale.c ****             main_line_point_b.y = y_ofs;
 4774              		.loc 1 1078 13 is_stmt 1 view .LVU1521
1078:Drivers/lvgl/src/widgets/scale/lv_scale.c ****             main_line_point_b.y = y_ofs;
 4775              		.loc 1 1078 46 is_stmt 0 view .LVU1522
 4776 011e E269     		ldr	r2, [r4, #28]
1078:Drivers/lvgl/src/widgets/scale/lv_scale.c ****             main_line_point_b.y = y_ofs;
 4777              		.loc 1 1078 50 view .LVU1523
 4778 0120 D21B     		subs	r2, r2, r7
1078:Drivers/lvgl/src/widgets/scale/lv_scale.c ****             main_line_point_b.y = y_ofs;
 4779              		.loc 1 1078 33 view .LVU1524
 4780 0122 0692     		str	r2, [sp, #24]
1079:Drivers/lvgl/src/widgets/scale/lv_scale.c **** 
 4781              		.loc 1 1079 13 is_stmt 1 view .LVU1525
1079:Drivers/lvgl/src/widgets/scale/lv_scale.c **** 
 4782              		.loc 1 1079 33 is_stmt 0 view .LVU1526
 4783 0124 0791     		str	r1, [sp, #28]
1082:Drivers/lvgl/src/widgets/scale/lv_scale.c ****             main_line_point_b.x += scale->first_tick_width / 2;
 4784              		.loc 1 1082 13 is_stmt 1 view .LVU1527
1082:Drivers/lvgl/src/widgets/scale/lv_scale.c ****             main_line_point_b.x += scale->first_tick_width / 2;
 4785              		.loc 1 1082 41 is_stmt 0 view .LVU1528
 4786 0126 E16D     		ldr	r1, [r4, #92]
 4787              	.LVL534:
1082:Drivers/lvgl/src/widgets/scale/lv_scale.c ****             main_line_point_b.x += scale->first_tick_width / 2;
 4788              		.loc 1 1082 59 view .LVU1529
 4789 0128 01EBD171 		add	r1, r1, r1, lsr #31
1082:Drivers/lvgl/src/widgets/scale/lv_scale.c ****             main_line_point_b.x += scale->first_tick_width / 2;
 4790              		.loc 1 1082 33 view .LVU1530
 4791 012c A3EB6103 		sub	r3, r3, r1, asr #1
 4792              	.LVL535:
1082:Drivers/lvgl/src/widgets/scale/lv_scale.c ****             main_line_point_b.x += scale->first_tick_width / 2;
 4793              		.loc 1 1082 33 view .LVU1531
 4794 0130 0493     		str	r3, [sp, #16]
 4795              	.LVL536:
1083:Drivers/lvgl/src/widgets/scale/lv_scale.c ****         }
 4796              		.loc 1 1083 13 is_stmt 1 view .LVU1532
1083:Drivers/lvgl/src/widgets/scale/lv_scale.c ****         }
 4797              		.loc 1 1083 41 is_stmt 0 view .LVU1533
 4798 0132 236E     		ldr	r3, [r4, #96]
1083:Drivers/lvgl/src/widgets/scale/lv_scale.c ****         }
 4799              		.loc 1 1083 60 view .LVU1534
 4800 0134 03EBD373 		add	r3, r3, r3, lsr #31
1083:Drivers/lvgl/src/widgets/scale/lv_scale.c ****         }
 4801              		.loc 1 1083 33 view .LVU1535
 4802 0138 02EB6302 		add	r2, r2, r3, asr #1
 4803 013c 0692     		str	r2, [sp, #24]
 4804 013e 13E0     		b	.L213
 4805              	.LVL537:
ARM GAS  /var/folders/qx/2_175_4n2s19vhvtspjhb3qh0000gn/T//ccmbJJmj.s 			page 153


 4806              	.L211:
1065:Drivers/lvgl/src/widgets/scale/lv_scale.c ****             main_line_point_a.y = y_ofs;
 4807              		.loc 1 1065 13 is_stmt 1 view .LVU1536
1065:Drivers/lvgl/src/widgets/scale/lv_scale.c ****             main_line_point_a.y = y_ofs;
 4808              		.loc 1 1065 41 is_stmt 0 view .LVU1537
 4809 0140 013B     		subs	r3, r3, #1
 4810              	.LVL538:
1065:Drivers/lvgl/src/widgets/scale/lv_scale.c ****             main_line_point_a.y = y_ofs;
 4811              		.loc 1 1065 33 view .LVU1538
 4812 0142 0493     		str	r3, [sp, #16]
1066:Drivers/lvgl/src/widgets/scale/lv_scale.c ****             main_line_point_b.x = x_ofs - 1;
 4813              		.loc 1 1066 13 is_stmt 1 view .LVU1539
1066:Drivers/lvgl/src/widgets/scale/lv_scale.c ****             main_line_point_b.x = x_ofs - 1;
 4814              		.loc 1 1066 33 is_stmt 0 view .LVU1540
 4815 0144 0591     		str	r1, [sp, #20]
1067:Drivers/lvgl/src/widgets/scale/lv_scale.c ****             main_line_point_b.y = obj->coords.y2 - pad_bottom;
 4816              		.loc 1 1067 13 is_stmt 1 view .LVU1541
1067:Drivers/lvgl/src/widgets/scale/lv_scale.c ****             main_line_point_b.y = obj->coords.y2 - pad_bottom;
 4817              		.loc 1 1067 33 is_stmt 0 view .LVU1542
 4818 0146 0693     		str	r3, [sp, #24]
1068:Drivers/lvgl/src/widgets/scale/lv_scale.c **** 
 4819              		.loc 1 1068 13 is_stmt 1 view .LVU1543
1068:Drivers/lvgl/src/widgets/scale/lv_scale.c **** 
 4820              		.loc 1 1068 46 is_stmt 0 view .LVU1544
 4821 0148 236A     		ldr	r3, [r4, #32]
 4822              	.LVL539:
1068:Drivers/lvgl/src/widgets/scale/lv_scale.c **** 
 4823              		.loc 1 1068 50 view .LVU1545
 4824 014a A3EB0803 		sub	r3, r3, r8
1068:Drivers/lvgl/src/widgets/scale/lv_scale.c **** 
 4825              		.loc 1 1068 33 view .LVU1546
 4826 014e 0793     		str	r3, [sp, #28]
1071:Drivers/lvgl/src/widgets/scale/lv_scale.c ****             main_line_point_b.y += scale->first_tick_width / 2;
 4827              		.loc 1 1071 13 is_stmt 1 view .LVU1547
1071:Drivers/lvgl/src/widgets/scale/lv_scale.c ****             main_line_point_b.y += scale->first_tick_width / 2;
 4828              		.loc 1 1071 41 is_stmt 0 view .LVU1548
 4829 0150 E26D     		ldr	r2, [r4, #92]
1071:Drivers/lvgl/src/widgets/scale/lv_scale.c ****             main_line_point_b.y += scale->first_tick_width / 2;
 4830              		.loc 1 1071 59 view .LVU1549
 4831 0152 02EBD272 		add	r2, r2, r2, lsr #31
1071:Drivers/lvgl/src/widgets/scale/lv_scale.c ****             main_line_point_b.y += scale->first_tick_width / 2;
 4832              		.loc 1 1071 33 view .LVU1550
 4833 0156 A1EB6202 		sub	r2, r1, r2, asr #1
 4834 015a 0592     		str	r2, [sp, #20]
1072:Drivers/lvgl/src/widgets/scale/lv_scale.c ****         }
 4835              		.loc 1 1072 13 is_stmt 1 view .LVU1551
1072:Drivers/lvgl/src/widgets/scale/lv_scale.c ****         }
 4836              		.loc 1 1072 41 is_stmt 0 view .LVU1552
 4837 015c 226E     		ldr	r2, [r4, #96]
1072:Drivers/lvgl/src/widgets/scale/lv_scale.c ****         }
 4838              		.loc 1 1072 60 view .LVU1553
 4839 015e 02EBD272 		add	r2, r2, r2, lsr #31
1072:Drivers/lvgl/src/widgets/scale/lv_scale.c ****         }
 4840              		.loc 1 1072 33 view .LVU1554
 4841 0162 03EB6203 		add	r3, r3, r2, asr #1
 4842 0166 0793     		str	r3, [sp, #28]
 4843              	.LVL540:
ARM GAS  /var/folders/qx/2_175_4n2s19vhvtspjhb3qh0000gn/T//ccmbJJmj.s 			page 154


 4844              	.L213:
1086:Drivers/lvgl/src/widgets/scale/lv_scale.c ****         line_dsc.p2 = lv_point_to_precise(&main_line_point_b);
 4845              		.loc 1 1086 9 is_stmt 1 view .LVU1555
1086:Drivers/lvgl/src/widgets/scale/lv_scale.c ****         line_dsc.p2 = lv_point_to_precise(&main_line_point_b);
 4846              		.loc 1 1086 23 is_stmt 0 view .LVU1556
 4847 0168 02AD     		add	r5, sp, #8
 4848              	.LVL541:
1086:Drivers/lvgl/src/widgets/scale/lv_scale.c ****         line_dsc.p2 = lv_point_to_precise(&main_line_point_b);
 4849              		.loc 1 1086 23 view .LVU1557
 4850 016a 04A9     		add	r1, sp, #16
 4851 016c 2846     		mov	r0, r5
 4852 016e FFF7FEFF 		bl	lv_point_to_precise
 4853              	.LVL542:
1086:Drivers/lvgl/src/widgets/scale/lv_scale.c ****         line_dsc.p2 = lv_point_to_precise(&main_line_point_b);
 4854              		.loc 1 1086 23 view .LVU1558
 4855 0172 13AB     		add	r3, sp, #76
 4856 0174 95E80300 		ldm	r5, {r0, r1}
 4857 0178 83E80300 		stm	r3, {r0, r1}
1087:Drivers/lvgl/src/widgets/scale/lv_scale.c ****         lv_draw_line(layer, &line_dsc);
 4858              		.loc 1 1087 9 is_stmt 1 view .LVU1559
1087:Drivers/lvgl/src/widgets/scale/lv_scale.c ****         lv_draw_line(layer, &line_dsc);
 4859              		.loc 1 1087 23 is_stmt 0 view .LVU1560
 4860 017c 06A9     		add	r1, sp, #24
 4861 017e 2846     		mov	r0, r5
 4862 0180 FFF7FEFF 		bl	lv_point_to_precise
 4863              	.LVL543:
 4864 0184 15AB     		add	r3, sp, #84
 4865 0186 95E80300 		ldm	r5, {r0, r1}
 4866 018a 83E80300 		stm	r3, {r0, r1}
1088:Drivers/lvgl/src/widgets/scale/lv_scale.c **** 
 4867              		.loc 1 1088 9 is_stmt 1 view .LVU1561
 4868 018e 0CA9     		add	r1, sp, #48
 4869 0190 3046     		mov	r0, r6
 4870 0192 FFF7FEFF 		bl	lv_draw_line
 4871              	.LVL544:
1090:Drivers/lvgl/src/widgets/scale/lv_scale.c ****         LV_LL_READ_BACK(&scale->section_ll, section) {
 4872              		.loc 1 1090 9 view .LVU1562
1091:Drivers/lvgl/src/widgets/scale/lv_scale.c ****             lv_draw_line_dsc_t section_line_dsc;
 4873              		.loc 1 1091 9 view .LVU1563
 4874 0196 04F12C07 		add	r7, r4, #44
 4875              	.LVL545:
1091:Drivers/lvgl/src/widgets/scale/lv_scale.c ****             lv_draw_line_dsc_t section_line_dsc;
 4876              		.loc 1 1091 9 is_stmt 0 view .LVU1564
 4877 019a 3846     		mov	r0, r7
 4878 019c FFF7FEFF 		bl	lv_ll_get_tail
 4879              	.LVL546:
 4880 01a0 0546     		mov	r5, r0
 4881              	.LVL547:
1091:Drivers/lvgl/src/widgets/scale/lv_scale.c ****             lv_draw_line_dsc_t section_line_dsc;
 4882              		.loc 1 1091 9 view .LVU1565
 4883 01a2 21E0     		b	.L214
 4884              	.LVL548:
 4885              	.L215:
 4886              	.LBB303:
1107:Drivers/lvgl/src/widgets/scale/lv_scale.c ****                 section_point_a.y = section->first_tick_in_section.y + first_tick_width_halved;
 4887              		.loc 1 1107 17 is_stmt 1 view .LVU1566
1107:Drivers/lvgl/src/widgets/scale/lv_scale.c ****                 section_point_a.y = section->first_tick_in_section.y + first_tick_width_halved;
ARM GAS  /var/folders/qx/2_175_4n2s19vhvtspjhb3qh0000gn/T//ccmbJJmj.s 			page 155


 4888              		.loc 1 1107 54 is_stmt 0 view .LVU1567
 4889 01a4 0498     		ldr	r0, [sp, #16]
1107:Drivers/lvgl/src/widgets/scale/lv_scale.c ****                 section_point_a.y = section->first_tick_in_section.y + first_tick_width_halved;
 4890              		.loc 1 1107 35 view .LVU1568
 4891 01a6 0890     		str	r0, [sp, #32]
1108:Drivers/lvgl/src/widgets/scale/lv_scale.c **** 
 4892              		.loc 1 1108 17 is_stmt 1 view .LVU1569
1108:Drivers/lvgl/src/widgets/scale/lv_scale.c **** 
 4893              		.loc 1 1108 67 is_stmt 0 view .LVU1570
 4894 01a8 A96A     		ldr	r1, [r5, #40]
1108:Drivers/lvgl/src/widgets/scale/lv_scale.c **** 
 4895              		.loc 1 1108 70 view .LVU1571
 4896 01aa 1944     		add	r1, r1, r3
1108:Drivers/lvgl/src/widgets/scale/lv_scale.c **** 
 4897              		.loc 1 1108 35 view .LVU1572
 4898 01ac 0991     		str	r1, [sp, #36]
1111:Drivers/lvgl/src/widgets/scale/lv_scale.c ****                 section_point_b.y = section->last_tick_in_section.y - last_tick_width_halved;
 4899              		.loc 1 1111 17 is_stmt 1 view .LVU1573
1111:Drivers/lvgl/src/widgets/scale/lv_scale.c ****                 section_point_b.y = section->last_tick_in_section.y - last_tick_width_halved;
 4900              		.loc 1 1111 35 is_stmt 0 view .LVU1574
 4901 01ae 0A90     		str	r0, [sp, #40]
1112:Drivers/lvgl/src/widgets/scale/lv_scale.c ****             }
 4902              		.loc 1 1112 17 is_stmt 1 view .LVU1575
1112:Drivers/lvgl/src/widgets/scale/lv_scale.c ****             }
 4903              		.loc 1 1112 66 is_stmt 0 view .LVU1576
 4904 01b0 2B6B     		ldr	r3, [r5, #48]
 4905              	.LVL549:
1112:Drivers/lvgl/src/widgets/scale/lv_scale.c ****             }
 4906              		.loc 1 1112 69 view .LVU1577
 4907 01b2 9B1A     		subs	r3, r3, r2
1112:Drivers/lvgl/src/widgets/scale/lv_scale.c ****             }
 4908              		.loc 1 1112 35 view .LVU1578
 4909 01b4 0B93     		str	r3, [sp, #44]
 4910              	.L217:
1124:Drivers/lvgl/src/widgets/scale/lv_scale.c **** 
 4911              		.loc 1 1124 13 is_stmt 1 view .LVU1579
 4912 01b6 0DF17008 		add	r8, sp, #112
 4913 01ba 0023     		movs	r3, #0
 4914 01bc 2A68     		ldr	r2, [r5]
 4915              	.LVL550:
1124:Drivers/lvgl/src/widgets/scale/lv_scale.c **** 
 4916              		.loc 1 1124 13 is_stmt 0 view .LVU1580
 4917 01be 4146     		mov	r1, r8
 4918 01c0 2046     		mov	r0, r4
 4919 01c2 FFF7FEFF 		bl	scale_set_line_properties
 4920              	.LVL551:
1126:Drivers/lvgl/src/widgets/scale/lv_scale.c ****             section_line_dsc.p1.y = section_point_a.y;
 4921              		.loc 1 1126 13 is_stmt 1 view .LVU1581
1126:Drivers/lvgl/src/widgets/scale/lv_scale.c ****             section_line_dsc.p1.y = section_point_a.y;
 4922              		.loc 1 1126 52 is_stmt 0 view .LVU1582
 4923 01c6 089B     		ldr	r3, [sp, #32]
1126:Drivers/lvgl/src/widgets/scale/lv_scale.c ****             section_line_dsc.p1.y = section_point_a.y;
 4924              		.loc 1 1126 35 view .LVU1583
 4925 01c8 2393     		str	r3, [sp, #140]
1127:Drivers/lvgl/src/widgets/scale/lv_scale.c ****             section_line_dsc.p2.x = section_point_b.x;
 4926              		.loc 1 1127 13 is_stmt 1 view .LVU1584
1127:Drivers/lvgl/src/widgets/scale/lv_scale.c ****             section_line_dsc.p2.x = section_point_b.x;
ARM GAS  /var/folders/qx/2_175_4n2s19vhvtspjhb3qh0000gn/T//ccmbJJmj.s 			page 156


 4927              		.loc 1 1127 52 is_stmt 0 view .LVU1585
 4928 01ca 099B     		ldr	r3, [sp, #36]
1127:Drivers/lvgl/src/widgets/scale/lv_scale.c ****             section_line_dsc.p2.x = section_point_b.x;
 4929              		.loc 1 1127 35 view .LVU1586
 4930 01cc 2493     		str	r3, [sp, #144]
1128:Drivers/lvgl/src/widgets/scale/lv_scale.c ****             section_line_dsc.p2.y = section_point_b.y;
 4931              		.loc 1 1128 13 is_stmt 1 view .LVU1587
1128:Drivers/lvgl/src/widgets/scale/lv_scale.c ****             section_line_dsc.p2.y = section_point_b.y;
 4932              		.loc 1 1128 52 is_stmt 0 view .LVU1588
 4933 01ce 0A9B     		ldr	r3, [sp, #40]
1128:Drivers/lvgl/src/widgets/scale/lv_scale.c ****             section_line_dsc.p2.y = section_point_b.y;
 4934              		.loc 1 1128 35 view .LVU1589
 4935 01d0 2593     		str	r3, [sp, #148]
1129:Drivers/lvgl/src/widgets/scale/lv_scale.c ****             lv_draw_line(layer, &section_line_dsc);
 4936              		.loc 1 1129 13 is_stmt 1 view .LVU1590
1129:Drivers/lvgl/src/widgets/scale/lv_scale.c ****             lv_draw_line(layer, &section_line_dsc);
 4937              		.loc 1 1129 52 is_stmt 0 view .LVU1591
 4938 01d2 0B9B     		ldr	r3, [sp, #44]
1129:Drivers/lvgl/src/widgets/scale/lv_scale.c ****             lv_draw_line(layer, &section_line_dsc);
 4939              		.loc 1 1129 35 view .LVU1592
 4940 01d4 2693     		str	r3, [sp, #152]
1130:Drivers/lvgl/src/widgets/scale/lv_scale.c ****         }
 4941              		.loc 1 1130 13 is_stmt 1 view .LVU1593
 4942 01d6 4146     		mov	r1, r8
 4943 01d8 3046     		mov	r0, r6
 4944 01da FFF7FEFF 		bl	lv_draw_line
 4945              	.LVL552:
 4946              	.LBE303:
1091:Drivers/lvgl/src/widgets/scale/lv_scale.c ****             lv_draw_line_dsc_t section_line_dsc;
 4947              		.loc 1 1091 9 discriminator 2 view .LVU1594
 4948 01de 2946     		mov	r1, r5
 4949 01e0 3846     		mov	r0, r7
 4950 01e2 FFF7FEFF 		bl	lv_ll_get_prev
 4951              	.LVL553:
 4952 01e6 0546     		mov	r5, r0
 4953              	.LVL554:
 4954              	.L214:
1091:Drivers/lvgl/src/widgets/scale/lv_scale.c ****             lv_draw_line_dsc_t section_line_dsc;
 4955              		.loc 1 1091 9 discriminator 1 view .LVU1595
 4956 01e8 002D     		cmp	r5, #0
 4957 01ea 00F09E80 		beq	.L202
 4958              	.LBB304:
1092:Drivers/lvgl/src/widgets/scale/lv_scale.c ****             lv_draw_line_dsc_init(&section_line_dsc);
 4959              		.loc 1 1092 13 view .LVU1596
1093:Drivers/lvgl/src/widgets/scale/lv_scale.c ****             section_line_dsc.base.layer = layer;
 4960              		.loc 1 1093 13 view .LVU1597
 4961 01ee 0DF17008 		add	r8, sp, #112
 4962 01f2 4046     		mov	r0, r8
 4963 01f4 FFF7FEFF 		bl	lv_draw_line_dsc_init
 4964              	.LVL555:
1094:Drivers/lvgl/src/widgets/scale/lv_scale.c ****             lv_obj_init_draw_line_dsc(obj, LV_PART_MAIN, &section_line_dsc);
 4965              		.loc 1 1094 13 view .LVU1598
1094:Drivers/lvgl/src/widgets/scale/lv_scale.c ****             lv_obj_init_draw_line_dsc(obj, LV_PART_MAIN, &section_line_dsc);
 4966              		.loc 1 1094 41 is_stmt 0 view .LVU1599
 4967 01f8 2096     		str	r6, [sp, #128]
1095:Drivers/lvgl/src/widgets/scale/lv_scale.c **** 
 4968              		.loc 1 1095 13 is_stmt 1 view .LVU1600
ARM GAS  /var/folders/qx/2_175_4n2s19vhvtspjhb3qh0000gn/T//ccmbJJmj.s 			page 157


 4969 01fa 4246     		mov	r2, r8
 4970 01fc 0021     		movs	r1, #0
 4971 01fe 2046     		mov	r0, r4
 4972 0200 FFF7FEFF 		bl	lv_obj_init_draw_line_dsc
 4973              	.LVL556:
1098:Drivers/lvgl/src/widgets/scale/lv_scale.c ****             lv_point_t section_point_b;
 4974              		.loc 1 1098 13 view .LVU1601
1099:Drivers/lvgl/src/widgets/scale/lv_scale.c **** 
 4975              		.loc 1 1099 13 view .LVU1602
1101:Drivers/lvgl/src/widgets/scale/lv_scale.c ****             const int32_t last_tick_width_halved = (int32_t)(section->last_tick_in_section_width / 
 4976              		.loc 1 1101 13 view .LVU1603
1101:Drivers/lvgl/src/widgets/scale/lv_scale.c ****             const int32_t last_tick_width_halved = (int32_t)(section->last_tick_in_section_width / 
 4977              		.loc 1 1101 70 is_stmt 0 view .LVU1604
 4978 0204 EB69     		ldr	r3, [r5, #28]
1101:Drivers/lvgl/src/widgets/scale/lv_scale.c ****             const int32_t last_tick_width_halved = (int32_t)(section->last_tick_in_section_width / 
 4979              		.loc 1 1101 27 view .LVU1605
 4980 0206 03EBD373 		add	r3, r3, r3, lsr #31
 4981 020a 5B10     		asrs	r3, r3, #1
 4982              	.LVL557:
1102:Drivers/lvgl/src/widgets/scale/lv_scale.c **** 
 4983              		.loc 1 1102 13 is_stmt 1 view .LVU1606
1102:Drivers/lvgl/src/widgets/scale/lv_scale.c **** 
 4984              		.loc 1 1102 69 is_stmt 0 view .LVU1607
 4985 020c 2A6A     		ldr	r2, [r5, #32]
1102:Drivers/lvgl/src/widgets/scale/lv_scale.c **** 
 4986              		.loc 1 1102 27 view .LVU1608
 4987 020e 02EBD272 		add	r2, r2, r2, lsr #31
 4988 0212 5210     		asrs	r2, r2, #1
 4989              	.LVL558:
1105:Drivers/lvgl/src/widgets/scale/lv_scale.c ****                 /* Calculate position of the first tick in the section */
 4990              		.loc 1 1105 13 is_stmt 1 view .LVU1609
1105:Drivers/lvgl/src/widgets/scale/lv_scale.c ****                 /* Calculate position of the first tick in the section */
 4991              		.loc 1 1105 52 is_stmt 0 view .LVU1610
 4992 0214 94F83C10 		ldrb	r1, [r4, #60]	@ zero_extendqisi2
1105:Drivers/lvgl/src/widgets/scale/lv_scale.c ****                 /* Calculate position of the first tick in the section */
 4993              		.loc 1 1105 15 view .LVU1611
 4994 0218 0229     		cmp	r1, #2
 4995 021a C3D0     		beq	.L215
1105:Drivers/lvgl/src/widgets/scale/lv_scale.c ****                 /* Calculate position of the first tick in the section */
 4996              		.loc 1 1105 59 discriminator 1 view .LVU1612
 4997 021c 0429     		cmp	r1, #4
 4998 021e C1D0     		beq	.L215
1116:Drivers/lvgl/src/widgets/scale/lv_scale.c ****                 section_point_a.y = main_line_point_a.y;
 4999              		.loc 1 1116 17 is_stmt 1 view .LVU1613
1116:Drivers/lvgl/src/widgets/scale/lv_scale.c ****                 section_point_a.y = main_line_point_a.y;
 5000              		.loc 1 1116 67 is_stmt 0 view .LVU1614
 5001 0220 696A     		ldr	r1, [r5, #36]
1116:Drivers/lvgl/src/widgets/scale/lv_scale.c ****                 section_point_a.y = main_line_point_a.y;
 5002              		.loc 1 1116 70 view .LVU1615
 5003 0222 C91A     		subs	r1, r1, r3
1116:Drivers/lvgl/src/widgets/scale/lv_scale.c ****                 section_point_a.y = main_line_point_a.y;
 5004              		.loc 1 1116 35 view .LVU1616
 5005 0224 0891     		str	r1, [sp, #32]
1117:Drivers/lvgl/src/widgets/scale/lv_scale.c **** 
 5006              		.loc 1 1117 17 is_stmt 1 view .LVU1617
1117:Drivers/lvgl/src/widgets/scale/lv_scale.c **** 
 5007              		.loc 1 1117 54 is_stmt 0 view .LVU1618
ARM GAS  /var/folders/qx/2_175_4n2s19vhvtspjhb3qh0000gn/T//ccmbJJmj.s 			page 158


 5008 0226 0599     		ldr	r1, [sp, #20]
1117:Drivers/lvgl/src/widgets/scale/lv_scale.c **** 
 5009              		.loc 1 1117 35 view .LVU1619
 5010 0228 0991     		str	r1, [sp, #36]
1120:Drivers/lvgl/src/widgets/scale/lv_scale.c ****                 section_point_b.y = main_line_point_a.y;
 5011              		.loc 1 1120 17 is_stmt 1 view .LVU1620
1120:Drivers/lvgl/src/widgets/scale/lv_scale.c ****                 section_point_b.y = main_line_point_a.y;
 5012              		.loc 1 1120 66 is_stmt 0 view .LVU1621
 5013 022a EB6A     		ldr	r3, [r5, #44]
 5014              	.LVL559:
1120:Drivers/lvgl/src/widgets/scale/lv_scale.c ****                 section_point_b.y = main_line_point_a.y;
 5015              		.loc 1 1120 69 view .LVU1622
 5016 022c 1344     		add	r3, r3, r2
1120:Drivers/lvgl/src/widgets/scale/lv_scale.c ****                 section_point_b.y = main_line_point_a.y;
 5017              		.loc 1 1120 35 view .LVU1623
 5018 022e 0A93     		str	r3, [sp, #40]
1121:Drivers/lvgl/src/widgets/scale/lv_scale.c ****             }
 5019              		.loc 1 1121 17 is_stmt 1 view .LVU1624
1121:Drivers/lvgl/src/widgets/scale/lv_scale.c ****             }
 5020              		.loc 1 1121 35 is_stmt 0 view .LVU1625
 5021 0230 0B91     		str	r1, [sp, #44]
 5022 0232 C0E7     		b	.L217
 5023              	.LVL560:
 5024              	.L204:
1121:Drivers/lvgl/src/widgets/scale/lv_scale.c ****             }
 5025              		.loc 1 1121 35 view .LVU1626
 5026              	.LBE304:
 5027              	.LBE292:
 5028              	.LBB305:
1135:Drivers/lvgl/src/widgets/scale/lv_scale.c ****         lv_draw_arc_dsc_init(&arc_dsc);
 5029              		.loc 1 1135 9 is_stmt 1 view .LVU1627
1136:Drivers/lvgl/src/widgets/scale/lv_scale.c ****         arc_dsc.base.layer = layer;
 5030              		.loc 1 1136 9 view .LVU1628
 5031 0234 0CAD     		add	r5, sp, #48
 5032 0236 2846     		mov	r0, r5
 5033              	.LVL561:
1136:Drivers/lvgl/src/widgets/scale/lv_scale.c ****         arc_dsc.base.layer = layer;
 5034              		.loc 1 1136 9 is_stmt 0 view .LVU1629
 5035 0238 FFF7FEFF 		bl	lv_draw_arc_dsc_init
 5036              	.LVL562:
1137:Drivers/lvgl/src/widgets/scale/lv_scale.c ****         lv_obj_init_draw_arc_dsc(obj, LV_PART_MAIN, &arc_dsc);
 5037              		.loc 1 1137 9 is_stmt 1 view .LVU1630
1137:Drivers/lvgl/src/widgets/scale/lv_scale.c ****         lv_obj_init_draw_arc_dsc(obj, LV_PART_MAIN, &arc_dsc);
 5038              		.loc 1 1137 28 is_stmt 0 view .LVU1631
 5039 023c 1096     		str	r6, [sp, #64]
1138:Drivers/lvgl/src/widgets/scale/lv_scale.c **** 
 5040              		.loc 1 1138 9 is_stmt 1 view .LVU1632
 5041 023e 2A46     		mov	r2, r5
 5042 0240 0021     		movs	r1, #0
 5043 0242 2046     		mov	r0, r4
 5044 0244 FFF7FEFF 		bl	lv_obj_init_draw_arc_dsc
 5045              	.LVL563:
1140:Drivers/lvgl/src/widgets/scale/lv_scale.c ****         int32_t arc_radius;
 5046              		.loc 1 1140 9 view .LVU1633
1141:Drivers/lvgl/src/widgets/scale/lv_scale.c ****         scale_get_center(obj, &arc_center, &arc_radius);
 5047              		.loc 1 1141 9 view .LVU1634
1142:Drivers/lvgl/src/widgets/scale/lv_scale.c **** 
ARM GAS  /var/folders/qx/2_175_4n2s19vhvtspjhb3qh0000gn/T//ccmbJJmj.s 			page 159


 5048              		.loc 1 1142 9 view .LVU1635
 5049 0248 0DF12008 		add	r8, sp, #32
 5050 024c 04AA     		add	r2, sp, #16
 5051 024e 4146     		mov	r1, r8
 5052 0250 2046     		mov	r0, r4
 5053 0252 FFF7FEFF 		bl	scale_get_center
 5054              	.LVL564:
1145:Drivers/lvgl/src/widgets/scale/lv_scale.c ****                                            scale->rotation + scale->angle_range);
 5055              		.loc 1 1145 9 view .LVU1636
1145:Drivers/lvgl/src/widgets/scale/lv_scale.c ****                                            scale->rotation + scale->angle_range);
 5056              		.loc 1 1145 37 is_stmt 0 view .LVU1637
 5057 0256 206C     		ldr	r0, [r4, #64]
 5058 0258 636D     		ldr	r3, [r4, #84]
1146:Drivers/lvgl/src/widgets/scale/lv_scale.c ****         const int32_t end_angle = lv_map(scale->range_max, scale->range_min, scale->range_max, scal
 5059              		.loc 1 1146 67 view .LVU1638
 5060 025a 226D     		ldr	r2, [r4, #80]
1146:Drivers/lvgl/src/widgets/scale/lv_scale.c ****         const int32_t end_angle = lv_map(scale->range_max, scale->range_min, scale->range_max, scal
 5061              		.loc 1 1146 60 view .LVU1639
 5062 025c 1A44     		add	r2, r2, r3
1145:Drivers/lvgl/src/widgets/scale/lv_scale.c ****                                            scale->rotation + scale->angle_range);
 5063              		.loc 1 1145 37 view .LVU1640
 5064 025e 0092     		str	r2, [sp]
 5065 0260 626C     		ldr	r2, [r4, #68]
 5066 0262 0146     		mov	r1, r0
 5067 0264 FFF7FEFF 		bl	lv_map
 5068              	.LVL565:
 5069 0268 0746     		mov	r7, r0
 5070              	.LVL566:
1147:Drivers/lvgl/src/widgets/scale/lv_scale.c ****                                          scale->rotation + scale->angle_range);
 5071              		.loc 1 1147 9 is_stmt 1 view .LVU1641
1147:Drivers/lvgl/src/widgets/scale/lv_scale.c ****                                          scale->rotation + scale->angle_range);
 5072              		.loc 1 1147 35 is_stmt 0 view .LVU1642
 5073 026a 606C     		ldr	r0, [r4, #68]
 5074              	.LVL567:
1147:Drivers/lvgl/src/widgets/scale/lv_scale.c ****                                          scale->rotation + scale->angle_range);
 5075              		.loc 1 1147 35 view .LVU1643
 5076 026c 636D     		ldr	r3, [r4, #84]
1148:Drivers/lvgl/src/widgets/scale/lv_scale.c **** 
 5077              		.loc 1 1148 65 view .LVU1644
 5078 026e 216D     		ldr	r1, [r4, #80]
1148:Drivers/lvgl/src/widgets/scale/lv_scale.c **** 
 5079              		.loc 1 1148 58 view .LVU1645
 5080 0270 1944     		add	r1, r1, r3
1147:Drivers/lvgl/src/widgets/scale/lv_scale.c ****                                          scale->rotation + scale->angle_range);
 5081              		.loc 1 1147 35 view .LVU1646
 5082 0272 0091     		str	r1, [sp]
 5083 0274 0246     		mov	r2, r0
 5084 0276 216C     		ldr	r1, [r4, #64]
 5085 0278 FFF7FEFF 		bl	lv_map
 5086              	.LVL568:
 5087 027c 0246     		mov	r2, r0
 5088              	.LVL569:
1150:Drivers/lvgl/src/widgets/scale/lv_scale.c ****         arc_dsc.radius = arc_radius;
 5089              		.loc 1 1150 9 is_stmt 1 view .LVU1647
1150:Drivers/lvgl/src/widgets/scale/lv_scale.c ****         arc_dsc.radius = arc_radius;
 5090              		.loc 1 1150 24 is_stmt 0 view .LVU1648
 5091 027e 17AB     		add	r3, sp, #92
ARM GAS  /var/folders/qx/2_175_4n2s19vhvtspjhb3qh0000gn/T//ccmbJJmj.s 			page 160


 5092 0280 98E80300 		ldm	r8, {r0, r1}
 5093              	.LVL570:
1150:Drivers/lvgl/src/widgets/scale/lv_scale.c ****         arc_dsc.radius = arc_radius;
 5094              		.loc 1 1150 24 view .LVU1649
 5095 0284 83E80300 		stm	r3, {r0, r1}
1151:Drivers/lvgl/src/widgets/scale/lv_scale.c ****         arc_dsc.start_angle = start_angle;
 5096              		.loc 1 1151 9 is_stmt 1 view .LVU1650
1151:Drivers/lvgl/src/widgets/scale/lv_scale.c ****         arc_dsc.start_angle = start_angle;
 5097              		.loc 1 1151 24 is_stmt 0 view .LVU1651
 5098 0288 049B     		ldr	r3, [sp, #16]
 5099 028a ADF86830 		strh	r3, [sp, #104]	@ movhi
1152:Drivers/lvgl/src/widgets/scale/lv_scale.c ****         arc_dsc.end_angle = end_angle;
 5100              		.loc 1 1152 9 is_stmt 1 view .LVU1652
1152:Drivers/lvgl/src/widgets/scale/lv_scale.c ****         arc_dsc.end_angle = end_angle;
 5101              		.loc 1 1152 29 is_stmt 0 view .LVU1653
 5102 028e 1597     		str	r7, [sp, #84]
1153:Drivers/lvgl/src/widgets/scale/lv_scale.c **** 
 5103              		.loc 1 1153 9 is_stmt 1 view .LVU1654
1153:Drivers/lvgl/src/widgets/scale/lv_scale.c **** 
 5104              		.loc 1 1153 27 is_stmt 0 view .LVU1655
 5105 0290 1692     		str	r2, [sp, #88]
1155:Drivers/lvgl/src/widgets/scale/lv_scale.c **** 
 5106              		.loc 1 1155 9 is_stmt 1 view .LVU1656
 5107 0292 2946     		mov	r1, r5
 5108 0294 3046     		mov	r0, r6
 5109 0296 FFF7FEFF 		bl	lv_draw_arc
 5110              	.LVL571:
1157:Drivers/lvgl/src/widgets/scale/lv_scale.c ****         LV_LL_READ_BACK(&scale->section_ll, section) {
 5111              		.loc 1 1157 9 view .LVU1657
1158:Drivers/lvgl/src/widgets/scale/lv_scale.c ****             lv_draw_arc_dsc_t main_arc_section_dsc;
 5112              		.loc 1 1158 9 view .LVU1658
 5113 029a 04F12C0B 		add	fp, r4, #44
 5114 029e 5846     		mov	r0, fp
 5115 02a0 FFF7FEFF 		bl	lv_ll_get_tail
 5116              	.LVL572:
 5117 02a4 0546     		mov	r5, r0
 5118              	.LVL573:
1158:Drivers/lvgl/src/widgets/scale/lv_scale.c ****             lv_draw_arc_dsc_t main_arc_section_dsc;
 5119              		.loc 1 1158 9 is_stmt 0 view .LVU1659
 5120 02a6 3EE0     		b	.L219
 5121              	.LVL574:
 5122              	.L220:
 5123              	.LBB306:
1159:Drivers/lvgl/src/widgets/scale/lv_scale.c ****             lv_draw_arc_dsc_init(&main_arc_section_dsc);
 5124              		.loc 1 1159 13 is_stmt 1 view .LVU1660
1160:Drivers/lvgl/src/widgets/scale/lv_scale.c ****             main_arc_section_dsc.base.layer = layer;
 5125              		.loc 1 1160 13 view .LVU1661
 5126 02a8 1CAF     		add	r7, sp, #112
 5127 02aa 3846     		mov	r0, r7
 5128 02ac FFF7FEFF 		bl	lv_draw_arc_dsc_init
 5129              	.LVL575:
1161:Drivers/lvgl/src/widgets/scale/lv_scale.c ****             lv_obj_init_draw_arc_dsc(obj, LV_PART_MAIN, &main_arc_section_dsc);
 5130              		.loc 1 1161 13 view .LVU1662
1161:Drivers/lvgl/src/widgets/scale/lv_scale.c ****             lv_obj_init_draw_arc_dsc(obj, LV_PART_MAIN, &main_arc_section_dsc);
 5131              		.loc 1 1161 45 is_stmt 0 view .LVU1663
 5132 02b0 2096     		str	r6, [sp, #128]
1162:Drivers/lvgl/src/widgets/scale/lv_scale.c **** 
ARM GAS  /var/folders/qx/2_175_4n2s19vhvtspjhb3qh0000gn/T//ccmbJJmj.s 			page 161


 5133              		.loc 1 1162 13 is_stmt 1 view .LVU1664
 5134 02b2 3A46     		mov	r2, r7
 5135 02b4 0021     		movs	r1, #0
 5136 02b6 2046     		mov	r0, r4
 5137 02b8 FFF7FEFF 		bl	lv_obj_init_draw_arc_dsc
 5138              	.LVL576:
1164:Drivers/lvgl/src/widgets/scale/lv_scale.c ****             int32_t section_arc_radius;
 5139              		.loc 1 1164 13 view .LVU1665
1165:Drivers/lvgl/src/widgets/scale/lv_scale.c ****             scale_get_center(obj, &section_arc_center, &section_arc_radius);
 5140              		.loc 1 1165 13 view .LVU1666
1166:Drivers/lvgl/src/widgets/scale/lv_scale.c **** 
 5141              		.loc 1 1166 13 view .LVU1667
 5142 02bc 0DF1280A 		add	r10, sp, #40
 5143 02c0 06AA     		add	r2, sp, #24
 5144 02c2 5146     		mov	r1, r10
 5145 02c4 2046     		mov	r0, r4
 5146 02c6 FFF7FEFF 		bl	scale_get_center
 5147              	.LVL577:
1169:Drivers/lvgl/src/widgets/scale/lv_scale.c ****                                                        scale->rotation + scale->angle_range);
 5148              		.loc 1 1169 13 view .LVU1668
1169:Drivers/lvgl/src/widgets/scale/lv_scale.c ****                                                        scale->rotation + scale->angle_range);
 5149              		.loc 1 1169 49 is_stmt 0 view .LVU1669
 5150 02ca 636D     		ldr	r3, [r4, #84]
1170:Drivers/lvgl/src/widgets/scale/lv_scale.c ****             const int32_t section_end_angle = lv_map(section->range_max, scale->range_min, scale->r
 5151              		.loc 1 1170 79 view .LVU1670
 5152 02cc 226D     		ldr	r2, [r4, #80]
1170:Drivers/lvgl/src/widgets/scale/lv_scale.c ****             const int32_t section_end_angle = lv_map(section->range_max, scale->range_min, scale->r
 5153              		.loc 1 1170 72 view .LVU1671
 5154 02ce 1A44     		add	r2, r2, r3
1169:Drivers/lvgl/src/widgets/scale/lv_scale.c ****                                                        scale->rotation + scale->angle_range);
 5155              		.loc 1 1169 49 view .LVU1672
 5156 02d0 E868     		ldr	r0, [r5, #12]
 5157 02d2 0092     		str	r2, [sp]
 5158 02d4 626C     		ldr	r2, [r4, #68]
 5159 02d6 216C     		ldr	r1, [r4, #64]
 5160 02d8 FFF7FEFF 		bl	lv_map
 5161              	.LVL578:
 5162 02dc 8146     		mov	r9, r0
 5163              	.LVL579:
1171:Drivers/lvgl/src/widgets/scale/lv_scale.c ****                                                      scale->rotation + scale->angle_range);
 5164              		.loc 1 1171 13 is_stmt 1 view .LVU1673
1171:Drivers/lvgl/src/widgets/scale/lv_scale.c ****                                                      scale->rotation + scale->angle_range);
 5165              		.loc 1 1171 47 is_stmt 0 view .LVU1674
 5166 02de 636D     		ldr	r3, [r4, #84]
1172:Drivers/lvgl/src/widgets/scale/lv_scale.c **** 
 5167              		.loc 1 1172 77 view .LVU1675
 5168 02e0 226D     		ldr	r2, [r4, #80]
1172:Drivers/lvgl/src/widgets/scale/lv_scale.c **** 
 5169              		.loc 1 1172 70 view .LVU1676
 5170 02e2 1A44     		add	r2, r2, r3
1171:Drivers/lvgl/src/widgets/scale/lv_scale.c ****                                                      scale->rotation + scale->angle_range);
 5171              		.loc 1 1171 47 view .LVU1677
 5172 02e4 2869     		ldr	r0, [r5, #16]
 5173              	.LVL580:
1171:Drivers/lvgl/src/widgets/scale/lv_scale.c ****                                                      scale->rotation + scale->angle_range);
 5174              		.loc 1 1171 47 view .LVU1678
 5175 02e6 0092     		str	r2, [sp]
ARM GAS  /var/folders/qx/2_175_4n2s19vhvtspjhb3qh0000gn/T//ccmbJJmj.s 			page 162


 5176 02e8 626C     		ldr	r2, [r4, #68]
 5177 02ea 216C     		ldr	r1, [r4, #64]
 5178 02ec FFF7FEFF 		bl	lv_map
 5179              	.LVL581:
 5180 02f0 8046     		mov	r8, r0
 5181              	.LVL582:
1174:Drivers/lvgl/src/widgets/scale/lv_scale.c **** 
 5182              		.loc 1 1174 13 is_stmt 1 view .LVU1679
 5183 02f2 2A68     		ldr	r2, [r5]
 5184 02f4 3946     		mov	r1, r7
 5185 02f6 2046     		mov	r0, r4
 5186              	.LVL583:
1174:Drivers/lvgl/src/widgets/scale/lv_scale.c **** 
 5187              		.loc 1 1174 13 is_stmt 0 view .LVU1680
 5188 02f8 FFF7FEFF 		bl	scale_set_arc_properties
 5189              	.LVL584:
1176:Drivers/lvgl/src/widgets/scale/lv_scale.c ****             main_arc_section_dsc.radius = section_arc_radius;
 5190              		.loc 1 1176 13 is_stmt 1 view .LVU1681
1176:Drivers/lvgl/src/widgets/scale/lv_scale.c ****             main_arc_section_dsc.radius = section_arc_radius;
 5191              		.loc 1 1176 41 is_stmt 0 view .LVU1682
 5192 02fc 27AB     		add	r3, sp, #156
 5193 02fe 9AE80300 		ldm	r10, {r0, r1}
 5194 0302 83E80300 		stm	r3, {r0, r1}
1177:Drivers/lvgl/src/widgets/scale/lv_scale.c ****             main_arc_section_dsc.start_angle = section_start_angle;
 5195              		.loc 1 1177 13 is_stmt 1 view .LVU1683
1177:Drivers/lvgl/src/widgets/scale/lv_scale.c ****             main_arc_section_dsc.start_angle = section_start_angle;
 5196              		.loc 1 1177 41 is_stmt 0 view .LVU1684
 5197 0306 069B     		ldr	r3, [sp, #24]
 5198 0308 ADF8A830 		strh	r3, [sp, #168]	@ movhi
1178:Drivers/lvgl/src/widgets/scale/lv_scale.c ****             main_arc_section_dsc.end_angle = section_end_angle;
 5199              		.loc 1 1178 13 is_stmt 1 view .LVU1685
1178:Drivers/lvgl/src/widgets/scale/lv_scale.c ****             main_arc_section_dsc.end_angle = section_end_angle;
 5200              		.loc 1 1178 46 is_stmt 0 view .LVU1686
 5201 030c CDF89490 		str	r9, [sp, #148]
1179:Drivers/lvgl/src/widgets/scale/lv_scale.c **** 
 5202              		.loc 1 1179 13 is_stmt 1 view .LVU1687
1179:Drivers/lvgl/src/widgets/scale/lv_scale.c **** 
 5203              		.loc 1 1179 44 is_stmt 0 view .LVU1688
 5204 0310 CDF89880 		str	r8, [sp, #152]
1181:Drivers/lvgl/src/widgets/scale/lv_scale.c ****         }
 5205              		.loc 1 1181 13 is_stmt 1 view .LVU1689
 5206 0314 3946     		mov	r1, r7
 5207 0316 3046     		mov	r0, r6
 5208 0318 FFF7FEFF 		bl	lv_draw_arc
 5209              	.LVL585:
 5210              	.LBE306:
1158:Drivers/lvgl/src/widgets/scale/lv_scale.c ****             lv_draw_arc_dsc_t main_arc_section_dsc;
 5211              		.loc 1 1158 9 discriminator 3 view .LVU1690
 5212 031c 2946     		mov	r1, r5
 5213 031e 5846     		mov	r0, fp
 5214 0320 FFF7FEFF 		bl	lv_ll_get_prev
 5215              	.LVL586:
 5216 0324 0546     		mov	r5, r0
 5217              	.LVL587:
 5218              	.L219:
1158:Drivers/lvgl/src/widgets/scale/lv_scale.c ****             lv_draw_arc_dsc_t main_arc_section_dsc;
 5219              		.loc 1 1158 9 discriminator 1 view .LVU1691
ARM GAS  /var/folders/qx/2_175_4n2s19vhvtspjhb3qh0000gn/T//ccmbJJmj.s 			page 163


 5220 0326 002D     		cmp	r5, #0
 5221 0328 BED1     		bne	.L220
 5222              	.LVL588:
 5223              	.L202:
1158:Drivers/lvgl/src/widgets/scale/lv_scale.c ****             lv_draw_arc_dsc_t main_arc_section_dsc;
 5224              		.loc 1 1158 9 is_stmt 0 discriminator 1 view .LVU1692
 5225              	.LBE305:
1185:Drivers/lvgl/src/widgets/scale/lv_scale.c **** 
 5226              		.loc 1 1185 1 view .LVU1693
 5227 032a 2DB0     		add	sp, sp, #180
 5228              	.LCFI41:
 5229              		.cfi_def_cfa_offset 36
 5230              		@ sp needed
 5231 032c BDE8F08F 		pop	{r4, r5, r6, r7, r8, r9, r10, fp, pc}
1185:Drivers/lvgl/src/widgets/scale/lv_scale.c **** 
 5232              		.loc 1 1185 1 view .LVU1694
 5233              		.cfi_endproc
 5234              	.LFE224:
 5236              		.section	.text.lv_scale_destructor,"ax",%progbits
 5237              		.align	1
 5238              		.syntax unified
 5239              		.thumb
 5240              		.thumb_func
 5242              	lv_scale_destructor:
 5243              	.LVL589:
 5244              	.LFB219:
 649:Drivers/lvgl/src/widgets/scale/lv_scale.c ****     LV_UNUSED(class_p);
 5245              		.loc 1 649 1 is_stmt 1 view -0
 5246              		.cfi_startproc
 5247              		@ args = 0, pretend = 0, frame = 0
 5248              		@ frame_needed = 0, uses_anonymous_args = 0
 649:Drivers/lvgl/src/widgets/scale/lv_scale.c ****     LV_UNUSED(class_p);
 5249              		.loc 1 649 1 is_stmt 0 view .LVU1696
 5250 0000 70B5     		push	{r4, r5, r6, lr}
 5251              	.LCFI42:
 5252              		.cfi_def_cfa_offset 16
 5253              		.cfi_offset 4, -16
 5254              		.cfi_offset 5, -12
 5255              		.cfi_offset 6, -8
 5256              		.cfi_offset 14, -4
 5257 0002 0D46     		mov	r5, r1
 650:Drivers/lvgl/src/widgets/scale/lv_scale.c ****     LV_TRACE_OBJ_CREATE("begin");
 5258              		.loc 1 650 5 is_stmt 1 view .LVU1697
 651:Drivers/lvgl/src/widgets/scale/lv_scale.c **** 
 5259              		.loc 1 651 33 view .LVU1698
 653:Drivers/lvgl/src/widgets/scale/lv_scale.c ****     lv_scale_section_t * section;
 5260              		.loc 1 653 5 view .LVU1699
 5261              	.LVL590:
 654:Drivers/lvgl/src/widgets/scale/lv_scale.c ****     while(scale->section_ll.head) {
 5262              		.loc 1 654 5 view .LVU1700
 655:Drivers/lvgl/src/widgets/scale/lv_scale.c ****         section = lv_ll_get_head(&scale->section_ll);
 5263              		.loc 1 655 5 view .LVU1701
 655:Drivers/lvgl/src/widgets/scale/lv_scale.c ****         section = lv_ll_get_head(&scale->section_ll);
 5264              		.loc 1 655 10 is_stmt 0 view .LVU1702
 5265 0004 0CE0     		b	.L228
 5266              	.LVL591:
 5267              	.L229:
ARM GAS  /var/folders/qx/2_175_4n2s19vhvtspjhb3qh0000gn/T//ccmbJJmj.s 			page 164


 656:Drivers/lvgl/src/widgets/scale/lv_scale.c ****         lv_ll_remove(&scale->section_ll, section);
 5268              		.loc 1 656 9 is_stmt 1 view .LVU1703
 656:Drivers/lvgl/src/widgets/scale/lv_scale.c ****         lv_ll_remove(&scale->section_ll, section);
 5269              		.loc 1 656 34 is_stmt 0 view .LVU1704
 5270 0006 05F12C06 		add	r6, r5, #44
 656:Drivers/lvgl/src/widgets/scale/lv_scale.c ****         lv_ll_remove(&scale->section_ll, section);
 5271              		.loc 1 656 19 view .LVU1705
 5272 000a 3046     		mov	r0, r6
 5273 000c FFF7FEFF 		bl	lv_ll_get_head
 5274              	.LVL592:
 5275 0010 0446     		mov	r4, r0
 5276              	.LVL593:
 657:Drivers/lvgl/src/widgets/scale/lv_scale.c ****         lv_free(section);
 5277              		.loc 1 657 9 is_stmt 1 view .LVU1706
 5278 0012 0146     		mov	r1, r0
 5279 0014 3046     		mov	r0, r6
 5280              	.LVL594:
 657:Drivers/lvgl/src/widgets/scale/lv_scale.c ****         lv_free(section);
 5281              		.loc 1 657 9 is_stmt 0 view .LVU1707
 5282 0016 FFF7FEFF 		bl	lv_ll_remove
 5283              	.LVL595:
 658:Drivers/lvgl/src/widgets/scale/lv_scale.c ****     }
 5284              		.loc 1 658 9 is_stmt 1 view .LVU1708
 5285 001a 2046     		mov	r0, r4
 5286 001c FFF7FEFF 		bl	lv_free
 5287              	.LVL596:
 5288              	.L228:
 655:Drivers/lvgl/src/widgets/scale/lv_scale.c ****         section = lv_ll_get_head(&scale->section_ll);
 5289              		.loc 1 655 11 view .LVU1709
 655:Drivers/lvgl/src/widgets/scale/lv_scale.c ****         section = lv_ll_get_head(&scale->section_ll);
 5290              		.loc 1 655 28 is_stmt 0 view .LVU1710
 5291 0020 2B6B     		ldr	r3, [r5, #48]
 655:Drivers/lvgl/src/widgets/scale/lv_scale.c ****         section = lv_ll_get_head(&scale->section_ll);
 5292              		.loc 1 655 11 view .LVU1711
 5293 0022 002B     		cmp	r3, #0
 5294 0024 EFD1     		bne	.L229
 660:Drivers/lvgl/src/widgets/scale/lv_scale.c **** 
 5295              		.loc 1 660 5 is_stmt 1 view .LVU1712
 5296 0026 05F12C00 		add	r0, r5, #44
 5297 002a FFF7FEFF 		bl	lv_ll_clear
 5298              	.LVL597:
 662:Drivers/lvgl/src/widgets/scale/lv_scale.c ****     for(size_t i = 0; i < needle_count; ++i) {
 5299              		.loc 1 662 5 view .LVU1713
 5300              	.LBB307:
 5301              	.LBI307:
 5302              		.file 3 "Drivers/lvgl/src/widgets/scale/../../core/../display/../misc/lv_array.h"
   1:Drivers/lvgl/src/widgets/scale/../../core/../display/../misc/lv_array.h **** /**
   2:Drivers/lvgl/src/widgets/scale/../../core/../display/../misc/lv_array.h ****  * @file lv_array.h
   3:Drivers/lvgl/src/widgets/scale/../../core/../display/../misc/lv_array.h ****  * Array. The elements are dynamically allocated by the 'lv_mem' module.
   4:Drivers/lvgl/src/widgets/scale/../../core/../display/../misc/lv_array.h ****  */
   5:Drivers/lvgl/src/widgets/scale/../../core/../display/../misc/lv_array.h **** 
   6:Drivers/lvgl/src/widgets/scale/../../core/../display/../misc/lv_array.h **** #ifndef LV_ARRAY_H
   7:Drivers/lvgl/src/widgets/scale/../../core/../display/../misc/lv_array.h **** #define LV_ARRAY_H
   8:Drivers/lvgl/src/widgets/scale/../../core/../display/../misc/lv_array.h **** 
   9:Drivers/lvgl/src/widgets/scale/../../core/../display/../misc/lv_array.h **** #ifdef __cplusplus
  10:Drivers/lvgl/src/widgets/scale/../../core/../display/../misc/lv_array.h **** extern "C" {
  11:Drivers/lvgl/src/widgets/scale/../../core/../display/../misc/lv_array.h **** #endif
ARM GAS  /var/folders/qx/2_175_4n2s19vhvtspjhb3qh0000gn/T//ccmbJJmj.s 			page 165


  12:Drivers/lvgl/src/widgets/scale/../../core/../display/../misc/lv_array.h **** 
  13:Drivers/lvgl/src/widgets/scale/../../core/../display/../misc/lv_array.h **** /*********************
  14:Drivers/lvgl/src/widgets/scale/../../core/../display/../misc/lv_array.h ****  *      INCLUDES
  15:Drivers/lvgl/src/widgets/scale/../../core/../display/../misc/lv_array.h ****  *********************/
  16:Drivers/lvgl/src/widgets/scale/../../core/../display/../misc/lv_array.h **** #include "lv_types.h"
  17:Drivers/lvgl/src/widgets/scale/../../core/../display/../misc/lv_array.h **** 
  18:Drivers/lvgl/src/widgets/scale/../../core/../display/../misc/lv_array.h **** /*********************
  19:Drivers/lvgl/src/widgets/scale/../../core/../display/../misc/lv_array.h ****  *      DEFINES
  20:Drivers/lvgl/src/widgets/scale/../../core/../display/../misc/lv_array.h ****  *********************/
  21:Drivers/lvgl/src/widgets/scale/../../core/../display/../misc/lv_array.h **** 
  22:Drivers/lvgl/src/widgets/scale/../../core/../display/../misc/lv_array.h **** #ifndef LV_ARRAY_DEFAULT_CAPACITY
  23:Drivers/lvgl/src/widgets/scale/../../core/../display/../misc/lv_array.h **** #define LV_ARRAY_DEFAULT_CAPACITY  4
  24:Drivers/lvgl/src/widgets/scale/../../core/../display/../misc/lv_array.h **** #endif
  25:Drivers/lvgl/src/widgets/scale/../../core/../display/../misc/lv_array.h **** 
  26:Drivers/lvgl/src/widgets/scale/../../core/../display/../misc/lv_array.h **** #ifndef LV_ARRAY_DEFAULT_SHRINK_RATIO
  27:Drivers/lvgl/src/widgets/scale/../../core/../display/../misc/lv_array.h **** #define LV_ARRAY_DEFAULT_SHRINK_RATIO 2
  28:Drivers/lvgl/src/widgets/scale/../../core/../display/../misc/lv_array.h **** #endif
  29:Drivers/lvgl/src/widgets/scale/../../core/../display/../misc/lv_array.h **** 
  30:Drivers/lvgl/src/widgets/scale/../../core/../display/../misc/lv_array.h **** /**********************
  31:Drivers/lvgl/src/widgets/scale/../../core/../display/../misc/lv_array.h ****  *      TYPEDEFS
  32:Drivers/lvgl/src/widgets/scale/../../core/../display/../misc/lv_array.h ****  **********************/
  33:Drivers/lvgl/src/widgets/scale/../../core/../display/../misc/lv_array.h **** 
  34:Drivers/lvgl/src/widgets/scale/../../core/../display/../misc/lv_array.h **** /** Description of a array*/
  35:Drivers/lvgl/src/widgets/scale/../../core/../display/../misc/lv_array.h **** struct _lv_array_t {
  36:Drivers/lvgl/src/widgets/scale/../../core/../display/../misc/lv_array.h ****     uint8_t * data;
  37:Drivers/lvgl/src/widgets/scale/../../core/../display/../misc/lv_array.h ****     uint32_t size;
  38:Drivers/lvgl/src/widgets/scale/../../core/../display/../misc/lv_array.h ****     uint32_t capacity;
  39:Drivers/lvgl/src/widgets/scale/../../core/../display/../misc/lv_array.h ****     uint32_t element_size;
  40:Drivers/lvgl/src/widgets/scale/../../core/../display/../misc/lv_array.h **** 
  41:Drivers/lvgl/src/widgets/scale/../../core/../display/../misc/lv_array.h ****     bool inner_alloc; /* true: data is allocated by the array; false: data is allocated by the user
  42:Drivers/lvgl/src/widgets/scale/../../core/../display/../misc/lv_array.h **** };
  43:Drivers/lvgl/src/widgets/scale/../../core/../display/../misc/lv_array.h **** 
  44:Drivers/lvgl/src/widgets/scale/../../core/../display/../misc/lv_array.h **** /**********************
  45:Drivers/lvgl/src/widgets/scale/../../core/../display/../misc/lv_array.h ****  * GLOBAL PROTOTYPES
  46:Drivers/lvgl/src/widgets/scale/../../core/../display/../misc/lv_array.h ****  **********************/
  47:Drivers/lvgl/src/widgets/scale/../../core/../display/../misc/lv_array.h **** 
  48:Drivers/lvgl/src/widgets/scale/../../core/../display/../misc/lv_array.h **** /**
  49:Drivers/lvgl/src/widgets/scale/../../core/../display/../misc/lv_array.h ****  * Init an array.
  50:Drivers/lvgl/src/widgets/scale/../../core/../display/../misc/lv_array.h ****  * @param array pointer to an `lv_array_t` variable to initialize
  51:Drivers/lvgl/src/widgets/scale/../../core/../display/../misc/lv_array.h ****  * @param capacity the initial capacity of the array
  52:Drivers/lvgl/src/widgets/scale/../../core/../display/../misc/lv_array.h ****  * @param element_size the size of an element in bytes
  53:Drivers/lvgl/src/widgets/scale/../../core/../display/../misc/lv_array.h ****  */
  54:Drivers/lvgl/src/widgets/scale/../../core/../display/../misc/lv_array.h **** void lv_array_init(lv_array_t * array, uint32_t capacity, uint32_t element_size);
  55:Drivers/lvgl/src/widgets/scale/../../core/../display/../misc/lv_array.h **** 
  56:Drivers/lvgl/src/widgets/scale/../../core/../display/../misc/lv_array.h **** /**
  57:Drivers/lvgl/src/widgets/scale/../../core/../display/../misc/lv_array.h ****  * Init an array from a buffer.
  58:Drivers/lvgl/src/widgets/scale/../../core/../display/../misc/lv_array.h ****  * @note The buffer must be large enough to store `capacity` elements. The array will not release t
  59:Drivers/lvgl/src/widgets/scale/../../core/../display/../misc/lv_array.h ****  *       The user must ensure that the buffer is valid during the lifetime of the array. And releas
  60:Drivers/lvgl/src/widgets/scale/../../core/../display/../misc/lv_array.h ****  * @param array pointer to an `lv_array_t` variable to initialize
  61:Drivers/lvgl/src/widgets/scale/../../core/../display/../misc/lv_array.h ****  * @param buf pointer to a buffer to use as the array's data
  62:Drivers/lvgl/src/widgets/scale/../../core/../display/../misc/lv_array.h ****  * @param capacity the initial capacity of the array
  63:Drivers/lvgl/src/widgets/scale/../../core/../display/../misc/lv_array.h ****  * @param element_size the size of an element in bytes
  64:Drivers/lvgl/src/widgets/scale/../../core/../display/../misc/lv_array.h ****  */
  65:Drivers/lvgl/src/widgets/scale/../../core/../display/../misc/lv_array.h **** void lv_array_init_from_buf(lv_array_t * array, void * buf, uint32_t capacity, uint32_t element_siz
  66:Drivers/lvgl/src/widgets/scale/../../core/../display/../misc/lv_array.h **** 
  67:Drivers/lvgl/src/widgets/scale/../../core/../display/../misc/lv_array.h **** /**
  68:Drivers/lvgl/src/widgets/scale/../../core/../display/../misc/lv_array.h ****  * Resize the array to the given capacity.
ARM GAS  /var/folders/qx/2_175_4n2s19vhvtspjhb3qh0000gn/T//ccmbJJmj.s 			page 166


  69:Drivers/lvgl/src/widgets/scale/../../core/../display/../misc/lv_array.h ****  * @note if the new capacity is smaller than the current size, the array will be truncated.
  70:Drivers/lvgl/src/widgets/scale/../../core/../display/../misc/lv_array.h ****  * @param array pointer to an `lv_array_t` variable
  71:Drivers/lvgl/src/widgets/scale/../../core/../display/../misc/lv_array.h ****  * @param new_capacity the new capacity of the array
  72:Drivers/lvgl/src/widgets/scale/../../core/../display/../misc/lv_array.h ****  */
  73:Drivers/lvgl/src/widgets/scale/../../core/../display/../misc/lv_array.h **** bool lv_array_resize(lv_array_t * array, uint32_t new_capacity);
  74:Drivers/lvgl/src/widgets/scale/../../core/../display/../misc/lv_array.h **** 
  75:Drivers/lvgl/src/widgets/scale/../../core/../display/../misc/lv_array.h **** /**
  76:Drivers/lvgl/src/widgets/scale/../../core/../display/../misc/lv_array.h ****  * Deinit the array, and free the allocated memory
  77:Drivers/lvgl/src/widgets/scale/../../core/../display/../misc/lv_array.h ****  * @param array pointer to an `lv_array_t` variable to deinitialize
  78:Drivers/lvgl/src/widgets/scale/../../core/../display/../misc/lv_array.h ****  */
  79:Drivers/lvgl/src/widgets/scale/../../core/../display/../misc/lv_array.h **** void lv_array_deinit(lv_array_t * array);
  80:Drivers/lvgl/src/widgets/scale/../../core/../display/../misc/lv_array.h **** 
  81:Drivers/lvgl/src/widgets/scale/../../core/../display/../misc/lv_array.h **** /**
  82:Drivers/lvgl/src/widgets/scale/../../core/../display/../misc/lv_array.h ****  * Return how many elements are stored in the array.
  83:Drivers/lvgl/src/widgets/scale/../../core/../display/../misc/lv_array.h ****  * @param array pointer to an `lv_array_t` variable
  84:Drivers/lvgl/src/widgets/scale/../../core/../display/../misc/lv_array.h ****  * @return the number of elements stored in the array
  85:Drivers/lvgl/src/widgets/scale/../../core/../display/../misc/lv_array.h ****  */
  86:Drivers/lvgl/src/widgets/scale/../../core/../display/../misc/lv_array.h **** static inline uint32_t lv_array_size(const lv_array_t * array)
 5303              		.loc 3 86 24 view .LVU1714
 5304              	.LBB308:
  87:Drivers/lvgl/src/widgets/scale/../../core/../display/../misc/lv_array.h **** {
  88:Drivers/lvgl/src/widgets/scale/../../core/../display/../misc/lv_array.h ****     return array->size;
 5305              		.loc 3 88 5 view .LVU1715
 5306              		.loc 3 88 17 is_stmt 0 view .LVU1716
 5307 002e AE6E     		ldr	r6, [r5, #104]
 5308              	.LVL598:
 5309              		.loc 3 88 17 view .LVU1717
 5310              	.LBE308:
 5311              	.LBE307:
 663:Drivers/lvgl/src/widgets/scale/lv_scale.c ****         lv_scale_needle_t * scale_needle = lv_array_at(&scale->needles, i);
 5312              		.loc 1 663 5 is_stmt 1 view .LVU1718
 5313              	.LBB309:
 663:Drivers/lvgl/src/widgets/scale/lv_scale.c ****         lv_scale_needle_t * scale_needle = lv_array_at(&scale->needles, i);
 5314              		.loc 1 663 9 view .LVU1719
 663:Drivers/lvgl/src/widgets/scale/lv_scale.c ****         lv_scale_needle_t * scale_needle = lv_array_at(&scale->needles, i);
 5315              		.loc 1 663 16 is_stmt 0 view .LVU1720
 5316 0030 0024     		movs	r4, #0
 663:Drivers/lvgl/src/widgets/scale/lv_scale.c ****         lv_scale_needle_t * scale_needle = lv_array_at(&scale->needles, i);
 5317              		.loc 1 663 5 view .LVU1721
 5318 0032 09E0     		b	.L230
 5319              	.LVL599:
 5320              	.L231:
 5321              	.LBB310:
 664:Drivers/lvgl/src/widgets/scale/lv_scale.c ****         lv_obj_remove_event_cb(scale_needle->obj, needle_deleted_cb);
 5322              		.loc 1 664 9 is_stmt 1 view .LVU1722
 664:Drivers/lvgl/src/widgets/scale/lv_scale.c ****         lv_obj_remove_event_cb(scale_needle->obj, needle_deleted_cb);
 5323              		.loc 1 664 44 is_stmt 0 view .LVU1723
 5324 0034 2146     		mov	r1, r4
 5325 0036 05F16400 		add	r0, r5, #100
 5326 003a FFF7FEFF 		bl	lv_array_at
 5327              	.LVL600:
 665:Drivers/lvgl/src/widgets/scale/lv_scale.c ****     }
 5328              		.loc 1 665 9 is_stmt 1 view .LVU1724
 5329 003e 0649     		ldr	r1, .L233
 5330 0040 0068     		ldr	r0, [r0]
 5331              	.LVL601:
 665:Drivers/lvgl/src/widgets/scale/lv_scale.c ****     }
ARM GAS  /var/folders/qx/2_175_4n2s19vhvtspjhb3qh0000gn/T//ccmbJJmj.s 			page 167


 5332              		.loc 1 665 9 is_stmt 0 view .LVU1725
 5333 0042 FFF7FEFF 		bl	lv_obj_remove_event_cb
 5334              	.LVL602:
 5335              	.LBE310:
 663:Drivers/lvgl/src/widgets/scale/lv_scale.c ****         lv_scale_needle_t * scale_needle = lv_array_at(&scale->needles, i);
 5336              		.loc 1 663 41 is_stmt 1 discriminator 3 view .LVU1726
 5337 0046 0134     		adds	r4, r4, #1
 5338              	.LVL603:
 5339              	.L230:
 663:Drivers/lvgl/src/widgets/scale/lv_scale.c ****         lv_scale_needle_t * scale_needle = lv_array_at(&scale->needles, i);
 5340              		.loc 1 663 25 discriminator 1 view .LVU1727
 5341 0048 B442     		cmp	r4, r6
 5342 004a F3D3     		bcc	.L231
 5343              	.LBE309:
 667:Drivers/lvgl/src/widgets/scale/lv_scale.c **** 
 5344              		.loc 1 667 5 view .LVU1728
 5345 004c 05F16400 		add	r0, r5, #100
 5346 0050 FFF7FEFF 		bl	lv_array_deinit
 5347              	.LVL604:
 669:Drivers/lvgl/src/widgets/scale/lv_scale.c **** }
 5348              		.loc 1 669 36 view .LVU1729
 670:Drivers/lvgl/src/widgets/scale/lv_scale.c **** 
 5349              		.loc 1 670 1 is_stmt 0 view .LVU1730
 5350 0054 70BD     		pop	{r4, r5, r6, pc}
 5351              	.LVL605:
 5352              	.L234:
 670:Drivers/lvgl/src/widgets/scale/lv_scale.c **** 
 5353              		.loc 1 670 1 view .LVU1731
 5354 0056 00BF     		.align	2
 5355              	.L233:
 5356 0058 00000000 		.word	needle_deleted_cb
 5357              		.cfi_endproc
 5358              	.LFE219:
 5360              		.section	.text.scale_free_line_needle_points_cb,"ax",%progbits
 5361              		.align	1
 5362              		.syntax unified
 5363              		.thumb
 5364              		.thumb_func
 5366              	scale_free_line_needle_points_cb:
 5367              	.LVL606:
 5368              	.LFB235:
1826:Drivers/lvgl/src/widgets/scale/lv_scale.c ****     lv_point_precise_t * needle_line_points = lv_event_get_user_data(e);
 5369              		.loc 1 1826 1 is_stmt 1 view -0
 5370              		.cfi_startproc
 5371              		@ args = 0, pretend = 0, frame = 0
 5372              		@ frame_needed = 0, uses_anonymous_args = 0
1826:Drivers/lvgl/src/widgets/scale/lv_scale.c ****     lv_point_precise_t * needle_line_points = lv_event_get_user_data(e);
 5373              		.loc 1 1826 1 is_stmt 0 view .LVU1733
 5374 0000 08B5     		push	{r3, lr}
 5375              	.LCFI43:
 5376              		.cfi_def_cfa_offset 8
 5377              		.cfi_offset 3, -8
 5378              		.cfi_offset 14, -4
1827:Drivers/lvgl/src/widgets/scale/lv_scale.c ****     lv_free(needle_line_points);
 5379              		.loc 1 1827 5 is_stmt 1 view .LVU1734
1827:Drivers/lvgl/src/widgets/scale/lv_scale.c ****     lv_free(needle_line_points);
 5380              		.loc 1 1827 47 is_stmt 0 view .LVU1735
ARM GAS  /var/folders/qx/2_175_4n2s19vhvtspjhb3qh0000gn/T//ccmbJJmj.s 			page 168


 5381 0002 FFF7FEFF 		bl	lv_event_get_user_data
 5382              	.LVL607:
1828:Drivers/lvgl/src/widgets/scale/lv_scale.c **** }
 5383              		.loc 1 1828 5 is_stmt 1 view .LVU1736
 5384 0006 FFF7FEFF 		bl	lv_free
 5385              	.LVL608:
1829:Drivers/lvgl/src/widgets/scale/lv_scale.c **** 
 5386              		.loc 1 1829 1 is_stmt 0 view .LVU1737
 5387 000a 08BD     		pop	{r3, pc}
 5388              		.cfi_endproc
 5389              	.LFE235:
 5391              		.section	.text.needle_deleted_cb,"ax",%progbits
 5392              		.align	1
 5393              		.syntax unified
 5394              		.thumb
 5395              		.thumb_func
 5397              	needle_deleted_cb:
 5398              	.LVL609:
 5399              	.LFB238:
1835:Drivers/lvgl/src/widgets/scale/lv_scale.c **** 
1836:Drivers/lvgl/src/widgets/scale/lv_scale.c **** static lv_result_t update_needle(lv_scale_t * scale, lv_obj_t * needle, int32_t length, int32_t val
1837:Drivers/lvgl/src/widgets/scale/lv_scale.c **** {
1838:Drivers/lvgl/src/widgets/scale/lv_scale.c ****     /* First try to find the needle in the haystack (scale's needle list) */
1839:Drivers/lvgl/src/widgets/scale/lv_scale.c ****     size_t needle_count = lv_array_size(&scale->needles);
1840:Drivers/lvgl/src/widgets/scale/lv_scale.c ****     for(size_t i = 0; i < needle_count; ++i) {
1841:Drivers/lvgl/src/widgets/scale/lv_scale.c ****         lv_scale_needle_t * scale_needle = lv_array_at(&scale->needles, i);
1842:Drivers/lvgl/src/widgets/scale/lv_scale.c ****         if(scale_needle->obj == needle) {
1843:Drivers/lvgl/src/widgets/scale/lv_scale.c ****             scale_needle->value = value;
1844:Drivers/lvgl/src/widgets/scale/lv_scale.c ****             scale_needle->length = length;
1845:Drivers/lvgl/src/widgets/scale/lv_scale.c ****             return LV_RESULT_OK;
1846:Drivers/lvgl/src/widgets/scale/lv_scale.c ****         }
1847:Drivers/lvgl/src/widgets/scale/lv_scale.c ****     }
1848:Drivers/lvgl/src/widgets/scale/lv_scale.c **** 
1849:Drivers/lvgl/src/widgets/scale/lv_scale.c ****     /* Needle is not yet part of the haystack */
1850:Drivers/lvgl/src/widgets/scale/lv_scale.c ****     lv_scale_needle_t scale_needle = {.obj = needle, .length = length, .value = value};
1851:Drivers/lvgl/src/widgets/scale/lv_scale.c ****     lv_result_t res = lv_array_push_back(&scale->needles, &scale_needle);
1852:Drivers/lvgl/src/widgets/scale/lv_scale.c ****     if(res != LV_RESULT_OK) {
1853:Drivers/lvgl/src/widgets/scale/lv_scale.c ****         LV_LOG_WARN("Failed to attach needle to scale - not enough memory");
1854:Drivers/lvgl/src/widgets/scale/lv_scale.c ****         return LV_RESULT_INVALID;
1855:Drivers/lvgl/src/widgets/scale/lv_scale.c ****     }
1856:Drivers/lvgl/src/widgets/scale/lv_scale.c **** 
1857:Drivers/lvgl/src/widgets/scale/lv_scale.c ****     lv_obj_add_event_cb(needle, needle_deleted_cb, LV_EVENT_DELETE, scale);
1858:Drivers/lvgl/src/widgets/scale/lv_scale.c ****     return LV_RESULT_OK;
1859:Drivers/lvgl/src/widgets/scale/lv_scale.c **** }
1860:Drivers/lvgl/src/widgets/scale/lv_scale.c **** 
1861:Drivers/lvgl/src/widgets/scale/lv_scale.c **** static void needle_deleted_cb(lv_event_t * e)
1862:Drivers/lvgl/src/widgets/scale/lv_scale.c **** {
 5400              		.loc 1 1862 1 is_stmt 1 view -0
 5401              		.cfi_startproc
 5402              		@ args = 0, pretend = 0, frame = 0
 5403              		@ frame_needed = 0, uses_anonymous_args = 0
 5404              		.loc 1 1862 1 is_stmt 0 view .LVU1739
 5405 0000 2DE9F041 		push	{r4, r5, r6, r7, r8, lr}
 5406              	.LCFI44:
 5407              		.cfi_def_cfa_offset 24
 5408              		.cfi_offset 4, -24
 5409              		.cfi_offset 5, -20
ARM GAS  /var/folders/qx/2_175_4n2s19vhvtspjhb3qh0000gn/T//ccmbJJmj.s 			page 169


 5410              		.cfi_offset 6, -16
 5411              		.cfi_offset 7, -12
 5412              		.cfi_offset 8, -8
 5413              		.cfi_offset 14, -4
 5414 0004 0446     		mov	r4, r0
1863:Drivers/lvgl/src/widgets/scale/lv_scale.c ****     lv_scale_t * scale = lv_event_get_user_data(e);
 5415              		.loc 1 1863 5 is_stmt 1 view .LVU1740
 5416              		.loc 1 1863 26 is_stmt 0 view .LVU1741
 5417 0006 FFF7FEFF 		bl	lv_event_get_user_data
 5418              	.LVL610:
 5419              		.loc 1 1863 26 view .LVU1742
 5420 000a 0646     		mov	r6, r0
 5421              	.LVL611:
1864:Drivers/lvgl/src/widgets/scale/lv_scale.c ****     lv_obj_t * needle = lv_event_get_target_obj(e);
 5422              		.loc 1 1864 5 is_stmt 1 view .LVU1743
 5423              		.loc 1 1864 25 is_stmt 0 view .LVU1744
 5424 000c 2046     		mov	r0, r4
 5425              	.LVL612:
 5426              		.loc 1 1864 25 view .LVU1745
 5427 000e FFF7FEFF 		bl	lv_event_get_target_obj
 5428              	.LVL613:
 5429 0012 0746     		mov	r7, r0
 5430              	.LVL614:
1865:Drivers/lvgl/src/widgets/scale/lv_scale.c **** 
1866:Drivers/lvgl/src/widgets/scale/lv_scale.c ****     size_t needle_count = lv_array_size(&scale->needles);
 5431              		.loc 1 1866 5 is_stmt 1 view .LVU1746
 5432              	.LBB311:
 5433              	.LBI311:
  86:Drivers/lvgl/src/widgets/scale/../../core/../display/../misc/lv_array.h **** {
 5434              		.loc 3 86 24 view .LVU1747
 5435              	.LBB312:
 5436              		.loc 3 88 5 view .LVU1748
 5437              		.loc 3 88 17 is_stmt 0 view .LVU1749
 5438 0014 D6F86880 		ldr	r8, [r6, #104]
 5439              	.LVL615:
 5440              		.loc 3 88 17 view .LVU1750
 5441              	.LBE312:
 5442              	.LBE311:
1867:Drivers/lvgl/src/widgets/scale/lv_scale.c ****     for(size_t i = 0; i < needle_count; ++i) {
 5443              		.loc 1 1867 5 is_stmt 1 view .LVU1751
 5444              	.LBB313:
 5445              		.loc 1 1867 9 view .LVU1752
 5446              		.loc 1 1867 16 is_stmt 0 view .LVU1753
 5447 0018 0024     		movs	r4, #0
 5448              	.LVL616:
 5449              		.loc 1 1867 5 view .LVU1754
 5450 001a 00E0     		b	.L238
 5451              	.LVL617:
 5452              	.L239:
 5453              		.loc 1 1867 41 is_stmt 1 discriminator 2 view .LVU1755
 5454 001c 0134     		adds	r4, r4, #1
 5455              	.LVL618:
 5456              	.L238:
 5457              		.loc 1 1867 25 discriminator 1 view .LVU1756
 5458 001e 4445     		cmp	r4, r8
 5459 0020 0CD2     		bcs	.L237
 5460              	.LBB314:
ARM GAS  /var/folders/qx/2_175_4n2s19vhvtspjhb3qh0000gn/T//ccmbJJmj.s 			page 170


1868:Drivers/lvgl/src/widgets/scale/lv_scale.c ****         lv_scale_needle_t * scale_needle = lv_array_at(&scale->needles, i);
 5461              		.loc 1 1868 9 view .LVU1757
 5462              		.loc 1 1868 56 is_stmt 0 view .LVU1758
 5463 0022 06F16405 		add	r5, r6, #100
 5464              		.loc 1 1868 44 view .LVU1759
 5465 0026 2146     		mov	r1, r4
 5466 0028 2846     		mov	r0, r5
 5467 002a FFF7FEFF 		bl	lv_array_at
 5468              	.LVL619:
1869:Drivers/lvgl/src/widgets/scale/lv_scale.c ****         if(scale_needle->obj == needle) {
 5469              		.loc 1 1869 9 is_stmt 1 view .LVU1760
 5470              		.loc 1 1869 24 is_stmt 0 view .LVU1761
 5471 002e 0368     		ldr	r3, [r0]
 5472              		.loc 1 1869 11 view .LVU1762
 5473 0030 BB42     		cmp	r3, r7
 5474 0032 F3D1     		bne	.L239
1870:Drivers/lvgl/src/widgets/scale/lv_scale.c ****             lv_array_remove(&scale->needles, i);
 5475              		.loc 1 1870 13 is_stmt 1 view .LVU1763
 5476 0034 2146     		mov	r1, r4
 5477 0036 2846     		mov	r0, r5
 5478              	.LVL620:
 5479              		.loc 1 1870 13 is_stmt 0 view .LVU1764
 5480 0038 FFF7FEFF 		bl	lv_array_remove
 5481              	.LVL621:
1871:Drivers/lvgl/src/widgets/scale/lv_scale.c ****             return;
 5482              		.loc 1 1871 13 is_stmt 1 view .LVU1765
 5483              	.L237:
 5484              		.loc 1 1871 13 is_stmt 0 view .LVU1766
 5485              	.LBE314:
 5486              	.LBE313:
1872:Drivers/lvgl/src/widgets/scale/lv_scale.c ****         }
1873:Drivers/lvgl/src/widgets/scale/lv_scale.c ****     }
1874:Drivers/lvgl/src/widgets/scale/lv_scale.c **** }
 5487              		.loc 1 1874 1 view .LVU1767
 5488 003c BDE8F081 		pop	{r4, r5, r6, r7, r8, pc}
 5489              		.loc 1 1874 1 view .LVU1768
 5490              		.cfi_endproc
 5491              	.LFE238:
 5493              		.section	.text.lv_scale_constructor,"ax",%progbits
 5494              		.align	1
 5495              		.syntax unified
 5496              		.thumb
 5497              		.thumb_func
 5499              	lv_scale_constructor:
 5500              	.LVL622:
 5501              	.LFB218:
 619:Drivers/lvgl/src/widgets/scale/lv_scale.c ****     LV_UNUSED(class_p);
 5502              		.loc 1 619 1 is_stmt 1 view -0
 5503              		.cfi_startproc
 5504              		@ args = 0, pretend = 0, frame = 0
 5505              		@ frame_needed = 0, uses_anonymous_args = 0
 619:Drivers/lvgl/src/widgets/scale/lv_scale.c ****     LV_UNUSED(class_p);
 5506              		.loc 1 619 1 is_stmt 0 view .LVU1770
 5507 0000 10B5     		push	{r4, lr}
 5508              	.LCFI45:
 5509              		.cfi_def_cfa_offset 8
 5510              		.cfi_offset 4, -8
ARM GAS  /var/folders/qx/2_175_4n2s19vhvtspjhb3qh0000gn/T//ccmbJJmj.s 			page 171


 5511              		.cfi_offset 14, -4
 5512 0002 0C46     		mov	r4, r1
 620:Drivers/lvgl/src/widgets/scale/lv_scale.c ****     LV_TRACE_OBJ_CREATE("begin");
 5513              		.loc 1 620 5 is_stmt 1 view .LVU1771
 621:Drivers/lvgl/src/widgets/scale/lv_scale.c **** 
 5514              		.loc 1 621 33 view .LVU1772
 623:Drivers/lvgl/src/widgets/scale/lv_scale.c **** 
 5515              		.loc 1 623 5 view .LVU1773
 5516              	.LVL623:
 625:Drivers/lvgl/src/widgets/scale/lv_scale.c **** 
 5517              		.loc 1 625 5 view .LVU1774
 5518 0004 3821     		movs	r1, #56
 5519              	.LVL624:
 625:Drivers/lvgl/src/widgets/scale/lv_scale.c **** 
 5520              		.loc 1 625 5 is_stmt 0 view .LVU1775
 5521 0006 04F12C00 		add	r0, r4, #44
 5522              	.LVL625:
 625:Drivers/lvgl/src/widgets/scale/lv_scale.c **** 
 5523              		.loc 1 625 5 view .LVU1776
 5524 000a FFF7FEFF 		bl	lv_ll_init
 5525              	.LVL626:
 627:Drivers/lvgl/src/widgets/scale/lv_scale.c ****     scale->major_tick_every = LV_SCALE_MAJOR_TICK_EVERY_DEFAULT;
 5526              		.loc 1 627 5 is_stmt 1 view .LVU1777
 627:Drivers/lvgl/src/widgets/scale/lv_scale.c ****     scale->major_tick_every = LV_SCALE_MAJOR_TICK_EVERY_DEFAULT;
 5527              		.loc 1 627 29 is_stmt 0 view .LVU1778
 5528 000e B4F84830 		ldrh	r3, [r4, #72]
 5529 0012 0B22     		movs	r2, #11
 5530 0014 62F30E03 		bfi	r3, r2, #0, #15
 5531 0018 A4F84830 		strh	r3, [r4, #72]	@ movhi
 628:Drivers/lvgl/src/widgets/scale/lv_scale.c ****     scale->mode = LV_SCALE_MODE_HORIZONTAL_BOTTOM;
 5532              		.loc 1 628 5 is_stmt 1 view .LVU1779
 628:Drivers/lvgl/src/widgets/scale/lv_scale.c ****     scale->mode = LV_SCALE_MODE_HORIZONTAL_BOTTOM;
 5533              		.loc 1 628 29 is_stmt 0 view .LVU1780
 5534 001c A36C     		ldr	r3, [r4, #72]
 5535 001e 0522     		movs	r2, #5
 5536 0020 62F3DD33 		bfi	r3, r2, #15, #15
 5537 0024 A364     		str	r3, [r4, #72]
 629:Drivers/lvgl/src/widgets/scale/lv_scale.c ****     scale->label_enabled = LV_SCALE_LABEL_ENABLED_DEFAULT;
 5538              		.loc 1 629 5 is_stmt 1 view .LVU1781
 629:Drivers/lvgl/src/widgets/scale/lv_scale.c ****     scale->label_enabled = LV_SCALE_LABEL_ENABLED_DEFAULT;
 5539              		.loc 1 629 17 is_stmt 0 view .LVU1782
 5540 0026 0123     		movs	r3, #1
 5541 0028 84F83C30 		strb	r3, [r4, #60]
 630:Drivers/lvgl/src/widgets/scale/lv_scale.c ****     scale->angle_range = LV_SCALE_DEFAULT_ANGLE_RANGE;
 5542              		.loc 1 630 5 is_stmt 1 view .LVU1783
 630:Drivers/lvgl/src/widgets/scale/lv_scale.c ****     scale->angle_range = LV_SCALE_DEFAULT_ANGLE_RANGE;
 5543              		.loc 1 630 26 is_stmt 0 view .LVU1784
 5544 002c 94F84B30 		ldrb	r3, [r4, #75]	@ zero_extendqisi2
 5545 0030 43F04003 		orr	r3, r3, #64
 5546 0034 84F84B30 		strb	r3, [r4, #75]
 631:Drivers/lvgl/src/widgets/scale/lv_scale.c ****     scale->rotation = LV_SCALE_DEFAULT_ROTATION;
 5547              		.loc 1 631 5 is_stmt 1 view .LVU1785
 631:Drivers/lvgl/src/widgets/scale/lv_scale.c ****     scale->rotation = LV_SCALE_DEFAULT_ROTATION;
 5548              		.loc 1 631 24 is_stmt 0 view .LVU1786
 5549 0038 4FF48773 		mov	r3, #270
 5550 003c 2365     		str	r3, [r4, #80]
 632:Drivers/lvgl/src/widgets/scale/lv_scale.c ****     scale->range_min = 0;
ARM GAS  /var/folders/qx/2_175_4n2s19vhvtspjhb3qh0000gn/T//ccmbJJmj.s 			page 172


 5551              		.loc 1 632 5 is_stmt 1 view .LVU1787
 632:Drivers/lvgl/src/widgets/scale/lv_scale.c ****     scale->range_min = 0;
 5552              		.loc 1 632 21 is_stmt 0 view .LVU1788
 5553 003e 8723     		movs	r3, #135
 5554 0040 6365     		str	r3, [r4, #84]
 633:Drivers/lvgl/src/widgets/scale/lv_scale.c ****     scale->range_max = 100;
 5555              		.loc 1 633 5 is_stmt 1 view .LVU1789
 633:Drivers/lvgl/src/widgets/scale/lv_scale.c ****     scale->range_max = 100;
 5556              		.loc 1 633 22 is_stmt 0 view .LVU1790
 5557 0042 0021     		movs	r1, #0
 5558 0044 2164     		str	r1, [r4, #64]
 634:Drivers/lvgl/src/widgets/scale/lv_scale.c ****     scale->last_tick_width = 0;
 5559              		.loc 1 634 5 is_stmt 1 view .LVU1791
 634:Drivers/lvgl/src/widgets/scale/lv_scale.c ****     scale->last_tick_width = 0;
 5560              		.loc 1 634 22 is_stmt 0 view .LVU1792
 5561 0046 6423     		movs	r3, #100
 5562 0048 6364     		str	r3, [r4, #68]
 635:Drivers/lvgl/src/widgets/scale/lv_scale.c ****     scale->first_tick_width = 0;
 5563              		.loc 1 635 5 is_stmt 1 view .LVU1793
 635:Drivers/lvgl/src/widgets/scale/lv_scale.c ****     scale->first_tick_width = 0;
 5564              		.loc 1 635 28 is_stmt 0 view .LVU1794
 5565 004a E165     		str	r1, [r4, #92]
 636:Drivers/lvgl/src/widgets/scale/lv_scale.c ****     scale->post_draw = false;
 5566              		.loc 1 636 5 is_stmt 1 view .LVU1795
 636:Drivers/lvgl/src/widgets/scale/lv_scale.c ****     scale->post_draw = false;
 5567              		.loc 1 636 29 is_stmt 0 view .LVU1796
 5568 004c 2166     		str	r1, [r4, #96]
 637:Drivers/lvgl/src/widgets/scale/lv_scale.c ****     scale->draw_ticks_on_top = false;
 5569              		.loc 1 637 5 is_stmt 1 view .LVU1797
 637:Drivers/lvgl/src/widgets/scale/lv_scale.c ****     scale->draw_ticks_on_top = false;
 5570              		.loc 1 637 22 is_stmt 0 view .LVU1798
 5571 004e 94F84B30 		ldrb	r3, [r4, #75]	@ zero_extendqisi2
 5572 0052 61F3C713 		bfi	r3, r1, #7, #1
 5573 0056 84F84B30 		strb	r3, [r4, #75]
 638:Drivers/lvgl/src/widgets/scale/lv_scale.c ****     scale->custom_label_cnt = 0;
 5574              		.loc 1 638 5 is_stmt 1 view .LVU1799
 638:Drivers/lvgl/src/widgets/scale/lv_scale.c ****     scale->custom_label_cnt = 0;
 5575              		.loc 1 638 30 is_stmt 0 view .LVU1800
 5576 005a 94F84C30 		ldrb	r3, [r4, #76]	@ zero_extendqisi2
 5577 005e 61F30003 		bfi	r3, r1, #0, #1
 5578 0062 84F84C30 		strb	r3, [r4, #76]
 639:Drivers/lvgl/src/widgets/scale/lv_scale.c ****     scale->txt_src = NULL;
 5579              		.loc 1 639 5 is_stmt 1 view .LVU1801
 639:Drivers/lvgl/src/widgets/scale/lv_scale.c ****     scale->txt_src = NULL;
 5580              		.loc 1 639 29 is_stmt 0 view .LVU1802
 5581 0066 A165     		str	r1, [r4, #88]
 640:Drivers/lvgl/src/widgets/scale/lv_scale.c ****     lv_array_init(&scale->needles, 0, sizeof(lv_scale_needle_t));
 5582              		.loc 1 640 5 is_stmt 1 view .LVU1803
 640:Drivers/lvgl/src/widgets/scale/lv_scale.c ****     lv_array_init(&scale->needles, 0, sizeof(lv_scale_needle_t));
 5583              		.loc 1 640 20 is_stmt 0 view .LVU1804
 5584 0068 A163     		str	r1, [r4, #56]
 641:Drivers/lvgl/src/widgets/scale/lv_scale.c **** 
 5585              		.loc 1 641 5 is_stmt 1 view .LVU1805
 5586 006a 0C22     		movs	r2, #12
 5587 006c 04F16400 		add	r0, r4, #100
 5588 0070 FFF7FEFF 		bl	lv_array_init
 5589              	.LVL627:
ARM GAS  /var/folders/qx/2_175_4n2s19vhvtspjhb3qh0000gn/T//ccmbJJmj.s 			page 173


 643:Drivers/lvgl/src/widgets/scale/lv_scale.c **** 
 5590              		.loc 1 643 5 view .LVU1806
 5591 0074 1021     		movs	r1, #16
 5592 0076 2046     		mov	r0, r4
 5593 0078 FFF7FEFF 		bl	lv_obj_remove_flag
 5594              	.LVL628:
 645:Drivers/lvgl/src/widgets/scale/lv_scale.c **** }
 5595              		.loc 1 645 36 view .LVU1807
 646:Drivers/lvgl/src/widgets/scale/lv_scale.c **** 
 5596              		.loc 1 646 1 is_stmt 0 view .LVU1808
 5597 007c 10BD     		pop	{r4, pc}
 646:Drivers/lvgl/src/widgets/scale/lv_scale.c **** 
 5598              		.loc 1 646 1 view .LVU1809
 5599              		.cfi_endproc
 5600              	.LFE218:
 5602              		.section	.text.update_needle,"ax",%progbits
 5603              		.align	1
 5604              		.syntax unified
 5605              		.thumb
 5606              		.thumb_func
 5608              	update_needle:
 5609              	.LVL629:
 5610              	.LFB237:
1837:Drivers/lvgl/src/widgets/scale/lv_scale.c ****     /* First try to find the needle in the haystack (scale's needle list) */
 5611              		.loc 1 1837 1 is_stmt 1 view -0
 5612              		.cfi_startproc
 5613              		@ args = 0, pretend = 0, frame = 16
 5614              		@ frame_needed = 0, uses_anonymous_args = 0
1837:Drivers/lvgl/src/widgets/scale/lv_scale.c ****     /* First try to find the needle in the haystack (scale's needle list) */
 5615              		.loc 1 1837 1 is_stmt 0 view .LVU1811
 5616 0000 2DE9F043 		push	{r4, r5, r6, r7, r8, r9, lr}
 5617              	.LCFI46:
 5618              		.cfi_def_cfa_offset 28
 5619              		.cfi_offset 4, -28
 5620              		.cfi_offset 5, -24
 5621              		.cfi_offset 6, -20
 5622              		.cfi_offset 7, -16
 5623              		.cfi_offset 8, -12
 5624              		.cfi_offset 9, -8
 5625              		.cfi_offset 14, -4
 5626 0004 85B0     		sub	sp, sp, #20
 5627              	.LCFI47:
 5628              		.cfi_def_cfa_offset 48
 5629 0006 0546     		mov	r5, r0
 5630 0008 0E46     		mov	r6, r1
 5631 000a 9046     		mov	r8, r2
 5632 000c 9946     		mov	r9, r3
1839:Drivers/lvgl/src/widgets/scale/lv_scale.c ****     for(size_t i = 0; i < needle_count; ++i) {
 5633              		.loc 1 1839 5 is_stmt 1 view .LVU1812
 5634              	.LVL630:
 5635              	.LBB315:
 5636              	.LBI315:
  86:Drivers/lvgl/src/widgets/scale/../../core/../display/../misc/lv_array.h **** {
 5637              		.loc 3 86 24 view .LVU1813
 5638              	.LBB316:
 5639              		.loc 3 88 5 view .LVU1814
 5640              		.loc 3 88 17 is_stmt 0 view .LVU1815
ARM GAS  /var/folders/qx/2_175_4n2s19vhvtspjhb3qh0000gn/T//ccmbJJmj.s 			page 174


 5641 000e 876E     		ldr	r7, [r0, #104]
 5642              	.LVL631:
 5643              		.loc 3 88 17 view .LVU1816
 5644              	.LBE316:
 5645              	.LBE315:
1840:Drivers/lvgl/src/widgets/scale/lv_scale.c ****         lv_scale_needle_t * scale_needle = lv_array_at(&scale->needles, i);
 5646              		.loc 1 1840 5 is_stmt 1 view .LVU1817
 5647              	.LBB317:
1840:Drivers/lvgl/src/widgets/scale/lv_scale.c ****         lv_scale_needle_t * scale_needle = lv_array_at(&scale->needles, i);
 5648              		.loc 1 1840 9 view .LVU1818
1840:Drivers/lvgl/src/widgets/scale/lv_scale.c ****         lv_scale_needle_t * scale_needle = lv_array_at(&scale->needles, i);
 5649              		.loc 1 1840 16 is_stmt 0 view .LVU1819
 5650 0010 0024     		movs	r4, #0
1840:Drivers/lvgl/src/widgets/scale/lv_scale.c ****         lv_scale_needle_t * scale_needle = lv_array_at(&scale->needles, i);
 5651              		.loc 1 1840 5 view .LVU1820
 5652 0012 00E0     		b	.L246
 5653              	.LVL632:
 5654              	.L247:
1840:Drivers/lvgl/src/widgets/scale/lv_scale.c ****         lv_scale_needle_t * scale_needle = lv_array_at(&scale->needles, i);
 5655              		.loc 1 1840 41 is_stmt 1 discriminator 2 view .LVU1821
 5656 0014 0134     		adds	r4, r4, #1
 5657              	.LVL633:
 5658              	.L246:
1840:Drivers/lvgl/src/widgets/scale/lv_scale.c ****         lv_scale_needle_t * scale_needle = lv_array_at(&scale->needles, i);
 5659              		.loc 1 1840 25 discriminator 1 view .LVU1822
 5660 0016 BC42     		cmp	r4, r7
 5661 0018 10D2     		bcs	.L252
 5662              	.LBB318:
1841:Drivers/lvgl/src/widgets/scale/lv_scale.c ****         if(scale_needle->obj == needle) {
 5663              		.loc 1 1841 9 view .LVU1823
1841:Drivers/lvgl/src/widgets/scale/lv_scale.c ****         if(scale_needle->obj == needle) {
 5664              		.loc 1 1841 44 is_stmt 0 view .LVU1824
 5665 001a 2146     		mov	r1, r4
 5666 001c 05F16400 		add	r0, r5, #100
 5667 0020 FFF7FEFF 		bl	lv_array_at
 5668              	.LVL634:
1842:Drivers/lvgl/src/widgets/scale/lv_scale.c ****             scale_needle->value = value;
 5669              		.loc 1 1842 9 is_stmt 1 view .LVU1825
1842:Drivers/lvgl/src/widgets/scale/lv_scale.c ****             scale_needle->value = value;
 5670              		.loc 1 1842 24 is_stmt 0 view .LVU1826
 5671 0024 0368     		ldr	r3, [r0]
1842:Drivers/lvgl/src/widgets/scale/lv_scale.c ****             scale_needle->value = value;
 5672              		.loc 1 1842 11 view .LVU1827
 5673 0026 B342     		cmp	r3, r6
 5674 0028 F4D1     		bne	.L247
1843:Drivers/lvgl/src/widgets/scale/lv_scale.c ****             scale_needle->length = length;
 5675              		.loc 1 1843 13 is_stmt 1 view .LVU1828
1843:Drivers/lvgl/src/widgets/scale/lv_scale.c ****             scale_needle->length = length;
 5676              		.loc 1 1843 33 is_stmt 0 view .LVU1829
 5677 002a C0F80490 		str	r9, [r0, #4]
1844:Drivers/lvgl/src/widgets/scale/lv_scale.c ****             return LV_RESULT_OK;
 5678              		.loc 1 1844 13 is_stmt 1 view .LVU1830
1844:Drivers/lvgl/src/widgets/scale/lv_scale.c ****             return LV_RESULT_OK;
 5679              		.loc 1 1844 34 is_stmt 0 view .LVU1831
 5680 002e C0F80880 		str	r8, [r0, #8]
1845:Drivers/lvgl/src/widgets/scale/lv_scale.c ****         }
 5681              		.loc 1 1845 13 is_stmt 1 view .LVU1832
ARM GAS  /var/folders/qx/2_175_4n2s19vhvtspjhb3qh0000gn/T//ccmbJJmj.s 			page 175


1845:Drivers/lvgl/src/widgets/scale/lv_scale.c ****         }
 5682              		.loc 1 1845 20 is_stmt 0 view .LVU1833
 5683 0032 0124     		movs	r4, #1
 5684              	.LVL635:
 5685              	.L248:
1845:Drivers/lvgl/src/widgets/scale/lv_scale.c ****         }
 5686              		.loc 1 1845 20 view .LVU1834
 5687              	.LBE318:
 5688              	.LBE317:
1859:Drivers/lvgl/src/widgets/scale/lv_scale.c **** 
 5689              		.loc 1 1859 1 view .LVU1835
 5690 0034 2046     		mov	r0, r4
 5691 0036 05B0     		add	sp, sp, #20
 5692              	.LCFI48:
 5693              		.cfi_remember_state
 5694              		.cfi_def_cfa_offset 28
 5695              		@ sp needed
 5696 0038 BDE8F083 		pop	{r4, r5, r6, r7, r8, r9, pc}
 5697              	.LVL636:
 5698              	.L252:
 5699              	.LCFI49:
 5700              		.cfi_restore_state
1850:Drivers/lvgl/src/widgets/scale/lv_scale.c ****     lv_result_t res = lv_array_push_back(&scale->needles, &scale_needle);
 5701              		.loc 1 1850 5 is_stmt 1 view .LVU1836
1850:Drivers/lvgl/src/widgets/scale/lv_scale.c ****     lv_result_t res = lv_array_push_back(&scale->needles, &scale_needle);
 5702              		.loc 1 1850 23 is_stmt 0 view .LVU1837
 5703 003c 0196     		str	r6, [sp, #4]
 5704 003e CDF80890 		str	r9, [sp, #8]
 5705 0042 CDF80C80 		str	r8, [sp, #12]
1851:Drivers/lvgl/src/widgets/scale/lv_scale.c ****     if(res != LV_RESULT_OK) {
 5706              		.loc 1 1851 5 is_stmt 1 view .LVU1838
1851:Drivers/lvgl/src/widgets/scale/lv_scale.c ****     if(res != LV_RESULT_OK) {
 5707              		.loc 1 1851 23 is_stmt 0 view .LVU1839
 5708 0046 01A9     		add	r1, sp, #4
 5709 0048 05F16400 		add	r0, r5, #100
 5710 004c FFF7FEFF 		bl	lv_array_push_back
 5711              	.LVL637:
 5712 0050 0446     		mov	r4, r0
 5713              	.LVL638:
1852:Drivers/lvgl/src/widgets/scale/lv_scale.c ****         LV_LOG_WARN("Failed to attach needle to scale - not enough memory");
 5714              		.loc 1 1852 5 is_stmt 1 view .LVU1840
1852:Drivers/lvgl/src/widgets/scale/lv_scale.c ****         LV_LOG_WARN("Failed to attach needle to scale - not enough memory");
 5715              		.loc 1 1852 7 is_stmt 0 view .LVU1841
 5716 0052 0128     		cmp	r0, #1
 5717 0054 01D0     		beq	.L253
1854:Drivers/lvgl/src/widgets/scale/lv_scale.c ****     }
 5718              		.loc 1 1854 16 view .LVU1842
 5719 0056 0024     		movs	r4, #0
 5720 0058 ECE7     		b	.L248
 5721              	.L253:
1857:Drivers/lvgl/src/widgets/scale/lv_scale.c ****     return LV_RESULT_OK;
 5722              		.loc 1 1857 5 is_stmt 1 view .LVU1843
 5723 005a 2B46     		mov	r3, r5
 5724 005c 2A22     		movs	r2, #42
 5725 005e 0249     		ldr	r1, .L254
 5726 0060 3046     		mov	r0, r6
 5727              	.LVL639:
ARM GAS  /var/folders/qx/2_175_4n2s19vhvtspjhb3qh0000gn/T//ccmbJJmj.s 			page 176


1857:Drivers/lvgl/src/widgets/scale/lv_scale.c ****     return LV_RESULT_OK;
 5728              		.loc 1 1857 5 is_stmt 0 view .LVU1844
 5729 0062 FFF7FEFF 		bl	lv_obj_add_event_cb
 5730              	.LVL640:
1858:Drivers/lvgl/src/widgets/scale/lv_scale.c **** }
 5731              		.loc 1 1858 5 is_stmt 1 view .LVU1845
1858:Drivers/lvgl/src/widgets/scale/lv_scale.c **** }
 5732              		.loc 1 1858 12 is_stmt 0 view .LVU1846
 5733 0066 E5E7     		b	.L248
 5734              	.L255:
 5735              		.align	2
 5736              	.L254:
 5737 0068 00000000 		.word	needle_deleted_cb
 5738              		.cfi_endproc
 5739              	.LFE237:
 5741              		.section	.text.lv_scale_create,"ax",%progbits
 5742              		.align	1
 5743              		.global	lv_scale_create
 5744              		.syntax unified
 5745              		.thumb
 5746              		.thumb_func
 5748              	lv_scale_create:
 5749              	.LVL641:
 5750              	.LFB184:
 151:Drivers/lvgl/src/widgets/scale/lv_scale.c ****     LV_LOG_INFO("begin");
 5751              		.loc 1 151 1 is_stmt 1 view -0
 5752              		.cfi_startproc
 5753              		@ args = 0, pretend = 0, frame = 0
 5754              		@ frame_needed = 0, uses_anonymous_args = 0
 151:Drivers/lvgl/src/widgets/scale/lv_scale.c ****     LV_LOG_INFO("begin");
 5755              		.loc 1 151 1 is_stmt 0 view .LVU1848
 5756 0000 10B5     		push	{r4, lr}
 5757              	.LCFI50:
 5758              		.cfi_def_cfa_offset 8
 5759              		.cfi_offset 4, -8
 5760              		.cfi_offset 14, -4
 5761 0002 0146     		mov	r1, r0
 152:Drivers/lvgl/src/widgets/scale/lv_scale.c ****     lv_obj_t * obj = lv_obj_class_create_obj(MY_CLASS, parent);
 5762              		.loc 1 152 5 is_stmt 1 view .LVU1849
 152:Drivers/lvgl/src/widgets/scale/lv_scale.c ****     lv_obj_t * obj = lv_obj_class_create_obj(MY_CLASS, parent);
 5763              		.loc 1 152 5 view .LVU1850
 152:Drivers/lvgl/src/widgets/scale/lv_scale.c ****     lv_obj_t * obj = lv_obj_class_create_obj(MY_CLASS, parent);
 5764              		.loc 1 152 5 view .LVU1851
 153:Drivers/lvgl/src/widgets/scale/lv_scale.c ****     lv_obj_class_init_obj(obj);
 5765              		.loc 1 153 5 view .LVU1852
 153:Drivers/lvgl/src/widgets/scale/lv_scale.c ****     lv_obj_class_init_obj(obj);
 5766              		.loc 1 153 22 is_stmt 0 view .LVU1853
 5767 0004 0348     		ldr	r0, .L258
 5768              	.LVL642:
 153:Drivers/lvgl/src/widgets/scale/lv_scale.c ****     lv_obj_class_init_obj(obj);
 5769              		.loc 1 153 22 view .LVU1854
 5770 0006 FFF7FEFF 		bl	lv_obj_class_create_obj
 5771              	.LVL643:
 153:Drivers/lvgl/src/widgets/scale/lv_scale.c ****     lv_obj_class_init_obj(obj);
 5772              		.loc 1 153 22 view .LVU1855
 5773 000a 0446     		mov	r4, r0
 5774              	.LVL644:
ARM GAS  /var/folders/qx/2_175_4n2s19vhvtspjhb3qh0000gn/T//ccmbJJmj.s 			page 177


 154:Drivers/lvgl/src/widgets/scale/lv_scale.c ****     return obj;
 5775              		.loc 1 154 5 is_stmt 1 view .LVU1856
 5776 000c FFF7FEFF 		bl	lv_obj_class_init_obj
 5777              	.LVL645:
 155:Drivers/lvgl/src/widgets/scale/lv_scale.c **** }
 5778              		.loc 1 155 5 view .LVU1857
 156:Drivers/lvgl/src/widgets/scale/lv_scale.c **** 
 5779              		.loc 1 156 1 is_stmt 0 view .LVU1858
 5780 0010 2046     		mov	r0, r4
 5781 0012 10BD     		pop	{r4, pc}
 5782              	.LVL646:
 5783              	.L259:
 156:Drivers/lvgl/src/widgets/scale/lv_scale.c **** 
 5784              		.loc 1 156 1 view .LVU1859
 5785              		.align	2
 5786              	.L258:
 5787 0014 00000000 		.word	lv_scale_class
 5788              		.cfi_endproc
 5789              	.LFE184:
 5791              		.section	.text.lv_scale_set_mode,"ax",%progbits
 5792              		.align	1
 5793              		.global	lv_scale_set_mode
 5794              		.syntax unified
 5795              		.thumb
 5796              		.thumb_func
 5798              	lv_scale_set_mode:
 5799              	.LVL647:
 5800              	.LFB185:
 171:Drivers/lvgl/src/widgets/scale/lv_scale.c ****     LV_ASSERT_OBJ(obj, MY_CLASS);
 5801              		.loc 1 171 1 is_stmt 1 view -0
 5802              		.cfi_startproc
 5803              		@ args = 0, pretend = 0, frame = 0
 5804              		@ frame_needed = 0, uses_anonymous_args = 0
 172:Drivers/lvgl/src/widgets/scale/lv_scale.c ****     lv_scale_t * scale = (lv_scale_t *)obj;
 5805              		.loc 1 172 5 view .LVU1861
 172:Drivers/lvgl/src/widgets/scale/lv_scale.c ****     lv_scale_t * scale = (lv_scale_t *)obj;
 5806              		.loc 1 172 5 view .LVU1862
 5807 0000 28B1     		cbz	r0, .L262
 171:Drivers/lvgl/src/widgets/scale/lv_scale.c ****     LV_ASSERT_OBJ(obj, MY_CLASS);
 5808              		.loc 1 171 1 is_stmt 0 view .LVU1863
 5809 0002 08B5     		push	{r3, lr}
 5810              	.LCFI51:
 5811              		.cfi_def_cfa_offset 8
 5812              		.cfi_offset 3, -8
 5813              		.cfi_offset 14, -4
 172:Drivers/lvgl/src/widgets/scale/lv_scale.c ****     lv_scale_t * scale = (lv_scale_t *)obj;
 5814              		.loc 1 172 5 is_stmt 1 view .LVU1864
 172:Drivers/lvgl/src/widgets/scale/lv_scale.c ****     lv_scale_t * scale = (lv_scale_t *)obj;
 5815              		.loc 1 172 33 view .LVU1865
 173:Drivers/lvgl/src/widgets/scale/lv_scale.c **** 
 5816              		.loc 1 173 5 view .LVU1866
 5817              	.LVL648:
 175:Drivers/lvgl/src/widgets/scale/lv_scale.c **** 
 5818              		.loc 1 175 5 view .LVU1867
 175:Drivers/lvgl/src/widgets/scale/lv_scale.c **** 
 5819              		.loc 1 175 17 is_stmt 0 view .LVU1868
 5820 0004 80F83C10 		strb	r1, [r0, #60]
ARM GAS  /var/folders/qx/2_175_4n2s19vhvtspjhb3qh0000gn/T//ccmbJJmj.s 			page 178


 177:Drivers/lvgl/src/widgets/scale/lv_scale.c **** }
 5821              		.loc 1 177 5 is_stmt 1 view .LVU1869
 5822 0008 FFF7FEFF 		bl	lv_obj_invalidate
 5823              	.LVL649:
 178:Drivers/lvgl/src/widgets/scale/lv_scale.c **** 
 5824              		.loc 1 178 1 is_stmt 0 view .LVU1870
 5825 000c 08BD     		pop	{r3, pc}
 5826              	.LVL650:
 5827              	.L262:
 5828              	.LCFI52:
 5829              		.cfi_def_cfa_offset 0
 5830              		.cfi_restore 3
 5831              		.cfi_restore 14
 172:Drivers/lvgl/src/widgets/scale/lv_scale.c ****     lv_scale_t * scale = (lv_scale_t *)obj;
 5832              		.loc 1 172 5 is_stmt 1 view .LVU1871
 172:Drivers/lvgl/src/widgets/scale/lv_scale.c ****     lv_scale_t * scale = (lv_scale_t *)obj;
 5833              		.loc 1 172 5 view .LVU1872
 172:Drivers/lvgl/src/widgets/scale/lv_scale.c ****     lv_scale_t * scale = (lv_scale_t *)obj;
 5834              		.loc 1 172 5 view .LVU1873
 172:Drivers/lvgl/src/widgets/scale/lv_scale.c ****     lv_scale_t * scale = (lv_scale_t *)obj;
 5835              		.loc 1 172 5 view .LVU1874
 172:Drivers/lvgl/src/widgets/scale/lv_scale.c ****     lv_scale_t * scale = (lv_scale_t *)obj;
 5836              		.loc 1 172 5 view .LVU1875
 5837 000e FEE7     		b	.L262
 5838              		.cfi_endproc
 5839              	.LFE185:
 5841              		.section	.text.lv_scale_set_total_tick_count,"ax",%progbits
 5842              		.align	1
 5843              		.global	lv_scale_set_total_tick_count
 5844              		.syntax unified
 5845              		.thumb
 5846              		.thumb_func
 5848              	lv_scale_set_total_tick_count:
 5849              	.LVL651:
 5850              	.LFB186:
 181:Drivers/lvgl/src/widgets/scale/lv_scale.c ****     LV_ASSERT_OBJ(obj, MY_CLASS);
 5851              		.loc 1 181 1 view -0
 5852              		.cfi_startproc
 5853              		@ args = 0, pretend = 0, frame = 0
 5854              		@ frame_needed = 0, uses_anonymous_args = 0
 182:Drivers/lvgl/src/widgets/scale/lv_scale.c ****     lv_scale_t * scale = (lv_scale_t *)obj;
 5855              		.loc 1 182 5 view .LVU1877
 182:Drivers/lvgl/src/widgets/scale/lv_scale.c ****     lv_scale_t * scale = (lv_scale_t *)obj;
 5856              		.loc 1 182 5 view .LVU1878
 5857 0000 48B1     		cbz	r0, .L267
 181:Drivers/lvgl/src/widgets/scale/lv_scale.c ****     LV_ASSERT_OBJ(obj, MY_CLASS);
 5858              		.loc 1 181 1 is_stmt 0 view .LVU1879
 5859 0002 08B5     		push	{r3, lr}
 5860              	.LCFI53:
 5861              		.cfi_def_cfa_offset 8
 5862              		.cfi_offset 3, -8
 5863              		.cfi_offset 14, -4
 182:Drivers/lvgl/src/widgets/scale/lv_scale.c ****     lv_scale_t * scale = (lv_scale_t *)obj;
 5864              		.loc 1 182 5 is_stmt 1 view .LVU1880
 182:Drivers/lvgl/src/widgets/scale/lv_scale.c ****     lv_scale_t * scale = (lv_scale_t *)obj;
 5865              		.loc 1 182 33 view .LVU1881
 183:Drivers/lvgl/src/widgets/scale/lv_scale.c **** 
ARM GAS  /var/folders/qx/2_175_4n2s19vhvtspjhb3qh0000gn/T//ccmbJJmj.s 			page 179


 5866              		.loc 1 183 5 view .LVU1882
 5867              	.LVL652:
 185:Drivers/lvgl/src/widgets/scale/lv_scale.c **** 
 5868              		.loc 1 185 5 view .LVU1883
 185:Drivers/lvgl/src/widgets/scale/lv_scale.c **** 
 5869              		.loc 1 185 29 is_stmt 0 view .LVU1884
 5870 0004 B0F84820 		ldrh	r2, [r0, #72]
 5871 0008 61F30E02 		bfi	r2, r1, #0, #15
 5872 000c A0F84820 		strh	r2, [r0, #72]	@ movhi
 187:Drivers/lvgl/src/widgets/scale/lv_scale.c **** }
 5873              		.loc 1 187 5 is_stmt 1 view .LVU1885
 5874 0010 FFF7FEFF 		bl	lv_obj_invalidate
 5875              	.LVL653:
 188:Drivers/lvgl/src/widgets/scale/lv_scale.c **** 
 5876              		.loc 1 188 1 is_stmt 0 view .LVU1886
 5877 0014 08BD     		pop	{r3, pc}
 5878              	.LVL654:
 5879              	.L267:
 5880              	.LCFI54:
 5881              		.cfi_def_cfa_offset 0
 5882              		.cfi_restore 3
 5883              		.cfi_restore 14
 182:Drivers/lvgl/src/widgets/scale/lv_scale.c ****     lv_scale_t * scale = (lv_scale_t *)obj;
 5884              		.loc 1 182 5 is_stmt 1 view .LVU1887
 182:Drivers/lvgl/src/widgets/scale/lv_scale.c ****     lv_scale_t * scale = (lv_scale_t *)obj;
 5885              		.loc 1 182 5 view .LVU1888
 182:Drivers/lvgl/src/widgets/scale/lv_scale.c ****     lv_scale_t * scale = (lv_scale_t *)obj;
 5886              		.loc 1 182 5 view .LVU1889
 182:Drivers/lvgl/src/widgets/scale/lv_scale.c ****     lv_scale_t * scale = (lv_scale_t *)obj;
 5887              		.loc 1 182 5 view .LVU1890
 182:Drivers/lvgl/src/widgets/scale/lv_scale.c ****     lv_scale_t * scale = (lv_scale_t *)obj;
 5888              		.loc 1 182 5 view .LVU1891
 5889 0016 FEE7     		b	.L267
 5890              		.cfi_endproc
 5891              	.LFE186:
 5893              		.section	.text.lv_scale_set_major_tick_every,"ax",%progbits
 5894              		.align	1
 5895              		.global	lv_scale_set_major_tick_every
 5896              		.syntax unified
 5897              		.thumb
 5898              		.thumb_func
 5900              	lv_scale_set_major_tick_every:
 5901              	.LVL655:
 5902              	.LFB187:
 191:Drivers/lvgl/src/widgets/scale/lv_scale.c ****     LV_ASSERT_OBJ(obj, MY_CLASS);
 5903              		.loc 1 191 1 view -0
 5904              		.cfi_startproc
 5905              		@ args = 0, pretend = 0, frame = 0
 5906              		@ frame_needed = 0, uses_anonymous_args = 0
 192:Drivers/lvgl/src/widgets/scale/lv_scale.c ****     lv_scale_t * scale = (lv_scale_t *)obj;
 5907              		.loc 1 192 5 view .LVU1893
 192:Drivers/lvgl/src/widgets/scale/lv_scale.c ****     lv_scale_t * scale = (lv_scale_t *)obj;
 5908              		.loc 1 192 5 view .LVU1894
 5909 0000 38B1     		cbz	r0, .L272
 191:Drivers/lvgl/src/widgets/scale/lv_scale.c ****     LV_ASSERT_OBJ(obj, MY_CLASS);
 5910              		.loc 1 191 1 is_stmt 0 view .LVU1895
 5911 0002 08B5     		push	{r3, lr}
ARM GAS  /var/folders/qx/2_175_4n2s19vhvtspjhb3qh0000gn/T//ccmbJJmj.s 			page 180


 5912              	.LCFI55:
 5913              		.cfi_def_cfa_offset 8
 5914              		.cfi_offset 3, -8
 5915              		.cfi_offset 14, -4
 192:Drivers/lvgl/src/widgets/scale/lv_scale.c ****     lv_scale_t * scale = (lv_scale_t *)obj;
 5916              		.loc 1 192 5 is_stmt 1 view .LVU1896
 192:Drivers/lvgl/src/widgets/scale/lv_scale.c ****     lv_scale_t * scale = (lv_scale_t *)obj;
 5917              		.loc 1 192 33 view .LVU1897
 193:Drivers/lvgl/src/widgets/scale/lv_scale.c **** 
 5918              		.loc 1 193 5 view .LVU1898
 5919              	.LVL656:
 195:Drivers/lvgl/src/widgets/scale/lv_scale.c **** 
 5920              		.loc 1 195 5 view .LVU1899
 195:Drivers/lvgl/src/widgets/scale/lv_scale.c **** 
 5921              		.loc 1 195 29 is_stmt 0 view .LVU1900
 5922 0004 826C     		ldr	r2, [r0, #72]
 5923 0006 61F3DD32 		bfi	r2, r1, #15, #15
 5924 000a 8264     		str	r2, [r0, #72]
 197:Drivers/lvgl/src/widgets/scale/lv_scale.c **** }
 5925              		.loc 1 197 5 is_stmt 1 view .LVU1901
 5926 000c FFF7FEFF 		bl	lv_obj_invalidate
 5927              	.LVL657:
 198:Drivers/lvgl/src/widgets/scale/lv_scale.c **** 
 5928              		.loc 1 198 1 is_stmt 0 view .LVU1902
 5929 0010 08BD     		pop	{r3, pc}
 5930              	.LVL658:
 5931              	.L272:
 5932              	.LCFI56:
 5933              		.cfi_def_cfa_offset 0
 5934              		.cfi_restore 3
 5935              		.cfi_restore 14
 192:Drivers/lvgl/src/widgets/scale/lv_scale.c ****     lv_scale_t * scale = (lv_scale_t *)obj;
 5936              		.loc 1 192 5 is_stmt 1 view .LVU1903
 192:Drivers/lvgl/src/widgets/scale/lv_scale.c ****     lv_scale_t * scale = (lv_scale_t *)obj;
 5937              		.loc 1 192 5 view .LVU1904
 192:Drivers/lvgl/src/widgets/scale/lv_scale.c ****     lv_scale_t * scale = (lv_scale_t *)obj;
 5938              		.loc 1 192 5 view .LVU1905
 192:Drivers/lvgl/src/widgets/scale/lv_scale.c ****     lv_scale_t * scale = (lv_scale_t *)obj;
 5939              		.loc 1 192 5 view .LVU1906
 192:Drivers/lvgl/src/widgets/scale/lv_scale.c ****     lv_scale_t * scale = (lv_scale_t *)obj;
 5940              		.loc 1 192 5 view .LVU1907
 5941 0012 FEE7     		b	.L272
 5942              		.cfi_endproc
 5943              	.LFE187:
 5945              		.section	.text.lv_scale_set_label_show,"ax",%progbits
 5946              		.align	1
 5947              		.global	lv_scale_set_label_show
 5948              		.syntax unified
 5949              		.thumb
 5950              		.thumb_func
 5952              	lv_scale_set_label_show:
 5953              	.LVL659:
 5954              	.LFB188:
 201:Drivers/lvgl/src/widgets/scale/lv_scale.c ****     LV_ASSERT_OBJ(obj, MY_CLASS);
 5955              		.loc 1 201 1 view -0
 5956              		.cfi_startproc
 5957              		@ args = 0, pretend = 0, frame = 0
ARM GAS  /var/folders/qx/2_175_4n2s19vhvtspjhb3qh0000gn/T//ccmbJJmj.s 			page 181


 5958              		@ frame_needed = 0, uses_anonymous_args = 0
 202:Drivers/lvgl/src/widgets/scale/lv_scale.c ****     lv_scale_t * scale = (lv_scale_t *)obj;
 5959              		.loc 1 202 5 view .LVU1909
 202:Drivers/lvgl/src/widgets/scale/lv_scale.c ****     lv_scale_t * scale = (lv_scale_t *)obj;
 5960              		.loc 1 202 5 view .LVU1910
 5961 0000 48B1     		cbz	r0, .L277
 201:Drivers/lvgl/src/widgets/scale/lv_scale.c ****     LV_ASSERT_OBJ(obj, MY_CLASS);
 5962              		.loc 1 201 1 is_stmt 0 view .LVU1911
 5963 0002 08B5     		push	{r3, lr}
 5964              	.LCFI57:
 5965              		.cfi_def_cfa_offset 8
 5966              		.cfi_offset 3, -8
 5967              		.cfi_offset 14, -4
 202:Drivers/lvgl/src/widgets/scale/lv_scale.c ****     lv_scale_t * scale = (lv_scale_t *)obj;
 5968              		.loc 1 202 5 is_stmt 1 view .LVU1912
 202:Drivers/lvgl/src/widgets/scale/lv_scale.c ****     lv_scale_t * scale = (lv_scale_t *)obj;
 5969              		.loc 1 202 33 view .LVU1913
 203:Drivers/lvgl/src/widgets/scale/lv_scale.c **** 
 5970              		.loc 1 203 5 view .LVU1914
 5971              	.LVL660:
 205:Drivers/lvgl/src/widgets/scale/lv_scale.c **** 
 5972              		.loc 1 205 5 view .LVU1915
 205:Drivers/lvgl/src/widgets/scale/lv_scale.c **** 
 5973              		.loc 1 205 26 is_stmt 0 view .LVU1916
 5974 0004 90F84B20 		ldrb	r2, [r0, #75]	@ zero_extendqisi2
 5975 0008 61F38612 		bfi	r2, r1, #6, #1
 5976              	.LVL661:
 205:Drivers/lvgl/src/widgets/scale/lv_scale.c **** 
 5977              		.loc 1 205 26 view .LVU1917
 5978 000c 80F84B20 		strb	r2, [r0, #75]
 207:Drivers/lvgl/src/widgets/scale/lv_scale.c **** }
 5979              		.loc 1 207 5 is_stmt 1 view .LVU1918
 5980 0010 FFF7FEFF 		bl	lv_obj_invalidate
 5981              	.LVL662:
 208:Drivers/lvgl/src/widgets/scale/lv_scale.c **** 
 5982              		.loc 1 208 1 is_stmt 0 view .LVU1919
 5983 0014 08BD     		pop	{r3, pc}
 5984              	.LVL663:
 5985              	.L277:
 5986              	.LCFI58:
 5987              		.cfi_def_cfa_offset 0
 5988              		.cfi_restore 3
 5989              		.cfi_restore 14
 202:Drivers/lvgl/src/widgets/scale/lv_scale.c ****     lv_scale_t * scale = (lv_scale_t *)obj;
 5990              		.loc 1 202 5 is_stmt 1 view .LVU1920
 202:Drivers/lvgl/src/widgets/scale/lv_scale.c ****     lv_scale_t * scale = (lv_scale_t *)obj;
 5991              		.loc 1 202 5 view .LVU1921
 202:Drivers/lvgl/src/widgets/scale/lv_scale.c ****     lv_scale_t * scale = (lv_scale_t *)obj;
 5992              		.loc 1 202 5 view .LVU1922
 202:Drivers/lvgl/src/widgets/scale/lv_scale.c ****     lv_scale_t * scale = (lv_scale_t *)obj;
 5993              		.loc 1 202 5 view .LVU1923
 202:Drivers/lvgl/src/widgets/scale/lv_scale.c ****     lv_scale_t * scale = (lv_scale_t *)obj;
 5994              		.loc 1 202 5 view .LVU1924
 5995 0016 FEE7     		b	.L277
 5996              		.cfi_endproc
 5997              	.LFE188:
 5999              		.section	.text.lv_scale_set_range,"ax",%progbits
ARM GAS  /var/folders/qx/2_175_4n2s19vhvtspjhb3qh0000gn/T//ccmbJJmj.s 			page 182


 6000              		.align	1
 6001              		.global	lv_scale_set_range
 6002              		.syntax unified
 6003              		.thumb
 6004              		.thumb_func
 6006              	lv_scale_set_range:
 6007              	.LVL664:
 6008              	.LFB189:
 211:Drivers/lvgl/src/widgets/scale/lv_scale.c ****     LV_ASSERT_OBJ(obj, MY_CLASS);
 6009              		.loc 1 211 1 view -0
 6010              		.cfi_startproc
 6011              		@ args = 0, pretend = 0, frame = 0
 6012              		@ frame_needed = 0, uses_anonymous_args = 0
 212:Drivers/lvgl/src/widgets/scale/lv_scale.c ****     lv_scale_t * scale = (lv_scale_t *)obj;
 6013              		.loc 1 212 5 view .LVU1926
 212:Drivers/lvgl/src/widgets/scale/lv_scale.c ****     lv_scale_t * scale = (lv_scale_t *)obj;
 6014              		.loc 1 212 5 view .LVU1927
 6015 0000 28B1     		cbz	r0, .L282
 211:Drivers/lvgl/src/widgets/scale/lv_scale.c ****     LV_ASSERT_OBJ(obj, MY_CLASS);
 6016              		.loc 1 211 1 is_stmt 0 view .LVU1928
 6017 0002 08B5     		push	{r3, lr}
 6018              	.LCFI59:
 6019              		.cfi_def_cfa_offset 8
 6020              		.cfi_offset 3, -8
 6021              		.cfi_offset 14, -4
 212:Drivers/lvgl/src/widgets/scale/lv_scale.c ****     lv_scale_t * scale = (lv_scale_t *)obj;
 6022              		.loc 1 212 5 is_stmt 1 view .LVU1929
 212:Drivers/lvgl/src/widgets/scale/lv_scale.c ****     lv_scale_t * scale = (lv_scale_t *)obj;
 6023              		.loc 1 212 33 view .LVU1930
 213:Drivers/lvgl/src/widgets/scale/lv_scale.c **** 
 6024              		.loc 1 213 5 view .LVU1931
 6025              	.LVL665:
 215:Drivers/lvgl/src/widgets/scale/lv_scale.c ****     scale->range_max = max;
 6026              		.loc 1 215 5 view .LVU1932
 215:Drivers/lvgl/src/widgets/scale/lv_scale.c ****     scale->range_max = max;
 6027              		.loc 1 215 22 is_stmt 0 view .LVU1933
 6028 0004 0164     		str	r1, [r0, #64]
 216:Drivers/lvgl/src/widgets/scale/lv_scale.c **** 
 6029              		.loc 1 216 5 is_stmt 1 view .LVU1934
 216:Drivers/lvgl/src/widgets/scale/lv_scale.c **** 
 6030              		.loc 1 216 22 is_stmt 0 view .LVU1935
 6031 0006 4264     		str	r2, [r0, #68]
 218:Drivers/lvgl/src/widgets/scale/lv_scale.c **** }
 6032              		.loc 1 218 5 is_stmt 1 view .LVU1936
 6033 0008 FFF7FEFF 		bl	lv_obj_invalidate
 6034              	.LVL666:
 219:Drivers/lvgl/src/widgets/scale/lv_scale.c **** 
 6035              		.loc 1 219 1 is_stmt 0 view .LVU1937
 6036 000c 08BD     		pop	{r3, pc}
 6037              	.LVL667:
 6038              	.L282:
 6039              	.LCFI60:
 6040              		.cfi_def_cfa_offset 0
 6041              		.cfi_restore 3
 6042              		.cfi_restore 14
 212:Drivers/lvgl/src/widgets/scale/lv_scale.c ****     lv_scale_t * scale = (lv_scale_t *)obj;
 6043              		.loc 1 212 5 is_stmt 1 view .LVU1938
ARM GAS  /var/folders/qx/2_175_4n2s19vhvtspjhb3qh0000gn/T//ccmbJJmj.s 			page 183


 212:Drivers/lvgl/src/widgets/scale/lv_scale.c ****     lv_scale_t * scale = (lv_scale_t *)obj;
 6044              		.loc 1 212 5 view .LVU1939
 212:Drivers/lvgl/src/widgets/scale/lv_scale.c ****     lv_scale_t * scale = (lv_scale_t *)obj;
 6045              		.loc 1 212 5 view .LVU1940
 212:Drivers/lvgl/src/widgets/scale/lv_scale.c ****     lv_scale_t * scale = (lv_scale_t *)obj;
 6046              		.loc 1 212 5 view .LVU1941
 212:Drivers/lvgl/src/widgets/scale/lv_scale.c ****     lv_scale_t * scale = (lv_scale_t *)obj;
 6047              		.loc 1 212 5 view .LVU1942
 6048 000e FEE7     		b	.L282
 6049              		.cfi_endproc
 6050              	.LFE189:
 6052              		.section	.text.lv_scale_set_min_value,"ax",%progbits
 6053              		.align	1
 6054              		.global	lv_scale_set_min_value
 6055              		.syntax unified
 6056              		.thumb
 6057              		.thumb_func
 6059              	lv_scale_set_min_value:
 6060              	.LVL668:
 6061              	.LFB190:
 222:Drivers/lvgl/src/widgets/scale/lv_scale.c ****     LV_ASSERT_OBJ(obj, MY_CLASS);
 6062              		.loc 1 222 1 view -0
 6063              		.cfi_startproc
 6064              		@ args = 0, pretend = 0, frame = 0
 6065              		@ frame_needed = 0, uses_anonymous_args = 0
 223:Drivers/lvgl/src/widgets/scale/lv_scale.c ****     lv_scale_t * scale = (lv_scale_t *)obj;
 6066              		.loc 1 223 5 view .LVU1944
 223:Drivers/lvgl/src/widgets/scale/lv_scale.c ****     lv_scale_t * scale = (lv_scale_t *)obj;
 6067              		.loc 1 223 5 view .LVU1945
 6068 0000 38B1     		cbz	r0, .L287
 222:Drivers/lvgl/src/widgets/scale/lv_scale.c ****     LV_ASSERT_OBJ(obj, MY_CLASS);
 6069              		.loc 1 222 1 is_stmt 0 view .LVU1946
 6070 0002 08B5     		push	{r3, lr}
 6071              	.LCFI61:
 6072              		.cfi_def_cfa_offset 8
 6073              		.cfi_offset 3, -8
 6074              		.cfi_offset 14, -4
 223:Drivers/lvgl/src/widgets/scale/lv_scale.c ****     lv_scale_t * scale = (lv_scale_t *)obj;
 6075              		.loc 1 223 5 is_stmt 1 view .LVU1947
 223:Drivers/lvgl/src/widgets/scale/lv_scale.c ****     lv_scale_t * scale = (lv_scale_t *)obj;
 6076              		.loc 1 223 33 view .LVU1948
 224:Drivers/lvgl/src/widgets/scale/lv_scale.c ****     if(scale->range_min == min) return;
 6077              		.loc 1 224 5 view .LVU1949
 6078              	.LVL669:
 225:Drivers/lvgl/src/widgets/scale/lv_scale.c ****     scale->range_min = min;
 6079              		.loc 1 225 5 view .LVU1950
 225:Drivers/lvgl/src/widgets/scale/lv_scale.c ****     scale->range_min = min;
 6080              		.loc 1 225 13 is_stmt 0 view .LVU1951
 6081 0004 026C     		ldr	r2, [r0, #64]
 225:Drivers/lvgl/src/widgets/scale/lv_scale.c ****     scale->range_min = min;
 6082              		.loc 1 225 7 view .LVU1952
 6083 0006 8A42     		cmp	r2, r1
 6084 0008 02D0     		beq	.L285
 226:Drivers/lvgl/src/widgets/scale/lv_scale.c **** 
 6085              		.loc 1 226 5 is_stmt 1 view .LVU1953
 226:Drivers/lvgl/src/widgets/scale/lv_scale.c **** 
 6086              		.loc 1 226 22 is_stmt 0 view .LVU1954
ARM GAS  /var/folders/qx/2_175_4n2s19vhvtspjhb3qh0000gn/T//ccmbJJmj.s 			page 184


 6087 000a 0164     		str	r1, [r0, #64]
 228:Drivers/lvgl/src/widgets/scale/lv_scale.c **** }
 6088              		.loc 1 228 5 is_stmt 1 view .LVU1955
 6089 000c FFF7FEFF 		bl	lv_obj_invalidate
 6090              	.LVL670:
 6091              	.L285:
 229:Drivers/lvgl/src/widgets/scale/lv_scale.c **** 
 6092              		.loc 1 229 1 is_stmt 0 view .LVU1956
 6093 0010 08BD     		pop	{r3, pc}
 6094              	.LVL671:
 6095              	.L287:
 6096              	.LCFI62:
 6097              		.cfi_def_cfa_offset 0
 6098              		.cfi_restore 3
 6099              		.cfi_restore 14
 223:Drivers/lvgl/src/widgets/scale/lv_scale.c ****     lv_scale_t * scale = (lv_scale_t *)obj;
 6100              		.loc 1 223 5 is_stmt 1 view .LVU1957
 223:Drivers/lvgl/src/widgets/scale/lv_scale.c ****     lv_scale_t * scale = (lv_scale_t *)obj;
 6101              		.loc 1 223 5 view .LVU1958
 223:Drivers/lvgl/src/widgets/scale/lv_scale.c ****     lv_scale_t * scale = (lv_scale_t *)obj;
 6102              		.loc 1 223 5 view .LVU1959
 223:Drivers/lvgl/src/widgets/scale/lv_scale.c ****     lv_scale_t * scale = (lv_scale_t *)obj;
 6103              		.loc 1 223 5 view .LVU1960
 223:Drivers/lvgl/src/widgets/scale/lv_scale.c ****     lv_scale_t * scale = (lv_scale_t *)obj;
 6104              		.loc 1 223 5 view .LVU1961
 6105 0012 FEE7     		b	.L287
 6106              		.cfi_endproc
 6107              	.LFE190:
 6109              		.section	.text.lv_scale_set_max_value,"ax",%progbits
 6110              		.align	1
 6111              		.global	lv_scale_set_max_value
 6112              		.syntax unified
 6113              		.thumb
 6114              		.thumb_func
 6116              	lv_scale_set_max_value:
 6117              	.LVL672:
 6118              	.LFB191:
 232:Drivers/lvgl/src/widgets/scale/lv_scale.c ****     LV_ASSERT_OBJ(obj, MY_CLASS);
 6119              		.loc 1 232 1 view -0
 6120              		.cfi_startproc
 6121              		@ args = 0, pretend = 0, frame = 0
 6122              		@ frame_needed = 0, uses_anonymous_args = 0
 233:Drivers/lvgl/src/widgets/scale/lv_scale.c ****     lv_scale_t * scale = (lv_scale_t *)obj;
 6123              		.loc 1 233 5 view .LVU1963
 233:Drivers/lvgl/src/widgets/scale/lv_scale.c ****     lv_scale_t * scale = (lv_scale_t *)obj;
 6124              		.loc 1 233 5 view .LVU1964
 6125 0000 38B1     		cbz	r0, .L293
 232:Drivers/lvgl/src/widgets/scale/lv_scale.c ****     LV_ASSERT_OBJ(obj, MY_CLASS);
 6126              		.loc 1 232 1 is_stmt 0 view .LVU1965
 6127 0002 08B5     		push	{r3, lr}
 6128              	.LCFI63:
 6129              		.cfi_def_cfa_offset 8
 6130              		.cfi_offset 3, -8
 6131              		.cfi_offset 14, -4
 233:Drivers/lvgl/src/widgets/scale/lv_scale.c ****     lv_scale_t * scale = (lv_scale_t *)obj;
 6132              		.loc 1 233 5 is_stmt 1 view .LVU1966
 233:Drivers/lvgl/src/widgets/scale/lv_scale.c ****     lv_scale_t * scale = (lv_scale_t *)obj;
ARM GAS  /var/folders/qx/2_175_4n2s19vhvtspjhb3qh0000gn/T//ccmbJJmj.s 			page 185


 6133              		.loc 1 233 33 view .LVU1967
 234:Drivers/lvgl/src/widgets/scale/lv_scale.c ****     if(scale->range_max == max) return;
 6134              		.loc 1 234 5 view .LVU1968
 6135              	.LVL673:
 235:Drivers/lvgl/src/widgets/scale/lv_scale.c ****     scale->range_max = max;
 6136              		.loc 1 235 5 view .LVU1969
 235:Drivers/lvgl/src/widgets/scale/lv_scale.c ****     scale->range_max = max;
 6137              		.loc 1 235 13 is_stmt 0 view .LVU1970
 6138 0004 426C     		ldr	r2, [r0, #68]
 235:Drivers/lvgl/src/widgets/scale/lv_scale.c ****     scale->range_max = max;
 6139              		.loc 1 235 7 view .LVU1971
 6140 0006 8A42     		cmp	r2, r1
 6141 0008 02D0     		beq	.L291
 236:Drivers/lvgl/src/widgets/scale/lv_scale.c **** 
 6142              		.loc 1 236 5 is_stmt 1 view .LVU1972
 236:Drivers/lvgl/src/widgets/scale/lv_scale.c **** 
 6143              		.loc 1 236 22 is_stmt 0 view .LVU1973
 6144 000a 4164     		str	r1, [r0, #68]
 238:Drivers/lvgl/src/widgets/scale/lv_scale.c **** }
 6145              		.loc 1 238 5 is_stmt 1 view .LVU1974
 6146 000c FFF7FEFF 		bl	lv_obj_invalidate
 6147              	.LVL674:
 6148              	.L291:
 239:Drivers/lvgl/src/widgets/scale/lv_scale.c **** 
 6149              		.loc 1 239 1 is_stmt 0 view .LVU1975
 6150 0010 08BD     		pop	{r3, pc}
 6151              	.LVL675:
 6152              	.L293:
 6153              	.LCFI64:
 6154              		.cfi_def_cfa_offset 0
 6155              		.cfi_restore 3
 6156              		.cfi_restore 14
 233:Drivers/lvgl/src/widgets/scale/lv_scale.c ****     lv_scale_t * scale = (lv_scale_t *)obj;
 6157              		.loc 1 233 5 is_stmt 1 view .LVU1976
 233:Drivers/lvgl/src/widgets/scale/lv_scale.c ****     lv_scale_t * scale = (lv_scale_t *)obj;
 6158              		.loc 1 233 5 view .LVU1977
 233:Drivers/lvgl/src/widgets/scale/lv_scale.c ****     lv_scale_t * scale = (lv_scale_t *)obj;
 6159              		.loc 1 233 5 view .LVU1978
 233:Drivers/lvgl/src/widgets/scale/lv_scale.c ****     lv_scale_t * scale = (lv_scale_t *)obj;
 6160              		.loc 1 233 5 view .LVU1979
 233:Drivers/lvgl/src/widgets/scale/lv_scale.c ****     lv_scale_t * scale = (lv_scale_t *)obj;
 6161              		.loc 1 233 5 view .LVU1980
 6162 0012 FEE7     		b	.L293
 6163              		.cfi_endproc
 6164              	.LFE191:
 6166              		.section	.text.lv_scale_set_angle_range,"ax",%progbits
 6167              		.align	1
 6168              		.global	lv_scale_set_angle_range
 6169              		.syntax unified
 6170              		.thumb
 6171              		.thumb_func
 6173              	lv_scale_set_angle_range:
 6174              	.LVL676:
 6175              	.LFB192:
 242:Drivers/lvgl/src/widgets/scale/lv_scale.c ****     LV_ASSERT_OBJ(obj, MY_CLASS);
 6176              		.loc 1 242 1 view -0
 6177              		.cfi_startproc
ARM GAS  /var/folders/qx/2_175_4n2s19vhvtspjhb3qh0000gn/T//ccmbJJmj.s 			page 186


 6178              		@ args = 0, pretend = 0, frame = 0
 6179              		@ frame_needed = 0, uses_anonymous_args = 0
 243:Drivers/lvgl/src/widgets/scale/lv_scale.c ****     lv_scale_t * scale = (lv_scale_t *)obj;
 6180              		.loc 1 243 5 view .LVU1982
 243:Drivers/lvgl/src/widgets/scale/lv_scale.c ****     lv_scale_t * scale = (lv_scale_t *)obj;
 6181              		.loc 1 243 5 view .LVU1983
 6182 0000 20B1     		cbz	r0, .L299
 242:Drivers/lvgl/src/widgets/scale/lv_scale.c ****     LV_ASSERT_OBJ(obj, MY_CLASS);
 6183              		.loc 1 242 1 is_stmt 0 view .LVU1984
 6184 0002 08B5     		push	{r3, lr}
 6185              	.LCFI65:
 6186              		.cfi_def_cfa_offset 8
 6187              		.cfi_offset 3, -8
 6188              		.cfi_offset 14, -4
 243:Drivers/lvgl/src/widgets/scale/lv_scale.c ****     lv_scale_t * scale = (lv_scale_t *)obj;
 6189              		.loc 1 243 5 is_stmt 1 view .LVU1985
 243:Drivers/lvgl/src/widgets/scale/lv_scale.c ****     lv_scale_t * scale = (lv_scale_t *)obj;
 6190              		.loc 1 243 33 view .LVU1986
 244:Drivers/lvgl/src/widgets/scale/lv_scale.c **** 
 6191              		.loc 1 244 5 view .LVU1987
 6192              	.LVL677:
 246:Drivers/lvgl/src/widgets/scale/lv_scale.c **** 
 6193              		.loc 1 246 5 view .LVU1988
 246:Drivers/lvgl/src/widgets/scale/lv_scale.c **** 
 6194              		.loc 1 246 24 is_stmt 0 view .LVU1989
 6195 0004 0165     		str	r1, [r0, #80]
 248:Drivers/lvgl/src/widgets/scale/lv_scale.c **** }
 6196              		.loc 1 248 5 is_stmt 1 view .LVU1990
 6197 0006 FFF7FEFF 		bl	lv_obj_invalidate
 6198              	.LVL678:
 249:Drivers/lvgl/src/widgets/scale/lv_scale.c **** 
 6199              		.loc 1 249 1 is_stmt 0 view .LVU1991
 6200 000a 08BD     		pop	{r3, pc}
 6201              	.LVL679:
 6202              	.L299:
 6203              	.LCFI66:
 6204              		.cfi_def_cfa_offset 0
 6205              		.cfi_restore 3
 6206              		.cfi_restore 14
 243:Drivers/lvgl/src/widgets/scale/lv_scale.c ****     lv_scale_t * scale = (lv_scale_t *)obj;
 6207              		.loc 1 243 5 is_stmt 1 view .LVU1992
 243:Drivers/lvgl/src/widgets/scale/lv_scale.c ****     lv_scale_t * scale = (lv_scale_t *)obj;
 6208              		.loc 1 243 5 view .LVU1993
 243:Drivers/lvgl/src/widgets/scale/lv_scale.c ****     lv_scale_t * scale = (lv_scale_t *)obj;
 6209              		.loc 1 243 5 view .LVU1994
 243:Drivers/lvgl/src/widgets/scale/lv_scale.c ****     lv_scale_t * scale = (lv_scale_t *)obj;
 6210              		.loc 1 243 5 view .LVU1995
 243:Drivers/lvgl/src/widgets/scale/lv_scale.c ****     lv_scale_t * scale = (lv_scale_t *)obj;
 6211              		.loc 1 243 5 view .LVU1996
 6212 000c FEE7     		b	.L299
 6213              		.cfi_endproc
 6214              	.LFE192:
 6216              		.section	.text.lv_scale_set_rotation,"ax",%progbits
 6217              		.align	1
 6218              		.global	lv_scale_set_rotation
 6219              		.syntax unified
 6220              		.thumb
ARM GAS  /var/folders/qx/2_175_4n2s19vhvtspjhb3qh0000gn/T//ccmbJJmj.s 			page 187


 6221              		.thumb_func
 6223              	lv_scale_set_rotation:
 6224              	.LVL680:
 6225              	.LFB193:
 252:Drivers/lvgl/src/widgets/scale/lv_scale.c ****     LV_ASSERT_OBJ(obj, MY_CLASS);
 6226              		.loc 1 252 1 view -0
 6227              		.cfi_startproc
 6228              		@ args = 0, pretend = 0, frame = 0
 6229              		@ frame_needed = 0, uses_anonymous_args = 0
 253:Drivers/lvgl/src/widgets/scale/lv_scale.c ****     lv_scale_t * scale = (lv_scale_t *)obj;
 6230              		.loc 1 253 5 view .LVU1998
 253:Drivers/lvgl/src/widgets/scale/lv_scale.c ****     lv_scale_t * scale = (lv_scale_t *)obj;
 6231              		.loc 1 253 5 view .LVU1999
 6232 0000 B0B1     		cbz	r0, .L304
 252:Drivers/lvgl/src/widgets/scale/lv_scale.c ****     LV_ASSERT_OBJ(obj, MY_CLASS);
 6233              		.loc 1 252 1 is_stmt 0 view .LVU2000
 6234 0002 08B5     		push	{r3, lr}
 6235              	.LCFI67:
 6236              		.cfi_def_cfa_offset 8
 6237              		.cfi_offset 3, -8
 6238              		.cfi_offset 14, -4
 6239 0004 0346     		mov	r3, r0
 253:Drivers/lvgl/src/widgets/scale/lv_scale.c ****     lv_scale_t * scale = (lv_scale_t *)obj;
 6240              		.loc 1 253 5 is_stmt 1 view .LVU2001
 253:Drivers/lvgl/src/widgets/scale/lv_scale.c ****     lv_scale_t * scale = (lv_scale_t *)obj;
 6241              		.loc 1 253 33 view .LVU2002
 254:Drivers/lvgl/src/widgets/scale/lv_scale.c ****     int32_t normalized_angle = rotation;
 6242              		.loc 1 254 5 view .LVU2003
 6243              	.LVL681:
 255:Drivers/lvgl/src/widgets/scale/lv_scale.c **** 
 6244              		.loc 1 255 5 view .LVU2004
 257:Drivers/lvgl/src/widgets/scale/lv_scale.c ****         normalized_angle = rotation % 360;
 6245              		.loc 1 257 5 view .LVU2005
 257:Drivers/lvgl/src/widgets/scale/lv_scale.c ****         normalized_angle = rotation % 360;
 6246              		.loc 1 257 7 is_stmt 0 view .LVU2006
 6247 0006 B1F5B47F 		cmp	r1, #360
 6248 000a 0CD9     		bls	.L305
 258:Drivers/lvgl/src/widgets/scale/lv_scale.c **** 
 6249              		.loc 1 258 9 is_stmt 1 view .LVU2007
 258:Drivers/lvgl/src/widgets/scale/lv_scale.c **** 
 6250              		.loc 1 258 26 is_stmt 0 view .LVU2008
 6251 000c 0A4A     		ldr	r2, .L309
 6252 000e 82FB0102 		smull	r0, r2, r2, r1
 6253              	.LVL682:
 258:Drivers/lvgl/src/widgets/scale/lv_scale.c **** 
 6254              		.loc 1 258 26 view .LVU2009
 6255 0012 0A44     		add	r2, r2, r1
 6256 0014 C817     		asrs	r0, r1, #31
 6257 0016 C0EB2222 		rsb	r2, r0, r2, asr #8
 6258 001a 4FF4B470 		mov	r0, #360
 6259 001e 00FB1211 		mls	r1, r0, r2, r1
 6260              	.LVL683:
 260:Drivers/lvgl/src/widgets/scale/lv_scale.c ****             normalized_angle += 360;
 6261              		.loc 1 260 9 is_stmt 1 view .LVU2010
 260:Drivers/lvgl/src/widgets/scale/lv_scale.c ****             normalized_angle += 360;
 6262              		.loc 1 260 11 is_stmt 0 view .LVU2011
 6263 0022 0029     		cmp	r1, #0
ARM GAS  /var/folders/qx/2_175_4n2s19vhvtspjhb3qh0000gn/T//ccmbJJmj.s 			page 188


 6264 0024 05DB     		blt	.L308
 6265              	.LVL684:
 6266              	.L305:
 265:Drivers/lvgl/src/widgets/scale/lv_scale.c ****     lv_obj_invalidate(obj);
 6267              		.loc 1 265 5 is_stmt 1 view .LVU2012
 265:Drivers/lvgl/src/widgets/scale/lv_scale.c ****     lv_obj_invalidate(obj);
 6268              		.loc 1 265 21 is_stmt 0 view .LVU2013
 6269 0026 5965     		str	r1, [r3, #84]
 266:Drivers/lvgl/src/widgets/scale/lv_scale.c **** }
 6270              		.loc 1 266 5 is_stmt 1 view .LVU2014
 6271 0028 1846     		mov	r0, r3
 6272 002a FFF7FEFF 		bl	lv_obj_invalidate
 6273              	.LVL685:
 267:Drivers/lvgl/src/widgets/scale/lv_scale.c **** 
 6274              		.loc 1 267 1 is_stmt 0 view .LVU2015
 6275 002e 08BD     		pop	{r3, pc}
 6276              	.LVL686:
 6277              	.L304:
 6278              	.LCFI68:
 6279              		.cfi_def_cfa_offset 0
 6280              		.cfi_restore 3
 6281              		.cfi_restore 14
 253:Drivers/lvgl/src/widgets/scale/lv_scale.c ****     lv_scale_t * scale = (lv_scale_t *)obj;
 6282              		.loc 1 253 5 is_stmt 1 view .LVU2016
 253:Drivers/lvgl/src/widgets/scale/lv_scale.c ****     lv_scale_t * scale = (lv_scale_t *)obj;
 6283              		.loc 1 253 5 view .LVU2017
 253:Drivers/lvgl/src/widgets/scale/lv_scale.c ****     lv_scale_t * scale = (lv_scale_t *)obj;
 6284              		.loc 1 253 5 view .LVU2018
 253:Drivers/lvgl/src/widgets/scale/lv_scale.c ****     lv_scale_t * scale = (lv_scale_t *)obj;
 6285              		.loc 1 253 5 view .LVU2019
 253:Drivers/lvgl/src/widgets/scale/lv_scale.c ****     lv_scale_t * scale = (lv_scale_t *)obj;
 6286              		.loc 1 253 5 view .LVU2020
 6287 0030 FEE7     		b	.L304
 6288              	.LVL687:
 6289              	.L308:
 6290              	.LCFI69:
 6291              		.cfi_def_cfa_offset 8
 6292              		.cfi_offset 3, -8
 6293              		.cfi_offset 14, -4
 261:Drivers/lvgl/src/widgets/scale/lv_scale.c ****         }
 6294              		.loc 1 261 13 view .LVU2021
 261:Drivers/lvgl/src/widgets/scale/lv_scale.c ****         }
 6295              		.loc 1 261 30 is_stmt 0 view .LVU2022
 6296 0032 0144     		add	r1, r1, r0
 6297              	.LVL688:
 261:Drivers/lvgl/src/widgets/scale/lv_scale.c ****         }
 6298              		.loc 1 261 30 view .LVU2023
 6299 0034 F7E7     		b	.L305
 6300              	.L310:
 6301 0036 00BF     		.align	2
 6302              	.L309:
 6303 0038 B7600BB6 		.word	-1240768329
 6304              		.cfi_endproc
 6305              	.LFE193:
 6307              		.section	.text.lv_scale_set_line_needle_value,"ax",%progbits
 6308              		.align	1
 6309              		.global	lv_scale_set_line_needle_value
ARM GAS  /var/folders/qx/2_175_4n2s19vhvtspjhb3qh0000gn/T//ccmbJJmj.s 			page 189


 6310              		.syntax unified
 6311              		.thumb
 6312              		.thumb_func
 6314              	lv_scale_set_line_needle_value:
 6315              	.LVL689:
 6316              	.LFB194:
 271:Drivers/lvgl/src/widgets/scale/lv_scale.c ****     int32_t angle;
 6317              		.loc 1 271 1 is_stmt 1 view -0
 6318              		.cfi_startproc
 6319              		@ args = 0, pretend = 0, frame = 24
 6320              		@ frame_needed = 0, uses_anonymous_args = 0
 271:Drivers/lvgl/src/widgets/scale/lv_scale.c ****     int32_t angle;
 6321              		.loc 1 271 1 is_stmt 0 view .LVU2025
 6322 0000 2DE9F04F 		push	{r4, r5, r6, r7, r8, r9, r10, fp, lr}
 6323              	.LCFI70:
 6324              		.cfi_def_cfa_offset 36
 6325              		.cfi_offset 4, -36
 6326              		.cfi_offset 5, -32
 6327              		.cfi_offset 6, -28
 6328              		.cfi_offset 7, -24
 6329              		.cfi_offset 8, -20
 6330              		.cfi_offset 9, -16
 6331              		.cfi_offset 10, -12
 6332              		.cfi_offset 11, -8
 6333              		.cfi_offset 14, -4
 6334 0004 87B0     		sub	sp, sp, #28
 6335              	.LCFI71:
 6336              		.cfi_def_cfa_offset 64
 6337 0006 0192     		str	r2, [sp, #4]
 272:Drivers/lvgl/src/widgets/scale/lv_scale.c ****     int32_t scale_width, scale_height;
 6338              		.loc 1 272 5 is_stmt 1 view .LVU2026
 273:Drivers/lvgl/src/widgets/scale/lv_scale.c ****     int32_t actual_needle_length;
 6339              		.loc 1 273 5 view .LVU2027
 274:Drivers/lvgl/src/widgets/scale/lv_scale.c ****     int32_t needle_length_x, needle_length_y;
 6340              		.loc 1 274 5 view .LVU2028
 275:Drivers/lvgl/src/widgets/scale/lv_scale.c ****     lv_point_precise_t * needle_line_points = NULL;
 6341              		.loc 1 275 5 view .LVU2029
 276:Drivers/lvgl/src/widgets/scale/lv_scale.c **** 
 6342              		.loc 1 276 5 view .LVU2030
 6343              	.LVL690:
 278:Drivers/lvgl/src/widgets/scale/lv_scale.c ****     lv_scale_t * scale = (lv_scale_t *)obj;
 6344              		.loc 1 278 5 view .LVU2031
 278:Drivers/lvgl/src/widgets/scale/lv_scale.c ****     lv_scale_t * scale = (lv_scale_t *)obj;
 6345              		.loc 1 278 5 view .LVU2032
 6346 0008 60B3     		cbz	r0, .L313
 6347 000a 0D46     		mov	r5, r1
 6348 000c 9846     		mov	r8, r3
 6349 000e 8146     		mov	r9, r0
 278:Drivers/lvgl/src/widgets/scale/lv_scale.c ****     lv_scale_t * scale = (lv_scale_t *)obj;
 6350              		.loc 1 278 5 view .LVU2033
 278:Drivers/lvgl/src/widgets/scale/lv_scale.c ****     lv_scale_t * scale = (lv_scale_t *)obj;
 6351              		.loc 1 278 33 view .LVU2034
 279:Drivers/lvgl/src/widgets/scale/lv_scale.c ****     if((scale->mode != LV_SCALE_MODE_ROUND_INNER) &&
 6352              		.loc 1 279 5 view .LVU2035
 6353              	.LVL691:
 280:Drivers/lvgl/src/widgets/scale/lv_scale.c ****        (scale->mode != LV_SCALE_MODE_ROUND_OUTER)) {
 6354              		.loc 1 280 5 view .LVU2036
ARM GAS  /var/folders/qx/2_175_4n2s19vhvtspjhb3qh0000gn/T//ccmbJJmj.s 			page 190


 280:Drivers/lvgl/src/widgets/scale/lv_scale.c ****        (scale->mode != LV_SCALE_MODE_ROUND_OUTER)) {
 6355              		.loc 1 280 14 is_stmt 0 view .LVU2037
 6356 0010 90F83C30 		ldrb	r3, [r0, #60]	@ zero_extendqisi2
 6357              	.LVL692:
 280:Drivers/lvgl/src/widgets/scale/lv_scale.c ****        (scale->mode != LV_SCALE_MODE_ROUND_OUTER)) {
 6358              		.loc 1 280 7 view .LVU2038
 6359 0014 082B     		cmp	r3, #8
 6360 0016 02D0     		beq	.L314
 280:Drivers/lvgl/src/widgets/scale/lv_scale.c ****        (scale->mode != LV_SCALE_MODE_ROUND_OUTER)) {
 6361              		.loc 1 280 51 discriminator 1 view .LVU2039
 6362 0018 102B     		cmp	r3, #16
 6363 001a 40F09E80 		bne	.L311
 6364              	.L314:
 285:Drivers/lvgl/src/widgets/scale/lv_scale.c **** 
 6365              		.loc 1 285 5 is_stmt 1 view .LVU2040
 6366 001e 0023     		movs	r3, #0
 6367 0020 1A46     		mov	r2, r3
 6368              	.LVL693:
 285:Drivers/lvgl/src/widgets/scale/lv_scale.c **** 
 6369              		.loc 1 285 5 is_stmt 0 view .LVU2041
 6370 0022 0121     		movs	r1, #1
 6371              	.LVL694:
 285:Drivers/lvgl/src/widgets/scale/lv_scale.c **** 
 6372              		.loc 1 285 5 view .LVU2042
 6373 0024 2846     		mov	r0, r5
 6374              	.LVL695:
 285:Drivers/lvgl/src/widgets/scale/lv_scale.c **** 
 6375              		.loc 1 285 5 view .LVU2043
 6376 0026 FFF7FEFF 		bl	lv_obj_align
 6377              	.LVL696:
 287:Drivers/lvgl/src/widgets/scale/lv_scale.c ****     scale_height = lv_obj_get_style_height(obj, LV_PART_MAIN);
 6378              		.loc 1 287 5 is_stmt 1 view .LVU2044
 6379              	.LBB319:
 6380              	.LBI319:
  22:Drivers/lvgl/src/widgets/scale/../../core/lv_obj_style_gen.h **** {
 6381              		.loc 2 22 23 view .LVU2045
 6382              	.LBB320:
  24:Drivers/lvgl/src/widgets/scale/../../core/lv_obj_style_gen.h ****     return (int32_t)v.num;
 6383              		.loc 2 24 5 view .LVU2046
  24:Drivers/lvgl/src/widgets/scale/../../core/lv_obj_style_gen.h ****     return (int32_t)v.num;
 6384              		.loc 2 24 26 is_stmt 0 view .LVU2047
 6385 002a 0122     		movs	r2, #1
 6386 002c 0021     		movs	r1, #0
 6387 002e 4846     		mov	r0, r9
 6388 0030 FFF7FEFF 		bl	lv_obj_get_style_prop
 6389              	.LVL697:
 6390 0034 0446     		mov	r4, r0
 6391 0036 0590     		str	r0, [sp, #20]
  25:Drivers/lvgl/src/widgets/scale/../../core/lv_obj_style_gen.h **** }
 6392              		.loc 2 25 5 is_stmt 1 view .LVU2048
 6393              	.LVL698:
  25:Drivers/lvgl/src/widgets/scale/../../core/lv_obj_style_gen.h **** }
 6394              		.loc 2 25 5 is_stmt 0 view .LVU2049
 6395              	.LBE320:
 6396              	.LBE319:
 288:Drivers/lvgl/src/widgets/scale/lv_scale.c **** 
 6397              		.loc 1 288 5 is_stmt 1 view .LVU2050
ARM GAS  /var/folders/qx/2_175_4n2s19vhvtspjhb3qh0000gn/T//ccmbJJmj.s 			page 191


 6398              	.LBB321:
 6399              	.LBI321:
  40:Drivers/lvgl/src/widgets/scale/../../core/lv_obj_style_gen.h **** {
 6400              		.loc 2 40 23 view .LVU2051
 6401              	.LBB322:
  42:Drivers/lvgl/src/widgets/scale/../../core/lv_obj_style_gen.h ****     return (int32_t)v.num;
 6402              		.loc 2 42 5 view .LVU2052
  42:Drivers/lvgl/src/widgets/scale/../../core/lv_obj_style_gen.h ****     return (int32_t)v.num;
 6403              		.loc 2 42 26 is_stmt 0 view .LVU2053
 6404 0038 0222     		movs	r2, #2
 6405 003a 0021     		movs	r1, #0
 6406 003c 4846     		mov	r0, r9
 6407              	.LVL699:
  42:Drivers/lvgl/src/widgets/scale/../../core/lv_obj_style_gen.h ****     return (int32_t)v.num;
 6408              		.loc 2 42 26 view .LVU2054
 6409 003e FFF7FEFF 		bl	lv_obj_get_style_prop
 6410              	.LVL700:
 6411 0042 0646     		mov	r6, r0
 6412 0044 0590     		str	r0, [sp, #20]
  43:Drivers/lvgl/src/widgets/scale/../../core/lv_obj_style_gen.h **** }
 6413              		.loc 2 43 5 is_stmt 1 view .LVU2055
 6414              	.LVL701:
  43:Drivers/lvgl/src/widgets/scale/../../core/lv_obj_style_gen.h **** }
 6415              		.loc 2 43 5 is_stmt 0 view .LVU2056
 6416              	.LBE322:
 6417              	.LBE321:
 290:Drivers/lvgl/src/widgets/scale/lv_scale.c ****         return;
 6418              		.loc 1 290 5 is_stmt 1 view .LVU2057
 290:Drivers/lvgl/src/widgets/scale/lv_scale.c ****         return;
 6419              		.loc 1 290 7 is_stmt 0 view .LVU2058
 6420 0046 A042     		cmp	r0, r4
 6421 0048 40F08780 		bne	.L311
 294:Drivers/lvgl/src/widgets/scale/lv_scale.c ****         actual_needle_length = scale_width / 2;
 6422              		.loc 1 294 5 is_stmt 1 view .LVU2059
 294:Drivers/lvgl/src/widgets/scale/lv_scale.c ****         actual_needle_length = scale_width / 2;
 6423              		.loc 1 294 37 is_stmt 0 view .LVU2060
 6424 004c 04EBD474 		add	r4, r4, r4, lsr #31
 6425              	.LVL702:
 294:Drivers/lvgl/src/widgets/scale/lv_scale.c ****         actual_needle_length = scale_width / 2;
 6426              		.loc 1 294 37 view .LVU2061
 6427 0050 6710     		asrs	r7, r4, #1
 294:Drivers/lvgl/src/widgets/scale/lv_scale.c ****         actual_needle_length = scale_width / 2;
 6428              		.loc 1 294 7 view .LVU2062
 6429 0052 019B     		ldr	r3, [sp, #4]
 6430 0054 B3EB640F 		cmp	r3, r4, asr #1
 6431 0058 0BDA     		bge	.L327
 297:Drivers/lvgl/src/widgets/scale/lv_scale.c ****         actual_needle_length = needle_length;
 6432              		.loc 1 297 10 is_stmt 1 view .LVU2063
 297:Drivers/lvgl/src/widgets/scale/lv_scale.c ****         actual_needle_length = needle_length;
 6433              		.loc 1 297 12 is_stmt 0 view .LVU2064
 6434 005a 002B     		cmp	r3, #0
 6435 005c 03DB     		blt	.L333
 298:Drivers/lvgl/src/widgets/scale/lv_scale.c ****     }
 6436              		.loc 1 298 30 view .LVU2065
 6437 005e DDF804A0 		ldr	r10, [sp, #4]
 6438 0062 07E0     		b	.L316
 6439              	.LVL703:
ARM GAS  /var/folders/qx/2_175_4n2s19vhvtspjhb3qh0000gn/T//ccmbJJmj.s 			page 192


 6440              	.L313:
 278:Drivers/lvgl/src/widgets/scale/lv_scale.c ****     lv_scale_t * scale = (lv_scale_t *)obj;
 6441              		.loc 1 278 5 is_stmt 1 view .LVU2066
 278:Drivers/lvgl/src/widgets/scale/lv_scale.c ****     lv_scale_t * scale = (lv_scale_t *)obj;
 6442              		.loc 1 278 5 view .LVU2067
 278:Drivers/lvgl/src/widgets/scale/lv_scale.c ****     lv_scale_t * scale = (lv_scale_t *)obj;
 6443              		.loc 1 278 5 view .LVU2068
 278:Drivers/lvgl/src/widgets/scale/lv_scale.c ****     lv_scale_t * scale = (lv_scale_t *)obj;
 6444              		.loc 1 278 5 view .LVU2069
 278:Drivers/lvgl/src/widgets/scale/lv_scale.c ****     lv_scale_t * scale = (lv_scale_t *)obj;
 6445              		.loc 1 278 5 view .LVU2070
 6446 0064 FEE7     		b	.L313
 6447              	.LVL704:
 6448              	.L333:
 300:Drivers/lvgl/src/widgets/scale/lv_scale.c ****         actual_needle_length = 0;
 6449              		.loc 1 300 10 view .LVU2071
 300:Drivers/lvgl/src/widgets/scale/lv_scale.c ****         actual_needle_length = 0;
 6450              		.loc 1 300 12 is_stmt 0 view .LVU2072
 6451 0066 17EB030A 		adds	r10, r7, r3
 6452 006a 03D5     		bpl	.L316
 301:Drivers/lvgl/src/widgets/scale/lv_scale.c ****     }
 6453              		.loc 1 301 30 view .LVU2073
 6454 006c 4FF0000A 		mov	r10, #0
 6455 0070 00E0     		b	.L316
 6456              	.L327:
 295:Drivers/lvgl/src/widgets/scale/lv_scale.c ****     }
 6457              		.loc 1 295 30 view .LVU2074
 6458 0072 BA46     		mov	r10, r7
 6459              	.L316:
 6460              	.LVL705:
 307:Drivers/lvgl/src/widgets/scale/lv_scale.c ****         angle = 0;
 6461              		.loc 1 307 5 is_stmt 1 view .LVU2075
 307:Drivers/lvgl/src/widgets/scale/lv_scale.c ****         angle = 0;
 6462              		.loc 1 307 21 is_stmt 0 view .LVU2076
 6463 0074 D9F84020 		ldr	r2, [r9, #64]
 307:Drivers/lvgl/src/widgets/scale/lv_scale.c ****         angle = 0;
 6464              		.loc 1 307 7 view .LVU2077
 6465 0078 4245     		cmp	r2, r8
 6466 007a 10DC     		bgt	.L329
 310:Drivers/lvgl/src/widgets/scale/lv_scale.c ****         angle = scale->angle_range;
 6467              		.loc 1 310 10 is_stmt 1 view .LVU2078
 310:Drivers/lvgl/src/widgets/scale/lv_scale.c ****         angle = scale->angle_range;
 6468              		.loc 1 310 26 is_stmt 0 view .LVU2079
 6469 007c D9F84410 		ldr	r1, [r9, #68]
 310:Drivers/lvgl/src/widgets/scale/lv_scale.c ****         angle = scale->angle_range;
 6470              		.loc 1 310 12 view .LVU2080
 6471 0080 4145     		cmp	r1, r8
 6472 0082 02DA     		bge	.L318
 311:Drivers/lvgl/src/widgets/scale/lv_scale.c ****     }
 6473              		.loc 1 311 9 is_stmt 1 view .LVU2081
 311:Drivers/lvgl/src/widgets/scale/lv_scale.c ****     }
 6474              		.loc 1 311 22 is_stmt 0 view .LVU2082
 6475 0084 D9F85040 		ldr	r4, [r9, #80]
 6476              	.LVL706:
 311:Drivers/lvgl/src/widgets/scale/lv_scale.c ****     }
 6477              		.loc 1 311 22 view .LVU2083
 6478 0088 0AE0     		b	.L317
ARM GAS  /var/folders/qx/2_175_4n2s19vhvtspjhb3qh0000gn/T//ccmbJJmj.s 			page 193


 6479              	.LVL707:
 6480              	.L318:
 314:Drivers/lvgl/src/widgets/scale/lv_scale.c ****     }
 6481              		.loc 1 314 9 is_stmt 1 view .LVU2084
 314:Drivers/lvgl/src/widgets/scale/lv_scale.c ****     }
 6482              		.loc 1 314 22 is_stmt 0 view .LVU2085
 6483 008a D9F85030 		ldr	r3, [r9, #80]
 314:Drivers/lvgl/src/widgets/scale/lv_scale.c ****     }
 6484              		.loc 1 314 45 view .LVU2086
 6485 008e A8EB0200 		sub	r0, r8, r2
 6486              	.LVL708:
 314:Drivers/lvgl/src/widgets/scale/lv_scale.c ****     }
 6487              		.loc 1 314 36 view .LVU2087
 6488 0092 00FB03F4 		mul	r4, r0, r3
 314:Drivers/lvgl/src/widgets/scale/lv_scale.c ****     }
 6489              		.loc 1 314 85 view .LVU2088
 6490 0096 891A     		subs	r1, r1, r2
 314:Drivers/lvgl/src/widgets/scale/lv_scale.c ****     }
 6491              		.loc 1 314 65 view .LVU2089
 6492 0098 B4FBF1F4 		udiv	r4, r4, r1
 6493              	.LVL709:
 314:Drivers/lvgl/src/widgets/scale/lv_scale.c ****     }
 6494              		.loc 1 314 65 view .LVU2090
 6495 009c 00E0     		b	.L317
 6496              	.LVL710:
 6497              	.L329:
 308:Drivers/lvgl/src/widgets/scale/lv_scale.c ****     }
 6498              		.loc 1 308 15 view .LVU2091
 6499 009e 0024     		movs	r4, #0
 6500              	.LVL711:
 6501              	.L317:
 317:Drivers/lvgl/src/widgets/scale/lv_scale.c ****     needle_length_y = (actual_needle_length * lv_trigo_sin(scale->rotation + angle)) >> LV_TRIGO_SH
 6502              		.loc 1 317 5 is_stmt 1 view .LVU2092
 317:Drivers/lvgl/src/widgets/scale/lv_scale.c ****     needle_length_y = (actual_needle_length * lv_trigo_sin(scale->rotation + angle)) >> LV_TRIGO_SH
 6503              		.loc 1 317 65 is_stmt 0 view .LVU2093
 6504 00a0 D9F85430 		ldr	r3, [r9, #84]
 317:Drivers/lvgl/src/widgets/scale/lv_scale.c ****     needle_length_y = (actual_needle_length * lv_trigo_sin(scale->rotation + angle)) >> LV_TRIGO_SH
 6505              		.loc 1 317 76 view .LVU2094
 6506 00a4 A4B2     		uxth	r4, r4
 6507              	.LVL712:
 317:Drivers/lvgl/src/widgets/scale/lv_scale.c ****     needle_length_y = (actual_needle_length * lv_trigo_sin(scale->rotation + angle)) >> LV_TRIGO_SH
 6508              		.loc 1 317 76 view .LVU2095
 6509 00a6 2344     		add	r3, r3, r4
 317:Drivers/lvgl/src/widgets/scale/lv_scale.c ****     needle_length_y = (actual_needle_length * lv_trigo_sin(scale->rotation + angle)) >> LV_TRIGO_SH
 6510              		.loc 1 317 47 view .LVU2096
 6511 00a8 18B2     		sxth	r0, r3
 6512 00aa FFF7FEFF 		bl	lv_trigo_cos
 6513              	.LVL713:
 317:Drivers/lvgl/src/widgets/scale/lv_scale.c ****     needle_length_y = (actual_needle_length * lv_trigo_sin(scale->rotation + angle)) >> LV_TRIGO_SH
 6514              		.loc 1 317 45 discriminator 1 view .LVU2097
 6515 00ae 0AFB00F3 		mul	r3, r10, r0
 317:Drivers/lvgl/src/widgets/scale/lv_scale.c ****     needle_length_y = (actual_needle_length * lv_trigo_sin(scale->rotation + angle)) >> LV_TRIGO_SH
 6516              		.loc 1 317 21 discriminator 1 view .LVU2098
 6517 00b2 DB13     		asrs	r3, r3, #15
 6518 00b4 0293     		str	r3, [sp, #8]
 6519              	.LVL714:
 318:Drivers/lvgl/src/widgets/scale/lv_scale.c **** 
ARM GAS  /var/folders/qx/2_175_4n2s19vhvtspjhb3qh0000gn/T//ccmbJJmj.s 			page 194


 6520              		.loc 1 318 5 is_stmt 1 view .LVU2099
 318:Drivers/lvgl/src/widgets/scale/lv_scale.c **** 
 6521              		.loc 1 318 65 is_stmt 0 view .LVU2100
 6522 00b6 D9F85430 		ldr	r3, [r9, #84]
 6523              	.LVL715:
 318:Drivers/lvgl/src/widgets/scale/lv_scale.c **** 
 6524              		.loc 1 318 76 view .LVU2101
 6525 00ba E018     		adds	r0, r4, r3
 318:Drivers/lvgl/src/widgets/scale/lv_scale.c **** 
 6526              		.loc 1 318 47 view .LVU2102
 6527 00bc 00B2     		sxth	r0, r0
 6528 00be FFF7FEFF 		bl	lv_trigo_sin
 6529              	.LVL716:
 318:Drivers/lvgl/src/widgets/scale/lv_scale.c **** 
 6530              		.loc 1 318 45 discriminator 1 view .LVU2103
 6531 00c2 0AFB00F3 		mul	r3, r10, r0
 318:Drivers/lvgl/src/widgets/scale/lv_scale.c **** 
 6532              		.loc 1 318 21 discriminator 1 view .LVU2104
 6533 00c6 DB13     		asrs	r3, r3, #15
 6534 00c8 0393     		str	r3, [sp, #12]
 6535              	.LVL717:
 320:Drivers/lvgl/src/widgets/scale/lv_scale.c ****         needle_line_points = lv_line_get_points_mutable(needle_line);
 6536              		.loc 1 320 5 is_stmt 1 view .LVU2105
 320:Drivers/lvgl/src/widgets/scale/lv_scale.c ****         needle_line_points = lv_line_get_points_mutable(needle_line);
 6537              		.loc 1 320 8 is_stmt 0 view .LVU2106
 6538 00ca 2846     		mov	r0, r5
 6539 00cc FFF7FEFF 		bl	lv_line_is_point_array_mutable
 6540              	.LVL718:
 320:Drivers/lvgl/src/widgets/scale/lv_scale.c ****         needle_line_points = lv_line_get_points_mutable(needle_line);
 6541              		.loc 1 320 7 discriminator 1 view .LVU2107
 6542 00d0 68B1     		cbz	r0, .L330
 320:Drivers/lvgl/src/widgets/scale/lv_scale.c ****         needle_line_points = lv_line_get_points_mutable(needle_line);
 6543              		.loc 1 320 55 discriminator 1 view .LVU2108
 6544 00d2 2846     		mov	r0, r5
 6545 00d4 FFF7FEFF 		bl	lv_line_get_point_count
 6546              	.LVL719:
 320:Drivers/lvgl/src/widgets/scale/lv_scale.c ****         needle_line_points = lv_line_get_points_mutable(needle_line);
 6547              		.loc 1 320 52 discriminator 1 view .LVU2109
 6548 00d8 0128     		cmp	r0, #1
 6549 00da 02D8     		bhi	.L334
 276:Drivers/lvgl/src/widgets/scale/lv_scale.c **** 
 6550              		.loc 1 276 26 view .LVU2110
 6551 00dc 4FF0000B 		mov	fp, #0
 6552 00e0 07E0     		b	.L319
 6553              	.L334:
 321:Drivers/lvgl/src/widgets/scale/lv_scale.c ****     }
 6554              		.loc 1 321 9 is_stmt 1 view .LVU2111
 321:Drivers/lvgl/src/widgets/scale/lv_scale.c ****     }
 6555              		.loc 1 321 30 is_stmt 0 view .LVU2112
 6556 00e2 2846     		mov	r0, r5
 6557 00e4 FFF7FEFF 		bl	lv_line_get_points_mutable
 6558              	.LVL720:
 324:Drivers/lvgl/src/widgets/scale/lv_scale.c ****         uint32_t i;
 6559              		.loc 1 324 5 is_stmt 1 view .LVU2113
 324:Drivers/lvgl/src/widgets/scale/lv_scale.c ****         uint32_t i;
 6560              		.loc 1 324 7 is_stmt 0 view .LVU2114
 6561 00e8 8346     		mov	fp, r0
ARM GAS  /var/folders/qx/2_175_4n2s19vhvtspjhb3qh0000gn/T//ccmbJJmj.s 			page 195


 6562 00ea E0B9     		cbnz	r0, .L320
 6563 00ec 01E0     		b	.L319
 6564              	.LVL721:
 6565              	.L330:
 276:Drivers/lvgl/src/widgets/scale/lv_scale.c **** 
 6566              		.loc 1 276 26 view .LVU2115
 6567 00ee 4FF0000B 		mov	fp, #0
 6568              	.LVL722:
 6569              	.L319:
 6570              	.LBB323:
 325:Drivers/lvgl/src/widgets/scale/lv_scale.c ****         uint32_t line_event_cnt = lv_obj_get_event_count(needle_line);
 6571              		.loc 1 325 9 is_stmt 1 view .LVU2116
 326:Drivers/lvgl/src/widgets/scale/lv_scale.c ****         for(i = 0; i < line_event_cnt; i++) {
 6572              		.loc 1 326 9 view .LVU2117
 326:Drivers/lvgl/src/widgets/scale/lv_scale.c ****         for(i = 0; i < line_event_cnt; i++) {
 6573              		.loc 1 326 35 is_stmt 0 view .LVU2118
 6574 00f2 2846     		mov	r0, r5
 6575 00f4 FFF7FEFF 		bl	lv_obj_get_event_count
 6576              	.LVL723:
 6577 00f8 8246     		mov	r10, r0
 6578              	.LVL724:
 327:Drivers/lvgl/src/widgets/scale/lv_scale.c ****             lv_event_dsc_t * dsc = lv_obj_get_event_dsc(needle_line, i);
 6579              		.loc 1 327 9 is_stmt 1 view .LVU2119
 327:Drivers/lvgl/src/widgets/scale/lv_scale.c ****             lv_event_dsc_t * dsc = lv_obj_get_event_dsc(needle_line, i);
 6580              		.loc 1 327 15 is_stmt 0 view .LVU2120
 6581 00fa 0024     		movs	r4, #0
 6582              	.LVL725:
 6583              	.L321:
 327:Drivers/lvgl/src/widgets/scale/lv_scale.c ****             lv_event_dsc_t * dsc = lv_obj_get_event_dsc(needle_line, i);
 6584              		.loc 1 327 22 is_stmt 1 discriminator 1 view .LVU2121
 6585 00fc 5445     		cmp	r4, r10
 6586 00fe 0FD2     		bcs	.L323
 6587              	.LBB324:
 328:Drivers/lvgl/src/widgets/scale/lv_scale.c ****             if(lv_event_dsc_get_cb(dsc) == scale_free_line_needle_points_cb) {
 6588              		.loc 1 328 13 view .LVU2122
 328:Drivers/lvgl/src/widgets/scale/lv_scale.c ****             if(lv_event_dsc_get_cb(dsc) == scale_free_line_needle_points_cb) {
 6589              		.loc 1 328 36 is_stmt 0 view .LVU2123
 6590 0100 2146     		mov	r1, r4
 6591 0102 2846     		mov	r0, r5
 6592 0104 FFF7FEFF 		bl	lv_obj_get_event_dsc
 6593              	.LVL726:
 6594 0108 0090     		str	r0, [sp]
 6595              	.LVL727:
 329:Drivers/lvgl/src/widgets/scale/lv_scale.c ****                 needle_line_points = lv_event_dsc_get_user_data(dsc);
 6596              		.loc 1 329 13 is_stmt 1 view .LVU2124
 329:Drivers/lvgl/src/widgets/scale/lv_scale.c ****                 needle_line_points = lv_event_dsc_get_user_data(dsc);
 6597              		.loc 1 329 16 is_stmt 0 view .LVU2125
 6598 010a FFF7FEFF 		bl	lv_event_dsc_get_cb
 6599              	.LVL728:
 329:Drivers/lvgl/src/widgets/scale/lv_scale.c ****                 needle_line_points = lv_event_dsc_get_user_data(dsc);
 6600              		.loc 1 329 15 discriminator 1 view .LVU2126
 6601 010e 1B4B     		ldr	r3, .L337
 6602 0110 8342     		cmp	r3, r0
 6603 0112 01D0     		beq	.L335
 6604              	.LBE324:
 327:Drivers/lvgl/src/widgets/scale/lv_scale.c ****             lv_event_dsc_t * dsc = lv_obj_get_event_dsc(needle_line, i);
 6605              		.loc 1 327 41 is_stmt 1 discriminator 2 view .LVU2127
ARM GAS  /var/folders/qx/2_175_4n2s19vhvtspjhb3qh0000gn/T//ccmbJJmj.s 			page 196


 6606 0114 0134     		adds	r4, r4, #1
 6607              	.LVL729:
 327:Drivers/lvgl/src/widgets/scale/lv_scale.c ****             lv_event_dsc_t * dsc = lv_obj_get_event_dsc(needle_line, i);
 6608              		.loc 1 327 41 is_stmt 0 discriminator 2 view .LVU2128
 6609 0116 F1E7     		b	.L321
 6610              	.LVL730:
 6611              	.L335:
 6612              	.LBB325:
 330:Drivers/lvgl/src/widgets/scale/lv_scale.c ****                 break;
 6613              		.loc 1 330 17 is_stmt 1 view .LVU2129
 330:Drivers/lvgl/src/widgets/scale/lv_scale.c ****                 break;
 6614              		.loc 1 330 38 is_stmt 0 view .LVU2130
 6615 0118 0098     		ldr	r0, [sp]
 6616 011a FFF7FEFF 		bl	lv_event_dsc_get_user_data
 6617              	.LVL731:
 6618 011e 8346     		mov	fp, r0
 6619              	.LVL732:
 331:Drivers/lvgl/src/widgets/scale/lv_scale.c ****             }
 6620              		.loc 1 331 17 is_stmt 1 view .LVU2131
 6621              	.L323:
 331:Drivers/lvgl/src/widgets/scale/lv_scale.c ****             }
 6622              		.loc 1 331 17 is_stmt 0 view .LVU2132
 6623              	.LBE325:
 6624              	.LBE323:
 336:Drivers/lvgl/src/widgets/scale/lv_scale.c ****         needle_line_points = lv_malloc(sizeof(lv_point_precise_t) * 2);
 6625              		.loc 1 336 5 is_stmt 1 view .LVU2133
 336:Drivers/lvgl/src/widgets/scale/lv_scale.c ****         needle_line_points = lv_malloc(sizeof(lv_point_precise_t) * 2);
 6626              		.loc 1 336 7 is_stmt 0 view .LVU2134
 6627 0120 BBF1000F 		cmp	fp, #0
 6628 0124 1CD0     		beq	.L336
 6629              	.LVL733:
 6630              	.L320:
 343:Drivers/lvgl/src/widgets/scale/lv_scale.c ****     needle_line_points[0].y = scale_height / 2;
 6631              		.loc 1 343 5 is_stmt 1 view .LVU2135
 343:Drivers/lvgl/src/widgets/scale/lv_scale.c ****     needle_line_points[0].y = scale_height / 2;
 6632              		.loc 1 343 29 is_stmt 0 view .LVU2136
 6633 0126 CBF80070 		str	r7, [fp]
 344:Drivers/lvgl/src/widgets/scale/lv_scale.c ****     needle_line_points[1].x = scale_width / 2 + needle_length_x;
 6634              		.loc 1 344 5 is_stmt 1 view .LVU2137
 344:Drivers/lvgl/src/widgets/scale/lv_scale.c ****     needle_line_points[1].x = scale_width / 2 + needle_length_x;
 6635              		.loc 1 344 44 is_stmt 0 view .LVU2138
 6636 012a 06EBD676 		add	r6, r6, r6, lsr #31
 6637              	.LVL734:
 344:Drivers/lvgl/src/widgets/scale/lv_scale.c ****     needle_line_points[1].x = scale_width / 2 + needle_length_x;
 6638              		.loc 1 344 44 view .LVU2139
 6639 012e 7310     		asrs	r3, r6, #1
 344:Drivers/lvgl/src/widgets/scale/lv_scale.c ****     needle_line_points[1].x = scale_width / 2 + needle_length_x;
 6640              		.loc 1 344 29 view .LVU2140
 6641 0130 CBF80430 		str	r3, [fp, #4]
 345:Drivers/lvgl/src/widgets/scale/lv_scale.c ****     needle_line_points[1].y = scale_height / 2 + needle_length_y;
 6642              		.loc 1 345 5 is_stmt 1 view .LVU2141
 345:Drivers/lvgl/src/widgets/scale/lv_scale.c ****     needle_line_points[1].y = scale_height / 2 + needle_length_y;
 6643              		.loc 1 345 47 is_stmt 0 view .LVU2142
 6644 0134 029A     		ldr	r2, [sp, #8]
 6645 0136 3A44     		add	r2, r2, r7
 345:Drivers/lvgl/src/widgets/scale/lv_scale.c ****     needle_line_points[1].y = scale_height / 2 + needle_length_y;
 6646              		.loc 1 345 29 view .LVU2143
ARM GAS  /var/folders/qx/2_175_4n2s19vhvtspjhb3qh0000gn/T//ccmbJJmj.s 			page 197


 6647 0138 CBF80820 		str	r2, [fp, #8]
 346:Drivers/lvgl/src/widgets/scale/lv_scale.c **** 
 6648              		.loc 1 346 5 is_stmt 1 view .LVU2144
 346:Drivers/lvgl/src/widgets/scale/lv_scale.c **** 
 6649              		.loc 1 346 48 is_stmt 0 view .LVU2145
 6650 013c 039A     		ldr	r2, [sp, #12]
 6651 013e 1344     		add	r3, r3, r2
 346:Drivers/lvgl/src/widgets/scale/lv_scale.c **** 
 6652              		.loc 1 346 29 view .LVU2146
 6653 0140 CBF80C30 		str	r3, [fp, #12]
 348:Drivers/lvgl/src/widgets/scale/lv_scale.c **** 
 6654              		.loc 1 348 5 is_stmt 1 view .LVU2147
 6655 0144 0222     		movs	r2, #2
 6656 0146 5946     		mov	r1, fp
 6657 0148 2846     		mov	r0, r5
 6658 014a FFF7FEFF 		bl	lv_line_set_points_mutable
 6659              	.LVL735:
 350:Drivers/lvgl/src/widgets/scale/lv_scale.c **** }
 6660              		.loc 1 350 5 view .LVU2148
 6661 014e 4346     		mov	r3, r8
 6662 0150 019A     		ldr	r2, [sp, #4]
 6663 0152 2946     		mov	r1, r5
 6664 0154 4846     		mov	r0, r9
 6665 0156 FFF7FEFF 		bl	update_needle
 6666              	.LVL736:
 6667              	.L311:
 351:Drivers/lvgl/src/widgets/scale/lv_scale.c **** 
 6668              		.loc 1 351 1 is_stmt 0 view .LVU2149
 6669 015a 07B0     		add	sp, sp, #28
 6670              	.LCFI72:
 6671              		.cfi_remember_state
 6672              		.cfi_def_cfa_offset 36
 6673              		@ sp needed
 6674 015c BDE8F08F 		pop	{r4, r5, r6, r7, r8, r9, r10, fp, pc}
 6675              	.LVL737:
 6676              	.L336:
 6677              	.LCFI73:
 6678              		.cfi_restore_state
 337:Drivers/lvgl/src/widgets/scale/lv_scale.c ****         LV_ASSERT_MALLOC(needle_line_points);
 6679              		.loc 1 337 9 is_stmt 1 view .LVU2150
 337:Drivers/lvgl/src/widgets/scale/lv_scale.c ****         LV_ASSERT_MALLOC(needle_line_points);
 6680              		.loc 1 337 30 is_stmt 0 view .LVU2151
 6681 0160 1020     		movs	r0, #16
 6682 0162 FFF7FEFF 		bl	lv_malloc
 6683              	.LVL738:
 338:Drivers/lvgl/src/widgets/scale/lv_scale.c ****         if(needle_line_points == NULL) return;
 6684              		.loc 1 338 9 is_stmt 1 view .LVU2152
 338:Drivers/lvgl/src/widgets/scale/lv_scale.c ****         if(needle_line_points == NULL) return;
 6685              		.loc 1 338 9 view .LVU2153
 6686 0166 8346     		mov	fp, r0
 6687 0168 30B1     		cbz	r0, .L326
 338:Drivers/lvgl/src/widgets/scale/lv_scale.c ****         if(needle_line_points == NULL) return;
 6688              		.loc 1 338 9 view .LVU2154
 338:Drivers/lvgl/src/widgets/scale/lv_scale.c ****         if(needle_line_points == NULL) return;
 6689              		.loc 1 338 45 view .LVU2155
 339:Drivers/lvgl/src/widgets/scale/lv_scale.c ****         lv_obj_add_event_cb(needle_line, scale_free_line_needle_points_cb, LV_EVENT_DELETE, needle_
 6690              		.loc 1 339 9 view .LVU2156
ARM GAS  /var/folders/qx/2_175_4n2s19vhvtspjhb3qh0000gn/T//ccmbJJmj.s 			page 198


 340:Drivers/lvgl/src/widgets/scale/lv_scale.c ****     }
 6691              		.loc 1 340 9 view .LVU2157
 6692 016a 0346     		mov	r3, r0
 6693 016c 2A22     		movs	r2, #42
 6694 016e 0349     		ldr	r1, .L337
 6695 0170 2846     		mov	r0, r5
 6696              	.LVL739:
 340:Drivers/lvgl/src/widgets/scale/lv_scale.c ****     }
 6697              		.loc 1 340 9 is_stmt 0 view .LVU2158
 6698 0172 FFF7FEFF 		bl	lv_obj_add_event_cb
 6699              	.LVL740:
 340:Drivers/lvgl/src/widgets/scale/lv_scale.c ****     }
 6700              		.loc 1 340 9 view .LVU2159
 6701 0176 D6E7     		b	.L320
 6702              	.LVL741:
 6703              	.L326:
 338:Drivers/lvgl/src/widgets/scale/lv_scale.c ****         if(needle_line_points == NULL) return;
 6704              		.loc 1 338 9 is_stmt 1 view .LVU2160
 338:Drivers/lvgl/src/widgets/scale/lv_scale.c ****         if(needle_line_points == NULL) return;
 6705              		.loc 1 338 9 view .LVU2161
 338:Drivers/lvgl/src/widgets/scale/lv_scale.c ****         if(needle_line_points == NULL) return;
 6706              		.loc 1 338 9 view .LVU2162
 338:Drivers/lvgl/src/widgets/scale/lv_scale.c ****         if(needle_line_points == NULL) return;
 6707              		.loc 1 338 9 view .LVU2163
 338:Drivers/lvgl/src/widgets/scale/lv_scale.c ****         if(needle_line_points == NULL) return;
 6708              		.loc 1 338 9 view .LVU2164
 6709 0178 FEE7     		b	.L326
 6710              	.L338:
 6711 017a 00BF     		.align	2
 6712              	.L337:
 6713 017c 00000000 		.word	scale_free_line_needle_points_cb
 6714              		.cfi_endproc
 6715              	.LFE194:
 6717              		.section	.text.lv_scale_set_image_needle_value,"ax",%progbits
 6718              		.align	1
 6719              		.global	lv_scale_set_image_needle_value
 6720              		.syntax unified
 6721              		.thumb
 6722              		.thumb_func
 6724              	lv_scale_set_image_needle_value:
 6725              	.LVL742:
 6726              	.LFB195:
 354:Drivers/lvgl/src/widgets/scale/lv_scale.c ****     int32_t angle;
 6727              		.loc 1 354 1 view -0
 6728              		.cfi_startproc
 6729              		@ args = 0, pretend = 0, frame = 0
 6730              		@ frame_needed = 0, uses_anonymous_args = 0
 355:Drivers/lvgl/src/widgets/scale/lv_scale.c ****     LV_ASSERT_OBJ(obj, MY_CLASS);
 6731              		.loc 1 355 5 view .LVU2166
 356:Drivers/lvgl/src/widgets/scale/lv_scale.c ****     lv_scale_t * scale = (lv_scale_t *)obj;
 6732              		.loc 1 356 5 view .LVU2167
 356:Drivers/lvgl/src/widgets/scale/lv_scale.c ****     lv_scale_t * scale = (lv_scale_t *)obj;
 6733              		.loc 1 356 5 view .LVU2168
 6734 0000 88B1     		cbz	r0, .L341
 354:Drivers/lvgl/src/widgets/scale/lv_scale.c ****     int32_t angle;
 6735              		.loc 1 354 1 is_stmt 0 view .LVU2169
 6736 0002 70B5     		push	{r4, r5, r6, lr}
ARM GAS  /var/folders/qx/2_175_4n2s19vhvtspjhb3qh0000gn/T//ccmbJJmj.s 			page 199


 6737              	.LCFI74:
 6738              		.cfi_def_cfa_offset 16
 6739              		.cfi_offset 4, -16
 6740              		.cfi_offset 5, -12
 6741              		.cfi_offset 6, -8
 6742              		.cfi_offset 14, -4
 6743 0004 0E46     		mov	r6, r1
 6744 0006 1446     		mov	r4, r2
 6745 0008 0546     		mov	r5, r0
 356:Drivers/lvgl/src/widgets/scale/lv_scale.c ****     lv_scale_t * scale = (lv_scale_t *)obj;
 6746              		.loc 1 356 5 is_stmt 1 view .LVU2170
 356:Drivers/lvgl/src/widgets/scale/lv_scale.c ****     lv_scale_t * scale = (lv_scale_t *)obj;
 6747              		.loc 1 356 33 view .LVU2171
 357:Drivers/lvgl/src/widgets/scale/lv_scale.c ****     if((scale->mode != LV_SCALE_MODE_ROUND_INNER) &&
 6748              		.loc 1 357 5 view .LVU2172
 6749              	.LVL743:
 358:Drivers/lvgl/src/widgets/scale/lv_scale.c ****        (scale->mode != LV_SCALE_MODE_ROUND_OUTER)) {
 6750              		.loc 1 358 5 view .LVU2173
 358:Drivers/lvgl/src/widgets/scale/lv_scale.c ****        (scale->mode != LV_SCALE_MODE_ROUND_OUTER)) {
 6751              		.loc 1 358 14 is_stmt 0 view .LVU2174
 6752 000a 90F83C30 		ldrb	r3, [r0, #60]	@ zero_extendqisi2
 358:Drivers/lvgl/src/widgets/scale/lv_scale.c ****        (scale->mode != LV_SCALE_MODE_ROUND_OUTER)) {
 6753              		.loc 1 358 7 view .LVU2175
 6754 000e 082B     		cmp	r3, #8
 6755 0010 01D0     		beq	.L342
 358:Drivers/lvgl/src/widgets/scale/lv_scale.c ****        (scale->mode != LV_SCALE_MODE_ROUND_OUTER)) {
 6756              		.loc 1 358 51 discriminator 1 view .LVU2176
 6757 0012 102B     		cmp	r3, #16
 6758 0014 1FD1     		bne	.L339
 6759              	.L342:
 363:Drivers/lvgl/src/widgets/scale/lv_scale.c ****         angle = 0;
 6760              		.loc 1 363 5 is_stmt 1 view .LVU2177
 363:Drivers/lvgl/src/widgets/scale/lv_scale.c ****         angle = 0;
 6761              		.loc 1 363 21 is_stmt 0 view .LVU2178
 6762 0016 2A6C     		ldr	r2, [r5, #64]
 6763              	.LVL744:
 363:Drivers/lvgl/src/widgets/scale/lv_scale.c ****         angle = 0;
 6764              		.loc 1 363 7 view .LVU2179
 6765 0018 A242     		cmp	r2, r4
 6766 001a 0DDC     		bgt	.L346
 366:Drivers/lvgl/src/widgets/scale/lv_scale.c ****         angle = scale->angle_range;
 6767              		.loc 1 366 10 is_stmt 1 view .LVU2180
 366:Drivers/lvgl/src/widgets/scale/lv_scale.c ****         angle = scale->angle_range;
 6768              		.loc 1 366 26 is_stmt 0 view .LVU2181
 6769 001c 696C     		ldr	r1, [r5, #68]
 6770              	.LVL745:
 366:Drivers/lvgl/src/widgets/scale/lv_scale.c ****         angle = scale->angle_range;
 6771              		.loc 1 366 12 view .LVU2182
 6772 001e A142     		cmp	r1, r4
 6773 0020 02DA     		bge	.L345
 367:Drivers/lvgl/src/widgets/scale/lv_scale.c ****     }
 6774              		.loc 1 367 9 is_stmt 1 view .LVU2183
 367:Drivers/lvgl/src/widgets/scale/lv_scale.c ****     }
 6775              		.loc 1 367 22 is_stmt 0 view .LVU2184
 6776 0022 2B6D     		ldr	r3, [r5, #80]
 6777              	.LVL746:
 367:Drivers/lvgl/src/widgets/scale/lv_scale.c ****     }
ARM GAS  /var/folders/qx/2_175_4n2s19vhvtspjhb3qh0000gn/T//ccmbJJmj.s 			page 200


 6778              		.loc 1 367 22 view .LVU2185
 6779 0024 09E0     		b	.L344
 6780              	.LVL747:
 6781              	.L341:
 6782              	.LCFI75:
 6783              		.cfi_def_cfa_offset 0
 6784              		.cfi_restore 4
 6785              		.cfi_restore 5
 6786              		.cfi_restore 6
 6787              		.cfi_restore 14
 356:Drivers/lvgl/src/widgets/scale/lv_scale.c ****     lv_scale_t * scale = (lv_scale_t *)obj;
 6788              		.loc 1 356 5 is_stmt 1 view .LVU2186
 356:Drivers/lvgl/src/widgets/scale/lv_scale.c ****     lv_scale_t * scale = (lv_scale_t *)obj;
 6789              		.loc 1 356 5 view .LVU2187
 356:Drivers/lvgl/src/widgets/scale/lv_scale.c ****     lv_scale_t * scale = (lv_scale_t *)obj;
 6790              		.loc 1 356 5 view .LVU2188
 356:Drivers/lvgl/src/widgets/scale/lv_scale.c ****     lv_scale_t * scale = (lv_scale_t *)obj;
 6791              		.loc 1 356 5 view .LVU2189
 356:Drivers/lvgl/src/widgets/scale/lv_scale.c ****     lv_scale_t * scale = (lv_scale_t *)obj;
 6792              		.loc 1 356 5 view .LVU2190
 6793 0026 FEE7     		b	.L341
 6794              	.LVL748:
 6795              	.L345:
 6796              	.LCFI76:
 6797              		.cfi_def_cfa_offset 16
 6798              		.cfi_offset 4, -16
 6799              		.cfi_offset 5, -12
 6800              		.cfi_offset 6, -8
 6801              		.cfi_offset 14, -4
 370:Drivers/lvgl/src/widgets/scale/lv_scale.c ****     }
 6802              		.loc 1 370 9 view .LVU2191
 370:Drivers/lvgl/src/widgets/scale/lv_scale.c ****     }
 6803              		.loc 1 370 22 is_stmt 0 view .LVU2192
 6804 0028 2B6D     		ldr	r3, [r5, #80]
 370:Drivers/lvgl/src/widgets/scale/lv_scale.c ****     }
 6805              		.loc 1 370 45 view .LVU2193
 6806 002a A01A     		subs	r0, r4, r2
 6807              	.LVL749:
 370:Drivers/lvgl/src/widgets/scale/lv_scale.c ****     }
 6808              		.loc 1 370 36 view .LVU2194
 6809 002c 00FB03F3 		mul	r3, r0, r3
 370:Drivers/lvgl/src/widgets/scale/lv_scale.c ****     }
 6810              		.loc 1 370 85 view .LVU2195
 6811 0030 891A     		subs	r1, r1, r2
 370:Drivers/lvgl/src/widgets/scale/lv_scale.c ****     }
 6812              		.loc 1 370 65 view .LVU2196
 6813 0032 B3FBF1F3 		udiv	r3, r3, r1
 6814              	.LVL750:
 370:Drivers/lvgl/src/widgets/scale/lv_scale.c ****     }
 6815              		.loc 1 370 65 view .LVU2197
 6816 0036 00E0     		b	.L344
 6817              	.LVL751:
 6818              	.L346:
 364:Drivers/lvgl/src/widgets/scale/lv_scale.c ****     }
 6819              		.loc 1 364 15 view .LVU2198
 6820 0038 0023     		movs	r3, #0
 6821              	.LVL752:
ARM GAS  /var/folders/qx/2_175_4n2s19vhvtspjhb3qh0000gn/T//ccmbJJmj.s 			page 201


 6822              	.L344:
 373:Drivers/lvgl/src/widgets/scale/lv_scale.c ****     update_needle(scale, needle_img, 0, value);
 6823              		.loc 1 373 5 is_stmt 1 view .LVU2199
 373:Drivers/lvgl/src/widgets/scale/lv_scale.c ****     update_needle(scale, needle_img, 0, value);
 6824              		.loc 1 373 45 is_stmt 0 view .LVU2200
 6825 003a 6A6D     		ldr	r2, [r5, #84]
 373:Drivers/lvgl/src/widgets/scale/lv_scale.c ****     update_needle(scale, needle_img, 0, value);
 6826              		.loc 1 373 56 view .LVU2201
 6827 003c 1344     		add	r3, r3, r2
 6828              	.LVL753:
 373:Drivers/lvgl/src/widgets/scale/lv_scale.c ****     update_needle(scale, needle_img, 0, value);
 6829              		.loc 1 373 5 view .LVU2202
 6830 003e 03EB8303 		add	r3, r3, r3, lsl #2
 6831 0042 5900     		lsls	r1, r3, #1
 6832 0044 3046     		mov	r0, r6
 6833 0046 FFF7FEFF 		bl	lv_image_set_rotation
 6834              	.LVL754:
 374:Drivers/lvgl/src/widgets/scale/lv_scale.c **** }
 6835              		.loc 1 374 5 is_stmt 1 view .LVU2203
 6836 004a 2346     		mov	r3, r4
 6837 004c 0022     		movs	r2, #0
 6838 004e 3146     		mov	r1, r6
 6839 0050 2846     		mov	r0, r5
 6840 0052 FFF7FEFF 		bl	update_needle
 6841              	.LVL755:
 6842              	.L339:
 375:Drivers/lvgl/src/widgets/scale/lv_scale.c **** 
 6843              		.loc 1 375 1 is_stmt 0 view .LVU2204
 6844 0056 70BD     		pop	{r4, r5, r6, pc}
 375:Drivers/lvgl/src/widgets/scale/lv_scale.c **** 
 6845              		.loc 1 375 1 view .LVU2205
 6846              		.cfi_endproc
 6847              	.LFE195:
 6849              		.section	.text.lv_scale_event,"ax",%progbits
 6850              		.align	1
 6851              		.syntax unified
 6852              		.thumb
 6853              		.thumb_func
 6855              	lv_scale_event:
 6856              	.LVL756:
 6857              	.LFB220:
 673:Drivers/lvgl/src/widgets/scale/lv_scale.c ****     LV_UNUSED(class_p);
 6858              		.loc 1 673 1 is_stmt 1 view -0
 6859              		.cfi_startproc
 6860              		@ args = 0, pretend = 0, frame = 0
 6861              		@ frame_needed = 0, uses_anonymous_args = 0
 673:Drivers/lvgl/src/widgets/scale/lv_scale.c ****     LV_UNUSED(class_p);
 6862              		.loc 1 673 1 is_stmt 0 view .LVU2207
 6863 0000 F8B5     		push	{r3, r4, r5, r6, r7, lr}
 6864              	.LCFI77:
 6865              		.cfi_def_cfa_offset 24
 6866              		.cfi_offset 3, -24
 6867              		.cfi_offset 4, -20
 6868              		.cfi_offset 5, -16
 6869              		.cfi_offset 6, -12
 6870              		.cfi_offset 7, -8
 6871              		.cfi_offset 14, -4
ARM GAS  /var/folders/qx/2_175_4n2s19vhvtspjhb3qh0000gn/T//ccmbJJmj.s 			page 202


 6872 0002 0D46     		mov	r5, r1
 674:Drivers/lvgl/src/widgets/scale/lv_scale.c **** 
 6873              		.loc 1 674 5 is_stmt 1 view .LVU2208
 677:Drivers/lvgl/src/widgets/scale/lv_scale.c ****     if(res != LV_RESULT_OK) return;
 6874              		.loc 1 677 5 view .LVU2209
 677:Drivers/lvgl/src/widgets/scale/lv_scale.c ****     if(res != LV_RESULT_OK) return;
 6875              		.loc 1 677 23 is_stmt 0 view .LVU2210
 6876 0004 3C48     		ldr	r0, .L365
 6877              	.LVL757:
 677:Drivers/lvgl/src/widgets/scale/lv_scale.c ****     if(res != LV_RESULT_OK) return;
 6878              		.loc 1 677 23 view .LVU2211
 6879 0006 FFF7FEFF 		bl	lv_obj_event_base
 6880              	.LVL758:
 678:Drivers/lvgl/src/widgets/scale/lv_scale.c **** 
 6881              		.loc 1 678 5 is_stmt 1 view .LVU2212
 678:Drivers/lvgl/src/widgets/scale/lv_scale.c **** 
 6882              		.loc 1 678 7 is_stmt 0 view .LVU2213
 6883 000a 0128     		cmp	r0, #1
 6884 000c 00D0     		beq	.L361
 6885              	.LVL759:
 6886              	.L349:
 734:Drivers/lvgl/src/widgets/scale/lv_scale.c **** 
 6887              		.loc 1 734 1 view .LVU2214
 6888 000e F8BD     		pop	{r3, r4, r5, r6, r7, pc}
 6889              	.LVL760:
 6890              	.L361:
 680:Drivers/lvgl/src/widgets/scale/lv_scale.c ****     lv_obj_t * obj = lv_event_get_current_target(event);
 6891              		.loc 1 680 5 is_stmt 1 view .LVU2215
 680:Drivers/lvgl/src/widgets/scale/lv_scale.c ****     lv_obj_t * obj = lv_event_get_current_target(event);
 6892              		.loc 1 680 34 is_stmt 0 view .LVU2216
 6893 0010 2846     		mov	r0, r5
 6894              	.LVL761:
 680:Drivers/lvgl/src/widgets/scale/lv_scale.c ****     lv_obj_t * obj = lv_event_get_current_target(event);
 6895              		.loc 1 680 34 view .LVU2217
 6896 0012 FFF7FEFF 		bl	lv_event_get_code
 6897              	.LVL762:
 6898 0016 0446     		mov	r4, r0
 6899              	.LVL763:
 681:Drivers/lvgl/src/widgets/scale/lv_scale.c ****     lv_scale_t * scale = (lv_scale_t *) obj;
 6900              		.loc 1 681 5 is_stmt 1 view .LVU2218
 681:Drivers/lvgl/src/widgets/scale/lv_scale.c ****     lv_scale_t * scale = (lv_scale_t *) obj;
 6901              		.loc 1 681 22 is_stmt 0 view .LVU2219
 6902 0018 2846     		mov	r0, r5
 6903              	.LVL764:
 681:Drivers/lvgl/src/widgets/scale/lv_scale.c ****     lv_scale_t * scale = (lv_scale_t *) obj;
 6904              		.loc 1 681 22 view .LVU2220
 6905 001a FFF7FEFF 		bl	lv_event_get_current_target
 6906              	.LVL765:
 6907 001e 0646     		mov	r6, r0
 6908              	.LVL766:
 682:Drivers/lvgl/src/widgets/scale/lv_scale.c ****     LV_UNUSED(scale);
 6909              		.loc 1 682 5 is_stmt 1 view .LVU2221
 683:Drivers/lvgl/src/widgets/scale/lv_scale.c **** 
 6910              		.loc 1 683 5 view .LVU2222
 685:Drivers/lvgl/src/widgets/scale/lv_scale.c ****         if(scale->post_draw == false) {
 6911              		.loc 1 685 5 view .LVU2223
 685:Drivers/lvgl/src/widgets/scale/lv_scale.c ****         if(scale->post_draw == false) {
ARM GAS  /var/folders/qx/2_175_4n2s19vhvtspjhb3qh0000gn/T//ccmbJJmj.s 			page 203


 6912              		.loc 1 685 7 is_stmt 0 view .LVU2224
 6913 0020 1D2C     		cmp	r4, #29
 6914 0022 08D0     		beq	.L362
 6915              	.LVL767:
 6916              	.L351:
 700:Drivers/lvgl/src/widgets/scale/lv_scale.c ****         if(scale->post_draw == true) {
 6917              		.loc 1 700 5 is_stmt 1 view .LVU2225
 700:Drivers/lvgl/src/widgets/scale/lv_scale.c ****         if(scale->post_draw == true) {
 6918              		.loc 1 700 7 is_stmt 0 view .LVU2226
 6919 0024 202C     		cmp	r4, #32
 6920 0026 26D0     		beq	.L363
 715:Drivers/lvgl/src/widgets/scale/lv_scale.c ****         /* NOTE: Extend scale draw size so the first tick label can be shown */
 6921              		.loc 1 715 10 is_stmt 1 view .LVU2227
 715:Drivers/lvgl/src/widgets/scale/lv_scale.c ****         /* NOTE: Extend scale draw size so the first tick label can be shown */
 6922              		.loc 1 715 12 is_stmt 0 view .LVU2228
 6923 0028 1B2C     		cmp	r4, #27
 6924 002a 45D0     		beq	.L364
 719:Drivers/lvgl/src/widgets/scale/lv_scale.c ****         size_t needle_count = lv_array_size(&scale->needles);
 6925              		.loc 1 719 10 is_stmt 1 view .LVU2229
 719:Drivers/lvgl/src/widgets/scale/lv_scale.c ****         size_t needle_count = lv_array_size(&scale->needles);
 6926              		.loc 1 719 12 is_stmt 0 view .LVU2230
 6927 002c 332C     		cmp	r4, #51
 6928 002e EED1     		bne	.L349
 6929              	.LBB326:
 720:Drivers/lvgl/src/widgets/scale/lv_scale.c ****         for(size_t i = 0; i < needle_count; ++i) {
 6930              		.loc 1 720 9 is_stmt 1 view .LVU2231
 6931              	.LVL768:
 6932              	.LBB327:
 6933              	.LBI327:
  86:Drivers/lvgl/src/widgets/scale/../../core/../display/../misc/lv_array.h **** {
 6934              		.loc 3 86 24 view .LVU2232
 6935              	.LBB328:
 6936              		.loc 3 88 5 view .LVU2233
 6937              		.loc 3 88 17 is_stmt 0 view .LVU2234
 6938 0030 B76E     		ldr	r7, [r6, #104]
 6939              	.LVL769:
 6940              		.loc 3 88 17 view .LVU2235
 6941              	.LBE328:
 6942              	.LBE327:
 721:Drivers/lvgl/src/widgets/scale/lv_scale.c ****             lv_scale_needle_t * needle = lv_array_at(&scale->needles, i);
 6943              		.loc 1 721 9 is_stmt 1 view .LVU2236
 6944              	.LBB329:
 721:Drivers/lvgl/src/widgets/scale/lv_scale.c ****             lv_scale_needle_t * needle = lv_array_at(&scale->needles, i);
 6945              		.loc 1 721 13 view .LVU2237
 721:Drivers/lvgl/src/widgets/scale/lv_scale.c ****             lv_scale_needle_t * needle = lv_array_at(&scale->needles, i);
 6946              		.loc 1 721 20 is_stmt 0 view .LVU2238
 6947 0032 0025     		movs	r5, #0
 6948              	.LVL770:
 721:Drivers/lvgl/src/widgets/scale/lv_scale.c ****             lv_scale_needle_t * needle = lv_array_at(&scale->needles, i);
 6949              		.loc 1 721 9 view .LVU2239
 6950 0034 4BE0     		b	.L356
 6951              	.LVL771:
 6952              	.L362:
 721:Drivers/lvgl/src/widgets/scale/lv_scale.c ****             lv_scale_needle_t * needle = lv_array_at(&scale->needles, i);
 6953              		.loc 1 721 9 view .LVU2240
 6954              	.LBE329:
 6955              	.LBE326:
ARM GAS  /var/folders/qx/2_175_4n2s19vhvtspjhb3qh0000gn/T//ccmbJJmj.s 			page 204


 686:Drivers/lvgl/src/widgets/scale/lv_scale.c ****             scale_find_section_tick_idx(obj);
 6956              		.loc 1 686 9 is_stmt 1 view .LVU2241
 686:Drivers/lvgl/src/widgets/scale/lv_scale.c ****             scale_find_section_tick_idx(obj);
 6957              		.loc 1 686 11 is_stmt 0 view .LVU2242
 6958 0036 90F94B30 		ldrsb	r3, [r0, #75]
 6959 003a 002B     		cmp	r3, #0
 6960 003c F2DB     		blt	.L351
 687:Drivers/lvgl/src/widgets/scale/lv_scale.c ****             scale_calculate_main_compensation(obj);
 6961              		.loc 1 687 13 is_stmt 1 view .LVU2243
 6962 003e FFF7FEFF 		bl	scale_find_section_tick_idx
 6963              	.LVL772:
 688:Drivers/lvgl/src/widgets/scale/lv_scale.c **** 
 6964              		.loc 1 688 13 view .LVU2244
 6965 0042 3046     		mov	r0, r6
 6966 0044 FFF7FEFF 		bl	scale_calculate_main_compensation
 6967              	.LVL773:
 690:Drivers/lvgl/src/widgets/scale/lv_scale.c ****                 scale_draw_main(obj, event);
 6968              		.loc 1 690 13 view .LVU2245
 690:Drivers/lvgl/src/widgets/scale/lv_scale.c ****                 scale_draw_main(obj, event);
 6969              		.loc 1 690 16 is_stmt 0 view .LVU2246
 6970 0048 96F84C30 		ldrb	r3, [r6, #76]	@ zero_extendqisi2
 690:Drivers/lvgl/src/widgets/scale/lv_scale.c ****                 scale_draw_main(obj, event);
 6971              		.loc 1 690 15 view .LVU2247
 6972 004c 13F0010F 		tst	r3, #1
 6973 0050 08D0     		beq	.L352
 691:Drivers/lvgl/src/widgets/scale/lv_scale.c ****                 scale_draw_indicator(obj, event);
 6974              		.loc 1 691 17 is_stmt 1 view .LVU2248
 6975 0052 2946     		mov	r1, r5
 6976 0054 3046     		mov	r0, r6
 6977 0056 FFF7FEFF 		bl	scale_draw_main
 6978              	.LVL774:
 692:Drivers/lvgl/src/widgets/scale/lv_scale.c ****             }
 6979              		.loc 1 692 17 view .LVU2249
 6980 005a 2946     		mov	r1, r5
 6981 005c 3046     		mov	r0, r6
 6982 005e FFF7FEFF 		bl	scale_draw_indicator
 6983              	.LVL775:
 6984 0062 DFE7     		b	.L351
 6985              	.L352:
 695:Drivers/lvgl/src/widgets/scale/lv_scale.c ****                 scale_draw_main(obj, event);
 6986              		.loc 1 695 17 view .LVU2250
 6987 0064 2946     		mov	r1, r5
 6988 0066 3046     		mov	r0, r6
 6989 0068 FFF7FEFF 		bl	scale_draw_indicator
 6990              	.LVL776:
 696:Drivers/lvgl/src/widgets/scale/lv_scale.c ****             }
 6991              		.loc 1 696 17 view .LVU2251
 6992 006c 2946     		mov	r1, r5
 6993 006e 3046     		mov	r0, r6
 6994 0070 FFF7FEFF 		bl	scale_draw_main
 6995              	.LVL777:
 6996 0074 D6E7     		b	.L351
 6997              	.L363:
 701:Drivers/lvgl/src/widgets/scale/lv_scale.c ****             scale_find_section_tick_idx(obj);
 6998              		.loc 1 701 9 view .LVU2252
 701:Drivers/lvgl/src/widgets/scale/lv_scale.c ****             scale_find_section_tick_idx(obj);
 6999              		.loc 1 701 11 is_stmt 0 view .LVU2253
ARM GAS  /var/folders/qx/2_175_4n2s19vhvtspjhb3qh0000gn/T//ccmbJJmj.s 			page 205


 7000 0076 96F94B30 		ldrsb	r3, [r6, #75]
 7001 007a 002B     		cmp	r3, #0
 7002 007c C7DA     		bge	.L349
 702:Drivers/lvgl/src/widgets/scale/lv_scale.c ****             scale_calculate_main_compensation(obj);
 7003              		.loc 1 702 13 is_stmt 1 view .LVU2254
 7004 007e 3046     		mov	r0, r6
 7005 0080 FFF7FEFF 		bl	scale_find_section_tick_idx
 7006              	.LVL778:
 703:Drivers/lvgl/src/widgets/scale/lv_scale.c **** 
 7007              		.loc 1 703 13 view .LVU2255
 7008 0084 3046     		mov	r0, r6
 7009 0086 FFF7FEFF 		bl	scale_calculate_main_compensation
 7010              	.LVL779:
 705:Drivers/lvgl/src/widgets/scale/lv_scale.c ****                 scale_draw_main(obj, event);
 7011              		.loc 1 705 13 view .LVU2256
 705:Drivers/lvgl/src/widgets/scale/lv_scale.c ****                 scale_draw_main(obj, event);
 7012              		.loc 1 705 16 is_stmt 0 view .LVU2257
 7013 008a 96F84C30 		ldrb	r3, [r6, #76]	@ zero_extendqisi2
 705:Drivers/lvgl/src/widgets/scale/lv_scale.c ****                 scale_draw_main(obj, event);
 7014              		.loc 1 705 15 view .LVU2258
 7015 008e 13F0010F 		tst	r3, #1
 7016 0092 08D0     		beq	.L354
 706:Drivers/lvgl/src/widgets/scale/lv_scale.c ****                 scale_draw_indicator(obj, event);
 7017              		.loc 1 706 17 is_stmt 1 view .LVU2259
 7018 0094 2946     		mov	r1, r5
 7019 0096 3046     		mov	r0, r6
 7020 0098 FFF7FEFF 		bl	scale_draw_main
 7021              	.LVL780:
 707:Drivers/lvgl/src/widgets/scale/lv_scale.c ****             }
 7022              		.loc 1 707 17 view .LVU2260
 7023 009c 2946     		mov	r1, r5
 7024 009e 3046     		mov	r0, r6
 7025 00a0 FFF7FEFF 		bl	scale_draw_indicator
 7026              	.LVL781:
 7027 00a4 B3E7     		b	.L349
 7028              	.L354:
 710:Drivers/lvgl/src/widgets/scale/lv_scale.c ****                 scale_draw_main(obj, event);
 7029              		.loc 1 710 17 view .LVU2261
 7030 00a6 2946     		mov	r1, r5
 7031 00a8 3046     		mov	r0, r6
 7032 00aa FFF7FEFF 		bl	scale_draw_indicator
 7033              	.LVL782:
 711:Drivers/lvgl/src/widgets/scale/lv_scale.c ****             }
 7034              		.loc 1 711 17 view .LVU2262
 7035 00ae 2946     		mov	r1, r5
 7036 00b0 3046     		mov	r0, r6
 7037 00b2 FFF7FEFF 		bl	scale_draw_main
 7038              	.LVL783:
 7039 00b6 AAE7     		b	.L349
 7040              	.L364:
 717:Drivers/lvgl/src/widgets/scale/lv_scale.c ****     }
 7041              		.loc 1 717 9 view .LVU2263
 7042 00b8 6421     		movs	r1, #100
 7043 00ba 2846     		mov	r0, r5
 7044 00bc FFF7FEFF 		bl	lv_event_set_ext_draw_size
 7045              	.LVL784:
 7046 00c0 A5E7     		b	.L349
ARM GAS  /var/folders/qx/2_175_4n2s19vhvtspjhb3qh0000gn/T//ccmbJJmj.s 			page 206


 7047              	.LVL785:
 7048              	.L357:
 7049              	.LBB333:
 7050              	.LBB332:
 7051              	.LBB330:
 727:Drivers/lvgl/src/widgets/scale/lv_scale.c ****             }
 7052              		.loc 1 727 17 view .LVU2264
 7053 00c2 6268     		ldr	r2, [r4, #4]
 7054 00c4 2168     		ldr	r1, [r4]
 7055 00c6 3046     		mov	r0, r6
 7056 00c8 FFF7FEFF 		bl	lv_scale_set_image_needle_value
 7057              	.LVL786:
 7058              	.L358:
 727:Drivers/lvgl/src/widgets/scale/lv_scale.c ****             }
 7059              		.loc 1 727 17 is_stmt 0 view .LVU2265
 7060              	.LBE330:
 721:Drivers/lvgl/src/widgets/scale/lv_scale.c ****             lv_scale_needle_t * needle = lv_array_at(&scale->needles, i);
 7061              		.loc 1 721 45 is_stmt 1 discriminator 2 view .LVU2266
 7062 00cc 0135     		adds	r5, r5, #1
 7063              	.LVL787:
 7064              	.L356:
 721:Drivers/lvgl/src/widgets/scale/lv_scale.c ****             lv_scale_needle_t * needle = lv_array_at(&scale->needles, i);
 7065              		.loc 1 721 29 discriminator 1 view .LVU2267
 7066 00ce BD42     		cmp	r5, r7
 7067 00d0 9DD2     		bcs	.L349
 7068              	.LBB331:
 722:Drivers/lvgl/src/widgets/scale/lv_scale.c ****             if(lv_obj_has_class(needle->obj, &lv_line_class)) {
 7069              		.loc 1 722 13 view .LVU2268
 722:Drivers/lvgl/src/widgets/scale/lv_scale.c ****             if(lv_obj_has_class(needle->obj, &lv_line_class)) {
 7070              		.loc 1 722 42 is_stmt 0 view .LVU2269
 7071 00d2 2946     		mov	r1, r5
 7072 00d4 06F16400 		add	r0, r6, #100
 7073 00d8 FFF7FEFF 		bl	lv_array_at
 7074              	.LVL788:
 7075 00dc 0446     		mov	r4, r0
 7076              	.LVL789:
 723:Drivers/lvgl/src/widgets/scale/lv_scale.c ****                 lv_scale_set_line_needle_value(obj, needle->obj, needle->length, needle->value);
 7077              		.loc 1 723 13 is_stmt 1 view .LVU2270
 723:Drivers/lvgl/src/widgets/scale/lv_scale.c ****                 lv_scale_set_line_needle_value(obj, needle->obj, needle->length, needle->value);
 7078              		.loc 1 723 16 is_stmt 0 view .LVU2271
 7079 00de 0749     		ldr	r1, .L365+4
 7080 00e0 0068     		ldr	r0, [r0]
 7081              	.LVL790:
 723:Drivers/lvgl/src/widgets/scale/lv_scale.c ****                 lv_scale_set_line_needle_value(obj, needle->obj, needle->length, needle->value);
 7082              		.loc 1 723 16 view .LVU2272
 7083 00e2 FFF7FEFF 		bl	lv_obj_has_class
 7084              	.LVL791:
 723:Drivers/lvgl/src/widgets/scale/lv_scale.c ****                 lv_scale_set_line_needle_value(obj, needle->obj, needle->length, needle->value);
 7085              		.loc 1 723 15 discriminator 1 view .LVU2273
 7086 00e6 0028     		cmp	r0, #0
 7087 00e8 EBD0     		beq	.L357
 724:Drivers/lvgl/src/widgets/scale/lv_scale.c ****             }
 7088              		.loc 1 724 17 is_stmt 1 view .LVU2274
 7089 00ea 6368     		ldr	r3, [r4, #4]
 7090 00ec A268     		ldr	r2, [r4, #8]
 7091 00ee 2168     		ldr	r1, [r4]
 7092 00f0 3046     		mov	r0, r6
ARM GAS  /var/folders/qx/2_175_4n2s19vhvtspjhb3qh0000gn/T//ccmbJJmj.s 			page 207


 7093 00f2 FFF7FEFF 		bl	lv_scale_set_line_needle_value
 7094              	.LVL792:
 7095 00f6 E9E7     		b	.L358
 7096              	.L366:
 7097              		.align	2
 7098              	.L365:
 7099 00f8 00000000 		.word	lv_scale_class
 7100 00fc 00000000 		.word	lv_line_class
 7101              	.LBE331:
 7102              	.LBE332:
 7103              	.LBE333:
 7104              		.cfi_endproc
 7105              	.LFE220:
 7107              		.section	.text.lv_scale_set_text_src,"ax",%progbits
 7108              		.align	1
 7109              		.global	lv_scale_set_text_src
 7110              		.syntax unified
 7111              		.thumb
 7112              		.thumb_func
 7114              	lv_scale_set_text_src:
 7115              	.LVL793:
 7116              	.LFB196:
 378:Drivers/lvgl/src/widgets/scale/lv_scale.c ****     LV_ASSERT_OBJ(obj, MY_CLASS);
 7117              		.loc 1 378 1 view -0
 7118              		.cfi_startproc
 7119              		@ args = 0, pretend = 0, frame = 0
 7120              		@ frame_needed = 0, uses_anonymous_args = 0
 379:Drivers/lvgl/src/widgets/scale/lv_scale.c ****     lv_scale_t * scale = (lv_scale_t *)obj;
 7121              		.loc 1 379 5 view .LVU2276
 379:Drivers/lvgl/src/widgets/scale/lv_scale.c ****     lv_scale_t * scale = (lv_scale_t *)obj;
 7122              		.loc 1 379 5 view .LVU2277
 7123 0000 80B1     		cbz	r0, .L369
 378:Drivers/lvgl/src/widgets/scale/lv_scale.c ****     LV_ASSERT_OBJ(obj, MY_CLASS);
 7124              		.loc 1 378 1 is_stmt 0 view .LVU2278
 7125 0002 08B5     		push	{r3, lr}
 7126              	.LCFI78:
 7127              		.cfi_def_cfa_offset 8
 7128              		.cfi_offset 3, -8
 7129              		.cfi_offset 14, -4
 7130 0004 8446     		mov	ip, r0
 379:Drivers/lvgl/src/widgets/scale/lv_scale.c ****     lv_scale_t * scale = (lv_scale_t *)obj;
 7131              		.loc 1 379 5 is_stmt 1 view .LVU2279
 379:Drivers/lvgl/src/widgets/scale/lv_scale.c ****     lv_scale_t * scale = (lv_scale_t *)obj;
 7132              		.loc 1 379 33 view .LVU2280
 380:Drivers/lvgl/src/widgets/scale/lv_scale.c **** 
 7133              		.loc 1 380 5 view .LVU2281
 7134              	.LVL794:
 382:Drivers/lvgl/src/widgets/scale/lv_scale.c ****     scale->custom_label_cnt = 0;
 7135              		.loc 1 382 5 view .LVU2282
 382:Drivers/lvgl/src/widgets/scale/lv_scale.c ****     scale->custom_label_cnt = 0;
 7136              		.loc 1 382 20 is_stmt 0 view .LVU2283
 7137 0006 8163     		str	r1, [r0, #56]
 383:Drivers/lvgl/src/widgets/scale/lv_scale.c ****     if(scale->txt_src) {
 7138              		.loc 1 383 5 is_stmt 1 view .LVU2284
 383:Drivers/lvgl/src/widgets/scale/lv_scale.c ****     if(scale->txt_src) {
 7139              		.loc 1 383 29 is_stmt 0 view .LVU2285
 7140 0008 0023     		movs	r3, #0
ARM GAS  /var/folders/qx/2_175_4n2s19vhvtspjhb3qh0000gn/T//ccmbJJmj.s 			page 208


 7141 000a 8365     		str	r3, [r0, #88]
 384:Drivers/lvgl/src/widgets/scale/lv_scale.c ****         int32_t idx;
 7142              		.loc 1 384 5 is_stmt 1 view .LVU2286
 384:Drivers/lvgl/src/widgets/scale/lv_scale.c ****         int32_t idx;
 7143              		.loc 1 384 7 is_stmt 0 view .LVU2287
 7144 000c 59B1     		cbz	r1, .L371
 7145              	.LBB334:
 386:Drivers/lvgl/src/widgets/scale/lv_scale.c ****             scale->custom_label_cnt++;
 7146              		.loc 1 386 17 view .LVU2288
 7147 000e 0022     		movs	r2, #0
 7148              	.L370:
 7149              	.LVL795:
 386:Drivers/lvgl/src/widgets/scale/lv_scale.c ****             scale->custom_label_cnt++;
 7150              		.loc 1 386 22 is_stmt 1 discriminator 1 view .LVU2289
 386:Drivers/lvgl/src/widgets/scale/lv_scale.c ****             scale->custom_label_cnt++;
 7151              		.loc 1 386 29 is_stmt 0 discriminator 1 view .LVU2290
 7152 0010 51F82230 		ldr	r3, [r1, r2, lsl #2]
 386:Drivers/lvgl/src/widgets/scale/lv_scale.c ****             scale->custom_label_cnt++;
 7153              		.loc 1 386 22 discriminator 1 view .LVU2291
 7154 0014 3BB1     		cbz	r3, .L371
 387:Drivers/lvgl/src/widgets/scale/lv_scale.c ****         }
 7155              		.loc 1 387 13 is_stmt 1 view .LVU2292
 387:Drivers/lvgl/src/widgets/scale/lv_scale.c ****         }
 7156              		.loc 1 387 18 is_stmt 0 view .LVU2293
 7157 0016 DCF85830 		ldr	r3, [ip, #88]
 387:Drivers/lvgl/src/widgets/scale/lv_scale.c ****         }
 7158              		.loc 1 387 36 view .LVU2294
 7159 001a 0133     		adds	r3, r3, #1
 7160 001c CCF85830 		str	r3, [ip, #88]
 386:Drivers/lvgl/src/widgets/scale/lv_scale.c ****             scale->custom_label_cnt++;
 7161              		.loc 1 386 36 is_stmt 1 discriminator 3 view .LVU2295
 7162 0020 0132     		adds	r2, r2, #1
 7163              	.LVL796:
 386:Drivers/lvgl/src/widgets/scale/lv_scale.c ****             scale->custom_label_cnt++;
 7164              		.loc 1 386 36 is_stmt 0 discriminator 3 view .LVU2296
 7165 0022 F5E7     		b	.L370
 7166              	.LVL797:
 7167              	.L369:
 7168              	.LCFI79:
 7169              		.cfi_def_cfa_offset 0
 7170              		.cfi_restore 3
 7171              		.cfi_restore 14
 386:Drivers/lvgl/src/widgets/scale/lv_scale.c ****             scale->custom_label_cnt++;
 7172              		.loc 1 386 36 discriminator 3 view .LVU2297
 7173              	.LBE334:
 379:Drivers/lvgl/src/widgets/scale/lv_scale.c ****     lv_scale_t * scale = (lv_scale_t *)obj;
 7174              		.loc 1 379 5 is_stmt 1 view .LVU2298
 379:Drivers/lvgl/src/widgets/scale/lv_scale.c ****     lv_scale_t * scale = (lv_scale_t *)obj;
 7175              		.loc 1 379 5 view .LVU2299
 379:Drivers/lvgl/src/widgets/scale/lv_scale.c ****     lv_scale_t * scale = (lv_scale_t *)obj;
 7176              		.loc 1 379 5 view .LVU2300
 379:Drivers/lvgl/src/widgets/scale/lv_scale.c ****     lv_scale_t * scale = (lv_scale_t *)obj;
 7177              		.loc 1 379 5 view .LVU2301
 379:Drivers/lvgl/src/widgets/scale/lv_scale.c ****     lv_scale_t * scale = (lv_scale_t *)obj;
 7178              		.loc 1 379 5 view .LVU2302
 7179 0024 FEE7     		b	.L369
 7180              	.LVL798:
ARM GAS  /var/folders/qx/2_175_4n2s19vhvtspjhb3qh0000gn/T//ccmbJJmj.s 			page 209


 7181              	.L371:
 7182              	.LCFI80:
 7183              		.cfi_def_cfa_offset 8
 7184              		.cfi_offset 3, -8
 7185              		.cfi_offset 14, -4
 391:Drivers/lvgl/src/widgets/scale/lv_scale.c **** }
 7186              		.loc 1 391 5 view .LVU2303
 7187 0026 6046     		mov	r0, ip
 7188              	.LVL799:
 391:Drivers/lvgl/src/widgets/scale/lv_scale.c **** }
 7189              		.loc 1 391 5 is_stmt 0 view .LVU2304
 7190 0028 FFF7FEFF 		bl	lv_obj_invalidate
 7191              	.LVL800:
 392:Drivers/lvgl/src/widgets/scale/lv_scale.c **** 
 7192              		.loc 1 392 1 view .LVU2305
 7193 002c 08BD     		pop	{r3, pc}
 7194              		.cfi_endproc
 7195              	.LFE196:
 7197              		.section	.text.lv_scale_set_post_draw,"ax",%progbits
 7198              		.align	1
 7199              		.global	lv_scale_set_post_draw
 7200              		.syntax unified
 7201              		.thumb
 7202              		.thumb_func
 7204              	lv_scale_set_post_draw:
 7205              	.LVL801:
 7206              	.LFB197:
 395:Drivers/lvgl/src/widgets/scale/lv_scale.c ****     LV_ASSERT_OBJ(obj, MY_CLASS);
 7207              		.loc 1 395 1 is_stmt 1 view -0
 7208              		.cfi_startproc
 7209              		@ args = 0, pretend = 0, frame = 0
 7210              		@ frame_needed = 0, uses_anonymous_args = 0
 396:Drivers/lvgl/src/widgets/scale/lv_scale.c ****     lv_scale_t * scale = (lv_scale_t *)obj;
 7211              		.loc 1 396 5 view .LVU2307
 396:Drivers/lvgl/src/widgets/scale/lv_scale.c ****     lv_scale_t * scale = (lv_scale_t *)obj;
 7212              		.loc 1 396 5 view .LVU2308
 7213 0000 48B1     		cbz	r0, .L378
 395:Drivers/lvgl/src/widgets/scale/lv_scale.c ****     LV_ASSERT_OBJ(obj, MY_CLASS);
 7214              		.loc 1 395 1 is_stmt 0 view .LVU2309
 7215 0002 08B5     		push	{r3, lr}
 7216              	.LCFI81:
 7217              		.cfi_def_cfa_offset 8
 7218              		.cfi_offset 3, -8
 7219              		.cfi_offset 14, -4
 396:Drivers/lvgl/src/widgets/scale/lv_scale.c ****     lv_scale_t * scale = (lv_scale_t *)obj;
 7220              		.loc 1 396 5 is_stmt 1 view .LVU2310
 396:Drivers/lvgl/src/widgets/scale/lv_scale.c ****     lv_scale_t * scale = (lv_scale_t *)obj;
 7221              		.loc 1 396 33 view .LVU2311
 397:Drivers/lvgl/src/widgets/scale/lv_scale.c **** 
 7222              		.loc 1 397 5 view .LVU2312
 7223              	.LVL802:
 399:Drivers/lvgl/src/widgets/scale/lv_scale.c **** 
 7224              		.loc 1 399 5 view .LVU2313
 399:Drivers/lvgl/src/widgets/scale/lv_scale.c **** 
 7225              		.loc 1 399 22 is_stmt 0 view .LVU2314
 7226 0004 90F84B20 		ldrb	r2, [r0, #75]	@ zero_extendqisi2
 7227 0008 61F3C712 		bfi	r2, r1, #7, #1
ARM GAS  /var/folders/qx/2_175_4n2s19vhvtspjhb3qh0000gn/T//ccmbJJmj.s 			page 210


 7228              	.LVL803:
 399:Drivers/lvgl/src/widgets/scale/lv_scale.c **** 
 7229              		.loc 1 399 22 view .LVU2315
 7230 000c 80F84B20 		strb	r2, [r0, #75]
 401:Drivers/lvgl/src/widgets/scale/lv_scale.c **** }
 7231              		.loc 1 401 5 is_stmt 1 view .LVU2316
 7232 0010 FFF7FEFF 		bl	lv_obj_invalidate
 7233              	.LVL804:
 402:Drivers/lvgl/src/widgets/scale/lv_scale.c **** 
 7234              		.loc 1 402 1 is_stmt 0 view .LVU2317
 7235 0014 08BD     		pop	{r3, pc}
 7236              	.LVL805:
 7237              	.L378:
 7238              	.LCFI82:
 7239              		.cfi_def_cfa_offset 0
 7240              		.cfi_restore 3
 7241              		.cfi_restore 14
 396:Drivers/lvgl/src/widgets/scale/lv_scale.c ****     lv_scale_t * scale = (lv_scale_t *)obj;
 7242              		.loc 1 396 5 is_stmt 1 view .LVU2318
 396:Drivers/lvgl/src/widgets/scale/lv_scale.c ****     lv_scale_t * scale = (lv_scale_t *)obj;
 7243              		.loc 1 396 5 view .LVU2319
 396:Drivers/lvgl/src/widgets/scale/lv_scale.c ****     lv_scale_t * scale = (lv_scale_t *)obj;
 7244              		.loc 1 396 5 view .LVU2320
 396:Drivers/lvgl/src/widgets/scale/lv_scale.c ****     lv_scale_t * scale = (lv_scale_t *)obj;
 7245              		.loc 1 396 5 view .LVU2321
 396:Drivers/lvgl/src/widgets/scale/lv_scale.c ****     lv_scale_t * scale = (lv_scale_t *)obj;
 7246              		.loc 1 396 5 view .LVU2322
 7247 0016 FEE7     		b	.L378
 7248              		.cfi_endproc
 7249              	.LFE197:
 7251              		.section	.text.lv_scale_set_draw_ticks_on_top,"ax",%progbits
 7252              		.align	1
 7253              		.global	lv_scale_set_draw_ticks_on_top
 7254              		.syntax unified
 7255              		.thumb
 7256              		.thumb_func
 7258              	lv_scale_set_draw_ticks_on_top:
 7259              	.LVL806:
 7260              	.LFB198:
 405:Drivers/lvgl/src/widgets/scale/lv_scale.c ****     LV_ASSERT_OBJ(obj, MY_CLASS);
 7261              		.loc 1 405 1 view -0
 7262              		.cfi_startproc
 7263              		@ args = 0, pretend = 0, frame = 0
 7264              		@ frame_needed = 0, uses_anonymous_args = 0
 406:Drivers/lvgl/src/widgets/scale/lv_scale.c ****     lv_scale_t * scale = (lv_scale_t *)obj;
 7265              		.loc 1 406 5 view .LVU2324
 406:Drivers/lvgl/src/widgets/scale/lv_scale.c ****     lv_scale_t * scale = (lv_scale_t *)obj;
 7266              		.loc 1 406 5 view .LVU2325
 7267 0000 48B1     		cbz	r0, .L383
 405:Drivers/lvgl/src/widgets/scale/lv_scale.c ****     LV_ASSERT_OBJ(obj, MY_CLASS);
 7268              		.loc 1 405 1 is_stmt 0 view .LVU2326
 7269 0002 08B5     		push	{r3, lr}
 7270              	.LCFI83:
 7271              		.cfi_def_cfa_offset 8
 7272              		.cfi_offset 3, -8
 7273              		.cfi_offset 14, -4
 406:Drivers/lvgl/src/widgets/scale/lv_scale.c ****     lv_scale_t * scale = (lv_scale_t *)obj;
ARM GAS  /var/folders/qx/2_175_4n2s19vhvtspjhb3qh0000gn/T//ccmbJJmj.s 			page 211


 7274              		.loc 1 406 5 is_stmt 1 view .LVU2327
 406:Drivers/lvgl/src/widgets/scale/lv_scale.c ****     lv_scale_t * scale = (lv_scale_t *)obj;
 7275              		.loc 1 406 33 view .LVU2328
 407:Drivers/lvgl/src/widgets/scale/lv_scale.c **** 
 7276              		.loc 1 407 5 view .LVU2329
 7277              	.LVL807:
 409:Drivers/lvgl/src/widgets/scale/lv_scale.c **** 
 7278              		.loc 1 409 5 view .LVU2330
 409:Drivers/lvgl/src/widgets/scale/lv_scale.c **** 
 7279              		.loc 1 409 30 is_stmt 0 view .LVU2331
 7280 0004 90F84C20 		ldrb	r2, [r0, #76]	@ zero_extendqisi2
 7281 0008 61F30002 		bfi	r2, r1, #0, #1
 7282              	.LVL808:
 409:Drivers/lvgl/src/widgets/scale/lv_scale.c **** 
 7283              		.loc 1 409 30 view .LVU2332
 7284 000c 80F84C20 		strb	r2, [r0, #76]
 411:Drivers/lvgl/src/widgets/scale/lv_scale.c **** }
 7285              		.loc 1 411 5 is_stmt 1 view .LVU2333
 7286 0010 FFF7FEFF 		bl	lv_obj_invalidate
 7287              	.LVL809:
 412:Drivers/lvgl/src/widgets/scale/lv_scale.c **** 
 7288              		.loc 1 412 1 is_stmt 0 view .LVU2334
 7289 0014 08BD     		pop	{r3, pc}
 7290              	.LVL810:
 7291              	.L383:
 7292              	.LCFI84:
 7293              		.cfi_def_cfa_offset 0
 7294              		.cfi_restore 3
 7295              		.cfi_restore 14
 406:Drivers/lvgl/src/widgets/scale/lv_scale.c ****     lv_scale_t * scale = (lv_scale_t *)obj;
 7296              		.loc 1 406 5 is_stmt 1 view .LVU2335
 406:Drivers/lvgl/src/widgets/scale/lv_scale.c ****     lv_scale_t * scale = (lv_scale_t *)obj;
 7297              		.loc 1 406 5 view .LVU2336
 406:Drivers/lvgl/src/widgets/scale/lv_scale.c ****     lv_scale_t * scale = (lv_scale_t *)obj;
 7298              		.loc 1 406 5 view .LVU2337
 406:Drivers/lvgl/src/widgets/scale/lv_scale.c ****     lv_scale_t * scale = (lv_scale_t *)obj;
 7299              		.loc 1 406 5 view .LVU2338
 406:Drivers/lvgl/src/widgets/scale/lv_scale.c ****     lv_scale_t * scale = (lv_scale_t *)obj;
 7300              		.loc 1 406 5 view .LVU2339
 7301 0016 FEE7     		b	.L383
 7302              		.cfi_endproc
 7303              	.LFE198:
 7305              		.section	.text.lv_scale_add_section,"ax",%progbits
 7306              		.align	1
 7307              		.global	lv_scale_add_section
 7308              		.syntax unified
 7309              		.thumb
 7310              		.thumb_func
 7312              	lv_scale_add_section:
 7313              	.LVL811:
 7314              	.LFB199:
 415:Drivers/lvgl/src/widgets/scale/lv_scale.c ****     LV_ASSERT_OBJ(obj, MY_CLASS);
 7315              		.loc 1 415 1 view -0
 7316              		.cfi_startproc
 7317              		@ args = 0, pretend = 0, frame = 0
 7318              		@ frame_needed = 0, uses_anonymous_args = 0
 416:Drivers/lvgl/src/widgets/scale/lv_scale.c **** 
ARM GAS  /var/folders/qx/2_175_4n2s19vhvtspjhb3qh0000gn/T//ccmbJJmj.s 			page 212


 7319              		.loc 1 416 5 view .LVU2341
 416:Drivers/lvgl/src/widgets/scale/lv_scale.c **** 
 7320              		.loc 1 416 5 view .LVU2342
 7321 0000 88B1     		cbz	r0, .L388
 415:Drivers/lvgl/src/widgets/scale/lv_scale.c ****     LV_ASSERT_OBJ(obj, MY_CLASS);
 7322              		.loc 1 415 1 is_stmt 0 view .LVU2343
 7323 0002 10B5     		push	{r4, lr}
 7324              	.LCFI85:
 7325              		.cfi_def_cfa_offset 8
 7326              		.cfi_offset 4, -8
 7327              		.cfi_offset 14, -4
 416:Drivers/lvgl/src/widgets/scale/lv_scale.c **** 
 7328              		.loc 1 416 5 is_stmt 1 view .LVU2344
 416:Drivers/lvgl/src/widgets/scale/lv_scale.c **** 
 7329              		.loc 1 416 33 view .LVU2345
 418:Drivers/lvgl/src/widgets/scale/lv_scale.c ****     lv_scale_section_t * section = lv_ll_ins_head(&scale->section_ll);
 7330              		.loc 1 418 5 view .LVU2346
 7331              	.LVL812:
 419:Drivers/lvgl/src/widgets/scale/lv_scale.c ****     LV_ASSERT_MALLOC(section);
 7332              		.loc 1 419 5 view .LVU2347
 419:Drivers/lvgl/src/widgets/scale/lv_scale.c ****     LV_ASSERT_MALLOC(section);
 7333              		.loc 1 419 36 is_stmt 0 view .LVU2348
 7334 0004 2C30     		adds	r0, r0, #44
 7335              	.LVL813:
 419:Drivers/lvgl/src/widgets/scale/lv_scale.c ****     LV_ASSERT_MALLOC(section);
 7336              		.loc 1 419 36 view .LVU2349
 7337 0006 FFF7FEFF 		bl	lv_ll_ins_head
 7338              	.LVL814:
 420:Drivers/lvgl/src/widgets/scale/lv_scale.c ****     if(section == NULL) return NULL;
 7339              		.loc 1 420 5 is_stmt 1 view .LVU2350
 420:Drivers/lvgl/src/widgets/scale/lv_scale.c ****     if(section == NULL) return NULL;
 7340              		.loc 1 420 5 view .LVU2351
 7341 000a 0446     		mov	r4, r0
 7342 000c 60B1     		cbz	r0, .L390
 420:Drivers/lvgl/src/widgets/scale/lv_scale.c ****     if(section == NULL) return NULL;
 7343              		.loc 1 420 5 view .LVU2352
 420:Drivers/lvgl/src/widgets/scale/lv_scale.c ****     if(section == NULL) return NULL;
 7344              		.loc 1 420 30 view .LVU2353
 421:Drivers/lvgl/src/widgets/scale/lv_scale.c **** 
 7345              		.loc 1 421 5 view .LVU2354
 424:Drivers/lvgl/src/widgets/scale/lv_scale.c ****     section->first_tick_idx_in_section = LV_SCALE_TICK_IDX_DEFAULT_ID;
 7346              		.loc 1 424 5 view .LVU2355
 7347              	.LVL815:
 7348              	.LBB335:
 7349              	.LBI335:
 7350              		.file 4 "Drivers/lvgl/src/widgets/scale/../../core/../misc/../font/../draw/../misc/../stdlib/lv_st
   1:Drivers/lvgl/src/widgets/scale/../../core/../misc/../font/../draw/../misc/../stdlib/lv_string.h **** /**
   2:Drivers/lvgl/src/widgets/scale/../../core/../misc/../font/../draw/../misc/../stdlib/lv_string.h ****  * @file lv_string.h
   3:Drivers/lvgl/src/widgets/scale/../../core/../misc/../font/../draw/../misc/../stdlib/lv_string.h ****  *
   4:Drivers/lvgl/src/widgets/scale/../../core/../misc/../font/../draw/../misc/../stdlib/lv_string.h ****  */
   5:Drivers/lvgl/src/widgets/scale/../../core/../misc/../font/../draw/../misc/../stdlib/lv_string.h **** 
   6:Drivers/lvgl/src/widgets/scale/../../core/../misc/../font/../draw/../misc/../stdlib/lv_string.h **** #ifndef LV_STRING_H
   7:Drivers/lvgl/src/widgets/scale/../../core/../misc/../font/../draw/../misc/../stdlib/lv_string.h **** #define LV_STRING_H
   8:Drivers/lvgl/src/widgets/scale/../../core/../misc/../font/../draw/../misc/../stdlib/lv_string.h **** 
   9:Drivers/lvgl/src/widgets/scale/../../core/../misc/../font/../draw/../misc/../stdlib/lv_string.h **** #ifdef __cplusplus
  10:Drivers/lvgl/src/widgets/scale/../../core/../misc/../font/../draw/../misc/../stdlib/lv_string.h **** extern "C" {
  11:Drivers/lvgl/src/widgets/scale/../../core/../misc/../font/../draw/../misc/../stdlib/lv_string.h **** #endif
ARM GAS  /var/folders/qx/2_175_4n2s19vhvtspjhb3qh0000gn/T//ccmbJJmj.s 			page 213


  12:Drivers/lvgl/src/widgets/scale/../../core/../misc/../font/../draw/../misc/../stdlib/lv_string.h **** 
  13:Drivers/lvgl/src/widgets/scale/../../core/../misc/../font/../draw/../misc/../stdlib/lv_string.h **** /*********************
  14:Drivers/lvgl/src/widgets/scale/../../core/../misc/../font/../draw/../misc/../stdlib/lv_string.h ****  *      INCLUDES
  15:Drivers/lvgl/src/widgets/scale/../../core/../misc/../font/../draw/../misc/../stdlib/lv_string.h ****  *********************/
  16:Drivers/lvgl/src/widgets/scale/../../core/../misc/../font/../draw/../misc/../stdlib/lv_string.h **** #include "../lv_conf_internal.h"
  17:Drivers/lvgl/src/widgets/scale/../../core/../misc/../font/../draw/../misc/../stdlib/lv_string.h **** #include "../misc/lv_types.h"
  18:Drivers/lvgl/src/widgets/scale/../../core/../misc/../font/../draw/../misc/../stdlib/lv_string.h **** 
  19:Drivers/lvgl/src/widgets/scale/../../core/../misc/../font/../draw/../misc/../stdlib/lv_string.h **** /*********************
  20:Drivers/lvgl/src/widgets/scale/../../core/../misc/../font/../draw/../misc/../stdlib/lv_string.h ****  *      DEFINES
  21:Drivers/lvgl/src/widgets/scale/../../core/../misc/../font/../draw/../misc/../stdlib/lv_string.h ****  *********************/
  22:Drivers/lvgl/src/widgets/scale/../../core/../misc/../font/../draw/../misc/../stdlib/lv_string.h **** 
  23:Drivers/lvgl/src/widgets/scale/../../core/../misc/../font/../draw/../misc/../stdlib/lv_string.h **** /**********************
  24:Drivers/lvgl/src/widgets/scale/../../core/../misc/../font/../draw/../misc/../stdlib/lv_string.h ****  *      TYPEDEFS
  25:Drivers/lvgl/src/widgets/scale/../../core/../misc/../font/../draw/../misc/../stdlib/lv_string.h ****  **********************/
  26:Drivers/lvgl/src/widgets/scale/../../core/../misc/../font/../draw/../misc/../stdlib/lv_string.h **** 
  27:Drivers/lvgl/src/widgets/scale/../../core/../misc/../font/../draw/../misc/../stdlib/lv_string.h **** /**********************
  28:Drivers/lvgl/src/widgets/scale/../../core/../misc/../font/../draw/../misc/../stdlib/lv_string.h ****  * GLOBAL PROTOTYPES
  29:Drivers/lvgl/src/widgets/scale/../../core/../misc/../font/../draw/../misc/../stdlib/lv_string.h ****  **********************/
  30:Drivers/lvgl/src/widgets/scale/../../core/../misc/../font/../draw/../misc/../stdlib/lv_string.h **** 
  31:Drivers/lvgl/src/widgets/scale/../../core/../misc/../font/../draw/../misc/../stdlib/lv_string.h **** /**
  32:Drivers/lvgl/src/widgets/scale/../../core/../misc/../font/../draw/../misc/../stdlib/lv_string.h ****  * @brief Copies a block of memory from a source address to a destination address.
  33:Drivers/lvgl/src/widgets/scale/../../core/../misc/../font/../draw/../misc/../stdlib/lv_string.h ****  * @param dst Pointer to the destination array where the content is to be copied.
  34:Drivers/lvgl/src/widgets/scale/../../core/../misc/../font/../draw/../misc/../stdlib/lv_string.h ****  * @param src Pointer to the source of data to be copied.
  35:Drivers/lvgl/src/widgets/scale/../../core/../misc/../font/../draw/../misc/../stdlib/lv_string.h ****  * @param len Number of bytes to copy.
  36:Drivers/lvgl/src/widgets/scale/../../core/../misc/../font/../draw/../misc/../stdlib/lv_string.h ****  * @return Pointer to the destination array.
  37:Drivers/lvgl/src/widgets/scale/../../core/../misc/../font/../draw/../misc/../stdlib/lv_string.h ****  * @note The function does not check for any overlapping of the source and destination memory block
  38:Drivers/lvgl/src/widgets/scale/../../core/../misc/../font/../draw/../misc/../stdlib/lv_string.h ****  */
  39:Drivers/lvgl/src/widgets/scale/../../core/../misc/../font/../draw/../misc/../stdlib/lv_string.h **** void * lv_memcpy(void * dst, const void * src, size_t len);
  40:Drivers/lvgl/src/widgets/scale/../../core/../misc/../font/../draw/../misc/../stdlib/lv_string.h **** 
  41:Drivers/lvgl/src/widgets/scale/../../core/../misc/../font/../draw/../misc/../stdlib/lv_string.h **** /**
  42:Drivers/lvgl/src/widgets/scale/../../core/../misc/../font/../draw/../misc/../stdlib/lv_string.h ****  * @brief Fills a block of memory with a specified value.
  43:Drivers/lvgl/src/widgets/scale/../../core/../misc/../font/../draw/../misc/../stdlib/lv_string.h ****  * @param dst Pointer to the destination array to fill with the specified value.
  44:Drivers/lvgl/src/widgets/scale/../../core/../misc/../font/../draw/../misc/../stdlib/lv_string.h ****  * @param v Value to be set. The value is passed as an int, but the function fills
  45:Drivers/lvgl/src/widgets/scale/../../core/../misc/../font/../draw/../misc/../stdlib/lv_string.h ****  *          the block of memory using the unsigned char conversion of this value.
  46:Drivers/lvgl/src/widgets/scale/../../core/../misc/../font/../draw/../misc/../stdlib/lv_string.h ****  * @param len Number of bytes to be set to the value.
  47:Drivers/lvgl/src/widgets/scale/../../core/../misc/../font/../draw/../misc/../stdlib/lv_string.h ****  */
  48:Drivers/lvgl/src/widgets/scale/../../core/../misc/../font/../draw/../misc/../stdlib/lv_string.h **** void lv_memset(void * dst, uint8_t v, size_t len);
  49:Drivers/lvgl/src/widgets/scale/../../core/../misc/../font/../draw/../misc/../stdlib/lv_string.h **** 
  50:Drivers/lvgl/src/widgets/scale/../../core/../misc/../font/../draw/../misc/../stdlib/lv_string.h **** /**
  51:Drivers/lvgl/src/widgets/scale/../../core/../misc/../font/../draw/../misc/../stdlib/lv_string.h ****  * @brief Move a block of memory from source to destination
  52:Drivers/lvgl/src/widgets/scale/../../core/../misc/../font/../draw/../misc/../stdlib/lv_string.h ****  * @param dst Pointer to the destination array where the content is to be copied.
  53:Drivers/lvgl/src/widgets/scale/../../core/../misc/../font/../draw/../misc/../stdlib/lv_string.h ****  * @param src Pointer to the source of data to be copied.
  54:Drivers/lvgl/src/widgets/scale/../../core/../misc/../font/../draw/../misc/../stdlib/lv_string.h ****  * @param len Number of bytes to copy
  55:Drivers/lvgl/src/widgets/scale/../../core/../misc/../font/../draw/../misc/../stdlib/lv_string.h ****  * @return Pointer to the destination array.
  56:Drivers/lvgl/src/widgets/scale/../../core/../misc/../font/../draw/../misc/../stdlib/lv_string.h ****  */
  57:Drivers/lvgl/src/widgets/scale/../../core/../misc/../font/../draw/../misc/../stdlib/lv_string.h **** void * lv_memmove(void * dst, const void * src, size_t len);
  58:Drivers/lvgl/src/widgets/scale/../../core/../misc/../font/../draw/../misc/../stdlib/lv_string.h **** 
  59:Drivers/lvgl/src/widgets/scale/../../core/../misc/../font/../draw/../misc/../stdlib/lv_string.h **** /**
  60:Drivers/lvgl/src/widgets/scale/../../core/../misc/../font/../draw/../misc/../stdlib/lv_string.h ****  * @brief This function will compare two memory blocks
  61:Drivers/lvgl/src/widgets/scale/../../core/../misc/../font/../draw/../misc/../stdlib/lv_string.h ****  * @param p1 Pointer to the first memory block
  62:Drivers/lvgl/src/widgets/scale/../../core/../misc/../font/../draw/../misc/../stdlib/lv_string.h ****  * @param p2 Pointer to the second memory block
  63:Drivers/lvgl/src/widgets/scale/../../core/../misc/../font/../draw/../misc/../stdlib/lv_string.h ****  * @param len Number of bytes to compare
  64:Drivers/lvgl/src/widgets/scale/../../core/../misc/../font/../draw/../misc/../stdlib/lv_string.h ****  * @return The difference between the value of the first unmatching byte.
  65:Drivers/lvgl/src/widgets/scale/../../core/../misc/../font/../draw/../misc/../stdlib/lv_string.h ****  */
  66:Drivers/lvgl/src/widgets/scale/../../core/../misc/../font/../draw/../misc/../stdlib/lv_string.h **** int lv_memcmp(const void * p1, const void * p2, size_t len);
  67:Drivers/lvgl/src/widgets/scale/../../core/../misc/../font/../draw/../misc/../stdlib/lv_string.h **** 
  68:Drivers/lvgl/src/widgets/scale/../../core/../misc/../font/../draw/../misc/../stdlib/lv_string.h **** /**
ARM GAS  /var/folders/qx/2_175_4n2s19vhvtspjhb3qh0000gn/T//ccmbJJmj.s 			page 214


  69:Drivers/lvgl/src/widgets/scale/../../core/../misc/../font/../draw/../misc/../stdlib/lv_string.h ****  * Same as `memset(dst, 0x00, len)`.
  70:Drivers/lvgl/src/widgets/scale/../../core/../misc/../font/../draw/../misc/../stdlib/lv_string.h ****  * @param dst pointer to the destination buffer
  71:Drivers/lvgl/src/widgets/scale/../../core/../misc/../font/../draw/../misc/../stdlib/lv_string.h ****  * @param len number of byte to set
  72:Drivers/lvgl/src/widgets/scale/../../core/../misc/../font/../draw/../misc/../stdlib/lv_string.h ****  */
  73:Drivers/lvgl/src/widgets/scale/../../core/../misc/../font/../draw/../misc/../stdlib/lv_string.h **** static inline void lv_memzero(void * dst, size_t len)
 7351              		.loc 4 73 20 view .LVU2356
 7352              	.LBB336:
  74:Drivers/lvgl/src/widgets/scale/../../core/../misc/../font/../draw/../misc/../stdlib/lv_string.h **** {
  75:Drivers/lvgl/src/widgets/scale/../../core/../misc/../font/../draw/../misc/../stdlib/lv_string.h ****     lv_memset(dst, 0x00, len);
 7353              		.loc 4 75 5 view .LVU2357
 7354 000e 3822     		movs	r2, #56
 7355 0010 0021     		movs	r1, #0
 7356 0012 FFF7FEFF 		bl	lv_memset
 7357              	.LVL816:
 7358              		.loc 4 75 5 is_stmt 0 view .LVU2358
 7359              	.LBE336:
 7360              	.LBE335:
 425:Drivers/lvgl/src/widgets/scale/lv_scale.c ****     section->last_tick_idx_in_section = LV_SCALE_TICK_IDX_DEFAULT_ID;
 7361              		.loc 1 425 5 is_stmt 1 view .LVU2359
 425:Drivers/lvgl/src/widgets/scale/lv_scale.c ****     section->last_tick_idx_in_section = LV_SCALE_TICK_IDX_DEFAULT_ID;
 7362              		.loc 1 425 40 is_stmt 0 view .LVU2360
 7363 0016 FF23     		movs	r3, #255
 7364 0018 6361     		str	r3, [r4, #20]
 426:Drivers/lvgl/src/widgets/scale/lv_scale.c ****     /* Initial range is [0..-1] to make it "neutral" (i.e. will not be drawn until user
 7365              		.loc 1 426 5 is_stmt 1 view .LVU2361
 426:Drivers/lvgl/src/widgets/scale/lv_scale.c ****     /* Initial range is [0..-1] to make it "neutral" (i.e. will not be drawn until user
 7366              		.loc 1 426 39 is_stmt 0 view .LVU2362
 7367 001a A361     		str	r3, [r4, #24]
 429:Drivers/lvgl/src/widgets/scale/lv_scale.c **** 
 7368              		.loc 1 429 5 is_stmt 1 view .LVU2363
 429:Drivers/lvgl/src/widgets/scale/lv_scale.c **** 
 7369              		.loc 1 429 24 is_stmt 0 view .LVU2364
 7370 001c 4FF0FF33 		mov	r3, #-1
 7371 0020 2361     		str	r3, [r4, #16]
 431:Drivers/lvgl/src/widgets/scale/lv_scale.c **** }
 7372              		.loc 1 431 5 is_stmt 1 view .LVU2365
 432:Drivers/lvgl/src/widgets/scale/lv_scale.c **** 
 7373              		.loc 1 432 1 is_stmt 0 view .LVU2366
 7374 0022 2046     		mov	r0, r4
 7375 0024 10BD     		pop	{r4, pc}
 7376              	.LVL817:
 7377              	.L388:
 7378              	.LCFI86:
 7379              		.cfi_def_cfa_offset 0
 7380              		.cfi_restore 4
 7381              		.cfi_restore 14
 416:Drivers/lvgl/src/widgets/scale/lv_scale.c **** 
 7382              		.loc 1 416 5 is_stmt 1 view .LVU2367
 416:Drivers/lvgl/src/widgets/scale/lv_scale.c **** 
 7383              		.loc 1 416 5 view .LVU2368
 416:Drivers/lvgl/src/widgets/scale/lv_scale.c **** 
 7384              		.loc 1 416 5 view .LVU2369
 416:Drivers/lvgl/src/widgets/scale/lv_scale.c **** 
 7385              		.loc 1 416 5 view .LVU2370
 416:Drivers/lvgl/src/widgets/scale/lv_scale.c **** 
 7386              		.loc 1 416 5 view .LVU2371
 7387 0026 FEE7     		b	.L388
ARM GAS  /var/folders/qx/2_175_4n2s19vhvtspjhb3qh0000gn/T//ccmbJJmj.s 			page 215


 7388              	.LVL818:
 7389              	.L390:
 7390              	.LCFI87:
 7391              		.cfi_def_cfa_offset 8
 7392              		.cfi_offset 4, -8
 7393              		.cfi_offset 14, -4
 420:Drivers/lvgl/src/widgets/scale/lv_scale.c ****     if(section == NULL) return NULL;
 7394              		.loc 1 420 5 view .LVU2372
 420:Drivers/lvgl/src/widgets/scale/lv_scale.c ****     if(section == NULL) return NULL;
 7395              		.loc 1 420 5 view .LVU2373
 420:Drivers/lvgl/src/widgets/scale/lv_scale.c ****     if(section == NULL) return NULL;
 7396              		.loc 1 420 5 view .LVU2374
 420:Drivers/lvgl/src/widgets/scale/lv_scale.c ****     if(section == NULL) return NULL;
 7397              		.loc 1 420 5 view .LVU2375
 420:Drivers/lvgl/src/widgets/scale/lv_scale.c ****     if(section == NULL) return NULL;
 7398              		.loc 1 420 5 view .LVU2376
 7399 0028 FEE7     		b	.L390
 7400              		.cfi_endproc
 7401              	.LFE199:
 7403              		.section	.text.lv_scale_set_section_min_value,"ax",%progbits
 7404              		.align	1
 7405              		.global	lv_scale_set_section_min_value
 7406              		.syntax unified
 7407              		.thumb
 7408              		.thumb_func
 7410              	lv_scale_set_section_min_value:
 7411              	.LVL819:
 7412              	.LFB201:
 445:Drivers/lvgl/src/widgets/scale/lv_scale.c ****     LV_ASSERT_OBJ(scale, MY_CLASS);
 7413              		.loc 1 445 1 view -0
 7414              		.cfi_startproc
 7415              		@ args = 0, pretend = 0, frame = 0
 7416              		@ frame_needed = 0, uses_anonymous_args = 0
 446:Drivers/lvgl/src/widgets/scale/lv_scale.c ****     LV_ASSERT_NULL(section);
 7417              		.loc 1 446 5 view .LVU2378
 446:Drivers/lvgl/src/widgets/scale/lv_scale.c ****     LV_ASSERT_NULL(section);
 7418              		.loc 1 446 5 view .LVU2379
 7419 0000 50B1     		cbz	r0, .L395
 445:Drivers/lvgl/src/widgets/scale/lv_scale.c ****     LV_ASSERT_OBJ(scale, MY_CLASS);
 7420              		.loc 1 445 1 is_stmt 0 view .LVU2380
 7421 0002 08B5     		push	{r3, lr}
 7422              	.LCFI88:
 7423              		.cfi_def_cfa_offset 8
 7424              		.cfi_offset 3, -8
 7425              		.cfi_offset 14, -4
 7426 0004 0346     		mov	r3, r0
 446:Drivers/lvgl/src/widgets/scale/lv_scale.c ****     LV_ASSERT_NULL(section);
 7427              		.loc 1 446 5 is_stmt 1 view .LVU2381
 446:Drivers/lvgl/src/widgets/scale/lv_scale.c ****     LV_ASSERT_NULL(section);
 7428              		.loc 1 446 35 view .LVU2382
 447:Drivers/lvgl/src/widgets/scale/lv_scale.c **** 
 7429              		.loc 1 447 5 view .LVU2383
 447:Drivers/lvgl/src/widgets/scale/lv_scale.c **** 
 7430              		.loc 1 447 5 view .LVU2384
 7431 0006 41B1     		cbz	r1, .L397
 447:Drivers/lvgl/src/widgets/scale/lv_scale.c **** 
 7432              		.loc 1 447 5 view .LVU2385
ARM GAS  /var/folders/qx/2_175_4n2s19vhvtspjhb3qh0000gn/T//ccmbJJmj.s 			page 216


 447:Drivers/lvgl/src/widgets/scale/lv_scale.c **** 
 7433              		.loc 1 447 28 view .LVU2386
 449:Drivers/lvgl/src/widgets/scale/lv_scale.c ****     section->range_min = min;
 7434              		.loc 1 449 5 view .LVU2387
 449:Drivers/lvgl/src/widgets/scale/lv_scale.c ****     section->range_min = min;
 7435              		.loc 1 449 15 is_stmt 0 view .LVU2388
 7436 0008 C868     		ldr	r0, [r1, #12]
 7437              	.LVL820:
 449:Drivers/lvgl/src/widgets/scale/lv_scale.c ****     section->range_min = min;
 7438              		.loc 1 449 7 view .LVU2389
 7439 000a 9042     		cmp	r0, r2
 7440 000c 03D0     		beq	.L393
 450:Drivers/lvgl/src/widgets/scale/lv_scale.c ****     lv_obj_invalidate(scale);
 7441              		.loc 1 450 5 is_stmt 1 view .LVU2390
 450:Drivers/lvgl/src/widgets/scale/lv_scale.c ****     lv_obj_invalidate(scale);
 7442              		.loc 1 450 24 is_stmt 0 view .LVU2391
 7443 000e CA60     		str	r2, [r1, #12]
 451:Drivers/lvgl/src/widgets/scale/lv_scale.c **** }
 7444              		.loc 1 451 5 is_stmt 1 view .LVU2392
 7445 0010 1846     		mov	r0, r3
 7446 0012 FFF7FEFF 		bl	lv_obj_invalidate
 7447              	.LVL821:
 7448              	.L393:
 452:Drivers/lvgl/src/widgets/scale/lv_scale.c **** 
 7449              		.loc 1 452 1 is_stmt 0 view .LVU2393
 7450 0016 08BD     		pop	{r3, pc}
 7451              	.LVL822:
 7452              	.L395:
 7453              	.LCFI89:
 7454              		.cfi_def_cfa_offset 0
 7455              		.cfi_restore 3
 7456              		.cfi_restore 14
 446:Drivers/lvgl/src/widgets/scale/lv_scale.c ****     LV_ASSERT_NULL(section);
 7457              		.loc 1 446 5 is_stmt 1 view .LVU2394
 446:Drivers/lvgl/src/widgets/scale/lv_scale.c ****     LV_ASSERT_NULL(section);
 7458              		.loc 1 446 5 view .LVU2395
 446:Drivers/lvgl/src/widgets/scale/lv_scale.c ****     LV_ASSERT_NULL(section);
 7459              		.loc 1 446 5 view .LVU2396
 446:Drivers/lvgl/src/widgets/scale/lv_scale.c ****     LV_ASSERT_NULL(section);
 7460              		.loc 1 446 5 view .LVU2397
 446:Drivers/lvgl/src/widgets/scale/lv_scale.c ****     LV_ASSERT_NULL(section);
 7461              		.loc 1 446 5 view .LVU2398
 7462 0018 FEE7     		b	.L395
 7463              	.L397:
 7464              	.LCFI90:
 7465              		.cfi_def_cfa_offset 8
 7466              		.cfi_offset 3, -8
 7467              		.cfi_offset 14, -4
 447:Drivers/lvgl/src/widgets/scale/lv_scale.c **** 
 7468              		.loc 1 447 5 view .LVU2399
 447:Drivers/lvgl/src/widgets/scale/lv_scale.c **** 
 7469              		.loc 1 447 5 view .LVU2400
 447:Drivers/lvgl/src/widgets/scale/lv_scale.c **** 
 7470              		.loc 1 447 5 view .LVU2401
 447:Drivers/lvgl/src/widgets/scale/lv_scale.c **** 
 7471              		.loc 1 447 5 view .LVU2402
 447:Drivers/lvgl/src/widgets/scale/lv_scale.c **** 
ARM GAS  /var/folders/qx/2_175_4n2s19vhvtspjhb3qh0000gn/T//ccmbJJmj.s 			page 217


 7472              		.loc 1 447 5 view .LVU2403
 7473 001a FEE7     		b	.L397
 7474              		.cfi_endproc
 7475              	.LFE201:
 7477              		.section	.text.scale_section_min_value_observer_cb,"ax",%progbits
 7478              		.align	1
 7479              		.syntax unified
 7480              		.thumb
 7481              		.thumb_func
 7483              	scale_section_min_value_observer_cb:
 7484              	.LVL823:
 7485              	.LFB239:
1875:Drivers/lvgl/src/widgets/scale/lv_scale.c **** 
1876:Drivers/lvgl/src/widgets/scale/lv_scale.c **** #if LV_USE_OBSERVER
1877:Drivers/lvgl/src/widgets/scale/lv_scale.c **** 
1878:Drivers/lvgl/src/widgets/scale/lv_scale.c **** static void scale_section_min_value_observer_cb(lv_observer_t * observer, lv_subject_t * subject)
1879:Drivers/lvgl/src/widgets/scale/lv_scale.c **** {
 7486              		.loc 1 1879 1 view -0
 7487              		.cfi_startproc
 7488              		@ args = 0, pretend = 0, frame = 0
 7489              		@ frame_needed = 0, uses_anonymous_args = 0
 7490              		.loc 1 1879 1 is_stmt 0 view .LVU2405
 7491 0000 08B5     		push	{r3, lr}
 7492              	.LCFI91:
 7493              		.cfi_def_cfa_offset 8
 7494              		.cfi_offset 3, -8
 7495              		.cfi_offset 14, -4
1880:Drivers/lvgl/src/widgets/scale/lv_scale.c ****     lv_scale_section_t * section = observer->user_data;
 7496              		.loc 1 1880 5 is_stmt 1 view .LVU2406
 7497              	.LVL824:
1881:Drivers/lvgl/src/widgets/scale/lv_scale.c ****     lv_scale_set_section_min_value(observer->target, section, subject->value.num);
 7498              		.loc 1 1881 5 view .LVU2407
 7499 0002 CA68     		ldr	r2, [r1, #12]
 7500 0004 C168     		ldr	r1, [r0, #12]
 7501              	.LVL825:
 7502              		.loc 1 1881 5 is_stmt 0 view .LVU2408
 7503 0006 8068     		ldr	r0, [r0, #8]
 7504              	.LVL826:
 7505              		.loc 1 1881 5 view .LVU2409
 7506 0008 FFF7FEFF 		bl	lv_scale_set_section_min_value
 7507              	.LVL827:
1882:Drivers/lvgl/src/widgets/scale/lv_scale.c **** }
 7508              		.loc 1 1882 1 view .LVU2410
 7509 000c 08BD     		pop	{r3, pc}
 7510              		.cfi_endproc
 7511              	.LFE239:
 7513              		.section	.text.lv_scale_set_section_max_value,"ax",%progbits
 7514              		.align	1
 7515              		.global	lv_scale_set_section_max_value
 7516              		.syntax unified
 7517              		.thumb
 7518              		.thumb_func
 7520              	lv_scale_set_section_max_value:
 7521              	.LVL828:
 7522              	.LFB202:
 455:Drivers/lvgl/src/widgets/scale/lv_scale.c ****     LV_ASSERT_OBJ(scale, MY_CLASS);
 7523              		.loc 1 455 1 is_stmt 1 view -0
ARM GAS  /var/folders/qx/2_175_4n2s19vhvtspjhb3qh0000gn/T//ccmbJJmj.s 			page 218


 7524              		.cfi_startproc
 7525              		@ args = 0, pretend = 0, frame = 0
 7526              		@ frame_needed = 0, uses_anonymous_args = 0
 456:Drivers/lvgl/src/widgets/scale/lv_scale.c ****     LV_ASSERT_NULL(section);
 7527              		.loc 1 456 5 view .LVU2412
 456:Drivers/lvgl/src/widgets/scale/lv_scale.c ****     LV_ASSERT_NULL(section);
 7528              		.loc 1 456 5 view .LVU2413
 7529 0000 50B1     		cbz	r0, .L405
 455:Drivers/lvgl/src/widgets/scale/lv_scale.c ****     LV_ASSERT_OBJ(scale, MY_CLASS);
 7530              		.loc 1 455 1 is_stmt 0 view .LVU2414
 7531 0002 08B5     		push	{r3, lr}
 7532              	.LCFI92:
 7533              		.cfi_def_cfa_offset 8
 7534              		.cfi_offset 3, -8
 7535              		.cfi_offset 14, -4
 7536 0004 0346     		mov	r3, r0
 456:Drivers/lvgl/src/widgets/scale/lv_scale.c ****     LV_ASSERT_NULL(section);
 7537              		.loc 1 456 5 is_stmt 1 view .LVU2415
 456:Drivers/lvgl/src/widgets/scale/lv_scale.c ****     LV_ASSERT_NULL(section);
 7538              		.loc 1 456 35 view .LVU2416
 457:Drivers/lvgl/src/widgets/scale/lv_scale.c **** 
 7539              		.loc 1 457 5 view .LVU2417
 457:Drivers/lvgl/src/widgets/scale/lv_scale.c **** 
 7540              		.loc 1 457 5 view .LVU2418
 7541 0006 41B1     		cbz	r1, .L407
 457:Drivers/lvgl/src/widgets/scale/lv_scale.c **** 
 7542              		.loc 1 457 5 view .LVU2419
 457:Drivers/lvgl/src/widgets/scale/lv_scale.c **** 
 7543              		.loc 1 457 28 view .LVU2420
 459:Drivers/lvgl/src/widgets/scale/lv_scale.c ****     section->range_max = max;
 7544              		.loc 1 459 5 view .LVU2421
 459:Drivers/lvgl/src/widgets/scale/lv_scale.c ****     section->range_max = max;
 7545              		.loc 1 459 15 is_stmt 0 view .LVU2422
 7546 0008 0869     		ldr	r0, [r1, #16]
 7547              	.LVL829:
 459:Drivers/lvgl/src/widgets/scale/lv_scale.c ****     section->range_max = max;
 7548              		.loc 1 459 7 view .LVU2423
 7549 000a 9042     		cmp	r0, r2
 7550 000c 03D0     		beq	.L403
 460:Drivers/lvgl/src/widgets/scale/lv_scale.c ****     lv_obj_invalidate(scale);
 7551              		.loc 1 460 5 is_stmt 1 view .LVU2424
 460:Drivers/lvgl/src/widgets/scale/lv_scale.c ****     lv_obj_invalidate(scale);
 7552              		.loc 1 460 24 is_stmt 0 view .LVU2425
 7553 000e 0A61     		str	r2, [r1, #16]
 461:Drivers/lvgl/src/widgets/scale/lv_scale.c **** }
 7554              		.loc 1 461 5 is_stmt 1 view .LVU2426
 7555 0010 1846     		mov	r0, r3
 7556 0012 FFF7FEFF 		bl	lv_obj_invalidate
 7557              	.LVL830:
 7558              	.L403:
 462:Drivers/lvgl/src/widgets/scale/lv_scale.c **** 
 7559              		.loc 1 462 1 is_stmt 0 view .LVU2427
 7560 0016 08BD     		pop	{r3, pc}
 7561              	.LVL831:
 7562              	.L405:
 7563              	.LCFI93:
 7564              		.cfi_def_cfa_offset 0
ARM GAS  /var/folders/qx/2_175_4n2s19vhvtspjhb3qh0000gn/T//ccmbJJmj.s 			page 219


 7565              		.cfi_restore 3
 7566              		.cfi_restore 14
 456:Drivers/lvgl/src/widgets/scale/lv_scale.c ****     LV_ASSERT_NULL(section);
 7567              		.loc 1 456 5 is_stmt 1 view .LVU2428
 456:Drivers/lvgl/src/widgets/scale/lv_scale.c ****     LV_ASSERT_NULL(section);
 7568              		.loc 1 456 5 view .LVU2429
 456:Drivers/lvgl/src/widgets/scale/lv_scale.c ****     LV_ASSERT_NULL(section);
 7569              		.loc 1 456 5 view .LVU2430
 456:Drivers/lvgl/src/widgets/scale/lv_scale.c ****     LV_ASSERT_NULL(section);
 7570              		.loc 1 456 5 view .LVU2431
 456:Drivers/lvgl/src/widgets/scale/lv_scale.c ****     LV_ASSERT_NULL(section);
 7571              		.loc 1 456 5 view .LVU2432
 7572 0018 FEE7     		b	.L405
 7573              	.L407:
 7574              	.LCFI94:
 7575              		.cfi_def_cfa_offset 8
 7576              		.cfi_offset 3, -8
 7577              		.cfi_offset 14, -4
 457:Drivers/lvgl/src/widgets/scale/lv_scale.c **** 
 7578              		.loc 1 457 5 view .LVU2433
 457:Drivers/lvgl/src/widgets/scale/lv_scale.c **** 
 7579              		.loc 1 457 5 view .LVU2434
 457:Drivers/lvgl/src/widgets/scale/lv_scale.c **** 
 7580              		.loc 1 457 5 view .LVU2435
 457:Drivers/lvgl/src/widgets/scale/lv_scale.c **** 
 7581              		.loc 1 457 5 view .LVU2436
 457:Drivers/lvgl/src/widgets/scale/lv_scale.c **** 
 7582              		.loc 1 457 5 view .LVU2437
 7583 001a FEE7     		b	.L407
 7584              		.cfi_endproc
 7585              	.LFE202:
 7587              		.section	.text.lv_scale_set_section_range,"ax",%progbits
 7588              		.align	1
 7589              		.global	lv_scale_set_section_range
 7590              		.syntax unified
 7591              		.thumb
 7592              		.thumb_func
 7594              	lv_scale_set_section_range:
 7595              	.LVL832:
 7596              	.LFB200:
 436:Drivers/lvgl/src/widgets/scale/lv_scale.c ****     LV_ASSERT_OBJ(scale, MY_CLASS);
 7597              		.loc 1 436 1 view -0
 7598              		.cfi_startproc
 7599              		@ args = 0, pretend = 0, frame = 0
 7600              		@ frame_needed = 0, uses_anonymous_args = 0
 437:Drivers/lvgl/src/widgets/scale/lv_scale.c ****     LV_ASSERT_NULL(section);
 7601              		.loc 1 437 5 view .LVU2439
 437:Drivers/lvgl/src/widgets/scale/lv_scale.c ****     LV_ASSERT_NULL(section);
 7602              		.loc 1 437 5 view .LVU2440
 7603 0000 60B1     		cbz	r0, .L413
 436:Drivers/lvgl/src/widgets/scale/lv_scale.c ****     LV_ASSERT_OBJ(scale, MY_CLASS);
 7604              		.loc 1 436 1 is_stmt 0 view .LVU2441
 7605 0002 70B5     		push	{r4, r5, r6, lr}
 7606              	.LCFI95:
 7607              		.cfi_def_cfa_offset 16
 7608              		.cfi_offset 4, -16
 7609              		.cfi_offset 5, -12
ARM GAS  /var/folders/qx/2_175_4n2s19vhvtspjhb3qh0000gn/T//ccmbJJmj.s 			page 220


 7610              		.cfi_offset 6, -8
 7611              		.cfi_offset 14, -4
 7612 0004 0C46     		mov	r4, r1
 7613 0006 1D46     		mov	r5, r3
 7614 0008 0646     		mov	r6, r0
 437:Drivers/lvgl/src/widgets/scale/lv_scale.c ****     LV_ASSERT_NULL(section);
 7615              		.loc 1 437 5 is_stmt 1 view .LVU2442
 437:Drivers/lvgl/src/widgets/scale/lv_scale.c ****     LV_ASSERT_NULL(section);
 7616              		.loc 1 437 35 view .LVU2443
 438:Drivers/lvgl/src/widgets/scale/lv_scale.c **** 
 7617              		.loc 1 438 5 view .LVU2444
 438:Drivers/lvgl/src/widgets/scale/lv_scale.c **** 
 7618              		.loc 1 438 5 view .LVU2445
 7619 000a 41B1     		cbz	r1, .L415
 438:Drivers/lvgl/src/widgets/scale/lv_scale.c **** 
 7620              		.loc 1 438 5 view .LVU2446
 438:Drivers/lvgl/src/widgets/scale/lv_scale.c **** 
 7621              		.loc 1 438 28 view .LVU2447
 440:Drivers/lvgl/src/widgets/scale/lv_scale.c ****     lv_scale_set_section_max_value(scale, section, max);
 7622              		.loc 1 440 5 view .LVU2448
 7623 000c FFF7FEFF 		bl	lv_scale_set_section_min_value
 7624              	.LVL833:
 441:Drivers/lvgl/src/widgets/scale/lv_scale.c **** }
 7625              		.loc 1 441 5 view .LVU2449
 7626 0010 2A46     		mov	r2, r5
 7627 0012 2146     		mov	r1, r4
 7628 0014 3046     		mov	r0, r6
 7629 0016 FFF7FEFF 		bl	lv_scale_set_section_max_value
 7630              	.LVL834:
 442:Drivers/lvgl/src/widgets/scale/lv_scale.c **** 
 7631              		.loc 1 442 1 is_stmt 0 view .LVU2450
 7632 001a 70BD     		pop	{r4, r5, r6, pc}
 7633              	.LVL835:
 7634              	.L413:
 7635              	.LCFI96:
 7636              		.cfi_def_cfa_offset 0
 7637              		.cfi_restore 4
 7638              		.cfi_restore 5
 7639              		.cfi_restore 6
 7640              		.cfi_restore 14
 437:Drivers/lvgl/src/widgets/scale/lv_scale.c ****     LV_ASSERT_NULL(section);
 7641              		.loc 1 437 5 is_stmt 1 view .LVU2451
 437:Drivers/lvgl/src/widgets/scale/lv_scale.c ****     LV_ASSERT_NULL(section);
 7642              		.loc 1 437 5 view .LVU2452
 437:Drivers/lvgl/src/widgets/scale/lv_scale.c ****     LV_ASSERT_NULL(section);
 7643              		.loc 1 437 5 view .LVU2453
 437:Drivers/lvgl/src/widgets/scale/lv_scale.c ****     LV_ASSERT_NULL(section);
 7644              		.loc 1 437 5 view .LVU2454
 437:Drivers/lvgl/src/widgets/scale/lv_scale.c ****     LV_ASSERT_NULL(section);
 7645              		.loc 1 437 5 view .LVU2455
 7646 001c FEE7     		b	.L413
 7647              	.L415:
 7648              	.LCFI97:
 7649              		.cfi_def_cfa_offset 16
 7650              		.cfi_offset 4, -16
 7651              		.cfi_offset 5, -12
 7652              		.cfi_offset 6, -8
ARM GAS  /var/folders/qx/2_175_4n2s19vhvtspjhb3qh0000gn/T//ccmbJJmj.s 			page 221


 7653              		.cfi_offset 14, -4
 438:Drivers/lvgl/src/widgets/scale/lv_scale.c **** 
 7654              		.loc 1 438 5 view .LVU2456
 438:Drivers/lvgl/src/widgets/scale/lv_scale.c **** 
 7655              		.loc 1 438 5 view .LVU2457
 438:Drivers/lvgl/src/widgets/scale/lv_scale.c **** 
 7656              		.loc 1 438 5 view .LVU2458
 438:Drivers/lvgl/src/widgets/scale/lv_scale.c **** 
 7657              		.loc 1 438 5 view .LVU2459
 438:Drivers/lvgl/src/widgets/scale/lv_scale.c **** 
 7658              		.loc 1 438 5 view .LVU2460
 7659 001e FEE7     		b	.L415
 7660              		.cfi_endproc
 7661              	.LFE200:
 7663              		.section	.text.scale_section_max_value_observer_cb,"ax",%progbits
 7664              		.align	1
 7665              		.syntax unified
 7666              		.thumb
 7667              		.thumb_func
 7669              	scale_section_max_value_observer_cb:
 7670              	.LVL836:
 7671              	.LFB240:
1883:Drivers/lvgl/src/widgets/scale/lv_scale.c **** 
1884:Drivers/lvgl/src/widgets/scale/lv_scale.c **** static void scale_section_max_value_observer_cb(lv_observer_t * observer, lv_subject_t * subject)
1885:Drivers/lvgl/src/widgets/scale/lv_scale.c **** {
 7672              		.loc 1 1885 1 view -0
 7673              		.cfi_startproc
 7674              		@ args = 0, pretend = 0, frame = 0
 7675              		@ frame_needed = 0, uses_anonymous_args = 0
 7676              		.loc 1 1885 1 is_stmt 0 view .LVU2462
 7677 0000 08B5     		push	{r3, lr}
 7678              	.LCFI98:
 7679              		.cfi_def_cfa_offset 8
 7680              		.cfi_offset 3, -8
 7681              		.cfi_offset 14, -4
1886:Drivers/lvgl/src/widgets/scale/lv_scale.c ****     lv_scale_section_t * section = observer->user_data;
 7682              		.loc 1 1886 5 is_stmt 1 view .LVU2463
 7683              	.LVL837:
1887:Drivers/lvgl/src/widgets/scale/lv_scale.c ****     lv_scale_set_section_max_value(observer->target, section, subject->value.num);
 7684              		.loc 1 1887 5 view .LVU2464
 7685 0002 CA68     		ldr	r2, [r1, #12]
 7686 0004 C168     		ldr	r1, [r0, #12]
 7687              	.LVL838:
 7688              		.loc 1 1887 5 is_stmt 0 view .LVU2465
 7689 0006 8068     		ldr	r0, [r0, #8]
 7690              	.LVL839:
 7691              		.loc 1 1887 5 view .LVU2466
 7692 0008 FFF7FEFF 		bl	lv_scale_set_section_max_value
 7693              	.LVL840:
1888:Drivers/lvgl/src/widgets/scale/lv_scale.c **** }
 7694              		.loc 1 1888 1 view .LVU2467
 7695 000c 08BD     		pop	{r3, pc}
 7696              		.cfi_endproc
 7697              	.LFE240:
 7699              		.section	.text.lv_scale_section_set_range,"ax",%progbits
 7700              		.align	1
 7701              		.global	lv_scale_section_set_range
ARM GAS  /var/folders/qx/2_175_4n2s19vhvtspjhb3qh0000gn/T//ccmbJJmj.s 			page 222


 7702              		.syntax unified
 7703              		.thumb
 7704              		.thumb_func
 7706              	lv_scale_section_set_range:
 7707              	.LVL841:
 7708              	.LFB203:
 465:Drivers/lvgl/src/widgets/scale/lv_scale.c ****     if(NULL == section) return;
 7709              		.loc 1 465 1 is_stmt 1 view -0
 7710              		.cfi_startproc
 7711              		@ args = 0, pretend = 0, frame = 0
 7712              		@ frame_needed = 0, uses_anonymous_args = 0
 7713              		@ link register save eliminated.
 466:Drivers/lvgl/src/widgets/scale/lv_scale.c **** 
 7714              		.loc 1 466 5 view .LVU2469
 466:Drivers/lvgl/src/widgets/scale/lv_scale.c **** 
 7715              		.loc 1 466 7 is_stmt 0 view .LVU2470
 7716 0000 08B1     		cbz	r0, .L420
 468:Drivers/lvgl/src/widgets/scale/lv_scale.c ****     section->range_max = max;
 7717              		.loc 1 468 5 is_stmt 1 view .LVU2471
 468:Drivers/lvgl/src/widgets/scale/lv_scale.c ****     section->range_max = max;
 7718              		.loc 1 468 24 is_stmt 0 view .LVU2472
 7719 0002 C160     		str	r1, [r0, #12]
 469:Drivers/lvgl/src/widgets/scale/lv_scale.c **** }
 7720              		.loc 1 469 5 is_stmt 1 view .LVU2473
 469:Drivers/lvgl/src/widgets/scale/lv_scale.c **** }
 7721              		.loc 1 469 24 is_stmt 0 view .LVU2474
 7722 0004 0261     		str	r2, [r0, #16]
 7723              	.L420:
 470:Drivers/lvgl/src/widgets/scale/lv_scale.c **** 
 7724              		.loc 1 470 1 view .LVU2475
 7725 0006 7047     		bx	lr
 7726              		.cfi_endproc
 7727              	.LFE203:
 7729              		.section	.text.lv_scale_set_section_style_main,"ax",%progbits
 7730              		.align	1
 7731              		.global	lv_scale_set_section_style_main
 7732              		.syntax unified
 7733              		.thumb
 7734              		.thumb_func
 7736              	lv_scale_set_section_style_main:
 7737              	.LVL842:
 7738              	.LFB204:
 474:Drivers/lvgl/src/widgets/scale/lv_scale.c ****     LV_ASSERT_OBJ(scale, MY_CLASS);
 7739              		.loc 1 474 1 is_stmt 1 view -0
 7740              		.cfi_startproc
 7741              		@ args = 0, pretend = 0, frame = 0
 7742              		@ frame_needed = 0, uses_anonymous_args = 0
 475:Drivers/lvgl/src/widgets/scale/lv_scale.c ****     LV_ASSERT_NULL(section);
 7743              		.loc 1 475 5 view .LVU2477
 475:Drivers/lvgl/src/widgets/scale/lv_scale.c ****     LV_ASSERT_NULL(section);
 7744              		.loc 1 475 5 view .LVU2478
 7745 0000 28B1     		cbz	r0, .L424
 474:Drivers/lvgl/src/widgets/scale/lv_scale.c ****     LV_ASSERT_OBJ(scale, MY_CLASS);
 7746              		.loc 1 474 1 is_stmt 0 view .LVU2479
 7747 0002 08B5     		push	{r3, lr}
 7748              	.LCFI99:
 7749              		.cfi_def_cfa_offset 8
ARM GAS  /var/folders/qx/2_175_4n2s19vhvtspjhb3qh0000gn/T//ccmbJJmj.s 			page 223


 7750              		.cfi_offset 3, -8
 7751              		.cfi_offset 14, -4
 475:Drivers/lvgl/src/widgets/scale/lv_scale.c ****     LV_ASSERT_NULL(section);
 7752              		.loc 1 475 5 is_stmt 1 view .LVU2480
 475:Drivers/lvgl/src/widgets/scale/lv_scale.c ****     LV_ASSERT_NULL(section);
 7753              		.loc 1 475 35 view .LVU2481
 476:Drivers/lvgl/src/widgets/scale/lv_scale.c **** 
 7754              		.loc 1 476 5 view .LVU2482
 476:Drivers/lvgl/src/widgets/scale/lv_scale.c **** 
 7755              		.loc 1 476 5 view .LVU2483
 7756 0004 21B1     		cbz	r1, .L426
 476:Drivers/lvgl/src/widgets/scale/lv_scale.c **** 
 7757              		.loc 1 476 5 view .LVU2484
 476:Drivers/lvgl/src/widgets/scale/lv_scale.c **** 
 7758              		.loc 1 476 28 view .LVU2485
 478:Drivers/lvgl/src/widgets/scale/lv_scale.c ****     lv_obj_invalidate(scale);
 7759              		.loc 1 478 5 view .LVU2486
 478:Drivers/lvgl/src/widgets/scale/lv_scale.c ****     lv_obj_invalidate(scale);
 7760              		.loc 1 478 25 is_stmt 0 view .LVU2487
 7761 0006 0A60     		str	r2, [r1]
 479:Drivers/lvgl/src/widgets/scale/lv_scale.c **** }
 7762              		.loc 1 479 5 is_stmt 1 view .LVU2488
 7763 0008 FFF7FEFF 		bl	lv_obj_invalidate
 7764              	.LVL843:
 480:Drivers/lvgl/src/widgets/scale/lv_scale.c **** 
 7765              		.loc 1 480 1 is_stmt 0 view .LVU2489
 7766 000c 08BD     		pop	{r3, pc}
 7767              	.LVL844:
 7768              	.L424:
 7769              	.LCFI100:
 7770              		.cfi_def_cfa_offset 0
 7771              		.cfi_restore 3
 7772              		.cfi_restore 14
 475:Drivers/lvgl/src/widgets/scale/lv_scale.c ****     LV_ASSERT_NULL(section);
 7773              		.loc 1 475 5 is_stmt 1 view .LVU2490
 475:Drivers/lvgl/src/widgets/scale/lv_scale.c ****     LV_ASSERT_NULL(section);
 7774              		.loc 1 475 5 view .LVU2491
 475:Drivers/lvgl/src/widgets/scale/lv_scale.c ****     LV_ASSERT_NULL(section);
 7775              		.loc 1 475 5 view .LVU2492
 475:Drivers/lvgl/src/widgets/scale/lv_scale.c ****     LV_ASSERT_NULL(section);
 7776              		.loc 1 475 5 view .LVU2493
 475:Drivers/lvgl/src/widgets/scale/lv_scale.c ****     LV_ASSERT_NULL(section);
 7777              		.loc 1 475 5 view .LVU2494
 7778 000e FEE7     		b	.L424
 7779              	.L426:
 7780              	.LCFI101:
 7781              		.cfi_def_cfa_offset 8
 7782              		.cfi_offset 3, -8
 7783              		.cfi_offset 14, -4
 476:Drivers/lvgl/src/widgets/scale/lv_scale.c **** 
 7784              		.loc 1 476 5 view .LVU2495
 476:Drivers/lvgl/src/widgets/scale/lv_scale.c **** 
 7785              		.loc 1 476 5 view .LVU2496
 476:Drivers/lvgl/src/widgets/scale/lv_scale.c **** 
 7786              		.loc 1 476 5 view .LVU2497
 476:Drivers/lvgl/src/widgets/scale/lv_scale.c **** 
 7787              		.loc 1 476 5 view .LVU2498
ARM GAS  /var/folders/qx/2_175_4n2s19vhvtspjhb3qh0000gn/T//ccmbJJmj.s 			page 224


 476:Drivers/lvgl/src/widgets/scale/lv_scale.c **** 
 7788              		.loc 1 476 5 view .LVU2499
 7789 0010 FEE7     		b	.L426
 7790              		.cfi_endproc
 7791              	.LFE204:
 7793              		.section	.text.lv_scale_set_section_style_indicator,"ax",%progbits
 7794              		.align	1
 7795              		.global	lv_scale_set_section_style_indicator
 7796              		.syntax unified
 7797              		.thumb
 7798              		.thumb_func
 7800              	lv_scale_set_section_style_indicator:
 7801              	.LVL845:
 7802              	.LFB205:
 483:Drivers/lvgl/src/widgets/scale/lv_scale.c ****     LV_ASSERT_OBJ(scale, MY_CLASS);
 7803              		.loc 1 483 1 view -0
 7804              		.cfi_startproc
 7805              		@ args = 0, pretend = 0, frame = 0
 7806              		@ frame_needed = 0, uses_anonymous_args = 0
 484:Drivers/lvgl/src/widgets/scale/lv_scale.c ****     LV_ASSERT_NULL(section);
 7807              		.loc 1 484 5 view .LVU2501
 484:Drivers/lvgl/src/widgets/scale/lv_scale.c ****     LV_ASSERT_NULL(section);
 7808              		.loc 1 484 5 view .LVU2502
 7809 0000 28B1     		cbz	r0, .L431
 483:Drivers/lvgl/src/widgets/scale/lv_scale.c ****     LV_ASSERT_OBJ(scale, MY_CLASS);
 7810              		.loc 1 483 1 is_stmt 0 view .LVU2503
 7811 0002 08B5     		push	{r3, lr}
 7812              	.LCFI102:
 7813              		.cfi_def_cfa_offset 8
 7814              		.cfi_offset 3, -8
 7815              		.cfi_offset 14, -4
 484:Drivers/lvgl/src/widgets/scale/lv_scale.c ****     LV_ASSERT_NULL(section);
 7816              		.loc 1 484 5 is_stmt 1 view .LVU2504
 484:Drivers/lvgl/src/widgets/scale/lv_scale.c ****     LV_ASSERT_NULL(section);
 7817              		.loc 1 484 35 view .LVU2505
 485:Drivers/lvgl/src/widgets/scale/lv_scale.c **** 
 7818              		.loc 1 485 5 view .LVU2506
 485:Drivers/lvgl/src/widgets/scale/lv_scale.c **** 
 7819              		.loc 1 485 5 view .LVU2507
 7820 0004 21B1     		cbz	r1, .L433
 485:Drivers/lvgl/src/widgets/scale/lv_scale.c **** 
 7821              		.loc 1 485 5 view .LVU2508
 485:Drivers/lvgl/src/widgets/scale/lv_scale.c **** 
 7822              		.loc 1 485 28 view .LVU2509
 487:Drivers/lvgl/src/widgets/scale/lv_scale.c ****     lv_obj_invalidate(scale);
 7823              		.loc 1 487 5 view .LVU2510
 487:Drivers/lvgl/src/widgets/scale/lv_scale.c ****     lv_obj_invalidate(scale);
 7824              		.loc 1 487 30 is_stmt 0 view .LVU2511
 7825 0006 4A60     		str	r2, [r1, #4]
 488:Drivers/lvgl/src/widgets/scale/lv_scale.c **** }
 7826              		.loc 1 488 5 is_stmt 1 view .LVU2512
 7827 0008 FFF7FEFF 		bl	lv_obj_invalidate
 7828              	.LVL846:
 489:Drivers/lvgl/src/widgets/scale/lv_scale.c **** 
 7829              		.loc 1 489 1 is_stmt 0 view .LVU2513
 7830 000c 08BD     		pop	{r3, pc}
 7831              	.LVL847:
ARM GAS  /var/folders/qx/2_175_4n2s19vhvtspjhb3qh0000gn/T//ccmbJJmj.s 			page 225


 7832              	.L431:
 7833              	.LCFI103:
 7834              		.cfi_def_cfa_offset 0
 7835              		.cfi_restore 3
 7836              		.cfi_restore 14
 484:Drivers/lvgl/src/widgets/scale/lv_scale.c ****     LV_ASSERT_NULL(section);
 7837              		.loc 1 484 5 is_stmt 1 view .LVU2514
 484:Drivers/lvgl/src/widgets/scale/lv_scale.c ****     LV_ASSERT_NULL(section);
 7838              		.loc 1 484 5 view .LVU2515
 484:Drivers/lvgl/src/widgets/scale/lv_scale.c ****     LV_ASSERT_NULL(section);
 7839              		.loc 1 484 5 view .LVU2516
 484:Drivers/lvgl/src/widgets/scale/lv_scale.c ****     LV_ASSERT_NULL(section);
 7840              		.loc 1 484 5 view .LVU2517
 484:Drivers/lvgl/src/widgets/scale/lv_scale.c ****     LV_ASSERT_NULL(section);
 7841              		.loc 1 484 5 view .LVU2518
 7842 000e FEE7     		b	.L431
 7843              	.L433:
 7844              	.LCFI104:
 7845              		.cfi_def_cfa_offset 8
 7846              		.cfi_offset 3, -8
 7847              		.cfi_offset 14, -4
 485:Drivers/lvgl/src/widgets/scale/lv_scale.c **** 
 7848              		.loc 1 485 5 view .LVU2519
 485:Drivers/lvgl/src/widgets/scale/lv_scale.c **** 
 7849              		.loc 1 485 5 view .LVU2520
 485:Drivers/lvgl/src/widgets/scale/lv_scale.c **** 
 7850              		.loc 1 485 5 view .LVU2521
 485:Drivers/lvgl/src/widgets/scale/lv_scale.c **** 
 7851              		.loc 1 485 5 view .LVU2522
 485:Drivers/lvgl/src/widgets/scale/lv_scale.c **** 
 7852              		.loc 1 485 5 view .LVU2523
 7853 0010 FEE7     		b	.L433
 7854              		.cfi_endproc
 7855              	.LFE205:
 7857              		.section	.text.lv_scale_set_section_style_items,"ax",%progbits
 7858              		.align	1
 7859              		.global	lv_scale_set_section_style_items
 7860              		.syntax unified
 7861              		.thumb
 7862              		.thumb_func
 7864              	lv_scale_set_section_style_items:
 7865              	.LVL848:
 7866              	.LFB206:
 492:Drivers/lvgl/src/widgets/scale/lv_scale.c ****     LV_ASSERT_OBJ(scale, MY_CLASS);
 7867              		.loc 1 492 1 view -0
 7868              		.cfi_startproc
 7869              		@ args = 0, pretend = 0, frame = 0
 7870              		@ frame_needed = 0, uses_anonymous_args = 0
 493:Drivers/lvgl/src/widgets/scale/lv_scale.c ****     LV_ASSERT_NULL(section);
 7871              		.loc 1 493 5 view .LVU2525
 493:Drivers/lvgl/src/widgets/scale/lv_scale.c ****     LV_ASSERT_NULL(section);
 7872              		.loc 1 493 5 view .LVU2526
 7873 0000 28B1     		cbz	r0, .L438
 492:Drivers/lvgl/src/widgets/scale/lv_scale.c ****     LV_ASSERT_OBJ(scale, MY_CLASS);
 7874              		.loc 1 492 1 is_stmt 0 view .LVU2527
 7875 0002 08B5     		push	{r3, lr}
 7876              	.LCFI105:
ARM GAS  /var/folders/qx/2_175_4n2s19vhvtspjhb3qh0000gn/T//ccmbJJmj.s 			page 226


 7877              		.cfi_def_cfa_offset 8
 7878              		.cfi_offset 3, -8
 7879              		.cfi_offset 14, -4
 493:Drivers/lvgl/src/widgets/scale/lv_scale.c ****     LV_ASSERT_NULL(section);
 7880              		.loc 1 493 5 is_stmt 1 view .LVU2528
 493:Drivers/lvgl/src/widgets/scale/lv_scale.c ****     LV_ASSERT_NULL(section);
 7881              		.loc 1 493 35 view .LVU2529
 494:Drivers/lvgl/src/widgets/scale/lv_scale.c **** 
 7882              		.loc 1 494 5 view .LVU2530
 494:Drivers/lvgl/src/widgets/scale/lv_scale.c **** 
 7883              		.loc 1 494 5 view .LVU2531
 7884 0004 21B1     		cbz	r1, .L440
 494:Drivers/lvgl/src/widgets/scale/lv_scale.c **** 
 7885              		.loc 1 494 5 view .LVU2532
 494:Drivers/lvgl/src/widgets/scale/lv_scale.c **** 
 7886              		.loc 1 494 28 view .LVU2533
 496:Drivers/lvgl/src/widgets/scale/lv_scale.c ****     lv_obj_invalidate(scale);
 7887              		.loc 1 496 5 view .LVU2534
 496:Drivers/lvgl/src/widgets/scale/lv_scale.c ****     lv_obj_invalidate(scale);
 7888              		.loc 1 496 26 is_stmt 0 view .LVU2535
 7889 0006 8A60     		str	r2, [r1, #8]
 497:Drivers/lvgl/src/widgets/scale/lv_scale.c **** }
 7890              		.loc 1 497 5 is_stmt 1 view .LVU2536
 7891 0008 FFF7FEFF 		bl	lv_obj_invalidate
 7892              	.LVL849:
 498:Drivers/lvgl/src/widgets/scale/lv_scale.c **** 
 7893              		.loc 1 498 1 is_stmt 0 view .LVU2537
 7894 000c 08BD     		pop	{r3, pc}
 7895              	.LVL850:
 7896              	.L438:
 7897              	.LCFI106:
 7898              		.cfi_def_cfa_offset 0
 7899              		.cfi_restore 3
 7900              		.cfi_restore 14
 493:Drivers/lvgl/src/widgets/scale/lv_scale.c ****     LV_ASSERT_NULL(section);
 7901              		.loc 1 493 5 is_stmt 1 view .LVU2538
 493:Drivers/lvgl/src/widgets/scale/lv_scale.c ****     LV_ASSERT_NULL(section);
 7902              		.loc 1 493 5 view .LVU2539
 493:Drivers/lvgl/src/widgets/scale/lv_scale.c ****     LV_ASSERT_NULL(section);
 7903              		.loc 1 493 5 view .LVU2540
 493:Drivers/lvgl/src/widgets/scale/lv_scale.c ****     LV_ASSERT_NULL(section);
 7904              		.loc 1 493 5 view .LVU2541
 493:Drivers/lvgl/src/widgets/scale/lv_scale.c ****     LV_ASSERT_NULL(section);
 7905              		.loc 1 493 5 view .LVU2542
 7906 000e FEE7     		b	.L438
 7907              	.L440:
 7908              	.LCFI107:
 7909              		.cfi_def_cfa_offset 8
 7910              		.cfi_offset 3, -8
 7911              		.cfi_offset 14, -4
 494:Drivers/lvgl/src/widgets/scale/lv_scale.c **** 
 7912              		.loc 1 494 5 view .LVU2543
 494:Drivers/lvgl/src/widgets/scale/lv_scale.c **** 
 7913              		.loc 1 494 5 view .LVU2544
 494:Drivers/lvgl/src/widgets/scale/lv_scale.c **** 
 7914              		.loc 1 494 5 view .LVU2545
 494:Drivers/lvgl/src/widgets/scale/lv_scale.c **** 
ARM GAS  /var/folders/qx/2_175_4n2s19vhvtspjhb3qh0000gn/T//ccmbJJmj.s 			page 227


 7915              		.loc 1 494 5 view .LVU2546
 494:Drivers/lvgl/src/widgets/scale/lv_scale.c **** 
 7916              		.loc 1 494 5 view .LVU2547
 7917 0010 FEE7     		b	.L440
 7918              		.cfi_endproc
 7919              	.LFE206:
 7921              		.section	.text.lv_scale_section_set_style,"ax",%progbits
 7922              		.align	1
 7923              		.global	lv_scale_section_set_style
 7924              		.syntax unified
 7925              		.thumb
 7926              		.thumb_func
 7928              	lv_scale_section_set_style:
 7929              	.LVL851:
 7930              	.LFB207:
 501:Drivers/lvgl/src/widgets/scale/lv_scale.c ****     LV_LOG_WARN("Deprecated, use lv_scale_set_section_style_main/indicator/items instead");
 7931              		.loc 1 501 1 view -0
 7932              		.cfi_startproc
 7933              		@ args = 0, pretend = 0, frame = 0
 7934              		@ frame_needed = 0, uses_anonymous_args = 0
 7935              		@ link register save eliminated.
 502:Drivers/lvgl/src/widgets/scale/lv_scale.c **** 
 7936              		.loc 1 502 5 view .LVU2549
 502:Drivers/lvgl/src/widgets/scale/lv_scale.c **** 
 7937              		.loc 1 502 5 view .LVU2550
 502:Drivers/lvgl/src/widgets/scale/lv_scale.c **** 
 7938              		.loc 1 502 5 view .LVU2551
 504:Drivers/lvgl/src/widgets/scale/lv_scale.c **** 
 7939              		.loc 1 504 5 view .LVU2552
 504:Drivers/lvgl/src/widgets/scale/lv_scale.c **** 
 7940              		.loc 1 504 7 is_stmt 0 view .LVU2553
 7941 0000 58B1     		cbz	r0, .L443
 506:Drivers/lvgl/src/widgets/scale/lv_scale.c ****         case LV_PART_MAIN:
 7942              		.loc 1 506 5 is_stmt 1 view .LVU2554
 7943 0002 B1F5003F 		cmp	r1, #131072
 7944 0006 05D0     		beq	.L445
 7945 0008 B1F5A02F 		cmp	r1, #327680
 7946 000c 04D0     		beq	.L446
 7947 000e 21B9     		cbnz	r1, .L443
 508:Drivers/lvgl/src/widgets/scale/lv_scale.c ****             break;
 7948              		.loc 1 508 13 view .LVU2555
 508:Drivers/lvgl/src/widgets/scale/lv_scale.c ****             break;
 7949              		.loc 1 508 33 is_stmt 0 view .LVU2556
 7950 0010 0260     		str	r2, [r0]
 509:Drivers/lvgl/src/widgets/scale/lv_scale.c ****         case LV_PART_INDICATOR:
 7951              		.loc 1 509 13 is_stmt 1 view .LVU2557
 7952 0012 7047     		bx	lr
 7953              	.L445:
 511:Drivers/lvgl/src/widgets/scale/lv_scale.c ****             break;
 7954              		.loc 1 511 13 view .LVU2558
 511:Drivers/lvgl/src/widgets/scale/lv_scale.c ****             break;
 7955              		.loc 1 511 38 is_stmt 0 view .LVU2559
 7956 0014 4260     		str	r2, [r0, #4]
 512:Drivers/lvgl/src/widgets/scale/lv_scale.c ****         case LV_PART_ITEMS:
 7957              		.loc 1 512 13 is_stmt 1 view .LVU2560
 7958 0016 7047     		bx	lr
 7959              	.L446:
ARM GAS  /var/folders/qx/2_175_4n2s19vhvtspjhb3qh0000gn/T//ccmbJJmj.s 			page 228


 514:Drivers/lvgl/src/widgets/scale/lv_scale.c ****             break;
 7960              		.loc 1 514 13 view .LVU2561
 514:Drivers/lvgl/src/widgets/scale/lv_scale.c ****             break;
 7961              		.loc 1 514 34 is_stmt 0 view .LVU2562
 7962 0018 8260     		str	r2, [r0, #8]
 515:Drivers/lvgl/src/widgets/scale/lv_scale.c ****         default:
 7963              		.loc 1 515 13 is_stmt 1 view .LVU2563
 7964              	.L443:
 520:Drivers/lvgl/src/widgets/scale/lv_scale.c **** 
 7965              		.loc 1 520 1 is_stmt 0 view .LVU2564
 7966 001a 7047     		bx	lr
 7967              		.cfi_endproc
 7968              	.LFE207:
 7970              		.section	.text.lv_scale_get_mode,"ax",%progbits
 7971              		.align	1
 7972              		.global	lv_scale_get_mode
 7973              		.syntax unified
 7974              		.thumb
 7975              		.thumb_func
 7977              	lv_scale_get_mode:
 7978              	.LVL852:
 7979              	.LFB208:
 527:Drivers/lvgl/src/widgets/scale/lv_scale.c ****     lv_scale_t * scale = (lv_scale_t *)obj;
 7980              		.loc 1 527 1 is_stmt 1 view -0
 7981              		.cfi_startproc
 7982              		@ args = 0, pretend = 0, frame = 0
 7983              		@ frame_needed = 0, uses_anonymous_args = 0
 7984              		@ link register save eliminated.
 528:Drivers/lvgl/src/widgets/scale/lv_scale.c ****     return scale->mode;
 7985              		.loc 1 528 5 view .LVU2566
 529:Drivers/lvgl/src/widgets/scale/lv_scale.c **** }
 7986              		.loc 1 529 5 view .LVU2567
 530:Drivers/lvgl/src/widgets/scale/lv_scale.c **** 
 7987              		.loc 1 530 1 is_stmt 0 view .LVU2568
 7988 0000 90F83C00 		ldrb	r0, [r0, #60]	@ zero_extendqisi2
 7989              	.LVL853:
 530:Drivers/lvgl/src/widgets/scale/lv_scale.c **** 
 7990              		.loc 1 530 1 view .LVU2569
 7991 0004 7047     		bx	lr
 7992              		.cfi_endproc
 7993              	.LFE208:
 7995              		.section	.text.lv_scale_get_total_tick_count,"ax",%progbits
 7996              		.align	1
 7997              		.global	lv_scale_get_total_tick_count
 7998              		.syntax unified
 7999              		.thumb
 8000              		.thumb_func
 8002              	lv_scale_get_total_tick_count:
 8003              	.LVL854:
 8004              	.LFB209:
 533:Drivers/lvgl/src/widgets/scale/lv_scale.c ****     lv_scale_t * scale = (lv_scale_t *)obj;
 8005              		.loc 1 533 1 is_stmt 1 view -0
 8006              		.cfi_startproc
 8007              		@ args = 0, pretend = 0, frame = 0
 8008              		@ frame_needed = 0, uses_anonymous_args = 0
 8009              		@ link register save eliminated.
 534:Drivers/lvgl/src/widgets/scale/lv_scale.c ****     return scale->total_tick_count;
ARM GAS  /var/folders/qx/2_175_4n2s19vhvtspjhb3qh0000gn/T//ccmbJJmj.s 			page 229


 8010              		.loc 1 534 5 view .LVU2571
 535:Drivers/lvgl/src/widgets/scale/lv_scale.c **** }
 8011              		.loc 1 535 5 view .LVU2572
 535:Drivers/lvgl/src/widgets/scale/lv_scale.c **** }
 8012              		.loc 1 535 17 is_stmt 0 view .LVU2573
 8013 0000 B0F84800 		ldrh	r0, [r0, #72]
 8014              	.LVL855:
 536:Drivers/lvgl/src/widgets/scale/lv_scale.c **** 
 8015              		.loc 1 536 1 view .LVU2574
 8016 0004 C0F30E00 		ubfx	r0, r0, #0, #15
 8017 0008 7047     		bx	lr
 8018              		.cfi_endproc
 8019              	.LFE209:
 8021              		.section	.text.lv_scale_get_major_tick_every,"ax",%progbits
 8022              		.align	1
 8023              		.global	lv_scale_get_major_tick_every
 8024              		.syntax unified
 8025              		.thumb
 8026              		.thumb_func
 8028              	lv_scale_get_major_tick_every:
 8029              	.LVL856:
 8030              	.LFB210:
 539:Drivers/lvgl/src/widgets/scale/lv_scale.c ****     lv_scale_t * scale = (lv_scale_t *)obj;
 8031              		.loc 1 539 1 is_stmt 1 view -0
 8032              		.cfi_startproc
 8033              		@ args = 0, pretend = 0, frame = 0
 8034              		@ frame_needed = 0, uses_anonymous_args = 0
 8035              		@ link register save eliminated.
 540:Drivers/lvgl/src/widgets/scale/lv_scale.c ****     return scale->major_tick_every;
 8036              		.loc 1 540 5 view .LVU2576
 541:Drivers/lvgl/src/widgets/scale/lv_scale.c **** }
 8037              		.loc 1 541 5 view .LVU2577
 541:Drivers/lvgl/src/widgets/scale/lv_scale.c **** }
 8038              		.loc 1 541 17 is_stmt 0 view .LVU2578
 8039 0000 806C     		ldr	r0, [r0, #72]
 8040              	.LVL857:
 542:Drivers/lvgl/src/widgets/scale/lv_scale.c **** 
 8041              		.loc 1 542 1 view .LVU2579
 8042 0002 C0F3CE30 		ubfx	r0, r0, #15, #15
 8043 0006 7047     		bx	lr
 8044              		.cfi_endproc
 8045              	.LFE210:
 8047              		.section	.text.lv_scale_get_rotation,"ax",%progbits
 8048              		.align	1
 8049              		.global	lv_scale_get_rotation
 8050              		.syntax unified
 8051              		.thumb
 8052              		.thumb_func
 8054              	lv_scale_get_rotation:
 8055              	.LVL858:
 8056              	.LFB211:
 545:Drivers/lvgl/src/widgets/scale/lv_scale.c ****     lv_scale_t * scale = (lv_scale_t *)obj;
 8057              		.loc 1 545 1 is_stmt 1 view -0
 8058              		.cfi_startproc
 8059              		@ args = 0, pretend = 0, frame = 0
 8060              		@ frame_needed = 0, uses_anonymous_args = 0
 8061              		@ link register save eliminated.
ARM GAS  /var/folders/qx/2_175_4n2s19vhvtspjhb3qh0000gn/T//ccmbJJmj.s 			page 230


 546:Drivers/lvgl/src/widgets/scale/lv_scale.c ****     return scale->rotation;
 8062              		.loc 1 546 5 view .LVU2581
 547:Drivers/lvgl/src/widgets/scale/lv_scale.c **** }
 8063              		.loc 1 547 5 view .LVU2582
 548:Drivers/lvgl/src/widgets/scale/lv_scale.c **** 
 8064              		.loc 1 548 1 is_stmt 0 view .LVU2583
 8065 0000 406D     		ldr	r0, [r0, #84]
 8066              	.LVL859:
 548:Drivers/lvgl/src/widgets/scale/lv_scale.c **** 
 8067              		.loc 1 548 1 view .LVU2584
 8068 0002 7047     		bx	lr
 8069              		.cfi_endproc
 8070              	.LFE211:
 8072              		.section	.text.lv_scale_get_label_show,"ax",%progbits
 8073              		.align	1
 8074              		.global	lv_scale_get_label_show
 8075              		.syntax unified
 8076              		.thumb
 8077              		.thumb_func
 8079              	lv_scale_get_label_show:
 8080              	.LVL860:
 8081              	.LFB212:
 551:Drivers/lvgl/src/widgets/scale/lv_scale.c ****     lv_scale_t * scale = (lv_scale_t *)obj;
 8082              		.loc 1 551 1 is_stmt 1 view -0
 8083              		.cfi_startproc
 8084              		@ args = 0, pretend = 0, frame = 0
 8085              		@ frame_needed = 0, uses_anonymous_args = 0
 8086              		@ link register save eliminated.
 552:Drivers/lvgl/src/widgets/scale/lv_scale.c ****     return scale->label_enabled;
 8087              		.loc 1 552 5 view .LVU2586
 553:Drivers/lvgl/src/widgets/scale/lv_scale.c **** }
 8088              		.loc 1 553 5 view .LVU2587
 553:Drivers/lvgl/src/widgets/scale/lv_scale.c **** }
 8089              		.loc 1 553 17 is_stmt 0 view .LVU2588
 8090 0000 90F84B00 		ldrb	r0, [r0, #75]	@ zero_extendqisi2
 8091              	.LVL861:
 554:Drivers/lvgl/src/widgets/scale/lv_scale.c **** 
 8092              		.loc 1 554 1 view .LVU2589
 8093 0004 C0F38010 		ubfx	r0, r0, #6, #1
 8094 0008 7047     		bx	lr
 8095              		.cfi_endproc
 8096              	.LFE212:
 8098              		.section	.text.lv_scale_get_angle_range,"ax",%progbits
 8099              		.align	1
 8100              		.global	lv_scale_get_angle_range
 8101              		.syntax unified
 8102              		.thumb
 8103              		.thumb_func
 8105              	lv_scale_get_angle_range:
 8106              	.LVL862:
 8107              	.LFB213:
 557:Drivers/lvgl/src/widgets/scale/lv_scale.c ****     lv_scale_t * scale = (lv_scale_t *)obj;
 8108              		.loc 1 557 1 is_stmt 1 view -0
 8109              		.cfi_startproc
 8110              		@ args = 0, pretend = 0, frame = 0
 8111              		@ frame_needed = 0, uses_anonymous_args = 0
 8112              		@ link register save eliminated.
ARM GAS  /var/folders/qx/2_175_4n2s19vhvtspjhb3qh0000gn/T//ccmbJJmj.s 			page 231


 558:Drivers/lvgl/src/widgets/scale/lv_scale.c ****     return scale->angle_range;
 8113              		.loc 1 558 5 view .LVU2591
 559:Drivers/lvgl/src/widgets/scale/lv_scale.c **** }
 8114              		.loc 1 559 5 view .LVU2592
 560:Drivers/lvgl/src/widgets/scale/lv_scale.c **** 
 8115              		.loc 1 560 1 is_stmt 0 view .LVU2593
 8116 0000 006D     		ldr	r0, [r0, #80]
 8117              	.LVL863:
 560:Drivers/lvgl/src/widgets/scale/lv_scale.c **** 
 8118              		.loc 1 560 1 view .LVU2594
 8119 0002 7047     		bx	lr
 8120              		.cfi_endproc
 8121              	.LFE213:
 8123              		.section	.text.lv_scale_get_range_min_value,"ax",%progbits
 8124              		.align	1
 8125              		.global	lv_scale_get_range_min_value
 8126              		.syntax unified
 8127              		.thumb
 8128              		.thumb_func
 8130              	lv_scale_get_range_min_value:
 8131              	.LVL864:
 8132              	.LFB214:
 563:Drivers/lvgl/src/widgets/scale/lv_scale.c ****     lv_scale_t * scale = (lv_scale_t *)obj;
 8133              		.loc 1 563 1 is_stmt 1 view -0
 8134              		.cfi_startproc
 8135              		@ args = 0, pretend = 0, frame = 0
 8136              		@ frame_needed = 0, uses_anonymous_args = 0
 8137              		@ link register save eliminated.
 564:Drivers/lvgl/src/widgets/scale/lv_scale.c ****     return scale->range_min;
 8138              		.loc 1 564 5 view .LVU2596
 565:Drivers/lvgl/src/widgets/scale/lv_scale.c **** }
 8139              		.loc 1 565 5 view .LVU2597
 566:Drivers/lvgl/src/widgets/scale/lv_scale.c **** 
 8140              		.loc 1 566 1 is_stmt 0 view .LVU2598
 8141 0000 006C     		ldr	r0, [r0, #64]
 8142              	.LVL865:
 566:Drivers/lvgl/src/widgets/scale/lv_scale.c **** 
 8143              		.loc 1 566 1 view .LVU2599
 8144 0002 7047     		bx	lr
 8145              		.cfi_endproc
 8146              	.LFE214:
 8148              		.section	.text.lv_scale_get_range_max_value,"ax",%progbits
 8149              		.align	1
 8150              		.global	lv_scale_get_range_max_value
 8151              		.syntax unified
 8152              		.thumb
 8153              		.thumb_func
 8155              	lv_scale_get_range_max_value:
 8156              	.LVL866:
 8157              	.LFB215:
 569:Drivers/lvgl/src/widgets/scale/lv_scale.c ****     lv_scale_t * scale = (lv_scale_t *)obj;
 8158              		.loc 1 569 1 is_stmt 1 view -0
 8159              		.cfi_startproc
 8160              		@ args = 0, pretend = 0, frame = 0
 8161              		@ frame_needed = 0, uses_anonymous_args = 0
 8162              		@ link register save eliminated.
 570:Drivers/lvgl/src/widgets/scale/lv_scale.c ****     return scale->range_max;
ARM GAS  /var/folders/qx/2_175_4n2s19vhvtspjhb3qh0000gn/T//ccmbJJmj.s 			page 232


 8163              		.loc 1 570 5 view .LVU2601
 571:Drivers/lvgl/src/widgets/scale/lv_scale.c **** }
 8164              		.loc 1 571 5 view .LVU2602
 572:Drivers/lvgl/src/widgets/scale/lv_scale.c **** 
 8165              		.loc 1 572 1 is_stmt 0 view .LVU2603
 8166 0000 406C     		ldr	r0, [r0, #68]
 8167              	.LVL867:
 572:Drivers/lvgl/src/widgets/scale/lv_scale.c **** 
 8168              		.loc 1 572 1 view .LVU2604
 8169 0002 7047     		bx	lr
 8170              		.cfi_endproc
 8171              	.LFE215:
 8173              		.section	.text.lv_scale_bind_section_min_value,"ax",%progbits
 8174              		.align	1
 8175              		.global	lv_scale_bind_section_min_value
 8176              		.syntax unified
 8177              		.thumb
 8178              		.thumb_func
 8180              	lv_scale_bind_section_min_value:
 8181              	.LVL868:
 8182              	.LFB216:
 581:Drivers/lvgl/src/widgets/scale/lv_scale.c ****     LV_ASSERT_NULL(subject);
 8183              		.loc 1 581 1 is_stmt 1 view -0
 8184              		.cfi_startproc
 8185              		@ args = 0, pretend = 0, frame = 0
 8186              		@ frame_needed = 0, uses_anonymous_args = 0
 582:Drivers/lvgl/src/widgets/scale/lv_scale.c ****     LV_ASSERT_OBJ(obj, MY_CLASS);
 8187              		.loc 1 582 5 view .LVU2606
 582:Drivers/lvgl/src/widgets/scale/lv_scale.c ****     LV_ASSERT_OBJ(obj, MY_CLASS);
 8188              		.loc 1 582 5 view .LVU2607
 8189 0000 82B1     		cbz	r2, .L457
 8190 0002 9446     		mov	ip, r2
 582:Drivers/lvgl/src/widgets/scale/lv_scale.c ****     LV_ASSERT_OBJ(obj, MY_CLASS);
 8191              		.loc 1 582 5 view .LVU2608
 582:Drivers/lvgl/src/widgets/scale/lv_scale.c ****     LV_ASSERT_OBJ(obj, MY_CLASS);
 8192              		.loc 1 582 28 view .LVU2609
 583:Drivers/lvgl/src/widgets/scale/lv_scale.c ****     LV_ASSERT_NULL(section);
 8193              		.loc 1 583 5 view .LVU2610
 583:Drivers/lvgl/src/widgets/scale/lv_scale.c ****     LV_ASSERT_NULL(section);
 8194              		.loc 1 583 5 view .LVU2611
 8195 0004 78B1     		cbz	r0, .L459
 583:Drivers/lvgl/src/widgets/scale/lv_scale.c ****     LV_ASSERT_NULL(section);
 8196              		.loc 1 583 5 view .LVU2612
 583:Drivers/lvgl/src/widgets/scale/lv_scale.c ****     LV_ASSERT_NULL(section);
 8197              		.loc 1 583 33 view .LVU2613
 584:Drivers/lvgl/src/widgets/scale/lv_scale.c **** 
 8198              		.loc 1 584 5 view .LVU2614
 584:Drivers/lvgl/src/widgets/scale/lv_scale.c **** 
 8199              		.loc 1 584 5 view .LVU2615
 8200 0006 79B1     		cbz	r1, .L461
 581:Drivers/lvgl/src/widgets/scale/lv_scale.c ****     LV_ASSERT_NULL(subject);
 8201              		.loc 1 581 1 is_stmt 0 view .LVU2616
 8202 0008 08B5     		push	{r3, lr}
 8203              	.LCFI108:
 8204              		.cfi_def_cfa_offset 8
 8205              		.cfi_offset 3, -8
 8206              		.cfi_offset 14, -4
ARM GAS  /var/folders/qx/2_175_4n2s19vhvtspjhb3qh0000gn/T//ccmbJJmj.s 			page 233


 584:Drivers/lvgl/src/widgets/scale/lv_scale.c **** 
 8207              		.loc 1 584 5 is_stmt 1 view .LVU2617
 584:Drivers/lvgl/src/widgets/scale/lv_scale.c **** 
 8208              		.loc 1 584 28 view .LVU2618
 586:Drivers/lvgl/src/widgets/scale/lv_scale.c ****         LV_LOG_WARN("Incompatible subject type: %d", subject->type);
 8209              		.loc 1 586 5 view .LVU2619
 586:Drivers/lvgl/src/widgets/scale/lv_scale.c ****         LV_LOG_WARN("Incompatible subject type: %d", subject->type);
 8210              		.loc 1 586 22 is_stmt 0 view .LVU2620
 8211 000a 92F82030 		ldrb	r3, [r2, #32]	@ zero_extendqisi2
 8212 000e 03F00F03 		and	r3, r3, #15
 586:Drivers/lvgl/src/widgets/scale/lv_scale.c ****         LV_LOG_WARN("Incompatible subject type: %d", subject->type);
 8213              		.loc 1 586 7 view .LVU2621
 8214 0012 022B     		cmp	r3, #2
 8215 0014 09D1     		bne	.L463
 591:Drivers/lvgl/src/widgets/scale/lv_scale.c **** 
 8216              		.loc 1 591 5 is_stmt 1 view .LVU2622
 591:Drivers/lvgl/src/widgets/scale/lv_scale.c **** 
 8217              		.loc 1 591 32 is_stmt 0 view .LVU2623
 8218 0016 0B46     		mov	r3, r1
 8219 0018 0246     		mov	r2, r0
 8220              	.LVL869:
 591:Drivers/lvgl/src/widgets/scale/lv_scale.c **** 
 8221              		.loc 1 591 32 view .LVU2624
 8222 001a 0549     		ldr	r1, .L466
 8223              	.LVL870:
 591:Drivers/lvgl/src/widgets/scale/lv_scale.c **** 
 8224              		.loc 1 591 32 view .LVU2625
 8225 001c 6046     		mov	r0, ip
 8226              	.LVL871:
 591:Drivers/lvgl/src/widgets/scale/lv_scale.c **** 
 8227              		.loc 1 591 32 view .LVU2626
 8228 001e FFF7FEFF 		bl	lv_subject_add_observer_obj
 8229              	.LVL872:
 593:Drivers/lvgl/src/widgets/scale/lv_scale.c **** }
 8230              		.loc 1 593 5 is_stmt 1 view .LVU2627
 8231              	.L455:
 594:Drivers/lvgl/src/widgets/scale/lv_scale.c **** 
 8232              		.loc 1 594 1 is_stmt 0 view .LVU2628
 8233 0022 08BD     		pop	{r3, pc}
 8234              	.LVL873:
 8235              	.L457:
 8236              	.LCFI109:
 8237              		.cfi_def_cfa_offset 0
 8238              		.cfi_restore 3
 8239              		.cfi_restore 14
 582:Drivers/lvgl/src/widgets/scale/lv_scale.c ****     LV_ASSERT_OBJ(obj, MY_CLASS);
 8240              		.loc 1 582 5 is_stmt 1 view .LVU2629
 582:Drivers/lvgl/src/widgets/scale/lv_scale.c ****     LV_ASSERT_OBJ(obj, MY_CLASS);
 8241              		.loc 1 582 5 view .LVU2630
 582:Drivers/lvgl/src/widgets/scale/lv_scale.c ****     LV_ASSERT_OBJ(obj, MY_CLASS);
 8242              		.loc 1 582 5 view .LVU2631
 582:Drivers/lvgl/src/widgets/scale/lv_scale.c ****     LV_ASSERT_OBJ(obj, MY_CLASS);
 8243              		.loc 1 582 5 view .LVU2632
 582:Drivers/lvgl/src/widgets/scale/lv_scale.c ****     LV_ASSERT_OBJ(obj, MY_CLASS);
 8244              		.loc 1 582 5 view .LVU2633
 8245 0024 FEE7     		b	.L457
 8246              	.L459:
ARM GAS  /var/folders/qx/2_175_4n2s19vhvtspjhb3qh0000gn/T//ccmbJJmj.s 			page 234


 583:Drivers/lvgl/src/widgets/scale/lv_scale.c ****     LV_ASSERT_NULL(section);
 8247              		.loc 1 583 5 view .LVU2634
 583:Drivers/lvgl/src/widgets/scale/lv_scale.c ****     LV_ASSERT_NULL(section);
 8248              		.loc 1 583 5 view .LVU2635
 583:Drivers/lvgl/src/widgets/scale/lv_scale.c ****     LV_ASSERT_NULL(section);
 8249              		.loc 1 583 5 view .LVU2636
 583:Drivers/lvgl/src/widgets/scale/lv_scale.c ****     LV_ASSERT_NULL(section);
 8250              		.loc 1 583 5 view .LVU2637
 583:Drivers/lvgl/src/widgets/scale/lv_scale.c ****     LV_ASSERT_NULL(section);
 8251              		.loc 1 583 5 view .LVU2638
 8252 0026 FEE7     		b	.L459
 8253              	.L461:
 584:Drivers/lvgl/src/widgets/scale/lv_scale.c **** 
 8254              		.loc 1 584 5 view .LVU2639
 584:Drivers/lvgl/src/widgets/scale/lv_scale.c **** 
 8255              		.loc 1 584 5 view .LVU2640
 584:Drivers/lvgl/src/widgets/scale/lv_scale.c **** 
 8256              		.loc 1 584 5 view .LVU2641
 584:Drivers/lvgl/src/widgets/scale/lv_scale.c **** 
 8257              		.loc 1 584 5 view .LVU2642
 584:Drivers/lvgl/src/widgets/scale/lv_scale.c **** 
 8258              		.loc 1 584 5 view .LVU2643
 8259 0028 FEE7     		b	.L461
 8260              	.L463:
 8261              	.LCFI110:
 8262              		.cfi_def_cfa_offset 8
 8263              		.cfi_offset 3, -8
 8264              		.cfi_offset 14, -4
 588:Drivers/lvgl/src/widgets/scale/lv_scale.c ****     }
 8265              		.loc 1 588 16 is_stmt 0 view .LVU2644
 8266 002a 0020     		movs	r0, #0
 8267              	.LVL874:
 588:Drivers/lvgl/src/widgets/scale/lv_scale.c ****     }
 8268              		.loc 1 588 16 view .LVU2645
 8269 002c F9E7     		b	.L455
 8270              	.L467:
 8271 002e 00BF     		.align	2
 8272              	.L466:
 8273 0030 00000000 		.word	scale_section_min_value_observer_cb
 8274              		.cfi_endproc
 8275              	.LFE216:
 8277              		.section	.text.lv_scale_bind_section_max_value,"ax",%progbits
 8278              		.align	1
 8279              		.global	lv_scale_bind_section_max_value
 8280              		.syntax unified
 8281              		.thumb
 8282              		.thumb_func
 8284              	lv_scale_bind_section_max_value:
 8285              	.LVL875:
 8286              	.LFB217:
 597:Drivers/lvgl/src/widgets/scale/lv_scale.c ****     LV_ASSERT_NULL(subject);
 8287              		.loc 1 597 1 is_stmt 1 view -0
 8288              		.cfi_startproc
 8289              		@ args = 0, pretend = 0, frame = 0
 8290              		@ frame_needed = 0, uses_anonymous_args = 0
 598:Drivers/lvgl/src/widgets/scale/lv_scale.c ****     LV_ASSERT_OBJ(obj, MY_CLASS);
 8291              		.loc 1 598 5 view .LVU2647
ARM GAS  /var/folders/qx/2_175_4n2s19vhvtspjhb3qh0000gn/T//ccmbJJmj.s 			page 235


 598:Drivers/lvgl/src/widgets/scale/lv_scale.c ****     LV_ASSERT_OBJ(obj, MY_CLASS);
 8292              		.loc 1 598 5 view .LVU2648
 8293 0000 82B1     		cbz	r2, .L470
 8294 0002 9446     		mov	ip, r2
 598:Drivers/lvgl/src/widgets/scale/lv_scale.c ****     LV_ASSERT_OBJ(obj, MY_CLASS);
 8295              		.loc 1 598 5 view .LVU2649
 598:Drivers/lvgl/src/widgets/scale/lv_scale.c ****     LV_ASSERT_OBJ(obj, MY_CLASS);
 8296              		.loc 1 598 28 view .LVU2650
 599:Drivers/lvgl/src/widgets/scale/lv_scale.c ****     LV_ASSERT_NULL(section);
 8297              		.loc 1 599 5 view .LVU2651
 599:Drivers/lvgl/src/widgets/scale/lv_scale.c ****     LV_ASSERT_NULL(section);
 8298              		.loc 1 599 5 view .LVU2652
 8299 0004 78B1     		cbz	r0, .L472
 599:Drivers/lvgl/src/widgets/scale/lv_scale.c ****     LV_ASSERT_NULL(section);
 8300              		.loc 1 599 5 view .LVU2653
 599:Drivers/lvgl/src/widgets/scale/lv_scale.c ****     LV_ASSERT_NULL(section);
 8301              		.loc 1 599 33 view .LVU2654
 600:Drivers/lvgl/src/widgets/scale/lv_scale.c **** 
 8302              		.loc 1 600 5 view .LVU2655
 600:Drivers/lvgl/src/widgets/scale/lv_scale.c **** 
 8303              		.loc 1 600 5 view .LVU2656
 8304 0006 79B1     		cbz	r1, .L474
 597:Drivers/lvgl/src/widgets/scale/lv_scale.c ****     LV_ASSERT_NULL(subject);
 8305              		.loc 1 597 1 is_stmt 0 view .LVU2657
 8306 0008 08B5     		push	{r3, lr}
 8307              	.LCFI111:
 8308              		.cfi_def_cfa_offset 8
 8309              		.cfi_offset 3, -8
 8310              		.cfi_offset 14, -4
 600:Drivers/lvgl/src/widgets/scale/lv_scale.c **** 
 8311              		.loc 1 600 5 is_stmt 1 view .LVU2658
 600:Drivers/lvgl/src/widgets/scale/lv_scale.c **** 
 8312              		.loc 1 600 28 view .LVU2659
 602:Drivers/lvgl/src/widgets/scale/lv_scale.c ****         LV_LOG_WARN("Incompatible subject type: %d", subject->type);
 8313              		.loc 1 602 5 view .LVU2660
 602:Drivers/lvgl/src/widgets/scale/lv_scale.c ****         LV_LOG_WARN("Incompatible subject type: %d", subject->type);
 8314              		.loc 1 602 22 is_stmt 0 view .LVU2661
 8315 000a 92F82030 		ldrb	r3, [r2, #32]	@ zero_extendqisi2
 8316 000e 03F00F03 		and	r3, r3, #15
 602:Drivers/lvgl/src/widgets/scale/lv_scale.c ****         LV_LOG_WARN("Incompatible subject type: %d", subject->type);
 8317              		.loc 1 602 7 view .LVU2662
 8318 0012 022B     		cmp	r3, #2
 8319 0014 09D1     		bne	.L476
 607:Drivers/lvgl/src/widgets/scale/lv_scale.c **** 
 8320              		.loc 1 607 5 is_stmt 1 view .LVU2663
 607:Drivers/lvgl/src/widgets/scale/lv_scale.c **** 
 8321              		.loc 1 607 32 is_stmt 0 view .LVU2664
 8322 0016 0B46     		mov	r3, r1
 8323 0018 0246     		mov	r2, r0
 8324              	.LVL876:
 607:Drivers/lvgl/src/widgets/scale/lv_scale.c **** 
 8325              		.loc 1 607 32 view .LVU2665
 8326 001a 0549     		ldr	r1, .L479
 8327              	.LVL877:
 607:Drivers/lvgl/src/widgets/scale/lv_scale.c **** 
 8328              		.loc 1 607 32 view .LVU2666
 8329 001c 6046     		mov	r0, ip
ARM GAS  /var/folders/qx/2_175_4n2s19vhvtspjhb3qh0000gn/T//ccmbJJmj.s 			page 236


 8330              	.LVL878:
 607:Drivers/lvgl/src/widgets/scale/lv_scale.c **** 
 8331              		.loc 1 607 32 view .LVU2667
 8332 001e FFF7FEFF 		bl	lv_subject_add_observer_obj
 8333              	.LVL879:
 609:Drivers/lvgl/src/widgets/scale/lv_scale.c **** }
 8334              		.loc 1 609 5 is_stmt 1 view .LVU2668
 8335              	.L468:
 610:Drivers/lvgl/src/widgets/scale/lv_scale.c **** 
 8336              		.loc 1 610 1 is_stmt 0 view .LVU2669
 8337 0022 08BD     		pop	{r3, pc}
 8338              	.LVL880:
 8339              	.L470:
 8340              	.LCFI112:
 8341              		.cfi_def_cfa_offset 0
 8342              		.cfi_restore 3
 8343              		.cfi_restore 14
 598:Drivers/lvgl/src/widgets/scale/lv_scale.c ****     LV_ASSERT_OBJ(obj, MY_CLASS);
 8344              		.loc 1 598 5 is_stmt 1 view .LVU2670
 598:Drivers/lvgl/src/widgets/scale/lv_scale.c ****     LV_ASSERT_OBJ(obj, MY_CLASS);
 8345              		.loc 1 598 5 view .LVU2671
 598:Drivers/lvgl/src/widgets/scale/lv_scale.c ****     LV_ASSERT_OBJ(obj, MY_CLASS);
 8346              		.loc 1 598 5 view .LVU2672
 598:Drivers/lvgl/src/widgets/scale/lv_scale.c ****     LV_ASSERT_OBJ(obj, MY_CLASS);
 8347              		.loc 1 598 5 view .LVU2673
 598:Drivers/lvgl/src/widgets/scale/lv_scale.c ****     LV_ASSERT_OBJ(obj, MY_CLASS);
 8348              		.loc 1 598 5 view .LVU2674
 8349 0024 FEE7     		b	.L470
 8350              	.L472:
 599:Drivers/lvgl/src/widgets/scale/lv_scale.c ****     LV_ASSERT_NULL(section);
 8351              		.loc 1 599 5 view .LVU2675
 599:Drivers/lvgl/src/widgets/scale/lv_scale.c ****     LV_ASSERT_NULL(section);
 8352              		.loc 1 599 5 view .LVU2676
 599:Drivers/lvgl/src/widgets/scale/lv_scale.c ****     LV_ASSERT_NULL(section);
 8353              		.loc 1 599 5 view .LVU2677
 599:Drivers/lvgl/src/widgets/scale/lv_scale.c ****     LV_ASSERT_NULL(section);
 8354              		.loc 1 599 5 view .LVU2678
 599:Drivers/lvgl/src/widgets/scale/lv_scale.c ****     LV_ASSERT_NULL(section);
 8355              		.loc 1 599 5 view .LVU2679
 8356 0026 FEE7     		b	.L472
 8357              	.L474:
 600:Drivers/lvgl/src/widgets/scale/lv_scale.c **** 
 8358              		.loc 1 600 5 view .LVU2680
 600:Drivers/lvgl/src/widgets/scale/lv_scale.c **** 
 8359              		.loc 1 600 5 view .LVU2681
 600:Drivers/lvgl/src/widgets/scale/lv_scale.c **** 
 8360              		.loc 1 600 5 view .LVU2682
 600:Drivers/lvgl/src/widgets/scale/lv_scale.c **** 
 8361              		.loc 1 600 5 view .LVU2683
 600:Drivers/lvgl/src/widgets/scale/lv_scale.c **** 
 8362              		.loc 1 600 5 view .LVU2684
 8363 0028 FEE7     		b	.L474
 8364              	.L476:
 8365              	.LCFI113:
 8366              		.cfi_def_cfa_offset 8
 8367              		.cfi_offset 3, -8
 8368              		.cfi_offset 14, -4
ARM GAS  /var/folders/qx/2_175_4n2s19vhvtspjhb3qh0000gn/T//ccmbJJmj.s 			page 237


 604:Drivers/lvgl/src/widgets/scale/lv_scale.c ****     }
 8369              		.loc 1 604 16 is_stmt 0 view .LVU2685
 8370 002a 0020     		movs	r0, #0
 8371              	.LVL881:
 604:Drivers/lvgl/src/widgets/scale/lv_scale.c ****     }
 8372              		.loc 1 604 16 view .LVU2686
 8373 002c F9E7     		b	.L468
 8374              	.L480:
 8375 002e 00BF     		.align	2
 8376              	.L479:
 8377 0030 00000000 		.word	scale_section_max_value_observer_cb
 8378              		.cfi_endproc
 8379              	.LFE217:
 8381              		.global	lv_scale_class
 8382              		.section	.rodata.str1.4,"aMS",%progbits,1
 8383              		.align	2
 8384              	.LC1:
 8385 0000 6C765F73 		.ascii	"lv_scale\000"
 8385      63616C65 
 8385      00
 8386              		.section	.rodata.lv_scale_class,"a"
 8387              		.align	2
 8390              	lv_scale_class:
 8391 0000 00000000 		.word	lv_obj_class
 8392 0004 00000000 		.word	lv_scale_constructor
 8393 0008 00000000 		.word	lv_scale_destructor
 8394 000c 00000000 		.word	lv_scale_event
 8395 0010 00000000 		.space	4
 8396 0014 00000000 		.word	.LC1
 8397 0018 00000000 		.space	8
 8397      00000000 
 8398 0020 81       		.byte	129
 8399 0021 07       		.byte	7
 8400 0022 00       		.byte	0
 8401 0023 00       		.space	1
 8402              		.text
 8403              	.Letext0:
 8404              		.file 5 "/Applications/ArmGNUToolchain/14.3.rel1/arm-none-eabi/arm-none-eabi/include/machine/_defa
 8405              		.file 6 "/Applications/ArmGNUToolchain/14.3.rel1/arm-none-eabi/arm-none-eabi/include/sys/_stdint.h
 8406              		.file 7 "/Applications/ArmGNUToolchain/14.3.rel1/arm-none-eabi/lib/gcc/arm-none-eabi/14.3.1/includ
 8407              		.file 8 "Drivers/lvgl/src/widgets/scale/../../core/../misc/lv_types.h"
 8408              		.file 9 "Drivers/lvgl/src/widgets/scale/../../core/lv_obj_private.h"
 8409              		.file 10 "Drivers/lvgl/src/widgets/scale/../../core/lv_obj_class_private.h"
 8410              		.file 11 "Drivers/lvgl/src/widgets/scale/../../core/../draw/lv_draw.h"
 8411              		.file 12 "Drivers/lvgl/src/widgets/scale/../../core/../misc/../font/lv_font.h"
 8412              		.file 13 "Drivers/lvgl/src/widgets/scale/../../core/../draw/lv_draw_image.h"
 8413              		.file 14 "Drivers/lvgl/src/widgets/scale/lv_scale_private.h"
 8414              		.file 15 "Drivers/lvgl/src/widgets/scale/../image/../../core/lv_observer.h"
 8415              		.file 16 "Drivers/lvgl/src/widgets/scale/../../core/lv_observer_private.h"
 8416              		.file 17 "Drivers/lvgl/src/widgets/scale/../../core/../misc/../font/../draw/lv_draw_buf.h"
 8417              		.file 18 "Drivers/lvgl/src/widgets/scale/../../core/../misc/../font/../draw/../misc/lv_area.h"
 8418              		.file 19 "Drivers/lvgl/src/widgets/scale/../../core/../misc/../font/../draw/../misc/lv_color.h"
 8419              		.file 20 "Drivers/lvgl/src/widgets/scale/../../core/../misc/../font/../draw/lv_image_dsc.h"
 8420              		.file 21 "Drivers/lvgl/src/widgets/scale/../../core/../misc/lv_ll.h"
 8421              		.file 22 "Drivers/lvgl/src/widgets/scale/../../core/../misc/lv_text.h"
 8422              		.file 23 "Drivers/lvgl/src/widgets/scale/../../core/../misc/lv_bidi.h"
 8423              		.file 24 "Drivers/lvgl/src/widgets/scale/../../core/../misc/lv_style.h"
ARM GAS  /var/folders/qx/2_175_4n2s19vhvtspjhb3qh0000gn/T//ccmbJJmj.s 			page 238


 8424              		.file 25 "Drivers/lvgl/src/widgets/scale/../../core/../display/../misc/lv_event.h"
 8425              		.file 26 "Drivers/lvgl/src/widgets/scale/../../core/lv_obj_style.h"
 8426              		.file 27 "Drivers/lvgl/src/widgets/scale/../../core/../draw/lv_draw_label.h"
 8427              		.file 28 "Drivers/lvgl/src/widgets/scale/../../core/../draw/lv_draw_line.h"
 8428              		.file 29 "Drivers/lvgl/src/widgets/scale/../../core/../draw/lv_draw_arc.h"
 8429              		.file 30 "Drivers/lvgl/src/widgets/scale/../../core/lv_obj_class.h"
 8430              		.file 31 "Drivers/lvgl/src/widgets/scale/../../core/../indev/lv_indev.h"
 8431              		.file 32 "Drivers/lvgl/src/widgets/scale/../../core/lv_obj.h"
 8432              		.file 33 "Drivers/lvgl/src/widgets/scale/../line/lv_line.h"
 8433              		.file 34 "Drivers/lvgl/src/widgets/scale/lv_scale.h"
 8434              		.file 35 "Drivers/lvgl/src/widgets/scale/../../misc/lv_text_private.h"
 8435              		.file 36 "Drivers/lvgl/src/widgets/scale/../image/lv_image.h"
 8436              		.file 37 "Drivers/lvgl/src/widgets/scale/../../core/lv_obj_event.h"
 8437              		.file 38 "Drivers/lvgl/src/widgets/scale/../../core/../misc/../font/../draw/../misc/../stdlib/lv_m
 8438              		.file 39 "Drivers/lvgl/src/widgets/scale/../../core/../misc/../font/../draw/../misc/lv_math.h"
 8439              		.file 40 "Drivers/lvgl/src/widgets/scale/../../core/lv_obj_pos.h"
 8440              		.file 41 "Drivers/lvgl/src/widgets/scale/../../core/lv_obj_draw.h"
 8441              		.file 42 "Drivers/lvgl/src/widgets/scale/../../core/../misc/../stdlib/lv_sprintf.h"
ARM GAS  /var/folders/qx/2_175_4n2s19vhvtspjhb3qh0000gn/T//ccmbJJmj.s 			page 239


DEFINED SYMBOLS
                            *ABS*:00000000 lv_scale.c
/var/folders/qx/2_175_4n2s19vhvtspjhb3qh0000gn/T//ccmbJJmj.s:21     .text.scale_store_main_line_tick_width_compensation:00000000 $t
/var/folders/qx/2_175_4n2s19vhvtspjhb3qh0000gn/T//ccmbJJmj.s:26     .text.scale_store_main_line_tick_width_compensation:00000000 scale_store_main_line_tick_width_compensation
/var/folders/qx/2_175_4n2s19vhvtspjhb3qh0000gn/T//ccmbJJmj.s:111    .text.scale_build_custom_label_text:00000000 $t
/var/folders/qx/2_175_4n2s19vhvtspjhb3qh0000gn/T//ccmbJJmj.s:116    .text.scale_build_custom_label_text:00000000 scale_build_custom_label_text
/var/folders/qx/2_175_4n2s19vhvtspjhb3qh0000gn/T//ccmbJJmj.s:171    .text.scale_is_major_tick:00000000 $t
/var/folders/qx/2_175_4n2s19vhvtspjhb3qh0000gn/T//ccmbJJmj.s:176    .text.scale_is_major_tick:00000000 scale_is_major_tick
/var/folders/qx/2_175_4n2s19vhvtspjhb3qh0000gn/T//ccmbJJmj.s:221    .text.scale_is_major_tick:00000024 $d
/var/folders/qx/2_175_4n2s19vhvtspjhb3qh0000gn/T//ccmbJJmj.s:226    .text.scale_find_section_tick_idx:00000000 $t
/var/folders/qx/2_175_4n2s19vhvtspjhb3qh0000gn/T//ccmbJJmj.s:231    .text.scale_find_section_tick_idx:00000000 scale_find_section_tick_idx
/var/folders/qx/2_175_4n2s19vhvtspjhb3qh0000gn/T//ccmbJJmj.s:405    .text.scale_set_line_properties:00000000 $t
/var/folders/qx/2_175_4n2s19vhvtspjhb3qh0000gn/T//ccmbJJmj.s:410    .text.scale_set_line_properties:00000000 scale_set_line_properties
/var/folders/qx/2_175_4n2s19vhvtspjhb3qh0000gn/T//ccmbJJmj.s:687    .text.scale_store_section_line_tick_width_compensation:00000000 $t
/var/folders/qx/2_175_4n2s19vhvtspjhb3qh0000gn/T//ccmbJJmj.s:692    .text.scale_store_section_line_tick_width_compensation:00000000 scale_store_section_line_tick_width_compensation
/var/folders/qx/2_175_4n2s19vhvtspjhb3qh0000gn/T//ccmbJJmj.s:925    .text.scale_set_indicator_label_properties:00000000 $t
/var/folders/qx/2_175_4n2s19vhvtspjhb3qh0000gn/T//ccmbJJmj.s:930    .text.scale_set_indicator_label_properties:00000000 scale_set_indicator_label_properties
/var/folders/qx/2_175_4n2s19vhvtspjhb3qh0000gn/T//ccmbJJmj.s:1268   .text.scale_set_arc_properties:00000000 $t
/var/folders/qx/2_175_4n2s19vhvtspjhb3qh0000gn/T//ccmbJJmj.s:1273   .text.scale_set_arc_properties:00000000 scale_set_arc_properties
/var/folders/qx/2_175_4n2s19vhvtspjhb3qh0000gn/T//ccmbJJmj.s:1688   .text.scale_get_center:00000000 $t
/var/folders/qx/2_175_4n2s19vhvtspjhb3qh0000gn/T//ccmbJJmj.s:1693   .text.scale_get_center:00000000 scale_get_center
/var/folders/qx/2_175_4n2s19vhvtspjhb3qh0000gn/T//ccmbJJmj.s:1888   .text.scale_get_tick_points:00000000 $t
/var/folders/qx/2_175_4n2s19vhvtspjhb3qh0000gn/T//ccmbJJmj.s:1893   .text.scale_get_tick_points:00000000 scale_get_tick_points
/var/folders/qx/2_175_4n2s19vhvtspjhb3qh0000gn/T//ccmbJJmj.s:1998   .text.scale_get_tick_points:00000056 $d
/var/folders/qx/2_175_4n2s19vhvtspjhb3qh0000gn/T//ccmbJJmj.s:2016   .text.scale_get_tick_points:00000078 $t
/var/folders/qx/2_175_4n2s19vhvtspjhb3qh0000gn/T//ccmbJJmj.s:2813   .text.scale_calculate_main_compensation:00000000 $t
/var/folders/qx/2_175_4n2s19vhvtspjhb3qh0000gn/T//ccmbJJmj.s:2818   .text.scale_calculate_main_compensation:00000000 scale_calculate_main_compensation
/var/folders/qx/2_175_4n2s19vhvtspjhb3qh0000gn/T//ccmbJJmj.s:3040   .text.scale_get_label_coords:00000000 $t
/var/folders/qx/2_175_4n2s19vhvtspjhb3qh0000gn/T//ccmbJJmj.s:3045   .text.scale_get_label_coords:00000000 scale_get_label_coords
/var/folders/qx/2_175_4n2s19vhvtspjhb3qh0000gn/T//ccmbJJmj.s:3119   .text.scale_get_label_coords:00000048 $d
/var/folders/qx/2_175_4n2s19vhvtspjhb3qh0000gn/T//ccmbJJmj.s:3428   .rodata.scale_draw_label.str1.4:00000000 $d
/var/folders/qx/2_175_4n2s19vhvtspjhb3qh0000gn/T//ccmbJJmj.s:3432   .text.scale_draw_label:00000000 $t
/var/folders/qx/2_175_4n2s19vhvtspjhb3qh0000gn/T//ccmbJJmj.s:3437   .text.scale_draw_label:00000000 scale_draw_label
/var/folders/qx/2_175_4n2s19vhvtspjhb3qh0000gn/T//ccmbJJmj.s:3567   .text.scale_draw_label:0000006a $d
/var/folders/qx/2_175_4n2s19vhvtspjhb3qh0000gn/T//ccmbJJmj.s:4046   .text.scale_draw_label:0000028c $d
/var/folders/qx/2_175_4n2s19vhvtspjhb3qh0000gn/T//ccmbJJmj.s:4051   .text.scale_draw_indicator:00000000 $t
/var/folders/qx/2_175_4n2s19vhvtspjhb3qh0000gn/T//ccmbJJmj.s:4056   .text.scale_draw_indicator:00000000 scale_draw_indicator
/var/folders/qx/2_175_4n2s19vhvtspjhb3qh0000gn/T//ccmbJJmj.s:4450   .text.scale_draw_main:00000000 $t
/var/folders/qx/2_175_4n2s19vhvtspjhb3qh0000gn/T//ccmbJJmj.s:4455   .text.scale_draw_main:00000000 scale_draw_main
/var/folders/qx/2_175_4n2s19vhvtspjhb3qh0000gn/T//ccmbJJmj.s:4503   .text.scale_draw_main:0000002c $d
/var/folders/qx/2_175_4n2s19vhvtspjhb3qh0000gn/T//ccmbJJmj.s:4520   .text.scale_draw_main:0000004e $t
/var/folders/qx/2_175_4n2s19vhvtspjhb3qh0000gn/T//ccmbJJmj.s:5237   .text.lv_scale_destructor:00000000 $t
/var/folders/qx/2_175_4n2s19vhvtspjhb3qh0000gn/T//ccmbJJmj.s:5242   .text.lv_scale_destructor:00000000 lv_scale_destructor
/var/folders/qx/2_175_4n2s19vhvtspjhb3qh0000gn/T//ccmbJJmj.s:5356   .text.lv_scale_destructor:00000058 $d
/var/folders/qx/2_175_4n2s19vhvtspjhb3qh0000gn/T//ccmbJJmj.s:5397   .text.needle_deleted_cb:00000000 needle_deleted_cb
/var/folders/qx/2_175_4n2s19vhvtspjhb3qh0000gn/T//ccmbJJmj.s:5361   .text.scale_free_line_needle_points_cb:00000000 $t
/var/folders/qx/2_175_4n2s19vhvtspjhb3qh0000gn/T//ccmbJJmj.s:5366   .text.scale_free_line_needle_points_cb:00000000 scale_free_line_needle_points_cb
/var/folders/qx/2_175_4n2s19vhvtspjhb3qh0000gn/T//ccmbJJmj.s:5392   .text.needle_deleted_cb:00000000 $t
/var/folders/qx/2_175_4n2s19vhvtspjhb3qh0000gn/T//ccmbJJmj.s:5494   .text.lv_scale_constructor:00000000 $t
/var/folders/qx/2_175_4n2s19vhvtspjhb3qh0000gn/T//ccmbJJmj.s:5499   .text.lv_scale_constructor:00000000 lv_scale_constructor
/var/folders/qx/2_175_4n2s19vhvtspjhb3qh0000gn/T//ccmbJJmj.s:5603   .text.update_needle:00000000 $t
/var/folders/qx/2_175_4n2s19vhvtspjhb3qh0000gn/T//ccmbJJmj.s:5608   .text.update_needle:00000000 update_needle
/var/folders/qx/2_175_4n2s19vhvtspjhb3qh0000gn/T//ccmbJJmj.s:5737   .text.update_needle:00000068 $d
/var/folders/qx/2_175_4n2s19vhvtspjhb3qh0000gn/T//ccmbJJmj.s:5742   .text.lv_scale_create:00000000 $t
/var/folders/qx/2_175_4n2s19vhvtspjhb3qh0000gn/T//ccmbJJmj.s:5748   .text.lv_scale_create:00000000 lv_scale_create
/var/folders/qx/2_175_4n2s19vhvtspjhb3qh0000gn/T//ccmbJJmj.s:5787   .text.lv_scale_create:00000014 $d
/var/folders/qx/2_175_4n2s19vhvtspjhb3qh0000gn/T//ccmbJJmj.s:8390   .rodata.lv_scale_class:00000000 lv_scale_class
ARM GAS  /var/folders/qx/2_175_4n2s19vhvtspjhb3qh0000gn/T//ccmbJJmj.s 			page 240


/var/folders/qx/2_175_4n2s19vhvtspjhb3qh0000gn/T//ccmbJJmj.s:5792   .text.lv_scale_set_mode:00000000 $t
/var/folders/qx/2_175_4n2s19vhvtspjhb3qh0000gn/T//ccmbJJmj.s:5798   .text.lv_scale_set_mode:00000000 lv_scale_set_mode
/var/folders/qx/2_175_4n2s19vhvtspjhb3qh0000gn/T//ccmbJJmj.s:5842   .text.lv_scale_set_total_tick_count:00000000 $t
/var/folders/qx/2_175_4n2s19vhvtspjhb3qh0000gn/T//ccmbJJmj.s:5848   .text.lv_scale_set_total_tick_count:00000000 lv_scale_set_total_tick_count
/var/folders/qx/2_175_4n2s19vhvtspjhb3qh0000gn/T//ccmbJJmj.s:5894   .text.lv_scale_set_major_tick_every:00000000 $t
/var/folders/qx/2_175_4n2s19vhvtspjhb3qh0000gn/T//ccmbJJmj.s:5900   .text.lv_scale_set_major_tick_every:00000000 lv_scale_set_major_tick_every
/var/folders/qx/2_175_4n2s19vhvtspjhb3qh0000gn/T//ccmbJJmj.s:5946   .text.lv_scale_set_label_show:00000000 $t
/var/folders/qx/2_175_4n2s19vhvtspjhb3qh0000gn/T//ccmbJJmj.s:5952   .text.lv_scale_set_label_show:00000000 lv_scale_set_label_show
/var/folders/qx/2_175_4n2s19vhvtspjhb3qh0000gn/T//ccmbJJmj.s:6000   .text.lv_scale_set_range:00000000 $t
/var/folders/qx/2_175_4n2s19vhvtspjhb3qh0000gn/T//ccmbJJmj.s:6006   .text.lv_scale_set_range:00000000 lv_scale_set_range
/var/folders/qx/2_175_4n2s19vhvtspjhb3qh0000gn/T//ccmbJJmj.s:6053   .text.lv_scale_set_min_value:00000000 $t
/var/folders/qx/2_175_4n2s19vhvtspjhb3qh0000gn/T//ccmbJJmj.s:6059   .text.lv_scale_set_min_value:00000000 lv_scale_set_min_value
/var/folders/qx/2_175_4n2s19vhvtspjhb3qh0000gn/T//ccmbJJmj.s:6110   .text.lv_scale_set_max_value:00000000 $t
/var/folders/qx/2_175_4n2s19vhvtspjhb3qh0000gn/T//ccmbJJmj.s:6116   .text.lv_scale_set_max_value:00000000 lv_scale_set_max_value
/var/folders/qx/2_175_4n2s19vhvtspjhb3qh0000gn/T//ccmbJJmj.s:6167   .text.lv_scale_set_angle_range:00000000 $t
/var/folders/qx/2_175_4n2s19vhvtspjhb3qh0000gn/T//ccmbJJmj.s:6173   .text.lv_scale_set_angle_range:00000000 lv_scale_set_angle_range
/var/folders/qx/2_175_4n2s19vhvtspjhb3qh0000gn/T//ccmbJJmj.s:6217   .text.lv_scale_set_rotation:00000000 $t
/var/folders/qx/2_175_4n2s19vhvtspjhb3qh0000gn/T//ccmbJJmj.s:6223   .text.lv_scale_set_rotation:00000000 lv_scale_set_rotation
/var/folders/qx/2_175_4n2s19vhvtspjhb3qh0000gn/T//ccmbJJmj.s:6303   .text.lv_scale_set_rotation:00000038 $d
/var/folders/qx/2_175_4n2s19vhvtspjhb3qh0000gn/T//ccmbJJmj.s:6308   .text.lv_scale_set_line_needle_value:00000000 $t
/var/folders/qx/2_175_4n2s19vhvtspjhb3qh0000gn/T//ccmbJJmj.s:6314   .text.lv_scale_set_line_needle_value:00000000 lv_scale_set_line_needle_value
/var/folders/qx/2_175_4n2s19vhvtspjhb3qh0000gn/T//ccmbJJmj.s:6713   .text.lv_scale_set_line_needle_value:0000017c $d
/var/folders/qx/2_175_4n2s19vhvtspjhb3qh0000gn/T//ccmbJJmj.s:6718   .text.lv_scale_set_image_needle_value:00000000 $t
/var/folders/qx/2_175_4n2s19vhvtspjhb3qh0000gn/T//ccmbJJmj.s:6724   .text.lv_scale_set_image_needle_value:00000000 lv_scale_set_image_needle_value
/var/folders/qx/2_175_4n2s19vhvtspjhb3qh0000gn/T//ccmbJJmj.s:6850   .text.lv_scale_event:00000000 $t
/var/folders/qx/2_175_4n2s19vhvtspjhb3qh0000gn/T//ccmbJJmj.s:6855   .text.lv_scale_event:00000000 lv_scale_event
/var/folders/qx/2_175_4n2s19vhvtspjhb3qh0000gn/T//ccmbJJmj.s:7099   .text.lv_scale_event:000000f8 $d
/var/folders/qx/2_175_4n2s19vhvtspjhb3qh0000gn/T//ccmbJJmj.s:7108   .text.lv_scale_set_text_src:00000000 $t
/var/folders/qx/2_175_4n2s19vhvtspjhb3qh0000gn/T//ccmbJJmj.s:7114   .text.lv_scale_set_text_src:00000000 lv_scale_set_text_src
/var/folders/qx/2_175_4n2s19vhvtspjhb3qh0000gn/T//ccmbJJmj.s:7198   .text.lv_scale_set_post_draw:00000000 $t
/var/folders/qx/2_175_4n2s19vhvtspjhb3qh0000gn/T//ccmbJJmj.s:7204   .text.lv_scale_set_post_draw:00000000 lv_scale_set_post_draw
/var/folders/qx/2_175_4n2s19vhvtspjhb3qh0000gn/T//ccmbJJmj.s:7252   .text.lv_scale_set_draw_ticks_on_top:00000000 $t
/var/folders/qx/2_175_4n2s19vhvtspjhb3qh0000gn/T//ccmbJJmj.s:7258   .text.lv_scale_set_draw_ticks_on_top:00000000 lv_scale_set_draw_ticks_on_top
/var/folders/qx/2_175_4n2s19vhvtspjhb3qh0000gn/T//ccmbJJmj.s:7306   .text.lv_scale_add_section:00000000 $t
/var/folders/qx/2_175_4n2s19vhvtspjhb3qh0000gn/T//ccmbJJmj.s:7312   .text.lv_scale_add_section:00000000 lv_scale_add_section
/var/folders/qx/2_175_4n2s19vhvtspjhb3qh0000gn/T//ccmbJJmj.s:7404   .text.lv_scale_set_section_min_value:00000000 $t
/var/folders/qx/2_175_4n2s19vhvtspjhb3qh0000gn/T//ccmbJJmj.s:7410   .text.lv_scale_set_section_min_value:00000000 lv_scale_set_section_min_value
/var/folders/qx/2_175_4n2s19vhvtspjhb3qh0000gn/T//ccmbJJmj.s:7478   .text.scale_section_min_value_observer_cb:00000000 $t
/var/folders/qx/2_175_4n2s19vhvtspjhb3qh0000gn/T//ccmbJJmj.s:7483   .text.scale_section_min_value_observer_cb:00000000 scale_section_min_value_observer_cb
/var/folders/qx/2_175_4n2s19vhvtspjhb3qh0000gn/T//ccmbJJmj.s:7514   .text.lv_scale_set_section_max_value:00000000 $t
/var/folders/qx/2_175_4n2s19vhvtspjhb3qh0000gn/T//ccmbJJmj.s:7520   .text.lv_scale_set_section_max_value:00000000 lv_scale_set_section_max_value
/var/folders/qx/2_175_4n2s19vhvtspjhb3qh0000gn/T//ccmbJJmj.s:7588   .text.lv_scale_set_section_range:00000000 $t
/var/folders/qx/2_175_4n2s19vhvtspjhb3qh0000gn/T//ccmbJJmj.s:7594   .text.lv_scale_set_section_range:00000000 lv_scale_set_section_range
/var/folders/qx/2_175_4n2s19vhvtspjhb3qh0000gn/T//ccmbJJmj.s:7664   .text.scale_section_max_value_observer_cb:00000000 $t
/var/folders/qx/2_175_4n2s19vhvtspjhb3qh0000gn/T//ccmbJJmj.s:7669   .text.scale_section_max_value_observer_cb:00000000 scale_section_max_value_observer_cb
/var/folders/qx/2_175_4n2s19vhvtspjhb3qh0000gn/T//ccmbJJmj.s:7700   .text.lv_scale_section_set_range:00000000 $t
/var/folders/qx/2_175_4n2s19vhvtspjhb3qh0000gn/T//ccmbJJmj.s:7706   .text.lv_scale_section_set_range:00000000 lv_scale_section_set_range
/var/folders/qx/2_175_4n2s19vhvtspjhb3qh0000gn/T//ccmbJJmj.s:7730   .text.lv_scale_set_section_style_main:00000000 $t
/var/folders/qx/2_175_4n2s19vhvtspjhb3qh0000gn/T//ccmbJJmj.s:7736   .text.lv_scale_set_section_style_main:00000000 lv_scale_set_section_style_main
/var/folders/qx/2_175_4n2s19vhvtspjhb3qh0000gn/T//ccmbJJmj.s:7794   .text.lv_scale_set_section_style_indicator:00000000 $t
/var/folders/qx/2_175_4n2s19vhvtspjhb3qh0000gn/T//ccmbJJmj.s:7800   .text.lv_scale_set_section_style_indicator:00000000 lv_scale_set_section_style_indicator
/var/folders/qx/2_175_4n2s19vhvtspjhb3qh0000gn/T//ccmbJJmj.s:7858   .text.lv_scale_set_section_style_items:00000000 $t
/var/folders/qx/2_175_4n2s19vhvtspjhb3qh0000gn/T//ccmbJJmj.s:7864   .text.lv_scale_set_section_style_items:00000000 lv_scale_set_section_style_items
/var/folders/qx/2_175_4n2s19vhvtspjhb3qh0000gn/T//ccmbJJmj.s:7922   .text.lv_scale_section_set_style:00000000 $t
/var/folders/qx/2_175_4n2s19vhvtspjhb3qh0000gn/T//ccmbJJmj.s:7928   .text.lv_scale_section_set_style:00000000 lv_scale_section_set_style
/var/folders/qx/2_175_4n2s19vhvtspjhb3qh0000gn/T//ccmbJJmj.s:7971   .text.lv_scale_get_mode:00000000 $t
/var/folders/qx/2_175_4n2s19vhvtspjhb3qh0000gn/T//ccmbJJmj.s:7977   .text.lv_scale_get_mode:00000000 lv_scale_get_mode
ARM GAS  /var/folders/qx/2_175_4n2s19vhvtspjhb3qh0000gn/T//ccmbJJmj.s 			page 241


/var/folders/qx/2_175_4n2s19vhvtspjhb3qh0000gn/T//ccmbJJmj.s:7996   .text.lv_scale_get_total_tick_count:00000000 $t
/var/folders/qx/2_175_4n2s19vhvtspjhb3qh0000gn/T//ccmbJJmj.s:8002   .text.lv_scale_get_total_tick_count:00000000 lv_scale_get_total_tick_count
/var/folders/qx/2_175_4n2s19vhvtspjhb3qh0000gn/T//ccmbJJmj.s:8022   .text.lv_scale_get_major_tick_every:00000000 $t
/var/folders/qx/2_175_4n2s19vhvtspjhb3qh0000gn/T//ccmbJJmj.s:8028   .text.lv_scale_get_major_tick_every:00000000 lv_scale_get_major_tick_every
/var/folders/qx/2_175_4n2s19vhvtspjhb3qh0000gn/T//ccmbJJmj.s:8048   .text.lv_scale_get_rotation:00000000 $t
/var/folders/qx/2_175_4n2s19vhvtspjhb3qh0000gn/T//ccmbJJmj.s:8054   .text.lv_scale_get_rotation:00000000 lv_scale_get_rotation
/var/folders/qx/2_175_4n2s19vhvtspjhb3qh0000gn/T//ccmbJJmj.s:8073   .text.lv_scale_get_label_show:00000000 $t
/var/folders/qx/2_175_4n2s19vhvtspjhb3qh0000gn/T//ccmbJJmj.s:8079   .text.lv_scale_get_label_show:00000000 lv_scale_get_label_show
/var/folders/qx/2_175_4n2s19vhvtspjhb3qh0000gn/T//ccmbJJmj.s:8099   .text.lv_scale_get_angle_range:00000000 $t
/var/folders/qx/2_175_4n2s19vhvtspjhb3qh0000gn/T//ccmbJJmj.s:8105   .text.lv_scale_get_angle_range:00000000 lv_scale_get_angle_range
/var/folders/qx/2_175_4n2s19vhvtspjhb3qh0000gn/T//ccmbJJmj.s:8124   .text.lv_scale_get_range_min_value:00000000 $t
/var/folders/qx/2_175_4n2s19vhvtspjhb3qh0000gn/T//ccmbJJmj.s:8130   .text.lv_scale_get_range_min_value:00000000 lv_scale_get_range_min_value
/var/folders/qx/2_175_4n2s19vhvtspjhb3qh0000gn/T//ccmbJJmj.s:8149   .text.lv_scale_get_range_max_value:00000000 $t
/var/folders/qx/2_175_4n2s19vhvtspjhb3qh0000gn/T//ccmbJJmj.s:8155   .text.lv_scale_get_range_max_value:00000000 lv_scale_get_range_max_value
/var/folders/qx/2_175_4n2s19vhvtspjhb3qh0000gn/T//ccmbJJmj.s:8174   .text.lv_scale_bind_section_min_value:00000000 $t
/var/folders/qx/2_175_4n2s19vhvtspjhb3qh0000gn/T//ccmbJJmj.s:8180   .text.lv_scale_bind_section_min_value:00000000 lv_scale_bind_section_min_value
/var/folders/qx/2_175_4n2s19vhvtspjhb3qh0000gn/T//ccmbJJmj.s:8273   .text.lv_scale_bind_section_min_value:00000030 $d
/var/folders/qx/2_175_4n2s19vhvtspjhb3qh0000gn/T//ccmbJJmj.s:8278   .text.lv_scale_bind_section_max_value:00000000 $t
/var/folders/qx/2_175_4n2s19vhvtspjhb3qh0000gn/T//ccmbJJmj.s:8284   .text.lv_scale_bind_section_max_value:00000000 lv_scale_bind_section_max_value
/var/folders/qx/2_175_4n2s19vhvtspjhb3qh0000gn/T//ccmbJJmj.s:8377   .text.lv_scale_bind_section_max_value:00000030 $d
/var/folders/qx/2_175_4n2s19vhvtspjhb3qh0000gn/T//ccmbJJmj.s:8383   .rodata.str1.4:00000000 $d
/var/folders/qx/2_175_4n2s19vhvtspjhb3qh0000gn/T//ccmbJJmj.s:8387   .rodata.lv_scale_class:00000000 $d
/var/folders/qx/2_175_4n2s19vhvtspjhb3qh0000gn/T//ccmbJJmj.s:3137   .text.scale_get_label_coords:00000059 $d
/var/folders/qx/2_175_4n2s19vhvtspjhb3qh0000gn/T//ccmbJJmj.s:3137   .text.scale_get_label_coords:0000005a $t
/var/folders/qx/2_175_4n2s19vhvtspjhb3qh0000gn/T//ccmbJJmj.s:3585   .text.scale_draw_label:0000007b $d
/var/folders/qx/2_175_4n2s19vhvtspjhb3qh0000gn/T//ccmbJJmj.s:3585   .text.scale_draw_label:0000007c $t

UNDEFINED SYMBOLS
lv_ll_get_prev
lv_map
lv_ll_get_tail
lv_style_get_prop
lv_obj_get_style_prop
lv_obj_get_width
lv_obj_get_height
lv_draw_line_dsc_init
lv_obj_init_draw_line_dsc
lv_obj_get_content_coords
lv_area_get_width
lv_area_get_height
lv_point_transform
lv_text_get_size_attributes
lv_event_get_layer
lv_snprintf
lv_draw_layer_create
lv_draw_label
lv_draw_image_dsc_init
lv_draw_layer
lv_draw_label_dsc_init
lv_obj_init_draw_label_dsc
lv_point_to_precise
lv_draw_line
lv_draw_arc_dsc_init
lv_obj_init_draw_arc_dsc
lv_draw_arc
lv_ll_get_head
lv_ll_remove
ARM GAS  /var/folders/qx/2_175_4n2s19vhvtspjhb3qh0000gn/T//ccmbJJmj.s 			page 242


lv_free
lv_ll_clear
lv_array_at
lv_obj_remove_event_cb
lv_array_deinit
lv_event_get_user_data
lv_event_get_target_obj
lv_array_remove
lv_ll_init
lv_array_init
lv_obj_remove_flag
lv_array_push_back
lv_obj_add_event_cb
lv_obj_class_create_obj
lv_obj_class_init_obj
lv_obj_invalidate
lv_obj_align
lv_trigo_cos
lv_trigo_sin
lv_line_is_point_array_mutable
lv_line_get_point_count
lv_line_get_points_mutable
lv_obj_get_event_count
lv_obj_get_event_dsc
lv_event_dsc_get_cb
lv_event_dsc_get_user_data
lv_line_set_points_mutable
lv_malloc
lv_image_set_rotation
lv_obj_event_base
lv_event_get_code
lv_event_get_current_target
lv_event_set_ext_draw_size
lv_obj_has_class
lv_line_class
lv_ll_ins_head
lv_memset
lv_subject_add_observer_obj
lv_obj_class
