ARM GAS  /var/folders/qx/2_175_4n2s19vhvtspjhb3qh0000gn/T//ccsQQ2VN.s 			page 1


   1              		.cpu cortex-m4
   2              		.arch armv7e-m
   3              		.fpu fpv4-sp-d16
   4              		.eabi_attribute 27, 1
   5              		.eabi_attribute 28, 1
   6              		.eabi_attribute 20, 1
   7              		.eabi_attribute 21, 1
   8              		.eabi_attribute 23, 3
   9              		.eabi_attribute 24, 1
  10              		.eabi_attribute 25, 1
  11              		.eabi_attribute 26, 1
  12              		.eabi_attribute 30, 1
  13              		.eabi_attribute 34, 1
  14              		.eabi_attribute 18, 4
  15              		.file	"lv_mem_core_builtin.c"
  16              		.text
  17              	.Ltext0:
  18              		.cfi_sections	.debug_frame
  19              		.file 1 "Drivers/lvgl/src/stdlib/builtin/lv_mem_core_builtin.c"
  20              		.section	.text.lv_mem_walker,"ax",%progbits
  21              		.align	1
  22              		.syntax unified
  23              		.thumb
  24              		.thumb_func
  26              	lv_mem_walker:
  27              	.LVL0:
  28              	.LFB202:
   1:Drivers/lvgl/src/stdlib/builtin/lv_mem_core_builtin.c **** /**
   2:Drivers/lvgl/src/stdlib/builtin/lv_mem_core_builtin.c ****  * @file lv_mem_core_builtin.c
   3:Drivers/lvgl/src/stdlib/builtin/lv_mem_core_builtin.c ****  */
   4:Drivers/lvgl/src/stdlib/builtin/lv_mem_core_builtin.c **** 
   5:Drivers/lvgl/src/stdlib/builtin/lv_mem_core_builtin.c **** /*********************
   6:Drivers/lvgl/src/stdlib/builtin/lv_mem_core_builtin.c ****  *      INCLUDES
   7:Drivers/lvgl/src/stdlib/builtin/lv_mem_core_builtin.c ****  *********************/
   8:Drivers/lvgl/src/stdlib/builtin/lv_mem_core_builtin.c **** #include "../lv_mem.h"
   9:Drivers/lvgl/src/stdlib/builtin/lv_mem_core_builtin.c **** #if LV_USE_STDLIB_MALLOC == LV_STDLIB_BUILTIN
  10:Drivers/lvgl/src/stdlib/builtin/lv_mem_core_builtin.c **** 
  11:Drivers/lvgl/src/stdlib/builtin/lv_mem_core_builtin.c **** #include "lv_tlsf.h"
  12:Drivers/lvgl/src/stdlib/builtin/lv_mem_core_builtin.c **** #include "../lv_string.h"
  13:Drivers/lvgl/src/stdlib/builtin/lv_mem_core_builtin.c **** #include "../../misc/lv_assert.h"
  14:Drivers/lvgl/src/stdlib/builtin/lv_mem_core_builtin.c **** #include "../../misc/lv_log.h"
  15:Drivers/lvgl/src/stdlib/builtin/lv_mem_core_builtin.c **** #include "../../misc/lv_ll.h"
  16:Drivers/lvgl/src/stdlib/builtin/lv_mem_core_builtin.c **** #include "../../misc/lv_math.h"
  17:Drivers/lvgl/src/stdlib/builtin/lv_mem_core_builtin.c **** #include "../../osal/lv_os_private.h"
  18:Drivers/lvgl/src/stdlib/builtin/lv_mem_core_builtin.c **** #include "../../core/lv_global.h"
  19:Drivers/lvgl/src/stdlib/builtin/lv_mem_core_builtin.c **** 
  20:Drivers/lvgl/src/stdlib/builtin/lv_mem_core_builtin.c **** #ifdef LV_MEM_POOL_INCLUDE
  21:Drivers/lvgl/src/stdlib/builtin/lv_mem_core_builtin.c ****     #include LV_MEM_POOL_INCLUDE
  22:Drivers/lvgl/src/stdlib/builtin/lv_mem_core_builtin.c **** #endif
  23:Drivers/lvgl/src/stdlib/builtin/lv_mem_core_builtin.c **** 
  24:Drivers/lvgl/src/stdlib/builtin/lv_mem_core_builtin.c **** /*********************
  25:Drivers/lvgl/src/stdlib/builtin/lv_mem_core_builtin.c ****  *      DEFINES
  26:Drivers/lvgl/src/stdlib/builtin/lv_mem_core_builtin.c ****  *********************/
  27:Drivers/lvgl/src/stdlib/builtin/lv_mem_core_builtin.c **** /*memset the allocated memories to 0xaa and freed memories to 0xbb (just for testing purposes)*/
  28:Drivers/lvgl/src/stdlib/builtin/lv_mem_core_builtin.c **** #ifndef LV_MEM_ADD_JUNK
  29:Drivers/lvgl/src/stdlib/builtin/lv_mem_core_builtin.c ****     #define LV_MEM_ADD_JUNK  0
  30:Drivers/lvgl/src/stdlib/builtin/lv_mem_core_builtin.c **** #endif
ARM GAS  /var/folders/qx/2_175_4n2s19vhvtspjhb3qh0000gn/T//ccsQQ2VN.s 			page 2


  31:Drivers/lvgl/src/stdlib/builtin/lv_mem_core_builtin.c **** 
  32:Drivers/lvgl/src/stdlib/builtin/lv_mem_core_builtin.c **** #ifdef LV_ARCH_64
  33:Drivers/lvgl/src/stdlib/builtin/lv_mem_core_builtin.c ****     #define MEM_UNIT         uint64_t
  34:Drivers/lvgl/src/stdlib/builtin/lv_mem_core_builtin.c ****     #define ALIGN_MASK       0x7
  35:Drivers/lvgl/src/stdlib/builtin/lv_mem_core_builtin.c **** #else
  36:Drivers/lvgl/src/stdlib/builtin/lv_mem_core_builtin.c ****     #define MEM_UNIT         uint32_t
  37:Drivers/lvgl/src/stdlib/builtin/lv_mem_core_builtin.c ****     #define ALIGN_MASK       0x3
  38:Drivers/lvgl/src/stdlib/builtin/lv_mem_core_builtin.c **** #endif
  39:Drivers/lvgl/src/stdlib/builtin/lv_mem_core_builtin.c **** #define state LV_GLOBAL_DEFAULT()->tlsf_state
  40:Drivers/lvgl/src/stdlib/builtin/lv_mem_core_builtin.c **** 
  41:Drivers/lvgl/src/stdlib/builtin/lv_mem_core_builtin.c **** /**********************
  42:Drivers/lvgl/src/stdlib/builtin/lv_mem_core_builtin.c ****  *      TYPEDEFS
  43:Drivers/lvgl/src/stdlib/builtin/lv_mem_core_builtin.c ****  **********************/
  44:Drivers/lvgl/src/stdlib/builtin/lv_mem_core_builtin.c **** 
  45:Drivers/lvgl/src/stdlib/builtin/lv_mem_core_builtin.c **** /**********************
  46:Drivers/lvgl/src/stdlib/builtin/lv_mem_core_builtin.c ****  *  STATIC PROTOTYPES
  47:Drivers/lvgl/src/stdlib/builtin/lv_mem_core_builtin.c ****  **********************/
  48:Drivers/lvgl/src/stdlib/builtin/lv_mem_core_builtin.c **** static void lv_mem_walker(void * ptr, size_t size, int used, void * user);
  49:Drivers/lvgl/src/stdlib/builtin/lv_mem_core_builtin.c **** 
  50:Drivers/lvgl/src/stdlib/builtin/lv_mem_core_builtin.c **** /**********************
  51:Drivers/lvgl/src/stdlib/builtin/lv_mem_core_builtin.c ****  *  STATIC VARIABLES
  52:Drivers/lvgl/src/stdlib/builtin/lv_mem_core_builtin.c ****  **********************/
  53:Drivers/lvgl/src/stdlib/builtin/lv_mem_core_builtin.c **** 
  54:Drivers/lvgl/src/stdlib/builtin/lv_mem_core_builtin.c **** /**********************
  55:Drivers/lvgl/src/stdlib/builtin/lv_mem_core_builtin.c ****  *      MACROS
  56:Drivers/lvgl/src/stdlib/builtin/lv_mem_core_builtin.c ****  **********************/
  57:Drivers/lvgl/src/stdlib/builtin/lv_mem_core_builtin.c **** #if LV_USE_LOG && LV_LOG_TRACE_MEM
  58:Drivers/lvgl/src/stdlib/builtin/lv_mem_core_builtin.c ****     #define LV_TRACE_MEM(...) LV_LOG_TRACE(__VA_ARGS__)
  59:Drivers/lvgl/src/stdlib/builtin/lv_mem_core_builtin.c **** #else
  60:Drivers/lvgl/src/stdlib/builtin/lv_mem_core_builtin.c ****     #define LV_TRACE_MEM(...)
  61:Drivers/lvgl/src/stdlib/builtin/lv_mem_core_builtin.c **** #endif
  62:Drivers/lvgl/src/stdlib/builtin/lv_mem_core_builtin.c **** 
  63:Drivers/lvgl/src/stdlib/builtin/lv_mem_core_builtin.c **** #define _COPY(d, s) *d = *s; d++; s++;
  64:Drivers/lvgl/src/stdlib/builtin/lv_mem_core_builtin.c **** #define _SET(d, v) *d = v; d++;
  65:Drivers/lvgl/src/stdlib/builtin/lv_mem_core_builtin.c **** #define _REPEAT8(expr) expr expr expr expr expr expr expr expr
  66:Drivers/lvgl/src/stdlib/builtin/lv_mem_core_builtin.c **** 
  67:Drivers/lvgl/src/stdlib/builtin/lv_mem_core_builtin.c **** /**********************
  68:Drivers/lvgl/src/stdlib/builtin/lv_mem_core_builtin.c ****  *   GLOBAL FUNCTIONS
  69:Drivers/lvgl/src/stdlib/builtin/lv_mem_core_builtin.c ****  **********************/
  70:Drivers/lvgl/src/stdlib/builtin/lv_mem_core_builtin.c **** 
  71:Drivers/lvgl/src/stdlib/builtin/lv_mem_core_builtin.c **** void lv_mem_init(void)
  72:Drivers/lvgl/src/stdlib/builtin/lv_mem_core_builtin.c **** {
  73:Drivers/lvgl/src/stdlib/builtin/lv_mem_core_builtin.c **** #if LV_USE_OS
  74:Drivers/lvgl/src/stdlib/builtin/lv_mem_core_builtin.c ****     lv_mutex_init(&state.mutex);
  75:Drivers/lvgl/src/stdlib/builtin/lv_mem_core_builtin.c **** #endif
  76:Drivers/lvgl/src/stdlib/builtin/lv_mem_core_builtin.c **** 
  77:Drivers/lvgl/src/stdlib/builtin/lv_mem_core_builtin.c **** #if LV_MEM_ADR == 0
  78:Drivers/lvgl/src/stdlib/builtin/lv_mem_core_builtin.c **** #ifdef LV_MEM_POOL_ALLOC
  79:Drivers/lvgl/src/stdlib/builtin/lv_mem_core_builtin.c ****     state.tlsf = lv_tlsf_create_with_pool((void *)LV_MEM_POOL_ALLOC(LV_MEM_SIZE), LV_MEM_SIZE);
  80:Drivers/lvgl/src/stdlib/builtin/lv_mem_core_builtin.c **** #else
  81:Drivers/lvgl/src/stdlib/builtin/lv_mem_core_builtin.c ****     /*Allocate a large array to store the dynamically allocated data*/
  82:Drivers/lvgl/src/stdlib/builtin/lv_mem_core_builtin.c ****     static MEM_UNIT work_mem_int[LV_MEM_SIZE / sizeof(MEM_UNIT)] LV_ATTRIBUTE_LARGE_RAM_ARRAY;
  83:Drivers/lvgl/src/stdlib/builtin/lv_mem_core_builtin.c ****     state.tlsf = lv_tlsf_create_with_pool((void *)work_mem_int, LV_MEM_SIZE);
  84:Drivers/lvgl/src/stdlib/builtin/lv_mem_core_builtin.c **** #endif
  85:Drivers/lvgl/src/stdlib/builtin/lv_mem_core_builtin.c **** #else
  86:Drivers/lvgl/src/stdlib/builtin/lv_mem_core_builtin.c ****     state.tlsf = lv_tlsf_create_with_pool((void *)LV_MEM_ADR, LV_MEM_SIZE);
  87:Drivers/lvgl/src/stdlib/builtin/lv_mem_core_builtin.c **** #endif
ARM GAS  /var/folders/qx/2_175_4n2s19vhvtspjhb3qh0000gn/T//ccsQQ2VN.s 			page 3


  88:Drivers/lvgl/src/stdlib/builtin/lv_mem_core_builtin.c **** 
  89:Drivers/lvgl/src/stdlib/builtin/lv_mem_core_builtin.c ****     lv_ll_init(&state.pool_ll, sizeof(lv_pool_t));
  90:Drivers/lvgl/src/stdlib/builtin/lv_mem_core_builtin.c **** 
  91:Drivers/lvgl/src/stdlib/builtin/lv_mem_core_builtin.c ****     /*Record the first pool*/
  92:Drivers/lvgl/src/stdlib/builtin/lv_mem_core_builtin.c ****     lv_pool_t * pool_p = lv_ll_ins_tail(&state.pool_ll);
  93:Drivers/lvgl/src/stdlib/builtin/lv_mem_core_builtin.c ****     LV_ASSERT_MALLOC(pool_p);
  94:Drivers/lvgl/src/stdlib/builtin/lv_mem_core_builtin.c ****     *pool_p = lv_tlsf_get_pool(state.tlsf);
  95:Drivers/lvgl/src/stdlib/builtin/lv_mem_core_builtin.c **** 
  96:Drivers/lvgl/src/stdlib/builtin/lv_mem_core_builtin.c **** #if LV_MEM_ADD_JUNK
  97:Drivers/lvgl/src/stdlib/builtin/lv_mem_core_builtin.c ****     LV_LOG_WARN("LV_MEM_ADD_JUNK is enabled which makes LVGL much slower");
  98:Drivers/lvgl/src/stdlib/builtin/lv_mem_core_builtin.c **** #endif
  99:Drivers/lvgl/src/stdlib/builtin/lv_mem_core_builtin.c **** }
 100:Drivers/lvgl/src/stdlib/builtin/lv_mem_core_builtin.c **** 
 101:Drivers/lvgl/src/stdlib/builtin/lv_mem_core_builtin.c **** void lv_mem_deinit(void)
 102:Drivers/lvgl/src/stdlib/builtin/lv_mem_core_builtin.c **** {
 103:Drivers/lvgl/src/stdlib/builtin/lv_mem_core_builtin.c ****     lv_ll_clear(&state.pool_ll);
 104:Drivers/lvgl/src/stdlib/builtin/lv_mem_core_builtin.c ****     lv_tlsf_destroy(state.tlsf);
 105:Drivers/lvgl/src/stdlib/builtin/lv_mem_core_builtin.c **** #if LV_USE_OS
 106:Drivers/lvgl/src/stdlib/builtin/lv_mem_core_builtin.c ****     lv_mutex_delete(&state.mutex);
 107:Drivers/lvgl/src/stdlib/builtin/lv_mem_core_builtin.c **** #endif
 108:Drivers/lvgl/src/stdlib/builtin/lv_mem_core_builtin.c **** }
 109:Drivers/lvgl/src/stdlib/builtin/lv_mem_core_builtin.c **** 
 110:Drivers/lvgl/src/stdlib/builtin/lv_mem_core_builtin.c **** lv_mem_pool_t lv_mem_add_pool(void * mem, size_t bytes)
 111:Drivers/lvgl/src/stdlib/builtin/lv_mem_core_builtin.c **** {
 112:Drivers/lvgl/src/stdlib/builtin/lv_mem_core_builtin.c ****     lv_mem_pool_t new_pool = lv_tlsf_add_pool(state.tlsf, mem, bytes);
 113:Drivers/lvgl/src/stdlib/builtin/lv_mem_core_builtin.c ****     if(!new_pool) {
 114:Drivers/lvgl/src/stdlib/builtin/lv_mem_core_builtin.c ****         LV_LOG_WARN("failed to add memory pool, address: %p, size: %zu", mem, bytes);
 115:Drivers/lvgl/src/stdlib/builtin/lv_mem_core_builtin.c ****         return NULL;
 116:Drivers/lvgl/src/stdlib/builtin/lv_mem_core_builtin.c ****     }
 117:Drivers/lvgl/src/stdlib/builtin/lv_mem_core_builtin.c **** 
 118:Drivers/lvgl/src/stdlib/builtin/lv_mem_core_builtin.c ****     lv_pool_t * pool_p = lv_ll_ins_tail(&state.pool_ll);
 119:Drivers/lvgl/src/stdlib/builtin/lv_mem_core_builtin.c ****     LV_ASSERT_MALLOC(pool_p);
 120:Drivers/lvgl/src/stdlib/builtin/lv_mem_core_builtin.c ****     *pool_p = new_pool;
 121:Drivers/lvgl/src/stdlib/builtin/lv_mem_core_builtin.c **** 
 122:Drivers/lvgl/src/stdlib/builtin/lv_mem_core_builtin.c ****     return new_pool;
 123:Drivers/lvgl/src/stdlib/builtin/lv_mem_core_builtin.c **** }
 124:Drivers/lvgl/src/stdlib/builtin/lv_mem_core_builtin.c **** 
 125:Drivers/lvgl/src/stdlib/builtin/lv_mem_core_builtin.c **** void lv_mem_remove_pool(lv_mem_pool_t pool)
 126:Drivers/lvgl/src/stdlib/builtin/lv_mem_core_builtin.c **** {
 127:Drivers/lvgl/src/stdlib/builtin/lv_mem_core_builtin.c ****     lv_pool_t * pool_p;
 128:Drivers/lvgl/src/stdlib/builtin/lv_mem_core_builtin.c ****     LV_LL_READ(&state.pool_ll, pool_p) {
 129:Drivers/lvgl/src/stdlib/builtin/lv_mem_core_builtin.c ****         if(*pool_p == pool) {
 130:Drivers/lvgl/src/stdlib/builtin/lv_mem_core_builtin.c ****             lv_ll_remove(&state.pool_ll, pool_p);
 131:Drivers/lvgl/src/stdlib/builtin/lv_mem_core_builtin.c ****             lv_free(pool_p);
 132:Drivers/lvgl/src/stdlib/builtin/lv_mem_core_builtin.c ****             lv_tlsf_remove_pool(state.tlsf, pool);
 133:Drivers/lvgl/src/stdlib/builtin/lv_mem_core_builtin.c ****             return;
 134:Drivers/lvgl/src/stdlib/builtin/lv_mem_core_builtin.c ****         }
 135:Drivers/lvgl/src/stdlib/builtin/lv_mem_core_builtin.c ****     }
 136:Drivers/lvgl/src/stdlib/builtin/lv_mem_core_builtin.c ****     LV_LOG_WARN("invalid pool: %p", pool);
 137:Drivers/lvgl/src/stdlib/builtin/lv_mem_core_builtin.c **** }
 138:Drivers/lvgl/src/stdlib/builtin/lv_mem_core_builtin.c **** 
 139:Drivers/lvgl/src/stdlib/builtin/lv_mem_core_builtin.c **** void * lv_malloc_core(size_t size)
 140:Drivers/lvgl/src/stdlib/builtin/lv_mem_core_builtin.c **** {
 141:Drivers/lvgl/src/stdlib/builtin/lv_mem_core_builtin.c **** #if LV_USE_OS
 142:Drivers/lvgl/src/stdlib/builtin/lv_mem_core_builtin.c ****     lv_mutex_lock(&state.mutex);
 143:Drivers/lvgl/src/stdlib/builtin/lv_mem_core_builtin.c **** #endif
 144:Drivers/lvgl/src/stdlib/builtin/lv_mem_core_builtin.c ****     void * p = lv_tlsf_malloc(state.tlsf, size);
ARM GAS  /var/folders/qx/2_175_4n2s19vhvtspjhb3qh0000gn/T//ccsQQ2VN.s 			page 4


 145:Drivers/lvgl/src/stdlib/builtin/lv_mem_core_builtin.c **** 
 146:Drivers/lvgl/src/stdlib/builtin/lv_mem_core_builtin.c ****     if(p) {
 147:Drivers/lvgl/src/stdlib/builtin/lv_mem_core_builtin.c ****         state.cur_used += lv_tlsf_block_size(p);
 148:Drivers/lvgl/src/stdlib/builtin/lv_mem_core_builtin.c ****         state.max_used = LV_MAX(state.cur_used, state.max_used);
 149:Drivers/lvgl/src/stdlib/builtin/lv_mem_core_builtin.c ****     }
 150:Drivers/lvgl/src/stdlib/builtin/lv_mem_core_builtin.c **** 
 151:Drivers/lvgl/src/stdlib/builtin/lv_mem_core_builtin.c **** #if LV_USE_OS
 152:Drivers/lvgl/src/stdlib/builtin/lv_mem_core_builtin.c ****     lv_mutex_unlock(&state.mutex);
 153:Drivers/lvgl/src/stdlib/builtin/lv_mem_core_builtin.c **** #endif
 154:Drivers/lvgl/src/stdlib/builtin/lv_mem_core_builtin.c ****     return p;
 155:Drivers/lvgl/src/stdlib/builtin/lv_mem_core_builtin.c **** }
 156:Drivers/lvgl/src/stdlib/builtin/lv_mem_core_builtin.c **** 
 157:Drivers/lvgl/src/stdlib/builtin/lv_mem_core_builtin.c **** void * lv_realloc_core(void * p, size_t new_size)
 158:Drivers/lvgl/src/stdlib/builtin/lv_mem_core_builtin.c **** {
 159:Drivers/lvgl/src/stdlib/builtin/lv_mem_core_builtin.c **** #if LV_USE_OS
 160:Drivers/lvgl/src/stdlib/builtin/lv_mem_core_builtin.c ****     lv_mutex_lock(&state.mutex);
 161:Drivers/lvgl/src/stdlib/builtin/lv_mem_core_builtin.c **** #endif
 162:Drivers/lvgl/src/stdlib/builtin/lv_mem_core_builtin.c **** 
 163:Drivers/lvgl/src/stdlib/builtin/lv_mem_core_builtin.c ****     size_t old_size = lv_tlsf_block_size(p);
 164:Drivers/lvgl/src/stdlib/builtin/lv_mem_core_builtin.c ****     void * p_new = lv_tlsf_realloc(state.tlsf, p, new_size);
 165:Drivers/lvgl/src/stdlib/builtin/lv_mem_core_builtin.c **** 
 166:Drivers/lvgl/src/stdlib/builtin/lv_mem_core_builtin.c ****     if(p_new) {
 167:Drivers/lvgl/src/stdlib/builtin/lv_mem_core_builtin.c ****         state.cur_used -= old_size;
 168:Drivers/lvgl/src/stdlib/builtin/lv_mem_core_builtin.c ****         state.cur_used += lv_tlsf_block_size(p_new);
 169:Drivers/lvgl/src/stdlib/builtin/lv_mem_core_builtin.c ****         state.max_used = LV_MAX(state.cur_used, state.max_used);
 170:Drivers/lvgl/src/stdlib/builtin/lv_mem_core_builtin.c ****     }
 171:Drivers/lvgl/src/stdlib/builtin/lv_mem_core_builtin.c **** #if LV_USE_OS
 172:Drivers/lvgl/src/stdlib/builtin/lv_mem_core_builtin.c ****     lv_mutex_unlock(&state.mutex);
 173:Drivers/lvgl/src/stdlib/builtin/lv_mem_core_builtin.c **** #endif
 174:Drivers/lvgl/src/stdlib/builtin/lv_mem_core_builtin.c **** 
 175:Drivers/lvgl/src/stdlib/builtin/lv_mem_core_builtin.c ****     return p_new;
 176:Drivers/lvgl/src/stdlib/builtin/lv_mem_core_builtin.c **** }
 177:Drivers/lvgl/src/stdlib/builtin/lv_mem_core_builtin.c **** 
 178:Drivers/lvgl/src/stdlib/builtin/lv_mem_core_builtin.c **** void lv_free_core(void * p)
 179:Drivers/lvgl/src/stdlib/builtin/lv_mem_core_builtin.c **** {
 180:Drivers/lvgl/src/stdlib/builtin/lv_mem_core_builtin.c **** #if LV_USE_OS
 181:Drivers/lvgl/src/stdlib/builtin/lv_mem_core_builtin.c ****     lv_mutex_lock(&state.mutex);
 182:Drivers/lvgl/src/stdlib/builtin/lv_mem_core_builtin.c **** #endif
 183:Drivers/lvgl/src/stdlib/builtin/lv_mem_core_builtin.c **** 
 184:Drivers/lvgl/src/stdlib/builtin/lv_mem_core_builtin.c **** #if LV_MEM_ADD_JUNK
 185:Drivers/lvgl/src/stdlib/builtin/lv_mem_core_builtin.c ****     lv_memset(p, 0xbb, lv_tlsf_block_size(data));
 186:Drivers/lvgl/src/stdlib/builtin/lv_mem_core_builtin.c **** #endif
 187:Drivers/lvgl/src/stdlib/builtin/lv_mem_core_builtin.c ****     size_t size = lv_tlsf_block_size(p);
 188:Drivers/lvgl/src/stdlib/builtin/lv_mem_core_builtin.c ****     lv_tlsf_free(state.tlsf, p);
 189:Drivers/lvgl/src/stdlib/builtin/lv_mem_core_builtin.c ****     if(state.cur_used > size) state.cur_used -= size;
 190:Drivers/lvgl/src/stdlib/builtin/lv_mem_core_builtin.c ****     else state.cur_used = 0;
 191:Drivers/lvgl/src/stdlib/builtin/lv_mem_core_builtin.c **** 
 192:Drivers/lvgl/src/stdlib/builtin/lv_mem_core_builtin.c **** #if LV_USE_OS
 193:Drivers/lvgl/src/stdlib/builtin/lv_mem_core_builtin.c ****     lv_mutex_unlock(&state.mutex);
 194:Drivers/lvgl/src/stdlib/builtin/lv_mem_core_builtin.c **** #endif
 195:Drivers/lvgl/src/stdlib/builtin/lv_mem_core_builtin.c **** }
 196:Drivers/lvgl/src/stdlib/builtin/lv_mem_core_builtin.c **** 
 197:Drivers/lvgl/src/stdlib/builtin/lv_mem_core_builtin.c **** void lv_mem_monitor_core(lv_mem_monitor_t * mon_p)
 198:Drivers/lvgl/src/stdlib/builtin/lv_mem_core_builtin.c **** {
 199:Drivers/lvgl/src/stdlib/builtin/lv_mem_core_builtin.c ****     /*Init the data*/
 200:Drivers/lvgl/src/stdlib/builtin/lv_mem_core_builtin.c ****     lv_memzero(mon_p, sizeof(lv_mem_monitor_t));
 201:Drivers/lvgl/src/stdlib/builtin/lv_mem_core_builtin.c ****     LV_TRACE_MEM("begin");
ARM GAS  /var/folders/qx/2_175_4n2s19vhvtspjhb3qh0000gn/T//ccsQQ2VN.s 			page 5


 202:Drivers/lvgl/src/stdlib/builtin/lv_mem_core_builtin.c **** 
 203:Drivers/lvgl/src/stdlib/builtin/lv_mem_core_builtin.c ****     lv_pool_t * pool_p;
 204:Drivers/lvgl/src/stdlib/builtin/lv_mem_core_builtin.c ****     LV_LL_READ(&state.pool_ll, pool_p) {
 205:Drivers/lvgl/src/stdlib/builtin/lv_mem_core_builtin.c ****         lv_tlsf_walk_pool(*pool_p, lv_mem_walker, mon_p);
 206:Drivers/lvgl/src/stdlib/builtin/lv_mem_core_builtin.c ****     }
 207:Drivers/lvgl/src/stdlib/builtin/lv_mem_core_builtin.c **** 
 208:Drivers/lvgl/src/stdlib/builtin/lv_mem_core_builtin.c ****     mon_p->used_pct = 100 - (uint64_t)100U * mon_p->free_size / mon_p->total_size;
 209:Drivers/lvgl/src/stdlib/builtin/lv_mem_core_builtin.c ****     if(mon_p->free_size > 0) {
 210:Drivers/lvgl/src/stdlib/builtin/lv_mem_core_builtin.c ****         mon_p->frag_pct = (uint64_t)mon_p->free_biggest_size * 100U / mon_p->free_size;
 211:Drivers/lvgl/src/stdlib/builtin/lv_mem_core_builtin.c ****         mon_p->frag_pct = 100 - mon_p->frag_pct;
 212:Drivers/lvgl/src/stdlib/builtin/lv_mem_core_builtin.c ****     }
 213:Drivers/lvgl/src/stdlib/builtin/lv_mem_core_builtin.c ****     else {
 214:Drivers/lvgl/src/stdlib/builtin/lv_mem_core_builtin.c ****         mon_p->frag_pct = 0; /*no fragmentation if all the RAM is used*/
 215:Drivers/lvgl/src/stdlib/builtin/lv_mem_core_builtin.c ****     }
 216:Drivers/lvgl/src/stdlib/builtin/lv_mem_core_builtin.c **** 
 217:Drivers/lvgl/src/stdlib/builtin/lv_mem_core_builtin.c ****     mon_p->max_used = state.max_used;
 218:Drivers/lvgl/src/stdlib/builtin/lv_mem_core_builtin.c **** 
 219:Drivers/lvgl/src/stdlib/builtin/lv_mem_core_builtin.c ****     LV_TRACE_MEM("finished");
 220:Drivers/lvgl/src/stdlib/builtin/lv_mem_core_builtin.c **** }
 221:Drivers/lvgl/src/stdlib/builtin/lv_mem_core_builtin.c **** 
 222:Drivers/lvgl/src/stdlib/builtin/lv_mem_core_builtin.c **** lv_result_t lv_mem_test_core(void)
 223:Drivers/lvgl/src/stdlib/builtin/lv_mem_core_builtin.c **** {
 224:Drivers/lvgl/src/stdlib/builtin/lv_mem_core_builtin.c **** #if LV_USE_OS
 225:Drivers/lvgl/src/stdlib/builtin/lv_mem_core_builtin.c ****     lv_mutex_lock(&state.mutex);
 226:Drivers/lvgl/src/stdlib/builtin/lv_mem_core_builtin.c **** #endif
 227:Drivers/lvgl/src/stdlib/builtin/lv_mem_core_builtin.c ****     if(lv_tlsf_check(state.tlsf)) {
 228:Drivers/lvgl/src/stdlib/builtin/lv_mem_core_builtin.c ****         LV_LOG_WARN("failed");
 229:Drivers/lvgl/src/stdlib/builtin/lv_mem_core_builtin.c **** #if LV_USE_OS
 230:Drivers/lvgl/src/stdlib/builtin/lv_mem_core_builtin.c ****         lv_mutex_unlock(&state.mutex);
 231:Drivers/lvgl/src/stdlib/builtin/lv_mem_core_builtin.c **** #endif
 232:Drivers/lvgl/src/stdlib/builtin/lv_mem_core_builtin.c ****         return LV_RESULT_INVALID;
 233:Drivers/lvgl/src/stdlib/builtin/lv_mem_core_builtin.c ****     }
 234:Drivers/lvgl/src/stdlib/builtin/lv_mem_core_builtin.c **** 
 235:Drivers/lvgl/src/stdlib/builtin/lv_mem_core_builtin.c ****     lv_pool_t * pool_p;
 236:Drivers/lvgl/src/stdlib/builtin/lv_mem_core_builtin.c ****     LV_LL_READ(&state.pool_ll, pool_p) {
 237:Drivers/lvgl/src/stdlib/builtin/lv_mem_core_builtin.c ****         if(lv_tlsf_check_pool(*pool_p)) {
 238:Drivers/lvgl/src/stdlib/builtin/lv_mem_core_builtin.c ****             LV_LOG_WARN("pool failed");
 239:Drivers/lvgl/src/stdlib/builtin/lv_mem_core_builtin.c **** #if LV_USE_OS
 240:Drivers/lvgl/src/stdlib/builtin/lv_mem_core_builtin.c ****             lv_mutex_unlock(&state.mutex);
 241:Drivers/lvgl/src/stdlib/builtin/lv_mem_core_builtin.c **** #endif
 242:Drivers/lvgl/src/stdlib/builtin/lv_mem_core_builtin.c ****             return LV_RESULT_INVALID;
 243:Drivers/lvgl/src/stdlib/builtin/lv_mem_core_builtin.c ****         }
 244:Drivers/lvgl/src/stdlib/builtin/lv_mem_core_builtin.c ****     }
 245:Drivers/lvgl/src/stdlib/builtin/lv_mem_core_builtin.c **** 
 246:Drivers/lvgl/src/stdlib/builtin/lv_mem_core_builtin.c ****     LV_TRACE_MEM("passed");
 247:Drivers/lvgl/src/stdlib/builtin/lv_mem_core_builtin.c **** #if LV_USE_OS
 248:Drivers/lvgl/src/stdlib/builtin/lv_mem_core_builtin.c ****     lv_mutex_unlock(&state.mutex);
 249:Drivers/lvgl/src/stdlib/builtin/lv_mem_core_builtin.c **** #endif
 250:Drivers/lvgl/src/stdlib/builtin/lv_mem_core_builtin.c ****     return LV_RESULT_OK;
 251:Drivers/lvgl/src/stdlib/builtin/lv_mem_core_builtin.c **** }
 252:Drivers/lvgl/src/stdlib/builtin/lv_mem_core_builtin.c **** 
 253:Drivers/lvgl/src/stdlib/builtin/lv_mem_core_builtin.c **** /**********************
 254:Drivers/lvgl/src/stdlib/builtin/lv_mem_core_builtin.c ****  *   STATIC FUNCTIONS
 255:Drivers/lvgl/src/stdlib/builtin/lv_mem_core_builtin.c ****  **********************/
 256:Drivers/lvgl/src/stdlib/builtin/lv_mem_core_builtin.c **** 
 257:Drivers/lvgl/src/stdlib/builtin/lv_mem_core_builtin.c **** static void lv_mem_walker(void * ptr, size_t size, int used, void * user)
 258:Drivers/lvgl/src/stdlib/builtin/lv_mem_core_builtin.c **** {
ARM GAS  /var/folders/qx/2_175_4n2s19vhvtspjhb3qh0000gn/T//ccsQQ2VN.s 			page 6


  29              		.loc 1 258 1 view -0
  30              		.cfi_startproc
  31              		@ args = 0, pretend = 0, frame = 0
  32              		@ frame_needed = 0, uses_anonymous_args = 0
  33              		@ link register save eliminated.
 259:Drivers/lvgl/src/stdlib/builtin/lv_mem_core_builtin.c ****     LV_UNUSED(ptr);
  34              		.loc 1 259 5 view .LVU1
 260:Drivers/lvgl/src/stdlib/builtin/lv_mem_core_builtin.c **** 
 261:Drivers/lvgl/src/stdlib/builtin/lv_mem_core_builtin.c ****     lv_mem_monitor_t * mon_p = user;
  35              		.loc 1 261 5 view .LVU2
 262:Drivers/lvgl/src/stdlib/builtin/lv_mem_core_builtin.c ****     mon_p->total_size += size;
  36              		.loc 1 262 5 view .LVU3
  37              		.loc 1 262 10 is_stmt 0 view .LVU4
  38 0000 1868     		ldr	r0, [r3]
  39              	.LVL1:
  40              		.loc 1 262 23 view .LVU5
  41 0002 0844     		add	r0, r0, r1
  42 0004 1860     		str	r0, [r3]
 263:Drivers/lvgl/src/stdlib/builtin/lv_mem_core_builtin.c ****     if(used) {
  43              		.loc 1 263 5 is_stmt 1 view .LVU6
  44              		.loc 1 263 7 is_stmt 0 view .LVU7
  45 0006 1AB1     		cbz	r2, .L2
 264:Drivers/lvgl/src/stdlib/builtin/lv_mem_core_builtin.c ****         mon_p->used_cnt++;
  46              		.loc 1 264 9 is_stmt 1 view .LVU8
  47              		.loc 1 264 14 is_stmt 0 view .LVU9
  48 0008 1A69     		ldr	r2, [r3, #16]
  49              	.LVL2:
  50              		.loc 1 264 24 view .LVU10
  51 000a 0132     		adds	r2, r2, #1
  52 000c 1A61     		str	r2, [r3, #16]
  53 000e 7047     		bx	lr
  54              	.LVL3:
  55              	.L2:
 265:Drivers/lvgl/src/stdlib/builtin/lv_mem_core_builtin.c ****     }
 266:Drivers/lvgl/src/stdlib/builtin/lv_mem_core_builtin.c ****     else {
 267:Drivers/lvgl/src/stdlib/builtin/lv_mem_core_builtin.c ****         mon_p->free_cnt++;
  56              		.loc 1 267 9 is_stmt 1 view .LVU11
  57              		.loc 1 267 14 is_stmt 0 view .LVU12
  58 0010 5A68     		ldr	r2, [r3, #4]
  59              	.LVL4:
  60              		.loc 1 267 24 view .LVU13
  61 0012 0132     		adds	r2, r2, #1
  62 0014 5A60     		str	r2, [r3, #4]
 268:Drivers/lvgl/src/stdlib/builtin/lv_mem_core_builtin.c ****         mon_p->free_size += size;
  63              		.loc 1 268 9 is_stmt 1 view .LVU14
  64              		.loc 1 268 14 is_stmt 0 view .LVU15
  65 0016 9A68     		ldr	r2, [r3, #8]
  66              		.loc 1 268 26 view .LVU16
  67 0018 0A44     		add	r2, r2, r1
  68 001a 9A60     		str	r2, [r3, #8]
 269:Drivers/lvgl/src/stdlib/builtin/lv_mem_core_builtin.c ****         if(size > mon_p->free_biggest_size)
  69              		.loc 1 269 9 is_stmt 1 view .LVU17
  70              		.loc 1 269 24 is_stmt 0 view .LVU18
  71 001c DA68     		ldr	r2, [r3, #12]
  72              		.loc 1 269 11 view .LVU19
  73 001e 8A42     		cmp	r2, r1
  74 0020 00D2     		bcs	.L1
ARM GAS  /var/folders/qx/2_175_4n2s19vhvtspjhb3qh0000gn/T//ccsQQ2VN.s 			page 7


 270:Drivers/lvgl/src/stdlib/builtin/lv_mem_core_builtin.c ****             mon_p->free_biggest_size = size;
  75              		.loc 1 270 13 is_stmt 1 view .LVU20
  76              		.loc 1 270 38 is_stmt 0 view .LVU21
  77 0022 D960     		str	r1, [r3, #12]
  78              	.L1:
 271:Drivers/lvgl/src/stdlib/builtin/lv_mem_core_builtin.c ****     }
 272:Drivers/lvgl/src/stdlib/builtin/lv_mem_core_builtin.c **** }
  79              		.loc 1 272 1 view .LVU22
  80 0024 7047     		bx	lr
  81              		.cfi_endproc
  82              	.LFE202:
  84              		.section	.text.lv_mem_init,"ax",%progbits
  85              		.align	1
  86              		.global	lv_mem_init
  87              		.syntax unified
  88              		.thumb
  89              		.thumb_func
  91              	lv_mem_init:
  92              	.LFB193:
  72:Drivers/lvgl/src/stdlib/builtin/lv_mem_core_builtin.c **** #if LV_USE_OS
  93              		.loc 1 72 1 is_stmt 1 view -0
  94              		.cfi_startproc
  95              		@ args = 0, pretend = 0, frame = 0
  96              		@ frame_needed = 0, uses_anonymous_args = 0
  97 0000 10B5     		push	{r4, lr}
  98              	.LCFI0:
  99              		.cfi_def_cfa_offset 8
 100              		.cfi_offset 4, -8
 101              		.cfi_offset 14, -4
  82:Drivers/lvgl/src/stdlib/builtin/lv_mem_core_builtin.c ****     state.tlsf = lv_tlsf_create_with_pool((void *)work_mem_int, LV_MEM_SIZE);
 102              		.loc 1 82 5 view .LVU24
  83:Drivers/lvgl/src/stdlib/builtin/lv_mem_core_builtin.c **** #endif
 103              		.loc 1 83 5 view .LVU25
  83:Drivers/lvgl/src/stdlib/builtin/lv_mem_core_builtin.c **** #endif
 104              		.loc 1 83 18 is_stmt 0 view .LVU26
 105 0002 4FF48031 		mov	r1, #65536
 106 0006 0C48     		ldr	r0, .L8
 107 0008 FFF7FEFF 		bl	lv_tlsf_create_with_pool
 108              	.LVL5:
  83:Drivers/lvgl/src/stdlib/builtin/lv_mem_core_builtin.c **** #endif
 109              		.loc 1 83 16 discriminator 1 view .LVU27
 110 000c 0B4C     		ldr	r4, .L8+4
 111 000e C4F8D401 		str	r0, [r4, #468]
  89:Drivers/lvgl/src/stdlib/builtin/lv_mem_core_builtin.c **** 
 112              		.loc 1 89 5 is_stmt 1 view .LVU28
 113 0012 04F5F074 		add	r4, r4, #480
 114 0016 0421     		movs	r1, #4
 115 0018 2046     		mov	r0, r4
 116 001a FFF7FEFF 		bl	lv_ll_init
 117              	.LVL6:
  92:Drivers/lvgl/src/stdlib/builtin/lv_mem_core_builtin.c ****     LV_ASSERT_MALLOC(pool_p);
 118              		.loc 1 92 5 view .LVU29
  92:Drivers/lvgl/src/stdlib/builtin/lv_mem_core_builtin.c ****     LV_ASSERT_MALLOC(pool_p);
 119              		.loc 1 92 26 is_stmt 0 view .LVU30
 120 001e 2046     		mov	r0, r4
 121 0020 FFF7FEFF 		bl	lv_ll_ins_tail
 122              	.LVL7:
ARM GAS  /var/folders/qx/2_175_4n2s19vhvtspjhb3qh0000gn/T//ccsQQ2VN.s 			page 8


  93:Drivers/lvgl/src/stdlib/builtin/lv_mem_core_builtin.c ****     *pool_p = lv_tlsf_get_pool(state.tlsf);
 123              		.loc 1 93 5 is_stmt 1 view .LVU31
  93:Drivers/lvgl/src/stdlib/builtin/lv_mem_core_builtin.c ****     *pool_p = lv_tlsf_get_pool(state.tlsf);
 124              		.loc 1 93 5 view .LVU32
 125 0024 38B1     		cbz	r0, .L6
 126 0026 0446     		mov	r4, r0
  93:Drivers/lvgl/src/stdlib/builtin/lv_mem_core_builtin.c ****     *pool_p = lv_tlsf_get_pool(state.tlsf);
 127              		.loc 1 93 5 view .LVU33
  93:Drivers/lvgl/src/stdlib/builtin/lv_mem_core_builtin.c ****     *pool_p = lv_tlsf_get_pool(state.tlsf);
 128              		.loc 1 93 29 view .LVU34
  94:Drivers/lvgl/src/stdlib/builtin/lv_mem_core_builtin.c **** 
 129              		.loc 1 94 5 view .LVU35
  94:Drivers/lvgl/src/stdlib/builtin/lv_mem_core_builtin.c **** 
 130              		.loc 1 94 15 is_stmt 0 view .LVU36
 131 0028 044B     		ldr	r3, .L8+4
 132 002a D3F8D401 		ldr	r0, [r3, #468]
 133              	.LVL8:
  94:Drivers/lvgl/src/stdlib/builtin/lv_mem_core_builtin.c **** 
 134              		.loc 1 94 15 view .LVU37
 135 002e FFF7FEFF 		bl	lv_tlsf_get_pool
 136              	.LVL9:
  94:Drivers/lvgl/src/stdlib/builtin/lv_mem_core_builtin.c **** 
 137              		.loc 1 94 13 discriminator 1 view .LVU38
 138 0032 2060     		str	r0, [r4]
  99:Drivers/lvgl/src/stdlib/builtin/lv_mem_core_builtin.c **** 
 139              		.loc 1 99 1 view .LVU39
 140 0034 10BD     		pop	{r4, pc}
 141              	.LVL10:
 142              	.L6:
  93:Drivers/lvgl/src/stdlib/builtin/lv_mem_core_builtin.c ****     *pool_p = lv_tlsf_get_pool(state.tlsf);
 143              		.loc 1 93 5 is_stmt 1 view .LVU40
  93:Drivers/lvgl/src/stdlib/builtin/lv_mem_core_builtin.c ****     *pool_p = lv_tlsf_get_pool(state.tlsf);
 144              		.loc 1 93 5 view .LVU41
  93:Drivers/lvgl/src/stdlib/builtin/lv_mem_core_builtin.c ****     *pool_p = lv_tlsf_get_pool(state.tlsf);
 145              		.loc 1 93 5 view .LVU42
  93:Drivers/lvgl/src/stdlib/builtin/lv_mem_core_builtin.c ****     *pool_p = lv_tlsf_get_pool(state.tlsf);
 146              		.loc 1 93 5 view .LVU43
  93:Drivers/lvgl/src/stdlib/builtin/lv_mem_core_builtin.c ****     *pool_p = lv_tlsf_get_pool(state.tlsf);
 147              		.loc 1 93 5 view .LVU44
 148 0036 FEE7     		b	.L6
 149              	.L9:
 150              		.align	2
 151              	.L8:
 152 0038 00000000 		.word	work_mem_int.0
 153 003c 00000000 		.word	lv_global
 154              		.cfi_endproc
 155              	.LFE193:
 157              		.section	.text.lv_mem_deinit,"ax",%progbits
 158              		.align	1
 159              		.global	lv_mem_deinit
 160              		.syntax unified
 161              		.thumb
 162              		.thumb_func
 164              	lv_mem_deinit:
 165              	.LFB194:
 102:Drivers/lvgl/src/stdlib/builtin/lv_mem_core_builtin.c ****     lv_ll_clear(&state.pool_ll);
 166              		.loc 1 102 1 view -0
ARM GAS  /var/folders/qx/2_175_4n2s19vhvtspjhb3qh0000gn/T//ccsQQ2VN.s 			page 9


 167              		.cfi_startproc
 168              		@ args = 0, pretend = 0, frame = 0
 169              		@ frame_needed = 0, uses_anonymous_args = 0
 170 0000 10B5     		push	{r4, lr}
 171              	.LCFI1:
 172              		.cfi_def_cfa_offset 8
 173              		.cfi_offset 4, -8
 174              		.cfi_offset 14, -4
 103:Drivers/lvgl/src/stdlib/builtin/lv_mem_core_builtin.c ****     lv_tlsf_destroy(state.tlsf);
 175              		.loc 1 103 5 view .LVU46
 176 0002 044C     		ldr	r4, .L12
 177 0004 2046     		mov	r0, r4
 178 0006 FFF7FEFF 		bl	lv_ll_clear
 179              	.LVL11:
 104:Drivers/lvgl/src/stdlib/builtin/lv_mem_core_builtin.c **** #if LV_USE_OS
 180              		.loc 1 104 5 view .LVU47
 181 000a 54F80C0C 		ldr	r0, [r4, #-12]
 182 000e FFF7FEFF 		bl	lv_tlsf_destroy
 183              	.LVL12:
 108:Drivers/lvgl/src/stdlib/builtin/lv_mem_core_builtin.c **** 
 184              		.loc 1 108 1 is_stmt 0 view .LVU48
 185 0012 10BD     		pop	{r4, pc}
 186              	.L13:
 187              		.align	2
 188              	.L12:
 189 0014 E0010000 		.word	lv_global+480
 190              		.cfi_endproc
 191              	.LFE194:
 193              		.section	.text.lv_mem_add_pool,"ax",%progbits
 194              		.align	1
 195              		.global	lv_mem_add_pool
 196              		.syntax unified
 197              		.thumb
 198              		.thumb_func
 200              	lv_mem_add_pool:
 201              	.LVL13:
 202              	.LFB195:
 111:Drivers/lvgl/src/stdlib/builtin/lv_mem_core_builtin.c ****     lv_mem_pool_t new_pool = lv_tlsf_add_pool(state.tlsf, mem, bytes);
 203              		.loc 1 111 1 is_stmt 1 view -0
 204              		.cfi_startproc
 205              		@ args = 0, pretend = 0, frame = 0
 206              		@ frame_needed = 0, uses_anonymous_args = 0
 111:Drivers/lvgl/src/stdlib/builtin/lv_mem_core_builtin.c ****     lv_mem_pool_t new_pool = lv_tlsf_add_pool(state.tlsf, mem, bytes);
 207              		.loc 1 111 1 is_stmt 0 view .LVU50
 208 0000 10B5     		push	{r4, lr}
 209              	.LCFI2:
 210              		.cfi_def_cfa_offset 8
 211              		.cfi_offset 4, -8
 212              		.cfi_offset 14, -4
 213 0002 0A46     		mov	r2, r1
 112:Drivers/lvgl/src/stdlib/builtin/lv_mem_core_builtin.c ****     if(!new_pool) {
 214              		.loc 1 112 5 is_stmt 1 view .LVU51
 112:Drivers/lvgl/src/stdlib/builtin/lv_mem_core_builtin.c ****     if(!new_pool) {
 215              		.loc 1 112 30 is_stmt 0 view .LVU52
 216 0004 0146     		mov	r1, r0
 217              	.LVL14:
 112:Drivers/lvgl/src/stdlib/builtin/lv_mem_core_builtin.c ****     if(!new_pool) {
ARM GAS  /var/folders/qx/2_175_4n2s19vhvtspjhb3qh0000gn/T//ccsQQ2VN.s 			page 10


 218              		.loc 1 112 30 view .LVU53
 219 0006 074B     		ldr	r3, .L19
 220 0008 D3F8D401 		ldr	r0, [r3, #468]
 221              	.LVL15:
 112:Drivers/lvgl/src/stdlib/builtin/lv_mem_core_builtin.c ****     if(!new_pool) {
 222              		.loc 1 112 30 view .LVU54
 223 000c FFF7FEFF 		bl	lv_tlsf_add_pool
 224              	.LVL16:
 113:Drivers/lvgl/src/stdlib/builtin/lv_mem_core_builtin.c ****         LV_LOG_WARN("failed to add memory pool, address: %p, size: %zu", mem, bytes);
 225              		.loc 1 113 5 is_stmt 1 view .LVU55
 113:Drivers/lvgl/src/stdlib/builtin/lv_mem_core_builtin.c ****         LV_LOG_WARN("failed to add memory pool, address: %p, size: %zu", mem, bytes);
 226              		.loc 1 113 7 is_stmt 0 view .LVU56
 227 0010 0446     		mov	r4, r0
 228 0012 20B1     		cbz	r0, .L14
 118:Drivers/lvgl/src/stdlib/builtin/lv_mem_core_builtin.c ****     LV_ASSERT_MALLOC(pool_p);
 229              		.loc 1 118 5 is_stmt 1 view .LVU57
 118:Drivers/lvgl/src/stdlib/builtin/lv_mem_core_builtin.c ****     LV_ASSERT_MALLOC(pool_p);
 230              		.loc 1 118 26 is_stmt 0 view .LVU58
 231 0014 0448     		ldr	r0, .L19+4
 232              	.LVL17:
 118:Drivers/lvgl/src/stdlib/builtin/lv_mem_core_builtin.c ****     LV_ASSERT_MALLOC(pool_p);
 233              		.loc 1 118 26 view .LVU59
 234 0016 FFF7FEFF 		bl	lv_ll_ins_tail
 235              	.LVL18:
 119:Drivers/lvgl/src/stdlib/builtin/lv_mem_core_builtin.c ****     *pool_p = new_pool;
 236              		.loc 1 119 5 is_stmt 1 view .LVU60
 119:Drivers/lvgl/src/stdlib/builtin/lv_mem_core_builtin.c ****     *pool_p = new_pool;
 237              		.loc 1 119 5 view .LVU61
 238 001a 10B1     		cbz	r0, .L17
 119:Drivers/lvgl/src/stdlib/builtin/lv_mem_core_builtin.c ****     *pool_p = new_pool;
 239              		.loc 1 119 5 view .LVU62
 119:Drivers/lvgl/src/stdlib/builtin/lv_mem_core_builtin.c ****     *pool_p = new_pool;
 240              		.loc 1 119 29 view .LVU63
 120:Drivers/lvgl/src/stdlib/builtin/lv_mem_core_builtin.c **** 
 241              		.loc 1 120 5 view .LVU64
 120:Drivers/lvgl/src/stdlib/builtin/lv_mem_core_builtin.c **** 
 242              		.loc 1 120 13 is_stmt 0 view .LVU65
 243 001c 0460     		str	r4, [r0]
 122:Drivers/lvgl/src/stdlib/builtin/lv_mem_core_builtin.c **** }
 244              		.loc 1 122 5 is_stmt 1 view .LVU66
 245              	.LVL19:
 246              	.L14:
 123:Drivers/lvgl/src/stdlib/builtin/lv_mem_core_builtin.c **** 
 247              		.loc 1 123 1 is_stmt 0 view .LVU67
 248 001e 2046     		mov	r0, r4
 249 0020 10BD     		pop	{r4, pc}
 250              	.LVL20:
 251              	.L17:
 119:Drivers/lvgl/src/stdlib/builtin/lv_mem_core_builtin.c ****     *pool_p = new_pool;
 252              		.loc 1 119 5 is_stmt 1 view .LVU68
 119:Drivers/lvgl/src/stdlib/builtin/lv_mem_core_builtin.c ****     *pool_p = new_pool;
 253              		.loc 1 119 5 view .LVU69
 119:Drivers/lvgl/src/stdlib/builtin/lv_mem_core_builtin.c ****     *pool_p = new_pool;
 254              		.loc 1 119 5 view .LVU70
 119:Drivers/lvgl/src/stdlib/builtin/lv_mem_core_builtin.c ****     *pool_p = new_pool;
 255              		.loc 1 119 5 view .LVU71
 119:Drivers/lvgl/src/stdlib/builtin/lv_mem_core_builtin.c ****     *pool_p = new_pool;
ARM GAS  /var/folders/qx/2_175_4n2s19vhvtspjhb3qh0000gn/T//ccsQQ2VN.s 			page 11


 256              		.loc 1 119 5 view .LVU72
 257 0022 FEE7     		b	.L17
 258              	.L20:
 259              		.align	2
 260              	.L19:
 261 0024 00000000 		.word	lv_global
 262 0028 E0010000 		.word	lv_global+480
 263              		.cfi_endproc
 264              	.LFE195:
 266              		.section	.text.lv_mem_remove_pool,"ax",%progbits
 267              		.align	1
 268              		.global	lv_mem_remove_pool
 269              		.syntax unified
 270              		.thumb
 271              		.thumb_func
 273              	lv_mem_remove_pool:
 274              	.LVL21:
 275              	.LFB196:
 126:Drivers/lvgl/src/stdlib/builtin/lv_mem_core_builtin.c ****     lv_pool_t * pool_p;
 276              		.loc 1 126 1 view -0
 277              		.cfi_startproc
 278              		@ args = 0, pretend = 0, frame = 0
 279              		@ frame_needed = 0, uses_anonymous_args = 0
 126:Drivers/lvgl/src/stdlib/builtin/lv_mem_core_builtin.c ****     lv_pool_t * pool_p;
 280              		.loc 1 126 1 is_stmt 0 view .LVU74
 281 0000 70B5     		push	{r4, r5, r6, lr}
 282              	.LCFI3:
 283              		.cfi_def_cfa_offset 16
 284              		.cfi_offset 4, -16
 285              		.cfi_offset 5, -12
 286              		.cfi_offset 6, -8
 287              		.cfi_offset 14, -4
 288 0002 0546     		mov	r5, r0
 127:Drivers/lvgl/src/stdlib/builtin/lv_mem_core_builtin.c ****     LV_LL_READ(&state.pool_ll, pool_p) {
 289              		.loc 1 127 5 is_stmt 1 view .LVU75
 128:Drivers/lvgl/src/stdlib/builtin/lv_mem_core_builtin.c ****         if(*pool_p == pool) {
 290              		.loc 1 128 5 view .LVU76
 291 0004 0D48     		ldr	r0, .L27
 292              	.LVL22:
 128:Drivers/lvgl/src/stdlib/builtin/lv_mem_core_builtin.c ****         if(*pool_p == pool) {
 293              		.loc 1 128 5 is_stmt 0 view .LVU77
 294 0006 FFF7FEFF 		bl	lv_ll_get_head
 295              	.LVL23:
 296 000a 0446     		mov	r4, r0
 297              	.LVL24:
 128:Drivers/lvgl/src/stdlib/builtin/lv_mem_core_builtin.c ****         if(*pool_p == pool) {
 298              		.loc 1 128 5 view .LVU78
 299 000c 04E0     		b	.L22
 300              	.LVL25:
 301              	.L23:
 128:Drivers/lvgl/src/stdlib/builtin/lv_mem_core_builtin.c ****         if(*pool_p == pool) {
 302              		.loc 1 128 5 is_stmt 1 discriminator 2 view .LVU79
 303 000e 2146     		mov	r1, r4
 304 0010 0A48     		ldr	r0, .L27
 305 0012 FFF7FEFF 		bl	lv_ll_get_next
 306              	.LVL26:
 307 0016 0446     		mov	r4, r0
ARM GAS  /var/folders/qx/2_175_4n2s19vhvtspjhb3qh0000gn/T//ccsQQ2VN.s 			page 12


 308              	.LVL27:
 309              	.L22:
 128:Drivers/lvgl/src/stdlib/builtin/lv_mem_core_builtin.c ****         if(*pool_p == pool) {
 310              		.loc 1 128 5 discriminator 1 view .LVU80
 311 0018 7CB1     		cbz	r4, .L21
 129:Drivers/lvgl/src/stdlib/builtin/lv_mem_core_builtin.c ****             lv_ll_remove(&state.pool_ll, pool_p);
 312              		.loc 1 129 9 view .LVU81
 129:Drivers/lvgl/src/stdlib/builtin/lv_mem_core_builtin.c ****             lv_ll_remove(&state.pool_ll, pool_p);
 313              		.loc 1 129 12 is_stmt 0 view .LVU82
 314 001a 2368     		ldr	r3, [r4]
 129:Drivers/lvgl/src/stdlib/builtin/lv_mem_core_builtin.c ****             lv_ll_remove(&state.pool_ll, pool_p);
 315              		.loc 1 129 11 view .LVU83
 316 001c AB42     		cmp	r3, r5
 317 001e F6D1     		bne	.L23
 130:Drivers/lvgl/src/stdlib/builtin/lv_mem_core_builtin.c ****             lv_free(pool_p);
 318              		.loc 1 130 13 is_stmt 1 view .LVU84
 319 0020 064E     		ldr	r6, .L27
 320 0022 2146     		mov	r1, r4
 321 0024 3046     		mov	r0, r6
 322 0026 FFF7FEFF 		bl	lv_ll_remove
 323              	.LVL28:
 131:Drivers/lvgl/src/stdlib/builtin/lv_mem_core_builtin.c ****             lv_tlsf_remove_pool(state.tlsf, pool);
 324              		.loc 1 131 13 view .LVU85
 325 002a 2046     		mov	r0, r4
 326 002c FFF7FEFF 		bl	lv_free
 327              	.LVL29:
 132:Drivers/lvgl/src/stdlib/builtin/lv_mem_core_builtin.c ****             return;
 328              		.loc 1 132 13 view .LVU86
 329 0030 2946     		mov	r1, r5
 330 0032 56F80C0C 		ldr	r0, [r6, #-12]
 331 0036 FFF7FEFF 		bl	lv_tlsf_remove_pool
 332              	.LVL30:
 133:Drivers/lvgl/src/stdlib/builtin/lv_mem_core_builtin.c ****         }
 333              		.loc 1 133 13 view .LVU87
 334              	.L21:
 137:Drivers/lvgl/src/stdlib/builtin/lv_mem_core_builtin.c **** 
 335              		.loc 1 137 1 is_stmt 0 view .LVU88
 336 003a 70BD     		pop	{r4, r5, r6, pc}
 337              	.LVL31:
 338              	.L28:
 137:Drivers/lvgl/src/stdlib/builtin/lv_mem_core_builtin.c **** 
 339              		.loc 1 137 1 view .LVU89
 340              		.align	2
 341              	.L27:
 342 003c E0010000 		.word	lv_global+480
 343              		.cfi_endproc
 344              	.LFE196:
 346              		.section	.text.lv_malloc_core,"ax",%progbits
 347              		.align	1
 348              		.global	lv_malloc_core
 349              		.syntax unified
 350              		.thumb
 351              		.thumb_func
 353              	lv_malloc_core:
 354              	.LVL32:
 355              	.LFB197:
 140:Drivers/lvgl/src/stdlib/builtin/lv_mem_core_builtin.c **** #if LV_USE_OS
ARM GAS  /var/folders/qx/2_175_4n2s19vhvtspjhb3qh0000gn/T//ccsQQ2VN.s 			page 13


 356              		.loc 1 140 1 is_stmt 1 view -0
 357              		.cfi_startproc
 358              		@ args = 0, pretend = 0, frame = 0
 359              		@ frame_needed = 0, uses_anonymous_args = 0
 140:Drivers/lvgl/src/stdlib/builtin/lv_mem_core_builtin.c **** #if LV_USE_OS
 360              		.loc 1 140 1 is_stmt 0 view .LVU91
 361 0000 10B5     		push	{r4, lr}
 362              	.LCFI4:
 363              		.cfi_def_cfa_offset 8
 364              		.cfi_offset 4, -8
 365              		.cfi_offset 14, -4
 366 0002 0146     		mov	r1, r0
 144:Drivers/lvgl/src/stdlib/builtin/lv_mem_core_builtin.c **** 
 367              		.loc 1 144 5 is_stmt 1 view .LVU92
 144:Drivers/lvgl/src/stdlib/builtin/lv_mem_core_builtin.c **** 
 368              		.loc 1 144 16 is_stmt 0 view .LVU93
 369 0004 0B4B     		ldr	r3, .L32
 370 0006 D3F8D401 		ldr	r0, [r3, #468]
 371              	.LVL33:
 144:Drivers/lvgl/src/stdlib/builtin/lv_mem_core_builtin.c **** 
 372              		.loc 1 144 16 view .LVU94
 373 000a FFF7FEFF 		bl	lv_tlsf_malloc
 374              	.LVL34:
 146:Drivers/lvgl/src/stdlib/builtin/lv_mem_core_builtin.c ****         state.cur_used += lv_tlsf_block_size(p);
 375              		.loc 1 146 5 is_stmt 1 view .LVU95
 146:Drivers/lvgl/src/stdlib/builtin/lv_mem_core_builtin.c ****         state.cur_used += lv_tlsf_block_size(p);
 376              		.loc 1 146 7 is_stmt 0 view .LVU96
 377 000e 0446     		mov	r4, r0
 378 0010 70B1     		cbz	r0, .L29
 147:Drivers/lvgl/src/stdlib/builtin/lv_mem_core_builtin.c ****         state.max_used = LV_MAX(state.cur_used, state.max_used);
 379              		.loc 1 147 9 is_stmt 1 view .LVU97
 147:Drivers/lvgl/src/stdlib/builtin/lv_mem_core_builtin.c ****         state.max_used = LV_MAX(state.cur_used, state.max_used);
 380              		.loc 1 147 27 is_stmt 0 view .LVU98
 381 0012 FFF7FEFF 		bl	lv_tlsf_block_size
 382              	.LVL35:
 147:Drivers/lvgl/src/stdlib/builtin/lv_mem_core_builtin.c ****         state.max_used = LV_MAX(state.cur_used, state.max_used);
 383              		.loc 1 147 14 discriminator 1 view .LVU99
 384 0016 074A     		ldr	r2, .L32
 385 0018 D2F8D831 		ldr	r3, [r2, #472]
 147:Drivers/lvgl/src/stdlib/builtin/lv_mem_core_builtin.c ****         state.max_used = LV_MAX(state.cur_used, state.max_used);
 386              		.loc 1 147 24 discriminator 1 view .LVU100
 387 001c 1844     		add	r0, r0, r3
 388 001e C2F8D801 		str	r0, [r2, #472]
 148:Drivers/lvgl/src/stdlib/builtin/lv_mem_core_builtin.c ****     }
 389              		.loc 1 148 9 is_stmt 1 view .LVU101
 148:Drivers/lvgl/src/stdlib/builtin/lv_mem_core_builtin.c ****     }
 390              		.loc 1 148 26 is_stmt 0 view .LVU102
 391 0022 D2F8DC31 		ldr	r3, [r2, #476]
 392 0026 9842     		cmp	r0, r3
 393 0028 38BF     		it	cc
 394 002a 1846     		movcc	r0, r3
 148:Drivers/lvgl/src/stdlib/builtin/lv_mem_core_builtin.c ****     }
 395              		.loc 1 148 24 view .LVU103
 396 002c C2F8DC01 		str	r0, [r2, #476]
 154:Drivers/lvgl/src/stdlib/builtin/lv_mem_core_builtin.c **** }
 397              		.loc 1 154 5 is_stmt 1 view .LVU104
 398              	.L29:
ARM GAS  /var/folders/qx/2_175_4n2s19vhvtspjhb3qh0000gn/T//ccsQQ2VN.s 			page 14


 155:Drivers/lvgl/src/stdlib/builtin/lv_mem_core_builtin.c **** 
 399              		.loc 1 155 1 is_stmt 0 view .LVU105
 400 0030 2046     		mov	r0, r4
 401 0032 10BD     		pop	{r4, pc}
 402              	.LVL36:
 403              	.L33:
 155:Drivers/lvgl/src/stdlib/builtin/lv_mem_core_builtin.c **** 
 404              		.loc 1 155 1 view .LVU106
 405              		.align	2
 406              	.L32:
 407 0034 00000000 		.word	lv_global
 408              		.cfi_endproc
 409              	.LFE197:
 411              		.section	.text.lv_realloc_core,"ax",%progbits
 412              		.align	1
 413              		.global	lv_realloc_core
 414              		.syntax unified
 415              		.thumb
 416              		.thumb_func
 418              	lv_realloc_core:
 419              	.LVL37:
 420              	.LFB198:
 158:Drivers/lvgl/src/stdlib/builtin/lv_mem_core_builtin.c **** #if LV_USE_OS
 421              		.loc 1 158 1 is_stmt 1 view -0
 422              		.cfi_startproc
 423              		@ args = 0, pretend = 0, frame = 0
 424              		@ frame_needed = 0, uses_anonymous_args = 0
 158:Drivers/lvgl/src/stdlib/builtin/lv_mem_core_builtin.c **** #if LV_USE_OS
 425              		.loc 1 158 1 is_stmt 0 view .LVU108
 426 0000 70B5     		push	{r4, r5, r6, lr}
 427              	.LCFI5:
 428              		.cfi_def_cfa_offset 16
 429              		.cfi_offset 4, -16
 430              		.cfi_offset 5, -12
 431              		.cfi_offset 6, -8
 432              		.cfi_offset 14, -4
 433 0002 0446     		mov	r4, r0
 434 0004 0D46     		mov	r5, r1
 163:Drivers/lvgl/src/stdlib/builtin/lv_mem_core_builtin.c ****     void * p_new = lv_tlsf_realloc(state.tlsf, p, new_size);
 435              		.loc 1 163 5 is_stmt 1 view .LVU109
 163:Drivers/lvgl/src/stdlib/builtin/lv_mem_core_builtin.c ****     void * p_new = lv_tlsf_realloc(state.tlsf, p, new_size);
 436              		.loc 1 163 23 is_stmt 0 view .LVU110
 437 0006 FFF7FEFF 		bl	lv_tlsf_block_size
 438              	.LVL38:
 163:Drivers/lvgl/src/stdlib/builtin/lv_mem_core_builtin.c ****     void * p_new = lv_tlsf_realloc(state.tlsf, p, new_size);
 439              		.loc 1 163 23 view .LVU111
 440 000a 0646     		mov	r6, r0
 441              	.LVL39:
 164:Drivers/lvgl/src/stdlib/builtin/lv_mem_core_builtin.c **** 
 442              		.loc 1 164 5 is_stmt 1 view .LVU112
 164:Drivers/lvgl/src/stdlib/builtin/lv_mem_core_builtin.c **** 
 443              		.loc 1 164 20 is_stmt 0 view .LVU113
 444 000c 2A46     		mov	r2, r5
 445 000e 2146     		mov	r1, r4
 446 0010 0E4B     		ldr	r3, .L37
 447 0012 D3F8D401 		ldr	r0, [r3, #468]
 448              	.LVL40:
ARM GAS  /var/folders/qx/2_175_4n2s19vhvtspjhb3qh0000gn/T//ccsQQ2VN.s 			page 15


 164:Drivers/lvgl/src/stdlib/builtin/lv_mem_core_builtin.c **** 
 449              		.loc 1 164 20 view .LVU114
 450 0016 FFF7FEFF 		bl	lv_tlsf_realloc
 451              	.LVL41:
 166:Drivers/lvgl/src/stdlib/builtin/lv_mem_core_builtin.c ****         state.cur_used -= old_size;
 452              		.loc 1 166 5 is_stmt 1 view .LVU115
 166:Drivers/lvgl/src/stdlib/builtin/lv_mem_core_builtin.c ****         state.cur_used -= old_size;
 453              		.loc 1 166 7 is_stmt 0 view .LVU116
 454 001a 0546     		mov	r5, r0
 455              	.LVL42:
 166:Drivers/lvgl/src/stdlib/builtin/lv_mem_core_builtin.c ****         state.cur_used -= old_size;
 456              		.loc 1 166 7 view .LVU117
 457 001c 98B1     		cbz	r0, .L34
 167:Drivers/lvgl/src/stdlib/builtin/lv_mem_core_builtin.c ****         state.cur_used += lv_tlsf_block_size(p_new);
 458              		.loc 1 167 9 is_stmt 1 view .LVU118
 167:Drivers/lvgl/src/stdlib/builtin/lv_mem_core_builtin.c ****         state.cur_used += lv_tlsf_block_size(p_new);
 459              		.loc 1 167 14 is_stmt 0 view .LVU119
 460 001e 0B4C     		ldr	r4, .L37
 461              	.LVL43:
 167:Drivers/lvgl/src/stdlib/builtin/lv_mem_core_builtin.c ****         state.cur_used += lv_tlsf_block_size(p_new);
 462              		.loc 1 167 14 view .LVU120
 463 0020 D4F8D831 		ldr	r3, [r4, #472]
 167:Drivers/lvgl/src/stdlib/builtin/lv_mem_core_builtin.c ****         state.cur_used += lv_tlsf_block_size(p_new);
 464              		.loc 1 167 24 view .LVU121
 465 0024 9B1B     		subs	r3, r3, r6
 466 0026 C4F8D831 		str	r3, [r4, #472]
 168:Drivers/lvgl/src/stdlib/builtin/lv_mem_core_builtin.c ****         state.max_used = LV_MAX(state.cur_used, state.max_used);
 467              		.loc 1 168 9 is_stmt 1 view .LVU122
 168:Drivers/lvgl/src/stdlib/builtin/lv_mem_core_builtin.c ****         state.max_used = LV_MAX(state.cur_used, state.max_used);
 468              		.loc 1 168 27 is_stmt 0 view .LVU123
 469 002a FFF7FEFF 		bl	lv_tlsf_block_size
 470              	.LVL44:
 168:Drivers/lvgl/src/stdlib/builtin/lv_mem_core_builtin.c ****         state.max_used = LV_MAX(state.cur_used, state.max_used);
 471              		.loc 1 168 14 discriminator 1 view .LVU124
 472 002e D4F8D831 		ldr	r3, [r4, #472]
 168:Drivers/lvgl/src/stdlib/builtin/lv_mem_core_builtin.c ****         state.max_used = LV_MAX(state.cur_used, state.max_used);
 473              		.loc 1 168 24 discriminator 1 view .LVU125
 474 0032 1844     		add	r0, r0, r3
 475 0034 C4F8D801 		str	r0, [r4, #472]
 169:Drivers/lvgl/src/stdlib/builtin/lv_mem_core_builtin.c ****     }
 476              		.loc 1 169 9 is_stmt 1 view .LVU126
 169:Drivers/lvgl/src/stdlib/builtin/lv_mem_core_builtin.c ****     }
 477              		.loc 1 169 26 is_stmt 0 view .LVU127
 478 0038 D4F8DC31 		ldr	r3, [r4, #476]
 479 003c 9842     		cmp	r0, r3
 480 003e 38BF     		it	cc
 481 0040 1846     		movcc	r0, r3
 169:Drivers/lvgl/src/stdlib/builtin/lv_mem_core_builtin.c ****     }
 482              		.loc 1 169 24 view .LVU128
 483 0042 C4F8DC01 		str	r0, [r4, #476]
 175:Drivers/lvgl/src/stdlib/builtin/lv_mem_core_builtin.c **** }
 484              		.loc 1 175 5 is_stmt 1 view .LVU129
 485              	.L34:
 176:Drivers/lvgl/src/stdlib/builtin/lv_mem_core_builtin.c **** 
 486              		.loc 1 176 1 is_stmt 0 view .LVU130
 487 0046 2846     		mov	r0, r5
 488 0048 70BD     		pop	{r4, r5, r6, pc}
ARM GAS  /var/folders/qx/2_175_4n2s19vhvtspjhb3qh0000gn/T//ccsQQ2VN.s 			page 16


 489              	.LVL45:
 490              	.L38:
 176:Drivers/lvgl/src/stdlib/builtin/lv_mem_core_builtin.c **** 
 491              		.loc 1 176 1 view .LVU131
 492 004a 00BF     		.align	2
 493              	.L37:
 494 004c 00000000 		.word	lv_global
 495              		.cfi_endproc
 496              	.LFE198:
 498              		.section	.text.lv_free_core,"ax",%progbits
 499              		.align	1
 500              		.global	lv_free_core
 501              		.syntax unified
 502              		.thumb
 503              		.thumb_func
 505              	lv_free_core:
 506              	.LVL46:
 507              	.LFB199:
 179:Drivers/lvgl/src/stdlib/builtin/lv_mem_core_builtin.c **** #if LV_USE_OS
 508              		.loc 1 179 1 is_stmt 1 view -0
 509              		.cfi_startproc
 510              		@ args = 0, pretend = 0, frame = 0
 511              		@ frame_needed = 0, uses_anonymous_args = 0
 179:Drivers/lvgl/src/stdlib/builtin/lv_mem_core_builtin.c **** #if LV_USE_OS
 512              		.loc 1 179 1 is_stmt 0 view .LVU133
 513 0000 70B5     		push	{r4, r5, r6, lr}
 514              	.LCFI6:
 515              		.cfi_def_cfa_offset 16
 516              		.cfi_offset 4, -16
 517              		.cfi_offset 5, -12
 518              		.cfi_offset 6, -8
 519              		.cfi_offset 14, -4
 520 0002 0546     		mov	r5, r0
 187:Drivers/lvgl/src/stdlib/builtin/lv_mem_core_builtin.c ****     lv_tlsf_free(state.tlsf, p);
 521              		.loc 1 187 5 is_stmt 1 view .LVU134
 187:Drivers/lvgl/src/stdlib/builtin/lv_mem_core_builtin.c ****     lv_tlsf_free(state.tlsf, p);
 522              		.loc 1 187 19 is_stmt 0 view .LVU135
 523 0004 FFF7FEFF 		bl	lv_tlsf_block_size
 524              	.LVL47:
 187:Drivers/lvgl/src/stdlib/builtin/lv_mem_core_builtin.c ****     lv_tlsf_free(state.tlsf, p);
 525              		.loc 1 187 19 view .LVU136
 526 0008 0446     		mov	r4, r0
 527              	.LVL48:
 188:Drivers/lvgl/src/stdlib/builtin/lv_mem_core_builtin.c ****     if(state.cur_used > size) state.cur_used -= size;
 528              		.loc 1 188 5 is_stmt 1 view .LVU137
 529 000a 094E     		ldr	r6, .L43
 530 000c 2946     		mov	r1, r5
 531 000e D6F8D401 		ldr	r0, [r6, #468]
 532              	.LVL49:
 188:Drivers/lvgl/src/stdlib/builtin/lv_mem_core_builtin.c ****     if(state.cur_used > size) state.cur_used -= size;
 533              		.loc 1 188 5 is_stmt 0 view .LVU138
 534 0012 FFF7FEFF 		bl	lv_tlsf_free
 535              	.LVL50:
 189:Drivers/lvgl/src/stdlib/builtin/lv_mem_core_builtin.c ****     else state.cur_used = 0;
 536              		.loc 1 189 5 is_stmt 1 view .LVU139
 189:Drivers/lvgl/src/stdlib/builtin/lv_mem_core_builtin.c ****     else state.cur_used = 0;
 537              		.loc 1 189 13 is_stmt 0 view .LVU140
ARM GAS  /var/folders/qx/2_175_4n2s19vhvtspjhb3qh0000gn/T//ccsQQ2VN.s 			page 17


 538 0016 D6F8D831 		ldr	r3, [r6, #472]
 189:Drivers/lvgl/src/stdlib/builtin/lv_mem_core_builtin.c ****     else state.cur_used = 0;
 539              		.loc 1 189 7 view .LVU141
 540 001a A342     		cmp	r3, r4
 541 001c 03D9     		bls	.L40
 189:Drivers/lvgl/src/stdlib/builtin/lv_mem_core_builtin.c ****     else state.cur_used = 0;
 542              		.loc 1 189 31 is_stmt 1 discriminator 1 view .LVU142
 189:Drivers/lvgl/src/stdlib/builtin/lv_mem_core_builtin.c ****     else state.cur_used = 0;
 543              		.loc 1 189 46 is_stmt 0 discriminator 1 view .LVU143
 544 001e 1B1B     		subs	r3, r3, r4
 545 0020 C6F8D831 		str	r3, [r6, #472]
 546              	.L39:
 195:Drivers/lvgl/src/stdlib/builtin/lv_mem_core_builtin.c **** 
 547              		.loc 1 195 1 view .LVU144
 548 0024 70BD     		pop	{r4, r5, r6, pc}
 549              	.LVL51:
 550              	.L40:
 190:Drivers/lvgl/src/stdlib/builtin/lv_mem_core_builtin.c **** 
 551              		.loc 1 190 10 is_stmt 1 view .LVU145
 190:Drivers/lvgl/src/stdlib/builtin/lv_mem_core_builtin.c **** 
 552              		.loc 1 190 25 is_stmt 0 view .LVU146
 553 0026 024B     		ldr	r3, .L43
 554 0028 0022     		movs	r2, #0
 555 002a C3F8D821 		str	r2, [r3, #472]
 195:Drivers/lvgl/src/stdlib/builtin/lv_mem_core_builtin.c **** 
 556              		.loc 1 195 1 view .LVU147
 557 002e F9E7     		b	.L39
 558              	.L44:
 559              		.align	2
 560              	.L43:
 561 0030 00000000 		.word	lv_global
 562              		.cfi_endproc
 563              	.LFE199:
 565              		.section	.text.lv_mem_monitor_core,"ax",%progbits
 566              		.align	1
 567              		.global	lv_mem_monitor_core
 568              		.syntax unified
 569              		.thumb
 570              		.thumb_func
 572              	lv_mem_monitor_core:
 573              	.LVL52:
 574              	.LFB200:
 198:Drivers/lvgl/src/stdlib/builtin/lv_mem_core_builtin.c ****     /*Init the data*/
 575              		.loc 1 198 1 is_stmt 1 view -0
 576              		.cfi_startproc
 577              		@ args = 0, pretend = 0, frame = 0
 578              		@ frame_needed = 0, uses_anonymous_args = 0
 198:Drivers/lvgl/src/stdlib/builtin/lv_mem_core_builtin.c ****     /*Init the data*/
 579              		.loc 1 198 1 is_stmt 0 view .LVU149
 580 0000 70B5     		push	{r4, r5, r6, lr}
 581              	.LCFI7:
 582              		.cfi_def_cfa_offset 16
 583              		.cfi_offset 4, -16
 584              		.cfi_offset 5, -12
 585              		.cfi_offset 6, -8
 586              		.cfi_offset 14, -4
 587 0002 0546     		mov	r5, r0
ARM GAS  /var/folders/qx/2_175_4n2s19vhvtspjhb3qh0000gn/T//ccsQQ2VN.s 			page 18


 200:Drivers/lvgl/src/stdlib/builtin/lv_mem_core_builtin.c ****     LV_TRACE_MEM("begin");
 588              		.loc 1 200 5 is_stmt 1 view .LVU150
 589              	.LVL53:
 590              	.LBB4:
 591              	.LBI4:
 592              		.file 2 "Drivers/lvgl/src/stdlib/builtin/../lv_string.h"
   1:Drivers/lvgl/src/stdlib/builtin/../lv_string.h **** /**
   2:Drivers/lvgl/src/stdlib/builtin/../lv_string.h ****  * @file lv_string.h
   3:Drivers/lvgl/src/stdlib/builtin/../lv_string.h ****  *
   4:Drivers/lvgl/src/stdlib/builtin/../lv_string.h ****  */
   5:Drivers/lvgl/src/stdlib/builtin/../lv_string.h **** 
   6:Drivers/lvgl/src/stdlib/builtin/../lv_string.h **** #ifndef LV_STRING_H
   7:Drivers/lvgl/src/stdlib/builtin/../lv_string.h **** #define LV_STRING_H
   8:Drivers/lvgl/src/stdlib/builtin/../lv_string.h **** 
   9:Drivers/lvgl/src/stdlib/builtin/../lv_string.h **** #ifdef __cplusplus
  10:Drivers/lvgl/src/stdlib/builtin/../lv_string.h **** extern "C" {
  11:Drivers/lvgl/src/stdlib/builtin/../lv_string.h **** #endif
  12:Drivers/lvgl/src/stdlib/builtin/../lv_string.h **** 
  13:Drivers/lvgl/src/stdlib/builtin/../lv_string.h **** /*********************
  14:Drivers/lvgl/src/stdlib/builtin/../lv_string.h ****  *      INCLUDES
  15:Drivers/lvgl/src/stdlib/builtin/../lv_string.h ****  *********************/
  16:Drivers/lvgl/src/stdlib/builtin/../lv_string.h **** #include "../lv_conf_internal.h"
  17:Drivers/lvgl/src/stdlib/builtin/../lv_string.h **** #include "../misc/lv_types.h"
  18:Drivers/lvgl/src/stdlib/builtin/../lv_string.h **** 
  19:Drivers/lvgl/src/stdlib/builtin/../lv_string.h **** /*********************
  20:Drivers/lvgl/src/stdlib/builtin/../lv_string.h ****  *      DEFINES
  21:Drivers/lvgl/src/stdlib/builtin/../lv_string.h ****  *********************/
  22:Drivers/lvgl/src/stdlib/builtin/../lv_string.h **** 
  23:Drivers/lvgl/src/stdlib/builtin/../lv_string.h **** /**********************
  24:Drivers/lvgl/src/stdlib/builtin/../lv_string.h ****  *      TYPEDEFS
  25:Drivers/lvgl/src/stdlib/builtin/../lv_string.h ****  **********************/
  26:Drivers/lvgl/src/stdlib/builtin/../lv_string.h **** 
  27:Drivers/lvgl/src/stdlib/builtin/../lv_string.h **** /**********************
  28:Drivers/lvgl/src/stdlib/builtin/../lv_string.h ****  * GLOBAL PROTOTYPES
  29:Drivers/lvgl/src/stdlib/builtin/../lv_string.h ****  **********************/
  30:Drivers/lvgl/src/stdlib/builtin/../lv_string.h **** 
  31:Drivers/lvgl/src/stdlib/builtin/../lv_string.h **** /**
  32:Drivers/lvgl/src/stdlib/builtin/../lv_string.h ****  * @brief Copies a block of memory from a source address to a destination address.
  33:Drivers/lvgl/src/stdlib/builtin/../lv_string.h ****  * @param dst Pointer to the destination array where the content is to be copied.
  34:Drivers/lvgl/src/stdlib/builtin/../lv_string.h ****  * @param src Pointer to the source of data to be copied.
  35:Drivers/lvgl/src/stdlib/builtin/../lv_string.h ****  * @param len Number of bytes to copy.
  36:Drivers/lvgl/src/stdlib/builtin/../lv_string.h ****  * @return Pointer to the destination array.
  37:Drivers/lvgl/src/stdlib/builtin/../lv_string.h ****  * @note The function does not check for any overlapping of the source and destination memory block
  38:Drivers/lvgl/src/stdlib/builtin/../lv_string.h ****  */
  39:Drivers/lvgl/src/stdlib/builtin/../lv_string.h **** void * lv_memcpy(void * dst, const void * src, size_t len);
  40:Drivers/lvgl/src/stdlib/builtin/../lv_string.h **** 
  41:Drivers/lvgl/src/stdlib/builtin/../lv_string.h **** /**
  42:Drivers/lvgl/src/stdlib/builtin/../lv_string.h ****  * @brief Fills a block of memory with a specified value.
  43:Drivers/lvgl/src/stdlib/builtin/../lv_string.h ****  * @param dst Pointer to the destination array to fill with the specified value.
  44:Drivers/lvgl/src/stdlib/builtin/../lv_string.h ****  * @param v Value to be set. The value is passed as an int, but the function fills
  45:Drivers/lvgl/src/stdlib/builtin/../lv_string.h ****  *          the block of memory using the unsigned char conversion of this value.
  46:Drivers/lvgl/src/stdlib/builtin/../lv_string.h ****  * @param len Number of bytes to be set to the value.
  47:Drivers/lvgl/src/stdlib/builtin/../lv_string.h ****  */
  48:Drivers/lvgl/src/stdlib/builtin/../lv_string.h **** void lv_memset(void * dst, uint8_t v, size_t len);
  49:Drivers/lvgl/src/stdlib/builtin/../lv_string.h **** 
  50:Drivers/lvgl/src/stdlib/builtin/../lv_string.h **** /**
  51:Drivers/lvgl/src/stdlib/builtin/../lv_string.h ****  * @brief Move a block of memory from source to destination
ARM GAS  /var/folders/qx/2_175_4n2s19vhvtspjhb3qh0000gn/T//ccsQQ2VN.s 			page 19


  52:Drivers/lvgl/src/stdlib/builtin/../lv_string.h ****  * @param dst Pointer to the destination array where the content is to be copied.
  53:Drivers/lvgl/src/stdlib/builtin/../lv_string.h ****  * @param src Pointer to the source of data to be copied.
  54:Drivers/lvgl/src/stdlib/builtin/../lv_string.h ****  * @param len Number of bytes to copy
  55:Drivers/lvgl/src/stdlib/builtin/../lv_string.h ****  * @return Pointer to the destination array.
  56:Drivers/lvgl/src/stdlib/builtin/../lv_string.h ****  */
  57:Drivers/lvgl/src/stdlib/builtin/../lv_string.h **** void * lv_memmove(void * dst, const void * src, size_t len);
  58:Drivers/lvgl/src/stdlib/builtin/../lv_string.h **** 
  59:Drivers/lvgl/src/stdlib/builtin/../lv_string.h **** /**
  60:Drivers/lvgl/src/stdlib/builtin/../lv_string.h ****  * @brief This function will compare two memory blocks
  61:Drivers/lvgl/src/stdlib/builtin/../lv_string.h ****  * @param p1 Pointer to the first memory block
  62:Drivers/lvgl/src/stdlib/builtin/../lv_string.h ****  * @param p2 Pointer to the second memory block
  63:Drivers/lvgl/src/stdlib/builtin/../lv_string.h ****  * @param len Number of bytes to compare
  64:Drivers/lvgl/src/stdlib/builtin/../lv_string.h ****  * @return The difference between the value of the first unmatching byte.
  65:Drivers/lvgl/src/stdlib/builtin/../lv_string.h ****  */
  66:Drivers/lvgl/src/stdlib/builtin/../lv_string.h **** int lv_memcmp(const void * p1, const void * p2, size_t len);
  67:Drivers/lvgl/src/stdlib/builtin/../lv_string.h **** 
  68:Drivers/lvgl/src/stdlib/builtin/../lv_string.h **** /**
  69:Drivers/lvgl/src/stdlib/builtin/../lv_string.h ****  * Same as `memset(dst, 0x00, len)`.
  70:Drivers/lvgl/src/stdlib/builtin/../lv_string.h ****  * @param dst pointer to the destination buffer
  71:Drivers/lvgl/src/stdlib/builtin/../lv_string.h ****  * @param len number of byte to set
  72:Drivers/lvgl/src/stdlib/builtin/../lv_string.h ****  */
  73:Drivers/lvgl/src/stdlib/builtin/../lv_string.h **** static inline void lv_memzero(void * dst, size_t len)
 593              		.loc 2 73 20 view .LVU151
 594              	.LBB5:
  74:Drivers/lvgl/src/stdlib/builtin/../lv_string.h **** {
  75:Drivers/lvgl/src/stdlib/builtin/../lv_string.h ****     lv_memset(dst, 0x00, len);
 595              		.loc 2 75 5 view .LVU152
 596 0004 1C22     		movs	r2, #28
 597 0006 0021     		movs	r1, #0
 598 0008 FFF7FEFF 		bl	lv_memset
 599              	.LVL54:
 600              		.loc 2 75 5 is_stmt 0 view .LVU153
 601              	.LBE5:
 602              	.LBE4:
 201:Drivers/lvgl/src/stdlib/builtin/lv_mem_core_builtin.c **** 
 603              		.loc 1 201 26 is_stmt 1 view .LVU154
 203:Drivers/lvgl/src/stdlib/builtin/lv_mem_core_builtin.c ****     LV_LL_READ(&state.pool_ll, pool_p) {
 604              		.loc 1 203 5 view .LVU155
 204:Drivers/lvgl/src/stdlib/builtin/lv_mem_core_builtin.c ****         lv_tlsf_walk_pool(*pool_p, lv_mem_walker, mon_p);
 605              		.loc 1 204 5 view .LVU156
 606 000c 2848     		ldr	r0, .L51
 607 000e FFF7FEFF 		bl	lv_ll_get_head
 608              	.LVL55:
 609 0012 0446     		mov	r4, r0
 610              	.LVL56:
 204:Drivers/lvgl/src/stdlib/builtin/lv_mem_core_builtin.c ****         lv_tlsf_walk_pool(*pool_p, lv_mem_walker, mon_p);
 611              		.loc 1 204 5 is_stmt 0 view .LVU157
 612 0014 09E0     		b	.L46
 613              	.LVL57:
 614              	.L47:
 205:Drivers/lvgl/src/stdlib/builtin/lv_mem_core_builtin.c ****     }
 615              		.loc 1 205 9 is_stmt 1 view .LVU158
 616 0016 2A46     		mov	r2, r5
 617 0018 2649     		ldr	r1, .L51+4
 618 001a 2068     		ldr	r0, [r4]
 619 001c FFF7FEFF 		bl	lv_tlsf_walk_pool
 620              	.LVL58:
ARM GAS  /var/folders/qx/2_175_4n2s19vhvtspjhb3qh0000gn/T//ccsQQ2VN.s 			page 20


 204:Drivers/lvgl/src/stdlib/builtin/lv_mem_core_builtin.c ****         lv_tlsf_walk_pool(*pool_p, lv_mem_walker, mon_p);
 621              		.loc 1 204 5 discriminator 3 view .LVU159
 622 0020 2146     		mov	r1, r4
 623 0022 2348     		ldr	r0, .L51
 624 0024 FFF7FEFF 		bl	lv_ll_get_next
 625              	.LVL59:
 626 0028 0446     		mov	r4, r0
 627              	.LVL60:
 628              	.L46:
 204:Drivers/lvgl/src/stdlib/builtin/lv_mem_core_builtin.c ****         lv_tlsf_walk_pool(*pool_p, lv_mem_walker, mon_p);
 629              		.loc 1 204 5 discriminator 1 view .LVU160
 630 002a 002C     		cmp	r4, #0
 631 002c F3D1     		bne	.L47
 208:Drivers/lvgl/src/stdlib/builtin/lv_mem_core_builtin.c ****     if(mon_p->free_size > 0) {
 632              		.loc 1 208 5 view .LVU161
 208:Drivers/lvgl/src/stdlib/builtin/lv_mem_core_builtin.c ****     if(mon_p->free_size > 0) {
 633              		.loc 1 208 51 is_stmt 0 view .LVU162
 634 002e AE68     		ldr	r6, [r5, #8]
 635 0030 2146     		mov	r1, r4
 208:Drivers/lvgl/src/stdlib/builtin/lv_mem_core_builtin.c ****     if(mon_p->free_size > 0) {
 636              		.loc 1 208 44 view .LVU163
 637 0032 B319     		adds	r3, r6, r6
 638 0034 44EB0101 		adc	r1, r4, r1
 639 0038 9B19     		adds	r3, r3, r6
 640 003a 41F10001 		adc	r1, r1, #0
 641 003e 4801     		lsls	r0, r1, #5
 642 0040 40EAD360 		orr	r0, r0, r3, lsr #27
 643 0044 4FEA431C 		lsl	ip, r3, #5
 644 0048 13EB0C03 		adds	r3, r3, ip
 645 004c 41EB0001 		adc	r1, r1, r0
 646 0050 9819     		adds	r0, r3, r6
 208:Drivers/lvgl/src/stdlib/builtin/lv_mem_core_builtin.c ****     if(mon_p->free_size > 0) {
 647              		.loc 1 208 63 view .LVU164
 648 0052 2A68     		ldr	r2, [r5]
 649 0054 2346     		mov	r3, r4
 650 0056 41F10001 		adc	r1, r1, #0
 651 005a FFF7FEFF 		bl	__aeabi_uldivmod
 652              	.LVL61:
 208:Drivers/lvgl/src/stdlib/builtin/lv_mem_core_builtin.c ****     if(mon_p->free_size > 0) {
 653              		.loc 1 208 27 view .LVU165
 654 005e C0F16400 		rsb	r0, r0, #100
 208:Drivers/lvgl/src/stdlib/builtin/lv_mem_core_builtin.c ****     if(mon_p->free_size > 0) {
 655              		.loc 1 208 21 view .LVU166
 656 0062 2876     		strb	r0, [r5, #24]
 209:Drivers/lvgl/src/stdlib/builtin/lv_mem_core_builtin.c ****         mon_p->frag_pct = (uint64_t)mon_p->free_biggest_size * 100U / mon_p->free_size;
 657              		.loc 1 209 5 is_stmt 1 view .LVU167
 209:Drivers/lvgl/src/stdlib/builtin/lv_mem_core_builtin.c ****         mon_p->frag_pct = (uint64_t)mon_p->free_biggest_size * 100U / mon_p->free_size;
 658              		.loc 1 209 7 is_stmt 0 view .LVU168
 659 0064 0EB3     		cbz	r6, .L48
 210:Drivers/lvgl/src/stdlib/builtin/lv_mem_core_builtin.c ****         mon_p->frag_pct = 100 - mon_p->frag_pct;
 660              		.loc 1 210 9 is_stmt 1 view .LVU169
 210:Drivers/lvgl/src/stdlib/builtin/lv_mem_core_builtin.c ****         mon_p->frag_pct = 100 - mon_p->frag_pct;
 661              		.loc 1 210 42 is_stmt 0 view .LVU170
 662 0066 EA68     		ldr	r2, [r5, #12]
 210:Drivers/lvgl/src/stdlib/builtin/lv_mem_core_builtin.c ****         mon_p->frag_pct = 100 - mon_p->frag_pct;
 663              		.loc 1 210 27 view .LVU171
 664 0068 2146     		mov	r1, r4
ARM GAS  /var/folders/qx/2_175_4n2s19vhvtspjhb3qh0000gn/T//ccsQQ2VN.s 			page 21


 210:Drivers/lvgl/src/stdlib/builtin/lv_mem_core_builtin.c ****         mon_p->frag_pct = 100 - mon_p->frag_pct;
 665              		.loc 1 210 62 view .LVU172
 666 006a 9318     		adds	r3, r2, r2
 667 006c 44EB0101 		adc	r1, r4, r1
 668 0070 9B18     		adds	r3, r3, r2
 669 0072 41F10001 		adc	r1, r1, #0
 670 0076 4801     		lsls	r0, r1, #5
 671 0078 40EAD360 		orr	r0, r0, r3, lsr #27
 672 007c 4FEA431C 		lsl	ip, r3, #5
 673 0080 13EB0C03 		adds	r3, r3, ip
 674 0084 41EB0001 		adc	r1, r1, r0
 675 0088 9818     		adds	r0, r3, r2
 210:Drivers/lvgl/src/stdlib/builtin/lv_mem_core_builtin.c ****         mon_p->frag_pct = 100 - mon_p->frag_pct;
 676              		.loc 1 210 69 view .LVU173
 677 008a 3246     		mov	r2, r6
 678 008c 2346     		mov	r3, r4
 679 008e 41F10001 		adc	r1, r1, #0
 680 0092 FFF7FEFF 		bl	__aeabi_uldivmod
 681              	.LVL62:
 210:Drivers/lvgl/src/stdlib/builtin/lv_mem_core_builtin.c ****         mon_p->frag_pct = 100 - mon_p->frag_pct;
 682              		.loc 1 210 25 view .LVU174
 683 0096 C0B2     		uxtb	r0, r0
 684 0098 6876     		strb	r0, [r5, #25]
 211:Drivers/lvgl/src/stdlib/builtin/lv_mem_core_builtin.c ****     }
 685              		.loc 1 211 9 is_stmt 1 view .LVU175
 211:Drivers/lvgl/src/stdlib/builtin/lv_mem_core_builtin.c ****     }
 686              		.loc 1 211 31 is_stmt 0 view .LVU176
 687 009a C0F16400 		rsb	r0, r0, #100
 211:Drivers/lvgl/src/stdlib/builtin/lv_mem_core_builtin.c ****     }
 688              		.loc 1 211 25 view .LVU177
 689 009e 6876     		strb	r0, [r5, #25]
 690              	.L49:
 217:Drivers/lvgl/src/stdlib/builtin/lv_mem_core_builtin.c **** 
 691              		.loc 1 217 5 is_stmt 1 view .LVU178
 217:Drivers/lvgl/src/stdlib/builtin/lv_mem_core_builtin.c **** 
 692              		.loc 1 217 28 is_stmt 0 view .LVU179
 693 00a0 054B     		ldr	r3, .L51+8
 694 00a2 D3F8DC31 		ldr	r3, [r3, #476]
 217:Drivers/lvgl/src/stdlib/builtin/lv_mem_core_builtin.c **** 
 695              		.loc 1 217 21 view .LVU180
 696 00a6 6B61     		str	r3, [r5, #20]
 219:Drivers/lvgl/src/stdlib/builtin/lv_mem_core_builtin.c **** }
 697              		.loc 1 219 29 is_stmt 1 view .LVU181
 220:Drivers/lvgl/src/stdlib/builtin/lv_mem_core_builtin.c **** 
 698              		.loc 1 220 1 is_stmt 0 view .LVU182
 699 00a8 70BD     		pop	{r4, r5, r6, pc}
 700              	.LVL63:
 701              	.L48:
 214:Drivers/lvgl/src/stdlib/builtin/lv_mem_core_builtin.c ****     }
 702              		.loc 1 214 9 is_stmt 1 view .LVU183
 214:Drivers/lvgl/src/stdlib/builtin/lv_mem_core_builtin.c ****     }
 703              		.loc 1 214 25 is_stmt 0 view .LVU184
 704 00aa 0023     		movs	r3, #0
 705 00ac 6B76     		strb	r3, [r5, #25]
 706 00ae F7E7     		b	.L49
 707              	.L52:
 708              		.align	2
ARM GAS  /var/folders/qx/2_175_4n2s19vhvtspjhb3qh0000gn/T//ccsQQ2VN.s 			page 22


 709              	.L51:
 710 00b0 E0010000 		.word	lv_global+480
 711 00b4 00000000 		.word	lv_mem_walker
 712 00b8 00000000 		.word	lv_global
 713              		.cfi_endproc
 714              	.LFE200:
 716              		.section	.text.lv_mem_test_core,"ax",%progbits
 717              		.align	1
 718              		.global	lv_mem_test_core
 719              		.syntax unified
 720              		.thumb
 721              		.thumb_func
 723              	lv_mem_test_core:
 724              	.LFB201:
 223:Drivers/lvgl/src/stdlib/builtin/lv_mem_core_builtin.c **** #if LV_USE_OS
 725              		.loc 1 223 1 is_stmt 1 view -0
 726              		.cfi_startproc
 727              		@ args = 0, pretend = 0, frame = 0
 728              		@ frame_needed = 0, uses_anonymous_args = 0
 729 0000 10B5     		push	{r4, lr}
 730              	.LCFI8:
 731              		.cfi_def_cfa_offset 8
 732              		.cfi_offset 4, -8
 733              		.cfi_offset 14, -4
 227:Drivers/lvgl/src/stdlib/builtin/lv_mem_core_builtin.c ****         LV_LOG_WARN("failed");
 734              		.loc 1 227 5 view .LVU186
 227:Drivers/lvgl/src/stdlib/builtin/lv_mem_core_builtin.c ****         LV_LOG_WARN("failed");
 735              		.loc 1 227 8 is_stmt 0 view .LVU187
 736 0002 0D4B     		ldr	r3, .L62
 737 0004 D3F8D401 		ldr	r0, [r3, #468]
 738 0008 FFF7FEFF 		bl	lv_tlsf_check
 739              	.LVL64:
 227:Drivers/lvgl/src/stdlib/builtin/lv_mem_core_builtin.c ****         LV_LOG_WARN("failed");
 740              		.loc 1 227 7 discriminator 1 view .LVU188
 741 000c 08B1     		cbz	r0, .L60
 232:Drivers/lvgl/src/stdlib/builtin/lv_mem_core_builtin.c ****     }
 742              		.loc 1 232 16 view .LVU189
 743 000e 0020     		movs	r0, #0
 744              	.L54:
 251:Drivers/lvgl/src/stdlib/builtin/lv_mem_core_builtin.c **** 
 745              		.loc 1 251 1 view .LVU190
 746 0010 10BD     		pop	{r4, pc}
 747              	.L60:
 235:Drivers/lvgl/src/stdlib/builtin/lv_mem_core_builtin.c ****     LV_LL_READ(&state.pool_ll, pool_p) {
 748              		.loc 1 235 5 is_stmt 1 view .LVU191
 236:Drivers/lvgl/src/stdlib/builtin/lv_mem_core_builtin.c ****         if(lv_tlsf_check_pool(*pool_p)) {
 749              		.loc 1 236 5 view .LVU192
 750 0012 0A48     		ldr	r0, .L62+4
 751 0014 FFF7FEFF 		bl	lv_ll_get_head
 752              	.LVL65:
 753 0018 0446     		mov	r4, r0
 754              	.LVL66:
 755              	.L55:
 236:Drivers/lvgl/src/stdlib/builtin/lv_mem_core_builtin.c ****         if(lv_tlsf_check_pool(*pool_p)) {
 756              		.loc 1 236 5 discriminator 1 view .LVU193
 757 001a 4CB1     		cbz	r4, .L61
 237:Drivers/lvgl/src/stdlib/builtin/lv_mem_core_builtin.c ****             LV_LOG_WARN("pool failed");
ARM GAS  /var/folders/qx/2_175_4n2s19vhvtspjhb3qh0000gn/T//ccsQQ2VN.s 			page 23


 758              		.loc 1 237 9 view .LVU194
 237:Drivers/lvgl/src/stdlib/builtin/lv_mem_core_builtin.c ****             LV_LOG_WARN("pool failed");
 759              		.loc 1 237 12 is_stmt 0 view .LVU195
 760 001c 2068     		ldr	r0, [r4]
 761 001e FFF7FEFF 		bl	lv_tlsf_check_pool
 762              	.LVL67:
 237:Drivers/lvgl/src/stdlib/builtin/lv_mem_core_builtin.c ****             LV_LOG_WARN("pool failed");
 763              		.loc 1 237 11 discriminator 1 view .LVU196
 764 0022 38B9     		cbnz	r0, .L58
 236:Drivers/lvgl/src/stdlib/builtin/lv_mem_core_builtin.c ****         if(lv_tlsf_check_pool(*pool_p)) {
 765              		.loc 1 236 5 is_stmt 1 discriminator 2 view .LVU197
 766 0024 2146     		mov	r1, r4
 767 0026 0548     		ldr	r0, .L62+4
 768 0028 FFF7FEFF 		bl	lv_ll_get_next
 769              	.LVL68:
 770 002c 0446     		mov	r4, r0
 771              	.LVL69:
 236:Drivers/lvgl/src/stdlib/builtin/lv_mem_core_builtin.c ****         if(lv_tlsf_check_pool(*pool_p)) {
 772              		.loc 1 236 5 is_stmt 0 discriminator 2 view .LVU198
 773 002e F4E7     		b	.L55
 774              	.LVL70:
 775              	.L61:
 250:Drivers/lvgl/src/stdlib/builtin/lv_mem_core_builtin.c **** }
 776              		.loc 1 250 12 view .LVU199
 777 0030 0120     		movs	r0, #1
 778 0032 EDE7     		b	.L54
 779              	.L58:
 242:Drivers/lvgl/src/stdlib/builtin/lv_mem_core_builtin.c ****         }
 780              		.loc 1 242 20 view .LVU200
 781 0034 0020     		movs	r0, #0
 782 0036 EBE7     		b	.L54
 783              	.L63:
 784              		.align	2
 785              	.L62:
 786 0038 00000000 		.word	lv_global
 787 003c E0010000 		.word	lv_global+480
 788              		.cfi_endproc
 789              	.LFE201:
 791              		.section	.bss.work_mem_int.0,"aw",%nobits
 792              		.align	2
 795              	work_mem_int.0:
 796 0000 00000000 		.space	65536
 796      00000000 
 796      00000000 
 796      00000000 
 796      00000000 
 797              		.text
 798              	.Letext0:
 799              		.file 3 "/Applications/ArmGNUToolchain/14.3.rel1/arm-none-eabi/arm-none-eabi/include/machine/_defa
 800              		.file 4 "/Applications/ArmGNUToolchain/14.3.rel1/arm-none-eabi/arm-none-eabi/include/sys/_stdint.h
 801              		.file 5 "/Applications/ArmGNUToolchain/14.3.rel1/arm-none-eabi/lib/gcc/arm-none-eabi/14.3.1/includ
 802              		.file 6 "Drivers/lvgl/src/stdlib/builtin/../../misc/lv_types.h"
 803              		.file 7 "Drivers/lvgl/src/stdlib/builtin/../../core/../draw/lv_draw.h"
 804              		.file 8 "Drivers/lvgl/src/stdlib/builtin/../../core/../draw/lv_draw_private.h"
 805              		.file 9 "Drivers/lvgl/src/stdlib/builtin/../../core/../misc/lv_timer_private.h"
 806              		.file 10 "Drivers/lvgl/src/stdlib/builtin/../../core/../draw/../misc/cache/class/../lv_cache_priva
 807              		.file 11 "Drivers/lvgl/src/stdlib/builtin/../../core/../draw/lv_draw_buf_private.h"
ARM GAS  /var/folders/qx/2_175_4n2s19vhvtspjhb3qh0000gn/T//ccsQQ2VN.s 			page 24


 808              		.file 12 "Drivers/lvgl/src/stdlib/builtin/../../core/../draw/../misc/../font/../draw/lv_draw_buf.h
 809              		.file 13 "Drivers/lvgl/src/stdlib/builtin/../lv_mem.h"
 810              		.file 14 "Drivers/lvgl/src/stdlib/builtin/../../misc/lv_ll.h"
 811              		.file 15 "Drivers/lvgl/src/stdlib/builtin/lv_tlsf.h"
 812              		.file 16 "Drivers/lvgl/src/stdlib/builtin/../../osal/lv_os_none.h"
 813              		.file 17 "Drivers/lvgl/src/stdlib/builtin/../../core/../draw/../misc/../font/../draw/../misc/lv_ar
 814              		.file 18 "Drivers/lvgl/src/stdlib/builtin/../../core/../draw/../misc/../font/../draw/../misc/lv_co
 815              		.file 19 "Drivers/lvgl/src/stdlib/builtin/../../core/../draw/../misc/../font/../draw/lv_image_dsc.
 816              		.file 20 "Drivers/lvgl/src/stdlib/builtin/../../core/../draw/../misc/../tick/lv_tick.h"
 817              		.file 21 "Drivers/lvgl/src/stdlib/builtin/../../core/../draw/../misc/lv_timer.h"
 818              		.file 22 "Drivers/lvgl/src/stdlib/builtin/../../core/../draw/../misc/../layouts/lv_layout.h"
 819              		.file 23 "Drivers/lvgl/src/stdlib/builtin/../../core/../misc/lv_anim_private.h"
 820              		.file 24 "Drivers/lvgl/src/stdlib/builtin/../../core/../tick/lv_tick_private.h"
 821              		.file 25 "Drivers/lvgl/src/stdlib/builtin/../../core/../draw/sw/lv_draw_sw_mask_private.h"
 822              		.file 26 "Drivers/lvgl/src/stdlib/builtin/../../core/../stdlib/builtin/lv_tlsf_private.h"
 823              		.file 27 "Drivers/lvgl/src/stdlib/builtin/../../core/../layouts/lv_layout_private.h"
 824              		.file 28 "Drivers/lvgl/src/stdlib/builtin/../../core/lv_global.h"
ARM GAS  /var/folders/qx/2_175_4n2s19vhvtspjhb3qh0000gn/T//ccsQQ2VN.s 			page 25

