ARM GAS  /var/folders/qx/2_175_4n2s19vhvtspjhb3qh0000gn/T//cccJA90f.s 			page 1


   1              		.cpu cortex-m4
   2              		.arch armv7e-m
   3              		.fpu fpv4-sp-d16
   4              		.eabi_attribute 27, 1
   5              		.eabi_attribute 28, 1
   6              		.eabi_attribute 20, 1
   7              		.eabi_attribute 21, 1
   8              		.eabi_attribute 23, 3
   9              		.eabi_attribute 24, 1
  10              		.eabi_attribute 25, 1
  11              		.eabi_attribute 26, 1
  12              		.eabi_attribute 30, 1
  13              		.eabi_attribute 34, 1
  14              		.eabi_attribute 18, 4
  15              		.file	"lv_tlsf.c"
  16              		.text
  17              	.Ltext0:
  18              		.cfi_sections	.debug_frame
  19              		.file 1 "Drivers/lvgl/src/stdlib/builtin/lv_tlsf.c"
  20              		.section	.text.block_size,"ax",%progbits
  21              		.align	1
  22              		.syntax unified
  23              		.thumb
  24              		.thumb_func
  26              	block_size:
  27              	.LVL0:
  28              	.LFB16:
   1:Drivers/lvgl/src/stdlib/builtin/lv_tlsf.c **** #include "../../lv_conf_internal.h"
   2:Drivers/lvgl/src/stdlib/builtin/lv_tlsf.c **** #if LV_USE_STDLIB_MALLOC == LV_STDLIB_BUILTIN
   3:Drivers/lvgl/src/stdlib/builtin/lv_tlsf.c **** 
   4:Drivers/lvgl/src/stdlib/builtin/lv_tlsf.c **** #include "lv_tlsf_private.h"
   5:Drivers/lvgl/src/stdlib/builtin/lv_tlsf.c **** #include "../../stdlib/lv_string.h"
   6:Drivers/lvgl/src/stdlib/builtin/lv_tlsf.c **** #include "../../misc/lv_log.h"
   7:Drivers/lvgl/src/stdlib/builtin/lv_tlsf.c **** #include "../../misc/lv_assert.h"
   8:Drivers/lvgl/src/stdlib/builtin/lv_tlsf.c **** #include "../../misc/lv_types.h"
   9:Drivers/lvgl/src/stdlib/builtin/lv_tlsf.c **** 
  10:Drivers/lvgl/src/stdlib/builtin/lv_tlsf.c **** #undef  printf
  11:Drivers/lvgl/src/stdlib/builtin/lv_tlsf.c **** #define printf LV_LOG_ERROR
  12:Drivers/lvgl/src/stdlib/builtin/lv_tlsf.c **** 
  13:Drivers/lvgl/src/stdlib/builtin/lv_tlsf.c **** #define TLSF_MAX_POOL_SIZE (LV_MEM_SIZE + LV_MEM_POOL_EXPAND_SIZE)
  14:Drivers/lvgl/src/stdlib/builtin/lv_tlsf.c **** 
  15:Drivers/lvgl/src/stdlib/builtin/lv_tlsf.c **** #if !defined(_DEBUG)
  16:Drivers/lvgl/src/stdlib/builtin/lv_tlsf.c ****     #define _DEBUG 0
  17:Drivers/lvgl/src/stdlib/builtin/lv_tlsf.c **** #endif
  18:Drivers/lvgl/src/stdlib/builtin/lv_tlsf.c **** 
  19:Drivers/lvgl/src/stdlib/builtin/lv_tlsf.c **** #if defined(__cplusplus)
  20:Drivers/lvgl/src/stdlib/builtin/lv_tlsf.c ****     #define tlsf_decl inline
  21:Drivers/lvgl/src/stdlib/builtin/lv_tlsf.c **** #else
  22:Drivers/lvgl/src/stdlib/builtin/lv_tlsf.c ****     #define tlsf_decl static
  23:Drivers/lvgl/src/stdlib/builtin/lv_tlsf.c **** #endif
  24:Drivers/lvgl/src/stdlib/builtin/lv_tlsf.c **** 
  25:Drivers/lvgl/src/stdlib/builtin/lv_tlsf.c **** /*
  26:Drivers/lvgl/src/stdlib/builtin/lv_tlsf.c **** ** Architecture-specific bit manipulation routines.
  27:Drivers/lvgl/src/stdlib/builtin/lv_tlsf.c **** **
  28:Drivers/lvgl/src/stdlib/builtin/lv_tlsf.c **** ** TLSF achieves O(1) cost for malloc and free operations by limiting
  29:Drivers/lvgl/src/stdlib/builtin/lv_tlsf.c **** ** the search for a free block to a free list of guaranteed size
  30:Drivers/lvgl/src/stdlib/builtin/lv_tlsf.c **** ** adequate to fulfill the request, combined with efficient free list
ARM GAS  /var/folders/qx/2_175_4n2s19vhvtspjhb3qh0000gn/T//cccJA90f.s 			page 2


  31:Drivers/lvgl/src/stdlib/builtin/lv_tlsf.c **** ** queries using bitmasks and architecture-specific bit-manipulation
  32:Drivers/lvgl/src/stdlib/builtin/lv_tlsf.c **** ** routines.
  33:Drivers/lvgl/src/stdlib/builtin/lv_tlsf.c **** **
  34:Drivers/lvgl/src/stdlib/builtin/lv_tlsf.c **** ** Most modern processors provide instructions to count leading zeroes
  35:Drivers/lvgl/src/stdlib/builtin/lv_tlsf.c **** ** in a word, find the lowest and highest set bit, etc. These
  36:Drivers/lvgl/src/stdlib/builtin/lv_tlsf.c **** ** specific implementations will be used when available, falling back
  37:Drivers/lvgl/src/stdlib/builtin/lv_tlsf.c **** ** to a reasonably efficient generic implementation.
  38:Drivers/lvgl/src/stdlib/builtin/lv_tlsf.c **** **
  39:Drivers/lvgl/src/stdlib/builtin/lv_tlsf.c **** ** NOTE: TLSF spec relies on ffs/fls returning value 0..31.
  40:Drivers/lvgl/src/stdlib/builtin/lv_tlsf.c **** ** ffs/fls return 1-32 by default, returning 0 for error.
  41:Drivers/lvgl/src/stdlib/builtin/lv_tlsf.c **** */
  42:Drivers/lvgl/src/stdlib/builtin/lv_tlsf.c **** 
  43:Drivers/lvgl/src/stdlib/builtin/lv_tlsf.c **** /*
  44:Drivers/lvgl/src/stdlib/builtin/lv_tlsf.c **** ** Detect whether or not we are building for a 32- or 64-bit (LP/LLP)
  45:Drivers/lvgl/src/stdlib/builtin/lv_tlsf.c **** ** architecture. There is no reliable portable method at compile-time.
  46:Drivers/lvgl/src/stdlib/builtin/lv_tlsf.c **** */
  47:Drivers/lvgl/src/stdlib/builtin/lv_tlsf.c **** #if defined (__alpha__) || defined (__ia64__) || defined (__x86_64__) \
  48:Drivers/lvgl/src/stdlib/builtin/lv_tlsf.c ****     || defined (_WIN64) || defined (__LP64__) || defined (__LLP64__)
  49:Drivers/lvgl/src/stdlib/builtin/lv_tlsf.c ****     #define TLSF_64BIT
  50:Drivers/lvgl/src/stdlib/builtin/lv_tlsf.c **** #endif
  51:Drivers/lvgl/src/stdlib/builtin/lv_tlsf.c **** 
  52:Drivers/lvgl/src/stdlib/builtin/lv_tlsf.c **** /*
  53:Drivers/lvgl/src/stdlib/builtin/lv_tlsf.c **** ** Returns one plus the index of the most significant 1-bit of n,
  54:Drivers/lvgl/src/stdlib/builtin/lv_tlsf.c **** ** or if n is zero, returns zero.
  55:Drivers/lvgl/src/stdlib/builtin/lv_tlsf.c **** */
  56:Drivers/lvgl/src/stdlib/builtin/lv_tlsf.c **** #ifdef TLSF_64BIT
  57:Drivers/lvgl/src/stdlib/builtin/lv_tlsf.c ****     #define TLSF_FLS(n) ((n) & 0xffffffff00000000ull ? 32 + TLSF_FLS32((size_t)(n) >> 32) : TLSF_FL
  58:Drivers/lvgl/src/stdlib/builtin/lv_tlsf.c **** #else
  59:Drivers/lvgl/src/stdlib/builtin/lv_tlsf.c ****     #define TLSF_FLS(n) TLSF_FLS32(n)
  60:Drivers/lvgl/src/stdlib/builtin/lv_tlsf.c **** #endif
  61:Drivers/lvgl/src/stdlib/builtin/lv_tlsf.c **** 
  62:Drivers/lvgl/src/stdlib/builtin/lv_tlsf.c **** #define TLSF_FLS32(n) ((n) & 0xffff0000 ? 16 + TLSF_FLS16((n) >> 16) : TLSF_FLS16(n))
  63:Drivers/lvgl/src/stdlib/builtin/lv_tlsf.c **** #define TLSF_FLS16(n) ((n) & 0xff00     ?  8 + TLSF_FLS8 ((n) >>  8) : TLSF_FLS8 (n))
  64:Drivers/lvgl/src/stdlib/builtin/lv_tlsf.c **** #define TLSF_FLS8(n)  ((n) & 0xf0       ?  4 + TLSF_FLS4 ((n) >>  4) : TLSF_FLS4 (n))
  65:Drivers/lvgl/src/stdlib/builtin/lv_tlsf.c **** #define TLSF_FLS4(n)  ((n) & 0xc        ?  2 + TLSF_FLS2 ((n) >>  2) : TLSF_FLS2 (n))
  66:Drivers/lvgl/src/stdlib/builtin/lv_tlsf.c **** #define TLSF_FLS2(n)  ((n) & 0x2        ?  1 + TLSF_FLS1 ((n) >>  1) : TLSF_FLS1 (n))
  67:Drivers/lvgl/src/stdlib/builtin/lv_tlsf.c **** #define TLSF_FLS1(n)  ((n) & 0x1        ?  1 : 0)
  68:Drivers/lvgl/src/stdlib/builtin/lv_tlsf.c **** 
  69:Drivers/lvgl/src/stdlib/builtin/lv_tlsf.c **** /*
  70:Drivers/lvgl/src/stdlib/builtin/lv_tlsf.c **** ** Returns round up value of log2(n).
  71:Drivers/lvgl/src/stdlib/builtin/lv_tlsf.c **** ** Note: it is used at compile time.
  72:Drivers/lvgl/src/stdlib/builtin/lv_tlsf.c **** */
  73:Drivers/lvgl/src/stdlib/builtin/lv_tlsf.c **** #define TLSF_LOG2_CEIL(n) ((n) & (n - 1) ? TLSF_FLS(n) : TLSF_FLS(n) - 1)
  74:Drivers/lvgl/src/stdlib/builtin/lv_tlsf.c **** 
  75:Drivers/lvgl/src/stdlib/builtin/lv_tlsf.c **** /*
  76:Drivers/lvgl/src/stdlib/builtin/lv_tlsf.c **** ** gcc 3.4 and above have builtin support, specialized for architecture.
  77:Drivers/lvgl/src/stdlib/builtin/lv_tlsf.c **** ** Some compilers masquerade as gcc; patchlevel test filters them out.
  78:Drivers/lvgl/src/stdlib/builtin/lv_tlsf.c **** */
  79:Drivers/lvgl/src/stdlib/builtin/lv_tlsf.c **** #if defined (__GNUC__) && (__GNUC__ > 3 || (__GNUC__ == 3 && __GNUC_MINOR__ >= 4)) \
  80:Drivers/lvgl/src/stdlib/builtin/lv_tlsf.c ****     && defined (__GNUC_PATCHLEVEL__)
  81:Drivers/lvgl/src/stdlib/builtin/lv_tlsf.c **** 
  82:Drivers/lvgl/src/stdlib/builtin/lv_tlsf.c **** #if defined (__SNC__)
  83:Drivers/lvgl/src/stdlib/builtin/lv_tlsf.c **** /* SNC for PlayStation 3. */
  84:Drivers/lvgl/src/stdlib/builtin/lv_tlsf.c **** 
  85:Drivers/lvgl/src/stdlib/builtin/lv_tlsf.c **** tlsf_decl int tlsf_ffs(unsigned int word)
  86:Drivers/lvgl/src/stdlib/builtin/lv_tlsf.c **** {
  87:Drivers/lvgl/src/stdlib/builtin/lv_tlsf.c ****     const unsigned int reverse = word & (~word + 1);
ARM GAS  /var/folders/qx/2_175_4n2s19vhvtspjhb3qh0000gn/T//cccJA90f.s 			page 3


  88:Drivers/lvgl/src/stdlib/builtin/lv_tlsf.c ****     const int bit = 32 - __builtin_clz(reverse);
  89:Drivers/lvgl/src/stdlib/builtin/lv_tlsf.c ****     return bit - 1;
  90:Drivers/lvgl/src/stdlib/builtin/lv_tlsf.c **** }
  91:Drivers/lvgl/src/stdlib/builtin/lv_tlsf.c **** 
  92:Drivers/lvgl/src/stdlib/builtin/lv_tlsf.c **** #else
  93:Drivers/lvgl/src/stdlib/builtin/lv_tlsf.c **** 
  94:Drivers/lvgl/src/stdlib/builtin/lv_tlsf.c **** tlsf_decl int tlsf_ffs(unsigned int word)
  95:Drivers/lvgl/src/stdlib/builtin/lv_tlsf.c **** {
  96:Drivers/lvgl/src/stdlib/builtin/lv_tlsf.c ****     return __builtin_ffs(word) - 1;
  97:Drivers/lvgl/src/stdlib/builtin/lv_tlsf.c **** }
  98:Drivers/lvgl/src/stdlib/builtin/lv_tlsf.c **** 
  99:Drivers/lvgl/src/stdlib/builtin/lv_tlsf.c **** #endif
 100:Drivers/lvgl/src/stdlib/builtin/lv_tlsf.c **** 
 101:Drivers/lvgl/src/stdlib/builtin/lv_tlsf.c **** tlsf_decl int tlsf_fls(unsigned int word)
 102:Drivers/lvgl/src/stdlib/builtin/lv_tlsf.c **** {
 103:Drivers/lvgl/src/stdlib/builtin/lv_tlsf.c ****     const int bit = word ? 32 - __builtin_clz(word) : 0;
 104:Drivers/lvgl/src/stdlib/builtin/lv_tlsf.c ****     return bit - 1;
 105:Drivers/lvgl/src/stdlib/builtin/lv_tlsf.c **** }
 106:Drivers/lvgl/src/stdlib/builtin/lv_tlsf.c **** 
 107:Drivers/lvgl/src/stdlib/builtin/lv_tlsf.c **** #elif defined (_MSC_VER) && (_MSC_VER >= 1400) && (defined (_M_IX86) || defined (_M_X64))
 108:Drivers/lvgl/src/stdlib/builtin/lv_tlsf.c **** /* Microsoft Visual C++ support on x86/X64 architectures. */
 109:Drivers/lvgl/src/stdlib/builtin/lv_tlsf.c **** 
 110:Drivers/lvgl/src/stdlib/builtin/lv_tlsf.c **** #include <intrin.h>
 111:Drivers/lvgl/src/stdlib/builtin/lv_tlsf.c **** 
 112:Drivers/lvgl/src/stdlib/builtin/lv_tlsf.c **** #pragma intrinsic(_BitScanReverse)
 113:Drivers/lvgl/src/stdlib/builtin/lv_tlsf.c **** #pragma intrinsic(_BitScanForward)
 114:Drivers/lvgl/src/stdlib/builtin/lv_tlsf.c **** 
 115:Drivers/lvgl/src/stdlib/builtin/lv_tlsf.c **** tlsf_decl int tlsf_fls(unsigned int word)
 116:Drivers/lvgl/src/stdlib/builtin/lv_tlsf.c **** {
 117:Drivers/lvgl/src/stdlib/builtin/lv_tlsf.c ****     unsigned long index;
 118:Drivers/lvgl/src/stdlib/builtin/lv_tlsf.c ****     return _BitScanReverse(&index, word) ? index : -1;
 119:Drivers/lvgl/src/stdlib/builtin/lv_tlsf.c **** }
 120:Drivers/lvgl/src/stdlib/builtin/lv_tlsf.c **** 
 121:Drivers/lvgl/src/stdlib/builtin/lv_tlsf.c **** tlsf_decl int tlsf_ffs(unsigned int word)
 122:Drivers/lvgl/src/stdlib/builtin/lv_tlsf.c **** {
 123:Drivers/lvgl/src/stdlib/builtin/lv_tlsf.c ****     unsigned long index;
 124:Drivers/lvgl/src/stdlib/builtin/lv_tlsf.c ****     return _BitScanForward(&index, word) ? index : -1;
 125:Drivers/lvgl/src/stdlib/builtin/lv_tlsf.c **** }
 126:Drivers/lvgl/src/stdlib/builtin/lv_tlsf.c **** 
 127:Drivers/lvgl/src/stdlib/builtin/lv_tlsf.c **** #elif defined (_MSC_VER) && defined (_M_PPC)
 128:Drivers/lvgl/src/stdlib/builtin/lv_tlsf.c **** /* Microsoft Visual C++ support on PowerPC architectures. */
 129:Drivers/lvgl/src/stdlib/builtin/lv_tlsf.c **** 
 130:Drivers/lvgl/src/stdlib/builtin/lv_tlsf.c **** #include <ppcintrinsics.h>
 131:Drivers/lvgl/src/stdlib/builtin/lv_tlsf.c **** 
 132:Drivers/lvgl/src/stdlib/builtin/lv_tlsf.c **** tlsf_decl int tlsf_fls(unsigned int word)
 133:Drivers/lvgl/src/stdlib/builtin/lv_tlsf.c **** {
 134:Drivers/lvgl/src/stdlib/builtin/lv_tlsf.c ****     const int bit = 32 - _CountLeadingZeros(word);
 135:Drivers/lvgl/src/stdlib/builtin/lv_tlsf.c ****     return bit - 1;
 136:Drivers/lvgl/src/stdlib/builtin/lv_tlsf.c **** }
 137:Drivers/lvgl/src/stdlib/builtin/lv_tlsf.c **** 
 138:Drivers/lvgl/src/stdlib/builtin/lv_tlsf.c **** tlsf_decl int tlsf_ffs(unsigned int word)
 139:Drivers/lvgl/src/stdlib/builtin/lv_tlsf.c **** {
 140:Drivers/lvgl/src/stdlib/builtin/lv_tlsf.c ****     const unsigned int reverse = word & (~word + 1);
 141:Drivers/lvgl/src/stdlib/builtin/lv_tlsf.c ****     const int bit = 32 - _CountLeadingZeros(reverse);
 142:Drivers/lvgl/src/stdlib/builtin/lv_tlsf.c ****     return bit - 1;
 143:Drivers/lvgl/src/stdlib/builtin/lv_tlsf.c **** }
 144:Drivers/lvgl/src/stdlib/builtin/lv_tlsf.c **** 
ARM GAS  /var/folders/qx/2_175_4n2s19vhvtspjhb3qh0000gn/T//cccJA90f.s 			page 4


 145:Drivers/lvgl/src/stdlib/builtin/lv_tlsf.c **** #elif defined (__ARMCC_VERSION)
 146:Drivers/lvgl/src/stdlib/builtin/lv_tlsf.c **** /* RealView Compilation Tools for ARM */
 147:Drivers/lvgl/src/stdlib/builtin/lv_tlsf.c **** 
 148:Drivers/lvgl/src/stdlib/builtin/lv_tlsf.c **** tlsf_decl int tlsf_ffs(unsigned int word)
 149:Drivers/lvgl/src/stdlib/builtin/lv_tlsf.c **** {
 150:Drivers/lvgl/src/stdlib/builtin/lv_tlsf.c ****     const unsigned int reverse = word & (~word + 1);
 151:Drivers/lvgl/src/stdlib/builtin/lv_tlsf.c ****     const int bit = 32 - __clz(reverse);
 152:Drivers/lvgl/src/stdlib/builtin/lv_tlsf.c ****     return bit - 1;
 153:Drivers/lvgl/src/stdlib/builtin/lv_tlsf.c **** }
 154:Drivers/lvgl/src/stdlib/builtin/lv_tlsf.c **** 
 155:Drivers/lvgl/src/stdlib/builtin/lv_tlsf.c **** tlsf_decl int tlsf_fls(unsigned int word)
 156:Drivers/lvgl/src/stdlib/builtin/lv_tlsf.c **** {
 157:Drivers/lvgl/src/stdlib/builtin/lv_tlsf.c ****     const int bit = word ? 32 - __clz(word) : 0;
 158:Drivers/lvgl/src/stdlib/builtin/lv_tlsf.c ****     return bit - 1;
 159:Drivers/lvgl/src/stdlib/builtin/lv_tlsf.c **** }
 160:Drivers/lvgl/src/stdlib/builtin/lv_tlsf.c **** 
 161:Drivers/lvgl/src/stdlib/builtin/lv_tlsf.c **** #elif defined (__ghs__)
 162:Drivers/lvgl/src/stdlib/builtin/lv_tlsf.c **** /* Green Hills support for PowerPC */
 163:Drivers/lvgl/src/stdlib/builtin/lv_tlsf.c **** 
 164:Drivers/lvgl/src/stdlib/builtin/lv_tlsf.c **** #include <ppc_ghs.h>
 165:Drivers/lvgl/src/stdlib/builtin/lv_tlsf.c **** 
 166:Drivers/lvgl/src/stdlib/builtin/lv_tlsf.c **** tlsf_decl int tlsf_ffs(unsigned int word)
 167:Drivers/lvgl/src/stdlib/builtin/lv_tlsf.c **** {
 168:Drivers/lvgl/src/stdlib/builtin/lv_tlsf.c ****     const unsigned int reverse = word & (~word + 1);
 169:Drivers/lvgl/src/stdlib/builtin/lv_tlsf.c ****     const int bit = 32 - __CLZ32(reverse);
 170:Drivers/lvgl/src/stdlib/builtin/lv_tlsf.c ****     return bit - 1;
 171:Drivers/lvgl/src/stdlib/builtin/lv_tlsf.c **** }
 172:Drivers/lvgl/src/stdlib/builtin/lv_tlsf.c **** 
 173:Drivers/lvgl/src/stdlib/builtin/lv_tlsf.c **** tlsf_decl int tlsf_fls(unsigned int word)
 174:Drivers/lvgl/src/stdlib/builtin/lv_tlsf.c **** {
 175:Drivers/lvgl/src/stdlib/builtin/lv_tlsf.c ****     const int bit = word ? 32 - __CLZ32(word) : 0;
 176:Drivers/lvgl/src/stdlib/builtin/lv_tlsf.c ****     return bit - 1;
 177:Drivers/lvgl/src/stdlib/builtin/lv_tlsf.c **** }
 178:Drivers/lvgl/src/stdlib/builtin/lv_tlsf.c **** 
 179:Drivers/lvgl/src/stdlib/builtin/lv_tlsf.c **** #else
 180:Drivers/lvgl/src/stdlib/builtin/lv_tlsf.c **** /* Fall back to generic implementation. */
 181:Drivers/lvgl/src/stdlib/builtin/lv_tlsf.c **** 
 182:Drivers/lvgl/src/stdlib/builtin/lv_tlsf.c **** /* Implement ffs in terms of fls. */
 183:Drivers/lvgl/src/stdlib/builtin/lv_tlsf.c **** tlsf_decl int tlsf_ffs(unsigned int word)
 184:Drivers/lvgl/src/stdlib/builtin/lv_tlsf.c **** {
 185:Drivers/lvgl/src/stdlib/builtin/lv_tlsf.c ****     const unsigned int reverse = word & (~word + 1);
 186:Drivers/lvgl/src/stdlib/builtin/lv_tlsf.c ****     return TLSF_FLS32(reverse) - 1;
 187:Drivers/lvgl/src/stdlib/builtin/lv_tlsf.c **** }
 188:Drivers/lvgl/src/stdlib/builtin/lv_tlsf.c **** 
 189:Drivers/lvgl/src/stdlib/builtin/lv_tlsf.c **** tlsf_decl int tlsf_fls(unsigned int word)
 190:Drivers/lvgl/src/stdlib/builtin/lv_tlsf.c **** {
 191:Drivers/lvgl/src/stdlib/builtin/lv_tlsf.c ****     return TLSF_FLS32(word) - 1;
 192:Drivers/lvgl/src/stdlib/builtin/lv_tlsf.c **** }
 193:Drivers/lvgl/src/stdlib/builtin/lv_tlsf.c **** 
 194:Drivers/lvgl/src/stdlib/builtin/lv_tlsf.c **** #endif
 195:Drivers/lvgl/src/stdlib/builtin/lv_tlsf.c **** 
 196:Drivers/lvgl/src/stdlib/builtin/lv_tlsf.c **** /* Possibly 64-bit version of tlsf_fls. */
 197:Drivers/lvgl/src/stdlib/builtin/lv_tlsf.c **** #if defined (TLSF_64BIT)
 198:Drivers/lvgl/src/stdlib/builtin/lv_tlsf.c **** tlsf_decl int tlsf_fls_sizet(size_t size)
 199:Drivers/lvgl/src/stdlib/builtin/lv_tlsf.c **** {
 200:Drivers/lvgl/src/stdlib/builtin/lv_tlsf.c ****     int high = (int)(size >> 32);
 201:Drivers/lvgl/src/stdlib/builtin/lv_tlsf.c ****     int bits = 0;
ARM GAS  /var/folders/qx/2_175_4n2s19vhvtspjhb3qh0000gn/T//cccJA90f.s 			page 5


 202:Drivers/lvgl/src/stdlib/builtin/lv_tlsf.c ****     if(high) {
 203:Drivers/lvgl/src/stdlib/builtin/lv_tlsf.c ****         bits = 32 + tlsf_fls(high);
 204:Drivers/lvgl/src/stdlib/builtin/lv_tlsf.c ****     }
 205:Drivers/lvgl/src/stdlib/builtin/lv_tlsf.c ****     else {
 206:Drivers/lvgl/src/stdlib/builtin/lv_tlsf.c ****         bits = tlsf_fls((int)size & 0xffffffff);
 207:Drivers/lvgl/src/stdlib/builtin/lv_tlsf.c **** 
 208:Drivers/lvgl/src/stdlib/builtin/lv_tlsf.c ****     }
 209:Drivers/lvgl/src/stdlib/builtin/lv_tlsf.c ****     return bits;
 210:Drivers/lvgl/src/stdlib/builtin/lv_tlsf.c **** }
 211:Drivers/lvgl/src/stdlib/builtin/lv_tlsf.c **** #else
 212:Drivers/lvgl/src/stdlib/builtin/lv_tlsf.c **** #define tlsf_fls_sizet tlsf_fls
 213:Drivers/lvgl/src/stdlib/builtin/lv_tlsf.c **** #endif
 214:Drivers/lvgl/src/stdlib/builtin/lv_tlsf.c **** 
 215:Drivers/lvgl/src/stdlib/builtin/lv_tlsf.c **** #undef tlsf_decl
 216:Drivers/lvgl/src/stdlib/builtin/lv_tlsf.c **** 
 217:Drivers/lvgl/src/stdlib/builtin/lv_tlsf.c **** /*
 218:Drivers/lvgl/src/stdlib/builtin/lv_tlsf.c **** ** Constants.
 219:Drivers/lvgl/src/stdlib/builtin/lv_tlsf.c **** */
 220:Drivers/lvgl/src/stdlib/builtin/lv_tlsf.c **** 
 221:Drivers/lvgl/src/stdlib/builtin/lv_tlsf.c **** /* Public constants: may be modified. */
 222:Drivers/lvgl/src/stdlib/builtin/lv_tlsf.c **** typedef enum {
 223:Drivers/lvgl/src/stdlib/builtin/lv_tlsf.c ****     /* log2 of number of linear subdivisions of block sizes. Larger
 224:Drivers/lvgl/src/stdlib/builtin/lv_tlsf.c ****     ** values require more memory in the control structure. Values of
 225:Drivers/lvgl/src/stdlib/builtin/lv_tlsf.c ****     ** 4 or 5 are typical.
 226:Drivers/lvgl/src/stdlib/builtin/lv_tlsf.c ****     */
 227:Drivers/lvgl/src/stdlib/builtin/lv_tlsf.c ****     SL_INDEX_COUNT_LOG2 = 5,
 228:Drivers/lvgl/src/stdlib/builtin/lv_tlsf.c **** } tlsf_public;
 229:Drivers/lvgl/src/stdlib/builtin/lv_tlsf.c **** 
 230:Drivers/lvgl/src/stdlib/builtin/lv_tlsf.c **** /* Private constants: do not modify. */
 231:Drivers/lvgl/src/stdlib/builtin/lv_tlsf.c **** typedef enum {
 232:Drivers/lvgl/src/stdlib/builtin/lv_tlsf.c **** #if defined (TLSF_64BIT)
 233:Drivers/lvgl/src/stdlib/builtin/lv_tlsf.c ****     /* All allocation sizes and addresses are aligned to 8 bytes. */
 234:Drivers/lvgl/src/stdlib/builtin/lv_tlsf.c ****     ALIGN_SIZE_LOG2 = 3,
 235:Drivers/lvgl/src/stdlib/builtin/lv_tlsf.c **** #else
 236:Drivers/lvgl/src/stdlib/builtin/lv_tlsf.c ****     /* All allocation sizes and addresses are aligned to 4 bytes. */
 237:Drivers/lvgl/src/stdlib/builtin/lv_tlsf.c ****     ALIGN_SIZE_LOG2 = 2,
 238:Drivers/lvgl/src/stdlib/builtin/lv_tlsf.c **** #endif
 239:Drivers/lvgl/src/stdlib/builtin/lv_tlsf.c ****     ALIGN_SIZE = (1 << ALIGN_SIZE_LOG2),
 240:Drivers/lvgl/src/stdlib/builtin/lv_tlsf.c **** 
 241:Drivers/lvgl/src/stdlib/builtin/lv_tlsf.c ****     /*
 242:Drivers/lvgl/src/stdlib/builtin/lv_tlsf.c ****     ** We support allocations of sizes up to (1 << FL_INDEX_MAX) bits.
 243:Drivers/lvgl/src/stdlib/builtin/lv_tlsf.c ****     ** However, because we linearly subdivide the second-level lists, and
 244:Drivers/lvgl/src/stdlib/builtin/lv_tlsf.c ****     ** our minimum size granularity is 4 bytes, it doesn't make sense to
 245:Drivers/lvgl/src/stdlib/builtin/lv_tlsf.c ****     ** create first-level lists for sizes smaller than SL_INDEX_COUNT * 4,
 246:Drivers/lvgl/src/stdlib/builtin/lv_tlsf.c ****     ** or (1 << (SL_INDEX_COUNT_LOG2 + 2)) bytes, as there we will be
 247:Drivers/lvgl/src/stdlib/builtin/lv_tlsf.c ****     ** trying to split size ranges into more slots than we have available.
 248:Drivers/lvgl/src/stdlib/builtin/lv_tlsf.c ****     ** Instead, we calculate the minimum threshold size, and place all
 249:Drivers/lvgl/src/stdlib/builtin/lv_tlsf.c ****     ** blocks below that size into the 0th first-level list.
 250:Drivers/lvgl/src/stdlib/builtin/lv_tlsf.c ****     */
 251:Drivers/lvgl/src/stdlib/builtin/lv_tlsf.c **** 
 252:Drivers/lvgl/src/stdlib/builtin/lv_tlsf.c **** #if defined (TLSF_MAX_POOL_SIZE)
 253:Drivers/lvgl/src/stdlib/builtin/lv_tlsf.c ****     FL_INDEX_MAX = TLSF_LOG2_CEIL(TLSF_MAX_POOL_SIZE),
 254:Drivers/lvgl/src/stdlib/builtin/lv_tlsf.c **** #elif defined (TLSF_64BIT)
 255:Drivers/lvgl/src/stdlib/builtin/lv_tlsf.c ****     /*
 256:Drivers/lvgl/src/stdlib/builtin/lv_tlsf.c ****     ** TODO: We can increase this to support larger sizes, at the expense
 257:Drivers/lvgl/src/stdlib/builtin/lv_tlsf.c ****     ** of more overhead in the TLSF structure.
 258:Drivers/lvgl/src/stdlib/builtin/lv_tlsf.c ****     */
ARM GAS  /var/folders/qx/2_175_4n2s19vhvtspjhb3qh0000gn/T//cccJA90f.s 			page 6


 259:Drivers/lvgl/src/stdlib/builtin/lv_tlsf.c ****     FL_INDEX_MAX = 32,
 260:Drivers/lvgl/src/stdlib/builtin/lv_tlsf.c **** #else
 261:Drivers/lvgl/src/stdlib/builtin/lv_tlsf.c ****     FL_INDEX_MAX = 30,
 262:Drivers/lvgl/src/stdlib/builtin/lv_tlsf.c **** #endif
 263:Drivers/lvgl/src/stdlib/builtin/lv_tlsf.c ****     SL_INDEX_COUNT = (1 << SL_INDEX_COUNT_LOG2),
 264:Drivers/lvgl/src/stdlib/builtin/lv_tlsf.c ****     FL_INDEX_SHIFT = (SL_INDEX_COUNT_LOG2 + ALIGN_SIZE_LOG2),
 265:Drivers/lvgl/src/stdlib/builtin/lv_tlsf.c ****     FL_INDEX_COUNT = (FL_INDEX_MAX - FL_INDEX_SHIFT + 1),
 266:Drivers/lvgl/src/stdlib/builtin/lv_tlsf.c **** 
 267:Drivers/lvgl/src/stdlib/builtin/lv_tlsf.c ****     SMALL_BLOCK_SIZE = (1 << FL_INDEX_SHIFT),
 268:Drivers/lvgl/src/stdlib/builtin/lv_tlsf.c **** } tlsf_private;
 269:Drivers/lvgl/src/stdlib/builtin/lv_tlsf.c **** 
 270:Drivers/lvgl/src/stdlib/builtin/lv_tlsf.c **** /*
 271:Drivers/lvgl/src/stdlib/builtin/lv_tlsf.c **** ** Cast and min/max macros.
 272:Drivers/lvgl/src/stdlib/builtin/lv_tlsf.c **** */
 273:Drivers/lvgl/src/stdlib/builtin/lv_tlsf.c **** 
 274:Drivers/lvgl/src/stdlib/builtin/lv_tlsf.c **** #define tlsf_cast(t, exp)   ((t) (exp))
 275:Drivers/lvgl/src/stdlib/builtin/lv_tlsf.c **** #define tlsf_min(a, b)      ((a) < (b) ? (a) : (b))
 276:Drivers/lvgl/src/stdlib/builtin/lv_tlsf.c **** #define tlsf_max(a, b)      ((a) > (b) ? (a) : (b))
 277:Drivers/lvgl/src/stdlib/builtin/lv_tlsf.c **** 
 278:Drivers/lvgl/src/stdlib/builtin/lv_tlsf.c **** /*
 279:Drivers/lvgl/src/stdlib/builtin/lv_tlsf.c **** ** Set assert macro, if it has not been provided by the user.
 280:Drivers/lvgl/src/stdlib/builtin/lv_tlsf.c **** */
 281:Drivers/lvgl/src/stdlib/builtin/lv_tlsf.c **** #define tlsf_assert LV_ASSERT
 282:Drivers/lvgl/src/stdlib/builtin/lv_tlsf.c **** 
 283:Drivers/lvgl/src/stdlib/builtin/lv_tlsf.c **** #if !defined (tlsf_assert)
 284:Drivers/lvgl/src/stdlib/builtin/lv_tlsf.c ****     #define tlsf_assert assert
 285:Drivers/lvgl/src/stdlib/builtin/lv_tlsf.c **** #endif
 286:Drivers/lvgl/src/stdlib/builtin/lv_tlsf.c **** 
 287:Drivers/lvgl/src/stdlib/builtin/lv_tlsf.c **** /*
 288:Drivers/lvgl/src/stdlib/builtin/lv_tlsf.c **** ** Static assertion mechanism.
 289:Drivers/lvgl/src/stdlib/builtin/lv_tlsf.c **** */
 290:Drivers/lvgl/src/stdlib/builtin/lv_tlsf.c **** 
 291:Drivers/lvgl/src/stdlib/builtin/lv_tlsf.c **** #define _tlsf_glue2(x, y) x ## y
 292:Drivers/lvgl/src/stdlib/builtin/lv_tlsf.c **** #define _tlsf_glue(x, y) _tlsf_glue2(x, y)
 293:Drivers/lvgl/src/stdlib/builtin/lv_tlsf.c **** #define tlsf_static_assert(exp) \
 294:Drivers/lvgl/src/stdlib/builtin/lv_tlsf.c ****     typedef char _tlsf_glue(static_assert, __LINE__) [(exp) ? 1 : -1]
 295:Drivers/lvgl/src/stdlib/builtin/lv_tlsf.c **** 
 296:Drivers/lvgl/src/stdlib/builtin/lv_tlsf.c **** /* This code has been tested on 32- and 64-bit (LP/LLP) architectures. */
 297:Drivers/lvgl/src/stdlib/builtin/lv_tlsf.c **** tlsf_static_assert(sizeof(int) * CHAR_BIT == 32);
 298:Drivers/lvgl/src/stdlib/builtin/lv_tlsf.c **** tlsf_static_assert(sizeof(size_t) * CHAR_BIT >= 32);
 299:Drivers/lvgl/src/stdlib/builtin/lv_tlsf.c **** tlsf_static_assert(sizeof(size_t) * CHAR_BIT <= 64);
 300:Drivers/lvgl/src/stdlib/builtin/lv_tlsf.c **** 
 301:Drivers/lvgl/src/stdlib/builtin/lv_tlsf.c **** /* SL_INDEX_COUNT must be <= number of bits in sl_bitmap's storage type. */
 302:Drivers/lvgl/src/stdlib/builtin/lv_tlsf.c **** tlsf_static_assert(sizeof(unsigned int) * CHAR_BIT >= SL_INDEX_COUNT);
 303:Drivers/lvgl/src/stdlib/builtin/lv_tlsf.c **** 
 304:Drivers/lvgl/src/stdlib/builtin/lv_tlsf.c **** /* Ensure we've properly tuned our sizes. */
 305:Drivers/lvgl/src/stdlib/builtin/lv_tlsf.c **** tlsf_static_assert(ALIGN_SIZE == SMALL_BLOCK_SIZE / SL_INDEX_COUNT);
 306:Drivers/lvgl/src/stdlib/builtin/lv_tlsf.c **** 
 307:Drivers/lvgl/src/stdlib/builtin/lv_tlsf.c **** /*
 308:Drivers/lvgl/src/stdlib/builtin/lv_tlsf.c **** ** Data structures and associated constants.
 309:Drivers/lvgl/src/stdlib/builtin/lv_tlsf.c **** */
 310:Drivers/lvgl/src/stdlib/builtin/lv_tlsf.c **** 
 311:Drivers/lvgl/src/stdlib/builtin/lv_tlsf.c **** /*
 312:Drivers/lvgl/src/stdlib/builtin/lv_tlsf.c **** ** Block header structure.
 313:Drivers/lvgl/src/stdlib/builtin/lv_tlsf.c **** **
 314:Drivers/lvgl/src/stdlib/builtin/lv_tlsf.c **** ** There are several implementation subtleties involved:
 315:Drivers/lvgl/src/stdlib/builtin/lv_tlsf.c **** ** - The prev_phys_block field is only valid if the previous block is free.
ARM GAS  /var/folders/qx/2_175_4n2s19vhvtspjhb3qh0000gn/T//cccJA90f.s 			page 7


 316:Drivers/lvgl/src/stdlib/builtin/lv_tlsf.c **** ** - The prev_phys_block field is actually stored at the end of the
 317:Drivers/lvgl/src/stdlib/builtin/lv_tlsf.c **** **   previous block. It appears at the beginning of this structure only to
 318:Drivers/lvgl/src/stdlib/builtin/lv_tlsf.c **** **   simplify the implementation.
 319:Drivers/lvgl/src/stdlib/builtin/lv_tlsf.c **** ** - The next_free / prev_free fields are only valid if the block is free.
 320:Drivers/lvgl/src/stdlib/builtin/lv_tlsf.c **** */
 321:Drivers/lvgl/src/stdlib/builtin/lv_tlsf.c **** typedef struct block_header_t {
 322:Drivers/lvgl/src/stdlib/builtin/lv_tlsf.c ****     /* Points to the previous physical block. */
 323:Drivers/lvgl/src/stdlib/builtin/lv_tlsf.c ****     struct block_header_t * prev_phys_block;
 324:Drivers/lvgl/src/stdlib/builtin/lv_tlsf.c **** 
 325:Drivers/lvgl/src/stdlib/builtin/lv_tlsf.c ****     /* The size of this block, excluding the block header. */
 326:Drivers/lvgl/src/stdlib/builtin/lv_tlsf.c ****     size_t size;
 327:Drivers/lvgl/src/stdlib/builtin/lv_tlsf.c **** 
 328:Drivers/lvgl/src/stdlib/builtin/lv_tlsf.c ****     /* Next and previous free blocks. */
 329:Drivers/lvgl/src/stdlib/builtin/lv_tlsf.c ****     struct block_header_t * next_free;
 330:Drivers/lvgl/src/stdlib/builtin/lv_tlsf.c ****     struct block_header_t * prev_free;
 331:Drivers/lvgl/src/stdlib/builtin/lv_tlsf.c **** } block_header_t;
 332:Drivers/lvgl/src/stdlib/builtin/lv_tlsf.c **** 
 333:Drivers/lvgl/src/stdlib/builtin/lv_tlsf.c **** /*
 334:Drivers/lvgl/src/stdlib/builtin/lv_tlsf.c **** ** Since block sizes are always at least a multiple of 4, the two least
 335:Drivers/lvgl/src/stdlib/builtin/lv_tlsf.c **** ** significant bits of the size field are used to store the block status:
 336:Drivers/lvgl/src/stdlib/builtin/lv_tlsf.c **** ** - bit 0: whether block is busy or free
 337:Drivers/lvgl/src/stdlib/builtin/lv_tlsf.c **** ** - bit 1: whether previous block is busy or free
 338:Drivers/lvgl/src/stdlib/builtin/lv_tlsf.c **** */
 339:Drivers/lvgl/src/stdlib/builtin/lv_tlsf.c **** static const size_t block_header_free_bit = 1 << 0;
 340:Drivers/lvgl/src/stdlib/builtin/lv_tlsf.c **** static const size_t block_header_prev_free_bit = 1 << 1;
 341:Drivers/lvgl/src/stdlib/builtin/lv_tlsf.c **** 
 342:Drivers/lvgl/src/stdlib/builtin/lv_tlsf.c **** /*
 343:Drivers/lvgl/src/stdlib/builtin/lv_tlsf.c **** ** The size of the block header exposed to used blocks is the size field.
 344:Drivers/lvgl/src/stdlib/builtin/lv_tlsf.c **** ** The prev_phys_block field is stored *inside* the previous free block.
 345:Drivers/lvgl/src/stdlib/builtin/lv_tlsf.c **** */
 346:Drivers/lvgl/src/stdlib/builtin/lv_tlsf.c **** static const size_t block_header_overhead = sizeof(size_t);
 347:Drivers/lvgl/src/stdlib/builtin/lv_tlsf.c **** 
 348:Drivers/lvgl/src/stdlib/builtin/lv_tlsf.c **** /* User data starts directly after the size field in a used block. */
 349:Drivers/lvgl/src/stdlib/builtin/lv_tlsf.c **** static const size_t block_start_offset =
 350:Drivers/lvgl/src/stdlib/builtin/lv_tlsf.c ****     offsetof(block_header_t, size) + sizeof(size_t);
 351:Drivers/lvgl/src/stdlib/builtin/lv_tlsf.c **** 
 352:Drivers/lvgl/src/stdlib/builtin/lv_tlsf.c **** /*
 353:Drivers/lvgl/src/stdlib/builtin/lv_tlsf.c **** ** A free block must be large enough to store its header minus the size of
 354:Drivers/lvgl/src/stdlib/builtin/lv_tlsf.c **** ** the prev_phys_block field, and no larger than the number of addressable
 355:Drivers/lvgl/src/stdlib/builtin/lv_tlsf.c **** ** bits for FL_INDEX.
 356:Drivers/lvgl/src/stdlib/builtin/lv_tlsf.c **** */
 357:Drivers/lvgl/src/stdlib/builtin/lv_tlsf.c **** static const size_t block_size_min =
 358:Drivers/lvgl/src/stdlib/builtin/lv_tlsf.c ****     sizeof(block_header_t) - sizeof(block_header_t *);
 359:Drivers/lvgl/src/stdlib/builtin/lv_tlsf.c **** static const size_t block_size_max = tlsf_cast(size_t, 1) << FL_INDEX_MAX;
 360:Drivers/lvgl/src/stdlib/builtin/lv_tlsf.c **** 
 361:Drivers/lvgl/src/stdlib/builtin/lv_tlsf.c **** /* The TLSF control structure. */
 362:Drivers/lvgl/src/stdlib/builtin/lv_tlsf.c **** typedef struct control_t {
 363:Drivers/lvgl/src/stdlib/builtin/lv_tlsf.c ****     /* Empty lists point at this block to indicate they are free. */
 364:Drivers/lvgl/src/stdlib/builtin/lv_tlsf.c ****     block_header_t block_null;
 365:Drivers/lvgl/src/stdlib/builtin/lv_tlsf.c **** 
 366:Drivers/lvgl/src/stdlib/builtin/lv_tlsf.c ****     /* Bitmaps for free lists. */
 367:Drivers/lvgl/src/stdlib/builtin/lv_tlsf.c ****     unsigned int fl_bitmap;
 368:Drivers/lvgl/src/stdlib/builtin/lv_tlsf.c ****     unsigned int sl_bitmap[FL_INDEX_COUNT];
 369:Drivers/lvgl/src/stdlib/builtin/lv_tlsf.c **** 
 370:Drivers/lvgl/src/stdlib/builtin/lv_tlsf.c ****     /* Head of free lists. */
 371:Drivers/lvgl/src/stdlib/builtin/lv_tlsf.c ****     block_header_t * blocks[FL_INDEX_COUNT][SL_INDEX_COUNT];
 372:Drivers/lvgl/src/stdlib/builtin/lv_tlsf.c **** } control_t;
ARM GAS  /var/folders/qx/2_175_4n2s19vhvtspjhb3qh0000gn/T//cccJA90f.s 			page 8


 373:Drivers/lvgl/src/stdlib/builtin/lv_tlsf.c **** 
 374:Drivers/lvgl/src/stdlib/builtin/lv_tlsf.c **** /* A type used for casting when doing pointer arithmetic. */
 375:Drivers/lvgl/src/stdlib/builtin/lv_tlsf.c **** typedef ptrdiff_t tlsfptr_t;
 376:Drivers/lvgl/src/stdlib/builtin/lv_tlsf.c **** 
 377:Drivers/lvgl/src/stdlib/builtin/lv_tlsf.c **** /*
 378:Drivers/lvgl/src/stdlib/builtin/lv_tlsf.c **** ** block_header_t member functions.
 379:Drivers/lvgl/src/stdlib/builtin/lv_tlsf.c **** */
 380:Drivers/lvgl/src/stdlib/builtin/lv_tlsf.c **** 
 381:Drivers/lvgl/src/stdlib/builtin/lv_tlsf.c **** static size_t block_size(const block_header_t * block)
 382:Drivers/lvgl/src/stdlib/builtin/lv_tlsf.c **** {
  29              		.loc 1 382 1 view -0
  30              		.cfi_startproc
  31              		@ args = 0, pretend = 0, frame = 0
  32              		@ frame_needed = 0, uses_anonymous_args = 0
  33              		@ link register save eliminated.
 383:Drivers/lvgl/src/stdlib/builtin/lv_tlsf.c ****     return block->size & ~(block_header_free_bit | block_header_prev_free_bit);
  34              		.loc 1 383 5 view .LVU1
  35              		.loc 1 383 17 is_stmt 0 view .LVU2
  36 0000 4068     		ldr	r0, [r0, #4]
  37              	.LVL1:
 384:Drivers/lvgl/src/stdlib/builtin/lv_tlsf.c **** }
  38              		.loc 1 384 1 view .LVU3
  39 0002 20F00300 		bic	r0, r0, #3
  40 0006 7047     		bx	lr
  41              		.cfi_endproc
  42              	.LFE16:
  44              		.section	.text.block_set_size,"ax",%progbits
  45              		.align	1
  46              		.syntax unified
  47              		.thumb
  48              		.thumb_func
  50              	block_set_size:
  51              	.LVL2:
  52              	.LFB17:
 385:Drivers/lvgl/src/stdlib/builtin/lv_tlsf.c **** 
 386:Drivers/lvgl/src/stdlib/builtin/lv_tlsf.c **** static void block_set_size(block_header_t * block, size_t size)
 387:Drivers/lvgl/src/stdlib/builtin/lv_tlsf.c **** {
  53              		.loc 1 387 1 is_stmt 1 view -0
  54              		.cfi_startproc
  55              		@ args = 0, pretend = 0, frame = 0
  56              		@ frame_needed = 0, uses_anonymous_args = 0
  57              		@ link register save eliminated.
 388:Drivers/lvgl/src/stdlib/builtin/lv_tlsf.c ****     const size_t oldsize = block->size;
  58              		.loc 1 388 5 view .LVU5
  59              		.loc 1 388 18 is_stmt 0 view .LVU6
  60 0000 4368     		ldr	r3, [r0, #4]
  61              	.LVL3:
 389:Drivers/lvgl/src/stdlib/builtin/lv_tlsf.c ****     block->size = size | (oldsize & (block_header_free_bit | block_header_prev_free_bit));
  62              		.loc 1 389 5 is_stmt 1 view .LVU7
  63              		.loc 1 389 35 is_stmt 0 view .LVU8
  64 0002 03F00303 		and	r3, r3, #3
  65              	.LVL4:
  66              		.loc 1 389 24 view .LVU9
  67 0006 0B43     		orrs	r3, r3, r1
  68              		.loc 1 389 17 view .LVU10
  69 0008 4360     		str	r3, [r0, #4]
  70              	.LVL5:
ARM GAS  /var/folders/qx/2_175_4n2s19vhvtspjhb3qh0000gn/T//cccJA90f.s 			page 9


 390:Drivers/lvgl/src/stdlib/builtin/lv_tlsf.c **** }
  71              		.loc 1 390 1 view .LVU11
  72 000a 7047     		bx	lr
  73              		.cfi_endproc
  74              	.LFE17:
  76              		.section	.text.block_is_last,"ax",%progbits
  77              		.align	1
  78              		.syntax unified
  79              		.thumb
  80              		.thumb_func
  82              	block_is_last:
  83              	.LVL6:
  84              	.LFB18:
 391:Drivers/lvgl/src/stdlib/builtin/lv_tlsf.c **** 
 392:Drivers/lvgl/src/stdlib/builtin/lv_tlsf.c **** static int block_is_last(const block_header_t * block)
 393:Drivers/lvgl/src/stdlib/builtin/lv_tlsf.c **** {
  85              		.loc 1 393 1 is_stmt 1 view -0
  86              		.cfi_startproc
  87              		@ args = 0, pretend = 0, frame = 0
  88              		@ frame_needed = 0, uses_anonymous_args = 0
  89              		.loc 1 393 1 is_stmt 0 view .LVU13
  90 0000 08B5     		push	{r3, lr}
  91              	.LCFI0:
  92              		.cfi_def_cfa_offset 8
  93              		.cfi_offset 3, -8
  94              		.cfi_offset 14, -4
 394:Drivers/lvgl/src/stdlib/builtin/lv_tlsf.c ****     return block_size(block) == 0;
  95              		.loc 1 394 5 is_stmt 1 view .LVU14
  96              		.loc 1 394 12 is_stmt 0 view .LVU15
  97 0002 FFF7FEFF 		bl	block_size
  98              	.LVL7:
 395:Drivers/lvgl/src/stdlib/builtin/lv_tlsf.c **** }
  99              		.loc 1 395 1 view .LVU16
 100 0006 B0FA80F0 		clz	r0, r0
 101 000a 4009     		lsrs	r0, r0, #5
 102 000c 08BD     		pop	{r3, pc}
 103              		.cfi_endproc
 104              	.LFE18:
 106              		.section	.text.block_is_free,"ax",%progbits
 107              		.align	1
 108              		.syntax unified
 109              		.thumb
 110              		.thumb_func
 112              	block_is_free:
 113              	.LVL8:
 114              	.LFB19:
 396:Drivers/lvgl/src/stdlib/builtin/lv_tlsf.c **** 
 397:Drivers/lvgl/src/stdlib/builtin/lv_tlsf.c **** static int block_is_free(const block_header_t * block)
 398:Drivers/lvgl/src/stdlib/builtin/lv_tlsf.c **** {
 115              		.loc 1 398 1 is_stmt 1 view -0
 116              		.cfi_startproc
 117              		@ args = 0, pretend = 0, frame = 0
 118              		@ frame_needed = 0, uses_anonymous_args = 0
 119              		@ link register save eliminated.
 399:Drivers/lvgl/src/stdlib/builtin/lv_tlsf.c ****     return tlsf_cast(int, block->size & block_header_free_bit);
 120              		.loc 1 399 5 view .LVU18
 121              		.loc 1 399 12 is_stmt 0 view .LVU19
ARM GAS  /var/folders/qx/2_175_4n2s19vhvtspjhb3qh0000gn/T//cccJA90f.s 			page 10


 122 0000 4068     		ldr	r0, [r0, #4]
 123              	.LVL9:
 400:Drivers/lvgl/src/stdlib/builtin/lv_tlsf.c **** }
 124              		.loc 1 400 1 view .LVU20
 125 0002 00F00100 		and	r0, r0, #1
 126 0006 7047     		bx	lr
 127              		.cfi_endproc
 128              	.LFE19:
 130              		.section	.text.block_set_free,"ax",%progbits
 131              		.align	1
 132              		.syntax unified
 133              		.thumb
 134              		.thumb_func
 136              	block_set_free:
 137              	.LVL10:
 138              	.LFB20:
 401:Drivers/lvgl/src/stdlib/builtin/lv_tlsf.c **** 
 402:Drivers/lvgl/src/stdlib/builtin/lv_tlsf.c **** static void block_set_free(block_header_t * block)
 403:Drivers/lvgl/src/stdlib/builtin/lv_tlsf.c **** {
 139              		.loc 1 403 1 is_stmt 1 view -0
 140              		.cfi_startproc
 141              		@ args = 0, pretend = 0, frame = 0
 142              		@ frame_needed = 0, uses_anonymous_args = 0
 143              		@ link register save eliminated.
 404:Drivers/lvgl/src/stdlib/builtin/lv_tlsf.c ****     block->size |= block_header_free_bit;
 144              		.loc 1 404 5 view .LVU22
 145              		.loc 1 404 10 is_stmt 0 view .LVU23
 146 0000 4368     		ldr	r3, [r0, #4]
 147              		.loc 1 404 17 view .LVU24
 148 0002 43F00103 		orr	r3, r3, #1
 149 0006 4360     		str	r3, [r0, #4]
 405:Drivers/lvgl/src/stdlib/builtin/lv_tlsf.c **** }
 150              		.loc 1 405 1 view .LVU25
 151 0008 7047     		bx	lr
 152              		.cfi_endproc
 153              	.LFE20:
 155              		.section	.text.block_set_used,"ax",%progbits
 156              		.align	1
 157              		.syntax unified
 158              		.thumb
 159              		.thumb_func
 161              	block_set_used:
 162              	.LVL11:
 163              	.LFB21:
 406:Drivers/lvgl/src/stdlib/builtin/lv_tlsf.c **** 
 407:Drivers/lvgl/src/stdlib/builtin/lv_tlsf.c **** static void block_set_used(block_header_t * block)
 408:Drivers/lvgl/src/stdlib/builtin/lv_tlsf.c **** {
 164              		.loc 1 408 1 is_stmt 1 view -0
 165              		.cfi_startproc
 166              		@ args = 0, pretend = 0, frame = 0
 167              		@ frame_needed = 0, uses_anonymous_args = 0
 168              		@ link register save eliminated.
 409:Drivers/lvgl/src/stdlib/builtin/lv_tlsf.c ****     block->size &= ~block_header_free_bit;
 169              		.loc 1 409 5 view .LVU27
 170              		.loc 1 409 10 is_stmt 0 view .LVU28
 171 0000 4368     		ldr	r3, [r0, #4]
 172              		.loc 1 409 17 view .LVU29
ARM GAS  /var/folders/qx/2_175_4n2s19vhvtspjhb3qh0000gn/T//cccJA90f.s 			page 11


 173 0002 23F00103 		bic	r3, r3, #1
 174 0006 4360     		str	r3, [r0, #4]
 410:Drivers/lvgl/src/stdlib/builtin/lv_tlsf.c **** }
 175              		.loc 1 410 1 view .LVU30
 176 0008 7047     		bx	lr
 177              		.cfi_endproc
 178              	.LFE21:
 180              		.section	.text.block_is_prev_free,"ax",%progbits
 181              		.align	1
 182              		.syntax unified
 183              		.thumb
 184              		.thumb_func
 186              	block_is_prev_free:
 187              	.LVL12:
 188              	.LFB22:
 411:Drivers/lvgl/src/stdlib/builtin/lv_tlsf.c **** 
 412:Drivers/lvgl/src/stdlib/builtin/lv_tlsf.c **** static int block_is_prev_free(const block_header_t * block)
 413:Drivers/lvgl/src/stdlib/builtin/lv_tlsf.c **** {
 189              		.loc 1 413 1 is_stmt 1 view -0
 190              		.cfi_startproc
 191              		@ args = 0, pretend = 0, frame = 0
 192              		@ frame_needed = 0, uses_anonymous_args = 0
 193              		@ link register save eliminated.
 414:Drivers/lvgl/src/stdlib/builtin/lv_tlsf.c ****     return tlsf_cast(int, block->size & block_header_prev_free_bit);
 194              		.loc 1 414 5 view .LVU32
 195              		.loc 1 414 12 is_stmt 0 view .LVU33
 196 0000 4068     		ldr	r0, [r0, #4]
 197              	.LVL13:
 415:Drivers/lvgl/src/stdlib/builtin/lv_tlsf.c **** }
 198              		.loc 1 415 1 view .LVU34
 199 0002 00F00200 		and	r0, r0, #2
 200 0006 7047     		bx	lr
 201              		.cfi_endproc
 202              	.LFE22:
 204              		.section	.text.block_set_prev_free,"ax",%progbits
 205              		.align	1
 206              		.syntax unified
 207              		.thumb
 208              		.thumb_func
 210              	block_set_prev_free:
 211              	.LVL14:
 212              	.LFB23:
 416:Drivers/lvgl/src/stdlib/builtin/lv_tlsf.c **** 
 417:Drivers/lvgl/src/stdlib/builtin/lv_tlsf.c **** static void block_set_prev_free(block_header_t * block)
 418:Drivers/lvgl/src/stdlib/builtin/lv_tlsf.c **** {
 213              		.loc 1 418 1 is_stmt 1 view -0
 214              		.cfi_startproc
 215              		@ args = 0, pretend = 0, frame = 0
 216              		@ frame_needed = 0, uses_anonymous_args = 0
 217              		@ link register save eliminated.
 419:Drivers/lvgl/src/stdlib/builtin/lv_tlsf.c ****     block->size |= block_header_prev_free_bit;
 218              		.loc 1 419 5 view .LVU36
 219              		.loc 1 419 10 is_stmt 0 view .LVU37
 220 0000 4368     		ldr	r3, [r0, #4]
 221              		.loc 1 419 17 view .LVU38
 222 0002 43F00203 		orr	r3, r3, #2
 223 0006 4360     		str	r3, [r0, #4]
ARM GAS  /var/folders/qx/2_175_4n2s19vhvtspjhb3qh0000gn/T//cccJA90f.s 			page 12


 420:Drivers/lvgl/src/stdlib/builtin/lv_tlsf.c **** }
 224              		.loc 1 420 1 view .LVU39
 225 0008 7047     		bx	lr
 226              		.cfi_endproc
 227              	.LFE23:
 229              		.section	.text.block_set_prev_used,"ax",%progbits
 230              		.align	1
 231              		.syntax unified
 232              		.thumb
 233              		.thumb_func
 235              	block_set_prev_used:
 236              	.LVL15:
 237              	.LFB24:
 421:Drivers/lvgl/src/stdlib/builtin/lv_tlsf.c **** 
 422:Drivers/lvgl/src/stdlib/builtin/lv_tlsf.c **** static void block_set_prev_used(block_header_t * block)
 423:Drivers/lvgl/src/stdlib/builtin/lv_tlsf.c **** {
 238              		.loc 1 423 1 is_stmt 1 view -0
 239              		.cfi_startproc
 240              		@ args = 0, pretend = 0, frame = 0
 241              		@ frame_needed = 0, uses_anonymous_args = 0
 242              		@ link register save eliminated.
 424:Drivers/lvgl/src/stdlib/builtin/lv_tlsf.c ****     block->size &= ~block_header_prev_free_bit;
 243              		.loc 1 424 5 view .LVU41
 244              		.loc 1 424 10 is_stmt 0 view .LVU42
 245 0000 4368     		ldr	r3, [r0, #4]
 246              		.loc 1 424 17 view .LVU43
 247 0002 23F00203 		bic	r3, r3, #2
 248 0006 4360     		str	r3, [r0, #4]
 425:Drivers/lvgl/src/stdlib/builtin/lv_tlsf.c **** }
 249              		.loc 1 425 1 view .LVU44
 250 0008 7047     		bx	lr
 251              		.cfi_endproc
 252              	.LFE24:
 254              		.section	.text.block_from_ptr,"ax",%progbits
 255              		.align	1
 256              		.syntax unified
 257              		.thumb
 258              		.thumb_func
 260              	block_from_ptr:
 261              	.LVL16:
 262              	.LFB25:
 426:Drivers/lvgl/src/stdlib/builtin/lv_tlsf.c **** 
 427:Drivers/lvgl/src/stdlib/builtin/lv_tlsf.c **** static block_header_t * block_from_ptr(const void * ptr)
 428:Drivers/lvgl/src/stdlib/builtin/lv_tlsf.c **** {
 263              		.loc 1 428 1 is_stmt 1 view -0
 264              		.cfi_startproc
 265              		@ args = 0, pretend = 0, frame = 0
 266              		@ frame_needed = 0, uses_anonymous_args = 0
 267              		@ link register save eliminated.
 429:Drivers/lvgl/src/stdlib/builtin/lv_tlsf.c ****     return tlsf_cast(block_header_t *,
 268              		.loc 1 429 5 view .LVU46
 430:Drivers/lvgl/src/stdlib/builtin/lv_tlsf.c ****                      tlsf_cast(unsigned char *, ptr) - block_start_offset);
 431:Drivers/lvgl/src/stdlib/builtin/lv_tlsf.c **** }
 269              		.loc 1 431 1 is_stmt 0 view .LVU47
 270 0000 0838     		subs	r0, r0, #8
 271              	.LVL17:
 272              		.loc 1 431 1 view .LVU48
ARM GAS  /var/folders/qx/2_175_4n2s19vhvtspjhb3qh0000gn/T//cccJA90f.s 			page 13


 273 0002 7047     		bx	lr
 274              		.cfi_endproc
 275              	.LFE25:
 277              		.section	.text.block_to_ptr,"ax",%progbits
 278              		.align	1
 279              		.syntax unified
 280              		.thumb
 281              		.thumb_func
 283              	block_to_ptr:
 284              	.LVL18:
 285              	.LFB26:
 432:Drivers/lvgl/src/stdlib/builtin/lv_tlsf.c **** 
 433:Drivers/lvgl/src/stdlib/builtin/lv_tlsf.c **** static void * block_to_ptr(const block_header_t * block)
 434:Drivers/lvgl/src/stdlib/builtin/lv_tlsf.c **** {
 286              		.loc 1 434 1 is_stmt 1 view -0
 287              		.cfi_startproc
 288              		@ args = 0, pretend = 0, frame = 0
 289              		@ frame_needed = 0, uses_anonymous_args = 0
 290              		@ link register save eliminated.
 435:Drivers/lvgl/src/stdlib/builtin/lv_tlsf.c ****     return tlsf_cast(void *,
 291              		.loc 1 435 5 view .LVU50
 436:Drivers/lvgl/src/stdlib/builtin/lv_tlsf.c ****                      tlsf_cast(unsigned char *, block) + block_start_offset);
 437:Drivers/lvgl/src/stdlib/builtin/lv_tlsf.c **** }
 292              		.loc 1 437 1 is_stmt 0 view .LVU51
 293 0000 0830     		adds	r0, r0, #8
 294              	.LVL19:
 295              		.loc 1 437 1 view .LVU52
 296 0002 7047     		bx	lr
 297              		.cfi_endproc
 298              	.LFE26:
 300              		.section	.text.offset_to_block,"ax",%progbits
 301              		.align	1
 302              		.syntax unified
 303              		.thumb
 304              		.thumb_func
 306              	offset_to_block:
 307              	.LVL20:
 308              	.LFB27:
 438:Drivers/lvgl/src/stdlib/builtin/lv_tlsf.c **** 
 439:Drivers/lvgl/src/stdlib/builtin/lv_tlsf.c **** /* Return location of next block after block of given size. */
 440:Drivers/lvgl/src/stdlib/builtin/lv_tlsf.c **** static block_header_t * offset_to_block(const void * ptr, size_t size)
 441:Drivers/lvgl/src/stdlib/builtin/lv_tlsf.c **** {
 309              		.loc 1 441 1 is_stmt 1 view -0
 310              		.cfi_startproc
 311              		@ args = 0, pretend = 0, frame = 0
 312              		@ frame_needed = 0, uses_anonymous_args = 0
 313              		@ link register save eliminated.
 442:Drivers/lvgl/src/stdlib/builtin/lv_tlsf.c ****     return tlsf_cast(block_header_t *, tlsf_cast(tlsfptr_t, ptr) + size);
 314              		.loc 1 442 5 view .LVU54
 443:Drivers/lvgl/src/stdlib/builtin/lv_tlsf.c **** }
 315              		.loc 1 443 1 is_stmt 0 view .LVU55
 316 0000 0844     		add	r0, r0, r1
 317              	.LVL21:
 318              		.loc 1 443 1 view .LVU56
 319 0002 7047     		bx	lr
 320              		.cfi_endproc
 321              	.LFE27:
ARM GAS  /var/folders/qx/2_175_4n2s19vhvtspjhb3qh0000gn/T//cccJA90f.s 			page 14


 323              		.section	.text.block_prev,"ax",%progbits
 324              		.align	1
 325              		.syntax unified
 326              		.thumb
 327              		.thumb_func
 329              	block_prev:
 330              	.LVL22:
 331              	.LFB28:
 444:Drivers/lvgl/src/stdlib/builtin/lv_tlsf.c **** 
 445:Drivers/lvgl/src/stdlib/builtin/lv_tlsf.c **** /* Return location of previous block. */
 446:Drivers/lvgl/src/stdlib/builtin/lv_tlsf.c **** static block_header_t * block_prev(const block_header_t * block)
 447:Drivers/lvgl/src/stdlib/builtin/lv_tlsf.c **** {
 332              		.loc 1 447 1 is_stmt 1 view -0
 333              		.cfi_startproc
 334              		@ args = 0, pretend = 0, frame = 0
 335              		@ frame_needed = 0, uses_anonymous_args = 0
 336              		.loc 1 447 1 is_stmt 0 view .LVU58
 337 0000 10B5     		push	{r4, lr}
 338              	.LCFI1:
 339              		.cfi_def_cfa_offset 8
 340              		.cfi_offset 4, -8
 341              		.cfi_offset 14, -4
 342 0002 0446     		mov	r4, r0
 448:Drivers/lvgl/src/stdlib/builtin/lv_tlsf.c ****     tlsf_assert(block_is_prev_free(block) && "previous block must be free");
 343              		.loc 1 448 5 is_stmt 1 view .LVU59
 344              		.loc 1 448 5 view .LVU60
 345 0004 FFF7FEFF 		bl	block_is_prev_free
 346              	.LVL23:
 347              		.loc 1 448 5 is_stmt 0 discriminator 1 view .LVU61
 348 0008 00B9     		cbnz	r0, .L15
 349              	.L16:
 350              		.loc 1 448 5 is_stmt 1 view .LVU62
 351              		.loc 1 448 5 view .LVU63
 352              		.loc 1 448 5 view .LVU64
 353              		.loc 1 448 5 view .LVU65
 354              		.loc 1 448 5 view .LVU66
 355 000a FEE7     		b	.L16
 356              	.L15:
 357              		.loc 1 448 5 view .LVU67
 449:Drivers/lvgl/src/stdlib/builtin/lv_tlsf.c ****     return block->prev_phys_block;
 358              		.loc 1 449 5 view .LVU68
 450:Drivers/lvgl/src/stdlib/builtin/lv_tlsf.c **** }
 359              		.loc 1 450 1 is_stmt 0 view .LVU69
 360 000c 2068     		ldr	r0, [r4]
 361 000e 10BD     		pop	{r4, pc}
 362              		.loc 1 450 1 view .LVU70
 363              		.cfi_endproc
 364              	.LFE28:
 366              		.section	.text.block_next,"ax",%progbits
 367              		.align	1
 368              		.syntax unified
 369              		.thumb
 370              		.thumb_func
 372              	block_next:
 373              	.LVL24:
 374              	.LFB29:
 451:Drivers/lvgl/src/stdlib/builtin/lv_tlsf.c **** 
ARM GAS  /var/folders/qx/2_175_4n2s19vhvtspjhb3qh0000gn/T//cccJA90f.s 			page 15


 452:Drivers/lvgl/src/stdlib/builtin/lv_tlsf.c **** /* Return location of next existing block. */
 453:Drivers/lvgl/src/stdlib/builtin/lv_tlsf.c **** static block_header_t * block_next(const block_header_t * block)
 454:Drivers/lvgl/src/stdlib/builtin/lv_tlsf.c **** {
 375              		.loc 1 454 1 is_stmt 1 view -0
 376              		.cfi_startproc
 377              		@ args = 0, pretend = 0, frame = 0
 378              		@ frame_needed = 0, uses_anonymous_args = 0
 379              		.loc 1 454 1 is_stmt 0 view .LVU72
 380 0000 38B5     		push	{r3, r4, r5, lr}
 381              	.LCFI2:
 382              		.cfi_def_cfa_offset 16
 383              		.cfi_offset 3, -16
 384              		.cfi_offset 4, -12
 385              		.cfi_offset 5, -8
 386              		.cfi_offset 14, -4
 387 0002 0446     		mov	r4, r0
 455:Drivers/lvgl/src/stdlib/builtin/lv_tlsf.c ****     block_header_t * next = offset_to_block(block_to_ptr(block),
 388              		.loc 1 455 5 is_stmt 1 view .LVU73
 389              		.loc 1 455 45 is_stmt 0 view .LVU74
 390 0004 FFF7FEFF 		bl	block_to_ptr
 391              	.LVL25:
 392              		.loc 1 455 45 view .LVU75
 393 0008 0546     		mov	r5, r0
 456:Drivers/lvgl/src/stdlib/builtin/lv_tlsf.c ****                                             block_size(block) - block_header_overhead);
 394              		.loc 1 456 45 view .LVU76
 395 000a 2046     		mov	r0, r4
 396 000c FFF7FEFF 		bl	block_size
 397              	.LVL26:
 455:Drivers/lvgl/src/stdlib/builtin/lv_tlsf.c ****     block_header_t * next = offset_to_block(block_to_ptr(block),
 398              		.loc 1 455 29 view .LVU77
 399 0010 011F     		subs	r1, r0, #4
 400 0012 2846     		mov	r0, r5
 401 0014 FFF7FEFF 		bl	offset_to_block
 402              	.LVL27:
 403 0018 0546     		mov	r5, r0
 404              	.LVL28:
 457:Drivers/lvgl/src/stdlib/builtin/lv_tlsf.c ****     tlsf_assert(!block_is_last(block));
 405              		.loc 1 457 5 is_stmt 1 view .LVU78
 406              		.loc 1 457 5 view .LVU79
 407 001a 2046     		mov	r0, r4
 408              	.LVL29:
 409              		.loc 1 457 5 is_stmt 0 view .LVU80
 410 001c FFF7FEFF 		bl	block_is_last
 411              	.LVL30:
 412              		.loc 1 457 5 discriminator 1 view .LVU81
 413 0020 00B1     		cbz	r0, .L18
 414              	.L20:
 415              		.loc 1 457 5 is_stmt 1 view .LVU82
 416              		.loc 1 457 5 view .LVU83
 417              		.loc 1 457 5 view .LVU84
 418              		.loc 1 457 5 view .LVU85
 419              		.loc 1 457 5 view .LVU86
 420 0022 FEE7     		b	.L20
 421              	.L18:
 458:Drivers/lvgl/src/stdlib/builtin/lv_tlsf.c ****     return next;
 459:Drivers/lvgl/src/stdlib/builtin/lv_tlsf.c **** }
 422              		.loc 1 459 1 is_stmt 0 view .LVU87
ARM GAS  /var/folders/qx/2_175_4n2s19vhvtspjhb3qh0000gn/T//cccJA90f.s 			page 16


 423 0024 2846     		mov	r0, r5
 424 0026 38BD     		pop	{r3, r4, r5, pc}
 425              		.loc 1 459 1 view .LVU88
 426              		.cfi_endproc
 427              	.LFE29:
 429              		.section	.text.block_link_next,"ax",%progbits
 430              		.align	1
 431              		.syntax unified
 432              		.thumb
 433              		.thumb_func
 435              	block_link_next:
 436              	.LVL31:
 437              	.LFB30:
 460:Drivers/lvgl/src/stdlib/builtin/lv_tlsf.c **** 
 461:Drivers/lvgl/src/stdlib/builtin/lv_tlsf.c **** /* Link a new block with its physical neighbor, return the neighbor. */
 462:Drivers/lvgl/src/stdlib/builtin/lv_tlsf.c **** static block_header_t * block_link_next(block_header_t * block)
 463:Drivers/lvgl/src/stdlib/builtin/lv_tlsf.c **** {
 438              		.loc 1 463 1 is_stmt 1 view -0
 439              		.cfi_startproc
 440              		@ args = 0, pretend = 0, frame = 0
 441              		@ frame_needed = 0, uses_anonymous_args = 0
 442              		.loc 1 463 1 is_stmt 0 view .LVU90
 443 0000 10B5     		push	{r4, lr}
 444              	.LCFI3:
 445              		.cfi_def_cfa_offset 8
 446              		.cfi_offset 4, -8
 447              		.cfi_offset 14, -4
 448 0002 0446     		mov	r4, r0
 464:Drivers/lvgl/src/stdlib/builtin/lv_tlsf.c ****     block_header_t * next = block_next(block);
 449              		.loc 1 464 5 is_stmt 1 view .LVU91
 450              		.loc 1 464 29 is_stmt 0 view .LVU92
 451 0004 FFF7FEFF 		bl	block_next
 452              	.LVL32:
 465:Drivers/lvgl/src/stdlib/builtin/lv_tlsf.c ****     next->prev_phys_block = block;
 453              		.loc 1 465 5 is_stmt 1 view .LVU93
 454              		.loc 1 465 27 is_stmt 0 view .LVU94
 455 0008 0460     		str	r4, [r0]
 466:Drivers/lvgl/src/stdlib/builtin/lv_tlsf.c ****     return next;
 456              		.loc 1 466 5 is_stmt 1 view .LVU95
 467:Drivers/lvgl/src/stdlib/builtin/lv_tlsf.c **** }
 457              		.loc 1 467 1 is_stmt 0 view .LVU96
 458 000a 10BD     		pop	{r4, pc}
 459              		.loc 1 467 1 view .LVU97
 460              		.cfi_endproc
 461              	.LFE30:
 463              		.section	.text.block_mark_as_free,"ax",%progbits
 464              		.align	1
 465              		.syntax unified
 466              		.thumb
 467              		.thumb_func
 469              	block_mark_as_free:
 470              	.LVL33:
 471              	.LFB31:
 468:Drivers/lvgl/src/stdlib/builtin/lv_tlsf.c **** 
 469:Drivers/lvgl/src/stdlib/builtin/lv_tlsf.c **** static void block_mark_as_free(block_header_t * block)
 470:Drivers/lvgl/src/stdlib/builtin/lv_tlsf.c **** {
 472              		.loc 1 470 1 is_stmt 1 view -0
ARM GAS  /var/folders/qx/2_175_4n2s19vhvtspjhb3qh0000gn/T//cccJA90f.s 			page 17


 473              		.cfi_startproc
 474              		@ args = 0, pretend = 0, frame = 0
 475              		@ frame_needed = 0, uses_anonymous_args = 0
 476              		.loc 1 470 1 is_stmt 0 view .LVU99
 477 0000 10B5     		push	{r4, lr}
 478              	.LCFI4:
 479              		.cfi_def_cfa_offset 8
 480              		.cfi_offset 4, -8
 481              		.cfi_offset 14, -4
 482 0002 0446     		mov	r4, r0
 471:Drivers/lvgl/src/stdlib/builtin/lv_tlsf.c ****     /* Link the block to the next block, first. */
 472:Drivers/lvgl/src/stdlib/builtin/lv_tlsf.c ****     block_header_t * next = block_link_next(block);
 483              		.loc 1 472 5 is_stmt 1 view .LVU100
 484              		.loc 1 472 29 is_stmt 0 view .LVU101
 485 0004 FFF7FEFF 		bl	block_link_next
 486              	.LVL34:
 473:Drivers/lvgl/src/stdlib/builtin/lv_tlsf.c ****     block_set_prev_free(next);
 487              		.loc 1 473 5 is_stmt 1 view .LVU102
 488 0008 FFF7FEFF 		bl	block_set_prev_free
 489              	.LVL35:
 474:Drivers/lvgl/src/stdlib/builtin/lv_tlsf.c ****     block_set_free(block);
 490              		.loc 1 474 5 view .LVU103
 491 000c 2046     		mov	r0, r4
 492 000e FFF7FEFF 		bl	block_set_free
 493              	.LVL36:
 475:Drivers/lvgl/src/stdlib/builtin/lv_tlsf.c **** }
 494              		.loc 1 475 1 is_stmt 0 view .LVU104
 495 0012 10BD     		pop	{r4, pc}
 496              		.loc 1 475 1 view .LVU105
 497              		.cfi_endproc
 498              	.LFE31:
 500              		.section	.text.block_mark_as_used,"ax",%progbits
 501              		.align	1
 502              		.syntax unified
 503              		.thumb
 504              		.thumb_func
 506              	block_mark_as_used:
 507              	.LVL37:
 508              	.LFB32:
 476:Drivers/lvgl/src/stdlib/builtin/lv_tlsf.c **** 
 477:Drivers/lvgl/src/stdlib/builtin/lv_tlsf.c **** static void block_mark_as_used(block_header_t * block)
 478:Drivers/lvgl/src/stdlib/builtin/lv_tlsf.c **** {
 509              		.loc 1 478 1 is_stmt 1 view -0
 510              		.cfi_startproc
 511              		@ args = 0, pretend = 0, frame = 0
 512              		@ frame_needed = 0, uses_anonymous_args = 0
 513              		.loc 1 478 1 is_stmt 0 view .LVU107
 514 0000 10B5     		push	{r4, lr}
 515              	.LCFI5:
 516              		.cfi_def_cfa_offset 8
 517              		.cfi_offset 4, -8
 518              		.cfi_offset 14, -4
 519 0002 0446     		mov	r4, r0
 479:Drivers/lvgl/src/stdlib/builtin/lv_tlsf.c ****     block_header_t * next = block_next(block);
 520              		.loc 1 479 5 is_stmt 1 view .LVU108
 521              		.loc 1 479 29 is_stmt 0 view .LVU109
 522 0004 FFF7FEFF 		bl	block_next
ARM GAS  /var/folders/qx/2_175_4n2s19vhvtspjhb3qh0000gn/T//cccJA90f.s 			page 18


 523              	.LVL38:
 480:Drivers/lvgl/src/stdlib/builtin/lv_tlsf.c ****     block_set_prev_used(next);
 524              		.loc 1 480 5 is_stmt 1 view .LVU110
 525 0008 FFF7FEFF 		bl	block_set_prev_used
 526              	.LVL39:
 481:Drivers/lvgl/src/stdlib/builtin/lv_tlsf.c ****     block_set_used(block);
 527              		.loc 1 481 5 view .LVU111
 528 000c 2046     		mov	r0, r4
 529 000e FFF7FEFF 		bl	block_set_used
 530              	.LVL40:
 482:Drivers/lvgl/src/stdlib/builtin/lv_tlsf.c **** }
 531              		.loc 1 482 1 is_stmt 0 view .LVU112
 532 0012 10BD     		pop	{r4, pc}
 533              		.loc 1 482 1 view .LVU113
 534              		.cfi_endproc
 535              	.LFE32:
 537              		.section	.text.align_up,"ax",%progbits
 538              		.align	1
 539              		.syntax unified
 540              		.thumb
 541              		.thumb_func
 543              	align_up:
 544              	.LVL41:
 545              	.LFB33:
 483:Drivers/lvgl/src/stdlib/builtin/lv_tlsf.c **** 
 484:Drivers/lvgl/src/stdlib/builtin/lv_tlsf.c **** static size_t align_up(size_t x, size_t align)
 485:Drivers/lvgl/src/stdlib/builtin/lv_tlsf.c **** {
 546              		.loc 1 485 1 is_stmt 1 view -0
 547              		.cfi_startproc
 548              		@ args = 0, pretend = 0, frame = 0
 549              		@ frame_needed = 0, uses_anonymous_args = 0
 550              		@ link register save eliminated.
 486:Drivers/lvgl/src/stdlib/builtin/lv_tlsf.c ****     tlsf_assert(0 == (align & (align - 1)) && "must align to a power of two");
 551              		.loc 1 486 5 view .LVU115
 552              		.loc 1 486 5 view .LVU116
 553 0000 4B1E     		subs	r3, r1, #1
 554 0002 0B42     		tst	r3, r1
 555 0004 00D0     		beq	.L29
 556              	.L30:
 557              		.loc 1 486 5 view .LVU117
 558              		.loc 1 486 5 view .LVU118
 559              		.loc 1 486 5 view .LVU119
 560              		.loc 1 486 5 view .LVU120
 561              		.loc 1 486 5 view .LVU121
 562 0006 FEE7     		b	.L30
 563              	.L29:
 564              		.loc 1 486 5 view .LVU122
 487:Drivers/lvgl/src/stdlib/builtin/lv_tlsf.c ****     return (x + (align - 1)) & ~(align - 1);
 565              		.loc 1 487 5 view .LVU123
 566              		.loc 1 487 15 is_stmt 0 view .LVU124
 567 0008 0844     		add	r0, r0, r1
 568              	.LVL42:
 569              		.loc 1 487 15 view .LVU125
 570 000a 0138     		subs	r0, r0, #1
 571              		.loc 1 487 32 view .LVU126
 572 000c 4942     		rsbs	r1, r1, #0
 573              	.LVL43:
ARM GAS  /var/folders/qx/2_175_4n2s19vhvtspjhb3qh0000gn/T//cccJA90f.s 			page 19


 488:Drivers/lvgl/src/stdlib/builtin/lv_tlsf.c **** }
 574              		.loc 1 488 1 view .LVU127
 575 000e 0840     		ands	r0, r0, r1
 576 0010 7047     		bx	lr
 577              		.cfi_endproc
 578              	.LFE33:
 580              		.section	.text.align_down,"ax",%progbits
 581              		.align	1
 582              		.syntax unified
 583              		.thumb
 584              		.thumb_func
 586              	align_down:
 587              	.LVL44:
 588              	.LFB34:
 489:Drivers/lvgl/src/stdlib/builtin/lv_tlsf.c **** 
 490:Drivers/lvgl/src/stdlib/builtin/lv_tlsf.c **** static size_t align_down(size_t x, size_t align)
 491:Drivers/lvgl/src/stdlib/builtin/lv_tlsf.c **** {
 589              		.loc 1 491 1 is_stmt 1 view -0
 590              		.cfi_startproc
 591              		@ args = 0, pretend = 0, frame = 0
 592              		@ frame_needed = 0, uses_anonymous_args = 0
 593              		@ link register save eliminated.
 492:Drivers/lvgl/src/stdlib/builtin/lv_tlsf.c ****     tlsf_assert(0 == (align & (align - 1)) && "must align to a power of two");
 594              		.loc 1 492 5 view .LVU129
 595              		.loc 1 492 5 view .LVU130
 596 0000 4B1E     		subs	r3, r1, #1
 597 0002 0B42     		tst	r3, r1
 598 0004 00D0     		beq	.L32
 599              	.L33:
 600              		.loc 1 492 5 view .LVU131
 601              		.loc 1 492 5 view .LVU132
 602              		.loc 1 492 5 view .LVU133
 603              		.loc 1 492 5 view .LVU134
 604              		.loc 1 492 5 view .LVU135
 605 0006 FEE7     		b	.L33
 606              	.L32:
 607              		.loc 1 492 5 view .LVU136
 493:Drivers/lvgl/src/stdlib/builtin/lv_tlsf.c ****     return x - (x & (align - 1));
 608              		.loc 1 493 5 view .LVU137
 609              		.loc 1 493 14 is_stmt 0 view .LVU138
 610 0008 4942     		rsbs	r1, r1, #0
 611              	.LVL45:
 494:Drivers/lvgl/src/stdlib/builtin/lv_tlsf.c **** }
 612              		.loc 1 494 1 view .LVU139
 613 000a 0840     		ands	r0, r0, r1
 614              	.LVL46:
 615              		.loc 1 494 1 view .LVU140
 616 000c 7047     		bx	lr
 617              		.cfi_endproc
 618              	.LFE34:
 620              		.section	.text.align_ptr,"ax",%progbits
 621              		.align	1
 622              		.syntax unified
 623              		.thumb
 624              		.thumb_func
 626              	align_ptr:
 627              	.LVL47:
ARM GAS  /var/folders/qx/2_175_4n2s19vhvtspjhb3qh0000gn/T//cccJA90f.s 			page 20


 628              	.LFB35:
 495:Drivers/lvgl/src/stdlib/builtin/lv_tlsf.c **** 
 496:Drivers/lvgl/src/stdlib/builtin/lv_tlsf.c **** static void * align_ptr(const void * ptr, size_t align)
 497:Drivers/lvgl/src/stdlib/builtin/lv_tlsf.c **** {
 629              		.loc 1 497 1 is_stmt 1 view -0
 630              		.cfi_startproc
 631              		@ args = 0, pretend = 0, frame = 0
 632              		@ frame_needed = 0, uses_anonymous_args = 0
 633              		@ link register save eliminated.
 498:Drivers/lvgl/src/stdlib/builtin/lv_tlsf.c ****     const tlsfptr_t aligned =
 634              		.loc 1 498 5 view .LVU142
 499:Drivers/lvgl/src/stdlib/builtin/lv_tlsf.c ****         (tlsf_cast(tlsfptr_t, ptr) + (align - 1)) & ~(align - 1);
 635              		.loc 1 499 36 is_stmt 0 view .LVU143
 636 0000 0844     		add	r0, r0, r1
 637              	.LVL48:
 638              		.loc 1 499 36 view .LVU144
 639 0002 0138     		subs	r0, r0, #1
 640              		.loc 1 499 53 view .LVU145
 641 0004 4B42     		rsbs	r3, r1, #0
 642              		.loc 1 499 51 view .LVU146
 643 0006 1840     		ands	r0, r0, r3
 644              	.LVL49:
 500:Drivers/lvgl/src/stdlib/builtin/lv_tlsf.c ****     tlsf_assert(0 == (align & (align - 1)) && "must align to a power of two");
 645              		.loc 1 500 5 is_stmt 1 view .LVU147
 646              		.loc 1 500 5 view .LVU148
 647 0008 4B1E     		subs	r3, r1, #1
 648 000a 0B42     		tst	r3, r1
 649 000c 00D0     		beq	.L35
 650              	.L36:
 651              		.loc 1 500 5 view .LVU149
 652              		.loc 1 500 5 view .LVU150
 653              		.loc 1 500 5 view .LVU151
 654              		.loc 1 500 5 view .LVU152
 655              		.loc 1 500 5 view .LVU153
 656 000e FEE7     		b	.L36
 657              	.L35:
 658              		.loc 1 500 5 view .LVU154
 501:Drivers/lvgl/src/stdlib/builtin/lv_tlsf.c ****     return tlsf_cast(void *, aligned);
 659              		.loc 1 501 5 view .LVU155
 502:Drivers/lvgl/src/stdlib/builtin/lv_tlsf.c **** }
 660              		.loc 1 502 1 is_stmt 0 view .LVU156
 661 0010 7047     		bx	lr
 662              		.cfi_endproc
 663              	.LFE35:
 665              		.section	.text.adjust_request_size,"ax",%progbits
 666              		.align	1
 667              		.syntax unified
 668              		.thumb
 669              		.thumb_func
 671              	adjust_request_size:
 672              	.LVL50:
 673              	.LFB36:
 503:Drivers/lvgl/src/stdlib/builtin/lv_tlsf.c **** 
 504:Drivers/lvgl/src/stdlib/builtin/lv_tlsf.c **** /*
 505:Drivers/lvgl/src/stdlib/builtin/lv_tlsf.c **** ** Adjust an allocation size to be aligned to word size, and no smaller
 506:Drivers/lvgl/src/stdlib/builtin/lv_tlsf.c **** ** than internal minimum.
 507:Drivers/lvgl/src/stdlib/builtin/lv_tlsf.c **** */
ARM GAS  /var/folders/qx/2_175_4n2s19vhvtspjhb3qh0000gn/T//cccJA90f.s 			page 21


 508:Drivers/lvgl/src/stdlib/builtin/lv_tlsf.c **** static size_t adjust_request_size(size_t size, size_t align)
 509:Drivers/lvgl/src/stdlib/builtin/lv_tlsf.c **** {
 674              		.loc 1 509 1 is_stmt 1 view -0
 675              		.cfi_startproc
 676              		@ args = 0, pretend = 0, frame = 0
 677              		@ frame_needed = 0, uses_anonymous_args = 0
 678              		.loc 1 509 1 is_stmt 0 view .LVU158
 679 0000 08B5     		push	{r3, lr}
 680              	.LCFI6:
 681              		.cfi_def_cfa_offset 8
 682              		.cfi_offset 3, -8
 683              		.cfi_offset 14, -4
 510:Drivers/lvgl/src/stdlib/builtin/lv_tlsf.c ****     size_t adjust = 0;
 684              		.loc 1 510 5 is_stmt 1 view .LVU159
 685              	.LVL51:
 511:Drivers/lvgl/src/stdlib/builtin/lv_tlsf.c ****     if(size) {
 686              		.loc 1 511 5 view .LVU160
 687              		.loc 1 511 7 is_stmt 0 view .LVU161
 688 0002 00B9     		cbnz	r0, .L41
 689              	.LVL52:
 690              	.L38:
 512:Drivers/lvgl/src/stdlib/builtin/lv_tlsf.c ****         const size_t aligned = align_up(size, align);
 513:Drivers/lvgl/src/stdlib/builtin/lv_tlsf.c **** 
 514:Drivers/lvgl/src/stdlib/builtin/lv_tlsf.c ****         /* aligned sized must not exceed block_size_max or we'll go out of bounds on sl_bitmap */
 515:Drivers/lvgl/src/stdlib/builtin/lv_tlsf.c ****         if(aligned < block_size_max) {
 516:Drivers/lvgl/src/stdlib/builtin/lv_tlsf.c ****             adjust = tlsf_max(aligned, block_size_min);
 517:Drivers/lvgl/src/stdlib/builtin/lv_tlsf.c ****         }
 518:Drivers/lvgl/src/stdlib/builtin/lv_tlsf.c ****     }
 519:Drivers/lvgl/src/stdlib/builtin/lv_tlsf.c ****     return adjust;
 691              		.loc 1 519 5 is_stmt 1 view .LVU162
 520:Drivers/lvgl/src/stdlib/builtin/lv_tlsf.c **** }
 692              		.loc 1 520 1 is_stmt 0 view .LVU163
 693 0004 08BD     		pop	{r3, pc}
 694              	.LVL53:
 695              	.L41:
 696              	.LBB2:
 512:Drivers/lvgl/src/stdlib/builtin/lv_tlsf.c ****         const size_t aligned = align_up(size, align);
 697              		.loc 1 512 9 is_stmt 1 view .LVU164
 512:Drivers/lvgl/src/stdlib/builtin/lv_tlsf.c ****         const size_t aligned = align_up(size, align);
 698              		.loc 1 512 32 is_stmt 0 view .LVU165
 699 0006 FFF7FEFF 		bl	align_up
 700              	.LVL54:
 515:Drivers/lvgl/src/stdlib/builtin/lv_tlsf.c ****             adjust = tlsf_max(aligned, block_size_min);
 701              		.loc 1 515 9 is_stmt 1 view .LVU166
 515:Drivers/lvgl/src/stdlib/builtin/lv_tlsf.c ****             adjust = tlsf_max(aligned, block_size_min);
 702              		.loc 1 515 11 is_stmt 0 view .LVU167
 703 000a B0F5803F 		cmp	r0, #65536
 704 000e 03D2     		bcs	.L39
 516:Drivers/lvgl/src/stdlib/builtin/lv_tlsf.c ****         }
 705              		.loc 1 516 13 is_stmt 1 view .LVU168
 516:Drivers/lvgl/src/stdlib/builtin/lv_tlsf.c ****         }
 706              		.loc 1 516 20 is_stmt 0 view .LVU169
 707 0010 0C28     		cmp	r0, #12
 708 0012 38BF     		it	cc
 709 0014 0C20     		movcc	r0, #12
 710              	.LVL55:
 516:Drivers/lvgl/src/stdlib/builtin/lv_tlsf.c ****         }
ARM GAS  /var/folders/qx/2_175_4n2s19vhvtspjhb3qh0000gn/T//cccJA90f.s 			page 22


 711              		.loc 1 516 20 view .LVU170
 712 0016 F5E7     		b	.L38
 713              	.LVL56:
 714              	.L39:
 516:Drivers/lvgl/src/stdlib/builtin/lv_tlsf.c ****         }
 715              		.loc 1 516 20 view .LVU171
 716              	.LBE2:
 510:Drivers/lvgl/src/stdlib/builtin/lv_tlsf.c ****     if(size) {
 717              		.loc 1 510 12 view .LVU172
 718 0018 0020     		movs	r0, #0
 719              	.LVL57:
 510:Drivers/lvgl/src/stdlib/builtin/lv_tlsf.c ****     if(size) {
 720              		.loc 1 510 12 view .LVU173
 721 001a F3E7     		b	.L38
 722              		.cfi_endproc
 723              	.LFE36:
 725              		.section	.text.remove_free_block,"ax",%progbits
 726              		.align	1
 727              		.syntax unified
 728              		.thumb
 729              		.thumb_func
 731              	remove_free_block:
 732              	.LVL58:
 733              	.LFB40:
 521:Drivers/lvgl/src/stdlib/builtin/lv_tlsf.c **** 
 522:Drivers/lvgl/src/stdlib/builtin/lv_tlsf.c **** /*
 523:Drivers/lvgl/src/stdlib/builtin/lv_tlsf.c **** ** TLSF utility functions. In most cases, these are direct translations of
 524:Drivers/lvgl/src/stdlib/builtin/lv_tlsf.c **** ** the documentation found in the white paper.
 525:Drivers/lvgl/src/stdlib/builtin/lv_tlsf.c **** */
 526:Drivers/lvgl/src/stdlib/builtin/lv_tlsf.c **** 
 527:Drivers/lvgl/src/stdlib/builtin/lv_tlsf.c **** static void mapping_insert(size_t size, int * fli, int * sli)
 528:Drivers/lvgl/src/stdlib/builtin/lv_tlsf.c **** {
 529:Drivers/lvgl/src/stdlib/builtin/lv_tlsf.c ****     int fl, sl;
 530:Drivers/lvgl/src/stdlib/builtin/lv_tlsf.c ****     if(size < SMALL_BLOCK_SIZE) {
 531:Drivers/lvgl/src/stdlib/builtin/lv_tlsf.c ****         /* Store small blocks in first list. */
 532:Drivers/lvgl/src/stdlib/builtin/lv_tlsf.c ****         fl = 0;
 533:Drivers/lvgl/src/stdlib/builtin/lv_tlsf.c ****         sl = tlsf_cast(int, size) / (SMALL_BLOCK_SIZE / SL_INDEX_COUNT);
 534:Drivers/lvgl/src/stdlib/builtin/lv_tlsf.c ****     }
 535:Drivers/lvgl/src/stdlib/builtin/lv_tlsf.c ****     else {
 536:Drivers/lvgl/src/stdlib/builtin/lv_tlsf.c ****         fl = tlsf_fls_sizet(size);
 537:Drivers/lvgl/src/stdlib/builtin/lv_tlsf.c ****         sl = tlsf_cast(int, size >> (fl - SL_INDEX_COUNT_LOG2)) ^ (1 << SL_INDEX_COUNT_LOG2);
 538:Drivers/lvgl/src/stdlib/builtin/lv_tlsf.c ****         fl -= (FL_INDEX_SHIFT - 1);
 539:Drivers/lvgl/src/stdlib/builtin/lv_tlsf.c ****     }
 540:Drivers/lvgl/src/stdlib/builtin/lv_tlsf.c ****     *fli = fl;
 541:Drivers/lvgl/src/stdlib/builtin/lv_tlsf.c ****     *sli = sl;
 542:Drivers/lvgl/src/stdlib/builtin/lv_tlsf.c **** }
 543:Drivers/lvgl/src/stdlib/builtin/lv_tlsf.c **** 
 544:Drivers/lvgl/src/stdlib/builtin/lv_tlsf.c **** /* This version rounds up to the next block size (for allocations) */
 545:Drivers/lvgl/src/stdlib/builtin/lv_tlsf.c **** static void mapping_search(size_t size, int * fli, int * sli)
 546:Drivers/lvgl/src/stdlib/builtin/lv_tlsf.c **** {
 547:Drivers/lvgl/src/stdlib/builtin/lv_tlsf.c ****     if(size >= SMALL_BLOCK_SIZE) {
 548:Drivers/lvgl/src/stdlib/builtin/lv_tlsf.c ****         const size_t round = (1 << (tlsf_fls_sizet(size) - SL_INDEX_COUNT_LOG2)) - 1;
 549:Drivers/lvgl/src/stdlib/builtin/lv_tlsf.c ****         size += round;
 550:Drivers/lvgl/src/stdlib/builtin/lv_tlsf.c ****     }
 551:Drivers/lvgl/src/stdlib/builtin/lv_tlsf.c ****     mapping_insert(size, fli, sli);
 552:Drivers/lvgl/src/stdlib/builtin/lv_tlsf.c **** }
 553:Drivers/lvgl/src/stdlib/builtin/lv_tlsf.c **** 
ARM GAS  /var/folders/qx/2_175_4n2s19vhvtspjhb3qh0000gn/T//cccJA90f.s 			page 23


 554:Drivers/lvgl/src/stdlib/builtin/lv_tlsf.c **** static block_header_t * search_suitable_block(control_t * control, int * fli, int * sli)
 555:Drivers/lvgl/src/stdlib/builtin/lv_tlsf.c **** {
 556:Drivers/lvgl/src/stdlib/builtin/lv_tlsf.c ****     int fl = *fli;
 557:Drivers/lvgl/src/stdlib/builtin/lv_tlsf.c ****     int sl = *sli;
 558:Drivers/lvgl/src/stdlib/builtin/lv_tlsf.c **** 
 559:Drivers/lvgl/src/stdlib/builtin/lv_tlsf.c ****     /*
 560:Drivers/lvgl/src/stdlib/builtin/lv_tlsf.c ****     ** First, search for a block in the list associated with the given
 561:Drivers/lvgl/src/stdlib/builtin/lv_tlsf.c ****     ** fl/sl index.
 562:Drivers/lvgl/src/stdlib/builtin/lv_tlsf.c ****     */
 563:Drivers/lvgl/src/stdlib/builtin/lv_tlsf.c ****     unsigned int sl_map = control->sl_bitmap[fl] & (~0U << sl);
 564:Drivers/lvgl/src/stdlib/builtin/lv_tlsf.c ****     if(!sl_map) {
 565:Drivers/lvgl/src/stdlib/builtin/lv_tlsf.c ****         /* No block exists. Search in the next largest first-level list. */
 566:Drivers/lvgl/src/stdlib/builtin/lv_tlsf.c ****         const unsigned int fl_map = control->fl_bitmap & (~0U << (fl + 1));
 567:Drivers/lvgl/src/stdlib/builtin/lv_tlsf.c ****         if(!fl_map) {
 568:Drivers/lvgl/src/stdlib/builtin/lv_tlsf.c ****             /* No free blocks available, memory has been exhausted. */
 569:Drivers/lvgl/src/stdlib/builtin/lv_tlsf.c ****             return 0;
 570:Drivers/lvgl/src/stdlib/builtin/lv_tlsf.c ****         }
 571:Drivers/lvgl/src/stdlib/builtin/lv_tlsf.c **** 
 572:Drivers/lvgl/src/stdlib/builtin/lv_tlsf.c ****         fl = tlsf_ffs(fl_map);
 573:Drivers/lvgl/src/stdlib/builtin/lv_tlsf.c ****         *fli = fl;
 574:Drivers/lvgl/src/stdlib/builtin/lv_tlsf.c ****         sl_map = control->sl_bitmap[fl];
 575:Drivers/lvgl/src/stdlib/builtin/lv_tlsf.c ****     }
 576:Drivers/lvgl/src/stdlib/builtin/lv_tlsf.c ****     tlsf_assert(sl_map && "internal error - second level bitmap is null");
 577:Drivers/lvgl/src/stdlib/builtin/lv_tlsf.c ****     sl = tlsf_ffs(sl_map);
 578:Drivers/lvgl/src/stdlib/builtin/lv_tlsf.c ****     *sli = sl;
 579:Drivers/lvgl/src/stdlib/builtin/lv_tlsf.c **** 
 580:Drivers/lvgl/src/stdlib/builtin/lv_tlsf.c ****     /* Return the first block in the free list. */
 581:Drivers/lvgl/src/stdlib/builtin/lv_tlsf.c ****     return control->blocks[fl][sl];
 582:Drivers/lvgl/src/stdlib/builtin/lv_tlsf.c **** }
 583:Drivers/lvgl/src/stdlib/builtin/lv_tlsf.c **** 
 584:Drivers/lvgl/src/stdlib/builtin/lv_tlsf.c **** /* Remove a free block from the free list.*/
 585:Drivers/lvgl/src/stdlib/builtin/lv_tlsf.c **** static void remove_free_block(control_t * control, block_header_t * block, int fl, int sl)
 586:Drivers/lvgl/src/stdlib/builtin/lv_tlsf.c **** {
 734              		.loc 1 586 1 is_stmt 1 view -0
 735              		.cfi_startproc
 736              		@ args = 0, pretend = 0, frame = 0
 737              		@ frame_needed = 0, uses_anonymous_args = 0
 738              		.loc 1 586 1 is_stmt 0 view .LVU175
 739 0000 10B5     		push	{r4, lr}
 740              	.LCFI7:
 741              		.cfi_def_cfa_offset 8
 742              		.cfi_offset 4, -8
 743              		.cfi_offset 14, -4
 744 0002 1446     		mov	r4, r2
 745 0004 9E46     		mov	lr, r3
 587:Drivers/lvgl/src/stdlib/builtin/lv_tlsf.c ****     block_header_t * prev = block->prev_free;
 746              		.loc 1 587 5 is_stmt 1 view .LVU176
 747              		.loc 1 587 22 is_stmt 0 view .LVU177
 748 0006 CB68     		ldr	r3, [r1, #12]
 749              	.LVL59:
 588:Drivers/lvgl/src/stdlib/builtin/lv_tlsf.c ****     block_header_t * next = block->next_free;
 750              		.loc 1 588 5 is_stmt 1 view .LVU178
 751              		.loc 1 588 22 is_stmt 0 view .LVU179
 752 0008 8A68     		ldr	r2, [r1, #8]
 753              	.LVL60:
 589:Drivers/lvgl/src/stdlib/builtin/lv_tlsf.c ****     tlsf_assert(prev && "prev_free field cannot be null");
 754              		.loc 1 589 5 is_stmt 1 view .LVU180
ARM GAS  /var/folders/qx/2_175_4n2s19vhvtspjhb3qh0000gn/T//cccJA90f.s 			page 24


 755              		.loc 1 589 5 view .LVU181
 756 000a 6BB1     		cbz	r3, .L44
 757              		.loc 1 589 5 view .LVU182
 590:Drivers/lvgl/src/stdlib/builtin/lv_tlsf.c ****     tlsf_assert(next && "next_free field cannot be null");
 758              		.loc 1 590 5 view .LVU183
 759              		.loc 1 590 5 view .LVU184
 760 000c 6AB1     		cbz	r2, .L46
 761              		.loc 1 590 5 view .LVU185
 591:Drivers/lvgl/src/stdlib/builtin/lv_tlsf.c ****     next->prev_free = prev;
 762              		.loc 1 591 5 view .LVU186
 763              		.loc 1 591 21 is_stmt 0 view .LVU187
 764 000e D360     		str	r3, [r2, #12]
 592:Drivers/lvgl/src/stdlib/builtin/lv_tlsf.c ****     prev->next_free = next;
 765              		.loc 1 592 5 is_stmt 1 view .LVU188
 766              		.loc 1 592 21 is_stmt 0 view .LVU189
 767 0010 9A60     		str	r2, [r3, #8]
 593:Drivers/lvgl/src/stdlib/builtin/lv_tlsf.c **** 
 594:Drivers/lvgl/src/stdlib/builtin/lv_tlsf.c ****     /* If this block is the head of the free list, set new head. */
 595:Drivers/lvgl/src/stdlib/builtin/lv_tlsf.c ****     if(control->blocks[fl][sl] == block) {
 768              		.loc 1 595 5 is_stmt 1 view .LVU190
 769              		.loc 1 595 27 is_stmt 0 view .LVU191
 770 0012 0EEB441C 		add	ip, lr, r4, lsl #5
 771 0016 0CF10E0C 		add	ip, ip, #14
 772 001a 00EB8C0C 		add	ip, r0, ip, lsl #2
 773 001e DCF80430 		ldr	r3, [ip, #4]
 774              	.LVL61:
 775              		.loc 1 595 7 view .LVU192
 776 0022 8B42     		cmp	r3, r1
 777 0024 02D0     		beq	.L49
 778              	.LVL62:
 779              	.L42:
 596:Drivers/lvgl/src/stdlib/builtin/lv_tlsf.c ****         control->blocks[fl][sl] = next;
 597:Drivers/lvgl/src/stdlib/builtin/lv_tlsf.c **** 
 598:Drivers/lvgl/src/stdlib/builtin/lv_tlsf.c ****         /* If the new head is null, clear the bitmap. */
 599:Drivers/lvgl/src/stdlib/builtin/lv_tlsf.c ****         if(next == &control->block_null) {
 600:Drivers/lvgl/src/stdlib/builtin/lv_tlsf.c ****             control->sl_bitmap[fl] &= ~(1U << sl);
 601:Drivers/lvgl/src/stdlib/builtin/lv_tlsf.c **** 
 602:Drivers/lvgl/src/stdlib/builtin/lv_tlsf.c ****             /* If the second bitmap is now empty, clear the fl bitmap. */
 603:Drivers/lvgl/src/stdlib/builtin/lv_tlsf.c ****             if(!control->sl_bitmap[fl]) {
 604:Drivers/lvgl/src/stdlib/builtin/lv_tlsf.c ****                 control->fl_bitmap &= ~(1U << fl);
 605:Drivers/lvgl/src/stdlib/builtin/lv_tlsf.c ****             }
 606:Drivers/lvgl/src/stdlib/builtin/lv_tlsf.c ****         }
 607:Drivers/lvgl/src/stdlib/builtin/lv_tlsf.c ****     }
 608:Drivers/lvgl/src/stdlib/builtin/lv_tlsf.c **** }
 780              		.loc 1 608 1 view .LVU193
 781 0026 10BD     		pop	{r4, pc}
 782              	.LVL63:
 783              	.L44:
 589:Drivers/lvgl/src/stdlib/builtin/lv_tlsf.c ****     tlsf_assert(next && "next_free field cannot be null");
 784              		.loc 1 589 5 is_stmt 1 view .LVU194
 589:Drivers/lvgl/src/stdlib/builtin/lv_tlsf.c ****     tlsf_assert(next && "next_free field cannot be null");
 785              		.loc 1 589 5 view .LVU195
 589:Drivers/lvgl/src/stdlib/builtin/lv_tlsf.c ****     tlsf_assert(next && "next_free field cannot be null");
 786              		.loc 1 589 5 view .LVU196
 589:Drivers/lvgl/src/stdlib/builtin/lv_tlsf.c ****     tlsf_assert(next && "next_free field cannot be null");
 787              		.loc 1 589 5 view .LVU197
 589:Drivers/lvgl/src/stdlib/builtin/lv_tlsf.c ****     tlsf_assert(next && "next_free field cannot be null");
ARM GAS  /var/folders/qx/2_175_4n2s19vhvtspjhb3qh0000gn/T//cccJA90f.s 			page 25


 788              		.loc 1 589 5 view .LVU198
 789 0028 FEE7     		b	.L44
 790              	.L46:
 590:Drivers/lvgl/src/stdlib/builtin/lv_tlsf.c ****     next->prev_free = prev;
 791              		.loc 1 590 5 view .LVU199
 590:Drivers/lvgl/src/stdlib/builtin/lv_tlsf.c ****     next->prev_free = prev;
 792              		.loc 1 590 5 view .LVU200
 590:Drivers/lvgl/src/stdlib/builtin/lv_tlsf.c ****     next->prev_free = prev;
 793              		.loc 1 590 5 view .LVU201
 590:Drivers/lvgl/src/stdlib/builtin/lv_tlsf.c ****     next->prev_free = prev;
 794              		.loc 1 590 5 view .LVU202
 590:Drivers/lvgl/src/stdlib/builtin/lv_tlsf.c ****     next->prev_free = prev;
 795              		.loc 1 590 5 view .LVU203
 796 002a FEE7     		b	.L46
 797              	.LVL64:
 798              	.L49:
 596:Drivers/lvgl/src/stdlib/builtin/lv_tlsf.c ****         control->blocks[fl][sl] = next;
 799              		.loc 1 596 9 view .LVU204
 596:Drivers/lvgl/src/stdlib/builtin/lv_tlsf.c ****         control->blocks[fl][sl] = next;
 800              		.loc 1 596 33 is_stmt 0 view .LVU205
 801 002c CCF80420 		str	r2, [ip, #4]
 599:Drivers/lvgl/src/stdlib/builtin/lv_tlsf.c ****             control->sl_bitmap[fl] &= ~(1U << sl);
 802              		.loc 1 599 9 is_stmt 1 view .LVU206
 599:Drivers/lvgl/src/stdlib/builtin/lv_tlsf.c ****             control->sl_bitmap[fl] &= ~(1U << sl);
 803              		.loc 1 599 11 is_stmt 0 view .LVU207
 804 0030 9042     		cmp	r0, r2
 805 0032 F8D1     		bne	.L42
 600:Drivers/lvgl/src/stdlib/builtin/lv_tlsf.c **** 
 806              		.loc 1 600 13 is_stmt 1 view .LVU208
 600:Drivers/lvgl/src/stdlib/builtin/lv_tlsf.c **** 
 807              		.loc 1 600 31 is_stmt 0 view .LVU209
 808 0034 221D     		adds	r2, r4, #4
 809              	.LVL65:
 600:Drivers/lvgl/src/stdlib/builtin/lv_tlsf.c **** 
 810              		.loc 1 600 31 view .LVU210
 811 0036 00EB8202 		add	r2, r0, r2, lsl #2
 812 003a 5368     		ldr	r3, [r2, #4]
 600:Drivers/lvgl/src/stdlib/builtin/lv_tlsf.c **** 
 813              		.loc 1 600 44 view .LVU211
 814 003c 0121     		movs	r1, #1
 815              	.LVL66:
 600:Drivers/lvgl/src/stdlib/builtin/lv_tlsf.c **** 
 816              		.loc 1 600 44 view .LVU212
 817 003e 01FA0EF1 		lsl	r1, r1, lr
 600:Drivers/lvgl/src/stdlib/builtin/lv_tlsf.c **** 
 818              		.loc 1 600 36 view .LVU213
 819 0042 23EA0103 		bic	r3, r3, r1
 820 0046 5360     		str	r3, [r2, #4]
 821              	.LVL67:
 603:Drivers/lvgl/src/stdlib/builtin/lv_tlsf.c ****                 control->fl_bitmap &= ~(1U << fl);
 822              		.loc 1 603 13 is_stmt 1 view .LVU214
 603:Drivers/lvgl/src/stdlib/builtin/lv_tlsf.c ****                 control->fl_bitmap &= ~(1U << fl);
 823              		.loc 1 603 15 is_stmt 0 view .LVU215
 824 0048 002B     		cmp	r3, #0
 825 004a ECD1     		bne	.L42
 604:Drivers/lvgl/src/stdlib/builtin/lv_tlsf.c ****             }
 826              		.loc 1 604 17 is_stmt 1 view .LVU216
ARM GAS  /var/folders/qx/2_175_4n2s19vhvtspjhb3qh0000gn/T//cccJA90f.s 			page 26


 604:Drivers/lvgl/src/stdlib/builtin/lv_tlsf.c ****             }
 827              		.loc 1 604 24 is_stmt 0 view .LVU217
 828 004c 0369     		ldr	r3, [r0, #16]
 604:Drivers/lvgl/src/stdlib/builtin/lv_tlsf.c ****             }
 829              		.loc 1 604 44 view .LVU218
 830 004e 0122     		movs	r2, #1
 831 0050 A240     		lsls	r2, r2, r4
 604:Drivers/lvgl/src/stdlib/builtin/lv_tlsf.c ****             }
 832              		.loc 1 604 36 view .LVU219
 833 0052 23EA0203 		bic	r3, r3, r2
 834 0056 0361     		str	r3, [r0, #16]
 835              		.loc 1 608 1 view .LVU220
 836 0058 E5E7     		b	.L42
 837              		.cfi_endproc
 838              	.LFE40:
 840              		.section	.text.insert_free_block,"ax",%progbits
 841              		.align	1
 842              		.syntax unified
 843              		.thumb
 844              		.thumb_func
 846              	insert_free_block:
 847              	.LVL68:
 848              	.LFB41:
 609:Drivers/lvgl/src/stdlib/builtin/lv_tlsf.c **** 
 610:Drivers/lvgl/src/stdlib/builtin/lv_tlsf.c **** /* Insert a free block into the free block list. */
 611:Drivers/lvgl/src/stdlib/builtin/lv_tlsf.c **** static void insert_free_block(control_t * control, block_header_t * block, int fl, int sl)
 612:Drivers/lvgl/src/stdlib/builtin/lv_tlsf.c **** {
 849              		.loc 1 612 1 is_stmt 1 view -0
 850              		.cfi_startproc
 851              		@ args = 0, pretend = 0, frame = 0
 852              		@ frame_needed = 0, uses_anonymous_args = 0
 853              		.loc 1 612 1 is_stmt 0 view .LVU222
 854 0000 2DE9F041 		push	{r4, r5, r6, r7, r8, lr}
 855              	.LCFI8:
 856              		.cfi_def_cfa_offset 24
 857              		.cfi_offset 4, -24
 858              		.cfi_offset 5, -20
 859              		.cfi_offset 6, -16
 860              		.cfi_offset 7, -12
 861              		.cfi_offset 8, -8
 862              		.cfi_offset 14, -4
 863 0004 1F46     		mov	r7, r3
 613:Drivers/lvgl/src/stdlib/builtin/lv_tlsf.c ****     block_header_t * current = control->blocks[fl][sl];
 864              		.loc 1 613 5 is_stmt 1 view .LVU223
 865              		.loc 1 613 22 is_stmt 0 view .LVU224
 866 0006 03EB421C 		add	ip, r3, r2, lsl #5
 867 000a 0CF10E0C 		add	ip, ip, #14
 868 000e 00EB8C0C 		add	ip, r0, ip, lsl #2
 869 0012 DCF80430 		ldr	r3, [ip, #4]
 870              	.LVL69:
 614:Drivers/lvgl/src/stdlib/builtin/lv_tlsf.c ****     tlsf_assert(current && "free list cannot have a null entry");
 871              		.loc 1 614 5 is_stmt 1 view .LVU225
 872              		.loc 1 614 5 view .LVU226
 873 0016 83B1     		cbz	r3, .L52
 874 0018 0546     		mov	r5, r0
 875 001a 0C46     		mov	r4, r1
 876 001c 1646     		mov	r6, r2
ARM GAS  /var/folders/qx/2_175_4n2s19vhvtspjhb3qh0000gn/T//cccJA90f.s 			page 27


 877              		.loc 1 614 5 view .LVU227
 615:Drivers/lvgl/src/stdlib/builtin/lv_tlsf.c ****     tlsf_assert(block && "cannot insert a null entry into the free list");
 878              		.loc 1 615 5 view .LVU228
 879              		.loc 1 615 5 view .LVU229
 880 001e 69B1     		cbz	r1, .L54
 881              		.loc 1 615 5 view .LVU230
 616:Drivers/lvgl/src/stdlib/builtin/lv_tlsf.c ****     block->next_free = current;
 882              		.loc 1 616 5 view .LVU231
 883              		.loc 1 616 22 is_stmt 0 view .LVU232
 884 0020 8B60     		str	r3, [r1, #8]
 617:Drivers/lvgl/src/stdlib/builtin/lv_tlsf.c ****     block->prev_free = &control->block_null;
 885              		.loc 1 617 5 is_stmt 1 view .LVU233
 886              		.loc 1 617 22 is_stmt 0 view .LVU234
 887 0022 C860     		str	r0, [r1, #12]
 618:Drivers/lvgl/src/stdlib/builtin/lv_tlsf.c ****     current->prev_free = block;
 888              		.loc 1 618 5 is_stmt 1 view .LVU235
 889              		.loc 1 618 24 is_stmt 0 view .LVU236
 890 0024 D960     		str	r1, [r3, #12]
 619:Drivers/lvgl/src/stdlib/builtin/lv_tlsf.c **** 
 620:Drivers/lvgl/src/stdlib/builtin/lv_tlsf.c ****     tlsf_assert(block_to_ptr(block) == align_ptr(block_to_ptr(block), ALIGN_SIZE)
 891              		.loc 1 620 5 is_stmt 1 view .LVU237
 892              		.loc 1 620 5 view .LVU238
 893 0026 0846     		mov	r0, r1
 894              	.LVL70:
 895              		.loc 1 620 5 is_stmt 0 view .LVU239
 896 0028 FFF7FEFF 		bl	block_to_ptr
 897              	.LVL71:
 898              		.loc 1 620 5 view .LVU240
 899 002c 8046     		mov	r8, r0
 900              		.loc 1 620 5 discriminator 2 view .LVU241
 901 002e 0421     		movs	r1, #4
 902 0030 FFF7FEFF 		bl	align_ptr
 903              	.LVL72:
 904              		.loc 1 620 5 discriminator 3 view .LVU242
 905 0034 8045     		cmp	r8, r0
 906 0036 02D0     		beq	.L55
 907              	.L56:
 908              		.loc 1 620 5 is_stmt 1 view .LVU243
 909              		.loc 1 620 5 view .LVU244
 910              		.loc 1 620 5 view .LVU245
 911              		.loc 1 620 5 view .LVU246
 912              		.loc 1 620 5 view .LVU247
 913 0038 FEE7     		b	.L56
 914              	.LVL73:
 915              	.L52:
 614:Drivers/lvgl/src/stdlib/builtin/lv_tlsf.c ****     tlsf_assert(block && "cannot insert a null entry into the free list");
 916              		.loc 1 614 5 view .LVU248
 614:Drivers/lvgl/src/stdlib/builtin/lv_tlsf.c ****     tlsf_assert(block && "cannot insert a null entry into the free list");
 917              		.loc 1 614 5 view .LVU249
 614:Drivers/lvgl/src/stdlib/builtin/lv_tlsf.c ****     tlsf_assert(block && "cannot insert a null entry into the free list");
 918              		.loc 1 614 5 view .LVU250
 614:Drivers/lvgl/src/stdlib/builtin/lv_tlsf.c ****     tlsf_assert(block && "cannot insert a null entry into the free list");
 919              		.loc 1 614 5 view .LVU251
 614:Drivers/lvgl/src/stdlib/builtin/lv_tlsf.c ****     tlsf_assert(block && "cannot insert a null entry into the free list");
 920              		.loc 1 614 5 view .LVU252
 921 003a FEE7     		b	.L52
 922              	.L54:
ARM GAS  /var/folders/qx/2_175_4n2s19vhvtspjhb3qh0000gn/T//cccJA90f.s 			page 28


 615:Drivers/lvgl/src/stdlib/builtin/lv_tlsf.c ****     block->next_free = current;
 923              		.loc 1 615 5 view .LVU253
 615:Drivers/lvgl/src/stdlib/builtin/lv_tlsf.c ****     block->next_free = current;
 924              		.loc 1 615 5 view .LVU254
 615:Drivers/lvgl/src/stdlib/builtin/lv_tlsf.c ****     block->next_free = current;
 925              		.loc 1 615 5 view .LVU255
 615:Drivers/lvgl/src/stdlib/builtin/lv_tlsf.c ****     block->next_free = current;
 926              		.loc 1 615 5 view .LVU256
 615:Drivers/lvgl/src/stdlib/builtin/lv_tlsf.c ****     block->next_free = current;
 927              		.loc 1 615 5 view .LVU257
 928 003c FEE7     		b	.L54
 929              	.LVL74:
 930              	.L55:
 931              		.loc 1 620 5 view .LVU258
 621:Drivers/lvgl/src/stdlib/builtin/lv_tlsf.c ****                 && "block not aligned properly");
 622:Drivers/lvgl/src/stdlib/builtin/lv_tlsf.c ****     /*
 623:Drivers/lvgl/src/stdlib/builtin/lv_tlsf.c ****     ** Insert the new block at the head of the list, and mark the first-
 624:Drivers/lvgl/src/stdlib/builtin/lv_tlsf.c ****     ** and second-level bitmaps appropriately.
 625:Drivers/lvgl/src/stdlib/builtin/lv_tlsf.c ****     */
 626:Drivers/lvgl/src/stdlib/builtin/lv_tlsf.c ****     control->blocks[fl][sl] = block;
 932              		.loc 1 626 5 view .LVU259
 933              		.loc 1 626 29 is_stmt 0 view .LVU260
 934 003e 07EB4613 		add	r3, r7, r6, lsl #5
 935 0042 0E33     		adds	r3, r3, #14
 936 0044 05EB8303 		add	r3, r5, r3, lsl #2
 937 0048 5C60     		str	r4, [r3, #4]
 627:Drivers/lvgl/src/stdlib/builtin/lv_tlsf.c ****     control->fl_bitmap |= (1U << fl);
 938              		.loc 1 627 5 is_stmt 1 view .LVU261
 939              		.loc 1 627 12 is_stmt 0 view .LVU262
 940 004a 2A69     		ldr	r2, [r5, #16]
 941              		.loc 1 627 31 view .LVU263
 942 004c 0123     		movs	r3, #1
 943 004e 03FA06F1 		lsl	r1, r3, r6
 944              		.loc 1 627 24 view .LVU264
 945 0052 0A43     		orrs	r2, r2, r1
 946 0054 2A61     		str	r2, [r5, #16]
 628:Drivers/lvgl/src/stdlib/builtin/lv_tlsf.c ****     control->sl_bitmap[fl] |= (1U << sl);
 947              		.loc 1 628 5 is_stmt 1 view .LVU265
 948              		.loc 1 628 23 is_stmt 0 view .LVU266
 949 0056 0436     		adds	r6, r6, #4
 950              	.LVL75:
 951              		.loc 1 628 23 view .LVU267
 952 0058 05EB8605 		add	r5, r5, r6, lsl #2
 953              	.LVL76:
 954              		.loc 1 628 23 view .LVU268
 955 005c 6A68     		ldr	r2, [r5, #4]
 956              		.loc 1 628 35 view .LVU269
 957 005e BB40     		lsls	r3, r3, r7
 958              		.loc 1 628 28 view .LVU270
 959 0060 1A43     		orrs	r2, r2, r3
 960 0062 6A60     		str	r2, [r5, #4]
 629:Drivers/lvgl/src/stdlib/builtin/lv_tlsf.c **** }
 961              		.loc 1 629 1 view .LVU271
 962 0064 BDE8F081 		pop	{r4, r5, r6, r7, r8, pc}
 963              		.loc 1 629 1 view .LVU272
 964              		.cfi_endproc
 965              	.LFE41:
ARM GAS  /var/folders/qx/2_175_4n2s19vhvtspjhb3qh0000gn/T//cccJA90f.s 			page 29


 967              		.section	.text.block_can_split,"ax",%progbits
 968              		.align	1
 969              		.syntax unified
 970              		.thumb
 971              		.thumb_func
 973              	block_can_split:
 974              	.LVL77:
 975              	.LFB44:
 630:Drivers/lvgl/src/stdlib/builtin/lv_tlsf.c **** 
 631:Drivers/lvgl/src/stdlib/builtin/lv_tlsf.c **** /* Remove a given block from the free list. */
 632:Drivers/lvgl/src/stdlib/builtin/lv_tlsf.c **** static void block_remove(control_t * control, block_header_t * block)
 633:Drivers/lvgl/src/stdlib/builtin/lv_tlsf.c **** {
 634:Drivers/lvgl/src/stdlib/builtin/lv_tlsf.c ****     int fl, sl;
 635:Drivers/lvgl/src/stdlib/builtin/lv_tlsf.c ****     mapping_insert(block_size(block), &fl, &sl);
 636:Drivers/lvgl/src/stdlib/builtin/lv_tlsf.c ****     remove_free_block(control, block, fl, sl);
 637:Drivers/lvgl/src/stdlib/builtin/lv_tlsf.c **** }
 638:Drivers/lvgl/src/stdlib/builtin/lv_tlsf.c **** 
 639:Drivers/lvgl/src/stdlib/builtin/lv_tlsf.c **** /* Insert a given block into the free list. */
 640:Drivers/lvgl/src/stdlib/builtin/lv_tlsf.c **** static void block_insert(control_t * control, block_header_t * block)
 641:Drivers/lvgl/src/stdlib/builtin/lv_tlsf.c **** {
 642:Drivers/lvgl/src/stdlib/builtin/lv_tlsf.c ****     int fl, sl;
 643:Drivers/lvgl/src/stdlib/builtin/lv_tlsf.c ****     mapping_insert(block_size(block), &fl, &sl);
 644:Drivers/lvgl/src/stdlib/builtin/lv_tlsf.c ****     insert_free_block(control, block, fl, sl);
 645:Drivers/lvgl/src/stdlib/builtin/lv_tlsf.c **** }
 646:Drivers/lvgl/src/stdlib/builtin/lv_tlsf.c **** 
 647:Drivers/lvgl/src/stdlib/builtin/lv_tlsf.c **** static int block_can_split(block_header_t * block, size_t size)
 648:Drivers/lvgl/src/stdlib/builtin/lv_tlsf.c **** {
 976              		.loc 1 648 1 is_stmt 1 view -0
 977              		.cfi_startproc
 978              		@ args = 0, pretend = 0, frame = 0
 979              		@ frame_needed = 0, uses_anonymous_args = 0
 980              		.loc 1 648 1 is_stmt 0 view .LVU274
 981 0000 10B5     		push	{r4, lr}
 982              	.LCFI9:
 983              		.cfi_def_cfa_offset 8
 984              		.cfi_offset 4, -8
 985              		.cfi_offset 14, -4
 986 0002 0C46     		mov	r4, r1
 649:Drivers/lvgl/src/stdlib/builtin/lv_tlsf.c ****     return block_size(block) >= sizeof(block_header_t) + size;
 987              		.loc 1 649 5 is_stmt 1 view .LVU275
 988              		.loc 1 649 12 is_stmt 0 view .LVU276
 989 0004 FFF7FEFF 		bl	block_size
 990              	.LVL78:
 991              		.loc 1 649 56 discriminator 1 view .LVU277
 992 0008 1034     		adds	r4, r4, #16
 993              	.LVL79:
 650:Drivers/lvgl/src/stdlib/builtin/lv_tlsf.c **** }
 994              		.loc 1 650 1 view .LVU278
 995 000a A042     		cmp	r0, r4
 996 000c 34BF     		ite	cc
 997 000e 0020     		movcc	r0, #0
 998 0010 0120     		movcs	r0, #1
 999 0012 10BD     		pop	{r4, pc}
 1000              		.loc 1 650 1 view .LVU279
 1001              		.cfi_endproc
 1002              	.LFE44:
 1004              		.section	.text.block_split,"ax",%progbits
ARM GAS  /var/folders/qx/2_175_4n2s19vhvtspjhb3qh0000gn/T//cccJA90f.s 			page 30


 1005              		.align	1
 1006              		.syntax unified
 1007              		.thumb
 1008              		.thumb_func
 1010              	block_split:
 1011              	.LVL80:
 1012              	.LFB45:
 651:Drivers/lvgl/src/stdlib/builtin/lv_tlsf.c **** 
 652:Drivers/lvgl/src/stdlib/builtin/lv_tlsf.c **** /* Split a block into two, the second of which is free. */
 653:Drivers/lvgl/src/stdlib/builtin/lv_tlsf.c **** static block_header_t * block_split(block_header_t * block, size_t size)
 654:Drivers/lvgl/src/stdlib/builtin/lv_tlsf.c **** {
 1013              		.loc 1 654 1 is_stmt 1 view -0
 1014              		.cfi_startproc
 1015              		@ args = 0, pretend = 0, frame = 0
 1016              		@ frame_needed = 0, uses_anonymous_args = 0
 1017              		.loc 1 654 1 is_stmt 0 view .LVU281
 1018 0000 2DE9F843 		push	{r3, r4, r5, r6, r7, r8, r9, lr}
 1019              	.LCFI10:
 1020              		.cfi_def_cfa_offset 32
 1021              		.cfi_offset 3, -32
 1022              		.cfi_offset 4, -28
 1023              		.cfi_offset 5, -24
 1024              		.cfi_offset 6, -20
 1025              		.cfi_offset 7, -16
 1026              		.cfi_offset 8, -12
 1027              		.cfi_offset 9, -8
 1028              		.cfi_offset 14, -4
 1029 0004 0746     		mov	r7, r0
 1030 0006 0C46     		mov	r4, r1
 655:Drivers/lvgl/src/stdlib/builtin/lv_tlsf.c ****     /* Calculate the amount of space left in the remaining block. */
 656:Drivers/lvgl/src/stdlib/builtin/lv_tlsf.c ****     block_header_t * remaining =
 1031              		.loc 1 656 5 is_stmt 1 view .LVU282
 657:Drivers/lvgl/src/stdlib/builtin/lv_tlsf.c ****         offset_to_block(block_to_ptr(block), size - block_header_overhead);
 1032              		.loc 1 657 25 is_stmt 0 view .LVU283
 1033 0008 FFF7FEFF 		bl	block_to_ptr
 1034              	.LVL81:
 1035              		.loc 1 657 9 discriminator 1 view .LVU284
 1036 000c 211F     		subs	r1, r4, #4
 1037 000e FFF7FEFF 		bl	offset_to_block
 1038              	.LVL82:
 1039 0012 0546     		mov	r5, r0
 1040              	.LVL83:
 658:Drivers/lvgl/src/stdlib/builtin/lv_tlsf.c **** 
 659:Drivers/lvgl/src/stdlib/builtin/lv_tlsf.c ****     const size_t remain_size = block_size(block) - (size + block_header_overhead);
 1041              		.loc 1 659 5 is_stmt 1 view .LVU285
 1042              		.loc 1 659 32 is_stmt 0 view .LVU286
 1043 0014 3846     		mov	r0, r7
 1044              	.LVL84:
 1045              		.loc 1 659 32 view .LVU287
 1046 0016 FFF7FEFF 		bl	block_size
 1047              	.LVL85:
 1048 001a 0646     		mov	r6, r0
 1049              		.loc 1 659 50 discriminator 1 view .LVU288
 1050 001c 031B     		subs	r3, r0, r4
 1051              		.loc 1 659 18 discriminator 1 view .LVU289
 1052 001e A3F10409 		sub	r9, r3, #4
 1053              	.LVL86:
ARM GAS  /var/folders/qx/2_175_4n2s19vhvtspjhb3qh0000gn/T//cccJA90f.s 			page 31


 660:Drivers/lvgl/src/stdlib/builtin/lv_tlsf.c **** 
 661:Drivers/lvgl/src/stdlib/builtin/lv_tlsf.c ****     tlsf_assert(block_to_ptr(remaining) == align_ptr(block_to_ptr(remaining), ALIGN_SIZE)
 1054              		.loc 1 661 5 is_stmt 1 view .LVU290
 1055              		.loc 1 661 5 view .LVU291
 1056 0022 2846     		mov	r0, r5
 1057 0024 FFF7FEFF 		bl	block_to_ptr
 1058              	.LVL87:
 1059 0028 8046     		mov	r8, r0
 1060              		.loc 1 661 5 is_stmt 0 discriminator 2 view .LVU292
 1061 002a 0421     		movs	r1, #4
 1062 002c FFF7FEFF 		bl	align_ptr
 1063              	.LVL88:
 1064              		.loc 1 661 5 discriminator 3 view .LVU293
 1065 0030 8045     		cmp	r8, r0
 1066 0032 00D0     		beq	.L61
 1067              	.L62:
 1068              		.loc 1 661 5 is_stmt 1 view .LVU294
 1069              		.loc 1 661 5 view .LVU295
 1070              		.loc 1 661 5 view .LVU296
 1071              		.loc 1 661 5 view .LVU297
 1072              		.loc 1 661 5 view .LVU298
 1073 0034 FEE7     		b	.L62
 1074              	.L61:
 1075              		.loc 1 661 5 view .LVU299
 662:Drivers/lvgl/src/stdlib/builtin/lv_tlsf.c ****                 && "remaining block not aligned properly");
 663:Drivers/lvgl/src/stdlib/builtin/lv_tlsf.c **** 
 664:Drivers/lvgl/src/stdlib/builtin/lv_tlsf.c ****     tlsf_assert(block_size(block) == remain_size + size + block_header_overhead);
 1076              		.loc 1 664 5 view .LVU300
 1077              		.loc 1 664 5 view .LVU301
 1078              		.loc 1 664 5 is_stmt 0 discriminator 1 view .LVU302
 1079 0036 04EB0903 		add	r3, r4, r9
 1080 003a 0433     		adds	r3, r3, #4
 1081 003c 9E42     		cmp	r6, r3
 1082 003e 00D0     		beq	.L63
 1083              	.L64:
 1084              		.loc 1 664 5 is_stmt 1 view .LVU303
 1085              		.loc 1 664 5 view .LVU304
 1086              		.loc 1 664 5 view .LVU305
 1087              		.loc 1 664 5 view .LVU306
 1088              		.loc 1 664 5 view .LVU307
 1089 0040 FEE7     		b	.L64
 1090              	.L63:
 1091              		.loc 1 664 5 view .LVU308
 665:Drivers/lvgl/src/stdlib/builtin/lv_tlsf.c ****     block_set_size(remaining, remain_size);
 1092              		.loc 1 665 5 view .LVU309
 1093 0042 4946     		mov	r1, r9
 1094 0044 2846     		mov	r0, r5
 1095 0046 FFF7FEFF 		bl	block_set_size
 1096              	.LVL89:
 666:Drivers/lvgl/src/stdlib/builtin/lv_tlsf.c ****     tlsf_assert(block_size(remaining) >= block_size_min && "block split with invalid size");
 1097              		.loc 1 666 5 view .LVU310
 1098              		.loc 1 666 5 view .LVU311
 1099 004a 2846     		mov	r0, r5
 1100 004c FFF7FEFF 		bl	block_size
 1101              	.LVL90:
 1102              		.loc 1 666 5 is_stmt 0 discriminator 1 view .LVU312
 1103 0050 0B28     		cmp	r0, #11
ARM GAS  /var/folders/qx/2_175_4n2s19vhvtspjhb3qh0000gn/T//cccJA90f.s 			page 32


 1104 0052 00D8     		bhi	.L65
 1105              	.L66:
 1106              		.loc 1 666 5 is_stmt 1 view .LVU313
 1107              		.loc 1 666 5 view .LVU314
 1108              		.loc 1 666 5 view .LVU315
 1109              		.loc 1 666 5 view .LVU316
 1110              		.loc 1 666 5 view .LVU317
 1111 0054 FEE7     		b	.L66
 1112              	.L65:
 1113              		.loc 1 666 5 view .LVU318
 667:Drivers/lvgl/src/stdlib/builtin/lv_tlsf.c **** 
 668:Drivers/lvgl/src/stdlib/builtin/lv_tlsf.c ****     block_set_size(block, size);
 1114              		.loc 1 668 5 view .LVU319
 1115 0056 2146     		mov	r1, r4
 1116 0058 3846     		mov	r0, r7
 1117 005a FFF7FEFF 		bl	block_set_size
 1118              	.LVL91:
 669:Drivers/lvgl/src/stdlib/builtin/lv_tlsf.c ****     block_mark_as_free(remaining);
 1119              		.loc 1 669 5 view .LVU320
 1120 005e 2846     		mov	r0, r5
 1121 0060 FFF7FEFF 		bl	block_mark_as_free
 1122              	.LVL92:
 670:Drivers/lvgl/src/stdlib/builtin/lv_tlsf.c **** 
 671:Drivers/lvgl/src/stdlib/builtin/lv_tlsf.c ****     return remaining;
 1123              		.loc 1 671 5 view .LVU321
 672:Drivers/lvgl/src/stdlib/builtin/lv_tlsf.c **** }
 1124              		.loc 1 672 1 is_stmt 0 view .LVU322
 1125 0064 2846     		mov	r0, r5
 1126 0066 BDE8F883 		pop	{r3, r4, r5, r6, r7, r8, r9, pc}
 1127              		.loc 1 672 1 view .LVU323
 1128              		.cfi_endproc
 1129              	.LFE45:
 1131              		.section	.text.block_absorb,"ax",%progbits
 1132              		.align	1
 1133              		.syntax unified
 1134              		.thumb
 1135              		.thumb_func
 1137              	block_absorb:
 1138              	.LVL93:
 1139              	.LFB46:
 673:Drivers/lvgl/src/stdlib/builtin/lv_tlsf.c **** 
 674:Drivers/lvgl/src/stdlib/builtin/lv_tlsf.c **** /* Absorb a free block's storage into an adjacent previous free block. */
 675:Drivers/lvgl/src/stdlib/builtin/lv_tlsf.c **** static block_header_t * block_absorb(block_header_t * prev, block_header_t * block)
 676:Drivers/lvgl/src/stdlib/builtin/lv_tlsf.c **** {
 1140              		.loc 1 676 1 is_stmt 1 view -0
 1141              		.cfi_startproc
 1142              		@ args = 0, pretend = 0, frame = 0
 1143              		@ frame_needed = 0, uses_anonymous_args = 0
 1144              		.loc 1 676 1 is_stmt 0 view .LVU325
 1145 0000 38B5     		push	{r3, r4, r5, lr}
 1146              	.LCFI11:
 1147              		.cfi_def_cfa_offset 16
 1148              		.cfi_offset 3, -16
 1149              		.cfi_offset 4, -12
 1150              		.cfi_offset 5, -8
 1151              		.cfi_offset 14, -4
 1152 0002 0446     		mov	r4, r0
ARM GAS  /var/folders/qx/2_175_4n2s19vhvtspjhb3qh0000gn/T//cccJA90f.s 			page 33


 1153 0004 0D46     		mov	r5, r1
 677:Drivers/lvgl/src/stdlib/builtin/lv_tlsf.c ****     tlsf_assert(!block_is_last(prev) && "previous block can't be last");
 1154              		.loc 1 677 5 is_stmt 1 view .LVU326
 1155              		.loc 1 677 5 view .LVU327
 1156 0006 FFF7FEFF 		bl	block_is_last
 1157              	.LVL94:
 1158              		.loc 1 677 5 is_stmt 0 discriminator 1 view .LVU328
 1159 000a 00B1     		cbz	r0, .L69
 1160              	.L70:
 1161              		.loc 1 677 5 is_stmt 1 view .LVU329
 1162              		.loc 1 677 5 view .LVU330
 1163              		.loc 1 677 5 view .LVU331
 1164              		.loc 1 677 5 view .LVU332
 1165              		.loc 1 677 5 view .LVU333
 1166 000c FEE7     		b	.L70
 1167              	.L69:
 1168              		.loc 1 677 5 view .LVU334
 678:Drivers/lvgl/src/stdlib/builtin/lv_tlsf.c ****     /* Note: Leaves flags untouched. */
 679:Drivers/lvgl/src/stdlib/builtin/lv_tlsf.c ****     prev->size += block_size(block) + block_header_overhead;
 1169              		.loc 1 679 5 view .LVU335
 1170              		.loc 1 679 19 is_stmt 0 view .LVU336
 1171 000e 2846     		mov	r0, r5
 1172 0010 FFF7FEFF 		bl	block_size
 1173              	.LVL95:
 1174              		.loc 1 679 37 discriminator 1 view .LVU337
 1175 0014 021D     		adds	r2, r0, #4
 1176              		.loc 1 679 9 discriminator 1 view .LVU338
 1177 0016 6368     		ldr	r3, [r4, #4]
 1178              		.loc 1 679 16 discriminator 1 view .LVU339
 1179 0018 1344     		add	r3, r3, r2
 1180 001a 6360     		str	r3, [r4, #4]
 680:Drivers/lvgl/src/stdlib/builtin/lv_tlsf.c ****     block_link_next(prev);
 1181              		.loc 1 680 5 is_stmt 1 view .LVU340
 1182 001c 2046     		mov	r0, r4
 1183 001e FFF7FEFF 		bl	block_link_next
 1184              	.LVL96:
 681:Drivers/lvgl/src/stdlib/builtin/lv_tlsf.c ****     return prev;
 1185              		.loc 1 681 5 view .LVU341
 682:Drivers/lvgl/src/stdlib/builtin/lv_tlsf.c **** }
 1186              		.loc 1 682 1 is_stmt 0 view .LVU342
 1187 0022 2046     		mov	r0, r4
 1188 0024 38BD     		pop	{r3, r4, r5, pc}
 1189              		.loc 1 682 1 view .LVU343
 1190              		.cfi_endproc
 1191              	.LFE46:
 1193              		.section	.text.control_constructor,"ax",%progbits
 1194              		.align	1
 1195              		.syntax unified
 1196              		.thumb
 1197              		.thumb_func
 1199              	control_constructor:
 1200              	.LVL97:
 1201              	.LFB54:
 683:Drivers/lvgl/src/stdlib/builtin/lv_tlsf.c **** 
 684:Drivers/lvgl/src/stdlib/builtin/lv_tlsf.c **** /* Merge a just-freed block with an adjacent previous free block. */
 685:Drivers/lvgl/src/stdlib/builtin/lv_tlsf.c **** static block_header_t * block_merge_prev(control_t * control, block_header_t * block)
 686:Drivers/lvgl/src/stdlib/builtin/lv_tlsf.c **** {
ARM GAS  /var/folders/qx/2_175_4n2s19vhvtspjhb3qh0000gn/T//cccJA90f.s 			page 34


 687:Drivers/lvgl/src/stdlib/builtin/lv_tlsf.c ****     if(block_is_prev_free(block)) {
 688:Drivers/lvgl/src/stdlib/builtin/lv_tlsf.c ****         block_header_t * prev = block_prev(block);
 689:Drivers/lvgl/src/stdlib/builtin/lv_tlsf.c ****         tlsf_assert(prev && "prev physical block can't be null");
 690:Drivers/lvgl/src/stdlib/builtin/lv_tlsf.c ****         tlsf_assert(block_is_free(prev) && "prev block is not free though marked as such");
 691:Drivers/lvgl/src/stdlib/builtin/lv_tlsf.c ****         block_remove(control, prev);
 692:Drivers/lvgl/src/stdlib/builtin/lv_tlsf.c ****         block = block_absorb(prev, block);
 693:Drivers/lvgl/src/stdlib/builtin/lv_tlsf.c ****     }
 694:Drivers/lvgl/src/stdlib/builtin/lv_tlsf.c **** 
 695:Drivers/lvgl/src/stdlib/builtin/lv_tlsf.c ****     return block;
 696:Drivers/lvgl/src/stdlib/builtin/lv_tlsf.c **** }
 697:Drivers/lvgl/src/stdlib/builtin/lv_tlsf.c **** 
 698:Drivers/lvgl/src/stdlib/builtin/lv_tlsf.c **** /* Merge a just-freed block with an adjacent free block. */
 699:Drivers/lvgl/src/stdlib/builtin/lv_tlsf.c **** static block_header_t * block_merge_next(control_t * control, block_header_t * block)
 700:Drivers/lvgl/src/stdlib/builtin/lv_tlsf.c **** {
 701:Drivers/lvgl/src/stdlib/builtin/lv_tlsf.c ****     block_header_t * next = block_next(block);
 702:Drivers/lvgl/src/stdlib/builtin/lv_tlsf.c ****     tlsf_assert(next && "next physical block can't be null");
 703:Drivers/lvgl/src/stdlib/builtin/lv_tlsf.c **** 
 704:Drivers/lvgl/src/stdlib/builtin/lv_tlsf.c ****     if(block_is_free(next)) {
 705:Drivers/lvgl/src/stdlib/builtin/lv_tlsf.c ****         tlsf_assert(!block_is_last(block) && "previous block can't be last");
 706:Drivers/lvgl/src/stdlib/builtin/lv_tlsf.c ****         block_remove(control, next);
 707:Drivers/lvgl/src/stdlib/builtin/lv_tlsf.c ****         block = block_absorb(block, next);
 708:Drivers/lvgl/src/stdlib/builtin/lv_tlsf.c ****     }
 709:Drivers/lvgl/src/stdlib/builtin/lv_tlsf.c **** 
 710:Drivers/lvgl/src/stdlib/builtin/lv_tlsf.c ****     return block;
 711:Drivers/lvgl/src/stdlib/builtin/lv_tlsf.c **** }
 712:Drivers/lvgl/src/stdlib/builtin/lv_tlsf.c **** 
 713:Drivers/lvgl/src/stdlib/builtin/lv_tlsf.c **** /* Trim any trailing block space off the end of a block, return to pool. */
 714:Drivers/lvgl/src/stdlib/builtin/lv_tlsf.c **** static void block_trim_free(control_t * control, block_header_t * block, size_t size)
 715:Drivers/lvgl/src/stdlib/builtin/lv_tlsf.c **** {
 716:Drivers/lvgl/src/stdlib/builtin/lv_tlsf.c ****     tlsf_assert(block_is_free(block) && "block must be free");
 717:Drivers/lvgl/src/stdlib/builtin/lv_tlsf.c ****     if(block_can_split(block, size)) {
 718:Drivers/lvgl/src/stdlib/builtin/lv_tlsf.c ****         block_header_t * remaining_block = block_split(block, size);
 719:Drivers/lvgl/src/stdlib/builtin/lv_tlsf.c ****         block_link_next(block);
 720:Drivers/lvgl/src/stdlib/builtin/lv_tlsf.c ****         block_set_prev_free(remaining_block);
 721:Drivers/lvgl/src/stdlib/builtin/lv_tlsf.c ****         block_insert(control, remaining_block);
 722:Drivers/lvgl/src/stdlib/builtin/lv_tlsf.c ****     }
 723:Drivers/lvgl/src/stdlib/builtin/lv_tlsf.c **** }
 724:Drivers/lvgl/src/stdlib/builtin/lv_tlsf.c **** 
 725:Drivers/lvgl/src/stdlib/builtin/lv_tlsf.c **** /* Trim any trailing block space off the end of a used block, return to pool. */
 726:Drivers/lvgl/src/stdlib/builtin/lv_tlsf.c **** static void block_trim_used(control_t * control, block_header_t * block, size_t size)
 727:Drivers/lvgl/src/stdlib/builtin/lv_tlsf.c **** {
 728:Drivers/lvgl/src/stdlib/builtin/lv_tlsf.c ****     tlsf_assert(!block_is_free(block) && "block must be used");
 729:Drivers/lvgl/src/stdlib/builtin/lv_tlsf.c ****     if(block_can_split(block, size)) {
 730:Drivers/lvgl/src/stdlib/builtin/lv_tlsf.c ****         /* If the next block is free, we must coalesce. */
 731:Drivers/lvgl/src/stdlib/builtin/lv_tlsf.c ****         block_header_t * remaining_block = block_split(block, size);
 732:Drivers/lvgl/src/stdlib/builtin/lv_tlsf.c ****         block_set_prev_used(remaining_block);
 733:Drivers/lvgl/src/stdlib/builtin/lv_tlsf.c **** 
 734:Drivers/lvgl/src/stdlib/builtin/lv_tlsf.c ****         remaining_block = block_merge_next(control, remaining_block);
 735:Drivers/lvgl/src/stdlib/builtin/lv_tlsf.c ****         block_insert(control, remaining_block);
 736:Drivers/lvgl/src/stdlib/builtin/lv_tlsf.c ****     }
 737:Drivers/lvgl/src/stdlib/builtin/lv_tlsf.c **** }
 738:Drivers/lvgl/src/stdlib/builtin/lv_tlsf.c **** 
 739:Drivers/lvgl/src/stdlib/builtin/lv_tlsf.c **** static block_header_t * block_trim_free_leading(control_t * control, block_header_t * block, size_t
 740:Drivers/lvgl/src/stdlib/builtin/lv_tlsf.c **** {
 741:Drivers/lvgl/src/stdlib/builtin/lv_tlsf.c ****     block_header_t * remaining_block = block;
 742:Drivers/lvgl/src/stdlib/builtin/lv_tlsf.c ****     if(block_can_split(block, size)) {
 743:Drivers/lvgl/src/stdlib/builtin/lv_tlsf.c ****         /* We want the 2nd block. */
ARM GAS  /var/folders/qx/2_175_4n2s19vhvtspjhb3qh0000gn/T//cccJA90f.s 			page 35


 744:Drivers/lvgl/src/stdlib/builtin/lv_tlsf.c ****         remaining_block = block_split(block, size - block_header_overhead);
 745:Drivers/lvgl/src/stdlib/builtin/lv_tlsf.c ****         block_set_prev_free(remaining_block);
 746:Drivers/lvgl/src/stdlib/builtin/lv_tlsf.c **** 
 747:Drivers/lvgl/src/stdlib/builtin/lv_tlsf.c ****         block_link_next(block);
 748:Drivers/lvgl/src/stdlib/builtin/lv_tlsf.c ****         block_insert(control, block);
 749:Drivers/lvgl/src/stdlib/builtin/lv_tlsf.c ****     }
 750:Drivers/lvgl/src/stdlib/builtin/lv_tlsf.c **** 
 751:Drivers/lvgl/src/stdlib/builtin/lv_tlsf.c ****     return remaining_block;
 752:Drivers/lvgl/src/stdlib/builtin/lv_tlsf.c **** }
 753:Drivers/lvgl/src/stdlib/builtin/lv_tlsf.c **** 
 754:Drivers/lvgl/src/stdlib/builtin/lv_tlsf.c **** static block_header_t * block_locate_free(control_t * control, size_t size)
 755:Drivers/lvgl/src/stdlib/builtin/lv_tlsf.c **** {
 756:Drivers/lvgl/src/stdlib/builtin/lv_tlsf.c ****     int fl = 0, sl = 0;
 757:Drivers/lvgl/src/stdlib/builtin/lv_tlsf.c ****     block_header_t * block = 0;
 758:Drivers/lvgl/src/stdlib/builtin/lv_tlsf.c **** 
 759:Drivers/lvgl/src/stdlib/builtin/lv_tlsf.c ****     if(size) {
 760:Drivers/lvgl/src/stdlib/builtin/lv_tlsf.c ****         mapping_search(size, &fl, &sl);
 761:Drivers/lvgl/src/stdlib/builtin/lv_tlsf.c **** 
 762:Drivers/lvgl/src/stdlib/builtin/lv_tlsf.c ****         /*
 763:Drivers/lvgl/src/stdlib/builtin/lv_tlsf.c ****         ** mapping_search can futz with the size, so for excessively large sizes it can sometimes w
 764:Drivers/lvgl/src/stdlib/builtin/lv_tlsf.c ****         ** with indices that are off the end of the block array.
 765:Drivers/lvgl/src/stdlib/builtin/lv_tlsf.c ****         ** So, we protect against that here, since this is the only callsite of mapping_search.
 766:Drivers/lvgl/src/stdlib/builtin/lv_tlsf.c ****         ** Note that we don't need to check sl, since it comes from a modulo operation that guarant
 767:Drivers/lvgl/src/stdlib/builtin/lv_tlsf.c ****         */
 768:Drivers/lvgl/src/stdlib/builtin/lv_tlsf.c ****         if(fl < FL_INDEX_COUNT) {
 769:Drivers/lvgl/src/stdlib/builtin/lv_tlsf.c ****             block = search_suitable_block(control, &fl, &sl);
 770:Drivers/lvgl/src/stdlib/builtin/lv_tlsf.c ****         }
 771:Drivers/lvgl/src/stdlib/builtin/lv_tlsf.c ****     }
 772:Drivers/lvgl/src/stdlib/builtin/lv_tlsf.c **** 
 773:Drivers/lvgl/src/stdlib/builtin/lv_tlsf.c ****     if(block) {
 774:Drivers/lvgl/src/stdlib/builtin/lv_tlsf.c ****         tlsf_assert(block_size(block) >= size);
 775:Drivers/lvgl/src/stdlib/builtin/lv_tlsf.c ****         remove_free_block(control, block, fl, sl);
 776:Drivers/lvgl/src/stdlib/builtin/lv_tlsf.c ****     }
 777:Drivers/lvgl/src/stdlib/builtin/lv_tlsf.c **** 
 778:Drivers/lvgl/src/stdlib/builtin/lv_tlsf.c ****     return block;
 779:Drivers/lvgl/src/stdlib/builtin/lv_tlsf.c **** }
 780:Drivers/lvgl/src/stdlib/builtin/lv_tlsf.c **** 
 781:Drivers/lvgl/src/stdlib/builtin/lv_tlsf.c **** static void * block_prepare_used(control_t * control, block_header_t * block, size_t size)
 782:Drivers/lvgl/src/stdlib/builtin/lv_tlsf.c **** {
 783:Drivers/lvgl/src/stdlib/builtin/lv_tlsf.c ****     void * p = 0;
 784:Drivers/lvgl/src/stdlib/builtin/lv_tlsf.c ****     if(block) {
 785:Drivers/lvgl/src/stdlib/builtin/lv_tlsf.c ****         tlsf_assert(size && "size must be non-zero");
 786:Drivers/lvgl/src/stdlib/builtin/lv_tlsf.c ****         block_trim_free(control, block, size);
 787:Drivers/lvgl/src/stdlib/builtin/lv_tlsf.c ****         block_mark_as_used(block);
 788:Drivers/lvgl/src/stdlib/builtin/lv_tlsf.c ****         p = block_to_ptr(block);
 789:Drivers/lvgl/src/stdlib/builtin/lv_tlsf.c ****     }
 790:Drivers/lvgl/src/stdlib/builtin/lv_tlsf.c ****     return p;
 791:Drivers/lvgl/src/stdlib/builtin/lv_tlsf.c **** }
 792:Drivers/lvgl/src/stdlib/builtin/lv_tlsf.c **** 
 793:Drivers/lvgl/src/stdlib/builtin/lv_tlsf.c **** /* Clear structure and point all empty lists at the null block. */
 794:Drivers/lvgl/src/stdlib/builtin/lv_tlsf.c **** static void control_constructor(control_t * control)
 795:Drivers/lvgl/src/stdlib/builtin/lv_tlsf.c **** {
 1202              		.loc 1 795 1 is_stmt 1 view -0
 1203              		.cfi_startproc
 1204              		@ args = 0, pretend = 0, frame = 0
 1205              		@ frame_needed = 0, uses_anonymous_args = 0
 1206              		@ link register save eliminated.
ARM GAS  /var/folders/qx/2_175_4n2s19vhvtspjhb3qh0000gn/T//cccJA90f.s 			page 36


 796:Drivers/lvgl/src/stdlib/builtin/lv_tlsf.c ****     int i, j;
 1207              		.loc 1 796 5 view .LVU345
 797:Drivers/lvgl/src/stdlib/builtin/lv_tlsf.c **** 
 798:Drivers/lvgl/src/stdlib/builtin/lv_tlsf.c ****     control->block_null.next_free = &control->block_null;
 1208              		.loc 1 798 5 view .LVU346
 1209              		.loc 1 798 35 is_stmt 0 view .LVU347
 1210 0000 8060     		str	r0, [r0, #8]
 799:Drivers/lvgl/src/stdlib/builtin/lv_tlsf.c ****     control->block_null.prev_free = &control->block_null;
 1211              		.loc 1 799 5 is_stmt 1 view .LVU348
 1212              		.loc 1 799 35 is_stmt 0 view .LVU349
 1213 0002 C060     		str	r0, [r0, #12]
 800:Drivers/lvgl/src/stdlib/builtin/lv_tlsf.c **** 
 801:Drivers/lvgl/src/stdlib/builtin/lv_tlsf.c ****     control->fl_bitmap = 0;
 1214              		.loc 1 801 5 is_stmt 1 view .LVU350
 1215              		.loc 1 801 24 is_stmt 0 view .LVU351
 1216 0004 0021     		movs	r1, #0
 1217 0006 0161     		str	r1, [r0, #16]
 802:Drivers/lvgl/src/stdlib/builtin/lv_tlsf.c ****     for(i = 0; i < FL_INDEX_COUNT; ++i) {
 1218              		.loc 1 802 5 is_stmt 1 view .LVU352
 1219              	.LVL98:
 1220              		.loc 1 802 5 is_stmt 0 view .LVU353
 1221 0008 09E0     		b	.L73
 1222              	.LVL99:
 1223              	.L75:
 803:Drivers/lvgl/src/stdlib/builtin/lv_tlsf.c ****         control->sl_bitmap[i] = 0;
 804:Drivers/lvgl/src/stdlib/builtin/lv_tlsf.c ****         for(j = 0; j < SL_INDEX_COUNT; ++j) {
 805:Drivers/lvgl/src/stdlib/builtin/lv_tlsf.c ****             control->blocks[i][j] = &control->block_null;
 1224              		.loc 1 805 13 is_stmt 1 view .LVU354
 1225              		.loc 1 805 35 is_stmt 0 view .LVU355
 1226 000a 02EB4113 		add	r3, r2, r1, lsl #5
 1227 000e 0E33     		adds	r3, r3, #14
 1228 0010 00EB8303 		add	r3, r0, r3, lsl #2
 1229 0014 5860     		str	r0, [r3, #4]
 804:Drivers/lvgl/src/stdlib/builtin/lv_tlsf.c ****             control->blocks[i][j] = &control->block_null;
 1230              		.loc 1 804 40 is_stmt 1 discriminator 3 view .LVU356
 1231 0016 0132     		adds	r2, r2, #1
 1232              	.LVL100:
 1233              	.L74:
 804:Drivers/lvgl/src/stdlib/builtin/lv_tlsf.c ****             control->blocks[i][j] = &control->block_null;
 1234              		.loc 1 804 22 discriminator 1 view .LVU357
 1235 0018 1F2A     		cmp	r2, #31
 1236 001a F6DD     		ble	.L75
 802:Drivers/lvgl/src/stdlib/builtin/lv_tlsf.c ****     for(i = 0; i < FL_INDEX_COUNT; ++i) {
 1237              		.loc 1 802 36 discriminator 2 view .LVU358
 1238 001c 0131     		adds	r1, r1, #1
 1239              	.LVL101:
 1240              	.L73:
 802:Drivers/lvgl/src/stdlib/builtin/lv_tlsf.c ****     for(i = 0; i < FL_INDEX_COUNT; ++i) {
 1241              		.loc 1 802 18 discriminator 1 view .LVU359
 1242 001e 0929     		cmp	r1, #9
 1243 0020 05DC     		bgt	.L77
 803:Drivers/lvgl/src/stdlib/builtin/lv_tlsf.c ****         control->sl_bitmap[i] = 0;
 1244              		.loc 1 803 9 view .LVU360
 803:Drivers/lvgl/src/stdlib/builtin/lv_tlsf.c ****         control->sl_bitmap[i] = 0;
 1245              		.loc 1 803 31 is_stmt 0 view .LVU361
 1246 0022 0B1D     		adds	r3, r1, #4
 1247 0024 00EB8303 		add	r3, r0, r3, lsl #2
ARM GAS  /var/folders/qx/2_175_4n2s19vhvtspjhb3qh0000gn/T//cccJA90f.s 			page 37


 1248 0028 0022     		movs	r2, #0
 1249 002a 5A60     		str	r2, [r3, #4]
 804:Drivers/lvgl/src/stdlib/builtin/lv_tlsf.c ****             control->blocks[i][j] = &control->block_null;
 1250              		.loc 1 804 9 is_stmt 1 view .LVU362
 1251              	.LVL102:
 804:Drivers/lvgl/src/stdlib/builtin/lv_tlsf.c ****             control->blocks[i][j] = &control->block_null;
 1252              		.loc 1 804 9 is_stmt 0 view .LVU363
 1253 002c F4E7     		b	.L74
 1254              	.LVL103:
 1255              	.L77:
 806:Drivers/lvgl/src/stdlib/builtin/lv_tlsf.c ****         }
 807:Drivers/lvgl/src/stdlib/builtin/lv_tlsf.c ****     }
 808:Drivers/lvgl/src/stdlib/builtin/lv_tlsf.c **** }
 1256              		.loc 1 808 1 view .LVU364
 1257 002e 7047     		bx	lr
 1258              		.cfi_endproc
 1259              	.LFE54:
 1261              		.section	.text.integrity_walker,"ax",%progbits
 1262              		.align	1
 1263              		.syntax unified
 1264              		.thumb
 1265              		.thumb_func
 1267              	integrity_walker:
 1268              	.LVL104:
 1269              	.LFB55:
 809:Drivers/lvgl/src/stdlib/builtin/lv_tlsf.c **** 
 810:Drivers/lvgl/src/stdlib/builtin/lv_tlsf.c **** /*
 811:Drivers/lvgl/src/stdlib/builtin/lv_tlsf.c **** ** Debugging utilities.
 812:Drivers/lvgl/src/stdlib/builtin/lv_tlsf.c **** */
 813:Drivers/lvgl/src/stdlib/builtin/lv_tlsf.c **** 
 814:Drivers/lvgl/src/stdlib/builtin/lv_tlsf.c **** typedef struct integrity_t {
 815:Drivers/lvgl/src/stdlib/builtin/lv_tlsf.c ****     int prev_status;
 816:Drivers/lvgl/src/stdlib/builtin/lv_tlsf.c ****     int status;
 817:Drivers/lvgl/src/stdlib/builtin/lv_tlsf.c **** } integrity_t;
 818:Drivers/lvgl/src/stdlib/builtin/lv_tlsf.c **** 
 819:Drivers/lvgl/src/stdlib/builtin/lv_tlsf.c **** #define tlsf_insist(x) { tlsf_assert(x); if (!(x)) { status--; } }
 820:Drivers/lvgl/src/stdlib/builtin/lv_tlsf.c **** 
 821:Drivers/lvgl/src/stdlib/builtin/lv_tlsf.c **** static void integrity_walker(void * ptr, size_t size, int used, void * user)
 822:Drivers/lvgl/src/stdlib/builtin/lv_tlsf.c **** {
 1270              		.loc 1 822 1 is_stmt 1 view -0
 1271              		.cfi_startproc
 1272              		@ args = 0, pretend = 0, frame = 0
 1273              		@ frame_needed = 0, uses_anonymous_args = 0
 1274              		.loc 1 822 1 is_stmt 0 view .LVU366
 1275 0000 2DE9F041 		push	{r4, r5, r6, r7, r8, lr}
 1276              	.LCFI12:
 1277              		.cfi_def_cfa_offset 24
 1278              		.cfi_offset 4, -24
 1279              		.cfi_offset 5, -20
 1280              		.cfi_offset 6, -16
 1281              		.cfi_offset 7, -12
 1282              		.cfi_offset 8, -8
 1283              		.cfi_offset 14, -4
 1284 0004 0F46     		mov	r7, r1
 1285 0006 1D46     		mov	r5, r3
 823:Drivers/lvgl/src/stdlib/builtin/lv_tlsf.c ****     block_header_t * block = block_from_ptr(ptr);
 1286              		.loc 1 823 5 is_stmt 1 view .LVU367
ARM GAS  /var/folders/qx/2_175_4n2s19vhvtspjhb3qh0000gn/T//cccJA90f.s 			page 38


 1287              		.loc 1 823 30 is_stmt 0 view .LVU368
 1288 0008 FFF7FEFF 		bl	block_from_ptr
 1289              	.LVL105:
 1290              		.loc 1 823 30 view .LVU369
 1291 000c 0446     		mov	r4, r0
 1292              	.LVL106:
 824:Drivers/lvgl/src/stdlib/builtin/lv_tlsf.c ****     integrity_t * integ = tlsf_cast(integrity_t *, user);
 1293              		.loc 1 824 5 is_stmt 1 view .LVU370
 825:Drivers/lvgl/src/stdlib/builtin/lv_tlsf.c ****     const int this_prev_status = block_is_prev_free(block) ? 1 : 0;
 1294              		.loc 1 825 5 view .LVU371
 1295              		.loc 1 825 34 is_stmt 0 view .LVU372
 1296 000e FFF7FEFF 		bl	block_is_prev_free
 1297              	.LVL107:
 1298              		.loc 1 825 64 discriminator 1 view .LVU373
 1299 0012 061E     		subs	r6, r0, #0
 1300 0014 18BF     		it	ne
 1301 0016 0126     		movne	r6, #1
 1302              	.LVL108:
 826:Drivers/lvgl/src/stdlib/builtin/lv_tlsf.c ****     const int this_status = block_is_free(block) ? 1 : 0;
 1303              		.loc 1 826 5 is_stmt 1 view .LVU374
 1304              		.loc 1 826 29 is_stmt 0 view .LVU375
 1305 0018 2046     		mov	r0, r4
 1306 001a FFF7FEFF 		bl	block_is_free
 1307              	.LVL109:
 1308              		.loc 1 826 54 discriminator 1 view .LVU376
 1309 001e B0F10008 		subs	r8, r0, #0
 1310 0022 18BF     		it	ne
 1311 0024 4FF00108 		movne	r8, #1
 1312              	.LVL110:
 827:Drivers/lvgl/src/stdlib/builtin/lv_tlsf.c ****     const size_t this_block_size = block_size(block);
 1313              		.loc 1 827 5 is_stmt 1 view .LVU377
 1314              		.loc 1 827 36 is_stmt 0 view .LVU378
 1315 0028 2046     		mov	r0, r4
 1316 002a FFF7FEFF 		bl	block_size
 1317              	.LVL111:
 828:Drivers/lvgl/src/stdlib/builtin/lv_tlsf.c **** 
 829:Drivers/lvgl/src/stdlib/builtin/lv_tlsf.c ****     int status = 0;
 1318              		.loc 1 829 5 is_stmt 1 view .LVU379
 830:Drivers/lvgl/src/stdlib/builtin/lv_tlsf.c ****     LV_UNUSED(used);
 1319              		.loc 1 830 5 view .LVU380
 831:Drivers/lvgl/src/stdlib/builtin/lv_tlsf.c ****     tlsf_insist(integ->prev_status == this_prev_status && "prev status incorrect");
 1320              		.loc 1 831 5 view .LVU381
 1321              		.loc 1 831 5 view .LVU382
 1322 002e 2B68     		ldr	r3, [r5]
 1323 0030 B342     		cmp	r3, r6
 1324 0032 00D0     		beq	.L79
 1325              	.L80:
 1326              		.loc 1 831 5 view .LVU383
 1327              		.loc 1 831 5 view .LVU384
 1328              		.loc 1 831 5 view .LVU385
 1329              		.loc 1 831 5 view .LVU386
 1330              		.loc 1 831 5 view .LVU387
 1331 0034 FEE7     		b	.L80
 1332              	.L79:
 1333              		.loc 1 831 5 discriminator 1 view .LVU388
 1334              		.loc 1 831 5 discriminator 1 view .LVU389
 1335              		.loc 1 831 83 view .LVU390
ARM GAS  /var/folders/qx/2_175_4n2s19vhvtspjhb3qh0000gn/T//cccJA90f.s 			page 39


 832:Drivers/lvgl/src/stdlib/builtin/lv_tlsf.c ****     tlsf_insist(size == this_block_size && "block size incorrect");
 1336              		.loc 1 832 5 view .LVU391
 1337              		.loc 1 832 5 view .LVU392
 1338 0036 B842     		cmp	r0, r7
 1339 0038 00D0     		beq	.L81
 1340              	.L82:
 1341              		.loc 1 832 5 view .LVU393
 1342              		.loc 1 832 5 view .LVU394
 1343              		.loc 1 832 5 view .LVU395
 1344              		.loc 1 832 5 view .LVU396
 1345              		.loc 1 832 5 view .LVU397
 1346 003a FEE7     		b	.L82
 1347              	.L81:
 1348              		.loc 1 832 5 discriminator 1 view .LVU398
 1349              		.loc 1 832 5 discriminator 1 view .LVU399
 1350              		.loc 1 832 67 view .LVU400
 833:Drivers/lvgl/src/stdlib/builtin/lv_tlsf.c **** 
 834:Drivers/lvgl/src/stdlib/builtin/lv_tlsf.c ****     integ->prev_status = this_status;
 1351              		.loc 1 834 5 view .LVU401
 1352              		.loc 1 834 24 is_stmt 0 view .LVU402
 1353 003c C5F80080 		str	r8, [r5]
 835:Drivers/lvgl/src/stdlib/builtin/lv_tlsf.c ****     integ->status += status;
 1354              		.loc 1 835 5 is_stmt 1 view .LVU403
 836:Drivers/lvgl/src/stdlib/builtin/lv_tlsf.c **** }
 1355              		.loc 1 836 1 is_stmt 0 view .LVU404
 1356 0040 BDE8F081 		pop	{r4, r5, r6, r7, r8, pc}
 1357              		.loc 1 836 1 view .LVU405
 1358              		.cfi_endproc
 1359              	.LFE55:
 1361              		.section	.text.default_walker,"ax",%progbits
 1362              		.align	1
 1363              		.syntax unified
 1364              		.thumb
 1365              		.thumb_func
 1367              	default_walker:
 1368              	.LVL112:
 1369              	.LFB57:
 837:Drivers/lvgl/src/stdlib/builtin/lv_tlsf.c **** 
 838:Drivers/lvgl/src/stdlib/builtin/lv_tlsf.c **** int lv_tlsf_check(lv_tlsf_t tlsf)
 839:Drivers/lvgl/src/stdlib/builtin/lv_tlsf.c **** {
 840:Drivers/lvgl/src/stdlib/builtin/lv_tlsf.c ****     int i, j;
 841:Drivers/lvgl/src/stdlib/builtin/lv_tlsf.c **** 
 842:Drivers/lvgl/src/stdlib/builtin/lv_tlsf.c ****     control_t * control = tlsf_cast(control_t *, tlsf);
 843:Drivers/lvgl/src/stdlib/builtin/lv_tlsf.c ****     int status = 0;
 844:Drivers/lvgl/src/stdlib/builtin/lv_tlsf.c **** 
 845:Drivers/lvgl/src/stdlib/builtin/lv_tlsf.c ****     /* Check that the free lists and bitmaps are accurate. */
 846:Drivers/lvgl/src/stdlib/builtin/lv_tlsf.c ****     for(i = 0; i < FL_INDEX_COUNT; ++i) {
 847:Drivers/lvgl/src/stdlib/builtin/lv_tlsf.c ****         for(j = 0; j < SL_INDEX_COUNT; ++j) {
 848:Drivers/lvgl/src/stdlib/builtin/lv_tlsf.c ****             const int fl_map = control->fl_bitmap & (1U << i);
 849:Drivers/lvgl/src/stdlib/builtin/lv_tlsf.c ****             const int sl_list = control->sl_bitmap[i];
 850:Drivers/lvgl/src/stdlib/builtin/lv_tlsf.c ****             const int sl_map = sl_list & (1U << j);
 851:Drivers/lvgl/src/stdlib/builtin/lv_tlsf.c ****             const block_header_t * block = control->blocks[i][j];
 852:Drivers/lvgl/src/stdlib/builtin/lv_tlsf.c **** 
 853:Drivers/lvgl/src/stdlib/builtin/lv_tlsf.c ****             /* Check that first- and second-level lists agree. */
 854:Drivers/lvgl/src/stdlib/builtin/lv_tlsf.c ****             if(!fl_map) {
 855:Drivers/lvgl/src/stdlib/builtin/lv_tlsf.c ****                 tlsf_insist(!sl_map && "second-level map must be null");
 856:Drivers/lvgl/src/stdlib/builtin/lv_tlsf.c ****             }
ARM GAS  /var/folders/qx/2_175_4n2s19vhvtspjhb3qh0000gn/T//cccJA90f.s 			page 40


 857:Drivers/lvgl/src/stdlib/builtin/lv_tlsf.c **** 
 858:Drivers/lvgl/src/stdlib/builtin/lv_tlsf.c ****             if(!sl_map) {
 859:Drivers/lvgl/src/stdlib/builtin/lv_tlsf.c ****                 tlsf_insist(block == &control->block_null && "block list must be null");
 860:Drivers/lvgl/src/stdlib/builtin/lv_tlsf.c ****                 continue;
 861:Drivers/lvgl/src/stdlib/builtin/lv_tlsf.c ****             }
 862:Drivers/lvgl/src/stdlib/builtin/lv_tlsf.c **** 
 863:Drivers/lvgl/src/stdlib/builtin/lv_tlsf.c ****             /* Check that there is at least one free block. */
 864:Drivers/lvgl/src/stdlib/builtin/lv_tlsf.c ****             tlsf_insist(sl_list && "no free blocks in second-level map");
 865:Drivers/lvgl/src/stdlib/builtin/lv_tlsf.c ****             tlsf_insist(block != &control->block_null && "block should not be null");
 866:Drivers/lvgl/src/stdlib/builtin/lv_tlsf.c **** 
 867:Drivers/lvgl/src/stdlib/builtin/lv_tlsf.c ****             while(block != &control->block_null) {
 868:Drivers/lvgl/src/stdlib/builtin/lv_tlsf.c ****                 int fli, sli;
 869:Drivers/lvgl/src/stdlib/builtin/lv_tlsf.c ****                 tlsf_insist(block_is_free(block) && "block should be free");
 870:Drivers/lvgl/src/stdlib/builtin/lv_tlsf.c ****                 tlsf_insist(!block_is_prev_free(block) && "blocks should have coalesced");
 871:Drivers/lvgl/src/stdlib/builtin/lv_tlsf.c ****                 tlsf_insist(!block_is_free(block_next(block)) && "blocks should have coalesced");
 872:Drivers/lvgl/src/stdlib/builtin/lv_tlsf.c ****                 tlsf_insist(block_is_prev_free(block_next(block)) && "block should be free");
 873:Drivers/lvgl/src/stdlib/builtin/lv_tlsf.c ****                 tlsf_insist(block_size(block) >= block_size_min && "block not minimum size");
 874:Drivers/lvgl/src/stdlib/builtin/lv_tlsf.c **** 
 875:Drivers/lvgl/src/stdlib/builtin/lv_tlsf.c ****                 mapping_insert(block_size(block), &fli, &sli);
 876:Drivers/lvgl/src/stdlib/builtin/lv_tlsf.c ****                 tlsf_insist(fli == i && sli == j && "block size indexed in wrong list");
 877:Drivers/lvgl/src/stdlib/builtin/lv_tlsf.c ****                 block = block->next_free;
 878:Drivers/lvgl/src/stdlib/builtin/lv_tlsf.c ****             }
 879:Drivers/lvgl/src/stdlib/builtin/lv_tlsf.c ****         }
 880:Drivers/lvgl/src/stdlib/builtin/lv_tlsf.c ****     }
 881:Drivers/lvgl/src/stdlib/builtin/lv_tlsf.c **** 
 882:Drivers/lvgl/src/stdlib/builtin/lv_tlsf.c ****     return status;
 883:Drivers/lvgl/src/stdlib/builtin/lv_tlsf.c **** }
 884:Drivers/lvgl/src/stdlib/builtin/lv_tlsf.c **** 
 885:Drivers/lvgl/src/stdlib/builtin/lv_tlsf.c **** #undef tlsf_insist
 886:Drivers/lvgl/src/stdlib/builtin/lv_tlsf.c **** 
 887:Drivers/lvgl/src/stdlib/builtin/lv_tlsf.c **** static void default_walker(void * ptr, size_t size, int used, void * user)
 888:Drivers/lvgl/src/stdlib/builtin/lv_tlsf.c **** {
 1370              		.loc 1 888 1 is_stmt 1 view -0
 1371              		.cfi_startproc
 1372              		@ args = 0, pretend = 0, frame = 0
 1373              		@ frame_needed = 0, uses_anonymous_args = 0
 1374              		@ link register save eliminated.
 889:Drivers/lvgl/src/stdlib/builtin/lv_tlsf.c ****     LV_UNUSED(user);
 1375              		.loc 1 889 5 view .LVU407
 890:Drivers/lvgl/src/stdlib/builtin/lv_tlsf.c ****     printf("\t%p %s size: %x (%p)\n", ptr, used ? "used" : "free", (unsigned int)size, (void *)bloc
 1376              		.loc 1 890 5 view .LVU408
 1377              		.loc 1 890 5 view .LVU409
 1378              		.loc 1 890 5 view .LVU410
 891:Drivers/lvgl/src/stdlib/builtin/lv_tlsf.c **** }
 1379              		.loc 1 891 1 is_stmt 0 view .LVU411
 1380 0000 7047     		bx	lr
 1381              		.cfi_endproc
 1382              	.LFE57:
 1384              		.section	.text.tlsf_fls,"ax",%progbits
 1385              		.align	1
 1386              		.syntax unified
 1387              		.thumb
 1388              		.thumb_func
 1390              	tlsf_fls:
 1391              	.LVL113:
 1392              	.LFB15:
 102:Drivers/lvgl/src/stdlib/builtin/lv_tlsf.c ****     const int bit = word ? 32 - __builtin_clz(word) : 0;
ARM GAS  /var/folders/qx/2_175_4n2s19vhvtspjhb3qh0000gn/T//cccJA90f.s 			page 41


 1393              		.loc 1 102 1 is_stmt 1 view -0
 1394              		.cfi_startproc
 1395              		@ args = 0, pretend = 0, frame = 0
 1396              		@ frame_needed = 0, uses_anonymous_args = 0
 1397              		@ link register save eliminated.
 103:Drivers/lvgl/src/stdlib/builtin/lv_tlsf.c ****     return bit - 1;
 1398              		.loc 1 103 5 view .LVU413
 103:Drivers/lvgl/src/stdlib/builtin/lv_tlsf.c ****     return bit - 1;
 1399              		.loc 1 103 53 is_stmt 0 view .LVU414
 1400 0000 28B1     		cbz	r0, .L87
 103:Drivers/lvgl/src/stdlib/builtin/lv_tlsf.c ****     return bit - 1;
 1401              		.loc 1 103 33 discriminator 1 view .LVU415
 1402 0002 B0FA80F0 		clz	r0, r0
 1403              	.LVL114:
 103:Drivers/lvgl/src/stdlib/builtin/lv_tlsf.c ****     return bit - 1;
 1404              		.loc 1 103 53 discriminator 1 view .LVU416
 1405 0006 C0F12000 		rsb	r0, r0, #32
 1406              	.L86:
 1407              	.LVL115:
 104:Drivers/lvgl/src/stdlib/builtin/lv_tlsf.c **** }
 1408              		.loc 1 104 5 is_stmt 1 view .LVU417
 105:Drivers/lvgl/src/stdlib/builtin/lv_tlsf.c **** 
 1409              		.loc 1 105 1 is_stmt 0 view .LVU418
 1410 000a 0138     		subs	r0, r0, #1
 1411              	.LVL116:
 105:Drivers/lvgl/src/stdlib/builtin/lv_tlsf.c **** 
 1412              		.loc 1 105 1 view .LVU419
 1413 000c 7047     		bx	lr
 1414              	.LVL117:
 1415              	.L87:
 103:Drivers/lvgl/src/stdlib/builtin/lv_tlsf.c ****     return bit - 1;
 1416              		.loc 1 103 53 discriminator 2 view .LVU420
 1417 000e 0020     		movs	r0, #0
 1418              	.LVL118:
 103:Drivers/lvgl/src/stdlib/builtin/lv_tlsf.c ****     return bit - 1;
 1419              		.loc 1 103 53 discriminator 2 view .LVU421
 1420 0010 FBE7     		b	.L86
 1421              		.cfi_endproc
 1422              	.LFE15:
 1424              		.section	.text.mapping_insert,"ax",%progbits
 1425              		.align	1
 1426              		.syntax unified
 1427              		.thumb
 1428              		.thumb_func
 1430              	mapping_insert:
 1431              	.LVL119:
 1432              	.LFB37:
 528:Drivers/lvgl/src/stdlib/builtin/lv_tlsf.c ****     int fl, sl;
 1433              		.loc 1 528 1 is_stmt 1 view -0
 1434              		.cfi_startproc
 1435              		@ args = 0, pretend = 0, frame = 0
 1436              		@ frame_needed = 0, uses_anonymous_args = 0
 528:Drivers/lvgl/src/stdlib/builtin/lv_tlsf.c ****     int fl, sl;
 1437              		.loc 1 528 1 is_stmt 0 view .LVU423
 1438 0000 70B5     		push	{r4, r5, r6, lr}
 1439              	.LCFI13:
 1440              		.cfi_def_cfa_offset 16
ARM GAS  /var/folders/qx/2_175_4n2s19vhvtspjhb3qh0000gn/T//cccJA90f.s 			page 42


 1441              		.cfi_offset 4, -16
 1442              		.cfi_offset 5, -12
 1443              		.cfi_offset 6, -8
 1444              		.cfi_offset 14, -4
 1445 0002 0446     		mov	r4, r0
 1446 0004 0D46     		mov	r5, r1
 1447 0006 1646     		mov	r6, r2
 529:Drivers/lvgl/src/stdlib/builtin/lv_tlsf.c ****     if(size < SMALL_BLOCK_SIZE) {
 1448              		.loc 1 529 5 is_stmt 1 view .LVU424
 530:Drivers/lvgl/src/stdlib/builtin/lv_tlsf.c ****         /* Store small blocks in first list. */
 1449              		.loc 1 530 5 view .LVU425
 530:Drivers/lvgl/src/stdlib/builtin/lv_tlsf.c ****         /* Store small blocks in first list. */
 1450              		.loc 1 530 7 is_stmt 0 view .LVU426
 1451 0008 7F28     		cmp	r0, #127
 1452 000a 09D8     		bhi	.L89
 532:Drivers/lvgl/src/stdlib/builtin/lv_tlsf.c ****         sl = tlsf_cast(int, size) / (SMALL_BLOCK_SIZE / SL_INDEX_COUNT);
 1453              		.loc 1 532 9 is_stmt 1 view .LVU427
 1454              	.LVL120:
 533:Drivers/lvgl/src/stdlib/builtin/lv_tlsf.c ****     }
 1455              		.loc 1 533 9 view .LVU428
 533:Drivers/lvgl/src/stdlib/builtin/lv_tlsf.c ****     }
 1456              		.loc 1 533 12 is_stmt 0 view .LVU429
 1457 000c 0346     		mov	r3, r0
 1458 000e 0028     		cmp	r0, #0
 1459 0010 04DB     		blt	.L93
 1460              	.L90:
 533:Drivers/lvgl/src/stdlib/builtin/lv_tlsf.c ****     }
 1461              		.loc 1 533 12 view .LVU430
 1462 0012 9C10     		asrs	r4, r3, #2
 1463              	.LVL121:
 532:Drivers/lvgl/src/stdlib/builtin/lv_tlsf.c ****         sl = tlsf_cast(int, size) / (SMALL_BLOCK_SIZE / SL_INDEX_COUNT);
 1464              		.loc 1 532 12 view .LVU431
 1465 0014 0020     		movs	r0, #0
 1466              	.LVL122:
 1467              	.L91:
 540:Drivers/lvgl/src/stdlib/builtin/lv_tlsf.c ****     *sli = sl;
 1468              		.loc 1 540 5 is_stmt 1 view .LVU432
 540:Drivers/lvgl/src/stdlib/builtin/lv_tlsf.c ****     *sli = sl;
 1469              		.loc 1 540 10 is_stmt 0 view .LVU433
 1470 0016 2860     		str	r0, [r5]
 541:Drivers/lvgl/src/stdlib/builtin/lv_tlsf.c **** }
 1471              		.loc 1 541 5 is_stmt 1 view .LVU434
 541:Drivers/lvgl/src/stdlib/builtin/lv_tlsf.c **** }
 1472              		.loc 1 541 10 is_stmt 0 view .LVU435
 1473 0018 3460     		str	r4, [r6]
 542:Drivers/lvgl/src/stdlib/builtin/lv_tlsf.c **** 
 1474              		.loc 1 542 1 view .LVU436
 1475 001a 70BD     		pop	{r4, r5, r6, pc}
 1476              	.LVL123:
 1477              	.L93:
 533:Drivers/lvgl/src/stdlib/builtin/lv_tlsf.c ****     }
 1478              		.loc 1 533 12 view .LVU437
 1479 001c C31C     		adds	r3, r0, #3
 1480 001e F8E7     		b	.L90
 1481              	.LVL124:
 1482              	.L89:
 536:Drivers/lvgl/src/stdlib/builtin/lv_tlsf.c ****         sl = tlsf_cast(int, size >> (fl - SL_INDEX_COUNT_LOG2)) ^ (1 << SL_INDEX_COUNT_LOG2);
ARM GAS  /var/folders/qx/2_175_4n2s19vhvtspjhb3qh0000gn/T//cccJA90f.s 			page 43


 1483              		.loc 1 536 9 is_stmt 1 view .LVU438
 536:Drivers/lvgl/src/stdlib/builtin/lv_tlsf.c ****         sl = tlsf_cast(int, size >> (fl - SL_INDEX_COUNT_LOG2)) ^ (1 << SL_INDEX_COUNT_LOG2);
 1484              		.loc 1 536 14 is_stmt 0 view .LVU439
 1485 0020 FFF7FEFF 		bl	tlsf_fls
 1486              	.LVL125:
 537:Drivers/lvgl/src/stdlib/builtin/lv_tlsf.c ****         fl -= (FL_INDEX_SHIFT - 1);
 1487              		.loc 1 537 9 is_stmt 1 view .LVU440
 537:Drivers/lvgl/src/stdlib/builtin/lv_tlsf.c ****         fl -= (FL_INDEX_SHIFT - 1);
 1488              		.loc 1 537 14 is_stmt 0 view .LVU441
 1489 0024 431F     		subs	r3, r0, #5
 1490 0026 DC40     		lsrs	r4, r4, r3
 1491              	.LVL126:
 537:Drivers/lvgl/src/stdlib/builtin/lv_tlsf.c ****         fl -= (FL_INDEX_SHIFT - 1);
 1492              		.loc 1 537 12 view .LVU442
 1493 0028 84F02004 		eor	r4, r4, #32
 1494              	.LVL127:
 538:Drivers/lvgl/src/stdlib/builtin/lv_tlsf.c ****     }
 1495              		.loc 1 538 9 is_stmt 1 view .LVU443
 538:Drivers/lvgl/src/stdlib/builtin/lv_tlsf.c ****     }
 1496              		.loc 1 538 12 is_stmt 0 view .LVU444
 1497 002c 0638     		subs	r0, r0, #6
 1498              	.LVL128:
 538:Drivers/lvgl/src/stdlib/builtin/lv_tlsf.c ****     }
 1499              		.loc 1 538 12 view .LVU445
 1500 002e F2E7     		b	.L91
 1501              		.cfi_endproc
 1502              	.LFE37:
 1504              		.section	.text.block_insert,"ax",%progbits
 1505              		.align	1
 1506              		.syntax unified
 1507              		.thumb
 1508              		.thumb_func
 1510              	block_insert:
 1511              	.LVL129:
 1512              	.LFB43:
 641:Drivers/lvgl/src/stdlib/builtin/lv_tlsf.c ****     int fl, sl;
 1513              		.loc 1 641 1 is_stmt 1 view -0
 1514              		.cfi_startproc
 1515              		@ args = 0, pretend = 0, frame = 8
 1516              		@ frame_needed = 0, uses_anonymous_args = 0
 641:Drivers/lvgl/src/stdlib/builtin/lv_tlsf.c ****     int fl, sl;
 1517              		.loc 1 641 1 is_stmt 0 view .LVU447
 1518 0000 30B5     		push	{r4, r5, lr}
 1519              	.LCFI14:
 1520              		.cfi_def_cfa_offset 12
 1521              		.cfi_offset 4, -12
 1522              		.cfi_offset 5, -8
 1523              		.cfi_offset 14, -4
 1524 0002 83B0     		sub	sp, sp, #12
 1525              	.LCFI15:
 1526              		.cfi_def_cfa_offset 24
 1527 0004 0546     		mov	r5, r0
 1528 0006 0C46     		mov	r4, r1
 642:Drivers/lvgl/src/stdlib/builtin/lv_tlsf.c ****     mapping_insert(block_size(block), &fl, &sl);
 1529              		.loc 1 642 5 is_stmt 1 view .LVU448
 643:Drivers/lvgl/src/stdlib/builtin/lv_tlsf.c ****     insert_free_block(control, block, fl, sl);
 1530              		.loc 1 643 5 view .LVU449
ARM GAS  /var/folders/qx/2_175_4n2s19vhvtspjhb3qh0000gn/T//cccJA90f.s 			page 44


 1531 0008 0846     		mov	r0, r1
 1532              	.LVL130:
 643:Drivers/lvgl/src/stdlib/builtin/lv_tlsf.c ****     insert_free_block(control, block, fl, sl);
 1533              		.loc 1 643 5 is_stmt 0 view .LVU450
 1534 000a FFF7FEFF 		bl	block_size
 1535              	.LVL131:
 643:Drivers/lvgl/src/stdlib/builtin/lv_tlsf.c ****     insert_free_block(control, block, fl, sl);
 1536              		.loc 1 643 5 discriminator 1 view .LVU451
 1537 000e 6A46     		mov	r2, sp
 1538 0010 01A9     		add	r1, sp, #4
 1539 0012 FFF7FEFF 		bl	mapping_insert
 1540              	.LVL132:
 644:Drivers/lvgl/src/stdlib/builtin/lv_tlsf.c **** }
 1541              		.loc 1 644 5 is_stmt 1 view .LVU452
 1542 0016 009B     		ldr	r3, [sp]
 1543 0018 019A     		ldr	r2, [sp, #4]
 1544 001a 2146     		mov	r1, r4
 1545 001c 2846     		mov	r0, r5
 1546 001e FFF7FEFF 		bl	insert_free_block
 1547              	.LVL133:
 645:Drivers/lvgl/src/stdlib/builtin/lv_tlsf.c **** 
 1548              		.loc 1 645 1 is_stmt 0 view .LVU453
 1549 0022 03B0     		add	sp, sp, #12
 1550              	.LCFI16:
 1551              		.cfi_def_cfa_offset 12
 1552              		@ sp needed
 1553 0024 30BD     		pop	{r4, r5, pc}
 645:Drivers/lvgl/src/stdlib/builtin/lv_tlsf.c **** 
 1554              		.loc 1 645 1 view .LVU454
 1555              		.cfi_endproc
 1556              	.LFE43:
 1558              		.section	.text.block_trim_free,"ax",%progbits
 1559              		.align	1
 1560              		.syntax unified
 1561              		.thumb
 1562              		.thumb_func
 1564              	block_trim_free:
 1565              	.LVL134:
 1566              	.LFB49:
 715:Drivers/lvgl/src/stdlib/builtin/lv_tlsf.c ****     tlsf_assert(block_is_free(block) && "block must be free");
 1567              		.loc 1 715 1 is_stmt 1 view -0
 1568              		.cfi_startproc
 1569              		@ args = 0, pretend = 0, frame = 0
 1570              		@ frame_needed = 0, uses_anonymous_args = 0
 715:Drivers/lvgl/src/stdlib/builtin/lv_tlsf.c ****     tlsf_assert(block_is_free(block) && "block must be free");
 1571              		.loc 1 715 1 is_stmt 0 view .LVU456
 1572 0000 70B5     		push	{r4, r5, r6, lr}
 1573              	.LCFI17:
 1574              		.cfi_def_cfa_offset 16
 1575              		.cfi_offset 4, -16
 1576              		.cfi_offset 5, -12
 1577              		.cfi_offset 6, -8
 1578              		.cfi_offset 14, -4
 1579 0002 0646     		mov	r6, r0
 1580 0004 0C46     		mov	r4, r1
 1581 0006 1546     		mov	r5, r2
 716:Drivers/lvgl/src/stdlib/builtin/lv_tlsf.c ****     if(block_can_split(block, size)) {
ARM GAS  /var/folders/qx/2_175_4n2s19vhvtspjhb3qh0000gn/T//cccJA90f.s 			page 45


 1582              		.loc 1 716 5 is_stmt 1 view .LVU457
 716:Drivers/lvgl/src/stdlib/builtin/lv_tlsf.c ****     if(block_can_split(block, size)) {
 1583              		.loc 1 716 5 view .LVU458
 1584 0008 0846     		mov	r0, r1
 1585              	.LVL135:
 716:Drivers/lvgl/src/stdlib/builtin/lv_tlsf.c ****     if(block_can_split(block, size)) {
 1586              		.loc 1 716 5 is_stmt 0 view .LVU459
 1587 000a FFF7FEFF 		bl	block_is_free
 1588              	.LVL136:
 716:Drivers/lvgl/src/stdlib/builtin/lv_tlsf.c ****     if(block_can_split(block, size)) {
 1589              		.loc 1 716 5 discriminator 1 view .LVU460
 1590 000e 00B9     		cbnz	r0, .L97
 1591              	.L98:
 716:Drivers/lvgl/src/stdlib/builtin/lv_tlsf.c ****     if(block_can_split(block, size)) {
 1592              		.loc 1 716 5 is_stmt 1 view .LVU461
 716:Drivers/lvgl/src/stdlib/builtin/lv_tlsf.c ****     if(block_can_split(block, size)) {
 1593              		.loc 1 716 5 view .LVU462
 716:Drivers/lvgl/src/stdlib/builtin/lv_tlsf.c ****     if(block_can_split(block, size)) {
 1594              		.loc 1 716 5 view .LVU463
 716:Drivers/lvgl/src/stdlib/builtin/lv_tlsf.c ****     if(block_can_split(block, size)) {
 1595              		.loc 1 716 5 view .LVU464
 716:Drivers/lvgl/src/stdlib/builtin/lv_tlsf.c ****     if(block_can_split(block, size)) {
 1596              		.loc 1 716 5 view .LVU465
 1597 0010 FEE7     		b	.L98
 1598              	.L97:
 716:Drivers/lvgl/src/stdlib/builtin/lv_tlsf.c ****     if(block_can_split(block, size)) {
 1599              		.loc 1 716 5 view .LVU466
 717:Drivers/lvgl/src/stdlib/builtin/lv_tlsf.c ****         block_header_t * remaining_block = block_split(block, size);
 1600              		.loc 1 717 5 view .LVU467
 717:Drivers/lvgl/src/stdlib/builtin/lv_tlsf.c ****         block_header_t * remaining_block = block_split(block, size);
 1601              		.loc 1 717 8 is_stmt 0 view .LVU468
 1602 0012 2946     		mov	r1, r5
 1603 0014 2046     		mov	r0, r4
 1604 0016 FFF7FEFF 		bl	block_can_split
 1605              	.LVL137:
 717:Drivers/lvgl/src/stdlib/builtin/lv_tlsf.c ****         block_header_t * remaining_block = block_split(block, size);
 1606              		.loc 1 717 7 discriminator 1 view .LVU469
 1607 001a 00B9     		cbnz	r0, .L101
 1608              	.LVL138:
 1609              	.L96:
 723:Drivers/lvgl/src/stdlib/builtin/lv_tlsf.c **** 
 1610              		.loc 1 723 1 view .LVU470
 1611 001c 70BD     		pop	{r4, r5, r6, pc}
 1612              	.LVL139:
 1613              	.L101:
 1614              	.LBB3:
 718:Drivers/lvgl/src/stdlib/builtin/lv_tlsf.c ****         block_link_next(block);
 1615              		.loc 1 718 9 is_stmt 1 view .LVU471
 718:Drivers/lvgl/src/stdlib/builtin/lv_tlsf.c ****         block_link_next(block);
 1616              		.loc 1 718 44 is_stmt 0 view .LVU472
 1617 001e 2946     		mov	r1, r5
 1618 0020 2046     		mov	r0, r4
 1619 0022 FFF7FEFF 		bl	block_split
 1620              	.LVL140:
 1621 0026 0546     		mov	r5, r0
 1622              	.LVL141:
 719:Drivers/lvgl/src/stdlib/builtin/lv_tlsf.c ****         block_set_prev_free(remaining_block);
ARM GAS  /var/folders/qx/2_175_4n2s19vhvtspjhb3qh0000gn/T//cccJA90f.s 			page 46


 1623              		.loc 1 719 9 is_stmt 1 view .LVU473
 1624 0028 2046     		mov	r0, r4
 1625              	.LVL142:
 719:Drivers/lvgl/src/stdlib/builtin/lv_tlsf.c ****         block_set_prev_free(remaining_block);
 1626              		.loc 1 719 9 is_stmt 0 view .LVU474
 1627 002a FFF7FEFF 		bl	block_link_next
 1628              	.LVL143:
 720:Drivers/lvgl/src/stdlib/builtin/lv_tlsf.c ****         block_insert(control, remaining_block);
 1629              		.loc 1 720 9 is_stmt 1 view .LVU475
 1630 002e 2846     		mov	r0, r5
 1631 0030 FFF7FEFF 		bl	block_set_prev_free
 1632              	.LVL144:
 721:Drivers/lvgl/src/stdlib/builtin/lv_tlsf.c ****     }
 1633              		.loc 1 721 9 view .LVU476
 1634 0034 2946     		mov	r1, r5
 1635 0036 3046     		mov	r0, r6
 1636 0038 FFF7FEFF 		bl	block_insert
 1637              	.LVL145:
 1638              	.LBE3:
 723:Drivers/lvgl/src/stdlib/builtin/lv_tlsf.c **** 
 1639              		.loc 1 723 1 is_stmt 0 view .LVU477
 1640 003c EEE7     		b	.L96
 1641              		.cfi_endproc
 1642              	.LFE49:
 1644              		.section	.text.block_prepare_used,"ax",%progbits
 1645              		.align	1
 1646              		.syntax unified
 1647              		.thumb
 1648              		.thumb_func
 1650              	block_prepare_used:
 1651              	.LVL146:
 1652              	.LFB53:
 782:Drivers/lvgl/src/stdlib/builtin/lv_tlsf.c ****     void * p = 0;
 1653              		.loc 1 782 1 is_stmt 1 view -0
 1654              		.cfi_startproc
 1655              		@ args = 0, pretend = 0, frame = 0
 1656              		@ frame_needed = 0, uses_anonymous_args = 0
 782:Drivers/lvgl/src/stdlib/builtin/lv_tlsf.c ****     void * p = 0;
 1657              		.loc 1 782 1 is_stmt 0 view .LVU479
 1658 0000 10B5     		push	{r4, lr}
 1659              	.LCFI18:
 1660              		.cfi_def_cfa_offset 8
 1661              		.cfi_offset 4, -8
 1662              		.cfi_offset 14, -4
 783:Drivers/lvgl/src/stdlib/builtin/lv_tlsf.c ****     if(block) {
 1663              		.loc 1 783 5 is_stmt 1 view .LVU480
 1664              	.LVL147:
 784:Drivers/lvgl/src/stdlib/builtin/lv_tlsf.c ****         tlsf_assert(size && "size must be non-zero");
 1665              		.loc 1 784 5 view .LVU481
 784:Drivers/lvgl/src/stdlib/builtin/lv_tlsf.c ****         tlsf_assert(size && "size must be non-zero");
 1666              		.loc 1 784 7 is_stmt 0 view .LVU482
 1667 0002 0C46     		mov	r4, r1
 1668 0004 51B1     		cbz	r1, .L106
 785:Drivers/lvgl/src/stdlib/builtin/lv_tlsf.c ****         block_trim_free(control, block, size);
 1669              		.loc 1 785 9 is_stmt 1 view .LVU483
 785:Drivers/lvgl/src/stdlib/builtin/lv_tlsf.c ****         block_trim_free(control, block, size);
 1670              		.loc 1 785 9 view .LVU484
ARM GAS  /var/folders/qx/2_175_4n2s19vhvtspjhb3qh0000gn/T//cccJA90f.s 			page 47


 1671 0006 02B9     		cbnz	r2, .L104
 1672              	.L105:
 785:Drivers/lvgl/src/stdlib/builtin/lv_tlsf.c ****         block_trim_free(control, block, size);
 1673              		.loc 1 785 9 view .LVU485
 785:Drivers/lvgl/src/stdlib/builtin/lv_tlsf.c ****         block_trim_free(control, block, size);
 1674              		.loc 1 785 9 view .LVU486
 785:Drivers/lvgl/src/stdlib/builtin/lv_tlsf.c ****         block_trim_free(control, block, size);
 1675              		.loc 1 785 9 view .LVU487
 785:Drivers/lvgl/src/stdlib/builtin/lv_tlsf.c ****         block_trim_free(control, block, size);
 1676              		.loc 1 785 9 view .LVU488
 785:Drivers/lvgl/src/stdlib/builtin/lv_tlsf.c ****         block_trim_free(control, block, size);
 1677              		.loc 1 785 9 view .LVU489
 1678 0008 FEE7     		b	.L105
 1679              	.L104:
 785:Drivers/lvgl/src/stdlib/builtin/lv_tlsf.c ****         block_trim_free(control, block, size);
 1680              		.loc 1 785 9 view .LVU490
 786:Drivers/lvgl/src/stdlib/builtin/lv_tlsf.c ****         block_mark_as_used(block);
 1681              		.loc 1 786 9 view .LVU491
 1682 000a FFF7FEFF 		bl	block_trim_free
 1683              	.LVL148:
 787:Drivers/lvgl/src/stdlib/builtin/lv_tlsf.c ****         p = block_to_ptr(block);
 1684              		.loc 1 787 9 view .LVU492
 1685 000e 2046     		mov	r0, r4
 1686 0010 FFF7FEFF 		bl	block_mark_as_used
 1687              	.LVL149:
 788:Drivers/lvgl/src/stdlib/builtin/lv_tlsf.c ****     }
 1688              		.loc 1 788 9 view .LVU493
 788:Drivers/lvgl/src/stdlib/builtin/lv_tlsf.c ****     }
 1689              		.loc 1 788 13 is_stmt 0 view .LVU494
 1690 0014 2046     		mov	r0, r4
 1691 0016 FFF7FEFF 		bl	block_to_ptr
 1692              	.LVL150:
 1693              	.L102:
 791:Drivers/lvgl/src/stdlib/builtin/lv_tlsf.c **** 
 1694              		.loc 1 791 1 view .LVU495
 1695 001a 10BD     		pop	{r4, pc}
 1696              	.LVL151:
 1697              	.L106:
 783:Drivers/lvgl/src/stdlib/builtin/lv_tlsf.c ****     if(block) {
 1698              		.loc 1 783 12 view .LVU496
 1699 001c 0846     		mov	r0, r1
 1700              	.LVL152:
 790:Drivers/lvgl/src/stdlib/builtin/lv_tlsf.c **** }
 1701              		.loc 1 790 5 is_stmt 1 view .LVU497
 790:Drivers/lvgl/src/stdlib/builtin/lv_tlsf.c **** }
 1702              		.loc 1 790 12 is_stmt 0 view .LVU498
 1703 001e FCE7     		b	.L102
 1704              		.cfi_endproc
 1705              	.LFE53:
 1707              		.section	.text.block_trim_free_leading,"ax",%progbits
 1708              		.align	1
 1709              		.syntax unified
 1710              		.thumb
 1711              		.thumb_func
 1713              	block_trim_free_leading:
 1714              	.LVL153:
 1715              	.LFB51:
ARM GAS  /var/folders/qx/2_175_4n2s19vhvtspjhb3qh0000gn/T//cccJA90f.s 			page 48


 740:Drivers/lvgl/src/stdlib/builtin/lv_tlsf.c ****     block_header_t * remaining_block = block;
 1716              		.loc 1 740 1 is_stmt 1 view -0
 1717              		.cfi_startproc
 1718              		@ args = 0, pretend = 0, frame = 0
 1719              		@ frame_needed = 0, uses_anonymous_args = 0
 740:Drivers/lvgl/src/stdlib/builtin/lv_tlsf.c ****     block_header_t * remaining_block = block;
 1720              		.loc 1 740 1 is_stmt 0 view .LVU500
 1721 0000 70B5     		push	{r4, r5, r6, lr}
 1722              	.LCFI19:
 1723              		.cfi_def_cfa_offset 16
 1724              		.cfi_offset 4, -16
 1725              		.cfi_offset 5, -12
 1726              		.cfi_offset 6, -8
 1727              		.cfi_offset 14, -4
 1728 0002 0646     		mov	r6, r0
 1729 0004 0C46     		mov	r4, r1
 1730 0006 1546     		mov	r5, r2
 741:Drivers/lvgl/src/stdlib/builtin/lv_tlsf.c ****     if(block_can_split(block, size)) {
 1731              		.loc 1 741 5 is_stmt 1 view .LVU501
 1732              	.LVL154:
 742:Drivers/lvgl/src/stdlib/builtin/lv_tlsf.c ****         /* We want the 2nd block. */
 1733              		.loc 1 742 5 view .LVU502
 742:Drivers/lvgl/src/stdlib/builtin/lv_tlsf.c ****         /* We want the 2nd block. */
 1734              		.loc 1 742 8 is_stmt 0 view .LVU503
 1735 0008 1146     		mov	r1, r2
 1736              	.LVL155:
 742:Drivers/lvgl/src/stdlib/builtin/lv_tlsf.c ****         /* We want the 2nd block. */
 1737              		.loc 1 742 8 view .LVU504
 1738 000a 2046     		mov	r0, r4
 1739              	.LVL156:
 742:Drivers/lvgl/src/stdlib/builtin/lv_tlsf.c ****         /* We want the 2nd block. */
 1740              		.loc 1 742 8 view .LVU505
 1741 000c FFF7FEFF 		bl	block_can_split
 1742              	.LVL157:
 742:Drivers/lvgl/src/stdlib/builtin/lv_tlsf.c ****         /* We want the 2nd block. */
 1743              		.loc 1 742 7 discriminator 1 view .LVU506
 1744 0010 08B9     		cbnz	r0, .L111
 1745              	.LVL158:
 1746              	.L109:
 751:Drivers/lvgl/src/stdlib/builtin/lv_tlsf.c **** }
 1747              		.loc 1 751 5 is_stmt 1 view .LVU507
 752:Drivers/lvgl/src/stdlib/builtin/lv_tlsf.c **** 
 1748              		.loc 1 752 1 is_stmt 0 view .LVU508
 1749 0012 2046     		mov	r0, r4
 1750 0014 70BD     		pop	{r4, r5, r6, pc}
 1751              	.LVL159:
 1752              	.L111:
 744:Drivers/lvgl/src/stdlib/builtin/lv_tlsf.c ****         block_set_prev_free(remaining_block);
 1753              		.loc 1 744 9 is_stmt 1 view .LVU509
 744:Drivers/lvgl/src/stdlib/builtin/lv_tlsf.c ****         block_set_prev_free(remaining_block);
 1754              		.loc 1 744 27 is_stmt 0 view .LVU510
 1755 0016 291F     		subs	r1, r5, #4
 1756 0018 2046     		mov	r0, r4
 1757 001a FFF7FEFF 		bl	block_split
 1758              	.LVL160:
 1759 001e 0546     		mov	r5, r0
 1760              	.LVL161:
ARM GAS  /var/folders/qx/2_175_4n2s19vhvtspjhb3qh0000gn/T//cccJA90f.s 			page 49


 745:Drivers/lvgl/src/stdlib/builtin/lv_tlsf.c **** 
 1761              		.loc 1 745 9 is_stmt 1 view .LVU511
 1762 0020 FFF7FEFF 		bl	block_set_prev_free
 1763              	.LVL162:
 747:Drivers/lvgl/src/stdlib/builtin/lv_tlsf.c ****         block_insert(control, block);
 1764              		.loc 1 747 9 view .LVU512
 1765 0024 2046     		mov	r0, r4
 1766 0026 FFF7FEFF 		bl	block_link_next
 1767              	.LVL163:
 748:Drivers/lvgl/src/stdlib/builtin/lv_tlsf.c ****     }
 1768              		.loc 1 748 9 view .LVU513
 1769 002a 2146     		mov	r1, r4
 1770 002c 3046     		mov	r0, r6
 1771 002e FFF7FEFF 		bl	block_insert
 1772              	.LVL164:
 744:Drivers/lvgl/src/stdlib/builtin/lv_tlsf.c ****         block_set_prev_free(remaining_block);
 1773              		.loc 1 744 27 is_stmt 0 view .LVU514
 1774 0032 2C46     		mov	r4, r5
 1775              	.LVL165:
 744:Drivers/lvgl/src/stdlib/builtin/lv_tlsf.c ****         block_set_prev_free(remaining_block);
 1776              		.loc 1 744 27 view .LVU515
 1777 0034 EDE7     		b	.L109
 1778              		.cfi_endproc
 1779              	.LFE51:
 1781              		.section	.text.block_remove,"ax",%progbits
 1782              		.align	1
 1783              		.syntax unified
 1784              		.thumb
 1785              		.thumb_func
 1787              	block_remove:
 1788              	.LVL166:
 1789              	.LFB42:
 633:Drivers/lvgl/src/stdlib/builtin/lv_tlsf.c ****     int fl, sl;
 1790              		.loc 1 633 1 is_stmt 1 view -0
 1791              		.cfi_startproc
 1792              		@ args = 0, pretend = 0, frame = 8
 1793              		@ frame_needed = 0, uses_anonymous_args = 0
 633:Drivers/lvgl/src/stdlib/builtin/lv_tlsf.c ****     int fl, sl;
 1794              		.loc 1 633 1 is_stmt 0 view .LVU517
 1795 0000 30B5     		push	{r4, r5, lr}
 1796              	.LCFI20:
 1797              		.cfi_def_cfa_offset 12
 1798              		.cfi_offset 4, -12
 1799              		.cfi_offset 5, -8
 1800              		.cfi_offset 14, -4
 1801 0002 83B0     		sub	sp, sp, #12
 1802              	.LCFI21:
 1803              		.cfi_def_cfa_offset 24
 1804 0004 0546     		mov	r5, r0
 1805 0006 0C46     		mov	r4, r1
 634:Drivers/lvgl/src/stdlib/builtin/lv_tlsf.c ****     mapping_insert(block_size(block), &fl, &sl);
 1806              		.loc 1 634 5 is_stmt 1 view .LVU518
 635:Drivers/lvgl/src/stdlib/builtin/lv_tlsf.c ****     remove_free_block(control, block, fl, sl);
 1807              		.loc 1 635 5 view .LVU519
 1808 0008 0846     		mov	r0, r1
 1809              	.LVL167:
 635:Drivers/lvgl/src/stdlib/builtin/lv_tlsf.c ****     remove_free_block(control, block, fl, sl);
ARM GAS  /var/folders/qx/2_175_4n2s19vhvtspjhb3qh0000gn/T//cccJA90f.s 			page 50


 1810              		.loc 1 635 5 is_stmt 0 view .LVU520
 1811 000a FFF7FEFF 		bl	block_size
 1812              	.LVL168:
 635:Drivers/lvgl/src/stdlib/builtin/lv_tlsf.c ****     remove_free_block(control, block, fl, sl);
 1813              		.loc 1 635 5 discriminator 1 view .LVU521
 1814 000e 6A46     		mov	r2, sp
 1815 0010 01A9     		add	r1, sp, #4
 1816 0012 FFF7FEFF 		bl	mapping_insert
 1817              	.LVL169:
 636:Drivers/lvgl/src/stdlib/builtin/lv_tlsf.c **** }
 1818              		.loc 1 636 5 is_stmt 1 view .LVU522
 1819 0016 009B     		ldr	r3, [sp]
 1820 0018 019A     		ldr	r2, [sp, #4]
 1821 001a 2146     		mov	r1, r4
 1822 001c 2846     		mov	r0, r5
 1823 001e FFF7FEFF 		bl	remove_free_block
 1824              	.LVL170:
 637:Drivers/lvgl/src/stdlib/builtin/lv_tlsf.c **** 
 1825              		.loc 1 637 1 is_stmt 0 view .LVU523
 1826 0022 03B0     		add	sp, sp, #12
 1827              	.LCFI22:
 1828              		.cfi_def_cfa_offset 12
 1829              		@ sp needed
 1830 0024 30BD     		pop	{r4, r5, pc}
 637:Drivers/lvgl/src/stdlib/builtin/lv_tlsf.c **** 
 1831              		.loc 1 637 1 view .LVU524
 1832              		.cfi_endproc
 1833              	.LFE42:
 1835              		.section	.text.block_merge_prev,"ax",%progbits
 1836              		.align	1
 1837              		.syntax unified
 1838              		.thumb
 1839              		.thumb_func
 1841              	block_merge_prev:
 1842              	.LVL171:
 1843              	.LFB47:
 686:Drivers/lvgl/src/stdlib/builtin/lv_tlsf.c ****     if(block_is_prev_free(block)) {
 1844              		.loc 1 686 1 is_stmt 1 view -0
 1845              		.cfi_startproc
 1846              		@ args = 0, pretend = 0, frame = 0
 1847              		@ frame_needed = 0, uses_anonymous_args = 0
 686:Drivers/lvgl/src/stdlib/builtin/lv_tlsf.c ****     if(block_is_prev_free(block)) {
 1848              		.loc 1 686 1 is_stmt 0 view .LVU526
 1849 0000 70B5     		push	{r4, r5, r6, lr}
 1850              	.LCFI23:
 1851              		.cfi_def_cfa_offset 16
 1852              		.cfi_offset 4, -16
 1853              		.cfi_offset 5, -12
 1854              		.cfi_offset 6, -8
 1855              		.cfi_offset 14, -4
 1856 0002 0546     		mov	r5, r0
 1857 0004 0C46     		mov	r4, r1
 687:Drivers/lvgl/src/stdlib/builtin/lv_tlsf.c ****         block_header_t * prev = block_prev(block);
 1858              		.loc 1 687 5 is_stmt 1 view .LVU527
 687:Drivers/lvgl/src/stdlib/builtin/lv_tlsf.c ****         block_header_t * prev = block_prev(block);
 1859              		.loc 1 687 8 is_stmt 0 view .LVU528
 1860 0006 0846     		mov	r0, r1
ARM GAS  /var/folders/qx/2_175_4n2s19vhvtspjhb3qh0000gn/T//cccJA90f.s 			page 51


 1861              	.LVL172:
 687:Drivers/lvgl/src/stdlib/builtin/lv_tlsf.c ****         block_header_t * prev = block_prev(block);
 1862              		.loc 1 687 8 view .LVU529
 1863 0008 FFF7FEFF 		bl	block_is_prev_free
 1864              	.LVL173:
 687:Drivers/lvgl/src/stdlib/builtin/lv_tlsf.c ****         block_header_t * prev = block_prev(block);
 1865              		.loc 1 687 7 discriminator 1 view .LVU530
 1866 000c 08B9     		cbnz	r0, .L121
 1867              	.LVL174:
 1868              	.L115:
 695:Drivers/lvgl/src/stdlib/builtin/lv_tlsf.c **** }
 1869              		.loc 1 695 5 is_stmt 1 view .LVU531
 696:Drivers/lvgl/src/stdlib/builtin/lv_tlsf.c **** 
 1870              		.loc 1 696 1 is_stmt 0 view .LVU532
 1871 000e 2046     		mov	r0, r4
 1872 0010 70BD     		pop	{r4, r5, r6, pc}
 1873              	.LVL175:
 1874              	.L121:
 1875              	.LBB4:
 688:Drivers/lvgl/src/stdlib/builtin/lv_tlsf.c ****         tlsf_assert(prev && "prev physical block can't be null");
 1876              		.loc 1 688 9 is_stmt 1 view .LVU533
 688:Drivers/lvgl/src/stdlib/builtin/lv_tlsf.c ****         tlsf_assert(prev && "prev physical block can't be null");
 1877              		.loc 1 688 33 is_stmt 0 view .LVU534
 1878 0012 2046     		mov	r0, r4
 1879 0014 FFF7FEFF 		bl	block_prev
 1880              	.LVL176:
 689:Drivers/lvgl/src/stdlib/builtin/lv_tlsf.c ****         tlsf_assert(block_is_free(prev) && "prev block is not free though marked as such");
 1881              		.loc 1 689 9 is_stmt 1 view .LVU535
 689:Drivers/lvgl/src/stdlib/builtin/lv_tlsf.c ****         tlsf_assert(block_is_free(prev) && "prev block is not free though marked as such");
 1882              		.loc 1 689 9 view .LVU536
 1883 0018 0646     		mov	r6, r0
 1884 001a 18B1     		cbz	r0, .L117
 689:Drivers/lvgl/src/stdlib/builtin/lv_tlsf.c ****         tlsf_assert(block_is_free(prev) && "prev block is not free though marked as such");
 1885              		.loc 1 689 9 view .LVU537
 690:Drivers/lvgl/src/stdlib/builtin/lv_tlsf.c ****         block_remove(control, prev);
 1886              		.loc 1 690 9 view .LVU538
 690:Drivers/lvgl/src/stdlib/builtin/lv_tlsf.c ****         block_remove(control, prev);
 1887              		.loc 1 690 9 view .LVU539
 1888 001c FFF7FEFF 		bl	block_is_free
 1889              	.LVL177:
 690:Drivers/lvgl/src/stdlib/builtin/lv_tlsf.c ****         block_remove(control, prev);
 1890              		.loc 1 690 9 is_stmt 0 discriminator 1 view .LVU540
 1891 0020 08B9     		cbnz	r0, .L118
 1892              	.L119:
 690:Drivers/lvgl/src/stdlib/builtin/lv_tlsf.c ****         block_remove(control, prev);
 1893              		.loc 1 690 9 is_stmt 1 view .LVU541
 690:Drivers/lvgl/src/stdlib/builtin/lv_tlsf.c ****         block_remove(control, prev);
 1894              		.loc 1 690 9 view .LVU542
 690:Drivers/lvgl/src/stdlib/builtin/lv_tlsf.c ****         block_remove(control, prev);
 1895              		.loc 1 690 9 view .LVU543
 690:Drivers/lvgl/src/stdlib/builtin/lv_tlsf.c ****         block_remove(control, prev);
 1896              		.loc 1 690 9 view .LVU544
 690:Drivers/lvgl/src/stdlib/builtin/lv_tlsf.c ****         block_remove(control, prev);
 1897              		.loc 1 690 9 view .LVU545
 1898 0022 FEE7     		b	.L119
 1899              	.LVL178:
 1900              	.L117:
ARM GAS  /var/folders/qx/2_175_4n2s19vhvtspjhb3qh0000gn/T//cccJA90f.s 			page 52


 689:Drivers/lvgl/src/stdlib/builtin/lv_tlsf.c ****         tlsf_assert(block_is_free(prev) && "prev block is not free though marked as such");
 1901              		.loc 1 689 9 view .LVU546
 689:Drivers/lvgl/src/stdlib/builtin/lv_tlsf.c ****         tlsf_assert(block_is_free(prev) && "prev block is not free though marked as such");
 1902              		.loc 1 689 9 view .LVU547
 689:Drivers/lvgl/src/stdlib/builtin/lv_tlsf.c ****         tlsf_assert(block_is_free(prev) && "prev block is not free though marked as such");
 1903              		.loc 1 689 9 view .LVU548
 689:Drivers/lvgl/src/stdlib/builtin/lv_tlsf.c ****         tlsf_assert(block_is_free(prev) && "prev block is not free though marked as such");
 1904              		.loc 1 689 9 view .LVU549
 689:Drivers/lvgl/src/stdlib/builtin/lv_tlsf.c ****         tlsf_assert(block_is_free(prev) && "prev block is not free though marked as such");
 1905              		.loc 1 689 9 view .LVU550
 1906 0024 FEE7     		b	.L117
 1907              	.LVL179:
 1908              	.L118:
 690:Drivers/lvgl/src/stdlib/builtin/lv_tlsf.c ****         block_remove(control, prev);
 1909              		.loc 1 690 9 view .LVU551
 691:Drivers/lvgl/src/stdlib/builtin/lv_tlsf.c ****         block = block_absorb(prev, block);
 1910              		.loc 1 691 9 view .LVU552
 1911 0026 3146     		mov	r1, r6
 1912 0028 2846     		mov	r0, r5
 1913 002a FFF7FEFF 		bl	block_remove
 1914              	.LVL180:
 692:Drivers/lvgl/src/stdlib/builtin/lv_tlsf.c ****     }
 1915              		.loc 1 692 9 view .LVU553
 692:Drivers/lvgl/src/stdlib/builtin/lv_tlsf.c ****     }
 1916              		.loc 1 692 17 is_stmt 0 view .LVU554
 1917 002e 2146     		mov	r1, r4
 1918 0030 3046     		mov	r0, r6
 1919 0032 FFF7FEFF 		bl	block_absorb
 1920              	.LVL181:
 1921 0036 0446     		mov	r4, r0
 1922              	.LVL182:
 692:Drivers/lvgl/src/stdlib/builtin/lv_tlsf.c ****     }
 1923              		.loc 1 692 17 view .LVU555
 1924 0038 E9E7     		b	.L115
 1925              	.LBE4:
 1926              		.cfi_endproc
 1927              	.LFE47:
 1929              		.section	.text.block_merge_next,"ax",%progbits
 1930              		.align	1
 1931              		.syntax unified
 1932              		.thumb
 1933              		.thumb_func
 1935              	block_merge_next:
 1936              	.LVL183:
 1937              	.LFB48:
 700:Drivers/lvgl/src/stdlib/builtin/lv_tlsf.c ****     block_header_t * next = block_next(block);
 1938              		.loc 1 700 1 is_stmt 1 view -0
 1939              		.cfi_startproc
 1940              		@ args = 0, pretend = 0, frame = 0
 1941              		@ frame_needed = 0, uses_anonymous_args = 0
 700:Drivers/lvgl/src/stdlib/builtin/lv_tlsf.c ****     block_header_t * next = block_next(block);
 1942              		.loc 1 700 1 is_stmt 0 view .LVU557
 1943 0000 70B5     		push	{r4, r5, r6, lr}
 1944              	.LCFI24:
 1945              		.cfi_def_cfa_offset 16
 1946              		.cfi_offset 4, -16
 1947              		.cfi_offset 5, -12
ARM GAS  /var/folders/qx/2_175_4n2s19vhvtspjhb3qh0000gn/T//cccJA90f.s 			page 53


 1948              		.cfi_offset 6, -8
 1949              		.cfi_offset 14, -4
 1950 0002 0546     		mov	r5, r0
 1951 0004 0C46     		mov	r4, r1
 701:Drivers/lvgl/src/stdlib/builtin/lv_tlsf.c ****     tlsf_assert(next && "next physical block can't be null");
 1952              		.loc 1 701 5 is_stmt 1 view .LVU558
 701:Drivers/lvgl/src/stdlib/builtin/lv_tlsf.c ****     tlsf_assert(next && "next physical block can't be null");
 1953              		.loc 1 701 29 is_stmt 0 view .LVU559
 1954 0006 0846     		mov	r0, r1
 1955              	.LVL184:
 701:Drivers/lvgl/src/stdlib/builtin/lv_tlsf.c ****     tlsf_assert(next && "next physical block can't be null");
 1956              		.loc 1 701 29 view .LVU560
 1957 0008 FFF7FEFF 		bl	block_next
 1958              	.LVL185:
 702:Drivers/lvgl/src/stdlib/builtin/lv_tlsf.c **** 
 1959              		.loc 1 702 5 is_stmt 1 view .LVU561
 702:Drivers/lvgl/src/stdlib/builtin/lv_tlsf.c **** 
 1960              		.loc 1 702 5 view .LVU562
 1961 000c 40B1     		cbz	r0, .L124
 1962 000e 0646     		mov	r6, r0
 702:Drivers/lvgl/src/stdlib/builtin/lv_tlsf.c **** 
 1963              		.loc 1 702 5 view .LVU563
 704:Drivers/lvgl/src/stdlib/builtin/lv_tlsf.c ****         tlsf_assert(!block_is_last(block) && "previous block can't be last");
 1964              		.loc 1 704 5 view .LVU564
 704:Drivers/lvgl/src/stdlib/builtin/lv_tlsf.c ****         tlsf_assert(!block_is_last(block) && "previous block can't be last");
 1965              		.loc 1 704 8 is_stmt 0 view .LVU565
 1966 0010 FFF7FEFF 		bl	block_is_free
 1967              	.LVL186:
 704:Drivers/lvgl/src/stdlib/builtin/lv_tlsf.c ****         tlsf_assert(!block_is_last(block) && "previous block can't be last");
 1968              		.loc 1 704 7 discriminator 1 view .LVU566
 1969 0014 70B1     		cbz	r0, .L125
 705:Drivers/lvgl/src/stdlib/builtin/lv_tlsf.c ****         block_remove(control, next);
 1970              		.loc 1 705 9 is_stmt 1 view .LVU567
 705:Drivers/lvgl/src/stdlib/builtin/lv_tlsf.c ****         block_remove(control, next);
 1971              		.loc 1 705 9 view .LVU568
 1972 0016 2046     		mov	r0, r4
 1973 0018 FFF7FEFF 		bl	block_is_last
 1974              	.LVL187:
 705:Drivers/lvgl/src/stdlib/builtin/lv_tlsf.c ****         block_remove(control, next);
 1975              		.loc 1 705 9 is_stmt 0 discriminator 1 view .LVU569
 1976 001c 08B1     		cbz	r0, .L126
 1977              	.L127:
 705:Drivers/lvgl/src/stdlib/builtin/lv_tlsf.c ****         block_remove(control, next);
 1978              		.loc 1 705 9 is_stmt 1 view .LVU570
 705:Drivers/lvgl/src/stdlib/builtin/lv_tlsf.c ****         block_remove(control, next);
 1979              		.loc 1 705 9 view .LVU571
 705:Drivers/lvgl/src/stdlib/builtin/lv_tlsf.c ****         block_remove(control, next);
 1980              		.loc 1 705 9 view .LVU572
 705:Drivers/lvgl/src/stdlib/builtin/lv_tlsf.c ****         block_remove(control, next);
 1981              		.loc 1 705 9 view .LVU573
 705:Drivers/lvgl/src/stdlib/builtin/lv_tlsf.c ****         block_remove(control, next);
 1982              		.loc 1 705 9 view .LVU574
 1983 001e FEE7     		b	.L127
 1984              	.LVL188:
 1985              	.L124:
 702:Drivers/lvgl/src/stdlib/builtin/lv_tlsf.c **** 
 1986              		.loc 1 702 5 view .LVU575
ARM GAS  /var/folders/qx/2_175_4n2s19vhvtspjhb3qh0000gn/T//cccJA90f.s 			page 54


 702:Drivers/lvgl/src/stdlib/builtin/lv_tlsf.c **** 
 1987              		.loc 1 702 5 view .LVU576
 702:Drivers/lvgl/src/stdlib/builtin/lv_tlsf.c **** 
 1988              		.loc 1 702 5 view .LVU577
 702:Drivers/lvgl/src/stdlib/builtin/lv_tlsf.c **** 
 1989              		.loc 1 702 5 view .LVU578
 702:Drivers/lvgl/src/stdlib/builtin/lv_tlsf.c **** 
 1990              		.loc 1 702 5 view .LVU579
 1991 0020 FEE7     		b	.L124
 1992              	.LVL189:
 1993              	.L126:
 705:Drivers/lvgl/src/stdlib/builtin/lv_tlsf.c ****         block_remove(control, next);
 1994              		.loc 1 705 9 view .LVU580
 706:Drivers/lvgl/src/stdlib/builtin/lv_tlsf.c ****         block = block_absorb(block, next);
 1995              		.loc 1 706 9 view .LVU581
 1996 0022 3146     		mov	r1, r6
 1997 0024 2846     		mov	r0, r5
 1998 0026 FFF7FEFF 		bl	block_remove
 1999              	.LVL190:
 707:Drivers/lvgl/src/stdlib/builtin/lv_tlsf.c ****     }
 2000              		.loc 1 707 9 view .LVU582
 707:Drivers/lvgl/src/stdlib/builtin/lv_tlsf.c ****     }
 2001              		.loc 1 707 17 is_stmt 0 view .LVU583
 2002 002a 3146     		mov	r1, r6
 2003 002c 2046     		mov	r0, r4
 2004 002e FFF7FEFF 		bl	block_absorb
 2005              	.LVL191:
 2006 0032 0446     		mov	r4, r0
 2007              	.LVL192:
 2008              	.L125:
 710:Drivers/lvgl/src/stdlib/builtin/lv_tlsf.c **** }
 2009              		.loc 1 710 5 is_stmt 1 view .LVU584
 711:Drivers/lvgl/src/stdlib/builtin/lv_tlsf.c **** 
 2010              		.loc 1 711 1 is_stmt 0 view .LVU585
 2011 0034 2046     		mov	r0, r4
 2012 0036 70BD     		pop	{r4, r5, r6, pc}
 711:Drivers/lvgl/src/stdlib/builtin/lv_tlsf.c **** 
 2013              		.loc 1 711 1 view .LVU586
 2014              		.cfi_endproc
 2015              	.LFE48:
 2017              		.section	.text.block_trim_used,"ax",%progbits
 2018              		.align	1
 2019              		.syntax unified
 2020              		.thumb
 2021              		.thumb_func
 2023              	block_trim_used:
 2024              	.LVL193:
 2025              	.LFB50:
 727:Drivers/lvgl/src/stdlib/builtin/lv_tlsf.c ****     tlsf_assert(!block_is_free(block) && "block must be used");
 2026              		.loc 1 727 1 is_stmt 1 view -0
 2027              		.cfi_startproc
 2028              		@ args = 0, pretend = 0, frame = 0
 2029              		@ frame_needed = 0, uses_anonymous_args = 0
 727:Drivers/lvgl/src/stdlib/builtin/lv_tlsf.c ****     tlsf_assert(!block_is_free(block) && "block must be used");
 2030              		.loc 1 727 1 is_stmt 0 view .LVU588
 2031 0000 70B5     		push	{r4, r5, r6, lr}
 2032              	.LCFI25:
ARM GAS  /var/folders/qx/2_175_4n2s19vhvtspjhb3qh0000gn/T//cccJA90f.s 			page 55


 2033              		.cfi_def_cfa_offset 16
 2034              		.cfi_offset 4, -16
 2035              		.cfi_offset 5, -12
 2036              		.cfi_offset 6, -8
 2037              		.cfi_offset 14, -4
 2038 0002 0646     		mov	r6, r0
 2039 0004 0C46     		mov	r4, r1
 2040 0006 1546     		mov	r5, r2
 728:Drivers/lvgl/src/stdlib/builtin/lv_tlsf.c ****     if(block_can_split(block, size)) {
 2041              		.loc 1 728 5 is_stmt 1 view .LVU589
 728:Drivers/lvgl/src/stdlib/builtin/lv_tlsf.c ****     if(block_can_split(block, size)) {
 2042              		.loc 1 728 5 view .LVU590
 2043 0008 0846     		mov	r0, r1
 2044              	.LVL194:
 728:Drivers/lvgl/src/stdlib/builtin/lv_tlsf.c ****     if(block_can_split(block, size)) {
 2045              		.loc 1 728 5 is_stmt 0 view .LVU591
 2046 000a FFF7FEFF 		bl	block_is_free
 2047              	.LVL195:
 728:Drivers/lvgl/src/stdlib/builtin/lv_tlsf.c ****     if(block_can_split(block, size)) {
 2048              		.loc 1 728 5 discriminator 1 view .LVU592
 2049 000e 00B1     		cbz	r0, .L130
 2050              	.L131:
 728:Drivers/lvgl/src/stdlib/builtin/lv_tlsf.c ****     if(block_can_split(block, size)) {
 2051              		.loc 1 728 5 is_stmt 1 view .LVU593
 728:Drivers/lvgl/src/stdlib/builtin/lv_tlsf.c ****     if(block_can_split(block, size)) {
 2052              		.loc 1 728 5 view .LVU594
 728:Drivers/lvgl/src/stdlib/builtin/lv_tlsf.c ****     if(block_can_split(block, size)) {
 2053              		.loc 1 728 5 view .LVU595
 728:Drivers/lvgl/src/stdlib/builtin/lv_tlsf.c ****     if(block_can_split(block, size)) {
 2054              		.loc 1 728 5 view .LVU596
 728:Drivers/lvgl/src/stdlib/builtin/lv_tlsf.c ****     if(block_can_split(block, size)) {
 2055              		.loc 1 728 5 view .LVU597
 2056 0010 FEE7     		b	.L131
 2057              	.L130:
 728:Drivers/lvgl/src/stdlib/builtin/lv_tlsf.c ****     if(block_can_split(block, size)) {
 2058              		.loc 1 728 5 view .LVU598
 729:Drivers/lvgl/src/stdlib/builtin/lv_tlsf.c ****         /* If the next block is free, we must coalesce. */
 2059              		.loc 1 729 5 view .LVU599
 729:Drivers/lvgl/src/stdlib/builtin/lv_tlsf.c ****         /* If the next block is free, we must coalesce. */
 2060              		.loc 1 729 8 is_stmt 0 view .LVU600
 2061 0012 2946     		mov	r1, r5
 2062 0014 2046     		mov	r0, r4
 2063 0016 FFF7FEFF 		bl	block_can_split
 2064              	.LVL196:
 729:Drivers/lvgl/src/stdlib/builtin/lv_tlsf.c ****         /* If the next block is free, we must coalesce. */
 2065              		.loc 1 729 7 discriminator 1 view .LVU601
 2066 001a 00B9     		cbnz	r0, .L134
 2067              	.LVL197:
 2068              	.L129:
 737:Drivers/lvgl/src/stdlib/builtin/lv_tlsf.c **** 
 2069              		.loc 1 737 1 view .LVU602
 2070 001c 70BD     		pop	{r4, r5, r6, pc}
 2071              	.LVL198:
 2072              	.L134:
 2073              	.LBB5:
 731:Drivers/lvgl/src/stdlib/builtin/lv_tlsf.c ****         block_set_prev_used(remaining_block);
 2074              		.loc 1 731 9 is_stmt 1 view .LVU603
ARM GAS  /var/folders/qx/2_175_4n2s19vhvtspjhb3qh0000gn/T//cccJA90f.s 			page 56


 731:Drivers/lvgl/src/stdlib/builtin/lv_tlsf.c ****         block_set_prev_used(remaining_block);
 2075              		.loc 1 731 44 is_stmt 0 view .LVU604
 2076 001e 2946     		mov	r1, r5
 2077 0020 2046     		mov	r0, r4
 2078 0022 FFF7FEFF 		bl	block_split
 2079              	.LVL199:
 2080 0026 0446     		mov	r4, r0
 2081              	.LVL200:
 732:Drivers/lvgl/src/stdlib/builtin/lv_tlsf.c **** 
 2082              		.loc 1 732 9 is_stmt 1 view .LVU605
 2083 0028 FFF7FEFF 		bl	block_set_prev_used
 2084              	.LVL201:
 734:Drivers/lvgl/src/stdlib/builtin/lv_tlsf.c ****         block_insert(control, remaining_block);
 2085              		.loc 1 734 9 view .LVU606
 734:Drivers/lvgl/src/stdlib/builtin/lv_tlsf.c ****         block_insert(control, remaining_block);
 2086              		.loc 1 734 27 is_stmt 0 view .LVU607
 2087 002c 2146     		mov	r1, r4
 2088 002e 3046     		mov	r0, r6
 2089 0030 FFF7FEFF 		bl	block_merge_next
 2090              	.LVL202:
 2091 0034 0146     		mov	r1, r0
 2092              	.LVL203:
 735:Drivers/lvgl/src/stdlib/builtin/lv_tlsf.c ****     }
 2093              		.loc 1 735 9 is_stmt 1 view .LVU608
 2094 0036 3046     		mov	r0, r6
 2095              	.LVL204:
 735:Drivers/lvgl/src/stdlib/builtin/lv_tlsf.c ****     }
 2096              		.loc 1 735 9 is_stmt 0 view .LVU609
 2097 0038 FFF7FEFF 		bl	block_insert
 2098              	.LVL205:
 735:Drivers/lvgl/src/stdlib/builtin/lv_tlsf.c ****     }
 2099              		.loc 1 735 9 view .LVU610
 2100              	.LBE5:
 737:Drivers/lvgl/src/stdlib/builtin/lv_tlsf.c **** 
 2101              		.loc 1 737 1 view .LVU611
 2102 003c EEE7     		b	.L129
 2103              		.cfi_endproc
 2104              	.LFE50:
 2106              		.section	.text.mapping_search,"ax",%progbits
 2107              		.align	1
 2108              		.syntax unified
 2109              		.thumb
 2110              		.thumb_func
 2112              	mapping_search:
 2113              	.LVL206:
 2114              	.LFB38:
 546:Drivers/lvgl/src/stdlib/builtin/lv_tlsf.c ****     if(size >= SMALL_BLOCK_SIZE) {
 2115              		.loc 1 546 1 is_stmt 1 view -0
 2116              		.cfi_startproc
 2117              		@ args = 0, pretend = 0, frame = 0
 2118              		@ frame_needed = 0, uses_anonymous_args = 0
 546:Drivers/lvgl/src/stdlib/builtin/lv_tlsf.c ****     if(size >= SMALL_BLOCK_SIZE) {
 2119              		.loc 1 546 1 is_stmt 0 view .LVU613
 2120 0000 70B5     		push	{r4, r5, r6, lr}
 2121              	.LCFI26:
 2122              		.cfi_def_cfa_offset 16
 2123              		.cfi_offset 4, -16
ARM GAS  /var/folders/qx/2_175_4n2s19vhvtspjhb3qh0000gn/T//cccJA90f.s 			page 57


 2124              		.cfi_offset 5, -12
 2125              		.cfi_offset 6, -8
 2126              		.cfi_offset 14, -4
 2127 0002 0446     		mov	r4, r0
 2128 0004 0D46     		mov	r5, r1
 2129 0006 1646     		mov	r6, r2
 547:Drivers/lvgl/src/stdlib/builtin/lv_tlsf.c ****         const size_t round = (1 << (tlsf_fls_sizet(size) - SL_INDEX_COUNT_LOG2)) - 1;
 2130              		.loc 1 547 5 is_stmt 1 view .LVU614
 547:Drivers/lvgl/src/stdlib/builtin/lv_tlsf.c ****         const size_t round = (1 << (tlsf_fls_sizet(size) - SL_INDEX_COUNT_LOG2)) - 1;
 2131              		.loc 1 547 7 is_stmt 0 view .LVU615
 2132 0008 7F28     		cmp	r0, #127
 2133 000a 06D9     		bls	.L136
 2134              	.LBB6:
 548:Drivers/lvgl/src/stdlib/builtin/lv_tlsf.c ****         size += round;
 2135              		.loc 1 548 9 is_stmt 1 view .LVU616
 548:Drivers/lvgl/src/stdlib/builtin/lv_tlsf.c ****         size += round;
 2136              		.loc 1 548 37 is_stmt 0 view .LVU617
 2137 000c FFF7FEFF 		bl	tlsf_fls
 2138              	.LVL207:
 548:Drivers/lvgl/src/stdlib/builtin/lv_tlsf.c ****         size += round;
 2139              		.loc 1 548 58 discriminator 1 view .LVU618
 2140 0010 0538     		subs	r0, r0, #5
 548:Drivers/lvgl/src/stdlib/builtin/lv_tlsf.c ****         size += round;
 2141              		.loc 1 548 33 discriminator 1 view .LVU619
 2142 0012 0123     		movs	r3, #1
 2143 0014 8340     		lsls	r3, r3, r0
 548:Drivers/lvgl/src/stdlib/builtin/lv_tlsf.c ****         size += round;
 2144              		.loc 1 548 82 discriminator 1 view .LVU620
 2145 0016 013B     		subs	r3, r3, #1
 2146              	.LVL208:
 549:Drivers/lvgl/src/stdlib/builtin/lv_tlsf.c ****     }
 2147              		.loc 1 549 9 is_stmt 1 view .LVU621
 549:Drivers/lvgl/src/stdlib/builtin/lv_tlsf.c ****     }
 2148              		.loc 1 549 14 is_stmt 0 view .LVU622
 2149 0018 1C44     		add	r4, r4, r3
 2150              	.LVL209:
 2151              	.L136:
 549:Drivers/lvgl/src/stdlib/builtin/lv_tlsf.c ****     }
 2152              		.loc 1 549 14 view .LVU623
 2153              	.LBE6:
 551:Drivers/lvgl/src/stdlib/builtin/lv_tlsf.c **** }
 2154              		.loc 1 551 5 is_stmt 1 view .LVU624
 2155 001a 3246     		mov	r2, r6
 2156 001c 2946     		mov	r1, r5
 2157 001e 2046     		mov	r0, r4
 2158 0020 FFF7FEFF 		bl	mapping_insert
 2159              	.LVL210:
 552:Drivers/lvgl/src/stdlib/builtin/lv_tlsf.c **** 
 2160              		.loc 1 552 1 is_stmt 0 view .LVU625
 2161 0024 70BD     		pop	{r4, r5, r6, pc}
 552:Drivers/lvgl/src/stdlib/builtin/lv_tlsf.c **** 
 2162              		.loc 1 552 1 view .LVU626
 2163              		.cfi_endproc
 2164              	.LFE38:
 2166              		.section	.text.tlsf_ffs,"ax",%progbits
 2167              		.align	1
 2168              		.syntax unified
ARM GAS  /var/folders/qx/2_175_4n2s19vhvtspjhb3qh0000gn/T//cccJA90f.s 			page 58


 2169              		.thumb
 2170              		.thumb_func
 2172              	tlsf_ffs:
 2173              	.LVL211:
 2174              	.LFB14:
  95:Drivers/lvgl/src/stdlib/builtin/lv_tlsf.c ****     return __builtin_ffs(word) - 1;
 2175              		.loc 1 95 1 is_stmt 1 view -0
 2176              		.cfi_startproc
 2177              		@ args = 0, pretend = 0, frame = 0
 2178              		@ frame_needed = 0, uses_anonymous_args = 0
 2179              		@ link register save eliminated.
  95:Drivers/lvgl/src/stdlib/builtin/lv_tlsf.c ****     return __builtin_ffs(word) - 1;
 2180              		.loc 1 95 1 is_stmt 0 view .LVU628
 2181 0000 0346     		mov	r3, r0
  96:Drivers/lvgl/src/stdlib/builtin/lv_tlsf.c **** }
 2182              		.loc 1 96 5 is_stmt 1 view .LVU629
  96:Drivers/lvgl/src/stdlib/builtin/lv_tlsf.c **** }
 2183              		.loc 1 96 12 is_stmt 0 view .LVU630
 2184 0002 90FAA0F0 		rbit	r0, r0
 2185              	.LVL212:
  96:Drivers/lvgl/src/stdlib/builtin/lv_tlsf.c **** }
 2186              		.loc 1 96 12 view .LVU631
 2187 0006 B0FA80F0 		clz	r0, r0
 2188 000a 0BB9     		cbnz	r3, .L139
 2189 000c 4FF0FF30 		mov	r0, #-1
 2190              	.L139:
  97:Drivers/lvgl/src/stdlib/builtin/lv_tlsf.c **** 
 2191              		.loc 1 97 1 view .LVU632
 2192 0010 7047     		bx	lr
 2193              		.cfi_endproc
 2194              	.LFE14:
 2196              		.section	.text.search_suitable_block,"ax",%progbits
 2197              		.align	1
 2198              		.syntax unified
 2199              		.thumb
 2200              		.thumb_func
 2202              	search_suitable_block:
 2203              	.LVL213:
 2204              	.LFB39:
 555:Drivers/lvgl/src/stdlib/builtin/lv_tlsf.c ****     int fl = *fli;
 2205              		.loc 1 555 1 is_stmt 1 view -0
 2206              		.cfi_startproc
 2207              		@ args = 0, pretend = 0, frame = 0
 2208              		@ frame_needed = 0, uses_anonymous_args = 0
 555:Drivers/lvgl/src/stdlib/builtin/lv_tlsf.c ****     int fl = *fli;
 2209              		.loc 1 555 1 is_stmt 0 view .LVU634
 2210 0000 F8B5     		push	{r3, r4, r5, r6, r7, lr}
 2211              	.LCFI27:
 2212              		.cfi_def_cfa_offset 24
 2213              		.cfi_offset 3, -24
 2214              		.cfi_offset 4, -20
 2215              		.cfi_offset 5, -16
 2216              		.cfi_offset 6, -12
 2217              		.cfi_offset 7, -8
 2218              		.cfi_offset 14, -4
 2219 0002 0446     		mov	r4, r0
 2220 0004 1646     		mov	r6, r2
ARM GAS  /var/folders/qx/2_175_4n2s19vhvtspjhb3qh0000gn/T//cccJA90f.s 			page 59


 556:Drivers/lvgl/src/stdlib/builtin/lv_tlsf.c ****     int sl = *sli;
 2221              		.loc 1 556 5 is_stmt 1 view .LVU635
 556:Drivers/lvgl/src/stdlib/builtin/lv_tlsf.c ****     int sl = *sli;
 2222              		.loc 1 556 9 is_stmt 0 view .LVU636
 2223 0006 0D68     		ldr	r5, [r1]
 2224              	.LVL214:
 557:Drivers/lvgl/src/stdlib/builtin/lv_tlsf.c **** 
 2225              		.loc 1 557 5 is_stmt 1 view .LVU637
 557:Drivers/lvgl/src/stdlib/builtin/lv_tlsf.c **** 
 2226              		.loc 1 557 9 is_stmt 0 view .LVU638
 2227 0008 1268     		ldr	r2, [r2]
 2228              	.LVL215:
 563:Drivers/lvgl/src/stdlib/builtin/lv_tlsf.c ****     if(!sl_map) {
 2229              		.loc 1 563 5 is_stmt 1 view .LVU639
 563:Drivers/lvgl/src/stdlib/builtin/lv_tlsf.c ****     if(!sl_map) {
 2230              		.loc 1 563 45 is_stmt 0 view .LVU640
 2231 000a 2B1D     		adds	r3, r5, #4
 2232 000c 00EB8303 		add	r3, r0, r3, lsl #2
 2233 0010 5868     		ldr	r0, [r3, #4]
 2234              	.LVL216:
 563:Drivers/lvgl/src/stdlib/builtin/lv_tlsf.c ****     if(!sl_map) {
 2235              		.loc 1 563 57 view .LVU641
 2236 0012 4FF0FF33 		mov	r3, #-1
 2237 0016 9340     		lsls	r3, r3, r2
 2238              	.LVL217:
 564:Drivers/lvgl/src/stdlib/builtin/lv_tlsf.c ****         /* No block exists. Search in the next largest first-level list. */
 2239              		.loc 1 564 5 is_stmt 1 view .LVU642
 564:Drivers/lvgl/src/stdlib/builtin/lv_tlsf.c ****         /* No block exists. Search in the next largest first-level list. */
 2240              		.loc 1 564 7 is_stmt 0 view .LVU643
 2241 0018 1840     		ands	r0, r0, r3
 2242              	.LVL218:
 564:Drivers/lvgl/src/stdlib/builtin/lv_tlsf.c ****         /* No block exists. Search in the next largest first-level list. */
 2243              		.loc 1 564 7 view .LVU644
 2244 001a 11D1     		bne	.L141
 2245 001c 0F46     		mov	r7, r1
 2246              	.LBB7:
 566:Drivers/lvgl/src/stdlib/builtin/lv_tlsf.c ****         if(!fl_map) {
 2247              		.loc 1 566 9 is_stmt 1 view .LVU645
 566:Drivers/lvgl/src/stdlib/builtin/lv_tlsf.c ****         if(!fl_map) {
 2248              		.loc 1 566 44 is_stmt 0 view .LVU646
 2249 001e 2069     		ldr	r0, [r4, #16]
 2250              	.LVL219:
 566:Drivers/lvgl/src/stdlib/builtin/lv_tlsf.c ****         if(!fl_map) {
 2251              		.loc 1 566 70 view .LVU647
 2252 0020 0135     		adds	r5, r5, #1
 2253              	.LVL220:
 566:Drivers/lvgl/src/stdlib/builtin/lv_tlsf.c ****         if(!fl_map) {
 2254              		.loc 1 566 63 view .LVU648
 2255 0022 4FF0FF33 		mov	r3, #-1
 2256              	.LVL221:
 566:Drivers/lvgl/src/stdlib/builtin/lv_tlsf.c ****         if(!fl_map) {
 2257              		.loc 1 566 63 view .LVU649
 2258 0026 AB40     		lsls	r3, r3, r5
 2259              	.LVL222:
 567:Drivers/lvgl/src/stdlib/builtin/lv_tlsf.c ****             /* No free blocks available, memory has been exhausted. */
 2260              		.loc 1 567 9 is_stmt 1 view .LVU650
 567:Drivers/lvgl/src/stdlib/builtin/lv_tlsf.c ****             /* No free blocks available, memory has been exhausted. */
ARM GAS  /var/folders/qx/2_175_4n2s19vhvtspjhb3qh0000gn/T//cccJA90f.s 			page 60


 2261              		.loc 1 567 11 is_stmt 0 view .LVU651
 2262 0028 1840     		ands	r0, r0, r3
 2263              	.LVL223:
 567:Drivers/lvgl/src/stdlib/builtin/lv_tlsf.c ****             /* No free blocks available, memory has been exhausted. */
 2264              		.loc 1 567 11 view .LVU652
 2265 002a 13D0     		beq	.L144
 572:Drivers/lvgl/src/stdlib/builtin/lv_tlsf.c ****         *fli = fl;
 2266              		.loc 1 572 9 is_stmt 1 view .LVU653
 572:Drivers/lvgl/src/stdlib/builtin/lv_tlsf.c ****         *fli = fl;
 2267              		.loc 1 572 14 is_stmt 0 view .LVU654
 2268 002c FFF7FEFF 		bl	tlsf_ffs
 2269              	.LVL224:
 572:Drivers/lvgl/src/stdlib/builtin/lv_tlsf.c ****         *fli = fl;
 2270              		.loc 1 572 14 view .LVU655
 2271 0030 0546     		mov	r5, r0
 2272              	.LVL225:
 573:Drivers/lvgl/src/stdlib/builtin/lv_tlsf.c ****         sl_map = control->sl_bitmap[fl];
 2273              		.loc 1 573 9 is_stmt 1 view .LVU656
 573:Drivers/lvgl/src/stdlib/builtin/lv_tlsf.c ****         sl_map = control->sl_bitmap[fl];
 2274              		.loc 1 573 14 is_stmt 0 view .LVU657
 2275 0032 3860     		str	r0, [r7]
 574:Drivers/lvgl/src/stdlib/builtin/lv_tlsf.c ****     }
 2276              		.loc 1 574 9 is_stmt 1 view .LVU658
 574:Drivers/lvgl/src/stdlib/builtin/lv_tlsf.c ****     }
 2277              		.loc 1 574 16 is_stmt 0 view .LVU659
 2278 0034 031D     		adds	r3, r0, #4
 2279 0036 04EB8303 		add	r3, r4, r3, lsl #2
 2280 003a 5868     		ldr	r0, [r3, #4]
 2281              	.LVL226:
 574:Drivers/lvgl/src/stdlib/builtin/lv_tlsf.c ****     }
 2282              		.loc 1 574 16 view .LVU660
 2283              	.LBE7:
 576:Drivers/lvgl/src/stdlib/builtin/lv_tlsf.c ****     sl = tlsf_ffs(sl_map);
 2284              		.loc 1 576 5 is_stmt 1 view .LVU661
 576:Drivers/lvgl/src/stdlib/builtin/lv_tlsf.c ****     sl = tlsf_ffs(sl_map);
 2285              		.loc 1 576 5 view .LVU662
 2286 003c 00B9     		cbnz	r0, .L141
 2287              	.L143:
 576:Drivers/lvgl/src/stdlib/builtin/lv_tlsf.c ****     sl = tlsf_ffs(sl_map);
 2288              		.loc 1 576 5 view .LVU663
 576:Drivers/lvgl/src/stdlib/builtin/lv_tlsf.c ****     sl = tlsf_ffs(sl_map);
 2289              		.loc 1 576 5 view .LVU664
 576:Drivers/lvgl/src/stdlib/builtin/lv_tlsf.c ****     sl = tlsf_ffs(sl_map);
 2290              		.loc 1 576 5 view .LVU665
 576:Drivers/lvgl/src/stdlib/builtin/lv_tlsf.c ****     sl = tlsf_ffs(sl_map);
 2291              		.loc 1 576 5 view .LVU666
 576:Drivers/lvgl/src/stdlib/builtin/lv_tlsf.c ****     sl = tlsf_ffs(sl_map);
 2292              		.loc 1 576 5 view .LVU667
 2293 003e FEE7     		b	.L143
 2294              	.LVL227:
 2295              	.L141:
 576:Drivers/lvgl/src/stdlib/builtin/lv_tlsf.c ****     sl = tlsf_ffs(sl_map);
 2296              		.loc 1 576 5 view .LVU668
 577:Drivers/lvgl/src/stdlib/builtin/lv_tlsf.c ****     *sli = sl;
 2297              		.loc 1 577 5 view .LVU669
 577:Drivers/lvgl/src/stdlib/builtin/lv_tlsf.c ****     *sli = sl;
 2298              		.loc 1 577 10 is_stmt 0 view .LVU670
ARM GAS  /var/folders/qx/2_175_4n2s19vhvtspjhb3qh0000gn/T//cccJA90f.s 			page 61


 2299 0040 FFF7FEFF 		bl	tlsf_ffs
 2300              	.LVL228:
 578:Drivers/lvgl/src/stdlib/builtin/lv_tlsf.c **** 
 2301              		.loc 1 578 5 is_stmt 1 view .LVU671
 578:Drivers/lvgl/src/stdlib/builtin/lv_tlsf.c **** 
 2302              		.loc 1 578 10 is_stmt 0 view .LVU672
 2303 0044 3060     		str	r0, [r6]
 581:Drivers/lvgl/src/stdlib/builtin/lv_tlsf.c **** }
 2304              		.loc 1 581 5 is_stmt 1 view .LVU673
 581:Drivers/lvgl/src/stdlib/builtin/lv_tlsf.c **** }
 2305              		.loc 1 581 31 is_stmt 0 view .LVU674
 2306 0046 00EB4510 		add	r0, r0, r5, lsl #5
 2307              	.LVL229:
 581:Drivers/lvgl/src/stdlib/builtin/lv_tlsf.c **** }
 2308              		.loc 1 581 31 view .LVU675
 2309 004a 0E30     		adds	r0, r0, #14
 2310 004c 04EB8004 		add	r4, r4, r0, lsl #2
 2311              	.LVL230:
 581:Drivers/lvgl/src/stdlib/builtin/lv_tlsf.c **** }
 2312              		.loc 1 581 31 view .LVU676
 2313 0050 6068     		ldr	r0, [r4, #4]
 2314              	.LVL231:
 2315              	.L140:
 582:Drivers/lvgl/src/stdlib/builtin/lv_tlsf.c **** 
 2316              		.loc 1 582 1 view .LVU677
 2317 0052 F8BD     		pop	{r3, r4, r5, r6, r7, pc}
 2318              	.LVL232:
 2319              	.L144:
 2320              	.LBB8:
 569:Drivers/lvgl/src/stdlib/builtin/lv_tlsf.c ****         }
 2321              		.loc 1 569 20 view .LVU678
 2322 0054 0020     		movs	r0, #0
 2323              	.LVL233:
 569:Drivers/lvgl/src/stdlib/builtin/lv_tlsf.c ****         }
 2324              		.loc 1 569 20 view .LVU679
 2325 0056 FCE7     		b	.L140
 2326              	.LBE8:
 2327              		.cfi_endproc
 2328              	.LFE39:
 2330              		.section	.text.block_locate_free,"ax",%progbits
 2331              		.align	1
 2332              		.syntax unified
 2333              		.thumb
 2334              		.thumb_func
 2336              	block_locate_free:
 2337              	.LVL234:
 2338              	.LFB52:
 755:Drivers/lvgl/src/stdlib/builtin/lv_tlsf.c ****     int fl = 0, sl = 0;
 2339              		.loc 1 755 1 is_stmt 1 view -0
 2340              		.cfi_startproc
 2341              		@ args = 0, pretend = 0, frame = 8
 2342              		@ frame_needed = 0, uses_anonymous_args = 0
 755:Drivers/lvgl/src/stdlib/builtin/lv_tlsf.c ****     int fl = 0, sl = 0;
 2343              		.loc 1 755 1 is_stmt 0 view .LVU681
 2344 0000 70B5     		push	{r4, r5, r6, lr}
 2345              	.LCFI28:
 2346              		.cfi_def_cfa_offset 16
ARM GAS  /var/folders/qx/2_175_4n2s19vhvtspjhb3qh0000gn/T//cccJA90f.s 			page 62


 2347              		.cfi_offset 4, -16
 2348              		.cfi_offset 5, -12
 2349              		.cfi_offset 6, -8
 2350              		.cfi_offset 14, -4
 2351 0002 82B0     		sub	sp, sp, #8
 2352              	.LCFI29:
 2353              		.cfi_def_cfa_offset 24
 756:Drivers/lvgl/src/stdlib/builtin/lv_tlsf.c ****     block_header_t * block = 0;
 2354              		.loc 1 756 5 is_stmt 1 view .LVU682
 756:Drivers/lvgl/src/stdlib/builtin/lv_tlsf.c ****     block_header_t * block = 0;
 2355              		.loc 1 756 9 is_stmt 0 view .LVU683
 2356 0004 0023     		movs	r3, #0
 2357 0006 0193     		str	r3, [sp, #4]
 756:Drivers/lvgl/src/stdlib/builtin/lv_tlsf.c ****     block_header_t * block = 0;
 2358              		.loc 1 756 17 view .LVU684
 2359 0008 0093     		str	r3, [sp]
 757:Drivers/lvgl/src/stdlib/builtin/lv_tlsf.c **** 
 2360              		.loc 1 757 5 is_stmt 1 view .LVU685
 2361              	.LVL235:
 759:Drivers/lvgl/src/stdlib/builtin/lv_tlsf.c ****         mapping_search(size, &fl, &sl);
 2362              		.loc 1 759 5 view .LVU686
 759:Drivers/lvgl/src/stdlib/builtin/lv_tlsf.c ****         mapping_search(size, &fl, &sl);
 2363              		.loc 1 759 7 is_stmt 0 view .LVU687
 2364 000a E1B1     		cbz	r1, .L150
 2365 000c 0446     		mov	r4, r0
 2366 000e 0E46     		mov	r6, r1
 760:Drivers/lvgl/src/stdlib/builtin/lv_tlsf.c **** 
 2367              		.loc 1 760 9 is_stmt 1 view .LVU688
 2368 0010 6A46     		mov	r2, sp
 2369 0012 01A9     		add	r1, sp, #4
 2370              	.LVL236:
 760:Drivers/lvgl/src/stdlib/builtin/lv_tlsf.c **** 
 2371              		.loc 1 760 9 is_stmt 0 view .LVU689
 2372 0014 3046     		mov	r0, r6
 2373              	.LVL237:
 760:Drivers/lvgl/src/stdlib/builtin/lv_tlsf.c **** 
 2374              		.loc 1 760 9 view .LVU690
 2375 0016 FFF7FEFF 		bl	mapping_search
 2376              	.LVL238:
 768:Drivers/lvgl/src/stdlib/builtin/lv_tlsf.c ****             block = search_suitable_block(control, &fl, &sl);
 2377              		.loc 1 768 9 is_stmt 1 view .LVU691
 768:Drivers/lvgl/src/stdlib/builtin/lv_tlsf.c ****             block = search_suitable_block(control, &fl, &sl);
 2378              		.loc 1 768 15 is_stmt 0 view .LVU692
 2379 001a 019B     		ldr	r3, [sp, #4]
 768:Drivers/lvgl/src/stdlib/builtin/lv_tlsf.c ****             block = search_suitable_block(control, &fl, &sl);
 2380              		.loc 1 768 11 view .LVU693
 2381 001c 092B     		cmp	r3, #9
 2382 001e 16DC     		bgt	.L151
 769:Drivers/lvgl/src/stdlib/builtin/lv_tlsf.c ****         }
 2383              		.loc 1 769 13 is_stmt 1 view .LVU694
 769:Drivers/lvgl/src/stdlib/builtin/lv_tlsf.c ****         }
 2384              		.loc 1 769 21 is_stmt 0 view .LVU695
 2385 0020 6A46     		mov	r2, sp
 2386 0022 01A9     		add	r1, sp, #4
 2387 0024 2046     		mov	r0, r4
 2388 0026 FFF7FEFF 		bl	search_suitable_block
 2389              	.LVL239:
ARM GAS  /var/folders/qx/2_175_4n2s19vhvtspjhb3qh0000gn/T//cccJA90f.s 			page 63


 773:Drivers/lvgl/src/stdlib/builtin/lv_tlsf.c ****         tlsf_assert(block_size(block) >= size);
 2390              		.loc 1 773 5 is_stmt 1 view .LVU696
 773:Drivers/lvgl/src/stdlib/builtin/lv_tlsf.c ****         tlsf_assert(block_size(block) >= size);
 2391              		.loc 1 773 7 is_stmt 0 view .LVU697
 2392 002a 0546     		mov	r5, r0
 2393 002c 60B1     		cbz	r0, .L146
 774:Drivers/lvgl/src/stdlib/builtin/lv_tlsf.c ****         remove_free_block(control, block, fl, sl);
 2394              		.loc 1 774 9 is_stmt 1 view .LVU698
 774:Drivers/lvgl/src/stdlib/builtin/lv_tlsf.c ****         remove_free_block(control, block, fl, sl);
 2395              		.loc 1 774 9 view .LVU699
 2396 002e FFF7FEFF 		bl	block_size
 2397              	.LVL240:
 774:Drivers/lvgl/src/stdlib/builtin/lv_tlsf.c ****         remove_free_block(control, block, fl, sl);
 2398              		.loc 1 774 9 is_stmt 0 discriminator 1 view .LVU700
 2399 0032 B042     		cmp	r0, r6
 2400 0034 00D2     		bcs	.L148
 2401              	.L149:
 774:Drivers/lvgl/src/stdlib/builtin/lv_tlsf.c ****         remove_free_block(control, block, fl, sl);
 2402              		.loc 1 774 9 is_stmt 1 view .LVU701
 774:Drivers/lvgl/src/stdlib/builtin/lv_tlsf.c ****         remove_free_block(control, block, fl, sl);
 2403              		.loc 1 774 9 view .LVU702
 774:Drivers/lvgl/src/stdlib/builtin/lv_tlsf.c ****         remove_free_block(control, block, fl, sl);
 2404              		.loc 1 774 9 view .LVU703
 774:Drivers/lvgl/src/stdlib/builtin/lv_tlsf.c ****         remove_free_block(control, block, fl, sl);
 2405              		.loc 1 774 9 view .LVU704
 774:Drivers/lvgl/src/stdlib/builtin/lv_tlsf.c ****         remove_free_block(control, block, fl, sl);
 2406              		.loc 1 774 9 view .LVU705
 2407 0036 FEE7     		b	.L149
 2408              	.L148:
 774:Drivers/lvgl/src/stdlib/builtin/lv_tlsf.c ****         remove_free_block(control, block, fl, sl);
 2409              		.loc 1 774 9 view .LVU706
 775:Drivers/lvgl/src/stdlib/builtin/lv_tlsf.c ****     }
 2410              		.loc 1 775 9 view .LVU707
 2411 0038 009B     		ldr	r3, [sp]
 2412 003a 019A     		ldr	r2, [sp, #4]
 2413 003c 2946     		mov	r1, r5
 2414 003e 2046     		mov	r0, r4
 2415 0040 FFF7FEFF 		bl	remove_free_block
 2416              	.LVL241:
 2417 0044 00E0     		b	.L146
 2418              	.LVL242:
 2419              	.L150:
 757:Drivers/lvgl/src/stdlib/builtin/lv_tlsf.c **** 
 2420              		.loc 1 757 22 is_stmt 0 view .LVU708
 2421 0046 0025     		movs	r5, #0
 2422              	.LVL243:
 2423              	.L146:
 779:Drivers/lvgl/src/stdlib/builtin/lv_tlsf.c **** 
 2424              		.loc 1 779 1 view .LVU709
 2425 0048 2846     		mov	r0, r5
 2426 004a 02B0     		add	sp, sp, #8
 2427              	.LCFI30:
 2428              		.cfi_remember_state
 2429              		.cfi_def_cfa_offset 16
 2430              		@ sp needed
 2431 004c 70BD     		pop	{r4, r5, r6, pc}
 2432              	.LVL244:
ARM GAS  /var/folders/qx/2_175_4n2s19vhvtspjhb3qh0000gn/T//cccJA90f.s 			page 64


 2433              	.L151:
 2434              	.LCFI31:
 2435              		.cfi_restore_state
 757:Drivers/lvgl/src/stdlib/builtin/lv_tlsf.c **** 
 2436              		.loc 1 757 22 view .LVU710
 2437 004e 0025     		movs	r5, #0
 2438              	.LVL245:
 778:Drivers/lvgl/src/stdlib/builtin/lv_tlsf.c **** }
 2439              		.loc 1 778 5 is_stmt 1 view .LVU711
 778:Drivers/lvgl/src/stdlib/builtin/lv_tlsf.c **** }
 2440              		.loc 1 778 12 is_stmt 0 view .LVU712
 2441 0050 FAE7     		b	.L146
 2442              		.cfi_endproc
 2443              	.LFE52:
 2445              		.section	.text.lv_tlsf_check,"ax",%progbits
 2446              		.align	1
 2447              		.global	lv_tlsf_check
 2448              		.syntax unified
 2449              		.thumb
 2450              		.thumb_func
 2452              	lv_tlsf_check:
 2453              	.LVL246:
 2454              	.LFB56:
 839:Drivers/lvgl/src/stdlib/builtin/lv_tlsf.c ****     int i, j;
 2455              		.loc 1 839 1 is_stmt 1 view -0
 2456              		.cfi_startproc
 2457              		@ args = 0, pretend = 0, frame = 8
 2458              		@ frame_needed = 0, uses_anonymous_args = 0
 839:Drivers/lvgl/src/stdlib/builtin/lv_tlsf.c ****     int i, j;
 2459              		.loc 1 839 1 is_stmt 0 view .LVU714
 2460 0000 2DE9F041 		push	{r4, r5, r6, r7, r8, lr}
 2461              	.LCFI32:
 2462              		.cfi_def_cfa_offset 24
 2463              		.cfi_offset 4, -24
 2464              		.cfi_offset 5, -20
 2465              		.cfi_offset 6, -16
 2466              		.cfi_offset 7, -12
 2467              		.cfi_offset 8, -8
 2468              		.cfi_offset 14, -4
 2469 0004 82B0     		sub	sp, sp, #8
 2470              	.LCFI33:
 2471              		.cfi_def_cfa_offset 32
 2472 0006 0546     		mov	r5, r0
 840:Drivers/lvgl/src/stdlib/builtin/lv_tlsf.c **** 
 2473              		.loc 1 840 5 is_stmt 1 view .LVU715
 842:Drivers/lvgl/src/stdlib/builtin/lv_tlsf.c ****     int status = 0;
 2474              		.loc 1 842 5 view .LVU716
 2475              	.LVL247:
 843:Drivers/lvgl/src/stdlib/builtin/lv_tlsf.c **** 
 2476              		.loc 1 843 5 view .LVU717
 846:Drivers/lvgl/src/stdlib/builtin/lv_tlsf.c ****         for(j = 0; j < SL_INDEX_COUNT; ++j) {
 2477              		.loc 1 846 5 view .LVU718
 846:Drivers/lvgl/src/stdlib/builtin/lv_tlsf.c ****         for(j = 0; j < SL_INDEX_COUNT; ++j) {
 2478              		.loc 1 846 11 is_stmt 0 view .LVU719
 2479 0008 0026     		movs	r6, #0
 2480              	.LVL248:
 2481              	.L154:
ARM GAS  /var/folders/qx/2_175_4n2s19vhvtspjhb3qh0000gn/T//cccJA90f.s 			page 65


 846:Drivers/lvgl/src/stdlib/builtin/lv_tlsf.c ****         for(j = 0; j < SL_INDEX_COUNT; ++j) {
 2482              		.loc 1 846 18 is_stmt 1 discriminator 1 view .LVU720
 2483 000a 092E     		cmp	r6, #9
 2484 000c 4FDC     		bgt	.L181
 847:Drivers/lvgl/src/stdlib/builtin/lv_tlsf.c ****             const int fl_map = control->fl_bitmap & (1U << i);
 2485              		.loc 1 847 15 is_stmt 0 view .LVU721
 2486 000e 0027     		movs	r7, #0
 2487              	.L178:
 2488              	.LVL249:
 847:Drivers/lvgl/src/stdlib/builtin/lv_tlsf.c ****             const int fl_map = control->fl_bitmap & (1U << i);
 2489              		.loc 1 847 22 is_stmt 1 discriminator 1 view .LVU722
 2490 0010 1F2F     		cmp	r7, #31
 2491 0012 4ADC     		bgt	.L182
 2492              	.LBB9:
 848:Drivers/lvgl/src/stdlib/builtin/lv_tlsf.c ****             const int sl_list = control->sl_bitmap[i];
 2493              		.loc 1 848 13 view .LVU723
 848:Drivers/lvgl/src/stdlib/builtin/lv_tlsf.c ****             const int sl_list = control->sl_bitmap[i];
 2494              		.loc 1 848 57 is_stmt 0 view .LVU724
 2495 0014 0123     		movs	r3, #1
 2496 0016 03FA06F0 		lsl	r0, r3, r6
 2497              	.LVL250:
 849:Drivers/lvgl/src/stdlib/builtin/lv_tlsf.c ****             const int sl_map = sl_list & (1U << j);
 2498              		.loc 1 849 13 is_stmt 1 view .LVU725
 849:Drivers/lvgl/src/stdlib/builtin/lv_tlsf.c ****             const int sl_map = sl_list & (1U << j);
 2499              		.loc 1 849 51 is_stmt 0 view .LVU726
 2500 001a 311D     		adds	r1, r6, #4
 2501 001c 05EB8101 		add	r1, r5, r1, lsl #2
 2502 0020 4A68     		ldr	r2, [r1, #4]
 2503              	.LVL251:
 850:Drivers/lvgl/src/stdlib/builtin/lv_tlsf.c ****             const block_header_t * block = control->blocks[i][j];
 2504              		.loc 1 850 13 is_stmt 1 view .LVU727
 850:Drivers/lvgl/src/stdlib/builtin/lv_tlsf.c ****             const block_header_t * block = control->blocks[i][j];
 2505              		.loc 1 850 46 is_stmt 0 view .LVU728
 2506 0022 BB40     		lsls	r3, r3, r7
 850:Drivers/lvgl/src/stdlib/builtin/lv_tlsf.c ****             const block_header_t * block = control->blocks[i][j];
 2507              		.loc 1 850 40 view .LVU729
 2508 0024 1340     		ands	r3, r3, r2
 2509              	.LVL252:
 851:Drivers/lvgl/src/stdlib/builtin/lv_tlsf.c **** 
 2510              		.loc 1 851 13 is_stmt 1 view .LVU730
 851:Drivers/lvgl/src/stdlib/builtin/lv_tlsf.c **** 
 2511              		.loc 1 851 36 is_stmt 0 view .LVU731
 2512 0026 07EB4611 		add	r1, r7, r6, lsl #5
 2513 002a 0E31     		adds	r1, r1, #14
 2514 002c 05EB8101 		add	r1, r5, r1, lsl #2
 2515 0030 4C68     		ldr	r4, [r1, #4]
 2516              	.LVL253:
 854:Drivers/lvgl/src/stdlib/builtin/lv_tlsf.c ****                 tlsf_insist(!sl_map && "second-level map must be null");
 2517              		.loc 1 854 13 is_stmt 1 view .LVU732
 854:Drivers/lvgl/src/stdlib/builtin/lv_tlsf.c ****                 tlsf_insist(!sl_map && "second-level map must be null");
 2518              		.loc 1 854 15 is_stmt 0 view .LVU733
 2519 0032 2969     		ldr	r1, [r5, #16]
 2520 0034 0142     		tst	r1, r0
 2521 0036 00D1     		bne	.L155
 855:Drivers/lvgl/src/stdlib/builtin/lv_tlsf.c ****             }
 2522              		.loc 1 855 17 is_stmt 1 view .LVU734
 855:Drivers/lvgl/src/stdlib/builtin/lv_tlsf.c ****             }
ARM GAS  /var/folders/qx/2_175_4n2s19vhvtspjhb3qh0000gn/T//cccJA90f.s 			page 66


 2523              		.loc 1 855 17 view .LVU735
 2524 0038 1BB9     		cbnz	r3, .L156
 2525              	.L155:
 855:Drivers/lvgl/src/stdlib/builtin/lv_tlsf.c ****             }
 2526              		.loc 1 855 72 view .LVU736
 858:Drivers/lvgl/src/stdlib/builtin/lv_tlsf.c ****                 tlsf_insist(block == &control->block_null && "block list must be null");
 2527              		.loc 1 858 13 view .LVU737
 858:Drivers/lvgl/src/stdlib/builtin/lv_tlsf.c ****                 tlsf_insist(block == &control->block_null && "block list must be null");
 2528              		.loc 1 858 15 is_stmt 0 view .LVU738
 2529 003a 1BB9     		cbnz	r3, .L157
 859:Drivers/lvgl/src/stdlib/builtin/lv_tlsf.c ****                 continue;
 2530              		.loc 1 859 17 is_stmt 1 view .LVU739
 859:Drivers/lvgl/src/stdlib/builtin/lv_tlsf.c ****                 continue;
 2531              		.loc 1 859 17 view .LVU740
 2532 003c A542     		cmp	r5, r4
 2533 003e 32D0     		beq	.L158
 2534              	.L159:
 859:Drivers/lvgl/src/stdlib/builtin/lv_tlsf.c ****                 continue;
 2535              		.loc 1 859 17 view .LVU741
 859:Drivers/lvgl/src/stdlib/builtin/lv_tlsf.c ****                 continue;
 2536              		.loc 1 859 17 view .LVU742
 859:Drivers/lvgl/src/stdlib/builtin/lv_tlsf.c ****                 continue;
 2537              		.loc 1 859 17 view .LVU743
 859:Drivers/lvgl/src/stdlib/builtin/lv_tlsf.c ****                 continue;
 2538              		.loc 1 859 17 view .LVU744
 859:Drivers/lvgl/src/stdlib/builtin/lv_tlsf.c ****                 continue;
 2539              		.loc 1 859 17 view .LVU745
 2540 0040 FEE7     		b	.L159
 2541              	.LVL254:
 2542              	.L156:
 855:Drivers/lvgl/src/stdlib/builtin/lv_tlsf.c ****             }
 2543              		.loc 1 855 17 view .LVU746
 855:Drivers/lvgl/src/stdlib/builtin/lv_tlsf.c ****             }
 2544              		.loc 1 855 17 view .LVU747
 855:Drivers/lvgl/src/stdlib/builtin/lv_tlsf.c ****             }
 2545              		.loc 1 855 17 view .LVU748
 855:Drivers/lvgl/src/stdlib/builtin/lv_tlsf.c ****             }
 2546              		.loc 1 855 17 view .LVU749
 855:Drivers/lvgl/src/stdlib/builtin/lv_tlsf.c ****             }
 2547              		.loc 1 855 17 view .LVU750
 2548 0042 FEE7     		b	.L156
 2549              	.L157:
 864:Drivers/lvgl/src/stdlib/builtin/lv_tlsf.c ****             tlsf_insist(block != &control->block_null && "block should not be null");
 2550              		.loc 1 864 13 view .LVU751
 864:Drivers/lvgl/src/stdlib/builtin/lv_tlsf.c ****             tlsf_insist(block != &control->block_null && "block should not be null");
 2551              		.loc 1 864 13 view .LVU752
 2552 0044 3AB3     		cbz	r2, .L161
 864:Drivers/lvgl/src/stdlib/builtin/lv_tlsf.c ****             tlsf_insist(block != &control->block_null && "block should not be null");
 2553              		.loc 1 864 13 discriminator 1 view .LVU753
 864:Drivers/lvgl/src/stdlib/builtin/lv_tlsf.c ****             tlsf_insist(block != &control->block_null && "block should not be null");
 2554              		.loc 1 864 13 discriminator 1 view .LVU754
 864:Drivers/lvgl/src/stdlib/builtin/lv_tlsf.c ****             tlsf_insist(block != &control->block_null && "block should not be null");
 2555              		.loc 1 864 73 view .LVU755
 865:Drivers/lvgl/src/stdlib/builtin/lv_tlsf.c **** 
 2556              		.loc 1 865 13 view .LVU756
 865:Drivers/lvgl/src/stdlib/builtin/lv_tlsf.c **** 
 2557              		.loc 1 865 13 view .LVU757
ARM GAS  /var/folders/qx/2_175_4n2s19vhvtspjhb3qh0000gn/T//cccJA90f.s 			page 67


 2558 0046 A542     		cmp	r5, r4
 2559 0048 26D0     		beq	.L163
 2560              	.LVL255:
 2561              	.L162:
 867:Drivers/lvgl/src/stdlib/builtin/lv_tlsf.c ****                 int fli, sli;
 2562              		.loc 1 867 25 view .LVU758
 2563 004a A542     		cmp	r5, r4
 2564 004c 2BD0     		beq	.L158
 2565              	.LBB10:
 868:Drivers/lvgl/src/stdlib/builtin/lv_tlsf.c ****                 tlsf_insist(block_is_free(block) && "block should be free");
 2566              		.loc 1 868 17 view .LVU759
 869:Drivers/lvgl/src/stdlib/builtin/lv_tlsf.c ****                 tlsf_insist(!block_is_prev_free(block) && "blocks should have coalesced");
 2567              		.loc 1 869 17 view .LVU760
 869:Drivers/lvgl/src/stdlib/builtin/lv_tlsf.c ****                 tlsf_insist(!block_is_prev_free(block) && "blocks should have coalesced");
 2568              		.loc 1 869 17 view .LVU761
 2569 004e 2046     		mov	r0, r4
 2570 0050 FFF7FEFF 		bl	block_is_free
 2571              	.LVL256:
 869:Drivers/lvgl/src/stdlib/builtin/lv_tlsf.c ****                 tlsf_insist(!block_is_prev_free(block) && "blocks should have coalesced");
 2572              		.loc 1 869 17 is_stmt 0 discriminator 1 view .LVU762
 2573 0054 08B3     		cbz	r0, .L165
 869:Drivers/lvgl/src/stdlib/builtin/lv_tlsf.c ****                 tlsf_insist(!block_is_prev_free(block) && "blocks should have coalesced");
 2574              		.loc 1 869 17 is_stmt 1 discriminator 2 view .LVU763
 869:Drivers/lvgl/src/stdlib/builtin/lv_tlsf.c ****                 tlsf_insist(!block_is_prev_free(block) && "blocks should have coalesced");
 2575              		.loc 1 869 17 discriminator 2 view .LVU764
 869:Drivers/lvgl/src/stdlib/builtin/lv_tlsf.c ****                 tlsf_insist(!block_is_prev_free(block) && "blocks should have coalesced");
 2576              		.loc 1 869 76 view .LVU765
 870:Drivers/lvgl/src/stdlib/builtin/lv_tlsf.c ****                 tlsf_insist(!block_is_free(block_next(block)) && "blocks should have coalesced");
 2577              		.loc 1 870 17 view .LVU766
 870:Drivers/lvgl/src/stdlib/builtin/lv_tlsf.c ****                 tlsf_insist(!block_is_free(block_next(block)) && "blocks should have coalesced");
 2578              		.loc 1 870 17 view .LVU767
 2579 0056 2046     		mov	r0, r4
 2580 0058 FFF7FEFF 		bl	block_is_prev_free
 2581              	.LVL257:
 870:Drivers/lvgl/src/stdlib/builtin/lv_tlsf.c ****                 tlsf_insist(!block_is_free(block_next(block)) && "blocks should have coalesced");
 2582              		.loc 1 870 17 is_stmt 0 discriminator 1 view .LVU768
 2583 005c F0B9     		cbnz	r0, .L167
 870:Drivers/lvgl/src/stdlib/builtin/lv_tlsf.c ****                 tlsf_insist(!block_is_free(block_next(block)) && "blocks should have coalesced");
 2584              		.loc 1 870 17 is_stmt 1 discriminator 1 view .LVU769
 870:Drivers/lvgl/src/stdlib/builtin/lv_tlsf.c ****                 tlsf_insist(!block_is_free(block_next(block)) && "blocks should have coalesced");
 2585              		.loc 1 870 17 discriminator 1 view .LVU770
 870:Drivers/lvgl/src/stdlib/builtin/lv_tlsf.c ****                 tlsf_insist(!block_is_free(block_next(block)) && "blocks should have coalesced");
 2586              		.loc 1 870 90 view .LVU771
 871:Drivers/lvgl/src/stdlib/builtin/lv_tlsf.c ****                 tlsf_insist(block_is_prev_free(block_next(block)) && "block should be free");
 2587              		.loc 1 871 17 view .LVU772
 871:Drivers/lvgl/src/stdlib/builtin/lv_tlsf.c ****                 tlsf_insist(block_is_prev_free(block_next(block)) && "block should be free");
 2588              		.loc 1 871 17 view .LVU773
 2589 005e 2046     		mov	r0, r4
 2590 0060 FFF7FEFF 		bl	block_next
 2591              	.LVL258:
 2592 0064 8046     		mov	r8, r0
 871:Drivers/lvgl/src/stdlib/builtin/lv_tlsf.c ****                 tlsf_insist(block_is_prev_free(block_next(block)) && "block should be free");
 2593              		.loc 1 871 17 is_stmt 0 discriminator 1 view .LVU774
 2594 0066 FFF7FEFF 		bl	block_is_free
 2595              	.LVL259:
 871:Drivers/lvgl/src/stdlib/builtin/lv_tlsf.c ****                 tlsf_insist(block_is_prev_free(block_next(block)) && "block should be free");
 2596              		.loc 1 871 17 discriminator 2 view .LVU775
ARM GAS  /var/folders/qx/2_175_4n2s19vhvtspjhb3qh0000gn/T//cccJA90f.s 			page 68


 2597 006a C0B9     		cbnz	r0, .L169
 871:Drivers/lvgl/src/stdlib/builtin/lv_tlsf.c ****                 tlsf_insist(block_is_prev_free(block_next(block)) && "block should be free");
 2598              		.loc 1 871 17 is_stmt 1 discriminator 1 view .LVU776
 871:Drivers/lvgl/src/stdlib/builtin/lv_tlsf.c ****                 tlsf_insist(block_is_prev_free(block_next(block)) && "block should be free");
 2599              		.loc 1 871 17 discriminator 1 view .LVU777
 871:Drivers/lvgl/src/stdlib/builtin/lv_tlsf.c ****                 tlsf_insist(block_is_prev_free(block_next(block)) && "block should be free");
 2600              		.loc 1 871 97 view .LVU778
 872:Drivers/lvgl/src/stdlib/builtin/lv_tlsf.c ****                 tlsf_insist(block_size(block) >= block_size_min && "block not minimum size");
 2601              		.loc 1 872 17 view .LVU779
 872:Drivers/lvgl/src/stdlib/builtin/lv_tlsf.c ****                 tlsf_insist(block_size(block) >= block_size_min && "block not minimum size");
 2602              		.loc 1 872 17 view .LVU780
 872:Drivers/lvgl/src/stdlib/builtin/lv_tlsf.c ****                 tlsf_insist(block_size(block) >= block_size_min && "block not minimum size");
 2603              		.loc 1 872 17 is_stmt 0 discriminator 1 view .LVU781
 2604 006c 4046     		mov	r0, r8
 2605 006e FFF7FEFF 		bl	block_is_prev_free
 2606              	.LVL260:
 872:Drivers/lvgl/src/stdlib/builtin/lv_tlsf.c ****                 tlsf_insist(block_size(block) >= block_size_min && "block not minimum size");
 2607              		.loc 1 872 17 discriminator 2 view .LVU782
 2608 0072 A8B1     		cbz	r0, .L171
 872:Drivers/lvgl/src/stdlib/builtin/lv_tlsf.c ****                 tlsf_insist(block_size(block) >= block_size_min && "block not minimum size");
 2609              		.loc 1 872 17 is_stmt 1 discriminator 2 view .LVU783
 872:Drivers/lvgl/src/stdlib/builtin/lv_tlsf.c ****                 tlsf_insist(block_size(block) >= block_size_min && "block not minimum size");
 2610              		.loc 1 872 17 discriminator 2 view .LVU784
 872:Drivers/lvgl/src/stdlib/builtin/lv_tlsf.c ****                 tlsf_insist(block_size(block) >= block_size_min && "block not minimum size");
 2611              		.loc 1 872 93 view .LVU785
 873:Drivers/lvgl/src/stdlib/builtin/lv_tlsf.c **** 
 2612              		.loc 1 873 17 view .LVU786
 873:Drivers/lvgl/src/stdlib/builtin/lv_tlsf.c **** 
 2613              		.loc 1 873 17 view .LVU787
 2614 0074 2046     		mov	r0, r4
 2615 0076 FFF7FEFF 		bl	block_size
 2616              	.LVL261:
 873:Drivers/lvgl/src/stdlib/builtin/lv_tlsf.c **** 
 2617              		.loc 1 873 17 is_stmt 0 discriminator 1 view .LVU788
 2618 007a 0B28     		cmp	r0, #11
 2619 007c 11D9     		bls	.L173
 873:Drivers/lvgl/src/stdlib/builtin/lv_tlsf.c **** 
 2620              		.loc 1 873 17 is_stmt 1 discriminator 2 view .LVU789
 873:Drivers/lvgl/src/stdlib/builtin/lv_tlsf.c **** 
 2621              		.loc 1 873 17 discriminator 2 view .LVU790
 873:Drivers/lvgl/src/stdlib/builtin/lv_tlsf.c **** 
 2622              		.loc 1 873 93 view .LVU791
 875:Drivers/lvgl/src/stdlib/builtin/lv_tlsf.c ****                 tlsf_insist(fli == i && sli == j && "block size indexed in wrong list");
 2623              		.loc 1 875 17 view .LVU792
 875:Drivers/lvgl/src/stdlib/builtin/lv_tlsf.c ****                 tlsf_insist(fli == i && sli == j && "block size indexed in wrong list");
 2624              		.loc 1 875 17 is_stmt 0 discriminator 1 view .LVU793
 2625 007e 01AA     		add	r2, sp, #4
 2626 0080 6946     		mov	r1, sp
 2627 0082 FFF7FEFF 		bl	mapping_insert
 2628              	.LVL262:
 876:Drivers/lvgl/src/stdlib/builtin/lv_tlsf.c ****                 block = block->next_free;
 2629              		.loc 1 876 17 is_stmt 1 view .LVU794
 876:Drivers/lvgl/src/stdlib/builtin/lv_tlsf.c ****                 block = block->next_free;
 2630              		.loc 1 876 17 view .LVU795
 2631 0086 009B     		ldr	r3, [sp]
 2632 0088 B342     		cmp	r3, r6
 2633 008a 0BD1     		bne	.L174
ARM GAS  /var/folders/qx/2_175_4n2s19vhvtspjhb3qh0000gn/T//cccJA90f.s 			page 69


 876:Drivers/lvgl/src/stdlib/builtin/lv_tlsf.c ****                 block = block->next_free;
 2634              		.loc 1 876 17 is_stmt 0 discriminator 1 view .LVU796
 2635 008c 019B     		ldr	r3, [sp, #4]
 2636 008e BB42     		cmp	r3, r7
 2637 0090 08D1     		bne	.L174
 876:Drivers/lvgl/src/stdlib/builtin/lv_tlsf.c ****                 block = block->next_free;
 2638              		.loc 1 876 17 is_stmt 1 discriminator 2 view .LVU797
 876:Drivers/lvgl/src/stdlib/builtin/lv_tlsf.c ****                 block = block->next_free;
 2639              		.loc 1 876 17 discriminator 2 view .LVU798
 876:Drivers/lvgl/src/stdlib/builtin/lv_tlsf.c ****                 block = block->next_free;
 2640              		.loc 1 876 88 view .LVU799
 877:Drivers/lvgl/src/stdlib/builtin/lv_tlsf.c ****             }
 2641              		.loc 1 877 17 view .LVU800
 877:Drivers/lvgl/src/stdlib/builtin/lv_tlsf.c ****             }
 2642              		.loc 1 877 23 is_stmt 0 view .LVU801
 2643 0092 A468     		ldr	r4, [r4, #8]
 2644              	.LVL263:
 877:Drivers/lvgl/src/stdlib/builtin/lv_tlsf.c ****             }
 2645              		.loc 1 877 23 view .LVU802
 2646 0094 D9E7     		b	.L162
 2647              	.LVL264:
 2648              	.L161:
 877:Drivers/lvgl/src/stdlib/builtin/lv_tlsf.c ****             }
 2649              		.loc 1 877 23 view .LVU803
 2650              	.LBE10:
 864:Drivers/lvgl/src/stdlib/builtin/lv_tlsf.c ****             tlsf_insist(block != &control->block_null && "block should not be null");
 2651              		.loc 1 864 13 is_stmt 1 view .LVU804
 864:Drivers/lvgl/src/stdlib/builtin/lv_tlsf.c ****             tlsf_insist(block != &control->block_null && "block should not be null");
 2652              		.loc 1 864 13 view .LVU805
 864:Drivers/lvgl/src/stdlib/builtin/lv_tlsf.c ****             tlsf_insist(block != &control->block_null && "block should not be null");
 2653              		.loc 1 864 13 view .LVU806
 864:Drivers/lvgl/src/stdlib/builtin/lv_tlsf.c ****             tlsf_insist(block != &control->block_null && "block should not be null");
 2654              		.loc 1 864 13 view .LVU807
 864:Drivers/lvgl/src/stdlib/builtin/lv_tlsf.c ****             tlsf_insist(block != &control->block_null && "block should not be null");
 2655              		.loc 1 864 13 view .LVU808
 2656 0096 FEE7     		b	.L161
 2657              	.L163:
 865:Drivers/lvgl/src/stdlib/builtin/lv_tlsf.c **** 
 2658              		.loc 1 865 13 view .LVU809
 865:Drivers/lvgl/src/stdlib/builtin/lv_tlsf.c **** 
 2659              		.loc 1 865 13 view .LVU810
 865:Drivers/lvgl/src/stdlib/builtin/lv_tlsf.c **** 
 2660              		.loc 1 865 13 view .LVU811
 865:Drivers/lvgl/src/stdlib/builtin/lv_tlsf.c **** 
 2661              		.loc 1 865 13 view .LVU812
 865:Drivers/lvgl/src/stdlib/builtin/lv_tlsf.c **** 
 2662              		.loc 1 865 13 view .LVU813
 2663 0098 FEE7     		b	.L163
 2664              	.LVL265:
 2665              	.L165:
 2666              	.LBB11:
 869:Drivers/lvgl/src/stdlib/builtin/lv_tlsf.c ****                 tlsf_insist(!block_is_prev_free(block) && "blocks should have coalesced");
 2667              		.loc 1 869 17 view .LVU814
 869:Drivers/lvgl/src/stdlib/builtin/lv_tlsf.c ****                 tlsf_insist(!block_is_prev_free(block) && "blocks should have coalesced");
 2668              		.loc 1 869 17 view .LVU815
 869:Drivers/lvgl/src/stdlib/builtin/lv_tlsf.c ****                 tlsf_insist(!block_is_prev_free(block) && "blocks should have coalesced");
 2669              		.loc 1 869 17 view .LVU816
ARM GAS  /var/folders/qx/2_175_4n2s19vhvtspjhb3qh0000gn/T//cccJA90f.s 			page 70


 869:Drivers/lvgl/src/stdlib/builtin/lv_tlsf.c ****                 tlsf_insist(!block_is_prev_free(block) && "blocks should have coalesced");
 2670              		.loc 1 869 17 view .LVU817
 869:Drivers/lvgl/src/stdlib/builtin/lv_tlsf.c ****                 tlsf_insist(!block_is_prev_free(block) && "blocks should have coalesced");
 2671              		.loc 1 869 17 view .LVU818
 2672 009a FEE7     		b	.L165
 2673              	.L167:
 870:Drivers/lvgl/src/stdlib/builtin/lv_tlsf.c ****                 tlsf_insist(!block_is_free(block_next(block)) && "blocks should have coalesced");
 2674              		.loc 1 870 17 view .LVU819
 870:Drivers/lvgl/src/stdlib/builtin/lv_tlsf.c ****                 tlsf_insist(!block_is_free(block_next(block)) && "blocks should have coalesced");
 2675              		.loc 1 870 17 view .LVU820
 870:Drivers/lvgl/src/stdlib/builtin/lv_tlsf.c ****                 tlsf_insist(!block_is_free(block_next(block)) && "blocks should have coalesced");
 2676              		.loc 1 870 17 view .LVU821
 870:Drivers/lvgl/src/stdlib/builtin/lv_tlsf.c ****                 tlsf_insist(!block_is_free(block_next(block)) && "blocks should have coalesced");
 2677              		.loc 1 870 17 view .LVU822
 870:Drivers/lvgl/src/stdlib/builtin/lv_tlsf.c ****                 tlsf_insist(!block_is_free(block_next(block)) && "blocks should have coalesced");
 2678              		.loc 1 870 17 view .LVU823
 2679 009c FEE7     		b	.L167
 2680              	.L169:
 871:Drivers/lvgl/src/stdlib/builtin/lv_tlsf.c ****                 tlsf_insist(block_is_prev_free(block_next(block)) && "block should be free");
 2681              		.loc 1 871 17 view .LVU824
 871:Drivers/lvgl/src/stdlib/builtin/lv_tlsf.c ****                 tlsf_insist(block_is_prev_free(block_next(block)) && "block should be free");
 2682              		.loc 1 871 17 view .LVU825
 871:Drivers/lvgl/src/stdlib/builtin/lv_tlsf.c ****                 tlsf_insist(block_is_prev_free(block_next(block)) && "block should be free");
 2683              		.loc 1 871 17 view .LVU826
 871:Drivers/lvgl/src/stdlib/builtin/lv_tlsf.c ****                 tlsf_insist(block_is_prev_free(block_next(block)) && "block should be free");
 2684              		.loc 1 871 17 view .LVU827
 871:Drivers/lvgl/src/stdlib/builtin/lv_tlsf.c ****                 tlsf_insist(block_is_prev_free(block_next(block)) && "block should be free");
 2685              		.loc 1 871 17 view .LVU828
 2686 009e FEE7     		b	.L169
 2687              	.L171:
 872:Drivers/lvgl/src/stdlib/builtin/lv_tlsf.c ****                 tlsf_insist(block_size(block) >= block_size_min && "block not minimum size");
 2688              		.loc 1 872 17 view .LVU829
 872:Drivers/lvgl/src/stdlib/builtin/lv_tlsf.c ****                 tlsf_insist(block_size(block) >= block_size_min && "block not minimum size");
 2689              		.loc 1 872 17 view .LVU830
 872:Drivers/lvgl/src/stdlib/builtin/lv_tlsf.c ****                 tlsf_insist(block_size(block) >= block_size_min && "block not minimum size");
 2690              		.loc 1 872 17 view .LVU831
 872:Drivers/lvgl/src/stdlib/builtin/lv_tlsf.c ****                 tlsf_insist(block_size(block) >= block_size_min && "block not minimum size");
 2691              		.loc 1 872 17 view .LVU832
 872:Drivers/lvgl/src/stdlib/builtin/lv_tlsf.c ****                 tlsf_insist(block_size(block) >= block_size_min && "block not minimum size");
 2692              		.loc 1 872 17 view .LVU833
 2693 00a0 FEE7     		b	.L171
 2694              	.L173:
 873:Drivers/lvgl/src/stdlib/builtin/lv_tlsf.c **** 
 2695              		.loc 1 873 17 view .LVU834
 873:Drivers/lvgl/src/stdlib/builtin/lv_tlsf.c **** 
 2696              		.loc 1 873 17 view .LVU835
 873:Drivers/lvgl/src/stdlib/builtin/lv_tlsf.c **** 
 2697              		.loc 1 873 17 view .LVU836
 873:Drivers/lvgl/src/stdlib/builtin/lv_tlsf.c **** 
 2698              		.loc 1 873 17 view .LVU837
 873:Drivers/lvgl/src/stdlib/builtin/lv_tlsf.c **** 
 2699              		.loc 1 873 17 view .LVU838
 2700 00a2 FEE7     		b	.L173
 2701              	.L174:
 876:Drivers/lvgl/src/stdlib/builtin/lv_tlsf.c ****                 block = block->next_free;
 2702              		.loc 1 876 17 view .LVU839
 876:Drivers/lvgl/src/stdlib/builtin/lv_tlsf.c ****                 block = block->next_free;
ARM GAS  /var/folders/qx/2_175_4n2s19vhvtspjhb3qh0000gn/T//cccJA90f.s 			page 71


 2703              		.loc 1 876 17 view .LVU840
 876:Drivers/lvgl/src/stdlib/builtin/lv_tlsf.c ****                 block = block->next_free;
 2704              		.loc 1 876 17 view .LVU841
 876:Drivers/lvgl/src/stdlib/builtin/lv_tlsf.c ****                 block = block->next_free;
 2705              		.loc 1 876 17 view .LVU842
 876:Drivers/lvgl/src/stdlib/builtin/lv_tlsf.c ****                 block = block->next_free;
 2706              		.loc 1 876 17 view .LVU843
 2707 00a4 FEE7     		b	.L174
 2708              	.L158:
 876:Drivers/lvgl/src/stdlib/builtin/lv_tlsf.c ****                 block = block->next_free;
 2709              		.loc 1 876 17 is_stmt 0 view .LVU844
 2710              	.LBE11:
 2711              	.LBE9:
 847:Drivers/lvgl/src/stdlib/builtin/lv_tlsf.c ****             const int fl_map = control->fl_bitmap & (1U << i);
 2712              		.loc 1 847 40 is_stmt 1 discriminator 2 view .LVU845
 2713 00a6 0137     		adds	r7, r7, #1
 2714              	.LVL266:
 847:Drivers/lvgl/src/stdlib/builtin/lv_tlsf.c ****             const int fl_map = control->fl_bitmap & (1U << i);
 2715              		.loc 1 847 40 is_stmt 0 discriminator 2 view .LVU846
 2716 00a8 B2E7     		b	.L178
 2717              	.LVL267:
 2718              	.L182:
 846:Drivers/lvgl/src/stdlib/builtin/lv_tlsf.c ****         for(j = 0; j < SL_INDEX_COUNT; ++j) {
 2719              		.loc 1 846 36 is_stmt 1 discriminator 2 view .LVU847
 2720 00aa 0136     		adds	r6, r6, #1
 2721              	.LVL268:
 846:Drivers/lvgl/src/stdlib/builtin/lv_tlsf.c ****         for(j = 0; j < SL_INDEX_COUNT; ++j) {
 2722              		.loc 1 846 36 is_stmt 0 discriminator 2 view .LVU848
 2723 00ac ADE7     		b	.L154
 2724              	.LVL269:
 2725              	.L181:
 882:Drivers/lvgl/src/stdlib/builtin/lv_tlsf.c **** }
 2726              		.loc 1 882 5 is_stmt 1 view .LVU849
 883:Drivers/lvgl/src/stdlib/builtin/lv_tlsf.c **** 
 2727              		.loc 1 883 1 is_stmt 0 view .LVU850
 2728 00ae 0020     		movs	r0, #0
 2729 00b0 02B0     		add	sp, sp, #8
 2730              	.LCFI34:
 2731              		.cfi_def_cfa_offset 24
 2732              		@ sp needed
 2733 00b2 BDE8F081 		pop	{r4, r5, r6, r7, r8, pc}
 883:Drivers/lvgl/src/stdlib/builtin/lv_tlsf.c **** 
 2734              		.loc 1 883 1 view .LVU851
 2735              		.cfi_endproc
 2736              	.LFE56:
 2738              		.section	.text.lv_tlsf_walk_pool,"ax",%progbits
 2739              		.align	1
 2740              		.global	lv_tlsf_walk_pool
 2741              		.syntax unified
 2742              		.thumb
 2743              		.thumb_func
 2745              	lv_tlsf_walk_pool:
 2746              	.LVL270:
 2747              	.LFB58:
 892:Drivers/lvgl/src/stdlib/builtin/lv_tlsf.c **** 
 893:Drivers/lvgl/src/stdlib/builtin/lv_tlsf.c **** void lv_tlsf_walk_pool(lv_pool_t pool, lv_tlsf_walker walker, void * user)
 894:Drivers/lvgl/src/stdlib/builtin/lv_tlsf.c **** {
ARM GAS  /var/folders/qx/2_175_4n2s19vhvtspjhb3qh0000gn/T//cccJA90f.s 			page 72


 2748              		.loc 1 894 1 is_stmt 1 view -0
 2749              		.cfi_startproc
 2750              		@ args = 0, pretend = 0, frame = 0
 2751              		@ frame_needed = 0, uses_anonymous_args = 0
 2752              		.loc 1 894 1 is_stmt 0 view .LVU853
 2753 0000 2DE9F041 		push	{r4, r5, r6, r7, r8, lr}
 2754              	.LCFI35:
 2755              		.cfi_def_cfa_offset 24
 2756              		.cfi_offset 4, -24
 2757              		.cfi_offset 5, -20
 2758              		.cfi_offset 6, -16
 2759              		.cfi_offset 7, -12
 2760              		.cfi_offset 8, -8
 2761              		.cfi_offset 14, -4
 2762 0004 1746     		mov	r7, r2
 895:Drivers/lvgl/src/stdlib/builtin/lv_tlsf.c ****     lv_tlsf_walker pool_walker = walker ? walker : default_walker;
 2763              		.loc 1 895 5 is_stmt 1 view .LVU854
 2764              		.loc 1 895 50 is_stmt 0 view .LVU855
 2765 0006 8846     		mov	r8, r1
 2766 0008 29B1     		cbz	r1, .L190
 2767              	.L184:
 2768              	.LVL271:
 896:Drivers/lvgl/src/stdlib/builtin/lv_tlsf.c ****     block_header_t * block =
 2769              		.loc 1 896 5 is_stmt 1 view .LVU856
 897:Drivers/lvgl/src/stdlib/builtin/lv_tlsf.c ****         offset_to_block(pool, -(int)block_header_overhead);
 2770              		.loc 1 897 9 is_stmt 0 view .LVU857
 2771 000a 6FF00301 		mvn	r1, #3
 2772              	.LVL272:
 2773              		.loc 1 897 9 view .LVU858
 2774 000e FFF7FEFF 		bl	offset_to_block
 2775              	.LVL273:
 2776              		.loc 1 897 9 view .LVU859
 2777 0012 0446     		mov	r4, r0
 2778              	.LVL274:
 898:Drivers/lvgl/src/stdlib/builtin/lv_tlsf.c **** 
 899:Drivers/lvgl/src/stdlib/builtin/lv_tlsf.c ****     while(block && !block_is_last(block)) {
 2779              		.loc 1 899 5 is_stmt 1 view .LVU860
 2780              		.loc 1 899 10 is_stmt 0 view .LVU861
 2781 0014 18E0     		b	.L185
 2782              	.LVL275:
 2783              	.L190:
 895:Drivers/lvgl/src/stdlib/builtin/lv_tlsf.c ****     block_header_t * block =
 2784              		.loc 1 895 50 discriminator 2 view .LVU862
 2785 0016 DFF84080 		ldr	r8, .L191
 2786 001a F6E7     		b	.L184
 2787              	.LVL276:
 2788              	.L187:
 900:Drivers/lvgl/src/stdlib/builtin/lv_tlsf.c ****         pool_walker(
 2789              		.loc 1 900 9 is_stmt 1 view .LVU863
 2790 001c 2046     		mov	r0, r4
 2791 001e FFF7FEFF 		bl	block_to_ptr
 2792              	.LVL277:
 2793 0022 0546     		mov	r5, r0
 2794              		.loc 1 900 9 is_stmt 0 discriminator 1 view .LVU864
 2795 0024 2046     		mov	r0, r4
 2796 0026 FFF7FEFF 		bl	block_size
 2797              	.LVL278:
ARM GAS  /var/folders/qx/2_175_4n2s19vhvtspjhb3qh0000gn/T//cccJA90f.s 			page 73


 2798 002a 0646     		mov	r6, r0
 901:Drivers/lvgl/src/stdlib/builtin/lv_tlsf.c ****             block_to_ptr(block),
 902:Drivers/lvgl/src/stdlib/builtin/lv_tlsf.c ****             block_size(block),
 903:Drivers/lvgl/src/stdlib/builtin/lv_tlsf.c ****             !block_is_free(block),
 2799              		.loc 1 903 14 view .LVU865
 2800 002c 2046     		mov	r0, r4
 2801 002e FFF7FEFF 		bl	block_is_free
 2802              	.LVL279:
 900:Drivers/lvgl/src/stdlib/builtin/lv_tlsf.c ****         pool_walker(
 2803              		.loc 1 900 9 view .LVU866
 2804 0032 3B46     		mov	r3, r7
 2805 0034 B0FA80F2 		clz	r2, r0
 2806 0038 5209     		lsrs	r2, r2, #5
 2807 003a 3146     		mov	r1, r6
 2808 003c 2846     		mov	r0, r5
 2809 003e C047     		blx	r8
 2810              	.LVL280:
 904:Drivers/lvgl/src/stdlib/builtin/lv_tlsf.c ****             user);
 905:Drivers/lvgl/src/stdlib/builtin/lv_tlsf.c ****         block = block_next(block);
 2811              		.loc 1 905 9 is_stmt 1 view .LVU867
 2812              		.loc 1 905 17 is_stmt 0 view .LVU868
 2813 0040 2046     		mov	r0, r4
 2814 0042 FFF7FEFF 		bl	block_next
 2815              	.LVL281:
 2816 0046 0446     		mov	r4, r0
 2817              	.LVL282:
 2818              	.L185:
 899:Drivers/lvgl/src/stdlib/builtin/lv_tlsf.c ****         pool_walker(
 2819              		.loc 1 899 17 is_stmt 1 view .LVU869
 2820 0048 24B1     		cbz	r4, .L183
 899:Drivers/lvgl/src/stdlib/builtin/lv_tlsf.c ****         pool_walker(
 2821              		.loc 1 899 21 is_stmt 0 discriminator 1 view .LVU870
 2822 004a 2046     		mov	r0, r4
 2823 004c FFF7FEFF 		bl	block_is_last
 2824              	.LVL283:
 899:Drivers/lvgl/src/stdlib/builtin/lv_tlsf.c ****         pool_walker(
 2825              		.loc 1 899 17 discriminator 1 view .LVU871
 2826 0050 0028     		cmp	r0, #0
 2827 0052 E3D0     		beq	.L187
 2828              	.L183:
 906:Drivers/lvgl/src/stdlib/builtin/lv_tlsf.c ****     }
 907:Drivers/lvgl/src/stdlib/builtin/lv_tlsf.c **** }
 2829              		.loc 1 907 1 view .LVU872
 2830 0054 BDE8F081 		pop	{r4, r5, r6, r7, r8, pc}
 2831              	.LVL284:
 2832              	.L192:
 2833              		.loc 1 907 1 view .LVU873
 2834              		.align	2
 2835              	.L191:
 2836 0058 00000000 		.word	default_walker
 2837              		.cfi_endproc
 2838              	.LFE58:
 2840              		.section	.text.lv_tlsf_block_size,"ax",%progbits
 2841              		.align	1
 2842              		.global	lv_tlsf_block_size
 2843              		.syntax unified
 2844              		.thumb
ARM GAS  /var/folders/qx/2_175_4n2s19vhvtspjhb3qh0000gn/T//cccJA90f.s 			page 74


 2845              		.thumb_func
 2847              	lv_tlsf_block_size:
 2848              	.LVL285:
 2849              	.LFB59:
 908:Drivers/lvgl/src/stdlib/builtin/lv_tlsf.c **** 
 909:Drivers/lvgl/src/stdlib/builtin/lv_tlsf.c **** size_t lv_tlsf_block_size(void * ptr)
 910:Drivers/lvgl/src/stdlib/builtin/lv_tlsf.c **** {
 2850              		.loc 1 910 1 is_stmt 1 view -0
 2851              		.cfi_startproc
 2852              		@ args = 0, pretend = 0, frame = 0
 2853              		@ frame_needed = 0, uses_anonymous_args = 0
 911:Drivers/lvgl/src/stdlib/builtin/lv_tlsf.c ****     size_t size = 0;
 2854              		.loc 1 911 5 view .LVU875
 912:Drivers/lvgl/src/stdlib/builtin/lv_tlsf.c ****     if(ptr) {
 2855              		.loc 1 912 5 view .LVU876
 2856              		.loc 1 912 7 is_stmt 0 view .LVU877
 2857 0000 28B1     		cbz	r0, .L195
 910:Drivers/lvgl/src/stdlib/builtin/lv_tlsf.c ****     size_t size = 0;
 2858              		.loc 1 910 1 view .LVU878
 2859 0002 08B5     		push	{r3, lr}
 2860              	.LCFI36:
 2861              		.cfi_def_cfa_offset 8
 2862              		.cfi_offset 3, -8
 2863              		.cfi_offset 14, -4
 2864              	.LBB12:
 913:Drivers/lvgl/src/stdlib/builtin/lv_tlsf.c ****         const block_header_t * block = block_from_ptr(ptr);
 2865              		.loc 1 913 9 is_stmt 1 view .LVU879
 2866              		.loc 1 913 40 is_stmt 0 view .LVU880
 2867 0004 FFF7FEFF 		bl	block_from_ptr
 2868              	.LVL286:
 914:Drivers/lvgl/src/stdlib/builtin/lv_tlsf.c ****         size = block_size(block);
 2869              		.loc 1 914 9 is_stmt 1 view .LVU881
 2870              		.loc 1 914 16 is_stmt 0 view .LVU882
 2871 0008 FFF7FEFF 		bl	block_size
 2872              	.LVL287:
 2873              		.loc 1 914 16 view .LVU883
 2874              	.LBE12:
 915:Drivers/lvgl/src/stdlib/builtin/lv_tlsf.c ****     }
 916:Drivers/lvgl/src/stdlib/builtin/lv_tlsf.c ****     return size;
 917:Drivers/lvgl/src/stdlib/builtin/lv_tlsf.c **** }
 2875              		.loc 1 917 1 view .LVU884
 2876 000c 08BD     		pop	{r3, pc}
 2877              	.LVL288:
 2878              	.L195:
 2879              	.LCFI37:
 2880              		.cfi_def_cfa_offset 0
 2881              		.cfi_restore 3
 2882              		.cfi_restore 14
 911:Drivers/lvgl/src/stdlib/builtin/lv_tlsf.c ****     if(ptr) {
 2883              		.loc 1 911 12 view .LVU885
 2884 000e 0020     		movs	r0, #0
 2885              	.LVL289:
 916:Drivers/lvgl/src/stdlib/builtin/lv_tlsf.c **** }
 2886              		.loc 1 916 5 is_stmt 1 view .LVU886
 2887              		.loc 1 917 1 is_stmt 0 view .LVU887
 2888 0010 7047     		bx	lr
 2889              		.cfi_endproc
ARM GAS  /var/folders/qx/2_175_4n2s19vhvtspjhb3qh0000gn/T//cccJA90f.s 			page 75


 2890              	.LFE59:
 2892              		.section	.text.lv_tlsf_check_pool,"ax",%progbits
 2893              		.align	1
 2894              		.global	lv_tlsf_check_pool
 2895              		.syntax unified
 2896              		.thumb
 2897              		.thumb_func
 2899              	lv_tlsf_check_pool:
 2900              	.LVL290:
 2901              	.LFB60:
 918:Drivers/lvgl/src/stdlib/builtin/lv_tlsf.c **** 
 919:Drivers/lvgl/src/stdlib/builtin/lv_tlsf.c **** int lv_tlsf_check_pool(lv_pool_t pool)
 920:Drivers/lvgl/src/stdlib/builtin/lv_tlsf.c **** {
 2902              		.loc 1 920 1 is_stmt 1 view -0
 2903              		.cfi_startproc
 2904              		@ args = 0, pretend = 0, frame = 8
 2905              		@ frame_needed = 0, uses_anonymous_args = 0
 2906              		.loc 1 920 1 is_stmt 0 view .LVU889
 2907 0000 00B5     		push	{lr}
 2908              	.LCFI38:
 2909              		.cfi_def_cfa_offset 4
 2910              		.cfi_offset 14, -4
 2911 0002 83B0     		sub	sp, sp, #12
 2912              	.LCFI39:
 2913              		.cfi_def_cfa_offset 16
 921:Drivers/lvgl/src/stdlib/builtin/lv_tlsf.c ****     /* Check that the blocks are physically correct. */
 922:Drivers/lvgl/src/stdlib/builtin/lv_tlsf.c ****     integrity_t integ = { 0, 0 };
 2914              		.loc 1 922 5 is_stmt 1 view .LVU890
 2915              		.loc 1 922 17 is_stmt 0 view .LVU891
 2916 0004 0023     		movs	r3, #0
 2917 0006 0093     		str	r3, [sp]
 2918 0008 0193     		str	r3, [sp, #4]
 923:Drivers/lvgl/src/stdlib/builtin/lv_tlsf.c ****     lv_tlsf_walk_pool(pool, integrity_walker, &integ);
 2919              		.loc 1 923 5 is_stmt 1 view .LVU892
 2920 000a 6A46     		mov	r2, sp
 2921 000c 0349     		ldr	r1, .L202
 2922 000e FFF7FEFF 		bl	lv_tlsf_walk_pool
 2923              	.LVL291:
 924:Drivers/lvgl/src/stdlib/builtin/lv_tlsf.c **** 
 925:Drivers/lvgl/src/stdlib/builtin/lv_tlsf.c ****     return integ.status;
 2924              		.loc 1 925 5 view .LVU893
 926:Drivers/lvgl/src/stdlib/builtin/lv_tlsf.c **** }
 2925              		.loc 1 926 1 is_stmt 0 view .LVU894
 2926 0012 0198     		ldr	r0, [sp, #4]
 2927 0014 03B0     		add	sp, sp, #12
 2928              	.LCFI40:
 2929              		.cfi_def_cfa_offset 4
 2930              		@ sp needed
 2931 0016 5DF804FB 		ldr	pc, [sp], #4
 2932              	.L203:
 2933 001a 00BF     		.align	2
 2934              	.L202:
 2935 001c 00000000 		.word	integrity_walker
 2936              		.cfi_endproc
 2937              	.LFE60:
 2939              		.section	.text.lv_tlsf_size,"ax",%progbits
 2940              		.align	1
ARM GAS  /var/folders/qx/2_175_4n2s19vhvtspjhb3qh0000gn/T//cccJA90f.s 			page 76


 2941              		.global	lv_tlsf_size
 2942              		.syntax unified
 2943              		.thumb
 2944              		.thumb_func
 2946              	lv_tlsf_size:
 2947              	.LFB61:
 927:Drivers/lvgl/src/stdlib/builtin/lv_tlsf.c **** 
 928:Drivers/lvgl/src/stdlib/builtin/lv_tlsf.c **** /*
 929:Drivers/lvgl/src/stdlib/builtin/lv_tlsf.c **** ** Size of the TLSF structures in a given memory block passed to
 930:Drivers/lvgl/src/stdlib/builtin/lv_tlsf.c **** ** lv_tlsf_create, equal to the size of a control_t
 931:Drivers/lvgl/src/stdlib/builtin/lv_tlsf.c **** */
 932:Drivers/lvgl/src/stdlib/builtin/lv_tlsf.c **** size_t lv_tlsf_size(void)
 933:Drivers/lvgl/src/stdlib/builtin/lv_tlsf.c **** {
 2948              		.loc 1 933 1 is_stmt 1 view -0
 2949              		.cfi_startproc
 2950              		@ args = 0, pretend = 0, frame = 0
 2951              		@ frame_needed = 0, uses_anonymous_args = 0
 2952              		@ link register save eliminated.
 934:Drivers/lvgl/src/stdlib/builtin/lv_tlsf.c ****     return sizeof(control_t);
 2953              		.loc 1 934 5 view .LVU896
 935:Drivers/lvgl/src/stdlib/builtin/lv_tlsf.c **** }
 2954              		.loc 1 935 1 is_stmt 0 view .LVU897
 2955 0000 40F23C50 		movw	r0, #1340
 2956 0004 7047     		bx	lr
 2957              		.cfi_endproc
 2958              	.LFE61:
 2960              		.section	.text.lv_tlsf_align_size,"ax",%progbits
 2961              		.align	1
 2962              		.global	lv_tlsf_align_size
 2963              		.syntax unified
 2964              		.thumb
 2965              		.thumb_func
 2967              	lv_tlsf_align_size:
 2968              	.LFB62:
 936:Drivers/lvgl/src/stdlib/builtin/lv_tlsf.c **** 
 937:Drivers/lvgl/src/stdlib/builtin/lv_tlsf.c **** size_t lv_tlsf_align_size(void)
 938:Drivers/lvgl/src/stdlib/builtin/lv_tlsf.c **** {
 2969              		.loc 1 938 1 is_stmt 1 view -0
 2970              		.cfi_startproc
 2971              		@ args = 0, pretend = 0, frame = 0
 2972              		@ frame_needed = 0, uses_anonymous_args = 0
 2973              		@ link register save eliminated.
 939:Drivers/lvgl/src/stdlib/builtin/lv_tlsf.c ****     return ALIGN_SIZE;
 2974              		.loc 1 939 5 view .LVU899
 940:Drivers/lvgl/src/stdlib/builtin/lv_tlsf.c **** }
 2975              		.loc 1 940 1 is_stmt 0 view .LVU900
 2976 0000 0420     		movs	r0, #4
 2977 0002 7047     		bx	lr
 2978              		.cfi_endproc
 2979              	.LFE62:
 2981              		.section	.text.lv_tlsf_block_size_min,"ax",%progbits
 2982              		.align	1
 2983              		.global	lv_tlsf_block_size_min
 2984              		.syntax unified
 2985              		.thumb
 2986              		.thumb_func
 2988              	lv_tlsf_block_size_min:
ARM GAS  /var/folders/qx/2_175_4n2s19vhvtspjhb3qh0000gn/T//cccJA90f.s 			page 77


 2989              	.LFB63:
 941:Drivers/lvgl/src/stdlib/builtin/lv_tlsf.c **** 
 942:Drivers/lvgl/src/stdlib/builtin/lv_tlsf.c **** size_t lv_tlsf_block_size_min(void)
 943:Drivers/lvgl/src/stdlib/builtin/lv_tlsf.c **** {
 2990              		.loc 1 943 1 is_stmt 1 view -0
 2991              		.cfi_startproc
 2992              		@ args = 0, pretend = 0, frame = 0
 2993              		@ frame_needed = 0, uses_anonymous_args = 0
 2994              		@ link register save eliminated.
 944:Drivers/lvgl/src/stdlib/builtin/lv_tlsf.c ****     return block_size_min;
 2995              		.loc 1 944 5 view .LVU902
 945:Drivers/lvgl/src/stdlib/builtin/lv_tlsf.c **** }
 2996              		.loc 1 945 1 is_stmt 0 view .LVU903
 2997 0000 0C20     		movs	r0, #12
 2998 0002 7047     		bx	lr
 2999              		.cfi_endproc
 3000              	.LFE63:
 3002              		.section	.text.lv_tlsf_block_size_max,"ax",%progbits
 3003              		.align	1
 3004              		.global	lv_tlsf_block_size_max
 3005              		.syntax unified
 3006              		.thumb
 3007              		.thumb_func
 3009              	lv_tlsf_block_size_max:
 3010              	.LFB64:
 946:Drivers/lvgl/src/stdlib/builtin/lv_tlsf.c **** 
 947:Drivers/lvgl/src/stdlib/builtin/lv_tlsf.c **** size_t lv_tlsf_block_size_max(void)
 948:Drivers/lvgl/src/stdlib/builtin/lv_tlsf.c **** {
 3011              		.loc 1 948 1 is_stmt 1 view -0
 3012              		.cfi_startproc
 3013              		@ args = 0, pretend = 0, frame = 0
 3014              		@ frame_needed = 0, uses_anonymous_args = 0
 3015              		@ link register save eliminated.
 949:Drivers/lvgl/src/stdlib/builtin/lv_tlsf.c ****     return block_size_max;
 3016              		.loc 1 949 5 view .LVU905
 950:Drivers/lvgl/src/stdlib/builtin/lv_tlsf.c **** }
 3017              		.loc 1 950 1 is_stmt 0 view .LVU906
 3018 0000 4FF48030 		mov	r0, #65536
 3019 0004 7047     		bx	lr
 3020              		.cfi_endproc
 3021              	.LFE64:
 3023              		.section	.text.lv_tlsf_pool_overhead,"ax",%progbits
 3024              		.align	1
 3025              		.global	lv_tlsf_pool_overhead
 3026              		.syntax unified
 3027              		.thumb
 3028              		.thumb_func
 3030              	lv_tlsf_pool_overhead:
 3031              	.LFB65:
 951:Drivers/lvgl/src/stdlib/builtin/lv_tlsf.c **** 
 952:Drivers/lvgl/src/stdlib/builtin/lv_tlsf.c **** /*
 953:Drivers/lvgl/src/stdlib/builtin/lv_tlsf.c **** ** Overhead of the TLSF structures in a given memory block passed to
 954:Drivers/lvgl/src/stdlib/builtin/lv_tlsf.c **** ** lv_tlsf_add_pool, equal to the overhead of a free block and the
 955:Drivers/lvgl/src/stdlib/builtin/lv_tlsf.c **** ** sentinel block.
 956:Drivers/lvgl/src/stdlib/builtin/lv_tlsf.c **** */
 957:Drivers/lvgl/src/stdlib/builtin/lv_tlsf.c **** size_t lv_tlsf_pool_overhead(void)
 958:Drivers/lvgl/src/stdlib/builtin/lv_tlsf.c **** {
ARM GAS  /var/folders/qx/2_175_4n2s19vhvtspjhb3qh0000gn/T//cccJA90f.s 			page 78


 3032              		.loc 1 958 1 is_stmt 1 view -0
 3033              		.cfi_startproc
 3034              		@ args = 0, pretend = 0, frame = 0
 3035              		@ frame_needed = 0, uses_anonymous_args = 0
 3036              		@ link register save eliminated.
 959:Drivers/lvgl/src/stdlib/builtin/lv_tlsf.c ****     return 2 * block_header_overhead;
 3037              		.loc 1 959 5 view .LVU908
 960:Drivers/lvgl/src/stdlib/builtin/lv_tlsf.c **** }
 3038              		.loc 1 960 1 is_stmt 0 view .LVU909
 3039 0000 0820     		movs	r0, #8
 3040 0002 7047     		bx	lr
 3041              		.cfi_endproc
 3042              	.LFE65:
 3044              		.section	.text.lv_tlsf_alloc_overhead,"ax",%progbits
 3045              		.align	1
 3046              		.global	lv_tlsf_alloc_overhead
 3047              		.syntax unified
 3048              		.thumb
 3049              		.thumb_func
 3051              	lv_tlsf_alloc_overhead:
 3052              	.LFB66:
 961:Drivers/lvgl/src/stdlib/builtin/lv_tlsf.c **** 
 962:Drivers/lvgl/src/stdlib/builtin/lv_tlsf.c **** size_t lv_tlsf_alloc_overhead(void)
 963:Drivers/lvgl/src/stdlib/builtin/lv_tlsf.c **** {
 3053              		.loc 1 963 1 is_stmt 1 view -0
 3054              		.cfi_startproc
 3055              		@ args = 0, pretend = 0, frame = 0
 3056              		@ frame_needed = 0, uses_anonymous_args = 0
 3057              		@ link register save eliminated.
 964:Drivers/lvgl/src/stdlib/builtin/lv_tlsf.c ****     return block_header_overhead;
 3058              		.loc 1 964 5 view .LVU911
 965:Drivers/lvgl/src/stdlib/builtin/lv_tlsf.c **** }
 3059              		.loc 1 965 1 is_stmt 0 view .LVU912
 3060 0000 0420     		movs	r0, #4
 3061 0002 7047     		bx	lr
 3062              		.cfi_endproc
 3063              	.LFE66:
 3065              		.section	.text.lv_tlsf_add_pool,"ax",%progbits
 3066              		.align	1
 3067              		.global	lv_tlsf_add_pool
 3068              		.syntax unified
 3069              		.thumb
 3070              		.thumb_func
 3072              	lv_tlsf_add_pool:
 3073              	.LVL292:
 3074              	.LFB67:
 966:Drivers/lvgl/src/stdlib/builtin/lv_tlsf.c **** 
 967:Drivers/lvgl/src/stdlib/builtin/lv_tlsf.c **** lv_pool_t lv_tlsf_add_pool(lv_tlsf_t tlsf, void * mem, size_t bytes)
 968:Drivers/lvgl/src/stdlib/builtin/lv_tlsf.c **** {
 3075              		.loc 1 968 1 is_stmt 1 view -0
 3076              		.cfi_startproc
 3077              		@ args = 0, pretend = 0, frame = 0
 3078              		@ frame_needed = 0, uses_anonymous_args = 0
 3079              		.loc 1 968 1 is_stmt 0 view .LVU914
 3080 0000 F8B5     		push	{r3, r4, r5, r6, r7, lr}
 3081              	.LCFI41:
 3082              		.cfi_def_cfa_offset 24
ARM GAS  /var/folders/qx/2_175_4n2s19vhvtspjhb3qh0000gn/T//cccJA90f.s 			page 79


 3083              		.cfi_offset 3, -24
 3084              		.cfi_offset 4, -20
 3085              		.cfi_offset 5, -16
 3086              		.cfi_offset 6, -12
 3087              		.cfi_offset 7, -8
 3088              		.cfi_offset 14, -4
 3089 0002 0746     		mov	r7, r0
 3090 0004 0C46     		mov	r4, r1
 3091 0006 1546     		mov	r5, r2
 969:Drivers/lvgl/src/stdlib/builtin/lv_tlsf.c ****     block_header_t * block;
 3092              		.loc 1 969 5 is_stmt 1 view .LVU915
 970:Drivers/lvgl/src/stdlib/builtin/lv_tlsf.c ****     block_header_t * next;
 3093              		.loc 1 970 5 view .LVU916
 971:Drivers/lvgl/src/stdlib/builtin/lv_tlsf.c **** 
 972:Drivers/lvgl/src/stdlib/builtin/lv_tlsf.c ****     const size_t pool_overhead = lv_tlsf_pool_overhead();
 3094              		.loc 1 972 5 view .LVU917
 3095              		.loc 1 972 34 is_stmt 0 view .LVU918
 3096 0008 FFF7FEFF 		bl	lv_tlsf_pool_overhead
 3097              	.LVL293:
 973:Drivers/lvgl/src/stdlib/builtin/lv_tlsf.c ****     const size_t pool_bytes = align_down(bytes - pool_overhead, ALIGN_SIZE);
 3098              		.loc 1 973 5 is_stmt 1 view .LVU919
 3099              		.loc 1 973 31 is_stmt 0 view .LVU920
 3100 000c 0421     		movs	r1, #4
 3101 000e 281A     		subs	r0, r5, r0
 3102              	.LVL294:
 3103              		.loc 1 973 31 view .LVU921
 3104 0010 FFF7FEFF 		bl	align_down
 3105              	.LVL295:
 974:Drivers/lvgl/src/stdlib/builtin/lv_tlsf.c **** 
 975:Drivers/lvgl/src/stdlib/builtin/lv_tlsf.c ****     if(((ptrdiff_t)mem % ALIGN_SIZE) != 0) {
 3106              		.loc 1 975 5 is_stmt 1 view .LVU922
 3107              		.loc 1 975 7 is_stmt 0 view .LVU923
 3108 0014 14F0030F 		tst	r4, #3
 3109 0018 28D1     		bne	.L212
 3110 001a 0546     		mov	r5, r0
 3111              	.LVL296:
 976:Drivers/lvgl/src/stdlib/builtin/lv_tlsf.c ****         printf("lv_tlsf_add_pool: Memory must be aligned by %u bytes.\n",
 977:Drivers/lvgl/src/stdlib/builtin/lv_tlsf.c ****                (unsigned int)ALIGN_SIZE);
 978:Drivers/lvgl/src/stdlib/builtin/lv_tlsf.c ****         return 0;
 979:Drivers/lvgl/src/stdlib/builtin/lv_tlsf.c ****     }
 980:Drivers/lvgl/src/stdlib/builtin/lv_tlsf.c **** 
 981:Drivers/lvgl/src/stdlib/builtin/lv_tlsf.c ****     if(pool_bytes < block_size_min || pool_bytes > block_size_max) {
 3112              		.loc 1 981 5 is_stmt 1 view .LVU924
 3113              		.loc 1 981 36 is_stmt 0 view .LVU925
 3114 001c A0F10C02 		sub	r2, r0, #12
 3115              		.loc 1 981 7 view .LVU926
 3116 0020 4FF6F473 		movw	r3, #65524
 3117 0024 9A42     		cmp	r2, r3
 3118 0026 23D8     		bhi	.L213
 982:Drivers/lvgl/src/stdlib/builtin/lv_tlsf.c **** #if defined (TLSF_64BIT)
 983:Drivers/lvgl/src/stdlib/builtin/lv_tlsf.c ****         printf("lv_tlsf_add_pool: Memory size must be between 0x%x and 0x%x00 bytes.\n",
 984:Drivers/lvgl/src/stdlib/builtin/lv_tlsf.c ****                (unsigned int)(pool_overhead + block_size_min),
 985:Drivers/lvgl/src/stdlib/builtin/lv_tlsf.c ****                (unsigned int)((pool_overhead + block_size_max) / 256));
 986:Drivers/lvgl/src/stdlib/builtin/lv_tlsf.c **** #else
 987:Drivers/lvgl/src/stdlib/builtin/lv_tlsf.c ****         printf("lv_tlsf_add_pool: Memory size must be between %u and %u bytes.\n",
 988:Drivers/lvgl/src/stdlib/builtin/lv_tlsf.c ****                (unsigned int)(pool_overhead + block_size_min),
 989:Drivers/lvgl/src/stdlib/builtin/lv_tlsf.c ****                (unsigned int)(pool_overhead + block_size_max));
ARM GAS  /var/folders/qx/2_175_4n2s19vhvtspjhb3qh0000gn/T//cccJA90f.s 			page 80


 990:Drivers/lvgl/src/stdlib/builtin/lv_tlsf.c **** #endif
 991:Drivers/lvgl/src/stdlib/builtin/lv_tlsf.c ****         return 0;
 992:Drivers/lvgl/src/stdlib/builtin/lv_tlsf.c ****     }
 993:Drivers/lvgl/src/stdlib/builtin/lv_tlsf.c **** 
 994:Drivers/lvgl/src/stdlib/builtin/lv_tlsf.c ****     /*
 995:Drivers/lvgl/src/stdlib/builtin/lv_tlsf.c ****     ** Create the main free block. Offset the start of the block slightly
 996:Drivers/lvgl/src/stdlib/builtin/lv_tlsf.c ****     ** so that the prev_phys_block field falls outside of the pool -
 997:Drivers/lvgl/src/stdlib/builtin/lv_tlsf.c ****     ** it will never be used.
 998:Drivers/lvgl/src/stdlib/builtin/lv_tlsf.c ****     */
 999:Drivers/lvgl/src/stdlib/builtin/lv_tlsf.c ****     block = offset_to_block(mem, -(tlsfptr_t)block_header_overhead);
 3119              		.loc 1 999 5 is_stmt 1 view .LVU927
 3120              		.loc 1 999 13 is_stmt 0 view .LVU928
 3121 0028 6FF00301 		mvn	r1, #3
 3122 002c 2046     		mov	r0, r4
 3123              	.LVL297:
 3124              		.loc 1 999 13 view .LVU929
 3125 002e FFF7FEFF 		bl	offset_to_block
 3126              	.LVL298:
 3127 0032 0646     		mov	r6, r0
 3128              	.LVL299:
1000:Drivers/lvgl/src/stdlib/builtin/lv_tlsf.c ****     block_set_size(block, pool_bytes);
 3129              		.loc 1 1000 5 is_stmt 1 view .LVU930
 3130 0034 2946     		mov	r1, r5
 3131 0036 FFF7FEFF 		bl	block_set_size
 3132              	.LVL300:
1001:Drivers/lvgl/src/stdlib/builtin/lv_tlsf.c ****     block_set_free(block);
 3133              		.loc 1 1001 5 view .LVU931
 3134 003a 3046     		mov	r0, r6
 3135 003c FFF7FEFF 		bl	block_set_free
 3136              	.LVL301:
1002:Drivers/lvgl/src/stdlib/builtin/lv_tlsf.c ****     block_set_prev_used(block);
 3137              		.loc 1 1002 5 view .LVU932
 3138 0040 3046     		mov	r0, r6
 3139 0042 FFF7FEFF 		bl	block_set_prev_used
 3140              	.LVL302:
1003:Drivers/lvgl/src/stdlib/builtin/lv_tlsf.c ****     block_insert(tlsf_cast(control_t *, tlsf), block);
 3141              		.loc 1 1003 5 view .LVU933
 3142 0046 3146     		mov	r1, r6
 3143 0048 3846     		mov	r0, r7
 3144 004a FFF7FEFF 		bl	block_insert
 3145              	.LVL303:
1004:Drivers/lvgl/src/stdlib/builtin/lv_tlsf.c **** 
1005:Drivers/lvgl/src/stdlib/builtin/lv_tlsf.c ****     /* Split the block to create a zero-size sentinel block. */
1006:Drivers/lvgl/src/stdlib/builtin/lv_tlsf.c ****     next = block_link_next(block);
 3146              		.loc 1 1006 5 view .LVU934
 3147              		.loc 1 1006 12 is_stmt 0 view .LVU935
 3148 004e 3046     		mov	r0, r6
 3149 0050 FFF7FEFF 		bl	block_link_next
 3150              	.LVL304:
 3151 0054 0546     		mov	r5, r0
 3152              	.LVL305:
1007:Drivers/lvgl/src/stdlib/builtin/lv_tlsf.c ****     block_set_size(next, 0);
 3153              		.loc 1 1007 5 is_stmt 1 view .LVU936
 3154 0056 0021     		movs	r1, #0
 3155 0058 FFF7FEFF 		bl	block_set_size
 3156              	.LVL306:
1008:Drivers/lvgl/src/stdlib/builtin/lv_tlsf.c ****     block_set_used(next);
ARM GAS  /var/folders/qx/2_175_4n2s19vhvtspjhb3qh0000gn/T//cccJA90f.s 			page 81


 3157              		.loc 1 1008 5 view .LVU937
 3158 005c 2846     		mov	r0, r5
 3159 005e FFF7FEFF 		bl	block_set_used
 3160              	.LVL307:
1009:Drivers/lvgl/src/stdlib/builtin/lv_tlsf.c ****     block_set_prev_free(next);
 3161              		.loc 1 1009 5 view .LVU938
 3162 0062 2846     		mov	r0, r5
 3163 0064 FFF7FEFF 		bl	block_set_prev_free
 3164              	.LVL308:
1010:Drivers/lvgl/src/stdlib/builtin/lv_tlsf.c **** 
1011:Drivers/lvgl/src/stdlib/builtin/lv_tlsf.c ****     return mem;
 3165              		.loc 1 1011 5 view .LVU939
 3166              		.loc 1 1011 12 is_stmt 0 view .LVU940
 3167 0068 2046     		mov	r0, r4
 3168              	.LVL309:
 3169              	.L210:
1012:Drivers/lvgl/src/stdlib/builtin/lv_tlsf.c **** }
 3170              		.loc 1 1012 1 view .LVU941
 3171 006a F8BD     		pop	{r3, r4, r5, r6, r7, pc}
 3172              	.LVL310:
 3173              	.L212:
 978:Drivers/lvgl/src/stdlib/builtin/lv_tlsf.c ****     }
 3174              		.loc 1 978 16 view .LVU942
 3175 006c 0020     		movs	r0, #0
 3176              	.LVL311:
 978:Drivers/lvgl/src/stdlib/builtin/lv_tlsf.c ****     }
 3177              		.loc 1 978 16 view .LVU943
 3178 006e FCE7     		b	.L210
 3179              	.LVL312:
 3180              	.L213:
 991:Drivers/lvgl/src/stdlib/builtin/lv_tlsf.c ****     }
 3181              		.loc 1 991 16 view .LVU944
 3182 0070 0020     		movs	r0, #0
 3183              	.LVL313:
 991:Drivers/lvgl/src/stdlib/builtin/lv_tlsf.c ****     }
 3184              		.loc 1 991 16 view .LVU945
 3185 0072 FAE7     		b	.L210
 3186              		.cfi_endproc
 3187              	.LFE67:
 3189              		.section	.text.lv_tlsf_remove_pool,"ax",%progbits
 3190              		.align	1
 3191              		.global	lv_tlsf_remove_pool
 3192              		.syntax unified
 3193              		.thumb
 3194              		.thumb_func
 3196              	lv_tlsf_remove_pool:
 3197              	.LVL314:
 3198              	.LFB68:
1013:Drivers/lvgl/src/stdlib/builtin/lv_tlsf.c **** 
1014:Drivers/lvgl/src/stdlib/builtin/lv_tlsf.c **** void lv_tlsf_remove_pool(lv_tlsf_t tlsf, lv_pool_t pool)
1015:Drivers/lvgl/src/stdlib/builtin/lv_tlsf.c **** {
 3199              		.loc 1 1015 1 is_stmt 1 view -0
 3200              		.cfi_startproc
 3201              		@ args = 0, pretend = 0, frame = 8
 3202              		@ frame_needed = 0, uses_anonymous_args = 0
 3203              		.loc 1 1015 1 is_stmt 0 view .LVU947
 3204 0000 70B5     		push	{r4, r5, r6, lr}
ARM GAS  /var/folders/qx/2_175_4n2s19vhvtspjhb3qh0000gn/T//cccJA90f.s 			page 82


 3205              	.LCFI42:
 3206              		.cfi_def_cfa_offset 16
 3207              		.cfi_offset 4, -16
 3208              		.cfi_offset 5, -12
 3209              		.cfi_offset 6, -8
 3210              		.cfi_offset 14, -4
 3211 0002 82B0     		sub	sp, sp, #8
 3212              	.LCFI43:
 3213              		.cfi_def_cfa_offset 24
 3214 0004 0546     		mov	r5, r0
 3215 0006 0846     		mov	r0, r1
 3216              	.LVL315:
1016:Drivers/lvgl/src/stdlib/builtin/lv_tlsf.c ****     control_t * control = tlsf_cast(control_t *, tlsf);
 3217              		.loc 1 1016 5 is_stmt 1 view .LVU948
1017:Drivers/lvgl/src/stdlib/builtin/lv_tlsf.c ****     block_header_t * block = offset_to_block(pool, -(int)block_header_overhead);
 3218              		.loc 1 1017 5 view .LVU949
 3219              		.loc 1 1017 30 is_stmt 0 view .LVU950
 3220 0008 6FF00301 		mvn	r1, #3
 3221              	.LVL316:
 3222              		.loc 1 1017 30 view .LVU951
 3223 000c FFF7FEFF 		bl	offset_to_block
 3224              	.LVL317:
 3225              		.loc 1 1017 30 view .LVU952
 3226 0010 0446     		mov	r4, r0
 3227              	.LVL318:
1018:Drivers/lvgl/src/stdlib/builtin/lv_tlsf.c **** 
1019:Drivers/lvgl/src/stdlib/builtin/lv_tlsf.c ****     int fl = 0, sl = 0;
 3228              		.loc 1 1019 5 is_stmt 1 view .LVU953
 3229              		.loc 1 1019 9 is_stmt 0 view .LVU954
 3230 0012 0023     		movs	r3, #0
 3231 0014 0193     		str	r3, [sp, #4]
 3232              		.loc 1 1019 17 view .LVU955
 3233 0016 0093     		str	r3, [sp]
1020:Drivers/lvgl/src/stdlib/builtin/lv_tlsf.c **** 
1021:Drivers/lvgl/src/stdlib/builtin/lv_tlsf.c ****     tlsf_assert(block_is_free(block) && "block should be free");
 3234              		.loc 1 1021 5 is_stmt 1 view .LVU956
 3235              		.loc 1 1021 5 view .LVU957
 3236 0018 FFF7FEFF 		bl	block_is_free
 3237              	.LVL319:
 3238              		.loc 1 1021 5 is_stmt 0 discriminator 1 view .LVU958
 3239 001c 00B9     		cbnz	r0, .L216
 3240              	.L217:
 3241              		.loc 1 1021 5 is_stmt 1 view .LVU959
 3242              		.loc 1 1021 5 view .LVU960
 3243              		.loc 1 1021 5 view .LVU961
 3244              		.loc 1 1021 5 view .LVU962
 3245              		.loc 1 1021 5 view .LVU963
 3246 001e FEE7     		b	.L217
 3247              	.L216:
 3248              		.loc 1 1021 5 view .LVU964
1022:Drivers/lvgl/src/stdlib/builtin/lv_tlsf.c ****     tlsf_assert(!block_is_free(block_next(block)) && "next block should not be free");
 3249              		.loc 1 1022 5 view .LVU965
 3250              		.loc 1 1022 5 view .LVU966
 3251 0020 2046     		mov	r0, r4
 3252 0022 FFF7FEFF 		bl	block_next
 3253              	.LVL320:
 3254 0026 0646     		mov	r6, r0
ARM GAS  /var/folders/qx/2_175_4n2s19vhvtspjhb3qh0000gn/T//cccJA90f.s 			page 83


 3255              		.loc 1 1022 5 is_stmt 0 discriminator 1 view .LVU967
 3256 0028 FFF7FEFF 		bl	block_is_free
 3257              	.LVL321:
 3258              		.loc 1 1022 5 discriminator 2 view .LVU968
 3259 002c 00B1     		cbz	r0, .L218
 3260              	.L219:
 3261              		.loc 1 1022 5 is_stmt 1 view .LVU969
 3262              		.loc 1 1022 5 view .LVU970
 3263              		.loc 1 1022 5 view .LVU971
 3264              		.loc 1 1022 5 view .LVU972
 3265              		.loc 1 1022 5 view .LVU973
 3266 002e FEE7     		b	.L219
 3267              	.L218:
 3268              		.loc 1 1022 5 view .LVU974
1023:Drivers/lvgl/src/stdlib/builtin/lv_tlsf.c ****     tlsf_assert(block_size(block_next(block)) == 0 && "next block size should be zero");
 3269              		.loc 1 1023 5 view .LVU975
 3270              		.loc 1 1023 5 view .LVU976
 3271              		.loc 1 1023 5 is_stmt 0 discriminator 1 view .LVU977
 3272 0030 3046     		mov	r0, r6
 3273 0032 FFF7FEFF 		bl	block_size
 3274              	.LVL322:
 3275              		.loc 1 1023 5 discriminator 2 view .LVU978
 3276 0036 00B1     		cbz	r0, .L220
 3277              	.L221:
 3278              		.loc 1 1023 5 is_stmt 1 view .LVU979
 3279              		.loc 1 1023 5 view .LVU980
 3280              		.loc 1 1023 5 view .LVU981
 3281              		.loc 1 1023 5 view .LVU982
 3282              		.loc 1 1023 5 view .LVU983
 3283 0038 FEE7     		b	.L221
 3284              	.L220:
 3285              		.loc 1 1023 5 view .LVU984
1024:Drivers/lvgl/src/stdlib/builtin/lv_tlsf.c **** 
1025:Drivers/lvgl/src/stdlib/builtin/lv_tlsf.c ****     mapping_insert(block_size(block), &fl, &sl);
 3286              		.loc 1 1025 5 view .LVU985
 3287 003a 2046     		mov	r0, r4
 3288 003c FFF7FEFF 		bl	block_size
 3289              	.LVL323:
 3290              		.loc 1 1025 5 is_stmt 0 discriminator 1 view .LVU986
 3291 0040 6A46     		mov	r2, sp
 3292 0042 01A9     		add	r1, sp, #4
 3293 0044 FFF7FEFF 		bl	mapping_insert
 3294              	.LVL324:
1026:Drivers/lvgl/src/stdlib/builtin/lv_tlsf.c ****     remove_free_block(control, block, fl, sl);
 3295              		.loc 1 1026 5 is_stmt 1 view .LVU987
 3296 0048 009B     		ldr	r3, [sp]
 3297 004a 019A     		ldr	r2, [sp, #4]
 3298 004c 2146     		mov	r1, r4
 3299 004e 2846     		mov	r0, r5
 3300 0050 FFF7FEFF 		bl	remove_free_block
 3301              	.LVL325:
1027:Drivers/lvgl/src/stdlib/builtin/lv_tlsf.c **** }
 3302              		.loc 1 1027 1 is_stmt 0 view .LVU988
 3303 0054 02B0     		add	sp, sp, #8
 3304              	.LCFI44:
 3305              		.cfi_def_cfa_offset 16
 3306              		@ sp needed
ARM GAS  /var/folders/qx/2_175_4n2s19vhvtspjhb3qh0000gn/T//cccJA90f.s 			page 84


 3307 0056 70BD     		pop	{r4, r5, r6, pc}
 3308              		.loc 1 1027 1 view .LVU989
 3309              		.cfi_endproc
 3310              	.LFE68:
 3312              		.section	.text.lv_tlsf_create,"ax",%progbits
 3313              		.align	1
 3314              		.global	lv_tlsf_create
 3315              		.syntax unified
 3316              		.thumb
 3317              		.thumb_func
 3319              	lv_tlsf_create:
 3320              	.LVL326:
 3321              	.LFB69:
1028:Drivers/lvgl/src/stdlib/builtin/lv_tlsf.c **** 
1029:Drivers/lvgl/src/stdlib/builtin/lv_tlsf.c **** /*
1030:Drivers/lvgl/src/stdlib/builtin/lv_tlsf.c **** ** TLSF main interface.
1031:Drivers/lvgl/src/stdlib/builtin/lv_tlsf.c **** */
1032:Drivers/lvgl/src/stdlib/builtin/lv_tlsf.c **** 
1033:Drivers/lvgl/src/stdlib/builtin/lv_tlsf.c **** #if _DEBUG
1034:Drivers/lvgl/src/stdlib/builtin/lv_tlsf.c **** int test_ffs_fls()
1035:Drivers/lvgl/src/stdlib/builtin/lv_tlsf.c **** {
1036:Drivers/lvgl/src/stdlib/builtin/lv_tlsf.c ****     /* Verify ffs/fls work properly. */
1037:Drivers/lvgl/src/stdlib/builtin/lv_tlsf.c ****     int rv = 0;
1038:Drivers/lvgl/src/stdlib/builtin/lv_tlsf.c ****     rv += (tlsf_ffs(0) == -1) ? 0 : 0x1;
1039:Drivers/lvgl/src/stdlib/builtin/lv_tlsf.c ****     rv += (tlsf_fls(0) == -1) ? 0 : 0x2;
1040:Drivers/lvgl/src/stdlib/builtin/lv_tlsf.c ****     rv += (tlsf_ffs(1) == 0) ? 0 : 0x4;
1041:Drivers/lvgl/src/stdlib/builtin/lv_tlsf.c ****     rv += (tlsf_fls(1) == 0) ? 0 : 0x8;
1042:Drivers/lvgl/src/stdlib/builtin/lv_tlsf.c ****     rv += (tlsf_ffs(0x80000000) == 31) ? 0 : 0x10;
1043:Drivers/lvgl/src/stdlib/builtin/lv_tlsf.c ****     rv += (tlsf_ffs(0x80008000) == 15) ? 0 : 0x20;
1044:Drivers/lvgl/src/stdlib/builtin/lv_tlsf.c ****     rv += (tlsf_fls(0x80000008) == 31) ? 0 : 0x40;
1045:Drivers/lvgl/src/stdlib/builtin/lv_tlsf.c ****     rv += (tlsf_fls(0x7FFFFFFF) == 30) ? 0 : 0x80;
1046:Drivers/lvgl/src/stdlib/builtin/lv_tlsf.c **** 
1047:Drivers/lvgl/src/stdlib/builtin/lv_tlsf.c **** #if defined (TLSF_64BIT)
1048:Drivers/lvgl/src/stdlib/builtin/lv_tlsf.c ****     rv += (tlsf_fls_sizet(0x80000000) == 31) ? 0 : 0x100;
1049:Drivers/lvgl/src/stdlib/builtin/lv_tlsf.c ****     rv += (tlsf_fls_sizet(0x100000000) == 32) ? 0 : 0x200;
1050:Drivers/lvgl/src/stdlib/builtin/lv_tlsf.c ****     rv += (tlsf_fls_sizet(0xffffffffffffffff) == 63) ? 0 : 0x400;
1051:Drivers/lvgl/src/stdlib/builtin/lv_tlsf.c **** #endif
1052:Drivers/lvgl/src/stdlib/builtin/lv_tlsf.c **** 
1053:Drivers/lvgl/src/stdlib/builtin/lv_tlsf.c ****     if(rv) {
1054:Drivers/lvgl/src/stdlib/builtin/lv_tlsf.c ****         printf("test_ffs_fls: %x ffs/fls tests failed.\n", rv);
1055:Drivers/lvgl/src/stdlib/builtin/lv_tlsf.c ****     }
1056:Drivers/lvgl/src/stdlib/builtin/lv_tlsf.c ****     return rv;
1057:Drivers/lvgl/src/stdlib/builtin/lv_tlsf.c **** }
1058:Drivers/lvgl/src/stdlib/builtin/lv_tlsf.c **** #endif
1059:Drivers/lvgl/src/stdlib/builtin/lv_tlsf.c **** 
1060:Drivers/lvgl/src/stdlib/builtin/lv_tlsf.c **** lv_tlsf_t lv_tlsf_create(void * mem)
1061:Drivers/lvgl/src/stdlib/builtin/lv_tlsf.c **** {
 3322              		.loc 1 1061 1 is_stmt 1 view -0
 3323              		.cfi_startproc
 3324              		@ args = 0, pretend = 0, frame = 0
 3325              		@ frame_needed = 0, uses_anonymous_args = 0
1062:Drivers/lvgl/src/stdlib/builtin/lv_tlsf.c **** #if _DEBUG
1063:Drivers/lvgl/src/stdlib/builtin/lv_tlsf.c ****     if(test_ffs_fls()) {
1064:Drivers/lvgl/src/stdlib/builtin/lv_tlsf.c ****         return 0;
1065:Drivers/lvgl/src/stdlib/builtin/lv_tlsf.c ****     }
1066:Drivers/lvgl/src/stdlib/builtin/lv_tlsf.c **** #endif
1067:Drivers/lvgl/src/stdlib/builtin/lv_tlsf.c **** 
ARM GAS  /var/folders/qx/2_175_4n2s19vhvtspjhb3qh0000gn/T//cccJA90f.s 			page 85


1068:Drivers/lvgl/src/stdlib/builtin/lv_tlsf.c ****     if(((tlsfptr_t)mem % ALIGN_SIZE) != 0) {
 3326              		.loc 1 1068 5 view .LVU991
 3327              		.loc 1 1068 7 is_stmt 0 view .LVU992
 3328 0000 10F0030F 		tst	r0, #3
 3329 0004 05D1     		bne	.L225
1061:Drivers/lvgl/src/stdlib/builtin/lv_tlsf.c **** #if _DEBUG
 3330              		.loc 1 1061 1 view .LVU993
 3331 0006 10B5     		push	{r4, lr}
 3332              	.LCFI45:
 3333              		.cfi_def_cfa_offset 8
 3334              		.cfi_offset 4, -8
 3335              		.cfi_offset 14, -4
 3336 0008 0446     		mov	r4, r0
1069:Drivers/lvgl/src/stdlib/builtin/lv_tlsf.c ****         printf("lv_tlsf_create: Memory must be aligned to %u bytes.\n",
1070:Drivers/lvgl/src/stdlib/builtin/lv_tlsf.c ****                (unsigned int)ALIGN_SIZE);
1071:Drivers/lvgl/src/stdlib/builtin/lv_tlsf.c ****         return 0;
1072:Drivers/lvgl/src/stdlib/builtin/lv_tlsf.c ****     }
1073:Drivers/lvgl/src/stdlib/builtin/lv_tlsf.c **** 
1074:Drivers/lvgl/src/stdlib/builtin/lv_tlsf.c ****     control_constructor(tlsf_cast(control_t *, mem));
 3337              		.loc 1 1074 5 is_stmt 1 view .LVU994
 3338 000a FFF7FEFF 		bl	control_constructor
 3339              	.LVL327:
1075:Drivers/lvgl/src/stdlib/builtin/lv_tlsf.c **** 
1076:Drivers/lvgl/src/stdlib/builtin/lv_tlsf.c ****     return tlsf_cast(lv_tlsf_t, mem);
 3340              		.loc 1 1076 5 view .LVU995
 3341              		.loc 1 1076 12 is_stmt 0 view .LVU996
 3342 000e 2046     		mov	r0, r4
1077:Drivers/lvgl/src/stdlib/builtin/lv_tlsf.c **** }
 3343              		.loc 1 1077 1 view .LVU997
 3344 0010 10BD     		pop	{r4, pc}
 3345              	.LVL328:
 3346              	.L225:
 3347              	.LCFI46:
 3348              		.cfi_def_cfa_offset 0
 3349              		.cfi_restore 4
 3350              		.cfi_restore 14
1071:Drivers/lvgl/src/stdlib/builtin/lv_tlsf.c ****     }
 3351              		.loc 1 1071 16 view .LVU998
 3352 0012 0020     		movs	r0, #0
 3353              	.LVL329:
 3354              		.loc 1 1077 1 view .LVU999
 3355 0014 7047     		bx	lr
 3356              		.cfi_endproc
 3357              	.LFE69:
 3359              		.section	.text.lv_tlsf_create_with_pool,"ax",%progbits
 3360              		.align	1
 3361              		.global	lv_tlsf_create_with_pool
 3362              		.syntax unified
 3363              		.thumb
 3364              		.thumb_func
 3366              	lv_tlsf_create_with_pool:
 3367              	.LVL330:
 3368              	.LFB70:
1078:Drivers/lvgl/src/stdlib/builtin/lv_tlsf.c **** 
1079:Drivers/lvgl/src/stdlib/builtin/lv_tlsf.c **** lv_tlsf_t lv_tlsf_create_with_pool(void * mem, size_t bytes)
1080:Drivers/lvgl/src/stdlib/builtin/lv_tlsf.c **** {
 3369              		.loc 1 1080 1 is_stmt 1 view -0
ARM GAS  /var/folders/qx/2_175_4n2s19vhvtspjhb3qh0000gn/T//cccJA90f.s 			page 86


 3370              		.cfi_startproc
 3371              		@ args = 0, pretend = 0, frame = 0
 3372              		@ frame_needed = 0, uses_anonymous_args = 0
 3373              		.loc 1 1080 1 is_stmt 0 view .LVU1001
 3374 0000 70B5     		push	{r4, r5, r6, lr}
 3375              	.LCFI47:
 3376              		.cfi_def_cfa_offset 16
 3377              		.cfi_offset 4, -16
 3378              		.cfi_offset 5, -12
 3379              		.cfi_offset 6, -8
 3380              		.cfi_offset 14, -4
 3381 0002 0546     		mov	r5, r0
 3382 0004 0E46     		mov	r6, r1
1081:Drivers/lvgl/src/stdlib/builtin/lv_tlsf.c ****     lv_tlsf_t tlsf = lv_tlsf_create(mem);
 3383              		.loc 1 1081 5 is_stmt 1 view .LVU1002
 3384              		.loc 1 1081 22 is_stmt 0 view .LVU1003
 3385 0006 FFF7FEFF 		bl	lv_tlsf_create
 3386              	.LVL331:
 3387              		.loc 1 1081 22 view .LVU1004
 3388 000a 0446     		mov	r4, r0
 3389              	.LVL332:
1082:Drivers/lvgl/src/stdlib/builtin/lv_tlsf.c ****     lv_tlsf_add_pool(tlsf, (char *)mem + lv_tlsf_size(), bytes - lv_tlsf_size());
 3390              		.loc 1 1082 5 is_stmt 1 view .LVU1005
 3391              		.loc 1 1082 42 is_stmt 0 view .LVU1006
 3392 000c FFF7FEFF 		bl	lv_tlsf_size
 3393              	.LVL333:
 3394              		.loc 1 1082 5 discriminator 2 view .LVU1007
 3395 0010 321A     		subs	r2, r6, r0
 3396 0012 2918     		adds	r1, r5, r0
 3397 0014 2046     		mov	r0, r4
 3398 0016 FFF7FEFF 		bl	lv_tlsf_add_pool
 3399              	.LVL334:
1083:Drivers/lvgl/src/stdlib/builtin/lv_tlsf.c ****     return tlsf;
 3400              		.loc 1 1083 5 is_stmt 1 view .LVU1008
1084:Drivers/lvgl/src/stdlib/builtin/lv_tlsf.c **** }
 3401              		.loc 1 1084 1 is_stmt 0 view .LVU1009
 3402 001a 2046     		mov	r0, r4
 3403 001c 70BD     		pop	{r4, r5, r6, pc}
 3404              		.loc 1 1084 1 view .LVU1010
 3405              		.cfi_endproc
 3406              	.LFE70:
 3408              		.section	.text.lv_tlsf_destroy,"ax",%progbits
 3409              		.align	1
 3410              		.global	lv_tlsf_destroy
 3411              		.syntax unified
 3412              		.thumb
 3413              		.thumb_func
 3415              	lv_tlsf_destroy:
 3416              	.LVL335:
 3417              	.LFB71:
1085:Drivers/lvgl/src/stdlib/builtin/lv_tlsf.c **** 
1086:Drivers/lvgl/src/stdlib/builtin/lv_tlsf.c **** void lv_tlsf_destroy(lv_tlsf_t tlsf)
1087:Drivers/lvgl/src/stdlib/builtin/lv_tlsf.c **** {
 3418              		.loc 1 1087 1 is_stmt 1 view -0
 3419              		.cfi_startproc
 3420              		@ args = 0, pretend = 0, frame = 0
 3421              		@ frame_needed = 0, uses_anonymous_args = 0
ARM GAS  /var/folders/qx/2_175_4n2s19vhvtspjhb3qh0000gn/T//cccJA90f.s 			page 87


 3422              		@ link register save eliminated.
1088:Drivers/lvgl/src/stdlib/builtin/lv_tlsf.c ****     /* Nothing to do. */
1089:Drivers/lvgl/src/stdlib/builtin/lv_tlsf.c ****     LV_UNUSED(tlsf);
 3423              		.loc 1 1089 5 view .LVU1012
1090:Drivers/lvgl/src/stdlib/builtin/lv_tlsf.c **** }
 3424              		.loc 1 1090 1 is_stmt 0 view .LVU1013
 3425 0000 7047     		bx	lr
 3426              		.cfi_endproc
 3427              	.LFE71:
 3429              		.section	.text.lv_tlsf_get_pool,"ax",%progbits
 3430              		.align	1
 3431              		.global	lv_tlsf_get_pool
 3432              		.syntax unified
 3433              		.thumb
 3434              		.thumb_func
 3436              	lv_tlsf_get_pool:
 3437              	.LVL336:
 3438              	.LFB72:
1091:Drivers/lvgl/src/stdlib/builtin/lv_tlsf.c **** 
1092:Drivers/lvgl/src/stdlib/builtin/lv_tlsf.c **** lv_pool_t lv_tlsf_get_pool(lv_tlsf_t tlsf)
1093:Drivers/lvgl/src/stdlib/builtin/lv_tlsf.c **** {
 3439              		.loc 1 1093 1 is_stmt 1 view -0
 3440              		.cfi_startproc
 3441              		@ args = 0, pretend = 0, frame = 0
 3442              		@ frame_needed = 0, uses_anonymous_args = 0
 3443              		.loc 1 1093 1 is_stmt 0 view .LVU1015
 3444 0000 10B5     		push	{r4, lr}
 3445              	.LCFI48:
 3446              		.cfi_def_cfa_offset 8
 3447              		.cfi_offset 4, -8
 3448              		.cfi_offset 14, -4
 3449 0002 0446     		mov	r4, r0
1094:Drivers/lvgl/src/stdlib/builtin/lv_tlsf.c ****     return tlsf_cast(lv_pool_t, (char *)tlsf + lv_tlsf_size());
 3450              		.loc 1 1094 5 is_stmt 1 view .LVU1016
 3451              		.loc 1 1094 12 is_stmt 0 view .LVU1017
 3452 0004 FFF7FEFF 		bl	lv_tlsf_size
 3453              	.LVL337:
1095:Drivers/lvgl/src/stdlib/builtin/lv_tlsf.c **** }
 3454              		.loc 1 1095 1 view .LVU1018
 3455 0008 2044     		add	r0, r0, r4
 3456 000a 10BD     		pop	{r4, pc}
 3457              		.loc 1 1095 1 view .LVU1019
 3458              		.cfi_endproc
 3459              	.LFE72:
 3461              		.section	.text.lv_tlsf_malloc,"ax",%progbits
 3462              		.align	1
 3463              		.global	lv_tlsf_malloc
 3464              		.syntax unified
 3465              		.thumb
 3466              		.thumb_func
 3468              	lv_tlsf_malloc:
 3469              	.LVL338:
 3470              	.LFB73:
1096:Drivers/lvgl/src/stdlib/builtin/lv_tlsf.c **** 
1097:Drivers/lvgl/src/stdlib/builtin/lv_tlsf.c **** void * lv_tlsf_malloc(lv_tlsf_t tlsf, size_t size)
1098:Drivers/lvgl/src/stdlib/builtin/lv_tlsf.c **** {
 3471              		.loc 1 1098 1 is_stmt 1 view -0
ARM GAS  /var/folders/qx/2_175_4n2s19vhvtspjhb3qh0000gn/T//cccJA90f.s 			page 88


 3472              		.cfi_startproc
 3473              		@ args = 0, pretend = 0, frame = 0
 3474              		@ frame_needed = 0, uses_anonymous_args = 0
 3475              		.loc 1 1098 1 is_stmt 0 view .LVU1021
 3476 0000 38B5     		push	{r3, r4, r5, lr}
 3477              	.LCFI49:
 3478              		.cfi_def_cfa_offset 16
 3479              		.cfi_offset 3, -16
 3480              		.cfi_offset 4, -12
 3481              		.cfi_offset 5, -8
 3482              		.cfi_offset 14, -4
 3483 0002 0446     		mov	r4, r0
 3484 0004 0846     		mov	r0, r1
 3485              	.LVL339:
1099:Drivers/lvgl/src/stdlib/builtin/lv_tlsf.c ****     control_t * control = tlsf_cast(control_t *, tlsf);
 3486              		.loc 1 1099 5 is_stmt 1 view .LVU1022
1100:Drivers/lvgl/src/stdlib/builtin/lv_tlsf.c ****     const size_t adjust = adjust_request_size(size, ALIGN_SIZE);
 3487              		.loc 1 1100 5 view .LVU1023
 3488              		.loc 1 1100 27 is_stmt 0 view .LVU1024
 3489 0006 0421     		movs	r1, #4
 3490              	.LVL340:
 3491              		.loc 1 1100 27 view .LVU1025
 3492 0008 FFF7FEFF 		bl	adjust_request_size
 3493              	.LVL341:
 3494              		.loc 1 1100 27 view .LVU1026
 3495 000c 0546     		mov	r5, r0
 3496              	.LVL342:
1101:Drivers/lvgl/src/stdlib/builtin/lv_tlsf.c ****     block_header_t * block = block_locate_free(control, adjust);
 3497              		.loc 1 1101 5 is_stmt 1 view .LVU1027
 3498              		.loc 1 1101 30 is_stmt 0 view .LVU1028
 3499 000e 0146     		mov	r1, r0
 3500 0010 2046     		mov	r0, r4
 3501              	.LVL343:
 3502              		.loc 1 1101 30 view .LVU1029
 3503 0012 FFF7FEFF 		bl	block_locate_free
 3504              	.LVL344:
 3505              		.loc 1 1101 30 view .LVU1030
 3506 0016 0146     		mov	r1, r0
 3507              	.LVL345:
1102:Drivers/lvgl/src/stdlib/builtin/lv_tlsf.c ****     return block_prepare_used(control, block, adjust);
 3508              		.loc 1 1102 5 is_stmt 1 view .LVU1031
 3509              		.loc 1 1102 12 is_stmt 0 view .LVU1032
 3510 0018 2A46     		mov	r2, r5
 3511 001a 2046     		mov	r0, r4
 3512              	.LVL346:
 3513              		.loc 1 1102 12 view .LVU1033
 3514 001c FFF7FEFF 		bl	block_prepare_used
 3515              	.LVL347:
1103:Drivers/lvgl/src/stdlib/builtin/lv_tlsf.c **** }
 3516              		.loc 1 1103 1 view .LVU1034
 3517 0020 38BD     		pop	{r3, r4, r5, pc}
 3518              		.loc 1 1103 1 view .LVU1035
 3519              		.cfi_endproc
 3520              	.LFE73:
 3522              		.section	.text.lv_tlsf_memalign,"ax",%progbits
 3523              		.align	1
 3524              		.global	lv_tlsf_memalign
ARM GAS  /var/folders/qx/2_175_4n2s19vhvtspjhb3qh0000gn/T//cccJA90f.s 			page 89


 3525              		.syntax unified
 3526              		.thumb
 3527              		.thumb_func
 3529              	lv_tlsf_memalign:
 3530              	.LVL348:
 3531              	.LFB74:
1104:Drivers/lvgl/src/stdlib/builtin/lv_tlsf.c **** 
1105:Drivers/lvgl/src/stdlib/builtin/lv_tlsf.c **** void * lv_tlsf_memalign(lv_tlsf_t tlsf, size_t align, size_t size)
1106:Drivers/lvgl/src/stdlib/builtin/lv_tlsf.c **** {
 3532              		.loc 1 1106 1 is_stmt 1 view -0
 3533              		.cfi_startproc
 3534              		@ args = 0, pretend = 0, frame = 0
 3535              		@ frame_needed = 0, uses_anonymous_args = 0
 3536              		.loc 1 1106 1 is_stmt 0 view .LVU1037
 3537 0000 2DE9F041 		push	{r4, r5, r6, r7, r8, lr}
 3538              	.LCFI50:
 3539              		.cfi_def_cfa_offset 24
 3540              		.cfi_offset 4, -24
 3541              		.cfi_offset 5, -20
 3542              		.cfi_offset 6, -16
 3543              		.cfi_offset 7, -12
 3544              		.cfi_offset 8, -8
 3545              		.cfi_offset 14, -4
 3546 0004 0646     		mov	r6, r0
 3547 0006 0C46     		mov	r4, r1
1107:Drivers/lvgl/src/stdlib/builtin/lv_tlsf.c ****     control_t * control = tlsf_cast(control_t *, tlsf);
 3548              		.loc 1 1107 5 is_stmt 1 view .LVU1038
 3549              	.LVL349:
1108:Drivers/lvgl/src/stdlib/builtin/lv_tlsf.c ****     const size_t adjust = adjust_request_size(size, ALIGN_SIZE);
 3550              		.loc 1 1108 5 view .LVU1039
 3551              		.loc 1 1108 27 is_stmt 0 view .LVU1040
 3552 0008 0421     		movs	r1, #4
 3553              	.LVL350:
 3554              		.loc 1 1108 27 view .LVU1041
 3555 000a 1046     		mov	r0, r2
 3556              	.LVL351:
 3557              		.loc 1 1108 27 view .LVU1042
 3558 000c FFF7FEFF 		bl	adjust_request_size
 3559              	.LVL352:
 3560              		.loc 1 1108 27 view .LVU1043
 3561 0010 0546     		mov	r5, r0
 3562              	.LVL353:
1109:Drivers/lvgl/src/stdlib/builtin/lv_tlsf.c **** 
1110:Drivers/lvgl/src/stdlib/builtin/lv_tlsf.c ****     /*
1111:Drivers/lvgl/src/stdlib/builtin/lv_tlsf.c ****     ** We must allocate an additional minimum block size bytes so that if
1112:Drivers/lvgl/src/stdlib/builtin/lv_tlsf.c ****     ** our free block will leave an alignment gap which is smaller, we can
1113:Drivers/lvgl/src/stdlib/builtin/lv_tlsf.c ****     ** trim a leading free block and release it back to the pool. We must
1114:Drivers/lvgl/src/stdlib/builtin/lv_tlsf.c ****     ** do this because the previous physical block is in use, therefore
1115:Drivers/lvgl/src/stdlib/builtin/lv_tlsf.c ****     ** the prev_phys_block field is not valid, and we can't simply adjust
1116:Drivers/lvgl/src/stdlib/builtin/lv_tlsf.c ****     ** the size of that block.
1117:Drivers/lvgl/src/stdlib/builtin/lv_tlsf.c ****     */
1118:Drivers/lvgl/src/stdlib/builtin/lv_tlsf.c ****     const size_t gap_minimum = sizeof(block_header_t);
 3563              		.loc 1 1118 5 is_stmt 1 view .LVU1044
1119:Drivers/lvgl/src/stdlib/builtin/lv_tlsf.c ****     const size_t size_with_gap = adjust_request_size(adjust + align + gap_minimum, align);
 3564              		.loc 1 1119 5 view .LVU1045
 3565              		.loc 1 1119 61 is_stmt 0 view .LVU1046
 3566 0012 2044     		add	r0, r0, r4
ARM GAS  /var/folders/qx/2_175_4n2s19vhvtspjhb3qh0000gn/T//cccJA90f.s 			page 90


 3567              	.LVL354:
 3568              		.loc 1 1119 34 view .LVU1047
 3569 0014 2146     		mov	r1, r4
 3570 0016 1030     		adds	r0, r0, #16
 3571 0018 FFF7FEFF 		bl	adjust_request_size
 3572              	.LVL355:
1120:Drivers/lvgl/src/stdlib/builtin/lv_tlsf.c **** 
1121:Drivers/lvgl/src/stdlib/builtin/lv_tlsf.c ****     /*
1122:Drivers/lvgl/src/stdlib/builtin/lv_tlsf.c ****     ** If alignment is less than or equals base alignment, we're done.
1123:Drivers/lvgl/src/stdlib/builtin/lv_tlsf.c ****     ** If we requested 0 bytes, return null, as lv_tlsf_malloc(0) does.
1124:Drivers/lvgl/src/stdlib/builtin/lv_tlsf.c ****     */
1125:Drivers/lvgl/src/stdlib/builtin/lv_tlsf.c ****     const size_t aligned_size = (adjust && align > ALIGN_SIZE) ? size_with_gap : adjust;
 3573              		.loc 1 1125 5 is_stmt 1 view .LVU1048
 3574              		.loc 1 1125 80 is_stmt 0 view .LVU1049
 3575 001c 25B1     		cbz	r5, .L243
 3576 001e 0146     		mov	r1, r0
 3577              		.loc 1 1125 41 discriminator 1 view .LVU1050
 3578 0020 042C     		cmp	r4, #4
 3579 0022 02D8     		bhi	.L238
 3580              		.loc 1 1125 80 discriminator 4 view .LVU1051
 3581 0024 2946     		mov	r1, r5
 3582 0026 00E0     		b	.L238
 3583              	.L243:
 3584              		.loc 1 1125 80 discriminator 4 view .LVU1052
 3585 0028 2946     		mov	r1, r5
 3586              	.L238:
 3587              	.LVL356:
1126:Drivers/lvgl/src/stdlib/builtin/lv_tlsf.c **** 
1127:Drivers/lvgl/src/stdlib/builtin/lv_tlsf.c ****     block_header_t * block = block_locate_free(control, aligned_size);
 3588              		.loc 1 1127 5 is_stmt 1 view .LVU1053
 3589              		.loc 1 1127 30 is_stmt 0 view .LVU1054
 3590 002a 3046     		mov	r0, r6
 3591              	.LVL357:
 3592              		.loc 1 1127 30 view .LVU1055
 3593 002c FFF7FEFF 		bl	block_locate_free
 3594              	.LVL358:
1128:Drivers/lvgl/src/stdlib/builtin/lv_tlsf.c **** 
1129:Drivers/lvgl/src/stdlib/builtin/lv_tlsf.c ****     /* This can't be a static assert. */
1130:Drivers/lvgl/src/stdlib/builtin/lv_tlsf.c ****     tlsf_assert(sizeof(block_header_t) == block_size_min + block_header_overhead);
 3595              		.loc 1 1130 5 is_stmt 1 view .LVU1056
 3596              		.loc 1 1130 5 view .LVU1057
 3597              		.loc 1 1130 5 view .LVU1058
1131:Drivers/lvgl/src/stdlib/builtin/lv_tlsf.c **** 
1132:Drivers/lvgl/src/stdlib/builtin/lv_tlsf.c ****     if(block) {
 3598              		.loc 1 1132 5 view .LVU1059
 3599              		.loc 1 1132 7 is_stmt 0 view .LVU1060
 3600 0030 0746     		mov	r7, r0
 3601 0032 F8B1     		cbz	r0, .L239
 3602              	.LBB13:
1133:Drivers/lvgl/src/stdlib/builtin/lv_tlsf.c ****         void * ptr = block_to_ptr(block);
 3603              		.loc 1 1133 9 is_stmt 1 view .LVU1061
 3604              		.loc 1 1133 22 is_stmt 0 view .LVU1062
 3605 0034 FFF7FEFF 		bl	block_to_ptr
 3606              	.LVL359:
 3607              		.loc 1 1133 22 view .LVU1063
 3608 0038 8046     		mov	r8, r0
 3609              	.LVL360:
ARM GAS  /var/folders/qx/2_175_4n2s19vhvtspjhb3qh0000gn/T//cccJA90f.s 			page 91


1134:Drivers/lvgl/src/stdlib/builtin/lv_tlsf.c ****         void * aligned = align_ptr(ptr, align);
 3610              		.loc 1 1134 9 is_stmt 1 view .LVU1064
 3611              		.loc 1 1134 26 is_stmt 0 view .LVU1065
 3612 003a 2146     		mov	r1, r4
 3613 003c FFF7FEFF 		bl	align_ptr
 3614              	.LVL361:
1135:Drivers/lvgl/src/stdlib/builtin/lv_tlsf.c ****         size_t gap = tlsf_cast(size_t,
 3615              		.loc 1 1135 9 is_stmt 1 view .LVU1066
 3616              		.loc 1 1135 22 is_stmt 0 view .LVU1067
 3617 0040 A0EB0802 		sub	r2, r0, r8
 3618              	.LVL362:
1136:Drivers/lvgl/src/stdlib/builtin/lv_tlsf.c ****                                tlsf_cast(tlsfptr_t, aligned) - tlsf_cast(tlsfptr_t, ptr));
1137:Drivers/lvgl/src/stdlib/builtin/lv_tlsf.c **** 
1138:Drivers/lvgl/src/stdlib/builtin/lv_tlsf.c ****         /* If gap size is too small, offset to next aligned boundary. */
1139:Drivers/lvgl/src/stdlib/builtin/lv_tlsf.c ****         if(gap && gap < gap_minimum) {
 3619              		.loc 1 1139 9 is_stmt 1 view .LVU1068
 3620              		.loc 1 1139 16 is_stmt 0 view .LVU1069
 3621 0044 531E     		subs	r3, r2, #1
 3622              		.loc 1 1139 11 view .LVU1070
 3623 0046 0E2B     		cmp	r3, #14
 3624 0048 03D9     		bls	.L245
 3625              	.LVL363:
 3626              	.L240:
1140:Drivers/lvgl/src/stdlib/builtin/lv_tlsf.c ****             const size_t gap_remain = gap_minimum - gap;
1141:Drivers/lvgl/src/stdlib/builtin/lv_tlsf.c ****             const size_t offset = tlsf_max(gap_remain, align);
1142:Drivers/lvgl/src/stdlib/builtin/lv_tlsf.c ****             const void * next_aligned = tlsf_cast(void *,
1143:Drivers/lvgl/src/stdlib/builtin/lv_tlsf.c ****                                                   tlsf_cast(tlsfptr_t, aligned) + offset);
1144:Drivers/lvgl/src/stdlib/builtin/lv_tlsf.c **** 
1145:Drivers/lvgl/src/stdlib/builtin/lv_tlsf.c ****             aligned = align_ptr(next_aligned, align);
1146:Drivers/lvgl/src/stdlib/builtin/lv_tlsf.c ****             gap = tlsf_cast(size_t,
1147:Drivers/lvgl/src/stdlib/builtin/lv_tlsf.c ****                             tlsf_cast(tlsfptr_t, aligned) - tlsf_cast(tlsfptr_t, ptr));
1148:Drivers/lvgl/src/stdlib/builtin/lv_tlsf.c ****         }
1149:Drivers/lvgl/src/stdlib/builtin/lv_tlsf.c **** 
1150:Drivers/lvgl/src/stdlib/builtin/lv_tlsf.c ****         if(gap) {
 3627              		.loc 1 1150 9 is_stmt 1 view .LVU1071
 3628              		.loc 1 1150 11 is_stmt 0 view .LVU1072
 3629 004a 9AB1     		cbz	r2, .L239
1151:Drivers/lvgl/src/stdlib/builtin/lv_tlsf.c ****             tlsf_assert(gap >= gap_minimum && "gap size too small");
 3630              		.loc 1 1151 13 is_stmt 1 view .LVU1073
 3631              		.loc 1 1151 13 view .LVU1074
 3632 004c 0F2A     		cmp	r2, #15
 3633 004e 0CD8     		bhi	.L241
 3634              	.L242:
 3635              		.loc 1 1151 13 view .LVU1075
 3636              		.loc 1 1151 13 view .LVU1076
 3637              		.loc 1 1151 13 view .LVU1077
 3638              		.loc 1 1151 13 view .LVU1078
 3639              		.loc 1 1151 13 view .LVU1079
 3640 0050 FEE7     		b	.L242
 3641              	.L245:
 3642              	.LBB14:
1140:Drivers/lvgl/src/stdlib/builtin/lv_tlsf.c ****             const size_t gap_remain = gap_minimum - gap;
 3643              		.loc 1 1140 13 view .LVU1080
1140:Drivers/lvgl/src/stdlib/builtin/lv_tlsf.c ****             const size_t gap_remain = gap_minimum - gap;
 3644              		.loc 1 1140 26 is_stmt 0 view .LVU1081
 3645 0052 C2F11002 		rsb	r2, r2, #16
 3646              	.LVL364:
ARM GAS  /var/folders/qx/2_175_4n2s19vhvtspjhb3qh0000gn/T//cccJA90f.s 			page 92


1141:Drivers/lvgl/src/stdlib/builtin/lv_tlsf.c ****             const void * next_aligned = tlsf_cast(void *,
 3647              		.loc 1 1141 13 is_stmt 1 view .LVU1082
1142:Drivers/lvgl/src/stdlib/builtin/lv_tlsf.c ****                                                   tlsf_cast(tlsfptr_t, aligned) + offset);
 3648              		.loc 1 1142 13 view .LVU1083
1145:Drivers/lvgl/src/stdlib/builtin/lv_tlsf.c ****             gap = tlsf_cast(size_t,
 3649              		.loc 1 1145 13 view .LVU1084
1145:Drivers/lvgl/src/stdlib/builtin/lv_tlsf.c ****             gap = tlsf_cast(size_t,
 3650              		.loc 1 1145 23 is_stmt 0 view .LVU1085
 3651 0056 2146     		mov	r1, r4
 3652 0058 9442     		cmp	r4, r2
 3653 005a 2CBF     		ite	cs
 3654 005c 0019     		addcs	r0, r0, r4
 3655 005e 8018     		addcc	r0, r0, r2
 3656              	.LVL365:
1145:Drivers/lvgl/src/stdlib/builtin/lv_tlsf.c ****             gap = tlsf_cast(size_t,
 3657              		.loc 1 1145 23 view .LVU1086
 3658 0060 FFF7FEFF 		bl	align_ptr
 3659              	.LVL366:
1146:Drivers/lvgl/src/stdlib/builtin/lv_tlsf.c ****                             tlsf_cast(tlsfptr_t, aligned) - tlsf_cast(tlsfptr_t, ptr));
 3660              		.loc 1 1146 13 is_stmt 1 view .LVU1087
1146:Drivers/lvgl/src/stdlib/builtin/lv_tlsf.c ****                             tlsf_cast(tlsfptr_t, aligned) - tlsf_cast(tlsfptr_t, ptr));
 3661              		.loc 1 1146 19 is_stmt 0 view .LVU1088
 3662 0064 A0EB0802 		sub	r2, r0, r8
 3663 0068 EFE7     		b	.L240
 3664              	.LVL367:
 3665              	.L241:
1146:Drivers/lvgl/src/stdlib/builtin/lv_tlsf.c ****                             tlsf_cast(tlsfptr_t, aligned) - tlsf_cast(tlsfptr_t, ptr));
 3666              		.loc 1 1146 19 view .LVU1089
 3667              	.LBE14:
 3668              		.loc 1 1151 13 is_stmt 1 view .LVU1090
1152:Drivers/lvgl/src/stdlib/builtin/lv_tlsf.c ****             block = block_trim_free_leading(control, block, gap);
 3669              		.loc 1 1152 13 view .LVU1091
 3670              		.loc 1 1152 21 is_stmt 0 view .LVU1092
 3671 006a 3946     		mov	r1, r7
 3672 006c 3046     		mov	r0, r6
 3673              	.LVL368:
 3674              		.loc 1 1152 21 view .LVU1093
 3675 006e FFF7FEFF 		bl	block_trim_free_leading
 3676              	.LVL369:
 3677              		.loc 1 1152 21 view .LVU1094
 3678 0072 0746     		mov	r7, r0
 3679              	.LVL370:
 3680              	.L239:
 3681              		.loc 1 1152 21 view .LVU1095
 3682              	.LBE13:
1153:Drivers/lvgl/src/stdlib/builtin/lv_tlsf.c ****         }
1154:Drivers/lvgl/src/stdlib/builtin/lv_tlsf.c ****     }
1155:Drivers/lvgl/src/stdlib/builtin/lv_tlsf.c **** 
1156:Drivers/lvgl/src/stdlib/builtin/lv_tlsf.c ****     return block_prepare_used(control, block, adjust);
 3683              		.loc 1 1156 5 is_stmt 1 view .LVU1096
 3684              		.loc 1 1156 12 is_stmt 0 view .LVU1097
 3685 0074 2A46     		mov	r2, r5
 3686 0076 3946     		mov	r1, r7
 3687 0078 3046     		mov	r0, r6
 3688 007a FFF7FEFF 		bl	block_prepare_used
 3689              	.LVL371:
1157:Drivers/lvgl/src/stdlib/builtin/lv_tlsf.c **** }
ARM GAS  /var/folders/qx/2_175_4n2s19vhvtspjhb3qh0000gn/T//cccJA90f.s 			page 93


 3690              		.loc 1 1157 1 view .LVU1098
 3691 007e BDE8F081 		pop	{r4, r5, r6, r7, r8, pc}
 3692              		.loc 1 1157 1 view .LVU1099
 3693              		.cfi_endproc
 3694              	.LFE74:
 3696              		.section	.text.lv_tlsf_free,"ax",%progbits
 3697              		.align	1
 3698              		.global	lv_tlsf_free
 3699              		.syntax unified
 3700              		.thumb
 3701              		.thumb_func
 3703              	lv_tlsf_free:
 3704              	.LVL372:
 3705              	.LFB75:
1158:Drivers/lvgl/src/stdlib/builtin/lv_tlsf.c **** 
1159:Drivers/lvgl/src/stdlib/builtin/lv_tlsf.c **** size_t lv_tlsf_free(lv_tlsf_t tlsf, const void * ptr)
1160:Drivers/lvgl/src/stdlib/builtin/lv_tlsf.c **** {
 3706              		.loc 1 1160 1 is_stmt 1 view -0
 3707              		.cfi_startproc
 3708              		@ args = 0, pretend = 0, frame = 0
 3709              		@ frame_needed = 0, uses_anonymous_args = 0
 3710              		.loc 1 1160 1 is_stmt 0 view .LVU1101
 3711 0000 70B5     		push	{r4, r5, r6, lr}
 3712              	.LCFI51:
 3713              		.cfi_def_cfa_offset 16
 3714              		.cfi_offset 4, -16
 3715              		.cfi_offset 5, -12
 3716              		.cfi_offset 6, -8
 3717              		.cfi_offset 14, -4
1161:Drivers/lvgl/src/stdlib/builtin/lv_tlsf.c ****     size_t size = 0;
 3718              		.loc 1 1161 5 is_stmt 1 view .LVU1102
 3719              	.LVL373:
1162:Drivers/lvgl/src/stdlib/builtin/lv_tlsf.c ****     /* Don't attempt to free a NULL pointer. */
1163:Drivers/lvgl/src/stdlib/builtin/lv_tlsf.c ****     if(ptr) {
 3720              		.loc 1 1163 5 view .LVU1103
 3721              		.loc 1 1163 7 is_stmt 0 view .LVU1104
 3722 0002 C9B1     		cbz	r1, .L250
 3723 0004 0546     		mov	r5, r0
 3724 0006 0846     		mov	r0, r1
 3725              	.LVL374:
 3726              	.LBB15:
1164:Drivers/lvgl/src/stdlib/builtin/lv_tlsf.c ****         control_t * control = tlsf_cast(control_t *, tlsf);
 3727              		.loc 1 1164 9 is_stmt 1 view .LVU1105
1165:Drivers/lvgl/src/stdlib/builtin/lv_tlsf.c ****         block_header_t * block = block_from_ptr(ptr);
 3728              		.loc 1 1165 9 view .LVU1106
 3729              		.loc 1 1165 34 is_stmt 0 view .LVU1107
 3730 0008 FFF7FEFF 		bl	block_from_ptr
 3731              	.LVL375:
 3732              		.loc 1 1165 34 view .LVU1108
 3733 000c 0446     		mov	r4, r0
 3734              	.LVL376:
1166:Drivers/lvgl/src/stdlib/builtin/lv_tlsf.c ****         tlsf_assert(!block_is_free(block) && "block already marked as free");
 3735              		.loc 1 1166 9 is_stmt 1 view .LVU1109
 3736              		.loc 1 1166 9 view .LVU1110
 3737 000e FFF7FEFF 		bl	block_is_free
 3738              	.LVL377:
 3739              		.loc 1 1166 9 is_stmt 0 discriminator 1 view .LVU1111
ARM GAS  /var/folders/qx/2_175_4n2s19vhvtspjhb3qh0000gn/T//cccJA90f.s 			page 94


 3740 0012 00B1     		cbz	r0, .L248
 3741              	.L249:
 3742              		.loc 1 1166 9 is_stmt 1 view .LVU1112
 3743              		.loc 1 1166 9 view .LVU1113
 3744              		.loc 1 1166 9 view .LVU1114
 3745              		.loc 1 1166 9 view .LVU1115
 3746              		.loc 1 1166 9 view .LVU1116
 3747 0014 FEE7     		b	.L249
 3748              	.L248:
 3749              		.loc 1 1166 9 view .LVU1117
1167:Drivers/lvgl/src/stdlib/builtin/lv_tlsf.c ****         size = block->size;
 3750              		.loc 1 1167 9 view .LVU1118
 3751              		.loc 1 1167 14 is_stmt 0 view .LVU1119
 3752 0016 6668     		ldr	r6, [r4, #4]
 3753              	.LVL378:
1168:Drivers/lvgl/src/stdlib/builtin/lv_tlsf.c ****         block_mark_as_free(block);
 3754              		.loc 1 1168 9 is_stmt 1 view .LVU1120
 3755 0018 2046     		mov	r0, r4
 3756 001a FFF7FEFF 		bl	block_mark_as_free
 3757              	.LVL379:
1169:Drivers/lvgl/src/stdlib/builtin/lv_tlsf.c ****         block = block_merge_prev(control, block);
 3758              		.loc 1 1169 9 view .LVU1121
 3759              		.loc 1 1169 17 is_stmt 0 view .LVU1122
 3760 001e 2146     		mov	r1, r4
 3761 0020 2846     		mov	r0, r5
 3762 0022 FFF7FEFF 		bl	block_merge_prev
 3763              	.LVL380:
 3764 0026 0146     		mov	r1, r0
 3765              	.LVL381:
1170:Drivers/lvgl/src/stdlib/builtin/lv_tlsf.c ****         block = block_merge_next(control, block);
 3766              		.loc 1 1170 9 is_stmt 1 view .LVU1123
 3767              		.loc 1 1170 17 is_stmt 0 view .LVU1124
 3768 0028 2846     		mov	r0, r5
 3769              	.LVL382:
 3770              		.loc 1 1170 17 view .LVU1125
 3771 002a FFF7FEFF 		bl	block_merge_next
 3772              	.LVL383:
 3773              		.loc 1 1170 17 view .LVU1126
 3774 002e 0146     		mov	r1, r0
 3775              	.LVL384:
1171:Drivers/lvgl/src/stdlib/builtin/lv_tlsf.c ****         block_insert(control, block);
 3776              		.loc 1 1171 9 is_stmt 1 view .LVU1127
 3777 0030 2846     		mov	r0, r5
 3778              	.LVL385:
 3779              		.loc 1 1171 9 is_stmt 0 view .LVU1128
 3780 0032 FFF7FEFF 		bl	block_insert
 3781              	.LVL386:
 3782              		.loc 1 1171 9 view .LVU1129
 3783 0036 00E0     		b	.L246
 3784              	.LVL387:
 3785              	.L250:
 3786              		.loc 1 1171 9 view .LVU1130
 3787              	.LBE15:
1161:Drivers/lvgl/src/stdlib/builtin/lv_tlsf.c ****     /* Don't attempt to free a NULL pointer. */
 3788              		.loc 1 1161 12 view .LVU1131
 3789 0038 0026     		movs	r6, #0
1172:Drivers/lvgl/src/stdlib/builtin/lv_tlsf.c ****     }
ARM GAS  /var/folders/qx/2_175_4n2s19vhvtspjhb3qh0000gn/T//cccJA90f.s 			page 95


1173:Drivers/lvgl/src/stdlib/builtin/lv_tlsf.c **** 
1174:Drivers/lvgl/src/stdlib/builtin/lv_tlsf.c ****     return size;
 3790              		.loc 1 1174 5 is_stmt 1 view .LVU1132
 3791              	.LVL388:
 3792              	.L246:
1175:Drivers/lvgl/src/stdlib/builtin/lv_tlsf.c **** }
 3793              		.loc 1 1175 1 is_stmt 0 view .LVU1133
 3794 003a 3046     		mov	r0, r6
 3795 003c 70BD     		pop	{r4, r5, r6, pc}
 3796              		.cfi_endproc
 3797              	.LFE75:
 3799              		.section	.text.lv_tlsf_realloc,"ax",%progbits
 3800              		.align	1
 3801              		.global	lv_tlsf_realloc
 3802              		.syntax unified
 3803              		.thumb
 3804              		.thumb_func
 3806              	lv_tlsf_realloc:
 3807              	.LVL389:
 3808              	.LFB76:
1176:Drivers/lvgl/src/stdlib/builtin/lv_tlsf.c **** 
1177:Drivers/lvgl/src/stdlib/builtin/lv_tlsf.c **** /*
1178:Drivers/lvgl/src/stdlib/builtin/lv_tlsf.c **** ** The TLSF block information provides us with enough information to
1179:Drivers/lvgl/src/stdlib/builtin/lv_tlsf.c **** ** provide a reasonably intelligent implementation of realloc, growing or
1180:Drivers/lvgl/src/stdlib/builtin/lv_tlsf.c **** ** shrinking the currently allocated block as required.
1181:Drivers/lvgl/src/stdlib/builtin/lv_tlsf.c **** **
1182:Drivers/lvgl/src/stdlib/builtin/lv_tlsf.c **** ** This routine handles the somewhat esoteric edge cases of realloc:
1183:Drivers/lvgl/src/stdlib/builtin/lv_tlsf.c **** ** - a non-zero size with a null pointer will behave like malloc
1184:Drivers/lvgl/src/stdlib/builtin/lv_tlsf.c **** ** - a zero size with a non-null pointer will behave like free
1185:Drivers/lvgl/src/stdlib/builtin/lv_tlsf.c **** ** - a request that cannot be satisfied will leave the original buffer
1186:Drivers/lvgl/src/stdlib/builtin/lv_tlsf.c **** **   untouched
1187:Drivers/lvgl/src/stdlib/builtin/lv_tlsf.c **** ** - an extended buffer size will leave the newly-allocated area with
1188:Drivers/lvgl/src/stdlib/builtin/lv_tlsf.c **** **   contents undefined
1189:Drivers/lvgl/src/stdlib/builtin/lv_tlsf.c **** */
1190:Drivers/lvgl/src/stdlib/builtin/lv_tlsf.c **** void * lv_tlsf_realloc(lv_tlsf_t tlsf, void * ptr, size_t size)
1191:Drivers/lvgl/src/stdlib/builtin/lv_tlsf.c **** {
 3809              		.loc 1 1191 1 is_stmt 1 view -0
 3810              		.cfi_startproc
 3811              		@ args = 0, pretend = 0, frame = 0
 3812              		@ frame_needed = 0, uses_anonymous_args = 0
 3813              		.loc 1 1191 1 is_stmt 0 view .LVU1135
 3814 0000 2DE9F84F 		push	{r3, r4, r5, r6, r7, r8, r9, r10, fp, lr}
 3815              	.LCFI52:
 3816              		.cfi_def_cfa_offset 40
 3817              		.cfi_offset 3, -40
 3818              		.cfi_offset 4, -36
 3819              		.cfi_offset 5, -32
 3820              		.cfi_offset 6, -28
 3821              		.cfi_offset 7, -24
 3822              		.cfi_offset 8, -20
 3823              		.cfi_offset 9, -16
 3824              		.cfi_offset 10, -12
 3825              		.cfi_offset 11, -8
 3826              		.cfi_offset 14, -4
 3827 0004 0546     		mov	r5, r0
 3828 0006 1446     		mov	r4, r2
1192:Drivers/lvgl/src/stdlib/builtin/lv_tlsf.c ****     control_t * control = tlsf_cast(control_t *, tlsf);
ARM GAS  /var/folders/qx/2_175_4n2s19vhvtspjhb3qh0000gn/T//cccJA90f.s 			page 96


 3829              		.loc 1 1192 5 is_stmt 1 view .LVU1136
 3830              	.LVL390:
1193:Drivers/lvgl/src/stdlib/builtin/lv_tlsf.c ****     void * p = 0;
 3831              		.loc 1 1193 5 view .LVU1137
1194:Drivers/lvgl/src/stdlib/builtin/lv_tlsf.c **** 
1195:Drivers/lvgl/src/stdlib/builtin/lv_tlsf.c ****     /* Zero-size requests are treated as free. */
1196:Drivers/lvgl/src/stdlib/builtin/lv_tlsf.c ****     if(ptr && size == 0) {
 3832              		.loc 1 1196 5 view .LVU1138
 3833              		.loc 1 1196 7 is_stmt 0 view .LVU1139
 3834 0008 29B3     		cbz	r1, .L253
 3835 000a 8946     		mov	r9, r1
 3836              		.loc 1 1196 12 discriminator 1 view .LVU1140
 3837 000c EAB1     		cbz	r2, .L264
1197:Drivers/lvgl/src/stdlib/builtin/lv_tlsf.c ****         lv_tlsf_free(tlsf, ptr);
1198:Drivers/lvgl/src/stdlib/builtin/lv_tlsf.c ****     }
1199:Drivers/lvgl/src/stdlib/builtin/lv_tlsf.c ****     /* Requests with NULL pointers are treated as malloc. */
1200:Drivers/lvgl/src/stdlib/builtin/lv_tlsf.c ****     else if(!ptr) {
 3838              		.loc 1 1200 10 is_stmt 1 view .LVU1141
 3839              	.LBB16:
1201:Drivers/lvgl/src/stdlib/builtin/lv_tlsf.c ****         p = lv_tlsf_malloc(tlsf, size);
1202:Drivers/lvgl/src/stdlib/builtin/lv_tlsf.c ****     }
1203:Drivers/lvgl/src/stdlib/builtin/lv_tlsf.c ****     else {
1204:Drivers/lvgl/src/stdlib/builtin/lv_tlsf.c ****         block_header_t * block = block_from_ptr(ptr);
 3840              		.loc 1 1204 9 view .LVU1142
 3841              		.loc 1 1204 34 is_stmt 0 view .LVU1143
 3842 000e 0846     		mov	r0, r1
 3843              	.LVL391:
 3844              		.loc 1 1204 34 view .LVU1144
 3845 0010 FFF7FEFF 		bl	block_from_ptr
 3846              	.LVL392:
 3847              		.loc 1 1204 34 view .LVU1145
 3848 0014 0746     		mov	r7, r0
 3849              	.LVL393:
1205:Drivers/lvgl/src/stdlib/builtin/lv_tlsf.c ****         block_header_t * next = block_next(block);
 3850              		.loc 1 1205 9 is_stmt 1 view .LVU1146
 3851              		.loc 1 1205 33 is_stmt 0 view .LVU1147
 3852 0016 FFF7FEFF 		bl	block_next
 3853              	.LVL394:
 3854              		.loc 1 1205 33 view .LVU1148
 3855 001a 8246     		mov	r10, r0
 3856              	.LVL395:
1206:Drivers/lvgl/src/stdlib/builtin/lv_tlsf.c **** 
1207:Drivers/lvgl/src/stdlib/builtin/lv_tlsf.c ****         const size_t cursize = block_size(block);
 3857              		.loc 1 1207 9 is_stmt 1 view .LVU1149
 3858              		.loc 1 1207 32 is_stmt 0 view .LVU1150
 3859 001c 3846     		mov	r0, r7
 3860              	.LVL396:
 3861              		.loc 1 1207 32 view .LVU1151
 3862 001e FFF7FEFF 		bl	block_size
 3863              	.LVL397:
 3864 0022 0646     		mov	r6, r0
 3865              	.LVL398:
1208:Drivers/lvgl/src/stdlib/builtin/lv_tlsf.c ****         const size_t combined = cursize + block_size(next) + block_header_overhead;
 3866              		.loc 1 1208 9 is_stmt 1 view .LVU1152
 3867              		.loc 1 1208 43 is_stmt 0 view .LVU1153
 3868 0024 5046     		mov	r0, r10
 3869              	.LVL399:
ARM GAS  /var/folders/qx/2_175_4n2s19vhvtspjhb3qh0000gn/T//cccJA90f.s 			page 97


 3870              		.loc 1 1208 43 view .LVU1154
 3871 0026 FFF7FEFF 		bl	block_size
 3872              	.LVL400:
 3873              		.loc 1 1208 41 discriminator 1 view .LVU1155
 3874 002a 8319     		adds	r3, r0, r6
 3875              		.loc 1 1208 22 discriminator 1 view .LVU1156
 3876 002c 03F1040B 		add	fp, r3, #4
 3877              	.LVL401:
1209:Drivers/lvgl/src/stdlib/builtin/lv_tlsf.c ****         const size_t adjust = adjust_request_size(size, ALIGN_SIZE);
 3878              		.loc 1 1209 9 is_stmt 1 view .LVU1157
 3879              		.loc 1 1209 31 is_stmt 0 view .LVU1158
 3880 0030 0421     		movs	r1, #4
 3881 0032 2046     		mov	r0, r4
 3882 0034 FFF7FEFF 		bl	adjust_request_size
 3883              	.LVL402:
 3884 0038 8046     		mov	r8, r0
 3885              	.LVL403:
1210:Drivers/lvgl/src/stdlib/builtin/lv_tlsf.c ****         if(size > cursize && adjust == 0) {
 3886              		.loc 1 1210 9 is_stmt 1 view .LVU1159
 3887              		.loc 1 1210 11 is_stmt 0 view .LVU1160
 3888 003a B442     		cmp	r4, r6
 3889 003c 00D9     		bls	.L256
 3890              		.loc 1 1210 27 discriminator 1 view .LVU1161
 3891 003e D8B3     		cbz	r0, .L262
 3892              	.L256:
1211:Drivers/lvgl/src/stdlib/builtin/lv_tlsf.c ****             /* The request is probably too large, fail */
1212:Drivers/lvgl/src/stdlib/builtin/lv_tlsf.c ****             return NULL;
1213:Drivers/lvgl/src/stdlib/builtin/lv_tlsf.c ****         }
1214:Drivers/lvgl/src/stdlib/builtin/lv_tlsf.c **** 
1215:Drivers/lvgl/src/stdlib/builtin/lv_tlsf.c ****         tlsf_assert(!block_is_free(block) && "block already marked as free");
 3893              		.loc 1 1215 9 is_stmt 1 view .LVU1162
 3894              		.loc 1 1215 9 view .LVU1163
 3895 0040 3846     		mov	r0, r7
 3896              	.LVL404:
 3897              		.loc 1 1215 9 is_stmt 0 view .LVU1164
 3898 0042 FFF7FEFF 		bl	block_is_free
 3899              	.LVL405:
 3900              		.loc 1 1215 9 discriminator 1 view .LVU1165
 3901 0046 58B1     		cbz	r0, .L257
 3902              	.L258:
 3903              		.loc 1 1215 9 is_stmt 1 view .LVU1166
 3904              		.loc 1 1215 9 view .LVU1167
 3905              		.loc 1 1215 9 view .LVU1168
 3906              		.loc 1 1215 9 view .LVU1169
 3907              		.loc 1 1215 9 view .LVU1170
 3908 0048 FEE7     		b	.L258
 3909              	.LVL406:
 3910              	.L264:
 3911              		.loc 1 1215 9 is_stmt 0 view .LVU1171
 3912              	.LBE16:
1197:Drivers/lvgl/src/stdlib/builtin/lv_tlsf.c ****     }
 3913              		.loc 1 1197 9 is_stmt 1 view .LVU1172
 3914 004a FFF7FEFF 		bl	lv_tlsf_free
 3915              	.LVL407:
1193:Drivers/lvgl/src/stdlib/builtin/lv_tlsf.c **** 
 3916              		.loc 1 1193 12 is_stmt 0 view .LVU1173
 3917 004e 0027     		movs	r7, #0
ARM GAS  /var/folders/qx/2_175_4n2s19vhvtspjhb3qh0000gn/T//cccJA90f.s 			page 98


 3918              	.LVL408:
 3919              	.L252:
1216:Drivers/lvgl/src/stdlib/builtin/lv_tlsf.c **** 
1217:Drivers/lvgl/src/stdlib/builtin/lv_tlsf.c ****         /*
1218:Drivers/lvgl/src/stdlib/builtin/lv_tlsf.c ****         ** If the next block is used, or when combined with the current
1219:Drivers/lvgl/src/stdlib/builtin/lv_tlsf.c ****         ** block, does not offer enough space, we must reallocate and copy.
1220:Drivers/lvgl/src/stdlib/builtin/lv_tlsf.c ****         */
1221:Drivers/lvgl/src/stdlib/builtin/lv_tlsf.c ****         if(adjust > cursize && (!block_is_free(next) || adjust > combined)) {
1222:Drivers/lvgl/src/stdlib/builtin/lv_tlsf.c ****             p = lv_tlsf_malloc(tlsf, size);
1223:Drivers/lvgl/src/stdlib/builtin/lv_tlsf.c ****             if(p) {
1224:Drivers/lvgl/src/stdlib/builtin/lv_tlsf.c ****                 const size_t minsize = tlsf_min(cursize, size);
1225:Drivers/lvgl/src/stdlib/builtin/lv_tlsf.c ****                 lv_memcpy(p, ptr, minsize);
1226:Drivers/lvgl/src/stdlib/builtin/lv_tlsf.c ****                 lv_tlsf_free(tlsf, ptr);
1227:Drivers/lvgl/src/stdlib/builtin/lv_tlsf.c ****             }
1228:Drivers/lvgl/src/stdlib/builtin/lv_tlsf.c ****         }
1229:Drivers/lvgl/src/stdlib/builtin/lv_tlsf.c ****         else {
1230:Drivers/lvgl/src/stdlib/builtin/lv_tlsf.c ****             /* Do we need to expand to the next block? */
1231:Drivers/lvgl/src/stdlib/builtin/lv_tlsf.c ****             if(adjust > cursize) {
1232:Drivers/lvgl/src/stdlib/builtin/lv_tlsf.c ****                 block_merge_next(control, block);
1233:Drivers/lvgl/src/stdlib/builtin/lv_tlsf.c ****                 block_mark_as_used(block);
1234:Drivers/lvgl/src/stdlib/builtin/lv_tlsf.c ****             }
1235:Drivers/lvgl/src/stdlib/builtin/lv_tlsf.c **** 
1236:Drivers/lvgl/src/stdlib/builtin/lv_tlsf.c ****             /* Trim the resulting block and return the original pointer. */
1237:Drivers/lvgl/src/stdlib/builtin/lv_tlsf.c ****             block_trim_used(control, block, adjust);
1238:Drivers/lvgl/src/stdlib/builtin/lv_tlsf.c ****             p = ptr;
1239:Drivers/lvgl/src/stdlib/builtin/lv_tlsf.c ****         }
1240:Drivers/lvgl/src/stdlib/builtin/lv_tlsf.c ****     }
1241:Drivers/lvgl/src/stdlib/builtin/lv_tlsf.c **** 
1242:Drivers/lvgl/src/stdlib/builtin/lv_tlsf.c ****     return p;
1243:Drivers/lvgl/src/stdlib/builtin/lv_tlsf.c **** }
 3920              		.loc 1 1243 1 view .LVU1174
 3921 0050 3846     		mov	r0, r7
 3922 0052 BDE8F88F 		pop	{r3, r4, r5, r6, r7, r8, r9, r10, fp, pc}
 3923              	.LVL409:
 3924              	.L253:
1201:Drivers/lvgl/src/stdlib/builtin/lv_tlsf.c ****     }
 3925              		.loc 1 1201 9 is_stmt 1 view .LVU1175
1201:Drivers/lvgl/src/stdlib/builtin/lv_tlsf.c ****     }
 3926              		.loc 1 1201 13 is_stmt 0 view .LVU1176
 3927 0056 1146     		mov	r1, r2
 3928              	.LVL410:
1201:Drivers/lvgl/src/stdlib/builtin/lv_tlsf.c ****     }
 3929              		.loc 1 1201 13 view .LVU1177
 3930 0058 FFF7FEFF 		bl	lv_tlsf_malloc
 3931              	.LVL411:
1201:Drivers/lvgl/src/stdlib/builtin/lv_tlsf.c ****     }
 3932              		.loc 1 1201 13 view .LVU1178
 3933 005c 0746     		mov	r7, r0
 3934              	.LVL412:
1201:Drivers/lvgl/src/stdlib/builtin/lv_tlsf.c ****     }
 3935              		.loc 1 1201 13 view .LVU1179
 3936 005e F7E7     		b	.L252
 3937              	.LVL413:
 3938              	.L257:
 3939              	.LBB18:
1215:Drivers/lvgl/src/stdlib/builtin/lv_tlsf.c **** 
 3940              		.loc 1 1215 9 is_stmt 1 view .LVU1180
ARM GAS  /var/folders/qx/2_175_4n2s19vhvtspjhb3qh0000gn/T//cccJA90f.s 			page 99


1221:Drivers/lvgl/src/stdlib/builtin/lv_tlsf.c ****             p = lv_tlsf_malloc(tlsf, size);
 3941              		.loc 1 1221 9 view .LVU1181
1221:Drivers/lvgl/src/stdlib/builtin/lv_tlsf.c ****             p = lv_tlsf_malloc(tlsf, size);
 3942              		.loc 1 1221 11 is_stmt 0 view .LVU1182
 3943 0060 4645     		cmp	r6, r8
 3944 0062 18D2     		bcs	.L259
1221:Drivers/lvgl/src/stdlib/builtin/lv_tlsf.c ****             p = lv_tlsf_malloc(tlsf, size);
 3945              		.loc 1 1221 34 discriminator 1 view .LVU1183
 3946 0064 5046     		mov	r0, r10
 3947 0066 FFF7FEFF 		bl	block_is_free
 3948              	.LVL414:
1221:Drivers/lvgl/src/stdlib/builtin/lv_tlsf.c ****             p = lv_tlsf_malloc(tlsf, size);
 3949              		.loc 1 1221 29 discriminator 1 view .LVU1184
 3950 006a 08B1     		cbz	r0, .L260
1221:Drivers/lvgl/src/stdlib/builtin/lv_tlsf.c ****             p = lv_tlsf_malloc(tlsf, size);
 3951              		.loc 1 1221 54 discriminator 2 view .LVU1185
 3952 006c C345     		cmp	fp, r8
 3953 006e 12D2     		bcs	.L259
 3954              	.L260:
1222:Drivers/lvgl/src/stdlib/builtin/lv_tlsf.c ****             if(p) {
 3955              		.loc 1 1222 13 is_stmt 1 view .LVU1186
1222:Drivers/lvgl/src/stdlib/builtin/lv_tlsf.c ****             if(p) {
 3956              		.loc 1 1222 17 is_stmt 0 view .LVU1187
 3957 0070 2146     		mov	r1, r4
 3958 0072 2846     		mov	r0, r5
 3959 0074 FFF7FEFF 		bl	lv_tlsf_malloc
 3960              	.LVL415:
1223:Drivers/lvgl/src/stdlib/builtin/lv_tlsf.c ****                 const size_t minsize = tlsf_min(cursize, size);
 3961              		.loc 1 1223 13 is_stmt 1 view .LVU1188
1223:Drivers/lvgl/src/stdlib/builtin/lv_tlsf.c ****                 const size_t minsize = tlsf_min(cursize, size);
 3962              		.loc 1 1223 15 is_stmt 0 view .LVU1189
 3963 0078 0746     		mov	r7, r0
 3964              	.LVL416:
1223:Drivers/lvgl/src/stdlib/builtin/lv_tlsf.c ****                 const size_t minsize = tlsf_min(cursize, size);
 3965              		.loc 1 1223 15 view .LVU1190
 3966 007a 0028     		cmp	r0, #0
 3967 007c E8D0     		beq	.L252
 3968              	.LBB17:
1224:Drivers/lvgl/src/stdlib/builtin/lv_tlsf.c ****                 lv_memcpy(p, ptr, minsize);
 3969              		.loc 1 1224 17 is_stmt 1 view .LVU1191
 3970              	.LVL417:
1225:Drivers/lvgl/src/stdlib/builtin/lv_tlsf.c ****                 lv_tlsf_free(tlsf, ptr);
 3971              		.loc 1 1225 17 view .LVU1192
 3972 007e 2246     		mov	r2, r4
 3973 0080 B442     		cmp	r4, r6
 3974 0082 28BF     		it	cs
 3975 0084 3246     		movcs	r2, r6
 3976 0086 4946     		mov	r1, r9
 3977 0088 FFF7FEFF 		bl	lv_memcpy
 3978              	.LVL418:
1226:Drivers/lvgl/src/stdlib/builtin/lv_tlsf.c ****             }
 3979              		.loc 1 1226 17 view .LVU1193
 3980 008c 4946     		mov	r1, r9
 3981 008e 2846     		mov	r0, r5
 3982 0090 FFF7FEFF 		bl	lv_tlsf_free
 3983              	.LVL419:
 3984 0094 DCE7     		b	.L252
ARM GAS  /var/folders/qx/2_175_4n2s19vhvtspjhb3qh0000gn/T//cccJA90f.s 			page 100


 3985              	.LVL420:
 3986              	.L259:
1226:Drivers/lvgl/src/stdlib/builtin/lv_tlsf.c ****             }
 3987              		.loc 1 1226 17 is_stmt 0 view .LVU1194
 3988              	.LBE17:
1231:Drivers/lvgl/src/stdlib/builtin/lv_tlsf.c ****                 block_merge_next(control, block);
 3989              		.loc 1 1231 13 is_stmt 1 view .LVU1195
1231:Drivers/lvgl/src/stdlib/builtin/lv_tlsf.c ****                 block_merge_next(control, block);
 3990              		.loc 1 1231 15 is_stmt 0 view .LVU1196
 3991 0096 4645     		cmp	r6, r8
 3992 0098 06D3     		bcc	.L265
 3993              	.L261:
1237:Drivers/lvgl/src/stdlib/builtin/lv_tlsf.c ****             p = ptr;
 3994              		.loc 1 1237 13 is_stmt 1 view .LVU1197
 3995 009a 4246     		mov	r2, r8
 3996 009c 3946     		mov	r1, r7
 3997 009e 2846     		mov	r0, r5
 3998 00a0 FFF7FEFF 		bl	block_trim_used
 3999              	.LVL421:
1238:Drivers/lvgl/src/stdlib/builtin/lv_tlsf.c ****         }
 4000              		.loc 1 1238 13 view .LVU1198
1238:Drivers/lvgl/src/stdlib/builtin/lv_tlsf.c ****         }
 4001              		.loc 1 1238 15 is_stmt 0 view .LVU1199
 4002 00a4 4F46     		mov	r7, r9
 4003              	.LVL422:
1238:Drivers/lvgl/src/stdlib/builtin/lv_tlsf.c ****         }
 4004              		.loc 1 1238 15 view .LVU1200
 4005 00a6 D3E7     		b	.L252
 4006              	.LVL423:
 4007              	.L265:
1232:Drivers/lvgl/src/stdlib/builtin/lv_tlsf.c ****                 block_mark_as_used(block);
 4008              		.loc 1 1232 17 is_stmt 1 view .LVU1201
 4009 00a8 3946     		mov	r1, r7
 4010 00aa 2846     		mov	r0, r5
 4011 00ac FFF7FEFF 		bl	block_merge_next
 4012              	.LVL424:
1233:Drivers/lvgl/src/stdlib/builtin/lv_tlsf.c ****             }
 4013              		.loc 1 1233 17 view .LVU1202
 4014 00b0 3846     		mov	r0, r7
 4015 00b2 FFF7FEFF 		bl	block_mark_as_used
 4016              	.LVL425:
 4017 00b6 F0E7     		b	.L261
 4018              	.LVL426:
 4019              	.L262:
1212:Drivers/lvgl/src/stdlib/builtin/lv_tlsf.c ****         }
 4020              		.loc 1 1212 20 is_stmt 0 view .LVU1203
 4021 00b8 0027     		movs	r7, #0
 4022              	.LVL427:
1212:Drivers/lvgl/src/stdlib/builtin/lv_tlsf.c ****         }
 4023              		.loc 1 1212 20 view .LVU1204
 4024 00ba C9E7     		b	.L252
 4025              	.LBE18:
 4026              		.cfi_endproc
 4027              	.LFE76:
 4029              		.text
 4030              	.Letext0:
 4031              		.file 2 "/Applications/ArmGNUToolchain/14.3.rel1/arm-none-eabi/lib/gcc/arm-none-eabi/14.3.1/includ
ARM GAS  /var/folders/qx/2_175_4n2s19vhvtspjhb3qh0000gn/T//cccJA90f.s 			page 101


 4032              		.file 3 "Drivers/lvgl/src/stdlib/builtin/lv_tlsf.h"
 4033              		.file 4 "Drivers/lvgl/src/stdlib/builtin/../../stdlib/lv_string.h"
ARM GAS  /var/folders/qx/2_175_4n2s19vhvtspjhb3qh0000gn/T//cccJA90f.s 			page 102


DEFINED SYMBOLS
                            *ABS*:00000000 lv_tlsf.c
/var/folders/qx/2_175_4n2s19vhvtspjhb3qh0000gn/T//cccJA90f.s:21     .text.block_size:00000000 $t
/var/folders/qx/2_175_4n2s19vhvtspjhb3qh0000gn/T//cccJA90f.s:26     .text.block_size:00000000 block_size
/var/folders/qx/2_175_4n2s19vhvtspjhb3qh0000gn/T//cccJA90f.s:45     .text.block_set_size:00000000 $t
/var/folders/qx/2_175_4n2s19vhvtspjhb3qh0000gn/T//cccJA90f.s:50     .text.block_set_size:00000000 block_set_size
/var/folders/qx/2_175_4n2s19vhvtspjhb3qh0000gn/T//cccJA90f.s:77     .text.block_is_last:00000000 $t
/var/folders/qx/2_175_4n2s19vhvtspjhb3qh0000gn/T//cccJA90f.s:82     .text.block_is_last:00000000 block_is_last
/var/folders/qx/2_175_4n2s19vhvtspjhb3qh0000gn/T//cccJA90f.s:107    .text.block_is_free:00000000 $t
/var/folders/qx/2_175_4n2s19vhvtspjhb3qh0000gn/T//cccJA90f.s:112    .text.block_is_free:00000000 block_is_free
/var/folders/qx/2_175_4n2s19vhvtspjhb3qh0000gn/T//cccJA90f.s:131    .text.block_set_free:00000000 $t
/var/folders/qx/2_175_4n2s19vhvtspjhb3qh0000gn/T//cccJA90f.s:136    .text.block_set_free:00000000 block_set_free
/var/folders/qx/2_175_4n2s19vhvtspjhb3qh0000gn/T//cccJA90f.s:156    .text.block_set_used:00000000 $t
/var/folders/qx/2_175_4n2s19vhvtspjhb3qh0000gn/T//cccJA90f.s:161    .text.block_set_used:00000000 block_set_used
/var/folders/qx/2_175_4n2s19vhvtspjhb3qh0000gn/T//cccJA90f.s:181    .text.block_is_prev_free:00000000 $t
/var/folders/qx/2_175_4n2s19vhvtspjhb3qh0000gn/T//cccJA90f.s:186    .text.block_is_prev_free:00000000 block_is_prev_free
/var/folders/qx/2_175_4n2s19vhvtspjhb3qh0000gn/T//cccJA90f.s:205    .text.block_set_prev_free:00000000 $t
/var/folders/qx/2_175_4n2s19vhvtspjhb3qh0000gn/T//cccJA90f.s:210    .text.block_set_prev_free:00000000 block_set_prev_free
/var/folders/qx/2_175_4n2s19vhvtspjhb3qh0000gn/T//cccJA90f.s:230    .text.block_set_prev_used:00000000 $t
/var/folders/qx/2_175_4n2s19vhvtspjhb3qh0000gn/T//cccJA90f.s:235    .text.block_set_prev_used:00000000 block_set_prev_used
/var/folders/qx/2_175_4n2s19vhvtspjhb3qh0000gn/T//cccJA90f.s:255    .text.block_from_ptr:00000000 $t
/var/folders/qx/2_175_4n2s19vhvtspjhb3qh0000gn/T//cccJA90f.s:260    .text.block_from_ptr:00000000 block_from_ptr
/var/folders/qx/2_175_4n2s19vhvtspjhb3qh0000gn/T//cccJA90f.s:278    .text.block_to_ptr:00000000 $t
/var/folders/qx/2_175_4n2s19vhvtspjhb3qh0000gn/T//cccJA90f.s:283    .text.block_to_ptr:00000000 block_to_ptr
/var/folders/qx/2_175_4n2s19vhvtspjhb3qh0000gn/T//cccJA90f.s:301    .text.offset_to_block:00000000 $t
/var/folders/qx/2_175_4n2s19vhvtspjhb3qh0000gn/T//cccJA90f.s:306    .text.offset_to_block:00000000 offset_to_block
/var/folders/qx/2_175_4n2s19vhvtspjhb3qh0000gn/T//cccJA90f.s:324    .text.block_prev:00000000 $t
/var/folders/qx/2_175_4n2s19vhvtspjhb3qh0000gn/T//cccJA90f.s:329    .text.block_prev:00000000 block_prev
/var/folders/qx/2_175_4n2s19vhvtspjhb3qh0000gn/T//cccJA90f.s:367    .text.block_next:00000000 $t
/var/folders/qx/2_175_4n2s19vhvtspjhb3qh0000gn/T//cccJA90f.s:372    .text.block_next:00000000 block_next
/var/folders/qx/2_175_4n2s19vhvtspjhb3qh0000gn/T//cccJA90f.s:430    .text.block_link_next:00000000 $t
/var/folders/qx/2_175_4n2s19vhvtspjhb3qh0000gn/T//cccJA90f.s:435    .text.block_link_next:00000000 block_link_next
/var/folders/qx/2_175_4n2s19vhvtspjhb3qh0000gn/T//cccJA90f.s:464    .text.block_mark_as_free:00000000 $t
/var/folders/qx/2_175_4n2s19vhvtspjhb3qh0000gn/T//cccJA90f.s:469    .text.block_mark_as_free:00000000 block_mark_as_free
/var/folders/qx/2_175_4n2s19vhvtspjhb3qh0000gn/T//cccJA90f.s:501    .text.block_mark_as_used:00000000 $t
/var/folders/qx/2_175_4n2s19vhvtspjhb3qh0000gn/T//cccJA90f.s:506    .text.block_mark_as_used:00000000 block_mark_as_used
/var/folders/qx/2_175_4n2s19vhvtspjhb3qh0000gn/T//cccJA90f.s:538    .text.align_up:00000000 $t
/var/folders/qx/2_175_4n2s19vhvtspjhb3qh0000gn/T//cccJA90f.s:543    .text.align_up:00000000 align_up
/var/folders/qx/2_175_4n2s19vhvtspjhb3qh0000gn/T//cccJA90f.s:581    .text.align_down:00000000 $t
/var/folders/qx/2_175_4n2s19vhvtspjhb3qh0000gn/T//cccJA90f.s:586    .text.align_down:00000000 align_down
/var/folders/qx/2_175_4n2s19vhvtspjhb3qh0000gn/T//cccJA90f.s:621    .text.align_ptr:00000000 $t
/var/folders/qx/2_175_4n2s19vhvtspjhb3qh0000gn/T//cccJA90f.s:626    .text.align_ptr:00000000 align_ptr
/var/folders/qx/2_175_4n2s19vhvtspjhb3qh0000gn/T//cccJA90f.s:666    .text.adjust_request_size:00000000 $t
/var/folders/qx/2_175_4n2s19vhvtspjhb3qh0000gn/T//cccJA90f.s:671    .text.adjust_request_size:00000000 adjust_request_size
/var/folders/qx/2_175_4n2s19vhvtspjhb3qh0000gn/T//cccJA90f.s:726    .text.remove_free_block:00000000 $t
/var/folders/qx/2_175_4n2s19vhvtspjhb3qh0000gn/T//cccJA90f.s:731    .text.remove_free_block:00000000 remove_free_block
/var/folders/qx/2_175_4n2s19vhvtspjhb3qh0000gn/T//cccJA90f.s:841    .text.insert_free_block:00000000 $t
/var/folders/qx/2_175_4n2s19vhvtspjhb3qh0000gn/T//cccJA90f.s:846    .text.insert_free_block:00000000 insert_free_block
/var/folders/qx/2_175_4n2s19vhvtspjhb3qh0000gn/T//cccJA90f.s:968    .text.block_can_split:00000000 $t
/var/folders/qx/2_175_4n2s19vhvtspjhb3qh0000gn/T//cccJA90f.s:973    .text.block_can_split:00000000 block_can_split
/var/folders/qx/2_175_4n2s19vhvtspjhb3qh0000gn/T//cccJA90f.s:1005   .text.block_split:00000000 $t
/var/folders/qx/2_175_4n2s19vhvtspjhb3qh0000gn/T//cccJA90f.s:1010   .text.block_split:00000000 block_split
/var/folders/qx/2_175_4n2s19vhvtspjhb3qh0000gn/T//cccJA90f.s:1132   .text.block_absorb:00000000 $t
/var/folders/qx/2_175_4n2s19vhvtspjhb3qh0000gn/T//cccJA90f.s:1137   .text.block_absorb:00000000 block_absorb
/var/folders/qx/2_175_4n2s19vhvtspjhb3qh0000gn/T//cccJA90f.s:1194   .text.control_constructor:00000000 $t
/var/folders/qx/2_175_4n2s19vhvtspjhb3qh0000gn/T//cccJA90f.s:1199   .text.control_constructor:00000000 control_constructor
/var/folders/qx/2_175_4n2s19vhvtspjhb3qh0000gn/T//cccJA90f.s:1262   .text.integrity_walker:00000000 $t
ARM GAS  /var/folders/qx/2_175_4n2s19vhvtspjhb3qh0000gn/T//cccJA90f.s 			page 103


/var/folders/qx/2_175_4n2s19vhvtspjhb3qh0000gn/T//cccJA90f.s:1267   .text.integrity_walker:00000000 integrity_walker
/var/folders/qx/2_175_4n2s19vhvtspjhb3qh0000gn/T//cccJA90f.s:1362   .text.default_walker:00000000 $t
/var/folders/qx/2_175_4n2s19vhvtspjhb3qh0000gn/T//cccJA90f.s:1367   .text.default_walker:00000000 default_walker
/var/folders/qx/2_175_4n2s19vhvtspjhb3qh0000gn/T//cccJA90f.s:1385   .text.tlsf_fls:00000000 $t
/var/folders/qx/2_175_4n2s19vhvtspjhb3qh0000gn/T//cccJA90f.s:1390   .text.tlsf_fls:00000000 tlsf_fls
/var/folders/qx/2_175_4n2s19vhvtspjhb3qh0000gn/T//cccJA90f.s:1425   .text.mapping_insert:00000000 $t
/var/folders/qx/2_175_4n2s19vhvtspjhb3qh0000gn/T//cccJA90f.s:1430   .text.mapping_insert:00000000 mapping_insert
/var/folders/qx/2_175_4n2s19vhvtspjhb3qh0000gn/T//cccJA90f.s:1505   .text.block_insert:00000000 $t
/var/folders/qx/2_175_4n2s19vhvtspjhb3qh0000gn/T//cccJA90f.s:1510   .text.block_insert:00000000 block_insert
/var/folders/qx/2_175_4n2s19vhvtspjhb3qh0000gn/T//cccJA90f.s:1559   .text.block_trim_free:00000000 $t
/var/folders/qx/2_175_4n2s19vhvtspjhb3qh0000gn/T//cccJA90f.s:1564   .text.block_trim_free:00000000 block_trim_free
/var/folders/qx/2_175_4n2s19vhvtspjhb3qh0000gn/T//cccJA90f.s:1645   .text.block_prepare_used:00000000 $t
/var/folders/qx/2_175_4n2s19vhvtspjhb3qh0000gn/T//cccJA90f.s:1650   .text.block_prepare_used:00000000 block_prepare_used
/var/folders/qx/2_175_4n2s19vhvtspjhb3qh0000gn/T//cccJA90f.s:1708   .text.block_trim_free_leading:00000000 $t
/var/folders/qx/2_175_4n2s19vhvtspjhb3qh0000gn/T//cccJA90f.s:1713   .text.block_trim_free_leading:00000000 block_trim_free_leading
/var/folders/qx/2_175_4n2s19vhvtspjhb3qh0000gn/T//cccJA90f.s:1782   .text.block_remove:00000000 $t
/var/folders/qx/2_175_4n2s19vhvtspjhb3qh0000gn/T//cccJA90f.s:1787   .text.block_remove:00000000 block_remove
/var/folders/qx/2_175_4n2s19vhvtspjhb3qh0000gn/T//cccJA90f.s:1836   .text.block_merge_prev:00000000 $t
/var/folders/qx/2_175_4n2s19vhvtspjhb3qh0000gn/T//cccJA90f.s:1841   .text.block_merge_prev:00000000 block_merge_prev
/var/folders/qx/2_175_4n2s19vhvtspjhb3qh0000gn/T//cccJA90f.s:1930   .text.block_merge_next:00000000 $t
/var/folders/qx/2_175_4n2s19vhvtspjhb3qh0000gn/T//cccJA90f.s:1935   .text.block_merge_next:00000000 block_merge_next
/var/folders/qx/2_175_4n2s19vhvtspjhb3qh0000gn/T//cccJA90f.s:2018   .text.block_trim_used:00000000 $t
/var/folders/qx/2_175_4n2s19vhvtspjhb3qh0000gn/T//cccJA90f.s:2023   .text.block_trim_used:00000000 block_trim_used
/var/folders/qx/2_175_4n2s19vhvtspjhb3qh0000gn/T//cccJA90f.s:2107   .text.mapping_search:00000000 $t
/var/folders/qx/2_175_4n2s19vhvtspjhb3qh0000gn/T//cccJA90f.s:2112   .text.mapping_search:00000000 mapping_search
/var/folders/qx/2_175_4n2s19vhvtspjhb3qh0000gn/T//cccJA90f.s:2167   .text.tlsf_ffs:00000000 $t
/var/folders/qx/2_175_4n2s19vhvtspjhb3qh0000gn/T//cccJA90f.s:2172   .text.tlsf_ffs:00000000 tlsf_ffs
/var/folders/qx/2_175_4n2s19vhvtspjhb3qh0000gn/T//cccJA90f.s:2197   .text.search_suitable_block:00000000 $t
/var/folders/qx/2_175_4n2s19vhvtspjhb3qh0000gn/T//cccJA90f.s:2202   .text.search_suitable_block:00000000 search_suitable_block
/var/folders/qx/2_175_4n2s19vhvtspjhb3qh0000gn/T//cccJA90f.s:2331   .text.block_locate_free:00000000 $t
/var/folders/qx/2_175_4n2s19vhvtspjhb3qh0000gn/T//cccJA90f.s:2336   .text.block_locate_free:00000000 block_locate_free
/var/folders/qx/2_175_4n2s19vhvtspjhb3qh0000gn/T//cccJA90f.s:2446   .text.lv_tlsf_check:00000000 $t
/var/folders/qx/2_175_4n2s19vhvtspjhb3qh0000gn/T//cccJA90f.s:2452   .text.lv_tlsf_check:00000000 lv_tlsf_check
/var/folders/qx/2_175_4n2s19vhvtspjhb3qh0000gn/T//cccJA90f.s:2739   .text.lv_tlsf_walk_pool:00000000 $t
/var/folders/qx/2_175_4n2s19vhvtspjhb3qh0000gn/T//cccJA90f.s:2745   .text.lv_tlsf_walk_pool:00000000 lv_tlsf_walk_pool
/var/folders/qx/2_175_4n2s19vhvtspjhb3qh0000gn/T//cccJA90f.s:2836   .text.lv_tlsf_walk_pool:00000058 $d
/var/folders/qx/2_175_4n2s19vhvtspjhb3qh0000gn/T//cccJA90f.s:2841   .text.lv_tlsf_block_size:00000000 $t
/var/folders/qx/2_175_4n2s19vhvtspjhb3qh0000gn/T//cccJA90f.s:2847   .text.lv_tlsf_block_size:00000000 lv_tlsf_block_size
/var/folders/qx/2_175_4n2s19vhvtspjhb3qh0000gn/T//cccJA90f.s:2893   .text.lv_tlsf_check_pool:00000000 $t
/var/folders/qx/2_175_4n2s19vhvtspjhb3qh0000gn/T//cccJA90f.s:2899   .text.lv_tlsf_check_pool:00000000 lv_tlsf_check_pool
/var/folders/qx/2_175_4n2s19vhvtspjhb3qh0000gn/T//cccJA90f.s:2935   .text.lv_tlsf_check_pool:0000001c $d
/var/folders/qx/2_175_4n2s19vhvtspjhb3qh0000gn/T//cccJA90f.s:2940   .text.lv_tlsf_size:00000000 $t
/var/folders/qx/2_175_4n2s19vhvtspjhb3qh0000gn/T//cccJA90f.s:2946   .text.lv_tlsf_size:00000000 lv_tlsf_size
/var/folders/qx/2_175_4n2s19vhvtspjhb3qh0000gn/T//cccJA90f.s:2961   .text.lv_tlsf_align_size:00000000 $t
/var/folders/qx/2_175_4n2s19vhvtspjhb3qh0000gn/T//cccJA90f.s:2967   .text.lv_tlsf_align_size:00000000 lv_tlsf_align_size
/var/folders/qx/2_175_4n2s19vhvtspjhb3qh0000gn/T//cccJA90f.s:2982   .text.lv_tlsf_block_size_min:00000000 $t
/var/folders/qx/2_175_4n2s19vhvtspjhb3qh0000gn/T//cccJA90f.s:2988   .text.lv_tlsf_block_size_min:00000000 lv_tlsf_block_size_min
/var/folders/qx/2_175_4n2s19vhvtspjhb3qh0000gn/T//cccJA90f.s:3003   .text.lv_tlsf_block_size_max:00000000 $t
/var/folders/qx/2_175_4n2s19vhvtspjhb3qh0000gn/T//cccJA90f.s:3009   .text.lv_tlsf_block_size_max:00000000 lv_tlsf_block_size_max
/var/folders/qx/2_175_4n2s19vhvtspjhb3qh0000gn/T//cccJA90f.s:3024   .text.lv_tlsf_pool_overhead:00000000 $t
/var/folders/qx/2_175_4n2s19vhvtspjhb3qh0000gn/T//cccJA90f.s:3030   .text.lv_tlsf_pool_overhead:00000000 lv_tlsf_pool_overhead
/var/folders/qx/2_175_4n2s19vhvtspjhb3qh0000gn/T//cccJA90f.s:3045   .text.lv_tlsf_alloc_overhead:00000000 $t
/var/folders/qx/2_175_4n2s19vhvtspjhb3qh0000gn/T//cccJA90f.s:3051   .text.lv_tlsf_alloc_overhead:00000000 lv_tlsf_alloc_overhead
/var/folders/qx/2_175_4n2s19vhvtspjhb3qh0000gn/T//cccJA90f.s:3066   .text.lv_tlsf_add_pool:00000000 $t
/var/folders/qx/2_175_4n2s19vhvtspjhb3qh0000gn/T//cccJA90f.s:3072   .text.lv_tlsf_add_pool:00000000 lv_tlsf_add_pool
/var/folders/qx/2_175_4n2s19vhvtspjhb3qh0000gn/T//cccJA90f.s:3190   .text.lv_tlsf_remove_pool:00000000 $t
/var/folders/qx/2_175_4n2s19vhvtspjhb3qh0000gn/T//cccJA90f.s:3196   .text.lv_tlsf_remove_pool:00000000 lv_tlsf_remove_pool
ARM GAS  /var/folders/qx/2_175_4n2s19vhvtspjhb3qh0000gn/T//cccJA90f.s 			page 104


/var/folders/qx/2_175_4n2s19vhvtspjhb3qh0000gn/T//cccJA90f.s:3313   .text.lv_tlsf_create:00000000 $t
/var/folders/qx/2_175_4n2s19vhvtspjhb3qh0000gn/T//cccJA90f.s:3319   .text.lv_tlsf_create:00000000 lv_tlsf_create
/var/folders/qx/2_175_4n2s19vhvtspjhb3qh0000gn/T//cccJA90f.s:3360   .text.lv_tlsf_create_with_pool:00000000 $t
/var/folders/qx/2_175_4n2s19vhvtspjhb3qh0000gn/T//cccJA90f.s:3366   .text.lv_tlsf_create_with_pool:00000000 lv_tlsf_create_with_pool
/var/folders/qx/2_175_4n2s19vhvtspjhb3qh0000gn/T//cccJA90f.s:3409   .text.lv_tlsf_destroy:00000000 $t
/var/folders/qx/2_175_4n2s19vhvtspjhb3qh0000gn/T//cccJA90f.s:3415   .text.lv_tlsf_destroy:00000000 lv_tlsf_destroy
/var/folders/qx/2_175_4n2s19vhvtspjhb3qh0000gn/T//cccJA90f.s:3430   .text.lv_tlsf_get_pool:00000000 $t
/var/folders/qx/2_175_4n2s19vhvtspjhb3qh0000gn/T//cccJA90f.s:3436   .text.lv_tlsf_get_pool:00000000 lv_tlsf_get_pool
/var/folders/qx/2_175_4n2s19vhvtspjhb3qh0000gn/T//cccJA90f.s:3462   .text.lv_tlsf_malloc:00000000 $t
/var/folders/qx/2_175_4n2s19vhvtspjhb3qh0000gn/T//cccJA90f.s:3468   .text.lv_tlsf_malloc:00000000 lv_tlsf_malloc
/var/folders/qx/2_175_4n2s19vhvtspjhb3qh0000gn/T//cccJA90f.s:3523   .text.lv_tlsf_memalign:00000000 $t
/var/folders/qx/2_175_4n2s19vhvtspjhb3qh0000gn/T//cccJA90f.s:3529   .text.lv_tlsf_memalign:00000000 lv_tlsf_memalign
/var/folders/qx/2_175_4n2s19vhvtspjhb3qh0000gn/T//cccJA90f.s:3697   .text.lv_tlsf_free:00000000 $t
/var/folders/qx/2_175_4n2s19vhvtspjhb3qh0000gn/T//cccJA90f.s:3703   .text.lv_tlsf_free:00000000 lv_tlsf_free
/var/folders/qx/2_175_4n2s19vhvtspjhb3qh0000gn/T//cccJA90f.s:3800   .text.lv_tlsf_realloc:00000000 $t
/var/folders/qx/2_175_4n2s19vhvtspjhb3qh0000gn/T//cccJA90f.s:3806   .text.lv_tlsf_realloc:00000000 lv_tlsf_realloc

UNDEFINED SYMBOLS
lv_memcpy
