ARM GAS  /var/folders/qx/2_175_4n2s19vhvtspjhb3qh0000gn/T//cckZJDG0.s 			page 1


   1              		.cpu cortex-m4
   2              		.arch armv7e-m
   3              		.fpu fpv4-sp-d16
   4              		.eabi_attribute 27, 1
   5              		.eabi_attribute 28, 1
   6              		.eabi_attribute 20, 1
   7              		.eabi_attribute 21, 1
   8              		.eabi_attribute 23, 3
   9              		.eabi_attribute 24, 1
  10              		.eabi_attribute 25, 1
  11              		.eabi_attribute 26, 1
  12              		.eabi_attribute 30, 1
  13              		.eabi_attribute 34, 1
  14              		.eabi_attribute 18, 4
  15              		.file	"lv_obj_draw.c"
  16              		.text
  17              	.Ltext0:
  18              		.cfi_sections	.debug_frame
  19              		.file 1 "Drivers/lvgl/src/core/lv_obj_draw.c"
  20              		.section	.text.get_layer_opa,"ax",%progbits
  21              		.align	1
  22              		.syntax unified
  23              		.thumb
  24              		.thumb_func
  26              	get_layer_opa:
  27              	.LVL0:
  28              	.LFB191:
   1:Drivers/lvgl/src/core/lv_obj_draw.c **** /**
   2:Drivers/lvgl/src/core/lv_obj_draw.c ****  * @file lv_obj_draw.c
   3:Drivers/lvgl/src/core/lv_obj_draw.c ****  *
   4:Drivers/lvgl/src/core/lv_obj_draw.c ****  */
   5:Drivers/lvgl/src/core/lv_obj_draw.c **** 
   6:Drivers/lvgl/src/core/lv_obj_draw.c **** /*********************
   7:Drivers/lvgl/src/core/lv_obj_draw.c ****  *      INCLUDES
   8:Drivers/lvgl/src/core/lv_obj_draw.c ****  *********************/
   9:Drivers/lvgl/src/core/lv_obj_draw.c **** #include "lv_obj_draw_private.h"
  10:Drivers/lvgl/src/core/lv_obj_draw.c **** #include "lv_obj_private.h"
  11:Drivers/lvgl/src/core/lv_obj_draw.c **** #include "lv_obj_style.h"
  12:Drivers/lvgl/src/core/lv_obj_draw.c **** #include "../display/lv_display.h"
  13:Drivers/lvgl/src/core/lv_obj_draw.c **** #include "../indev/lv_indev.h"
  14:Drivers/lvgl/src/core/lv_obj_draw.c **** #include "../stdlib/lv_string.h"
  15:Drivers/lvgl/src/core/lv_obj_draw.c **** 
  16:Drivers/lvgl/src/core/lv_obj_draw.c **** /*********************
  17:Drivers/lvgl/src/core/lv_obj_draw.c ****  *      DEFINES
  18:Drivers/lvgl/src/core/lv_obj_draw.c ****  *********************/
  19:Drivers/lvgl/src/core/lv_obj_draw.c **** #define MY_CLASS (&lv_obj_class)
  20:Drivers/lvgl/src/core/lv_obj_draw.c **** 
  21:Drivers/lvgl/src/core/lv_obj_draw.c **** /**********************
  22:Drivers/lvgl/src/core/lv_obj_draw.c ****  *      TYPEDEFS
  23:Drivers/lvgl/src/core/lv_obj_draw.c ****  **********************/
  24:Drivers/lvgl/src/core/lv_obj_draw.c **** 
  25:Drivers/lvgl/src/core/lv_obj_draw.c **** /**********************
  26:Drivers/lvgl/src/core/lv_obj_draw.c ****  *  STATIC PROTOTYPES
  27:Drivers/lvgl/src/core/lv_obj_draw.c ****  **********************/
  28:Drivers/lvgl/src/core/lv_obj_draw.c **** 
  29:Drivers/lvgl/src/core/lv_obj_draw.c **** static inline lv_opa_t get_layer_opa(const lv_obj_t * obj, lv_part_t part, const lv_draw_dsc_base_t
  30:Drivers/lvgl/src/core/lv_obj_draw.c **** static lv_color_t normal_apply_layer_recolor(const lv_obj_t * obj, lv_part_t part,  const lv_draw_d
ARM GAS  /var/folders/qx/2_175_4n2s19vhvtspjhb3qh0000gn/T//cckZJDG0.s 			page 2


  31:Drivers/lvgl/src/core/lv_obj_draw.c ****                                              lv_color_t color);
  32:Drivers/lvgl/src/core/lv_obj_draw.c **** static lv_color32_t image_apply_layer_recolor(const lv_obj_t * obj, lv_part_t part,
  33:Drivers/lvgl/src/core/lv_obj_draw.c ****                                               const lv_draw_dsc_base_t * base_dsc, lv_color_t color
  34:Drivers/lvgl/src/core/lv_obj_draw.c **** 
  35:Drivers/lvgl/src/core/lv_obj_draw.c **** /**********************
  36:Drivers/lvgl/src/core/lv_obj_draw.c ****  *  STATIC VARIABLES
  37:Drivers/lvgl/src/core/lv_obj_draw.c ****  **********************/
  38:Drivers/lvgl/src/core/lv_obj_draw.c **** 
  39:Drivers/lvgl/src/core/lv_obj_draw.c **** /**********************
  40:Drivers/lvgl/src/core/lv_obj_draw.c ****  *      MACROS
  41:Drivers/lvgl/src/core/lv_obj_draw.c ****  **********************/
  42:Drivers/lvgl/src/core/lv_obj_draw.c **** 
  43:Drivers/lvgl/src/core/lv_obj_draw.c **** /**********************
  44:Drivers/lvgl/src/core/lv_obj_draw.c ****  *   GLOBAL FUNCTIONS
  45:Drivers/lvgl/src/core/lv_obj_draw.c ****  **********************/
  46:Drivers/lvgl/src/core/lv_obj_draw.c **** 
  47:Drivers/lvgl/src/core/lv_obj_draw.c **** void lv_obj_init_draw_rect_dsc(lv_obj_t * obj, lv_part_t part, lv_draw_rect_dsc_t * draw_dsc)
  48:Drivers/lvgl/src/core/lv_obj_draw.c **** {
  49:Drivers/lvgl/src/core/lv_obj_draw.c ****     LV_PROFILER_DRAW_BEGIN;
  50:Drivers/lvgl/src/core/lv_obj_draw.c ****     draw_dsc->base.obj = obj;
  51:Drivers/lvgl/src/core/lv_obj_draw.c ****     draw_dsc->base.part = part;
  52:Drivers/lvgl/src/core/lv_obj_draw.c **** 
  53:Drivers/lvgl/src/core/lv_obj_draw.c ****     lv_opa_t opa = get_layer_opa(obj, part, &draw_dsc->base);
  54:Drivers/lvgl/src/core/lv_obj_draw.c ****     if(part != LV_PART_MAIN) {
  55:Drivers/lvgl/src/core/lv_obj_draw.c ****         if(opa <= LV_OPA_MIN) {
  56:Drivers/lvgl/src/core/lv_obj_draw.c ****             draw_dsc->bg_opa = LV_OPA_TRANSP;
  57:Drivers/lvgl/src/core/lv_obj_draw.c ****             draw_dsc->bg_image_opa = LV_OPA_TRANSP;
  58:Drivers/lvgl/src/core/lv_obj_draw.c ****             draw_dsc->border_opa = LV_OPA_TRANSP;
  59:Drivers/lvgl/src/core/lv_obj_draw.c ****             draw_dsc->outline_opa = LV_OPA_TRANSP;
  60:Drivers/lvgl/src/core/lv_obj_draw.c ****             draw_dsc->shadow_opa = LV_OPA_TRANSP;
  61:Drivers/lvgl/src/core/lv_obj_draw.c ****             LV_PROFILER_DRAW_END;
  62:Drivers/lvgl/src/core/lv_obj_draw.c ****             return;
  63:Drivers/lvgl/src/core/lv_obj_draw.c ****         }
  64:Drivers/lvgl/src/core/lv_obj_draw.c ****     }
  65:Drivers/lvgl/src/core/lv_obj_draw.c **** 
  66:Drivers/lvgl/src/core/lv_obj_draw.c ****     draw_dsc->radius = lv_obj_get_style_radius(obj, part);
  67:Drivers/lvgl/src/core/lv_obj_draw.c **** 
  68:Drivers/lvgl/src/core/lv_obj_draw.c ****     if(draw_dsc->bg_opa != LV_OPA_TRANSP) {
  69:Drivers/lvgl/src/core/lv_obj_draw.c ****         draw_dsc->bg_opa = lv_obj_get_style_bg_opa(obj, part);
  70:Drivers/lvgl/src/core/lv_obj_draw.c ****         if(draw_dsc->bg_opa > LV_OPA_MIN) {
  71:Drivers/lvgl/src/core/lv_obj_draw.c ****             lv_color_t bg_color = lv_obj_get_style_bg_color_filtered(obj, part);
  72:Drivers/lvgl/src/core/lv_obj_draw.c ****             draw_dsc->bg_color = normal_apply_layer_recolor(obj, part, &draw_dsc->base, bg_color);
  73:Drivers/lvgl/src/core/lv_obj_draw.c ****             const lv_grad_dsc_t * grad = lv_obj_get_style_bg_grad(obj, part);
  74:Drivers/lvgl/src/core/lv_obj_draw.c ****             if(grad && grad->dir != LV_GRAD_DIR_NONE) {
  75:Drivers/lvgl/src/core/lv_obj_draw.c ****                 lv_memcpy(&draw_dsc->bg_grad, grad, sizeof(*grad));
  76:Drivers/lvgl/src/core/lv_obj_draw.c ****             }
  77:Drivers/lvgl/src/core/lv_obj_draw.c ****             else {
  78:Drivers/lvgl/src/core/lv_obj_draw.c ****                 draw_dsc->bg_grad.dir = lv_obj_get_style_bg_grad_dir(obj, part);
  79:Drivers/lvgl/src/core/lv_obj_draw.c ****                 if(draw_dsc->bg_grad.dir != LV_GRAD_DIR_NONE) {
  80:Drivers/lvgl/src/core/lv_obj_draw.c ****                     draw_dsc->bg_grad.stops[0].color = draw_dsc->bg_color;
  81:Drivers/lvgl/src/core/lv_obj_draw.c ****                     lv_color_t bg_grad_color = lv_obj_get_style_bg_grad_color_filtered(obj, part);
  82:Drivers/lvgl/src/core/lv_obj_draw.c ****                     draw_dsc->bg_grad.stops[1].color = normal_apply_layer_recolor(obj, part, &draw_
  83:Drivers/lvgl/src/core/lv_obj_draw.c ****                     draw_dsc->bg_grad.stops[0].frac = lv_obj_get_style_bg_main_stop(obj, part);
  84:Drivers/lvgl/src/core/lv_obj_draw.c ****                     draw_dsc->bg_grad.stops[1].frac = lv_obj_get_style_bg_grad_stop(obj, part);
  85:Drivers/lvgl/src/core/lv_obj_draw.c ****                     draw_dsc->bg_grad.stops[0].opa = lv_obj_get_style_bg_main_opa(obj, part);
  86:Drivers/lvgl/src/core/lv_obj_draw.c ****                     draw_dsc->bg_grad.stops[1].opa = lv_obj_get_style_bg_grad_opa(obj, part);
  87:Drivers/lvgl/src/core/lv_obj_draw.c ****                 }
ARM GAS  /var/folders/qx/2_175_4n2s19vhvtspjhb3qh0000gn/T//cckZJDG0.s 			page 3


  88:Drivers/lvgl/src/core/lv_obj_draw.c ****             }
  89:Drivers/lvgl/src/core/lv_obj_draw.c ****         }
  90:Drivers/lvgl/src/core/lv_obj_draw.c ****     }
  91:Drivers/lvgl/src/core/lv_obj_draw.c **** 
  92:Drivers/lvgl/src/core/lv_obj_draw.c ****     if(draw_dsc->border_opa != LV_OPA_TRANSP) {
  93:Drivers/lvgl/src/core/lv_obj_draw.c ****         draw_dsc->border_width = lv_obj_get_style_border_width(obj, part);
  94:Drivers/lvgl/src/core/lv_obj_draw.c ****         if(draw_dsc->border_width) {
  95:Drivers/lvgl/src/core/lv_obj_draw.c ****             draw_dsc->border_opa = lv_obj_get_style_border_opa(obj, part);
  96:Drivers/lvgl/src/core/lv_obj_draw.c ****             if(draw_dsc->border_opa > LV_OPA_MIN) {
  97:Drivers/lvgl/src/core/lv_obj_draw.c ****                 draw_dsc->border_side = lv_obj_get_style_border_side(obj, part);
  98:Drivers/lvgl/src/core/lv_obj_draw.c ****                 lv_color_t border_color = lv_obj_get_style_border_color_filtered(obj, part);
  99:Drivers/lvgl/src/core/lv_obj_draw.c ****                 draw_dsc->border_color = normal_apply_layer_recolor(obj, part, &draw_dsc->base, bor
 100:Drivers/lvgl/src/core/lv_obj_draw.c ****             }
 101:Drivers/lvgl/src/core/lv_obj_draw.c ****         }
 102:Drivers/lvgl/src/core/lv_obj_draw.c ****     }
 103:Drivers/lvgl/src/core/lv_obj_draw.c **** 
 104:Drivers/lvgl/src/core/lv_obj_draw.c ****     if(draw_dsc->outline_opa != LV_OPA_TRANSP) {
 105:Drivers/lvgl/src/core/lv_obj_draw.c ****         draw_dsc->outline_width = lv_obj_get_style_outline_width(obj, part);
 106:Drivers/lvgl/src/core/lv_obj_draw.c ****         if(draw_dsc->outline_width) {
 107:Drivers/lvgl/src/core/lv_obj_draw.c ****             draw_dsc->outline_opa = lv_obj_get_style_outline_opa(obj, part);
 108:Drivers/lvgl/src/core/lv_obj_draw.c ****             if(draw_dsc->outline_opa > LV_OPA_MIN) {
 109:Drivers/lvgl/src/core/lv_obj_draw.c ****                 draw_dsc->outline_pad = lv_obj_get_style_outline_pad(obj, part);
 110:Drivers/lvgl/src/core/lv_obj_draw.c ****                 lv_color_t outline_color = lv_obj_get_style_outline_color_filtered(obj, part);
 111:Drivers/lvgl/src/core/lv_obj_draw.c ****                 draw_dsc->outline_color = normal_apply_layer_recolor(obj, part, &draw_dsc->base, ou
 112:Drivers/lvgl/src/core/lv_obj_draw.c ****             }
 113:Drivers/lvgl/src/core/lv_obj_draw.c ****         }
 114:Drivers/lvgl/src/core/lv_obj_draw.c ****     }
 115:Drivers/lvgl/src/core/lv_obj_draw.c **** 
 116:Drivers/lvgl/src/core/lv_obj_draw.c ****     if(draw_dsc->bg_image_opa != LV_OPA_TRANSP) {
 117:Drivers/lvgl/src/core/lv_obj_draw.c ****         draw_dsc->bg_image_src = lv_obj_get_style_bg_image_src(obj, part);
 118:Drivers/lvgl/src/core/lv_obj_draw.c ****         if(draw_dsc->bg_image_src) {
 119:Drivers/lvgl/src/core/lv_obj_draw.c ****             draw_dsc->bg_image_opa = lv_obj_get_style_bg_image_opa(obj, part);
 120:Drivers/lvgl/src/core/lv_obj_draw.c ****             if(draw_dsc->bg_image_opa > LV_OPA_MIN) {
 121:Drivers/lvgl/src/core/lv_obj_draw.c ****                 if(lv_image_src_get_type(draw_dsc->bg_image_src) == LV_IMAGE_SRC_SYMBOL) {
 122:Drivers/lvgl/src/core/lv_obj_draw.c ****                     draw_dsc->bg_image_symbol_font = lv_obj_get_style_text_font(obj, part);
 123:Drivers/lvgl/src/core/lv_obj_draw.c ****                     lv_color_t text_color = lv_obj_get_style_text_color_filtered(obj, part);
 124:Drivers/lvgl/src/core/lv_obj_draw.c ****                     draw_dsc->bg_image_recolor = normal_apply_layer_recolor(obj, part, &draw_dsc->b
 125:Drivers/lvgl/src/core/lv_obj_draw.c ****                 }
 126:Drivers/lvgl/src/core/lv_obj_draw.c ****                 else {
 127:Drivers/lvgl/src/core/lv_obj_draw.c ****                     lv_color_t bg_image_recolor = lv_obj_get_style_bg_image_recolor_filtered(obj, p
 128:Drivers/lvgl/src/core/lv_obj_draw.c ****                     lv_opa_t bg_image_recolor_opa = lv_obj_get_style_bg_image_recolor_opa(obj, part
 129:Drivers/lvgl/src/core/lv_obj_draw.c ****                     lv_color32_t result = image_apply_layer_recolor(obj, part, &draw_dsc->base, bg_
 130:Drivers/lvgl/src/core/lv_obj_draw.c ****                     draw_dsc->bg_image_recolor_opa = result.alpha;
 131:Drivers/lvgl/src/core/lv_obj_draw.c ****                     draw_dsc->bg_image_recolor = lv_color_make(result.red, result.green, result.blu
 132:Drivers/lvgl/src/core/lv_obj_draw.c ****                     draw_dsc->bg_image_tiled = lv_obj_get_style_bg_image_tiled(obj, part);
 133:Drivers/lvgl/src/core/lv_obj_draw.c ****                 }
 134:Drivers/lvgl/src/core/lv_obj_draw.c **** 
 135:Drivers/lvgl/src/core/lv_obj_draw.c ****                 draw_dsc->bg_image_colorkey = lv_obj_get_style_image_colorkey(obj, part);
 136:Drivers/lvgl/src/core/lv_obj_draw.c ****             }
 137:Drivers/lvgl/src/core/lv_obj_draw.c ****         }
 138:Drivers/lvgl/src/core/lv_obj_draw.c ****     }
 139:Drivers/lvgl/src/core/lv_obj_draw.c **** 
 140:Drivers/lvgl/src/core/lv_obj_draw.c ****     if(draw_dsc->shadow_opa) {
 141:Drivers/lvgl/src/core/lv_obj_draw.c ****         draw_dsc->shadow_width = lv_obj_get_style_shadow_width(obj, part);
 142:Drivers/lvgl/src/core/lv_obj_draw.c ****         if(draw_dsc->shadow_width) {
 143:Drivers/lvgl/src/core/lv_obj_draw.c ****             if(draw_dsc->shadow_opa > LV_OPA_MIN) {
 144:Drivers/lvgl/src/core/lv_obj_draw.c ****                 draw_dsc->shadow_opa = lv_obj_get_style_shadow_opa(obj, part);
ARM GAS  /var/folders/qx/2_175_4n2s19vhvtspjhb3qh0000gn/T//cckZJDG0.s 			page 4


 145:Drivers/lvgl/src/core/lv_obj_draw.c ****                 if(draw_dsc->shadow_opa > LV_OPA_MIN) {
 146:Drivers/lvgl/src/core/lv_obj_draw.c ****                     draw_dsc->shadow_offset_x = lv_obj_get_style_shadow_offset_x(obj, part);
 147:Drivers/lvgl/src/core/lv_obj_draw.c ****                     draw_dsc->shadow_offset_y = lv_obj_get_style_shadow_offset_y(obj, part);
 148:Drivers/lvgl/src/core/lv_obj_draw.c ****                     draw_dsc->shadow_spread = lv_obj_get_style_shadow_spread(obj, part);
 149:Drivers/lvgl/src/core/lv_obj_draw.c ****                     lv_color_t shadow_color = lv_obj_get_style_shadow_color_filtered(obj, part);
 150:Drivers/lvgl/src/core/lv_obj_draw.c ****                     draw_dsc->shadow_color = normal_apply_layer_recolor(obj, part, &draw_dsc->base,
 151:Drivers/lvgl/src/core/lv_obj_draw.c ****                 }
 152:Drivers/lvgl/src/core/lv_obj_draw.c ****             }
 153:Drivers/lvgl/src/core/lv_obj_draw.c ****         }
 154:Drivers/lvgl/src/core/lv_obj_draw.c ****     }
 155:Drivers/lvgl/src/core/lv_obj_draw.c **** 
 156:Drivers/lvgl/src/core/lv_obj_draw.c ****     if(opa < LV_OPA_MAX) {
 157:Drivers/lvgl/src/core/lv_obj_draw.c ****         draw_dsc->bg_opa = LV_OPA_MIX2(draw_dsc->bg_opa, opa);
 158:Drivers/lvgl/src/core/lv_obj_draw.c ****         draw_dsc->bg_image_opa = LV_OPA_MIX2(draw_dsc->bg_image_opa, opa);
 159:Drivers/lvgl/src/core/lv_obj_draw.c ****         draw_dsc->border_opa = LV_OPA_MIX2(draw_dsc->border_opa, opa);
 160:Drivers/lvgl/src/core/lv_obj_draw.c ****         draw_dsc->shadow_opa = LV_OPA_MIX2(draw_dsc->shadow_opa, opa);
 161:Drivers/lvgl/src/core/lv_obj_draw.c ****         draw_dsc->outline_opa = LV_OPA_MIX2(draw_dsc->outline_opa, opa);
 162:Drivers/lvgl/src/core/lv_obj_draw.c ****     }
 163:Drivers/lvgl/src/core/lv_obj_draw.c **** 
 164:Drivers/lvgl/src/core/lv_obj_draw.c ****     LV_PROFILER_DRAW_END;
 165:Drivers/lvgl/src/core/lv_obj_draw.c **** }
 166:Drivers/lvgl/src/core/lv_obj_draw.c **** 
 167:Drivers/lvgl/src/core/lv_obj_draw.c **** void lv_obj_init_draw_label_dsc(lv_obj_t * obj, lv_part_t part, lv_draw_label_dsc_t * draw_dsc)
 168:Drivers/lvgl/src/core/lv_obj_draw.c **** {
 169:Drivers/lvgl/src/core/lv_obj_draw.c ****     LV_PROFILER_DRAW_BEGIN;
 170:Drivers/lvgl/src/core/lv_obj_draw.c ****     draw_dsc->base.obj = obj;
 171:Drivers/lvgl/src/core/lv_obj_draw.c ****     draw_dsc->base.part = part;
 172:Drivers/lvgl/src/core/lv_obj_draw.c **** 
 173:Drivers/lvgl/src/core/lv_obj_draw.c ****     draw_dsc->opa = lv_obj_get_style_text_opa(obj, part);
 174:Drivers/lvgl/src/core/lv_obj_draw.c ****     if(draw_dsc->opa <= LV_OPA_MIN) {
 175:Drivers/lvgl/src/core/lv_obj_draw.c ****         LV_PROFILER_DRAW_END;
 176:Drivers/lvgl/src/core/lv_obj_draw.c ****         return;
 177:Drivers/lvgl/src/core/lv_obj_draw.c ****     }
 178:Drivers/lvgl/src/core/lv_obj_draw.c **** 
 179:Drivers/lvgl/src/core/lv_obj_draw.c ****     lv_opa_t opa = get_layer_opa(obj, part, &draw_dsc->base);
 180:Drivers/lvgl/src/core/lv_obj_draw.c ****     if(opa < LV_OPA_MAX) {
 181:Drivers/lvgl/src/core/lv_obj_draw.c ****         draw_dsc->opa = LV_OPA_MIX2(draw_dsc->opa, opa);
 182:Drivers/lvgl/src/core/lv_obj_draw.c ****     }
 183:Drivers/lvgl/src/core/lv_obj_draw.c ****     if(draw_dsc->opa <= LV_OPA_MIN) {
 184:Drivers/lvgl/src/core/lv_obj_draw.c ****         LV_PROFILER_DRAW_END;
 185:Drivers/lvgl/src/core/lv_obj_draw.c ****         return;
 186:Drivers/lvgl/src/core/lv_obj_draw.c ****     }
 187:Drivers/lvgl/src/core/lv_obj_draw.c **** 
 188:Drivers/lvgl/src/core/lv_obj_draw.c ****     lv_color_t text_color = lv_obj_get_style_text_color_filtered(obj, part);
 189:Drivers/lvgl/src/core/lv_obj_draw.c ****     draw_dsc->color = normal_apply_layer_recolor(obj, part, &draw_dsc->base, text_color);
 190:Drivers/lvgl/src/core/lv_obj_draw.c ****     draw_dsc->letter_space = lv_obj_get_style_text_letter_space(obj, part);
 191:Drivers/lvgl/src/core/lv_obj_draw.c ****     draw_dsc->line_space = lv_obj_get_style_text_line_space(obj, part);
 192:Drivers/lvgl/src/core/lv_obj_draw.c ****     draw_dsc->decor = lv_obj_get_style_text_decor(obj, part);
 193:Drivers/lvgl/src/core/lv_obj_draw.c **** 
 194:Drivers/lvgl/src/core/lv_obj_draw.c ****     draw_dsc->font = lv_obj_get_style_text_font(obj, part);
 195:Drivers/lvgl/src/core/lv_obj_draw.c **** 
 196:Drivers/lvgl/src/core/lv_obj_draw.c **** #if LV_USE_BIDI
 197:Drivers/lvgl/src/core/lv_obj_draw.c ****     draw_dsc->bidi_dir = lv_obj_get_style_base_dir(obj, LV_PART_MAIN);
 198:Drivers/lvgl/src/core/lv_obj_draw.c **** #endif
 199:Drivers/lvgl/src/core/lv_obj_draw.c **** 
 200:Drivers/lvgl/src/core/lv_obj_draw.c ****     draw_dsc->align = lv_obj_get_style_text_align(obj, part);
 201:Drivers/lvgl/src/core/lv_obj_draw.c **** 
ARM GAS  /var/folders/qx/2_175_4n2s19vhvtspjhb3qh0000gn/T//cckZJDG0.s 			page 5


 202:Drivers/lvgl/src/core/lv_obj_draw.c ****     LV_PROFILER_DRAW_END;
 203:Drivers/lvgl/src/core/lv_obj_draw.c **** }
 204:Drivers/lvgl/src/core/lv_obj_draw.c **** 
 205:Drivers/lvgl/src/core/lv_obj_draw.c **** void lv_obj_init_draw_image_dsc(lv_obj_t * obj, lv_part_t part, lv_draw_image_dsc_t * draw_dsc)
 206:Drivers/lvgl/src/core/lv_obj_draw.c **** {
 207:Drivers/lvgl/src/core/lv_obj_draw.c ****     LV_PROFILER_DRAW_BEGIN;
 208:Drivers/lvgl/src/core/lv_obj_draw.c ****     draw_dsc->base.obj = obj;
 209:Drivers/lvgl/src/core/lv_obj_draw.c ****     draw_dsc->base.part = part;
 210:Drivers/lvgl/src/core/lv_obj_draw.c **** 
 211:Drivers/lvgl/src/core/lv_obj_draw.c ****     draw_dsc->opa = lv_obj_get_style_image_opa(obj, part);
 212:Drivers/lvgl/src/core/lv_obj_draw.c ****     if(draw_dsc->opa <= LV_OPA_MIN) {
 213:Drivers/lvgl/src/core/lv_obj_draw.c ****         LV_PROFILER_DRAW_END;
 214:Drivers/lvgl/src/core/lv_obj_draw.c ****         return;
 215:Drivers/lvgl/src/core/lv_obj_draw.c ****     }
 216:Drivers/lvgl/src/core/lv_obj_draw.c **** 
 217:Drivers/lvgl/src/core/lv_obj_draw.c ****     lv_opa_t opa = get_layer_opa(obj, part, &draw_dsc->base);
 218:Drivers/lvgl/src/core/lv_obj_draw.c ****     if(opa < LV_OPA_MAX) {
 219:Drivers/lvgl/src/core/lv_obj_draw.c ****         draw_dsc->opa = LV_OPA_MIX2(draw_dsc->opa, opa);
 220:Drivers/lvgl/src/core/lv_obj_draw.c ****     }
 221:Drivers/lvgl/src/core/lv_obj_draw.c ****     if(draw_dsc->opa <= LV_OPA_MIN) {
 222:Drivers/lvgl/src/core/lv_obj_draw.c ****         LV_PROFILER_DRAW_END;
 223:Drivers/lvgl/src/core/lv_obj_draw.c ****         return;
 224:Drivers/lvgl/src/core/lv_obj_draw.c ****     }
 225:Drivers/lvgl/src/core/lv_obj_draw.c **** 
 226:Drivers/lvgl/src/core/lv_obj_draw.c ****     draw_dsc->rotation = 0;
 227:Drivers/lvgl/src/core/lv_obj_draw.c ****     draw_dsc->scale_x = LV_SCALE_NONE;
 228:Drivers/lvgl/src/core/lv_obj_draw.c ****     draw_dsc->scale_y = LV_SCALE_NONE;
 229:Drivers/lvgl/src/core/lv_obj_draw.c ****     draw_dsc->pivot.x = lv_area_get_width(&obj->coords) / 2;
 230:Drivers/lvgl/src/core/lv_obj_draw.c ****     draw_dsc->pivot.y = lv_area_get_height(&obj->coords) / 2;
 231:Drivers/lvgl/src/core/lv_obj_draw.c **** 
 232:Drivers/lvgl/src/core/lv_obj_draw.c ****     lv_color_t recolor = lv_obj_get_style_image_recolor_filtered(obj, part);
 233:Drivers/lvgl/src/core/lv_obj_draw.c ****     lv_opa_t recolor_opa = lv_obj_get_style_image_recolor_opa(obj, part);
 234:Drivers/lvgl/src/core/lv_obj_draw.c ****     lv_color32_t result = image_apply_layer_recolor(obj, part, &draw_dsc->base, recolor, recolor_op
 235:Drivers/lvgl/src/core/lv_obj_draw.c ****     draw_dsc->recolor_opa = result.alpha;
 236:Drivers/lvgl/src/core/lv_obj_draw.c ****     draw_dsc->recolor = lv_color_make(result.red, result.green, result.blue);
 237:Drivers/lvgl/src/core/lv_obj_draw.c **** 
 238:Drivers/lvgl/src/core/lv_obj_draw.c ****     draw_dsc->colorkey = lv_obj_get_style_image_colorkey(obj, part);
 239:Drivers/lvgl/src/core/lv_obj_draw.c **** 
 240:Drivers/lvgl/src/core/lv_obj_draw.c ****     if(part != LV_PART_MAIN) draw_dsc->blend_mode = lv_obj_get_style_blend_mode(obj, part);
 241:Drivers/lvgl/src/core/lv_obj_draw.c **** 
 242:Drivers/lvgl/src/core/lv_obj_draw.c ****     LV_PROFILER_DRAW_END;
 243:Drivers/lvgl/src/core/lv_obj_draw.c **** }
 244:Drivers/lvgl/src/core/lv_obj_draw.c **** 
 245:Drivers/lvgl/src/core/lv_obj_draw.c **** void lv_obj_init_draw_line_dsc(lv_obj_t * obj, lv_part_t part, lv_draw_line_dsc_t * draw_dsc)
 246:Drivers/lvgl/src/core/lv_obj_draw.c **** {
 247:Drivers/lvgl/src/core/lv_obj_draw.c ****     LV_PROFILER_DRAW_BEGIN;
 248:Drivers/lvgl/src/core/lv_obj_draw.c ****     draw_dsc->base.obj = obj;
 249:Drivers/lvgl/src/core/lv_obj_draw.c ****     draw_dsc->base.part = part;
 250:Drivers/lvgl/src/core/lv_obj_draw.c **** 
 251:Drivers/lvgl/src/core/lv_obj_draw.c ****     draw_dsc->opa = lv_obj_get_style_line_opa(obj, part);
 252:Drivers/lvgl/src/core/lv_obj_draw.c ****     if(draw_dsc->opa <= LV_OPA_MIN) {
 253:Drivers/lvgl/src/core/lv_obj_draw.c ****         LV_PROFILER_DRAW_END;
 254:Drivers/lvgl/src/core/lv_obj_draw.c ****         return;
 255:Drivers/lvgl/src/core/lv_obj_draw.c ****     }
 256:Drivers/lvgl/src/core/lv_obj_draw.c **** 
 257:Drivers/lvgl/src/core/lv_obj_draw.c ****     lv_opa_t opa = get_layer_opa(obj, part, &draw_dsc->base);
 258:Drivers/lvgl/src/core/lv_obj_draw.c ****     if(opa < LV_OPA_MAX) {
ARM GAS  /var/folders/qx/2_175_4n2s19vhvtspjhb3qh0000gn/T//cckZJDG0.s 			page 6


 259:Drivers/lvgl/src/core/lv_obj_draw.c ****         draw_dsc->opa = LV_OPA_MIX2(draw_dsc->opa, opa);
 260:Drivers/lvgl/src/core/lv_obj_draw.c ****     }
 261:Drivers/lvgl/src/core/lv_obj_draw.c ****     if(draw_dsc->opa <= LV_OPA_MIN) {
 262:Drivers/lvgl/src/core/lv_obj_draw.c ****         LV_PROFILER_DRAW_END;
 263:Drivers/lvgl/src/core/lv_obj_draw.c ****         return;
 264:Drivers/lvgl/src/core/lv_obj_draw.c ****     }
 265:Drivers/lvgl/src/core/lv_obj_draw.c **** 
 266:Drivers/lvgl/src/core/lv_obj_draw.c ****     draw_dsc->width = lv_obj_get_style_line_width(obj, part);
 267:Drivers/lvgl/src/core/lv_obj_draw.c ****     if(draw_dsc->width == 0) {
 268:Drivers/lvgl/src/core/lv_obj_draw.c ****         LV_PROFILER_DRAW_END;
 269:Drivers/lvgl/src/core/lv_obj_draw.c ****         return;
 270:Drivers/lvgl/src/core/lv_obj_draw.c ****     }
 271:Drivers/lvgl/src/core/lv_obj_draw.c **** 
 272:Drivers/lvgl/src/core/lv_obj_draw.c ****     lv_color_t line_color = lv_obj_get_style_line_color_filtered(obj, part);
 273:Drivers/lvgl/src/core/lv_obj_draw.c ****     draw_dsc->color = normal_apply_layer_recolor(obj, part, &draw_dsc->base, line_color);
 274:Drivers/lvgl/src/core/lv_obj_draw.c **** 
 275:Drivers/lvgl/src/core/lv_obj_draw.c ****     draw_dsc->dash_width = lv_obj_get_style_line_dash_width(obj, part);
 276:Drivers/lvgl/src/core/lv_obj_draw.c ****     if(draw_dsc->dash_width) {
 277:Drivers/lvgl/src/core/lv_obj_draw.c ****         draw_dsc->dash_gap = lv_obj_get_style_line_dash_gap(obj, part);
 278:Drivers/lvgl/src/core/lv_obj_draw.c ****     }
 279:Drivers/lvgl/src/core/lv_obj_draw.c **** 
 280:Drivers/lvgl/src/core/lv_obj_draw.c ****     draw_dsc->round_start = lv_obj_get_style_line_rounded(obj, part);
 281:Drivers/lvgl/src/core/lv_obj_draw.c ****     draw_dsc->round_end = draw_dsc->round_start;
 282:Drivers/lvgl/src/core/lv_obj_draw.c **** 
 283:Drivers/lvgl/src/core/lv_obj_draw.c ****     LV_PROFILER_DRAW_END;
 284:Drivers/lvgl/src/core/lv_obj_draw.c **** }
 285:Drivers/lvgl/src/core/lv_obj_draw.c **** 
 286:Drivers/lvgl/src/core/lv_obj_draw.c **** void lv_obj_init_draw_arc_dsc(lv_obj_t * obj, lv_part_t part, lv_draw_arc_dsc_t * draw_dsc)
 287:Drivers/lvgl/src/core/lv_obj_draw.c **** {
 288:Drivers/lvgl/src/core/lv_obj_draw.c ****     LV_PROFILER_DRAW_BEGIN;
 289:Drivers/lvgl/src/core/lv_obj_draw.c ****     draw_dsc->base.obj = obj;
 290:Drivers/lvgl/src/core/lv_obj_draw.c ****     draw_dsc->base.part = part;
 291:Drivers/lvgl/src/core/lv_obj_draw.c **** 
 292:Drivers/lvgl/src/core/lv_obj_draw.c ****     draw_dsc->width = lv_obj_get_style_arc_width(obj, part);
 293:Drivers/lvgl/src/core/lv_obj_draw.c ****     if(draw_dsc->width == 0) {
 294:Drivers/lvgl/src/core/lv_obj_draw.c ****         LV_PROFILER_DRAW_END;
 295:Drivers/lvgl/src/core/lv_obj_draw.c ****         return;
 296:Drivers/lvgl/src/core/lv_obj_draw.c ****     }
 297:Drivers/lvgl/src/core/lv_obj_draw.c **** 
 298:Drivers/lvgl/src/core/lv_obj_draw.c ****     draw_dsc->opa = lv_obj_get_style_arc_opa(obj, part);
 299:Drivers/lvgl/src/core/lv_obj_draw.c ****     if(draw_dsc->opa <= LV_OPA_MIN) {
 300:Drivers/lvgl/src/core/lv_obj_draw.c ****         LV_PROFILER_DRAW_END;
 301:Drivers/lvgl/src/core/lv_obj_draw.c ****         return;
 302:Drivers/lvgl/src/core/lv_obj_draw.c ****     }
 303:Drivers/lvgl/src/core/lv_obj_draw.c **** 
 304:Drivers/lvgl/src/core/lv_obj_draw.c ****     lv_opa_t opa = get_layer_opa(obj, part, &draw_dsc->base);
 305:Drivers/lvgl/src/core/lv_obj_draw.c ****     if(opa < LV_OPA_MAX) {
 306:Drivers/lvgl/src/core/lv_obj_draw.c ****         draw_dsc->opa = LV_OPA_MIX2(draw_dsc->opa, opa);
 307:Drivers/lvgl/src/core/lv_obj_draw.c ****     }
 308:Drivers/lvgl/src/core/lv_obj_draw.c ****     if(draw_dsc->opa <= LV_OPA_MIN) {
 309:Drivers/lvgl/src/core/lv_obj_draw.c ****         LV_PROFILER_DRAW_END;
 310:Drivers/lvgl/src/core/lv_obj_draw.c ****         return;
 311:Drivers/lvgl/src/core/lv_obj_draw.c ****     }
 312:Drivers/lvgl/src/core/lv_obj_draw.c **** 
 313:Drivers/lvgl/src/core/lv_obj_draw.c ****     lv_color_t arc_color = lv_obj_get_style_arc_color_filtered(obj, part);
 314:Drivers/lvgl/src/core/lv_obj_draw.c ****     draw_dsc->color = normal_apply_layer_recolor(obj, part, &draw_dsc->base, arc_color);
 315:Drivers/lvgl/src/core/lv_obj_draw.c ****     draw_dsc->img_src = lv_obj_get_style_arc_image_src(obj, part);
ARM GAS  /var/folders/qx/2_175_4n2s19vhvtspjhb3qh0000gn/T//cckZJDG0.s 			page 7


 316:Drivers/lvgl/src/core/lv_obj_draw.c **** 
 317:Drivers/lvgl/src/core/lv_obj_draw.c ****     draw_dsc->rounded = lv_obj_get_style_arc_rounded(obj, part);
 318:Drivers/lvgl/src/core/lv_obj_draw.c ****     LV_PROFILER_DRAW_END;
 319:Drivers/lvgl/src/core/lv_obj_draw.c **** }
 320:Drivers/lvgl/src/core/lv_obj_draw.c **** 
 321:Drivers/lvgl/src/core/lv_obj_draw.c **** void lv_obj_init_draw_blur_dsc(lv_obj_t * obj, lv_part_t part, lv_draw_blur_dsc_t * draw_dsc)
 322:Drivers/lvgl/src/core/lv_obj_draw.c **** {
 323:Drivers/lvgl/src/core/lv_obj_draw.c ****     LV_PROFILER_DRAW_BEGIN;
 324:Drivers/lvgl/src/core/lv_obj_draw.c ****     draw_dsc->base.obj = obj;
 325:Drivers/lvgl/src/core/lv_obj_draw.c ****     draw_dsc->base.part = part;
 326:Drivers/lvgl/src/core/lv_obj_draw.c **** 
 327:Drivers/lvgl/src/core/lv_obj_draw.c ****     draw_dsc->blur_radius = lv_obj_get_style_blur_radius(obj, part);
 328:Drivers/lvgl/src/core/lv_obj_draw.c ****     draw_dsc->quality = lv_obj_get_style_blur_quality(obj, part);
 329:Drivers/lvgl/src/core/lv_obj_draw.c **** 
 330:Drivers/lvgl/src/core/lv_obj_draw.c ****     /*Radius might be set earlier as it's already known*/
 331:Drivers/lvgl/src/core/lv_obj_draw.c ****     if(draw_dsc->corner_radius == 0) {
 332:Drivers/lvgl/src/core/lv_obj_draw.c ****         draw_dsc->corner_radius = lv_obj_get_style_radius(obj, part);
 333:Drivers/lvgl/src/core/lv_obj_draw.c ****     }
 334:Drivers/lvgl/src/core/lv_obj_draw.c **** 
 335:Drivers/lvgl/src/core/lv_obj_draw.c ****     LV_PROFILER_DRAW_END;
 336:Drivers/lvgl/src/core/lv_obj_draw.c **** }
 337:Drivers/lvgl/src/core/lv_obj_draw.c **** 
 338:Drivers/lvgl/src/core/lv_obj_draw.c **** 
 339:Drivers/lvgl/src/core/lv_obj_draw.c **** int32_t lv_obj_calculate_ext_draw_size(lv_obj_t * obj, lv_part_t part)
 340:Drivers/lvgl/src/core/lv_obj_draw.c **** {
 341:Drivers/lvgl/src/core/lv_obj_draw.c ****     LV_PROFILER_DRAW_BEGIN;
 342:Drivers/lvgl/src/core/lv_obj_draw.c ****     int32_t s = 0;
 343:Drivers/lvgl/src/core/lv_obj_draw.c **** 
 344:Drivers/lvgl/src/core/lv_obj_draw.c ****     int32_t sh_width = lv_obj_get_style_shadow_width(obj, part);
 345:Drivers/lvgl/src/core/lv_obj_draw.c ****     if(sh_width) {
 346:Drivers/lvgl/src/core/lv_obj_draw.c ****         lv_opa_t sh_opa = lv_obj_get_style_shadow_opa(obj, part);
 347:Drivers/lvgl/src/core/lv_obj_draw.c ****         if(sh_opa > LV_OPA_MIN) {
 348:Drivers/lvgl/src/core/lv_obj_draw.c ****             sh_width = sh_width / 2 + 1;    /*The blur adds only half width*/
 349:Drivers/lvgl/src/core/lv_obj_draw.c ****             sh_width += lv_obj_get_style_shadow_spread(obj, part);
 350:Drivers/lvgl/src/core/lv_obj_draw.c ****             int32_t sh_ofs_x = lv_obj_get_style_shadow_offset_x(obj, part);
 351:Drivers/lvgl/src/core/lv_obj_draw.c ****             int32_t sh_ofs_y = lv_obj_get_style_shadow_offset_y(obj, part);
 352:Drivers/lvgl/src/core/lv_obj_draw.c ****             sh_width += LV_MAX(LV_ABS(sh_ofs_x), LV_ABS(sh_ofs_y));
 353:Drivers/lvgl/src/core/lv_obj_draw.c ****             s = LV_MAX(s, sh_width);
 354:Drivers/lvgl/src/core/lv_obj_draw.c ****         }
 355:Drivers/lvgl/src/core/lv_obj_draw.c ****     }
 356:Drivers/lvgl/src/core/lv_obj_draw.c **** 
 357:Drivers/lvgl/src/core/lv_obj_draw.c ****     int32_t outline_width = lv_obj_get_style_outline_width(obj, part);
 358:Drivers/lvgl/src/core/lv_obj_draw.c ****     if(outline_width) {
 359:Drivers/lvgl/src/core/lv_obj_draw.c ****         lv_opa_t outline_opa = lv_obj_get_style_outline_opa(obj, part);
 360:Drivers/lvgl/src/core/lv_obj_draw.c ****         if(outline_opa > LV_OPA_MIN) {
 361:Drivers/lvgl/src/core/lv_obj_draw.c ****             int32_t outline_pad = lv_obj_get_style_outline_pad(obj, part);
 362:Drivers/lvgl/src/core/lv_obj_draw.c ****             s = LV_MAX(s, outline_pad + outline_width);
 363:Drivers/lvgl/src/core/lv_obj_draw.c ****         }
 364:Drivers/lvgl/src/core/lv_obj_draw.c ****     }
 365:Drivers/lvgl/src/core/lv_obj_draw.c **** 
 366:Drivers/lvgl/src/core/lv_obj_draw.c ****     int32_t w = lv_obj_get_style_transform_width(obj, part);
 367:Drivers/lvgl/src/core/lv_obj_draw.c ****     int32_t h = lv_obj_get_style_transform_height(obj, part);
 368:Drivers/lvgl/src/core/lv_obj_draw.c ****     int32_t wh = LV_MAX(w, h);
 369:Drivers/lvgl/src/core/lv_obj_draw.c ****     if(wh > 0) s += wh;
 370:Drivers/lvgl/src/core/lv_obj_draw.c **** 
 371:Drivers/lvgl/src/core/lv_obj_draw.c ****     LV_PROFILER_DRAW_END;
 372:Drivers/lvgl/src/core/lv_obj_draw.c ****     return s;
ARM GAS  /var/folders/qx/2_175_4n2s19vhvtspjhb3qh0000gn/T//cckZJDG0.s 			page 8


 373:Drivers/lvgl/src/core/lv_obj_draw.c **** }
 374:Drivers/lvgl/src/core/lv_obj_draw.c **** 
 375:Drivers/lvgl/src/core/lv_obj_draw.c **** void lv_obj_refresh_ext_draw_size(lv_obj_t * obj)
 376:Drivers/lvgl/src/core/lv_obj_draw.c **** {
 377:Drivers/lvgl/src/core/lv_obj_draw.c ****     LV_PROFILER_DRAW_BEGIN;
 378:Drivers/lvgl/src/core/lv_obj_draw.c ****     LV_ASSERT_OBJ(obj, MY_CLASS);
 379:Drivers/lvgl/src/core/lv_obj_draw.c **** 
 380:Drivers/lvgl/src/core/lv_obj_draw.c ****     int32_t s_old = lv_obj_get_ext_draw_size(obj);
 381:Drivers/lvgl/src/core/lv_obj_draw.c ****     int32_t s_new = 0;
 382:Drivers/lvgl/src/core/lv_obj_draw.c ****     lv_obj_send_event(obj, LV_EVENT_REFR_EXT_DRAW_SIZE, &s_new);
 383:Drivers/lvgl/src/core/lv_obj_draw.c **** 
 384:Drivers/lvgl/src/core/lv_obj_draw.c ****     /*Store the result if the special attrs already allocated*/
 385:Drivers/lvgl/src/core/lv_obj_draw.c ****     if(obj->spec_attr) {
 386:Drivers/lvgl/src/core/lv_obj_draw.c ****         obj->spec_attr->ext_draw_size = s_new;
 387:Drivers/lvgl/src/core/lv_obj_draw.c ****     }
 388:Drivers/lvgl/src/core/lv_obj_draw.c ****     /*Allocate spec. attrs. only if the result is not zero.
 389:Drivers/lvgl/src/core/lv_obj_draw.c ****      *Zero is the default value if the spec. attr. are not defined.*/
 390:Drivers/lvgl/src/core/lv_obj_draw.c ****     else if(s_new != 0) {
 391:Drivers/lvgl/src/core/lv_obj_draw.c ****         lv_obj_allocate_spec_attr(obj);
 392:Drivers/lvgl/src/core/lv_obj_draw.c ****         obj->spec_attr->ext_draw_size = s_new;
 393:Drivers/lvgl/src/core/lv_obj_draw.c ****     }
 394:Drivers/lvgl/src/core/lv_obj_draw.c **** 
 395:Drivers/lvgl/src/core/lv_obj_draw.c ****     if(s_new != s_old) lv_obj_invalidate(obj);
 396:Drivers/lvgl/src/core/lv_obj_draw.c ****     LV_PROFILER_DRAW_END;
 397:Drivers/lvgl/src/core/lv_obj_draw.c **** }
 398:Drivers/lvgl/src/core/lv_obj_draw.c **** 
 399:Drivers/lvgl/src/core/lv_obj_draw.c **** int32_t lv_obj_get_ext_draw_size(const lv_obj_t * obj)
 400:Drivers/lvgl/src/core/lv_obj_draw.c **** {
 401:Drivers/lvgl/src/core/lv_obj_draw.c ****     if(obj->spec_attr) return obj->spec_attr->ext_draw_size;
 402:Drivers/lvgl/src/core/lv_obj_draw.c ****     else return 0;
 403:Drivers/lvgl/src/core/lv_obj_draw.c **** }
 404:Drivers/lvgl/src/core/lv_obj_draw.c **** 
 405:Drivers/lvgl/src/core/lv_obj_draw.c **** lv_layer_type_t lv_obj_get_layer_type(const lv_obj_t * obj)
 406:Drivers/lvgl/src/core/lv_obj_draw.c **** {
 407:Drivers/lvgl/src/core/lv_obj_draw.c **** 
 408:Drivers/lvgl/src/core/lv_obj_draw.c ****     if(obj->spec_attr) return (lv_layer_type_t)obj->spec_attr->layer_type;
 409:Drivers/lvgl/src/core/lv_obj_draw.c ****     else return LV_LAYER_TYPE_NONE;
 410:Drivers/lvgl/src/core/lv_obj_draw.c **** }
 411:Drivers/lvgl/src/core/lv_obj_draw.c **** 
 412:Drivers/lvgl/src/core/lv_obj_draw.c **** /**********************
 413:Drivers/lvgl/src/core/lv_obj_draw.c ****  *   STATIC FUNCTIONS
 414:Drivers/lvgl/src/core/lv_obj_draw.c ****  **********************/
 415:Drivers/lvgl/src/core/lv_obj_draw.c **** 
 416:Drivers/lvgl/src/core/lv_obj_draw.c **** static inline lv_opa_t get_layer_opa(const lv_obj_t * obj, lv_part_t part, const lv_draw_dsc_base_t
 417:Drivers/lvgl/src/core/lv_obj_draw.c **** {
  29              		.loc 1 417 1 view -0
  30              		.cfi_startproc
  31              		@ args = 0, pretend = 0, frame = 8
  32              		@ frame_needed = 0, uses_anonymous_args = 0
  33              		.loc 1 417 1 is_stmt 0 view .LVU1
  34 0000 10B5     		push	{r4, lr}
  35              	.LCFI0:
  36              		.cfi_def_cfa_offset 8
  37              		.cfi_offset 4, -8
  38              		.cfi_offset 14, -4
  39 0002 82B0     		sub	sp, sp, #8
  40              	.LCFI1:
ARM GAS  /var/folders/qx/2_175_4n2s19vhvtspjhb3qh0000gn/T//cckZJDG0.s 			page 9


  41              		.cfi_def_cfa_offset 16
 418:Drivers/lvgl/src/core/lv_obj_draw.c ****     if(base_dsc->layer) {
  42              		.loc 1 418 5 is_stmt 1 view .LVU2
  43              		.loc 1 418 16 is_stmt 0 view .LVU3
  44 0004 1369     		ldr	r3, [r2, #16]
  45              		.loc 1 418 7 view .LVU4
  46 0006 7BB1     		cbz	r3, .L2
 419:Drivers/lvgl/src/core/lv_obj_draw.c ****         /* Accessing the layer opa directly is faster than using get style opa recursive */
 420:Drivers/lvgl/src/core/lv_obj_draw.c ****         if(part == LV_PART_MAIN) {
  47              		.loc 1 420 9 is_stmt 1 view .LVU5
  48              		.loc 1 420 11 is_stmt 0 view .LVU6
  49 0008 19B9     		cbnz	r1, .L3
 421:Drivers/lvgl/src/core/lv_obj_draw.c ****             return base_dsc->layer->opa;
  50              		.loc 1 421 13 is_stmt 1 view .LVU7
  51              		.loc 1 421 35 is_stmt 0 view .LVU8
  52 000a 93F84E00 		ldrb	r0, [r3, #78]	@ zero_extendqisi2
  53              	.LVL1:
  54              	.L4:
 422:Drivers/lvgl/src/core/lv_obj_draw.c ****         }
 423:Drivers/lvgl/src/core/lv_obj_draw.c **** 
 424:Drivers/lvgl/src/core/lv_obj_draw.c ****         return LV_OPA_MIX2(base_dsc->layer->opa, lv_obj_get_style_opa(obj, part));
 425:Drivers/lvgl/src/core/lv_obj_draw.c ****     }
 426:Drivers/lvgl/src/core/lv_obj_draw.c **** 
 427:Drivers/lvgl/src/core/lv_obj_draw.c ****     /* fallback to old recursive style opa */
 428:Drivers/lvgl/src/core/lv_obj_draw.c ****     return lv_obj_get_style_opa_recursive(obj, part);
 429:Drivers/lvgl/src/core/lv_obj_draw.c **** }
  55              		.loc 1 429 1 view .LVU9
  56 000e 02B0     		add	sp, sp, #8
  57              	.LCFI2:
  58              		.cfi_remember_state
  59              		.cfi_def_cfa_offset 8
  60              		@ sp needed
  61 0010 10BD     		pop	{r4, pc}
  62              	.LVL2:
  63              	.L3:
  64              	.LCFI3:
  65              		.cfi_restore_state
 424:Drivers/lvgl/src/core/lv_obj_draw.c ****     }
  66              		.loc 1 424 9 is_stmt 1 view .LVU10
 424:Drivers/lvgl/src/core/lv_obj_draw.c ****     }
  67              		.loc 1 424 16 is_stmt 0 view .LVU11
  68 0012 93F84E40 		ldrb	r4, [r3, #78]	@ zero_extendqisi2
  69              	.LVL3:
  70              	.LBB129:
  71              	.LBI129:
  72              		.file 2 "Drivers/lvgl/src/core/lv_obj_style_gen.h"
   1:Drivers/lvgl/src/core/lv_obj_style_gen.h **** 
   2:Drivers/lvgl/src/core/lv_obj_style_gen.h **** /*
   3:Drivers/lvgl/src/core/lv_obj_style_gen.h ****  **********************************************************************
   4:Drivers/lvgl/src/core/lv_obj_style_gen.h ****  *                            DO NOT EDIT
   5:Drivers/lvgl/src/core/lv_obj_style_gen.h ****  * This file is automatically generated by "style_api_gen.py"
   6:Drivers/lvgl/src/core/lv_obj_style_gen.h ****  **********************************************************************
   7:Drivers/lvgl/src/core/lv_obj_style_gen.h ****  */
   8:Drivers/lvgl/src/core/lv_obj_style_gen.h **** 
   9:Drivers/lvgl/src/core/lv_obj_style_gen.h **** 
  10:Drivers/lvgl/src/core/lv_obj_style_gen.h **** #ifndef LV_OBJ_STYLE_GEN_H
  11:Drivers/lvgl/src/core/lv_obj_style_gen.h **** #define LV_OBJ_STYLE_GEN_H
ARM GAS  /var/folders/qx/2_175_4n2s19vhvtspjhb3qh0000gn/T//cckZJDG0.s 			page 10


  12:Drivers/lvgl/src/core/lv_obj_style_gen.h **** 
  13:Drivers/lvgl/src/core/lv_obj_style_gen.h **** #ifdef __cplusplus
  14:Drivers/lvgl/src/core/lv_obj_style_gen.h **** extern "C" {
  15:Drivers/lvgl/src/core/lv_obj_style_gen.h **** #endif
  16:Drivers/lvgl/src/core/lv_obj_style_gen.h **** 
  17:Drivers/lvgl/src/core/lv_obj_style_gen.h **** #include "../misc/lv_area.h"
  18:Drivers/lvgl/src/core/lv_obj_style_gen.h **** #include "../misc/lv_style.h"
  19:Drivers/lvgl/src/core/lv_obj_style_gen.h **** #include "../core/lv_obj_style.h"
  20:Drivers/lvgl/src/core/lv_obj_style_gen.h **** #include "../misc/lv_types.h"
  21:Drivers/lvgl/src/core/lv_obj_style_gen.h **** 
  22:Drivers/lvgl/src/core/lv_obj_style_gen.h **** static inline int32_t lv_obj_get_style_width(const lv_obj_t * obj, lv_part_t part)
  23:Drivers/lvgl/src/core/lv_obj_style_gen.h **** {
  24:Drivers/lvgl/src/core/lv_obj_style_gen.h ****     lv_style_value_t v = lv_obj_get_style_prop(obj, part, LV_STYLE_WIDTH);
  25:Drivers/lvgl/src/core/lv_obj_style_gen.h ****     return (int32_t)v.num;
  26:Drivers/lvgl/src/core/lv_obj_style_gen.h **** }
  27:Drivers/lvgl/src/core/lv_obj_style_gen.h **** 
  28:Drivers/lvgl/src/core/lv_obj_style_gen.h **** static inline int32_t lv_obj_get_style_min_width(const lv_obj_t * obj, lv_part_t part)
  29:Drivers/lvgl/src/core/lv_obj_style_gen.h **** {
  30:Drivers/lvgl/src/core/lv_obj_style_gen.h ****     lv_style_value_t v = lv_obj_get_style_prop(obj, part, LV_STYLE_MIN_WIDTH);
  31:Drivers/lvgl/src/core/lv_obj_style_gen.h ****     return (int32_t)v.num;
  32:Drivers/lvgl/src/core/lv_obj_style_gen.h **** }
  33:Drivers/lvgl/src/core/lv_obj_style_gen.h **** 
  34:Drivers/lvgl/src/core/lv_obj_style_gen.h **** static inline int32_t lv_obj_get_style_max_width(const lv_obj_t * obj, lv_part_t part)
  35:Drivers/lvgl/src/core/lv_obj_style_gen.h **** {
  36:Drivers/lvgl/src/core/lv_obj_style_gen.h ****     lv_style_value_t v = lv_obj_get_style_prop(obj, part, LV_STYLE_MAX_WIDTH);
  37:Drivers/lvgl/src/core/lv_obj_style_gen.h ****     return (int32_t)v.num;
  38:Drivers/lvgl/src/core/lv_obj_style_gen.h **** }
  39:Drivers/lvgl/src/core/lv_obj_style_gen.h **** 
  40:Drivers/lvgl/src/core/lv_obj_style_gen.h **** static inline int32_t lv_obj_get_style_height(const lv_obj_t * obj, lv_part_t part)
  41:Drivers/lvgl/src/core/lv_obj_style_gen.h **** {
  42:Drivers/lvgl/src/core/lv_obj_style_gen.h ****     lv_style_value_t v = lv_obj_get_style_prop(obj, part, LV_STYLE_HEIGHT);
  43:Drivers/lvgl/src/core/lv_obj_style_gen.h ****     return (int32_t)v.num;
  44:Drivers/lvgl/src/core/lv_obj_style_gen.h **** }
  45:Drivers/lvgl/src/core/lv_obj_style_gen.h **** 
  46:Drivers/lvgl/src/core/lv_obj_style_gen.h **** static inline int32_t lv_obj_get_style_min_height(const lv_obj_t * obj, lv_part_t part)
  47:Drivers/lvgl/src/core/lv_obj_style_gen.h **** {
  48:Drivers/lvgl/src/core/lv_obj_style_gen.h ****     lv_style_value_t v = lv_obj_get_style_prop(obj, part, LV_STYLE_MIN_HEIGHT);
  49:Drivers/lvgl/src/core/lv_obj_style_gen.h ****     return (int32_t)v.num;
  50:Drivers/lvgl/src/core/lv_obj_style_gen.h **** }
  51:Drivers/lvgl/src/core/lv_obj_style_gen.h **** 
  52:Drivers/lvgl/src/core/lv_obj_style_gen.h **** static inline int32_t lv_obj_get_style_max_height(const lv_obj_t * obj, lv_part_t part)
  53:Drivers/lvgl/src/core/lv_obj_style_gen.h **** {
  54:Drivers/lvgl/src/core/lv_obj_style_gen.h ****     lv_style_value_t v = lv_obj_get_style_prop(obj, part, LV_STYLE_MAX_HEIGHT);
  55:Drivers/lvgl/src/core/lv_obj_style_gen.h ****     return (int32_t)v.num;
  56:Drivers/lvgl/src/core/lv_obj_style_gen.h **** }
  57:Drivers/lvgl/src/core/lv_obj_style_gen.h **** 
  58:Drivers/lvgl/src/core/lv_obj_style_gen.h **** static inline int32_t lv_obj_get_style_length(const lv_obj_t * obj, lv_part_t part)
  59:Drivers/lvgl/src/core/lv_obj_style_gen.h **** {
  60:Drivers/lvgl/src/core/lv_obj_style_gen.h ****     lv_style_value_t v = lv_obj_get_style_prop(obj, part, LV_STYLE_LENGTH);
  61:Drivers/lvgl/src/core/lv_obj_style_gen.h ****     return (int32_t)v.num;
  62:Drivers/lvgl/src/core/lv_obj_style_gen.h **** }
  63:Drivers/lvgl/src/core/lv_obj_style_gen.h **** 
  64:Drivers/lvgl/src/core/lv_obj_style_gen.h **** static inline int32_t lv_obj_get_style_x(const lv_obj_t * obj, lv_part_t part)
  65:Drivers/lvgl/src/core/lv_obj_style_gen.h **** {
  66:Drivers/lvgl/src/core/lv_obj_style_gen.h ****     lv_style_value_t v = lv_obj_get_style_prop(obj, part, LV_STYLE_X);
  67:Drivers/lvgl/src/core/lv_obj_style_gen.h ****     return (int32_t)v.num;
  68:Drivers/lvgl/src/core/lv_obj_style_gen.h **** }
ARM GAS  /var/folders/qx/2_175_4n2s19vhvtspjhb3qh0000gn/T//cckZJDG0.s 			page 11


  69:Drivers/lvgl/src/core/lv_obj_style_gen.h **** 
  70:Drivers/lvgl/src/core/lv_obj_style_gen.h **** static inline int32_t lv_obj_get_style_y(const lv_obj_t * obj, lv_part_t part)
  71:Drivers/lvgl/src/core/lv_obj_style_gen.h **** {
  72:Drivers/lvgl/src/core/lv_obj_style_gen.h ****     lv_style_value_t v = lv_obj_get_style_prop(obj, part, LV_STYLE_Y);
  73:Drivers/lvgl/src/core/lv_obj_style_gen.h ****     return (int32_t)v.num;
  74:Drivers/lvgl/src/core/lv_obj_style_gen.h **** }
  75:Drivers/lvgl/src/core/lv_obj_style_gen.h **** 
  76:Drivers/lvgl/src/core/lv_obj_style_gen.h **** static inline lv_align_t lv_obj_get_style_align(const lv_obj_t * obj, lv_part_t part)
  77:Drivers/lvgl/src/core/lv_obj_style_gen.h **** {
  78:Drivers/lvgl/src/core/lv_obj_style_gen.h ****     lv_style_value_t v = lv_obj_get_style_prop(obj, part, LV_STYLE_ALIGN);
  79:Drivers/lvgl/src/core/lv_obj_style_gen.h ****     return (lv_align_t)v.num;
  80:Drivers/lvgl/src/core/lv_obj_style_gen.h **** }
  81:Drivers/lvgl/src/core/lv_obj_style_gen.h **** 
  82:Drivers/lvgl/src/core/lv_obj_style_gen.h **** static inline int32_t lv_obj_get_style_transform_width(const lv_obj_t * obj, lv_part_t part)
  83:Drivers/lvgl/src/core/lv_obj_style_gen.h **** {
  84:Drivers/lvgl/src/core/lv_obj_style_gen.h ****     lv_style_value_t v = lv_obj_get_style_prop(obj, part, LV_STYLE_TRANSFORM_WIDTH);
  85:Drivers/lvgl/src/core/lv_obj_style_gen.h ****     return (int32_t)v.num;
  86:Drivers/lvgl/src/core/lv_obj_style_gen.h **** }
  87:Drivers/lvgl/src/core/lv_obj_style_gen.h **** 
  88:Drivers/lvgl/src/core/lv_obj_style_gen.h **** static inline int32_t lv_obj_get_style_transform_height(const lv_obj_t * obj, lv_part_t part)
  89:Drivers/lvgl/src/core/lv_obj_style_gen.h **** {
  90:Drivers/lvgl/src/core/lv_obj_style_gen.h ****     lv_style_value_t v = lv_obj_get_style_prop(obj, part, LV_STYLE_TRANSFORM_HEIGHT);
  91:Drivers/lvgl/src/core/lv_obj_style_gen.h ****     return (int32_t)v.num;
  92:Drivers/lvgl/src/core/lv_obj_style_gen.h **** }
  93:Drivers/lvgl/src/core/lv_obj_style_gen.h **** 
  94:Drivers/lvgl/src/core/lv_obj_style_gen.h **** static inline int32_t lv_obj_get_style_translate_x(const lv_obj_t * obj, lv_part_t part)
  95:Drivers/lvgl/src/core/lv_obj_style_gen.h **** {
  96:Drivers/lvgl/src/core/lv_obj_style_gen.h ****     lv_style_value_t v = lv_obj_get_style_prop(obj, part, LV_STYLE_TRANSLATE_X);
  97:Drivers/lvgl/src/core/lv_obj_style_gen.h ****     return (int32_t)v.num;
  98:Drivers/lvgl/src/core/lv_obj_style_gen.h **** }
  99:Drivers/lvgl/src/core/lv_obj_style_gen.h **** 
 100:Drivers/lvgl/src/core/lv_obj_style_gen.h **** static inline int32_t lv_obj_get_style_translate_y(const lv_obj_t * obj, lv_part_t part)
 101:Drivers/lvgl/src/core/lv_obj_style_gen.h **** {
 102:Drivers/lvgl/src/core/lv_obj_style_gen.h ****     lv_style_value_t v = lv_obj_get_style_prop(obj, part, LV_STYLE_TRANSLATE_Y);
 103:Drivers/lvgl/src/core/lv_obj_style_gen.h ****     return (int32_t)v.num;
 104:Drivers/lvgl/src/core/lv_obj_style_gen.h **** }
 105:Drivers/lvgl/src/core/lv_obj_style_gen.h **** 
 106:Drivers/lvgl/src/core/lv_obj_style_gen.h **** static inline int32_t lv_obj_get_style_translate_radial(const lv_obj_t * obj, lv_part_t part)
 107:Drivers/lvgl/src/core/lv_obj_style_gen.h **** {
 108:Drivers/lvgl/src/core/lv_obj_style_gen.h ****     lv_style_value_t v = lv_obj_get_style_prop(obj, part, LV_STYLE_TRANSLATE_RADIAL);
 109:Drivers/lvgl/src/core/lv_obj_style_gen.h ****     return (int32_t)v.num;
 110:Drivers/lvgl/src/core/lv_obj_style_gen.h **** }
 111:Drivers/lvgl/src/core/lv_obj_style_gen.h **** 
 112:Drivers/lvgl/src/core/lv_obj_style_gen.h **** static inline int32_t lv_obj_get_style_transform_scale_x(const lv_obj_t * obj, lv_part_t part)
 113:Drivers/lvgl/src/core/lv_obj_style_gen.h **** {
 114:Drivers/lvgl/src/core/lv_obj_style_gen.h ****     lv_style_value_t v = lv_obj_get_style_prop(obj, part, LV_STYLE_TRANSFORM_SCALE_X);
 115:Drivers/lvgl/src/core/lv_obj_style_gen.h ****     return (int32_t)v.num;
 116:Drivers/lvgl/src/core/lv_obj_style_gen.h **** }
 117:Drivers/lvgl/src/core/lv_obj_style_gen.h **** 
 118:Drivers/lvgl/src/core/lv_obj_style_gen.h **** static inline int32_t lv_obj_get_style_transform_scale_y(const lv_obj_t * obj, lv_part_t part)
 119:Drivers/lvgl/src/core/lv_obj_style_gen.h **** {
 120:Drivers/lvgl/src/core/lv_obj_style_gen.h ****     lv_style_value_t v = lv_obj_get_style_prop(obj, part, LV_STYLE_TRANSFORM_SCALE_Y);
 121:Drivers/lvgl/src/core/lv_obj_style_gen.h ****     return (int32_t)v.num;
 122:Drivers/lvgl/src/core/lv_obj_style_gen.h **** }
 123:Drivers/lvgl/src/core/lv_obj_style_gen.h **** 
 124:Drivers/lvgl/src/core/lv_obj_style_gen.h **** static inline int32_t lv_obj_get_style_transform_rotation(const lv_obj_t * obj, lv_part_t part)
 125:Drivers/lvgl/src/core/lv_obj_style_gen.h **** {
ARM GAS  /var/folders/qx/2_175_4n2s19vhvtspjhb3qh0000gn/T//cckZJDG0.s 			page 12


 126:Drivers/lvgl/src/core/lv_obj_style_gen.h ****     lv_style_value_t v = lv_obj_get_style_prop(obj, part, LV_STYLE_TRANSFORM_ROTATION);
 127:Drivers/lvgl/src/core/lv_obj_style_gen.h ****     return (int32_t)v.num;
 128:Drivers/lvgl/src/core/lv_obj_style_gen.h **** }
 129:Drivers/lvgl/src/core/lv_obj_style_gen.h **** 
 130:Drivers/lvgl/src/core/lv_obj_style_gen.h **** static inline int32_t lv_obj_get_style_transform_pivot_x(const lv_obj_t * obj, lv_part_t part)
 131:Drivers/lvgl/src/core/lv_obj_style_gen.h **** {
 132:Drivers/lvgl/src/core/lv_obj_style_gen.h ****     lv_style_value_t v = lv_obj_get_style_prop(obj, part, LV_STYLE_TRANSFORM_PIVOT_X);
 133:Drivers/lvgl/src/core/lv_obj_style_gen.h ****     return (int32_t)v.num;
 134:Drivers/lvgl/src/core/lv_obj_style_gen.h **** }
 135:Drivers/lvgl/src/core/lv_obj_style_gen.h **** 
 136:Drivers/lvgl/src/core/lv_obj_style_gen.h **** static inline int32_t lv_obj_get_style_transform_pivot_y(const lv_obj_t * obj, lv_part_t part)
 137:Drivers/lvgl/src/core/lv_obj_style_gen.h **** {
 138:Drivers/lvgl/src/core/lv_obj_style_gen.h ****     lv_style_value_t v = lv_obj_get_style_prop(obj, part, LV_STYLE_TRANSFORM_PIVOT_Y);
 139:Drivers/lvgl/src/core/lv_obj_style_gen.h ****     return (int32_t)v.num;
 140:Drivers/lvgl/src/core/lv_obj_style_gen.h **** }
 141:Drivers/lvgl/src/core/lv_obj_style_gen.h **** 
 142:Drivers/lvgl/src/core/lv_obj_style_gen.h **** static inline int32_t lv_obj_get_style_transform_skew_x(const lv_obj_t * obj, lv_part_t part)
 143:Drivers/lvgl/src/core/lv_obj_style_gen.h **** {
 144:Drivers/lvgl/src/core/lv_obj_style_gen.h ****     lv_style_value_t v = lv_obj_get_style_prop(obj, part, LV_STYLE_TRANSFORM_SKEW_X);
 145:Drivers/lvgl/src/core/lv_obj_style_gen.h ****     return (int32_t)v.num;
 146:Drivers/lvgl/src/core/lv_obj_style_gen.h **** }
 147:Drivers/lvgl/src/core/lv_obj_style_gen.h **** 
 148:Drivers/lvgl/src/core/lv_obj_style_gen.h **** static inline int32_t lv_obj_get_style_transform_skew_y(const lv_obj_t * obj, lv_part_t part)
 149:Drivers/lvgl/src/core/lv_obj_style_gen.h **** {
 150:Drivers/lvgl/src/core/lv_obj_style_gen.h ****     lv_style_value_t v = lv_obj_get_style_prop(obj, part, LV_STYLE_TRANSFORM_SKEW_Y);
 151:Drivers/lvgl/src/core/lv_obj_style_gen.h ****     return (int32_t)v.num;
 152:Drivers/lvgl/src/core/lv_obj_style_gen.h **** }
 153:Drivers/lvgl/src/core/lv_obj_style_gen.h **** 
 154:Drivers/lvgl/src/core/lv_obj_style_gen.h **** static inline int32_t lv_obj_get_style_pad_top(const lv_obj_t * obj, lv_part_t part)
 155:Drivers/lvgl/src/core/lv_obj_style_gen.h **** {
 156:Drivers/lvgl/src/core/lv_obj_style_gen.h ****     lv_style_value_t v = lv_obj_get_style_prop(obj, part, LV_STYLE_PAD_TOP);
 157:Drivers/lvgl/src/core/lv_obj_style_gen.h ****     return (int32_t)v.num;
 158:Drivers/lvgl/src/core/lv_obj_style_gen.h **** }
 159:Drivers/lvgl/src/core/lv_obj_style_gen.h **** 
 160:Drivers/lvgl/src/core/lv_obj_style_gen.h **** static inline int32_t lv_obj_get_style_pad_bottom(const lv_obj_t * obj, lv_part_t part)
 161:Drivers/lvgl/src/core/lv_obj_style_gen.h **** {
 162:Drivers/lvgl/src/core/lv_obj_style_gen.h ****     lv_style_value_t v = lv_obj_get_style_prop(obj, part, LV_STYLE_PAD_BOTTOM);
 163:Drivers/lvgl/src/core/lv_obj_style_gen.h ****     return (int32_t)v.num;
 164:Drivers/lvgl/src/core/lv_obj_style_gen.h **** }
 165:Drivers/lvgl/src/core/lv_obj_style_gen.h **** 
 166:Drivers/lvgl/src/core/lv_obj_style_gen.h **** static inline int32_t lv_obj_get_style_pad_left(const lv_obj_t * obj, lv_part_t part)
 167:Drivers/lvgl/src/core/lv_obj_style_gen.h **** {
 168:Drivers/lvgl/src/core/lv_obj_style_gen.h ****     lv_style_value_t v = lv_obj_get_style_prop(obj, part, LV_STYLE_PAD_LEFT);
 169:Drivers/lvgl/src/core/lv_obj_style_gen.h ****     return (int32_t)v.num;
 170:Drivers/lvgl/src/core/lv_obj_style_gen.h **** }
 171:Drivers/lvgl/src/core/lv_obj_style_gen.h **** 
 172:Drivers/lvgl/src/core/lv_obj_style_gen.h **** static inline int32_t lv_obj_get_style_pad_right(const lv_obj_t * obj, lv_part_t part)
 173:Drivers/lvgl/src/core/lv_obj_style_gen.h **** {
 174:Drivers/lvgl/src/core/lv_obj_style_gen.h ****     lv_style_value_t v = lv_obj_get_style_prop(obj, part, LV_STYLE_PAD_RIGHT);
 175:Drivers/lvgl/src/core/lv_obj_style_gen.h ****     return (int32_t)v.num;
 176:Drivers/lvgl/src/core/lv_obj_style_gen.h **** }
 177:Drivers/lvgl/src/core/lv_obj_style_gen.h **** 
 178:Drivers/lvgl/src/core/lv_obj_style_gen.h **** static inline int32_t lv_obj_get_style_pad_row(const lv_obj_t * obj, lv_part_t part)
 179:Drivers/lvgl/src/core/lv_obj_style_gen.h **** {
 180:Drivers/lvgl/src/core/lv_obj_style_gen.h ****     lv_style_value_t v = lv_obj_get_style_prop(obj, part, LV_STYLE_PAD_ROW);
 181:Drivers/lvgl/src/core/lv_obj_style_gen.h ****     return (int32_t)v.num;
 182:Drivers/lvgl/src/core/lv_obj_style_gen.h **** }
ARM GAS  /var/folders/qx/2_175_4n2s19vhvtspjhb3qh0000gn/T//cckZJDG0.s 			page 13


 183:Drivers/lvgl/src/core/lv_obj_style_gen.h **** 
 184:Drivers/lvgl/src/core/lv_obj_style_gen.h **** static inline int32_t lv_obj_get_style_pad_column(const lv_obj_t * obj, lv_part_t part)
 185:Drivers/lvgl/src/core/lv_obj_style_gen.h **** {
 186:Drivers/lvgl/src/core/lv_obj_style_gen.h ****     lv_style_value_t v = lv_obj_get_style_prop(obj, part, LV_STYLE_PAD_COLUMN);
 187:Drivers/lvgl/src/core/lv_obj_style_gen.h ****     return (int32_t)v.num;
 188:Drivers/lvgl/src/core/lv_obj_style_gen.h **** }
 189:Drivers/lvgl/src/core/lv_obj_style_gen.h **** 
 190:Drivers/lvgl/src/core/lv_obj_style_gen.h **** static inline int32_t lv_obj_get_style_pad_radial(const lv_obj_t * obj, lv_part_t part)
 191:Drivers/lvgl/src/core/lv_obj_style_gen.h **** {
 192:Drivers/lvgl/src/core/lv_obj_style_gen.h ****     lv_style_value_t v = lv_obj_get_style_prop(obj, part, LV_STYLE_PAD_RADIAL);
 193:Drivers/lvgl/src/core/lv_obj_style_gen.h ****     return (int32_t)v.num;
 194:Drivers/lvgl/src/core/lv_obj_style_gen.h **** }
 195:Drivers/lvgl/src/core/lv_obj_style_gen.h **** 
 196:Drivers/lvgl/src/core/lv_obj_style_gen.h **** static inline int32_t lv_obj_get_style_margin_top(const lv_obj_t * obj, lv_part_t part)
 197:Drivers/lvgl/src/core/lv_obj_style_gen.h **** {
 198:Drivers/lvgl/src/core/lv_obj_style_gen.h ****     lv_style_value_t v = lv_obj_get_style_prop(obj, part, LV_STYLE_MARGIN_TOP);
 199:Drivers/lvgl/src/core/lv_obj_style_gen.h ****     return (int32_t)v.num;
 200:Drivers/lvgl/src/core/lv_obj_style_gen.h **** }
 201:Drivers/lvgl/src/core/lv_obj_style_gen.h **** 
 202:Drivers/lvgl/src/core/lv_obj_style_gen.h **** static inline int32_t lv_obj_get_style_margin_bottom(const lv_obj_t * obj, lv_part_t part)
 203:Drivers/lvgl/src/core/lv_obj_style_gen.h **** {
 204:Drivers/lvgl/src/core/lv_obj_style_gen.h ****     lv_style_value_t v = lv_obj_get_style_prop(obj, part, LV_STYLE_MARGIN_BOTTOM);
 205:Drivers/lvgl/src/core/lv_obj_style_gen.h ****     return (int32_t)v.num;
 206:Drivers/lvgl/src/core/lv_obj_style_gen.h **** }
 207:Drivers/lvgl/src/core/lv_obj_style_gen.h **** 
 208:Drivers/lvgl/src/core/lv_obj_style_gen.h **** static inline int32_t lv_obj_get_style_margin_left(const lv_obj_t * obj, lv_part_t part)
 209:Drivers/lvgl/src/core/lv_obj_style_gen.h **** {
 210:Drivers/lvgl/src/core/lv_obj_style_gen.h ****     lv_style_value_t v = lv_obj_get_style_prop(obj, part, LV_STYLE_MARGIN_LEFT);
 211:Drivers/lvgl/src/core/lv_obj_style_gen.h ****     return (int32_t)v.num;
 212:Drivers/lvgl/src/core/lv_obj_style_gen.h **** }
 213:Drivers/lvgl/src/core/lv_obj_style_gen.h **** 
 214:Drivers/lvgl/src/core/lv_obj_style_gen.h **** static inline int32_t lv_obj_get_style_margin_right(const lv_obj_t * obj, lv_part_t part)
 215:Drivers/lvgl/src/core/lv_obj_style_gen.h **** {
 216:Drivers/lvgl/src/core/lv_obj_style_gen.h ****     lv_style_value_t v = lv_obj_get_style_prop(obj, part, LV_STYLE_MARGIN_RIGHT);
 217:Drivers/lvgl/src/core/lv_obj_style_gen.h ****     return (int32_t)v.num;
 218:Drivers/lvgl/src/core/lv_obj_style_gen.h **** }
 219:Drivers/lvgl/src/core/lv_obj_style_gen.h **** 
 220:Drivers/lvgl/src/core/lv_obj_style_gen.h **** static inline lv_color_t lv_obj_get_style_bg_color(const lv_obj_t * obj, lv_part_t part)
 221:Drivers/lvgl/src/core/lv_obj_style_gen.h **** {
 222:Drivers/lvgl/src/core/lv_obj_style_gen.h ****     lv_style_value_t v = lv_obj_get_style_prop(obj, part, LV_STYLE_BG_COLOR);
 223:Drivers/lvgl/src/core/lv_obj_style_gen.h ****     return v.color;
 224:Drivers/lvgl/src/core/lv_obj_style_gen.h **** }
 225:Drivers/lvgl/src/core/lv_obj_style_gen.h **** 
 226:Drivers/lvgl/src/core/lv_obj_style_gen.h **** static inline lv_color_t lv_obj_get_style_bg_color_filtered(const lv_obj_t * obj, lv_part_t part)
 227:Drivers/lvgl/src/core/lv_obj_style_gen.h **** {
 228:Drivers/lvgl/src/core/lv_obj_style_gen.h ****     lv_style_value_t v = lv_obj_style_apply_color_filter(obj, part, lv_obj_get_style_prop(obj, part
 229:Drivers/lvgl/src/core/lv_obj_style_gen.h ****     return v.color;
 230:Drivers/lvgl/src/core/lv_obj_style_gen.h **** }
 231:Drivers/lvgl/src/core/lv_obj_style_gen.h **** 
 232:Drivers/lvgl/src/core/lv_obj_style_gen.h **** static inline lv_opa_t lv_obj_get_style_bg_opa(const lv_obj_t * obj, lv_part_t part)
 233:Drivers/lvgl/src/core/lv_obj_style_gen.h **** {
 234:Drivers/lvgl/src/core/lv_obj_style_gen.h ****     lv_style_value_t v = lv_obj_get_style_prop(obj, part, LV_STYLE_BG_OPA);
 235:Drivers/lvgl/src/core/lv_obj_style_gen.h ****     return (lv_opa_t)v.num;
 236:Drivers/lvgl/src/core/lv_obj_style_gen.h **** }
 237:Drivers/lvgl/src/core/lv_obj_style_gen.h **** 
 238:Drivers/lvgl/src/core/lv_obj_style_gen.h **** static inline lv_color_t lv_obj_get_style_bg_grad_color(const lv_obj_t * obj, lv_part_t part)
 239:Drivers/lvgl/src/core/lv_obj_style_gen.h **** {
ARM GAS  /var/folders/qx/2_175_4n2s19vhvtspjhb3qh0000gn/T//cckZJDG0.s 			page 14


 240:Drivers/lvgl/src/core/lv_obj_style_gen.h ****     lv_style_value_t v = lv_obj_get_style_prop(obj, part, LV_STYLE_BG_GRAD_COLOR);
 241:Drivers/lvgl/src/core/lv_obj_style_gen.h ****     return v.color;
 242:Drivers/lvgl/src/core/lv_obj_style_gen.h **** }
 243:Drivers/lvgl/src/core/lv_obj_style_gen.h **** 
 244:Drivers/lvgl/src/core/lv_obj_style_gen.h **** static inline lv_color_t lv_obj_get_style_bg_grad_color_filtered(const lv_obj_t * obj, lv_part_t pa
 245:Drivers/lvgl/src/core/lv_obj_style_gen.h **** {
 246:Drivers/lvgl/src/core/lv_obj_style_gen.h ****     lv_style_value_t v = lv_obj_style_apply_color_filter(obj, part, lv_obj_get_style_prop(obj, part
 247:Drivers/lvgl/src/core/lv_obj_style_gen.h ****                                                                                           LV_STYLE_
 248:Drivers/lvgl/src/core/lv_obj_style_gen.h ****     return v.color;
 249:Drivers/lvgl/src/core/lv_obj_style_gen.h **** }
 250:Drivers/lvgl/src/core/lv_obj_style_gen.h **** 
 251:Drivers/lvgl/src/core/lv_obj_style_gen.h **** static inline lv_grad_dir_t lv_obj_get_style_bg_grad_dir(const lv_obj_t * obj, lv_part_t part)
 252:Drivers/lvgl/src/core/lv_obj_style_gen.h **** {
 253:Drivers/lvgl/src/core/lv_obj_style_gen.h ****     lv_style_value_t v = lv_obj_get_style_prop(obj, part, LV_STYLE_BG_GRAD_DIR);
 254:Drivers/lvgl/src/core/lv_obj_style_gen.h ****     return (lv_grad_dir_t)v.num;
 255:Drivers/lvgl/src/core/lv_obj_style_gen.h **** }
 256:Drivers/lvgl/src/core/lv_obj_style_gen.h **** 
 257:Drivers/lvgl/src/core/lv_obj_style_gen.h **** static inline int32_t lv_obj_get_style_bg_main_stop(const lv_obj_t * obj, lv_part_t part)
 258:Drivers/lvgl/src/core/lv_obj_style_gen.h **** {
 259:Drivers/lvgl/src/core/lv_obj_style_gen.h ****     lv_style_value_t v = lv_obj_get_style_prop(obj, part, LV_STYLE_BG_MAIN_STOP);
 260:Drivers/lvgl/src/core/lv_obj_style_gen.h ****     return (int32_t)v.num;
 261:Drivers/lvgl/src/core/lv_obj_style_gen.h **** }
 262:Drivers/lvgl/src/core/lv_obj_style_gen.h **** 
 263:Drivers/lvgl/src/core/lv_obj_style_gen.h **** static inline int32_t lv_obj_get_style_bg_grad_stop(const lv_obj_t * obj, lv_part_t part)
 264:Drivers/lvgl/src/core/lv_obj_style_gen.h **** {
 265:Drivers/lvgl/src/core/lv_obj_style_gen.h ****     lv_style_value_t v = lv_obj_get_style_prop(obj, part, LV_STYLE_BG_GRAD_STOP);
 266:Drivers/lvgl/src/core/lv_obj_style_gen.h ****     return (int32_t)v.num;
 267:Drivers/lvgl/src/core/lv_obj_style_gen.h **** }
 268:Drivers/lvgl/src/core/lv_obj_style_gen.h **** 
 269:Drivers/lvgl/src/core/lv_obj_style_gen.h **** static inline lv_opa_t lv_obj_get_style_bg_main_opa(const lv_obj_t * obj, lv_part_t part)
 270:Drivers/lvgl/src/core/lv_obj_style_gen.h **** {
 271:Drivers/lvgl/src/core/lv_obj_style_gen.h ****     lv_style_value_t v = lv_obj_get_style_prop(obj, part, LV_STYLE_BG_MAIN_OPA);
 272:Drivers/lvgl/src/core/lv_obj_style_gen.h ****     return (lv_opa_t)v.num;
 273:Drivers/lvgl/src/core/lv_obj_style_gen.h **** }
 274:Drivers/lvgl/src/core/lv_obj_style_gen.h **** 
 275:Drivers/lvgl/src/core/lv_obj_style_gen.h **** static inline lv_opa_t lv_obj_get_style_bg_grad_opa(const lv_obj_t * obj, lv_part_t part)
 276:Drivers/lvgl/src/core/lv_obj_style_gen.h **** {
 277:Drivers/lvgl/src/core/lv_obj_style_gen.h ****     lv_style_value_t v = lv_obj_get_style_prop(obj, part, LV_STYLE_BG_GRAD_OPA);
 278:Drivers/lvgl/src/core/lv_obj_style_gen.h ****     return (lv_opa_t)v.num;
 279:Drivers/lvgl/src/core/lv_obj_style_gen.h **** }
 280:Drivers/lvgl/src/core/lv_obj_style_gen.h **** 
 281:Drivers/lvgl/src/core/lv_obj_style_gen.h **** static inline const lv_grad_dsc_t * lv_obj_get_style_bg_grad(const lv_obj_t * obj, lv_part_t part)
 282:Drivers/lvgl/src/core/lv_obj_style_gen.h **** {
 283:Drivers/lvgl/src/core/lv_obj_style_gen.h ****     lv_style_value_t v = lv_obj_get_style_prop(obj, part, LV_STYLE_BG_GRAD);
 284:Drivers/lvgl/src/core/lv_obj_style_gen.h ****     return (const lv_grad_dsc_t *)v.ptr;
 285:Drivers/lvgl/src/core/lv_obj_style_gen.h **** }
 286:Drivers/lvgl/src/core/lv_obj_style_gen.h **** 
 287:Drivers/lvgl/src/core/lv_obj_style_gen.h **** static inline const void * lv_obj_get_style_bg_image_src(const lv_obj_t * obj, lv_part_t part)
 288:Drivers/lvgl/src/core/lv_obj_style_gen.h **** {
 289:Drivers/lvgl/src/core/lv_obj_style_gen.h ****     lv_style_value_t v = lv_obj_get_style_prop(obj, part, LV_STYLE_BG_IMAGE_SRC);
 290:Drivers/lvgl/src/core/lv_obj_style_gen.h ****     return (const void *)v.ptr;
 291:Drivers/lvgl/src/core/lv_obj_style_gen.h **** }
 292:Drivers/lvgl/src/core/lv_obj_style_gen.h **** 
 293:Drivers/lvgl/src/core/lv_obj_style_gen.h **** static inline lv_opa_t lv_obj_get_style_bg_image_opa(const lv_obj_t * obj, lv_part_t part)
 294:Drivers/lvgl/src/core/lv_obj_style_gen.h **** {
 295:Drivers/lvgl/src/core/lv_obj_style_gen.h ****     lv_style_value_t v = lv_obj_get_style_prop(obj, part, LV_STYLE_BG_IMAGE_OPA);
 296:Drivers/lvgl/src/core/lv_obj_style_gen.h ****     return (lv_opa_t)v.num;
ARM GAS  /var/folders/qx/2_175_4n2s19vhvtspjhb3qh0000gn/T//cckZJDG0.s 			page 15


 297:Drivers/lvgl/src/core/lv_obj_style_gen.h **** }
 298:Drivers/lvgl/src/core/lv_obj_style_gen.h **** 
 299:Drivers/lvgl/src/core/lv_obj_style_gen.h **** static inline lv_color_t lv_obj_get_style_bg_image_recolor(const lv_obj_t * obj, lv_part_t part)
 300:Drivers/lvgl/src/core/lv_obj_style_gen.h **** {
 301:Drivers/lvgl/src/core/lv_obj_style_gen.h ****     lv_style_value_t v = lv_obj_get_style_prop(obj, part, LV_STYLE_BG_IMAGE_RECOLOR);
 302:Drivers/lvgl/src/core/lv_obj_style_gen.h ****     return v.color;
 303:Drivers/lvgl/src/core/lv_obj_style_gen.h **** }
 304:Drivers/lvgl/src/core/lv_obj_style_gen.h **** 
 305:Drivers/lvgl/src/core/lv_obj_style_gen.h **** static inline lv_color_t lv_obj_get_style_bg_image_recolor_filtered(const lv_obj_t * obj, lv_part_t
 306:Drivers/lvgl/src/core/lv_obj_style_gen.h **** {
 307:Drivers/lvgl/src/core/lv_obj_style_gen.h ****     lv_style_value_t v = lv_obj_style_apply_color_filter(obj, part, lv_obj_get_style_prop(obj, part
 308:Drivers/lvgl/src/core/lv_obj_style_gen.h ****                                                                                           LV_STYLE_
 309:Drivers/lvgl/src/core/lv_obj_style_gen.h ****     return v.color;
 310:Drivers/lvgl/src/core/lv_obj_style_gen.h **** }
 311:Drivers/lvgl/src/core/lv_obj_style_gen.h **** 
 312:Drivers/lvgl/src/core/lv_obj_style_gen.h **** static inline lv_opa_t lv_obj_get_style_bg_image_recolor_opa(const lv_obj_t * obj, lv_part_t part)
 313:Drivers/lvgl/src/core/lv_obj_style_gen.h **** {
 314:Drivers/lvgl/src/core/lv_obj_style_gen.h ****     lv_style_value_t v = lv_obj_get_style_prop(obj, part, LV_STYLE_BG_IMAGE_RECOLOR_OPA);
 315:Drivers/lvgl/src/core/lv_obj_style_gen.h ****     return (lv_opa_t)v.num;
 316:Drivers/lvgl/src/core/lv_obj_style_gen.h **** }
 317:Drivers/lvgl/src/core/lv_obj_style_gen.h **** 
 318:Drivers/lvgl/src/core/lv_obj_style_gen.h **** static inline bool lv_obj_get_style_bg_image_tiled(const lv_obj_t * obj, lv_part_t part)
 319:Drivers/lvgl/src/core/lv_obj_style_gen.h **** {
 320:Drivers/lvgl/src/core/lv_obj_style_gen.h ****     lv_style_value_t v = lv_obj_get_style_prop(obj, part, LV_STYLE_BG_IMAGE_TILED);
 321:Drivers/lvgl/src/core/lv_obj_style_gen.h ****     return (bool)v.num;
 322:Drivers/lvgl/src/core/lv_obj_style_gen.h **** }
 323:Drivers/lvgl/src/core/lv_obj_style_gen.h **** 
 324:Drivers/lvgl/src/core/lv_obj_style_gen.h **** static inline lv_color_t lv_obj_get_style_border_color(const lv_obj_t * obj, lv_part_t part)
 325:Drivers/lvgl/src/core/lv_obj_style_gen.h **** {
 326:Drivers/lvgl/src/core/lv_obj_style_gen.h ****     lv_style_value_t v = lv_obj_get_style_prop(obj, part, LV_STYLE_BORDER_COLOR);
 327:Drivers/lvgl/src/core/lv_obj_style_gen.h ****     return v.color;
 328:Drivers/lvgl/src/core/lv_obj_style_gen.h **** }
 329:Drivers/lvgl/src/core/lv_obj_style_gen.h **** 
 330:Drivers/lvgl/src/core/lv_obj_style_gen.h **** static inline lv_color_t lv_obj_get_style_border_color_filtered(const lv_obj_t * obj, lv_part_t par
 331:Drivers/lvgl/src/core/lv_obj_style_gen.h **** {
 332:Drivers/lvgl/src/core/lv_obj_style_gen.h ****     lv_style_value_t v = lv_obj_style_apply_color_filter(obj, part, lv_obj_get_style_prop(obj, part
 333:Drivers/lvgl/src/core/lv_obj_style_gen.h ****                                                                                           LV_STYLE_
 334:Drivers/lvgl/src/core/lv_obj_style_gen.h ****     return v.color;
 335:Drivers/lvgl/src/core/lv_obj_style_gen.h **** }
 336:Drivers/lvgl/src/core/lv_obj_style_gen.h **** 
 337:Drivers/lvgl/src/core/lv_obj_style_gen.h **** static inline lv_opa_t lv_obj_get_style_border_opa(const lv_obj_t * obj, lv_part_t part)
 338:Drivers/lvgl/src/core/lv_obj_style_gen.h **** {
 339:Drivers/lvgl/src/core/lv_obj_style_gen.h ****     lv_style_value_t v = lv_obj_get_style_prop(obj, part, LV_STYLE_BORDER_OPA);
 340:Drivers/lvgl/src/core/lv_obj_style_gen.h ****     return (lv_opa_t)v.num;
 341:Drivers/lvgl/src/core/lv_obj_style_gen.h **** }
 342:Drivers/lvgl/src/core/lv_obj_style_gen.h **** 
 343:Drivers/lvgl/src/core/lv_obj_style_gen.h **** static inline int32_t lv_obj_get_style_border_width(const lv_obj_t * obj, lv_part_t part)
 344:Drivers/lvgl/src/core/lv_obj_style_gen.h **** {
 345:Drivers/lvgl/src/core/lv_obj_style_gen.h ****     lv_style_value_t v = lv_obj_get_style_prop(obj, part, LV_STYLE_BORDER_WIDTH);
 346:Drivers/lvgl/src/core/lv_obj_style_gen.h ****     return (int32_t)v.num;
 347:Drivers/lvgl/src/core/lv_obj_style_gen.h **** }
 348:Drivers/lvgl/src/core/lv_obj_style_gen.h **** 
 349:Drivers/lvgl/src/core/lv_obj_style_gen.h **** static inline lv_border_side_t lv_obj_get_style_border_side(const lv_obj_t * obj, lv_part_t part)
 350:Drivers/lvgl/src/core/lv_obj_style_gen.h **** {
 351:Drivers/lvgl/src/core/lv_obj_style_gen.h ****     lv_style_value_t v = lv_obj_get_style_prop(obj, part, LV_STYLE_BORDER_SIDE);
 352:Drivers/lvgl/src/core/lv_obj_style_gen.h ****     return (lv_border_side_t)v.num;
 353:Drivers/lvgl/src/core/lv_obj_style_gen.h **** }
ARM GAS  /var/folders/qx/2_175_4n2s19vhvtspjhb3qh0000gn/T//cckZJDG0.s 			page 16


 354:Drivers/lvgl/src/core/lv_obj_style_gen.h **** 
 355:Drivers/lvgl/src/core/lv_obj_style_gen.h **** static inline bool lv_obj_get_style_border_post(const lv_obj_t * obj, lv_part_t part)
 356:Drivers/lvgl/src/core/lv_obj_style_gen.h **** {
 357:Drivers/lvgl/src/core/lv_obj_style_gen.h ****     lv_style_value_t v = lv_obj_get_style_prop(obj, part, LV_STYLE_BORDER_POST);
 358:Drivers/lvgl/src/core/lv_obj_style_gen.h ****     return (bool)v.num;
 359:Drivers/lvgl/src/core/lv_obj_style_gen.h **** }
 360:Drivers/lvgl/src/core/lv_obj_style_gen.h **** 
 361:Drivers/lvgl/src/core/lv_obj_style_gen.h **** static inline int32_t lv_obj_get_style_outline_width(const lv_obj_t * obj, lv_part_t part)
 362:Drivers/lvgl/src/core/lv_obj_style_gen.h **** {
 363:Drivers/lvgl/src/core/lv_obj_style_gen.h ****     lv_style_value_t v = lv_obj_get_style_prop(obj, part, LV_STYLE_OUTLINE_WIDTH);
 364:Drivers/lvgl/src/core/lv_obj_style_gen.h ****     return (int32_t)v.num;
 365:Drivers/lvgl/src/core/lv_obj_style_gen.h **** }
 366:Drivers/lvgl/src/core/lv_obj_style_gen.h **** 
 367:Drivers/lvgl/src/core/lv_obj_style_gen.h **** static inline lv_color_t lv_obj_get_style_outline_color(const lv_obj_t * obj, lv_part_t part)
 368:Drivers/lvgl/src/core/lv_obj_style_gen.h **** {
 369:Drivers/lvgl/src/core/lv_obj_style_gen.h ****     lv_style_value_t v = lv_obj_get_style_prop(obj, part, LV_STYLE_OUTLINE_COLOR);
 370:Drivers/lvgl/src/core/lv_obj_style_gen.h ****     return v.color;
 371:Drivers/lvgl/src/core/lv_obj_style_gen.h **** }
 372:Drivers/lvgl/src/core/lv_obj_style_gen.h **** 
 373:Drivers/lvgl/src/core/lv_obj_style_gen.h **** static inline lv_color_t lv_obj_get_style_outline_color_filtered(const lv_obj_t * obj, lv_part_t pa
 374:Drivers/lvgl/src/core/lv_obj_style_gen.h **** {
 375:Drivers/lvgl/src/core/lv_obj_style_gen.h ****     lv_style_value_t v = lv_obj_style_apply_color_filter(obj, part, lv_obj_get_style_prop(obj, part
 376:Drivers/lvgl/src/core/lv_obj_style_gen.h ****                                                                                           LV_STYLE_
 377:Drivers/lvgl/src/core/lv_obj_style_gen.h ****     return v.color;
 378:Drivers/lvgl/src/core/lv_obj_style_gen.h **** }
 379:Drivers/lvgl/src/core/lv_obj_style_gen.h **** 
 380:Drivers/lvgl/src/core/lv_obj_style_gen.h **** static inline lv_opa_t lv_obj_get_style_outline_opa(const lv_obj_t * obj, lv_part_t part)
 381:Drivers/lvgl/src/core/lv_obj_style_gen.h **** {
 382:Drivers/lvgl/src/core/lv_obj_style_gen.h ****     lv_style_value_t v = lv_obj_get_style_prop(obj, part, LV_STYLE_OUTLINE_OPA);
 383:Drivers/lvgl/src/core/lv_obj_style_gen.h ****     return (lv_opa_t)v.num;
 384:Drivers/lvgl/src/core/lv_obj_style_gen.h **** }
 385:Drivers/lvgl/src/core/lv_obj_style_gen.h **** 
 386:Drivers/lvgl/src/core/lv_obj_style_gen.h **** static inline int32_t lv_obj_get_style_outline_pad(const lv_obj_t * obj, lv_part_t part)
 387:Drivers/lvgl/src/core/lv_obj_style_gen.h **** {
 388:Drivers/lvgl/src/core/lv_obj_style_gen.h ****     lv_style_value_t v = lv_obj_get_style_prop(obj, part, LV_STYLE_OUTLINE_PAD);
 389:Drivers/lvgl/src/core/lv_obj_style_gen.h ****     return (int32_t)v.num;
 390:Drivers/lvgl/src/core/lv_obj_style_gen.h **** }
 391:Drivers/lvgl/src/core/lv_obj_style_gen.h **** 
 392:Drivers/lvgl/src/core/lv_obj_style_gen.h **** static inline int32_t lv_obj_get_style_shadow_width(const lv_obj_t * obj, lv_part_t part)
 393:Drivers/lvgl/src/core/lv_obj_style_gen.h **** {
 394:Drivers/lvgl/src/core/lv_obj_style_gen.h ****     lv_style_value_t v = lv_obj_get_style_prop(obj, part, LV_STYLE_SHADOW_WIDTH);
 395:Drivers/lvgl/src/core/lv_obj_style_gen.h ****     return (int32_t)v.num;
 396:Drivers/lvgl/src/core/lv_obj_style_gen.h **** }
 397:Drivers/lvgl/src/core/lv_obj_style_gen.h **** 
 398:Drivers/lvgl/src/core/lv_obj_style_gen.h **** static inline int32_t lv_obj_get_style_shadow_offset_x(const lv_obj_t * obj, lv_part_t part)
 399:Drivers/lvgl/src/core/lv_obj_style_gen.h **** {
 400:Drivers/lvgl/src/core/lv_obj_style_gen.h ****     lv_style_value_t v = lv_obj_get_style_prop(obj, part, LV_STYLE_SHADOW_OFFSET_X);
 401:Drivers/lvgl/src/core/lv_obj_style_gen.h ****     return (int32_t)v.num;
 402:Drivers/lvgl/src/core/lv_obj_style_gen.h **** }
 403:Drivers/lvgl/src/core/lv_obj_style_gen.h **** 
 404:Drivers/lvgl/src/core/lv_obj_style_gen.h **** static inline int32_t lv_obj_get_style_shadow_offset_y(const lv_obj_t * obj, lv_part_t part)
 405:Drivers/lvgl/src/core/lv_obj_style_gen.h **** {
 406:Drivers/lvgl/src/core/lv_obj_style_gen.h ****     lv_style_value_t v = lv_obj_get_style_prop(obj, part, LV_STYLE_SHADOW_OFFSET_Y);
 407:Drivers/lvgl/src/core/lv_obj_style_gen.h ****     return (int32_t)v.num;
 408:Drivers/lvgl/src/core/lv_obj_style_gen.h **** }
 409:Drivers/lvgl/src/core/lv_obj_style_gen.h **** 
 410:Drivers/lvgl/src/core/lv_obj_style_gen.h **** static inline int32_t lv_obj_get_style_shadow_spread(const lv_obj_t * obj, lv_part_t part)
ARM GAS  /var/folders/qx/2_175_4n2s19vhvtspjhb3qh0000gn/T//cckZJDG0.s 			page 17


 411:Drivers/lvgl/src/core/lv_obj_style_gen.h **** {
 412:Drivers/lvgl/src/core/lv_obj_style_gen.h ****     lv_style_value_t v = lv_obj_get_style_prop(obj, part, LV_STYLE_SHADOW_SPREAD);
 413:Drivers/lvgl/src/core/lv_obj_style_gen.h ****     return (int32_t)v.num;
 414:Drivers/lvgl/src/core/lv_obj_style_gen.h **** }
 415:Drivers/lvgl/src/core/lv_obj_style_gen.h **** 
 416:Drivers/lvgl/src/core/lv_obj_style_gen.h **** static inline lv_color_t lv_obj_get_style_shadow_color(const lv_obj_t * obj, lv_part_t part)
 417:Drivers/lvgl/src/core/lv_obj_style_gen.h **** {
 418:Drivers/lvgl/src/core/lv_obj_style_gen.h ****     lv_style_value_t v = lv_obj_get_style_prop(obj, part, LV_STYLE_SHADOW_COLOR);
 419:Drivers/lvgl/src/core/lv_obj_style_gen.h ****     return v.color;
 420:Drivers/lvgl/src/core/lv_obj_style_gen.h **** }
 421:Drivers/lvgl/src/core/lv_obj_style_gen.h **** 
 422:Drivers/lvgl/src/core/lv_obj_style_gen.h **** static inline lv_color_t lv_obj_get_style_shadow_color_filtered(const lv_obj_t * obj, lv_part_t par
 423:Drivers/lvgl/src/core/lv_obj_style_gen.h **** {
 424:Drivers/lvgl/src/core/lv_obj_style_gen.h ****     lv_style_value_t v = lv_obj_style_apply_color_filter(obj, part, lv_obj_get_style_prop(obj, part
 425:Drivers/lvgl/src/core/lv_obj_style_gen.h ****                                                                                           LV_STYLE_
 426:Drivers/lvgl/src/core/lv_obj_style_gen.h ****     return v.color;
 427:Drivers/lvgl/src/core/lv_obj_style_gen.h **** }
 428:Drivers/lvgl/src/core/lv_obj_style_gen.h **** 
 429:Drivers/lvgl/src/core/lv_obj_style_gen.h **** static inline lv_opa_t lv_obj_get_style_shadow_opa(const lv_obj_t * obj, lv_part_t part)
 430:Drivers/lvgl/src/core/lv_obj_style_gen.h **** {
 431:Drivers/lvgl/src/core/lv_obj_style_gen.h ****     lv_style_value_t v = lv_obj_get_style_prop(obj, part, LV_STYLE_SHADOW_OPA);
 432:Drivers/lvgl/src/core/lv_obj_style_gen.h ****     return (lv_opa_t)v.num;
 433:Drivers/lvgl/src/core/lv_obj_style_gen.h **** }
 434:Drivers/lvgl/src/core/lv_obj_style_gen.h **** 
 435:Drivers/lvgl/src/core/lv_obj_style_gen.h **** static inline lv_opa_t lv_obj_get_style_image_opa(const lv_obj_t * obj, lv_part_t part)
 436:Drivers/lvgl/src/core/lv_obj_style_gen.h **** {
 437:Drivers/lvgl/src/core/lv_obj_style_gen.h ****     lv_style_value_t v = lv_obj_get_style_prop(obj, part, LV_STYLE_IMAGE_OPA);
 438:Drivers/lvgl/src/core/lv_obj_style_gen.h ****     return (lv_opa_t)v.num;
 439:Drivers/lvgl/src/core/lv_obj_style_gen.h **** }
 440:Drivers/lvgl/src/core/lv_obj_style_gen.h **** 
 441:Drivers/lvgl/src/core/lv_obj_style_gen.h **** static inline lv_color_t lv_obj_get_style_image_recolor(const lv_obj_t * obj, lv_part_t part)
 442:Drivers/lvgl/src/core/lv_obj_style_gen.h **** {
 443:Drivers/lvgl/src/core/lv_obj_style_gen.h ****     lv_style_value_t v = lv_obj_get_style_prop(obj, part, LV_STYLE_IMAGE_RECOLOR);
 444:Drivers/lvgl/src/core/lv_obj_style_gen.h ****     return v.color;
 445:Drivers/lvgl/src/core/lv_obj_style_gen.h **** }
 446:Drivers/lvgl/src/core/lv_obj_style_gen.h **** 
 447:Drivers/lvgl/src/core/lv_obj_style_gen.h **** static inline lv_color_t lv_obj_get_style_image_recolor_filtered(const lv_obj_t * obj, lv_part_t pa
 448:Drivers/lvgl/src/core/lv_obj_style_gen.h **** {
 449:Drivers/lvgl/src/core/lv_obj_style_gen.h ****     lv_style_value_t v = lv_obj_style_apply_color_filter(obj, part, lv_obj_get_style_prop(obj, part
 450:Drivers/lvgl/src/core/lv_obj_style_gen.h ****                                                                                           LV_STYLE_
 451:Drivers/lvgl/src/core/lv_obj_style_gen.h ****     return v.color;
 452:Drivers/lvgl/src/core/lv_obj_style_gen.h **** }
 453:Drivers/lvgl/src/core/lv_obj_style_gen.h **** 
 454:Drivers/lvgl/src/core/lv_obj_style_gen.h **** static inline lv_opa_t lv_obj_get_style_image_recolor_opa(const lv_obj_t * obj, lv_part_t part)
 455:Drivers/lvgl/src/core/lv_obj_style_gen.h **** {
 456:Drivers/lvgl/src/core/lv_obj_style_gen.h ****     lv_style_value_t v = lv_obj_get_style_prop(obj, part, LV_STYLE_IMAGE_RECOLOR_OPA);
 457:Drivers/lvgl/src/core/lv_obj_style_gen.h ****     return (lv_opa_t)v.num;
 458:Drivers/lvgl/src/core/lv_obj_style_gen.h **** }
 459:Drivers/lvgl/src/core/lv_obj_style_gen.h **** 
 460:Drivers/lvgl/src/core/lv_obj_style_gen.h **** static inline const lv_image_colorkey_t * lv_obj_get_style_image_colorkey(const lv_obj_t * obj, lv_
 461:Drivers/lvgl/src/core/lv_obj_style_gen.h **** {
 462:Drivers/lvgl/src/core/lv_obj_style_gen.h ****     lv_style_value_t v = lv_obj_get_style_prop(obj, part, LV_STYLE_IMAGE_COLORKEY);
 463:Drivers/lvgl/src/core/lv_obj_style_gen.h ****     return (const lv_image_colorkey_t *)v.ptr;
 464:Drivers/lvgl/src/core/lv_obj_style_gen.h **** }
 465:Drivers/lvgl/src/core/lv_obj_style_gen.h **** 
 466:Drivers/lvgl/src/core/lv_obj_style_gen.h **** static inline int32_t lv_obj_get_style_line_width(const lv_obj_t * obj, lv_part_t part)
 467:Drivers/lvgl/src/core/lv_obj_style_gen.h **** {
ARM GAS  /var/folders/qx/2_175_4n2s19vhvtspjhb3qh0000gn/T//cckZJDG0.s 			page 18


 468:Drivers/lvgl/src/core/lv_obj_style_gen.h ****     lv_style_value_t v = lv_obj_get_style_prop(obj, part, LV_STYLE_LINE_WIDTH);
 469:Drivers/lvgl/src/core/lv_obj_style_gen.h ****     return (int32_t)v.num;
 470:Drivers/lvgl/src/core/lv_obj_style_gen.h **** }
 471:Drivers/lvgl/src/core/lv_obj_style_gen.h **** 
 472:Drivers/lvgl/src/core/lv_obj_style_gen.h **** static inline int32_t lv_obj_get_style_line_dash_width(const lv_obj_t * obj, lv_part_t part)
 473:Drivers/lvgl/src/core/lv_obj_style_gen.h **** {
 474:Drivers/lvgl/src/core/lv_obj_style_gen.h ****     lv_style_value_t v = lv_obj_get_style_prop(obj, part, LV_STYLE_LINE_DASH_WIDTH);
 475:Drivers/lvgl/src/core/lv_obj_style_gen.h ****     return (int32_t)v.num;
 476:Drivers/lvgl/src/core/lv_obj_style_gen.h **** }
 477:Drivers/lvgl/src/core/lv_obj_style_gen.h **** 
 478:Drivers/lvgl/src/core/lv_obj_style_gen.h **** static inline int32_t lv_obj_get_style_line_dash_gap(const lv_obj_t * obj, lv_part_t part)
 479:Drivers/lvgl/src/core/lv_obj_style_gen.h **** {
 480:Drivers/lvgl/src/core/lv_obj_style_gen.h ****     lv_style_value_t v = lv_obj_get_style_prop(obj, part, LV_STYLE_LINE_DASH_GAP);
 481:Drivers/lvgl/src/core/lv_obj_style_gen.h ****     return (int32_t)v.num;
 482:Drivers/lvgl/src/core/lv_obj_style_gen.h **** }
 483:Drivers/lvgl/src/core/lv_obj_style_gen.h **** 
 484:Drivers/lvgl/src/core/lv_obj_style_gen.h **** static inline bool lv_obj_get_style_line_rounded(const lv_obj_t * obj, lv_part_t part)
 485:Drivers/lvgl/src/core/lv_obj_style_gen.h **** {
 486:Drivers/lvgl/src/core/lv_obj_style_gen.h ****     lv_style_value_t v = lv_obj_get_style_prop(obj, part, LV_STYLE_LINE_ROUNDED);
 487:Drivers/lvgl/src/core/lv_obj_style_gen.h ****     return (bool)v.num;
 488:Drivers/lvgl/src/core/lv_obj_style_gen.h **** }
 489:Drivers/lvgl/src/core/lv_obj_style_gen.h **** 
 490:Drivers/lvgl/src/core/lv_obj_style_gen.h **** static inline lv_color_t lv_obj_get_style_line_color(const lv_obj_t * obj, lv_part_t part)
 491:Drivers/lvgl/src/core/lv_obj_style_gen.h **** {
 492:Drivers/lvgl/src/core/lv_obj_style_gen.h ****     lv_style_value_t v = lv_obj_get_style_prop(obj, part, LV_STYLE_LINE_COLOR);
 493:Drivers/lvgl/src/core/lv_obj_style_gen.h ****     return v.color;
 494:Drivers/lvgl/src/core/lv_obj_style_gen.h **** }
 495:Drivers/lvgl/src/core/lv_obj_style_gen.h **** 
 496:Drivers/lvgl/src/core/lv_obj_style_gen.h **** static inline lv_color_t lv_obj_get_style_line_color_filtered(const lv_obj_t * obj, lv_part_t part)
 497:Drivers/lvgl/src/core/lv_obj_style_gen.h **** {
 498:Drivers/lvgl/src/core/lv_obj_style_gen.h ****     lv_style_value_t v = lv_obj_style_apply_color_filter(obj, part, lv_obj_get_style_prop(obj, part
 499:Drivers/lvgl/src/core/lv_obj_style_gen.h ****     return v.color;
 500:Drivers/lvgl/src/core/lv_obj_style_gen.h **** }
 501:Drivers/lvgl/src/core/lv_obj_style_gen.h **** 
 502:Drivers/lvgl/src/core/lv_obj_style_gen.h **** static inline lv_opa_t lv_obj_get_style_line_opa(const lv_obj_t * obj, lv_part_t part)
 503:Drivers/lvgl/src/core/lv_obj_style_gen.h **** {
 504:Drivers/lvgl/src/core/lv_obj_style_gen.h ****     lv_style_value_t v = lv_obj_get_style_prop(obj, part, LV_STYLE_LINE_OPA);
 505:Drivers/lvgl/src/core/lv_obj_style_gen.h ****     return (lv_opa_t)v.num;
 506:Drivers/lvgl/src/core/lv_obj_style_gen.h **** }
 507:Drivers/lvgl/src/core/lv_obj_style_gen.h **** 
 508:Drivers/lvgl/src/core/lv_obj_style_gen.h **** static inline int32_t lv_obj_get_style_arc_width(const lv_obj_t * obj, lv_part_t part)
 509:Drivers/lvgl/src/core/lv_obj_style_gen.h **** {
 510:Drivers/lvgl/src/core/lv_obj_style_gen.h ****     lv_style_value_t v = lv_obj_get_style_prop(obj, part, LV_STYLE_ARC_WIDTH);
 511:Drivers/lvgl/src/core/lv_obj_style_gen.h ****     return (int32_t)v.num;
 512:Drivers/lvgl/src/core/lv_obj_style_gen.h **** }
 513:Drivers/lvgl/src/core/lv_obj_style_gen.h **** 
 514:Drivers/lvgl/src/core/lv_obj_style_gen.h **** static inline bool lv_obj_get_style_arc_rounded(const lv_obj_t * obj, lv_part_t part)
 515:Drivers/lvgl/src/core/lv_obj_style_gen.h **** {
 516:Drivers/lvgl/src/core/lv_obj_style_gen.h ****     lv_style_value_t v = lv_obj_get_style_prop(obj, part, LV_STYLE_ARC_ROUNDED);
 517:Drivers/lvgl/src/core/lv_obj_style_gen.h ****     return (bool)v.num;
 518:Drivers/lvgl/src/core/lv_obj_style_gen.h **** }
 519:Drivers/lvgl/src/core/lv_obj_style_gen.h **** 
 520:Drivers/lvgl/src/core/lv_obj_style_gen.h **** static inline lv_color_t lv_obj_get_style_arc_color(const lv_obj_t * obj, lv_part_t part)
 521:Drivers/lvgl/src/core/lv_obj_style_gen.h **** {
 522:Drivers/lvgl/src/core/lv_obj_style_gen.h ****     lv_style_value_t v = lv_obj_get_style_prop(obj, part, LV_STYLE_ARC_COLOR);
 523:Drivers/lvgl/src/core/lv_obj_style_gen.h ****     return v.color;
 524:Drivers/lvgl/src/core/lv_obj_style_gen.h **** }
ARM GAS  /var/folders/qx/2_175_4n2s19vhvtspjhb3qh0000gn/T//cckZJDG0.s 			page 19


 525:Drivers/lvgl/src/core/lv_obj_style_gen.h **** 
 526:Drivers/lvgl/src/core/lv_obj_style_gen.h **** static inline lv_color_t lv_obj_get_style_arc_color_filtered(const lv_obj_t * obj, lv_part_t part)
 527:Drivers/lvgl/src/core/lv_obj_style_gen.h **** {
 528:Drivers/lvgl/src/core/lv_obj_style_gen.h ****     lv_style_value_t v = lv_obj_style_apply_color_filter(obj, part, lv_obj_get_style_prop(obj, part
 529:Drivers/lvgl/src/core/lv_obj_style_gen.h ****     return v.color;
 530:Drivers/lvgl/src/core/lv_obj_style_gen.h **** }
 531:Drivers/lvgl/src/core/lv_obj_style_gen.h **** 
 532:Drivers/lvgl/src/core/lv_obj_style_gen.h **** static inline lv_opa_t lv_obj_get_style_arc_opa(const lv_obj_t * obj, lv_part_t part)
 533:Drivers/lvgl/src/core/lv_obj_style_gen.h **** {
 534:Drivers/lvgl/src/core/lv_obj_style_gen.h ****     lv_style_value_t v = lv_obj_get_style_prop(obj, part, LV_STYLE_ARC_OPA);
 535:Drivers/lvgl/src/core/lv_obj_style_gen.h ****     return (lv_opa_t)v.num;
 536:Drivers/lvgl/src/core/lv_obj_style_gen.h **** }
 537:Drivers/lvgl/src/core/lv_obj_style_gen.h **** 
 538:Drivers/lvgl/src/core/lv_obj_style_gen.h **** static inline const void * lv_obj_get_style_arc_image_src(const lv_obj_t * obj, lv_part_t part)
 539:Drivers/lvgl/src/core/lv_obj_style_gen.h **** {
 540:Drivers/lvgl/src/core/lv_obj_style_gen.h ****     lv_style_value_t v = lv_obj_get_style_prop(obj, part, LV_STYLE_ARC_IMAGE_SRC);
 541:Drivers/lvgl/src/core/lv_obj_style_gen.h ****     return (const void *)v.ptr;
 542:Drivers/lvgl/src/core/lv_obj_style_gen.h **** }
 543:Drivers/lvgl/src/core/lv_obj_style_gen.h **** 
 544:Drivers/lvgl/src/core/lv_obj_style_gen.h **** static inline lv_color_t lv_obj_get_style_text_color(const lv_obj_t * obj, lv_part_t part)
 545:Drivers/lvgl/src/core/lv_obj_style_gen.h **** {
 546:Drivers/lvgl/src/core/lv_obj_style_gen.h ****     lv_style_value_t v = lv_obj_get_style_prop(obj, part, LV_STYLE_TEXT_COLOR);
 547:Drivers/lvgl/src/core/lv_obj_style_gen.h ****     return v.color;
 548:Drivers/lvgl/src/core/lv_obj_style_gen.h **** }
 549:Drivers/lvgl/src/core/lv_obj_style_gen.h **** 
 550:Drivers/lvgl/src/core/lv_obj_style_gen.h **** static inline lv_color_t lv_obj_get_style_text_color_filtered(const lv_obj_t * obj, lv_part_t part)
 551:Drivers/lvgl/src/core/lv_obj_style_gen.h **** {
 552:Drivers/lvgl/src/core/lv_obj_style_gen.h ****     lv_style_value_t v = lv_obj_style_apply_color_filter(obj, part, lv_obj_get_style_prop(obj, part
 553:Drivers/lvgl/src/core/lv_obj_style_gen.h ****     return v.color;
 554:Drivers/lvgl/src/core/lv_obj_style_gen.h **** }
 555:Drivers/lvgl/src/core/lv_obj_style_gen.h **** 
 556:Drivers/lvgl/src/core/lv_obj_style_gen.h **** static inline lv_opa_t lv_obj_get_style_text_opa(const lv_obj_t * obj, lv_part_t part)
 557:Drivers/lvgl/src/core/lv_obj_style_gen.h **** {
 558:Drivers/lvgl/src/core/lv_obj_style_gen.h ****     lv_style_value_t v = lv_obj_get_style_prop(obj, part, LV_STYLE_TEXT_OPA);
 559:Drivers/lvgl/src/core/lv_obj_style_gen.h ****     return (lv_opa_t)v.num;
 560:Drivers/lvgl/src/core/lv_obj_style_gen.h **** }
 561:Drivers/lvgl/src/core/lv_obj_style_gen.h **** 
 562:Drivers/lvgl/src/core/lv_obj_style_gen.h **** static inline const lv_font_t * lv_obj_get_style_text_font(const lv_obj_t * obj, lv_part_t part)
 563:Drivers/lvgl/src/core/lv_obj_style_gen.h **** {
 564:Drivers/lvgl/src/core/lv_obj_style_gen.h ****     lv_style_value_t v = lv_obj_get_style_prop(obj, part, LV_STYLE_TEXT_FONT);
 565:Drivers/lvgl/src/core/lv_obj_style_gen.h ****     return (const lv_font_t *)v.ptr;
 566:Drivers/lvgl/src/core/lv_obj_style_gen.h **** }
 567:Drivers/lvgl/src/core/lv_obj_style_gen.h **** 
 568:Drivers/lvgl/src/core/lv_obj_style_gen.h **** static inline int32_t lv_obj_get_style_text_letter_space(const lv_obj_t * obj, lv_part_t part)
 569:Drivers/lvgl/src/core/lv_obj_style_gen.h **** {
 570:Drivers/lvgl/src/core/lv_obj_style_gen.h ****     lv_style_value_t v = lv_obj_get_style_prop(obj, part, LV_STYLE_TEXT_LETTER_SPACE);
 571:Drivers/lvgl/src/core/lv_obj_style_gen.h ****     return (int32_t)v.num;
 572:Drivers/lvgl/src/core/lv_obj_style_gen.h **** }
 573:Drivers/lvgl/src/core/lv_obj_style_gen.h **** 
 574:Drivers/lvgl/src/core/lv_obj_style_gen.h **** static inline int32_t lv_obj_get_style_text_line_space(const lv_obj_t * obj, lv_part_t part)
 575:Drivers/lvgl/src/core/lv_obj_style_gen.h **** {
 576:Drivers/lvgl/src/core/lv_obj_style_gen.h ****     lv_style_value_t v = lv_obj_get_style_prop(obj, part, LV_STYLE_TEXT_LINE_SPACE);
 577:Drivers/lvgl/src/core/lv_obj_style_gen.h ****     return (int32_t)v.num;
 578:Drivers/lvgl/src/core/lv_obj_style_gen.h **** }
 579:Drivers/lvgl/src/core/lv_obj_style_gen.h **** 
 580:Drivers/lvgl/src/core/lv_obj_style_gen.h **** static inline lv_text_decor_t lv_obj_get_style_text_decor(const lv_obj_t * obj, lv_part_t part)
 581:Drivers/lvgl/src/core/lv_obj_style_gen.h **** {
ARM GAS  /var/folders/qx/2_175_4n2s19vhvtspjhb3qh0000gn/T//cckZJDG0.s 			page 20


 582:Drivers/lvgl/src/core/lv_obj_style_gen.h ****     lv_style_value_t v = lv_obj_get_style_prop(obj, part, LV_STYLE_TEXT_DECOR);
 583:Drivers/lvgl/src/core/lv_obj_style_gen.h ****     return (lv_text_decor_t)v.num;
 584:Drivers/lvgl/src/core/lv_obj_style_gen.h **** }
 585:Drivers/lvgl/src/core/lv_obj_style_gen.h **** 
 586:Drivers/lvgl/src/core/lv_obj_style_gen.h **** static inline lv_text_align_t lv_obj_get_style_text_align(const lv_obj_t * obj, lv_part_t part)
 587:Drivers/lvgl/src/core/lv_obj_style_gen.h **** {
 588:Drivers/lvgl/src/core/lv_obj_style_gen.h ****     lv_style_value_t v = lv_obj_get_style_prop(obj, part, LV_STYLE_TEXT_ALIGN);
 589:Drivers/lvgl/src/core/lv_obj_style_gen.h ****     return (lv_text_align_t)v.num;
 590:Drivers/lvgl/src/core/lv_obj_style_gen.h **** }
 591:Drivers/lvgl/src/core/lv_obj_style_gen.h **** 
 592:Drivers/lvgl/src/core/lv_obj_style_gen.h **** static inline lv_color_t lv_obj_get_style_text_outline_stroke_color(const lv_obj_t * obj, lv_part_t
 593:Drivers/lvgl/src/core/lv_obj_style_gen.h **** {
 594:Drivers/lvgl/src/core/lv_obj_style_gen.h ****     lv_style_value_t v = lv_obj_get_style_prop(obj, part, LV_STYLE_TEXT_OUTLINE_STROKE_COLOR);
 595:Drivers/lvgl/src/core/lv_obj_style_gen.h ****     return v.color;
 596:Drivers/lvgl/src/core/lv_obj_style_gen.h **** }
 597:Drivers/lvgl/src/core/lv_obj_style_gen.h **** 
 598:Drivers/lvgl/src/core/lv_obj_style_gen.h **** static inline lv_color_t lv_obj_get_style_text_outline_stroke_color_filtered(const lv_obj_t * obj, 
 599:Drivers/lvgl/src/core/lv_obj_style_gen.h **** {
 600:Drivers/lvgl/src/core/lv_obj_style_gen.h ****     lv_style_value_t v = lv_obj_style_apply_color_filter(obj, part, lv_obj_get_style_prop(obj, part
 601:Drivers/lvgl/src/core/lv_obj_style_gen.h ****                                                                                           LV_STYLE_
 602:Drivers/lvgl/src/core/lv_obj_style_gen.h ****     return v.color;
 603:Drivers/lvgl/src/core/lv_obj_style_gen.h **** }
 604:Drivers/lvgl/src/core/lv_obj_style_gen.h **** 
 605:Drivers/lvgl/src/core/lv_obj_style_gen.h **** static inline int32_t lv_obj_get_style_text_outline_stroke_width(const lv_obj_t * obj, lv_part_t pa
 606:Drivers/lvgl/src/core/lv_obj_style_gen.h **** {
 607:Drivers/lvgl/src/core/lv_obj_style_gen.h ****     lv_style_value_t v = lv_obj_get_style_prop(obj, part, LV_STYLE_TEXT_OUTLINE_STROKE_WIDTH);
 608:Drivers/lvgl/src/core/lv_obj_style_gen.h ****     return (int32_t)v.num;
 609:Drivers/lvgl/src/core/lv_obj_style_gen.h **** }
 610:Drivers/lvgl/src/core/lv_obj_style_gen.h **** 
 611:Drivers/lvgl/src/core/lv_obj_style_gen.h **** static inline lv_opa_t lv_obj_get_style_text_outline_stroke_opa(const lv_obj_t * obj, lv_part_t par
 612:Drivers/lvgl/src/core/lv_obj_style_gen.h **** {
 613:Drivers/lvgl/src/core/lv_obj_style_gen.h ****     lv_style_value_t v = lv_obj_get_style_prop(obj, part, LV_STYLE_TEXT_OUTLINE_STROKE_OPA);
 614:Drivers/lvgl/src/core/lv_obj_style_gen.h ****     return (lv_opa_t)v.num;
 615:Drivers/lvgl/src/core/lv_obj_style_gen.h **** }
 616:Drivers/lvgl/src/core/lv_obj_style_gen.h **** 
 617:Drivers/lvgl/src/core/lv_obj_style_gen.h **** static inline int32_t lv_obj_get_style_radius(const lv_obj_t * obj, lv_part_t part)
 618:Drivers/lvgl/src/core/lv_obj_style_gen.h **** {
 619:Drivers/lvgl/src/core/lv_obj_style_gen.h ****     lv_style_value_t v = lv_obj_get_style_prop(obj, part, LV_STYLE_RADIUS);
 620:Drivers/lvgl/src/core/lv_obj_style_gen.h ****     return (int32_t)v.num;
 621:Drivers/lvgl/src/core/lv_obj_style_gen.h **** }
 622:Drivers/lvgl/src/core/lv_obj_style_gen.h **** 
 623:Drivers/lvgl/src/core/lv_obj_style_gen.h **** static inline int32_t lv_obj_get_style_radial_offset(const lv_obj_t * obj, lv_part_t part)
 624:Drivers/lvgl/src/core/lv_obj_style_gen.h **** {
 625:Drivers/lvgl/src/core/lv_obj_style_gen.h ****     lv_style_value_t v = lv_obj_get_style_prop(obj, part, LV_STYLE_RADIAL_OFFSET);
 626:Drivers/lvgl/src/core/lv_obj_style_gen.h ****     return (int32_t)v.num;
 627:Drivers/lvgl/src/core/lv_obj_style_gen.h **** }
 628:Drivers/lvgl/src/core/lv_obj_style_gen.h **** 
 629:Drivers/lvgl/src/core/lv_obj_style_gen.h **** static inline bool lv_obj_get_style_clip_corner(const lv_obj_t * obj, lv_part_t part)
 630:Drivers/lvgl/src/core/lv_obj_style_gen.h **** {
 631:Drivers/lvgl/src/core/lv_obj_style_gen.h ****     lv_style_value_t v = lv_obj_get_style_prop(obj, part, LV_STYLE_CLIP_CORNER);
 632:Drivers/lvgl/src/core/lv_obj_style_gen.h ****     return (bool)v.num;
 633:Drivers/lvgl/src/core/lv_obj_style_gen.h **** }
 634:Drivers/lvgl/src/core/lv_obj_style_gen.h **** 
 635:Drivers/lvgl/src/core/lv_obj_style_gen.h **** static inline lv_opa_t lv_obj_get_style_opa(const lv_obj_t * obj, lv_part_t part)
  73              		.loc 2 635 24 is_stmt 1 view .LVU12
  74              	.LBB130:
 636:Drivers/lvgl/src/core/lv_obj_style_gen.h **** {
ARM GAS  /var/folders/qx/2_175_4n2s19vhvtspjhb3qh0000gn/T//cckZJDG0.s 			page 21


 637:Drivers/lvgl/src/core/lv_obj_style_gen.h ****     lv_style_value_t v = lv_obj_get_style_prop(obj, part, LV_STYLE_OPA);
  75              		.loc 2 637 5 view .LVU13
  76              		.loc 2 637 26 is_stmt 0 view .LVU14
  77 0016 6222     		movs	r2, #98
  78              	.LVL4:
  79              		.loc 2 637 26 view .LVU15
  80 0018 FFF7FEFF 		bl	lv_obj_get_style_prop
  81              	.LVL5:
  82              		.loc 2 637 26 view .LVU16
  83 001c 0190     		str	r0, [sp, #4]
 638:Drivers/lvgl/src/core/lv_obj_style_gen.h ****     return (lv_opa_t)v.num;
  84              		.loc 2 638 5 is_stmt 1 view .LVU17
  85              	.LVL6:
  86              		.loc 2 638 5 is_stmt 0 view .LVU18
  87              	.LBE130:
  88              	.LBE129:
 424:Drivers/lvgl/src/core/lv_obj_draw.c ****     }
  89              		.loc 1 424 16 discriminator 1 view .LVU19
  90 001e C0B2     		uxtb	r0, r0
  91 0020 04FB00F0 		mul	r0, r4, r0
  92 0024 000A     		lsrs	r0, r0, #8
 424:Drivers/lvgl/src/core/lv_obj_draw.c ****     }
  93              		.loc 1 424 16 view .LVU20
  94 0026 F2E7     		b	.L4
  95              	.LVL7:
  96              	.L2:
 428:Drivers/lvgl/src/core/lv_obj_draw.c **** }
  97              		.loc 1 428 5 is_stmt 1 view .LVU21
 428:Drivers/lvgl/src/core/lv_obj_draw.c **** }
  98              		.loc 1 428 12 is_stmt 0 view .LVU22
  99 0028 FFF7FEFF 		bl	lv_obj_get_style_opa_recursive
 100              	.LVL8:
 428:Drivers/lvgl/src/core/lv_obj_draw.c **** }
 101              		.loc 1 428 12 view .LVU23
 102 002c EFE7     		b	.L4
 103              		.cfi_endproc
 104              	.LFE191:
 106              		.section	.text.lv_obj_get_style_bg_color_filtered,"ax",%progbits
 107              		.align	1
 108              		.syntax unified
 109              		.thumb
 110              		.thumb_func
 112              	lv_obj_get_style_bg_color_filtered:
 113              	.LVL9:
 114              	.LFB67:
 227:Drivers/lvgl/src/core/lv_obj_style_gen.h ****     lv_style_value_t v = lv_obj_style_apply_color_filter(obj, part, lv_obj_get_style_prop(obj, part
 115              		.loc 2 227 1 is_stmt 1 view -0
 116              		.cfi_startproc
 117              		@ args = 0, pretend = 0, frame = 16
 118              		@ frame_needed = 0, uses_anonymous_args = 0
 227:Drivers/lvgl/src/core/lv_obj_style_gen.h ****     lv_style_value_t v = lv_obj_style_apply_color_filter(obj, part, lv_obj_get_style_prop(obj, part
 119              		.loc 2 227 1 is_stmt 0 view .LVU25
 120 0000 30B5     		push	{r4, r5, lr}
 121              	.LCFI4:
 122              		.cfi_def_cfa_offset 12
 123              		.cfi_offset 4, -12
 124              		.cfi_offset 5, -8
ARM GAS  /var/folders/qx/2_175_4n2s19vhvtspjhb3qh0000gn/T//cckZJDG0.s 			page 22


 125              		.cfi_offset 14, -4
 126 0002 85B0     		sub	sp, sp, #20
 127              	.LCFI5:
 128              		.cfi_def_cfa_offset 32
 129 0004 0446     		mov	r4, r0
 130 0006 0D46     		mov	r5, r1
 228:Drivers/lvgl/src/core/lv_obj_style_gen.h ****     return v.color;
 131              		.loc 2 228 5 is_stmt 1 view .LVU26
 228:Drivers/lvgl/src/core/lv_obj_style_gen.h ****     return v.color;
 132              		.loc 2 228 26 is_stmt 0 view .LVU27
 133 0008 1C22     		movs	r2, #28
 134 000a FFF7FEFF 		bl	lv_obj_get_style_prop
 135              	.LVL10:
 228:Drivers/lvgl/src/core/lv_obj_style_gen.h ****     return v.color;
 136              		.loc 2 228 26 view .LVU28
 137 000e 0246     		mov	r2, r0
 138 0010 0290     		str	r0, [sp, #8]
 228:Drivers/lvgl/src/core/lv_obj_style_gen.h ****     return v.color;
 139              		.loc 2 228 26 discriminator 1 view .LVU29
 140 0012 2946     		mov	r1, r5
 141 0014 2046     		mov	r0, r4
 142 0016 FFF7FEFF 		bl	lv_obj_style_apply_color_filter
 143              	.LVL11:
 144 001a 0190     		str	r0, [sp, #4]
 229:Drivers/lvgl/src/core/lv_obj_style_gen.h **** }
 145              		.loc 2 229 5 is_stmt 1 view .LVU30
 229:Drivers/lvgl/src/core/lv_obj_style_gen.h **** }
 146              		.loc 2 229 13 is_stmt 0 view .LVU31
 147 001c ADF80C00 		strh	r0, [sp, #12]	@ movhi
 148 0020 030C     		lsrs	r3, r0, #16
 149 0022 8DF80E30 		strb	r3, [sp, #14]
 150 0026 0020     		movs	r0, #0
 151 0028 9DF80C30 		ldrb	r3, [sp, #12]	@ zero_extendqisi2
 152 002c 63F30700 		bfi	r0, r3, #0, #8
 153 0030 9DF80D30 		ldrb	r3, [sp, #13]	@ zero_extendqisi2
 154 0034 63F30F20 		bfi	r0, r3, #8, #8
 155 0038 9DF80E30 		ldrb	r3, [sp, #14]	@ zero_extendqisi2
 156 003c 63F31740 		bfi	r0, r3, #16, #8
 230:Drivers/lvgl/src/core/lv_obj_style_gen.h **** 
 157              		.loc 2 230 1 view .LVU32
 158 0040 05B0     		add	sp, sp, #20
 159              	.LCFI6:
 160              		.cfi_def_cfa_offset 12
 161              		@ sp needed
 162 0042 30BD     		pop	{r4, r5, pc}
 230:Drivers/lvgl/src/core/lv_obj_style_gen.h **** 
 163              		.loc 2 230 1 view .LVU33
 164              		.cfi_endproc
 165              	.LFE67:
 167              		.section	.text.lv_obj_get_style_bg_grad_color_filtered,"ax",%progbits
 168              		.align	1
 169              		.syntax unified
 170              		.thumb
 171              		.thumb_func
 173              	lv_obj_get_style_bg_grad_color_filtered:
 174              	.LVL12:
 175              	.LFB70:
ARM GAS  /var/folders/qx/2_175_4n2s19vhvtspjhb3qh0000gn/T//cckZJDG0.s 			page 23


 245:Drivers/lvgl/src/core/lv_obj_style_gen.h ****     lv_style_value_t v = lv_obj_style_apply_color_filter(obj, part, lv_obj_get_style_prop(obj, part
 176              		.loc 2 245 1 is_stmt 1 view -0
 177              		.cfi_startproc
 178              		@ args = 0, pretend = 0, frame = 16
 179              		@ frame_needed = 0, uses_anonymous_args = 0
 245:Drivers/lvgl/src/core/lv_obj_style_gen.h ****     lv_style_value_t v = lv_obj_style_apply_color_filter(obj, part, lv_obj_get_style_prop(obj, part
 180              		.loc 2 245 1 is_stmt 0 view .LVU35
 181 0000 30B5     		push	{r4, r5, lr}
 182              	.LCFI7:
 183              		.cfi_def_cfa_offset 12
 184              		.cfi_offset 4, -12
 185              		.cfi_offset 5, -8
 186              		.cfi_offset 14, -4
 187 0002 85B0     		sub	sp, sp, #20
 188              	.LCFI8:
 189              		.cfi_def_cfa_offset 32
 190 0004 0446     		mov	r4, r0
 191 0006 0D46     		mov	r5, r1
 246:Drivers/lvgl/src/core/lv_obj_style_gen.h ****                                                                                           LV_STYLE_
 192              		.loc 2 246 5 is_stmt 1 view .LVU36
 246:Drivers/lvgl/src/core/lv_obj_style_gen.h ****                                                                                           LV_STYLE_
 193              		.loc 2 246 26 is_stmt 0 view .LVU37
 194 0008 2322     		movs	r2, #35
 195 000a FFF7FEFF 		bl	lv_obj_get_style_prop
 196              	.LVL13:
 246:Drivers/lvgl/src/core/lv_obj_style_gen.h ****                                                                                           LV_STYLE_
 197              		.loc 2 246 26 view .LVU38
 198 000e 0246     		mov	r2, r0
 199 0010 0290     		str	r0, [sp, #8]
 246:Drivers/lvgl/src/core/lv_obj_style_gen.h ****                                                                                           LV_STYLE_
 200              		.loc 2 246 26 discriminator 1 view .LVU39
 201 0012 2946     		mov	r1, r5
 202 0014 2046     		mov	r0, r4
 203 0016 FFF7FEFF 		bl	lv_obj_style_apply_color_filter
 204              	.LVL14:
 205 001a 0190     		str	r0, [sp, #4]
 248:Drivers/lvgl/src/core/lv_obj_style_gen.h **** }
 206              		.loc 2 248 5 is_stmt 1 view .LVU40
 248:Drivers/lvgl/src/core/lv_obj_style_gen.h **** }
 207              		.loc 2 248 13 is_stmt 0 view .LVU41
 208 001c ADF80C00 		strh	r0, [sp, #12]	@ movhi
 209 0020 030C     		lsrs	r3, r0, #16
 210 0022 8DF80E30 		strb	r3, [sp, #14]
 211 0026 0020     		movs	r0, #0
 212 0028 9DF80C30 		ldrb	r3, [sp, #12]	@ zero_extendqisi2
 213 002c 63F30700 		bfi	r0, r3, #0, #8
 214 0030 9DF80D30 		ldrb	r3, [sp, #13]	@ zero_extendqisi2
 215 0034 63F30F20 		bfi	r0, r3, #8, #8
 216 0038 9DF80E30 		ldrb	r3, [sp, #14]	@ zero_extendqisi2
 217 003c 63F31740 		bfi	r0, r3, #16, #8
 249:Drivers/lvgl/src/core/lv_obj_style_gen.h **** 
 218              		.loc 2 249 1 view .LVU42
 219 0040 05B0     		add	sp, sp, #20
 220              	.LCFI9:
 221              		.cfi_def_cfa_offset 12
 222              		@ sp needed
 223 0042 30BD     		pop	{r4, r5, pc}
ARM GAS  /var/folders/qx/2_175_4n2s19vhvtspjhb3qh0000gn/T//cckZJDG0.s 			page 24


 249:Drivers/lvgl/src/core/lv_obj_style_gen.h **** 
 224              		.loc 2 249 1 view .LVU43
 225              		.cfi_endproc
 226              	.LFE70:
 228              		.section	.text.lv_obj_get_style_border_color_filtered,"ax",%progbits
 229              		.align	1
 230              		.syntax unified
 231              		.thumb
 232              		.thumb_func
 234              	lv_obj_get_style_border_color_filtered:
 235              	.LVL15:
 236              	.LFB84:
 331:Drivers/lvgl/src/core/lv_obj_style_gen.h ****     lv_style_value_t v = lv_obj_style_apply_color_filter(obj, part, lv_obj_get_style_prop(obj, part
 237              		.loc 2 331 1 is_stmt 1 view -0
 238              		.cfi_startproc
 239              		@ args = 0, pretend = 0, frame = 16
 240              		@ frame_needed = 0, uses_anonymous_args = 0
 331:Drivers/lvgl/src/core/lv_obj_style_gen.h ****     lv_style_value_t v = lv_obj_style_apply_color_filter(obj, part, lv_obj_get_style_prop(obj, part
 241              		.loc 2 331 1 is_stmt 0 view .LVU45
 242 0000 30B5     		push	{r4, r5, lr}
 243              	.LCFI10:
 244              		.cfi_def_cfa_offset 12
 245              		.cfi_offset 4, -12
 246              		.cfi_offset 5, -8
 247              		.cfi_offset 14, -4
 248 0002 85B0     		sub	sp, sp, #20
 249              	.LCFI11:
 250              		.cfi_def_cfa_offset 32
 251 0004 0446     		mov	r4, r0
 252 0006 0D46     		mov	r5, r1
 332:Drivers/lvgl/src/core/lv_obj_style_gen.h ****                                                                                           LV_STYLE_
 253              		.loc 2 332 5 is_stmt 1 view .LVU46
 332:Drivers/lvgl/src/core/lv_obj_style_gen.h ****                                                                                           LV_STYLE_
 254              		.loc 2 332 26 is_stmt 0 view .LVU47
 255 0008 3122     		movs	r2, #49
 256 000a FFF7FEFF 		bl	lv_obj_get_style_prop
 257              	.LVL16:
 332:Drivers/lvgl/src/core/lv_obj_style_gen.h ****                                                                                           LV_STYLE_
 258              		.loc 2 332 26 view .LVU48
 259 000e 0246     		mov	r2, r0
 260 0010 0290     		str	r0, [sp, #8]
 332:Drivers/lvgl/src/core/lv_obj_style_gen.h ****                                                                                           LV_STYLE_
 261              		.loc 2 332 26 discriminator 1 view .LVU49
 262 0012 2946     		mov	r1, r5
 263 0014 2046     		mov	r0, r4
 264 0016 FFF7FEFF 		bl	lv_obj_style_apply_color_filter
 265              	.LVL17:
 266 001a 0190     		str	r0, [sp, #4]
 334:Drivers/lvgl/src/core/lv_obj_style_gen.h **** }
 267              		.loc 2 334 5 is_stmt 1 view .LVU50
 334:Drivers/lvgl/src/core/lv_obj_style_gen.h **** }
 268              		.loc 2 334 13 is_stmt 0 view .LVU51
 269 001c ADF80C00 		strh	r0, [sp, #12]	@ movhi
 270 0020 030C     		lsrs	r3, r0, #16
 271 0022 8DF80E30 		strb	r3, [sp, #14]
 272 0026 0020     		movs	r0, #0
 273 0028 9DF80C30 		ldrb	r3, [sp, #12]	@ zero_extendqisi2
ARM GAS  /var/folders/qx/2_175_4n2s19vhvtspjhb3qh0000gn/T//cckZJDG0.s 			page 25


 274 002c 63F30700 		bfi	r0, r3, #0, #8
 275 0030 9DF80D30 		ldrb	r3, [sp, #13]	@ zero_extendqisi2
 276 0034 63F30F20 		bfi	r0, r3, #8, #8
 277 0038 9DF80E30 		ldrb	r3, [sp, #14]	@ zero_extendqisi2
 278 003c 63F31740 		bfi	r0, r3, #16, #8
 335:Drivers/lvgl/src/core/lv_obj_style_gen.h **** 
 279              		.loc 2 335 1 view .LVU52
 280 0040 05B0     		add	sp, sp, #20
 281              	.LCFI12:
 282              		.cfi_def_cfa_offset 12
 283              		@ sp needed
 284 0042 30BD     		pop	{r4, r5, pc}
 335:Drivers/lvgl/src/core/lv_obj_style_gen.h **** 
 285              		.loc 2 335 1 view .LVU53
 286              		.cfi_endproc
 287              	.LFE84:
 289              		.section	.text.lv_obj_get_style_outline_color_filtered,"ax",%progbits
 290              		.align	1
 291              		.syntax unified
 292              		.thumb
 293              		.thumb_func
 295              	lv_obj_get_style_outline_color_filtered:
 296              	.LVL18:
 297              	.LFB91:
 374:Drivers/lvgl/src/core/lv_obj_style_gen.h ****     lv_style_value_t v = lv_obj_style_apply_color_filter(obj, part, lv_obj_get_style_prop(obj, part
 298              		.loc 2 374 1 is_stmt 1 view -0
 299              		.cfi_startproc
 300              		@ args = 0, pretend = 0, frame = 16
 301              		@ frame_needed = 0, uses_anonymous_args = 0
 374:Drivers/lvgl/src/core/lv_obj_style_gen.h ****     lv_style_value_t v = lv_obj_style_apply_color_filter(obj, part, lv_obj_get_style_prop(obj, part
 302              		.loc 2 374 1 is_stmt 0 view .LVU55
 303 0000 30B5     		push	{r4, r5, lr}
 304              	.LCFI13:
 305              		.cfi_def_cfa_offset 12
 306              		.cfi_offset 4, -12
 307              		.cfi_offset 5, -8
 308              		.cfi_offset 14, -4
 309 0002 85B0     		sub	sp, sp, #20
 310              	.LCFI14:
 311              		.cfi_def_cfa_offset 32
 312 0004 0446     		mov	r4, r0
 313 0006 0D46     		mov	r5, r1
 375:Drivers/lvgl/src/core/lv_obj_style_gen.h ****                                                                                           LV_STYLE_
 314              		.loc 2 375 5 is_stmt 1 view .LVU56
 375:Drivers/lvgl/src/core/lv_obj_style_gen.h ****                                                                                           LV_STYLE_
 315              		.loc 2 375 26 is_stmt 0 view .LVU57
 316 0008 3922     		movs	r2, #57
 317 000a FFF7FEFF 		bl	lv_obj_get_style_prop
 318              	.LVL19:
 375:Drivers/lvgl/src/core/lv_obj_style_gen.h ****                                                                                           LV_STYLE_
 319              		.loc 2 375 26 view .LVU58
 320 000e 0246     		mov	r2, r0
 321 0010 0290     		str	r0, [sp, #8]
 375:Drivers/lvgl/src/core/lv_obj_style_gen.h ****                                                                                           LV_STYLE_
 322              		.loc 2 375 26 discriminator 1 view .LVU59
 323 0012 2946     		mov	r1, r5
 324 0014 2046     		mov	r0, r4
ARM GAS  /var/folders/qx/2_175_4n2s19vhvtspjhb3qh0000gn/T//cckZJDG0.s 			page 26


 325 0016 FFF7FEFF 		bl	lv_obj_style_apply_color_filter
 326              	.LVL20:
 327 001a 0190     		str	r0, [sp, #4]
 377:Drivers/lvgl/src/core/lv_obj_style_gen.h **** }
 328              		.loc 2 377 5 is_stmt 1 view .LVU60
 377:Drivers/lvgl/src/core/lv_obj_style_gen.h **** }
 329              		.loc 2 377 13 is_stmt 0 view .LVU61
 330 001c ADF80C00 		strh	r0, [sp, #12]	@ movhi
 331 0020 030C     		lsrs	r3, r0, #16
 332 0022 8DF80E30 		strb	r3, [sp, #14]
 333 0026 0020     		movs	r0, #0
 334 0028 9DF80C30 		ldrb	r3, [sp, #12]	@ zero_extendqisi2
 335 002c 63F30700 		bfi	r0, r3, #0, #8
 336 0030 9DF80D30 		ldrb	r3, [sp, #13]	@ zero_extendqisi2
 337 0034 63F30F20 		bfi	r0, r3, #8, #8
 338 0038 9DF80E30 		ldrb	r3, [sp, #14]	@ zero_extendqisi2
 339 003c 63F31740 		bfi	r0, r3, #16, #8
 378:Drivers/lvgl/src/core/lv_obj_style_gen.h **** 
 340              		.loc 2 378 1 view .LVU62
 341 0040 05B0     		add	sp, sp, #20
 342              	.LCFI15:
 343              		.cfi_def_cfa_offset 12
 344              		@ sp needed
 345 0042 30BD     		pop	{r4, r5, pc}
 378:Drivers/lvgl/src/core/lv_obj_style_gen.h **** 
 346              		.loc 2 378 1 view .LVU63
 347              		.cfi_endproc
 348              	.LFE91:
 350              		.section	.text.lv_obj_get_style_text_color_filtered,"ax",%progbits
 351              		.align	1
 352              		.syntax unified
 353              		.thumb
 354              		.thumb_func
 356              	lv_obj_get_style_text_color_filtered:
 357              	.LVL21:
 358              	.LFB120:
 551:Drivers/lvgl/src/core/lv_obj_style_gen.h ****     lv_style_value_t v = lv_obj_style_apply_color_filter(obj, part, lv_obj_get_style_prop(obj, part
 359              		.loc 2 551 1 is_stmt 1 view -0
 360              		.cfi_startproc
 361              		@ args = 0, pretend = 0, frame = 16
 362              		@ frame_needed = 0, uses_anonymous_args = 0
 551:Drivers/lvgl/src/core/lv_obj_style_gen.h ****     lv_style_value_t v = lv_obj_style_apply_color_filter(obj, part, lv_obj_get_style_prop(obj, part
 363              		.loc 2 551 1 is_stmt 0 view .LVU65
 364 0000 30B5     		push	{r4, r5, lr}
 365              	.LCFI16:
 366              		.cfi_def_cfa_offset 12
 367              		.cfi_offset 4, -12
 368              		.cfi_offset 5, -8
 369              		.cfi_offset 14, -4
 370 0002 85B0     		sub	sp, sp, #20
 371              	.LCFI17:
 372              		.cfi_def_cfa_offset 32
 373 0004 0446     		mov	r4, r0
 374 0006 0D46     		mov	r5, r1
 552:Drivers/lvgl/src/core/lv_obj_style_gen.h ****     return v.color;
 375              		.loc 2 552 5 is_stmt 1 view .LVU66
 552:Drivers/lvgl/src/core/lv_obj_style_gen.h ****     return v.color;
ARM GAS  /var/folders/qx/2_175_4n2s19vhvtspjhb3qh0000gn/T//cckZJDG0.s 			page 27


 376              		.loc 2 552 26 is_stmt 0 view .LVU67
 377 0008 5822     		movs	r2, #88
 378 000a FFF7FEFF 		bl	lv_obj_get_style_prop
 379              	.LVL22:
 552:Drivers/lvgl/src/core/lv_obj_style_gen.h ****     return v.color;
 380              		.loc 2 552 26 view .LVU68
 381 000e 0246     		mov	r2, r0
 382 0010 0290     		str	r0, [sp, #8]
 552:Drivers/lvgl/src/core/lv_obj_style_gen.h ****     return v.color;
 383              		.loc 2 552 26 discriminator 1 view .LVU69
 384 0012 2946     		mov	r1, r5
 385 0014 2046     		mov	r0, r4
 386 0016 FFF7FEFF 		bl	lv_obj_style_apply_color_filter
 387              	.LVL23:
 388 001a 0190     		str	r0, [sp, #4]
 553:Drivers/lvgl/src/core/lv_obj_style_gen.h **** }
 389              		.loc 2 553 5 is_stmt 1 view .LVU70
 553:Drivers/lvgl/src/core/lv_obj_style_gen.h **** }
 390              		.loc 2 553 13 is_stmt 0 view .LVU71
 391 001c ADF80C00 		strh	r0, [sp, #12]	@ movhi
 392 0020 030C     		lsrs	r3, r0, #16
 393 0022 8DF80E30 		strb	r3, [sp, #14]
 394 0026 0020     		movs	r0, #0
 395 0028 9DF80C30 		ldrb	r3, [sp, #12]	@ zero_extendqisi2
 396 002c 63F30700 		bfi	r0, r3, #0, #8
 397 0030 9DF80D30 		ldrb	r3, [sp, #13]	@ zero_extendqisi2
 398 0034 63F30F20 		bfi	r0, r3, #8, #8
 399 0038 9DF80E30 		ldrb	r3, [sp, #14]	@ zero_extendqisi2
 400 003c 63F31740 		bfi	r0, r3, #16, #8
 554:Drivers/lvgl/src/core/lv_obj_style_gen.h **** 
 401              		.loc 2 554 1 view .LVU72
 402 0040 05B0     		add	sp, sp, #20
 403              	.LCFI18:
 404              		.cfi_def_cfa_offset 12
 405              		@ sp needed
 406 0042 30BD     		pop	{r4, r5, pc}
 554:Drivers/lvgl/src/core/lv_obj_style_gen.h **** 
 407              		.loc 2 554 1 view .LVU73
 408              		.cfi_endproc
 409              	.LFE120:
 411              		.section	.text.lv_obj_get_style_bg_image_recolor_filtered,"ax",%progbits
 412              		.align	1
 413              		.syntax unified
 414              		.thumb
 415              		.thumb_func
 417              	lv_obj_get_style_bg_image_recolor_filtered:
 418              	.LVL24:
 419              	.LFB80:
 306:Drivers/lvgl/src/core/lv_obj_style_gen.h ****     lv_style_value_t v = lv_obj_style_apply_color_filter(obj, part, lv_obj_get_style_prop(obj, part
 420              		.loc 2 306 1 is_stmt 1 view -0
 421              		.cfi_startproc
 422              		@ args = 0, pretend = 0, frame = 16
 423              		@ frame_needed = 0, uses_anonymous_args = 0
 306:Drivers/lvgl/src/core/lv_obj_style_gen.h ****     lv_style_value_t v = lv_obj_style_apply_color_filter(obj, part, lv_obj_get_style_prop(obj, part
 424              		.loc 2 306 1 is_stmt 0 view .LVU75
 425 0000 30B5     		push	{r4, r5, lr}
 426              	.LCFI19:
ARM GAS  /var/folders/qx/2_175_4n2s19vhvtspjhb3qh0000gn/T//cckZJDG0.s 			page 28


 427              		.cfi_def_cfa_offset 12
 428              		.cfi_offset 4, -12
 429              		.cfi_offset 5, -8
 430              		.cfi_offset 14, -4
 431 0002 85B0     		sub	sp, sp, #20
 432              	.LCFI20:
 433              		.cfi_def_cfa_offset 32
 434 0004 0446     		mov	r4, r0
 435 0006 0D46     		mov	r5, r1
 307:Drivers/lvgl/src/core/lv_obj_style_gen.h ****                                                                                           LV_STYLE_
 436              		.loc 2 307 5 is_stmt 1 view .LVU76
 307:Drivers/lvgl/src/core/lv_obj_style_gen.h ****                                                                                           LV_STYLE_
 437              		.loc 2 307 26 is_stmt 0 view .LVU77
 438 0008 2A22     		movs	r2, #42
 439 000a FFF7FEFF 		bl	lv_obj_get_style_prop
 440              	.LVL25:
 307:Drivers/lvgl/src/core/lv_obj_style_gen.h ****                                                                                           LV_STYLE_
 441              		.loc 2 307 26 view .LVU78
 442 000e 0246     		mov	r2, r0
 443 0010 0290     		str	r0, [sp, #8]
 307:Drivers/lvgl/src/core/lv_obj_style_gen.h ****                                                                                           LV_STYLE_
 444              		.loc 2 307 26 discriminator 1 view .LVU79
 445 0012 2946     		mov	r1, r5
 446 0014 2046     		mov	r0, r4
 447 0016 FFF7FEFF 		bl	lv_obj_style_apply_color_filter
 448              	.LVL26:
 449 001a 0190     		str	r0, [sp, #4]
 309:Drivers/lvgl/src/core/lv_obj_style_gen.h **** }
 450              		.loc 2 309 5 is_stmt 1 view .LVU80
 309:Drivers/lvgl/src/core/lv_obj_style_gen.h **** }
 451              		.loc 2 309 13 is_stmt 0 view .LVU81
 452 001c ADF80C00 		strh	r0, [sp, #12]	@ movhi
 453 0020 030C     		lsrs	r3, r0, #16
 454 0022 8DF80E30 		strb	r3, [sp, #14]
 455 0026 0020     		movs	r0, #0
 456 0028 9DF80C30 		ldrb	r3, [sp, #12]	@ zero_extendqisi2
 457 002c 63F30700 		bfi	r0, r3, #0, #8
 458 0030 9DF80D30 		ldrb	r3, [sp, #13]	@ zero_extendqisi2
 459 0034 63F30F20 		bfi	r0, r3, #8, #8
 460 0038 9DF80E30 		ldrb	r3, [sp, #14]	@ zero_extendqisi2
 461 003c 63F31740 		bfi	r0, r3, #16, #8
 310:Drivers/lvgl/src/core/lv_obj_style_gen.h **** 
 462              		.loc 2 310 1 view .LVU82
 463 0040 05B0     		add	sp, sp, #20
 464              	.LCFI21:
 465              		.cfi_def_cfa_offset 12
 466              		@ sp needed
 467 0042 30BD     		pop	{r4, r5, pc}
 310:Drivers/lvgl/src/core/lv_obj_style_gen.h **** 
 468              		.loc 2 310 1 view .LVU83
 469              		.cfi_endproc
 470              	.LFE80:
 472              		.section	.text.lv_obj_get_style_shadow_color_filtered,"ax",%progbits
 473              		.align	1
 474              		.syntax unified
 475              		.thumb
 476              		.thumb_func
ARM GAS  /var/folders/qx/2_175_4n2s19vhvtspjhb3qh0000gn/T//cckZJDG0.s 			page 29


 478              	lv_obj_get_style_shadow_color_filtered:
 479              	.LVL27:
 480              	.LFB99:
 423:Drivers/lvgl/src/core/lv_obj_style_gen.h ****     lv_style_value_t v = lv_obj_style_apply_color_filter(obj, part, lv_obj_get_style_prop(obj, part
 481              		.loc 2 423 1 is_stmt 1 view -0
 482              		.cfi_startproc
 483              		@ args = 0, pretend = 0, frame = 16
 484              		@ frame_needed = 0, uses_anonymous_args = 0
 423:Drivers/lvgl/src/core/lv_obj_style_gen.h ****     lv_style_value_t v = lv_obj_style_apply_color_filter(obj, part, lv_obj_get_style_prop(obj, part
 485              		.loc 2 423 1 is_stmt 0 view .LVU85
 486 0000 30B5     		push	{r4, r5, lr}
 487              	.LCFI22:
 488              		.cfi_def_cfa_offset 12
 489              		.cfi_offset 4, -12
 490              		.cfi_offset 5, -8
 491              		.cfi_offset 14, -4
 492 0002 85B0     		sub	sp, sp, #20
 493              	.LCFI23:
 494              		.cfi_def_cfa_offset 32
 495 0004 0446     		mov	r4, r0
 496 0006 0D46     		mov	r5, r1
 424:Drivers/lvgl/src/core/lv_obj_style_gen.h ****                                                                                           LV_STYLE_
 497              		.loc 2 424 5 is_stmt 1 view .LVU86
 424:Drivers/lvgl/src/core/lv_obj_style_gen.h ****                                                                                           LV_STYLE_
 498              		.loc 2 424 26 is_stmt 0 view .LVU87
 499 0008 3D22     		movs	r2, #61
 500 000a FFF7FEFF 		bl	lv_obj_get_style_prop
 501              	.LVL28:
 424:Drivers/lvgl/src/core/lv_obj_style_gen.h ****                                                                                           LV_STYLE_
 502              		.loc 2 424 26 view .LVU88
 503 000e 0246     		mov	r2, r0
 504 0010 0290     		str	r0, [sp, #8]
 424:Drivers/lvgl/src/core/lv_obj_style_gen.h ****                                                                                           LV_STYLE_
 505              		.loc 2 424 26 discriminator 1 view .LVU89
 506 0012 2946     		mov	r1, r5
 507 0014 2046     		mov	r0, r4
 508 0016 FFF7FEFF 		bl	lv_obj_style_apply_color_filter
 509              	.LVL29:
 510 001a 0190     		str	r0, [sp, #4]
 426:Drivers/lvgl/src/core/lv_obj_style_gen.h **** }
 511              		.loc 2 426 5 is_stmt 1 view .LVU90
 426:Drivers/lvgl/src/core/lv_obj_style_gen.h **** }
 512              		.loc 2 426 13 is_stmt 0 view .LVU91
 513 001c ADF80C00 		strh	r0, [sp, #12]	@ movhi
 514 0020 030C     		lsrs	r3, r0, #16
 515 0022 8DF80E30 		strb	r3, [sp, #14]
 516 0026 0020     		movs	r0, #0
 517 0028 9DF80C30 		ldrb	r3, [sp, #12]	@ zero_extendqisi2
 518 002c 63F30700 		bfi	r0, r3, #0, #8
 519 0030 9DF80D30 		ldrb	r3, [sp, #13]	@ zero_extendqisi2
 520 0034 63F30F20 		bfi	r0, r3, #8, #8
 521 0038 9DF80E30 		ldrb	r3, [sp, #14]	@ zero_extendqisi2
 522 003c 63F31740 		bfi	r0, r3, #16, #8
 427:Drivers/lvgl/src/core/lv_obj_style_gen.h **** 
 523              		.loc 2 427 1 view .LVU92
 524 0040 05B0     		add	sp, sp, #20
 525              	.LCFI24:
ARM GAS  /var/folders/qx/2_175_4n2s19vhvtspjhb3qh0000gn/T//cckZJDG0.s 			page 30


 526              		.cfi_def_cfa_offset 12
 527              		@ sp needed
 528 0042 30BD     		pop	{r4, r5, pc}
 427:Drivers/lvgl/src/core/lv_obj_style_gen.h **** 
 529              		.loc 2 427 1 view .LVU93
 530              		.cfi_endproc
 531              	.LFE99:
 533              		.section	.text.lv_obj_get_style_image_recolor_filtered,"ax",%progbits
 534              		.align	1
 535              		.syntax unified
 536              		.thumb
 537              		.thumb_func
 539              	lv_obj_get_style_image_recolor_filtered:
 540              	.LVL30:
 541              	.LFB103:
 448:Drivers/lvgl/src/core/lv_obj_style_gen.h ****     lv_style_value_t v = lv_obj_style_apply_color_filter(obj, part, lv_obj_get_style_prop(obj, part
 542              		.loc 2 448 1 is_stmt 1 view -0
 543              		.cfi_startproc
 544              		@ args = 0, pretend = 0, frame = 16
 545              		@ frame_needed = 0, uses_anonymous_args = 0
 448:Drivers/lvgl/src/core/lv_obj_style_gen.h ****     lv_style_value_t v = lv_obj_style_apply_color_filter(obj, part, lv_obj_get_style_prop(obj, part
 546              		.loc 2 448 1 is_stmt 0 view .LVU95
 547 0000 30B5     		push	{r4, r5, lr}
 548              	.LCFI25:
 549              		.cfi_def_cfa_offset 12
 550              		.cfi_offset 4, -12
 551              		.cfi_offset 5, -8
 552              		.cfi_offset 14, -4
 553 0002 85B0     		sub	sp, sp, #20
 554              	.LCFI26:
 555              		.cfi_def_cfa_offset 32
 556 0004 0446     		mov	r4, r0
 557 0006 0D46     		mov	r5, r1
 449:Drivers/lvgl/src/core/lv_obj_style_gen.h ****                                                                                           LV_STYLE_
 558              		.loc 2 449 5 is_stmt 1 view .LVU96
 449:Drivers/lvgl/src/core/lv_obj_style_gen.h ****                                                                                           LV_STYLE_
 559              		.loc 2 449 26 is_stmt 0 view .LVU97
 560 0008 4522     		movs	r2, #69
 561 000a FFF7FEFF 		bl	lv_obj_get_style_prop
 562              	.LVL31:
 449:Drivers/lvgl/src/core/lv_obj_style_gen.h ****                                                                                           LV_STYLE_
 563              		.loc 2 449 26 view .LVU98
 564 000e 0246     		mov	r2, r0
 565 0010 0290     		str	r0, [sp, #8]
 449:Drivers/lvgl/src/core/lv_obj_style_gen.h ****                                                                                           LV_STYLE_
 566              		.loc 2 449 26 discriminator 1 view .LVU99
 567 0012 2946     		mov	r1, r5
 568 0014 2046     		mov	r0, r4
 569 0016 FFF7FEFF 		bl	lv_obj_style_apply_color_filter
 570              	.LVL32:
 571 001a 0190     		str	r0, [sp, #4]
 451:Drivers/lvgl/src/core/lv_obj_style_gen.h **** }
 572              		.loc 2 451 5 is_stmt 1 view .LVU100
 451:Drivers/lvgl/src/core/lv_obj_style_gen.h **** }
 573              		.loc 2 451 13 is_stmt 0 view .LVU101
 574 001c ADF80C00 		strh	r0, [sp, #12]	@ movhi
 575 0020 030C     		lsrs	r3, r0, #16
ARM GAS  /var/folders/qx/2_175_4n2s19vhvtspjhb3qh0000gn/T//cckZJDG0.s 			page 31


 576 0022 8DF80E30 		strb	r3, [sp, #14]
 577 0026 0020     		movs	r0, #0
 578 0028 9DF80C30 		ldrb	r3, [sp, #12]	@ zero_extendqisi2
 579 002c 63F30700 		bfi	r0, r3, #0, #8
 580 0030 9DF80D30 		ldrb	r3, [sp, #13]	@ zero_extendqisi2
 581 0034 63F30F20 		bfi	r0, r3, #8, #8
 582 0038 9DF80E30 		ldrb	r3, [sp, #14]	@ zero_extendqisi2
 583 003c 63F31740 		bfi	r0, r3, #16, #8
 452:Drivers/lvgl/src/core/lv_obj_style_gen.h **** 
 584              		.loc 2 452 1 view .LVU102
 585 0040 05B0     		add	sp, sp, #20
 586              	.LCFI27:
 587              		.cfi_def_cfa_offset 12
 588              		@ sp needed
 589 0042 30BD     		pop	{r4, r5, pc}
 452:Drivers/lvgl/src/core/lv_obj_style_gen.h **** 
 590              		.loc 2 452 1 view .LVU103
 591              		.cfi_endproc
 592              	.LFE103:
 594              		.section	.text.lv_obj_get_style_line_color_filtered,"ax",%progbits
 595              		.align	1
 596              		.syntax unified
 597              		.thumb
 598              		.thumb_func
 600              	lv_obj_get_style_line_color_filtered:
 601              	.LVL33:
 602              	.LFB111:
 497:Drivers/lvgl/src/core/lv_obj_style_gen.h ****     lv_style_value_t v = lv_obj_style_apply_color_filter(obj, part, lv_obj_get_style_prop(obj, part
 603              		.loc 2 497 1 is_stmt 1 view -0
 604              		.cfi_startproc
 605              		@ args = 0, pretend = 0, frame = 16
 606              		@ frame_needed = 0, uses_anonymous_args = 0
 497:Drivers/lvgl/src/core/lv_obj_style_gen.h ****     lv_style_value_t v = lv_obj_style_apply_color_filter(obj, part, lv_obj_get_style_prop(obj, part
 607              		.loc 2 497 1 is_stmt 0 view .LVU105
 608 0000 30B5     		push	{r4, r5, lr}
 609              	.LCFI28:
 610              		.cfi_def_cfa_offset 12
 611              		.cfi_offset 4, -12
 612              		.cfi_offset 5, -8
 613              		.cfi_offset 14, -4
 614 0002 85B0     		sub	sp, sp, #20
 615              	.LCFI29:
 616              		.cfi_def_cfa_offset 32
 617 0004 0446     		mov	r4, r0
 618 0006 0D46     		mov	r5, r1
 498:Drivers/lvgl/src/core/lv_obj_style_gen.h ****     return v.color;
 619              		.loc 2 498 5 is_stmt 1 view .LVU106
 498:Drivers/lvgl/src/core/lv_obj_style_gen.h ****     return v.color;
 620              		.loc 2 498 26 is_stmt 0 view .LVU107
 621 0008 4C22     		movs	r2, #76
 622 000a FFF7FEFF 		bl	lv_obj_get_style_prop
 623              	.LVL34:
 498:Drivers/lvgl/src/core/lv_obj_style_gen.h ****     return v.color;
 624              		.loc 2 498 26 view .LVU108
 625 000e 0246     		mov	r2, r0
 626 0010 0290     		str	r0, [sp, #8]
 498:Drivers/lvgl/src/core/lv_obj_style_gen.h ****     return v.color;
ARM GAS  /var/folders/qx/2_175_4n2s19vhvtspjhb3qh0000gn/T//cckZJDG0.s 			page 32


 627              		.loc 2 498 26 discriminator 1 view .LVU109
 628 0012 2946     		mov	r1, r5
 629 0014 2046     		mov	r0, r4
 630 0016 FFF7FEFF 		bl	lv_obj_style_apply_color_filter
 631              	.LVL35:
 632 001a 0190     		str	r0, [sp, #4]
 499:Drivers/lvgl/src/core/lv_obj_style_gen.h **** }
 633              		.loc 2 499 5 is_stmt 1 view .LVU110
 499:Drivers/lvgl/src/core/lv_obj_style_gen.h **** }
 634              		.loc 2 499 13 is_stmt 0 view .LVU111
 635 001c ADF80C00 		strh	r0, [sp, #12]	@ movhi
 636 0020 030C     		lsrs	r3, r0, #16
 637 0022 8DF80E30 		strb	r3, [sp, #14]
 638 0026 0020     		movs	r0, #0
 639 0028 9DF80C30 		ldrb	r3, [sp, #12]	@ zero_extendqisi2
 640 002c 63F30700 		bfi	r0, r3, #0, #8
 641 0030 9DF80D30 		ldrb	r3, [sp, #13]	@ zero_extendqisi2
 642 0034 63F30F20 		bfi	r0, r3, #8, #8
 643 0038 9DF80E30 		ldrb	r3, [sp, #14]	@ zero_extendqisi2
 644 003c 63F31740 		bfi	r0, r3, #16, #8
 500:Drivers/lvgl/src/core/lv_obj_style_gen.h **** 
 645              		.loc 2 500 1 view .LVU112
 646 0040 05B0     		add	sp, sp, #20
 647              	.LCFI30:
 648              		.cfi_def_cfa_offset 12
 649              		@ sp needed
 650 0042 30BD     		pop	{r4, r5, pc}
 500:Drivers/lvgl/src/core/lv_obj_style_gen.h **** 
 651              		.loc 2 500 1 view .LVU113
 652              		.cfi_endproc
 653              	.LFE111:
 655              		.section	.text.lv_obj_get_style_arc_color_filtered,"ax",%progbits
 656              		.align	1
 657              		.syntax unified
 658              		.thumb
 659              		.thumb_func
 661              	lv_obj_get_style_arc_color_filtered:
 662              	.LVL36:
 663              	.LFB116:
 527:Drivers/lvgl/src/core/lv_obj_style_gen.h ****     lv_style_value_t v = lv_obj_style_apply_color_filter(obj, part, lv_obj_get_style_prop(obj, part
 664              		.loc 2 527 1 is_stmt 1 view -0
 665              		.cfi_startproc
 666              		@ args = 0, pretend = 0, frame = 16
 667              		@ frame_needed = 0, uses_anonymous_args = 0
 527:Drivers/lvgl/src/core/lv_obj_style_gen.h ****     lv_style_value_t v = lv_obj_style_apply_color_filter(obj, part, lv_obj_get_style_prop(obj, part
 668              		.loc 2 527 1 is_stmt 0 view .LVU115
 669 0000 30B5     		push	{r4, r5, lr}
 670              	.LCFI31:
 671              		.cfi_def_cfa_offset 12
 672              		.cfi_offset 4, -12
 673              		.cfi_offset 5, -8
 674              		.cfi_offset 14, -4
 675 0002 85B0     		sub	sp, sp, #20
 676              	.LCFI32:
 677              		.cfi_def_cfa_offset 32
 678 0004 0446     		mov	r4, r0
 679 0006 0D46     		mov	r5, r1
ARM GAS  /var/folders/qx/2_175_4n2s19vhvtspjhb3qh0000gn/T//cckZJDG0.s 			page 33


 528:Drivers/lvgl/src/core/lv_obj_style_gen.h ****     return v.color;
 680              		.loc 2 528 5 is_stmt 1 view .LVU116
 528:Drivers/lvgl/src/core/lv_obj_style_gen.h ****     return v.color;
 681              		.loc 2 528 26 is_stmt 0 view .LVU117
 682 0008 5222     		movs	r2, #82
 683 000a FFF7FEFF 		bl	lv_obj_get_style_prop
 684              	.LVL37:
 528:Drivers/lvgl/src/core/lv_obj_style_gen.h ****     return v.color;
 685              		.loc 2 528 26 view .LVU118
 686 000e 0246     		mov	r2, r0
 687 0010 0290     		str	r0, [sp, #8]
 528:Drivers/lvgl/src/core/lv_obj_style_gen.h ****     return v.color;
 688              		.loc 2 528 26 discriminator 1 view .LVU119
 689 0012 2946     		mov	r1, r5
 690 0014 2046     		mov	r0, r4
 691 0016 FFF7FEFF 		bl	lv_obj_style_apply_color_filter
 692              	.LVL38:
 693 001a 0190     		str	r0, [sp, #4]
 529:Drivers/lvgl/src/core/lv_obj_style_gen.h **** }
 694              		.loc 2 529 5 is_stmt 1 view .LVU120
 529:Drivers/lvgl/src/core/lv_obj_style_gen.h **** }
 695              		.loc 2 529 13 is_stmt 0 view .LVU121
 696 001c ADF80C00 		strh	r0, [sp, #12]	@ movhi
 697 0020 030C     		lsrs	r3, r0, #16
 698 0022 8DF80E30 		strb	r3, [sp, #14]
 699 0026 0020     		movs	r0, #0
 700 0028 9DF80C30 		ldrb	r3, [sp, #12]	@ zero_extendqisi2
 701 002c 63F30700 		bfi	r0, r3, #0, #8
 702 0030 9DF80D30 		ldrb	r3, [sp, #13]	@ zero_extendqisi2
 703 0034 63F30F20 		bfi	r0, r3, #8, #8
 704 0038 9DF80E30 		ldrb	r3, [sp, #14]	@ zero_extendqisi2
 705 003c 63F31740 		bfi	r0, r3, #16, #8
 530:Drivers/lvgl/src/core/lv_obj_style_gen.h **** 
 706              		.loc 2 530 1 view .LVU122
 707 0040 05B0     		add	sp, sp, #20
 708              	.LCFI33:
 709              		.cfi_def_cfa_offset 12
 710              		@ sp needed
 711 0042 30BD     		pop	{r4, r5, pc}
 530:Drivers/lvgl/src/core/lv_obj_style_gen.h **** 
 712              		.loc 2 530 1 view .LVU123
 713              		.cfi_endproc
 714              	.LFE116:
 716              		.section	.text.image_apply_layer_recolor,"ax",%progbits
 717              		.align	1
 718              		.syntax unified
 719              		.thumb
 720              		.thumb_func
 722              	image_apply_layer_recolor:
 723              	.LVL39:
 724              	.LFB193:
 430:Drivers/lvgl/src/core/lv_obj_draw.c **** 
 431:Drivers/lvgl/src/core/lv_obj_draw.c **** 
 432:Drivers/lvgl/src/core/lv_obj_draw.c **** static lv_color_t normal_apply_layer_recolor(const lv_obj_t * obj, lv_part_t part,  const lv_draw_d
 433:Drivers/lvgl/src/core/lv_obj_draw.c ****                                              lv_color_t color)
 434:Drivers/lvgl/src/core/lv_obj_draw.c **** {
 435:Drivers/lvgl/src/core/lv_obj_draw.c ****     lv_color32_t recolor;
ARM GAS  /var/folders/qx/2_175_4n2s19vhvtspjhb3qh0000gn/T//cckZJDG0.s 			page 34


 436:Drivers/lvgl/src/core/lv_obj_draw.c **** 
 437:Drivers/lvgl/src/core/lv_obj_draw.c ****     if(base_dsc->layer) {
 438:Drivers/lvgl/src/core/lv_obj_draw.c ****         recolor = base_dsc->layer->recolor;
 439:Drivers/lvgl/src/core/lv_obj_draw.c ****         if(part != LV_PART_MAIN) {
 440:Drivers/lvgl/src/core/lv_obj_draw.c ****             recolor = lv_obj_style_apply_recolor(obj, part, recolor);
 441:Drivers/lvgl/src/core/lv_obj_draw.c ****         }
 442:Drivers/lvgl/src/core/lv_obj_draw.c ****     }
 443:Drivers/lvgl/src/core/lv_obj_draw.c ****     else {
 444:Drivers/lvgl/src/core/lv_obj_draw.c ****         recolor = lv_obj_get_style_recolor_recursive(obj, part);
 445:Drivers/lvgl/src/core/lv_obj_draw.c ****     }
 446:Drivers/lvgl/src/core/lv_obj_draw.c **** 
 447:Drivers/lvgl/src/core/lv_obj_draw.c ****     return lv_color_mix(lv_color_make(recolor.red, recolor.green, recolor.blue), color, recolor.alp
 448:Drivers/lvgl/src/core/lv_obj_draw.c **** }
 449:Drivers/lvgl/src/core/lv_obj_draw.c **** 
 450:Drivers/lvgl/src/core/lv_obj_draw.c **** 
 451:Drivers/lvgl/src/core/lv_obj_draw.c **** static lv_color32_t image_apply_layer_recolor(const lv_obj_t * obj, lv_part_t part,
 452:Drivers/lvgl/src/core/lv_obj_draw.c ****                                               const lv_draw_dsc_base_t * base_dsc, lv_color_t color
 453:Drivers/lvgl/src/core/lv_obj_draw.c **** {
 725              		.loc 1 453 1 is_stmt 1 view -0
 726              		.cfi_startproc
 727              		@ args = 4, pretend = 0, frame = 24
 728              		@ frame_needed = 0, uses_anonymous_args = 0
 729              		.loc 1 453 1 is_stmt 0 view .LVU125
 730 0000 10B5     		push	{r4, lr}
 731              	.LCFI34:
 732              		.cfi_def_cfa_offset 8
 733              		.cfi_offset 4, -8
 734              		.cfi_offset 14, -4
 735 0002 86B0     		sub	sp, sp, #24
 736              	.LCFI35:
 737              		.cfi_def_cfa_offset 32
 738 0004 0193     		str	r3, [sp, #4]
 739 0006 9DF82040 		ldrb	r4, [sp, #32]	@ zero_extendqisi2
 454:Drivers/lvgl/src/core/lv_obj_draw.c ****     lv_color32_t recolor;
 740              		.loc 1 454 5 is_stmt 1 view .LVU126
 455:Drivers/lvgl/src/core/lv_obj_draw.c **** 
 456:Drivers/lvgl/src/core/lv_obj_draw.c ****     if(base_dsc->layer) {
 741              		.loc 1 456 5 view .LVU127
 742              		.loc 1 456 16 is_stmt 0 view .LVU128
 743 000a 1369     		ldr	r3, [r2, #16]
 744              		.loc 1 456 7 view .LVU129
 745 000c 1BB3     		cbz	r3, .L27
 457:Drivers/lvgl/src/core/lv_obj_draw.c ****         recolor = base_dsc->layer->recolor;
 746              		.loc 1 457 9 is_stmt 1 view .LVU130
 747              		.loc 1 457 17 is_stmt 0 view .LVU131
 748 000e 9B6C     		ldr	r3, [r3, #72]
 749 0010 0393     		str	r3, [sp, #12]
 458:Drivers/lvgl/src/core/lv_obj_draw.c ****         if(part != LV_PART_MAIN) {
 750              		.loc 1 458 9 is_stmt 1 view .LVU132
 751              		.loc 1 458 11 is_stmt 0 view .LVU133
 752 0012 D9B9     		cbnz	r1, .L33
 753              	.LVL40:
 754              	.L28:
 459:Drivers/lvgl/src/core/lv_obj_draw.c ****             recolor = lv_obj_style_apply_recolor(obj, part, recolor);
 460:Drivers/lvgl/src/core/lv_obj_draw.c ****         }
 461:Drivers/lvgl/src/core/lv_obj_draw.c ****     }
 462:Drivers/lvgl/src/core/lv_obj_draw.c ****     else {
ARM GAS  /var/folders/qx/2_175_4n2s19vhvtspjhb3qh0000gn/T//cckZJDG0.s 			page 35


 463:Drivers/lvgl/src/core/lv_obj_draw.c ****         recolor = lv_obj_get_style_recolor_recursive(obj, part);
 464:Drivers/lvgl/src/core/lv_obj_draw.c ****     }
 465:Drivers/lvgl/src/core/lv_obj_draw.c **** 
 466:Drivers/lvgl/src/core/lv_obj_draw.c ****     if(opa > LV_OPA_TRANSP && recolor.alpha > LV_OPA_TRANSP) {
 755              		.loc 1 466 5 is_stmt 1 view .LVU134
 756              		.loc 1 466 7 is_stmt 0 view .LVU135
 757 0014 14B1     		cbz	r4, .L29
 758              		.loc 1 466 38 discriminator 1 view .LVU136
 759 0016 9DF80F30 		ldrb	r3, [sp, #15]	@ zero_extendqisi2
 760              		.loc 1 466 28 discriminator 1 view .LVU137
 761 001a 03BB     		cbnz	r3, .L34
 762              	.L29:
 467:Drivers/lvgl/src/core/lv_obj_draw.c ****         return lv_color_over32(recolor, lv_color_to_32(color, opa));
 468:Drivers/lvgl/src/core/lv_obj_draw.c ****     }
 469:Drivers/lvgl/src/core/lv_obj_draw.c ****     else if(recolor.alpha > LV_OPA_TRANSP) {
 763              		.loc 1 469 10 is_stmt 1 view .LVU138
 764              		.loc 1 469 20 is_stmt 0 view .LVU139
 765 001c 9DF80F30 		ldrb	r3, [sp, #15]	@ zero_extendqisi2
 766              		.loc 1 469 12 view .LVU140
 767 0020 43B3     		cbz	r3, .L31
 470:Drivers/lvgl/src/core/lv_obj_draw.c ****         return recolor;
 768              		.loc 1 470 9 is_stmt 1 view .LVU141
 769              		.loc 1 470 16 is_stmt 0 view .LVU142
 770 0022 039B     		ldr	r3, [sp, #12]
 771 0024 0493     		str	r3, [sp, #16]
 772              	.L30:
 471:Drivers/lvgl/src/core/lv_obj_draw.c ****     }
 472:Drivers/lvgl/src/core/lv_obj_draw.c ****     else {
 473:Drivers/lvgl/src/core/lv_obj_draw.c ****         return lv_color_to_32(color, opa);
 474:Drivers/lvgl/src/core/lv_obj_draw.c ****     }
 475:Drivers/lvgl/src/core/lv_obj_draw.c **** }
 773              		.loc 1 475 1 view .LVU143
 774 0026 0020     		movs	r0, #0
 775 0028 9DF81030 		ldrb	r3, [sp, #16]	@ zero_extendqisi2
 776 002c 63F30700 		bfi	r0, r3, #0, #8
 777 0030 9DF81130 		ldrb	r3, [sp, #17]	@ zero_extendqisi2
 778 0034 63F30F20 		bfi	r0, r3, #8, #8
 779 0038 9DF81230 		ldrb	r3, [sp, #18]	@ zero_extendqisi2
 780 003c 63F31740 		bfi	r0, r3, #16, #8
 781 0040 9DF81330 		ldrb	r3, [sp, #19]	@ zero_extendqisi2
 782 0044 63F31F60 		bfi	r0, r3, #24, #8
 783 0048 06B0     		add	sp, sp, #24
 784              	.LCFI36:
 785              		.cfi_remember_state
 786              		.cfi_def_cfa_offset 8
 787              		@ sp needed
 788 004a 10BD     		pop	{r4, pc}
 789              	.LVL41:
 790              	.L33:
 791              	.LCFI37:
 792              		.cfi_restore_state
 459:Drivers/lvgl/src/core/lv_obj_draw.c ****         }
 793              		.loc 1 459 13 is_stmt 1 view .LVU144
 459:Drivers/lvgl/src/core/lv_obj_draw.c ****         }
 794              		.loc 1 459 23 is_stmt 0 view .LVU145
 795 004c 1A46     		mov	r2, r3
 796              	.LVL42:
ARM GAS  /var/folders/qx/2_175_4n2s19vhvtspjhb3qh0000gn/T//cckZJDG0.s 			page 36


 459:Drivers/lvgl/src/core/lv_obj_draw.c ****         }
 797              		.loc 1 459 23 view .LVU146
 798 004e FFF7FEFF 		bl	lv_obj_style_apply_recolor
 799              	.LVL43:
 459:Drivers/lvgl/src/core/lv_obj_draw.c ****         }
 800              		.loc 1 459 23 view .LVU147
 801 0052 0390     		str	r0, [sp, #12]
 802 0054 DEE7     		b	.L28
 803              	.LVL44:
 804              	.L27:
 463:Drivers/lvgl/src/core/lv_obj_draw.c ****     }
 805              		.loc 1 463 9 is_stmt 1 view .LVU148
 463:Drivers/lvgl/src/core/lv_obj_draw.c ****     }
 806              		.loc 1 463 19 is_stmt 0 view .LVU149
 807 0056 FFF7FEFF 		bl	lv_obj_get_style_recolor_recursive
 808              	.LVL45:
 463:Drivers/lvgl/src/core/lv_obj_draw.c ****     }
 809              		.loc 1 463 19 view .LVU150
 810 005a 0390     		str	r0, [sp, #12]
 811 005c DAE7     		b	.L28
 812              	.L34:
 467:Drivers/lvgl/src/core/lv_obj_draw.c ****     }
 813              		.loc 1 467 9 is_stmt 1 view .LVU151
 467:Drivers/lvgl/src/core/lv_obj_draw.c ****     }
 814              		.loc 1 467 16 is_stmt 0 view .LVU152
 815 005e 2146     		mov	r1, r4
 816 0060 0198     		ldr	r0, [sp, #4]
 817 0062 FFF7FEFF 		bl	lv_color_to_32
 818              	.LVL46:
 819 0066 0146     		mov	r1, r0
 820 0068 0590     		str	r0, [sp, #20]
 467:Drivers/lvgl/src/core/lv_obj_draw.c ****     }
 821              		.loc 1 467 16 discriminator 1 view .LVU153
 822 006a 0398     		ldr	r0, [sp, #12]
 823 006c FFF7FEFF 		bl	lv_color_over32
 824              	.LVL47:
 825 0070 0490     		str	r0, [sp, #16]
 467:Drivers/lvgl/src/core/lv_obj_draw.c ****     }
 826              		.loc 1 467 16 view .LVU154
 827 0072 D8E7     		b	.L30
 828              	.L31:
 473:Drivers/lvgl/src/core/lv_obj_draw.c ****     }
 829              		.loc 1 473 9 is_stmt 1 view .LVU155
 473:Drivers/lvgl/src/core/lv_obj_draw.c ****     }
 830              		.loc 1 473 16 is_stmt 0 view .LVU156
 831 0074 2146     		mov	r1, r4
 832 0076 0198     		ldr	r0, [sp, #4]
 833 0078 FFF7FEFF 		bl	lv_color_to_32
 834              	.LVL48:
 835 007c 0490     		str	r0, [sp, #16]
 836 007e D2E7     		b	.L30
 837              		.cfi_endproc
 838              	.LFE193:
 840              		.section	.text.normal_apply_layer_recolor,"ax",%progbits
 841              		.align	1
 842              		.syntax unified
 843              		.thumb
ARM GAS  /var/folders/qx/2_175_4n2s19vhvtspjhb3qh0000gn/T//cckZJDG0.s 			page 37


 844              		.thumb_func
 846              	normal_apply_layer_recolor:
 847              	.LVL49:
 848              	.LFB192:
 434:Drivers/lvgl/src/core/lv_obj_draw.c ****     lv_color32_t recolor;
 849              		.loc 1 434 1 is_stmt 1 view -0
 850              		.cfi_startproc
 851              		@ args = 0, pretend = 0, frame = 24
 852              		@ frame_needed = 0, uses_anonymous_args = 0
 434:Drivers/lvgl/src/core/lv_obj_draw.c ****     lv_color32_t recolor;
 853              		.loc 1 434 1 is_stmt 0 view .LVU158
 854 0000 00B5     		push	{lr}
 855              	.LCFI38:
 856              		.cfi_def_cfa_offset 4
 857              		.cfi_offset 14, -4
 858 0002 87B0     		sub	sp, sp, #28
 859              	.LCFI39:
 860              		.cfi_def_cfa_offset 32
 861 0004 0193     		str	r3, [sp, #4]
 435:Drivers/lvgl/src/core/lv_obj_draw.c **** 
 862              		.loc 1 435 5 is_stmt 1 view .LVU159
 437:Drivers/lvgl/src/core/lv_obj_draw.c ****         recolor = base_dsc->layer->recolor;
 863              		.loc 1 437 5 view .LVU160
 437:Drivers/lvgl/src/core/lv_obj_draw.c ****         recolor = base_dsc->layer->recolor;
 864              		.loc 1 437 16 is_stmt 0 view .LVU161
 865 0006 1369     		ldr	r3, [r2, #16]
 437:Drivers/lvgl/src/core/lv_obj_draw.c ****         recolor = base_dsc->layer->recolor;
 866              		.loc 1 437 7 view .LVU162
 867 0008 CBB3     		cbz	r3, .L36
 438:Drivers/lvgl/src/core/lv_obj_draw.c ****         if(part != LV_PART_MAIN) {
 868              		.loc 1 438 9 is_stmt 1 view .LVU163
 438:Drivers/lvgl/src/core/lv_obj_draw.c ****         if(part != LV_PART_MAIN) {
 869              		.loc 1 438 17 is_stmt 0 view .LVU164
 870 000a 9B6C     		ldr	r3, [r3, #72]
 871 000c 0393     		str	r3, [sp, #12]
 439:Drivers/lvgl/src/core/lv_obj_draw.c ****             recolor = lv_obj_style_apply_recolor(obj, part, recolor);
 872              		.loc 1 439 9 is_stmt 1 view .LVU165
 439:Drivers/lvgl/src/core/lv_obj_draw.c ****             recolor = lv_obj_style_apply_recolor(obj, part, recolor);
 873              		.loc 1 439 11 is_stmt 0 view .LVU166
 874 000e 89BB     		cbnz	r1, .L39
 875              	.LVL50:
 876              	.L37:
 447:Drivers/lvgl/src/core/lv_obj_draw.c **** }
 877              		.loc 1 447 5 is_stmt 1 view .LVU167
 447:Drivers/lvgl/src/core/lv_obj_draw.c **** }
 878              		.loc 1 447 12 is_stmt 0 view .LVU168
 879 0010 9DF80C20 		ldrb	r2, [sp, #12]	@ zero_extendqisi2
 880 0014 9DF80D10 		ldrb	r1, [sp, #13]	@ zero_extendqisi2
 881 0018 9DF80E00 		ldrb	r0, [sp, #14]	@ zero_extendqisi2
 882 001c FFF7FEFF 		bl	lv_color_make
 883              	.LVL51:
 884 0020 8DF81400 		strb	r0, [sp, #20]
 885 0024 C0F30723 		ubfx	r3, r0, #8, #8
 886 0028 8DF81530 		strb	r3, [sp, #21]
 887 002c C0F30740 		ubfx	r0, r0, #16, #8
 888 0030 8DF81600 		strb	r0, [sp, #22]
 447:Drivers/lvgl/src/core/lv_obj_draw.c **** }
ARM GAS  /var/folders/qx/2_175_4n2s19vhvtspjhb3qh0000gn/T//cckZJDG0.s 			page 38


 889              		.loc 1 447 12 discriminator 1 view .LVU169
 890 0034 9DF80F20 		ldrb	r2, [sp, #15]	@ zero_extendqisi2
 891 0038 0199     		ldr	r1, [sp, #4]
 892 003a 0598     		ldr	r0, [sp, #20]
 893 003c FFF7FEFF 		bl	lv_color_mix
 894              	.LVL52:
 895 0040 8DF81000 		strb	r0, [sp, #16]
 896 0044 C0F30723 		ubfx	r3, r0, #8, #8
 897 0048 8DF81130 		strb	r3, [sp, #17]
 898 004c C0F30740 		ubfx	r0, r0, #16, #8
 899 0050 8DF81200 		strb	r0, [sp, #18]
 447:Drivers/lvgl/src/core/lv_obj_draw.c **** }
 900              		.loc 1 447 12 view .LVU170
 901 0054 0020     		movs	r0, #0
 902 0056 9DF81030 		ldrb	r3, [sp, #16]	@ zero_extendqisi2
 903 005a 63F30700 		bfi	r0, r3, #0, #8
 904 005e 9DF81130 		ldrb	r3, [sp, #17]	@ zero_extendqisi2
 905 0062 63F30F20 		bfi	r0, r3, #8, #8
 906 0066 9DF81230 		ldrb	r3, [sp, #18]	@ zero_extendqisi2
 907 006a 63F31740 		bfi	r0, r3, #16, #8
 448:Drivers/lvgl/src/core/lv_obj_draw.c **** 
 908              		.loc 1 448 1 view .LVU171
 909 006e 07B0     		add	sp, sp, #28
 910              	.LCFI40:
 911              		.cfi_remember_state
 912              		.cfi_def_cfa_offset 4
 913              		@ sp needed
 914 0070 5DF804FB 		ldr	pc, [sp], #4
 915              	.LVL53:
 916              	.L39:
 917              	.LCFI41:
 918              		.cfi_restore_state
 440:Drivers/lvgl/src/core/lv_obj_draw.c ****         }
 919              		.loc 1 440 13 is_stmt 1 view .LVU172
 440:Drivers/lvgl/src/core/lv_obj_draw.c ****         }
 920              		.loc 1 440 23 is_stmt 0 view .LVU173
 921 0074 1A46     		mov	r2, r3
 922              	.LVL54:
 440:Drivers/lvgl/src/core/lv_obj_draw.c ****         }
 923              		.loc 1 440 23 view .LVU174
 924 0076 FFF7FEFF 		bl	lv_obj_style_apply_recolor
 925              	.LVL55:
 440:Drivers/lvgl/src/core/lv_obj_draw.c ****         }
 926              		.loc 1 440 23 view .LVU175
 927 007a 0390     		str	r0, [sp, #12]
 928 007c C8E7     		b	.L37
 929              	.LVL56:
 930              	.L36:
 444:Drivers/lvgl/src/core/lv_obj_draw.c ****     }
 931              		.loc 1 444 9 is_stmt 1 view .LVU176
 444:Drivers/lvgl/src/core/lv_obj_draw.c ****     }
 932              		.loc 1 444 19 is_stmt 0 view .LVU177
 933 007e FFF7FEFF 		bl	lv_obj_get_style_recolor_recursive
 934              	.LVL57:
 444:Drivers/lvgl/src/core/lv_obj_draw.c ****     }
 935              		.loc 1 444 19 view .LVU178
 936 0082 0390     		str	r0, [sp, #12]
ARM GAS  /var/folders/qx/2_175_4n2s19vhvtspjhb3qh0000gn/T//cckZJDG0.s 			page 39


 937 0084 C4E7     		b	.L37
 938              		.cfi_endproc
 939              	.LFE192:
 941              		.section	.text.lv_obj_init_draw_rect_dsc,"ax",%progbits
 942              		.align	1
 943              		.global	lv_obj_init_draw_rect_dsc
 944              		.syntax unified
 945              		.thumb
 946              		.thumb_func
 948              	lv_obj_init_draw_rect_dsc:
 949              	.LVL58:
 950              	.LFB181:
  48:Drivers/lvgl/src/core/lv_obj_draw.c ****     LV_PROFILER_DRAW_BEGIN;
 951              		.loc 1 48 1 is_stmt 1 view -0
 952              		.cfi_startproc
 953              		@ args = 0, pretend = 0, frame = 16
 954              		@ frame_needed = 0, uses_anonymous_args = 0
  48:Drivers/lvgl/src/core/lv_obj_draw.c ****     LV_PROFILER_DRAW_BEGIN;
 955              		.loc 1 48 1 is_stmt 0 view .LVU180
 956 0000 F0B5     		push	{r4, r5, r6, r7, lr}
 957              	.LCFI42:
 958              		.cfi_def_cfa_offset 20
 959              		.cfi_offset 4, -20
 960              		.cfi_offset 5, -16
 961              		.cfi_offset 6, -12
 962              		.cfi_offset 7, -8
 963              		.cfi_offset 14, -4
 964 0002 87B0     		sub	sp, sp, #28
 965              	.LCFI43:
 966              		.cfi_def_cfa_offset 48
 967 0004 0746     		mov	r7, r0
 968 0006 0D46     		mov	r5, r1
 969 0008 1446     		mov	r4, r2
  49:Drivers/lvgl/src/core/lv_obj_draw.c ****     draw_dsc->base.obj = obj;
 970              		.loc 1 49 27 is_stmt 1 view .LVU181
  50:Drivers/lvgl/src/core/lv_obj_draw.c ****     draw_dsc->base.part = part;
 971              		.loc 1 50 5 view .LVU182
  50:Drivers/lvgl/src/core/lv_obj_draw.c ****     draw_dsc->base.part = part;
 972              		.loc 1 50 24 is_stmt 0 view .LVU183
 973 000a 1060     		str	r0, [r2]
  51:Drivers/lvgl/src/core/lv_obj_draw.c **** 
 974              		.loc 1 51 5 is_stmt 1 view .LVU184
  51:Drivers/lvgl/src/core/lv_obj_draw.c **** 
 975              		.loc 1 51 25 is_stmt 0 view .LVU185
 976 000c 5160     		str	r1, [r2, #4]
  53:Drivers/lvgl/src/core/lv_obj_draw.c ****     if(part != LV_PART_MAIN) {
 977              		.loc 1 53 5 is_stmt 1 view .LVU186
  53:Drivers/lvgl/src/core/lv_obj_draw.c ****     if(part != LV_PART_MAIN) {
 978              		.loc 1 53 20 is_stmt 0 view .LVU187
 979 000e FFF7FEFF 		bl	get_layer_opa
 980              	.LVL59:
  53:Drivers/lvgl/src/core/lv_obj_draw.c ****     if(part != LV_PART_MAIN) {
 981              		.loc 1 53 20 view .LVU188
 982 0012 0646     		mov	r6, r0
 983              	.LVL60:
  54:Drivers/lvgl/src/core/lv_obj_draw.c ****         if(opa <= LV_OPA_MIN) {
 984              		.loc 1 54 5 is_stmt 1 view .LVU189
ARM GAS  /var/folders/qx/2_175_4n2s19vhvtspjhb3qh0000gn/T//cckZJDG0.s 			page 40


  54:Drivers/lvgl/src/core/lv_obj_draw.c ****         if(opa <= LV_OPA_MIN) {
 985              		.loc 1 54 7 is_stmt 0 view .LVU190
 986 0014 0DB1     		cbz	r5, .L41
  55:Drivers/lvgl/src/core/lv_obj_draw.c ****             draw_dsc->bg_opa = LV_OPA_TRANSP;
 987              		.loc 1 55 9 is_stmt 1 view .LVU191
  55:Drivers/lvgl/src/core/lv_obj_draw.c ****             draw_dsc->bg_opa = LV_OPA_TRANSP;
 988              		.loc 1 55 11 is_stmt 0 view .LVU192
 989 0016 0228     		cmp	r0, #2
 990 0018 4AD9     		bls	.L53
 991              	.L41:
  66:Drivers/lvgl/src/core/lv_obj_draw.c **** 
 992              		.loc 1 66 5 is_stmt 1 view .LVU193
 993              	.LVL61:
 994              	.LBB131:
 995              	.LBI131:
 617:Drivers/lvgl/src/core/lv_obj_style_gen.h **** {
 996              		.loc 2 617 23 view .LVU194
 997              	.LBB132:
 619:Drivers/lvgl/src/core/lv_obj_style_gen.h ****     return (int32_t)v.num;
 998              		.loc 2 619 5 view .LVU195
 619:Drivers/lvgl/src/core/lv_obj_style_gen.h ****     return (int32_t)v.num;
 999              		.loc 2 619 26 is_stmt 0 view .LVU196
 1000 001a 0C22     		movs	r2, #12
 1001 001c 2946     		mov	r1, r5
 1002 001e 3846     		mov	r0, r7
 1003              	.LVL62:
 619:Drivers/lvgl/src/core/lv_obj_style_gen.h ****     return (int32_t)v.num;
 1004              		.loc 2 619 26 view .LVU197
 1005 0020 FFF7FEFF 		bl	lv_obj_get_style_prop
 1006              	.LVL63:
 1007 0024 0590     		str	r0, [sp, #20]
 620:Drivers/lvgl/src/core/lv_obj_style_gen.h **** }
 1008              		.loc 2 620 5 is_stmt 1 view .LVU198
 1009              	.LVL64:
 620:Drivers/lvgl/src/core/lv_obj_style_gen.h **** }
 1010              		.loc 2 620 5 is_stmt 0 view .LVU199
 1011              	.LBE132:
 1012              	.LBE131:
  66:Drivers/lvgl/src/core/lv_obj_draw.c **** 
 1013              		.loc 1 66 22 discriminator 1 view .LVU200
 1014 0026 E061     		str	r0, [r4, #28]
  68:Drivers/lvgl/src/core/lv_obj_draw.c ****         draw_dsc->bg_opa = lv_obj_get_style_bg_opa(obj, part);
 1015              		.loc 1 68 5 is_stmt 1 view .LVU201
  68:Drivers/lvgl/src/core/lv_obj_draw.c ****         draw_dsc->bg_opa = lv_obj_get_style_bg_opa(obj, part);
 1016              		.loc 1 68 16 is_stmt 0 view .LVU202
 1017 0028 94F82E30 		ldrb	r3, [r4, #46]	@ zero_extendqisi2
  68:Drivers/lvgl/src/core/lv_obj_draw.c ****         draw_dsc->bg_opa = lv_obj_get_style_bg_opa(obj, part);
 1018              		.loc 1 68 7 view .LVU203
 1019 002c 002B     		cmp	r3, #0
 1020 002e 4BD1     		bne	.L54
 1021              	.L43:
  92:Drivers/lvgl/src/core/lv_obj_draw.c ****         draw_dsc->border_width = lv_obj_get_style_border_width(obj, part);
 1022              		.loc 1 92 5 is_stmt 1 view .LVU204
  92:Drivers/lvgl/src/core/lv_obj_draw.c ****         draw_dsc->border_width = lv_obj_get_style_border_width(obj, part);
 1023              		.loc 1 92 16 is_stmt 0 view .LVU205
 1024 0030 94F82F30 		ldrb	r3, [r4, #47]	@ zero_extendqisi2
  92:Drivers/lvgl/src/core/lv_obj_draw.c ****         draw_dsc->border_width = lv_obj_get_style_border_width(obj, part);
ARM GAS  /var/folders/qx/2_175_4n2s19vhvtspjhb3qh0000gn/T//cckZJDG0.s 			page 41


 1025              		.loc 1 92 7 view .LVU206
 1026 0034 002B     		cmp	r3, #0
 1027 0036 40F0D880 		bne	.L55
 1028              	.L46:
 104:Drivers/lvgl/src/core/lv_obj_draw.c ****         draw_dsc->outline_width = lv_obj_get_style_outline_width(obj, part);
 1029              		.loc 1 104 5 is_stmt 1 view .LVU207
 104:Drivers/lvgl/src/core/lv_obj_draw.c ****         draw_dsc->outline_width = lv_obj_get_style_outline_width(obj, part);
 1030              		.loc 1 104 16 is_stmt 0 view .LVU208
 1031 003a 94F83030 		ldrb	r3, [r4, #48]	@ zero_extendqisi2
 104:Drivers/lvgl/src/core/lv_obj_draw.c ****         draw_dsc->outline_width = lv_obj_get_style_outline_width(obj, part);
 1032              		.loc 1 104 7 view .LVU209
 1033 003e 002B     		cmp	r3, #0
 1034 0040 40F01481 		bne	.L56
 1035              	.L47:
 116:Drivers/lvgl/src/core/lv_obj_draw.c ****         draw_dsc->bg_image_src = lv_obj_get_style_bg_image_src(obj, part);
 1036              		.loc 1 116 5 is_stmt 1 view .LVU210
 116:Drivers/lvgl/src/core/lv_obj_draw.c ****         draw_dsc->bg_image_src = lv_obj_get_style_bg_image_src(obj, part);
 1037              		.loc 1 116 16 is_stmt 0 view .LVU211
 1038 0044 94F82B30 		ldrb	r3, [r4, #43]	@ zero_extendqisi2
 116:Drivers/lvgl/src/core/lv_obj_draw.c ****         draw_dsc->bg_image_src = lv_obj_get_style_bg_image_src(obj, part);
 1039              		.loc 1 116 7 view .LVU212
 1040 0048 002B     		cmp	r3, #0
 1041 004a 40F04B81 		bne	.L57
 1042              	.L48:
 140:Drivers/lvgl/src/core/lv_obj_draw.c ****         draw_dsc->shadow_width = lv_obj_get_style_shadow_width(obj, part);
 1043              		.loc 1 140 5 is_stmt 1 view .LVU213
 140:Drivers/lvgl/src/core/lv_obj_draw.c ****         draw_dsc->shadow_width = lv_obj_get_style_shadow_width(obj, part);
 1044              		.loc 1 140 16 is_stmt 0 view .LVU214
 1045 004e 94F83130 		ldrb	r3, [r4, #49]	@ zero_extendqisi2
 140:Drivers/lvgl/src/core/lv_obj_draw.c ****         draw_dsc->shadow_width = lv_obj_get_style_shadow_width(obj, part);
 1046              		.loc 1 140 7 view .LVU215
 1047 0052 002B     		cmp	r3, #0
 1048 0054 40F0CD81 		bne	.L58
 1049              	.L51:
 156:Drivers/lvgl/src/core/lv_obj_draw.c ****         draw_dsc->bg_opa = LV_OPA_MIX2(draw_dsc->bg_opa, opa);
 1050              		.loc 1 156 5 is_stmt 1 view .LVU216
 156:Drivers/lvgl/src/core/lv_obj_draw.c ****         draw_dsc->bg_opa = LV_OPA_MIX2(draw_dsc->bg_opa, opa);
 1051              		.loc 1 156 7 is_stmt 0 view .LVU217
 1052 0058 FC2E     		cmp	r6, #252
 1053 005a 27D8     		bhi	.L40
 157:Drivers/lvgl/src/core/lv_obj_draw.c ****         draw_dsc->bg_image_opa = LV_OPA_MIX2(draw_dsc->bg_image_opa, opa);
 1054              		.loc 1 157 9 is_stmt 1 view .LVU218
 157:Drivers/lvgl/src/core/lv_obj_draw.c ****         draw_dsc->bg_image_opa = LV_OPA_MIX2(draw_dsc->bg_image_opa, opa);
 1055              		.loc 1 157 28 is_stmt 0 view .LVU219
 1056 005c 94F82E30 		ldrb	r3, [r4, #46]	@ zero_extendqisi2
 1057 0060 06FB03F3 		mul	r3, r6, r3
 1058 0064 C3F30723 		ubfx	r3, r3, #8, #8
 157:Drivers/lvgl/src/core/lv_obj_draw.c ****         draw_dsc->bg_image_opa = LV_OPA_MIX2(draw_dsc->bg_image_opa, opa);
 1059              		.loc 1 157 26 view .LVU220
 1060 0068 84F82E30 		strb	r3, [r4, #46]
 158:Drivers/lvgl/src/core/lv_obj_draw.c ****         draw_dsc->border_opa = LV_OPA_MIX2(draw_dsc->border_opa, opa);
 1061              		.loc 1 158 9 is_stmt 1 view .LVU221
 158:Drivers/lvgl/src/core/lv_obj_draw.c ****         draw_dsc->border_opa = LV_OPA_MIX2(draw_dsc->border_opa, opa);
 1062              		.loc 1 158 34 is_stmt 0 view .LVU222
 1063 006c 94F82B30 		ldrb	r3, [r4, #43]	@ zero_extendqisi2
 1064 0070 06FB03F3 		mul	r3, r6, r3
 1065 0074 C3F30723 		ubfx	r3, r3, #8, #8
ARM GAS  /var/folders/qx/2_175_4n2s19vhvtspjhb3qh0000gn/T//cckZJDG0.s 			page 42


 158:Drivers/lvgl/src/core/lv_obj_draw.c ****         draw_dsc->border_opa = LV_OPA_MIX2(draw_dsc->border_opa, opa);
 1066              		.loc 1 158 32 view .LVU223
 1067 0078 84F82B30 		strb	r3, [r4, #43]
 159:Drivers/lvgl/src/core/lv_obj_draw.c ****         draw_dsc->shadow_opa = LV_OPA_MIX2(draw_dsc->shadow_opa, opa);
 1068              		.loc 1 159 9 is_stmt 1 view .LVU224
 159:Drivers/lvgl/src/core/lv_obj_draw.c ****         draw_dsc->shadow_opa = LV_OPA_MIX2(draw_dsc->shadow_opa, opa);
 1069              		.loc 1 159 32 is_stmt 0 view .LVU225
 1070 007c 94F82F30 		ldrb	r3, [r4, #47]	@ zero_extendqisi2
 1071 0080 06FB03F3 		mul	r3, r6, r3
 1072 0084 C3F30723 		ubfx	r3, r3, #8, #8
 159:Drivers/lvgl/src/core/lv_obj_draw.c ****         draw_dsc->shadow_opa = LV_OPA_MIX2(draw_dsc->shadow_opa, opa);
 1073              		.loc 1 159 30 view .LVU226
 1074 0088 84F82F30 		strb	r3, [r4, #47]
 160:Drivers/lvgl/src/core/lv_obj_draw.c ****         draw_dsc->outline_opa = LV_OPA_MIX2(draw_dsc->outline_opa, opa);
 1075              		.loc 1 160 9 is_stmt 1 view .LVU227
 160:Drivers/lvgl/src/core/lv_obj_draw.c ****         draw_dsc->outline_opa = LV_OPA_MIX2(draw_dsc->outline_opa, opa);
 1076              		.loc 1 160 32 is_stmt 0 view .LVU228
 1077 008c 94F83130 		ldrb	r3, [r4, #49]	@ zero_extendqisi2
 1078 0090 06FB03F3 		mul	r3, r6, r3
 1079 0094 C3F30723 		ubfx	r3, r3, #8, #8
 160:Drivers/lvgl/src/core/lv_obj_draw.c ****         draw_dsc->outline_opa = LV_OPA_MIX2(draw_dsc->outline_opa, opa);
 1080              		.loc 1 160 30 view .LVU229
 1081 0098 84F83130 		strb	r3, [r4, #49]
 161:Drivers/lvgl/src/core/lv_obj_draw.c ****     }
 1082              		.loc 1 161 9 is_stmt 1 view .LVU230
 161:Drivers/lvgl/src/core/lv_obj_draw.c ****     }
 1083              		.loc 1 161 33 is_stmt 0 view .LVU231
 1084 009c 94F83030 		ldrb	r3, [r4, #48]	@ zero_extendqisi2
 1085 00a0 03FB06F6 		mul	r6, r3, r6
 1086 00a4 C6F30726 		ubfx	r6, r6, #8, #8
 161:Drivers/lvgl/src/core/lv_obj_draw.c ****     }
 1087              		.loc 1 161 31 view .LVU232
 1088 00a8 84F83060 		strb	r6, [r4, #48]
 164:Drivers/lvgl/src/core/lv_obj_draw.c **** }
 1089              		.loc 1 164 25 is_stmt 1 view .LVU233
 1090              	.L40:
 165:Drivers/lvgl/src/core/lv_obj_draw.c **** 
 1091              		.loc 1 165 1 is_stmt 0 view .LVU234
 1092 00ac 07B0     		add	sp, sp, #28
 1093              	.LCFI44:
 1094              		.cfi_remember_state
 1095              		.cfi_def_cfa_offset 20
 1096              		@ sp needed
 1097 00ae F0BD     		pop	{r4, r5, r6, r7, pc}
 1098              	.LVL65:
 1099              	.L53:
 1100              	.LCFI45:
 1101              		.cfi_restore_state
  56:Drivers/lvgl/src/core/lv_obj_draw.c ****             draw_dsc->bg_image_opa = LV_OPA_TRANSP;
 1102              		.loc 1 56 13 is_stmt 1 view .LVU235
  56:Drivers/lvgl/src/core/lv_obj_draw.c ****             draw_dsc->bg_image_opa = LV_OPA_TRANSP;
 1103              		.loc 1 56 30 is_stmt 0 view .LVU236
 1104 00b0 0023     		movs	r3, #0
 1105 00b2 84F82E30 		strb	r3, [r4, #46]
  57:Drivers/lvgl/src/core/lv_obj_draw.c ****             draw_dsc->border_opa = LV_OPA_TRANSP;
 1106              		.loc 1 57 13 is_stmt 1 view .LVU237
  57:Drivers/lvgl/src/core/lv_obj_draw.c ****             draw_dsc->border_opa = LV_OPA_TRANSP;
ARM GAS  /var/folders/qx/2_175_4n2s19vhvtspjhb3qh0000gn/T//cckZJDG0.s 			page 43


 1107              		.loc 1 57 36 is_stmt 0 view .LVU238
 1108 00b6 84F82B30 		strb	r3, [r4, #43]
  58:Drivers/lvgl/src/core/lv_obj_draw.c ****             draw_dsc->outline_opa = LV_OPA_TRANSP;
 1109              		.loc 1 58 13 is_stmt 1 view .LVU239
  58:Drivers/lvgl/src/core/lv_obj_draw.c ****             draw_dsc->outline_opa = LV_OPA_TRANSP;
 1110              		.loc 1 58 34 is_stmt 0 view .LVU240
 1111 00ba 84F82F30 		strb	r3, [r4, #47]
  59:Drivers/lvgl/src/core/lv_obj_draw.c ****             draw_dsc->shadow_opa = LV_OPA_TRANSP;
 1112              		.loc 1 59 13 is_stmt 1 view .LVU241
  59:Drivers/lvgl/src/core/lv_obj_draw.c ****             draw_dsc->shadow_opa = LV_OPA_TRANSP;
 1113              		.loc 1 59 35 is_stmt 0 view .LVU242
 1114 00be 84F83030 		strb	r3, [r4, #48]
  60:Drivers/lvgl/src/core/lv_obj_draw.c ****             LV_PROFILER_DRAW_END;
 1115              		.loc 1 60 13 is_stmt 1 view .LVU243
  60:Drivers/lvgl/src/core/lv_obj_draw.c ****             LV_PROFILER_DRAW_END;
 1116              		.loc 1 60 34 is_stmt 0 view .LVU244
 1117 00c2 84F83130 		strb	r3, [r4, #49]
  61:Drivers/lvgl/src/core/lv_obj_draw.c ****             return;
 1118              		.loc 1 61 33 is_stmt 1 view .LVU245
  62:Drivers/lvgl/src/core/lv_obj_draw.c ****         }
 1119              		.loc 1 62 13 view .LVU246
 1120 00c6 F1E7     		b	.L40
 1121              	.LVL66:
 1122              	.L54:
  69:Drivers/lvgl/src/core/lv_obj_draw.c ****         if(draw_dsc->bg_opa > LV_OPA_MIN) {
 1123              		.loc 1 69 9 view .LVU247
 1124              	.LBB133:
 1125              	.LBI133:
 232:Drivers/lvgl/src/core/lv_obj_style_gen.h **** {
 1126              		.loc 2 232 24 view .LVU248
 1127              	.LBB134:
 234:Drivers/lvgl/src/core/lv_obj_style_gen.h ****     return (lv_opa_t)v.num;
 1128              		.loc 2 234 5 view .LVU249
 234:Drivers/lvgl/src/core/lv_obj_style_gen.h ****     return (lv_opa_t)v.num;
 1129              		.loc 2 234 26 is_stmt 0 view .LVU250
 1130 00c8 1D22     		movs	r2, #29
 1131 00ca 2946     		mov	r1, r5
 1132 00cc 3846     		mov	r0, r7
 1133 00ce FFF7FEFF 		bl	lv_obj_get_style_prop
 1134              	.LVL67:
 1135 00d2 0590     		str	r0, [sp, #20]
 235:Drivers/lvgl/src/core/lv_obj_style_gen.h **** }
 1136              		.loc 2 235 5 is_stmt 1 view .LVU251
 235:Drivers/lvgl/src/core/lv_obj_style_gen.h **** }
 1137              		.loc 2 235 12 is_stmt 0 view .LVU252
 1138 00d4 C0B2     		uxtb	r0, r0
 1139              	.LVL68:
 235:Drivers/lvgl/src/core/lv_obj_style_gen.h **** }
 1140              		.loc 2 235 12 view .LVU253
 1141              	.LBE134:
 1142              	.LBE133:
  69:Drivers/lvgl/src/core/lv_obj_draw.c ****         if(draw_dsc->bg_opa > LV_OPA_MIN) {
 1143              		.loc 1 69 26 discriminator 1 view .LVU254
 1144 00d6 84F82E00 		strb	r0, [r4, #46]
  70:Drivers/lvgl/src/core/lv_obj_draw.c ****             lv_color_t bg_color = lv_obj_get_style_bg_color_filtered(obj, part);
 1145              		.loc 1 70 9 is_stmt 1 view .LVU255
  70:Drivers/lvgl/src/core/lv_obj_draw.c ****             lv_color_t bg_color = lv_obj_get_style_bg_color_filtered(obj, part);
ARM GAS  /var/folders/qx/2_175_4n2s19vhvtspjhb3qh0000gn/T//cckZJDG0.s 			page 44


 1146              		.loc 1 70 11 is_stmt 0 view .LVU256
 1147 00da 0228     		cmp	r0, #2
 1148 00dc A8D9     		bls	.L43
 1149              	.LBB135:
  71:Drivers/lvgl/src/core/lv_obj_draw.c ****             draw_dsc->bg_color = normal_apply_layer_recolor(obj, part, &draw_dsc->base, bg_color);
 1150              		.loc 1 71 13 is_stmt 1 view .LVU257
  71:Drivers/lvgl/src/core/lv_obj_draw.c ****             draw_dsc->bg_color = normal_apply_layer_recolor(obj, part, &draw_dsc->base, bg_color);
 1151              		.loc 1 71 35 is_stmt 0 view .LVU258
 1152 00de 2946     		mov	r1, r5
 1153 00e0 3846     		mov	r0, r7
 1154 00e2 FFF7FEFF 		bl	lv_obj_get_style_bg_color_filtered
 1155              	.LVL69:
 1156 00e6 8DF80C00 		strb	r0, [sp, #12]
 1157 00ea C0F30723 		ubfx	r3, r0, #8, #8
 1158 00ee 8DF80D30 		strb	r3, [sp, #13]
 1159 00f2 C0F30740 		ubfx	r0, r0, #16, #8
 1160 00f6 8DF80E00 		strb	r0, [sp, #14]
  72:Drivers/lvgl/src/core/lv_obj_draw.c ****             const lv_grad_dsc_t * grad = lv_obj_get_style_bg_grad(obj, part);
 1161              		.loc 1 72 13 is_stmt 1 view .LVU259
  72:Drivers/lvgl/src/core/lv_obj_draw.c ****             const lv_grad_dsc_t * grad = lv_obj_get_style_bg_grad(obj, part);
 1162              		.loc 1 72 34 is_stmt 0 view .LVU260
 1163 00fa 039B     		ldr	r3, [sp, #12]
 1164 00fc 2246     		mov	r2, r4
 1165 00fe 2946     		mov	r1, r5
 1166 0100 3846     		mov	r0, r7
 1167 0102 FFF7FEFF 		bl	normal_apply_layer_recolor
 1168              	.LVL70:
 1169 0106 84F83200 		strb	r0, [r4, #50]
 1170 010a C0F30723 		ubfx	r3, r0, #8, #8
 1171 010e 84F83330 		strb	r3, [r4, #51]
 1172 0112 C0F30740 		ubfx	r0, r0, #16, #8
 1173 0116 84F83400 		strb	r0, [r4, #52]
  73:Drivers/lvgl/src/core/lv_obj_draw.c ****             if(grad && grad->dir != LV_GRAD_DIR_NONE) {
 1174              		.loc 1 73 13 is_stmt 1 view .LVU261
 1175              	.LVL71:
 1176              	.LBB136:
 1177              	.LBI136:
 281:Drivers/lvgl/src/core/lv_obj_style_gen.h **** {
 1178              		.loc 2 281 37 view .LVU262
 1179              	.LBB137:
 283:Drivers/lvgl/src/core/lv_obj_style_gen.h ****     return (const lv_grad_dsc_t *)v.ptr;
 1180              		.loc 2 283 5 view .LVU263
 283:Drivers/lvgl/src/core/lv_obj_style_gen.h ****     return (const lv_grad_dsc_t *)v.ptr;
 1181              		.loc 2 283 26 is_stmt 0 view .LVU264
 1182 011a 2622     		movs	r2, #38
 1183 011c 2946     		mov	r1, r5
 1184 011e 3846     		mov	r0, r7
 1185 0120 FFF7FEFF 		bl	lv_obj_get_style_prop
 1186              	.LVL72:
 1187 0124 0590     		str	r0, [sp, #20]
 284:Drivers/lvgl/src/core/lv_obj_style_gen.h **** }
 1188              		.loc 2 284 5 is_stmt 1 view .LVU265
 1189              	.LVL73:
 284:Drivers/lvgl/src/core/lv_obj_style_gen.h **** }
 1190              		.loc 2 284 5 is_stmt 0 view .LVU266
 1191              	.LBE137:
 1192              	.LBE136:
ARM GAS  /var/folders/qx/2_175_4n2s19vhvtspjhb3qh0000gn/T//cckZJDG0.s 			page 45


  74:Drivers/lvgl/src/core/lv_obj_draw.c ****                 lv_memcpy(&draw_dsc->bg_grad, grad, sizeof(*grad));
 1193              		.loc 1 74 13 is_stmt 1 view .LVU267
  74:Drivers/lvgl/src/core/lv_obj_draw.c ****                 lv_memcpy(&draw_dsc->bg_grad, grad, sizeof(*grad));
 1194              		.loc 1 74 15 is_stmt 0 view .LVU268
 1195 0126 18B1     		cbz	r0, .L44
  74:Drivers/lvgl/src/core/lv_obj_draw.c ****                 lv_memcpy(&draw_dsc->bg_grad, grad, sizeof(*grad));
 1196              		.loc 1 74 34 discriminator 1 view .LVU269
 1197 0128 C37A     		ldrb	r3, [r0, #11]	@ zero_extendqisi2
  74:Drivers/lvgl/src/core/lv_obj_draw.c ****                 lv_memcpy(&draw_dsc->bg_grad, grad, sizeof(*grad));
 1198              		.loc 1 74 21 discriminator 1 view .LVU270
 1199 012a 13F00F0F 		tst	r3, #15
 1200 012e 55D1     		bne	.L59
 1201              	.L44:
  78:Drivers/lvgl/src/core/lv_obj_draw.c ****                 if(draw_dsc->bg_grad.dir != LV_GRAD_DIR_NONE) {
 1202              		.loc 1 78 17 is_stmt 1 view .LVU271
 1203              	.LVL74:
 1204              	.LBB138:
 1205              	.LBI138:
 251:Drivers/lvgl/src/core/lv_obj_style_gen.h **** {
 1206              		.loc 2 251 29 view .LVU272
 1207              	.LBB139:
 253:Drivers/lvgl/src/core/lv_obj_style_gen.h ****     return (lv_grad_dir_t)v.num;
 1208              		.loc 2 253 5 view .LVU273
 253:Drivers/lvgl/src/core/lv_obj_style_gen.h ****     return (lv_grad_dir_t)v.num;
 1209              		.loc 2 253 26 is_stmt 0 view .LVU274
 1210 0130 2022     		movs	r2, #32
 1211 0132 2946     		mov	r1, r5
 1212 0134 3846     		mov	r0, r7
 1213              	.LVL75:
 253:Drivers/lvgl/src/core/lv_obj_style_gen.h ****     return (lv_grad_dir_t)v.num;
 1214              		.loc 2 253 26 view .LVU275
 1215 0136 FFF7FEFF 		bl	lv_obj_get_style_prop
 1216              	.LVL76:
 253:Drivers/lvgl/src/core/lv_obj_style_gen.h ****     return (lv_grad_dir_t)v.num;
 1217              		.loc 2 253 26 view .LVU276
 1218 013a 0590     		str	r0, [sp, #20]
 254:Drivers/lvgl/src/core/lv_obj_style_gen.h **** }
 1219              		.loc 2 254 5 is_stmt 1 view .LVU277
 1220              	.LVL77:
 254:Drivers/lvgl/src/core/lv_obj_style_gen.h **** }
 1221              		.loc 2 254 5 is_stmt 0 view .LVU278
 1222              	.LBE139:
 1223              	.LBE138:
  78:Drivers/lvgl/src/core/lv_obj_draw.c ****                 if(draw_dsc->bg_grad.dir != LV_GRAD_DIR_NONE) {
 1224              		.loc 1 78 39 discriminator 1 view .LVU279
 1225 013c 94F84330 		ldrb	r3, [r4, #67]	@ zero_extendqisi2
 1226 0140 60F30303 		bfi	r3, r0, #0, #4
 1227 0144 84F84330 		strb	r3, [r4, #67]
  79:Drivers/lvgl/src/core/lv_obj_draw.c ****                     draw_dsc->bg_grad.stops[0].color = draw_dsc->bg_color;
 1228              		.loc 1 79 17 is_stmt 1 view .LVU280
  79:Drivers/lvgl/src/core/lv_obj_draw.c ****                     draw_dsc->bg_grad.stops[0].color = draw_dsc->bg_color;
 1229              		.loc 1 79 42 is_stmt 0 view .LVU281
 1230 0148 DBB2     		uxtb	r3, r3
  79:Drivers/lvgl/src/core/lv_obj_draw.c ****                     draw_dsc->bg_grad.stops[0].color = draw_dsc->bg_color;
 1231              		.loc 1 79 19 view .LVU282
 1232 014a 13F00F0F 		tst	r3, #15
 1233 014e 3FF46FAF 		beq	.L43
ARM GAS  /var/folders/qx/2_175_4n2s19vhvtspjhb3qh0000gn/T//cckZJDG0.s 			page 46


 1234              	.LBB140:
  80:Drivers/lvgl/src/core/lv_obj_draw.c ****                     lv_color_t bg_grad_color = lv_obj_get_style_bg_grad_color_filtered(obj, part);
 1235              		.loc 1 80 21 is_stmt 1 view .LVU283
  80:Drivers/lvgl/src/core/lv_obj_draw.c ****                     lv_color_t bg_grad_color = lv_obj_get_style_bg_grad_color_filtered(obj, part);
 1236              		.loc 1 80 54 is_stmt 0 view .LVU284
 1237 0152 628E     		ldrh	r2, [r4, #50]	@ unaligned
 1238 0154 94F83430 		ldrb	r3, [r4, #52]	@ zero_extendqisi2
 1239 0158 2287     		strh	r2, [r4, #56]	@ unaligned
 1240 015a 84F83A30 		strb	r3, [r4, #58]
  81:Drivers/lvgl/src/core/lv_obj_draw.c ****                     draw_dsc->bg_grad.stops[1].color = normal_apply_layer_recolor(obj, part, &draw_
 1241              		.loc 1 81 21 is_stmt 1 view .LVU285
  81:Drivers/lvgl/src/core/lv_obj_draw.c ****                     draw_dsc->bg_grad.stops[1].color = normal_apply_layer_recolor(obj, part, &draw_
 1242              		.loc 1 81 48 is_stmt 0 view .LVU286
 1243 015e 2946     		mov	r1, r5
 1244 0160 3846     		mov	r0, r7
 1245 0162 FFF7FEFF 		bl	lv_obj_get_style_bg_grad_color_filtered
 1246              	.LVL78:
 1247 0166 8DF81000 		strb	r0, [sp, #16]
 1248 016a C0F30723 		ubfx	r3, r0, #8, #8
 1249 016e 8DF81130 		strb	r3, [sp, #17]
 1250 0172 C0F30740 		ubfx	r0, r0, #16, #8
 1251 0176 8DF81200 		strb	r0, [sp, #18]
  82:Drivers/lvgl/src/core/lv_obj_draw.c ****                     draw_dsc->bg_grad.stops[0].frac = lv_obj_get_style_bg_main_stop(obj, part);
 1252              		.loc 1 82 21 is_stmt 1 view .LVU287
  82:Drivers/lvgl/src/core/lv_obj_draw.c ****                     draw_dsc->bg_grad.stops[0].frac = lv_obj_get_style_bg_main_stop(obj, part);
 1253              		.loc 1 82 56 is_stmt 0 view .LVU288
 1254 017a 049B     		ldr	r3, [sp, #16]
 1255 017c 2246     		mov	r2, r4
 1256 017e 2946     		mov	r1, r5
 1257 0180 3846     		mov	r0, r7
 1258 0182 FFF7FEFF 		bl	normal_apply_layer_recolor
 1259              	.LVL79:
 1260 0186 84F83D00 		strb	r0, [r4, #61]
 1261 018a C0F30723 		ubfx	r3, r0, #8, #8
 1262 018e 84F83E30 		strb	r3, [r4, #62]
 1263 0192 C0F30740 		ubfx	r0, r0, #16, #8
 1264 0196 84F83F00 		strb	r0, [r4, #63]
  83:Drivers/lvgl/src/core/lv_obj_draw.c ****                     draw_dsc->bg_grad.stops[1].frac = lv_obj_get_style_bg_grad_stop(obj, part);
 1265              		.loc 1 83 21 is_stmt 1 view .LVU289
 1266              	.LVL80:
 1267              	.LBB141:
 1268              	.LBI141:
 257:Drivers/lvgl/src/core/lv_obj_style_gen.h **** {
 1269              		.loc 2 257 23 view .LVU290
 1270              	.LBB142:
 259:Drivers/lvgl/src/core/lv_obj_style_gen.h ****     return (int32_t)v.num;
 1271              		.loc 2 259 5 view .LVU291
 259:Drivers/lvgl/src/core/lv_obj_style_gen.h ****     return (int32_t)v.num;
 1272              		.loc 2 259 26 is_stmt 0 view .LVU292
 1273 019a 2122     		movs	r2, #33
 1274 019c 2946     		mov	r1, r5
 1275 019e 3846     		mov	r0, r7
 1276 01a0 FFF7FEFF 		bl	lv_obj_get_style_prop
 1277              	.LVL81:
 1278 01a4 0590     		str	r0, [sp, #20]
 260:Drivers/lvgl/src/core/lv_obj_style_gen.h **** }
 1279              		.loc 2 260 5 is_stmt 1 view .LVU293
ARM GAS  /var/folders/qx/2_175_4n2s19vhvtspjhb3qh0000gn/T//cckZJDG0.s 			page 47


 1280              	.LVL82:
 260:Drivers/lvgl/src/core/lv_obj_style_gen.h **** }
 1281              		.loc 2 260 5 is_stmt 0 view .LVU294
 1282              	.LBE142:
 1283              	.LBE141:
  83:Drivers/lvgl/src/core/lv_obj_draw.c ****                     draw_dsc->bg_grad.stops[1].frac = lv_obj_get_style_bg_grad_stop(obj, part);
 1284              		.loc 1 83 53 discriminator 1 view .LVU295
 1285 01a6 84F83C00 		strb	r0, [r4, #60]
  84:Drivers/lvgl/src/core/lv_obj_draw.c ****                     draw_dsc->bg_grad.stops[0].opa = lv_obj_get_style_bg_main_opa(obj, part);
 1286              		.loc 1 84 21 is_stmt 1 view .LVU296
 1287              	.LVL83:
 1288              	.LBB143:
 1289              	.LBI143:
 263:Drivers/lvgl/src/core/lv_obj_style_gen.h **** {
 1290              		.loc 2 263 23 view .LVU297
 1291              	.LBB144:
 265:Drivers/lvgl/src/core/lv_obj_style_gen.h ****     return (int32_t)v.num;
 1292              		.loc 2 265 5 view .LVU298
 265:Drivers/lvgl/src/core/lv_obj_style_gen.h ****     return (int32_t)v.num;
 1293              		.loc 2 265 26 is_stmt 0 view .LVU299
 1294 01aa 2222     		movs	r2, #34
 1295 01ac 2946     		mov	r1, r5
 1296 01ae 3846     		mov	r0, r7
 1297 01b0 FFF7FEFF 		bl	lv_obj_get_style_prop
 1298              	.LVL84:
 1299 01b4 0590     		str	r0, [sp, #20]
 266:Drivers/lvgl/src/core/lv_obj_style_gen.h **** }
 1300              		.loc 2 266 5 is_stmt 1 view .LVU300
 1301              	.LVL85:
 266:Drivers/lvgl/src/core/lv_obj_style_gen.h **** }
 1302              		.loc 2 266 5 is_stmt 0 view .LVU301
 1303              	.LBE144:
 1304              	.LBE143:
  84:Drivers/lvgl/src/core/lv_obj_draw.c ****                     draw_dsc->bg_grad.stops[0].opa = lv_obj_get_style_bg_main_opa(obj, part);
 1305              		.loc 1 84 53 discriminator 1 view .LVU302
 1306 01b6 84F84100 		strb	r0, [r4, #65]
  85:Drivers/lvgl/src/core/lv_obj_draw.c ****                     draw_dsc->bg_grad.stops[1].opa = lv_obj_get_style_bg_grad_opa(obj, part);
 1307              		.loc 1 85 21 is_stmt 1 view .LVU303
 1308              	.LVL86:
 1309              	.LBB145:
 1310              	.LBI145:
 269:Drivers/lvgl/src/core/lv_obj_style_gen.h **** {
 1311              		.loc 2 269 24 view .LVU304
 1312              	.LBB146:
 271:Drivers/lvgl/src/core/lv_obj_style_gen.h ****     return (lv_opa_t)v.num;
 1313              		.loc 2 271 5 view .LVU305
 271:Drivers/lvgl/src/core/lv_obj_style_gen.h ****     return (lv_opa_t)v.num;
 1314              		.loc 2 271 26 is_stmt 0 view .LVU306
 1315 01ba 2422     		movs	r2, #36
 1316 01bc 2946     		mov	r1, r5
 1317 01be 3846     		mov	r0, r7
 1318 01c0 FFF7FEFF 		bl	lv_obj_get_style_prop
 1319              	.LVL87:
 1320 01c4 0590     		str	r0, [sp, #20]
 272:Drivers/lvgl/src/core/lv_obj_style_gen.h **** }
 1321              		.loc 2 272 5 is_stmt 1 view .LVU307
 1322              	.LVL88:
ARM GAS  /var/folders/qx/2_175_4n2s19vhvtspjhb3qh0000gn/T//cckZJDG0.s 			page 48


 272:Drivers/lvgl/src/core/lv_obj_style_gen.h **** }
 1323              		.loc 2 272 5 is_stmt 0 view .LVU308
 1324              	.LBE146:
 1325              	.LBE145:
  85:Drivers/lvgl/src/core/lv_obj_draw.c ****                     draw_dsc->bg_grad.stops[1].opa = lv_obj_get_style_bg_grad_opa(obj, part);
 1326              		.loc 1 85 52 discriminator 1 view .LVU309
 1327 01c6 84F83B00 		strb	r0, [r4, #59]
  86:Drivers/lvgl/src/core/lv_obj_draw.c ****                 }
 1328              		.loc 1 86 21 is_stmt 1 view .LVU310
 1329              	.LVL89:
 1330              	.LBB147:
 1331              	.LBI147:
 275:Drivers/lvgl/src/core/lv_obj_style_gen.h **** {
 1332              		.loc 2 275 24 view .LVU311
 1333              	.LBB148:
 277:Drivers/lvgl/src/core/lv_obj_style_gen.h ****     return (lv_opa_t)v.num;
 1334              		.loc 2 277 5 view .LVU312
 277:Drivers/lvgl/src/core/lv_obj_style_gen.h ****     return (lv_opa_t)v.num;
 1335              		.loc 2 277 26 is_stmt 0 view .LVU313
 1336 01ca 2522     		movs	r2, #37
 1337 01cc 2946     		mov	r1, r5
 1338 01ce 3846     		mov	r0, r7
 1339 01d0 FFF7FEFF 		bl	lv_obj_get_style_prop
 1340              	.LVL90:
 1341 01d4 0590     		str	r0, [sp, #20]
 278:Drivers/lvgl/src/core/lv_obj_style_gen.h **** }
 1342              		.loc 2 278 5 is_stmt 1 view .LVU314
 1343              	.LVL91:
 278:Drivers/lvgl/src/core/lv_obj_style_gen.h **** }
 1344              		.loc 2 278 5 is_stmt 0 view .LVU315
 1345              	.LBE148:
 1346              	.LBE147:
  86:Drivers/lvgl/src/core/lv_obj_draw.c ****                 }
 1347              		.loc 1 86 52 discriminator 1 view .LVU316
 1348 01d6 84F84000 		strb	r0, [r4, #64]
 1349 01da 29E7     		b	.L43
 1350              	.LVL92:
 1351              	.L59:
  86:Drivers/lvgl/src/core/lv_obj_draw.c ****                 }
 1352              		.loc 1 86 52 discriminator 1 view .LVU317
 1353              	.LBE140:
  75:Drivers/lvgl/src/core/lv_obj_draw.c ****             }
 1354              		.loc 1 75 17 is_stmt 1 view .LVU318
 1355 01dc 3022     		movs	r2, #48
 1356 01de 0146     		mov	r1, r0
 1357 01e0 04F13800 		add	r0, r4, #56
 1358              	.LVL93:
  75:Drivers/lvgl/src/core/lv_obj_draw.c ****             }
 1359              		.loc 1 75 17 is_stmt 0 view .LVU319
 1360 01e4 FFF7FEFF 		bl	lv_memcpy
 1361              	.LVL94:
  75:Drivers/lvgl/src/core/lv_obj_draw.c ****             }
 1362              		.loc 1 75 17 view .LVU320
 1363 01e8 22E7     		b	.L43
 1364              	.LVL95:
 1365              	.L55:
  75:Drivers/lvgl/src/core/lv_obj_draw.c ****             }
ARM GAS  /var/folders/qx/2_175_4n2s19vhvtspjhb3qh0000gn/T//cckZJDG0.s 			page 49


 1366              		.loc 1 75 17 view .LVU321
 1367              	.LBE135:
  93:Drivers/lvgl/src/core/lv_obj_draw.c ****         if(draw_dsc->border_width) {
 1368              		.loc 1 93 9 is_stmt 1 view .LVU322
 1369              	.LBB149:
 1370              	.LBI149:
 343:Drivers/lvgl/src/core/lv_obj_style_gen.h **** {
 1371              		.loc 2 343 23 view .LVU323
 1372              	.LBB150:
 345:Drivers/lvgl/src/core/lv_obj_style_gen.h ****     return (int32_t)v.num;
 1373              		.loc 2 345 5 view .LVU324
 345:Drivers/lvgl/src/core/lv_obj_style_gen.h ****     return (int32_t)v.num;
 1374              		.loc 2 345 26 is_stmt 0 view .LVU325
 1375 01ea 3022     		movs	r2, #48
 1376 01ec 2946     		mov	r1, r5
 1377 01ee 3846     		mov	r0, r7
 1378 01f0 FFF7FEFF 		bl	lv_obj_get_style_prop
 1379              	.LVL96:
 1380 01f4 0590     		str	r0, [sp, #20]
 346:Drivers/lvgl/src/core/lv_obj_style_gen.h **** }
 1381              		.loc 2 346 5 is_stmt 1 view .LVU326
 1382              	.LVL97:
 346:Drivers/lvgl/src/core/lv_obj_style_gen.h **** }
 1383              		.loc 2 346 5 is_stmt 0 view .LVU327
 1384              	.LBE150:
 1385              	.LBE149:
  93:Drivers/lvgl/src/core/lv_obj_draw.c ****         if(draw_dsc->border_width) {
 1386              		.loc 1 93 32 discriminator 1 view .LVU328
 1387 01f6 2067     		str	r0, [r4, #112]
  94:Drivers/lvgl/src/core/lv_obj_draw.c ****             draw_dsc->border_opa = lv_obj_get_style_border_opa(obj, part);
 1388              		.loc 1 94 9 is_stmt 1 view .LVU329
  94:Drivers/lvgl/src/core/lv_obj_draw.c ****             draw_dsc->border_opa = lv_obj_get_style_border_opa(obj, part);
 1389              		.loc 1 94 11 is_stmt 0 view .LVU330
 1390 01f8 0028     		cmp	r0, #0
 1391 01fa 3FF41EAF 		beq	.L46
  95:Drivers/lvgl/src/core/lv_obj_draw.c ****             if(draw_dsc->border_opa > LV_OPA_MIN) {
 1392              		.loc 1 95 13 is_stmt 1 view .LVU331
 1393              	.LVL98:
 1394              	.LBB151:
 1395              	.LBI151:
 337:Drivers/lvgl/src/core/lv_obj_style_gen.h **** {
 1396              		.loc 2 337 24 view .LVU332
 1397              	.LBB152:
 339:Drivers/lvgl/src/core/lv_obj_style_gen.h ****     return (lv_opa_t)v.num;
 1398              		.loc 2 339 5 view .LVU333
 339:Drivers/lvgl/src/core/lv_obj_style_gen.h ****     return (lv_opa_t)v.num;
 1399              		.loc 2 339 26 is_stmt 0 view .LVU334
 1400 01fe 3222     		movs	r2, #50
 1401 0200 2946     		mov	r1, r5
 1402 0202 3846     		mov	r0, r7
 1403 0204 FFF7FEFF 		bl	lv_obj_get_style_prop
 1404              	.LVL99:
 1405 0208 0590     		str	r0, [sp, #20]
 340:Drivers/lvgl/src/core/lv_obj_style_gen.h **** }
 1406              		.loc 2 340 5 is_stmt 1 view .LVU335
 340:Drivers/lvgl/src/core/lv_obj_style_gen.h **** }
 1407              		.loc 2 340 12 is_stmt 0 view .LVU336
ARM GAS  /var/folders/qx/2_175_4n2s19vhvtspjhb3qh0000gn/T//cckZJDG0.s 			page 50


 1408 020a C0B2     		uxtb	r0, r0
 1409              	.LVL100:
 340:Drivers/lvgl/src/core/lv_obj_style_gen.h **** }
 1410              		.loc 2 340 12 view .LVU337
 1411              	.LBE152:
 1412              	.LBE151:
  95:Drivers/lvgl/src/core/lv_obj_draw.c ****             if(draw_dsc->border_opa > LV_OPA_MIN) {
 1413              		.loc 1 95 34 discriminator 1 view .LVU338
 1414 020c 84F82F00 		strb	r0, [r4, #47]
  96:Drivers/lvgl/src/core/lv_obj_draw.c ****                 draw_dsc->border_side = lv_obj_get_style_border_side(obj, part);
 1415              		.loc 1 96 13 is_stmt 1 view .LVU339
  96:Drivers/lvgl/src/core/lv_obj_draw.c ****                 draw_dsc->border_side = lv_obj_get_style_border_side(obj, part);
 1416              		.loc 1 96 15 is_stmt 0 view .LVU340
 1417 0210 0228     		cmp	r0, #2
 1418 0212 7FF612AF 		bls	.L46
 1419              	.LBB153:
  97:Drivers/lvgl/src/core/lv_obj_draw.c ****                 lv_color_t border_color = lv_obj_get_style_border_color_filtered(obj, part);
 1420              		.loc 1 97 17 is_stmt 1 view .LVU341
 1421              	.LVL101:
 1422              	.LBB154:
 1423              	.LBI154:
 349:Drivers/lvgl/src/core/lv_obj_style_gen.h **** {
 1424              		.loc 2 349 32 view .LVU342
 1425              	.LBB155:
 351:Drivers/lvgl/src/core/lv_obj_style_gen.h ****     return (lv_border_side_t)v.num;
 1426              		.loc 2 351 5 view .LVU343
 351:Drivers/lvgl/src/core/lv_obj_style_gen.h ****     return (lv_border_side_t)v.num;
 1427              		.loc 2 351 26 is_stmt 0 view .LVU344
 1428 0216 3422     		movs	r2, #52
 1429 0218 2946     		mov	r1, r5
 1430 021a 3846     		mov	r0, r7
 1431 021c FFF7FEFF 		bl	lv_obj_get_style_prop
 1432              	.LVL102:
 1433 0220 0590     		str	r0, [sp, #20]
 352:Drivers/lvgl/src/core/lv_obj_style_gen.h **** }
 1434              		.loc 2 352 5 is_stmt 1 view .LVU345
 1435              	.LVL103:
 352:Drivers/lvgl/src/core/lv_obj_style_gen.h **** }
 1436              		.loc 2 352 5 is_stmt 0 view .LVU346
 1437              	.LBE155:
 1438              	.LBE154:
  97:Drivers/lvgl/src/core/lv_obj_draw.c ****                 lv_color_t border_color = lv_obj_get_style_border_color_filtered(obj, part);
 1439              		.loc 1 97 39 discriminator 1 view .LVU347
 1440 0222 94F87430 		ldrb	r3, [r4, #116]	@ zero_extendqisi2
 1441 0226 60F30403 		bfi	r3, r0, #0, #5
 1442 022a 84F87430 		strb	r3, [r4, #116]
  98:Drivers/lvgl/src/core/lv_obj_draw.c ****                 draw_dsc->border_color = normal_apply_layer_recolor(obj, part, &draw_dsc->base, bor
 1443              		.loc 1 98 17 is_stmt 1 view .LVU348
  98:Drivers/lvgl/src/core/lv_obj_draw.c ****                 draw_dsc->border_color = normal_apply_layer_recolor(obj, part, &draw_dsc->base, bor
 1444              		.loc 1 98 43 is_stmt 0 view .LVU349
 1445 022e 2946     		mov	r1, r5
 1446 0230 3846     		mov	r0, r7
 1447 0232 FFF7FEFF 		bl	lv_obj_get_style_border_color_filtered
 1448              	.LVL104:
 1449 0236 8DF81400 		strb	r0, [sp, #20]
 1450 023a C0F30723 		ubfx	r3, r0, #8, #8
 1451 023e 8DF81530 		strb	r3, [sp, #21]
ARM GAS  /var/folders/qx/2_175_4n2s19vhvtspjhb3qh0000gn/T//cckZJDG0.s 			page 51


 1452 0242 C0F30740 		ubfx	r0, r0, #16, #8
 1453 0246 8DF81600 		strb	r0, [sp, #22]
  99:Drivers/lvgl/src/core/lv_obj_draw.c ****             }
 1454              		.loc 1 99 17 is_stmt 1 view .LVU350
  99:Drivers/lvgl/src/core/lv_obj_draw.c ****             }
 1455              		.loc 1 99 42 is_stmt 0 view .LVU351
 1456 024a 059B     		ldr	r3, [sp, #20]
 1457 024c 2246     		mov	r2, r4
 1458 024e 2946     		mov	r1, r5
 1459 0250 3846     		mov	r0, r7
 1460 0252 FFF7FEFF 		bl	normal_apply_layer_recolor
 1461              	.LVL105:
 1462 0256 84F86C00 		strb	r0, [r4, #108]
 1463 025a C0F30723 		ubfx	r3, r0, #8, #8
 1464 025e 84F86D30 		strb	r3, [r4, #109]
 1465 0262 C0F30740 		ubfx	r0, r0, #16, #8
 1466 0266 84F86E00 		strb	r0, [r4, #110]
 1467 026a E6E6     		b	.L46
 1468              	.L56:
  99:Drivers/lvgl/src/core/lv_obj_draw.c ****             }
 1469              		.loc 1 99 42 view .LVU352
 1470              	.LBE153:
 105:Drivers/lvgl/src/core/lv_obj_draw.c ****         if(draw_dsc->outline_width) {
 1471              		.loc 1 105 9 is_stmt 1 view .LVU353
 1472              	.LVL106:
 1473              	.LBB156:
 1474              	.LBI156:
 361:Drivers/lvgl/src/core/lv_obj_style_gen.h **** {
 1475              		.loc 2 361 23 view .LVU354
 1476              	.LBB157:
 363:Drivers/lvgl/src/core/lv_obj_style_gen.h ****     return (int32_t)v.num;
 1477              		.loc 2 363 5 view .LVU355
 363:Drivers/lvgl/src/core/lv_obj_style_gen.h ****     return (int32_t)v.num;
 1478              		.loc 2 363 26 is_stmt 0 view .LVU356
 1479 026c 3822     		movs	r2, #56
 1480 026e 2946     		mov	r1, r5
 1481 0270 3846     		mov	r0, r7
 1482 0272 FFF7FEFF 		bl	lv_obj_get_style_prop
 1483              	.LVL107:
 1484 0276 0590     		str	r0, [sp, #20]
 364:Drivers/lvgl/src/core/lv_obj_style_gen.h **** }
 1485              		.loc 2 364 5 is_stmt 1 view .LVU357
 1486              	.LVL108:
 364:Drivers/lvgl/src/core/lv_obj_style_gen.h **** }
 1487              		.loc 2 364 5 is_stmt 0 view .LVU358
 1488              	.LBE157:
 1489              	.LBE156:
 105:Drivers/lvgl/src/core/lv_obj_draw.c ****         if(draw_dsc->outline_width) {
 1490              		.loc 1 105 33 discriminator 1 view .LVU359
 1491 0278 A067     		str	r0, [r4, #120]
 106:Drivers/lvgl/src/core/lv_obj_draw.c ****             draw_dsc->outline_opa = lv_obj_get_style_outline_opa(obj, part);
 1492              		.loc 1 106 9 is_stmt 1 view .LVU360
 106:Drivers/lvgl/src/core/lv_obj_draw.c ****             draw_dsc->outline_opa = lv_obj_get_style_outline_opa(obj, part);
 1493              		.loc 1 106 11 is_stmt 0 view .LVU361
 1494 027a 0028     		cmp	r0, #0
 1495 027c 3FF4E2AE 		beq	.L47
 107:Drivers/lvgl/src/core/lv_obj_draw.c ****             if(draw_dsc->outline_opa > LV_OPA_MIN) {
ARM GAS  /var/folders/qx/2_175_4n2s19vhvtspjhb3qh0000gn/T//cckZJDG0.s 			page 52


 1496              		.loc 1 107 13 is_stmt 1 view .LVU362
 1497              	.LVL109:
 1498              	.LBB158:
 1499              	.LBI158:
 380:Drivers/lvgl/src/core/lv_obj_style_gen.h **** {
 1500              		.loc 2 380 24 view .LVU363
 1501              	.LBB159:
 382:Drivers/lvgl/src/core/lv_obj_style_gen.h ****     return (lv_opa_t)v.num;
 1502              		.loc 2 382 5 view .LVU364
 382:Drivers/lvgl/src/core/lv_obj_style_gen.h ****     return (lv_opa_t)v.num;
 1503              		.loc 2 382 26 is_stmt 0 view .LVU365
 1504 0280 3A22     		movs	r2, #58
 1505 0282 2946     		mov	r1, r5
 1506 0284 3846     		mov	r0, r7
 1507 0286 FFF7FEFF 		bl	lv_obj_get_style_prop
 1508              	.LVL110:
 1509 028a 0590     		str	r0, [sp, #20]
 383:Drivers/lvgl/src/core/lv_obj_style_gen.h **** }
 1510              		.loc 2 383 5 is_stmt 1 view .LVU366
 383:Drivers/lvgl/src/core/lv_obj_style_gen.h **** }
 1511              		.loc 2 383 12 is_stmt 0 view .LVU367
 1512 028c C0B2     		uxtb	r0, r0
 1513              	.LVL111:
 383:Drivers/lvgl/src/core/lv_obj_style_gen.h **** }
 1514              		.loc 2 383 12 view .LVU368
 1515              	.LBE159:
 1516              	.LBE158:
 107:Drivers/lvgl/src/core/lv_obj_draw.c ****             if(draw_dsc->outline_opa > LV_OPA_MIN) {
 1517              		.loc 1 107 35 discriminator 1 view .LVU369
 1518 028e 84F83000 		strb	r0, [r4, #48]
 108:Drivers/lvgl/src/core/lv_obj_draw.c ****                 draw_dsc->outline_pad = lv_obj_get_style_outline_pad(obj, part);
 1519              		.loc 1 108 13 is_stmt 1 view .LVU370
 108:Drivers/lvgl/src/core/lv_obj_draw.c ****                 draw_dsc->outline_pad = lv_obj_get_style_outline_pad(obj, part);
 1520              		.loc 1 108 15 is_stmt 0 view .LVU371
 1521 0292 0228     		cmp	r0, #2
 1522 0294 7FF6D6AE 		bls	.L47
 1523              	.LBB160:
 109:Drivers/lvgl/src/core/lv_obj_draw.c ****                 lv_color_t outline_color = lv_obj_get_style_outline_color_filtered(obj, part);
 1524              		.loc 1 109 17 is_stmt 1 view .LVU372
 1525              	.LVL112:
 1526              	.LBB161:
 1527              	.LBI161:
 386:Drivers/lvgl/src/core/lv_obj_style_gen.h **** {
 1528              		.loc 2 386 23 view .LVU373
 1529              	.LBB162:
 388:Drivers/lvgl/src/core/lv_obj_style_gen.h ****     return (int32_t)v.num;
 1530              		.loc 2 388 5 view .LVU374
 388:Drivers/lvgl/src/core/lv_obj_style_gen.h ****     return (int32_t)v.num;
 1531              		.loc 2 388 26 is_stmt 0 view .LVU375
 1532 0298 3B22     		movs	r2, #59
 1533 029a 2946     		mov	r1, r5
 1534 029c 3846     		mov	r0, r7
 1535 029e FFF7FEFF 		bl	lv_obj_get_style_prop
 1536              	.LVL113:
 1537 02a2 0590     		str	r0, [sp, #20]
 389:Drivers/lvgl/src/core/lv_obj_style_gen.h **** }
 1538              		.loc 2 389 5 is_stmt 1 view .LVU376
ARM GAS  /var/folders/qx/2_175_4n2s19vhvtspjhb3qh0000gn/T//cckZJDG0.s 			page 53


 1539              	.LVL114:
 389:Drivers/lvgl/src/core/lv_obj_style_gen.h **** }
 1540              		.loc 2 389 5 is_stmt 0 view .LVU377
 1541              	.LBE162:
 1542              	.LBE161:
 109:Drivers/lvgl/src/core/lv_obj_draw.c ****                 lv_color_t outline_color = lv_obj_get_style_outline_color_filtered(obj, part);
 1543              		.loc 1 109 39 discriminator 1 view .LVU378
 1544 02a4 E067     		str	r0, [r4, #124]
 110:Drivers/lvgl/src/core/lv_obj_draw.c ****                 draw_dsc->outline_color = normal_apply_layer_recolor(obj, part, &draw_dsc->base, ou
 1545              		.loc 1 110 17 is_stmt 1 view .LVU379
 110:Drivers/lvgl/src/core/lv_obj_draw.c ****                 draw_dsc->outline_color = normal_apply_layer_recolor(obj, part, &draw_dsc->base, ou
 1546              		.loc 1 110 44 is_stmt 0 view .LVU380
 1547 02a6 2946     		mov	r1, r5
 1548 02a8 3846     		mov	r0, r7
 1549 02aa FFF7FEFF 		bl	lv_obj_get_style_outline_color_filtered
 1550              	.LVL115:
 1551 02ae 8DF81400 		strb	r0, [sp, #20]
 1552 02b2 C0F30723 		ubfx	r3, r0, #8, #8
 1553 02b6 8DF81530 		strb	r3, [sp, #21]
 1554 02ba C0F30740 		ubfx	r0, r0, #16, #8
 1555 02be 8DF81600 		strb	r0, [sp, #22]
 111:Drivers/lvgl/src/core/lv_obj_draw.c ****             }
 1556              		.loc 1 111 17 is_stmt 1 view .LVU381
 111:Drivers/lvgl/src/core/lv_obj_draw.c ****             }
 1557              		.loc 1 111 43 is_stmt 0 view .LVU382
 1558 02c2 059B     		ldr	r3, [sp, #20]
 1559 02c4 2246     		mov	r2, r4
 1560 02c6 2946     		mov	r1, r5
 1561 02c8 3846     		mov	r0, r7
 1562 02ca FFF7FEFF 		bl	normal_apply_layer_recolor
 1563              	.LVL116:
 1564 02ce 84F87500 		strb	r0, [r4, #117]
 1565 02d2 C0F30723 		ubfx	r3, r0, #8, #8
 1566 02d6 84F87630 		strb	r3, [r4, #118]
 1567 02da C0F30740 		ubfx	r0, r0, #16, #8
 1568 02de 84F87700 		strb	r0, [r4, #119]
 1569 02e2 AFE6     		b	.L47
 1570              	.L57:
 111:Drivers/lvgl/src/core/lv_obj_draw.c ****             }
 1571              		.loc 1 111 43 view .LVU383
 1572              	.LBE160:
 117:Drivers/lvgl/src/core/lv_obj_draw.c ****         if(draw_dsc->bg_image_src) {
 1573              		.loc 1 117 9 is_stmt 1 view .LVU384
 1574              	.LVL117:
 1575              	.LBB163:
 1576              	.LBI163:
 287:Drivers/lvgl/src/core/lv_obj_style_gen.h **** {
 1577              		.loc 2 287 28 view .LVU385
 1578              	.LBB164:
 289:Drivers/lvgl/src/core/lv_obj_style_gen.h ****     return (const void *)v.ptr;
 1579              		.loc 2 289 5 view .LVU386
 289:Drivers/lvgl/src/core/lv_obj_style_gen.h ****     return (const void *)v.ptr;
 1580              		.loc 2 289 26 is_stmt 0 view .LVU387
 1581 02e4 2822     		movs	r2, #40
 1582 02e6 2946     		mov	r1, r5
 1583 02e8 3846     		mov	r0, r7
 1584 02ea FFF7FEFF 		bl	lv_obj_get_style_prop
ARM GAS  /var/folders/qx/2_175_4n2s19vhvtspjhb3qh0000gn/T//cckZJDG0.s 			page 54


 1585              	.LVL118:
 1586 02ee 0590     		str	r0, [sp, #20]
 290:Drivers/lvgl/src/core/lv_obj_style_gen.h **** }
 1587              		.loc 2 290 5 is_stmt 1 view .LVU388
 1588              	.LVL119:
 290:Drivers/lvgl/src/core/lv_obj_style_gen.h **** }
 1589              		.loc 2 290 5 is_stmt 0 view .LVU389
 1590              	.LBE164:
 1591              	.LBE163:
 117:Drivers/lvgl/src/core/lv_obj_draw.c ****         if(draw_dsc->bg_image_src) {
 1592              		.loc 1 117 32 discriminator 1 view .LVU390
 1593 02f0 2062     		str	r0, [r4, #32]
 118:Drivers/lvgl/src/core/lv_obj_draw.c ****             draw_dsc->bg_image_opa = lv_obj_get_style_bg_image_opa(obj, part);
 1594              		.loc 1 118 9 is_stmt 1 view .LVU391
 118:Drivers/lvgl/src/core/lv_obj_draw.c ****             draw_dsc->bg_image_opa = lv_obj_get_style_bg_image_opa(obj, part);
 1595              		.loc 1 118 11 is_stmt 0 view .LVU392
 1596 02f2 0028     		cmp	r0, #0
 1597 02f4 3FF4ABAE 		beq	.L48
 119:Drivers/lvgl/src/core/lv_obj_draw.c ****             if(draw_dsc->bg_image_opa > LV_OPA_MIN) {
 1598              		.loc 1 119 13 is_stmt 1 view .LVU393
 1599              	.LVL120:
 1600              	.LBB165:
 1601              	.LBI165:
 293:Drivers/lvgl/src/core/lv_obj_style_gen.h **** {
 1602              		.loc 2 293 24 view .LVU394
 1603              	.LBB166:
 295:Drivers/lvgl/src/core/lv_obj_style_gen.h ****     return (lv_opa_t)v.num;
 1604              		.loc 2 295 5 view .LVU395
 295:Drivers/lvgl/src/core/lv_obj_style_gen.h ****     return (lv_opa_t)v.num;
 1605              		.loc 2 295 26 is_stmt 0 view .LVU396
 1606 02f8 2922     		movs	r2, #41
 1607 02fa 2946     		mov	r1, r5
 1608 02fc 3846     		mov	r0, r7
 1609 02fe FFF7FEFF 		bl	lv_obj_get_style_prop
 1610              	.LVL121:
 1611 0302 0590     		str	r0, [sp, #20]
 296:Drivers/lvgl/src/core/lv_obj_style_gen.h **** }
 1612              		.loc 2 296 5 is_stmt 1 view .LVU397
 296:Drivers/lvgl/src/core/lv_obj_style_gen.h **** }
 1613              		.loc 2 296 12 is_stmt 0 view .LVU398
 1614 0304 C0B2     		uxtb	r0, r0
 1615              	.LVL122:
 296:Drivers/lvgl/src/core/lv_obj_style_gen.h **** }
 1616              		.loc 2 296 12 view .LVU399
 1617              	.LBE166:
 1618              	.LBE165:
 119:Drivers/lvgl/src/core/lv_obj_draw.c ****             if(draw_dsc->bg_image_opa > LV_OPA_MIN) {
 1619              		.loc 1 119 36 discriminator 1 view .LVU400
 1620 0306 84F82B00 		strb	r0, [r4, #43]
 120:Drivers/lvgl/src/core/lv_obj_draw.c ****                 if(lv_image_src_get_type(draw_dsc->bg_image_src) == LV_IMAGE_SRC_SYMBOL) {
 1621              		.loc 1 120 13 is_stmt 1 view .LVU401
 120:Drivers/lvgl/src/core/lv_obj_draw.c ****                 if(lv_image_src_get_type(draw_dsc->bg_image_src) == LV_IMAGE_SRC_SYMBOL) {
 1622              		.loc 1 120 15 is_stmt 0 view .LVU402
 1623 030a 0228     		cmp	r0, #2
 1624 030c 7FF69FAE 		bls	.L48
 121:Drivers/lvgl/src/core/lv_obj_draw.c ****                     draw_dsc->bg_image_symbol_font = lv_obj_get_style_text_font(obj, part);
 1625              		.loc 1 121 17 is_stmt 1 view .LVU403
ARM GAS  /var/folders/qx/2_175_4n2s19vhvtspjhb3qh0000gn/T//cckZJDG0.s 			page 55


 121:Drivers/lvgl/src/core/lv_obj_draw.c ****                     draw_dsc->bg_image_symbol_font = lv_obj_get_style_text_font(obj, part);
 1626              		.loc 1 121 20 is_stmt 0 view .LVU404
 1627 0310 206A     		ldr	r0, [r4, #32]
 1628 0312 FFF7FEFF 		bl	lv_image_src_get_type
 1629              	.LVL123:
 121:Drivers/lvgl/src/core/lv_obj_draw.c ****                     draw_dsc->bg_image_symbol_font = lv_obj_get_style_text_font(obj, part);
 1630              		.loc 1 121 19 discriminator 1 view .LVU405
 1631 0316 0228     		cmp	r0, #2
 1632 0318 45D0     		beq	.L60
 1633              	.LBB167:
 127:Drivers/lvgl/src/core/lv_obj_draw.c ****                     lv_opa_t bg_image_recolor_opa = lv_obj_get_style_bg_image_recolor_opa(obj, part
 1634              		.loc 1 127 21 is_stmt 1 view .LVU406
 127:Drivers/lvgl/src/core/lv_obj_draw.c ****                     lv_opa_t bg_image_recolor_opa = lv_obj_get_style_bg_image_recolor_opa(obj, part
 1635              		.loc 1 127 51 is_stmt 0 view .LVU407
 1636 031a 2946     		mov	r1, r5
 1637 031c 3846     		mov	r0, r7
 1638 031e FFF7FEFF 		bl	lv_obj_get_style_bg_image_recolor_filtered
 1639              	.LVL124:
 1640 0322 8DF80C00 		strb	r0, [sp, #12]
 1641 0326 C0F30723 		ubfx	r3, r0, #8, #8
 1642 032a 8DF80D30 		strb	r3, [sp, #13]
 1643 032e C0F30740 		ubfx	r0, r0, #16, #8
 1644 0332 8DF80E00 		strb	r0, [sp, #14]
 128:Drivers/lvgl/src/core/lv_obj_draw.c ****                     lv_color32_t result = image_apply_layer_recolor(obj, part, &draw_dsc->base, bg_
 1645              		.loc 1 128 21 is_stmt 1 view .LVU408
 1646              	.LVL125:
 1647              	.LBB168:
 1648              	.LBI168:
 312:Drivers/lvgl/src/core/lv_obj_style_gen.h **** {
 1649              		.loc 2 312 24 view .LVU409
 1650              	.LBB169:
 314:Drivers/lvgl/src/core/lv_obj_style_gen.h ****     return (lv_opa_t)v.num;
 1651              		.loc 2 314 5 view .LVU410
 314:Drivers/lvgl/src/core/lv_obj_style_gen.h ****     return (lv_opa_t)v.num;
 1652              		.loc 2 314 26 is_stmt 0 view .LVU411
 1653 0336 2B22     		movs	r2, #43
 1654 0338 2946     		mov	r1, r5
 1655 033a 3846     		mov	r0, r7
 1656 033c FFF7FEFF 		bl	lv_obj_get_style_prop
 1657              	.LVL126:
 1658 0340 0590     		str	r0, [sp, #20]
 315:Drivers/lvgl/src/core/lv_obj_style_gen.h **** }
 1659              		.loc 2 315 5 is_stmt 1 view .LVU412
 315:Drivers/lvgl/src/core/lv_obj_style_gen.h **** }
 1660              		.loc 2 315 12 is_stmt 0 view .LVU413
 1661 0342 C0B2     		uxtb	r0, r0
 1662              	.LVL127:
 315:Drivers/lvgl/src/core/lv_obj_style_gen.h **** }
 1663              		.loc 2 315 12 view .LVU414
 1664              	.LBE169:
 1665              	.LBE168:
 129:Drivers/lvgl/src/core/lv_obj_draw.c ****                     draw_dsc->bg_image_recolor_opa = result.alpha;
 1666              		.loc 1 129 21 is_stmt 1 view .LVU415
 129:Drivers/lvgl/src/core/lv_obj_draw.c ****                     draw_dsc->bg_image_recolor_opa = result.alpha;
 1667              		.loc 1 129 43 is_stmt 0 view .LVU416
 1668 0344 0090     		str	r0, [sp]
 1669 0346 039B     		ldr	r3, [sp, #12]
ARM GAS  /var/folders/qx/2_175_4n2s19vhvtspjhb3qh0000gn/T//cckZJDG0.s 			page 56


 1670 0348 2246     		mov	r2, r4
 1671 034a 2946     		mov	r1, r5
 1672 034c 3846     		mov	r0, r7
 1673              	.LVL128:
 129:Drivers/lvgl/src/core/lv_obj_draw.c ****                     draw_dsc->bg_image_recolor_opa = result.alpha;
 1674              		.loc 1 129 43 view .LVU417
 1675 034e FFF7FEFF 		bl	image_apply_layer_recolor
 1676              	.LVL129:
 129:Drivers/lvgl/src/core/lv_obj_draw.c ****                     draw_dsc->bg_image_recolor_opa = result.alpha;
 1677              		.loc 1 129 43 view .LVU418
 1678 0352 0490     		str	r0, [sp, #16]
 130:Drivers/lvgl/src/core/lv_obj_draw.c ****                     draw_dsc->bg_image_recolor = lv_color_make(result.red, result.green, result.blu
 1679              		.loc 1 130 21 is_stmt 1 view .LVU419
 130:Drivers/lvgl/src/core/lv_obj_draw.c ****                     draw_dsc->bg_image_recolor = lv_color_make(result.red, result.green, result.blu
 1680              		.loc 1 130 60 is_stmt 0 view .LVU420
 1681 0354 9DF81330 		ldrb	r3, [sp, #19]	@ zero_extendqisi2
 130:Drivers/lvgl/src/core/lv_obj_draw.c ****                     draw_dsc->bg_image_recolor = lv_color_make(result.red, result.green, result.blu
 1682              		.loc 1 130 52 view .LVU421
 1683 0358 84F82C30 		strb	r3, [r4, #44]
 131:Drivers/lvgl/src/core/lv_obj_draw.c ****                     draw_dsc->bg_image_tiled = lv_obj_get_style_bg_image_tiled(obj, part);
 1684              		.loc 1 131 21 is_stmt 1 view .LVU422
 131:Drivers/lvgl/src/core/lv_obj_draw.c ****                     draw_dsc->bg_image_tiled = lv_obj_get_style_bg_image_tiled(obj, part);
 1685              		.loc 1 131 50 is_stmt 0 view .LVU423
 1686 035c 9DF81020 		ldrb	r2, [sp, #16]	@ zero_extendqisi2
 1687 0360 9DF81110 		ldrb	r1, [sp, #17]	@ zero_extendqisi2
 1688 0364 9DF81200 		ldrb	r0, [sp, #18]	@ zero_extendqisi2
 1689 0368 FFF7FEFF 		bl	lv_color_make
 1690              	.LVL130:
 1691 036c 84F82800 		strb	r0, [r4, #40]
 1692 0370 C0F30723 		ubfx	r3, r0, #8, #8
 1693 0374 84F82930 		strb	r3, [r4, #41]
 1694 0378 C0F30740 		ubfx	r0, r0, #16, #8
 1695 037c 84F82A00 		strb	r0, [r4, #42]
 132:Drivers/lvgl/src/core/lv_obj_draw.c ****                 }
 1696              		.loc 1 132 21 is_stmt 1 view .LVU424
 1697              	.LVL131:
 1698              	.LBB170:
 1699              	.LBI170:
 318:Drivers/lvgl/src/core/lv_obj_style_gen.h **** {
 1700              		.loc 2 318 20 view .LVU425
 1701              	.LBB171:
 320:Drivers/lvgl/src/core/lv_obj_style_gen.h ****     return (bool)v.num;
 1702              		.loc 2 320 5 view .LVU426
 320:Drivers/lvgl/src/core/lv_obj_style_gen.h ****     return (bool)v.num;
 1703              		.loc 2 320 26 is_stmt 0 view .LVU427
 1704 0380 2C22     		movs	r2, #44
 1705 0382 2946     		mov	r1, r5
 1706 0384 3846     		mov	r0, r7
 1707 0386 FFF7FEFF 		bl	lv_obj_get_style_prop
 1708              	.LVL132:
 1709 038a 0590     		str	r0, [sp, #20]
 321:Drivers/lvgl/src/core/lv_obj_style_gen.h **** }
 1710              		.loc 2 321 5 is_stmt 1 view .LVU428
 321:Drivers/lvgl/src/core/lv_obj_style_gen.h **** }
 1711              		.loc 2 321 12 is_stmt 0 view .LVU429
 1712 038c 0038     		subs	r0, r0, #0
 1713 038e 18BF     		it	ne
ARM GAS  /var/folders/qx/2_175_4n2s19vhvtspjhb3qh0000gn/T//cckZJDG0.s 			page 57


 1714 0390 0120     		movne	r0, #1
 1715              	.LVL133:
 321:Drivers/lvgl/src/core/lv_obj_style_gen.h **** }
 1716              		.loc 2 321 12 view .LVU430
 1717              	.LBE171:
 1718              	.LBE170:
 132:Drivers/lvgl/src/core/lv_obj_draw.c ****                 }
 1719              		.loc 1 132 46 discriminator 1 view .LVU431
 1720 0392 84F82D00 		strb	r0, [r4, #45]
 1721              	.LVL134:
 1722              	.L50:
 132:Drivers/lvgl/src/core/lv_obj_draw.c ****                 }
 1723              		.loc 1 132 46 discriminator 1 view .LVU432
 1724              	.LBE167:
 135:Drivers/lvgl/src/core/lv_obj_draw.c ****             }
 1725              		.loc 1 135 17 is_stmt 1 view .LVU433
 1726              	.LBB172:
 1727              	.LBI172:
 460:Drivers/lvgl/src/core/lv_obj_style_gen.h **** {
 1728              		.loc 2 460 43 view .LVU434
 1729              	.LBB173:
 462:Drivers/lvgl/src/core/lv_obj_style_gen.h ****     return (const lv_image_colorkey_t *)v.ptr;
 1730              		.loc 2 462 5 view .LVU435
 462:Drivers/lvgl/src/core/lv_obj_style_gen.h ****     return (const lv_image_colorkey_t *)v.ptr;
 1731              		.loc 2 462 26 is_stmt 0 view .LVU436
 1732 0396 8922     		movs	r2, #137
 1733 0398 2946     		mov	r1, r5
 1734 039a 3846     		mov	r0, r7
 1735 039c FFF7FEFF 		bl	lv_obj_get_style_prop
 1736              	.LVL135:
 1737 03a0 0590     		str	r0, [sp, #20]
 463:Drivers/lvgl/src/core/lv_obj_style_gen.h **** }
 1738              		.loc 2 463 5 is_stmt 1 view .LVU437
 1739              	.LVL136:
 463:Drivers/lvgl/src/core/lv_obj_style_gen.h **** }
 1740              		.loc 2 463 5 is_stmt 0 view .LVU438
 1741              	.LBE173:
 1742              	.LBE172:
 135:Drivers/lvgl/src/core/lv_obj_draw.c ****             }
 1743              		.loc 1 135 45 discriminator 1 view .LVU439
 1744 03a2 A066     		str	r0, [r4, #104]
 1745 03a4 53E6     		b	.L48
 1746              	.L60:
 1747              	.LBB174:
 122:Drivers/lvgl/src/core/lv_obj_draw.c ****                     lv_color_t text_color = lv_obj_get_style_text_color_filtered(obj, part);
 1748              		.loc 1 122 21 is_stmt 1 view .LVU440
 1749              	.LVL137:
 1750              	.LBB175:
 1751              	.LBI175:
 562:Drivers/lvgl/src/core/lv_obj_style_gen.h **** {
 1752              		.loc 2 562 33 view .LVU441
 1753              	.LBB176:
 564:Drivers/lvgl/src/core/lv_obj_style_gen.h ****     return (const lv_font_t *)v.ptr;
 1754              		.loc 2 564 5 view .LVU442
 564:Drivers/lvgl/src/core/lv_obj_style_gen.h ****     return (const lv_font_t *)v.ptr;
 1755              		.loc 2 564 26 is_stmt 0 view .LVU443
 1756 03a6 5A22     		movs	r2, #90
ARM GAS  /var/folders/qx/2_175_4n2s19vhvtspjhb3qh0000gn/T//cckZJDG0.s 			page 58


 1757 03a8 2946     		mov	r1, r5
 1758 03aa 3846     		mov	r0, r7
 1759 03ac FFF7FEFF 		bl	lv_obj_get_style_prop
 1760              	.LVL138:
 1761 03b0 0590     		str	r0, [sp, #20]
 565:Drivers/lvgl/src/core/lv_obj_style_gen.h **** }
 1762              		.loc 2 565 5 is_stmt 1 view .LVU444
 1763              	.LVL139:
 565:Drivers/lvgl/src/core/lv_obj_style_gen.h **** }
 1764              		.loc 2 565 5 is_stmt 0 view .LVU445
 1765              	.LBE176:
 1766              	.LBE175:
 122:Drivers/lvgl/src/core/lv_obj_draw.c ****                     lv_color_t text_color = lv_obj_get_style_text_color_filtered(obj, part);
 1767              		.loc 1 122 52 discriminator 1 view .LVU446
 1768 03b2 6062     		str	r0, [r4, #36]
 123:Drivers/lvgl/src/core/lv_obj_draw.c ****                     draw_dsc->bg_image_recolor = normal_apply_layer_recolor(obj, part, &draw_dsc->b
 1769              		.loc 1 123 21 is_stmt 1 view .LVU447
 123:Drivers/lvgl/src/core/lv_obj_draw.c ****                     draw_dsc->bg_image_recolor = normal_apply_layer_recolor(obj, part, &draw_dsc->b
 1770              		.loc 1 123 45 is_stmt 0 view .LVU448
 1771 03b4 2946     		mov	r1, r5
 1772 03b6 3846     		mov	r0, r7
 1773 03b8 FFF7FEFF 		bl	lv_obj_get_style_text_color_filtered
 1774              	.LVL140:
 1775 03bc 8DF81400 		strb	r0, [sp, #20]
 1776 03c0 C0F30723 		ubfx	r3, r0, #8, #8
 1777 03c4 8DF81530 		strb	r3, [sp, #21]
 1778 03c8 C0F30740 		ubfx	r0, r0, #16, #8
 1779 03cc 8DF81600 		strb	r0, [sp, #22]
 124:Drivers/lvgl/src/core/lv_obj_draw.c ****                 }
 1780              		.loc 1 124 21 is_stmt 1 view .LVU449
 124:Drivers/lvgl/src/core/lv_obj_draw.c ****                 }
 1781              		.loc 1 124 50 is_stmt 0 view .LVU450
 1782 03d0 059B     		ldr	r3, [sp, #20]
 1783 03d2 2246     		mov	r2, r4
 1784 03d4 2946     		mov	r1, r5
 1785 03d6 3846     		mov	r0, r7
 1786 03d8 FFF7FEFF 		bl	normal_apply_layer_recolor
 1787              	.LVL141:
 1788 03dc 84F82800 		strb	r0, [r4, #40]
 1789 03e0 C0F30723 		ubfx	r3, r0, #8, #8
 1790 03e4 84F82930 		strb	r3, [r4, #41]
 1791 03e8 C0F30740 		ubfx	r0, r0, #16, #8
 1792 03ec 84F82A00 		strb	r0, [r4, #42]
 1793              	.LBE174:
 1794 03f0 D1E7     		b	.L50
 1795              	.L58:
 141:Drivers/lvgl/src/core/lv_obj_draw.c ****         if(draw_dsc->shadow_width) {
 1796              		.loc 1 141 9 is_stmt 1 view .LVU451
 1797              	.LVL142:
 1798              	.LBB177:
 1799              	.LBI177:
 392:Drivers/lvgl/src/core/lv_obj_style_gen.h **** {
 1800              		.loc 2 392 23 view .LVU452
 1801              	.LBB178:
 394:Drivers/lvgl/src/core/lv_obj_style_gen.h ****     return (int32_t)v.num;
 1802              		.loc 2 394 5 view .LVU453
 394:Drivers/lvgl/src/core/lv_obj_style_gen.h ****     return (int32_t)v.num;
ARM GAS  /var/folders/qx/2_175_4n2s19vhvtspjhb3qh0000gn/T//cckZJDG0.s 			page 59


 1803              		.loc 2 394 26 is_stmt 0 view .LVU454
 1804 03f2 3C22     		movs	r2, #60
 1805 03f4 2946     		mov	r1, r5
 1806 03f6 3846     		mov	r0, r7
 1807 03f8 FFF7FEFF 		bl	lv_obj_get_style_prop
 1808              	.LVL143:
 1809 03fc 0590     		str	r0, [sp, #20]
 395:Drivers/lvgl/src/core/lv_obj_style_gen.h **** }
 1810              		.loc 2 395 5 is_stmt 1 view .LVU455
 1811              	.LVL144:
 395:Drivers/lvgl/src/core/lv_obj_style_gen.h **** }
 1812              		.loc 2 395 5 is_stmt 0 view .LVU456
 1813              	.LBE178:
 1814              	.LBE177:
 141:Drivers/lvgl/src/core/lv_obj_draw.c ****         if(draw_dsc->shadow_width) {
 1815              		.loc 1 141 32 discriminator 1 view .LVU457
 1816 03fe C4F88400 		str	r0, [r4, #132]
 142:Drivers/lvgl/src/core/lv_obj_draw.c ****             if(draw_dsc->shadow_opa > LV_OPA_MIN) {
 1817              		.loc 1 142 9 is_stmt 1 view .LVU458
 142:Drivers/lvgl/src/core/lv_obj_draw.c ****             if(draw_dsc->shadow_opa > LV_OPA_MIN) {
 1818              		.loc 1 142 11 is_stmt 0 view .LVU459
 1819 0402 0028     		cmp	r0, #0
 1820 0404 3FF428AE 		beq	.L51
 143:Drivers/lvgl/src/core/lv_obj_draw.c ****                 draw_dsc->shadow_opa = lv_obj_get_style_shadow_opa(obj, part);
 1821              		.loc 1 143 13 is_stmt 1 view .LVU460
 143:Drivers/lvgl/src/core/lv_obj_draw.c ****                 draw_dsc->shadow_opa = lv_obj_get_style_shadow_opa(obj, part);
 1822              		.loc 1 143 24 is_stmt 0 view .LVU461
 1823 0408 94F83130 		ldrb	r3, [r4, #49]	@ zero_extendqisi2
 143:Drivers/lvgl/src/core/lv_obj_draw.c ****                 draw_dsc->shadow_opa = lv_obj_get_style_shadow_opa(obj, part);
 1824              		.loc 1 143 15 view .LVU462
 1825 040c 022B     		cmp	r3, #2
 1826 040e 7FF623AE 		bls	.L51
 144:Drivers/lvgl/src/core/lv_obj_draw.c ****                 if(draw_dsc->shadow_opa > LV_OPA_MIN) {
 1827              		.loc 1 144 17 is_stmt 1 view .LVU463
 1828              	.LVL145:
 1829              	.LBB179:
 1830              	.LBI179:
 429:Drivers/lvgl/src/core/lv_obj_style_gen.h **** {
 1831              		.loc 2 429 24 view .LVU464
 1832              	.LBB180:
 431:Drivers/lvgl/src/core/lv_obj_style_gen.h ****     return (lv_opa_t)v.num;
 1833              		.loc 2 431 5 view .LVU465
 431:Drivers/lvgl/src/core/lv_obj_style_gen.h ****     return (lv_opa_t)v.num;
 1834              		.loc 2 431 26 is_stmt 0 view .LVU466
 1835 0412 3E22     		movs	r2, #62
 1836 0414 2946     		mov	r1, r5
 1837 0416 3846     		mov	r0, r7
 1838 0418 FFF7FEFF 		bl	lv_obj_get_style_prop
 1839              	.LVL146:
 1840 041c 0590     		str	r0, [sp, #20]
 432:Drivers/lvgl/src/core/lv_obj_style_gen.h **** }
 1841              		.loc 2 432 5 is_stmt 1 view .LVU467
 432:Drivers/lvgl/src/core/lv_obj_style_gen.h **** }
 1842              		.loc 2 432 12 is_stmt 0 view .LVU468
 1843 041e C3B2     		uxtb	r3, r0
 1844              	.LVL147:
 432:Drivers/lvgl/src/core/lv_obj_style_gen.h **** }
ARM GAS  /var/folders/qx/2_175_4n2s19vhvtspjhb3qh0000gn/T//cckZJDG0.s 			page 60


 1845              		.loc 2 432 12 view .LVU469
 1846              	.LBE180:
 1847              	.LBE179:
 144:Drivers/lvgl/src/core/lv_obj_draw.c ****                 if(draw_dsc->shadow_opa > LV_OPA_MIN) {
 1848              		.loc 1 144 38 discriminator 1 view .LVU470
 1849 0420 84F83130 		strb	r3, [r4, #49]
 145:Drivers/lvgl/src/core/lv_obj_draw.c ****                     draw_dsc->shadow_offset_x = lv_obj_get_style_shadow_offset_x(obj, part);
 1850              		.loc 1 145 17 is_stmt 1 view .LVU471
 145:Drivers/lvgl/src/core/lv_obj_draw.c ****                     draw_dsc->shadow_offset_x = lv_obj_get_style_shadow_offset_x(obj, part);
 1851              		.loc 1 145 19 is_stmt 0 view .LVU472
 1852 0424 022B     		cmp	r3, #2
 1853 0426 7FF617AE 		bls	.L51
 1854              	.LBB181:
 146:Drivers/lvgl/src/core/lv_obj_draw.c ****                     draw_dsc->shadow_offset_y = lv_obj_get_style_shadow_offset_y(obj, part);
 1855              		.loc 1 146 21 is_stmt 1 view .LVU473
 1856              	.LVL148:
 1857              	.LBB182:
 1858              	.LBI182:
 398:Drivers/lvgl/src/core/lv_obj_style_gen.h **** {
 1859              		.loc 2 398 23 view .LVU474
 1860              	.LBB183:
 400:Drivers/lvgl/src/core/lv_obj_style_gen.h ****     return (int32_t)v.num;
 1861              		.loc 2 400 5 view .LVU475
 400:Drivers/lvgl/src/core/lv_obj_style_gen.h ****     return (int32_t)v.num;
 1862              		.loc 2 400 26 is_stmt 0 view .LVU476
 1863 042a 4022     		movs	r2, #64
 1864 042c 2946     		mov	r1, r5
 1865 042e 3846     		mov	r0, r7
 1866 0430 FFF7FEFF 		bl	lv_obj_get_style_prop
 1867              	.LVL149:
 1868 0434 0590     		str	r0, [sp, #20]
 401:Drivers/lvgl/src/core/lv_obj_style_gen.h **** }
 1869              		.loc 2 401 5 is_stmt 1 view .LVU477
 1870              	.LVL150:
 401:Drivers/lvgl/src/core/lv_obj_style_gen.h **** }
 1871              		.loc 2 401 5 is_stmt 0 view .LVU478
 1872              	.LBE183:
 1873              	.LBE182:
 146:Drivers/lvgl/src/core/lv_obj_draw.c ****                     draw_dsc->shadow_offset_y = lv_obj_get_style_shadow_offset_y(obj, part);
 1874              		.loc 1 146 47 discriminator 1 view .LVU479
 1875 0436 C4F88800 		str	r0, [r4, #136]
 147:Drivers/lvgl/src/core/lv_obj_draw.c ****                     draw_dsc->shadow_spread = lv_obj_get_style_shadow_spread(obj, part);
 1876              		.loc 1 147 21 is_stmt 1 view .LVU480
 1877              	.LVL151:
 1878              	.LBB184:
 1879              	.LBI184:
 404:Drivers/lvgl/src/core/lv_obj_style_gen.h **** {
 1880              		.loc 2 404 23 view .LVU481
 1881              	.LBB185:
 406:Drivers/lvgl/src/core/lv_obj_style_gen.h ****     return (int32_t)v.num;
 1882              		.loc 2 406 5 view .LVU482
 406:Drivers/lvgl/src/core/lv_obj_style_gen.h ****     return (int32_t)v.num;
 1883              		.loc 2 406 26 is_stmt 0 view .LVU483
 1884 043a 4122     		movs	r2, #65
 1885 043c 2946     		mov	r1, r5
 1886 043e 3846     		mov	r0, r7
 1887 0440 FFF7FEFF 		bl	lv_obj_get_style_prop
ARM GAS  /var/folders/qx/2_175_4n2s19vhvtspjhb3qh0000gn/T//cckZJDG0.s 			page 61


 1888              	.LVL152:
 1889 0444 0590     		str	r0, [sp, #20]
 407:Drivers/lvgl/src/core/lv_obj_style_gen.h **** }
 1890              		.loc 2 407 5 is_stmt 1 view .LVU484
 1891              	.LVL153:
 407:Drivers/lvgl/src/core/lv_obj_style_gen.h **** }
 1892              		.loc 2 407 5 is_stmt 0 view .LVU485
 1893              	.LBE185:
 1894              	.LBE184:
 147:Drivers/lvgl/src/core/lv_obj_draw.c ****                     draw_dsc->shadow_spread = lv_obj_get_style_shadow_spread(obj, part);
 1895              		.loc 1 147 47 discriminator 1 view .LVU486
 1896 0446 C4F88C00 		str	r0, [r4, #140]
 148:Drivers/lvgl/src/core/lv_obj_draw.c ****                     lv_color_t shadow_color = lv_obj_get_style_shadow_color_filtered(obj, part);
 1897              		.loc 1 148 21 is_stmt 1 view .LVU487
 1898              	.LVL154:
 1899              	.LBB186:
 1900              	.LBI186:
 410:Drivers/lvgl/src/core/lv_obj_style_gen.h **** {
 1901              		.loc 2 410 23 view .LVU488
 1902              	.LBB187:
 412:Drivers/lvgl/src/core/lv_obj_style_gen.h ****     return (int32_t)v.num;
 1903              		.loc 2 412 5 view .LVU489
 412:Drivers/lvgl/src/core/lv_obj_style_gen.h ****     return (int32_t)v.num;
 1904              		.loc 2 412 26 is_stmt 0 view .LVU490
 1905 044a 4222     		movs	r2, #66
 1906 044c 2946     		mov	r1, r5
 1907 044e 3846     		mov	r0, r7
 1908 0450 FFF7FEFF 		bl	lv_obj_get_style_prop
 1909              	.LVL155:
 1910 0454 0590     		str	r0, [sp, #20]
 413:Drivers/lvgl/src/core/lv_obj_style_gen.h **** }
 1911              		.loc 2 413 5 is_stmt 1 view .LVU491
 1912              	.LVL156:
 413:Drivers/lvgl/src/core/lv_obj_style_gen.h **** }
 1913              		.loc 2 413 5 is_stmt 0 view .LVU492
 1914              	.LBE187:
 1915              	.LBE186:
 148:Drivers/lvgl/src/core/lv_obj_draw.c ****                     lv_color_t shadow_color = lv_obj_get_style_shadow_color_filtered(obj, part);
 1916              		.loc 1 148 45 discriminator 1 view .LVU493
 1917 0456 C4F89000 		str	r0, [r4, #144]
 149:Drivers/lvgl/src/core/lv_obj_draw.c ****                     draw_dsc->shadow_color = normal_apply_layer_recolor(obj, part, &draw_dsc->base,
 1918              		.loc 1 149 21 is_stmt 1 view .LVU494
 149:Drivers/lvgl/src/core/lv_obj_draw.c ****                     draw_dsc->shadow_color = normal_apply_layer_recolor(obj, part, &draw_dsc->base,
 1919              		.loc 1 149 47 is_stmt 0 view .LVU495
 1920 045a 2946     		mov	r1, r5
 1921 045c 3846     		mov	r0, r7
 1922 045e FFF7FEFF 		bl	lv_obj_get_style_shadow_color_filtered
 1923              	.LVL157:
 1924 0462 8DF81400 		strb	r0, [sp, #20]
 1925 0466 C0F30723 		ubfx	r3, r0, #8, #8
 1926 046a 8DF81530 		strb	r3, [sp, #21]
 1927 046e C0F30740 		ubfx	r0, r0, #16, #8
 1928 0472 8DF81600 		strb	r0, [sp, #22]
 150:Drivers/lvgl/src/core/lv_obj_draw.c ****                 }
 1929              		.loc 1 150 21 is_stmt 1 view .LVU496
 150:Drivers/lvgl/src/core/lv_obj_draw.c ****                 }
 1930              		.loc 1 150 46 is_stmt 0 view .LVU497
ARM GAS  /var/folders/qx/2_175_4n2s19vhvtspjhb3qh0000gn/T//cckZJDG0.s 			page 62


 1931 0476 059B     		ldr	r3, [sp, #20]
 1932 0478 2246     		mov	r2, r4
 1933 047a 2946     		mov	r1, r5
 1934 047c 3846     		mov	r0, r7
 1935 047e FFF7FEFF 		bl	normal_apply_layer_recolor
 1936              	.LVL158:
 1937 0482 84F88000 		strb	r0, [r4, #128]
 1938 0486 C0F30723 		ubfx	r3, r0, #8, #8
 1939 048a 84F88130 		strb	r3, [r4, #129]
 1940 048e C0F30740 		ubfx	r0, r0, #16, #8
 1941 0492 84F88200 		strb	r0, [r4, #130]
 1942 0496 DFE5     		b	.L51
 1943              	.LBE181:
 1944              		.cfi_endproc
 1945              	.LFE181:
 1947              		.section	.text.lv_obj_init_draw_label_dsc,"ax",%progbits
 1948              		.align	1
 1949              		.global	lv_obj_init_draw_label_dsc
 1950              		.syntax unified
 1951              		.thumb
 1952              		.thumb_func
 1954              	lv_obj_init_draw_label_dsc:
 1955              	.LVL159:
 1956              	.LFB182:
 168:Drivers/lvgl/src/core/lv_obj_draw.c ****     LV_PROFILER_DRAW_BEGIN;
 1957              		.loc 1 168 1 is_stmt 1 view -0
 1958              		.cfi_startproc
 1959              		@ args = 0, pretend = 0, frame = 8
 1960              		@ frame_needed = 0, uses_anonymous_args = 0
 168:Drivers/lvgl/src/core/lv_obj_draw.c ****     LV_PROFILER_DRAW_BEGIN;
 1961              		.loc 1 168 1 is_stmt 0 view .LVU499
 1962 0000 70B5     		push	{r4, r5, r6, lr}
 1963              	.LCFI46:
 1964              		.cfi_def_cfa_offset 16
 1965              		.cfi_offset 4, -16
 1966              		.cfi_offset 5, -12
 1967              		.cfi_offset 6, -8
 1968              		.cfi_offset 14, -4
 1969 0002 82B0     		sub	sp, sp, #8
 1970              	.LCFI47:
 1971              		.cfi_def_cfa_offset 24
 1972 0004 0546     		mov	r5, r0
 1973 0006 0E46     		mov	r6, r1
 1974 0008 1446     		mov	r4, r2
 169:Drivers/lvgl/src/core/lv_obj_draw.c ****     draw_dsc->base.obj = obj;
 1975              		.loc 1 169 27 is_stmt 1 view .LVU500
 170:Drivers/lvgl/src/core/lv_obj_draw.c ****     draw_dsc->base.part = part;
 1976              		.loc 1 170 5 view .LVU501
 170:Drivers/lvgl/src/core/lv_obj_draw.c ****     draw_dsc->base.part = part;
 1977              		.loc 1 170 24 is_stmt 0 view .LVU502
 1978 000a 1060     		str	r0, [r2]
 171:Drivers/lvgl/src/core/lv_obj_draw.c **** 
 1979              		.loc 1 171 5 is_stmt 1 view .LVU503
 171:Drivers/lvgl/src/core/lv_obj_draw.c **** 
 1980              		.loc 1 171 25 is_stmt 0 view .LVU504
 1981 000c 5160     		str	r1, [r2, #4]
 173:Drivers/lvgl/src/core/lv_obj_draw.c ****     if(draw_dsc->opa <= LV_OPA_MIN) {
ARM GAS  /var/folders/qx/2_175_4n2s19vhvtspjhb3qh0000gn/T//cckZJDG0.s 			page 63


 1982              		.loc 1 173 5 is_stmt 1 view .LVU505
 1983              	.LVL160:
 1984              	.LBB188:
 1985              	.LBI188:
 556:Drivers/lvgl/src/core/lv_obj_style_gen.h **** {
 1986              		.loc 2 556 24 view .LVU506
 1987              	.LBB189:
 558:Drivers/lvgl/src/core/lv_obj_style_gen.h ****     return (lv_opa_t)v.num;
 1988              		.loc 2 558 5 view .LVU507
 558:Drivers/lvgl/src/core/lv_obj_style_gen.h ****     return (lv_opa_t)v.num;
 1989              		.loc 2 558 26 is_stmt 0 view .LVU508
 1990 000e 5922     		movs	r2, #89
 1991              	.LVL161:
 558:Drivers/lvgl/src/core/lv_obj_style_gen.h ****     return (lv_opa_t)v.num;
 1992              		.loc 2 558 26 view .LVU509
 1993 0010 FFF7FEFF 		bl	lv_obj_get_style_prop
 1994              	.LVL162:
 558:Drivers/lvgl/src/core/lv_obj_style_gen.h ****     return (lv_opa_t)v.num;
 1995              		.loc 2 558 26 view .LVU510
 1996 0014 0090     		str	r0, [sp]
 559:Drivers/lvgl/src/core/lv_obj_style_gen.h **** }
 1997              		.loc 2 559 5 is_stmt 1 view .LVU511
 559:Drivers/lvgl/src/core/lv_obj_style_gen.h **** }
 1998              		.loc 2 559 12 is_stmt 0 view .LVU512
 1999 0016 C3B2     		uxtb	r3, r0
 2000              	.LVL163:
 559:Drivers/lvgl/src/core/lv_obj_style_gen.h **** }
 2001              		.loc 2 559 12 view .LVU513
 2002              	.LBE189:
 2003              	.LBE188:
 173:Drivers/lvgl/src/core/lv_obj_draw.c ****     if(draw_dsc->opa <= LV_OPA_MIN) {
 2004              		.loc 1 173 19 discriminator 1 view .LVU514
 2005 0018 84F85A30 		strb	r3, [r4, #90]
 174:Drivers/lvgl/src/core/lv_obj_draw.c ****         LV_PROFILER_DRAW_END;
 2006              		.loc 1 174 5 is_stmt 1 view .LVU515
 174:Drivers/lvgl/src/core/lv_obj_draw.c ****         LV_PROFILER_DRAW_END;
 2007              		.loc 1 174 7 is_stmt 0 view .LVU516
 2008 001c 022B     		cmp	r3, #2
 2009 001e 01D8     		bhi	.L66
 2010              	.L61:
 203:Drivers/lvgl/src/core/lv_obj_draw.c **** 
 2011              		.loc 1 203 1 view .LVU517
 2012 0020 02B0     		add	sp, sp, #8
 2013              	.LCFI48:
 2014              		.cfi_remember_state
 2015              		.cfi_def_cfa_offset 16
 2016              		@ sp needed
 2017 0022 70BD     		pop	{r4, r5, r6, pc}
 2018              	.LVL164:
 2019              	.L66:
 2020              	.LCFI49:
 2021              		.cfi_restore_state
 179:Drivers/lvgl/src/core/lv_obj_draw.c ****     if(opa < LV_OPA_MAX) {
 2022              		.loc 1 179 5 is_stmt 1 view .LVU518
 179:Drivers/lvgl/src/core/lv_obj_draw.c ****     if(opa < LV_OPA_MAX) {
 2023              		.loc 1 179 20 is_stmt 0 view .LVU519
 2024 0024 2246     		mov	r2, r4
ARM GAS  /var/folders/qx/2_175_4n2s19vhvtspjhb3qh0000gn/T//cckZJDG0.s 			page 64


 2025 0026 3146     		mov	r1, r6
 2026 0028 2846     		mov	r0, r5
 2027 002a FFF7FEFF 		bl	get_layer_opa
 2028              	.LVL165:
 180:Drivers/lvgl/src/core/lv_obj_draw.c ****         draw_dsc->opa = LV_OPA_MIX2(draw_dsc->opa, opa);
 2029              		.loc 1 180 5 is_stmt 1 view .LVU520
 180:Drivers/lvgl/src/core/lv_obj_draw.c ****         draw_dsc->opa = LV_OPA_MIX2(draw_dsc->opa, opa);
 2030              		.loc 1 180 7 is_stmt 0 view .LVU521
 2031 002e FC28     		cmp	r0, #252
 2032 0030 07D8     		bhi	.L63
 181:Drivers/lvgl/src/core/lv_obj_draw.c ****     }
 2033              		.loc 1 181 9 is_stmt 1 view .LVU522
 181:Drivers/lvgl/src/core/lv_obj_draw.c ****     }
 2034              		.loc 1 181 25 is_stmt 0 view .LVU523
 2035 0032 94F85A30 		ldrb	r3, [r4, #90]	@ zero_extendqisi2
 2036 0036 03FB00F0 		mul	r0, r3, r0
 2037              	.LVL166:
 181:Drivers/lvgl/src/core/lv_obj_draw.c ****     }
 2038              		.loc 1 181 25 view .LVU524
 2039 003a C0F30720 		ubfx	r0, r0, #8, #8
 181:Drivers/lvgl/src/core/lv_obj_draw.c ****     }
 2040              		.loc 1 181 23 view .LVU525
 2041 003e 84F85A00 		strb	r0, [r4, #90]
 2042              	.L63:
 183:Drivers/lvgl/src/core/lv_obj_draw.c ****         LV_PROFILER_DRAW_END;
 2043              		.loc 1 183 5 is_stmt 1 view .LVU526
 183:Drivers/lvgl/src/core/lv_obj_draw.c ****         LV_PROFILER_DRAW_END;
 2044              		.loc 1 183 16 is_stmt 0 view .LVU527
 2045 0042 94F85A30 		ldrb	r3, [r4, #90]	@ zero_extendqisi2
 183:Drivers/lvgl/src/core/lv_obj_draw.c ****         LV_PROFILER_DRAW_END;
 2046              		.loc 1 183 7 view .LVU528
 2047 0046 022B     		cmp	r3, #2
 2048 0048 EAD9     		bls	.L61
 188:Drivers/lvgl/src/core/lv_obj_draw.c ****     draw_dsc->color = normal_apply_layer_recolor(obj, part, &draw_dsc->base, text_color);
 2049              		.loc 1 188 5 is_stmt 1 view .LVU529
 188:Drivers/lvgl/src/core/lv_obj_draw.c ****     draw_dsc->color = normal_apply_layer_recolor(obj, part, &draw_dsc->base, text_color);
 2050              		.loc 1 188 29 is_stmt 0 view .LVU530
 2051 004a 3146     		mov	r1, r6
 2052 004c 2846     		mov	r0, r5
 2053 004e FFF7FEFF 		bl	lv_obj_get_style_text_color_filtered
 2054              	.LVL167:
 2055 0052 8DF80400 		strb	r0, [sp, #4]
 2056 0056 C0F30723 		ubfx	r3, r0, #8, #8
 2057 005a 8DF80530 		strb	r3, [sp, #5]
 2058 005e C0F30740 		ubfx	r0, r0, #16, #8
 2059 0062 8DF80600 		strb	r0, [sp, #6]
 189:Drivers/lvgl/src/core/lv_obj_draw.c ****     draw_dsc->letter_space = lv_obj_get_style_text_letter_space(obj, part);
 2060              		.loc 1 189 5 is_stmt 1 view .LVU531
 189:Drivers/lvgl/src/core/lv_obj_draw.c ****     draw_dsc->letter_space = lv_obj_get_style_text_letter_space(obj, part);
 2061              		.loc 1 189 23 is_stmt 0 view .LVU532
 2062 0066 019B     		ldr	r3, [sp, #4]
 2063 0068 2246     		mov	r2, r4
 2064 006a 3146     		mov	r1, r6
 2065 006c 2846     		mov	r0, r5
 2066 006e FFF7FEFF 		bl	normal_apply_layer_recolor
 2067              	.LVL168:
 2068 0072 84F82C00 		strb	r0, [r4, #44]
ARM GAS  /var/folders/qx/2_175_4n2s19vhvtspjhb3qh0000gn/T//cckZJDG0.s 			page 65


 2069 0076 C0F30723 		ubfx	r3, r0, #8, #8
 2070 007a 84F82D30 		strb	r3, [r4, #45]
 2071 007e C0F30740 		ubfx	r0, r0, #16, #8
 2072 0082 84F82E00 		strb	r0, [r4, #46]
 190:Drivers/lvgl/src/core/lv_obj_draw.c ****     draw_dsc->line_space = lv_obj_get_style_text_line_space(obj, part);
 2073              		.loc 1 190 5 is_stmt 1 view .LVU533
 2074              	.LVL169:
 2075              	.LBB190:
 2076              	.LBI190:
 568:Drivers/lvgl/src/core/lv_obj_style_gen.h **** {
 2077              		.loc 2 568 23 view .LVU534
 2078              	.LBB191:
 570:Drivers/lvgl/src/core/lv_obj_style_gen.h ****     return (int32_t)v.num;
 2079              		.loc 2 570 5 view .LVU535
 570:Drivers/lvgl/src/core/lv_obj_style_gen.h ****     return (int32_t)v.num;
 2080              		.loc 2 570 26 is_stmt 0 view .LVU536
 2081 0086 5B22     		movs	r2, #91
 2082 0088 3146     		mov	r1, r6
 2083 008a 2846     		mov	r0, r5
 2084 008c FFF7FEFF 		bl	lv_obj_get_style_prop
 2085              	.LVL170:
 2086 0090 0090     		str	r0, [sp]
 571:Drivers/lvgl/src/core/lv_obj_style_gen.h **** }
 2087              		.loc 2 571 5 is_stmt 1 view .LVU537
 2088              	.LVL171:
 571:Drivers/lvgl/src/core/lv_obj_style_gen.h **** }
 2089              		.loc 2 571 5 is_stmt 0 view .LVU538
 2090              	.LBE191:
 2091              	.LBE190:
 190:Drivers/lvgl/src/core/lv_obj_draw.c ****     draw_dsc->line_space = lv_obj_get_style_text_line_space(obj, part);
 2092              		.loc 1 190 28 discriminator 1 view .LVU539
 2093 0092 6063     		str	r0, [r4, #52]
 191:Drivers/lvgl/src/core/lv_obj_draw.c ****     draw_dsc->decor = lv_obj_get_style_text_decor(obj, part);
 2094              		.loc 1 191 5 is_stmt 1 view .LVU540
 2095              	.LVL172:
 2096              	.LBB192:
 2097              	.LBI192:
 574:Drivers/lvgl/src/core/lv_obj_style_gen.h **** {
 2098              		.loc 2 574 23 view .LVU541
 2099              	.LBB193:
 576:Drivers/lvgl/src/core/lv_obj_style_gen.h ****     return (int32_t)v.num;
 2100              		.loc 2 576 5 view .LVU542
 576:Drivers/lvgl/src/core/lv_obj_style_gen.h ****     return (int32_t)v.num;
 2101              		.loc 2 576 26 is_stmt 0 view .LVU543
 2102 0094 5C22     		movs	r2, #92
 2103 0096 3146     		mov	r1, r6
 2104 0098 2846     		mov	r0, r5
 2105 009a FFF7FEFF 		bl	lv_obj_get_style_prop
 2106              	.LVL173:
 2107 009e 0090     		str	r0, [sp]
 577:Drivers/lvgl/src/core/lv_obj_style_gen.h **** }
 2108              		.loc 2 577 5 is_stmt 1 view .LVU544
 2109              	.LVL174:
 577:Drivers/lvgl/src/core/lv_obj_style_gen.h **** }
 2110              		.loc 2 577 5 is_stmt 0 view .LVU545
 2111              	.LBE193:
 2112              	.LBE192:
ARM GAS  /var/folders/qx/2_175_4n2s19vhvtspjhb3qh0000gn/T//cckZJDG0.s 			page 66


 191:Drivers/lvgl/src/core/lv_obj_draw.c ****     draw_dsc->decor = lv_obj_get_style_text_decor(obj, part);
 2113              		.loc 1 191 26 discriminator 1 view .LVU546
 2114 00a0 2063     		str	r0, [r4, #48]
 192:Drivers/lvgl/src/core/lv_obj_draw.c **** 
 2115              		.loc 1 192 5 is_stmt 1 view .LVU547
 2116              	.LVL175:
 2117              	.LBB194:
 2118              	.LBI194:
 580:Drivers/lvgl/src/core/lv_obj_style_gen.h **** {
 2119              		.loc 2 580 31 view .LVU548
 2120              	.LBB195:
 582:Drivers/lvgl/src/core/lv_obj_style_gen.h ****     return (lv_text_decor_t)v.num;
 2121              		.loc 2 582 5 view .LVU549
 582:Drivers/lvgl/src/core/lv_obj_style_gen.h ****     return (lv_text_decor_t)v.num;
 2122              		.loc 2 582 26 is_stmt 0 view .LVU550
 2123 00a2 5D22     		movs	r2, #93
 2124 00a4 3146     		mov	r1, r6
 2125 00a6 2846     		mov	r0, r5
 2126 00a8 FFF7FEFF 		bl	lv_obj_get_style_prop
 2127              	.LVL176:
 2128 00ac 0090     		str	r0, [sp]
 583:Drivers/lvgl/src/core/lv_obj_style_gen.h **** }
 2129              		.loc 2 583 5 is_stmt 1 view .LVU551
 2130              	.LVL177:
 583:Drivers/lvgl/src/core/lv_obj_style_gen.h **** }
 2131              		.loc 2 583 5 is_stmt 0 view .LVU552
 2132              	.LBE195:
 2133              	.LBE194:
 192:Drivers/lvgl/src/core/lv_obj_draw.c **** 
 2134              		.loc 1 192 21 discriminator 1 view .LVU553
 2135 00ae 94F85C30 		ldrb	r3, [r4, #92]	@ zero_extendqisi2
 2136 00b2 60F30203 		bfi	r3, r0, #0, #3
 2137 00b6 84F85C30 		strb	r3, [r4, #92]
 194:Drivers/lvgl/src/core/lv_obj_draw.c **** 
 2138              		.loc 1 194 5 is_stmt 1 view .LVU554
 2139              	.LVL178:
 2140              	.LBB196:
 2141              	.LBI196:
 562:Drivers/lvgl/src/core/lv_obj_style_gen.h **** {
 2142              		.loc 2 562 33 view .LVU555
 2143              	.LBB197:
 564:Drivers/lvgl/src/core/lv_obj_style_gen.h ****     return (const lv_font_t *)v.ptr;
 2144              		.loc 2 564 5 view .LVU556
 564:Drivers/lvgl/src/core/lv_obj_style_gen.h ****     return (const lv_font_t *)v.ptr;
 2145              		.loc 2 564 26 is_stmt 0 view .LVU557
 2146 00ba 5A22     		movs	r2, #90
 2147 00bc 3146     		mov	r1, r6
 2148 00be 2846     		mov	r0, r5
 2149 00c0 FFF7FEFF 		bl	lv_obj_get_style_prop
 2150              	.LVL179:
 2151 00c4 0090     		str	r0, [sp]
 565:Drivers/lvgl/src/core/lv_obj_style_gen.h **** }
 2152              		.loc 2 565 5 is_stmt 1 view .LVU558
 2153              	.LVL180:
 565:Drivers/lvgl/src/core/lv_obj_style_gen.h **** }
 2154              		.loc 2 565 5 is_stmt 0 view .LVU559
 2155              	.LBE197:
ARM GAS  /var/folders/qx/2_175_4n2s19vhvtspjhb3qh0000gn/T//cckZJDG0.s 			page 67


 2156              	.LBE196:
 194:Drivers/lvgl/src/core/lv_obj_draw.c **** 
 2157              		.loc 1 194 20 discriminator 1 view .LVU560
 2158 00c6 A062     		str	r0, [r4, #40]
 200:Drivers/lvgl/src/core/lv_obj_draw.c **** 
 2159              		.loc 1 200 5 is_stmt 1 view .LVU561
 2160              	.LVL181:
 2161              	.LBB198:
 2162              	.LBI198:
 586:Drivers/lvgl/src/core/lv_obj_style_gen.h **** {
 2163              		.loc 2 586 31 view .LVU562
 2164              	.LBB199:
 588:Drivers/lvgl/src/core/lv_obj_style_gen.h ****     return (lv_text_align_t)v.num;
 2165              		.loc 2 588 5 view .LVU563
 588:Drivers/lvgl/src/core/lv_obj_style_gen.h ****     return (lv_text_align_t)v.num;
 2166              		.loc 2 588 26 is_stmt 0 view .LVU564
 2167 00c8 5E22     		movs	r2, #94
 2168 00ca 3146     		mov	r1, r6
 2169 00cc 2846     		mov	r0, r5
 2170 00ce FFF7FEFF 		bl	lv_obj_get_style_prop
 2171              	.LVL182:
 2172 00d2 0090     		str	r0, [sp]
 589:Drivers/lvgl/src/core/lv_obj_style_gen.h **** }
 2173              		.loc 2 589 5 is_stmt 1 view .LVU565
 2174              	.LVL183:
 589:Drivers/lvgl/src/core/lv_obj_style_gen.h **** }
 2175              		.loc 2 589 5 is_stmt 0 view .LVU566
 2176              	.LBE199:
 2177              	.LBE198:
 200:Drivers/lvgl/src/core/lv_obj_draw.c **** 
 2178              		.loc 1 200 21 discriminator 1 view .LVU567
 2179 00d4 84F85800 		strb	r0, [r4, #88]
 202:Drivers/lvgl/src/core/lv_obj_draw.c **** }
 2180              		.loc 1 202 25 is_stmt 1 view .LVU568
 2181 00d8 A2E7     		b	.L61
 2182              		.cfi_endproc
 2183              	.LFE182:
 2185              		.section	.text.lv_obj_init_draw_image_dsc,"ax",%progbits
 2186              		.align	1
 2187              		.global	lv_obj_init_draw_image_dsc
 2188              		.syntax unified
 2189              		.thumb
 2190              		.thumb_func
 2192              	lv_obj_init_draw_image_dsc:
 2193              	.LVL184:
 2194              	.LFB183:
 206:Drivers/lvgl/src/core/lv_obj_draw.c ****     LV_PROFILER_DRAW_BEGIN;
 2195              		.loc 1 206 1 view -0
 2196              		.cfi_startproc
 2197              		@ args = 0, pretend = 0, frame = 16
 2198              		@ frame_needed = 0, uses_anonymous_args = 0
 206:Drivers/lvgl/src/core/lv_obj_draw.c ****     LV_PROFILER_DRAW_BEGIN;
 2199              		.loc 1 206 1 is_stmt 0 view .LVU570
 2200 0000 F0B5     		push	{r4, r5, r6, r7, lr}
 2201              	.LCFI50:
 2202              		.cfi_def_cfa_offset 20
 2203              		.cfi_offset 4, -20
ARM GAS  /var/folders/qx/2_175_4n2s19vhvtspjhb3qh0000gn/T//cckZJDG0.s 			page 68


 2204              		.cfi_offset 5, -16
 2205              		.cfi_offset 6, -12
 2206              		.cfi_offset 7, -8
 2207              		.cfi_offset 14, -4
 2208 0002 87B0     		sub	sp, sp, #28
 2209              	.LCFI51:
 2210              		.cfi_def_cfa_offset 48
 2211 0004 0546     		mov	r5, r0
 2212 0006 0E46     		mov	r6, r1
 2213 0008 1446     		mov	r4, r2
 207:Drivers/lvgl/src/core/lv_obj_draw.c ****     draw_dsc->base.obj = obj;
 2214              		.loc 1 207 27 is_stmt 1 view .LVU571
 208:Drivers/lvgl/src/core/lv_obj_draw.c ****     draw_dsc->base.part = part;
 2215              		.loc 1 208 5 view .LVU572
 208:Drivers/lvgl/src/core/lv_obj_draw.c ****     draw_dsc->base.part = part;
 2216              		.loc 1 208 24 is_stmt 0 view .LVU573
 2217 000a 1060     		str	r0, [r2]
 209:Drivers/lvgl/src/core/lv_obj_draw.c **** 
 2218              		.loc 1 209 5 is_stmt 1 view .LVU574
 209:Drivers/lvgl/src/core/lv_obj_draw.c **** 
 2219              		.loc 1 209 25 is_stmt 0 view .LVU575
 2220 000c 5160     		str	r1, [r2, #4]
 211:Drivers/lvgl/src/core/lv_obj_draw.c ****     if(draw_dsc->opa <= LV_OPA_MIN) {
 2221              		.loc 1 211 5 is_stmt 1 view .LVU576
 2222              	.LVL185:
 2223              	.LBB200:
 2224              	.LBI200:
 435:Drivers/lvgl/src/core/lv_obj_style_gen.h **** {
 2225              		.loc 2 435 24 view .LVU577
 2226              	.LBB201:
 437:Drivers/lvgl/src/core/lv_obj_style_gen.h ****     return (lv_opa_t)v.num;
 2227              		.loc 2 437 5 view .LVU578
 437:Drivers/lvgl/src/core/lv_obj_style_gen.h ****     return (lv_opa_t)v.num;
 2228              		.loc 2 437 26 is_stmt 0 view .LVU579
 2229 000e 4422     		movs	r2, #68
 2230              	.LVL186:
 437:Drivers/lvgl/src/core/lv_obj_style_gen.h ****     return (lv_opa_t)v.num;
 2231              		.loc 2 437 26 view .LVU580
 2232 0010 FFF7FEFF 		bl	lv_obj_get_style_prop
 2233              	.LVL187:
 437:Drivers/lvgl/src/core/lv_obj_style_gen.h ****     return (lv_opa_t)v.num;
 2234              		.loc 2 437 26 view .LVU581
 2235 0014 0390     		str	r0, [sp, #12]
 438:Drivers/lvgl/src/core/lv_obj_style_gen.h **** }
 2236              		.loc 2 438 5 is_stmt 1 view .LVU582
 438:Drivers/lvgl/src/core/lv_obj_style_gen.h **** }
 2237              		.loc 2 438 12 is_stmt 0 view .LVU583
 2238 0016 C3B2     		uxtb	r3, r0
 2239              	.LVL188:
 438:Drivers/lvgl/src/core/lv_obj_style_gen.h **** }
 2240              		.loc 2 438 12 view .LVU584
 2241              	.LBE201:
 2242              	.LBE200:
 211:Drivers/lvgl/src/core/lv_obj_draw.c ****     if(draw_dsc->opa <= LV_OPA_MIN) {
 2243              		.loc 1 211 19 discriminator 1 view .LVU585
 2244 0018 84F85030 		strb	r3, [r4, #80]
 212:Drivers/lvgl/src/core/lv_obj_draw.c ****         LV_PROFILER_DRAW_END;
ARM GAS  /var/folders/qx/2_175_4n2s19vhvtspjhb3qh0000gn/T//cckZJDG0.s 			page 69


 2245              		.loc 1 212 5 is_stmt 1 view .LVU586
 212:Drivers/lvgl/src/core/lv_obj_draw.c ****         LV_PROFILER_DRAW_END;
 2246              		.loc 1 212 7 is_stmt 0 view .LVU587
 2247 001c 022B     		cmp	r3, #2
 2248 001e 01D8     		bhi	.L73
 2249              	.L67:
 243:Drivers/lvgl/src/core/lv_obj_draw.c **** 
 2250              		.loc 1 243 1 view .LVU588
 2251 0020 07B0     		add	sp, sp, #28
 2252              	.LCFI52:
 2253              		.cfi_remember_state
 2254              		.cfi_def_cfa_offset 20
 2255              		@ sp needed
 2256 0022 F0BD     		pop	{r4, r5, r6, r7, pc}
 2257              	.LVL189:
 2258              	.L73:
 2259              	.LCFI53:
 2260              		.cfi_restore_state
 217:Drivers/lvgl/src/core/lv_obj_draw.c ****     if(opa < LV_OPA_MAX) {
 2261              		.loc 1 217 5 is_stmt 1 view .LVU589
 217:Drivers/lvgl/src/core/lv_obj_draw.c ****     if(opa < LV_OPA_MAX) {
 2262              		.loc 1 217 20 is_stmt 0 view .LVU590
 2263 0024 2246     		mov	r2, r4
 2264 0026 3146     		mov	r1, r6
 2265 0028 2846     		mov	r0, r5
 2266 002a FFF7FEFF 		bl	get_layer_opa
 2267              	.LVL190:
 218:Drivers/lvgl/src/core/lv_obj_draw.c ****         draw_dsc->opa = LV_OPA_MIX2(draw_dsc->opa, opa);
 2268              		.loc 1 218 5 is_stmt 1 view .LVU591
 218:Drivers/lvgl/src/core/lv_obj_draw.c ****         draw_dsc->opa = LV_OPA_MIX2(draw_dsc->opa, opa);
 2269              		.loc 1 218 7 is_stmt 0 view .LVU592
 2270 002e FC28     		cmp	r0, #252
 2271 0030 07D8     		bhi	.L69
 219:Drivers/lvgl/src/core/lv_obj_draw.c ****     }
 2272              		.loc 1 219 9 is_stmt 1 view .LVU593
 219:Drivers/lvgl/src/core/lv_obj_draw.c ****     }
 2273              		.loc 1 219 25 is_stmt 0 view .LVU594
 2274 0032 94F85030 		ldrb	r3, [r4, #80]	@ zero_extendqisi2
 2275 0036 03FB00F0 		mul	r0, r3, r0
 2276              	.LVL191:
 219:Drivers/lvgl/src/core/lv_obj_draw.c ****     }
 2277              		.loc 1 219 25 view .LVU595
 2278 003a C0F30720 		ubfx	r0, r0, #8, #8
 219:Drivers/lvgl/src/core/lv_obj_draw.c ****     }
 2279              		.loc 1 219 23 view .LVU596
 2280 003e 84F85000 		strb	r0, [r4, #80]
 2281              	.L69:
 221:Drivers/lvgl/src/core/lv_obj_draw.c ****         LV_PROFILER_DRAW_END;
 2282              		.loc 1 221 5 is_stmt 1 view .LVU597
 221:Drivers/lvgl/src/core/lv_obj_draw.c ****         LV_PROFILER_DRAW_END;
 2283              		.loc 1 221 16 is_stmt 0 view .LVU598
 2284 0042 94F85030 		ldrb	r3, [r4, #80]	@ zero_extendqisi2
 221:Drivers/lvgl/src/core/lv_obj_draw.c ****         LV_PROFILER_DRAW_END;
 2285              		.loc 1 221 7 view .LVU599
 2286 0046 022B     		cmp	r3, #2
 2287 0048 EAD9     		bls	.L67
 226:Drivers/lvgl/src/core/lv_obj_draw.c ****     draw_dsc->scale_x = LV_SCALE_NONE;
ARM GAS  /var/folders/qx/2_175_4n2s19vhvtspjhb3qh0000gn/T//cckZJDG0.s 			page 70


 2288              		.loc 1 226 5 is_stmt 1 view .LVU600
 226:Drivers/lvgl/src/core/lv_obj_draw.c ****     draw_dsc->scale_x = LV_SCALE_NONE;
 2289              		.loc 1 226 24 is_stmt 0 view .LVU601
 2290 004a 0023     		movs	r3, #0
 2291 004c 2363     		str	r3, [r4, #48]
 227:Drivers/lvgl/src/core/lv_obj_draw.c ****     draw_dsc->scale_y = LV_SCALE_NONE;
 2292              		.loc 1 227 5 is_stmt 1 view .LVU602
 227:Drivers/lvgl/src/core/lv_obj_draw.c ****     draw_dsc->scale_y = LV_SCALE_NONE;
 2293              		.loc 1 227 23 is_stmt 0 view .LVU603
 2294 004e 4FF48073 		mov	r3, #256
 2295 0052 6363     		str	r3, [r4, #52]
 228:Drivers/lvgl/src/core/lv_obj_draw.c ****     draw_dsc->pivot.x = lv_area_get_width(&obj->coords) / 2;
 2296              		.loc 1 228 5 is_stmt 1 view .LVU604
 228:Drivers/lvgl/src/core/lv_obj_draw.c ****     draw_dsc->pivot.x = lv_area_get_width(&obj->coords) / 2;
 2297              		.loc 1 228 23 is_stmt 0 view .LVU605
 2298 0054 A363     		str	r3, [r4, #56]
 229:Drivers/lvgl/src/core/lv_obj_draw.c ****     draw_dsc->pivot.y = lv_area_get_height(&obj->coords) / 2;
 2299              		.loc 1 229 5 is_stmt 1 view .LVU606
 229:Drivers/lvgl/src/core/lv_obj_draw.c ****     draw_dsc->pivot.y = lv_area_get_height(&obj->coords) / 2;
 2300              		.loc 1 229 43 is_stmt 0 view .LVU607
 2301 0056 05F11407 		add	r7, r5, #20
 229:Drivers/lvgl/src/core/lv_obj_draw.c ****     draw_dsc->pivot.y = lv_area_get_height(&obj->coords) / 2;
 2302              		.loc 1 229 25 view .LVU608
 2303 005a 3846     		mov	r0, r7
 2304 005c FFF7FEFF 		bl	lv_area_get_width
 2305              	.LVL192:
 229:Drivers/lvgl/src/core/lv_obj_draw.c ****     draw_dsc->pivot.y = lv_area_get_height(&obj->coords) / 2;
 2306              		.loc 1 229 57 discriminator 1 view .LVU609
 2307 0060 00EBD070 		add	r0, r0, r0, lsr #31
 2308 0064 4010     		asrs	r0, r0, #1
 229:Drivers/lvgl/src/core/lv_obj_draw.c ****     draw_dsc->pivot.y = lv_area_get_height(&obj->coords) / 2;
 2309              		.loc 1 229 23 discriminator 1 view .LVU610
 2310 0066 6064     		str	r0, [r4, #68]
 230:Drivers/lvgl/src/core/lv_obj_draw.c **** 
 2311              		.loc 1 230 5 is_stmt 1 view .LVU611
 230:Drivers/lvgl/src/core/lv_obj_draw.c **** 
 2312              		.loc 1 230 25 is_stmt 0 view .LVU612
 2313 0068 3846     		mov	r0, r7
 2314 006a FFF7FEFF 		bl	lv_area_get_height
 2315              	.LVL193:
 230:Drivers/lvgl/src/core/lv_obj_draw.c **** 
 2316              		.loc 1 230 58 discriminator 1 view .LVU613
 2317 006e 00EBD070 		add	r0, r0, r0, lsr #31
 2318 0072 4010     		asrs	r0, r0, #1
 230:Drivers/lvgl/src/core/lv_obj_draw.c **** 
 2319              		.loc 1 230 23 discriminator 1 view .LVU614
 2320 0074 A064     		str	r0, [r4, #72]
 232:Drivers/lvgl/src/core/lv_obj_draw.c ****     lv_opa_t recolor_opa = lv_obj_get_style_image_recolor_opa(obj, part);
 2321              		.loc 1 232 5 is_stmt 1 view .LVU615
 232:Drivers/lvgl/src/core/lv_obj_draw.c ****     lv_opa_t recolor_opa = lv_obj_get_style_image_recolor_opa(obj, part);
 2322              		.loc 1 232 26 is_stmt 0 view .LVU616
 2323 0076 3146     		mov	r1, r6
 2324 0078 2846     		mov	r0, r5
 2325 007a FFF7FEFF 		bl	lv_obj_get_style_image_recolor_filtered
 2326              	.LVL194:
 2327 007e 8DF81400 		strb	r0, [sp, #20]
 2328 0082 C0F30723 		ubfx	r3, r0, #8, #8
ARM GAS  /var/folders/qx/2_175_4n2s19vhvtspjhb3qh0000gn/T//cckZJDG0.s 			page 71


 2329 0086 8DF81530 		strb	r3, [sp, #21]
 2330 008a C0F30740 		ubfx	r0, r0, #16, #8
 2331 008e 8DF81600 		strb	r0, [sp, #22]
 233:Drivers/lvgl/src/core/lv_obj_draw.c ****     lv_color32_t result = image_apply_layer_recolor(obj, part, &draw_dsc->base, recolor, recolor_op
 2332              		.loc 1 233 5 is_stmt 1 view .LVU617
 2333              	.LVL195:
 2334              	.LBB202:
 2335              	.LBI202:
 454:Drivers/lvgl/src/core/lv_obj_style_gen.h **** {
 2336              		.loc 2 454 24 view .LVU618
 2337              	.LBB203:
 456:Drivers/lvgl/src/core/lv_obj_style_gen.h ****     return (lv_opa_t)v.num;
 2338              		.loc 2 456 5 view .LVU619
 456:Drivers/lvgl/src/core/lv_obj_style_gen.h ****     return (lv_opa_t)v.num;
 2339              		.loc 2 456 26 is_stmt 0 view .LVU620
 2340 0092 4622     		movs	r2, #70
 2341 0094 3146     		mov	r1, r6
 2342 0096 2846     		mov	r0, r5
 2343 0098 FFF7FEFF 		bl	lv_obj_get_style_prop
 2344              	.LVL196:
 2345 009c 0390     		str	r0, [sp, #12]
 457:Drivers/lvgl/src/core/lv_obj_style_gen.h **** }
 2346              		.loc 2 457 5 is_stmt 1 view .LVU621
 457:Drivers/lvgl/src/core/lv_obj_style_gen.h **** }
 2347              		.loc 2 457 12 is_stmt 0 view .LVU622
 2348 009e C0B2     		uxtb	r0, r0
 2349              	.LVL197:
 457:Drivers/lvgl/src/core/lv_obj_style_gen.h **** }
 2350              		.loc 2 457 12 view .LVU623
 2351              	.LBE203:
 2352              	.LBE202:
 234:Drivers/lvgl/src/core/lv_obj_draw.c ****     draw_dsc->recolor_opa = result.alpha;
 2353              		.loc 1 234 5 is_stmt 1 view .LVU624
 234:Drivers/lvgl/src/core/lv_obj_draw.c ****     draw_dsc->recolor_opa = result.alpha;
 2354              		.loc 1 234 27 is_stmt 0 view .LVU625
 2355 00a0 0090     		str	r0, [sp]
 2356 00a2 059B     		ldr	r3, [sp, #20]
 2357 00a4 2246     		mov	r2, r4
 2358 00a6 3146     		mov	r1, r6
 2359 00a8 2846     		mov	r0, r5
 2360              	.LVL198:
 234:Drivers/lvgl/src/core/lv_obj_draw.c ****     draw_dsc->recolor_opa = result.alpha;
 2361              		.loc 1 234 27 view .LVU626
 2362 00aa FFF7FEFF 		bl	image_apply_layer_recolor
 2363              	.LVL199:
 234:Drivers/lvgl/src/core/lv_obj_draw.c ****     draw_dsc->recolor_opa = result.alpha;
 2364              		.loc 1 234 27 view .LVU627
 2365 00ae 0490     		str	r0, [sp, #16]
 235:Drivers/lvgl/src/core/lv_obj_draw.c ****     draw_dsc->recolor = lv_color_make(result.red, result.green, result.blue);
 2366              		.loc 1 235 5 is_stmt 1 view .LVU628
 235:Drivers/lvgl/src/core/lv_obj_draw.c ****     draw_dsc->recolor = lv_color_make(result.red, result.green, result.blue);
 2367              		.loc 1 235 35 is_stmt 0 view .LVU629
 2368 00b0 9DF81330 		ldrb	r3, [sp, #19]	@ zero_extendqisi2
 235:Drivers/lvgl/src/core/lv_obj_draw.c ****     draw_dsc->recolor = lv_color_make(result.red, result.green, result.blue);
 2369              		.loc 1 235 27 view .LVU630
 2370 00b4 84F84F30 		strb	r3, [r4, #79]
 236:Drivers/lvgl/src/core/lv_obj_draw.c **** 
ARM GAS  /var/folders/qx/2_175_4n2s19vhvtspjhb3qh0000gn/T//cckZJDG0.s 			page 72


 2371              		.loc 1 236 5 is_stmt 1 view .LVU631
 236:Drivers/lvgl/src/core/lv_obj_draw.c **** 
 2372              		.loc 1 236 25 is_stmt 0 view .LVU632
 2373 00b8 9DF81020 		ldrb	r2, [sp, #16]	@ zero_extendqisi2
 2374 00bc 9DF81110 		ldrb	r1, [sp, #17]	@ zero_extendqisi2
 2375 00c0 9DF81200 		ldrb	r0, [sp, #18]	@ zero_extendqisi2
 2376 00c4 FFF7FEFF 		bl	lv_color_make
 2377              	.LVL200:
 2378 00c8 84F84C00 		strb	r0, [r4, #76]
 2379 00cc C0F30723 		ubfx	r3, r0, #8, #8
 2380 00d0 84F84D30 		strb	r3, [r4, #77]
 2381 00d4 C0F30740 		ubfx	r0, r0, #16, #8
 2382 00d8 84F84E00 		strb	r0, [r4, #78]
 238:Drivers/lvgl/src/core/lv_obj_draw.c **** 
 2383              		.loc 1 238 5 is_stmt 1 view .LVU633
 2384              	.LVL201:
 2385              	.LBB204:
 2386              	.LBI204:
 460:Drivers/lvgl/src/core/lv_obj_style_gen.h **** {
 2387              		.loc 2 460 43 view .LVU634
 2388              	.LBB205:
 462:Drivers/lvgl/src/core/lv_obj_style_gen.h ****     return (const lv_image_colorkey_t *)v.ptr;
 2389              		.loc 2 462 5 view .LVU635
 462:Drivers/lvgl/src/core/lv_obj_style_gen.h ****     return (const lv_image_colorkey_t *)v.ptr;
 2390              		.loc 2 462 26 is_stmt 0 view .LVU636
 2391 00dc 8922     		movs	r2, #137
 2392 00de 3146     		mov	r1, r6
 2393 00e0 2846     		mov	r0, r5
 2394 00e2 FFF7FEFF 		bl	lv_obj_get_style_prop
 2395              	.LVL202:
 2396 00e6 0390     		str	r0, [sp, #12]
 463:Drivers/lvgl/src/core/lv_obj_style_gen.h **** }
 2397              		.loc 2 463 5 is_stmt 1 view .LVU637
 2398              	.LVL203:
 463:Drivers/lvgl/src/core/lv_obj_style_gen.h **** }
 2399              		.loc 2 463 5 is_stmt 0 view .LVU638
 2400              	.LBE205:
 2401              	.LBE204:
 238:Drivers/lvgl/src/core/lv_obj_draw.c **** 
 2402              		.loc 1 238 24 discriminator 1 view .LVU639
 2403 00e8 6065     		str	r0, [r4, #84]
 240:Drivers/lvgl/src/core/lv_obj_draw.c **** 
 2404              		.loc 1 240 5 is_stmt 1 view .LVU640
 240:Drivers/lvgl/src/core/lv_obj_draw.c **** 
 2405              		.loc 1 240 7 is_stmt 0 view .LVU641
 2406 00ea 002E     		cmp	r6, #0
 2407 00ec 98D0     		beq	.L67
 240:Drivers/lvgl/src/core/lv_obj_draw.c **** 
 2408              		.loc 1 240 30 is_stmt 1 discriminator 1 view .LVU642
 2409              	.LVL204:
 2410              	.LBB206:
 2411              	.LBI206:
 639:Drivers/lvgl/src/core/lv_obj_style_gen.h **** }
 640:Drivers/lvgl/src/core/lv_obj_style_gen.h **** 
 641:Drivers/lvgl/src/core/lv_obj_style_gen.h **** static inline lv_opa_t lv_obj_get_style_opa_layered(const lv_obj_t * obj, lv_part_t part)
 642:Drivers/lvgl/src/core/lv_obj_style_gen.h **** {
 643:Drivers/lvgl/src/core/lv_obj_style_gen.h ****     lv_style_value_t v = lv_obj_get_style_prop(obj, part, LV_STYLE_OPA_LAYERED);
ARM GAS  /var/folders/qx/2_175_4n2s19vhvtspjhb3qh0000gn/T//cckZJDG0.s 			page 73


 644:Drivers/lvgl/src/core/lv_obj_style_gen.h ****     return (lv_opa_t)v.num;
 645:Drivers/lvgl/src/core/lv_obj_style_gen.h **** }
 646:Drivers/lvgl/src/core/lv_obj_style_gen.h **** 
 647:Drivers/lvgl/src/core/lv_obj_style_gen.h **** static inline const lv_color_filter_dsc_t * lv_obj_get_style_color_filter_dsc(const lv_obj_t * obj,
 648:Drivers/lvgl/src/core/lv_obj_style_gen.h **** {
 649:Drivers/lvgl/src/core/lv_obj_style_gen.h ****     lv_style_value_t v = lv_obj_get_style_prop(obj, part, LV_STYLE_COLOR_FILTER_DSC);
 650:Drivers/lvgl/src/core/lv_obj_style_gen.h ****     return (const lv_color_filter_dsc_t *)v.ptr;
 651:Drivers/lvgl/src/core/lv_obj_style_gen.h **** }
 652:Drivers/lvgl/src/core/lv_obj_style_gen.h **** 
 653:Drivers/lvgl/src/core/lv_obj_style_gen.h **** static inline lv_opa_t lv_obj_get_style_color_filter_opa(const lv_obj_t * obj, lv_part_t part)
 654:Drivers/lvgl/src/core/lv_obj_style_gen.h **** {
 655:Drivers/lvgl/src/core/lv_obj_style_gen.h ****     lv_style_value_t v = lv_obj_get_style_prop(obj, part, LV_STYLE_COLOR_FILTER_OPA);
 656:Drivers/lvgl/src/core/lv_obj_style_gen.h ****     return (lv_opa_t)v.num;
 657:Drivers/lvgl/src/core/lv_obj_style_gen.h **** }
 658:Drivers/lvgl/src/core/lv_obj_style_gen.h **** 
 659:Drivers/lvgl/src/core/lv_obj_style_gen.h **** static inline lv_color_t lv_obj_get_style_recolor(const lv_obj_t * obj, lv_part_t part)
 660:Drivers/lvgl/src/core/lv_obj_style_gen.h **** {
 661:Drivers/lvgl/src/core/lv_obj_style_gen.h ****     lv_style_value_t v = lv_obj_get_style_prop(obj, part, LV_STYLE_RECOLOR);
 662:Drivers/lvgl/src/core/lv_obj_style_gen.h ****     return v.color;
 663:Drivers/lvgl/src/core/lv_obj_style_gen.h **** }
 664:Drivers/lvgl/src/core/lv_obj_style_gen.h **** 
 665:Drivers/lvgl/src/core/lv_obj_style_gen.h **** static inline lv_opa_t lv_obj_get_style_recolor_opa(const lv_obj_t * obj, lv_part_t part)
 666:Drivers/lvgl/src/core/lv_obj_style_gen.h **** {
 667:Drivers/lvgl/src/core/lv_obj_style_gen.h ****     lv_style_value_t v = lv_obj_get_style_prop(obj, part, LV_STYLE_RECOLOR_OPA);
 668:Drivers/lvgl/src/core/lv_obj_style_gen.h ****     return (lv_opa_t)v.num;
 669:Drivers/lvgl/src/core/lv_obj_style_gen.h **** }
 670:Drivers/lvgl/src/core/lv_obj_style_gen.h **** 
 671:Drivers/lvgl/src/core/lv_obj_style_gen.h **** static inline int32_t lv_obj_get_style_blur_radius(const lv_obj_t * obj, lv_part_t part)
 672:Drivers/lvgl/src/core/lv_obj_style_gen.h **** {
 673:Drivers/lvgl/src/core/lv_obj_style_gen.h ****     lv_style_value_t v = lv_obj_get_style_prop(obj, part, LV_STYLE_BLUR_RADIUS);
 674:Drivers/lvgl/src/core/lv_obj_style_gen.h ****     return (int32_t)v.num;
 675:Drivers/lvgl/src/core/lv_obj_style_gen.h **** }
 676:Drivers/lvgl/src/core/lv_obj_style_gen.h **** 
 677:Drivers/lvgl/src/core/lv_obj_style_gen.h **** static inline bool lv_obj_get_style_blur_backdrop(const lv_obj_t * obj, lv_part_t part)
 678:Drivers/lvgl/src/core/lv_obj_style_gen.h **** {
 679:Drivers/lvgl/src/core/lv_obj_style_gen.h ****     lv_style_value_t v = lv_obj_get_style_prop(obj, part, LV_STYLE_BLUR_BACKDROP);
 680:Drivers/lvgl/src/core/lv_obj_style_gen.h ****     return (bool)v.num;
 681:Drivers/lvgl/src/core/lv_obj_style_gen.h **** }
 682:Drivers/lvgl/src/core/lv_obj_style_gen.h **** 
 683:Drivers/lvgl/src/core/lv_obj_style_gen.h **** static inline lv_blur_quality_t lv_obj_get_style_blur_quality(const lv_obj_t * obj, lv_part_t part)
 684:Drivers/lvgl/src/core/lv_obj_style_gen.h **** {
 685:Drivers/lvgl/src/core/lv_obj_style_gen.h ****     lv_style_value_t v = lv_obj_get_style_prop(obj, part, LV_STYLE_BLUR_QUALITY);
 686:Drivers/lvgl/src/core/lv_obj_style_gen.h ****     return (lv_blur_quality_t)v.num;
 687:Drivers/lvgl/src/core/lv_obj_style_gen.h **** }
 688:Drivers/lvgl/src/core/lv_obj_style_gen.h **** 
 689:Drivers/lvgl/src/core/lv_obj_style_gen.h **** static inline const lv_anim_t * lv_obj_get_style_anim(const lv_obj_t * obj, lv_part_t part)
 690:Drivers/lvgl/src/core/lv_obj_style_gen.h **** {
 691:Drivers/lvgl/src/core/lv_obj_style_gen.h ****     lv_style_value_t v = lv_obj_get_style_prop(obj, part, LV_STYLE_ANIM);
 692:Drivers/lvgl/src/core/lv_obj_style_gen.h ****     return (const lv_anim_t *)v.ptr;
 693:Drivers/lvgl/src/core/lv_obj_style_gen.h **** }
 694:Drivers/lvgl/src/core/lv_obj_style_gen.h **** 
 695:Drivers/lvgl/src/core/lv_obj_style_gen.h **** static inline uint32_t lv_obj_get_style_anim_duration(const lv_obj_t * obj, lv_part_t part)
 696:Drivers/lvgl/src/core/lv_obj_style_gen.h **** {
 697:Drivers/lvgl/src/core/lv_obj_style_gen.h ****     lv_style_value_t v = lv_obj_get_style_prop(obj, part, LV_STYLE_ANIM_DURATION);
 698:Drivers/lvgl/src/core/lv_obj_style_gen.h ****     return (uint32_t)v.num;
 699:Drivers/lvgl/src/core/lv_obj_style_gen.h **** }
 700:Drivers/lvgl/src/core/lv_obj_style_gen.h **** 
ARM GAS  /var/folders/qx/2_175_4n2s19vhvtspjhb3qh0000gn/T//cckZJDG0.s 			page 74


 701:Drivers/lvgl/src/core/lv_obj_style_gen.h **** static inline const lv_style_transition_dsc_t * lv_obj_get_style_transition(const lv_obj_t * obj, l
 702:Drivers/lvgl/src/core/lv_obj_style_gen.h **** {
 703:Drivers/lvgl/src/core/lv_obj_style_gen.h ****     lv_style_value_t v = lv_obj_get_style_prop(obj, part, LV_STYLE_TRANSITION);
 704:Drivers/lvgl/src/core/lv_obj_style_gen.h ****     return (const lv_style_transition_dsc_t *)v.ptr;
 705:Drivers/lvgl/src/core/lv_obj_style_gen.h **** }
 706:Drivers/lvgl/src/core/lv_obj_style_gen.h **** 
 707:Drivers/lvgl/src/core/lv_obj_style_gen.h **** static inline lv_blend_mode_t lv_obj_get_style_blend_mode(const lv_obj_t * obj, lv_part_t part)
 2412              		.loc 2 707 31 view .LVU643
 2413              	.LBB207:
 708:Drivers/lvgl/src/core/lv_obj_style_gen.h **** {
 709:Drivers/lvgl/src/core/lv_obj_style_gen.h ****     lv_style_value_t v = lv_obj_get_style_prop(obj, part, LV_STYLE_BLEND_MODE);
 2414              		.loc 2 709 5 view .LVU644
 2415              		.loc 2 709 26 is_stmt 0 view .LVU645
 2416 00ee 6922     		movs	r2, #105
 2417 00f0 3146     		mov	r1, r6
 2418 00f2 2846     		mov	r0, r5
 2419 00f4 FFF7FEFF 		bl	lv_obj_get_style_prop
 2420              	.LVL205:
 2421 00f8 0390     		str	r0, [sp, #12]
 710:Drivers/lvgl/src/core/lv_obj_style_gen.h ****     return (lv_blend_mode_t)v.num;
 2422              		.loc 2 710 5 is_stmt 1 view .LVU646
 2423              	.LVL206:
 2424              		.loc 2 710 5 is_stmt 0 view .LVU647
 2425              	.LBE207:
 2426              	.LBE206:
 240:Drivers/lvgl/src/core/lv_obj_draw.c **** 
 2427              		.loc 1 240 51 discriminator 1 view .LVU648
 2428 00fa 94F85130 		ldrb	r3, [r4, #81]	@ zero_extendqisi2
 2429 00fe 60F30303 		bfi	r3, r0, #0, #4
 2430 0102 84F85130 		strb	r3, [r4, #81]
 242:Drivers/lvgl/src/core/lv_obj_draw.c **** }
 2431              		.loc 1 242 25 is_stmt 1 view .LVU649
 2432 0106 8BE7     		b	.L67
 2433              		.cfi_endproc
 2434              	.LFE183:
 2436              		.section	.text.lv_obj_init_draw_line_dsc,"ax",%progbits
 2437              		.align	1
 2438              		.global	lv_obj_init_draw_line_dsc
 2439              		.syntax unified
 2440              		.thumb
 2441              		.thumb_func
 2443              	lv_obj_init_draw_line_dsc:
 2444              	.LVL207:
 2445              	.LFB184:
 246:Drivers/lvgl/src/core/lv_obj_draw.c ****     LV_PROFILER_DRAW_BEGIN;
 2446              		.loc 1 246 1 view -0
 2447              		.cfi_startproc
 2448              		@ args = 0, pretend = 0, frame = 8
 2449              		@ frame_needed = 0, uses_anonymous_args = 0
 246:Drivers/lvgl/src/core/lv_obj_draw.c ****     LV_PROFILER_DRAW_BEGIN;
 2450              		.loc 1 246 1 is_stmt 0 view .LVU651
 2451 0000 70B5     		push	{r4, r5, r6, lr}
 2452              	.LCFI54:
 2453              		.cfi_def_cfa_offset 16
 2454              		.cfi_offset 4, -16
 2455              		.cfi_offset 5, -12
 2456              		.cfi_offset 6, -8
ARM GAS  /var/folders/qx/2_175_4n2s19vhvtspjhb3qh0000gn/T//cckZJDG0.s 			page 75


 2457              		.cfi_offset 14, -4
 2458 0002 82B0     		sub	sp, sp, #8
 2459              	.LCFI55:
 2460              		.cfi_def_cfa_offset 24
 2461 0004 0546     		mov	r5, r0
 2462 0006 0E46     		mov	r6, r1
 2463 0008 1446     		mov	r4, r2
 247:Drivers/lvgl/src/core/lv_obj_draw.c ****     draw_dsc->base.obj = obj;
 2464              		.loc 1 247 27 is_stmt 1 view .LVU652
 248:Drivers/lvgl/src/core/lv_obj_draw.c ****     draw_dsc->base.part = part;
 2465              		.loc 1 248 5 view .LVU653
 248:Drivers/lvgl/src/core/lv_obj_draw.c ****     draw_dsc->base.part = part;
 2466              		.loc 1 248 24 is_stmt 0 view .LVU654
 2467 000a 1060     		str	r0, [r2]
 249:Drivers/lvgl/src/core/lv_obj_draw.c **** 
 2468              		.loc 1 249 5 is_stmt 1 view .LVU655
 249:Drivers/lvgl/src/core/lv_obj_draw.c **** 
 2469              		.loc 1 249 25 is_stmt 0 view .LVU656
 2470 000c 5160     		str	r1, [r2, #4]
 251:Drivers/lvgl/src/core/lv_obj_draw.c ****     if(draw_dsc->opa <= LV_OPA_MIN) {
 2471              		.loc 1 251 5 is_stmt 1 view .LVU657
 2472              	.LVL208:
 2473              	.LBB208:
 2474              	.LBI208:
 502:Drivers/lvgl/src/core/lv_obj_style_gen.h **** {
 2475              		.loc 2 502 24 view .LVU658
 2476              	.LBB209:
 504:Drivers/lvgl/src/core/lv_obj_style_gen.h ****     return (lv_opa_t)v.num;
 2477              		.loc 2 504 5 view .LVU659
 504:Drivers/lvgl/src/core/lv_obj_style_gen.h ****     return (lv_opa_t)v.num;
 2478              		.loc 2 504 26 is_stmt 0 view .LVU660
 2479 000e 4D22     		movs	r2, #77
 2480              	.LVL209:
 504:Drivers/lvgl/src/core/lv_obj_style_gen.h ****     return (lv_opa_t)v.num;
 2481              		.loc 2 504 26 view .LVU661
 2482 0010 FFF7FEFF 		bl	lv_obj_get_style_prop
 2483              	.LVL210:
 504:Drivers/lvgl/src/core/lv_obj_style_gen.h ****     return (lv_opa_t)v.num;
 2484              		.loc 2 504 26 view .LVU662
 2485 0014 0090     		str	r0, [sp]
 505:Drivers/lvgl/src/core/lv_obj_style_gen.h **** }
 2486              		.loc 2 505 5 is_stmt 1 view .LVU663
 505:Drivers/lvgl/src/core/lv_obj_style_gen.h **** }
 2487              		.loc 2 505 12 is_stmt 0 view .LVU664
 2488 0016 C3B2     		uxtb	r3, r0
 2489              	.LVL211:
 505:Drivers/lvgl/src/core/lv_obj_style_gen.h **** }
 2490              		.loc 2 505 12 view .LVU665
 2491              	.LBE209:
 2492              	.LBE208:
 251:Drivers/lvgl/src/core/lv_obj_draw.c ****     if(draw_dsc->opa <= LV_OPA_MIN) {
 2493              		.loc 1 251 19 discriminator 1 view .LVU666
 2494 0018 84F83C30 		strb	r3, [r4, #60]
 252:Drivers/lvgl/src/core/lv_obj_draw.c ****         LV_PROFILER_DRAW_END;
 2495              		.loc 1 252 5 is_stmt 1 view .LVU667
 252:Drivers/lvgl/src/core/lv_obj_draw.c ****         LV_PROFILER_DRAW_END;
 2496              		.loc 1 252 7 is_stmt 0 view .LVU668
ARM GAS  /var/folders/qx/2_175_4n2s19vhvtspjhb3qh0000gn/T//cckZJDG0.s 			page 76


 2497 001c 022B     		cmp	r3, #2
 2498 001e 01D8     		bhi	.L80
 2499              	.L74:
 284:Drivers/lvgl/src/core/lv_obj_draw.c **** 
 2500              		.loc 1 284 1 view .LVU669
 2501 0020 02B0     		add	sp, sp, #8
 2502              	.LCFI56:
 2503              		.cfi_remember_state
 2504              		.cfi_def_cfa_offset 16
 2505              		@ sp needed
 2506 0022 70BD     		pop	{r4, r5, r6, pc}
 2507              	.LVL212:
 2508              	.L80:
 2509              	.LCFI57:
 2510              		.cfi_restore_state
 257:Drivers/lvgl/src/core/lv_obj_draw.c ****     if(opa < LV_OPA_MAX) {
 2511              		.loc 1 257 5 is_stmt 1 view .LVU670
 257:Drivers/lvgl/src/core/lv_obj_draw.c ****     if(opa < LV_OPA_MAX) {
 2512              		.loc 1 257 20 is_stmt 0 view .LVU671
 2513 0024 2246     		mov	r2, r4
 2514 0026 3146     		mov	r1, r6
 2515 0028 2846     		mov	r0, r5
 2516 002a FFF7FEFF 		bl	get_layer_opa
 2517              	.LVL213:
 258:Drivers/lvgl/src/core/lv_obj_draw.c ****         draw_dsc->opa = LV_OPA_MIX2(draw_dsc->opa, opa);
 2518              		.loc 1 258 5 is_stmt 1 view .LVU672
 258:Drivers/lvgl/src/core/lv_obj_draw.c ****         draw_dsc->opa = LV_OPA_MIX2(draw_dsc->opa, opa);
 2519              		.loc 1 258 7 is_stmt 0 view .LVU673
 2520 002e FC28     		cmp	r0, #252
 2521 0030 07D8     		bhi	.L76
 259:Drivers/lvgl/src/core/lv_obj_draw.c ****     }
 2522              		.loc 1 259 9 is_stmt 1 view .LVU674
 259:Drivers/lvgl/src/core/lv_obj_draw.c ****     }
 2523              		.loc 1 259 25 is_stmt 0 view .LVU675
 2524 0032 94F83C30 		ldrb	r3, [r4, #60]	@ zero_extendqisi2
 2525 0036 03FB00F0 		mul	r0, r3, r0
 2526              	.LVL214:
 259:Drivers/lvgl/src/core/lv_obj_draw.c ****     }
 2527              		.loc 1 259 25 view .LVU676
 2528 003a C0F30720 		ubfx	r0, r0, #8, #8
 259:Drivers/lvgl/src/core/lv_obj_draw.c ****     }
 2529              		.loc 1 259 23 view .LVU677
 2530 003e 84F83C00 		strb	r0, [r4, #60]
 2531              	.L76:
 261:Drivers/lvgl/src/core/lv_obj_draw.c ****         LV_PROFILER_DRAW_END;
 2532              		.loc 1 261 5 is_stmt 1 view .LVU678
 261:Drivers/lvgl/src/core/lv_obj_draw.c ****         LV_PROFILER_DRAW_END;
 2533              		.loc 1 261 16 is_stmt 0 view .LVU679
 2534 0042 94F83C30 		ldrb	r3, [r4, #60]	@ zero_extendqisi2
 261:Drivers/lvgl/src/core/lv_obj_draw.c ****         LV_PROFILER_DRAW_END;
 2535              		.loc 1 261 7 view .LVU680
 2536 0046 022B     		cmp	r3, #2
 2537 0048 EAD9     		bls	.L74
 266:Drivers/lvgl/src/core/lv_obj_draw.c ****     if(draw_dsc->width == 0) {
 2538              		.loc 1 266 5 is_stmt 1 view .LVU681
 2539              	.LVL215:
 2540              	.LBB210:
ARM GAS  /var/folders/qx/2_175_4n2s19vhvtspjhb3qh0000gn/T//cckZJDG0.s 			page 77


 2541              	.LBI210:
 466:Drivers/lvgl/src/core/lv_obj_style_gen.h **** {
 2542              		.loc 2 466 23 view .LVU682
 2543              	.LBB211:
 468:Drivers/lvgl/src/core/lv_obj_style_gen.h ****     return (int32_t)v.num;
 2544              		.loc 2 468 5 view .LVU683
 468:Drivers/lvgl/src/core/lv_obj_style_gen.h ****     return (int32_t)v.num;
 2545              		.loc 2 468 26 is_stmt 0 view .LVU684
 2546 004a 4822     		movs	r2, #72
 2547 004c 3146     		mov	r1, r6
 2548 004e 2846     		mov	r0, r5
 2549 0050 FFF7FEFF 		bl	lv_obj_get_style_prop
 2550              	.LVL216:
 2551 0054 0090     		str	r0, [sp]
 469:Drivers/lvgl/src/core/lv_obj_style_gen.h **** }
 2552              		.loc 2 469 5 is_stmt 1 view .LVU685
 2553              	.LVL217:
 469:Drivers/lvgl/src/core/lv_obj_style_gen.h **** }
 2554              		.loc 2 469 5 is_stmt 0 view .LVU686
 2555              	.LBE211:
 2556              	.LBE210:
 266:Drivers/lvgl/src/core/lv_obj_draw.c ****     if(draw_dsc->width == 0) {
 2557              		.loc 1 266 21 discriminator 1 view .LVU687
 2558 0056 2063     		str	r0, [r4, #48]
 267:Drivers/lvgl/src/core/lv_obj_draw.c ****         LV_PROFILER_DRAW_END;
 2559              		.loc 1 267 5 is_stmt 1 view .LVU688
 267:Drivers/lvgl/src/core/lv_obj_draw.c ****         LV_PROFILER_DRAW_END;
 2560              		.loc 1 267 7 is_stmt 0 view .LVU689
 2561 0058 0028     		cmp	r0, #0
 2562 005a E1D0     		beq	.L74
 272:Drivers/lvgl/src/core/lv_obj_draw.c ****     draw_dsc->color = normal_apply_layer_recolor(obj, part, &draw_dsc->base, line_color);
 2563              		.loc 1 272 5 is_stmt 1 view .LVU690
 272:Drivers/lvgl/src/core/lv_obj_draw.c ****     draw_dsc->color = normal_apply_layer_recolor(obj, part, &draw_dsc->base, line_color);
 2564              		.loc 1 272 29 is_stmt 0 view .LVU691
 2565 005c 3146     		mov	r1, r6
 2566 005e 2846     		mov	r0, r5
 2567 0060 FFF7FEFF 		bl	lv_obj_get_style_line_color_filtered
 2568              	.LVL218:
 2569 0064 8DF80400 		strb	r0, [sp, #4]
 2570 0068 C0F30723 		ubfx	r3, r0, #8, #8
 2571 006c 8DF80530 		strb	r3, [sp, #5]
 2572 0070 C0F30740 		ubfx	r0, r0, #16, #8
 2573 0074 8DF80600 		strb	r0, [sp, #6]
 273:Drivers/lvgl/src/core/lv_obj_draw.c **** 
 2574              		.loc 1 273 5 is_stmt 1 view .LVU692
 273:Drivers/lvgl/src/core/lv_obj_draw.c **** 
 2575              		.loc 1 273 23 is_stmt 0 view .LVU693
 2576 0078 019B     		ldr	r3, [sp, #4]
 2577 007a 2246     		mov	r2, r4
 2578 007c 3146     		mov	r1, r6
 2579 007e 2846     		mov	r0, r5
 2580 0080 FFF7FEFF 		bl	normal_apply_layer_recolor
 2581              	.LVL219:
 2582 0084 84F82C00 		strb	r0, [r4, #44]
 2583 0088 C0F30723 		ubfx	r3, r0, #8, #8
 2584 008c 84F82D30 		strb	r3, [r4, #45]
 2585 0090 C0F30740 		ubfx	r0, r0, #16, #8
ARM GAS  /var/folders/qx/2_175_4n2s19vhvtspjhb3qh0000gn/T//cckZJDG0.s 			page 78


 2586 0094 84F82E00 		strb	r0, [r4, #46]
 275:Drivers/lvgl/src/core/lv_obj_draw.c ****     if(draw_dsc->dash_width) {
 2587              		.loc 1 275 5 is_stmt 1 view .LVU694
 2588              	.LVL220:
 2589              	.LBB212:
 2590              	.LBI212:
 472:Drivers/lvgl/src/core/lv_obj_style_gen.h **** {
 2591              		.loc 2 472 23 view .LVU695
 2592              	.LBB213:
 474:Drivers/lvgl/src/core/lv_obj_style_gen.h ****     return (int32_t)v.num;
 2593              		.loc 2 474 5 view .LVU696
 474:Drivers/lvgl/src/core/lv_obj_style_gen.h ****     return (int32_t)v.num;
 2594              		.loc 2 474 26 is_stmt 0 view .LVU697
 2595 0098 4922     		movs	r2, #73
 2596 009a 3146     		mov	r1, r6
 2597 009c 2846     		mov	r0, r5
 2598 009e FFF7FEFF 		bl	lv_obj_get_style_prop
 2599              	.LVL221:
 2600 00a2 0090     		str	r0, [sp]
 475:Drivers/lvgl/src/core/lv_obj_style_gen.h **** }
 2601              		.loc 2 475 5 is_stmt 1 view .LVU698
 2602              	.LVL222:
 475:Drivers/lvgl/src/core/lv_obj_style_gen.h **** }
 2603              		.loc 2 475 5 is_stmt 0 view .LVU699
 2604              	.LBE213:
 2605              	.LBE212:
 275:Drivers/lvgl/src/core/lv_obj_draw.c ****     if(draw_dsc->dash_width) {
 2606              		.loc 1 275 26 discriminator 1 view .LVU700
 2607 00a4 6063     		str	r0, [r4, #52]
 276:Drivers/lvgl/src/core/lv_obj_draw.c ****         draw_dsc->dash_gap = lv_obj_get_style_line_dash_gap(obj, part);
 2608              		.loc 1 276 5 is_stmt 1 view .LVU701
 276:Drivers/lvgl/src/core/lv_obj_draw.c ****         draw_dsc->dash_gap = lv_obj_get_style_line_dash_gap(obj, part);
 2609              		.loc 1 276 7 is_stmt 0 view .LVU702
 2610 00a6 A0B9     		cbnz	r0, .L81
 2611              	.L77:
 280:Drivers/lvgl/src/core/lv_obj_draw.c ****     draw_dsc->round_end = draw_dsc->round_start;
 2612              		.loc 1 280 5 is_stmt 1 view .LVU703
 2613              	.LVL223:
 2614              	.LBB214:
 2615              	.LBI214:
 484:Drivers/lvgl/src/core/lv_obj_style_gen.h **** {
 2616              		.loc 2 484 20 view .LVU704
 2617              	.LBB215:
 486:Drivers/lvgl/src/core/lv_obj_style_gen.h ****     return (bool)v.num;
 2618              		.loc 2 486 5 view .LVU705
 486:Drivers/lvgl/src/core/lv_obj_style_gen.h ****     return (bool)v.num;
 2619              		.loc 2 486 26 is_stmt 0 view .LVU706
 2620 00a8 4B22     		movs	r2, #75
 2621 00aa 3146     		mov	r1, r6
 2622 00ac 2846     		mov	r0, r5
 2623 00ae FFF7FEFF 		bl	lv_obj_get_style_prop
 2624              	.LVL224:
 2625 00b2 0090     		str	r0, [sp]
 487:Drivers/lvgl/src/core/lv_obj_style_gen.h **** }
 2626              		.loc 2 487 5 is_stmt 1 view .LVU707
 487:Drivers/lvgl/src/core/lv_obj_style_gen.h **** }
 2627              		.loc 2 487 12 is_stmt 0 view .LVU708
ARM GAS  /var/folders/qx/2_175_4n2s19vhvtspjhb3qh0000gn/T//cckZJDG0.s 			page 79


 2628 00b4 0038     		subs	r0, r0, #0
 2629 00b6 18BF     		it	ne
 2630 00b8 0120     		movne	r0, #1
 2631              	.LVL225:
 487:Drivers/lvgl/src/core/lv_obj_style_gen.h **** }
 2632              		.loc 2 487 12 view .LVU709
 2633              	.LBE215:
 2634              	.LBE214:
 280:Drivers/lvgl/src/core/lv_obj_draw.c ****     draw_dsc->round_end = draw_dsc->round_start;
 2635              		.loc 1 280 27 discriminator 1 view .LVU710
 2636 00ba 94F83D30 		ldrb	r3, [r4, #61]	@ zero_extendqisi2
 2637 00be 60F30003 		bfi	r3, r0, #0, #1
 2638 00c2 84F83D30 		strb	r3, [r4, #61]
 281:Drivers/lvgl/src/core/lv_obj_draw.c **** 
 2639              		.loc 1 281 5 is_stmt 1 view .LVU711
 281:Drivers/lvgl/src/core/lv_obj_draw.c **** 
 2640              		.loc 1 281 25 is_stmt 0 view .LVU712
 2641 00c6 DBB2     		uxtb	r3, r3
 2642 00c8 60F34103 		bfi	r3, r0, #1, #1
 2643 00cc 84F83D30 		strb	r3, [r4, #61]
 283:Drivers/lvgl/src/core/lv_obj_draw.c **** }
 2644              		.loc 1 283 25 is_stmt 1 view .LVU713
 2645 00d0 A6E7     		b	.L74
 2646              	.L81:
 277:Drivers/lvgl/src/core/lv_obj_draw.c ****     }
 2647              		.loc 1 277 9 view .LVU714
 2648              	.LVL226:
 2649              	.LBB216:
 2650              	.LBI216:
 478:Drivers/lvgl/src/core/lv_obj_style_gen.h **** {
 2651              		.loc 2 478 23 view .LVU715
 2652              	.LBB217:
 480:Drivers/lvgl/src/core/lv_obj_style_gen.h ****     return (int32_t)v.num;
 2653              		.loc 2 480 5 view .LVU716
 480:Drivers/lvgl/src/core/lv_obj_style_gen.h ****     return (int32_t)v.num;
 2654              		.loc 2 480 26 is_stmt 0 view .LVU717
 2655 00d2 4A22     		movs	r2, #74
 2656 00d4 3146     		mov	r1, r6
 2657 00d6 2846     		mov	r0, r5
 2658 00d8 FFF7FEFF 		bl	lv_obj_get_style_prop
 2659              	.LVL227:
 2660 00dc 0090     		str	r0, [sp]
 481:Drivers/lvgl/src/core/lv_obj_style_gen.h **** }
 2661              		.loc 2 481 5 is_stmt 1 view .LVU718
 2662              	.LVL228:
 481:Drivers/lvgl/src/core/lv_obj_style_gen.h **** }
 2663              		.loc 2 481 5 is_stmt 0 view .LVU719
 2664              	.LBE217:
 2665              	.LBE216:
 277:Drivers/lvgl/src/core/lv_obj_draw.c ****     }
 2666              		.loc 1 277 28 discriminator 1 view .LVU720
 2667 00de A063     		str	r0, [r4, #56]
 2668 00e0 E2E7     		b	.L77
 2669              		.cfi_endproc
 2670              	.LFE184:
 2672              		.section	.text.lv_obj_init_draw_arc_dsc,"ax",%progbits
 2673              		.align	1
ARM GAS  /var/folders/qx/2_175_4n2s19vhvtspjhb3qh0000gn/T//cckZJDG0.s 			page 80


 2674              		.global	lv_obj_init_draw_arc_dsc
 2675              		.syntax unified
 2676              		.thumb
 2677              		.thumb_func
 2679              	lv_obj_init_draw_arc_dsc:
 2680              	.LVL229:
 2681              	.LFB185:
 287:Drivers/lvgl/src/core/lv_obj_draw.c ****     LV_PROFILER_DRAW_BEGIN;
 2682              		.loc 1 287 1 is_stmt 1 view -0
 2683              		.cfi_startproc
 2684              		@ args = 0, pretend = 0, frame = 8
 2685              		@ frame_needed = 0, uses_anonymous_args = 0
 287:Drivers/lvgl/src/core/lv_obj_draw.c ****     LV_PROFILER_DRAW_BEGIN;
 2686              		.loc 1 287 1 is_stmt 0 view .LVU722
 2687 0000 70B5     		push	{r4, r5, r6, lr}
 2688              	.LCFI58:
 2689              		.cfi_def_cfa_offset 16
 2690              		.cfi_offset 4, -16
 2691              		.cfi_offset 5, -12
 2692              		.cfi_offset 6, -8
 2693              		.cfi_offset 14, -4
 2694 0002 82B0     		sub	sp, sp, #8
 2695              	.LCFI59:
 2696              		.cfi_def_cfa_offset 24
 2697 0004 0546     		mov	r5, r0
 2698 0006 0E46     		mov	r6, r1
 2699 0008 1446     		mov	r4, r2
 288:Drivers/lvgl/src/core/lv_obj_draw.c ****     draw_dsc->base.obj = obj;
 2700              		.loc 1 288 27 is_stmt 1 view .LVU723
 289:Drivers/lvgl/src/core/lv_obj_draw.c ****     draw_dsc->base.part = part;
 2701              		.loc 1 289 5 view .LVU724
 289:Drivers/lvgl/src/core/lv_obj_draw.c ****     draw_dsc->base.part = part;
 2702              		.loc 1 289 24 is_stmt 0 view .LVU725
 2703 000a 1060     		str	r0, [r2]
 290:Drivers/lvgl/src/core/lv_obj_draw.c **** 
 2704              		.loc 1 290 5 is_stmt 1 view .LVU726
 290:Drivers/lvgl/src/core/lv_obj_draw.c **** 
 2705              		.loc 1 290 25 is_stmt 0 view .LVU727
 2706 000c 5160     		str	r1, [r2, #4]
 292:Drivers/lvgl/src/core/lv_obj_draw.c ****     if(draw_dsc->width == 0) {
 2707              		.loc 1 292 5 is_stmt 1 view .LVU728
 2708              	.LVL230:
 2709              	.LBB218:
 2710              	.LBI218:
 508:Drivers/lvgl/src/core/lv_obj_style_gen.h **** {
 2711              		.loc 2 508 23 view .LVU729
 2712              	.LBB219:
 510:Drivers/lvgl/src/core/lv_obj_style_gen.h ****     return (int32_t)v.num;
 2713              		.loc 2 510 5 view .LVU730
 510:Drivers/lvgl/src/core/lv_obj_style_gen.h ****     return (int32_t)v.num;
 2714              		.loc 2 510 26 is_stmt 0 view .LVU731
 2715 000e 5022     		movs	r2, #80
 2716              	.LVL231:
 510:Drivers/lvgl/src/core/lv_obj_style_gen.h ****     return (int32_t)v.num;
 2717              		.loc 2 510 26 view .LVU732
 2718 0010 FFF7FEFF 		bl	lv_obj_get_style_prop
 2719              	.LVL232:
ARM GAS  /var/folders/qx/2_175_4n2s19vhvtspjhb3qh0000gn/T//cckZJDG0.s 			page 81


 510:Drivers/lvgl/src/core/lv_obj_style_gen.h ****     return (int32_t)v.num;
 2720              		.loc 2 510 26 view .LVU733
 2721 0014 0090     		str	r0, [sp]
 511:Drivers/lvgl/src/core/lv_obj_style_gen.h **** }
 2722              		.loc 2 511 5 is_stmt 1 view .LVU734
 2723              	.LVL233:
 511:Drivers/lvgl/src/core/lv_obj_style_gen.h **** }
 2724              		.loc 2 511 5 is_stmt 0 view .LVU735
 2725              	.LBE219:
 2726              	.LBE218:
 292:Drivers/lvgl/src/core/lv_obj_draw.c ****     if(draw_dsc->width == 0) {
 2727              		.loc 1 292 21 discriminator 1 view .LVU736
 2728 0016 2062     		str	r0, [r4, #32]
 293:Drivers/lvgl/src/core/lv_obj_draw.c ****         LV_PROFILER_DRAW_END;
 2729              		.loc 1 293 5 is_stmt 1 view .LVU737
 293:Drivers/lvgl/src/core/lv_obj_draw.c ****         LV_PROFILER_DRAW_END;
 2730              		.loc 1 293 7 is_stmt 0 view .LVU738
 2731 0018 08B9     		cbnz	r0, .L87
 2732              	.L82:
 319:Drivers/lvgl/src/core/lv_obj_draw.c **** 
 2733              		.loc 1 319 1 view .LVU739
 2734 001a 02B0     		add	sp, sp, #8
 2735              	.LCFI60:
 2736              		.cfi_remember_state
 2737              		.cfi_def_cfa_offset 16
 2738              		@ sp needed
 2739 001c 70BD     		pop	{r4, r5, r6, pc}
 2740              	.LVL234:
 2741              	.L87:
 2742              	.LCFI61:
 2743              		.cfi_restore_state
 298:Drivers/lvgl/src/core/lv_obj_draw.c ****     if(draw_dsc->opa <= LV_OPA_MIN) {
 2744              		.loc 1 298 5 is_stmt 1 view .LVU740
 2745              	.LBB220:
 2746              	.LBI220:
 532:Drivers/lvgl/src/core/lv_obj_style_gen.h **** {
 2747              		.loc 2 532 24 view .LVU741
 2748              	.LBB221:
 534:Drivers/lvgl/src/core/lv_obj_style_gen.h ****     return (lv_opa_t)v.num;
 2749              		.loc 2 534 5 view .LVU742
 534:Drivers/lvgl/src/core/lv_obj_style_gen.h ****     return (lv_opa_t)v.num;
 2750              		.loc 2 534 26 is_stmt 0 view .LVU743
 2751 001e 5322     		movs	r2, #83
 2752 0020 3146     		mov	r1, r6
 2753 0022 2846     		mov	r0, r5
 2754 0024 FFF7FEFF 		bl	lv_obj_get_style_prop
 2755              	.LVL235:
 2756 0028 0090     		str	r0, [sp]
 535:Drivers/lvgl/src/core/lv_obj_style_gen.h **** }
 2757              		.loc 2 535 5 is_stmt 1 view .LVU744
 535:Drivers/lvgl/src/core/lv_obj_style_gen.h **** }
 2758              		.loc 2 535 12 is_stmt 0 view .LVU745
 2759 002a C0B2     		uxtb	r0, r0
 2760              	.LVL236:
 535:Drivers/lvgl/src/core/lv_obj_style_gen.h **** }
 2761              		.loc 2 535 12 view .LVU746
 2762              	.LBE221:
ARM GAS  /var/folders/qx/2_175_4n2s19vhvtspjhb3qh0000gn/T//cckZJDG0.s 			page 82


 2763              	.LBE220:
 298:Drivers/lvgl/src/core/lv_obj_draw.c ****     if(draw_dsc->opa <= LV_OPA_MIN) {
 2764              		.loc 1 298 19 discriminator 1 view .LVU747
 2765 002c 84F83A00 		strb	r0, [r4, #58]
 299:Drivers/lvgl/src/core/lv_obj_draw.c ****         LV_PROFILER_DRAW_END;
 2766              		.loc 1 299 5 is_stmt 1 view .LVU748
 299:Drivers/lvgl/src/core/lv_obj_draw.c ****         LV_PROFILER_DRAW_END;
 2767              		.loc 1 299 7 is_stmt 0 view .LVU749
 2768 0030 0228     		cmp	r0, #2
 2769 0032 F2D9     		bls	.L82
 304:Drivers/lvgl/src/core/lv_obj_draw.c ****     if(opa < LV_OPA_MAX) {
 2770              		.loc 1 304 5 is_stmt 1 view .LVU750
 304:Drivers/lvgl/src/core/lv_obj_draw.c ****     if(opa < LV_OPA_MAX) {
 2771              		.loc 1 304 20 is_stmt 0 view .LVU751
 2772 0034 2246     		mov	r2, r4
 2773 0036 3146     		mov	r1, r6
 2774 0038 2846     		mov	r0, r5
 2775 003a FFF7FEFF 		bl	get_layer_opa
 2776              	.LVL237:
 305:Drivers/lvgl/src/core/lv_obj_draw.c ****         draw_dsc->opa = LV_OPA_MIX2(draw_dsc->opa, opa);
 2777              		.loc 1 305 5 is_stmt 1 view .LVU752
 305:Drivers/lvgl/src/core/lv_obj_draw.c ****         draw_dsc->opa = LV_OPA_MIX2(draw_dsc->opa, opa);
 2778              		.loc 1 305 7 is_stmt 0 view .LVU753
 2779 003e FC28     		cmp	r0, #252
 2780 0040 07D8     		bhi	.L84
 306:Drivers/lvgl/src/core/lv_obj_draw.c ****     }
 2781              		.loc 1 306 9 is_stmt 1 view .LVU754
 306:Drivers/lvgl/src/core/lv_obj_draw.c ****     }
 2782              		.loc 1 306 25 is_stmt 0 view .LVU755
 2783 0042 94F83A30 		ldrb	r3, [r4, #58]	@ zero_extendqisi2
 2784 0046 03FB00F0 		mul	r0, r3, r0
 2785              	.LVL238:
 306:Drivers/lvgl/src/core/lv_obj_draw.c ****     }
 2786              		.loc 1 306 25 view .LVU756
 2787 004a C0F30720 		ubfx	r0, r0, #8, #8
 306:Drivers/lvgl/src/core/lv_obj_draw.c ****     }
 2788              		.loc 1 306 23 view .LVU757
 2789 004e 84F83A00 		strb	r0, [r4, #58]
 2790              	.L84:
 308:Drivers/lvgl/src/core/lv_obj_draw.c ****         LV_PROFILER_DRAW_END;
 2791              		.loc 1 308 5 is_stmt 1 view .LVU758
 308:Drivers/lvgl/src/core/lv_obj_draw.c ****         LV_PROFILER_DRAW_END;
 2792              		.loc 1 308 16 is_stmt 0 view .LVU759
 2793 0052 94F83A30 		ldrb	r3, [r4, #58]	@ zero_extendqisi2
 308:Drivers/lvgl/src/core/lv_obj_draw.c ****         LV_PROFILER_DRAW_END;
 2794              		.loc 1 308 7 view .LVU760
 2795 0056 022B     		cmp	r3, #2
 2796 0058 DFD9     		bls	.L82
 313:Drivers/lvgl/src/core/lv_obj_draw.c ****     draw_dsc->color = normal_apply_layer_recolor(obj, part, &draw_dsc->base, arc_color);
 2797              		.loc 1 313 5 is_stmt 1 view .LVU761
 313:Drivers/lvgl/src/core/lv_obj_draw.c ****     draw_dsc->color = normal_apply_layer_recolor(obj, part, &draw_dsc->base, arc_color);
 2798              		.loc 1 313 28 is_stmt 0 view .LVU762
 2799 005a 3146     		mov	r1, r6
 2800 005c 2846     		mov	r0, r5
 2801 005e FFF7FEFF 		bl	lv_obj_get_style_arc_color_filtered
 2802              	.LVL239:
 2803 0062 8DF80400 		strb	r0, [sp, #4]
ARM GAS  /var/folders/qx/2_175_4n2s19vhvtspjhb3qh0000gn/T//cckZJDG0.s 			page 83


 2804 0066 C0F30723 		ubfx	r3, r0, #8, #8
 2805 006a 8DF80530 		strb	r3, [sp, #5]
 2806 006e C0F30740 		ubfx	r0, r0, #16, #8
 2807 0072 8DF80600 		strb	r0, [sp, #6]
 314:Drivers/lvgl/src/core/lv_obj_draw.c ****     draw_dsc->img_src = lv_obj_get_style_arc_image_src(obj, part);
 2808              		.loc 1 314 5 is_stmt 1 view .LVU763
 314:Drivers/lvgl/src/core/lv_obj_draw.c ****     draw_dsc->img_src = lv_obj_get_style_arc_image_src(obj, part);
 2809              		.loc 1 314 23 is_stmt 0 view .LVU764
 2810 0076 019B     		ldr	r3, [sp, #4]
 2811 0078 2246     		mov	r2, r4
 2812 007a 3146     		mov	r1, r6
 2813 007c 2846     		mov	r0, r5
 2814 007e FFF7FEFF 		bl	normal_apply_layer_recolor
 2815              	.LVL240:
 2816 0082 2077     		strb	r0, [r4, #28]
 2817 0084 C0F30723 		ubfx	r3, r0, #8, #8
 2818 0088 6377     		strb	r3, [r4, #29]
 2819 008a C0F30740 		ubfx	r0, r0, #16, #8
 2820 008e A077     		strb	r0, [r4, #30]
 315:Drivers/lvgl/src/core/lv_obj_draw.c **** 
 2821              		.loc 1 315 5 is_stmt 1 view .LVU765
 2822              	.LVL241:
 2823              	.LBB222:
 2824              	.LBI222:
 538:Drivers/lvgl/src/core/lv_obj_style_gen.h **** {
 2825              		.loc 2 538 28 view .LVU766
 2826              	.LBB223:
 540:Drivers/lvgl/src/core/lv_obj_style_gen.h ****     return (const void *)v.ptr;
 2827              		.loc 2 540 5 view .LVU767
 540:Drivers/lvgl/src/core/lv_obj_style_gen.h ****     return (const void *)v.ptr;
 2828              		.loc 2 540 26 is_stmt 0 view .LVU768
 2829 0090 5422     		movs	r2, #84
 2830 0092 3146     		mov	r1, r6
 2831 0094 2846     		mov	r0, r5
 2832 0096 FFF7FEFF 		bl	lv_obj_get_style_prop
 2833              	.LVL242:
 2834 009a 0090     		str	r0, [sp]
 541:Drivers/lvgl/src/core/lv_obj_style_gen.h **** }
 2835              		.loc 2 541 5 is_stmt 1 view .LVU769
 2836              	.LVL243:
 541:Drivers/lvgl/src/core/lv_obj_style_gen.h **** }
 2837              		.loc 2 541 5 is_stmt 0 view .LVU770
 2838              	.LBE223:
 2839              	.LBE222:
 315:Drivers/lvgl/src/core/lv_obj_draw.c **** 
 2840              		.loc 1 315 23 discriminator 1 view .LVU771
 2841 009c 6063     		str	r0, [r4, #52]
 317:Drivers/lvgl/src/core/lv_obj_draw.c ****     LV_PROFILER_DRAW_END;
 2842              		.loc 1 317 5 is_stmt 1 view .LVU772
 2843              	.LVL244:
 2844              	.LBB224:
 2845              	.LBI224:
 514:Drivers/lvgl/src/core/lv_obj_style_gen.h **** {
 2846              		.loc 2 514 20 view .LVU773
 2847              	.LBB225:
 516:Drivers/lvgl/src/core/lv_obj_style_gen.h ****     return (bool)v.num;
 2848              		.loc 2 516 5 view .LVU774
ARM GAS  /var/folders/qx/2_175_4n2s19vhvtspjhb3qh0000gn/T//cckZJDG0.s 			page 84


 516:Drivers/lvgl/src/core/lv_obj_style_gen.h ****     return (bool)v.num;
 2849              		.loc 2 516 26 is_stmt 0 view .LVU775
 2850 009e 5122     		movs	r2, #81
 2851 00a0 3146     		mov	r1, r6
 2852 00a2 2846     		mov	r0, r5
 2853 00a4 FFF7FEFF 		bl	lv_obj_get_style_prop
 2854              	.LVL245:
 2855 00a8 0090     		str	r0, [sp]
 517:Drivers/lvgl/src/core/lv_obj_style_gen.h **** }
 2856              		.loc 2 517 5 is_stmt 1 view .LVU776
 517:Drivers/lvgl/src/core/lv_obj_style_gen.h **** }
 2857              		.loc 2 517 12 is_stmt 0 view .LVU777
 2858 00aa 0038     		subs	r0, r0, #0
 2859 00ac 18BF     		it	ne
 2860 00ae 0120     		movne	r0, #1
 2861              	.LVL246:
 517:Drivers/lvgl/src/core/lv_obj_style_gen.h **** }
 2862              		.loc 2 517 12 view .LVU778
 2863              	.LBE225:
 2864              	.LBE224:
 317:Drivers/lvgl/src/core/lv_obj_draw.c ****     LV_PROFILER_DRAW_END;
 2865              		.loc 1 317 23 discriminator 1 view .LVU779
 2866 00b0 94F83B30 		ldrb	r3, [r4, #59]	@ zero_extendqisi2
 2867 00b4 60F30003 		bfi	r3, r0, #0, #1
 2868 00b8 84F83B30 		strb	r3, [r4, #59]
 318:Drivers/lvgl/src/core/lv_obj_draw.c **** }
 2869              		.loc 1 318 25 is_stmt 1 view .LVU780
 2870 00bc ADE7     		b	.L82
 2871              		.cfi_endproc
 2872              	.LFE185:
 2874              		.section	.text.lv_obj_init_draw_blur_dsc,"ax",%progbits
 2875              		.align	1
 2876              		.global	lv_obj_init_draw_blur_dsc
 2877              		.syntax unified
 2878              		.thumb
 2879              		.thumb_func
 2881              	lv_obj_init_draw_blur_dsc:
 2882              	.LVL247:
 2883              	.LFB186:
 322:Drivers/lvgl/src/core/lv_obj_draw.c ****     LV_PROFILER_DRAW_BEGIN;
 2884              		.loc 1 322 1 view -0
 2885              		.cfi_startproc
 2886              		@ args = 0, pretend = 0, frame = 8
 2887              		@ frame_needed = 0, uses_anonymous_args = 0
 322:Drivers/lvgl/src/core/lv_obj_draw.c ****     LV_PROFILER_DRAW_BEGIN;
 2888              		.loc 1 322 1 is_stmt 0 view .LVU782
 2889 0000 70B5     		push	{r4, r5, r6, lr}
 2890              	.LCFI62:
 2891              		.cfi_def_cfa_offset 16
 2892              		.cfi_offset 4, -16
 2893              		.cfi_offset 5, -12
 2894              		.cfi_offset 6, -8
 2895              		.cfi_offset 14, -4
 2896 0002 82B0     		sub	sp, sp, #8
 2897              	.LCFI63:
 2898              		.cfi_def_cfa_offset 24
 2899 0004 0546     		mov	r5, r0
ARM GAS  /var/folders/qx/2_175_4n2s19vhvtspjhb3qh0000gn/T//cckZJDG0.s 			page 85


 2900 0006 0E46     		mov	r6, r1
 2901 0008 1446     		mov	r4, r2
 323:Drivers/lvgl/src/core/lv_obj_draw.c ****     draw_dsc->base.obj = obj;
 2902              		.loc 1 323 27 is_stmt 1 view .LVU783
 324:Drivers/lvgl/src/core/lv_obj_draw.c ****     draw_dsc->base.part = part;
 2903              		.loc 1 324 5 view .LVU784
 324:Drivers/lvgl/src/core/lv_obj_draw.c ****     draw_dsc->base.part = part;
 2904              		.loc 1 324 24 is_stmt 0 view .LVU785
 2905 000a 1060     		str	r0, [r2]
 325:Drivers/lvgl/src/core/lv_obj_draw.c **** 
 2906              		.loc 1 325 5 is_stmt 1 view .LVU786
 325:Drivers/lvgl/src/core/lv_obj_draw.c **** 
 2907              		.loc 1 325 25 is_stmt 0 view .LVU787
 2908 000c 5160     		str	r1, [r2, #4]
 327:Drivers/lvgl/src/core/lv_obj_draw.c ****     draw_dsc->quality = lv_obj_get_style_blur_quality(obj, part);
 2909              		.loc 1 327 5 is_stmt 1 view .LVU788
 2910              	.LVL248:
 2911              	.LBB226:
 2912              	.LBI226:
 671:Drivers/lvgl/src/core/lv_obj_style_gen.h **** {
 2913              		.loc 2 671 23 view .LVU789
 2914              	.LBB227:
 673:Drivers/lvgl/src/core/lv_obj_style_gen.h ****     return (int32_t)v.num;
 2915              		.loc 2 673 5 view .LVU790
 673:Drivers/lvgl/src/core/lv_obj_style_gen.h ****     return (int32_t)v.num;
 2916              		.loc 2 673 26 is_stmt 0 view .LVU791
 2917 000e 8A22     		movs	r2, #138
 2918              	.LVL249:
 673:Drivers/lvgl/src/core/lv_obj_style_gen.h ****     return (int32_t)v.num;
 2919              		.loc 2 673 26 view .LVU792
 2920 0010 FFF7FEFF 		bl	lv_obj_get_style_prop
 2921              	.LVL250:
 673:Drivers/lvgl/src/core/lv_obj_style_gen.h ****     return (int32_t)v.num;
 2922              		.loc 2 673 26 view .LVU793
 2923 0014 0190     		str	r0, [sp, #4]
 674:Drivers/lvgl/src/core/lv_obj_style_gen.h **** }
 2924              		.loc 2 674 5 is_stmt 1 view .LVU794
 2925              	.LVL251:
 674:Drivers/lvgl/src/core/lv_obj_style_gen.h **** }
 2926              		.loc 2 674 5 is_stmt 0 view .LVU795
 2927              	.LBE227:
 2928              	.LBE226:
 327:Drivers/lvgl/src/core/lv_obj_draw.c ****     draw_dsc->quality = lv_obj_get_style_blur_quality(obj, part);
 2929              		.loc 1 327 27 discriminator 1 view .LVU796
 2930 0016 E061     		str	r0, [r4, #28]
 328:Drivers/lvgl/src/core/lv_obj_draw.c **** 
 2931              		.loc 1 328 5 is_stmt 1 view .LVU797
 2932              	.LVL252:
 2933              	.LBB228:
 2934              	.LBI228:
 683:Drivers/lvgl/src/core/lv_obj_style_gen.h **** {
 2935              		.loc 2 683 33 view .LVU798
 2936              	.LBB229:
 685:Drivers/lvgl/src/core/lv_obj_style_gen.h ****     return (lv_blur_quality_t)v.num;
 2937              		.loc 2 685 5 view .LVU799
 685:Drivers/lvgl/src/core/lv_obj_style_gen.h ****     return (lv_blur_quality_t)v.num;
 2938              		.loc 2 685 26 is_stmt 0 view .LVU800
ARM GAS  /var/folders/qx/2_175_4n2s19vhvtspjhb3qh0000gn/T//cckZJDG0.s 			page 86


 2939 0018 8C22     		movs	r2, #140
 2940 001a 3146     		mov	r1, r6
 2941 001c 2846     		mov	r0, r5
 2942 001e FFF7FEFF 		bl	lv_obj_get_style_prop
 2943              	.LVL253:
 2944 0022 0190     		str	r0, [sp, #4]
 686:Drivers/lvgl/src/core/lv_obj_style_gen.h **** }
 2945              		.loc 2 686 5 is_stmt 1 view .LVU801
 2946              	.LVL254:
 686:Drivers/lvgl/src/core/lv_obj_style_gen.h **** }
 2947              		.loc 2 686 5 is_stmt 0 view .LVU802
 2948              	.LBE229:
 2949              	.LBE228:
 328:Drivers/lvgl/src/core/lv_obj_draw.c **** 
 2950              		.loc 1 328 23 discriminator 1 view .LVU803
 2951 0024 84F82400 		strb	r0, [r4, #36]
 331:Drivers/lvgl/src/core/lv_obj_draw.c ****         draw_dsc->corner_radius = lv_obj_get_style_radius(obj, part);
 2952              		.loc 1 331 5 is_stmt 1 view .LVU804
 331:Drivers/lvgl/src/core/lv_obj_draw.c ****         draw_dsc->corner_radius = lv_obj_get_style_radius(obj, part);
 2953              		.loc 1 331 16 is_stmt 0 view .LVU805
 2954 0028 236A     		ldr	r3, [r4, #32]
 331:Drivers/lvgl/src/core/lv_obj_draw.c ****         draw_dsc->corner_radius = lv_obj_get_style_radius(obj, part);
 2955              		.loc 1 331 7 view .LVU806
 2956 002a 0BB1     		cbz	r3, .L91
 2957              	.L88:
 336:Drivers/lvgl/src/core/lv_obj_draw.c **** 
 2958              		.loc 1 336 1 view .LVU807
 2959 002c 02B0     		add	sp, sp, #8
 2960              	.LCFI64:
 2961              		.cfi_remember_state
 2962              		.cfi_def_cfa_offset 16
 2963              		@ sp needed
 2964 002e 70BD     		pop	{r4, r5, r6, pc}
 2965              	.LVL255:
 2966              	.L91:
 2967              	.LCFI65:
 2968              		.cfi_restore_state
 332:Drivers/lvgl/src/core/lv_obj_draw.c ****     }
 2969              		.loc 1 332 9 is_stmt 1 view .LVU808
 2970              	.LBB230:
 2971              	.LBI230:
 617:Drivers/lvgl/src/core/lv_obj_style_gen.h **** {
 2972              		.loc 2 617 23 view .LVU809
 2973              	.LBB231:
 619:Drivers/lvgl/src/core/lv_obj_style_gen.h ****     return (int32_t)v.num;
 2974              		.loc 2 619 5 view .LVU810
 619:Drivers/lvgl/src/core/lv_obj_style_gen.h ****     return (int32_t)v.num;
 2975              		.loc 2 619 26 is_stmt 0 view .LVU811
 2976 0030 0C22     		movs	r2, #12
 2977 0032 3146     		mov	r1, r6
 2978 0034 2846     		mov	r0, r5
 2979 0036 FFF7FEFF 		bl	lv_obj_get_style_prop
 2980              	.LVL256:
 2981 003a 0190     		str	r0, [sp, #4]
 620:Drivers/lvgl/src/core/lv_obj_style_gen.h **** }
 2982              		.loc 2 620 5 is_stmt 1 view .LVU812
 2983              	.LVL257:
ARM GAS  /var/folders/qx/2_175_4n2s19vhvtspjhb3qh0000gn/T//cckZJDG0.s 			page 87


 620:Drivers/lvgl/src/core/lv_obj_style_gen.h **** }
 2984              		.loc 2 620 5 is_stmt 0 view .LVU813
 2985              	.LBE231:
 2986              	.LBE230:
 332:Drivers/lvgl/src/core/lv_obj_draw.c ****     }
 2987              		.loc 1 332 33 discriminator 1 view .LVU814
 2988 003c 2062     		str	r0, [r4, #32]
 335:Drivers/lvgl/src/core/lv_obj_draw.c **** }
 2989              		.loc 1 335 25 is_stmt 1 view .LVU815
 336:Drivers/lvgl/src/core/lv_obj_draw.c **** 
 2990              		.loc 1 336 1 is_stmt 0 view .LVU816
 2991 003e F5E7     		b	.L88
 2992              		.cfi_endproc
 2993              	.LFE186:
 2995              		.section	.text.lv_obj_calculate_ext_draw_size,"ax",%progbits
 2996              		.align	1
 2997              		.global	lv_obj_calculate_ext_draw_size
 2998              		.syntax unified
 2999              		.thumb
 3000              		.thumb_func
 3002              	lv_obj_calculate_ext_draw_size:
 3003              	.LVL258:
 3004              	.LFB187:
 340:Drivers/lvgl/src/core/lv_obj_draw.c ****     LV_PROFILER_DRAW_BEGIN;
 3005              		.loc 1 340 1 is_stmt 1 view -0
 3006              		.cfi_startproc
 3007              		@ args = 0, pretend = 0, frame = 8
 3008              		@ frame_needed = 0, uses_anonymous_args = 0
 340:Drivers/lvgl/src/core/lv_obj_draw.c ****     LV_PROFILER_DRAW_BEGIN;
 3009              		.loc 1 340 1 is_stmt 0 view .LVU818
 3010 0000 F0B5     		push	{r4, r5, r6, r7, lr}
 3011              	.LCFI66:
 3012              		.cfi_def_cfa_offset 20
 3013              		.cfi_offset 4, -20
 3014              		.cfi_offset 5, -16
 3015              		.cfi_offset 6, -12
 3016              		.cfi_offset 7, -8
 3017              		.cfi_offset 14, -4
 3018 0002 83B0     		sub	sp, sp, #12
 3019              	.LCFI67:
 3020              		.cfi_def_cfa_offset 32
 3021 0004 0546     		mov	r5, r0
 3022 0006 0E46     		mov	r6, r1
 341:Drivers/lvgl/src/core/lv_obj_draw.c ****     int32_t s = 0;
 3023              		.loc 1 341 27 is_stmt 1 view .LVU819
 342:Drivers/lvgl/src/core/lv_obj_draw.c **** 
 3024              		.loc 1 342 5 view .LVU820
 3025              	.LVL259:
 344:Drivers/lvgl/src/core/lv_obj_draw.c ****     if(sh_width) {
 3026              		.loc 1 344 5 view .LVU821
 3027              	.LBB232:
 3028              	.LBI232:
 392:Drivers/lvgl/src/core/lv_obj_style_gen.h **** {
 3029              		.loc 2 392 23 view .LVU822
 3030              	.LBB233:
 394:Drivers/lvgl/src/core/lv_obj_style_gen.h ****     return (int32_t)v.num;
 3031              		.loc 2 394 5 view .LVU823
ARM GAS  /var/folders/qx/2_175_4n2s19vhvtspjhb3qh0000gn/T//cckZJDG0.s 			page 88


 394:Drivers/lvgl/src/core/lv_obj_style_gen.h ****     return (int32_t)v.num;
 3032              		.loc 2 394 26 is_stmt 0 view .LVU824
 3033 0008 3C22     		movs	r2, #60
 3034 000a FFF7FEFF 		bl	lv_obj_get_style_prop
 3035              	.LVL260:
 394:Drivers/lvgl/src/core/lv_obj_style_gen.h ****     return (int32_t)v.num;
 3036              		.loc 2 394 26 view .LVU825
 3037 000e 0190     		str	r0, [sp, #4]
 395:Drivers/lvgl/src/core/lv_obj_style_gen.h **** }
 3038              		.loc 2 395 5 is_stmt 1 view .LVU826
 395:Drivers/lvgl/src/core/lv_obj_style_gen.h **** }
 3039              		.loc 2 395 12 is_stmt 0 view .LVU827
 3040 0010 0746     		mov	r7, r0
 3041              	.LVL261:
 395:Drivers/lvgl/src/core/lv_obj_style_gen.h **** }
 3042              		.loc 2 395 12 view .LVU828
 3043              	.LBE233:
 3044              	.LBE232:
 345:Drivers/lvgl/src/core/lv_obj_draw.c ****         lv_opa_t sh_opa = lv_obj_get_style_shadow_opa(obj, part);
 3045              		.loc 1 345 5 is_stmt 1 view .LVU829
 345:Drivers/lvgl/src/core/lv_obj_draw.c ****         lv_opa_t sh_opa = lv_obj_get_style_shadow_opa(obj, part);
 3046              		.loc 1 345 7 is_stmt 0 view .LVU830
 3047 0012 F0B9     		cbnz	r0, .L98
 3048              	.LVL262:
 3049              	.L93:
 357:Drivers/lvgl/src/core/lv_obj_draw.c ****     if(outline_width) {
 3050              		.loc 1 357 5 is_stmt 1 view .LVU831
 3051              	.LBB234:
 3052              	.LBI234:
 361:Drivers/lvgl/src/core/lv_obj_style_gen.h **** {
 3053              		.loc 2 361 23 view .LVU832
 3054              	.LBB235:
 363:Drivers/lvgl/src/core/lv_obj_style_gen.h ****     return (int32_t)v.num;
 3055              		.loc 2 363 5 view .LVU833
 363:Drivers/lvgl/src/core/lv_obj_style_gen.h ****     return (int32_t)v.num;
 3056              		.loc 2 363 26 is_stmt 0 view .LVU834
 3057 0014 3822     		movs	r2, #56
 3058 0016 3146     		mov	r1, r6
 3059 0018 2846     		mov	r0, r5
 3060 001a FFF7FEFF 		bl	lv_obj_get_style_prop
 3061              	.LVL263:
 3062 001e 0446     		mov	r4, r0
 3063 0020 0190     		str	r0, [sp, #4]
 364:Drivers/lvgl/src/core/lv_obj_style_gen.h **** }
 3064              		.loc 2 364 5 is_stmt 1 view .LVU835
 3065              	.LVL264:
 364:Drivers/lvgl/src/core/lv_obj_style_gen.h **** }
 3066              		.loc 2 364 5 is_stmt 0 view .LVU836
 3067              	.LBE235:
 3068              	.LBE234:
 358:Drivers/lvgl/src/core/lv_obj_draw.c ****         lv_opa_t outline_opa = lv_obj_get_style_outline_opa(obj, part);
 3069              		.loc 1 358 5 is_stmt 1 view .LVU837
 358:Drivers/lvgl/src/core/lv_obj_draw.c ****         lv_opa_t outline_opa = lv_obj_get_style_outline_opa(obj, part);
 3070              		.loc 1 358 7 is_stmt 0 view .LVU838
 3071 0022 0028     		cmp	r0, #0
 3072 0024 45D1     		bne	.L99
 3073              	.LVL265:
ARM GAS  /var/folders/qx/2_175_4n2s19vhvtspjhb3qh0000gn/T//cckZJDG0.s 			page 89


 3074              	.L94:
 366:Drivers/lvgl/src/core/lv_obj_draw.c ****     int32_t h = lv_obj_get_style_transform_height(obj, part);
 3075              		.loc 1 366 5 is_stmt 1 view .LVU839
 3076              	.LBB236:
 3077              	.LBI236:
  82:Drivers/lvgl/src/core/lv_obj_style_gen.h **** {
 3078              		.loc 2 82 23 view .LVU840
 3079              	.LBB237:
  84:Drivers/lvgl/src/core/lv_obj_style_gen.h ****     return (int32_t)v.num;
 3080              		.loc 2 84 5 view .LVU841
  84:Drivers/lvgl/src/core/lv_obj_style_gen.h ****     return (int32_t)v.num;
 3081              		.loc 2 84 26 is_stmt 0 view .LVU842
 3082 0026 6A22     		movs	r2, #106
 3083 0028 3146     		mov	r1, r6
 3084 002a 2846     		mov	r0, r5
 3085 002c FFF7FEFF 		bl	lv_obj_get_style_prop
 3086              	.LVL266:
 3087 0030 0446     		mov	r4, r0
 3088 0032 0190     		str	r0, [sp, #4]
  85:Drivers/lvgl/src/core/lv_obj_style_gen.h **** }
 3089              		.loc 2 85 5 is_stmt 1 view .LVU843
 3090              	.LVL267:
  85:Drivers/lvgl/src/core/lv_obj_style_gen.h **** }
 3091              		.loc 2 85 5 is_stmt 0 view .LVU844
 3092              	.LBE237:
 3093              	.LBE236:
 367:Drivers/lvgl/src/core/lv_obj_draw.c ****     int32_t wh = LV_MAX(w, h);
 3094              		.loc 1 367 5 is_stmt 1 view .LVU845
 3095              	.LBB238:
 3096              	.LBI238:
  88:Drivers/lvgl/src/core/lv_obj_style_gen.h **** {
 3097              		.loc 2 88 23 view .LVU846
 3098              	.LBB239:
  90:Drivers/lvgl/src/core/lv_obj_style_gen.h ****     return (int32_t)v.num;
 3099              		.loc 2 90 5 view .LVU847
  90:Drivers/lvgl/src/core/lv_obj_style_gen.h ****     return (int32_t)v.num;
 3100              		.loc 2 90 26 is_stmt 0 view .LVU848
 3101 0034 6B22     		movs	r2, #107
 3102 0036 3146     		mov	r1, r6
 3103 0038 2846     		mov	r0, r5
 3104              	.LVL268:
  90:Drivers/lvgl/src/core/lv_obj_style_gen.h ****     return (int32_t)v.num;
 3105              		.loc 2 90 26 view .LVU849
 3106 003a FFF7FEFF 		bl	lv_obj_get_style_prop
 3107              	.LVL269:
 3108 003e 0190     		str	r0, [sp, #4]
  91:Drivers/lvgl/src/core/lv_obj_style_gen.h **** }
 3109              		.loc 2 91 5 is_stmt 1 view .LVU850
 3110              	.LVL270:
  91:Drivers/lvgl/src/core/lv_obj_style_gen.h **** }
 3111              		.loc 2 91 5 is_stmt 0 view .LVU851
 3112              	.LBE239:
 3113              	.LBE238:
 368:Drivers/lvgl/src/core/lv_obj_draw.c ****     if(wh > 0) s += wh;
 3114              		.loc 1 368 5 is_stmt 1 view .LVU852
 368:Drivers/lvgl/src/core/lv_obj_draw.c ****     if(wh > 0) s += wh;
 3115              		.loc 1 368 13 is_stmt 0 view .LVU853
ARM GAS  /var/folders/qx/2_175_4n2s19vhvtspjhb3qh0000gn/T//cckZJDG0.s 			page 90


 3116 0040 A042     		cmp	r0, r4
 3117 0042 B8BF     		it	lt
 3118 0044 2046     		movlt	r0, r4
 3119              	.LVL271:
 369:Drivers/lvgl/src/core/lv_obj_draw.c **** 
 3120              		.loc 1 369 5 is_stmt 1 view .LVU854
 369:Drivers/lvgl/src/core/lv_obj_draw.c **** 
 3121              		.loc 1 369 7 is_stmt 0 view .LVU855
 3122 0046 0028     		cmp	r0, #0
 3123 0048 00DD     		ble	.L92
 369:Drivers/lvgl/src/core/lv_obj_draw.c **** 
 3124              		.loc 1 369 16 is_stmt 1 discriminator 1 view .LVU856
 369:Drivers/lvgl/src/core/lv_obj_draw.c **** 
 3125              		.loc 1 369 18 is_stmt 0 discriminator 1 view .LVU857
 3126 004a 0744     		add	r7, r7, r0
 3127              	.LVL272:
 371:Drivers/lvgl/src/core/lv_obj_draw.c ****     return s;
 3128              		.loc 1 371 25 is_stmt 1 view .LVU858
 372:Drivers/lvgl/src/core/lv_obj_draw.c **** }
 3129              		.loc 1 372 5 view .LVU859
 3130              	.L92:
 373:Drivers/lvgl/src/core/lv_obj_draw.c **** 
 3131              		.loc 1 373 1 is_stmt 0 view .LVU860
 3132 004c 3846     		mov	r0, r7
 3133              	.LVL273:
 373:Drivers/lvgl/src/core/lv_obj_draw.c **** 
 3134              		.loc 1 373 1 view .LVU861
 3135 004e 03B0     		add	sp, sp, #12
 3136              	.LCFI68:
 3137              		.cfi_remember_state
 3138              		.cfi_def_cfa_offset 20
 3139              		@ sp needed
 3140 0050 F0BD     		pop	{r4, r5, r6, r7, pc}
 3141              	.LVL274:
 3142              	.L98:
 3143              	.LCFI69:
 3144              		.cfi_restore_state
 3145              	.LBB240:
 346:Drivers/lvgl/src/core/lv_obj_draw.c ****         if(sh_opa > LV_OPA_MIN) {
 3146              		.loc 1 346 9 is_stmt 1 view .LVU862
 3147              	.LBB241:
 3148              	.LBI241:
 429:Drivers/lvgl/src/core/lv_obj_style_gen.h **** {
 3149              		.loc 2 429 24 view .LVU863
 3150              	.LBB242:
 431:Drivers/lvgl/src/core/lv_obj_style_gen.h ****     return (lv_opa_t)v.num;
 3151              		.loc 2 431 5 view .LVU864
 431:Drivers/lvgl/src/core/lv_obj_style_gen.h ****     return (lv_opa_t)v.num;
 3152              		.loc 2 431 26 is_stmt 0 view .LVU865
 3153 0052 3E22     		movs	r2, #62
 3154 0054 3146     		mov	r1, r6
 3155 0056 2846     		mov	r0, r5
 3156              	.LVL275:
 431:Drivers/lvgl/src/core/lv_obj_style_gen.h ****     return (lv_opa_t)v.num;
 3157              		.loc 2 431 26 view .LVU866
 3158 0058 FFF7FEFF 		bl	lv_obj_get_style_prop
 3159              	.LVL276:
ARM GAS  /var/folders/qx/2_175_4n2s19vhvtspjhb3qh0000gn/T//cckZJDG0.s 			page 91


 3160 005c 0190     		str	r0, [sp, #4]
 432:Drivers/lvgl/src/core/lv_obj_style_gen.h **** }
 3161              		.loc 2 432 5 is_stmt 1 view .LVU867
 432:Drivers/lvgl/src/core/lv_obj_style_gen.h **** }
 3162              		.loc 2 432 12 is_stmt 0 view .LVU868
 3163 005e C0B2     		uxtb	r0, r0
 3164              	.LVL277:
 432:Drivers/lvgl/src/core/lv_obj_style_gen.h **** }
 3165              		.loc 2 432 12 view .LVU869
 3166              	.LBE242:
 3167              	.LBE241:
 347:Drivers/lvgl/src/core/lv_obj_draw.c ****             sh_width = sh_width / 2 + 1;    /*The blur adds only half width*/
 3168              		.loc 1 347 9 is_stmt 1 view .LVU870
 347:Drivers/lvgl/src/core/lv_obj_draw.c ****             sh_width = sh_width / 2 + 1;    /*The blur adds only half width*/
 3169              		.loc 1 347 11 is_stmt 0 view .LVU871
 3170 0060 0228     		cmp	r0, #2
 3171 0062 01D8     		bhi	.L100
 3172              	.LBE240:
 342:Drivers/lvgl/src/core/lv_obj_draw.c **** 
 3173              		.loc 1 342 13 view .LVU872
 3174 0064 0027     		movs	r7, #0
 3175              	.LVL278:
 342:Drivers/lvgl/src/core/lv_obj_draw.c **** 
 3176              		.loc 1 342 13 view .LVU873
 3177 0066 D5E7     		b	.L93
 3178              	.LVL279:
 3179              	.L100:
 3180              	.LBB250:
 3181              	.LBB243:
 348:Drivers/lvgl/src/core/lv_obj_draw.c ****             sh_width += lv_obj_get_style_shadow_spread(obj, part);
 3182              		.loc 1 348 13 is_stmt 1 view .LVU874
 348:Drivers/lvgl/src/core/lv_obj_draw.c ****             sh_width += lv_obj_get_style_shadow_spread(obj, part);
 3183              		.loc 1 348 33 is_stmt 0 view .LVU875
 3184 0068 07EBD774 		add	r4, r7, r7, lsr #31
 3185 006c 6410     		asrs	r4, r4, #1
 348:Drivers/lvgl/src/core/lv_obj_draw.c ****             sh_width += lv_obj_get_style_shadow_spread(obj, part);
 3186              		.loc 1 348 22 view .LVU876
 3187 006e 0134     		adds	r4, r4, #1
 3188              	.LVL280:
 349:Drivers/lvgl/src/core/lv_obj_draw.c ****             int32_t sh_ofs_x = lv_obj_get_style_shadow_offset_x(obj, part);
 3189              		.loc 1 349 13 is_stmt 1 view .LVU877
 3190              	.LBB244:
 3191              	.LBI244:
 410:Drivers/lvgl/src/core/lv_obj_style_gen.h **** {
 3192              		.loc 2 410 23 view .LVU878
 3193              	.LBB245:
 412:Drivers/lvgl/src/core/lv_obj_style_gen.h ****     return (int32_t)v.num;
 3194              		.loc 2 412 5 view .LVU879
 412:Drivers/lvgl/src/core/lv_obj_style_gen.h ****     return (int32_t)v.num;
 3195              		.loc 2 412 26 is_stmt 0 view .LVU880
 3196 0070 4222     		movs	r2, #66
 3197 0072 3146     		mov	r1, r6
 3198 0074 2846     		mov	r0, r5
 3199              	.LVL281:
 412:Drivers/lvgl/src/core/lv_obj_style_gen.h ****     return (int32_t)v.num;
 3200              		.loc 2 412 26 view .LVU881
 3201 0076 FFF7FEFF 		bl	lv_obj_get_style_prop
ARM GAS  /var/folders/qx/2_175_4n2s19vhvtspjhb3qh0000gn/T//cckZJDG0.s 			page 92


 3202              	.LVL282:
 412:Drivers/lvgl/src/core/lv_obj_style_gen.h ****     return (int32_t)v.num;
 3203              		.loc 2 412 26 view .LVU882
 3204 007a 0190     		str	r0, [sp, #4]
 413:Drivers/lvgl/src/core/lv_obj_style_gen.h **** }
 3205              		.loc 2 413 5 is_stmt 1 view .LVU883
 3206              	.LVL283:
 413:Drivers/lvgl/src/core/lv_obj_style_gen.h **** }
 3207              		.loc 2 413 5 is_stmt 0 view .LVU884
 3208              	.LBE245:
 3209              	.LBE244:
 349:Drivers/lvgl/src/core/lv_obj_draw.c ****             int32_t sh_ofs_x = lv_obj_get_style_shadow_offset_x(obj, part);
 3210              		.loc 1 349 22 discriminator 1 view .LVU885
 3211 007c 0444     		add	r4, r4, r0
 3212              	.LVL284:
 350:Drivers/lvgl/src/core/lv_obj_draw.c ****             int32_t sh_ofs_y = lv_obj_get_style_shadow_offset_y(obj, part);
 3213              		.loc 1 350 13 is_stmt 1 view .LVU886
 3214              	.LBB246:
 3215              	.LBI246:
 398:Drivers/lvgl/src/core/lv_obj_style_gen.h **** {
 3216              		.loc 2 398 23 view .LVU887
 3217              	.LBB247:
 400:Drivers/lvgl/src/core/lv_obj_style_gen.h ****     return (int32_t)v.num;
 3218              		.loc 2 400 5 view .LVU888
 400:Drivers/lvgl/src/core/lv_obj_style_gen.h ****     return (int32_t)v.num;
 3219              		.loc 2 400 26 is_stmt 0 view .LVU889
 3220 007e 4022     		movs	r2, #64
 3221 0080 3146     		mov	r1, r6
 3222 0082 2846     		mov	r0, r5
 3223 0084 FFF7FEFF 		bl	lv_obj_get_style_prop
 3224              	.LVL285:
 3225 0088 0746     		mov	r7, r0
 3226 008a 0190     		str	r0, [sp, #4]
 401:Drivers/lvgl/src/core/lv_obj_style_gen.h **** }
 3227              		.loc 2 401 5 is_stmt 1 view .LVU890
 3228              	.LVL286:
 401:Drivers/lvgl/src/core/lv_obj_style_gen.h **** }
 3229              		.loc 2 401 5 is_stmt 0 view .LVU891
 3230              	.LBE247:
 3231              	.LBE246:
 351:Drivers/lvgl/src/core/lv_obj_draw.c ****             sh_width += LV_MAX(LV_ABS(sh_ofs_x), LV_ABS(sh_ofs_y));
 3232              		.loc 1 351 13 is_stmt 1 view .LVU892
 3233              	.LBB248:
 3234              	.LBI248:
 404:Drivers/lvgl/src/core/lv_obj_style_gen.h **** {
 3235              		.loc 2 404 23 view .LVU893
 3236              	.LBB249:
 406:Drivers/lvgl/src/core/lv_obj_style_gen.h ****     return (int32_t)v.num;
 3237              		.loc 2 406 5 view .LVU894
 406:Drivers/lvgl/src/core/lv_obj_style_gen.h ****     return (int32_t)v.num;
 3238              		.loc 2 406 26 is_stmt 0 view .LVU895
 3239 008c 4122     		movs	r2, #65
 3240 008e 3146     		mov	r1, r6
 3241 0090 2846     		mov	r0, r5
 3242              	.LVL287:
 406:Drivers/lvgl/src/core/lv_obj_style_gen.h ****     return (int32_t)v.num;
 3243              		.loc 2 406 26 view .LVU896
ARM GAS  /var/folders/qx/2_175_4n2s19vhvtspjhb3qh0000gn/T//cckZJDG0.s 			page 93


 3244 0092 FFF7FEFF 		bl	lv_obj_get_style_prop
 3245              	.LVL288:
 3246 0096 0190     		str	r0, [sp, #4]
 407:Drivers/lvgl/src/core/lv_obj_style_gen.h **** }
 3247              		.loc 2 407 5 is_stmt 1 view .LVU897
 3248              	.LVL289:
 407:Drivers/lvgl/src/core/lv_obj_style_gen.h **** }
 3249              		.loc 2 407 5 is_stmt 0 view .LVU898
 3250              	.LBE249:
 3251              	.LBE248:
 352:Drivers/lvgl/src/core/lv_obj_draw.c ****             s = LV_MAX(s, sh_width);
 3252              		.loc 1 352 13 is_stmt 1 view .LVU899
 352:Drivers/lvgl/src/core/lv_obj_draw.c ****             s = LV_MAX(s, sh_width);
 3253              		.loc 1 352 25 is_stmt 0 view .LVU900
 3254 0098 0028     		cmp	r0, #0
 3255 009a B8BF     		it	lt
 3256 009c 4042     		rsblt	r0, r0, #0
 3257              	.LVL290:
 352:Drivers/lvgl/src/core/lv_obj_draw.c ****             s = LV_MAX(s, sh_width);
 3258              		.loc 1 352 25 view .LVU901
 3259 009e 002F     		cmp	r7, #0
 3260 00a0 B8BF     		it	lt
 3261 00a2 7F42     		rsblt	r7, r7, #0
 3262              	.LVL291:
 352:Drivers/lvgl/src/core/lv_obj_draw.c ****             s = LV_MAX(s, sh_width);
 3263              		.loc 1 352 22 view .LVU902
 3264 00a4 B842     		cmp	r0, r7
 3265 00a6 ACBF     		ite	ge
 3266 00a8 2418     		addge	r4, r4, r0
 3267 00aa E419     		addlt	r4, r4, r7
 3268              	.LVL292:
 353:Drivers/lvgl/src/core/lv_obj_draw.c ****         }
 3269              		.loc 1 353 13 is_stmt 1 view .LVU903
 353:Drivers/lvgl/src/core/lv_obj_draw.c ****         }
 3270              		.loc 1 353 15 is_stmt 0 view .LVU904
 3271 00ac 24EAE477 		bic	r7, r4, r4, asr #31
 3272              	.LVL293:
 353:Drivers/lvgl/src/core/lv_obj_draw.c ****         }
 3273              		.loc 1 353 15 view .LVU905
 3274 00b0 B0E7     		b	.L93
 3275              	.LVL294:
 3276              	.L99:
 353:Drivers/lvgl/src/core/lv_obj_draw.c ****         }
 3277              		.loc 1 353 15 view .LVU906
 3278              	.LBE243:
 3279              	.LBE250:
 3280              	.LBB251:
 359:Drivers/lvgl/src/core/lv_obj_draw.c ****         if(outline_opa > LV_OPA_MIN) {
 3281              		.loc 1 359 9 is_stmt 1 view .LVU907
 3282              	.LBB252:
 3283              	.LBI252:
 380:Drivers/lvgl/src/core/lv_obj_style_gen.h **** {
 3284              		.loc 2 380 24 view .LVU908
 3285              	.LBB253:
 382:Drivers/lvgl/src/core/lv_obj_style_gen.h ****     return (lv_opa_t)v.num;
 3286              		.loc 2 382 5 view .LVU909
 382:Drivers/lvgl/src/core/lv_obj_style_gen.h ****     return (lv_opa_t)v.num;
ARM GAS  /var/folders/qx/2_175_4n2s19vhvtspjhb3qh0000gn/T//cckZJDG0.s 			page 94


 3287              		.loc 2 382 26 is_stmt 0 view .LVU910
 3288 00b2 3A22     		movs	r2, #58
 3289 00b4 3146     		mov	r1, r6
 3290 00b6 2846     		mov	r0, r5
 3291              	.LVL295:
 382:Drivers/lvgl/src/core/lv_obj_style_gen.h ****     return (lv_opa_t)v.num;
 3292              		.loc 2 382 26 view .LVU911
 3293 00b8 FFF7FEFF 		bl	lv_obj_get_style_prop
 3294              	.LVL296:
 3295 00bc 0190     		str	r0, [sp, #4]
 383:Drivers/lvgl/src/core/lv_obj_style_gen.h **** }
 3296              		.loc 2 383 5 is_stmt 1 view .LVU912
 383:Drivers/lvgl/src/core/lv_obj_style_gen.h **** }
 3297              		.loc 2 383 12 is_stmt 0 view .LVU913
 3298 00be C0B2     		uxtb	r0, r0
 3299              	.LVL297:
 383:Drivers/lvgl/src/core/lv_obj_style_gen.h **** }
 3300              		.loc 2 383 12 view .LVU914
 3301              	.LBE253:
 3302              	.LBE252:
 360:Drivers/lvgl/src/core/lv_obj_draw.c ****             int32_t outline_pad = lv_obj_get_style_outline_pad(obj, part);
 3303              		.loc 1 360 9 is_stmt 1 view .LVU915
 360:Drivers/lvgl/src/core/lv_obj_draw.c ****             int32_t outline_pad = lv_obj_get_style_outline_pad(obj, part);
 3304              		.loc 1 360 11 is_stmt 0 view .LVU916
 3305 00c0 0228     		cmp	r0, #2
 3306 00c2 B0D9     		bls	.L94
 3307              	.LBB254:
 361:Drivers/lvgl/src/core/lv_obj_draw.c ****             s = LV_MAX(s, outline_pad + outline_width);
 3308              		.loc 1 361 13 is_stmt 1 view .LVU917
 3309              	.LVL298:
 3310              	.LBB255:
 3311              	.LBI255:
 386:Drivers/lvgl/src/core/lv_obj_style_gen.h **** {
 3312              		.loc 2 386 23 view .LVU918
 3313              	.LBB256:
 388:Drivers/lvgl/src/core/lv_obj_style_gen.h ****     return (int32_t)v.num;
 3314              		.loc 2 388 5 view .LVU919
 388:Drivers/lvgl/src/core/lv_obj_style_gen.h ****     return (int32_t)v.num;
 3315              		.loc 2 388 26 is_stmt 0 view .LVU920
 3316 00c4 3B22     		movs	r2, #59
 3317 00c6 3146     		mov	r1, r6
 3318 00c8 2846     		mov	r0, r5
 3319              	.LVL299:
 388:Drivers/lvgl/src/core/lv_obj_style_gen.h ****     return (int32_t)v.num;
 3320              		.loc 2 388 26 view .LVU921
 3321 00ca FFF7FEFF 		bl	lv_obj_get_style_prop
 3322              	.LVL300:
 388:Drivers/lvgl/src/core/lv_obj_style_gen.h ****     return (int32_t)v.num;
 3323              		.loc 2 388 26 view .LVU922
 3324 00ce 0190     		str	r0, [sp, #4]
 389:Drivers/lvgl/src/core/lv_obj_style_gen.h **** }
 3325              		.loc 2 389 5 is_stmt 1 view .LVU923
 3326              	.LVL301:
 389:Drivers/lvgl/src/core/lv_obj_style_gen.h **** }
 3327              		.loc 2 389 5 is_stmt 0 view .LVU924
 3328              	.LBE256:
 3329              	.LBE255:
ARM GAS  /var/folders/qx/2_175_4n2s19vhvtspjhb3qh0000gn/T//cckZJDG0.s 			page 95


 362:Drivers/lvgl/src/core/lv_obj_draw.c ****         }
 3330              		.loc 1 362 13 is_stmt 1 view .LVU925
 362:Drivers/lvgl/src/core/lv_obj_draw.c ****         }
 3331              		.loc 1 362 17 is_stmt 0 view .LVU926
 3332 00d0 0444     		add	r4, r4, r0
 3333              	.LVL302:
 362:Drivers/lvgl/src/core/lv_obj_draw.c ****         }
 3334              		.loc 1 362 15 view .LVU927
 3335 00d2 A742     		cmp	r7, r4
 3336 00d4 B8BF     		it	lt
 3337 00d6 2746     		movlt	r7, r4
 3338              	.LVL303:
 362:Drivers/lvgl/src/core/lv_obj_draw.c ****         }
 3339              		.loc 1 362 15 view .LVU928
 3340 00d8 A5E7     		b	.L94
 3341              	.LBE254:
 3342              	.LBE251:
 3343              		.cfi_endproc
 3344              	.LFE187:
 3346              		.section	.text.lv_obj_get_ext_draw_size,"ax",%progbits
 3347              		.align	1
 3348              		.global	lv_obj_get_ext_draw_size
 3349              		.syntax unified
 3350              		.thumb
 3351              		.thumb_func
 3353              	lv_obj_get_ext_draw_size:
 3354              	.LVL304:
 3355              	.LFB189:
 400:Drivers/lvgl/src/core/lv_obj_draw.c ****     if(obj->spec_attr) return obj->spec_attr->ext_draw_size;
 3356              		.loc 1 400 1 is_stmt 1 view -0
 3357              		.cfi_startproc
 3358              		@ args = 0, pretend = 0, frame = 0
 3359              		@ frame_needed = 0, uses_anonymous_args = 0
 3360              		@ link register save eliminated.
 401:Drivers/lvgl/src/core/lv_obj_draw.c ****     else return 0;
 3361              		.loc 1 401 5 view .LVU930
 401:Drivers/lvgl/src/core/lv_obj_draw.c ****     else return 0;
 3362              		.loc 1 401 11 is_stmt 0 view .LVU931
 3363 0000 8368     		ldr	r3, [r0, #8]
 401:Drivers/lvgl/src/core/lv_obj_draw.c ****     else return 0;
 3364              		.loc 1 401 7 view .LVU932
 3365 0002 0BB1     		cbz	r3, .L103
 401:Drivers/lvgl/src/core/lv_obj_draw.c ****     else return 0;
 3366              		.loc 1 401 24 is_stmt 1 discriminator 1 view .LVU933
 401:Drivers/lvgl/src/core/lv_obj_draw.c ****     else return 0;
 3367              		.loc 1 401 45 is_stmt 0 discriminator 1 view .LVU934
 3368 0004 D86A     		ldr	r0, [r3, #44]
 3369              	.LVL305:
 401:Drivers/lvgl/src/core/lv_obj_draw.c ****     else return 0;
 3370              		.loc 1 401 45 view .LVU935
 3371 0006 7047     		bx	lr
 3372              	.LVL306:
 3373              	.L103:
 402:Drivers/lvgl/src/core/lv_obj_draw.c **** }
 3374              		.loc 1 402 17 view .LVU936
 3375 0008 0020     		movs	r0, #0
 3376              	.LVL307:
ARM GAS  /var/folders/qx/2_175_4n2s19vhvtspjhb3qh0000gn/T//cckZJDG0.s 			page 96


 403:Drivers/lvgl/src/core/lv_obj_draw.c **** 
 3377              		.loc 1 403 1 view .LVU937
 3378 000a 7047     		bx	lr
 3379              		.cfi_endproc
 3380              	.LFE189:
 3382              		.section	.text.lv_obj_refresh_ext_draw_size,"ax",%progbits
 3383              		.align	1
 3384              		.global	lv_obj_refresh_ext_draw_size
 3385              		.syntax unified
 3386              		.thumb
 3387              		.thumb_func
 3389              	lv_obj_refresh_ext_draw_size:
 3390              	.LVL308:
 3391              	.LFB188:
 376:Drivers/lvgl/src/core/lv_obj_draw.c ****     LV_PROFILER_DRAW_BEGIN;
 3392              		.loc 1 376 1 is_stmt 1 view -0
 3393              		.cfi_startproc
 3394              		@ args = 0, pretend = 0, frame = 8
 3395              		@ frame_needed = 0, uses_anonymous_args = 0
 377:Drivers/lvgl/src/core/lv_obj_draw.c ****     LV_ASSERT_OBJ(obj, MY_CLASS);
 3396              		.loc 1 377 27 view .LVU939
 378:Drivers/lvgl/src/core/lv_obj_draw.c **** 
 3397              		.loc 1 378 5 view .LVU940
 378:Drivers/lvgl/src/core/lv_obj_draw.c **** 
 3398              		.loc 1 378 5 view .LVU941
 3399 0000 A8B1     		cbz	r0, .L106
 376:Drivers/lvgl/src/core/lv_obj_draw.c ****     LV_PROFILER_DRAW_BEGIN;
 3400              		.loc 1 376 1 is_stmt 0 view .LVU942
 3401 0002 30B5     		push	{r4, r5, lr}
 3402              	.LCFI70:
 3403              		.cfi_def_cfa_offset 12
 3404              		.cfi_offset 4, -12
 3405              		.cfi_offset 5, -8
 3406              		.cfi_offset 14, -4
 3407 0004 83B0     		sub	sp, sp, #12
 3408              	.LCFI71:
 3409              		.cfi_def_cfa_offset 24
 3410 0006 0446     		mov	r4, r0
 378:Drivers/lvgl/src/core/lv_obj_draw.c **** 
 3411              		.loc 1 378 5 is_stmt 1 view .LVU943
 378:Drivers/lvgl/src/core/lv_obj_draw.c **** 
 3412              		.loc 1 378 33 view .LVU944
 380:Drivers/lvgl/src/core/lv_obj_draw.c ****     int32_t s_new = 0;
 3413              		.loc 1 380 5 view .LVU945
 380:Drivers/lvgl/src/core/lv_obj_draw.c ****     int32_t s_new = 0;
 3414              		.loc 1 380 21 is_stmt 0 view .LVU946
 3415 0008 FFF7FEFF 		bl	lv_obj_get_ext_draw_size
 3416              	.LVL309:
 380:Drivers/lvgl/src/core/lv_obj_draw.c ****     int32_t s_new = 0;
 3417              		.loc 1 380 21 view .LVU947
 3418 000c 0546     		mov	r5, r0
 3419              	.LVL310:
 381:Drivers/lvgl/src/core/lv_obj_draw.c ****     lv_obj_send_event(obj, LV_EVENT_REFR_EXT_DRAW_SIZE, &s_new);
 3420              		.loc 1 381 5 is_stmt 1 view .LVU948
 381:Drivers/lvgl/src/core/lv_obj_draw.c ****     lv_obj_send_event(obj, LV_EVENT_REFR_EXT_DRAW_SIZE, &s_new);
 3421              		.loc 1 381 13 is_stmt 0 view .LVU949
 3422 000e 0023     		movs	r3, #0
ARM GAS  /var/folders/qx/2_175_4n2s19vhvtspjhb3qh0000gn/T//cckZJDG0.s 			page 97


 3423 0010 0193     		str	r3, [sp, #4]
 382:Drivers/lvgl/src/core/lv_obj_draw.c **** 
 3424              		.loc 1 382 5 is_stmt 1 view .LVU950
 3425 0012 01AA     		add	r2, sp, #4
 3426 0014 1B21     		movs	r1, #27
 3427 0016 2046     		mov	r0, r4
 3428              	.LVL311:
 382:Drivers/lvgl/src/core/lv_obj_draw.c **** 
 3429              		.loc 1 382 5 is_stmt 0 view .LVU951
 3430 0018 FFF7FEFF 		bl	lv_obj_send_event
 3431              	.LVL312:
 385:Drivers/lvgl/src/core/lv_obj_draw.c ****         obj->spec_attr->ext_draw_size = s_new;
 3432              		.loc 1 385 5 is_stmt 1 view .LVU952
 385:Drivers/lvgl/src/core/lv_obj_draw.c ****         obj->spec_attr->ext_draw_size = s_new;
 3433              		.loc 1 385 11 is_stmt 0 view .LVU953
 3434 001c A368     		ldr	r3, [r4, #8]
 385:Drivers/lvgl/src/core/lv_obj_draw.c ****         obj->spec_attr->ext_draw_size = s_new;
 3435              		.loc 1 385 7 view .LVU954
 3436 001e 3BB1     		cbz	r3, .L107
 386:Drivers/lvgl/src/core/lv_obj_draw.c ****     }
 3437              		.loc 1 386 9 is_stmt 1 view .LVU955
 386:Drivers/lvgl/src/core/lv_obj_draw.c ****     }
 3438              		.loc 1 386 39 is_stmt 0 view .LVU956
 3439 0020 019A     		ldr	r2, [sp, #4]
 3440 0022 DA62     		str	r2, [r3, #44]
 3441              	.L108:
 395:Drivers/lvgl/src/core/lv_obj_draw.c ****     LV_PROFILER_DRAW_END;
 3442              		.loc 1 395 5 is_stmt 1 view .LVU957
 395:Drivers/lvgl/src/core/lv_obj_draw.c ****     LV_PROFILER_DRAW_END;
 3443              		.loc 1 395 14 is_stmt 0 view .LVU958
 3444 0024 019B     		ldr	r3, [sp, #4]
 395:Drivers/lvgl/src/core/lv_obj_draw.c ****     LV_PROFILER_DRAW_END;
 3445              		.loc 1 395 7 view .LVU959
 3446 0026 AB42     		cmp	r3, r5
 3447 0028 0CD1     		bne	.L112
 3448              	.L104:
 397:Drivers/lvgl/src/core/lv_obj_draw.c **** 
 3449              		.loc 1 397 1 view .LVU960
 3450 002a 03B0     		add	sp, sp, #12
 3451              	.LCFI72:
 3452              		.cfi_def_cfa_offset 12
 3453              		@ sp needed
 3454 002c 30BD     		pop	{r4, r5, pc}
 3455              	.LVL313:
 3456              	.L106:
 3457              	.LCFI73:
 3458              		.cfi_def_cfa_offset 0
 3459              		.cfi_restore 4
 3460              		.cfi_restore 5
 3461              		.cfi_restore 14
 378:Drivers/lvgl/src/core/lv_obj_draw.c **** 
 3462              		.loc 1 378 5 is_stmt 1 view .LVU961
 378:Drivers/lvgl/src/core/lv_obj_draw.c **** 
 3463              		.loc 1 378 5 view .LVU962
 378:Drivers/lvgl/src/core/lv_obj_draw.c **** 
 3464              		.loc 1 378 5 view .LVU963
 378:Drivers/lvgl/src/core/lv_obj_draw.c **** 
ARM GAS  /var/folders/qx/2_175_4n2s19vhvtspjhb3qh0000gn/T//cckZJDG0.s 			page 98


 3465              		.loc 1 378 5 view .LVU964
 378:Drivers/lvgl/src/core/lv_obj_draw.c **** 
 3466              		.loc 1 378 5 view .LVU965
 3467 002e FEE7     		b	.L106
 3468              	.LVL314:
 3469              	.L107:
 3470              	.LCFI74:
 3471              		.cfi_def_cfa_offset 24
 3472              		.cfi_offset 4, -12
 3473              		.cfi_offset 5, -8
 3474              		.cfi_offset 14, -4
 390:Drivers/lvgl/src/core/lv_obj_draw.c ****         lv_obj_allocate_spec_attr(obj);
 3475              		.loc 1 390 10 view .LVU966
 390:Drivers/lvgl/src/core/lv_obj_draw.c ****         lv_obj_allocate_spec_attr(obj);
 3476              		.loc 1 390 19 is_stmt 0 view .LVU967
 3477 0030 019B     		ldr	r3, [sp, #4]
 390:Drivers/lvgl/src/core/lv_obj_draw.c ****         lv_obj_allocate_spec_attr(obj);
 3478              		.loc 1 390 12 view .LVU968
 3479 0032 002B     		cmp	r3, #0
 3480 0034 F6D0     		beq	.L108
 391:Drivers/lvgl/src/core/lv_obj_draw.c ****         obj->spec_attr->ext_draw_size = s_new;
 3481              		.loc 1 391 9 is_stmt 1 view .LVU969
 3482 0036 2046     		mov	r0, r4
 3483 0038 FFF7FEFF 		bl	lv_obj_allocate_spec_attr
 3484              	.LVL315:
 392:Drivers/lvgl/src/core/lv_obj_draw.c ****     }
 3485              		.loc 1 392 9 view .LVU970
 392:Drivers/lvgl/src/core/lv_obj_draw.c ****     }
 3486              		.loc 1 392 12 is_stmt 0 view .LVU971
 3487 003c A368     		ldr	r3, [r4, #8]
 392:Drivers/lvgl/src/core/lv_obj_draw.c ****     }
 3488              		.loc 1 392 39 view .LVU972
 3489 003e 019A     		ldr	r2, [sp, #4]
 3490 0040 DA62     		str	r2, [r3, #44]
 3491 0042 EFE7     		b	.L108
 3492              	.L112:
 395:Drivers/lvgl/src/core/lv_obj_draw.c ****     LV_PROFILER_DRAW_END;
 3493              		.loc 1 395 24 is_stmt 1 discriminator 1 view .LVU973
 3494 0044 2046     		mov	r0, r4
 3495 0046 FFF7FEFF 		bl	lv_obj_invalidate
 3496              	.LVL316:
 396:Drivers/lvgl/src/core/lv_obj_draw.c **** }
 3497              		.loc 1 396 25 view .LVU974
 397:Drivers/lvgl/src/core/lv_obj_draw.c **** 
 3498              		.loc 1 397 1 is_stmt 0 view .LVU975
 3499 004a EEE7     		b	.L104
 3500              		.cfi_endproc
 3501              	.LFE188:
 3503              		.section	.text.lv_obj_get_layer_type,"ax",%progbits
 3504              		.align	1
 3505              		.global	lv_obj_get_layer_type
 3506              		.syntax unified
 3507              		.thumb
 3508              		.thumb_func
 3510              	lv_obj_get_layer_type:
 3511              	.LVL317:
 3512              	.LFB190:
ARM GAS  /var/folders/qx/2_175_4n2s19vhvtspjhb3qh0000gn/T//cckZJDG0.s 			page 99


 406:Drivers/lvgl/src/core/lv_obj_draw.c **** 
 3513              		.loc 1 406 1 is_stmt 1 view -0
 3514              		.cfi_startproc
 3515              		@ args = 0, pretend = 0, frame = 0
 3516              		@ frame_needed = 0, uses_anonymous_args = 0
 3517              		@ link register save eliminated.
 408:Drivers/lvgl/src/core/lv_obj_draw.c ****     else return LV_LAYER_TYPE_NONE;
 3518              		.loc 1 408 5 view .LVU977
 408:Drivers/lvgl/src/core/lv_obj_draw.c ****     else return LV_LAYER_TYPE_NONE;
 3519              		.loc 1 408 11 is_stmt 0 view .LVU978
 3520 0000 8368     		ldr	r3, [r0, #8]
 408:Drivers/lvgl/src/core/lv_obj_draw.c ****     else return LV_LAYER_TYPE_NONE;
 3521              		.loc 1 408 7 view .LVU979
 3522 0002 23B1     		cbz	r3, .L115
 408:Drivers/lvgl/src/core/lv_obj_draw.c ****     else return LV_LAYER_TYPE_NONE;
 3523              		.loc 1 408 24 is_stmt 1 discriminator 1 view .LVU980
 408:Drivers/lvgl/src/core/lv_obj_draw.c ****     else return LV_LAYER_TYPE_NONE;
 3524              		.loc 1 408 62 is_stmt 0 discriminator 1 view .LVU981
 3525 0004 93F83300 		ldrb	r0, [r3, #51]	@ zero_extendqisi2
 3526              	.LVL318:
 408:Drivers/lvgl/src/core/lv_obj_draw.c ****     else return LV_LAYER_TYPE_NONE;
 3527              		.loc 1 408 62 discriminator 1 view .LVU982
 3528 0008 C0F38100 		ubfx	r0, r0, #2, #2
 408:Drivers/lvgl/src/core/lv_obj_draw.c ****     else return LV_LAYER_TYPE_NONE;
 3529              		.loc 1 408 31 view .LVU983
 3530 000c 7047     		bx	lr
 3531              	.LVL319:
 3532              	.L115:
 409:Drivers/lvgl/src/core/lv_obj_draw.c **** }
 3533              		.loc 1 409 17 view .LVU984
 3534 000e 0020     		movs	r0, #0
 3535              	.LVL320:
 410:Drivers/lvgl/src/core/lv_obj_draw.c **** 
 3536              		.loc 1 410 1 view .LVU985
 3537 0010 7047     		bx	lr
 3538              		.cfi_endproc
 3539              	.LFE190:
 3541              		.text
 3542              	.Letext0:
 3543              		.file 3 "/Applications/ArmGNUToolchain/14.3.rel1/arm-none-eabi/arm-none-eabi/include/machine/_defa
 3544              		.file 4 "/Applications/ArmGNUToolchain/14.3.rel1/arm-none-eabi/arm-none-eabi/include/sys/_stdint.h
 3545              		.file 5 "/Applications/ArmGNUToolchain/14.3.rel1/arm-none-eabi/lib/gcc/arm-none-eabi/14.3.1/includ
 3546              		.file 6 "Drivers/lvgl/src/core/../misc/lv_types.h"
 3547              		.file 7 "Drivers/lvgl/src/core/lv_obj_private.h"
 3548              		.file 8 "Drivers/lvgl/src/core/../draw/lv_draw.h"
 3549              		.file 9 "Drivers/lvgl/src/core/../draw/../misc/../font/lv_font.h"
 3550              		.file 10 "Drivers/lvgl/src/core/../draw/lv_draw_image.h"
 3551              		.file 11 "Drivers/lvgl/src/core/../draw/../misc/lv_array.h"
 3552              		.file 12 "Drivers/lvgl/src/core/../draw/../misc/../font/../draw/lv_draw_buf.h"
 3553              		.file 13 "Drivers/lvgl/src/core/../draw/../misc/../font/../draw/../misc/lv_area.h"
 3554              		.file 14 "Drivers/lvgl/src/core/../draw/../misc/../font/../draw/../misc/lv_color.h"
 3555              		.file 15 "Drivers/lvgl/src/core/../draw/../misc/../font/../draw/lv_image_dsc.h"
 3556              		.file 16 "Drivers/lvgl/src/core/../draw/../misc/lv_text.h"
 3557              		.file 17 "Drivers/lvgl/src/core/../draw/../misc/lv_bidi.h"
 3558              		.file 18 "Drivers/lvgl/src/core/../draw/../misc/lv_grad.h"
 3559              		.file 19 "Drivers/lvgl/src/core/../draw/../misc/lv_style.h"
 3560              		.file 20 "Drivers/lvgl/src/core/../draw/../misc/lv_event.h"
ARM GAS  /var/folders/qx/2_175_4n2s19vhvtspjhb3qh0000gn/T//cckZJDG0.s 			page 100


 3561              		.file 21 "Drivers/lvgl/src/core/../draw/lv_image_decoder.h"
 3562              		.file 22 "Drivers/lvgl/src/core/../draw/lv_draw_rect.h"
 3563              		.file 23 "Drivers/lvgl/src/core/../draw/lv_draw_label.h"
 3564              		.file 24 "Drivers/lvgl/src/core/../draw/lv_draw_line.h"
 3565              		.file 25 "Drivers/lvgl/src/core/../draw/lv_draw_arc.h"
 3566              		.file 26 "Drivers/lvgl/src/core/../draw/lv_draw_blur.h"
 3567              		.file 27 "Drivers/lvgl/src/core/lv_obj_style.h"
 3568              		.file 28 "Drivers/lvgl/src/core/lv_obj_draw.h"
 3569              		.file 29 "Drivers/lvgl/src/core/lv_obj.h"
 3570              		.file 30 "Drivers/lvgl/src/core/lv_obj_pos.h"
 3571              		.file 31 "Drivers/lvgl/src/core/lv_obj_event.h"
 3572              		.file 32 "Drivers/lvgl/src/core/../draw/../misc/../font/../draw/../misc/lv_color_op.h"
 3573              		.file 33 "Drivers/lvgl/src/core/../draw/../misc/../font/../draw/../misc/../stdlib/lv_string.h"
ARM GAS  /var/folders/qx/2_175_4n2s19vhvtspjhb3qh0000gn/T//cckZJDG0.s 			page 101


DEFINED SYMBOLS
                            *ABS*:00000000 lv_obj_draw.c
/var/folders/qx/2_175_4n2s19vhvtspjhb3qh0000gn/T//cckZJDG0.s:21     .text.get_layer_opa:00000000 $t
/var/folders/qx/2_175_4n2s19vhvtspjhb3qh0000gn/T//cckZJDG0.s:26     .text.get_layer_opa:00000000 get_layer_opa
/var/folders/qx/2_175_4n2s19vhvtspjhb3qh0000gn/T//cckZJDG0.s:107    .text.lv_obj_get_style_bg_color_filtered:00000000 $t
/var/folders/qx/2_175_4n2s19vhvtspjhb3qh0000gn/T//cckZJDG0.s:112    .text.lv_obj_get_style_bg_color_filtered:00000000 lv_obj_get_style_bg_color_filtered
/var/folders/qx/2_175_4n2s19vhvtspjhb3qh0000gn/T//cckZJDG0.s:168    .text.lv_obj_get_style_bg_grad_color_filtered:00000000 $t
/var/folders/qx/2_175_4n2s19vhvtspjhb3qh0000gn/T//cckZJDG0.s:173    .text.lv_obj_get_style_bg_grad_color_filtered:00000000 lv_obj_get_style_bg_grad_color_filtered
/var/folders/qx/2_175_4n2s19vhvtspjhb3qh0000gn/T//cckZJDG0.s:229    .text.lv_obj_get_style_border_color_filtered:00000000 $t
/var/folders/qx/2_175_4n2s19vhvtspjhb3qh0000gn/T//cckZJDG0.s:234    .text.lv_obj_get_style_border_color_filtered:00000000 lv_obj_get_style_border_color_filtered
/var/folders/qx/2_175_4n2s19vhvtspjhb3qh0000gn/T//cckZJDG0.s:290    .text.lv_obj_get_style_outline_color_filtered:00000000 $t
/var/folders/qx/2_175_4n2s19vhvtspjhb3qh0000gn/T//cckZJDG0.s:295    .text.lv_obj_get_style_outline_color_filtered:00000000 lv_obj_get_style_outline_color_filtered
/var/folders/qx/2_175_4n2s19vhvtspjhb3qh0000gn/T//cckZJDG0.s:351    .text.lv_obj_get_style_text_color_filtered:00000000 $t
/var/folders/qx/2_175_4n2s19vhvtspjhb3qh0000gn/T//cckZJDG0.s:356    .text.lv_obj_get_style_text_color_filtered:00000000 lv_obj_get_style_text_color_filtered
/var/folders/qx/2_175_4n2s19vhvtspjhb3qh0000gn/T//cckZJDG0.s:412    .text.lv_obj_get_style_bg_image_recolor_filtered:00000000 $t
/var/folders/qx/2_175_4n2s19vhvtspjhb3qh0000gn/T//cckZJDG0.s:417    .text.lv_obj_get_style_bg_image_recolor_filtered:00000000 lv_obj_get_style_bg_image_recolor_filtered
/var/folders/qx/2_175_4n2s19vhvtspjhb3qh0000gn/T//cckZJDG0.s:473    .text.lv_obj_get_style_shadow_color_filtered:00000000 $t
/var/folders/qx/2_175_4n2s19vhvtspjhb3qh0000gn/T//cckZJDG0.s:478    .text.lv_obj_get_style_shadow_color_filtered:00000000 lv_obj_get_style_shadow_color_filtered
/var/folders/qx/2_175_4n2s19vhvtspjhb3qh0000gn/T//cckZJDG0.s:534    .text.lv_obj_get_style_image_recolor_filtered:00000000 $t
/var/folders/qx/2_175_4n2s19vhvtspjhb3qh0000gn/T//cckZJDG0.s:539    .text.lv_obj_get_style_image_recolor_filtered:00000000 lv_obj_get_style_image_recolor_filtered
/var/folders/qx/2_175_4n2s19vhvtspjhb3qh0000gn/T//cckZJDG0.s:595    .text.lv_obj_get_style_line_color_filtered:00000000 $t
/var/folders/qx/2_175_4n2s19vhvtspjhb3qh0000gn/T//cckZJDG0.s:600    .text.lv_obj_get_style_line_color_filtered:00000000 lv_obj_get_style_line_color_filtered
/var/folders/qx/2_175_4n2s19vhvtspjhb3qh0000gn/T//cckZJDG0.s:656    .text.lv_obj_get_style_arc_color_filtered:00000000 $t
/var/folders/qx/2_175_4n2s19vhvtspjhb3qh0000gn/T//cckZJDG0.s:661    .text.lv_obj_get_style_arc_color_filtered:00000000 lv_obj_get_style_arc_color_filtered
/var/folders/qx/2_175_4n2s19vhvtspjhb3qh0000gn/T//cckZJDG0.s:717    .text.image_apply_layer_recolor:00000000 $t
/var/folders/qx/2_175_4n2s19vhvtspjhb3qh0000gn/T//cckZJDG0.s:722    .text.image_apply_layer_recolor:00000000 image_apply_layer_recolor
/var/folders/qx/2_175_4n2s19vhvtspjhb3qh0000gn/T//cckZJDG0.s:841    .text.normal_apply_layer_recolor:00000000 $t
/var/folders/qx/2_175_4n2s19vhvtspjhb3qh0000gn/T//cckZJDG0.s:846    .text.normal_apply_layer_recolor:00000000 normal_apply_layer_recolor
/var/folders/qx/2_175_4n2s19vhvtspjhb3qh0000gn/T//cckZJDG0.s:942    .text.lv_obj_init_draw_rect_dsc:00000000 $t
/var/folders/qx/2_175_4n2s19vhvtspjhb3qh0000gn/T//cckZJDG0.s:948    .text.lv_obj_init_draw_rect_dsc:00000000 lv_obj_init_draw_rect_dsc
/var/folders/qx/2_175_4n2s19vhvtspjhb3qh0000gn/T//cckZJDG0.s:1948   .text.lv_obj_init_draw_label_dsc:00000000 $t
/var/folders/qx/2_175_4n2s19vhvtspjhb3qh0000gn/T//cckZJDG0.s:1954   .text.lv_obj_init_draw_label_dsc:00000000 lv_obj_init_draw_label_dsc
/var/folders/qx/2_175_4n2s19vhvtspjhb3qh0000gn/T//cckZJDG0.s:2186   .text.lv_obj_init_draw_image_dsc:00000000 $t
/var/folders/qx/2_175_4n2s19vhvtspjhb3qh0000gn/T//cckZJDG0.s:2192   .text.lv_obj_init_draw_image_dsc:00000000 lv_obj_init_draw_image_dsc
/var/folders/qx/2_175_4n2s19vhvtspjhb3qh0000gn/T//cckZJDG0.s:2437   .text.lv_obj_init_draw_line_dsc:00000000 $t
/var/folders/qx/2_175_4n2s19vhvtspjhb3qh0000gn/T//cckZJDG0.s:2443   .text.lv_obj_init_draw_line_dsc:00000000 lv_obj_init_draw_line_dsc
/var/folders/qx/2_175_4n2s19vhvtspjhb3qh0000gn/T//cckZJDG0.s:2673   .text.lv_obj_init_draw_arc_dsc:00000000 $t
/var/folders/qx/2_175_4n2s19vhvtspjhb3qh0000gn/T//cckZJDG0.s:2679   .text.lv_obj_init_draw_arc_dsc:00000000 lv_obj_init_draw_arc_dsc
/var/folders/qx/2_175_4n2s19vhvtspjhb3qh0000gn/T//cckZJDG0.s:2875   .text.lv_obj_init_draw_blur_dsc:00000000 $t
/var/folders/qx/2_175_4n2s19vhvtspjhb3qh0000gn/T//cckZJDG0.s:2881   .text.lv_obj_init_draw_blur_dsc:00000000 lv_obj_init_draw_blur_dsc
/var/folders/qx/2_175_4n2s19vhvtspjhb3qh0000gn/T//cckZJDG0.s:2996   .text.lv_obj_calculate_ext_draw_size:00000000 $t
/var/folders/qx/2_175_4n2s19vhvtspjhb3qh0000gn/T//cckZJDG0.s:3002   .text.lv_obj_calculate_ext_draw_size:00000000 lv_obj_calculate_ext_draw_size
/var/folders/qx/2_175_4n2s19vhvtspjhb3qh0000gn/T//cckZJDG0.s:3347   .text.lv_obj_get_ext_draw_size:00000000 $t
/var/folders/qx/2_175_4n2s19vhvtspjhb3qh0000gn/T//cckZJDG0.s:3353   .text.lv_obj_get_ext_draw_size:00000000 lv_obj_get_ext_draw_size
/var/folders/qx/2_175_4n2s19vhvtspjhb3qh0000gn/T//cckZJDG0.s:3383   .text.lv_obj_refresh_ext_draw_size:00000000 $t
/var/folders/qx/2_175_4n2s19vhvtspjhb3qh0000gn/T//cckZJDG0.s:3389   .text.lv_obj_refresh_ext_draw_size:00000000 lv_obj_refresh_ext_draw_size
/var/folders/qx/2_175_4n2s19vhvtspjhb3qh0000gn/T//cckZJDG0.s:3504   .text.lv_obj_get_layer_type:00000000 $t
/var/folders/qx/2_175_4n2s19vhvtspjhb3qh0000gn/T//cckZJDG0.s:3510   .text.lv_obj_get_layer_type:00000000 lv_obj_get_layer_type

UNDEFINED SYMBOLS
lv_obj_get_style_prop
lv_obj_get_style_opa_recursive
lv_obj_style_apply_color_filter
lv_obj_style_apply_recolor
lv_obj_get_style_recolor_recursive
lv_color_to_32
lv_color_over32
ARM GAS  /var/folders/qx/2_175_4n2s19vhvtspjhb3qh0000gn/T//cckZJDG0.s 			page 102


lv_color_make
lv_color_mix
lv_memcpy
lv_image_src_get_type
lv_area_get_width
lv_area_get_height
lv_obj_send_event
lv_obj_allocate_spec_attr
lv_obj_invalidate
