ARM GAS  /var/folders/qx/2_175_4n2s19vhvtspjhb3qh0000gn/T//cc9Gd54N.s 			page 1


   1              		.cpu cortex-m4
   2              		.arch armv7e-m
   3              		.fpu fpv4-sp-d16
   4              		.eabi_attribute 27, 1
   5              		.eabi_attribute 28, 1
   6              		.eabi_attribute 20, 1
   7              		.eabi_attribute 21, 1
   8              		.eabi_attribute 23, 3
   9              		.eabi_attribute 24, 1
  10              		.eabi_attribute 25, 1
  11              		.eabi_attribute 26, 1
  12              		.eabi_attribute 30, 1
  13              		.eabi_attribute 34, 1
  14              		.eabi_attribute 18, 4
  15              		.file	"lv_obj_tree.c"
  16              		.text
  17              	.Ltext0:
  18              		.cfi_sections	.debug_frame
  19              		.file 1 "Drivers/lvgl/src/core/lv_obj_tree.c"
  20              		.section	.text.lv_obj_get_first_not_deleting_child,"ax",%progbits
  21              		.align	1
  22              		.syntax unified
  23              		.thumb
  24              		.thumb_func
  26              	lv_obj_get_first_not_deleting_child:
  27              	.LVL0:
  28              	.LFB219:
   1:Drivers/lvgl/src/core/lv_obj_tree.c **** /**
   2:Drivers/lvgl/src/core/lv_obj_tree.c ****  * @file lv_obj_tree.c
   3:Drivers/lvgl/src/core/lv_obj_tree.c ****  *
   4:Drivers/lvgl/src/core/lv_obj_tree.c ****  */
   5:Drivers/lvgl/src/core/lv_obj_tree.c **** 
   6:Drivers/lvgl/src/core/lv_obj_tree.c **** /*********************
   7:Drivers/lvgl/src/core/lv_obj_tree.c ****  *      INCLUDES
   8:Drivers/lvgl/src/core/lv_obj_tree.c ****  *********************/
   9:Drivers/lvgl/src/core/lv_obj_tree.c **** #include "lv_obj_private.h"
  10:Drivers/lvgl/src/core/lv_obj_tree.c **** #include "lv_obj_class_private.h"
  11:Drivers/lvgl/src/core/lv_obj_tree.c **** #include "../indev/lv_indev.h"
  12:Drivers/lvgl/src/core/lv_obj_tree.c **** #include "../indev/lv_indev_private.h"
  13:Drivers/lvgl/src/core/lv_obj_tree.c **** #include "../display/lv_display.h"
  14:Drivers/lvgl/src/core/lv_obj_tree.c **** #include "../display/lv_display_private.h"
  15:Drivers/lvgl/src/core/lv_obj_tree.c **** #include "../misc/lv_anim_private.h"
  16:Drivers/lvgl/src/core/lv_obj_tree.c **** #include "../misc/lv_async.h"
  17:Drivers/lvgl/src/core/lv_obj_tree.c **** #include "../core/lv_global.h"
  18:Drivers/lvgl/src/core/lv_obj_tree.c **** 
  19:Drivers/lvgl/src/core/lv_obj_tree.c **** /*********************
  20:Drivers/lvgl/src/core/lv_obj_tree.c ****  *      DEFINES
  21:Drivers/lvgl/src/core/lv_obj_tree.c ****  *********************/
  22:Drivers/lvgl/src/core/lv_obj_tree.c **** #define MY_CLASS (&lv_obj_class)
  23:Drivers/lvgl/src/core/lv_obj_tree.c **** #define disp_ll_p &(LV_GLOBAL_DEFAULT()->disp_ll)
  24:Drivers/lvgl/src/core/lv_obj_tree.c **** 
  25:Drivers/lvgl/src/core/lv_obj_tree.c **** #define OBJ_DUMP_STRING_LEN 128
  26:Drivers/lvgl/src/core/lv_obj_tree.c **** #define LV_OBJ_NAME_MAX_LEN 128
  27:Drivers/lvgl/src/core/lv_obj_tree.c **** 
  28:Drivers/lvgl/src/core/lv_obj_tree.c **** /**********************
  29:Drivers/lvgl/src/core/lv_obj_tree.c ****  *      TYPEDEFS
  30:Drivers/lvgl/src/core/lv_obj_tree.c ****  **********************/
ARM GAS  /var/folders/qx/2_175_4n2s19vhvtspjhb3qh0000gn/T//cc9Gd54N.s 			page 2


  31:Drivers/lvgl/src/core/lv_obj_tree.c **** 
  32:Drivers/lvgl/src/core/lv_obj_tree.c **** /**********************
  33:Drivers/lvgl/src/core/lv_obj_tree.c ****  *  STATIC PROTOTYPES
  34:Drivers/lvgl/src/core/lv_obj_tree.c ****  **********************/
  35:Drivers/lvgl/src/core/lv_obj_tree.c **** static void lv_obj_delete_async_cb(void * obj);
  36:Drivers/lvgl/src/core/lv_obj_tree.c **** static void obj_delete_core(lv_obj_t * obj);
  37:Drivers/lvgl/src/core/lv_obj_tree.c **** static lv_obj_tree_walk_res_t walk_core(lv_obj_t * obj, lv_obj_tree_walk_cb_t cb, void * user_data)
  38:Drivers/lvgl/src/core/lv_obj_tree.c **** static void dump_tree_core(lv_obj_t * obj, int32_t depth);
  39:Drivers/lvgl/src/core/lv_obj_tree.c **** static lv_obj_t * lv_obj_get_first_not_deleting_child(lv_obj_t * obj);
  40:Drivers/lvgl/src/core/lv_obj_tree.c **** #if LV_USE_OBJ_NAME
  41:Drivers/lvgl/src/core/lv_obj_tree.c ****     static lv_obj_t * find_by_name_direct(const lv_obj_t * parent, const char * name, size_t len);
  42:Drivers/lvgl/src/core/lv_obj_tree.c **** #endif /*LV_USE_OBJ_NAME*/
  43:Drivers/lvgl/src/core/lv_obj_tree.c **** 
  44:Drivers/lvgl/src/core/lv_obj_tree.c **** /**********************
  45:Drivers/lvgl/src/core/lv_obj_tree.c ****  *  STATIC VARIABLES
  46:Drivers/lvgl/src/core/lv_obj_tree.c ****  **********************/
  47:Drivers/lvgl/src/core/lv_obj_tree.c **** 
  48:Drivers/lvgl/src/core/lv_obj_tree.c **** /**********************
  49:Drivers/lvgl/src/core/lv_obj_tree.c ****  *      MACROS
  50:Drivers/lvgl/src/core/lv_obj_tree.c ****  **********************/
  51:Drivers/lvgl/src/core/lv_obj_tree.c **** 
  52:Drivers/lvgl/src/core/lv_obj_tree.c **** /**********************
  53:Drivers/lvgl/src/core/lv_obj_tree.c ****  *   GLOBAL FUNCTIONS
  54:Drivers/lvgl/src/core/lv_obj_tree.c ****  **********************/
  55:Drivers/lvgl/src/core/lv_obj_tree.c **** 
  56:Drivers/lvgl/src/core/lv_obj_tree.c **** void lv_obj_delete(lv_obj_t * obj)
  57:Drivers/lvgl/src/core/lv_obj_tree.c **** {
  58:Drivers/lvgl/src/core/lv_obj_tree.c ****     if(obj->is_deleting)
  59:Drivers/lvgl/src/core/lv_obj_tree.c ****         return;
  60:Drivers/lvgl/src/core/lv_obj_tree.c **** 
  61:Drivers/lvgl/src/core/lv_obj_tree.c ****     LV_LOG_TRACE("begin (delete %p)", (void *)obj);
  62:Drivers/lvgl/src/core/lv_obj_tree.c ****     LV_ASSERT_OBJ(obj, MY_CLASS);
  63:Drivers/lvgl/src/core/lv_obj_tree.c ****     lv_obj_invalidate(obj);
  64:Drivers/lvgl/src/core/lv_obj_tree.c **** 
  65:Drivers/lvgl/src/core/lv_obj_tree.c ****     lv_obj_t * par = lv_obj_get_parent(obj);
  66:Drivers/lvgl/src/core/lv_obj_tree.c **** 
  67:Drivers/lvgl/src/core/lv_obj_tree.c ****     lv_display_t * disp = NULL;
  68:Drivers/lvgl/src/core/lv_obj_tree.c ****     bool act_screen_del = false;
  69:Drivers/lvgl/src/core/lv_obj_tree.c ****     if(par == NULL) {
  70:Drivers/lvgl/src/core/lv_obj_tree.c ****         disp = lv_obj_get_display(obj);
  71:Drivers/lvgl/src/core/lv_obj_tree.c ****         if(!disp) return;   /*Shouldn't happen*/
  72:Drivers/lvgl/src/core/lv_obj_tree.c ****         if(disp->act_scr == obj) act_screen_del = true;
  73:Drivers/lvgl/src/core/lv_obj_tree.c ****     }
  74:Drivers/lvgl/src/core/lv_obj_tree.c **** 
  75:Drivers/lvgl/src/core/lv_obj_tree.c ****     obj_delete_core(obj);
  76:Drivers/lvgl/src/core/lv_obj_tree.c **** 
  77:Drivers/lvgl/src/core/lv_obj_tree.c ****     /*Call the ancestor's event handler to the parent to notify it about the child delete*/
  78:Drivers/lvgl/src/core/lv_obj_tree.c ****     if(par && !par->is_deleting) {
  79:Drivers/lvgl/src/core/lv_obj_tree.c ****         lv_obj_scrollbar_invalidate(par);
  80:Drivers/lvgl/src/core/lv_obj_tree.c ****         lv_obj_send_event(par, LV_EVENT_CHILD_CHANGED, NULL);
  81:Drivers/lvgl/src/core/lv_obj_tree.c ****         lv_obj_send_event(par, LV_EVENT_CHILD_DELETED, NULL);
  82:Drivers/lvgl/src/core/lv_obj_tree.c ****     }
  83:Drivers/lvgl/src/core/lv_obj_tree.c **** 
  84:Drivers/lvgl/src/core/lv_obj_tree.c ****     /*Handle if the active screen was deleted*/
  85:Drivers/lvgl/src/core/lv_obj_tree.c ****     if(act_screen_del) {
  86:Drivers/lvgl/src/core/lv_obj_tree.c ****         LV_LOG_WARN("the active screen was deleted");
  87:Drivers/lvgl/src/core/lv_obj_tree.c ****         disp->act_scr = NULL;
ARM GAS  /var/folders/qx/2_175_4n2s19vhvtspjhb3qh0000gn/T//cc9Gd54N.s 			page 3


  88:Drivers/lvgl/src/core/lv_obj_tree.c ****     }
  89:Drivers/lvgl/src/core/lv_obj_tree.c **** 
  90:Drivers/lvgl/src/core/lv_obj_tree.c ****     LV_ASSERT_MEM_INTEGRITY();
  91:Drivers/lvgl/src/core/lv_obj_tree.c ****     LV_LOG_TRACE("finished (delete %p)", (void *)obj);
  92:Drivers/lvgl/src/core/lv_obj_tree.c **** }
  93:Drivers/lvgl/src/core/lv_obj_tree.c **** 
  94:Drivers/lvgl/src/core/lv_obj_tree.c **** void lv_obj_clean(lv_obj_t * obj)
  95:Drivers/lvgl/src/core/lv_obj_tree.c **** {
  96:Drivers/lvgl/src/core/lv_obj_tree.c ****     LV_LOG_TRACE("begin (clean %p)", (void *)obj);
  97:Drivers/lvgl/src/core/lv_obj_tree.c ****     LV_ASSERT_OBJ(obj, MY_CLASS);
  98:Drivers/lvgl/src/core/lv_obj_tree.c **** 
  99:Drivers/lvgl/src/core/lv_obj_tree.c ****     lv_obj_invalidate(obj);
 100:Drivers/lvgl/src/core/lv_obj_tree.c **** 
 101:Drivers/lvgl/src/core/lv_obj_tree.c ****     uint32_t cnt = lv_obj_get_child_count(obj);
 102:Drivers/lvgl/src/core/lv_obj_tree.c ****     lv_obj_t * child = lv_obj_get_first_not_deleting_child(obj);
 103:Drivers/lvgl/src/core/lv_obj_tree.c ****     while(child) {
 104:Drivers/lvgl/src/core/lv_obj_tree.c ****         obj_delete_core(child);
 105:Drivers/lvgl/src/core/lv_obj_tree.c ****         child = lv_obj_get_first_not_deleting_child(obj);
 106:Drivers/lvgl/src/core/lv_obj_tree.c ****     }
 107:Drivers/lvgl/src/core/lv_obj_tree.c ****     /*Just to remove scroll animations if any*/
 108:Drivers/lvgl/src/core/lv_obj_tree.c ****     lv_obj_scroll_to(obj, 0, 0, LV_ANIM_OFF);
 109:Drivers/lvgl/src/core/lv_obj_tree.c ****     if(obj->spec_attr) {
 110:Drivers/lvgl/src/core/lv_obj_tree.c ****         obj->spec_attr->scroll.x = 0;
 111:Drivers/lvgl/src/core/lv_obj_tree.c ****         obj->spec_attr->scroll.y = 0;
 112:Drivers/lvgl/src/core/lv_obj_tree.c ****     }
 113:Drivers/lvgl/src/core/lv_obj_tree.c **** 
 114:Drivers/lvgl/src/core/lv_obj_tree.c ****     if(lv_obj_get_child_count(obj) < cnt) {
 115:Drivers/lvgl/src/core/lv_obj_tree.c ****         lv_obj_send_event(obj, LV_EVENT_CHILD_CHANGED, NULL);
 116:Drivers/lvgl/src/core/lv_obj_tree.c ****         lv_obj_send_event(obj, LV_EVENT_CHILD_DELETED, NULL);
 117:Drivers/lvgl/src/core/lv_obj_tree.c ****     }
 118:Drivers/lvgl/src/core/lv_obj_tree.c **** 
 119:Drivers/lvgl/src/core/lv_obj_tree.c ****     LV_ASSERT_MEM_INTEGRITY();
 120:Drivers/lvgl/src/core/lv_obj_tree.c **** 
 121:Drivers/lvgl/src/core/lv_obj_tree.c ****     LV_LOG_TRACE("finished (clean %p)", (void *)obj);
 122:Drivers/lvgl/src/core/lv_obj_tree.c **** }
 123:Drivers/lvgl/src/core/lv_obj_tree.c **** 
 124:Drivers/lvgl/src/core/lv_obj_tree.c **** void lv_obj_delete_delayed(lv_obj_t * obj, uint32_t delay_ms)
 125:Drivers/lvgl/src/core/lv_obj_tree.c **** {
 126:Drivers/lvgl/src/core/lv_obj_tree.c ****     lv_anim_t a;
 127:Drivers/lvgl/src/core/lv_obj_tree.c ****     lv_anim_init(&a);
 128:Drivers/lvgl/src/core/lv_obj_tree.c ****     lv_anim_set_var(&a, obj);
 129:Drivers/lvgl/src/core/lv_obj_tree.c ****     lv_anim_set_exec_cb(&a, NULL);
 130:Drivers/lvgl/src/core/lv_obj_tree.c ****     lv_anim_set_duration(&a, 1);
 131:Drivers/lvgl/src/core/lv_obj_tree.c ****     lv_anim_set_delay(&a, delay_ms);
 132:Drivers/lvgl/src/core/lv_obj_tree.c ****     lv_anim_set_completed_cb(&a, lv_obj_delete_anim_completed_cb);
 133:Drivers/lvgl/src/core/lv_obj_tree.c ****     lv_anim_start(&a);
 134:Drivers/lvgl/src/core/lv_obj_tree.c **** }
 135:Drivers/lvgl/src/core/lv_obj_tree.c **** 
 136:Drivers/lvgl/src/core/lv_obj_tree.c **** void lv_obj_delete_anim_completed_cb(lv_anim_t * a)
 137:Drivers/lvgl/src/core/lv_obj_tree.c **** {
 138:Drivers/lvgl/src/core/lv_obj_tree.c ****     lv_obj_delete(a->var);
 139:Drivers/lvgl/src/core/lv_obj_tree.c **** }
 140:Drivers/lvgl/src/core/lv_obj_tree.c **** 
 141:Drivers/lvgl/src/core/lv_obj_tree.c **** void lv_obj_delete_async(lv_obj_t * obj)
 142:Drivers/lvgl/src/core/lv_obj_tree.c **** {
 143:Drivers/lvgl/src/core/lv_obj_tree.c ****     LV_ASSERT_OBJ(obj, MY_CLASS);
 144:Drivers/lvgl/src/core/lv_obj_tree.c ****     lv_async_call(lv_obj_delete_async_cb, obj);
ARM GAS  /var/folders/qx/2_175_4n2s19vhvtspjhb3qh0000gn/T//cc9Gd54N.s 			page 4


 145:Drivers/lvgl/src/core/lv_obj_tree.c **** }
 146:Drivers/lvgl/src/core/lv_obj_tree.c **** 
 147:Drivers/lvgl/src/core/lv_obj_tree.c **** void lv_obj_set_parent(lv_obj_t * obj, lv_obj_t * parent)
 148:Drivers/lvgl/src/core/lv_obj_tree.c **** {
 149:Drivers/lvgl/src/core/lv_obj_tree.c ****     LV_ASSERT_OBJ(obj, MY_CLASS);
 150:Drivers/lvgl/src/core/lv_obj_tree.c ****     LV_ASSERT_OBJ(parent, MY_CLASS);
 151:Drivers/lvgl/src/core/lv_obj_tree.c **** 
 152:Drivers/lvgl/src/core/lv_obj_tree.c ****     if(obj->parent == NULL) {
 153:Drivers/lvgl/src/core/lv_obj_tree.c ****         LV_LOG_WARN("Can't set the parent of a screen");
 154:Drivers/lvgl/src/core/lv_obj_tree.c ****         return;
 155:Drivers/lvgl/src/core/lv_obj_tree.c ****     }
 156:Drivers/lvgl/src/core/lv_obj_tree.c **** 
 157:Drivers/lvgl/src/core/lv_obj_tree.c ****     if(parent == NULL) {
 158:Drivers/lvgl/src/core/lv_obj_tree.c ****         LV_LOG_WARN("Can't set parent == NULL to an object");
 159:Drivers/lvgl/src/core/lv_obj_tree.c ****         return;
 160:Drivers/lvgl/src/core/lv_obj_tree.c ****     }
 161:Drivers/lvgl/src/core/lv_obj_tree.c **** 
 162:Drivers/lvgl/src/core/lv_obj_tree.c ****     if(parent == obj->parent) {
 163:Drivers/lvgl/src/core/lv_obj_tree.c ****         return;
 164:Drivers/lvgl/src/core/lv_obj_tree.c ****     }
 165:Drivers/lvgl/src/core/lv_obj_tree.c **** 
 166:Drivers/lvgl/src/core/lv_obj_tree.c ****     lv_obj_invalidate(obj);
 167:Drivers/lvgl/src/core/lv_obj_tree.c **** 
 168:Drivers/lvgl/src/core/lv_obj_tree.c ****     lv_obj_allocate_spec_attr(parent);
 169:Drivers/lvgl/src/core/lv_obj_tree.c **** 
 170:Drivers/lvgl/src/core/lv_obj_tree.c ****     lv_obj_t * old_parent = obj->parent;
 171:Drivers/lvgl/src/core/lv_obj_tree.c ****     /*Remove the object from the old parent's child list*/
 172:Drivers/lvgl/src/core/lv_obj_tree.c ****     int32_t i;
 173:Drivers/lvgl/src/core/lv_obj_tree.c ****     for(i = lv_obj_get_index(obj); i <= (int32_t)lv_obj_get_child_count(old_parent) - 2; i++) {
 174:Drivers/lvgl/src/core/lv_obj_tree.c ****         old_parent->spec_attr->children[i] = old_parent->spec_attr->children[i + 1];
 175:Drivers/lvgl/src/core/lv_obj_tree.c ****     }
 176:Drivers/lvgl/src/core/lv_obj_tree.c ****     old_parent->spec_attr->child_cnt--;
 177:Drivers/lvgl/src/core/lv_obj_tree.c ****     if(old_parent->spec_attr->child_cnt) {
 178:Drivers/lvgl/src/core/lv_obj_tree.c ****         old_parent->spec_attr->children = lv_realloc(old_parent->spec_attr->children,
 179:Drivers/lvgl/src/core/lv_obj_tree.c ****                                                      old_parent->spec_attr->child_cnt * (sizeof(lv_
 180:Drivers/lvgl/src/core/lv_obj_tree.c ****     }
 181:Drivers/lvgl/src/core/lv_obj_tree.c ****     else {
 182:Drivers/lvgl/src/core/lv_obj_tree.c ****         lv_free(old_parent->spec_attr->children);
 183:Drivers/lvgl/src/core/lv_obj_tree.c ****         old_parent->spec_attr->children = NULL;
 184:Drivers/lvgl/src/core/lv_obj_tree.c ****     }
 185:Drivers/lvgl/src/core/lv_obj_tree.c **** 
 186:Drivers/lvgl/src/core/lv_obj_tree.c ****     /*Add the child to the new parent as the last (newest child)*/
 187:Drivers/lvgl/src/core/lv_obj_tree.c ****     parent->spec_attr->child_cnt++;
 188:Drivers/lvgl/src/core/lv_obj_tree.c ****     parent->spec_attr->children = lv_realloc(parent->spec_attr->children,
 189:Drivers/lvgl/src/core/lv_obj_tree.c ****                                              parent->spec_attr->child_cnt * (sizeof(lv_obj_t *)));
 190:Drivers/lvgl/src/core/lv_obj_tree.c ****     parent->spec_attr->children[lv_obj_get_child_count(parent) - 1] = obj;
 191:Drivers/lvgl/src/core/lv_obj_tree.c **** 
 192:Drivers/lvgl/src/core/lv_obj_tree.c ****     obj->parent = parent;
 193:Drivers/lvgl/src/core/lv_obj_tree.c **** 
 194:Drivers/lvgl/src/core/lv_obj_tree.c ****     /*Notify the original parent because one of its children is lost*/
 195:Drivers/lvgl/src/core/lv_obj_tree.c ****     lv_obj_scrollbar_invalidate(old_parent);
 196:Drivers/lvgl/src/core/lv_obj_tree.c ****     lv_obj_send_event(old_parent, LV_EVENT_CHILD_CHANGED, obj);
 197:Drivers/lvgl/src/core/lv_obj_tree.c ****     lv_obj_send_event(old_parent, LV_EVENT_CHILD_DELETED, NULL);
 198:Drivers/lvgl/src/core/lv_obj_tree.c **** 
 199:Drivers/lvgl/src/core/lv_obj_tree.c ****     /*Notify the new parent about the child*/
 200:Drivers/lvgl/src/core/lv_obj_tree.c ****     lv_obj_send_event(parent, LV_EVENT_CHILD_CHANGED, obj);
 201:Drivers/lvgl/src/core/lv_obj_tree.c ****     lv_obj_send_event(parent, LV_EVENT_CHILD_CREATED, NULL);
ARM GAS  /var/folders/qx/2_175_4n2s19vhvtspjhb3qh0000gn/T//cc9Gd54N.s 			page 5


 202:Drivers/lvgl/src/core/lv_obj_tree.c **** 
 203:Drivers/lvgl/src/core/lv_obj_tree.c ****     lv_obj_mark_layout_as_dirty(obj);
 204:Drivers/lvgl/src/core/lv_obj_tree.c **** 
 205:Drivers/lvgl/src/core/lv_obj_tree.c ****     lv_obj_invalidate(obj);
 206:Drivers/lvgl/src/core/lv_obj_tree.c **** }
 207:Drivers/lvgl/src/core/lv_obj_tree.c **** 
 208:Drivers/lvgl/src/core/lv_obj_tree.c **** void lv_obj_move_to_index(lv_obj_t * obj, int32_t index)
 209:Drivers/lvgl/src/core/lv_obj_tree.c **** {
 210:Drivers/lvgl/src/core/lv_obj_tree.c ****     LV_ASSERT_OBJ(obj, MY_CLASS);
 211:Drivers/lvgl/src/core/lv_obj_tree.c **** 
 212:Drivers/lvgl/src/core/lv_obj_tree.c ****     /* Check parent validity */
 213:Drivers/lvgl/src/core/lv_obj_tree.c ****     lv_obj_t * parent = lv_obj_get_parent(obj);
 214:Drivers/lvgl/src/core/lv_obj_tree.c ****     if(!parent) {
 215:Drivers/lvgl/src/core/lv_obj_tree.c ****         LV_LOG_WARN("parent is NULL");
 216:Drivers/lvgl/src/core/lv_obj_tree.c ****         return;
 217:Drivers/lvgl/src/core/lv_obj_tree.c ****     }
 218:Drivers/lvgl/src/core/lv_obj_tree.c **** 
 219:Drivers/lvgl/src/core/lv_obj_tree.c ****     const uint32_t parent_child_count = lv_obj_get_child_count(parent);
 220:Drivers/lvgl/src/core/lv_obj_tree.c ****     /* old_index only can be 0 or greater, this point cannot be reached if the parent is not null *
 221:Drivers/lvgl/src/core/lv_obj_tree.c ****     const int32_t old_index = lv_obj_get_index(obj);
 222:Drivers/lvgl/src/core/lv_obj_tree.c ****     LV_ASSERT(0 <= old_index);
 223:Drivers/lvgl/src/core/lv_obj_tree.c **** 
 224:Drivers/lvgl/src/core/lv_obj_tree.c ****     if(index < 0) {
 225:Drivers/lvgl/src/core/lv_obj_tree.c ****         index += parent_child_count;
 226:Drivers/lvgl/src/core/lv_obj_tree.c ****     }
 227:Drivers/lvgl/src/core/lv_obj_tree.c **** 
 228:Drivers/lvgl/src/core/lv_obj_tree.c ****     /* Index was negative and the absolute value is greater than parent child count */
 229:Drivers/lvgl/src/core/lv_obj_tree.c ****     if((index < 0)
 230:Drivers/lvgl/src/core/lv_obj_tree.c ****        /* Index is same or bigger than parent child count */
 231:Drivers/lvgl/src/core/lv_obj_tree.c ****        || (index >= (int32_t) parent_child_count)
 232:Drivers/lvgl/src/core/lv_obj_tree.c ****        /* If both previous and new index are the same */
 233:Drivers/lvgl/src/core/lv_obj_tree.c ****        || (index == old_index)) {
 234:Drivers/lvgl/src/core/lv_obj_tree.c **** 
 235:Drivers/lvgl/src/core/lv_obj_tree.c ****         return;
 236:Drivers/lvgl/src/core/lv_obj_tree.c ****     }
 237:Drivers/lvgl/src/core/lv_obj_tree.c **** 
 238:Drivers/lvgl/src/core/lv_obj_tree.c ****     int32_t i = old_index;
 239:Drivers/lvgl/src/core/lv_obj_tree.c ****     if(index < old_index) {
 240:Drivers/lvgl/src/core/lv_obj_tree.c ****         while(i > index)  {
 241:Drivers/lvgl/src/core/lv_obj_tree.c ****             parent->spec_attr->children[i] = parent->spec_attr->children[i - 1];
 242:Drivers/lvgl/src/core/lv_obj_tree.c ****             i--;
 243:Drivers/lvgl/src/core/lv_obj_tree.c ****         }
 244:Drivers/lvgl/src/core/lv_obj_tree.c ****     }
 245:Drivers/lvgl/src/core/lv_obj_tree.c ****     else {
 246:Drivers/lvgl/src/core/lv_obj_tree.c ****         while(i < index) {
 247:Drivers/lvgl/src/core/lv_obj_tree.c ****             parent->spec_attr->children[i] = parent->spec_attr->children[i + 1];
 248:Drivers/lvgl/src/core/lv_obj_tree.c ****             i++;
 249:Drivers/lvgl/src/core/lv_obj_tree.c ****         }
 250:Drivers/lvgl/src/core/lv_obj_tree.c ****     }
 251:Drivers/lvgl/src/core/lv_obj_tree.c **** 
 252:Drivers/lvgl/src/core/lv_obj_tree.c ****     parent->spec_attr->children[index] = obj;
 253:Drivers/lvgl/src/core/lv_obj_tree.c ****     lv_obj_send_event(parent, LV_EVENT_CHILD_CHANGED, NULL);
 254:Drivers/lvgl/src/core/lv_obj_tree.c ****     lv_obj_invalidate(parent);
 255:Drivers/lvgl/src/core/lv_obj_tree.c **** }
 256:Drivers/lvgl/src/core/lv_obj_tree.c **** 
 257:Drivers/lvgl/src/core/lv_obj_tree.c **** void lv_obj_swap(lv_obj_t * obj1, lv_obj_t * obj2)
 258:Drivers/lvgl/src/core/lv_obj_tree.c **** {
ARM GAS  /var/folders/qx/2_175_4n2s19vhvtspjhb3qh0000gn/T//cc9Gd54N.s 			page 6


 259:Drivers/lvgl/src/core/lv_obj_tree.c ****     LV_ASSERT_OBJ(obj1, MY_CLASS);
 260:Drivers/lvgl/src/core/lv_obj_tree.c ****     LV_ASSERT_OBJ(obj2, MY_CLASS);
 261:Drivers/lvgl/src/core/lv_obj_tree.c **** 
 262:Drivers/lvgl/src/core/lv_obj_tree.c ****     lv_obj_t * parent = lv_obj_get_parent(obj1);
 263:Drivers/lvgl/src/core/lv_obj_tree.c ****     lv_obj_t * parent2 = lv_obj_get_parent(obj2);
 264:Drivers/lvgl/src/core/lv_obj_tree.c **** 
 265:Drivers/lvgl/src/core/lv_obj_tree.c ****     uint_fast32_t index1 = lv_obj_get_index(obj1);
 266:Drivers/lvgl/src/core/lv_obj_tree.c ****     uint_fast32_t index2 = lv_obj_get_index(obj2);
 267:Drivers/lvgl/src/core/lv_obj_tree.c **** 
 268:Drivers/lvgl/src/core/lv_obj_tree.c ****     lv_obj_send_event(parent2, LV_EVENT_CHILD_DELETED, obj2);
 269:Drivers/lvgl/src/core/lv_obj_tree.c ****     lv_obj_send_event(parent, LV_EVENT_CHILD_DELETED, obj1);
 270:Drivers/lvgl/src/core/lv_obj_tree.c **** 
 271:Drivers/lvgl/src/core/lv_obj_tree.c ****     parent->spec_attr->children[index1] = obj2;
 272:Drivers/lvgl/src/core/lv_obj_tree.c ****     obj2->parent = parent;
 273:Drivers/lvgl/src/core/lv_obj_tree.c **** 
 274:Drivers/lvgl/src/core/lv_obj_tree.c ****     parent2->spec_attr->children[index2] = obj1;
 275:Drivers/lvgl/src/core/lv_obj_tree.c ****     obj1->parent = parent2;
 276:Drivers/lvgl/src/core/lv_obj_tree.c **** 
 277:Drivers/lvgl/src/core/lv_obj_tree.c ****     lv_obj_send_event(parent, LV_EVENT_CHILD_CHANGED, obj2);
 278:Drivers/lvgl/src/core/lv_obj_tree.c ****     lv_obj_send_event(parent, LV_EVENT_CHILD_CREATED, obj2);
 279:Drivers/lvgl/src/core/lv_obj_tree.c ****     lv_obj_send_event(parent2, LV_EVENT_CHILD_CHANGED, obj1);
 280:Drivers/lvgl/src/core/lv_obj_tree.c ****     lv_obj_send_event(parent2, LV_EVENT_CHILD_CREATED, obj1);
 281:Drivers/lvgl/src/core/lv_obj_tree.c **** 
 282:Drivers/lvgl/src/core/lv_obj_tree.c ****     lv_obj_invalidate(parent);
 283:Drivers/lvgl/src/core/lv_obj_tree.c **** 
 284:Drivers/lvgl/src/core/lv_obj_tree.c ****     if(parent != parent2) {
 285:Drivers/lvgl/src/core/lv_obj_tree.c ****         lv_obj_invalidate(parent2);
 286:Drivers/lvgl/src/core/lv_obj_tree.c ****     }
 287:Drivers/lvgl/src/core/lv_obj_tree.c ****     lv_group_swap_obj(obj1, obj2);
 288:Drivers/lvgl/src/core/lv_obj_tree.c **** }
 289:Drivers/lvgl/src/core/lv_obj_tree.c **** 
 290:Drivers/lvgl/src/core/lv_obj_tree.c **** lv_obj_t * lv_obj_get_screen(const lv_obj_t * obj)
 291:Drivers/lvgl/src/core/lv_obj_tree.c **** {
 292:Drivers/lvgl/src/core/lv_obj_tree.c ****     LV_ASSERT_OBJ(obj, MY_CLASS);
 293:Drivers/lvgl/src/core/lv_obj_tree.c **** 
 294:Drivers/lvgl/src/core/lv_obj_tree.c ****     const lv_obj_t * par = obj;
 295:Drivers/lvgl/src/core/lv_obj_tree.c ****     const lv_obj_t * act_par;
 296:Drivers/lvgl/src/core/lv_obj_tree.c **** 
 297:Drivers/lvgl/src/core/lv_obj_tree.c ****     do {
 298:Drivers/lvgl/src/core/lv_obj_tree.c ****         act_par = par;
 299:Drivers/lvgl/src/core/lv_obj_tree.c ****         par = lv_obj_get_parent(act_par);
 300:Drivers/lvgl/src/core/lv_obj_tree.c ****     } while(par != NULL);
 301:Drivers/lvgl/src/core/lv_obj_tree.c **** 
 302:Drivers/lvgl/src/core/lv_obj_tree.c ****     return (lv_obj_t *)act_par;
 303:Drivers/lvgl/src/core/lv_obj_tree.c **** }
 304:Drivers/lvgl/src/core/lv_obj_tree.c **** 
 305:Drivers/lvgl/src/core/lv_obj_tree.c **** lv_display_t * lv_obj_get_display(const lv_obj_t * obj)
 306:Drivers/lvgl/src/core/lv_obj_tree.c **** {
 307:Drivers/lvgl/src/core/lv_obj_tree.c ****     LV_ASSERT_OBJ(obj, MY_CLASS);
 308:Drivers/lvgl/src/core/lv_obj_tree.c **** 
 309:Drivers/lvgl/src/core/lv_obj_tree.c ****     const lv_obj_t * scr;
 310:Drivers/lvgl/src/core/lv_obj_tree.c **** 
 311:Drivers/lvgl/src/core/lv_obj_tree.c ****     if(obj->parent == NULL) scr = obj;  /*`obj` is a screen*/
 312:Drivers/lvgl/src/core/lv_obj_tree.c ****     else scr = lv_obj_get_screen(obj);  /*get the screen of `obj`*/
 313:Drivers/lvgl/src/core/lv_obj_tree.c **** 
 314:Drivers/lvgl/src/core/lv_obj_tree.c ****     lv_display_t * d;
 315:Drivers/lvgl/src/core/lv_obj_tree.c ****     lv_ll_t * disp_head = disp_ll_p;
ARM GAS  /var/folders/qx/2_175_4n2s19vhvtspjhb3qh0000gn/T//cc9Gd54N.s 			page 7


 316:Drivers/lvgl/src/core/lv_obj_tree.c ****     LV_LL_READ(disp_head, d) {
 317:Drivers/lvgl/src/core/lv_obj_tree.c ****         uint32_t i;
 318:Drivers/lvgl/src/core/lv_obj_tree.c ****         for(i = 0; i < d->screen_cnt; i++) {
 319:Drivers/lvgl/src/core/lv_obj_tree.c ****             if(d->screens[i] == scr) return d;
 320:Drivers/lvgl/src/core/lv_obj_tree.c ****         }
 321:Drivers/lvgl/src/core/lv_obj_tree.c ****     }
 322:Drivers/lvgl/src/core/lv_obj_tree.c **** 
 323:Drivers/lvgl/src/core/lv_obj_tree.c ****     LV_LOG_WARN("No screen found");
 324:Drivers/lvgl/src/core/lv_obj_tree.c ****     return NULL;
 325:Drivers/lvgl/src/core/lv_obj_tree.c **** }
 326:Drivers/lvgl/src/core/lv_obj_tree.c **** 
 327:Drivers/lvgl/src/core/lv_obj_tree.c **** lv_obj_t * lv_obj_get_parent(const lv_obj_t * obj)
 328:Drivers/lvgl/src/core/lv_obj_tree.c **** {
 329:Drivers/lvgl/src/core/lv_obj_tree.c ****     if(obj == NULL) return NULL;
 330:Drivers/lvgl/src/core/lv_obj_tree.c ****     LV_ASSERT_OBJ(obj, MY_CLASS);
 331:Drivers/lvgl/src/core/lv_obj_tree.c **** 
 332:Drivers/lvgl/src/core/lv_obj_tree.c ****     return obj->parent;
 333:Drivers/lvgl/src/core/lv_obj_tree.c **** }
 334:Drivers/lvgl/src/core/lv_obj_tree.c **** 
 335:Drivers/lvgl/src/core/lv_obj_tree.c **** lv_obj_t * lv_obj_get_child(const lv_obj_t * obj, int32_t idx)
 336:Drivers/lvgl/src/core/lv_obj_tree.c **** {
 337:Drivers/lvgl/src/core/lv_obj_tree.c ****     LV_ASSERT_OBJ(obj, MY_CLASS);
 338:Drivers/lvgl/src/core/lv_obj_tree.c **** 
 339:Drivers/lvgl/src/core/lv_obj_tree.c ****     if(obj->spec_attr == NULL) return NULL;
 340:Drivers/lvgl/src/core/lv_obj_tree.c **** 
 341:Drivers/lvgl/src/core/lv_obj_tree.c ****     uint32_t idu;
 342:Drivers/lvgl/src/core/lv_obj_tree.c ****     if(idx < 0) {
 343:Drivers/lvgl/src/core/lv_obj_tree.c ****         idx = obj->spec_attr->child_cnt + idx;
 344:Drivers/lvgl/src/core/lv_obj_tree.c ****         if(idx < 0) return NULL;
 345:Drivers/lvgl/src/core/lv_obj_tree.c ****         idu = (uint32_t) idx;
 346:Drivers/lvgl/src/core/lv_obj_tree.c ****     }
 347:Drivers/lvgl/src/core/lv_obj_tree.c ****     else {
 348:Drivers/lvgl/src/core/lv_obj_tree.c ****         idu = idx;
 349:Drivers/lvgl/src/core/lv_obj_tree.c ****     }
 350:Drivers/lvgl/src/core/lv_obj_tree.c **** 
 351:Drivers/lvgl/src/core/lv_obj_tree.c ****     if(idu >= obj->spec_attr->child_cnt) return NULL;
 352:Drivers/lvgl/src/core/lv_obj_tree.c ****     else return obj->spec_attr->children[idx];
 353:Drivers/lvgl/src/core/lv_obj_tree.c **** }
 354:Drivers/lvgl/src/core/lv_obj_tree.c **** 
 355:Drivers/lvgl/src/core/lv_obj_tree.c **** lv_obj_t * lv_obj_get_child_by_type(const lv_obj_t * obj, int32_t idx, const lv_obj_class_t * class
 356:Drivers/lvgl/src/core/lv_obj_tree.c **** {
 357:Drivers/lvgl/src/core/lv_obj_tree.c ****     LV_ASSERT_OBJ(obj, MY_CLASS);
 358:Drivers/lvgl/src/core/lv_obj_tree.c **** 
 359:Drivers/lvgl/src/core/lv_obj_tree.c ****     if(obj->spec_attr == NULL) return NULL;
 360:Drivers/lvgl/src/core/lv_obj_tree.c **** 
 361:Drivers/lvgl/src/core/lv_obj_tree.c ****     int32_t i;
 362:Drivers/lvgl/src/core/lv_obj_tree.c ****     int32_t cnt = (int32_t)obj->spec_attr->child_cnt;
 363:Drivers/lvgl/src/core/lv_obj_tree.c ****     if(idx >= 0) {
 364:Drivers/lvgl/src/core/lv_obj_tree.c ****         for(i = 0; i < cnt; i++) {
 365:Drivers/lvgl/src/core/lv_obj_tree.c ****             if(obj->spec_attr->children[i]->class_p == class_p) {
 366:Drivers/lvgl/src/core/lv_obj_tree.c ****                 if(idx == 0) return obj->spec_attr->children[i];
 367:Drivers/lvgl/src/core/lv_obj_tree.c ****                 else idx--;
 368:Drivers/lvgl/src/core/lv_obj_tree.c ****             }
 369:Drivers/lvgl/src/core/lv_obj_tree.c ****         }
 370:Drivers/lvgl/src/core/lv_obj_tree.c ****     }
 371:Drivers/lvgl/src/core/lv_obj_tree.c ****     else {
 372:Drivers/lvgl/src/core/lv_obj_tree.c ****         idx++;   /*-1 means the first child*/
ARM GAS  /var/folders/qx/2_175_4n2s19vhvtspjhb3qh0000gn/T//cc9Gd54N.s 			page 8


 373:Drivers/lvgl/src/core/lv_obj_tree.c ****         for(i = cnt - 1; i >= 0; i--) {
 374:Drivers/lvgl/src/core/lv_obj_tree.c ****             if(obj->spec_attr->children[i]->class_p == class_p) {
 375:Drivers/lvgl/src/core/lv_obj_tree.c ****                 if(idx == 0) return obj->spec_attr->children[i];
 376:Drivers/lvgl/src/core/lv_obj_tree.c ****                 else idx++;
 377:Drivers/lvgl/src/core/lv_obj_tree.c ****             }
 378:Drivers/lvgl/src/core/lv_obj_tree.c ****         }
 379:Drivers/lvgl/src/core/lv_obj_tree.c ****     }
 380:Drivers/lvgl/src/core/lv_obj_tree.c ****     return NULL;
 381:Drivers/lvgl/src/core/lv_obj_tree.c **** }
 382:Drivers/lvgl/src/core/lv_obj_tree.c **** 
 383:Drivers/lvgl/src/core/lv_obj_tree.c **** lv_obj_t * lv_obj_get_sibling(const lv_obj_t * obj, int32_t idx)
 384:Drivers/lvgl/src/core/lv_obj_tree.c **** {
 385:Drivers/lvgl/src/core/lv_obj_tree.c ****     lv_obj_t * parent = lv_obj_get_parent(obj);
 386:Drivers/lvgl/src/core/lv_obj_tree.c ****     int32_t sibling_idx = (int32_t)lv_obj_get_index(obj) + idx;
 387:Drivers/lvgl/src/core/lv_obj_tree.c ****     if(sibling_idx < 0) return NULL;
 388:Drivers/lvgl/src/core/lv_obj_tree.c **** 
 389:Drivers/lvgl/src/core/lv_obj_tree.c ****     return lv_obj_get_child(parent, sibling_idx);
 390:Drivers/lvgl/src/core/lv_obj_tree.c **** }
 391:Drivers/lvgl/src/core/lv_obj_tree.c **** 
 392:Drivers/lvgl/src/core/lv_obj_tree.c **** lv_obj_t * lv_obj_get_sibling_by_type(const lv_obj_t * obj, int32_t idx, const lv_obj_class_t * cla
 393:Drivers/lvgl/src/core/lv_obj_tree.c **** {
 394:Drivers/lvgl/src/core/lv_obj_tree.c ****     LV_ASSERT_OBJ(obj, MY_CLASS);
 395:Drivers/lvgl/src/core/lv_obj_tree.c **** 
 396:Drivers/lvgl/src/core/lv_obj_tree.c ****     lv_obj_t * parent = lv_obj_get_parent(obj);
 397:Drivers/lvgl/src/core/lv_obj_tree.c ****     int32_t sibling_idx = (int32_t)lv_obj_get_index_by_type(obj, class_p) + idx;
 398:Drivers/lvgl/src/core/lv_obj_tree.c ****     if(sibling_idx < 0) return NULL;
 399:Drivers/lvgl/src/core/lv_obj_tree.c **** 
 400:Drivers/lvgl/src/core/lv_obj_tree.c ****     return lv_obj_get_child_by_type(parent, sibling_idx, class_p);
 401:Drivers/lvgl/src/core/lv_obj_tree.c **** }
 402:Drivers/lvgl/src/core/lv_obj_tree.c **** 
 403:Drivers/lvgl/src/core/lv_obj_tree.c **** uint32_t lv_obj_get_child_count(const lv_obj_t * obj)
 404:Drivers/lvgl/src/core/lv_obj_tree.c **** {
 405:Drivers/lvgl/src/core/lv_obj_tree.c ****     LV_ASSERT_OBJ(obj, MY_CLASS);
 406:Drivers/lvgl/src/core/lv_obj_tree.c ****     if(obj->spec_attr == NULL) return 0;
 407:Drivers/lvgl/src/core/lv_obj_tree.c ****     return obj->spec_attr->child_cnt;
 408:Drivers/lvgl/src/core/lv_obj_tree.c **** }
 409:Drivers/lvgl/src/core/lv_obj_tree.c **** 
 410:Drivers/lvgl/src/core/lv_obj_tree.c **** uint32_t lv_obj_get_child_count_by_type(const lv_obj_t * obj, const lv_obj_class_t * class_p)
 411:Drivers/lvgl/src/core/lv_obj_tree.c **** {
 412:Drivers/lvgl/src/core/lv_obj_tree.c ****     LV_ASSERT_OBJ(obj, MY_CLASS);
 413:Drivers/lvgl/src/core/lv_obj_tree.c ****     if(obj->spec_attr == NULL) return 0;
 414:Drivers/lvgl/src/core/lv_obj_tree.c **** 
 415:Drivers/lvgl/src/core/lv_obj_tree.c ****     uint32_t i;
 416:Drivers/lvgl/src/core/lv_obj_tree.c ****     uint32_t cnt = 0;
 417:Drivers/lvgl/src/core/lv_obj_tree.c ****     for(i = 0; i < obj->spec_attr->child_cnt; i++) {
 418:Drivers/lvgl/src/core/lv_obj_tree.c ****         if(obj->spec_attr->children[i]->class_p == class_p) cnt++;
 419:Drivers/lvgl/src/core/lv_obj_tree.c ****     }
 420:Drivers/lvgl/src/core/lv_obj_tree.c ****     return cnt;
 421:Drivers/lvgl/src/core/lv_obj_tree.c **** }
 422:Drivers/lvgl/src/core/lv_obj_tree.c **** 
 423:Drivers/lvgl/src/core/lv_obj_tree.c **** #if LV_USE_OBJ_NAME
 424:Drivers/lvgl/src/core/lv_obj_tree.c **** 
 425:Drivers/lvgl/src/core/lv_obj_tree.c **** void lv_obj_set_name(lv_obj_t * obj, const char * name)
 426:Drivers/lvgl/src/core/lv_obj_tree.c **** {
 427:Drivers/lvgl/src/core/lv_obj_tree.c ****     LV_ASSERT_OBJ(obj, MY_CLASS);
 428:Drivers/lvgl/src/core/lv_obj_tree.c **** 
 429:Drivers/lvgl/src/core/lv_obj_tree.c ****     lv_obj_allocate_spec_attr(obj);
ARM GAS  /var/folders/qx/2_175_4n2s19vhvtspjhb3qh0000gn/T//cc9Gd54N.s 			page 9


 430:Drivers/lvgl/src/core/lv_obj_tree.c **** 
 431:Drivers/lvgl/src/core/lv_obj_tree.c ****     if(!obj->spec_attr->name_static && obj->spec_attr->name) lv_free((void *)obj->spec_attr->name);
 432:Drivers/lvgl/src/core/lv_obj_tree.c **** 
 433:Drivers/lvgl/src/core/lv_obj_tree.c ****     if(name == NULL) {
 434:Drivers/lvgl/src/core/lv_obj_tree.c ****         obj->spec_attr->name = NULL;
 435:Drivers/lvgl/src/core/lv_obj_tree.c ****         obj->spec_attr->name_static = 1;
 436:Drivers/lvgl/src/core/lv_obj_tree.c ****     }
 437:Drivers/lvgl/src/core/lv_obj_tree.c ****     else {
 438:Drivers/lvgl/src/core/lv_obj_tree.c ****         obj->spec_attr->name = lv_strdup(name);
 439:Drivers/lvgl/src/core/lv_obj_tree.c ****         obj->spec_attr->name_static = 0;
 440:Drivers/lvgl/src/core/lv_obj_tree.c ****     }
 441:Drivers/lvgl/src/core/lv_obj_tree.c **** }
 442:Drivers/lvgl/src/core/lv_obj_tree.c **** 
 443:Drivers/lvgl/src/core/lv_obj_tree.c **** void lv_obj_set_name_static(lv_obj_t * obj, const char * name)
 444:Drivers/lvgl/src/core/lv_obj_tree.c **** {
 445:Drivers/lvgl/src/core/lv_obj_tree.c ****     LV_ASSERT_OBJ(obj, MY_CLASS);
 446:Drivers/lvgl/src/core/lv_obj_tree.c **** 
 447:Drivers/lvgl/src/core/lv_obj_tree.c ****     lv_obj_allocate_spec_attr(obj);
 448:Drivers/lvgl/src/core/lv_obj_tree.c **** 
 449:Drivers/lvgl/src/core/lv_obj_tree.c ****     if(!obj->spec_attr->name_static && obj->spec_attr->name) lv_free((void *)obj->spec_attr->name);
 450:Drivers/lvgl/src/core/lv_obj_tree.c **** 
 451:Drivers/lvgl/src/core/lv_obj_tree.c ****     obj->spec_attr->name = name;
 452:Drivers/lvgl/src/core/lv_obj_tree.c ****     obj->spec_attr->name_static = 1;
 453:Drivers/lvgl/src/core/lv_obj_tree.c **** }
 454:Drivers/lvgl/src/core/lv_obj_tree.c **** 
 455:Drivers/lvgl/src/core/lv_obj_tree.c **** const char * lv_obj_get_name(const lv_obj_t * obj)
 456:Drivers/lvgl/src/core/lv_obj_tree.c **** {
 457:Drivers/lvgl/src/core/lv_obj_tree.c ****     LV_ASSERT_OBJ(obj, MY_CLASS);
 458:Drivers/lvgl/src/core/lv_obj_tree.c **** 
 459:Drivers/lvgl/src/core/lv_obj_tree.c ****     if(obj->spec_attr == NULL) return NULL;
 460:Drivers/lvgl/src/core/lv_obj_tree.c ****     else return obj->spec_attr->name;
 461:Drivers/lvgl/src/core/lv_obj_tree.c **** }
 462:Drivers/lvgl/src/core/lv_obj_tree.c **** 
 463:Drivers/lvgl/src/core/lv_obj_tree.c **** void lv_obj_get_name_resolved(const lv_obj_t * obj, char buf[], size_t buf_size)
 464:Drivers/lvgl/src/core/lv_obj_tree.c **** {
 465:Drivers/lvgl/src/core/lv_obj_tree.c ****     LV_ASSERT_OBJ(obj, MY_CLASS);
 466:Drivers/lvgl/src/core/lv_obj_tree.c **** 
 467:Drivers/lvgl/src/core/lv_obj_tree.c ****     const char * name = lv_obj_get_name(obj);
 468:Drivers/lvgl/src/core/lv_obj_tree.c ****     /*Use a default name which auto-indexing*/
 469:Drivers/lvgl/src/core/lv_obj_tree.c ****     char name_buf[LV_OBJ_NAME_MAX_LEN];
 470:Drivers/lvgl/src/core/lv_obj_tree.c ****     if(name == NULL) {
 471:Drivers/lvgl/src/core/lv_obj_tree.c ****         lv_snprintf(name_buf, sizeof(name_buf), "%s_#", obj->class_p->name);
 472:Drivers/lvgl/src/core/lv_obj_tree.c ****         name = name_buf;
 473:Drivers/lvgl/src/core/lv_obj_tree.c ****     }
 474:Drivers/lvgl/src/core/lv_obj_tree.c **** 
 475:Drivers/lvgl/src/core/lv_obj_tree.c ****     size_t name_len = lv_strlen(name);
 476:Drivers/lvgl/src/core/lv_obj_tree.c ****     lv_obj_t * parent = lv_obj_get_parent(obj);
 477:Drivers/lvgl/src/core/lv_obj_tree.c **** 
 478:Drivers/lvgl/src/core/lv_obj_tree.c ****     /*If the last character is # automatically index the children with the same name start*/
 479:Drivers/lvgl/src/core/lv_obj_tree.c ****     if(parent && name_len > 0 && name[name_len - 1] == '#') {
 480:Drivers/lvgl/src/core/lv_obj_tree.c ****         uint32_t child_cnt = lv_obj_get_child_count(parent);
 481:Drivers/lvgl/src/core/lv_obj_tree.c ****         uint32_t cnt = 0;
 482:Drivers/lvgl/src/core/lv_obj_tree.c ****         uint32_t i;
 483:Drivers/lvgl/src/core/lv_obj_tree.c ****         for(i = 0; i < child_cnt; i++) {
 484:Drivers/lvgl/src/core/lv_obj_tree.c ****             lv_obj_t * child = lv_obj_get_child(parent, i);
 485:Drivers/lvgl/src/core/lv_obj_tree.c ****             /*All siblings older siblings are checked, craft the name of this widget*/
 486:Drivers/lvgl/src/core/lv_obj_tree.c ****             if(child == obj) {
ARM GAS  /var/folders/qx/2_175_4n2s19vhvtspjhb3qh0000gn/T//cc9Gd54N.s 			page 10


 487:Drivers/lvgl/src/core/lv_obj_tree.c ****                 char num_buf[8];
 488:Drivers/lvgl/src/core/lv_obj_tree.c ****                 size_t num_len;
 489:Drivers/lvgl/src/core/lv_obj_tree.c ****                 num_len = lv_snprintf(num_buf, sizeof(num_buf), "%d", cnt);
 490:Drivers/lvgl/src/core/lv_obj_tree.c ****                 /*Is there enough space for the name and the index?*/
 491:Drivers/lvgl/src/core/lv_obj_tree.c ****                 if(buf_size > name_len + num_len) {
 492:Drivers/lvgl/src/core/lv_obj_tree.c ****                     /*E.g. buf = "some_name_", so trim the # from the end*/
 493:Drivers/lvgl/src/core/lv_obj_tree.c ****                     lv_strncpy(buf, name, name_len - 1);
 494:Drivers/lvgl/src/core/lv_obj_tree.c ****                     lv_strcpy(&buf[name_len - 1], num_buf);
 495:Drivers/lvgl/src/core/lv_obj_tree.c ****                 }
 496:Drivers/lvgl/src/core/lv_obj_tree.c ****                 else {
 497:Drivers/lvgl/src/core/lv_obj_tree.c ****                     /*Use the name as it is as a fallback*/
 498:Drivers/lvgl/src/core/lv_obj_tree.c ****                     lv_strlcpy(buf, obj->spec_attr->name, buf_size);
 499:Drivers/lvgl/src/core/lv_obj_tree.c ****                 }
 500:Drivers/lvgl/src/core/lv_obj_tree.c ****                 break;
 501:Drivers/lvgl/src/core/lv_obj_tree.c ****             }
 502:Drivers/lvgl/src/core/lv_obj_tree.c ****             /*Check the older siblings. IF they start with the same name count them*/
 503:Drivers/lvgl/src/core/lv_obj_tree.c ****             else {
 504:Drivers/lvgl/src/core/lv_obj_tree.c ****                 const char * child_name = lv_obj_get_name(child);
 505:Drivers/lvgl/src/core/lv_obj_tree.c ****                 if(child_name == NULL) {
 506:Drivers/lvgl/src/core/lv_obj_tree.c ****                     /*If the name we are looking for start with the child's class name
 507:Drivers/lvgl/src/core/lv_obj_tree.c ****                      *increment the index. E.g. <class_name>_#*/
 508:Drivers/lvgl/src/core/lv_obj_tree.c ****                     size_t class_name_len = lv_strlen(child->class_p->name);
 509:Drivers/lvgl/src/core/lv_obj_tree.c ****                     if(name_len > 3 && class_name_len == name_len - 2 &&
 510:Drivers/lvgl/src/core/lv_obj_tree.c ****                        lv_strncmp(child->class_p->name, name, class_name_len) == 0) {
 511:Drivers/lvgl/src/core/lv_obj_tree.c ****                         cnt++;
 512:Drivers/lvgl/src/core/lv_obj_tree.c ****                     }
 513:Drivers/lvgl/src/core/lv_obj_tree.c ****                 }
 514:Drivers/lvgl/src/core/lv_obj_tree.c ****                 /*The name is set, check if it's e.g. <some_name>#*/
 515:Drivers/lvgl/src/core/lv_obj_tree.c ****                 else {
 516:Drivers/lvgl/src/core/lv_obj_tree.c ****                     if(lv_strcmp(child->spec_attr->name, name) == 0) {
 517:Drivers/lvgl/src/core/lv_obj_tree.c ****                         cnt++;
 518:Drivers/lvgl/src/core/lv_obj_tree.c ****                     }
 519:Drivers/lvgl/src/core/lv_obj_tree.c ****                 }
 520:Drivers/lvgl/src/core/lv_obj_tree.c ****             }
 521:Drivers/lvgl/src/core/lv_obj_tree.c ****         }
 522:Drivers/lvgl/src/core/lv_obj_tree.c ****     }
 523:Drivers/lvgl/src/core/lv_obj_tree.c ****     else {
 524:Drivers/lvgl/src/core/lv_obj_tree.c ****         /*Just use the set name*/
 525:Drivers/lvgl/src/core/lv_obj_tree.c ****         lv_strlcpy(buf, obj->spec_attr->name, buf_size);
 526:Drivers/lvgl/src/core/lv_obj_tree.c ****     }
 527:Drivers/lvgl/src/core/lv_obj_tree.c **** }
 528:Drivers/lvgl/src/core/lv_obj_tree.c **** 
 529:Drivers/lvgl/src/core/lv_obj_tree.c **** lv_obj_t * lv_obj_get_child_by_name(const lv_obj_t * parent, const char * path)
 530:Drivers/lvgl/src/core/lv_obj_tree.c **** {
 531:Drivers/lvgl/src/core/lv_obj_tree.c ****     LV_ASSERT_OBJ(parent, MY_CLASS);
 532:Drivers/lvgl/src/core/lv_obj_tree.c **** 
 533:Drivers/lvgl/src/core/lv_obj_tree.c ****     if(parent == NULL || parent->spec_attr == NULL || path == NULL) return NULL;
 534:Drivers/lvgl/src/core/lv_obj_tree.c **** 
 535:Drivers/lvgl/src/core/lv_obj_tree.c ****     while(*path) {
 536:Drivers/lvgl/src/core/lv_obj_tree.c ****         const char * segment = path;
 537:Drivers/lvgl/src/core/lv_obj_tree.c ****         uint32_t len = 0;
 538:Drivers/lvgl/src/core/lv_obj_tree.c **** 
 539:Drivers/lvgl/src/core/lv_obj_tree.c ****         /* Calculate the length of the current segment */
 540:Drivers/lvgl/src/core/lv_obj_tree.c ****         while(path[len] && path[len] != '/')
 541:Drivers/lvgl/src/core/lv_obj_tree.c ****             len++;
 542:Drivers/lvgl/src/core/lv_obj_tree.c **** 
 543:Drivers/lvgl/src/core/lv_obj_tree.c ****         /* Look for a child whose resolved name exactly matches the segment */
ARM GAS  /var/folders/qx/2_175_4n2s19vhvtspjhb3qh0000gn/T//cc9Gd54N.s 			page 11


 544:Drivers/lvgl/src/core/lv_obj_tree.c ****         lv_obj_t * child = find_by_name_direct(parent, segment, len);
 545:Drivers/lvgl/src/core/lv_obj_tree.c ****         if(!child) return NULL; /*Segment not found*/
 546:Drivers/lvgl/src/core/lv_obj_tree.c **** 
 547:Drivers/lvgl/src/core/lv_obj_tree.c ****         /* Advance to the next segment */
 548:Drivers/lvgl/src/core/lv_obj_tree.c ****         path += len;
 549:Drivers/lvgl/src/core/lv_obj_tree.c ****         if(*path == '/') path++; /* Skip the '/' */
 550:Drivers/lvgl/src/core/lv_obj_tree.c **** 
 551:Drivers/lvgl/src/core/lv_obj_tree.c ****         /* If there is no further segment, we've found the target child */
 552:Drivers/lvgl/src/core/lv_obj_tree.c ****         if(*path == '\0') return child;
 553:Drivers/lvgl/src/core/lv_obj_tree.c **** 
 554:Drivers/lvgl/src/core/lv_obj_tree.c ****         parent = child;
 555:Drivers/lvgl/src/core/lv_obj_tree.c ****     }
 556:Drivers/lvgl/src/core/lv_obj_tree.c **** 
 557:Drivers/lvgl/src/core/lv_obj_tree.c ****     return NULL;
 558:Drivers/lvgl/src/core/lv_obj_tree.c **** 
 559:Drivers/lvgl/src/core/lv_obj_tree.c **** }
 560:Drivers/lvgl/src/core/lv_obj_tree.c **** 
 561:Drivers/lvgl/src/core/lv_obj_tree.c **** lv_obj_t * lv_obj_find_by_name(const lv_obj_t * parent, const char * name)
 562:Drivers/lvgl/src/core/lv_obj_tree.c **** {
 563:Drivers/lvgl/src/core/lv_obj_tree.c ****     if(parent == NULL) parent = lv_display_get_screen_active(NULL);
 564:Drivers/lvgl/src/core/lv_obj_tree.c ****     if(parent == NULL) return NULL;
 565:Drivers/lvgl/src/core/lv_obj_tree.c **** 
 566:Drivers/lvgl/src/core/lv_obj_tree.c ****     lv_obj_t * child = find_by_name_direct(parent, name, UINT16_MAX);
 567:Drivers/lvgl/src/core/lv_obj_tree.c ****     if(child) return child;
 568:Drivers/lvgl/src/core/lv_obj_tree.c **** 
 569:Drivers/lvgl/src/core/lv_obj_tree.c ****     /*Search children recursively*/
 570:Drivers/lvgl/src/core/lv_obj_tree.c ****     uint32_t child_cnt = lv_obj_get_child_count(parent);
 571:Drivers/lvgl/src/core/lv_obj_tree.c ****     uint32_t i;
 572:Drivers/lvgl/src/core/lv_obj_tree.c ****     for(i = 0; i < child_cnt; i++) {
 573:Drivers/lvgl/src/core/lv_obj_tree.c ****         child = parent->spec_attr->children[i];
 574:Drivers/lvgl/src/core/lv_obj_tree.c ****         lv_obj_t * found = lv_obj_find_by_name(child, name);
 575:Drivers/lvgl/src/core/lv_obj_tree.c ****         if(found != NULL) return found;
 576:Drivers/lvgl/src/core/lv_obj_tree.c ****     }
 577:Drivers/lvgl/src/core/lv_obj_tree.c **** 
 578:Drivers/lvgl/src/core/lv_obj_tree.c ****     return NULL;
 579:Drivers/lvgl/src/core/lv_obj_tree.c **** }
 580:Drivers/lvgl/src/core/lv_obj_tree.c **** 
 581:Drivers/lvgl/src/core/lv_obj_tree.c **** #endif /*LV_USE_OBJ_NAME*/
 582:Drivers/lvgl/src/core/lv_obj_tree.c **** 
 583:Drivers/lvgl/src/core/lv_obj_tree.c **** int32_t lv_obj_get_index(const lv_obj_t * obj)
 584:Drivers/lvgl/src/core/lv_obj_tree.c **** {
 585:Drivers/lvgl/src/core/lv_obj_tree.c ****     LV_ASSERT_OBJ(obj, MY_CLASS);
 586:Drivers/lvgl/src/core/lv_obj_tree.c **** 
 587:Drivers/lvgl/src/core/lv_obj_tree.c ****     lv_obj_t * parent = lv_obj_get_parent(obj);
 588:Drivers/lvgl/src/core/lv_obj_tree.c ****     if(parent == NULL) return -1;
 589:Drivers/lvgl/src/core/lv_obj_tree.c **** 
 590:Drivers/lvgl/src/core/lv_obj_tree.c ****     int32_t i = 0;
 591:Drivers/lvgl/src/core/lv_obj_tree.c ****     for(i = 0; i < parent->spec_attr->child_cnt; i++) {
 592:Drivers/lvgl/src/core/lv_obj_tree.c ****         if(parent->spec_attr->children[i] == obj) return i;
 593:Drivers/lvgl/src/core/lv_obj_tree.c ****     }
 594:Drivers/lvgl/src/core/lv_obj_tree.c **** 
 595:Drivers/lvgl/src/core/lv_obj_tree.c ****     /*Shouldn't reach this point*/
 596:Drivers/lvgl/src/core/lv_obj_tree.c ****     LV_ASSERT(0);
 597:Drivers/lvgl/src/core/lv_obj_tree.c ****     return -1;
 598:Drivers/lvgl/src/core/lv_obj_tree.c **** }
 599:Drivers/lvgl/src/core/lv_obj_tree.c **** 
 600:Drivers/lvgl/src/core/lv_obj_tree.c **** int32_t lv_obj_get_index_by_type(const lv_obj_t * obj, const lv_obj_class_t * class_p)
ARM GAS  /var/folders/qx/2_175_4n2s19vhvtspjhb3qh0000gn/T//cc9Gd54N.s 			page 12


 601:Drivers/lvgl/src/core/lv_obj_tree.c **** {
 602:Drivers/lvgl/src/core/lv_obj_tree.c ****     LV_ASSERT_OBJ(obj, MY_CLASS);
 603:Drivers/lvgl/src/core/lv_obj_tree.c **** 
 604:Drivers/lvgl/src/core/lv_obj_tree.c ****     lv_obj_t * parent = lv_obj_get_parent(obj);
 605:Drivers/lvgl/src/core/lv_obj_tree.c ****     if(parent == NULL) return 0xFFFFFFFF;
 606:Drivers/lvgl/src/core/lv_obj_tree.c **** 
 607:Drivers/lvgl/src/core/lv_obj_tree.c ****     uint32_t i = 0;
 608:Drivers/lvgl/src/core/lv_obj_tree.c ****     uint32_t idx = 0;
 609:Drivers/lvgl/src/core/lv_obj_tree.c ****     for(i = 0; i < parent->spec_attr->child_cnt; i++) {
 610:Drivers/lvgl/src/core/lv_obj_tree.c ****         lv_obj_t * child = parent->spec_attr->children[i];
 611:Drivers/lvgl/src/core/lv_obj_tree.c ****         if(child->class_p == class_p) {
 612:Drivers/lvgl/src/core/lv_obj_tree.c ****             if(child == obj) return idx;
 613:Drivers/lvgl/src/core/lv_obj_tree.c ****             idx++;
 614:Drivers/lvgl/src/core/lv_obj_tree.c ****         }
 615:Drivers/lvgl/src/core/lv_obj_tree.c ****     }
 616:Drivers/lvgl/src/core/lv_obj_tree.c **** 
 617:Drivers/lvgl/src/core/lv_obj_tree.c ****     /*Can happen if there was no children with the given type*/
 618:Drivers/lvgl/src/core/lv_obj_tree.c ****     return -1;
 619:Drivers/lvgl/src/core/lv_obj_tree.c **** }
 620:Drivers/lvgl/src/core/lv_obj_tree.c **** 
 621:Drivers/lvgl/src/core/lv_obj_tree.c **** void lv_obj_tree_walk(lv_obj_t * start_obj, lv_obj_tree_walk_cb_t cb, void * user_data)
 622:Drivers/lvgl/src/core/lv_obj_tree.c **** {
 623:Drivers/lvgl/src/core/lv_obj_tree.c ****     walk_core(start_obj, cb, user_data);
 624:Drivers/lvgl/src/core/lv_obj_tree.c **** }
 625:Drivers/lvgl/src/core/lv_obj_tree.c **** 
 626:Drivers/lvgl/src/core/lv_obj_tree.c **** void lv_obj_dump_tree(lv_obj_t * start_obj)
 627:Drivers/lvgl/src/core/lv_obj_tree.c **** {
 628:Drivers/lvgl/src/core/lv_obj_tree.c ****     if(start_obj == NULL) {
 629:Drivers/lvgl/src/core/lv_obj_tree.c ****         lv_display_t * disp = lv_display_get_next(NULL);
 630:Drivers/lvgl/src/core/lv_obj_tree.c ****         while(disp) {
 631:Drivers/lvgl/src/core/lv_obj_tree.c ****             uint32_t i;
 632:Drivers/lvgl/src/core/lv_obj_tree.c ****             for(i = 0; i < disp->screen_cnt; i++) {
 633:Drivers/lvgl/src/core/lv_obj_tree.c ****                 dump_tree_core(disp->screens[i], 0);
 634:Drivers/lvgl/src/core/lv_obj_tree.c ****             }
 635:Drivers/lvgl/src/core/lv_obj_tree.c ****             disp = lv_display_get_next(disp);
 636:Drivers/lvgl/src/core/lv_obj_tree.c ****         }
 637:Drivers/lvgl/src/core/lv_obj_tree.c ****     }
 638:Drivers/lvgl/src/core/lv_obj_tree.c ****     else {
 639:Drivers/lvgl/src/core/lv_obj_tree.c ****         dump_tree_core(start_obj, 0);
 640:Drivers/lvgl/src/core/lv_obj_tree.c ****     }
 641:Drivers/lvgl/src/core/lv_obj_tree.c **** }
 642:Drivers/lvgl/src/core/lv_obj_tree.c **** 
 643:Drivers/lvgl/src/core/lv_obj_tree.c **** /**********************
 644:Drivers/lvgl/src/core/lv_obj_tree.c ****  *   STATIC FUNCTIONS
 645:Drivers/lvgl/src/core/lv_obj_tree.c ****  **********************/
 646:Drivers/lvgl/src/core/lv_obj_tree.c **** 
 647:Drivers/lvgl/src/core/lv_obj_tree.c **** static void lv_obj_delete_async_cb(void * obj)
 648:Drivers/lvgl/src/core/lv_obj_tree.c **** {
 649:Drivers/lvgl/src/core/lv_obj_tree.c ****     LV_ASSERT_OBJ(obj, MY_CLASS);
 650:Drivers/lvgl/src/core/lv_obj_tree.c **** 
 651:Drivers/lvgl/src/core/lv_obj_tree.c ****     lv_obj_delete(obj);
 652:Drivers/lvgl/src/core/lv_obj_tree.c **** }
 653:Drivers/lvgl/src/core/lv_obj_tree.c **** 
 654:Drivers/lvgl/src/core/lv_obj_tree.c **** static void obj_indev_reset(lv_indev_t * indev, lv_obj_t * obj)
 655:Drivers/lvgl/src/core/lv_obj_tree.c **** {
 656:Drivers/lvgl/src/core/lv_obj_tree.c ****     /* If the input device is already in the release state,
 657:Drivers/lvgl/src/core/lv_obj_tree.c ****      * there is no need to wait for the input device to be released
ARM GAS  /var/folders/qx/2_175_4n2s19vhvtspjhb3qh0000gn/T//cc9Gd54N.s 			page 13


 658:Drivers/lvgl/src/core/lv_obj_tree.c ****      */
 659:Drivers/lvgl/src/core/lv_obj_tree.c ****     if(lv_indev_get_state(indev) != LV_INDEV_STATE_RELEASED) {
 660:Drivers/lvgl/src/core/lv_obj_tree.c ****         /*Wait for release to avoid accidentally triggering other obj to be clicked*/
 661:Drivers/lvgl/src/core/lv_obj_tree.c ****         lv_indev_wait_release(indev);
 662:Drivers/lvgl/src/core/lv_obj_tree.c ****     }
 663:Drivers/lvgl/src/core/lv_obj_tree.c **** 
 664:Drivers/lvgl/src/core/lv_obj_tree.c ****     /*Reset the input device*/
 665:Drivers/lvgl/src/core/lv_obj_tree.c ****     lv_indev_reset(indev, obj);
 666:Drivers/lvgl/src/core/lv_obj_tree.c **** }
 667:Drivers/lvgl/src/core/lv_obj_tree.c **** 
 668:Drivers/lvgl/src/core/lv_obj_tree.c **** static void obj_delete_core(lv_obj_t * obj)
 669:Drivers/lvgl/src/core/lv_obj_tree.c **** {
 670:Drivers/lvgl/src/core/lv_obj_tree.c ****     if(obj->is_deleting)
 671:Drivers/lvgl/src/core/lv_obj_tree.c ****         return;
 672:Drivers/lvgl/src/core/lv_obj_tree.c **** 
 673:Drivers/lvgl/src/core/lv_obj_tree.c ****     obj->is_deleting = true;
 674:Drivers/lvgl/src/core/lv_obj_tree.c **** 
 675:Drivers/lvgl/src/core/lv_obj_tree.c ****     /*Let the user free the resources used in `LV_EVENT_DELETE`*/
 676:Drivers/lvgl/src/core/lv_obj_tree.c ****     lv_result_t res = lv_obj_send_event(obj, LV_EVENT_DELETE, NULL);
 677:Drivers/lvgl/src/core/lv_obj_tree.c ****     if(res == LV_RESULT_INVALID) {
 678:Drivers/lvgl/src/core/lv_obj_tree.c ****         obj->is_deleting = false;
 679:Drivers/lvgl/src/core/lv_obj_tree.c ****         return;
 680:Drivers/lvgl/src/core/lv_obj_tree.c ****     }
 681:Drivers/lvgl/src/core/lv_obj_tree.c **** 
 682:Drivers/lvgl/src/core/lv_obj_tree.c ****     /*Clean registered event_cb*/
 683:Drivers/lvgl/src/core/lv_obj_tree.c ****     if(obj->spec_attr) lv_event_remove_all(&(obj->spec_attr->event_list));
 684:Drivers/lvgl/src/core/lv_obj_tree.c **** 
 685:Drivers/lvgl/src/core/lv_obj_tree.c ****     /*Recursively delete the children*/
 686:Drivers/lvgl/src/core/lv_obj_tree.c ****     lv_obj_t * child = lv_obj_get_child(obj, 0);
 687:Drivers/lvgl/src/core/lv_obj_tree.c ****     while(child) {
 688:Drivers/lvgl/src/core/lv_obj_tree.c ****         obj_delete_core(child);
 689:Drivers/lvgl/src/core/lv_obj_tree.c ****         child = lv_obj_get_child(obj, 0);
 690:Drivers/lvgl/src/core/lv_obj_tree.c ****     }
 691:Drivers/lvgl/src/core/lv_obj_tree.c **** 
 692:Drivers/lvgl/src/core/lv_obj_tree.c ****     lv_group_t * group = lv_obj_get_group(obj);
 693:Drivers/lvgl/src/core/lv_obj_tree.c **** 
 694:Drivers/lvgl/src/core/lv_obj_tree.c ****     /*Reset all input devices if the object to delete is used*/
 695:Drivers/lvgl/src/core/lv_obj_tree.c ****     lv_indev_t * indev = lv_indev_get_next(NULL);
 696:Drivers/lvgl/src/core/lv_obj_tree.c ****     while(indev) {
 697:Drivers/lvgl/src/core/lv_obj_tree.c ****         lv_indev_type_t indev_type = lv_indev_get_type(indev);
 698:Drivers/lvgl/src/core/lv_obj_tree.c ****         if(indev_type == LV_INDEV_TYPE_POINTER || indev_type == LV_INDEV_TYPE_BUTTON) {
 699:Drivers/lvgl/src/core/lv_obj_tree.c ****             if(indev->pointer.act_obj == obj || indev->pointer.scroll_obj == obj) {
 700:Drivers/lvgl/src/core/lv_obj_tree.c ****                 obj_indev_reset(indev, obj);
 701:Drivers/lvgl/src/core/lv_obj_tree.c ****             }
 702:Drivers/lvgl/src/core/lv_obj_tree.c ****             if(indev->pointer.last_pressed == obj) {
 703:Drivers/lvgl/src/core/lv_obj_tree.c ****                 indev->pointer.last_pressed = NULL;
 704:Drivers/lvgl/src/core/lv_obj_tree.c ****             }
 705:Drivers/lvgl/src/core/lv_obj_tree.c ****             if(indev->pointer.last_hovered == obj) {
 706:Drivers/lvgl/src/core/lv_obj_tree.c ****                 indev->pointer.last_hovered = NULL;
 707:Drivers/lvgl/src/core/lv_obj_tree.c ****             }
 708:Drivers/lvgl/src/core/lv_obj_tree.c ****         }
 709:Drivers/lvgl/src/core/lv_obj_tree.c **** 
 710:Drivers/lvgl/src/core/lv_obj_tree.c ****         if(indev->group == group && obj == lv_indev_get_active_obj()) {
 711:Drivers/lvgl/src/core/lv_obj_tree.c ****             obj_indev_reset(indev, obj);
 712:Drivers/lvgl/src/core/lv_obj_tree.c ****         }
 713:Drivers/lvgl/src/core/lv_obj_tree.c ****         indev = lv_indev_get_next(indev);
 714:Drivers/lvgl/src/core/lv_obj_tree.c ****     }
ARM GAS  /var/folders/qx/2_175_4n2s19vhvtspjhb3qh0000gn/T//cc9Gd54N.s 			page 14


 715:Drivers/lvgl/src/core/lv_obj_tree.c **** 
 716:Drivers/lvgl/src/core/lv_obj_tree.c ****     /*Delete all pending async del-s*/
 717:Drivers/lvgl/src/core/lv_obj_tree.c ****     lv_result_t async_cancel_res = LV_RESULT_OK;
 718:Drivers/lvgl/src/core/lv_obj_tree.c ****     while(async_cancel_res == LV_RESULT_OK) {
 719:Drivers/lvgl/src/core/lv_obj_tree.c ****         async_cancel_res = lv_async_call_cancel(lv_obj_delete_async_cb, obj);
 720:Drivers/lvgl/src/core/lv_obj_tree.c ****     }
 721:Drivers/lvgl/src/core/lv_obj_tree.c **** 
 722:Drivers/lvgl/src/core/lv_obj_tree.c ****     /*All children deleted. Now clean up the object specific data*/
 723:Drivers/lvgl/src/core/lv_obj_tree.c ****     lv_obj_destruct(obj);
 724:Drivers/lvgl/src/core/lv_obj_tree.c **** 
 725:Drivers/lvgl/src/core/lv_obj_tree.c ****     /*Remove the screen for the screen list*/
 726:Drivers/lvgl/src/core/lv_obj_tree.c ****     if(obj->parent == NULL) {
 727:Drivers/lvgl/src/core/lv_obj_tree.c ****         lv_display_t * disp = lv_obj_get_display(obj);
 728:Drivers/lvgl/src/core/lv_obj_tree.c ****         uint32_t i;
 729:Drivers/lvgl/src/core/lv_obj_tree.c ****         /*Find the screen in the list*/
 730:Drivers/lvgl/src/core/lv_obj_tree.c ****         for(i = 0; i < disp->screen_cnt; i++) {
 731:Drivers/lvgl/src/core/lv_obj_tree.c ****             if(disp->screens[i] == obj) break;
 732:Drivers/lvgl/src/core/lv_obj_tree.c ****         }
 733:Drivers/lvgl/src/core/lv_obj_tree.c **** 
 734:Drivers/lvgl/src/core/lv_obj_tree.c ****         uint32_t id = i;
 735:Drivers/lvgl/src/core/lv_obj_tree.c ****         for(i = id; i < disp->screen_cnt - 1; i++) {
 736:Drivers/lvgl/src/core/lv_obj_tree.c ****             disp->screens[i] = disp->screens[i + 1];
 737:Drivers/lvgl/src/core/lv_obj_tree.c ****         }
 738:Drivers/lvgl/src/core/lv_obj_tree.c ****         disp->screen_cnt--;
 739:Drivers/lvgl/src/core/lv_obj_tree.c ****         disp->screens = lv_realloc(disp->screens, disp->screen_cnt * sizeof(lv_obj_t *));
 740:Drivers/lvgl/src/core/lv_obj_tree.c ****     }
 741:Drivers/lvgl/src/core/lv_obj_tree.c ****     /*Remove the object from the child list of its parent*/
 742:Drivers/lvgl/src/core/lv_obj_tree.c ****     else {
 743:Drivers/lvgl/src/core/lv_obj_tree.c ****         int32_t id = lv_obj_get_index(obj);
 744:Drivers/lvgl/src/core/lv_obj_tree.c ****         uint16_t i;
 745:Drivers/lvgl/src/core/lv_obj_tree.c ****         for(i = id; i < obj->parent->spec_attr->child_cnt - 1; i++) {
 746:Drivers/lvgl/src/core/lv_obj_tree.c ****             obj->parent->spec_attr->children[i] = obj->parent->spec_attr->children[i + 1];
 747:Drivers/lvgl/src/core/lv_obj_tree.c ****         }
 748:Drivers/lvgl/src/core/lv_obj_tree.c ****         obj->parent->spec_attr->child_cnt--;
 749:Drivers/lvgl/src/core/lv_obj_tree.c ****         obj->parent->spec_attr->children = lv_realloc(obj->parent->spec_attr->children,
 750:Drivers/lvgl/src/core/lv_obj_tree.c ****                                                       obj->parent->spec_attr->child_cnt * sizeof(lv
 751:Drivers/lvgl/src/core/lv_obj_tree.c ****     }
 752:Drivers/lvgl/src/core/lv_obj_tree.c **** 
 753:Drivers/lvgl/src/core/lv_obj_tree.c ****     /*Free the object itself*/
 754:Drivers/lvgl/src/core/lv_obj_tree.c ****     lv_free(obj);
 755:Drivers/lvgl/src/core/lv_obj_tree.c **** }
 756:Drivers/lvgl/src/core/lv_obj_tree.c **** 
 757:Drivers/lvgl/src/core/lv_obj_tree.c **** static lv_obj_tree_walk_res_t walk_core(lv_obj_t * obj, lv_obj_tree_walk_cb_t cb, void * user_data)
 758:Drivers/lvgl/src/core/lv_obj_tree.c **** {
 759:Drivers/lvgl/src/core/lv_obj_tree.c ****     lv_obj_tree_walk_res_t res = LV_OBJ_TREE_WALK_NEXT;
 760:Drivers/lvgl/src/core/lv_obj_tree.c **** 
 761:Drivers/lvgl/src/core/lv_obj_tree.c ****     if(obj == NULL) {
 762:Drivers/lvgl/src/core/lv_obj_tree.c ****         lv_display_t * disp = lv_display_get_next(NULL);
 763:Drivers/lvgl/src/core/lv_obj_tree.c ****         while(disp) {
 764:Drivers/lvgl/src/core/lv_obj_tree.c ****             uint32_t i;
 765:Drivers/lvgl/src/core/lv_obj_tree.c ****             for(i = 0; i < disp->screen_cnt; i++) {
 766:Drivers/lvgl/src/core/lv_obj_tree.c ****                 walk_core(disp->screens[i], cb, user_data);
 767:Drivers/lvgl/src/core/lv_obj_tree.c ****             }
 768:Drivers/lvgl/src/core/lv_obj_tree.c ****             disp = lv_display_get_next(disp);
 769:Drivers/lvgl/src/core/lv_obj_tree.c ****         }
 770:Drivers/lvgl/src/core/lv_obj_tree.c ****         return LV_OBJ_TREE_WALK_END;    /*The value doesn't matter as it wasn't called recursively*
 771:Drivers/lvgl/src/core/lv_obj_tree.c ****     }
ARM GAS  /var/folders/qx/2_175_4n2s19vhvtspjhb3qh0000gn/T//cc9Gd54N.s 			page 15


 772:Drivers/lvgl/src/core/lv_obj_tree.c **** 
 773:Drivers/lvgl/src/core/lv_obj_tree.c ****     res = cb(obj, user_data);
 774:Drivers/lvgl/src/core/lv_obj_tree.c **** 
 775:Drivers/lvgl/src/core/lv_obj_tree.c ****     if(res == LV_OBJ_TREE_WALK_END) return LV_OBJ_TREE_WALK_END;
 776:Drivers/lvgl/src/core/lv_obj_tree.c **** 
 777:Drivers/lvgl/src/core/lv_obj_tree.c ****     if(res != LV_OBJ_TREE_WALK_SKIP_CHILDREN) {
 778:Drivers/lvgl/src/core/lv_obj_tree.c ****         uint32_t i;
 779:Drivers/lvgl/src/core/lv_obj_tree.c ****         for(i = 0; i < lv_obj_get_child_count(obj); i++) {
 780:Drivers/lvgl/src/core/lv_obj_tree.c ****             res = walk_core(lv_obj_get_child(obj, i), cb, user_data);
 781:Drivers/lvgl/src/core/lv_obj_tree.c ****             if(res == LV_OBJ_TREE_WALK_END) return LV_OBJ_TREE_WALK_END;
 782:Drivers/lvgl/src/core/lv_obj_tree.c ****         }
 783:Drivers/lvgl/src/core/lv_obj_tree.c ****     }
 784:Drivers/lvgl/src/core/lv_obj_tree.c ****     return LV_OBJ_TREE_WALK_NEXT;
 785:Drivers/lvgl/src/core/lv_obj_tree.c **** }
 786:Drivers/lvgl/src/core/lv_obj_tree.c **** 
 787:Drivers/lvgl/src/core/lv_obj_tree.c **** static void dump_tree_core(lv_obj_t * obj, int32_t depth)
 788:Drivers/lvgl/src/core/lv_obj_tree.c **** {
 789:Drivers/lvgl/src/core/lv_obj_tree.c **** #if LV_USE_LOG
 790:Drivers/lvgl/src/core/lv_obj_tree.c ****     const char * id;
 791:Drivers/lvgl/src/core/lv_obj_tree.c **** 
 792:Drivers/lvgl/src/core/lv_obj_tree.c **** #if LV_USE_OBJ_ID
 793:Drivers/lvgl/src/core/lv_obj_tree.c ****     char buf[OBJ_DUMP_STRING_LEN];
 794:Drivers/lvgl/src/core/lv_obj_tree.c ****     id = lv_obj_stringify_id(obj, buf, sizeof(buf));
 795:Drivers/lvgl/src/core/lv_obj_tree.c ****     if(id == NULL) id = "obj0";
 796:Drivers/lvgl/src/core/lv_obj_tree.c **** #else
 797:Drivers/lvgl/src/core/lv_obj_tree.c ****     id = "obj0";
 798:Drivers/lvgl/src/core/lv_obj_tree.c **** #endif
 799:Drivers/lvgl/src/core/lv_obj_tree.c **** 
 800:Drivers/lvgl/src/core/lv_obj_tree.c ****     /*id of `obj0` is an invalid id for builtin id*/
 801:Drivers/lvgl/src/core/lv_obj_tree.c ****     LV_LOG_USER("%*sobj:%p, id:%s;", (int)(2 * depth), "", (void *)obj, id);
 802:Drivers/lvgl/src/core/lv_obj_tree.c **** #endif /*LV_USE_LOG*/
 803:Drivers/lvgl/src/core/lv_obj_tree.c **** 
 804:Drivers/lvgl/src/core/lv_obj_tree.c ****     if(obj && obj->spec_attr && obj->spec_attr->child_cnt) {
 805:Drivers/lvgl/src/core/lv_obj_tree.c ****         for(uint32_t i = 0; i < obj->spec_attr->child_cnt; i++) {
 806:Drivers/lvgl/src/core/lv_obj_tree.c ****             dump_tree_core(lv_obj_get_child(obj, i), depth + 1);
 807:Drivers/lvgl/src/core/lv_obj_tree.c ****         }
 808:Drivers/lvgl/src/core/lv_obj_tree.c ****     }
 809:Drivers/lvgl/src/core/lv_obj_tree.c **** }
 810:Drivers/lvgl/src/core/lv_obj_tree.c **** 
 811:Drivers/lvgl/src/core/lv_obj_tree.c **** static lv_obj_t * lv_obj_get_first_not_deleting_child(lv_obj_t * obj)
 812:Drivers/lvgl/src/core/lv_obj_tree.c **** {
  29              		.loc 1 812 1 view -0
  30              		.cfi_startproc
  31              		@ args = 0, pretend = 0, frame = 0
  32              		@ frame_needed = 0, uses_anonymous_args = 0
  33              		@ link register save eliminated.
 813:Drivers/lvgl/src/core/lv_obj_tree.c ****     LV_ASSERT_OBJ(obj, MY_CLASS);
  34              		.loc 1 813 5 view .LVU1
  35              		.loc 1 813 5 view .LVU2
  36 0000 80B1     		cbz	r0, .L3
  37              		.loc 1 813 5 view .LVU3
  38              		.loc 1 813 33 view .LVU4
 814:Drivers/lvgl/src/core/lv_obj_tree.c **** 
 815:Drivers/lvgl/src/core/lv_obj_tree.c ****     if(obj->spec_attr == NULL) return NULL;
  39              		.loc 1 815 5 view .LVU5
  40              		.loc 1 815 11 is_stmt 0 view .LVU6
  41 0002 8168     		ldr	r1, [r0, #8]
ARM GAS  /var/folders/qx/2_175_4n2s19vhvtspjhb3qh0000gn/T//cc9Gd54N.s 			page 16


  42              		.loc 1 815 7 view .LVU7
  43 0004 89B1     		cbz	r1, .L7
 816:Drivers/lvgl/src/core/lv_obj_tree.c **** 
 817:Drivers/lvgl/src/core/lv_obj_tree.c ****     int32_t i;
  44              		.loc 1 817 5 is_stmt 1 view .LVU8
 818:Drivers/lvgl/src/core/lv_obj_tree.c ****     int32_t cnt = (int32_t)obj->spec_attr->child_cnt;
  45              		.loc 1 818 5 view .LVU9
  46              		.loc 1 818 42 is_stmt 0 view .LVU10
  47 0006 B1F830C0 		ldrh	ip, [r1, #48]
  48              	.LVL1:
 819:Drivers/lvgl/src/core/lv_obj_tree.c ****     for(i = 0; i < cnt; i++) {
  49              		.loc 1 819 5 is_stmt 1 view .LVU11
  50              		.loc 1 819 11 is_stmt 0 view .LVU12
  51 000a 0023     		movs	r3, #0
  52              	.LVL2:
  53              	.L5:
  54              		.loc 1 819 18 is_stmt 1 discriminator 1 view .LVU13
  55 000c 6345     		cmp	r3, ip
  56 000e 0ADA     		bge	.L8
 820:Drivers/lvgl/src/core/lv_obj_tree.c ****         if(!obj->spec_attr->children[i]->is_deleting) {
  57              		.loc 1 820 9 view .LVU14
  58              		.loc 1 820 27 is_stmt 0 view .LVU15
  59 0010 0A68     		ldr	r2, [r1]
  60              		.loc 1 820 37 view .LVU16
  61 0012 52F82300 		ldr	r0, [r2, r3, lsl #2]
  62              		.loc 1 820 12 view .LVU17
  63 0016 90F82B20 		ldrb	r2, [r0, #43]	@ zero_extendqisi2
  64              		.loc 1 820 11 view .LVU18
  65 001a 12F0400F 		tst	r2, #64
  66 001e 05D0     		beq	.L1
 819:Drivers/lvgl/src/core/lv_obj_tree.c ****     for(i = 0; i < cnt; i++) {
  67              		.loc 1 819 26 is_stmt 1 discriminator 2 view .LVU19
  68 0020 0133     		adds	r3, r3, #1
  69              	.LVL3:
 819:Drivers/lvgl/src/core/lv_obj_tree.c ****     for(i = 0; i < cnt; i++) {
  70              		.loc 1 819 26 is_stmt 0 discriminator 2 view .LVU20
  71 0022 F3E7     		b	.L5
  72              	.LVL4:
  73              	.L3:
 813:Drivers/lvgl/src/core/lv_obj_tree.c **** 
  74              		.loc 1 813 5 is_stmt 1 view .LVU21
 813:Drivers/lvgl/src/core/lv_obj_tree.c **** 
  75              		.loc 1 813 5 view .LVU22
 813:Drivers/lvgl/src/core/lv_obj_tree.c **** 
  76              		.loc 1 813 5 view .LVU23
 813:Drivers/lvgl/src/core/lv_obj_tree.c **** 
  77              		.loc 1 813 5 view .LVU24
 813:Drivers/lvgl/src/core/lv_obj_tree.c **** 
  78              		.loc 1 813 5 view .LVU25
  79 0024 FEE7     		b	.L3
  80              	.LVL5:
  81              	.L8:
 821:Drivers/lvgl/src/core/lv_obj_tree.c ****             return obj->spec_attr->children[i];
 822:Drivers/lvgl/src/core/lv_obj_tree.c ****         }
 823:Drivers/lvgl/src/core/lv_obj_tree.c ****     }
 824:Drivers/lvgl/src/core/lv_obj_tree.c **** 
 825:Drivers/lvgl/src/core/lv_obj_tree.c ****     return NULL;
ARM GAS  /var/folders/qx/2_175_4n2s19vhvtspjhb3qh0000gn/T//cc9Gd54N.s 			page 17


  82              		.loc 1 825 12 is_stmt 0 view .LVU26
  83 0026 0020     		movs	r0, #0
  84 0028 7047     		bx	lr
  85              	.LVL6:
  86              	.L7:
 815:Drivers/lvgl/src/core/lv_obj_tree.c **** 
  87              		.loc 1 815 39 discriminator 1 view .LVU27
  88 002a 0846     		mov	r0, r1
  89              	.LVL7:
  90              	.L1:
 826:Drivers/lvgl/src/core/lv_obj_tree.c **** }
  91              		.loc 1 826 1 view .LVU28
  92 002c 7047     		bx	lr
  93              		.cfi_endproc
  94              	.LFE219:
  96              		.section	.text.obj_indev_reset,"ax",%progbits
  97              		.align	1
  98              		.syntax unified
  99              		.thumb
 100              		.thumb_func
 102              	obj_indev_reset:
 103              	.LVL8:
 104              	.LFB215:
 655:Drivers/lvgl/src/core/lv_obj_tree.c ****     /* If the input device is already in the release state,
 105              		.loc 1 655 1 is_stmt 1 view -0
 106              		.cfi_startproc
 107              		@ args = 0, pretend = 0, frame = 0
 108              		@ frame_needed = 0, uses_anonymous_args = 0
 655:Drivers/lvgl/src/core/lv_obj_tree.c ****     /* If the input device is already in the release state,
 109              		.loc 1 655 1 is_stmt 0 view .LVU30
 110 0000 38B5     		push	{r3, r4, r5, lr}
 111              	.LCFI0:
 112              		.cfi_def_cfa_offset 16
 113              		.cfi_offset 3, -16
 114              		.cfi_offset 4, -12
 115              		.cfi_offset 5, -8
 116              		.cfi_offset 14, -4
 117 0002 0446     		mov	r4, r0
 118 0004 0D46     		mov	r5, r1
 659:Drivers/lvgl/src/core/lv_obj_tree.c ****         /*Wait for release to avoid accidentally triggering other obj to be clicked*/
 119              		.loc 1 659 5 is_stmt 1 view .LVU31
 659:Drivers/lvgl/src/core/lv_obj_tree.c ****         /*Wait for release to avoid accidentally triggering other obj to be clicked*/
 120              		.loc 1 659 8 is_stmt 0 view .LVU32
 121 0006 FFF7FEFF 		bl	lv_indev_get_state
 122              	.LVL9:
 659:Drivers/lvgl/src/core/lv_obj_tree.c ****         /*Wait for release to avoid accidentally triggering other obj to be clicked*/
 123              		.loc 1 659 7 discriminator 1 view .LVU33
 124 000a 20B9     		cbnz	r0, .L12
 125              	.L10:
 665:Drivers/lvgl/src/core/lv_obj_tree.c **** }
 126              		.loc 1 665 5 is_stmt 1 view .LVU34
 127 000c 2946     		mov	r1, r5
 128 000e 2046     		mov	r0, r4
 129 0010 FFF7FEFF 		bl	lv_indev_reset
 130              	.LVL10:
 666:Drivers/lvgl/src/core/lv_obj_tree.c **** 
 131              		.loc 1 666 1 is_stmt 0 view .LVU35
ARM GAS  /var/folders/qx/2_175_4n2s19vhvtspjhb3qh0000gn/T//cc9Gd54N.s 			page 18


 132 0014 38BD     		pop	{r3, r4, r5, pc}
 133              	.LVL11:
 134              	.L12:
 661:Drivers/lvgl/src/core/lv_obj_tree.c ****     }
 135              		.loc 1 661 9 is_stmt 1 view .LVU36
 136 0016 2046     		mov	r0, r4
 137 0018 FFF7FEFF 		bl	lv_indev_wait_release
 138              	.LVL12:
 139 001c F6E7     		b	.L10
 140              		.cfi_endproc
 141              	.LFE215:
 143              		.section	.text.lv_obj_delete_delayed,"ax",%progbits
 144              		.align	1
 145              		.global	lv_obj_delete_delayed
 146              		.syntax unified
 147              		.thumb
 148              		.thumb_func
 150              	lv_obj_delete_delayed:
 151              	.LVL13:
 152              	.LFB195:
 125:Drivers/lvgl/src/core/lv_obj_tree.c ****     lv_anim_t a;
 153              		.loc 1 125 1 view -0
 154              		.cfi_startproc
 155              		@ args = 0, pretend = 0, frame = 96
 156              		@ frame_needed = 0, uses_anonymous_args = 0
 125:Drivers/lvgl/src/core/lv_obj_tree.c ****     lv_anim_t a;
 157              		.loc 1 125 1 is_stmt 0 view .LVU38
 158 0000 70B5     		push	{r4, r5, r6, lr}
 159              	.LCFI1:
 160              		.cfi_def_cfa_offset 16
 161              		.cfi_offset 4, -16
 162              		.cfi_offset 5, -12
 163              		.cfi_offset 6, -8
 164              		.cfi_offset 14, -4
 165 0002 98B0     		sub	sp, sp, #96
 166              	.LCFI2:
 167              		.cfi_def_cfa_offset 112
 168 0004 0646     		mov	r6, r0
 169 0006 0D46     		mov	r5, r1
 126:Drivers/lvgl/src/core/lv_obj_tree.c ****     lv_anim_init(&a);
 170              		.loc 1 126 5 is_stmt 1 view .LVU39
 127:Drivers/lvgl/src/core/lv_obj_tree.c ****     lv_anim_set_var(&a, obj);
 171              		.loc 1 127 5 view .LVU40
 172 0008 6846     		mov	r0, sp
 173              	.LVL14:
 127:Drivers/lvgl/src/core/lv_obj_tree.c ****     lv_anim_set_var(&a, obj);
 174              		.loc 1 127 5 is_stmt 0 view .LVU41
 175 000a FFF7FEFF 		bl	lv_anim_init
 176              	.LVL15:
 128:Drivers/lvgl/src/core/lv_obj_tree.c ****     lv_anim_set_exec_cb(&a, NULL);
 177              		.loc 1 128 5 is_stmt 1 view .LVU42
 178 000e 3146     		mov	r1, r6
 179 0010 6846     		mov	r0, sp
 180 0012 FFF7FEFF 		bl	lv_anim_set_var
 181              	.LVL16:
 129:Drivers/lvgl/src/core/lv_obj_tree.c ****     lv_anim_set_duration(&a, 1);
 182              		.loc 1 129 5 view .LVU43
ARM GAS  /var/folders/qx/2_175_4n2s19vhvtspjhb3qh0000gn/T//cc9Gd54N.s 			page 19


 183 0016 0021     		movs	r1, #0
 184 0018 6846     		mov	r0, sp
 185 001a FFF7FEFF 		bl	lv_anim_set_exec_cb
 186              	.LVL17:
 130:Drivers/lvgl/src/core/lv_obj_tree.c ****     lv_anim_set_delay(&a, delay_ms);
 187              		.loc 1 130 5 view .LVU44
 188 001e 0121     		movs	r1, #1
 189 0020 6846     		mov	r0, sp
 190 0022 FFF7FEFF 		bl	lv_anim_set_duration
 191              	.LVL18:
 131:Drivers/lvgl/src/core/lv_obj_tree.c ****     lv_anim_set_completed_cb(&a, lv_obj_delete_anim_completed_cb);
 192              		.loc 1 131 5 view .LVU45
 193 0026 2946     		mov	r1, r5
 194 0028 6846     		mov	r0, sp
 195 002a FFF7FEFF 		bl	lv_anim_set_delay
 196              	.LVL19:
 132:Drivers/lvgl/src/core/lv_obj_tree.c ****     lv_anim_start(&a);
 197              		.loc 1 132 5 view .LVU46
 198 002e 0449     		ldr	r1, .L15
 199 0030 6846     		mov	r0, sp
 200 0032 FFF7FEFF 		bl	lv_anim_set_completed_cb
 201              	.LVL20:
 133:Drivers/lvgl/src/core/lv_obj_tree.c **** }
 202              		.loc 1 133 5 view .LVU47
 203 0036 6846     		mov	r0, sp
 204 0038 FFF7FEFF 		bl	lv_anim_start
 205              	.LVL21:
 134:Drivers/lvgl/src/core/lv_obj_tree.c **** 
 206              		.loc 1 134 1 is_stmt 0 view .LVU48
 207 003c 18B0     		add	sp, sp, #96
 208              	.LCFI3:
 209              		.cfi_def_cfa_offset 16
 210              		@ sp needed
 211 003e 70BD     		pop	{r4, r5, r6, pc}
 212              	.LVL22:
 213              	.L16:
 134:Drivers/lvgl/src/core/lv_obj_tree.c **** 
 214              		.loc 1 134 1 view .LVU49
 215              		.align	2
 216              	.L15:
 217 0040 00000000 		.word	lv_obj_delete_anim_completed_cb
 218              		.cfi_endproc
 219              	.LFE195:
 221              		.section	.text.lv_obj_delete_async,"ax",%progbits
 222              		.align	1
 223              		.global	lv_obj_delete_async
 224              		.syntax unified
 225              		.thumb
 226              		.thumb_func
 228              	lv_obj_delete_async:
 229              	.LVL23:
 230              	.LFB197:
 142:Drivers/lvgl/src/core/lv_obj_tree.c ****     LV_ASSERT_OBJ(obj, MY_CLASS);
 231              		.loc 1 142 1 is_stmt 1 view -0
 232              		.cfi_startproc
 233              		@ args = 0, pretend = 0, frame = 0
 234              		@ frame_needed = 0, uses_anonymous_args = 0
ARM GAS  /var/folders/qx/2_175_4n2s19vhvtspjhb3qh0000gn/T//cc9Gd54N.s 			page 20


 143:Drivers/lvgl/src/core/lv_obj_tree.c ****     lv_async_call(lv_obj_delete_async_cb, obj);
 235              		.loc 1 143 5 view .LVU51
 143:Drivers/lvgl/src/core/lv_obj_tree.c ****     lv_async_call(lv_obj_delete_async_cb, obj);
 236              		.loc 1 143 5 view .LVU52
 237 0000 28B1     		cbz	r0, .L19
 142:Drivers/lvgl/src/core/lv_obj_tree.c ****     LV_ASSERT_OBJ(obj, MY_CLASS);
 238              		.loc 1 142 1 is_stmt 0 view .LVU53
 239 0002 08B5     		push	{r3, lr}
 240              	.LCFI4:
 241              		.cfi_def_cfa_offset 8
 242              		.cfi_offset 3, -8
 243              		.cfi_offset 14, -4
 244 0004 0146     		mov	r1, r0
 143:Drivers/lvgl/src/core/lv_obj_tree.c ****     lv_async_call(lv_obj_delete_async_cb, obj);
 245              		.loc 1 143 5 is_stmt 1 view .LVU54
 143:Drivers/lvgl/src/core/lv_obj_tree.c ****     lv_async_call(lv_obj_delete_async_cb, obj);
 246              		.loc 1 143 33 view .LVU55
 144:Drivers/lvgl/src/core/lv_obj_tree.c **** }
 247              		.loc 1 144 5 view .LVU56
 248 0006 0248     		ldr	r0, .L22
 249              	.LVL24:
 144:Drivers/lvgl/src/core/lv_obj_tree.c **** }
 250              		.loc 1 144 5 is_stmt 0 view .LVU57
 251 0008 FFF7FEFF 		bl	lv_async_call
 252              	.LVL25:
 145:Drivers/lvgl/src/core/lv_obj_tree.c **** 
 253              		.loc 1 145 1 view .LVU58
 254 000c 08BD     		pop	{r3, pc}
 255              	.LVL26:
 256              	.L19:
 257              	.LCFI5:
 258              		.cfi_def_cfa_offset 0
 259              		.cfi_restore 3
 260              		.cfi_restore 14
 143:Drivers/lvgl/src/core/lv_obj_tree.c ****     lv_async_call(lv_obj_delete_async_cb, obj);
 261              		.loc 1 143 5 is_stmt 1 view .LVU59
 143:Drivers/lvgl/src/core/lv_obj_tree.c ****     lv_async_call(lv_obj_delete_async_cb, obj);
 262              		.loc 1 143 5 view .LVU60
 143:Drivers/lvgl/src/core/lv_obj_tree.c ****     lv_async_call(lv_obj_delete_async_cb, obj);
 263              		.loc 1 143 5 view .LVU61
 143:Drivers/lvgl/src/core/lv_obj_tree.c ****     lv_async_call(lv_obj_delete_async_cb, obj);
 264              		.loc 1 143 5 view .LVU62
 143:Drivers/lvgl/src/core/lv_obj_tree.c ****     lv_async_call(lv_obj_delete_async_cb, obj);
 265              		.loc 1 143 5 view .LVU63
 266 000e FEE7     		b	.L19
 267              	.L23:
 268              		.align	2
 269              	.L22:
 270 0010 00000000 		.word	lv_obj_delete_async_cb
 271              		.cfi_endproc
 272              	.LFE197:
 274              		.section	.text.lv_obj_get_parent,"ax",%progbits
 275              		.align	1
 276              		.global	lv_obj_get_parent
 277              		.syntax unified
 278              		.thumb
 279              		.thumb_func
ARM GAS  /var/folders/qx/2_175_4n2s19vhvtspjhb3qh0000gn/T//cc9Gd54N.s 			page 21


 281              	lv_obj_get_parent:
 282              	.LVL27:
 283              	.LFB203:
 328:Drivers/lvgl/src/core/lv_obj_tree.c ****     if(obj == NULL) return NULL;
 284              		.loc 1 328 1 view -0
 285              		.cfi_startproc
 286              		@ args = 0, pretend = 0, frame = 0
 287              		@ frame_needed = 0, uses_anonymous_args = 0
 288              		@ link register save eliminated.
 329:Drivers/lvgl/src/core/lv_obj_tree.c ****     LV_ASSERT_OBJ(obj, MY_CLASS);
 289              		.loc 1 329 5 view .LVU65
 329:Drivers/lvgl/src/core/lv_obj_tree.c ****     LV_ASSERT_OBJ(obj, MY_CLASS);
 290              		.loc 1 329 7 is_stmt 0 view .LVU66
 291 0000 08B1     		cbz	r0, .L26
 330:Drivers/lvgl/src/core/lv_obj_tree.c **** 
 292              		.loc 1 330 5 is_stmt 1 view .LVU67
 330:Drivers/lvgl/src/core/lv_obj_tree.c **** 
 293              		.loc 1 330 5 view .LVU68
 330:Drivers/lvgl/src/core/lv_obj_tree.c **** 
 294              		.loc 1 330 5 view .LVU69
 330:Drivers/lvgl/src/core/lv_obj_tree.c **** 
 295              		.loc 1 330 33 view .LVU70
 332:Drivers/lvgl/src/core/lv_obj_tree.c **** }
 296              		.loc 1 332 5 view .LVU71
 332:Drivers/lvgl/src/core/lv_obj_tree.c **** }
 297              		.loc 1 332 15 is_stmt 0 view .LVU72
 298 0002 4068     		ldr	r0, [r0, #4]
 299              	.LVL28:
 332:Drivers/lvgl/src/core/lv_obj_tree.c **** }
 300              		.loc 1 332 15 view .LVU73
 301 0004 7047     		bx	lr
 302              	.LVL29:
 303              	.L26:
 333:Drivers/lvgl/src/core/lv_obj_tree.c **** 
 304              		.loc 1 333 1 view .LVU74
 305 0006 7047     		bx	lr
 306              		.cfi_endproc
 307              	.LFE203:
 309              		.section	.text.lv_obj_get_screen,"ax",%progbits
 310              		.align	1
 311              		.global	lv_obj_get_screen
 312              		.syntax unified
 313              		.thumb
 314              		.thumb_func
 316              	lv_obj_get_screen:
 317              	.LVL30:
 318              	.LFB201:
 291:Drivers/lvgl/src/core/lv_obj_tree.c ****     LV_ASSERT_OBJ(obj, MY_CLASS);
 319              		.loc 1 291 1 is_stmt 1 view -0
 320              		.cfi_startproc
 321              		@ args = 0, pretend = 0, frame = 0
 322              		@ frame_needed = 0, uses_anonymous_args = 0
 292:Drivers/lvgl/src/core/lv_obj_tree.c **** 
 323              		.loc 1 292 5 view .LVU76
 292:Drivers/lvgl/src/core/lv_obj_tree.c **** 
 324              		.loc 1 292 5 view .LVU77
 325 0000 0346     		mov	r3, r0
ARM GAS  /var/folders/qx/2_175_4n2s19vhvtspjhb3qh0000gn/T//cc9Gd54N.s 			page 22


 326 0002 48B1     		cbz	r0, .L29
 291:Drivers/lvgl/src/core/lv_obj_tree.c ****     LV_ASSERT_OBJ(obj, MY_CLASS);
 327              		.loc 1 291 1 is_stmt 0 view .LVU78
 328 0004 10B5     		push	{r4, lr}
 329              	.LCFI6:
 330              		.cfi_def_cfa_offset 8
 331              		.cfi_offset 4, -8
 332              		.cfi_offset 14, -4
 333              	.LVL31:
 334              	.L28:
 295:Drivers/lvgl/src/core/lv_obj_tree.c **** 
 335              		.loc 1 295 5 is_stmt 1 view .LVU79
 297:Drivers/lvgl/src/core/lv_obj_tree.c ****         act_par = par;
 336              		.loc 1 297 5 view .LVU80
 298:Drivers/lvgl/src/core/lv_obj_tree.c ****         par = lv_obj_get_parent(act_par);
 337              		.loc 1 298 9 view .LVU81
 299:Drivers/lvgl/src/core/lv_obj_tree.c ****     } while(par != NULL);
 338              		.loc 1 299 9 view .LVU82
 339 0006 1C46     		mov	r4, r3
 299:Drivers/lvgl/src/core/lv_obj_tree.c ****     } while(par != NULL);
 340              		.loc 1 299 15 is_stmt 0 view .LVU83
 341 0008 1846     		mov	r0, r3
 342 000a FFF7FEFF 		bl	lv_obj_get_parent
 343              	.LVL32:
 300:Drivers/lvgl/src/core/lv_obj_tree.c **** 
 344              		.loc 1 300 17 is_stmt 1 discriminator 1 view .LVU84
 345 000e 0346     		mov	r3, r0
 346 0010 0028     		cmp	r0, #0
 347 0012 F8D1     		bne	.L28
 302:Drivers/lvgl/src/core/lv_obj_tree.c **** }
 348              		.loc 1 302 5 view .LVU85
 303:Drivers/lvgl/src/core/lv_obj_tree.c **** 
 349              		.loc 1 303 1 is_stmt 0 view .LVU86
 350 0014 2046     		mov	r0, r4
 351              	.LVL33:
 303:Drivers/lvgl/src/core/lv_obj_tree.c **** 
 352              		.loc 1 303 1 view .LVU87
 353 0016 10BD     		pop	{r4, pc}
 354              	.LVL34:
 355              	.L29:
 356              	.LCFI7:
 357              		.cfi_def_cfa_offset 0
 358              		.cfi_restore 4
 359              		.cfi_restore 14
 292:Drivers/lvgl/src/core/lv_obj_tree.c **** 
 360              		.loc 1 292 5 is_stmt 1 view .LVU88
 292:Drivers/lvgl/src/core/lv_obj_tree.c **** 
 361              		.loc 1 292 5 view .LVU89
 292:Drivers/lvgl/src/core/lv_obj_tree.c **** 
 362              		.loc 1 292 5 view .LVU90
 292:Drivers/lvgl/src/core/lv_obj_tree.c **** 
 363              		.loc 1 292 5 view .LVU91
 292:Drivers/lvgl/src/core/lv_obj_tree.c **** 
 364              		.loc 1 292 5 view .LVU92
 365 0018 FEE7     		b	.L29
 366              		.cfi_endproc
 367              	.LFE201:
ARM GAS  /var/folders/qx/2_175_4n2s19vhvtspjhb3qh0000gn/T//cc9Gd54N.s 			page 23


 369              		.section	.text.lv_obj_get_display,"ax",%progbits
 370              		.align	1
 371              		.global	lv_obj_get_display
 372              		.syntax unified
 373              		.thumb
 374              		.thumb_func
 376              	lv_obj_get_display:
 377              	.LVL35:
 378              	.LFB202:
 306:Drivers/lvgl/src/core/lv_obj_tree.c ****     LV_ASSERT_OBJ(obj, MY_CLASS);
 379              		.loc 1 306 1 view -0
 380              		.cfi_startproc
 381              		@ args = 0, pretend = 0, frame = 0
 382              		@ frame_needed = 0, uses_anonymous_args = 0
 307:Drivers/lvgl/src/core/lv_obj_tree.c **** 
 383              		.loc 1 307 5 view .LVU94
 307:Drivers/lvgl/src/core/lv_obj_tree.c **** 
 384              		.loc 1 307 5 view .LVU95
 385 0000 B8B1     		cbz	r0, .L34
 306:Drivers/lvgl/src/core/lv_obj_tree.c ****     LV_ASSERT_OBJ(obj, MY_CLASS);
 386              		.loc 1 306 1 is_stmt 0 view .LVU96
 387 0002 10B5     		push	{r4, lr}
 388              	.LCFI8:
 389              		.cfi_def_cfa_offset 8
 390              		.cfi_offset 4, -8
 391              		.cfi_offset 14, -4
 392 0004 0446     		mov	r4, r0
 307:Drivers/lvgl/src/core/lv_obj_tree.c **** 
 393              		.loc 1 307 5 is_stmt 1 view .LVU97
 307:Drivers/lvgl/src/core/lv_obj_tree.c **** 
 394              		.loc 1 307 33 view .LVU98
 309:Drivers/lvgl/src/core/lv_obj_tree.c **** 
 395              		.loc 1 309 5 view .LVU99
 311:Drivers/lvgl/src/core/lv_obj_tree.c ****     else scr = lv_obj_get_screen(obj);  /*get the screen of `obj`*/
 396              		.loc 1 311 5 view .LVU100
 311:Drivers/lvgl/src/core/lv_obj_tree.c ****     else scr = lv_obj_get_screen(obj);  /*get the screen of `obj`*/
 397              		.loc 1 311 11 is_stmt 0 view .LVU101
 398 0006 4368     		ldr	r3, [r0, #4]
 311:Drivers/lvgl/src/core/lv_obj_tree.c ****     else scr = lv_obj_get_screen(obj);  /*get the screen of `obj`*/
 399              		.loc 1 311 7 view .LVU102
 400 0008 13B1     		cbz	r3, .L35
 312:Drivers/lvgl/src/core/lv_obj_tree.c **** 
 401              		.loc 1 312 10 is_stmt 1 view .LVU103
 312:Drivers/lvgl/src/core/lv_obj_tree.c **** 
 402              		.loc 1 312 16 is_stmt 0 view .LVU104
 403 000a FFF7FEFF 		bl	lv_obj_get_screen
 404              	.LVL36:
 312:Drivers/lvgl/src/core/lv_obj_tree.c **** 
 405              		.loc 1 312 16 view .LVU105
 406 000e 0446     		mov	r4, r0
 407              	.LVL37:
 408              	.L35:
 314:Drivers/lvgl/src/core/lv_obj_tree.c ****     lv_ll_t * disp_head = disp_ll_p;
 409              		.loc 1 314 5 is_stmt 1 view .LVU106
 315:Drivers/lvgl/src/core/lv_obj_tree.c ****     LV_LL_READ(disp_head, d) {
 410              		.loc 1 315 5 view .LVU107
 316:Drivers/lvgl/src/core/lv_obj_tree.c ****         uint32_t i;
ARM GAS  /var/folders/qx/2_175_4n2s19vhvtspjhb3qh0000gn/T//cc9Gd54N.s 			page 24


 411              		.loc 1 316 5 view .LVU108
 412 0010 0B48     		ldr	r0, .L44
 413              	.LVL38:
 316:Drivers/lvgl/src/core/lv_obj_tree.c ****         uint32_t i;
 414              		.loc 1 316 5 is_stmt 0 view .LVU109
 415 0012 FFF7FEFF 		bl	lv_ll_get_head
 416              	.LVL39:
 417              	.L36:
 316:Drivers/lvgl/src/core/lv_obj_tree.c ****         uint32_t i;
 418              		.loc 1 316 5 is_stmt 1 discriminator 1 view .LVU110
 419 0016 90B1     		cbz	r0, .L32
 420              	.LBB2:
 318:Drivers/lvgl/src/core/lv_obj_tree.c ****             if(d->screens[i] == scr) return d;
 421              		.loc 1 318 15 is_stmt 0 view .LVU111
 422 0018 0023     		movs	r3, #0
 423              	.L39:
 424              	.LVL40:
 318:Drivers/lvgl/src/core/lv_obj_tree.c ****             if(d->screens[i] == scr) return d;
 425              		.loc 1 318 22 is_stmt 1 discriminator 1 view .LVU112
 318:Drivers/lvgl/src/core/lv_obj_tree.c ****             if(d->screens[i] == scr) return d;
 426              		.loc 1 318 25 is_stmt 0 discriminator 1 view .LVU113
 427 001a D0F8D822 		ldr	r2, [r0, #728]
 318:Drivers/lvgl/src/core/lv_obj_tree.c ****             if(d->screens[i] == scr) return d;
 428              		.loc 1 318 22 discriminator 1 view .LVU114
 429 001e 9A42     		cmp	r2, r3
 430 0020 08D9     		bls	.L43
 319:Drivers/lvgl/src/core/lv_obj_tree.c ****         }
 431              		.loc 1 319 13 is_stmt 1 view .LVU115
 319:Drivers/lvgl/src/core/lv_obj_tree.c ****         }
 432              		.loc 1 319 17 is_stmt 0 view .LVU116
 433 0022 D0F8BC22 		ldr	r2, [r0, #700]
 319:Drivers/lvgl/src/core/lv_obj_tree.c ****         }
 434              		.loc 1 319 26 view .LVU117
 435 0026 52F82320 		ldr	r2, [r2, r3, lsl #2]
 319:Drivers/lvgl/src/core/lv_obj_tree.c ****         }
 436              		.loc 1 319 15 view .LVU118
 437 002a A242     		cmp	r2, r4
 438 002c 07D0     		beq	.L32
 318:Drivers/lvgl/src/core/lv_obj_tree.c ****             if(d->screens[i] == scr) return d;
 439              		.loc 1 318 40 is_stmt 1 discriminator 2 view .LVU119
 440 002e 0133     		adds	r3, r3, #1
 441              	.LVL41:
 318:Drivers/lvgl/src/core/lv_obj_tree.c ****             if(d->screens[i] == scr) return d;
 442              		.loc 1 318 40 is_stmt 0 discriminator 2 view .LVU120
 443 0030 F3E7     		b	.L39
 444              	.LVL42:
 445              	.L34:
 446              	.LCFI9:
 447              		.cfi_def_cfa_offset 0
 448              		.cfi_restore 4
 449              		.cfi_restore 14
 318:Drivers/lvgl/src/core/lv_obj_tree.c ****             if(d->screens[i] == scr) return d;
 450              		.loc 1 318 40 discriminator 2 view .LVU121
 451              	.LBE2:
 307:Drivers/lvgl/src/core/lv_obj_tree.c **** 
 452              		.loc 1 307 5 is_stmt 1 view .LVU122
 307:Drivers/lvgl/src/core/lv_obj_tree.c **** 
ARM GAS  /var/folders/qx/2_175_4n2s19vhvtspjhb3qh0000gn/T//cc9Gd54N.s 			page 25


 453              		.loc 1 307 5 view .LVU123
 307:Drivers/lvgl/src/core/lv_obj_tree.c **** 
 454              		.loc 1 307 5 view .LVU124
 307:Drivers/lvgl/src/core/lv_obj_tree.c **** 
 455              		.loc 1 307 5 view .LVU125
 307:Drivers/lvgl/src/core/lv_obj_tree.c **** 
 456              		.loc 1 307 5 view .LVU126
 457 0032 FEE7     		b	.L34
 458              	.LVL43:
 459              	.L43:
 460              	.LCFI10:
 461              		.cfi_def_cfa_offset 8
 462              		.cfi_offset 4, -8
 463              		.cfi_offset 14, -4
 316:Drivers/lvgl/src/core/lv_obj_tree.c ****         uint32_t i;
 464              		.loc 1 316 5 discriminator 2 view .LVU127
 465 0034 0146     		mov	r1, r0
 466 0036 0248     		ldr	r0, .L44
 467              	.LVL44:
 316:Drivers/lvgl/src/core/lv_obj_tree.c ****         uint32_t i;
 468              		.loc 1 316 5 is_stmt 0 discriminator 2 view .LVU128
 469 0038 FFF7FEFF 		bl	lv_ll_get_next
 470              	.LVL45:
 316:Drivers/lvgl/src/core/lv_obj_tree.c ****         uint32_t i;
 471              		.loc 1 316 5 discriminator 2 view .LVU129
 472 003c EBE7     		b	.L36
 473              	.LVL46:
 474              	.L32:
 325:Drivers/lvgl/src/core/lv_obj_tree.c **** 
 475              		.loc 1 325 1 view .LVU130
 476 003e 10BD     		pop	{r4, pc}
 477              	.LVL47:
 478              	.L45:
 325:Drivers/lvgl/src/core/lv_obj_tree.c **** 
 479              		.loc 1 325 1 view .LVU131
 480              		.align	2
 481              	.L44:
 482 0040 08000000 		.word	lv_global+8
 483              		.cfi_endproc
 484              	.LFE202:
 486              		.section	.text.lv_obj_get_child,"ax",%progbits
 487              		.align	1
 488              		.global	lv_obj_get_child
 489              		.syntax unified
 490              		.thumb
 491              		.thumb_func
 493              	lv_obj_get_child:
 494              	.LVL48:
 495              	.LFB204:
 336:Drivers/lvgl/src/core/lv_obj_tree.c ****     LV_ASSERT_OBJ(obj, MY_CLASS);
 496              		.loc 1 336 1 is_stmt 1 view -0
 497              		.cfi_startproc
 498              		@ args = 0, pretend = 0, frame = 0
 499              		@ frame_needed = 0, uses_anonymous_args = 0
 500              		@ link register save eliminated.
 337:Drivers/lvgl/src/core/lv_obj_tree.c **** 
 501              		.loc 1 337 5 view .LVU133
ARM GAS  /var/folders/qx/2_175_4n2s19vhvtspjhb3qh0000gn/T//cc9Gd54N.s 			page 26


 337:Drivers/lvgl/src/core/lv_obj_tree.c **** 
 502              		.loc 1 337 5 view .LVU134
 503 0000 58B1     		cbz	r0, .L48
 337:Drivers/lvgl/src/core/lv_obj_tree.c **** 
 504              		.loc 1 337 5 view .LVU135
 337:Drivers/lvgl/src/core/lv_obj_tree.c **** 
 505              		.loc 1 337 33 view .LVU136
 339:Drivers/lvgl/src/core/lv_obj_tree.c **** 
 506              		.loc 1 339 5 view .LVU137
 339:Drivers/lvgl/src/core/lv_obj_tree.c **** 
 507              		.loc 1 339 11 is_stmt 0 view .LVU138
 508 0002 8068     		ldr	r0, [r0, #8]
 509              	.LVL49:
 339:Drivers/lvgl/src/core/lv_obj_tree.c **** 
 510              		.loc 1 339 7 view .LVU139
 511 0004 90B1     		cbz	r0, .L46
 341:Drivers/lvgl/src/core/lv_obj_tree.c ****     if(idx < 0) {
 512              		.loc 1 341 5 is_stmt 1 view .LVU140
 342:Drivers/lvgl/src/core/lv_obj_tree.c ****         idx = obj->spec_attr->child_cnt + idx;
 513              		.loc 1 342 5 view .LVU141
 342:Drivers/lvgl/src/core/lv_obj_tree.c ****         idx = obj->spec_attr->child_cnt + idx;
 514              		.loc 1 342 7 is_stmt 0 view .LVU142
 515 0006 0029     		cmp	r1, #0
 516 0008 08DB     		blt	.L54
 348:Drivers/lvgl/src/core/lv_obj_tree.c ****     }
 517              		.loc 1 348 9 is_stmt 1 view .LVU143
 348:Drivers/lvgl/src/core/lv_obj_tree.c ****     }
 518              		.loc 1 348 13 is_stmt 0 view .LVU144
 519 000a 0A46     		mov	r2, r1
 520              	.LVL50:
 521              	.L51:
 351:Drivers/lvgl/src/core/lv_obj_tree.c ****     else return obj->spec_attr->children[idx];
 522              		.loc 1 351 5 is_stmt 1 view .LVU145
 351:Drivers/lvgl/src/core/lv_obj_tree.c ****     else return obj->spec_attr->children[idx];
 523              		.loc 1 351 29 is_stmt 0 view .LVU146
 524 000c 038E     		ldrh	r3, [r0, #48]
 351:Drivers/lvgl/src/core/lv_obj_tree.c ****     else return obj->spec_attr->children[idx];
 525              		.loc 1 351 7 view .LVU147
 526 000e 9342     		cmp	r3, r2
 527 0010 0BD9     		bls	.L53
 352:Drivers/lvgl/src/core/lv_obj_tree.c **** }
 528              		.loc 1 352 10 is_stmt 1 view .LVU148
 352:Drivers/lvgl/src/core/lv_obj_tree.c **** }
 529              		.loc 1 352 31 is_stmt 0 view .LVU149
 530 0012 0368     		ldr	r3, [r0]
 352:Drivers/lvgl/src/core/lv_obj_tree.c **** }
 531              		.loc 1 352 41 view .LVU150
 532 0014 53F82100 		ldr	r0, [r3, r1, lsl #2]
 533 0018 7047     		bx	lr
 534              	.LVL51:
 535              	.L48:
 337:Drivers/lvgl/src/core/lv_obj_tree.c **** 
 536              		.loc 1 337 5 is_stmt 1 view .LVU151
 337:Drivers/lvgl/src/core/lv_obj_tree.c **** 
 537              		.loc 1 337 5 view .LVU152
 337:Drivers/lvgl/src/core/lv_obj_tree.c **** 
 538              		.loc 1 337 5 view .LVU153
ARM GAS  /var/folders/qx/2_175_4n2s19vhvtspjhb3qh0000gn/T//cc9Gd54N.s 			page 27


 337:Drivers/lvgl/src/core/lv_obj_tree.c **** 
 539              		.loc 1 337 5 view .LVU154
 337:Drivers/lvgl/src/core/lv_obj_tree.c **** 
 540              		.loc 1 337 5 view .LVU155
 541 001a FEE7     		b	.L48
 542              	.LVL52:
 543              	.L54:
 343:Drivers/lvgl/src/core/lv_obj_tree.c ****         if(idx < 0) return NULL;
 544              		.loc 1 343 9 view .LVU156
 343:Drivers/lvgl/src/core/lv_obj_tree.c ****         if(idx < 0) return NULL;
 545              		.loc 1 343 29 is_stmt 0 view .LVU157
 546 001c 038E     		ldrh	r3, [r0, #48]
 547              	.LVL53:
 344:Drivers/lvgl/src/core/lv_obj_tree.c ****         idu = (uint32_t) idx;
 548              		.loc 1 344 9 is_stmt 1 view .LVU158
 344:Drivers/lvgl/src/core/lv_obj_tree.c ****         idu = (uint32_t) idx;
 549              		.loc 1 344 11 is_stmt 0 view .LVU159
 550 001e C918     		adds	r1, r1, r3
 551              	.LVL54:
 344:Drivers/lvgl/src/core/lv_obj_tree.c ****         idu = (uint32_t) idx;
 552              		.loc 1 344 11 view .LVU160
 553 0020 01D4     		bmi	.L52
 345:Drivers/lvgl/src/core/lv_obj_tree.c ****     }
 554              		.loc 1 345 9 is_stmt 1 view .LVU161
 345:Drivers/lvgl/src/core/lv_obj_tree.c ****     }
 555              		.loc 1 345 13 is_stmt 0 view .LVU162
 556 0022 0A46     		mov	r2, r1
 557              	.LVL55:
 345:Drivers/lvgl/src/core/lv_obj_tree.c ****     }
 558              		.loc 1 345 13 view .LVU163
 559 0024 F2E7     		b	.L51
 560              	.LVL56:
 561              	.L52:
 344:Drivers/lvgl/src/core/lv_obj_tree.c ****         idu = (uint32_t) idx;
 562              		.loc 1 344 28 discriminator 1 view .LVU164
 563 0026 0020     		movs	r0, #0
 564 0028 7047     		bx	lr
 565              	.LVL57:
 566              	.L53:
 351:Drivers/lvgl/src/core/lv_obj_tree.c ****     else return obj->spec_attr->children[idx];
 567              		.loc 1 351 49 discriminator 1 view .LVU165
 568 002a 0020     		movs	r0, #0
 569              	.LVL58:
 570              	.L46:
 353:Drivers/lvgl/src/core/lv_obj_tree.c **** 
 571              		.loc 1 353 1 view .LVU166
 572 002c 7047     		bx	lr
 573              		.cfi_endproc
 574              	.LFE204:
 576              		.section	.text.dump_tree_core,"ax",%progbits
 577              		.align	1
 578              		.syntax unified
 579              		.thumb
 580              		.thumb_func
 582              	dump_tree_core:
 583              	.LVL59:
 584              	.LFB218:
ARM GAS  /var/folders/qx/2_175_4n2s19vhvtspjhb3qh0000gn/T//cc9Gd54N.s 			page 28


 788:Drivers/lvgl/src/core/lv_obj_tree.c **** #if LV_USE_LOG
 585              		.loc 1 788 1 is_stmt 1 view -0
 586              		.cfi_startproc
 587              		@ args = 0, pretend = 0, frame = 0
 588              		@ frame_needed = 0, uses_anonymous_args = 0
 804:Drivers/lvgl/src/core/lv_obj_tree.c ****         for(uint32_t i = 0; i < obj->spec_attr->child_cnt; i++) {
 589              		.loc 1 804 5 view .LVU168
 804:Drivers/lvgl/src/core/lv_obj_tree.c ****         for(uint32_t i = 0; i < obj->spec_attr->child_cnt; i++) {
 590              		.loc 1 804 7 is_stmt 0 view .LVU169
 591 0000 B0B1     		cbz	r0, .L61
 788:Drivers/lvgl/src/core/lv_obj_tree.c **** #if LV_USE_LOG
 592              		.loc 1 788 1 view .LVU170
 593 0002 70B5     		push	{r4, r5, r6, lr}
 594              	.LCFI11:
 595              		.cfi_def_cfa_offset 16
 596              		.cfi_offset 4, -16
 597              		.cfi_offset 5, -12
 598              		.cfi_offset 6, -8
 599              		.cfi_offset 14, -4
 600 0004 0D46     		mov	r5, r1
 601 0006 0646     		mov	r6, r0
 804:Drivers/lvgl/src/core/lv_obj_tree.c ****         for(uint32_t i = 0; i < obj->spec_attr->child_cnt; i++) {
 602              		.loc 1 804 18 discriminator 1 view .LVU171
 603 0008 8368     		ldr	r3, [r0, #8]
 804:Drivers/lvgl/src/core/lv_obj_tree.c ****         for(uint32_t i = 0; i < obj->spec_attr->child_cnt; i++) {
 604              		.loc 1 804 12 discriminator 1 view .LVU172
 605 000a 0BB1     		cbz	r3, .L55
 804:Drivers/lvgl/src/core/lv_obj_tree.c ****         for(uint32_t i = 0; i < obj->spec_attr->child_cnt; i++) {
 606              		.loc 1 804 47 discriminator 2 view .LVU173
 607 000c 1B8E     		ldrh	r3, [r3, #48]
 804:Drivers/lvgl/src/core/lv_obj_tree.c ****         for(uint32_t i = 0; i < obj->spec_attr->child_cnt; i++) {
 608              		.loc 1 804 30 discriminator 2 view .LVU174
 609 000e 6BB9     		cbnz	r3, .L59
 610              	.LVL60:
 611              	.L55:
 809:Drivers/lvgl/src/core/lv_obj_tree.c **** 
 612              		.loc 1 809 1 view .LVU175
 613 0010 70BD     		pop	{r4, r5, r6, pc}
 614              	.LVL61:
 615              	.L58:
 616              	.LBB3:
 806:Drivers/lvgl/src/core/lv_obj_tree.c ****         }
 617              		.loc 1 806 13 is_stmt 1 view .LVU176
 618 0012 2146     		mov	r1, r4
 619 0014 3046     		mov	r0, r6
 620 0016 FFF7FEFF 		bl	lv_obj_get_child
 621              	.LVL62:
 806:Drivers/lvgl/src/core/lv_obj_tree.c ****         }
 622              		.loc 1 806 13 is_stmt 0 discriminator 1 view .LVU177
 623 001a 691C     		adds	r1, r5, #1
 624 001c FFF7F0FF 		bl	dump_tree_core
 625              	.LVL63:
 805:Drivers/lvgl/src/core/lv_obj_tree.c ****             dump_tree_core(lv_obj_get_child(obj, i), depth + 1);
 626              		.loc 1 805 61 is_stmt 1 discriminator 3 view .LVU178
 627 0020 0134     		adds	r4, r4, #1
 628              	.LVL64:
 629              	.L57:
ARM GAS  /var/folders/qx/2_175_4n2s19vhvtspjhb3qh0000gn/T//cc9Gd54N.s 			page 29


 805:Drivers/lvgl/src/core/lv_obj_tree.c ****             dump_tree_core(lv_obj_get_child(obj, i), depth + 1);
 630              		.loc 1 805 31 discriminator 1 view .LVU179
 805:Drivers/lvgl/src/core/lv_obj_tree.c ****             dump_tree_core(lv_obj_get_child(obj, i), depth + 1);
 631              		.loc 1 805 36 is_stmt 0 discriminator 1 view .LVU180
 632 0022 B368     		ldr	r3, [r6, #8]
 805:Drivers/lvgl/src/core/lv_obj_tree.c ****             dump_tree_core(lv_obj_get_child(obj, i), depth + 1);
 633              		.loc 1 805 47 discriminator 1 view .LVU181
 634 0024 1B8E     		ldrh	r3, [r3, #48]
 805:Drivers/lvgl/src/core/lv_obj_tree.c ****             dump_tree_core(lv_obj_get_child(obj, i), depth + 1);
 635              		.loc 1 805 31 discriminator 1 view .LVU182
 636 0026 A342     		cmp	r3, r4
 637 0028 F3D8     		bhi	.L58
 638 002a F1E7     		b	.L55
 639              	.LVL65:
 640              	.L59:
 805:Drivers/lvgl/src/core/lv_obj_tree.c ****             dump_tree_core(lv_obj_get_child(obj, i), depth + 1);
 641              		.loc 1 805 22 view .LVU183
 642 002c 0024     		movs	r4, #0
 643 002e F8E7     		b	.L57
 644              	.L61:
 645              	.LCFI12:
 646              		.cfi_def_cfa_offset 0
 647              		.cfi_restore 4
 648              		.cfi_restore 5
 649              		.cfi_restore 6
 650              		.cfi_restore 14
 805:Drivers/lvgl/src/core/lv_obj_tree.c ****             dump_tree_core(lv_obj_get_child(obj, i), depth + 1);
 651              		.loc 1 805 22 view .LVU184
 652 0030 7047     		bx	lr
 653              	.LBE3:
 654              		.cfi_endproc
 655              	.LFE218:
 657              		.section	.text.lv_obj_get_child_by_type,"ax",%progbits
 658              		.align	1
 659              		.global	lv_obj_get_child_by_type
 660              		.syntax unified
 661              		.thumb
 662              		.thumb_func
 664              	lv_obj_get_child_by_type:
 665              	.LVL66:
 666              	.LFB205:
 356:Drivers/lvgl/src/core/lv_obj_tree.c ****     LV_ASSERT_OBJ(obj, MY_CLASS);
 667              		.loc 1 356 1 is_stmt 1 view -0
 668              		.cfi_startproc
 669              		@ args = 0, pretend = 0, frame = 0
 670              		@ frame_needed = 0, uses_anonymous_args = 0
 671              		@ link register save eliminated.
 357:Drivers/lvgl/src/core/lv_obj_tree.c **** 
 672              		.loc 1 357 5 view .LVU186
 357:Drivers/lvgl/src/core/lv_obj_tree.c **** 
 673              		.loc 1 357 5 view .LVU187
 674 0000 40B1     		cbz	r0, .L66
 356:Drivers/lvgl/src/core/lv_obj_tree.c ****     LV_ASSERT_OBJ(obj, MY_CLASS);
 675              		.loc 1 356 1 is_stmt 0 view .LVU188
 676 0002 30B4     		push	{r4, r5}
 677              	.LCFI13:
 678              		.cfi_def_cfa_offset 8
ARM GAS  /var/folders/qx/2_175_4n2s19vhvtspjhb3qh0000gn/T//cc9Gd54N.s 			page 30


 679              		.cfi_offset 4, -8
 680              		.cfi_offset 5, -4
 357:Drivers/lvgl/src/core/lv_obj_tree.c **** 
 681              		.loc 1 357 5 is_stmt 1 view .LVU189
 357:Drivers/lvgl/src/core/lv_obj_tree.c **** 
 682              		.loc 1 357 33 view .LVU190
 359:Drivers/lvgl/src/core/lv_obj_tree.c **** 
 683              		.loc 1 359 5 view .LVU191
 359:Drivers/lvgl/src/core/lv_obj_tree.c **** 
 684              		.loc 1 359 11 is_stmt 0 view .LVU192
 685 0004 8468     		ldr	r4, [r0, #8]
 359:Drivers/lvgl/src/core/lv_obj_tree.c **** 
 686              		.loc 1 359 7 view .LVU193
 687 0006 44B3     		cbz	r4, .L75
 361:Drivers/lvgl/src/core/lv_obj_tree.c ****     int32_t cnt = (int32_t)obj->spec_attr->child_cnt;
 688              		.loc 1 361 5 is_stmt 1 view .LVU194
 362:Drivers/lvgl/src/core/lv_obj_tree.c ****     if(idx >= 0) {
 689              		.loc 1 362 5 view .LVU195
 362:Drivers/lvgl/src/core/lv_obj_tree.c ****     if(idx >= 0) {
 690              		.loc 1 362 42 is_stmt 0 view .LVU196
 691 0008 B4F830C0 		ldrh	ip, [r4, #48]
 692              	.LVL67:
 363:Drivers/lvgl/src/core/lv_obj_tree.c ****         for(i = 0; i < cnt; i++) {
 693              		.loc 1 363 5 is_stmt 1 view .LVU197
 363:Drivers/lvgl/src/core/lv_obj_tree.c ****         for(i = 0; i < cnt; i++) {
 694              		.loc 1 363 7 is_stmt 0 view .LVU198
 695 000c 0029     		cmp	r1, #0
 696 000e 11DB     		blt	.L80
 364:Drivers/lvgl/src/core/lv_obj_tree.c ****             if(obj->spec_attr->children[i]->class_p == class_p) {
 697              		.loc 1 364 15 view .LVU199
 698 0010 0023     		movs	r3, #0
 699 0012 01E0     		b	.L68
 700              	.LVL68:
 701              	.L66:
 702              	.LCFI14:
 703              		.cfi_def_cfa_offset 0
 704              		.cfi_restore 4
 705              		.cfi_restore 5
 357:Drivers/lvgl/src/core/lv_obj_tree.c **** 
 706              		.loc 1 357 5 is_stmt 1 view .LVU200
 357:Drivers/lvgl/src/core/lv_obj_tree.c **** 
 707              		.loc 1 357 5 view .LVU201
 357:Drivers/lvgl/src/core/lv_obj_tree.c **** 
 708              		.loc 1 357 5 view .LVU202
 357:Drivers/lvgl/src/core/lv_obj_tree.c **** 
 709              		.loc 1 357 5 view .LVU203
 357:Drivers/lvgl/src/core/lv_obj_tree.c **** 
 710              		.loc 1 357 5 view .LVU204
 711 0014 FEE7     		b	.L66
 712              	.LVL69:
 713              	.L70:
 714              	.LCFI15:
 715              		.cfi_def_cfa_offset 8
 716              		.cfi_offset 4, -8
 717              		.cfi_offset 5, -4
 364:Drivers/lvgl/src/core/lv_obj_tree.c ****             if(obj->spec_attr->children[i]->class_p == class_p) {
 718              		.loc 1 364 30 discriminator 2 view .LVU205
ARM GAS  /var/folders/qx/2_175_4n2s19vhvtspjhb3qh0000gn/T//cc9Gd54N.s 			page 31


 719 0016 0133     		adds	r3, r3, #1
 720              	.LVL70:
 721              	.L68:
 364:Drivers/lvgl/src/core/lv_obj_tree.c ****             if(obj->spec_attr->children[i]->class_p == class_p) {
 722              		.loc 1 364 22 discriminator 1 view .LVU206
 723 0018 6345     		cmp	r3, ip
 724 001a 08DA     		bge	.L81
 365:Drivers/lvgl/src/core/lv_obj_tree.c ****                 if(idx == 0) return obj->spec_attr->children[i];
 725              		.loc 1 365 13 view .LVU207
 365:Drivers/lvgl/src/core/lv_obj_tree.c ****                 if(idx == 0) return obj->spec_attr->children[i];
 726              		.loc 1 365 30 is_stmt 0 view .LVU208
 727 001c 2068     		ldr	r0, [r4]
 365:Drivers/lvgl/src/core/lv_obj_tree.c ****                 if(idx == 0) return obj->spec_attr->children[i];
 728              		.loc 1 365 40 view .LVU209
 729 001e 50F82300 		ldr	r0, [r0, r3, lsl #2]
 365:Drivers/lvgl/src/core/lv_obj_tree.c ****                 if(idx == 0) return obj->spec_attr->children[i];
 730              		.loc 1 365 15 view .LVU210
 731 0022 0568     		ldr	r5, [r0]
 732 0024 9542     		cmp	r5, r2
 733 0026 F6D1     		bne	.L70
 366:Drivers/lvgl/src/core/lv_obj_tree.c ****                 else idx--;
 734              		.loc 1 366 17 is_stmt 1 view .LVU211
 366:Drivers/lvgl/src/core/lv_obj_tree.c ****                 else idx--;
 735              		.loc 1 366 19 is_stmt 0 view .LVU212
 736 0028 11B1     		cbz	r1, .L64
 367:Drivers/lvgl/src/core/lv_obj_tree.c ****             }
 737              		.loc 1 367 22 is_stmt 1 view .LVU213
 367:Drivers/lvgl/src/core/lv_obj_tree.c ****             }
 738              		.loc 1 367 25 is_stmt 0 view .LVU214
 739 002a 0139     		subs	r1, r1, #1
 740              	.LVL71:
 367:Drivers/lvgl/src/core/lv_obj_tree.c ****             }
 741              		.loc 1 367 25 view .LVU215
 742 002c F3E7     		b	.L70
 743              	.LVL72:
 744              	.L81:
 380:Drivers/lvgl/src/core/lv_obj_tree.c **** }
 745              		.loc 1 380 12 view .LVU216
 746 002e 0020     		movs	r0, #0
 747              	.LVL73:
 748              	.L64:
 381:Drivers/lvgl/src/core/lv_obj_tree.c **** 
 749              		.loc 1 381 1 view .LVU217
 750 0030 30BC     		pop	{r4, r5}
 751              	.LCFI16:
 752              		.cfi_remember_state
 753              		.cfi_restore 5
 754              		.cfi_restore 4
 755              		.cfi_def_cfa_offset 0
 756 0032 7047     		bx	lr
 757              	.LVL74:
 758              	.L80:
 759              	.LCFI17:
 760              		.cfi_restore_state
 372:Drivers/lvgl/src/core/lv_obj_tree.c ****         for(i = cnt - 1; i >= 0; i--) {
 761              		.loc 1 372 9 is_stmt 1 view .LVU218
 372:Drivers/lvgl/src/core/lv_obj_tree.c ****         for(i = cnt - 1; i >= 0; i--) {
ARM GAS  /var/folders/qx/2_175_4n2s19vhvtspjhb3qh0000gn/T//cc9Gd54N.s 			page 32


 762              		.loc 1 372 12 is_stmt 0 view .LVU219
 763 0034 0131     		adds	r1, r1, #1
 764              	.LVL75:
 373:Drivers/lvgl/src/core/lv_obj_tree.c ****             if(obj->spec_attr->children[i]->class_p == class_p) {
 765              		.loc 1 373 9 is_stmt 1 view .LVU220
 373:Drivers/lvgl/src/core/lv_obj_tree.c ****             if(obj->spec_attr->children[i]->class_p == class_p) {
 766              		.loc 1 373 15 is_stmt 0 view .LVU221
 767 0036 0CF1FF33 		add	r3, ip, #-1
 768              	.LVL76:
 373:Drivers/lvgl/src/core/lv_obj_tree.c ****             if(obj->spec_attr->children[i]->class_p == class_p) {
 769              		.loc 1 373 9 view .LVU222
 770 003a 00E0     		b	.L72
 771              	.LVL77:
 772              	.L73:
 373:Drivers/lvgl/src/core/lv_obj_tree.c ****             if(obj->spec_attr->children[i]->class_p == class_p) {
 773              		.loc 1 373 35 is_stmt 1 discriminator 2 view .LVU223
 774 003c 013B     		subs	r3, r3, #1
 775              	.LVL78:
 776              	.L72:
 373:Drivers/lvgl/src/core/lv_obj_tree.c ****             if(obj->spec_attr->children[i]->class_p == class_p) {
 777              		.loc 1 373 28 discriminator 1 view .LVU224
 778 003e 002B     		cmp	r3, #0
 779 0040 09DB     		blt	.L82
 374:Drivers/lvgl/src/core/lv_obj_tree.c ****                 if(idx == 0) return obj->spec_attr->children[i];
 780              		.loc 1 374 13 view .LVU225
 374:Drivers/lvgl/src/core/lv_obj_tree.c ****                 if(idx == 0) return obj->spec_attr->children[i];
 781              		.loc 1 374 30 is_stmt 0 view .LVU226
 782 0042 2068     		ldr	r0, [r4]
 374:Drivers/lvgl/src/core/lv_obj_tree.c ****                 if(idx == 0) return obj->spec_attr->children[i];
 783              		.loc 1 374 40 view .LVU227
 784 0044 50F82300 		ldr	r0, [r0, r3, lsl #2]
 374:Drivers/lvgl/src/core/lv_obj_tree.c ****                 if(idx == 0) return obj->spec_attr->children[i];
 785              		.loc 1 374 15 view .LVU228
 786 0048 0568     		ldr	r5, [r0]
 787 004a 9542     		cmp	r5, r2
 788 004c F6D1     		bne	.L73
 375:Drivers/lvgl/src/core/lv_obj_tree.c ****                 else idx++;
 789              		.loc 1 375 17 is_stmt 1 view .LVU229
 375:Drivers/lvgl/src/core/lv_obj_tree.c ****                 else idx++;
 790              		.loc 1 375 19 is_stmt 0 view .LVU230
 791 004e 0029     		cmp	r1, #0
 792 0050 EED0     		beq	.L64
 376:Drivers/lvgl/src/core/lv_obj_tree.c ****             }
 793              		.loc 1 376 22 is_stmt 1 view .LVU231
 376:Drivers/lvgl/src/core/lv_obj_tree.c ****             }
 794              		.loc 1 376 25 is_stmt 0 view .LVU232
 795 0052 0131     		adds	r1, r1, #1
 796              	.LVL79:
 376:Drivers/lvgl/src/core/lv_obj_tree.c ****             }
 797              		.loc 1 376 25 view .LVU233
 798 0054 F2E7     		b	.L73
 799              	.LVL80:
 800              	.L82:
 380:Drivers/lvgl/src/core/lv_obj_tree.c **** }
 801              		.loc 1 380 12 view .LVU234
 802 0056 0020     		movs	r0, #0
 803 0058 EAE7     		b	.L64
ARM GAS  /var/folders/qx/2_175_4n2s19vhvtspjhb3qh0000gn/T//cc9Gd54N.s 			page 33


 804              	.LVL81:
 805              	.L75:
 359:Drivers/lvgl/src/core/lv_obj_tree.c **** 
 806              		.loc 1 359 39 discriminator 1 view .LVU235
 807 005a 2046     		mov	r0, r4
 808              	.LVL82:
 359:Drivers/lvgl/src/core/lv_obj_tree.c **** 
 809              		.loc 1 359 39 discriminator 1 view .LVU236
 810 005c E8E7     		b	.L64
 811              		.cfi_endproc
 812              	.LFE205:
 814              		.section	.text.lv_obj_get_child_count,"ax",%progbits
 815              		.align	1
 816              		.global	lv_obj_get_child_count
 817              		.syntax unified
 818              		.thumb
 819              		.thumb_func
 821              	lv_obj_get_child_count:
 822              	.LVL83:
 823              	.LFB208:
 404:Drivers/lvgl/src/core/lv_obj_tree.c ****     LV_ASSERT_OBJ(obj, MY_CLASS);
 824              		.loc 1 404 1 is_stmt 1 view -0
 825              		.cfi_startproc
 826              		@ args = 0, pretend = 0, frame = 0
 827              		@ frame_needed = 0, uses_anonymous_args = 0
 828              		@ link register save eliminated.
 405:Drivers/lvgl/src/core/lv_obj_tree.c ****     if(obj->spec_attr == NULL) return 0;
 829              		.loc 1 405 5 view .LVU238
 405:Drivers/lvgl/src/core/lv_obj_tree.c ****     if(obj->spec_attr == NULL) return 0;
 830              		.loc 1 405 5 view .LVU239
 831 0000 18B1     		cbz	r0, .L85
 405:Drivers/lvgl/src/core/lv_obj_tree.c ****     if(obj->spec_attr == NULL) return 0;
 832              		.loc 1 405 5 view .LVU240
 405:Drivers/lvgl/src/core/lv_obj_tree.c ****     if(obj->spec_attr == NULL) return 0;
 833              		.loc 1 405 33 view .LVU241
 406:Drivers/lvgl/src/core/lv_obj_tree.c ****     return obj->spec_attr->child_cnt;
 834              		.loc 1 406 5 view .LVU242
 406:Drivers/lvgl/src/core/lv_obj_tree.c ****     return obj->spec_attr->child_cnt;
 835              		.loc 1 406 11 is_stmt 0 view .LVU243
 836 0002 8368     		ldr	r3, [r0, #8]
 406:Drivers/lvgl/src/core/lv_obj_tree.c ****     return obj->spec_attr->child_cnt;
 837              		.loc 1 406 7 view .LVU244
 838 0004 13B1     		cbz	r3, .L87
 407:Drivers/lvgl/src/core/lv_obj_tree.c **** }
 839              		.loc 1 407 5 is_stmt 1 view .LVU245
 407:Drivers/lvgl/src/core/lv_obj_tree.c **** }
 840              		.loc 1 407 26 is_stmt 0 view .LVU246
 841 0006 188E     		ldrh	r0, [r3, #48]
 842              	.LVL84:
 407:Drivers/lvgl/src/core/lv_obj_tree.c **** }
 843              		.loc 1 407 26 view .LVU247
 844 0008 7047     		bx	lr
 845              	.LVL85:
 846              	.L85:
 405:Drivers/lvgl/src/core/lv_obj_tree.c ****     if(obj->spec_attr == NULL) return 0;
 847              		.loc 1 405 5 is_stmt 1 view .LVU248
 405:Drivers/lvgl/src/core/lv_obj_tree.c ****     if(obj->spec_attr == NULL) return 0;
ARM GAS  /var/folders/qx/2_175_4n2s19vhvtspjhb3qh0000gn/T//cc9Gd54N.s 			page 34


 848              		.loc 1 405 5 view .LVU249
 405:Drivers/lvgl/src/core/lv_obj_tree.c ****     if(obj->spec_attr == NULL) return 0;
 849              		.loc 1 405 5 view .LVU250
 405:Drivers/lvgl/src/core/lv_obj_tree.c ****     if(obj->spec_attr == NULL) return 0;
 850              		.loc 1 405 5 view .LVU251
 405:Drivers/lvgl/src/core/lv_obj_tree.c ****     if(obj->spec_attr == NULL) return 0;
 851              		.loc 1 405 5 view .LVU252
 852 000a FEE7     		b	.L85
 853              	.L87:
 406:Drivers/lvgl/src/core/lv_obj_tree.c ****     return obj->spec_attr->child_cnt;
 854              		.loc 1 406 39 is_stmt 0 discriminator 1 view .LVU253
 855 000c 0020     		movs	r0, #0
 856              	.LVL86:
 408:Drivers/lvgl/src/core/lv_obj_tree.c **** 
 857              		.loc 1 408 1 view .LVU254
 858 000e 7047     		bx	lr
 859              		.cfi_endproc
 860              	.LFE208:
 862              		.section	.text.walk_core,"ax",%progbits
 863              		.align	1
 864              		.syntax unified
 865              		.thumb
 866              		.thumb_func
 868              	walk_core:
 869              	.LVL87:
 870              	.LFB217:
 758:Drivers/lvgl/src/core/lv_obj_tree.c ****     lv_obj_tree_walk_res_t res = LV_OBJ_TREE_WALK_NEXT;
 871              		.loc 1 758 1 is_stmt 1 view -0
 872              		.cfi_startproc
 873              		@ args = 0, pretend = 0, frame = 0
 874              		@ frame_needed = 0, uses_anonymous_args = 0
 758:Drivers/lvgl/src/core/lv_obj_tree.c ****     lv_obj_tree_walk_res_t res = LV_OBJ_TREE_WALK_NEXT;
 875              		.loc 1 758 1 is_stmt 0 view .LVU256
 876 0000 F8B5     		push	{r3, r4, r5, r6, r7, lr}
 877              	.LCFI18:
 878              		.cfi_def_cfa_offset 24
 879              		.cfi_offset 3, -24
 880              		.cfi_offset 4, -20
 881              		.cfi_offset 5, -16
 882              		.cfi_offset 6, -12
 883              		.cfi_offset 7, -8
 884              		.cfi_offset 14, -4
 885 0002 0D46     		mov	r5, r1
 886 0004 1646     		mov	r6, r2
 759:Drivers/lvgl/src/core/lv_obj_tree.c **** 
 887              		.loc 1 759 5 is_stmt 1 view .LVU257
 888              	.LVL88:
 761:Drivers/lvgl/src/core/lv_obj_tree.c ****         lv_display_t * disp = lv_display_get_next(NULL);
 889              		.loc 1 761 5 view .LVU258
 761:Drivers/lvgl/src/core/lv_obj_tree.c ****         lv_display_t * disp = lv_display_get_next(NULL);
 890              		.loc 1 761 7 is_stmt 0 view .LVU259
 891 0006 40B1     		cbz	r0, .L99
 892 0008 0746     		mov	r7, r0
 773:Drivers/lvgl/src/core/lv_obj_tree.c **** 
 893              		.loc 1 773 5 is_stmt 1 view .LVU260
 773:Drivers/lvgl/src/core/lv_obj_tree.c **** 
 894              		.loc 1 773 11 is_stmt 0 view .LVU261
ARM GAS  /var/folders/qx/2_175_4n2s19vhvtspjhb3qh0000gn/T//cc9Gd54N.s 			page 35


 895 000a 1146     		mov	r1, r2
 896              	.LVL89:
 773:Drivers/lvgl/src/core/lv_obj_tree.c **** 
 897              		.loc 1 773 11 view .LVU262
 898 000c A847     		blx	r5
 899              	.LVL90:
 775:Drivers/lvgl/src/core/lv_obj_tree.c **** 
 900              		.loc 1 775 5 is_stmt 1 view .LVU263
 775:Drivers/lvgl/src/core/lv_obj_tree.c **** 
 901              		.loc 1 775 7 is_stmt 0 view .LVU264
 902 000e 0228     		cmp	r0, #2
 903 0010 31D0     		beq	.L93
 777:Drivers/lvgl/src/core/lv_obj_tree.c ****         uint32_t i;
 904              		.loc 1 777 5 is_stmt 1 view .LVU265
 777:Drivers/lvgl/src/core/lv_obj_tree.c ****         uint32_t i;
 905              		.loc 1 777 7 is_stmt 0 view .LVU266
 906 0012 0128     		cmp	r0, #1
 907 0014 1BD0     		beq	.L100
 908              	.LBB4:
 779:Drivers/lvgl/src/core/lv_obj_tree.c ****             res = walk_core(lv_obj_get_child(obj, i), cb, user_data);
 909              		.loc 1 779 15 view .LVU267
 910 0016 0024     		movs	r4, #0
 911 0018 1CE0     		b	.L94
 912              	.LVL91:
 913              	.L99:
 779:Drivers/lvgl/src/core/lv_obj_tree.c ****             res = walk_core(lv_obj_get_child(obj, i), cb, user_data);
 914              		.loc 1 779 15 view .LVU268
 915              	.LBE4:
 916              	.LBB5:
 762:Drivers/lvgl/src/core/lv_obj_tree.c ****         while(disp) {
 917              		.loc 1 762 9 is_stmt 1 view .LVU269
 762:Drivers/lvgl/src/core/lv_obj_tree.c ****         while(disp) {
 918              		.loc 1 762 31 is_stmt 0 view .LVU270
 919 001a FFF7FEFF 		bl	lv_display_get_next
 920              	.LVL92:
 762:Drivers/lvgl/src/core/lv_obj_tree.c ****         while(disp) {
 921              		.loc 1 762 31 view .LVU271
 922 001e 0746     		mov	r7, r0
 923              	.LVL93:
 763:Drivers/lvgl/src/core/lv_obj_tree.c ****             uint32_t i;
 924              		.loc 1 763 9 is_stmt 1 view .LVU272
 763:Drivers/lvgl/src/core/lv_obj_tree.c ****             uint32_t i;
 925              		.loc 1 763 14 is_stmt 0 view .LVU273
 926 0020 10E0     		b	.L90
 927              	.LVL94:
 928              	.L91:
 929              	.LBB6:
 766:Drivers/lvgl/src/core/lv_obj_tree.c ****             }
 930              		.loc 1 766 17 is_stmt 1 view .LVU274
 766:Drivers/lvgl/src/core/lv_obj_tree.c ****             }
 931              		.loc 1 766 31 is_stmt 0 view .LVU275
 932 0022 D7F8BC32 		ldr	r3, [r7, #700]
 766:Drivers/lvgl/src/core/lv_obj_tree.c ****             }
 933              		.loc 1 766 17 view .LVU276
 934 0026 3246     		mov	r2, r6
 935 0028 2946     		mov	r1, r5
 936 002a 53F82400 		ldr	r0, [r3, r4, lsl #2]
ARM GAS  /var/folders/qx/2_175_4n2s19vhvtspjhb3qh0000gn/T//cc9Gd54N.s 			page 36


 937 002e FFF7E7FF 		bl	walk_core
 938              	.LVL95:
 765:Drivers/lvgl/src/core/lv_obj_tree.c ****                 walk_core(disp->screens[i], cb, user_data);
 939              		.loc 1 765 47 is_stmt 1 discriminator 3 view .LVU277
 940 0032 0134     		adds	r4, r4, #1
 941              	.LVL96:
 942              	.L92:
 765:Drivers/lvgl/src/core/lv_obj_tree.c ****                 walk_core(disp->screens[i], cb, user_data);
 943              		.loc 1 765 26 discriminator 1 view .LVU278
 765:Drivers/lvgl/src/core/lv_obj_tree.c ****                 walk_core(disp->screens[i], cb, user_data);
 944              		.loc 1 765 32 is_stmt 0 discriminator 1 view .LVU279
 945 0034 D7F8D832 		ldr	r3, [r7, #728]
 765:Drivers/lvgl/src/core/lv_obj_tree.c ****                 walk_core(disp->screens[i], cb, user_data);
 946              		.loc 1 765 26 discriminator 1 view .LVU280
 947 0038 A342     		cmp	r3, r4
 948 003a F2D8     		bhi	.L91
 768:Drivers/lvgl/src/core/lv_obj_tree.c ****         }
 949              		.loc 1 768 13 is_stmt 1 view .LVU281
 768:Drivers/lvgl/src/core/lv_obj_tree.c ****         }
 950              		.loc 1 768 20 is_stmt 0 view .LVU282
 951 003c 3846     		mov	r0, r7
 952 003e FFF7FEFF 		bl	lv_display_get_next
 953              	.LVL97:
 954 0042 0746     		mov	r7, r0
 955              	.LVL98:
 956              	.L90:
 768:Drivers/lvgl/src/core/lv_obj_tree.c ****         }
 957              		.loc 1 768 20 view .LVU283
 958              	.LBE6:
 763:Drivers/lvgl/src/core/lv_obj_tree.c ****             uint32_t i;
 959              		.loc 1 763 15 is_stmt 1 view .LVU284
 960 0044 0FB1     		cbz	r7, .L101
 961              	.LBB7:
 765:Drivers/lvgl/src/core/lv_obj_tree.c ****                 walk_core(disp->screens[i], cb, user_data);
 962              		.loc 1 765 19 is_stmt 0 view .LVU285
 963 0046 0024     		movs	r4, #0
 964 0048 F4E7     		b	.L92
 965              	.L101:
 966              	.LBE7:
 770:Drivers/lvgl/src/core/lv_obj_tree.c ****     }
 967              		.loc 1 770 16 view .LVU286
 968 004a 0220     		movs	r0, #2
 969 004c 13E0     		b	.L93
 970              	.LVL99:
 971              	.L100:
 770:Drivers/lvgl/src/core/lv_obj_tree.c ****     }
 972              		.loc 1 770 16 view .LVU287
 973              	.LBE5:
 784:Drivers/lvgl/src/core/lv_obj_tree.c **** }
 974              		.loc 1 784 12 view .LVU288
 975 004e 0020     		movs	r0, #0
 976              	.LVL100:
 784:Drivers/lvgl/src/core/lv_obj_tree.c **** }
 977              		.loc 1 784 12 view .LVU289
 978 0050 11E0     		b	.L93
 979              	.LVL101:
 980              	.L103:
ARM GAS  /var/folders/qx/2_175_4n2s19vhvtspjhb3qh0000gn/T//cc9Gd54N.s 			page 37


 981              	.LBB8:
 779:Drivers/lvgl/src/core/lv_obj_tree.c ****             res = walk_core(lv_obj_get_child(obj, i), cb, user_data);
 982              		.loc 1 779 54 is_stmt 1 discriminator 2 view .LVU290
 983 0052 0134     		adds	r4, r4, #1
 984              	.LVL102:
 985              	.L94:
 779:Drivers/lvgl/src/core/lv_obj_tree.c ****             res = walk_core(lv_obj_get_child(obj, i), cb, user_data);
 986              		.loc 1 779 22 discriminator 1 view .LVU291
 779:Drivers/lvgl/src/core/lv_obj_tree.c ****             res = walk_core(lv_obj_get_child(obj, i), cb, user_data);
 987              		.loc 1 779 24 is_stmt 0 discriminator 1 view .LVU292
 988 0054 3846     		mov	r0, r7
 989              	.LVL103:
 779:Drivers/lvgl/src/core/lv_obj_tree.c ****             res = walk_core(lv_obj_get_child(obj, i), cb, user_data);
 990              		.loc 1 779 24 discriminator 1 view .LVU293
 991 0056 FFF7FEFF 		bl	lv_obj_get_child_count
 992              	.LVL104:
 779:Drivers/lvgl/src/core/lv_obj_tree.c ****             res = walk_core(lv_obj_get_child(obj, i), cb, user_data);
 993              		.loc 1 779 22 discriminator 1 view .LVU294
 994 005a A042     		cmp	r0, r4
 995 005c 0AD9     		bls	.L102
 780:Drivers/lvgl/src/core/lv_obj_tree.c ****             if(res == LV_OBJ_TREE_WALK_END) return LV_OBJ_TREE_WALK_END;
 996              		.loc 1 780 13 is_stmt 1 view .LVU295
 780:Drivers/lvgl/src/core/lv_obj_tree.c ****             if(res == LV_OBJ_TREE_WALK_END) return LV_OBJ_TREE_WALK_END;
 997              		.loc 1 780 19 is_stmt 0 view .LVU296
 998 005e 2146     		mov	r1, r4
 999 0060 3846     		mov	r0, r7
 1000 0062 FFF7FEFF 		bl	lv_obj_get_child
 1001              	.LVL105:
 780:Drivers/lvgl/src/core/lv_obj_tree.c ****             if(res == LV_OBJ_TREE_WALK_END) return LV_OBJ_TREE_WALK_END;
 1002              		.loc 1 780 19 discriminator 1 view .LVU297
 1003 0066 3246     		mov	r2, r6
 1004 0068 2946     		mov	r1, r5
 1005 006a FFF7C9FF 		bl	walk_core
 1006              	.LVL106:
 781:Drivers/lvgl/src/core/lv_obj_tree.c ****         }
 1007              		.loc 1 781 13 is_stmt 1 view .LVU298
 781:Drivers/lvgl/src/core/lv_obj_tree.c ****         }
 1008              		.loc 1 781 15 is_stmt 0 view .LVU299
 1009 006e 0228     		cmp	r0, #2
 1010 0070 EFD1     		bne	.L103
 1011 0072 00E0     		b	.L93
 1012              	.LVL107:
 1013              	.L102:
 781:Drivers/lvgl/src/core/lv_obj_tree.c ****         }
 1014              		.loc 1 781 15 view .LVU300
 1015              	.LBE8:
 784:Drivers/lvgl/src/core/lv_obj_tree.c **** }
 1016              		.loc 1 784 12 view .LVU301
 1017 0074 0020     		movs	r0, #0
 1018              	.LVL108:
 1019              	.L93:
 785:Drivers/lvgl/src/core/lv_obj_tree.c **** 
 1020              		.loc 1 785 1 view .LVU302
 1021 0076 F8BD     		pop	{r3, r4, r5, r6, r7, pc}
 785:Drivers/lvgl/src/core/lv_obj_tree.c **** 
 1022              		.loc 1 785 1 view .LVU303
 1023              		.cfi_endproc
ARM GAS  /var/folders/qx/2_175_4n2s19vhvtspjhb3qh0000gn/T//cc9Gd54N.s 			page 38


 1024              	.LFE217:
 1026              		.section	.text.lv_obj_get_child_count_by_type,"ax",%progbits
 1027              		.align	1
 1028              		.global	lv_obj_get_child_count_by_type
 1029              		.syntax unified
 1030              		.thumb
 1031              		.thumb_func
 1033              	lv_obj_get_child_count_by_type:
 1034              	.LVL109:
 1035              	.LFB209:
 411:Drivers/lvgl/src/core/lv_obj_tree.c ****     LV_ASSERT_OBJ(obj, MY_CLASS);
 1036              		.loc 1 411 1 is_stmt 1 view -0
 1037              		.cfi_startproc
 1038              		@ args = 0, pretend = 0, frame = 0
 1039              		@ frame_needed = 0, uses_anonymous_args = 0
 1040              		@ link register save eliminated.
 412:Drivers/lvgl/src/core/lv_obj_tree.c ****     if(obj->spec_attr == NULL) return 0;
 1041              		.loc 1 412 5 view .LVU305
 412:Drivers/lvgl/src/core/lv_obj_tree.c ****     if(obj->spec_attr == NULL) return 0;
 1042              		.loc 1 412 5 view .LVU306
 1043 0000 48B1     		cbz	r0, .L106
 412:Drivers/lvgl/src/core/lv_obj_tree.c ****     if(obj->spec_attr == NULL) return 0;
 1044              		.loc 1 412 5 view .LVU307
 412:Drivers/lvgl/src/core/lv_obj_tree.c ****     if(obj->spec_attr == NULL) return 0;
 1045              		.loc 1 412 33 view .LVU308
 413:Drivers/lvgl/src/core/lv_obj_tree.c **** 
 1046              		.loc 1 413 5 view .LVU309
 413:Drivers/lvgl/src/core/lv_obj_tree.c **** 
 1047              		.loc 1 413 11 is_stmt 0 view .LVU310
 1048 0002 8268     		ldr	r2, [r0, #8]
 413:Drivers/lvgl/src/core/lv_obj_tree.c **** 
 1049              		.loc 1 413 7 view .LVU311
 1050 0004 AAB1     		cbz	r2, .L111
 416:Drivers/lvgl/src/core/lv_obj_tree.c ****     for(i = 0; i < obj->spec_attr->child_cnt; i++) {
 1051              		.loc 1 416 14 view .LVU312
 1052 0006 0020     		movs	r0, #0
 1053              	.LVL110:
 417:Drivers/lvgl/src/core/lv_obj_tree.c ****         if(obj->spec_attr->children[i]->class_p == class_p) cnt++;
 1054              		.loc 1 417 11 view .LVU313
 1055 0008 0346     		mov	r3, r0
 1056              	.LVL111:
 417:Drivers/lvgl/src/core/lv_obj_tree.c ****         if(obj->spec_attr->children[i]->class_p == class_p) cnt++;
 1057              		.loc 1 417 18 is_stmt 1 discriminator 1 view .LVU314
 417:Drivers/lvgl/src/core/lv_obj_tree.c ****         if(obj->spec_attr->children[i]->class_p == class_p) cnt++;
 1058              		.loc 1 417 34 is_stmt 0 discriminator 1 view .LVU315
 1059 000a B2F830C0 		ldrh	ip, [r2, #48]
 417:Drivers/lvgl/src/core/lv_obj_tree.c ****         if(obj->spec_attr->children[i]->class_p == class_p) cnt++;
 1060              		.loc 1 417 18 discriminator 1 view .LVU316
 1061 000e 8445     		cmp	ip, r0
 1062 0010 14D9     		bls	.L118
 411:Drivers/lvgl/src/core/lv_obj_tree.c ****     LV_ASSERT_OBJ(obj, MY_CLASS);
 1063              		.loc 1 411 1 view .LVU317
 1064 0012 10B4     		push	{r4}
 1065              	.LCFI19:
 1066              		.cfi_def_cfa_offset 4
 1067              		.cfi_offset 4, -4
 1068 0014 05E0     		b	.L110
ARM GAS  /var/folders/qx/2_175_4n2s19vhvtspjhb3qh0000gn/T//cc9Gd54N.s 			page 39


 1069              	.LVL112:
 1070              	.L106:
 1071              	.LCFI20:
 1072              		.cfi_def_cfa_offset 0
 1073              		.cfi_restore 4
 412:Drivers/lvgl/src/core/lv_obj_tree.c ****     if(obj->spec_attr == NULL) return 0;
 1074              		.loc 1 412 5 is_stmt 1 view .LVU318
 412:Drivers/lvgl/src/core/lv_obj_tree.c ****     if(obj->spec_attr == NULL) return 0;
 1075              		.loc 1 412 5 view .LVU319
 412:Drivers/lvgl/src/core/lv_obj_tree.c ****     if(obj->spec_attr == NULL) return 0;
 1076              		.loc 1 412 5 view .LVU320
 412:Drivers/lvgl/src/core/lv_obj_tree.c ****     if(obj->spec_attr == NULL) return 0;
 1077              		.loc 1 412 5 view .LVU321
 412:Drivers/lvgl/src/core/lv_obj_tree.c ****     if(obj->spec_attr == NULL) return 0;
 1078              		.loc 1 412 5 view .LVU322
 1079 0016 FEE7     		b	.L106
 1080              	.LVL113:
 1081              	.L109:
 1082              	.LCFI21:
 1083              		.cfi_def_cfa_offset 4
 1084              		.cfi_offset 4, -4
 417:Drivers/lvgl/src/core/lv_obj_tree.c ****         if(obj->spec_attr->children[i]->class_p == class_p) cnt++;
 1085              		.loc 1 417 48 discriminator 2 view .LVU323
 1086 0018 0133     		adds	r3, r3, #1
 1087              	.LVL114:
 417:Drivers/lvgl/src/core/lv_obj_tree.c ****         if(obj->spec_attr->children[i]->class_p == class_p) cnt++;
 1088              		.loc 1 417 18 discriminator 1 view .LVU324
 417:Drivers/lvgl/src/core/lv_obj_tree.c ****         if(obj->spec_attr->children[i]->class_p == class_p) cnt++;
 1089              		.loc 1 417 34 is_stmt 0 discriminator 1 view .LVU325
 1090 001a B2F830C0 		ldrh	ip, [r2, #48]
 417:Drivers/lvgl/src/core/lv_obj_tree.c ****         if(obj->spec_attr->children[i]->class_p == class_p) cnt++;
 1091              		.loc 1 417 18 discriminator 1 view .LVU326
 1092 001e 9C45     		cmp	ip, r3
 1093 0020 09D9     		bls	.L119
 1094              	.L110:
 418:Drivers/lvgl/src/core/lv_obj_tree.c ****     }
 1095              		.loc 1 418 9 is_stmt 1 view .LVU327
 418:Drivers/lvgl/src/core/lv_obj_tree.c ****     }
 1096              		.loc 1 418 26 is_stmt 0 view .LVU328
 1097 0022 1468     		ldr	r4, [r2]
 418:Drivers/lvgl/src/core/lv_obj_tree.c ****     }
 1098              		.loc 1 418 36 view .LVU329
 1099 0024 54F82340 		ldr	r4, [r4, r3, lsl #2]
 418:Drivers/lvgl/src/core/lv_obj_tree.c ****     }
 1100              		.loc 1 418 39 view .LVU330
 1101 0028 2468     		ldr	r4, [r4]
 418:Drivers/lvgl/src/core/lv_obj_tree.c ****     }
 1102              		.loc 1 418 11 view .LVU331
 1103 002a 8C42     		cmp	r4, r1
 1104 002c F4D1     		bne	.L109
 418:Drivers/lvgl/src/core/lv_obj_tree.c ****     }
 1105              		.loc 1 418 61 is_stmt 1 discriminator 1 view .LVU332
 418:Drivers/lvgl/src/core/lv_obj_tree.c ****     }
 1106              		.loc 1 418 64 is_stmt 0 discriminator 1 view .LVU333
 1107 002e 0130     		adds	r0, r0, #1
 1108              	.LVL115:
 418:Drivers/lvgl/src/core/lv_obj_tree.c ****     }
ARM GAS  /var/folders/qx/2_175_4n2s19vhvtspjhb3qh0000gn/T//cc9Gd54N.s 			page 40


 1109              		.loc 1 418 64 discriminator 1 view .LVU334
 1110 0030 F2E7     		b	.L109
 1111              	.LVL116:
 1112              	.L111:
 1113              	.LCFI22:
 1114              		.cfi_def_cfa_offset 0
 1115              		.cfi_restore 4
 413:Drivers/lvgl/src/core/lv_obj_tree.c **** 
 1116              		.loc 1 413 39 discriminator 1 view .LVU335
 1117 0032 0020     		movs	r0, #0
 1118              	.LVL117:
 413:Drivers/lvgl/src/core/lv_obj_tree.c **** 
 1119              		.loc 1 413 39 discriminator 1 view .LVU336
 1120 0034 7047     		bx	lr
 1121              	.LVL118:
 1122              	.L119:
 1123              	.LCFI23:
 1124              		.cfi_def_cfa_offset 4
 1125              		.cfi_offset 4, -4
 421:Drivers/lvgl/src/core/lv_obj_tree.c **** 
 1126              		.loc 1 421 1 view .LVU337
 1127 0036 5DF8044B 		ldr	r4, [sp], #4
 1128              	.LCFI24:
 1129              		.cfi_restore 4
 1130              		.cfi_def_cfa_offset 0
 1131 003a 7047     		bx	lr
 1132              	.LVL119:
 1133              	.L118:
 421:Drivers/lvgl/src/core/lv_obj_tree.c **** 
 1134              		.loc 1 421 1 view .LVU338
 1135 003c 7047     		bx	lr
 1136              		.cfi_endproc
 1137              	.LFE209:
 1139              		.section	.text.lv_obj_get_index,"ax",%progbits
 1140              		.align	1
 1141              		.global	lv_obj_get_index
 1142              		.syntax unified
 1143              		.thumb
 1144              		.thumb_func
 1146              	lv_obj_get_index:
 1147              	.LVL120:
 1148              	.LFB210:
 584:Drivers/lvgl/src/core/lv_obj_tree.c ****     LV_ASSERT_OBJ(obj, MY_CLASS);
 1149              		.loc 1 584 1 is_stmt 1 view -0
 1150              		.cfi_startproc
 1151              		@ args = 0, pretend = 0, frame = 0
 1152              		@ frame_needed = 0, uses_anonymous_args = 0
 585:Drivers/lvgl/src/core/lv_obj_tree.c **** 
 1153              		.loc 1 585 5 view .LVU340
 585:Drivers/lvgl/src/core/lv_obj_tree.c **** 
 1154              		.loc 1 585 5 view .LVU341
 1155 0000 88B1     		cbz	r0, .L122
 584:Drivers/lvgl/src/core/lv_obj_tree.c ****     LV_ASSERT_OBJ(obj, MY_CLASS);
 1156              		.loc 1 584 1 is_stmt 0 view .LVU342
 1157 0002 10B5     		push	{r4, lr}
 1158              	.LCFI25:
 1159              		.cfi_def_cfa_offset 8
ARM GAS  /var/folders/qx/2_175_4n2s19vhvtspjhb3qh0000gn/T//cc9Gd54N.s 			page 41


 1160              		.cfi_offset 4, -8
 1161              		.cfi_offset 14, -4
 1162 0004 0446     		mov	r4, r0
 585:Drivers/lvgl/src/core/lv_obj_tree.c **** 
 1163              		.loc 1 585 5 is_stmt 1 view .LVU343
 585:Drivers/lvgl/src/core/lv_obj_tree.c **** 
 1164              		.loc 1 585 33 view .LVU344
 587:Drivers/lvgl/src/core/lv_obj_tree.c ****     if(parent == NULL) return -1;
 1165              		.loc 1 587 5 view .LVU345
 587:Drivers/lvgl/src/core/lv_obj_tree.c ****     if(parent == NULL) return -1;
 1166              		.loc 1 587 25 is_stmt 0 view .LVU346
 1167 0006 FFF7FEFF 		bl	lv_obj_get_parent
 1168              	.LVL121:
 588:Drivers/lvgl/src/core/lv_obj_tree.c **** 
 1169              		.loc 1 588 5 is_stmt 1 view .LVU347
 588:Drivers/lvgl/src/core/lv_obj_tree.c **** 
 1170              		.loc 1 588 7 is_stmt 0 view .LVU348
 1171 000a 0146     		mov	r1, r0
 1172 000c 68B1     		cbz	r0, .L127
 591:Drivers/lvgl/src/core/lv_obj_tree.c ****         if(parent->spec_attr->children[i] == obj) return i;
 1173              		.loc 1 591 11 view .LVU349
 1174 000e 0020     		movs	r0, #0
 1175              	.LVL122:
 1176              	.L124:
 591:Drivers/lvgl/src/core/lv_obj_tree.c ****         if(parent->spec_attr->children[i] == obj) return i;
 1177              		.loc 1 591 18 is_stmt 1 discriminator 1 view .LVU350
 591:Drivers/lvgl/src/core/lv_obj_tree.c ****         if(parent->spec_attr->children[i] == obj) return i;
 1178              		.loc 1 591 26 is_stmt 0 discriminator 1 view .LVU351
 1179 0010 8B68     		ldr	r3, [r1, #8]
 591:Drivers/lvgl/src/core/lv_obj_tree.c ****         if(parent->spec_attr->children[i] == obj) return i;
 1180              		.loc 1 591 37 discriminator 1 view .LVU352
 1181 0012 1A8E     		ldrh	r2, [r3, #48]
 591:Drivers/lvgl/src/core/lv_obj_tree.c ****         if(parent->spec_attr->children[i] == obj) return i;
 1182              		.loc 1 591 18 discriminator 1 view .LVU353
 1183 0014 8242     		cmp	r2, r0
 1184 0016 07DD     		ble	.L126
 592:Drivers/lvgl/src/core/lv_obj_tree.c ****     }
 1185              		.loc 1 592 9 is_stmt 1 view .LVU354
 592:Drivers/lvgl/src/core/lv_obj_tree.c ****     }
 1186              		.loc 1 592 29 is_stmt 0 view .LVU355
 1187 0018 1B68     		ldr	r3, [r3]
 592:Drivers/lvgl/src/core/lv_obj_tree.c ****     }
 1188              		.loc 1 592 39 view .LVU356
 1189 001a 53F82030 		ldr	r3, [r3, r0, lsl #2]
 592:Drivers/lvgl/src/core/lv_obj_tree.c ****     }
 1190              		.loc 1 592 11 view .LVU357
 1191 001e A342     		cmp	r3, r4
 1192 0020 05D0     		beq	.L120
 591:Drivers/lvgl/src/core/lv_obj_tree.c ****         if(parent->spec_attr->children[i] == obj) return i;
 1193              		.loc 1 591 51 is_stmt 1 discriminator 2 view .LVU358
 1194 0022 0130     		adds	r0, r0, #1
 1195              	.LVL123:
 591:Drivers/lvgl/src/core/lv_obj_tree.c ****         if(parent->spec_attr->children[i] == obj) return i;
 1196              		.loc 1 591 51 is_stmt 0 discriminator 2 view .LVU359
 1197 0024 F4E7     		b	.L124
 1198              	.LVL124:
 1199              	.L122:
ARM GAS  /var/folders/qx/2_175_4n2s19vhvtspjhb3qh0000gn/T//cc9Gd54N.s 			page 42


 1200              	.LCFI26:
 1201              		.cfi_def_cfa_offset 0
 1202              		.cfi_restore 4
 1203              		.cfi_restore 14
 585:Drivers/lvgl/src/core/lv_obj_tree.c **** 
 1204              		.loc 1 585 5 is_stmt 1 view .LVU360
 585:Drivers/lvgl/src/core/lv_obj_tree.c **** 
 1205              		.loc 1 585 5 view .LVU361
 585:Drivers/lvgl/src/core/lv_obj_tree.c **** 
 1206              		.loc 1 585 5 view .LVU362
 585:Drivers/lvgl/src/core/lv_obj_tree.c **** 
 1207              		.loc 1 585 5 view .LVU363
 585:Drivers/lvgl/src/core/lv_obj_tree.c **** 
 1208              		.loc 1 585 5 view .LVU364
 1209 0026 FEE7     		b	.L122
 1210              	.LVL125:
 1211              	.L126:
 1212              	.LCFI27:
 1213              		.cfi_def_cfa_offset 8
 1214              		.cfi_offset 4, -8
 1215              		.cfi_offset 14, -4
 596:Drivers/lvgl/src/core/lv_obj_tree.c ****     return -1;
 1216              		.loc 1 596 5 view .LVU365
 596:Drivers/lvgl/src/core/lv_obj_tree.c ****     return -1;
 1217              		.loc 1 596 5 view .LVU366
 596:Drivers/lvgl/src/core/lv_obj_tree.c ****     return -1;
 1218              		.loc 1 596 5 view .LVU367
 596:Drivers/lvgl/src/core/lv_obj_tree.c ****     return -1;
 1219              		.loc 1 596 5 view .LVU368
 596:Drivers/lvgl/src/core/lv_obj_tree.c ****     return -1;
 1220              		.loc 1 596 5 view .LVU369
 1221 0028 FEE7     		b	.L126
 1222              	.LVL126:
 1223              	.L127:
 588:Drivers/lvgl/src/core/lv_obj_tree.c **** 
 1224              		.loc 1 588 31 is_stmt 0 discriminator 1 view .LVU370
 1225 002a 4FF0FF30 		mov	r0, #-1
 1226              	.LVL127:
 1227              	.L120:
 598:Drivers/lvgl/src/core/lv_obj_tree.c **** 
 1228              		.loc 1 598 1 view .LVU371
 1229 002e 10BD     		pop	{r4, pc}
 598:Drivers/lvgl/src/core/lv_obj_tree.c **** 
 1230              		.loc 1 598 1 view .LVU372
 1231              		.cfi_endproc
 1232              	.LFE210:
 1234              		.section	.text.obj_delete_core,"ax",%progbits
 1235              		.align	1
 1236              		.syntax unified
 1237              		.thumb
 1238              		.thumb_func
 1240              	obj_delete_core:
 1241              	.LVL128:
 1242              	.LFB216:
 669:Drivers/lvgl/src/core/lv_obj_tree.c ****     if(obj->is_deleting)
 1243              		.loc 1 669 1 is_stmt 1 view -0
 1244              		.cfi_startproc
ARM GAS  /var/folders/qx/2_175_4n2s19vhvtspjhb3qh0000gn/T//cc9Gd54N.s 			page 43


 1245              		@ args = 0, pretend = 0, frame = 0
 1246              		@ frame_needed = 0, uses_anonymous_args = 0
 670:Drivers/lvgl/src/core/lv_obj_tree.c ****         return;
 1247              		.loc 1 670 5 view .LVU374
 670:Drivers/lvgl/src/core/lv_obj_tree.c ****         return;
 1248              		.loc 1 670 8 is_stmt 0 view .LVU375
 1249 0000 90F82B30 		ldrb	r3, [r0, #43]	@ zero_extendqisi2
 670:Drivers/lvgl/src/core/lv_obj_tree.c ****         return;
 1250              		.loc 1 670 7 view .LVU376
 1251 0004 13F0400F 		tst	r3, #64
 1252 0008 00D0     		beq	.L159
 1253 000a 7047     		bx	lr
 1254              	.L159:
 669:Drivers/lvgl/src/core/lv_obj_tree.c ****     if(obj->is_deleting)
 1255              		.loc 1 669 1 view .LVU377
 1256 000c 70B5     		push	{r4, r5, r6, lr}
 1257              	.LCFI28:
 1258              		.cfi_def_cfa_offset 16
 1259              		.cfi_offset 4, -16
 1260              		.cfi_offset 5, -12
 1261              		.cfi_offset 6, -8
 1262              		.cfi_offset 14, -4
 1263 000e 0546     		mov	r5, r0
 673:Drivers/lvgl/src/core/lv_obj_tree.c **** 
 1264              		.loc 1 673 5 is_stmt 1 view .LVU378
 673:Drivers/lvgl/src/core/lv_obj_tree.c **** 
 1265              		.loc 1 673 22 is_stmt 0 view .LVU379
 1266 0010 43F04003 		orr	r3, r3, #64
 1267 0014 80F82B30 		strb	r3, [r0, #43]
 676:Drivers/lvgl/src/core/lv_obj_tree.c ****     if(res == LV_RESULT_INVALID) {
 1268              		.loc 1 676 5 is_stmt 1 view .LVU380
 676:Drivers/lvgl/src/core/lv_obj_tree.c ****     if(res == LV_RESULT_INVALID) {
 1269              		.loc 1 676 23 is_stmt 0 view .LVU381
 1270 0018 0022     		movs	r2, #0
 1271 001a 2A21     		movs	r1, #42
 1272 001c FFF7FEFF 		bl	lv_obj_send_event
 1273              	.LVL129:
 677:Drivers/lvgl/src/core/lv_obj_tree.c ****         obj->is_deleting = false;
 1274              		.loc 1 677 5 is_stmt 1 view .LVU382
 677:Drivers/lvgl/src/core/lv_obj_tree.c ****         obj->is_deleting = false;
 1275              		.loc 1 677 7 is_stmt 0 view .LVU383
 1276 0020 80B1     		cbz	r0, .L160
 683:Drivers/lvgl/src/core/lv_obj_tree.c **** 
 1277              		.loc 1 683 5 is_stmt 1 view .LVU384
 683:Drivers/lvgl/src/core/lv_obj_tree.c **** 
 1278              		.loc 1 683 11 is_stmt 0 view .LVU385
 1279 0022 A868     		ldr	r0, [r5, #8]
 1280              	.LVL130:
 683:Drivers/lvgl/src/core/lv_obj_tree.c **** 
 1281              		.loc 1 683 7 view .LVU386
 1282 0024 10B1     		cbz	r0, .L133
 683:Drivers/lvgl/src/core/lv_obj_tree.c **** 
 1283              		.loc 1 683 24 is_stmt 1 discriminator 1 view .LVU387
 1284 0026 0830     		adds	r0, r0, #8
 1285 0028 FFF7FEFF 		bl	lv_event_remove_all
 1286              	.LVL131:
 1287              	.L133:
ARM GAS  /var/folders/qx/2_175_4n2s19vhvtspjhb3qh0000gn/T//cc9Gd54N.s 			page 44


 686:Drivers/lvgl/src/core/lv_obj_tree.c ****     while(child) {
 1288              		.loc 1 686 5 view .LVU388
 686:Drivers/lvgl/src/core/lv_obj_tree.c ****     while(child) {
 1289              		.loc 1 686 24 is_stmt 0 view .LVU389
 1290 002c 0021     		movs	r1, #0
 1291 002e 2846     		mov	r0, r5
 1292 0030 FFF7FEFF 		bl	lv_obj_get_child
 1293              	.LVL132:
 687:Drivers/lvgl/src/core/lv_obj_tree.c ****         obj_delete_core(child);
 1294              		.loc 1 687 5 is_stmt 1 view .LVU390
 1295              	.L134:
 687:Drivers/lvgl/src/core/lv_obj_tree.c ****         obj_delete_core(child);
 1296              		.loc 1 687 11 view .LVU391
 1297 0034 68B1     		cbz	r0, .L161
 688:Drivers/lvgl/src/core/lv_obj_tree.c ****         child = lv_obj_get_child(obj, 0);
 1298              		.loc 1 688 9 view .LVU392
 1299 0036 FFF7E3FF 		bl	obj_delete_core
 1300              	.LVL133:
 689:Drivers/lvgl/src/core/lv_obj_tree.c ****     }
 1301              		.loc 1 689 9 view .LVU393
 689:Drivers/lvgl/src/core/lv_obj_tree.c ****     }
 1302              		.loc 1 689 17 is_stmt 0 view .LVU394
 1303 003a 0021     		movs	r1, #0
 1304 003c 2846     		mov	r0, r5
 1305 003e FFF7FEFF 		bl	lv_obj_get_child
 1306              	.LVL134:
 1307 0042 F7E7     		b	.L134
 1308              	.LVL135:
 1309              	.L160:
 678:Drivers/lvgl/src/core/lv_obj_tree.c ****         return;
 1310              		.loc 1 678 9 is_stmt 1 view .LVU395
 678:Drivers/lvgl/src/core/lv_obj_tree.c ****         return;
 1311              		.loc 1 678 26 is_stmt 0 view .LVU396
 1312 0044 95F82B30 		ldrb	r3, [r5, #43]	@ zero_extendqisi2
 1313 0048 23F04003 		bic	r3, r3, #64
 1314 004c 85F82B30 		strb	r3, [r5, #43]
 679:Drivers/lvgl/src/core/lv_obj_tree.c ****     }
 1315              		.loc 1 679 9 is_stmt 1 view .LVU397
 1316 0050 92E0     		b	.L130
 1317              	.LVL136:
 1318              	.L161:
 692:Drivers/lvgl/src/core/lv_obj_tree.c **** 
 1319              		.loc 1 692 5 view .LVU398
 692:Drivers/lvgl/src/core/lv_obj_tree.c **** 
 1320              		.loc 1 692 26 is_stmt 0 view .LVU399
 1321 0052 2846     		mov	r0, r5
 1322              	.LVL137:
 692:Drivers/lvgl/src/core/lv_obj_tree.c **** 
 1323              		.loc 1 692 26 view .LVU400
 1324 0054 FFF7FEFF 		bl	lv_obj_get_group
 1325              	.LVL138:
 1326 0058 0646     		mov	r6, r0
 1327              	.LVL139:
 695:Drivers/lvgl/src/core/lv_obj_tree.c ****     while(indev) {
 1328              		.loc 1 695 5 is_stmt 1 view .LVU401
 695:Drivers/lvgl/src/core/lv_obj_tree.c ****     while(indev) {
 1329              		.loc 1 695 26 is_stmt 0 view .LVU402
ARM GAS  /var/folders/qx/2_175_4n2s19vhvtspjhb3qh0000gn/T//cc9Gd54N.s 			page 45


 1330 005a 0020     		movs	r0, #0
 1331              	.LVL140:
 695:Drivers/lvgl/src/core/lv_obj_tree.c ****     while(indev) {
 1332              		.loc 1 695 26 view .LVU403
 1333 005c FFF7FEFF 		bl	lv_indev_get_next
 1334              	.LVL141:
 1335 0060 0446     		mov	r4, r0
 1336              	.LVL142:
 696:Drivers/lvgl/src/core/lv_obj_tree.c ****         lv_indev_type_t indev_type = lv_indev_get_type(indev);
 1337              		.loc 1 696 5 is_stmt 1 view .LVU404
 696:Drivers/lvgl/src/core/lv_obj_tree.c ****         lv_indev_type_t indev_type = lv_indev_get_type(indev);
 1338              		.loc 1 696 10 is_stmt 0 view .LVU405
 1339 0062 17E0     		b	.L136
 1340              	.LVL143:
 1341              	.L137:
 1342              	.LBB9:
 699:Drivers/lvgl/src/core/lv_obj_tree.c ****                 obj_indev_reset(indev, obj);
 1343              		.loc 1 699 13 is_stmt 1 view .LVU406
 699:Drivers/lvgl/src/core/lv_obj_tree.c ****                 obj_indev_reset(indev, obj);
 1344              		.loc 1 699 30 is_stmt 0 view .LVU407
 1345 0064 D4F8D030 		ldr	r3, [r4, #208]
 699:Drivers/lvgl/src/core/lv_obj_tree.c ****                 obj_indev_reset(indev, obj);
 1346              		.loc 1 699 15 view .LVU408
 1347 0068 AB42     		cmp	r3, r5
 1348 006a 1CD0     		beq	.L139
 699:Drivers/lvgl/src/core/lv_obj_tree.c ****                 obj_indev_reset(indev, obj);
 1349              		.loc 1 699 63 discriminator 1 view .LVU409
 1350 006c D4F8D430 		ldr	r3, [r4, #212]
 699:Drivers/lvgl/src/core/lv_obj_tree.c ****                 obj_indev_reset(indev, obj);
 1351              		.loc 1 699 46 discriminator 1 view .LVU410
 1352 0070 AB42     		cmp	r3, r5
 1353 0072 18D0     		beq	.L139
 1354              	.LVL144:
 1355              	.L140:
 702:Drivers/lvgl/src/core/lv_obj_tree.c ****                 indev->pointer.last_pressed = NULL;
 1356              		.loc 1 702 13 is_stmt 1 view .LVU411
 702:Drivers/lvgl/src/core/lv_obj_tree.c ****                 indev->pointer.last_pressed = NULL;
 1357              		.loc 1 702 30 is_stmt 0 view .LVU412
 1358 0074 D4F8D830 		ldr	r3, [r4, #216]
 702:Drivers/lvgl/src/core/lv_obj_tree.c ****                 indev->pointer.last_pressed = NULL;
 1359              		.loc 1 702 15 view .LVU413
 1360 0078 AB42     		cmp	r3, r5
 1361 007a 19D0     		beq	.L162
 1362              	.L141:
 705:Drivers/lvgl/src/core/lv_obj_tree.c ****                 indev->pointer.last_hovered = NULL;
 1363              		.loc 1 705 13 is_stmt 1 view .LVU414
 705:Drivers/lvgl/src/core/lv_obj_tree.c ****                 indev->pointer.last_hovered = NULL;
 1364              		.loc 1 705 30 is_stmt 0 view .LVU415
 1365 007c D4F8DC30 		ldr	r3, [r4, #220]
 705:Drivers/lvgl/src/core/lv_obj_tree.c ****                 indev->pointer.last_hovered = NULL;
 1366              		.loc 1 705 15 view .LVU416
 1367 0080 AB42     		cmp	r3, r5
 1368 0082 19D0     		beq	.L163
 1369              	.L138:
 710:Drivers/lvgl/src/core/lv_obj_tree.c ****             obj_indev_reset(indev, obj);
 1370              		.loc 1 710 9 is_stmt 1 view .LVU417
 710:Drivers/lvgl/src/core/lv_obj_tree.c ****             obj_indev_reset(indev, obj);
ARM GAS  /var/folders/qx/2_175_4n2s19vhvtspjhb3qh0000gn/T//cc9Gd54N.s 			page 46


 1371              		.loc 1 710 17 is_stmt 0 view .LVU418
 1372 0084 D4F81C31 		ldr	r3, [r4, #284]
 710:Drivers/lvgl/src/core/lv_obj_tree.c ****             obj_indev_reset(indev, obj);
 1373              		.loc 1 710 11 view .LVU419
 1374 0088 B342     		cmp	r3, r6
 1375 008a 19D0     		beq	.L164
 1376              	.L142:
 713:Drivers/lvgl/src/core/lv_obj_tree.c ****     }
 1377              		.loc 1 713 9 is_stmt 1 view .LVU420
 713:Drivers/lvgl/src/core/lv_obj_tree.c ****     }
 1378              		.loc 1 713 17 is_stmt 0 view .LVU421
 1379 008c 2046     		mov	r0, r4
 1380 008e FFF7FEFF 		bl	lv_indev_get_next
 1381              	.LVL145:
 1382 0092 0446     		mov	r4, r0
 1383              	.LVL146:
 1384              	.L136:
 713:Drivers/lvgl/src/core/lv_obj_tree.c ****     }
 1385              		.loc 1 713 17 view .LVU422
 1386              	.LBE9:
 696:Drivers/lvgl/src/core/lv_obj_tree.c ****         lv_indev_type_t indev_type = lv_indev_get_type(indev);
 1387              		.loc 1 696 11 is_stmt 1 view .LVU423
 1388 0094 ECB1     		cbz	r4, .L165
 1389              	.LBB10:
 697:Drivers/lvgl/src/core/lv_obj_tree.c ****         if(indev_type == LV_INDEV_TYPE_POINTER || indev_type == LV_INDEV_TYPE_BUTTON) {
 1390              		.loc 1 697 9 view .LVU424
 697:Drivers/lvgl/src/core/lv_obj_tree.c ****         if(indev_type == LV_INDEV_TYPE_POINTER || indev_type == LV_INDEV_TYPE_BUTTON) {
 1391              		.loc 1 697 38 is_stmt 0 view .LVU425
 1392 0096 2046     		mov	r0, r4
 1393 0098 FFF7FEFF 		bl	lv_indev_get_type
 1394              	.LVL147:
 698:Drivers/lvgl/src/core/lv_obj_tree.c ****             if(indev->pointer.act_obj == obj || indev->pointer.scroll_obj == obj) {
 1395              		.loc 1 698 9 is_stmt 1 view .LVU426
 698:Drivers/lvgl/src/core/lv_obj_tree.c ****             if(indev->pointer.act_obj == obj || indev->pointer.scroll_obj == obj) {
 1396              		.loc 1 698 11 is_stmt 0 view .LVU427
 1397 009c 0128     		cmp	r0, #1
 1398 009e E1D0     		beq	.L137
 698:Drivers/lvgl/src/core/lv_obj_tree.c ****             if(indev->pointer.act_obj == obj || indev->pointer.scroll_obj == obj) {
 1399              		.loc 1 698 48 discriminator 1 view .LVU428
 1400 00a0 0328     		cmp	r0, #3
 1401 00a2 EFD1     		bne	.L138
 1402 00a4 DEE7     		b	.L137
 1403              	.L139:
 700:Drivers/lvgl/src/core/lv_obj_tree.c ****             }
 1404              		.loc 1 700 17 is_stmt 1 view .LVU429
 1405 00a6 2946     		mov	r1, r5
 1406 00a8 2046     		mov	r0, r4
 1407              	.LVL148:
 700:Drivers/lvgl/src/core/lv_obj_tree.c ****             }
 1408              		.loc 1 700 17 is_stmt 0 view .LVU430
 1409 00aa FFF7FEFF 		bl	obj_indev_reset
 1410              	.LVL149:
 1411 00ae E1E7     		b	.L140
 1412              	.L162:
 703:Drivers/lvgl/src/core/lv_obj_tree.c ****             }
 1413              		.loc 1 703 17 is_stmt 1 view .LVU431
 703:Drivers/lvgl/src/core/lv_obj_tree.c ****             }
ARM GAS  /var/folders/qx/2_175_4n2s19vhvtspjhb3qh0000gn/T//cc9Gd54N.s 			page 47


 1414              		.loc 1 703 45 is_stmt 0 view .LVU432
 1415 00b0 0023     		movs	r3, #0
 1416 00b2 C4F8D830 		str	r3, [r4, #216]
 1417 00b6 E1E7     		b	.L141
 1418              	.L163:
 706:Drivers/lvgl/src/core/lv_obj_tree.c ****             }
 1419              		.loc 1 706 17 is_stmt 1 view .LVU433
 706:Drivers/lvgl/src/core/lv_obj_tree.c ****             }
 1420              		.loc 1 706 45 is_stmt 0 view .LVU434
 1421 00b8 0023     		movs	r3, #0
 1422 00ba C4F8DC30 		str	r3, [r4, #220]
 1423 00be E1E7     		b	.L138
 1424              	.L164:
 710:Drivers/lvgl/src/core/lv_obj_tree.c ****             obj_indev_reset(indev, obj);
 1425              		.loc 1 710 44 discriminator 1 view .LVU435
 1426 00c0 FFF7FEFF 		bl	lv_indev_get_active_obj
 1427              	.LVL150:
 710:Drivers/lvgl/src/core/lv_obj_tree.c ****             obj_indev_reset(indev, obj);
 1428              		.loc 1 710 34 discriminator 1 view .LVU436
 1429 00c4 8542     		cmp	r5, r0
 1430 00c6 E1D1     		bne	.L142
 711:Drivers/lvgl/src/core/lv_obj_tree.c ****         }
 1431              		.loc 1 711 13 is_stmt 1 view .LVU437
 1432 00c8 2946     		mov	r1, r5
 1433 00ca 2046     		mov	r0, r4
 1434 00cc FFF7FEFF 		bl	obj_indev_reset
 1435              	.LVL151:
 1436 00d0 DCE7     		b	.L142
 1437              	.LVL152:
 1438              	.L165:
 711:Drivers/lvgl/src/core/lv_obj_tree.c ****         }
 1439              		.loc 1 711 13 is_stmt 0 view .LVU438
 1440              	.LBE10:
 717:Drivers/lvgl/src/core/lv_obj_tree.c ****     while(async_cancel_res == LV_RESULT_OK) {
 1441              		.loc 1 717 17 view .LVU439
 1442 00d2 0120     		movs	r0, #1
 1443 00d4 03E0     		b	.L144
 1444              	.LVL153:
 1445              	.L145:
 719:Drivers/lvgl/src/core/lv_obj_tree.c ****     }
 1446              		.loc 1 719 9 is_stmt 1 view .LVU440
 719:Drivers/lvgl/src/core/lv_obj_tree.c ****     }
 1447              		.loc 1 719 28 is_stmt 0 view .LVU441
 1448 00d6 2946     		mov	r1, r5
 1449 00d8 2848     		ldr	r0, .L168
 1450              	.LVL154:
 719:Drivers/lvgl/src/core/lv_obj_tree.c ****     }
 1451              		.loc 1 719 28 view .LVU442
 1452 00da FFF7FEFF 		bl	lv_async_call_cancel
 1453              	.LVL155:
 1454              	.L144:
 718:Drivers/lvgl/src/core/lv_obj_tree.c ****         async_cancel_res = lv_async_call_cancel(lv_obj_delete_async_cb, obj);
 1455              		.loc 1 718 28 is_stmt 1 view .LVU443
 1456 00de 0128     		cmp	r0, #1
 1457 00e0 F9D0     		beq	.L145
 723:Drivers/lvgl/src/core/lv_obj_tree.c **** 
 1458              		.loc 1 723 5 view .LVU444
ARM GAS  /var/folders/qx/2_175_4n2s19vhvtspjhb3qh0000gn/T//cc9Gd54N.s 			page 48


 1459 00e2 2846     		mov	r0, r5
 1460              	.LVL156:
 723:Drivers/lvgl/src/core/lv_obj_tree.c **** 
 1461              		.loc 1 723 5 is_stmt 0 view .LVU445
 1462 00e4 FFF7FEFF 		bl	lv_obj_destruct
 1463              	.LVL157:
 726:Drivers/lvgl/src/core/lv_obj_tree.c ****         lv_display_t * disp = lv_obj_get_display(obj);
 1464              		.loc 1 726 5 is_stmt 1 view .LVU446
 726:Drivers/lvgl/src/core/lv_obj_tree.c ****         lv_display_t * disp = lv_obj_get_display(obj);
 1465              		.loc 1 726 11 is_stmt 0 view .LVU447
 1466 00e8 6B68     		ldr	r3, [r5, #4]
 726:Drivers/lvgl/src/core/lv_obj_tree.c ****         lv_display_t * disp = lv_obj_get_display(obj);
 1467              		.loc 1 726 7 view .LVU448
 1468 00ea 8BB1     		cbz	r3, .L166
 1469              	.LBB11:
 743:Drivers/lvgl/src/core/lv_obj_tree.c ****         uint16_t i;
 1470              		.loc 1 743 9 is_stmt 1 view .LVU449
 743:Drivers/lvgl/src/core/lv_obj_tree.c ****         uint16_t i;
 1471              		.loc 1 743 22 is_stmt 0 view .LVU450
 1472 00ec 2846     		mov	r0, r5
 1473 00ee FFF7FEFF 		bl	lv_obj_get_index
 1474              	.LVL158:
 744:Drivers/lvgl/src/core/lv_obj_tree.c ****         for(i = id; i < obj->parent->spec_attr->child_cnt - 1; i++) {
 1475              		.loc 1 744 9 is_stmt 1 view .LVU451
 745:Drivers/lvgl/src/core/lv_obj_tree.c ****             obj->parent->spec_attr->children[i] = obj->parent->spec_attr->children[i + 1];
 1476              		.loc 1 745 9 view .LVU452
 745:Drivers/lvgl/src/core/lv_obj_tree.c ****             obj->parent->spec_attr->children[i] = obj->parent->spec_attr->children[i + 1];
 1477              		.loc 1 745 15 is_stmt 0 view .LVU453
 1478 00f2 80B2     		uxth	r0, r0
 1479              	.LVL159:
 1480              	.L153:
 745:Drivers/lvgl/src/core/lv_obj_tree.c ****             obj->parent->spec_attr->children[i] = obj->parent->spec_attr->children[i + 1];
 1481              		.loc 1 745 23 is_stmt 1 discriminator 1 view .LVU454
 745:Drivers/lvgl/src/core/lv_obj_tree.c ****             obj->parent->spec_attr->children[i] = obj->parent->spec_attr->children[i + 1];
 1482              		.loc 1 745 28 is_stmt 0 discriminator 1 view .LVU455
 1483 00f4 6B68     		ldr	r3, [r5, #4]
 745:Drivers/lvgl/src/core/lv_obj_tree.c ****             obj->parent->spec_attr->children[i] = obj->parent->spec_attr->children[i + 1];
 1484              		.loc 1 745 36 discriminator 1 view .LVU456
 1485 00f6 9B68     		ldr	r3, [r3, #8]
 745:Drivers/lvgl/src/core/lv_obj_tree.c ****             obj->parent->spec_attr->children[i] = obj->parent->spec_attr->children[i + 1];
 1486              		.loc 1 745 47 discriminator 1 view .LVU457
 1487 00f8 1A8E     		ldrh	r2, [r3, #48]
 745:Drivers/lvgl/src/core/lv_obj_tree.c ****             obj->parent->spec_attr->children[i] = obj->parent->spec_attr->children[i + 1];
 1488              		.loc 1 745 59 discriminator 1 view .LVU458
 1489 00fa 511E     		subs	r1, r2, #1
 745:Drivers/lvgl/src/core/lv_obj_tree.c ****             obj->parent->spec_attr->children[i] = obj->parent->spec_attr->children[i + 1];
 1490              		.loc 1 745 23 discriminator 1 view .LVU459
 1491 00fc 8842     		cmp	r0, r1
 1492 00fe 2FDA     		bge	.L167
 746:Drivers/lvgl/src/core/lv_obj_tree.c ****         }
 1493              		.loc 1 746 13 is_stmt 1 view .LVU460
 746:Drivers/lvgl/src/core/lv_obj_tree.c ****         }
 1494              		.loc 1 746 73 is_stmt 0 view .LVU461
 1495 0100 1A68     		ldr	r2, [r3]
 746:Drivers/lvgl/src/core/lv_obj_tree.c ****         }
 1496              		.loc 1 746 83 view .LVU462
 1497 0102 431C     		adds	r3, r0, #1
ARM GAS  /var/folders/qx/2_175_4n2s19vhvtspjhb3qh0000gn/T//cc9Gd54N.s 			page 49


 1498 0104 52F82310 		ldr	r1, [r2, r3, lsl #2]
 746:Drivers/lvgl/src/core/lv_obj_tree.c ****         }
 1499              		.loc 1 746 49 view .LVU463
 1500 0108 42F82010 		str	r1, [r2, r0, lsl #2]
 745:Drivers/lvgl/src/core/lv_obj_tree.c ****             obj->parent->spec_attr->children[i] = obj->parent->spec_attr->children[i + 1];
 1501              		.loc 1 745 65 is_stmt 1 discriminator 3 view .LVU464
 1502 010c 98B2     		uxth	r0, r3
 1503              	.LVL160:
 745:Drivers/lvgl/src/core/lv_obj_tree.c ****             obj->parent->spec_attr->children[i] = obj->parent->spec_attr->children[i + 1];
 1504              		.loc 1 745 65 is_stmt 0 discriminator 3 view .LVU465
 1505 010e F1E7     		b	.L153
 1506              	.LVL161:
 1507              	.L166:
 745:Drivers/lvgl/src/core/lv_obj_tree.c ****             obj->parent->spec_attr->children[i] = obj->parent->spec_attr->children[i + 1];
 1508              		.loc 1 745 65 discriminator 3 view .LVU466
 1509              	.LBE11:
 1510              	.LBB12:
 727:Drivers/lvgl/src/core/lv_obj_tree.c ****         uint32_t i;
 1511              		.loc 1 727 9 is_stmt 1 view .LVU467
 727:Drivers/lvgl/src/core/lv_obj_tree.c ****         uint32_t i;
 1512              		.loc 1 727 31 is_stmt 0 view .LVU468
 1513 0110 2846     		mov	r0, r5
 1514 0112 FFF7FEFF 		bl	lv_obj_get_display
 1515              	.LVL162:
 1516 0116 0446     		mov	r4, r0
 1517              	.LVL163:
 728:Drivers/lvgl/src/core/lv_obj_tree.c ****         /*Find the screen in the list*/
 1518              		.loc 1 728 9 is_stmt 1 view .LVU469
 730:Drivers/lvgl/src/core/lv_obj_tree.c ****             if(disp->screens[i] == obj) break;
 1519              		.loc 1 730 9 view .LVU470
 730:Drivers/lvgl/src/core/lv_obj_tree.c ****             if(disp->screens[i] == obj) break;
 1520              		.loc 1 730 15 is_stmt 0 view .LVU471
 1521 0118 0023     		movs	r3, #0
 1522              	.LVL164:
 1523              	.L147:
 730:Drivers/lvgl/src/core/lv_obj_tree.c ****             if(disp->screens[i] == obj) break;
 1524              		.loc 1 730 22 is_stmt 1 discriminator 1 view .LVU472
 730:Drivers/lvgl/src/core/lv_obj_tree.c ****             if(disp->screens[i] == obj) break;
 1525              		.loc 1 730 28 is_stmt 0 discriminator 1 view .LVU473
 1526 011a D4F8D822 		ldr	r2, [r4, #728]
 730:Drivers/lvgl/src/core/lv_obj_tree.c ****             if(disp->screens[i] == obj) break;
 1527              		.loc 1 730 22 discriminator 1 view .LVU474
 1528 011e 9A42     		cmp	r2, r3
 1529 0120 0FD9     		bls	.L150
 731:Drivers/lvgl/src/core/lv_obj_tree.c ****         }
 1530              		.loc 1 731 13 is_stmt 1 view .LVU475
 731:Drivers/lvgl/src/core/lv_obj_tree.c ****         }
 1531              		.loc 1 731 20 is_stmt 0 view .LVU476
 1532 0122 D4F8BC22 		ldr	r2, [r4, #700]
 731:Drivers/lvgl/src/core/lv_obj_tree.c ****         }
 1533              		.loc 1 731 29 view .LVU477
 1534 0126 52F82320 		ldr	r2, [r2, r3, lsl #2]
 731:Drivers/lvgl/src/core/lv_obj_tree.c ****         }
 1535              		.loc 1 731 15 view .LVU478
 1536 012a AA42     		cmp	r2, r5
 1537 012c 09D0     		beq	.L150
 730:Drivers/lvgl/src/core/lv_obj_tree.c ****             if(disp->screens[i] == obj) break;
ARM GAS  /var/folders/qx/2_175_4n2s19vhvtspjhb3qh0000gn/T//cc9Gd54N.s 			page 50


 1538              		.loc 1 730 43 is_stmt 1 discriminator 2 view .LVU479
 1539 012e 0133     		adds	r3, r3, #1
 1540              	.LVL165:
 730:Drivers/lvgl/src/core/lv_obj_tree.c ****             if(disp->screens[i] == obj) break;
 1541              		.loc 1 730 43 is_stmt 0 discriminator 2 view .LVU480
 1542 0130 F3E7     		b	.L147
 1543              	.LVL166:
 1544              	.L151:
 736:Drivers/lvgl/src/core/lv_obj_tree.c ****         }
 1545              		.loc 1 736 13 is_stmt 1 view .LVU481
 736:Drivers/lvgl/src/core/lv_obj_tree.c ****         }
 1546              		.loc 1 736 36 is_stmt 0 view .LVU482
 1547 0132 D4F8BC12 		ldr	r1, [r4, #700]
 736:Drivers/lvgl/src/core/lv_obj_tree.c ****         }
 1548              		.loc 1 736 45 view .LVU483
 1549 0136 5A1C     		adds	r2, r3, #1
 1550 0138 51F82200 		ldr	r0, [r1, r2, lsl #2]
 736:Drivers/lvgl/src/core/lv_obj_tree.c ****         }
 1551              		.loc 1 736 30 view .LVU484
 1552 013c 41F82300 		str	r0, [r1, r3, lsl #2]
 735:Drivers/lvgl/src/core/lv_obj_tree.c ****             disp->screens[i] = disp->screens[i + 1];
 1553              		.loc 1 735 48 is_stmt 1 discriminator 3 view .LVU485
 1554              	.LVL167:
 735:Drivers/lvgl/src/core/lv_obj_tree.c ****             disp->screens[i] = disp->screens[i + 1];
 1555              		.loc 1 735 48 is_stmt 0 discriminator 3 view .LVU486
 1556 0140 1346     		mov	r3, r2
 1557              	.LVL168:
 1558              	.L150:
 735:Drivers/lvgl/src/core/lv_obj_tree.c ****             disp->screens[i] = disp->screens[i + 1];
 1559              		.loc 1 735 23 is_stmt 1 discriminator 1 view .LVU487
 735:Drivers/lvgl/src/core/lv_obj_tree.c ****             disp->screens[i] = disp->screens[i + 1];
 1560              		.loc 1 735 29 is_stmt 0 discriminator 1 view .LVU488
 1561 0142 D4F8D812 		ldr	r1, [r4, #728]
 735:Drivers/lvgl/src/core/lv_obj_tree.c ****             disp->screens[i] = disp->screens[i + 1];
 1562              		.loc 1 735 42 discriminator 1 view .LVU489
 1563 0146 0139     		subs	r1, r1, #1
 735:Drivers/lvgl/src/core/lv_obj_tree.c ****             disp->screens[i] = disp->screens[i + 1];
 1564              		.loc 1 735 23 discriminator 1 view .LVU490
 1565 0148 9942     		cmp	r1, r3
 1566 014a F2D8     		bhi	.L151
 738:Drivers/lvgl/src/core/lv_obj_tree.c ****         disp->screens = lv_realloc(disp->screens, disp->screen_cnt * sizeof(lv_obj_t *));
 1567              		.loc 1 738 9 is_stmt 1 view .LVU491
 738:Drivers/lvgl/src/core/lv_obj_tree.c ****         disp->screens = lv_realloc(disp->screens, disp->screen_cnt * sizeof(lv_obj_t *));
 1568              		.loc 1 738 25 is_stmt 0 view .LVU492
 1569 014c C4F8D812 		str	r1, [r4, #728]
 739:Drivers/lvgl/src/core/lv_obj_tree.c ****     }
 1570              		.loc 1 739 9 is_stmt 1 view .LVU493
 739:Drivers/lvgl/src/core/lv_obj_tree.c ****     }
 1571              		.loc 1 739 25 is_stmt 0 view .LVU494
 1572 0150 8900     		lsls	r1, r1, #2
 1573 0152 D4F8BC02 		ldr	r0, [r4, #700]
 1574 0156 FFF7FEFF 		bl	lv_realloc
 1575              	.LVL169:
 739:Drivers/lvgl/src/core/lv_obj_tree.c ****     }
 1576              		.loc 1 739 23 discriminator 1 view .LVU495
 1577 015a C4F8BC02 		str	r0, [r4, #700]
 1578              	.LBE12:
ARM GAS  /var/folders/qx/2_175_4n2s19vhvtspjhb3qh0000gn/T//cc9Gd54N.s 			page 51


 1579 015e 08E0     		b	.L152
 1580              	.LVL170:
 1581              	.L167:
 1582              	.LBB13:
 748:Drivers/lvgl/src/core/lv_obj_tree.c ****         obj->parent->spec_attr->children = lv_realloc(obj->parent->spec_attr->children,
 1583              		.loc 1 748 9 is_stmt 1 view .LVU496
 748:Drivers/lvgl/src/core/lv_obj_tree.c ****         obj->parent->spec_attr->children = lv_realloc(obj->parent->spec_attr->children,
 1584              		.loc 1 748 42 is_stmt 0 view .LVU497
 1585 0160 1986     		strh	r1, [r3, #48]	@ movhi
 749:Drivers/lvgl/src/core/lv_obj_tree.c ****                                                       obj->parent->spec_attr->child_cnt * sizeof(lv
 1586              		.loc 1 749 9 is_stmt 1 view .LVU498
 749:Drivers/lvgl/src/core/lv_obj_tree.c ****                                                       obj->parent->spec_attr->child_cnt * sizeof(lv
 1587              		.loc 1 749 58 is_stmt 0 view .LVU499
 1588 0162 6B68     		ldr	r3, [r5, #4]
 749:Drivers/lvgl/src/core/lv_obj_tree.c ****                                                       obj->parent->spec_attr->child_cnt * sizeof(lv
 1589              		.loc 1 749 66 view .LVU500
 1590 0164 9C68     		ldr	r4, [r3, #8]
 1591              	.LVL171:
 750:Drivers/lvgl/src/core/lv_obj_tree.c ****     }
 1592              		.loc 1 750 77 view .LVU501
 1593 0166 218E     		ldrh	r1, [r4, #48]
 749:Drivers/lvgl/src/core/lv_obj_tree.c ****                                                       obj->parent->spec_attr->child_cnt * sizeof(lv
 1594              		.loc 1 749 44 view .LVU502
 1595 0168 8900     		lsls	r1, r1, #2
 1596 016a 2068     		ldr	r0, [r4]
 1597              	.LVL172:
 749:Drivers/lvgl/src/core/lv_obj_tree.c ****                                                       obj->parent->spec_attr->child_cnt * sizeof(lv
 1598              		.loc 1 749 44 view .LVU503
 1599 016c FFF7FEFF 		bl	lv_realloc
 1600              	.LVL173:
 749:Drivers/lvgl/src/core/lv_obj_tree.c ****                                                       obj->parent->spec_attr->child_cnt * sizeof(lv
 1601              		.loc 1 749 42 discriminator 1 view .LVU504
 1602 0170 2060     		str	r0, [r4]
 1603              	.LVL174:
 1604              	.L152:
 749:Drivers/lvgl/src/core/lv_obj_tree.c ****                                                       obj->parent->spec_attr->child_cnt * sizeof(lv
 1605              		.loc 1 749 42 discriminator 1 view .LVU505
 1606              	.LBE13:
 754:Drivers/lvgl/src/core/lv_obj_tree.c **** }
 1607              		.loc 1 754 5 is_stmt 1 view .LVU506
 1608 0172 2846     		mov	r0, r5
 1609 0174 FFF7FEFF 		bl	lv_free
 1610              	.LVL175:
 1611              	.L130:
 755:Drivers/lvgl/src/core/lv_obj_tree.c **** 
 1612              		.loc 1 755 1 is_stmt 0 view .LVU507
 1613 0178 70BD     		pop	{r4, r5, r6, pc}
 1614              	.LVL176:
 1615              	.L169:
 755:Drivers/lvgl/src/core/lv_obj_tree.c **** 
 1616              		.loc 1 755 1 view .LVU508
 1617 017a 00BF     		.align	2
 1618              	.L168:
 1619 017c 00000000 		.word	lv_obj_delete_async_cb
 1620              		.cfi_endproc
 1621              	.LFE216:
 1623              		.section	.text.lv_obj_delete,"ax",%progbits
ARM GAS  /var/folders/qx/2_175_4n2s19vhvtspjhb3qh0000gn/T//cc9Gd54N.s 			page 52


 1624              		.align	1
 1625              		.global	lv_obj_delete
 1626              		.syntax unified
 1627              		.thumb
 1628              		.thumb_func
 1630              	lv_obj_delete:
 1631              	.LVL177:
 1632              	.LFB193:
  57:Drivers/lvgl/src/core/lv_obj_tree.c ****     if(obj->is_deleting)
 1633              		.loc 1 57 1 is_stmt 1 view -0
 1634              		.cfi_startproc
 1635              		@ args = 0, pretend = 0, frame = 0
 1636              		@ frame_needed = 0, uses_anonymous_args = 0
  57:Drivers/lvgl/src/core/lv_obj_tree.c ****     if(obj->is_deleting)
 1637              		.loc 1 57 1 is_stmt 0 view .LVU510
 1638 0000 F8B5     		push	{r3, r4, r5, r6, r7, lr}
 1639              	.LCFI29:
 1640              		.cfi_def_cfa_offset 24
 1641              		.cfi_offset 3, -24
 1642              		.cfi_offset 4, -20
 1643              		.cfi_offset 5, -16
 1644              		.cfi_offset 6, -12
 1645              		.cfi_offset 7, -8
 1646              		.cfi_offset 14, -4
  58:Drivers/lvgl/src/core/lv_obj_tree.c ****         return;
 1647              		.loc 1 58 5 is_stmt 1 view .LVU511
  58:Drivers/lvgl/src/core/lv_obj_tree.c ****         return;
 1648              		.loc 1 58 8 is_stmt 0 view .LVU512
 1649 0002 90F82B30 		ldrb	r3, [r0, #43]	@ zero_extendqisi2
  58:Drivers/lvgl/src/core/lv_obj_tree.c ****         return;
 1650              		.loc 1 58 7 view .LVU513
 1651 0006 13F0400F 		tst	r3, #64
 1652 000a 00D0     		beq	.L177
 1653              	.LVL178:
 1654              	.L170:
  92:Drivers/lvgl/src/core/lv_obj_tree.c **** 
 1655              		.loc 1 92 1 view .LVU514
 1656 000c F8BD     		pop	{r3, r4, r5, r6, r7, pc}
 1657              	.LVL179:
 1658              	.L177:
  92:Drivers/lvgl/src/core/lv_obj_tree.c **** 
 1659              		.loc 1 92 1 view .LVU515
 1660 000e 0446     		mov	r4, r0
  61:Drivers/lvgl/src/core/lv_obj_tree.c ****     LV_ASSERT_OBJ(obj, MY_CLASS);
 1661              		.loc 1 61 5 is_stmt 1 view .LVU516
  61:Drivers/lvgl/src/core/lv_obj_tree.c ****     LV_ASSERT_OBJ(obj, MY_CLASS);
 1662              		.loc 1 61 5 view .LVU517
  61:Drivers/lvgl/src/core/lv_obj_tree.c ****     LV_ASSERT_OBJ(obj, MY_CLASS);
 1663              		.loc 1 61 5 view .LVU518
  62:Drivers/lvgl/src/core/lv_obj_tree.c ****     lv_obj_invalidate(obj);
 1664              		.loc 1 62 5 view .LVU519
  62:Drivers/lvgl/src/core/lv_obj_tree.c ****     lv_obj_invalidate(obj);
 1665              		.loc 1 62 5 view .LVU520
  62:Drivers/lvgl/src/core/lv_obj_tree.c ****     lv_obj_invalidate(obj);
 1666              		.loc 1 62 5 view .LVU521
  62:Drivers/lvgl/src/core/lv_obj_tree.c ****     lv_obj_invalidate(obj);
 1667              		.loc 1 62 33 view .LVU522
ARM GAS  /var/folders/qx/2_175_4n2s19vhvtspjhb3qh0000gn/T//cc9Gd54N.s 			page 53


  63:Drivers/lvgl/src/core/lv_obj_tree.c **** 
 1668              		.loc 1 63 5 view .LVU523
 1669 0010 FFF7FEFF 		bl	lv_obj_invalidate
 1670              	.LVL180:
  65:Drivers/lvgl/src/core/lv_obj_tree.c **** 
 1671              		.loc 1 65 5 view .LVU524
  65:Drivers/lvgl/src/core/lv_obj_tree.c **** 
 1672              		.loc 1 65 22 is_stmt 0 view .LVU525
 1673 0014 2046     		mov	r0, r4
 1674 0016 FFF7FEFF 		bl	lv_obj_get_parent
 1675              	.LVL181:
  67:Drivers/lvgl/src/core/lv_obj_tree.c ****     bool act_screen_del = false;
 1676              		.loc 1 67 5 is_stmt 1 view .LVU526
  68:Drivers/lvgl/src/core/lv_obj_tree.c ****     if(par == NULL) {
 1677              		.loc 1 68 5 view .LVU527
  69:Drivers/lvgl/src/core/lv_obj_tree.c ****         disp = lv_obj_get_display(obj);
 1678              		.loc 1 69 5 view .LVU528
  69:Drivers/lvgl/src/core/lv_obj_tree.c ****         disp = lv_obj_get_display(obj);
 1679              		.loc 1 69 7 is_stmt 0 view .LVU529
 1680 001a 0546     		mov	r5, r0
 1681 001c 80B1     		cbz	r0, .L178
  68:Drivers/lvgl/src/core/lv_obj_tree.c ****     if(par == NULL) {
 1682              		.loc 1 68 10 view .LVU530
 1683 001e 0026     		movs	r6, #0
  67:Drivers/lvgl/src/core/lv_obj_tree.c ****     bool act_screen_del = false;
 1684              		.loc 1 67 20 view .LVU531
 1685 0020 3746     		mov	r7, r6
 1686              	.LVL182:
 1687              	.L172:
  75:Drivers/lvgl/src/core/lv_obj_tree.c **** 
 1688              		.loc 1 75 5 is_stmt 1 view .LVU532
 1689 0022 2046     		mov	r0, r4
 1690 0024 FFF7FEFF 		bl	obj_delete_core
 1691              	.LVL183:
  78:Drivers/lvgl/src/core/lv_obj_tree.c ****         lv_obj_scrollbar_invalidate(par);
 1692              		.loc 1 78 5 view .LVU533
  78:Drivers/lvgl/src/core/lv_obj_tree.c ****         lv_obj_scrollbar_invalidate(par);
 1693              		.loc 1 78 7 is_stmt 0 view .LVU534
 1694 0028 25B1     		cbz	r5, .L173
  78:Drivers/lvgl/src/core/lv_obj_tree.c ****         lv_obj_scrollbar_invalidate(par);
 1695              		.loc 1 78 15 discriminator 1 view .LVU535
 1696 002a 95F82B30 		ldrb	r3, [r5, #43]	@ zero_extendqisi2
  78:Drivers/lvgl/src/core/lv_obj_tree.c ****         lv_obj_scrollbar_invalidate(par);
 1697              		.loc 1 78 12 discriminator 1 view .LVU536
 1698 002e 13F0400F 		tst	r3, #64
 1699 0032 13D0     		beq	.L179
 1700              	.L173:
  85:Drivers/lvgl/src/core/lv_obj_tree.c ****         LV_LOG_WARN("the active screen was deleted");
 1701              		.loc 1 85 5 is_stmt 1 view .LVU537
  85:Drivers/lvgl/src/core/lv_obj_tree.c ****         LV_LOG_WARN("the active screen was deleted");
 1702              		.loc 1 85 7 is_stmt 0 view .LVU538
 1703 0034 002E     		cmp	r6, #0
 1704 0036 E9D0     		beq	.L170
  86:Drivers/lvgl/src/core/lv_obj_tree.c ****         disp->act_scr = NULL;
 1705              		.loc 1 86 9 is_stmt 1 view .LVU539
  86:Drivers/lvgl/src/core/lv_obj_tree.c ****         disp->act_scr = NULL;
 1706              		.loc 1 86 9 view .LVU540
ARM GAS  /var/folders/qx/2_175_4n2s19vhvtspjhb3qh0000gn/T//cc9Gd54N.s 			page 54


  86:Drivers/lvgl/src/core/lv_obj_tree.c ****         disp->act_scr = NULL;
 1707              		.loc 1 86 9 view .LVU541
  87:Drivers/lvgl/src/core/lv_obj_tree.c ****     }
 1708              		.loc 1 87 9 view .LVU542
  87:Drivers/lvgl/src/core/lv_obj_tree.c ****     }
 1709              		.loc 1 87 23 is_stmt 0 view .LVU543
 1710 0038 0023     		movs	r3, #0
 1711 003a C7F8C832 		str	r3, [r7, #712]
  90:Drivers/lvgl/src/core/lv_obj_tree.c ****     LV_LOG_TRACE("finished (delete %p)", (void *)obj);
 1712              		.loc 1 90 30 is_stmt 1 view .LVU544
  91:Drivers/lvgl/src/core/lv_obj_tree.c **** }
 1713              		.loc 1 91 5 view .LVU545
  91:Drivers/lvgl/src/core/lv_obj_tree.c **** }
 1714              		.loc 1 91 5 view .LVU546
  91:Drivers/lvgl/src/core/lv_obj_tree.c **** }
 1715              		.loc 1 91 5 view .LVU547
 1716 003e E5E7     		b	.L170
 1717              	.LVL184:
 1718              	.L178:
  70:Drivers/lvgl/src/core/lv_obj_tree.c ****         if(!disp) return;   /*Shouldn't happen*/
 1719              		.loc 1 70 9 view .LVU548
  70:Drivers/lvgl/src/core/lv_obj_tree.c ****         if(!disp) return;   /*Shouldn't happen*/
 1720              		.loc 1 70 16 is_stmt 0 view .LVU549
 1721 0040 2046     		mov	r0, r4
 1722              	.LVL185:
  70:Drivers/lvgl/src/core/lv_obj_tree.c ****         if(!disp) return;   /*Shouldn't happen*/
 1723              		.loc 1 70 16 view .LVU550
 1724 0042 FFF7FEFF 		bl	lv_obj_get_display
 1725              	.LVL186:
  71:Drivers/lvgl/src/core/lv_obj_tree.c ****         if(disp->act_scr == obj) act_screen_del = true;
 1726              		.loc 1 71 9 is_stmt 1 view .LVU551
  71:Drivers/lvgl/src/core/lv_obj_tree.c ****         if(disp->act_scr == obj) act_screen_del = true;
 1727              		.loc 1 71 11 is_stmt 0 view .LVU552
 1728 0046 0746     		mov	r7, r0
 1729 0048 0028     		cmp	r0, #0
 1730 004a DFD0     		beq	.L170
  72:Drivers/lvgl/src/core/lv_obj_tree.c ****     }
 1731              		.loc 1 72 9 is_stmt 1 view .LVU553
  72:Drivers/lvgl/src/core/lv_obj_tree.c ****     }
 1732              		.loc 1 72 16 is_stmt 0 view .LVU554
 1733 004c D0F8C832 		ldr	r3, [r0, #712]
  72:Drivers/lvgl/src/core/lv_obj_tree.c ****     }
 1734              		.loc 1 72 11 view .LVU555
 1735 0050 A342     		cmp	r3, r4
 1736 0052 01D0     		beq	.L175
  68:Drivers/lvgl/src/core/lv_obj_tree.c ****     if(par == NULL) {
 1737              		.loc 1 68 10 view .LVU556
 1738 0054 0026     		movs	r6, #0
 1739 0056 E4E7     		b	.L172
 1740              	.L175:
  72:Drivers/lvgl/src/core/lv_obj_tree.c ****     }
 1741              		.loc 1 72 49 discriminator 1 view .LVU557
 1742 0058 0126     		movs	r6, #1
 1743 005a E2E7     		b	.L172
 1744              	.LVL187:
 1745              	.L179:
  79:Drivers/lvgl/src/core/lv_obj_tree.c ****         lv_obj_send_event(par, LV_EVENT_CHILD_CHANGED, NULL);
ARM GAS  /var/folders/qx/2_175_4n2s19vhvtspjhb3qh0000gn/T//cc9Gd54N.s 			page 55


 1746              		.loc 1 79 9 is_stmt 1 view .LVU558
 1747 005c 2846     		mov	r0, r5
 1748 005e FFF7FEFF 		bl	lv_obj_scrollbar_invalidate
 1749              	.LVL188:
  80:Drivers/lvgl/src/core/lv_obj_tree.c ****         lv_obj_send_event(par, LV_EVENT_CHILD_DELETED, NULL);
 1750              		.loc 1 80 9 view .LVU559
 1751 0062 0022     		movs	r2, #0
 1752 0064 2B21     		movs	r1, #43
 1753 0066 2846     		mov	r0, r5
 1754 0068 FFF7FEFF 		bl	lv_obj_send_event
 1755              	.LVL189:
  81:Drivers/lvgl/src/core/lv_obj_tree.c ****     }
 1756              		.loc 1 81 9 view .LVU560
 1757 006c 0022     		movs	r2, #0
 1758 006e 2D21     		movs	r1, #45
 1759 0070 2846     		mov	r0, r5
 1760 0072 FFF7FEFF 		bl	lv_obj_send_event
 1761              	.LVL190:
 1762 0076 DDE7     		b	.L173
 1763              		.cfi_endproc
 1764              	.LFE193:
 1766              		.section	.text.lv_obj_delete_async_cb,"ax",%progbits
 1767              		.align	1
 1768              		.syntax unified
 1769              		.thumb
 1770              		.thumb_func
 1772              	lv_obj_delete_async_cb:
 1773              	.LVL191:
 1774              	.LFB214:
 648:Drivers/lvgl/src/core/lv_obj_tree.c ****     LV_ASSERT_OBJ(obj, MY_CLASS);
 1775              		.loc 1 648 1 view -0
 1776              		.cfi_startproc
 1777              		@ args = 0, pretend = 0, frame = 0
 1778              		@ frame_needed = 0, uses_anonymous_args = 0
 649:Drivers/lvgl/src/core/lv_obj_tree.c **** 
 1779              		.loc 1 649 5 view .LVU562
 649:Drivers/lvgl/src/core/lv_obj_tree.c **** 
 1780              		.loc 1 649 5 view .LVU563
 1781 0000 18B1     		cbz	r0, .L182
 648:Drivers/lvgl/src/core/lv_obj_tree.c ****     LV_ASSERT_OBJ(obj, MY_CLASS);
 1782              		.loc 1 648 1 is_stmt 0 view .LVU564
 1783 0002 08B5     		push	{r3, lr}
 1784              	.LCFI30:
 1785              		.cfi_def_cfa_offset 8
 1786              		.cfi_offset 3, -8
 1787              		.cfi_offset 14, -4
 649:Drivers/lvgl/src/core/lv_obj_tree.c **** 
 1788              		.loc 1 649 5 is_stmt 1 view .LVU565
 649:Drivers/lvgl/src/core/lv_obj_tree.c **** 
 1789              		.loc 1 649 33 view .LVU566
 651:Drivers/lvgl/src/core/lv_obj_tree.c **** }
 1790              		.loc 1 651 5 view .LVU567
 1791 0004 FFF7FEFF 		bl	lv_obj_delete
 1792              	.LVL192:
 652:Drivers/lvgl/src/core/lv_obj_tree.c **** 
 1793              		.loc 1 652 1 is_stmt 0 view .LVU568
 1794 0008 08BD     		pop	{r3, pc}
ARM GAS  /var/folders/qx/2_175_4n2s19vhvtspjhb3qh0000gn/T//cc9Gd54N.s 			page 56


 1795              	.LVL193:
 1796              	.L182:
 1797              	.LCFI31:
 1798              		.cfi_def_cfa_offset 0
 1799              		.cfi_restore 3
 1800              		.cfi_restore 14
 649:Drivers/lvgl/src/core/lv_obj_tree.c **** 
 1801              		.loc 1 649 5 is_stmt 1 view .LVU569
 649:Drivers/lvgl/src/core/lv_obj_tree.c **** 
 1802              		.loc 1 649 5 view .LVU570
 649:Drivers/lvgl/src/core/lv_obj_tree.c **** 
 1803              		.loc 1 649 5 view .LVU571
 649:Drivers/lvgl/src/core/lv_obj_tree.c **** 
 1804              		.loc 1 649 5 view .LVU572
 649:Drivers/lvgl/src/core/lv_obj_tree.c **** 
 1805              		.loc 1 649 5 view .LVU573
 1806 000a FEE7     		b	.L182
 1807              		.cfi_endproc
 1808              	.LFE214:
 1810              		.section	.text.lv_obj_delete_anim_completed_cb,"ax",%progbits
 1811              		.align	1
 1812              		.global	lv_obj_delete_anim_completed_cb
 1813              		.syntax unified
 1814              		.thumb
 1815              		.thumb_func
 1817              	lv_obj_delete_anim_completed_cb:
 1818              	.LVL194:
 1819              	.LFB196:
 137:Drivers/lvgl/src/core/lv_obj_tree.c ****     lv_obj_delete(a->var);
 1820              		.loc 1 137 1 view -0
 1821              		.cfi_startproc
 1822              		@ args = 0, pretend = 0, frame = 0
 1823              		@ frame_needed = 0, uses_anonymous_args = 0
 137:Drivers/lvgl/src/core/lv_obj_tree.c ****     lv_obj_delete(a->var);
 1824              		.loc 1 137 1 is_stmt 0 view .LVU575
 1825 0000 08B5     		push	{r3, lr}
 1826              	.LCFI32:
 1827              		.cfi_def_cfa_offset 8
 1828              		.cfi_offset 3, -8
 1829              		.cfi_offset 14, -4
 138:Drivers/lvgl/src/core/lv_obj_tree.c **** }
 1830              		.loc 1 138 5 is_stmt 1 view .LVU576
 1831 0002 0068     		ldr	r0, [r0]
 1832              	.LVL195:
 138:Drivers/lvgl/src/core/lv_obj_tree.c **** }
 1833              		.loc 1 138 5 is_stmt 0 view .LVU577
 1834 0004 FFF7FEFF 		bl	lv_obj_delete
 1835              	.LVL196:
 139:Drivers/lvgl/src/core/lv_obj_tree.c **** 
 1836              		.loc 1 139 1 view .LVU578
 1837 0008 08BD     		pop	{r3, pc}
 1838              		.cfi_endproc
 1839              	.LFE196:
 1841              		.section	.text.lv_obj_clean,"ax",%progbits
 1842              		.align	1
 1843              		.global	lv_obj_clean
 1844              		.syntax unified
ARM GAS  /var/folders/qx/2_175_4n2s19vhvtspjhb3qh0000gn/T//cc9Gd54N.s 			page 57


 1845              		.thumb
 1846              		.thumb_func
 1848              	lv_obj_clean:
 1849              	.LVL197:
 1850              	.LFB194:
  95:Drivers/lvgl/src/core/lv_obj_tree.c ****     LV_LOG_TRACE("begin (clean %p)", (void *)obj);
 1851              		.loc 1 95 1 is_stmt 1 view -0
 1852              		.cfi_startproc
 1853              		@ args = 0, pretend = 0, frame = 0
 1854              		@ frame_needed = 0, uses_anonymous_args = 0
  96:Drivers/lvgl/src/core/lv_obj_tree.c ****     LV_ASSERT_OBJ(obj, MY_CLASS);
 1855              		.loc 1 96 5 view .LVU580
  96:Drivers/lvgl/src/core/lv_obj_tree.c ****     LV_ASSERT_OBJ(obj, MY_CLASS);
 1856              		.loc 1 96 5 view .LVU581
  96:Drivers/lvgl/src/core/lv_obj_tree.c ****     LV_ASSERT_OBJ(obj, MY_CLASS);
 1857              		.loc 1 96 5 view .LVU582
  97:Drivers/lvgl/src/core/lv_obj_tree.c **** 
 1858              		.loc 1 97 5 view .LVU583
  97:Drivers/lvgl/src/core/lv_obj_tree.c **** 
 1859              		.loc 1 97 5 view .LVU584
 1860 0000 58B1     		cbz	r0, .L189
  95:Drivers/lvgl/src/core/lv_obj_tree.c ****     LV_LOG_TRACE("begin (clean %p)", (void *)obj);
 1861              		.loc 1 95 1 is_stmt 0 view .LVU585
 1862 0002 38B5     		push	{r3, r4, r5, lr}
 1863              	.LCFI33:
 1864              		.cfi_def_cfa_offset 16
 1865              		.cfi_offset 3, -16
 1866              		.cfi_offset 4, -12
 1867              		.cfi_offset 5, -8
 1868              		.cfi_offset 14, -4
 1869 0004 0446     		mov	r4, r0
  97:Drivers/lvgl/src/core/lv_obj_tree.c **** 
 1870              		.loc 1 97 5 is_stmt 1 view .LVU586
  97:Drivers/lvgl/src/core/lv_obj_tree.c **** 
 1871              		.loc 1 97 33 view .LVU587
  99:Drivers/lvgl/src/core/lv_obj_tree.c **** 
 1872              		.loc 1 99 5 view .LVU588
 1873 0006 FFF7FEFF 		bl	lv_obj_invalidate
 1874              	.LVL198:
 101:Drivers/lvgl/src/core/lv_obj_tree.c ****     lv_obj_t * child = lv_obj_get_first_not_deleting_child(obj);
 1875              		.loc 1 101 5 view .LVU589
 101:Drivers/lvgl/src/core/lv_obj_tree.c ****     lv_obj_t * child = lv_obj_get_first_not_deleting_child(obj);
 1876              		.loc 1 101 20 is_stmt 0 view .LVU590
 1877 000a 2046     		mov	r0, r4
 1878 000c FFF7FEFF 		bl	lv_obj_get_child_count
 1879              	.LVL199:
 1880 0010 0546     		mov	r5, r0
 1881              	.LVL200:
 102:Drivers/lvgl/src/core/lv_obj_tree.c ****     while(child) {
 1882              		.loc 1 102 5 is_stmt 1 view .LVU591
 102:Drivers/lvgl/src/core/lv_obj_tree.c ****     while(child) {
 1883              		.loc 1 102 24 is_stmt 0 view .LVU592
 1884 0012 2046     		mov	r0, r4
 1885              	.LVL201:
 102:Drivers/lvgl/src/core/lv_obj_tree.c ****     while(child) {
 1886              		.loc 1 102 24 view .LVU593
 1887 0014 FFF7FEFF 		bl	lv_obj_get_first_not_deleting_child
ARM GAS  /var/folders/qx/2_175_4n2s19vhvtspjhb3qh0000gn/T//cc9Gd54N.s 			page 58


 1888              	.LVL202:
 103:Drivers/lvgl/src/core/lv_obj_tree.c ****         obj_delete_core(child);
 1889              		.loc 1 103 5 is_stmt 1 view .LVU594
 103:Drivers/lvgl/src/core/lv_obj_tree.c ****         obj_delete_core(child);
 1890              		.loc 1 103 10 is_stmt 0 view .LVU595
 1891 0018 05E0     		b	.L190
 1892              	.LVL203:
 1893              	.L189:
 1894              	.LCFI34:
 1895              		.cfi_def_cfa_offset 0
 1896              		.cfi_restore 3
 1897              		.cfi_restore 4
 1898              		.cfi_restore 5
 1899              		.cfi_restore 14
  97:Drivers/lvgl/src/core/lv_obj_tree.c **** 
 1900              		.loc 1 97 5 is_stmt 1 view .LVU596
  97:Drivers/lvgl/src/core/lv_obj_tree.c **** 
 1901              		.loc 1 97 5 view .LVU597
  97:Drivers/lvgl/src/core/lv_obj_tree.c **** 
 1902              		.loc 1 97 5 view .LVU598
  97:Drivers/lvgl/src/core/lv_obj_tree.c **** 
 1903              		.loc 1 97 5 view .LVU599
  97:Drivers/lvgl/src/core/lv_obj_tree.c **** 
 1904              		.loc 1 97 5 view .LVU600
 1905 001a FEE7     		b	.L189
 1906              	.LVL204:
 1907              	.L191:
 1908              	.LCFI35:
 1909              		.cfi_def_cfa_offset 16
 1910              		.cfi_offset 3, -16
 1911              		.cfi_offset 4, -12
 1912              		.cfi_offset 5, -8
 1913              		.cfi_offset 14, -4
 104:Drivers/lvgl/src/core/lv_obj_tree.c ****         child = lv_obj_get_first_not_deleting_child(obj);
 1914              		.loc 1 104 9 view .LVU601
 1915 001c FFF7FEFF 		bl	obj_delete_core
 1916              	.LVL205:
 105:Drivers/lvgl/src/core/lv_obj_tree.c ****     }
 1917              		.loc 1 105 9 view .LVU602
 105:Drivers/lvgl/src/core/lv_obj_tree.c ****     }
 1918              		.loc 1 105 17 is_stmt 0 view .LVU603
 1919 0020 2046     		mov	r0, r4
 1920 0022 FFF7FEFF 		bl	lv_obj_get_first_not_deleting_child
 1921              	.LVL206:
 1922              	.L190:
 103:Drivers/lvgl/src/core/lv_obj_tree.c ****         obj_delete_core(child);
 1923              		.loc 1 103 11 is_stmt 1 view .LVU604
 1924 0026 0028     		cmp	r0, #0
 1925 0028 F8D1     		bne	.L191
 108:Drivers/lvgl/src/core/lv_obj_tree.c ****     if(obj->spec_attr) {
 1926              		.loc 1 108 5 view .LVU605
 1927 002a 0023     		movs	r3, #0
 1928 002c 1A46     		mov	r2, r3
 1929 002e 1946     		mov	r1, r3
 1930 0030 2046     		mov	r0, r4
 1931              	.LVL207:
 108:Drivers/lvgl/src/core/lv_obj_tree.c ****     if(obj->spec_attr) {
ARM GAS  /var/folders/qx/2_175_4n2s19vhvtspjhb3qh0000gn/T//cc9Gd54N.s 			page 59


 1932              		.loc 1 108 5 is_stmt 0 view .LVU606
 1933 0032 FFF7FEFF 		bl	lv_obj_scroll_to
 1934              	.LVL208:
 109:Drivers/lvgl/src/core/lv_obj_tree.c ****         obj->spec_attr->scroll.x = 0;
 1935              		.loc 1 109 5 is_stmt 1 view .LVU607
 109:Drivers/lvgl/src/core/lv_obj_tree.c ****         obj->spec_attr->scroll.x = 0;
 1936              		.loc 1 109 11 is_stmt 0 view .LVU608
 1937 0036 A368     		ldr	r3, [r4, #8]
 109:Drivers/lvgl/src/core/lv_obj_tree.c ****         obj->spec_attr->scroll.x = 0;
 1938              		.loc 1 109 7 view .LVU609
 1939 0038 1BB1     		cbz	r3, .L192
 110:Drivers/lvgl/src/core/lv_obj_tree.c ****         obj->spec_attr->scroll.y = 0;
 1940              		.loc 1 110 9 is_stmt 1 view .LVU610
 110:Drivers/lvgl/src/core/lv_obj_tree.c ****         obj->spec_attr->scroll.y = 0;
 1941              		.loc 1 110 34 is_stmt 0 view .LVU611
 1942 003a 0022     		movs	r2, #0
 1943 003c 1A62     		str	r2, [r3, #32]
 111:Drivers/lvgl/src/core/lv_obj_tree.c ****     }
 1944              		.loc 1 111 9 is_stmt 1 view .LVU612
 111:Drivers/lvgl/src/core/lv_obj_tree.c ****     }
 1945              		.loc 1 111 12 is_stmt 0 view .LVU613
 1946 003e A368     		ldr	r3, [r4, #8]
 111:Drivers/lvgl/src/core/lv_obj_tree.c ****     }
 1947              		.loc 1 111 34 view .LVU614
 1948 0040 5A62     		str	r2, [r3, #36]
 1949              	.L192:
 114:Drivers/lvgl/src/core/lv_obj_tree.c ****         lv_obj_send_event(obj, LV_EVENT_CHILD_CHANGED, NULL);
 1950              		.loc 1 114 5 is_stmt 1 view .LVU615
 114:Drivers/lvgl/src/core/lv_obj_tree.c ****         lv_obj_send_event(obj, LV_EVENT_CHILD_CHANGED, NULL);
 1951              		.loc 1 114 8 is_stmt 0 view .LVU616
 1952 0042 2046     		mov	r0, r4
 1953 0044 FFF7FEFF 		bl	lv_obj_get_child_count
 1954              	.LVL209:
 114:Drivers/lvgl/src/core/lv_obj_tree.c ****         lv_obj_send_event(obj, LV_EVENT_CHILD_CHANGED, NULL);
 1955              		.loc 1 114 7 discriminator 1 view .LVU617
 1956 0048 A842     		cmp	r0, r5
 1957 004a 00D3     		bcc	.L196
 1958              	.L187:
 122:Drivers/lvgl/src/core/lv_obj_tree.c **** 
 1959              		.loc 1 122 1 view .LVU618
 1960 004c 38BD     		pop	{r3, r4, r5, pc}
 1961              	.LVL210:
 1962              	.L196:
 115:Drivers/lvgl/src/core/lv_obj_tree.c ****         lv_obj_send_event(obj, LV_EVENT_CHILD_DELETED, NULL);
 1963              		.loc 1 115 9 is_stmt 1 view .LVU619
 1964 004e 0022     		movs	r2, #0
 1965 0050 2B21     		movs	r1, #43
 1966 0052 2046     		mov	r0, r4
 1967 0054 FFF7FEFF 		bl	lv_obj_send_event
 1968              	.LVL211:
 116:Drivers/lvgl/src/core/lv_obj_tree.c ****     }
 1969              		.loc 1 116 9 view .LVU620
 1970 0058 0022     		movs	r2, #0
 1971 005a 2D21     		movs	r1, #45
 1972 005c 2046     		mov	r0, r4
 1973 005e FFF7FEFF 		bl	lv_obj_send_event
 1974              	.LVL212:
ARM GAS  /var/folders/qx/2_175_4n2s19vhvtspjhb3qh0000gn/T//cc9Gd54N.s 			page 60


 119:Drivers/lvgl/src/core/lv_obj_tree.c **** 
 1975              		.loc 1 119 30 view .LVU621
 121:Drivers/lvgl/src/core/lv_obj_tree.c **** }
 1976              		.loc 1 121 5 view .LVU622
 121:Drivers/lvgl/src/core/lv_obj_tree.c **** }
 1977              		.loc 1 121 5 view .LVU623
 121:Drivers/lvgl/src/core/lv_obj_tree.c **** }
 1978              		.loc 1 121 5 view .LVU624
 122:Drivers/lvgl/src/core/lv_obj_tree.c **** 
 1979              		.loc 1 122 1 is_stmt 0 view .LVU625
 1980 0062 F3E7     		b	.L187
 1981              		.cfi_endproc
 1982              	.LFE194:
 1984              		.section	.text.lv_obj_set_parent,"ax",%progbits
 1985              		.align	1
 1986              		.global	lv_obj_set_parent
 1987              		.syntax unified
 1988              		.thumb
 1989              		.thumb_func
 1991              	lv_obj_set_parent:
 1992              	.LVL213:
 1993              	.LFB198:
 148:Drivers/lvgl/src/core/lv_obj_tree.c ****     LV_ASSERT_OBJ(obj, MY_CLASS);
 1994              		.loc 1 148 1 is_stmt 1 view -0
 1995              		.cfi_startproc
 1996              		@ args = 0, pretend = 0, frame = 0
 1997              		@ frame_needed = 0, uses_anonymous_args = 0
 149:Drivers/lvgl/src/core/lv_obj_tree.c ****     LV_ASSERT_OBJ(parent, MY_CLASS);
 1998              		.loc 1 149 5 view .LVU627
 149:Drivers/lvgl/src/core/lv_obj_tree.c ****     LV_ASSERT_OBJ(parent, MY_CLASS);
 1999              		.loc 1 149 5 view .LVU628
 2000 0000 98B1     		cbz	r0, .L199
 148:Drivers/lvgl/src/core/lv_obj_tree.c ****     LV_ASSERT_OBJ(obj, MY_CLASS);
 2001              		.loc 1 148 1 is_stmt 0 view .LVU629
 2002 0002 F8B5     		push	{r3, r4, r5, r6, r7, lr}
 2003              	.LCFI36:
 2004              		.cfi_def_cfa_offset 24
 2005              		.cfi_offset 3, -24
 2006              		.cfi_offset 4, -20
 2007              		.cfi_offset 5, -16
 2008              		.cfi_offset 6, -12
 2009              		.cfi_offset 7, -8
 2010              		.cfi_offset 14, -4
 2011 0004 0E46     		mov	r6, r1
 2012 0006 0746     		mov	r7, r0
 149:Drivers/lvgl/src/core/lv_obj_tree.c ****     LV_ASSERT_OBJ(parent, MY_CLASS);
 2013              		.loc 1 149 5 is_stmt 1 view .LVU630
 149:Drivers/lvgl/src/core/lv_obj_tree.c ****     LV_ASSERT_OBJ(parent, MY_CLASS);
 2014              		.loc 1 149 33 view .LVU631
 150:Drivers/lvgl/src/core/lv_obj_tree.c **** 
 2015              		.loc 1 150 5 view .LVU632
 150:Drivers/lvgl/src/core/lv_obj_tree.c **** 
 2016              		.loc 1 150 5 view .LVU633
 2017 0008 81B1     		cbz	r1, .L201
 150:Drivers/lvgl/src/core/lv_obj_tree.c **** 
 2018              		.loc 1 150 5 view .LVU634
 150:Drivers/lvgl/src/core/lv_obj_tree.c **** 
ARM GAS  /var/folders/qx/2_175_4n2s19vhvtspjhb3qh0000gn/T//cc9Gd54N.s 			page 61


 2019              		.loc 1 150 36 view .LVU635
 152:Drivers/lvgl/src/core/lv_obj_tree.c ****         LV_LOG_WARN("Can't set the parent of a screen");
 2020              		.loc 1 152 5 view .LVU636
 152:Drivers/lvgl/src/core/lv_obj_tree.c ****         LV_LOG_WARN("Can't set the parent of a screen");
 2021              		.loc 1 152 11 is_stmt 0 view .LVU637
 2022 000a 4368     		ldr	r3, [r0, #4]
 152:Drivers/lvgl/src/core/lv_obj_tree.c ****         LV_LOG_WARN("Can't set the parent of a screen");
 2023              		.loc 1 152 7 view .LVU638
 2024 000c 002B     		cmp	r3, #0
 2025 000e 5CD0     		beq	.L197
 157:Drivers/lvgl/src/core/lv_obj_tree.c ****         LV_LOG_WARN("Can't set parent == NULL to an object");
 2026              		.loc 1 157 5 is_stmt 1 view .LVU639
 162:Drivers/lvgl/src/core/lv_obj_tree.c ****         return;
 2027              		.loc 1 162 5 view .LVU640
 162:Drivers/lvgl/src/core/lv_obj_tree.c ****         return;
 2028              		.loc 1 162 7 is_stmt 0 view .LVU641
 2029 0010 8B42     		cmp	r3, r1
 2030 0012 5AD0     		beq	.L197
 166:Drivers/lvgl/src/core/lv_obj_tree.c **** 
 2031              		.loc 1 166 5 is_stmt 1 view .LVU642
 2032 0014 FFF7FEFF 		bl	lv_obj_invalidate
 2033              	.LVL214:
 168:Drivers/lvgl/src/core/lv_obj_tree.c **** 
 2034              		.loc 1 168 5 view .LVU643
 2035 0018 3046     		mov	r0, r6
 2036 001a FFF7FEFF 		bl	lv_obj_allocate_spec_attr
 2037              	.LVL215:
 170:Drivers/lvgl/src/core/lv_obj_tree.c ****     /*Remove the object from the old parent's child list*/
 2038              		.loc 1 170 5 view .LVU644
 170:Drivers/lvgl/src/core/lv_obj_tree.c ****     /*Remove the object from the old parent's child list*/
 2039              		.loc 1 170 16 is_stmt 0 view .LVU645
 2040 001e 7D68     		ldr	r5, [r7, #4]
 2041              	.LVL216:
 172:Drivers/lvgl/src/core/lv_obj_tree.c ****     for(i = lv_obj_get_index(obj); i <= (int32_t)lv_obj_get_child_count(old_parent) - 2; i++) {
 2042              		.loc 1 172 5 is_stmt 1 view .LVU646
 173:Drivers/lvgl/src/core/lv_obj_tree.c ****         old_parent->spec_attr->children[i] = old_parent->spec_attr->children[i + 1];
 2043              		.loc 1 173 5 view .LVU647
 173:Drivers/lvgl/src/core/lv_obj_tree.c ****         old_parent->spec_attr->children[i] = old_parent->spec_attr->children[i + 1];
 2044              		.loc 1 173 13 is_stmt 0 view .LVU648
 2045 0020 3846     		mov	r0, r7
 2046 0022 FFF7FEFF 		bl	lv_obj_get_index
 2047              	.LVL217:
 2048 0026 0446     		mov	r4, r0
 2049              	.LVL218:
 173:Drivers/lvgl/src/core/lv_obj_tree.c ****         old_parent->spec_attr->children[i] = old_parent->spec_attr->children[i + 1];
 2050              		.loc 1 173 5 view .LVU649
 2051 0028 09E0     		b	.L203
 2052              	.LVL219:
 2053              	.L199:
 2054              	.LCFI37:
 2055              		.cfi_def_cfa_offset 0
 2056              		.cfi_restore 3
 2057              		.cfi_restore 4
 2058              		.cfi_restore 5
 2059              		.cfi_restore 6
 2060              		.cfi_restore 7
 2061              		.cfi_restore 14
ARM GAS  /var/folders/qx/2_175_4n2s19vhvtspjhb3qh0000gn/T//cc9Gd54N.s 			page 62


 149:Drivers/lvgl/src/core/lv_obj_tree.c ****     LV_ASSERT_OBJ(parent, MY_CLASS);
 2062              		.loc 1 149 5 is_stmt 1 view .LVU650
 149:Drivers/lvgl/src/core/lv_obj_tree.c ****     LV_ASSERT_OBJ(parent, MY_CLASS);
 2063              		.loc 1 149 5 view .LVU651
 149:Drivers/lvgl/src/core/lv_obj_tree.c ****     LV_ASSERT_OBJ(parent, MY_CLASS);
 2064              		.loc 1 149 5 view .LVU652
 149:Drivers/lvgl/src/core/lv_obj_tree.c ****     LV_ASSERT_OBJ(parent, MY_CLASS);
 2065              		.loc 1 149 5 view .LVU653
 149:Drivers/lvgl/src/core/lv_obj_tree.c ****     LV_ASSERT_OBJ(parent, MY_CLASS);
 2066              		.loc 1 149 5 view .LVU654
 2067 002a FEE7     		b	.L199
 2068              	.L201:
 2069              	.LCFI38:
 2070              		.cfi_def_cfa_offset 24
 2071              		.cfi_offset 3, -24
 2072              		.cfi_offset 4, -20
 2073              		.cfi_offset 5, -16
 2074              		.cfi_offset 6, -12
 2075              		.cfi_offset 7, -8
 2076              		.cfi_offset 14, -4
 150:Drivers/lvgl/src/core/lv_obj_tree.c **** 
 2077              		.loc 1 150 5 view .LVU655
 150:Drivers/lvgl/src/core/lv_obj_tree.c **** 
 2078              		.loc 1 150 5 view .LVU656
 150:Drivers/lvgl/src/core/lv_obj_tree.c **** 
 2079              		.loc 1 150 5 view .LVU657
 150:Drivers/lvgl/src/core/lv_obj_tree.c **** 
 2080              		.loc 1 150 5 view .LVU658
 150:Drivers/lvgl/src/core/lv_obj_tree.c **** 
 2081              		.loc 1 150 5 view .LVU659
 2082 002c FEE7     		b	.L201
 2083              	.LVL220:
 2084              	.L204:
 174:Drivers/lvgl/src/core/lv_obj_tree.c ****     }
 2085              		.loc 1 174 9 view .LVU660
 174:Drivers/lvgl/src/core/lv_obj_tree.c ****     }
 2086              		.loc 1 174 56 is_stmt 0 view .LVU661
 2087 002e AB68     		ldr	r3, [r5, #8]
 174:Drivers/lvgl/src/core/lv_obj_tree.c ****     }
 2088              		.loc 1 174 67 view .LVU662
 2089 0030 1A68     		ldr	r2, [r3]
 174:Drivers/lvgl/src/core/lv_obj_tree.c ****     }
 2090              		.loc 1 174 77 view .LVU663
 2091 0032 631C     		adds	r3, r4, #1
 2092 0034 52F82310 		ldr	r1, [r2, r3, lsl #2]
 174:Drivers/lvgl/src/core/lv_obj_tree.c ****     }
 2093              		.loc 1 174 44 view .LVU664
 2094 0038 42F82410 		str	r1, [r2, r4, lsl #2]
 173:Drivers/lvgl/src/core/lv_obj_tree.c ****         old_parent->spec_attr->children[i] = old_parent->spec_attr->children[i + 1];
 2095              		.loc 1 173 91 is_stmt 1 discriminator 3 view .LVU665
 2096 003c 1C46     		mov	r4, r3
 2097              	.LVL221:
 2098              	.L203:
 173:Drivers/lvgl/src/core/lv_obj_tree.c ****         old_parent->spec_attr->children[i] = old_parent->spec_attr->children[i + 1];
 2099              		.loc 1 173 38 discriminator 1 view .LVU666
 173:Drivers/lvgl/src/core/lv_obj_tree.c ****         old_parent->spec_attr->children[i] = old_parent->spec_attr->children[i + 1];
 2100              		.loc 1 173 50 is_stmt 0 discriminator 1 view .LVU667
ARM GAS  /var/folders/qx/2_175_4n2s19vhvtspjhb3qh0000gn/T//cc9Gd54N.s 			page 63


 2101 003e 2846     		mov	r0, r5
 2102 0040 FFF7FEFF 		bl	lv_obj_get_child_count
 2103              	.LVL222:
 173:Drivers/lvgl/src/core/lv_obj_tree.c ****         old_parent->spec_attr->children[i] = old_parent->spec_attr->children[i + 1];
 2104              		.loc 1 173 38 discriminator 1 view .LVU668
 2105 0044 0138     		subs	r0, r0, #1
 2106 0046 A042     		cmp	r0, r4
 2107 0048 F1DC     		bgt	.L204
 176:Drivers/lvgl/src/core/lv_obj_tree.c ****     if(old_parent->spec_attr->child_cnt) {
 2108              		.loc 1 176 5 is_stmt 1 view .LVU669
 176:Drivers/lvgl/src/core/lv_obj_tree.c ****     if(old_parent->spec_attr->child_cnt) {
 2109              		.loc 1 176 15 is_stmt 0 view .LVU670
 2110 004a AA68     		ldr	r2, [r5, #8]
 176:Drivers/lvgl/src/core/lv_obj_tree.c ****     if(old_parent->spec_attr->child_cnt) {
 2111              		.loc 1 176 26 view .LVU671
 2112 004c 138E     		ldrh	r3, [r2, #48]
 176:Drivers/lvgl/src/core/lv_obj_tree.c ****     if(old_parent->spec_attr->child_cnt) {
 2113              		.loc 1 176 37 view .LVU672
 2114 004e 013B     		subs	r3, r3, #1
 2115 0050 1386     		strh	r3, [r2, #48]	@ movhi
 177:Drivers/lvgl/src/core/lv_obj_tree.c ****         old_parent->spec_attr->children = lv_realloc(old_parent->spec_attr->children,
 2116              		.loc 1 177 5 is_stmt 1 view .LVU673
 177:Drivers/lvgl/src/core/lv_obj_tree.c ****         old_parent->spec_attr->children = lv_realloc(old_parent->spec_attr->children,
 2117              		.loc 1 177 18 is_stmt 0 view .LVU674
 2118 0052 AC68     		ldr	r4, [r5, #8]
 2119              	.LVL223:
 177:Drivers/lvgl/src/core/lv_obj_tree.c ****         old_parent->spec_attr->children = lv_realloc(old_parent->spec_attr->children,
 2120              		.loc 1 177 29 view .LVU675
 2121 0054 218E     		ldrh	r1, [r4, #48]
 177:Drivers/lvgl/src/core/lv_obj_tree.c ****         old_parent->spec_attr->children = lv_realloc(old_parent->spec_attr->children,
 2122              		.loc 1 177 7 view .LVU676
 2123 0056 0029     		cmp	r1, #0
 2124 0058 38D0     		beq	.L205
 178:Drivers/lvgl/src/core/lv_obj_tree.c ****                                                      old_parent->spec_attr->child_cnt * (sizeof(lv_
 2125              		.loc 1 178 9 is_stmt 1 view .LVU677
 178:Drivers/lvgl/src/core/lv_obj_tree.c ****                                                      old_parent->spec_attr->child_cnt * (sizeof(lv_
 2126              		.loc 1 178 43 is_stmt 0 view .LVU678
 2127 005a 8900     		lsls	r1, r1, #2
 2128 005c 2068     		ldr	r0, [r4]
 2129 005e FFF7FEFF 		bl	lv_realloc
 2130              	.LVL224:
 178:Drivers/lvgl/src/core/lv_obj_tree.c ****                                                      old_parent->spec_attr->child_cnt * (sizeof(lv_
 2131              		.loc 1 178 41 discriminator 1 view .LVU679
 2132 0062 2060     		str	r0, [r4]
 2133              	.L206:
 187:Drivers/lvgl/src/core/lv_obj_tree.c ****     parent->spec_attr->children = lv_realloc(parent->spec_attr->children,
 2134              		.loc 1 187 5 is_stmt 1 view .LVU680
 187:Drivers/lvgl/src/core/lv_obj_tree.c ****     parent->spec_attr->children = lv_realloc(parent->spec_attr->children,
 2135              		.loc 1 187 11 is_stmt 0 view .LVU681
 2136 0064 B268     		ldr	r2, [r6, #8]
 187:Drivers/lvgl/src/core/lv_obj_tree.c ****     parent->spec_attr->children = lv_realloc(parent->spec_attr->children,
 2137              		.loc 1 187 22 view .LVU682
 2138 0066 138E     		ldrh	r3, [r2, #48]
 187:Drivers/lvgl/src/core/lv_obj_tree.c ****     parent->spec_attr->children = lv_realloc(parent->spec_attr->children,
 2139              		.loc 1 187 33 view .LVU683
 2140 0068 0133     		adds	r3, r3, #1
 2141 006a 1386     		strh	r3, [r2, #48]	@ movhi
ARM GAS  /var/folders/qx/2_175_4n2s19vhvtspjhb3qh0000gn/T//cc9Gd54N.s 			page 64


 188:Drivers/lvgl/src/core/lv_obj_tree.c ****                                              parent->spec_attr->child_cnt * (sizeof(lv_obj_t *)));
 2142              		.loc 1 188 5 is_stmt 1 view .LVU684
 188:Drivers/lvgl/src/core/lv_obj_tree.c ****                                              parent->spec_attr->child_cnt * (sizeof(lv_obj_t *)));
 2143              		.loc 1 188 52 is_stmt 0 view .LVU685
 2144 006c B468     		ldr	r4, [r6, #8]
 189:Drivers/lvgl/src/core/lv_obj_tree.c ****     parent->spec_attr->children[lv_obj_get_child_count(parent) - 1] = obj;
 2145              		.loc 1 189 63 view .LVU686
 2146 006e 218E     		ldrh	r1, [r4, #48]
 188:Drivers/lvgl/src/core/lv_obj_tree.c ****                                              parent->spec_attr->child_cnt * (sizeof(lv_obj_t *)));
 2147              		.loc 1 188 35 view .LVU687
 2148 0070 8900     		lsls	r1, r1, #2
 2149 0072 2068     		ldr	r0, [r4]
 2150 0074 FFF7FEFF 		bl	lv_realloc
 2151              	.LVL225:
 188:Drivers/lvgl/src/core/lv_obj_tree.c ****                                              parent->spec_attr->child_cnt * (sizeof(lv_obj_t *)));
 2152              		.loc 1 188 33 discriminator 1 view .LVU688
 2153 0078 2060     		str	r0, [r4]
 190:Drivers/lvgl/src/core/lv_obj_tree.c **** 
 2154              		.loc 1 190 5 is_stmt 1 view .LVU689
 190:Drivers/lvgl/src/core/lv_obj_tree.c **** 
 2155              		.loc 1 190 11 is_stmt 0 view .LVU690
 2156 007a B368     		ldr	r3, [r6, #8]
 190:Drivers/lvgl/src/core/lv_obj_tree.c **** 
 2157              		.loc 1 190 22 view .LVU691
 2158 007c 1C68     		ldr	r4, [r3]
 190:Drivers/lvgl/src/core/lv_obj_tree.c **** 
 2159              		.loc 1 190 33 view .LVU692
 2160 007e 3046     		mov	r0, r6
 2161 0080 FFF7FEFF 		bl	lv_obj_get_child_count
 2162              	.LVL226:
 190:Drivers/lvgl/src/core/lv_obj_tree.c **** 
 2163              		.loc 1 190 32 discriminator 1 view .LVU693
 2164 0084 00F18043 		add	r3, r0, #1073741824
 2165 0088 013B     		subs	r3, r3, #1
 190:Drivers/lvgl/src/core/lv_obj_tree.c **** 
 2166              		.loc 1 190 69 discriminator 1 view .LVU694
 2167 008a 44F82370 		str	r7, [r4, r3, lsl #2]
 192:Drivers/lvgl/src/core/lv_obj_tree.c **** 
 2168              		.loc 1 192 5 is_stmt 1 view .LVU695
 192:Drivers/lvgl/src/core/lv_obj_tree.c **** 
 2169              		.loc 1 192 17 is_stmt 0 view .LVU696
 2170 008e 7E60     		str	r6, [r7, #4]
 195:Drivers/lvgl/src/core/lv_obj_tree.c ****     lv_obj_send_event(old_parent, LV_EVENT_CHILD_CHANGED, obj);
 2171              		.loc 1 195 5 is_stmt 1 view .LVU697
 2172 0090 2846     		mov	r0, r5
 2173 0092 FFF7FEFF 		bl	lv_obj_scrollbar_invalidate
 2174              	.LVL227:
 196:Drivers/lvgl/src/core/lv_obj_tree.c ****     lv_obj_send_event(old_parent, LV_EVENT_CHILD_DELETED, NULL);
 2175              		.loc 1 196 5 view .LVU698
 2176 0096 3A46     		mov	r2, r7
 2177 0098 2B21     		movs	r1, #43
 2178 009a 2846     		mov	r0, r5
 2179 009c FFF7FEFF 		bl	lv_obj_send_event
 2180              	.LVL228:
 197:Drivers/lvgl/src/core/lv_obj_tree.c **** 
 2181              		.loc 1 197 5 view .LVU699
 2182 00a0 0022     		movs	r2, #0
ARM GAS  /var/folders/qx/2_175_4n2s19vhvtspjhb3qh0000gn/T//cc9Gd54N.s 			page 65


 2183 00a2 2D21     		movs	r1, #45
 2184 00a4 2846     		mov	r0, r5
 2185 00a6 FFF7FEFF 		bl	lv_obj_send_event
 2186              	.LVL229:
 200:Drivers/lvgl/src/core/lv_obj_tree.c ****     lv_obj_send_event(parent, LV_EVENT_CHILD_CREATED, NULL);
 2187              		.loc 1 200 5 view .LVU700
 2188 00aa 3A46     		mov	r2, r7
 2189 00ac 2B21     		movs	r1, #43
 2190 00ae 3046     		mov	r0, r6
 2191 00b0 FFF7FEFF 		bl	lv_obj_send_event
 2192              	.LVL230:
 201:Drivers/lvgl/src/core/lv_obj_tree.c **** 
 2193              		.loc 1 201 5 view .LVU701
 2194 00b4 0022     		movs	r2, #0
 2195 00b6 2C21     		movs	r1, #44
 2196 00b8 3046     		mov	r0, r6
 2197 00ba FFF7FEFF 		bl	lv_obj_send_event
 2198              	.LVL231:
 203:Drivers/lvgl/src/core/lv_obj_tree.c **** 
 2199              		.loc 1 203 5 view .LVU702
 2200 00be 3846     		mov	r0, r7
 2201 00c0 FFF7FEFF 		bl	lv_obj_mark_layout_as_dirty
 2202              	.LVL232:
 205:Drivers/lvgl/src/core/lv_obj_tree.c **** }
 2203              		.loc 1 205 5 view .LVU703
 2204 00c4 3846     		mov	r0, r7
 2205 00c6 FFF7FEFF 		bl	lv_obj_invalidate
 2206              	.LVL233:
 2207              	.L197:
 206:Drivers/lvgl/src/core/lv_obj_tree.c **** 
 2208              		.loc 1 206 1 is_stmt 0 view .LVU704
 2209 00ca F8BD     		pop	{r3, r4, r5, r6, r7, pc}
 2210              	.LVL234:
 2211              	.L205:
 182:Drivers/lvgl/src/core/lv_obj_tree.c ****         old_parent->spec_attr->children = NULL;
 2212              		.loc 1 182 9 is_stmt 1 view .LVU705
 2213 00cc 2068     		ldr	r0, [r4]
 2214 00ce FFF7FEFF 		bl	lv_free
 2215              	.LVL235:
 183:Drivers/lvgl/src/core/lv_obj_tree.c ****     }
 2216              		.loc 1 183 9 view .LVU706
 183:Drivers/lvgl/src/core/lv_obj_tree.c ****     }
 2217              		.loc 1 183 19 is_stmt 0 view .LVU707
 2218 00d2 AB68     		ldr	r3, [r5, #8]
 183:Drivers/lvgl/src/core/lv_obj_tree.c ****     }
 2219              		.loc 1 183 41 view .LVU708
 2220 00d4 0022     		movs	r2, #0
 2221 00d6 1A60     		str	r2, [r3]
 2222 00d8 C4E7     		b	.L206
 2223              		.cfi_endproc
 2224              	.LFE198:
 2226              		.section	.text.lv_obj_move_to_index,"ax",%progbits
 2227              		.align	1
 2228              		.global	lv_obj_move_to_index
 2229              		.syntax unified
 2230              		.thumb
 2231              		.thumb_func
ARM GAS  /var/folders/qx/2_175_4n2s19vhvtspjhb3qh0000gn/T//cc9Gd54N.s 			page 66


 2233              	lv_obj_move_to_index:
 2234              	.LVL236:
 2235              	.LFB199:
 209:Drivers/lvgl/src/core/lv_obj_tree.c ****     LV_ASSERT_OBJ(obj, MY_CLASS);
 2236              		.loc 1 209 1 is_stmt 1 view -0
 2237              		.cfi_startproc
 2238              		@ args = 0, pretend = 0, frame = 0
 2239              		@ frame_needed = 0, uses_anonymous_args = 0
 210:Drivers/lvgl/src/core/lv_obj_tree.c **** 
 2240              		.loc 1 210 5 view .LVU710
 210:Drivers/lvgl/src/core/lv_obj_tree.c **** 
 2241              		.loc 1 210 5 view .LVU711
 2242 0000 B0B1     		cbz	r0, .L211
 209:Drivers/lvgl/src/core/lv_obj_tree.c ****     LV_ASSERT_OBJ(obj, MY_CLASS);
 2243              		.loc 1 209 1 is_stmt 0 view .LVU712
 2244 0002 F8B5     		push	{r3, r4, r5, r6, r7, lr}
 2245              	.LCFI39:
 2246              		.cfi_def_cfa_offset 24
 2247              		.cfi_offset 3, -24
 2248              		.cfi_offset 4, -20
 2249              		.cfi_offset 5, -16
 2250              		.cfi_offset 6, -12
 2251              		.cfi_offset 7, -8
 2252              		.cfi_offset 14, -4
 2253 0004 0C46     		mov	r4, r1
 2254 0006 0646     		mov	r6, r0
 210:Drivers/lvgl/src/core/lv_obj_tree.c **** 
 2255              		.loc 1 210 5 is_stmt 1 view .LVU713
 210:Drivers/lvgl/src/core/lv_obj_tree.c **** 
 2256              		.loc 1 210 33 view .LVU714
 213:Drivers/lvgl/src/core/lv_obj_tree.c ****     if(!parent) {
 2257              		.loc 1 213 5 view .LVU715
 213:Drivers/lvgl/src/core/lv_obj_tree.c ****     if(!parent) {
 2258              		.loc 1 213 25 is_stmt 0 view .LVU716
 2259 0008 FFF7FEFF 		bl	lv_obj_get_parent
 2260              	.LVL237:
 214:Drivers/lvgl/src/core/lv_obj_tree.c ****         LV_LOG_WARN("parent is NULL");
 2261              		.loc 1 214 5 is_stmt 1 view .LVU717
 214:Drivers/lvgl/src/core/lv_obj_tree.c ****         LV_LOG_WARN("parent is NULL");
 2262              		.loc 1 214 7 is_stmt 0 view .LVU718
 2263 000c 0546     		mov	r5, r0
 2264 000e 60B3     		cbz	r0, .L209
 219:Drivers/lvgl/src/core/lv_obj_tree.c ****     /* old_index only can be 0 or greater, this point cannot be reached if the parent is not null *
 2265              		.loc 1 219 5 is_stmt 1 view .LVU719
 219:Drivers/lvgl/src/core/lv_obj_tree.c ****     /* old_index only can be 0 or greater, this point cannot be reached if the parent is not null *
 2266              		.loc 1 219 41 is_stmt 0 view .LVU720
 2267 0010 FFF7FEFF 		bl	lv_obj_get_child_count
 2268              	.LVL238:
 219:Drivers/lvgl/src/core/lv_obj_tree.c ****     /* old_index only can be 0 or greater, this point cannot be reached if the parent is not null *
 2269              		.loc 1 219 41 view .LVU721
 2270 0014 0746     		mov	r7, r0
 2271              	.LVL239:
 221:Drivers/lvgl/src/core/lv_obj_tree.c ****     LV_ASSERT(0 <= old_index);
 2272              		.loc 1 221 5 is_stmt 1 view .LVU722
 221:Drivers/lvgl/src/core/lv_obj_tree.c ****     LV_ASSERT(0 <= old_index);
 2273              		.loc 1 221 31 is_stmt 0 view .LVU723
 2274 0016 3046     		mov	r0, r6
ARM GAS  /var/folders/qx/2_175_4n2s19vhvtspjhb3qh0000gn/T//cc9Gd54N.s 			page 67


 2275              	.LVL240:
 221:Drivers/lvgl/src/core/lv_obj_tree.c ****     LV_ASSERT(0 <= old_index);
 2276              		.loc 1 221 31 view .LVU724
 2277 0018 FFF7FEFF 		bl	lv_obj_get_index
 2278              	.LVL241:
 222:Drivers/lvgl/src/core/lv_obj_tree.c **** 
 2279              		.loc 1 222 5 is_stmt 1 view .LVU725
 222:Drivers/lvgl/src/core/lv_obj_tree.c **** 
 2280              		.loc 1 222 5 view .LVU726
 2281 001c 031E     		subs	r3, r0, #0
 2282 001e 08DB     		blt	.L214
 222:Drivers/lvgl/src/core/lv_obj_tree.c **** 
 2283              		.loc 1 222 5 view .LVU727
 224:Drivers/lvgl/src/core/lv_obj_tree.c ****         index += parent_child_count;
 2284              		.loc 1 224 5 view .LVU728
 224:Drivers/lvgl/src/core/lv_obj_tree.c ****         index += parent_child_count;
 2285              		.loc 1 224 7 is_stmt 0 view .LVU729
 2286 0020 002C     		cmp	r4, #0
 2287 0022 07DB     		blt	.L223
 2288              	.LVL242:
 2289              	.L215:
 231:Drivers/lvgl/src/core/lv_obj_tree.c ****        /* If both previous and new index are the same */
 2290              		.loc 1 231 8 view .LVU730
 2291 0024 A742     		cmp	r7, r4
 2292 0026 20DD     		ble	.L209
 233:Drivers/lvgl/src/core/lv_obj_tree.c **** 
 2293              		.loc 1 233 8 view .LVU731
 2294 0028 9C42     		cmp	r4, r3
 2295 002a 1ED0     		beq	.L209
 238:Drivers/lvgl/src/core/lv_obj_tree.c ****     if(index < old_index) {
 2296              		.loc 1 238 5 is_stmt 1 view .LVU732
 2297              	.LVL243:
 239:Drivers/lvgl/src/core/lv_obj_tree.c ****         while(i > index)  {
 2298              		.loc 1 239 5 view .LVU733
 239:Drivers/lvgl/src/core/lv_obj_tree.c ****         while(i > index)  {
 2299              		.loc 1 239 7 is_stmt 0 view .LVU734
 2300 002c 0FDB     		blt	.L216
 2301 002e 25E0     		b	.L217
 2302              	.LVL244:
 2303              	.L211:
 2304              	.LCFI40:
 2305              		.cfi_def_cfa_offset 0
 2306              		.cfi_restore 3
 2307              		.cfi_restore 4
 2308              		.cfi_restore 5
 2309              		.cfi_restore 6
 2310              		.cfi_restore 7
 2311              		.cfi_restore 14
 210:Drivers/lvgl/src/core/lv_obj_tree.c **** 
 2312              		.loc 1 210 5 is_stmt 1 view .LVU735
 210:Drivers/lvgl/src/core/lv_obj_tree.c **** 
 2313              		.loc 1 210 5 view .LVU736
 210:Drivers/lvgl/src/core/lv_obj_tree.c **** 
 2314              		.loc 1 210 5 view .LVU737
 210:Drivers/lvgl/src/core/lv_obj_tree.c **** 
 2315              		.loc 1 210 5 view .LVU738
 210:Drivers/lvgl/src/core/lv_obj_tree.c **** 
ARM GAS  /var/folders/qx/2_175_4n2s19vhvtspjhb3qh0000gn/T//cc9Gd54N.s 			page 68


 2316              		.loc 1 210 5 view .LVU739
 2317 0030 FEE7     		b	.L211
 2318              	.LVL245:
 2319              	.L214:
 2320              	.LCFI41:
 2321              		.cfi_def_cfa_offset 24
 2322              		.cfi_offset 3, -24
 2323              		.cfi_offset 4, -20
 2324              		.cfi_offset 5, -16
 2325              		.cfi_offset 6, -12
 2326              		.cfi_offset 7, -8
 2327              		.cfi_offset 14, -4
 222:Drivers/lvgl/src/core/lv_obj_tree.c **** 
 2328              		.loc 1 222 5 view .LVU740
 222:Drivers/lvgl/src/core/lv_obj_tree.c **** 
 2329              		.loc 1 222 5 view .LVU741
 222:Drivers/lvgl/src/core/lv_obj_tree.c **** 
 2330              		.loc 1 222 5 view .LVU742
 222:Drivers/lvgl/src/core/lv_obj_tree.c **** 
 2331              		.loc 1 222 5 view .LVU743
 222:Drivers/lvgl/src/core/lv_obj_tree.c **** 
 2332              		.loc 1 222 5 view .LVU744
 2333 0032 FEE7     		b	.L214
 2334              	.L223:
 225:Drivers/lvgl/src/core/lv_obj_tree.c ****     }
 2335              		.loc 1 225 9 view .LVU745
 2336              	.LVL246:
 229:Drivers/lvgl/src/core/lv_obj_tree.c ****        /* Index is same or bigger than parent child count */
 2337              		.loc 1 229 5 view .LVU746
 229:Drivers/lvgl/src/core/lv_obj_tree.c ****        /* Index is same or bigger than parent child count */
 2338              		.loc 1 229 7 is_stmt 0 view .LVU747
 2339 0034 E419     		adds	r4, r4, r7
 2340              	.LVL247:
 229:Drivers/lvgl/src/core/lv_obj_tree.c ****        /* Index is same or bigger than parent child count */
 2341              		.loc 1 229 7 view .LVU748
 2342 0036 F5D5     		bpl	.L215
 2343 0038 17E0     		b	.L209
 2344              	.LVL248:
 2345              	.L218:
 241:Drivers/lvgl/src/core/lv_obj_tree.c ****             i--;
 2346              		.loc 1 241 13 is_stmt 1 view .LVU749
 241:Drivers/lvgl/src/core/lv_obj_tree.c ****             i--;
 2347              		.loc 1 241 52 is_stmt 0 view .LVU750
 2348 003a AA68     		ldr	r2, [r5, #8]
 241:Drivers/lvgl/src/core/lv_obj_tree.c ****             i--;
 2349              		.loc 1 241 63 view .LVU751
 2350 003c 1168     		ldr	r1, [r2]
 241:Drivers/lvgl/src/core/lv_obj_tree.c ****             i--;
 2351              		.loc 1 241 73 view .LVU752
 2352 003e 03F18042 		add	r2, r3, #1073741824
 2353 0042 013A     		subs	r2, r2, #1
 2354 0044 51F82220 		ldr	r2, [r1, r2, lsl #2]
 241:Drivers/lvgl/src/core/lv_obj_tree.c ****             i--;
 2355              		.loc 1 241 44 view .LVU753
 2356 0048 41F82320 		str	r2, [r1, r3, lsl #2]
 242:Drivers/lvgl/src/core/lv_obj_tree.c ****         }
 2357              		.loc 1 242 13 is_stmt 1 view .LVU754
ARM GAS  /var/folders/qx/2_175_4n2s19vhvtspjhb3qh0000gn/T//cc9Gd54N.s 			page 69


 242:Drivers/lvgl/src/core/lv_obj_tree.c ****         }
 2358              		.loc 1 242 14 is_stmt 0 view .LVU755
 2359 004c 013B     		subs	r3, r3, #1
 2360              	.LVL249:
 2361              	.L216:
 240:Drivers/lvgl/src/core/lv_obj_tree.c ****             parent->spec_attr->children[i] = parent->spec_attr->children[i - 1];
 2362              		.loc 1 240 17 is_stmt 1 view .LVU756
 2363 004e 9C42     		cmp	r4, r3
 2364 0050 F3DB     		blt	.L218
 2365              	.LVL250:
 2366              	.L219:
 252:Drivers/lvgl/src/core/lv_obj_tree.c ****     lv_obj_send_event(parent, LV_EVENT_CHILD_CHANGED, NULL);
 2367              		.loc 1 252 5 view .LVU757
 252:Drivers/lvgl/src/core/lv_obj_tree.c ****     lv_obj_send_event(parent, LV_EVENT_CHILD_CHANGED, NULL);
 2368              		.loc 1 252 11 is_stmt 0 view .LVU758
 2369 0052 AB68     		ldr	r3, [r5, #8]
 2370              	.LVL251:
 252:Drivers/lvgl/src/core/lv_obj_tree.c ****     lv_obj_send_event(parent, LV_EVENT_CHILD_CHANGED, NULL);
 2371              		.loc 1 252 22 view .LVU759
 2372 0054 1B68     		ldr	r3, [r3]
 252:Drivers/lvgl/src/core/lv_obj_tree.c ****     lv_obj_send_event(parent, LV_EVENT_CHILD_CHANGED, NULL);
 2373              		.loc 1 252 40 view .LVU760
 2374 0056 43F82460 		str	r6, [r3, r4, lsl #2]
 253:Drivers/lvgl/src/core/lv_obj_tree.c ****     lv_obj_invalidate(parent);
 2375              		.loc 1 253 5 is_stmt 1 view .LVU761
 2376 005a 0022     		movs	r2, #0
 2377 005c 2B21     		movs	r1, #43
 2378 005e 2846     		mov	r0, r5
 2379 0060 FFF7FEFF 		bl	lv_obj_send_event
 2380              	.LVL252:
 254:Drivers/lvgl/src/core/lv_obj_tree.c **** }
 2381              		.loc 1 254 5 view .LVU762
 2382 0064 2846     		mov	r0, r5
 2383 0066 FFF7FEFF 		bl	lv_obj_invalidate
 2384              	.LVL253:
 2385              	.L209:
 255:Drivers/lvgl/src/core/lv_obj_tree.c **** 
 2386              		.loc 1 255 1 is_stmt 0 view .LVU763
 2387 006a F8BD     		pop	{r3, r4, r5, r6, r7, pc}
 2388              	.LVL254:
 2389              	.L220:
 247:Drivers/lvgl/src/core/lv_obj_tree.c ****             i++;
 2390              		.loc 1 247 13 is_stmt 1 view .LVU764
 247:Drivers/lvgl/src/core/lv_obj_tree.c ****             i++;
 2391              		.loc 1 247 52 is_stmt 0 view .LVU765
 2392 006c AA68     		ldr	r2, [r5, #8]
 247:Drivers/lvgl/src/core/lv_obj_tree.c ****             i++;
 2393              		.loc 1 247 63 view .LVU766
 2394 006e 1168     		ldr	r1, [r2]
 247:Drivers/lvgl/src/core/lv_obj_tree.c ****             i++;
 2395              		.loc 1 247 73 view .LVU767
 2396 0070 5A1C     		adds	r2, r3, #1
 2397 0072 51F82200 		ldr	r0, [r1, r2, lsl #2]
 247:Drivers/lvgl/src/core/lv_obj_tree.c ****             i++;
 2398              		.loc 1 247 44 view .LVU768
 2399 0076 41F82300 		str	r0, [r1, r3, lsl #2]
 248:Drivers/lvgl/src/core/lv_obj_tree.c ****         }
ARM GAS  /var/folders/qx/2_175_4n2s19vhvtspjhb3qh0000gn/T//cc9Gd54N.s 			page 70


 2400              		.loc 1 248 13 is_stmt 1 view .LVU769
 248:Drivers/lvgl/src/core/lv_obj_tree.c ****         }
 2401              		.loc 1 248 14 is_stmt 0 view .LVU770
 2402 007a 1346     		mov	r3, r2
 2403              	.LVL255:
 2404              	.L217:
 246:Drivers/lvgl/src/core/lv_obj_tree.c ****             parent->spec_attr->children[i] = parent->spec_attr->children[i + 1];
 2405              		.loc 1 246 17 is_stmt 1 view .LVU771
 2406 007c 9C42     		cmp	r4, r3
 2407 007e F5DC     		bgt	.L220
 2408 0080 E7E7     		b	.L219
 2409              		.cfi_endproc
 2410              	.LFE199:
 2412              		.section	.text.lv_obj_swap,"ax",%progbits
 2413              		.align	1
 2414              		.global	lv_obj_swap
 2415              		.syntax unified
 2416              		.thumb
 2417              		.thumb_func
 2419              	lv_obj_swap:
 2420              	.LVL256:
 2421              	.LFB200:
 258:Drivers/lvgl/src/core/lv_obj_tree.c ****     LV_ASSERT_OBJ(obj1, MY_CLASS);
 2422              		.loc 1 258 1 view -0
 2423              		.cfi_startproc
 2424              		@ args = 0, pretend = 0, frame = 0
 2425              		@ frame_needed = 0, uses_anonymous_args = 0
 259:Drivers/lvgl/src/core/lv_obj_tree.c ****     LV_ASSERT_OBJ(obj2, MY_CLASS);
 2426              		.loc 1 259 5 view .LVU773
 259:Drivers/lvgl/src/core/lv_obj_tree.c ****     LV_ASSERT_OBJ(obj2, MY_CLASS);
 2427              		.loc 1 259 5 view .LVU774
 2428 0000 0028     		cmp	r0, #0
 2429 0002 4AD0     		beq	.L226
 258:Drivers/lvgl/src/core/lv_obj_tree.c ****     LV_ASSERT_OBJ(obj1, MY_CLASS);
 2430              		.loc 1 258 1 is_stmt 0 view .LVU775
 2431 0004 2DE9F843 		push	{r3, r4, r5, r6, r7, r8, r9, lr}
 2432              	.LCFI42:
 2433              		.cfi_def_cfa_offset 32
 2434              		.cfi_offset 3, -32
 2435              		.cfi_offset 4, -28
 2436              		.cfi_offset 5, -24
 2437              		.cfi_offset 6, -20
 2438              		.cfi_offset 7, -16
 2439              		.cfi_offset 8, -12
 2440              		.cfi_offset 9, -8
 2441              		.cfi_offset 14, -4
 2442 0008 0C46     		mov	r4, r1
 2443 000a 0546     		mov	r5, r0
 259:Drivers/lvgl/src/core/lv_obj_tree.c ****     LV_ASSERT_OBJ(obj2, MY_CLASS);
 2444              		.loc 1 259 5 is_stmt 1 view .LVU776
 259:Drivers/lvgl/src/core/lv_obj_tree.c ****     LV_ASSERT_OBJ(obj2, MY_CLASS);
 2445              		.loc 1 259 34 view .LVU777
 260:Drivers/lvgl/src/core/lv_obj_tree.c **** 
 2446              		.loc 1 260 5 view .LVU778
 260:Drivers/lvgl/src/core/lv_obj_tree.c **** 
 2447              		.loc 1 260 5 view .LVU779
 2448 000c 0029     		cmp	r1, #0
ARM GAS  /var/folders/qx/2_175_4n2s19vhvtspjhb3qh0000gn/T//cc9Gd54N.s 			page 71


 2449 000e 45D0     		beq	.L228
 260:Drivers/lvgl/src/core/lv_obj_tree.c **** 
 2450              		.loc 1 260 5 view .LVU780
 260:Drivers/lvgl/src/core/lv_obj_tree.c **** 
 2451              		.loc 1 260 34 view .LVU781
 262:Drivers/lvgl/src/core/lv_obj_tree.c ****     lv_obj_t * parent2 = lv_obj_get_parent(obj2);
 2452              		.loc 1 262 5 view .LVU782
 262:Drivers/lvgl/src/core/lv_obj_tree.c ****     lv_obj_t * parent2 = lv_obj_get_parent(obj2);
 2453              		.loc 1 262 25 is_stmt 0 view .LVU783
 2454 0010 FFF7FEFF 		bl	lv_obj_get_parent
 2455              	.LVL257:
 262:Drivers/lvgl/src/core/lv_obj_tree.c ****     lv_obj_t * parent2 = lv_obj_get_parent(obj2);
 2456              		.loc 1 262 25 view .LVU784
 2457 0014 0646     		mov	r6, r0
 2458              	.LVL258:
 263:Drivers/lvgl/src/core/lv_obj_tree.c **** 
 2459              		.loc 1 263 5 is_stmt 1 view .LVU785
 263:Drivers/lvgl/src/core/lv_obj_tree.c **** 
 2460              		.loc 1 263 26 is_stmt 0 view .LVU786
 2461 0016 2046     		mov	r0, r4
 2462              	.LVL259:
 263:Drivers/lvgl/src/core/lv_obj_tree.c **** 
 2463              		.loc 1 263 26 view .LVU787
 2464 0018 FFF7FEFF 		bl	lv_obj_get_parent
 2465              	.LVL260:
 2466 001c 0746     		mov	r7, r0
 2467              	.LVL261:
 265:Drivers/lvgl/src/core/lv_obj_tree.c ****     uint_fast32_t index2 = lv_obj_get_index(obj2);
 2468              		.loc 1 265 5 is_stmt 1 view .LVU788
 265:Drivers/lvgl/src/core/lv_obj_tree.c ****     uint_fast32_t index2 = lv_obj_get_index(obj2);
 2469              		.loc 1 265 28 is_stmt 0 view .LVU789
 2470 001e 2846     		mov	r0, r5
 2471              	.LVL262:
 265:Drivers/lvgl/src/core/lv_obj_tree.c ****     uint_fast32_t index2 = lv_obj_get_index(obj2);
 2472              		.loc 1 265 28 view .LVU790
 2473 0020 FFF7FEFF 		bl	lv_obj_get_index
 2474              	.LVL263:
 2475 0024 8146     		mov	r9, r0
 2476              	.LVL264:
 266:Drivers/lvgl/src/core/lv_obj_tree.c **** 
 2477              		.loc 1 266 5 is_stmt 1 view .LVU791
 266:Drivers/lvgl/src/core/lv_obj_tree.c **** 
 2478              		.loc 1 266 28 is_stmt 0 view .LVU792
 2479 0026 2046     		mov	r0, r4
 2480              	.LVL265:
 266:Drivers/lvgl/src/core/lv_obj_tree.c **** 
 2481              		.loc 1 266 28 view .LVU793
 2482 0028 FFF7FEFF 		bl	lv_obj_get_index
 2483              	.LVL266:
 2484 002c 8046     		mov	r8, r0
 2485              	.LVL267:
 268:Drivers/lvgl/src/core/lv_obj_tree.c ****     lv_obj_send_event(parent, LV_EVENT_CHILD_DELETED, obj1);
 2486              		.loc 1 268 5 is_stmt 1 view .LVU794
 2487 002e 2246     		mov	r2, r4
 2488 0030 2D21     		movs	r1, #45
 2489 0032 3846     		mov	r0, r7
 2490              	.LVL268:
ARM GAS  /var/folders/qx/2_175_4n2s19vhvtspjhb3qh0000gn/T//cc9Gd54N.s 			page 72


 268:Drivers/lvgl/src/core/lv_obj_tree.c ****     lv_obj_send_event(parent, LV_EVENT_CHILD_DELETED, obj1);
 2491              		.loc 1 268 5 is_stmt 0 view .LVU795
 2492 0034 FFF7FEFF 		bl	lv_obj_send_event
 2493              	.LVL269:
 269:Drivers/lvgl/src/core/lv_obj_tree.c **** 
 2494              		.loc 1 269 5 is_stmt 1 view .LVU796
 2495 0038 2A46     		mov	r2, r5
 2496 003a 2D21     		movs	r1, #45
 2497 003c 3046     		mov	r0, r6
 2498 003e FFF7FEFF 		bl	lv_obj_send_event
 2499              	.LVL270:
 271:Drivers/lvgl/src/core/lv_obj_tree.c ****     obj2->parent = parent;
 2500              		.loc 1 271 5 view .LVU797
 271:Drivers/lvgl/src/core/lv_obj_tree.c ****     obj2->parent = parent;
 2501              		.loc 1 271 11 is_stmt 0 view .LVU798
 2502 0042 B368     		ldr	r3, [r6, #8]
 271:Drivers/lvgl/src/core/lv_obj_tree.c ****     obj2->parent = parent;
 2503              		.loc 1 271 22 view .LVU799
 2504 0044 1B68     		ldr	r3, [r3]
 271:Drivers/lvgl/src/core/lv_obj_tree.c ****     obj2->parent = parent;
 2505              		.loc 1 271 41 view .LVU800
 2506 0046 43F82940 		str	r4, [r3, r9, lsl #2]
 272:Drivers/lvgl/src/core/lv_obj_tree.c **** 
 2507              		.loc 1 272 5 is_stmt 1 view .LVU801
 272:Drivers/lvgl/src/core/lv_obj_tree.c **** 
 2508              		.loc 1 272 18 is_stmt 0 view .LVU802
 2509 004a 6660     		str	r6, [r4, #4]
 274:Drivers/lvgl/src/core/lv_obj_tree.c ****     obj1->parent = parent2;
 2510              		.loc 1 274 5 is_stmt 1 view .LVU803
 274:Drivers/lvgl/src/core/lv_obj_tree.c ****     obj1->parent = parent2;
 2511              		.loc 1 274 12 is_stmt 0 view .LVU804
 2512 004c BB68     		ldr	r3, [r7, #8]
 274:Drivers/lvgl/src/core/lv_obj_tree.c ****     obj1->parent = parent2;
 2513              		.loc 1 274 23 view .LVU805
 2514 004e 1B68     		ldr	r3, [r3]
 274:Drivers/lvgl/src/core/lv_obj_tree.c ****     obj1->parent = parent2;
 2515              		.loc 1 274 42 view .LVU806
 2516 0050 43F82850 		str	r5, [r3, r8, lsl #2]
 275:Drivers/lvgl/src/core/lv_obj_tree.c **** 
 2517              		.loc 1 275 5 is_stmt 1 view .LVU807
 275:Drivers/lvgl/src/core/lv_obj_tree.c **** 
 2518              		.loc 1 275 18 is_stmt 0 view .LVU808
 2519 0054 6F60     		str	r7, [r5, #4]
 277:Drivers/lvgl/src/core/lv_obj_tree.c ****     lv_obj_send_event(parent, LV_EVENT_CHILD_CREATED, obj2);
 2520              		.loc 1 277 5 is_stmt 1 view .LVU809
 2521 0056 2246     		mov	r2, r4
 2522 0058 2B21     		movs	r1, #43
 2523 005a 3046     		mov	r0, r6
 2524 005c FFF7FEFF 		bl	lv_obj_send_event
 2525              	.LVL271:
 278:Drivers/lvgl/src/core/lv_obj_tree.c ****     lv_obj_send_event(parent2, LV_EVENT_CHILD_CHANGED, obj1);
 2526              		.loc 1 278 5 view .LVU810
 2527 0060 2246     		mov	r2, r4
 2528 0062 2C21     		movs	r1, #44
 2529 0064 3046     		mov	r0, r6
 2530 0066 FFF7FEFF 		bl	lv_obj_send_event
 2531              	.LVL272:
ARM GAS  /var/folders/qx/2_175_4n2s19vhvtspjhb3qh0000gn/T//cc9Gd54N.s 			page 73


 279:Drivers/lvgl/src/core/lv_obj_tree.c ****     lv_obj_send_event(parent2, LV_EVENT_CHILD_CREATED, obj1);
 2532              		.loc 1 279 5 view .LVU811
 2533 006a 2A46     		mov	r2, r5
 2534 006c 2B21     		movs	r1, #43
 2535 006e 3846     		mov	r0, r7
 2536 0070 FFF7FEFF 		bl	lv_obj_send_event
 2537              	.LVL273:
 280:Drivers/lvgl/src/core/lv_obj_tree.c **** 
 2538              		.loc 1 280 5 view .LVU812
 2539 0074 2A46     		mov	r2, r5
 2540 0076 2C21     		movs	r1, #44
 2541 0078 3846     		mov	r0, r7
 2542 007a FFF7FEFF 		bl	lv_obj_send_event
 2543              	.LVL274:
 282:Drivers/lvgl/src/core/lv_obj_tree.c **** 
 2544              		.loc 1 282 5 view .LVU813
 2545 007e 3046     		mov	r0, r6
 2546 0080 FFF7FEFF 		bl	lv_obj_invalidate
 2547              	.LVL275:
 284:Drivers/lvgl/src/core/lv_obj_tree.c ****         lv_obj_invalidate(parent2);
 2548              		.loc 1 284 5 view .LVU814
 284:Drivers/lvgl/src/core/lv_obj_tree.c ****         lv_obj_invalidate(parent2);
 2549              		.loc 1 284 7 is_stmt 0 view .LVU815
 2550 0084 BE42     		cmp	r6, r7
 2551 0086 02D0     		beq	.L229
 285:Drivers/lvgl/src/core/lv_obj_tree.c ****     }
 2552              		.loc 1 285 9 is_stmt 1 view .LVU816
 2553 0088 3846     		mov	r0, r7
 2554 008a FFF7FEFF 		bl	lv_obj_invalidate
 2555              	.LVL276:
 2556              	.L229:
 287:Drivers/lvgl/src/core/lv_obj_tree.c **** }
 2557              		.loc 1 287 5 view .LVU817
 2558 008e 2146     		mov	r1, r4
 2559 0090 2846     		mov	r0, r5
 2560 0092 FFF7FEFF 		bl	lv_group_swap_obj
 2561              	.LVL277:
 288:Drivers/lvgl/src/core/lv_obj_tree.c **** 
 2562              		.loc 1 288 1 is_stmt 0 view .LVU818
 2563 0096 BDE8F883 		pop	{r3, r4, r5, r6, r7, r8, r9, pc}
 2564              	.LVL278:
 2565              	.L226:
 2566              	.LCFI43:
 2567              		.cfi_def_cfa_offset 0
 2568              		.cfi_restore 3
 2569              		.cfi_restore 4
 2570              		.cfi_restore 5
 2571              		.cfi_restore 6
 2572              		.cfi_restore 7
 2573              		.cfi_restore 8
 2574              		.cfi_restore 9
 2575              		.cfi_restore 14
 259:Drivers/lvgl/src/core/lv_obj_tree.c ****     LV_ASSERT_OBJ(obj2, MY_CLASS);
 2576              		.loc 1 259 5 is_stmt 1 view .LVU819
 259:Drivers/lvgl/src/core/lv_obj_tree.c ****     LV_ASSERT_OBJ(obj2, MY_CLASS);
 2577              		.loc 1 259 5 view .LVU820
 259:Drivers/lvgl/src/core/lv_obj_tree.c ****     LV_ASSERT_OBJ(obj2, MY_CLASS);
ARM GAS  /var/folders/qx/2_175_4n2s19vhvtspjhb3qh0000gn/T//cc9Gd54N.s 			page 74


 2578              		.loc 1 259 5 view .LVU821
 259:Drivers/lvgl/src/core/lv_obj_tree.c ****     LV_ASSERT_OBJ(obj2, MY_CLASS);
 2579              		.loc 1 259 5 view .LVU822
 259:Drivers/lvgl/src/core/lv_obj_tree.c ****     LV_ASSERT_OBJ(obj2, MY_CLASS);
 2580              		.loc 1 259 5 view .LVU823
 2581 009a FEE7     		b	.L226
 2582              	.L228:
 2583              	.LCFI44:
 2584              		.cfi_def_cfa_offset 32
 2585              		.cfi_offset 3, -32
 2586              		.cfi_offset 4, -28
 2587              		.cfi_offset 5, -24
 2588              		.cfi_offset 6, -20
 2589              		.cfi_offset 7, -16
 2590              		.cfi_offset 8, -12
 2591              		.cfi_offset 9, -8
 2592              		.cfi_offset 14, -4
 260:Drivers/lvgl/src/core/lv_obj_tree.c **** 
 2593              		.loc 1 260 5 view .LVU824
 260:Drivers/lvgl/src/core/lv_obj_tree.c **** 
 2594              		.loc 1 260 5 view .LVU825
 260:Drivers/lvgl/src/core/lv_obj_tree.c **** 
 2595              		.loc 1 260 5 view .LVU826
 260:Drivers/lvgl/src/core/lv_obj_tree.c **** 
 2596              		.loc 1 260 5 view .LVU827
 260:Drivers/lvgl/src/core/lv_obj_tree.c **** 
 2597              		.loc 1 260 5 view .LVU828
 2598 009c FEE7     		b	.L228
 2599              		.cfi_endproc
 2600              	.LFE200:
 2602              		.section	.text.lv_obj_get_sibling,"ax",%progbits
 2603              		.align	1
 2604              		.global	lv_obj_get_sibling
 2605              		.syntax unified
 2606              		.thumb
 2607              		.thumb_func
 2609              	lv_obj_get_sibling:
 2610              	.LVL279:
 2611              	.LFB206:
 384:Drivers/lvgl/src/core/lv_obj_tree.c ****     lv_obj_t * parent = lv_obj_get_parent(obj);
 2612              		.loc 1 384 1 view -0
 2613              		.cfi_startproc
 2614              		@ args = 0, pretend = 0, frame = 0
 2615              		@ frame_needed = 0, uses_anonymous_args = 0
 384:Drivers/lvgl/src/core/lv_obj_tree.c ****     lv_obj_t * parent = lv_obj_get_parent(obj);
 2616              		.loc 1 384 1 is_stmt 0 view .LVU830
 2617 0000 70B5     		push	{r4, r5, r6, lr}
 2618              	.LCFI45:
 2619              		.cfi_def_cfa_offset 16
 2620              		.cfi_offset 4, -16
 2621              		.cfi_offset 5, -12
 2622              		.cfi_offset 6, -8
 2623              		.cfi_offset 14, -4
 2624 0002 0546     		mov	r5, r0
 2625 0004 0C46     		mov	r4, r1
 385:Drivers/lvgl/src/core/lv_obj_tree.c ****     int32_t sibling_idx = (int32_t)lv_obj_get_index(obj) + idx;
 2626              		.loc 1 385 5 is_stmt 1 view .LVU831
ARM GAS  /var/folders/qx/2_175_4n2s19vhvtspjhb3qh0000gn/T//cc9Gd54N.s 			page 75


 385:Drivers/lvgl/src/core/lv_obj_tree.c ****     int32_t sibling_idx = (int32_t)lv_obj_get_index(obj) + idx;
 2627              		.loc 1 385 25 is_stmt 0 view .LVU832
 2628 0006 FFF7FEFF 		bl	lv_obj_get_parent
 2629              	.LVL280:
 385:Drivers/lvgl/src/core/lv_obj_tree.c ****     int32_t sibling_idx = (int32_t)lv_obj_get_index(obj) + idx;
 2630              		.loc 1 385 25 view .LVU833
 2631 000a 0646     		mov	r6, r0
 2632              	.LVL281:
 386:Drivers/lvgl/src/core/lv_obj_tree.c ****     if(sibling_idx < 0) return NULL;
 2633              		.loc 1 386 5 is_stmt 1 view .LVU834
 386:Drivers/lvgl/src/core/lv_obj_tree.c ****     if(sibling_idx < 0) return NULL;
 2634              		.loc 1 386 36 is_stmt 0 view .LVU835
 2635 000c 2846     		mov	r0, r5
 2636              	.LVL282:
 386:Drivers/lvgl/src/core/lv_obj_tree.c ****     if(sibling_idx < 0) return NULL;
 2637              		.loc 1 386 36 view .LVU836
 2638 000e FFF7FEFF 		bl	lv_obj_get_index
 2639              	.LVL283:
 387:Drivers/lvgl/src/core/lv_obj_tree.c **** 
 2640              		.loc 1 387 5 is_stmt 1 view .LVU837
 387:Drivers/lvgl/src/core/lv_obj_tree.c **** 
 2641              		.loc 1 387 7 is_stmt 0 view .LVU838
 2642 0012 0119     		adds	r1, r0, r4
 2643              	.LVL284:
 387:Drivers/lvgl/src/core/lv_obj_tree.c **** 
 2644              		.loc 1 387 7 view .LVU839
 2645 0014 03D4     		bmi	.L234
 389:Drivers/lvgl/src/core/lv_obj_tree.c **** }
 2646              		.loc 1 389 5 is_stmt 1 view .LVU840
 389:Drivers/lvgl/src/core/lv_obj_tree.c **** }
 2647              		.loc 1 389 12 is_stmt 0 view .LVU841
 2648 0016 3046     		mov	r0, r6
 2649 0018 FFF7FEFF 		bl	lv_obj_get_child
 2650              	.LVL285:
 2651              	.L232:
 390:Drivers/lvgl/src/core/lv_obj_tree.c **** 
 2652              		.loc 1 390 1 view .LVU842
 2653 001c 70BD     		pop	{r4, r5, r6, pc}
 2654              	.LVL286:
 2655              	.L234:
 387:Drivers/lvgl/src/core/lv_obj_tree.c **** 
 2656              		.loc 1 387 32 discriminator 1 view .LVU843
 2657 001e 0020     		movs	r0, #0
 2658 0020 FCE7     		b	.L232
 2659              		.cfi_endproc
 2660              	.LFE206:
 2662              		.section	.text.lv_obj_get_index_by_type,"ax",%progbits
 2663              		.align	1
 2664              		.global	lv_obj_get_index_by_type
 2665              		.syntax unified
 2666              		.thumb
 2667              		.thumb_func
 2669              	lv_obj_get_index_by_type:
 2670              	.LVL287:
 2671              	.LFB211:
 601:Drivers/lvgl/src/core/lv_obj_tree.c ****     LV_ASSERT_OBJ(obj, MY_CLASS);
 2672              		.loc 1 601 1 is_stmt 1 view -0
ARM GAS  /var/folders/qx/2_175_4n2s19vhvtspjhb3qh0000gn/T//cc9Gd54N.s 			page 76


 2673              		.cfi_startproc
 2674              		@ args = 0, pretend = 0, frame = 0
 2675              		@ frame_needed = 0, uses_anonymous_args = 0
 602:Drivers/lvgl/src/core/lv_obj_tree.c **** 
 2676              		.loc 1 602 5 view .LVU845
 602:Drivers/lvgl/src/core/lv_obj_tree.c **** 
 2677              		.loc 1 602 5 view .LVU846
 2678 0000 48B1     		cbz	r0, .L238
 601:Drivers/lvgl/src/core/lv_obj_tree.c ****     LV_ASSERT_OBJ(obj, MY_CLASS);
 2679              		.loc 1 601 1 is_stmt 0 view .LVU847
 2680 0002 70B5     		push	{r4, r5, r6, lr}
 2681              	.LCFI46:
 2682              		.cfi_def_cfa_offset 16
 2683              		.cfi_offset 4, -16
 2684              		.cfi_offset 5, -12
 2685              		.cfi_offset 6, -8
 2686              		.cfi_offset 14, -4
 2687 0004 0C46     		mov	r4, r1
 2688 0006 0546     		mov	r5, r0
 602:Drivers/lvgl/src/core/lv_obj_tree.c **** 
 2689              		.loc 1 602 5 is_stmt 1 view .LVU848
 602:Drivers/lvgl/src/core/lv_obj_tree.c **** 
 2690              		.loc 1 602 33 view .LVU849
 604:Drivers/lvgl/src/core/lv_obj_tree.c ****     if(parent == NULL) return 0xFFFFFFFF;
 2691              		.loc 1 604 5 view .LVU850
 604:Drivers/lvgl/src/core/lv_obj_tree.c ****     if(parent == NULL) return 0xFFFFFFFF;
 2692              		.loc 1 604 25 is_stmt 0 view .LVU851
 2693 0008 FFF7FEFF 		bl	lv_obj_get_parent
 2694              	.LVL288:
 605:Drivers/lvgl/src/core/lv_obj_tree.c **** 
 2695              		.loc 1 605 5 is_stmt 1 view .LVU852
 605:Drivers/lvgl/src/core/lv_obj_tree.c **** 
 2696              		.loc 1 605 7 is_stmt 0 view .LVU853
 2697 000c 0146     		mov	r1, r0
 2698 000e B0B1     		cbz	r0, .L244
 608:Drivers/lvgl/src/core/lv_obj_tree.c ****     for(i = 0; i < parent->spec_attr->child_cnt; i++) {
 2699              		.loc 1 608 14 view .LVU854
 2700 0010 0020     		movs	r0, #0
 2701              	.LVL289:
 609:Drivers/lvgl/src/core/lv_obj_tree.c ****         lv_obj_t * child = parent->spec_attr->children[i];
 2702              		.loc 1 609 11 view .LVU855
 2703 0012 0346     		mov	r3, r0
 2704 0014 01E0     		b	.L240
 2705              	.LVL290:
 2706              	.L238:
 2707              	.LCFI47:
 2708              		.cfi_def_cfa_offset 0
 2709              		.cfi_restore 4
 2710              		.cfi_restore 5
 2711              		.cfi_restore 6
 2712              		.cfi_restore 14
 602:Drivers/lvgl/src/core/lv_obj_tree.c **** 
 2713              		.loc 1 602 5 is_stmt 1 view .LVU856
 602:Drivers/lvgl/src/core/lv_obj_tree.c **** 
 2714              		.loc 1 602 5 view .LVU857
 602:Drivers/lvgl/src/core/lv_obj_tree.c **** 
 2715              		.loc 1 602 5 view .LVU858
ARM GAS  /var/folders/qx/2_175_4n2s19vhvtspjhb3qh0000gn/T//cc9Gd54N.s 			page 77


 602:Drivers/lvgl/src/core/lv_obj_tree.c **** 
 2716              		.loc 1 602 5 view .LVU859
 602:Drivers/lvgl/src/core/lv_obj_tree.c **** 
 2717              		.loc 1 602 5 view .LVU860
 2718 0016 FEE7     		b	.L238
 2719              	.LVL291:
 2720              	.L241:
 2721              	.LCFI48:
 2722              		.cfi_def_cfa_offset 16
 2723              		.cfi_offset 4, -16
 2724              		.cfi_offset 5, -12
 2725              		.cfi_offset 6, -8
 2726              		.cfi_offset 14, -4
 609:Drivers/lvgl/src/core/lv_obj_tree.c ****         lv_obj_t * child = parent->spec_attr->children[i];
 2727              		.loc 1 609 51 discriminator 2 view .LVU861
 2728 0018 0133     		adds	r3, r3, #1
 2729              	.LVL292:
 2730              	.L240:
 609:Drivers/lvgl/src/core/lv_obj_tree.c ****         lv_obj_t * child = parent->spec_attr->children[i];
 2731              		.loc 1 609 18 discriminator 1 view .LVU862
 609:Drivers/lvgl/src/core/lv_obj_tree.c ****         lv_obj_t * child = parent->spec_attr->children[i];
 2732              		.loc 1 609 26 is_stmt 0 discriminator 1 view .LVU863
 2733 001a 8A68     		ldr	r2, [r1, #8]
 609:Drivers/lvgl/src/core/lv_obj_tree.c ****         lv_obj_t * child = parent->spec_attr->children[i];
 2734              		.loc 1 609 37 discriminator 1 view .LVU864
 2735 001c B2F830C0 		ldrh	ip, [r2, #48]
 609:Drivers/lvgl/src/core/lv_obj_tree.c ****         lv_obj_t * child = parent->spec_attr->children[i];
 2736              		.loc 1 609 18 discriminator 1 view .LVU865
 2737 0020 9C45     		cmp	ip, r3
 2738 0022 09D9     		bls	.L247
 2739              	.LBB14:
 610:Drivers/lvgl/src/core/lv_obj_tree.c ****         if(child->class_p == class_p) {
 2740              		.loc 1 610 9 is_stmt 1 view .LVU866
 610:Drivers/lvgl/src/core/lv_obj_tree.c ****         if(child->class_p == class_p) {
 2741              		.loc 1 610 45 is_stmt 0 view .LVU867
 2742 0024 1268     		ldr	r2, [r2]
 610:Drivers/lvgl/src/core/lv_obj_tree.c ****         if(child->class_p == class_p) {
 2743              		.loc 1 610 20 view .LVU868
 2744 0026 52F82320 		ldr	r2, [r2, r3, lsl #2]
 2745              	.LVL293:
 611:Drivers/lvgl/src/core/lv_obj_tree.c ****             if(child == obj) return idx;
 2746              		.loc 1 611 9 is_stmt 1 view .LVU869
 611:Drivers/lvgl/src/core/lv_obj_tree.c ****             if(child == obj) return idx;
 2747              		.loc 1 611 11 is_stmt 0 view .LVU870
 2748 002a 1668     		ldr	r6, [r2]
 2749 002c A642     		cmp	r6, r4
 2750 002e F3D1     		bne	.L241
 612:Drivers/lvgl/src/core/lv_obj_tree.c ****             idx++;
 2751              		.loc 1 612 13 is_stmt 1 view .LVU871
 612:Drivers/lvgl/src/core/lv_obj_tree.c ****             idx++;
 2752              		.loc 1 612 15 is_stmt 0 view .LVU872
 2753 0030 9542     		cmp	r5, r2
 2754 0032 03D0     		beq	.L236
 613:Drivers/lvgl/src/core/lv_obj_tree.c ****         }
 2755              		.loc 1 613 13 is_stmt 1 view .LVU873
 613:Drivers/lvgl/src/core/lv_obj_tree.c ****         }
 2756              		.loc 1 613 16 is_stmt 0 view .LVU874
ARM GAS  /var/folders/qx/2_175_4n2s19vhvtspjhb3qh0000gn/T//cc9Gd54N.s 			page 78


 2757 0034 0130     		adds	r0, r0, #1
 2758              	.LVL294:
 613:Drivers/lvgl/src/core/lv_obj_tree.c ****         }
 2759              		.loc 1 613 16 view .LVU875
 2760 0036 EFE7     		b	.L241
 2761              	.LVL295:
 2762              	.L247:
 613:Drivers/lvgl/src/core/lv_obj_tree.c ****         }
 2763              		.loc 1 613 16 view .LVU876
 2764              	.LBE14:
 618:Drivers/lvgl/src/core/lv_obj_tree.c **** }
 2765              		.loc 1 618 12 view .LVU877
 2766 0038 4FF0FF30 		mov	r0, #-1
 2767              	.LVL296:
 2768              	.L236:
 619:Drivers/lvgl/src/core/lv_obj_tree.c **** 
 2769              		.loc 1 619 1 view .LVU878
 2770 003c 70BD     		pop	{r4, r5, r6, pc}
 2771              	.LVL297:
 2772              	.L244:
 605:Drivers/lvgl/src/core/lv_obj_tree.c **** 
 2773              		.loc 1 605 31 discriminator 1 view .LVU879
 2774 003e 4FF0FF30 		mov	r0, #-1
 2775              	.LVL298:
 605:Drivers/lvgl/src/core/lv_obj_tree.c **** 
 2776              		.loc 1 605 31 discriminator 1 view .LVU880
 2777 0042 FBE7     		b	.L236
 2778              		.cfi_endproc
 2779              	.LFE211:
 2781              		.section	.text.lv_obj_get_sibling_by_type,"ax",%progbits
 2782              		.align	1
 2783              		.global	lv_obj_get_sibling_by_type
 2784              		.syntax unified
 2785              		.thumb
 2786              		.thumb_func
 2788              	lv_obj_get_sibling_by_type:
 2789              	.LVL299:
 2790              	.LFB207:
 393:Drivers/lvgl/src/core/lv_obj_tree.c ****     LV_ASSERT_OBJ(obj, MY_CLASS);
 2791              		.loc 1 393 1 is_stmt 1 view -0
 2792              		.cfi_startproc
 2793              		@ args = 0, pretend = 0, frame = 0
 2794              		@ frame_needed = 0, uses_anonymous_args = 0
 394:Drivers/lvgl/src/core/lv_obj_tree.c **** 
 2795              		.loc 1 394 5 view .LVU882
 394:Drivers/lvgl/src/core/lv_obj_tree.c **** 
 2796              		.loc 1 394 5 view .LVU883
 2797 0000 88B1     		cbz	r0, .L250
 393:Drivers/lvgl/src/core/lv_obj_tree.c ****     LV_ASSERT_OBJ(obj, MY_CLASS);
 2798              		.loc 1 393 1 is_stmt 0 view .LVU884
 2799 0002 F8B5     		push	{r3, r4, r5, r6, r7, lr}
 2800              	.LCFI49:
 2801              		.cfi_def_cfa_offset 24
 2802              		.cfi_offset 3, -24
 2803              		.cfi_offset 4, -20
 2804              		.cfi_offset 5, -16
 2805              		.cfi_offset 6, -12
ARM GAS  /var/folders/qx/2_175_4n2s19vhvtspjhb3qh0000gn/T//cc9Gd54N.s 			page 79


 2806              		.cfi_offset 7, -8
 2807              		.cfi_offset 14, -4
 2808 0004 0C46     		mov	r4, r1
 2809 0006 1546     		mov	r5, r2
 2810 0008 0646     		mov	r6, r0
 394:Drivers/lvgl/src/core/lv_obj_tree.c **** 
 2811              		.loc 1 394 5 is_stmt 1 view .LVU885
 394:Drivers/lvgl/src/core/lv_obj_tree.c **** 
 2812              		.loc 1 394 33 view .LVU886
 396:Drivers/lvgl/src/core/lv_obj_tree.c ****     int32_t sibling_idx = (int32_t)lv_obj_get_index_by_type(obj, class_p) + idx;
 2813              		.loc 1 396 5 view .LVU887
 396:Drivers/lvgl/src/core/lv_obj_tree.c ****     int32_t sibling_idx = (int32_t)lv_obj_get_index_by_type(obj, class_p) + idx;
 2814              		.loc 1 396 25 is_stmt 0 view .LVU888
 2815 000a FFF7FEFF 		bl	lv_obj_get_parent
 2816              	.LVL300:
 396:Drivers/lvgl/src/core/lv_obj_tree.c ****     int32_t sibling_idx = (int32_t)lv_obj_get_index_by_type(obj, class_p) + idx;
 2817              		.loc 1 396 25 view .LVU889
 2818 000e 0746     		mov	r7, r0
 2819              	.LVL301:
 397:Drivers/lvgl/src/core/lv_obj_tree.c ****     if(sibling_idx < 0) return NULL;
 2820              		.loc 1 397 5 is_stmt 1 view .LVU890
 397:Drivers/lvgl/src/core/lv_obj_tree.c ****     if(sibling_idx < 0) return NULL;
 2821              		.loc 1 397 36 is_stmt 0 view .LVU891
 2822 0010 2946     		mov	r1, r5
 2823 0012 3046     		mov	r0, r6
 2824              	.LVL302:
 397:Drivers/lvgl/src/core/lv_obj_tree.c ****     if(sibling_idx < 0) return NULL;
 2825              		.loc 1 397 36 view .LVU892
 2826 0014 FFF7FEFF 		bl	lv_obj_get_index_by_type
 2827              	.LVL303:
 398:Drivers/lvgl/src/core/lv_obj_tree.c **** 
 2828              		.loc 1 398 5 is_stmt 1 view .LVU893
 398:Drivers/lvgl/src/core/lv_obj_tree.c **** 
 2829              		.loc 1 398 7 is_stmt 0 view .LVU894
 2830 0018 0119     		adds	r1, r0, r4
 2831              	.LVL304:
 398:Drivers/lvgl/src/core/lv_obj_tree.c **** 
 2832              		.loc 1 398 7 view .LVU895
 2833 001a 05D4     		bmi	.L252
 400:Drivers/lvgl/src/core/lv_obj_tree.c **** }
 2834              		.loc 1 400 5 is_stmt 1 view .LVU896
 400:Drivers/lvgl/src/core/lv_obj_tree.c **** }
 2835              		.loc 1 400 12 is_stmt 0 view .LVU897
 2836 001c 2A46     		mov	r2, r5
 2837 001e 3846     		mov	r0, r7
 2838 0020 FFF7FEFF 		bl	lv_obj_get_child_by_type
 2839              	.LVL305:
 2840              	.L248:
 401:Drivers/lvgl/src/core/lv_obj_tree.c **** 
 2841              		.loc 1 401 1 view .LVU898
 2842 0024 F8BD     		pop	{r3, r4, r5, r6, r7, pc}
 2843              	.LVL306:
 2844              	.L250:
 2845              	.LCFI50:
 2846              		.cfi_def_cfa_offset 0
 2847              		.cfi_restore 3
 2848              		.cfi_restore 4
ARM GAS  /var/folders/qx/2_175_4n2s19vhvtspjhb3qh0000gn/T//cc9Gd54N.s 			page 80


 2849              		.cfi_restore 5
 2850              		.cfi_restore 6
 2851              		.cfi_restore 7
 2852              		.cfi_restore 14
 394:Drivers/lvgl/src/core/lv_obj_tree.c **** 
 2853              		.loc 1 394 5 is_stmt 1 view .LVU899
 394:Drivers/lvgl/src/core/lv_obj_tree.c **** 
 2854              		.loc 1 394 5 view .LVU900
 394:Drivers/lvgl/src/core/lv_obj_tree.c **** 
 2855              		.loc 1 394 5 view .LVU901
 394:Drivers/lvgl/src/core/lv_obj_tree.c **** 
 2856              		.loc 1 394 5 view .LVU902
 394:Drivers/lvgl/src/core/lv_obj_tree.c **** 
 2857              		.loc 1 394 5 view .LVU903
 2858 0026 FEE7     		b	.L250
 2859              	.LVL307:
 2860              	.L252:
 2861              	.LCFI51:
 2862              		.cfi_def_cfa_offset 24
 2863              		.cfi_offset 3, -24
 2864              		.cfi_offset 4, -20
 2865              		.cfi_offset 5, -16
 2866              		.cfi_offset 6, -12
 2867              		.cfi_offset 7, -8
