ARM GAS  /var/folders/qx/2_175_4n2s19vhvtspjhb3qh0000gn/T//cczf0E1J.s 			page 1


   1              		.cpu cortex-m4
   2              		.arch armv7e-m
   3              		.fpu fpv4-sp-d16
   4              		.eabi_attribute 27, 1
   5              		.eabi_attribute 28, 1
   6              		.eabi_attribute 20, 1
   7              		.eabi_attribute 21, 1
   8              		.eabi_attribute 23, 3
   9              		.eabi_attribute 24, 1
  10              		.eabi_attribute 25, 1
  11              		.eabi_attribute 26, 1
  12              		.eabi_attribute 30, 1
  13              		.eabi_attribute 34, 1
  14              		.eabi_attribute 18, 4
  15              		.file	"lv_cache_lru_ll.c"
  16              		.text
  17              	.Ltext0:
  18              		.cfi_sections	.debug_frame
  19              		.file 1 "Drivers/lvgl/src/misc/cache/class/lv_cache_lru_ll.c"
  20              		.section	.text.destroy_cb,"ax",%progbits
  21              		.align	1
  22              		.syntax unified
  23              		.thumb
  24              		.thumb_func
  26              	destroy_cb:
  27              	.LVL0:
  28              	.LFB18:
   1:Drivers/lvgl/src/misc/cache/class/lv_cache_lru_ll.c **** /**
   2:Drivers/lvgl/src/misc/cache/class/lv_cache_lru_ll.c **** * @file lv_cache_lru_ll.c
   3:Drivers/lvgl/src/misc/cache/class/lv_cache_lru_ll.c **** *
   4:Drivers/lvgl/src/misc/cache/class/lv_cache_lru_ll.c **** */
   5:Drivers/lvgl/src/misc/cache/class/lv_cache_lru_ll.c **** 
   6:Drivers/lvgl/src/misc/cache/class/lv_cache_lru_ll.c **** /*********************************\
   7:Drivers/lvgl/src/misc/cache/class/lv_cache_lru_ll.c **** *                                *
   8:Drivers/lvgl/src/misc/cache/class/lv_cache_lru_ll.c **** *  ┏ ━ ━ ━ ━ ━ ━ ━ ━ ━ ━ ━ ━ ━ ┓ *
   9:Drivers/lvgl/src/misc/cache/class/lv_cache_lru_ll.c **** *       ┌ ─ ─ ─ ┐                *
  10:Drivers/lvgl/src/misc/cache/class/lv_cache_lru_ll.c **** *  ┃      Cache   insert       ┃ *
  11:Drivers/lvgl/src/misc/cache/class/lv_cache_lru_ll.c **** *       │Hitting│  head          *
  12:Drivers/lvgl/src/misc/cache/class/lv_cache_lru_ll.c **** *  ┃     ─ ─ ─ ─               ┃ *
  13:Drivers/lvgl/src/misc/cache/class/lv_cache_lru_ll.c **** *        ┌─────┐                 *
  14:Drivers/lvgl/src/misc/cache/class/lv_cache_lru_ll.c **** *  ┃     │  B  │               ┃ *
  15:Drivers/lvgl/src/misc/cache/class/lv_cache_lru_ll.c **** *        └──▲──┘                 *
  16:Drivers/lvgl/src/misc/cache/class/lv_cache_lru_ll.c **** *  ┃        │                  ┃ *
  17:Drivers/lvgl/src/misc/cache/class/lv_cache_lru_ll.c **** *        ┌──┴──┐                 *
  18:Drivers/lvgl/src/misc/cache/class/lv_cache_lru_ll.c **** *  ┃     │  E  │               ┃ *
  19:Drivers/lvgl/src/misc/cache/class/lv_cache_lru_ll.c **** *        └──▲──┘                 *
  20:Drivers/lvgl/src/misc/cache/class/lv_cache_lru_ll.c **** *  ┃        │                  ┃ *
  21:Drivers/lvgl/src/misc/cache/class/lv_cache_lru_ll.c **** *        ┌──┴──┐                 *
  22:Drivers/lvgl/src/misc/cache/class/lv_cache_lru_ll.c **** *  ┃     │  A  │ ┌ ─ ─ ─ ─ ─ ┐ ┃ *
  23:Drivers/lvgl/src/misc/cache/class/lv_cache_lru_ll.c **** *        └──▲──┘      LRU        *
  24:Drivers/lvgl/src/misc/cache/class/lv_cache_lru_ll.c **** *  ┃        │    │   Cache   │ ┃ *
  25:Drivers/lvgl/src/misc/cache/class/lv_cache_lru_ll.c **** *        ┌──┴──┐  ─ ─ ─ ─ ─ ─    *
  26:Drivers/lvgl/src/misc/cache/class/lv_cache_lru_ll.c **** *  ┃     │  D  │               ┃ *
  27:Drivers/lvgl/src/misc/cache/class/lv_cache_lru_ll.c **** *        └──▲──┘                 *
  28:Drivers/lvgl/src/misc/cache/class/lv_cache_lru_ll.c **** *  ┃        │                  ┃ *
  29:Drivers/lvgl/src/misc/cache/class/lv_cache_lru_ll.c **** *        ┌──┴──┐                 *
  30:Drivers/lvgl/src/misc/cache/class/lv_cache_lru_ll.c **** *  ┃     │  C  │               ┃ *
ARM GAS  /var/folders/qx/2_175_4n2s19vhvtspjhb3qh0000gn/T//cczf0E1J.s 			page 2


  31:Drivers/lvgl/src/misc/cache/class/lv_cache_lru_ll.c **** *        └──▲──┘                 *
  32:Drivers/lvgl/src/misc/cache/class/lv_cache_lru_ll.c **** *  ┃   ┌ ─ ─│─ ─ ┐             ┃ *
  33:Drivers/lvgl/src/misc/cache/class/lv_cache_lru_ll.c **** *        ┌──┴──┐                 *
  34:Drivers/lvgl/src/misc/cache/class/lv_cache_lru_ll.c **** *  ┃   │ │  F  │ │             ┃ *
  35:Drivers/lvgl/src/misc/cache/class/lv_cache_lru_ll.c **** *        └─────┘                 *
  36:Drivers/lvgl/src/misc/cache/class/lv_cache_lru_ll.c **** *  ┃   └ ─ ─ ─ ─ ┘             ┃ *
  37:Drivers/lvgl/src/misc/cache/class/lv_cache_lru_ll.c **** *        remove                  *
  38:Drivers/lvgl/src/misc/cache/class/lv_cache_lru_ll.c **** *  ┃      tail                 ┃ *
  39:Drivers/lvgl/src/misc/cache/class/lv_cache_lru_ll.c **** *   ━ ━ ━ ━ ━ ━ ━ ━ ━ ━ ━ ━ ━ ━  *
  40:Drivers/lvgl/src/misc/cache/class/lv_cache_lru_ll.c **** *                                *
  41:Drivers/lvgl/src/misc/cache/class/lv_cache_lru_ll.c **** \*********************************/
  42:Drivers/lvgl/src/misc/cache/class/lv_cache_lru_ll.c **** 
  43:Drivers/lvgl/src/misc/cache/class/lv_cache_lru_ll.c **** /*********************
  44:Drivers/lvgl/src/misc/cache/class/lv_cache_lru_ll.c ****  *      INCLUDES
  45:Drivers/lvgl/src/misc/cache/class/lv_cache_lru_ll.c ****  *********************/
  46:Drivers/lvgl/src/misc/cache/class/lv_cache_lru_ll.c **** 
  47:Drivers/lvgl/src/misc/cache/class/lv_cache_lru_ll.c **** #include "lv_cache_lru_ll.h"
  48:Drivers/lvgl/src/misc/cache/class/lv_cache_lru_ll.c **** #include "../lv_cache_entry.h"
  49:Drivers/lvgl/src/misc/cache/class/lv_cache_lru_ll.c **** #include "../../../stdlib/lv_sprintf.h"
  50:Drivers/lvgl/src/misc/cache/class/lv_cache_lru_ll.c **** #include "../../../stdlib/lv_string.h"
  51:Drivers/lvgl/src/misc/cache/class/lv_cache_lru_ll.c **** #include "../../lv_ll.h"
  52:Drivers/lvgl/src/misc/cache/class/lv_cache_lru_ll.c **** 
  53:Drivers/lvgl/src/misc/cache/class/lv_cache_lru_ll.c **** #include "../../lv_iter.h"
  54:Drivers/lvgl/src/misc/cache/class/lv_cache_lru_ll.c **** #include "../../lv_assert.h"
  55:Drivers/lvgl/src/misc/cache/class/lv_cache_lru_ll.c **** 
  56:Drivers/lvgl/src/misc/cache/class/lv_cache_lru_ll.c **** /*********************
  57:Drivers/lvgl/src/misc/cache/class/lv_cache_lru_ll.c ****  *      DEFINES
  58:Drivers/lvgl/src/misc/cache/class/lv_cache_lru_ll.c ****  *********************/
  59:Drivers/lvgl/src/misc/cache/class/lv_cache_lru_ll.c **** 
  60:Drivers/lvgl/src/misc/cache/class/lv_cache_lru_ll.c **** /**********************
  61:Drivers/lvgl/src/misc/cache/class/lv_cache_lru_ll.c ****  *      TYPEDEFS
  62:Drivers/lvgl/src/misc/cache/class/lv_cache_lru_ll.c ****  **********************/
  63:Drivers/lvgl/src/misc/cache/class/lv_cache_lru_ll.c **** 
  64:Drivers/lvgl/src/misc/cache/class/lv_cache_lru_ll.c **** typedef uint32_t (get_data_size_cb_t)(const void * data);
  65:Drivers/lvgl/src/misc/cache/class/lv_cache_lru_ll.c **** 
  66:Drivers/lvgl/src/misc/cache/class/lv_cache_lru_ll.c **** struct _lv_cache_lru_ll_t {
  67:Drivers/lvgl/src/misc/cache/class/lv_cache_lru_ll.c ****     lv_cache_t cache;
  68:Drivers/lvgl/src/misc/cache/class/lv_cache_lru_ll.c ****     lv_ll_t ll;
  69:Drivers/lvgl/src/misc/cache/class/lv_cache_lru_ll.c ****     get_data_size_cb_t * get_data_size_cb;
  70:Drivers/lvgl/src/misc/cache/class/lv_cache_lru_ll.c **** };
  71:Drivers/lvgl/src/misc/cache/class/lv_cache_lru_ll.c **** 
  72:Drivers/lvgl/src/misc/cache/class/lv_cache_lru_ll.c **** typedef struct _lv_cache_lru_ll_t lv_cache_lru_ll_t;
  73:Drivers/lvgl/src/misc/cache/class/lv_cache_lru_ll.c **** 
  74:Drivers/lvgl/src/misc/cache/class/lv_cache_lru_ll.c **** /**********************
  75:Drivers/lvgl/src/misc/cache/class/lv_cache_lru_ll.c ****  *  STATIC PROTOTYPES
  76:Drivers/lvgl/src/misc/cache/class/lv_cache_lru_ll.c ****  **********************/
  77:Drivers/lvgl/src/misc/cache/class/lv_cache_lru_ll.c **** 
  78:Drivers/lvgl/src/misc/cache/class/lv_cache_lru_ll.c **** static void * alloc_cb(void);
  79:Drivers/lvgl/src/misc/cache/class/lv_cache_lru_ll.c **** static bool init_cnt_cb(lv_cache_t * cache);
  80:Drivers/lvgl/src/misc/cache/class/lv_cache_lru_ll.c **** static bool init_size_cb(lv_cache_t * cache);
  81:Drivers/lvgl/src/misc/cache/class/lv_cache_lru_ll.c **** static void  destroy_cb(lv_cache_t * cache, void * user_data);
  82:Drivers/lvgl/src/misc/cache/class/lv_cache_lru_ll.c **** 
  83:Drivers/lvgl/src/misc/cache/class/lv_cache_lru_ll.c **** static lv_cache_entry_t * get_cb(lv_cache_t * cache, const void * key, void * user_data);
  84:Drivers/lvgl/src/misc/cache/class/lv_cache_lru_ll.c **** static lv_cache_entry_t * add_cb(lv_cache_t * cache, const void * key, void * user_data);
  85:Drivers/lvgl/src/misc/cache/class/lv_cache_lru_ll.c **** static void remove_cb(lv_cache_t * cache, lv_cache_entry_t * entry, void * user_data);
  86:Drivers/lvgl/src/misc/cache/class/lv_cache_lru_ll.c **** static void drop_cb(lv_cache_t * cache, const void * key, void * user_data);
  87:Drivers/lvgl/src/misc/cache/class/lv_cache_lru_ll.c **** static void drop_all_cb(lv_cache_t * cache, void * user_data);
ARM GAS  /var/folders/qx/2_175_4n2s19vhvtspjhb3qh0000gn/T//cczf0E1J.s 			page 3


  88:Drivers/lvgl/src/misc/cache/class/lv_cache_lru_ll.c **** static lv_cache_entry_t * get_victim_cb(lv_cache_t * cache, void * user_data);
  89:Drivers/lvgl/src/misc/cache/class/lv_cache_lru_ll.c **** static lv_cache_reserve_cond_res_t reserve_cond_cb(lv_cache_t * cache, const void * key, size_t res
  90:Drivers/lvgl/src/misc/cache/class/lv_cache_lru_ll.c ****                                                    void * user_data);
  91:Drivers/lvgl/src/misc/cache/class/lv_cache_lru_ll.c **** 
  92:Drivers/lvgl/src/misc/cache/class/lv_cache_lru_ll.c **** static void * alloc_new_node(lv_cache_lru_ll_t * lru, void * key, void * user_data);
  93:Drivers/lvgl/src/misc/cache/class/lv_cache_lru_ll.c **** 
  94:Drivers/lvgl/src/misc/cache/class/lv_cache_lru_ll.c **** static uint32_t cnt_get_data_size_cb(const void * data);
  95:Drivers/lvgl/src/misc/cache/class/lv_cache_lru_ll.c **** static uint32_t size_get_data_size_cb(const void * data);
  96:Drivers/lvgl/src/misc/cache/class/lv_cache_lru_ll.c **** 
  97:Drivers/lvgl/src/misc/cache/class/lv_cache_lru_ll.c **** static lv_iter_t * cache_iter_create_cb(lv_cache_t * cache);
  98:Drivers/lvgl/src/misc/cache/class/lv_cache_lru_ll.c **** static lv_result_t cache_iter_next_cb(void * instance, void * context, void * elem);
  99:Drivers/lvgl/src/misc/cache/class/lv_cache_lru_ll.c **** 
 100:Drivers/lvgl/src/misc/cache/class/lv_cache_lru_ll.c **** /**********************
 101:Drivers/lvgl/src/misc/cache/class/lv_cache_lru_ll.c ****  *  GLOBAL VARIABLES
 102:Drivers/lvgl/src/misc/cache/class/lv_cache_lru_ll.c ****  **********************/
 103:Drivers/lvgl/src/misc/cache/class/lv_cache_lru_ll.c **** const lv_cache_class_t lv_cache_class_lru_ll_count = {
 104:Drivers/lvgl/src/misc/cache/class/lv_cache_lru_ll.c ****     .alloc_cb = alloc_cb,
 105:Drivers/lvgl/src/misc/cache/class/lv_cache_lru_ll.c ****     .init_cb = init_cnt_cb,
 106:Drivers/lvgl/src/misc/cache/class/lv_cache_lru_ll.c ****     .destroy_cb = destroy_cb,
 107:Drivers/lvgl/src/misc/cache/class/lv_cache_lru_ll.c **** 
 108:Drivers/lvgl/src/misc/cache/class/lv_cache_lru_ll.c ****     .get_cb = get_cb,
 109:Drivers/lvgl/src/misc/cache/class/lv_cache_lru_ll.c ****     .add_cb = add_cb,
 110:Drivers/lvgl/src/misc/cache/class/lv_cache_lru_ll.c ****     .remove_cb = remove_cb,
 111:Drivers/lvgl/src/misc/cache/class/lv_cache_lru_ll.c ****     .drop_cb = drop_cb,
 112:Drivers/lvgl/src/misc/cache/class/lv_cache_lru_ll.c ****     .drop_all_cb = drop_all_cb,
 113:Drivers/lvgl/src/misc/cache/class/lv_cache_lru_ll.c ****     .get_victim_cb = get_victim_cb,
 114:Drivers/lvgl/src/misc/cache/class/lv_cache_lru_ll.c ****     .reserve_cond_cb = reserve_cond_cb,
 115:Drivers/lvgl/src/misc/cache/class/lv_cache_lru_ll.c ****     .iter_create_cb = cache_iter_create_cb,
 116:Drivers/lvgl/src/misc/cache/class/lv_cache_lru_ll.c **** };
 117:Drivers/lvgl/src/misc/cache/class/lv_cache_lru_ll.c **** 
 118:Drivers/lvgl/src/misc/cache/class/lv_cache_lru_ll.c **** const lv_cache_class_t lv_cache_class_lru_ll_size = {
 119:Drivers/lvgl/src/misc/cache/class/lv_cache_lru_ll.c ****     .alloc_cb = alloc_cb,
 120:Drivers/lvgl/src/misc/cache/class/lv_cache_lru_ll.c ****     .init_cb = init_size_cb,
 121:Drivers/lvgl/src/misc/cache/class/lv_cache_lru_ll.c ****     .destroy_cb = destroy_cb,
 122:Drivers/lvgl/src/misc/cache/class/lv_cache_lru_ll.c **** 
 123:Drivers/lvgl/src/misc/cache/class/lv_cache_lru_ll.c ****     .get_cb = get_cb,
 124:Drivers/lvgl/src/misc/cache/class/lv_cache_lru_ll.c ****     .add_cb = add_cb,
 125:Drivers/lvgl/src/misc/cache/class/lv_cache_lru_ll.c ****     .remove_cb = remove_cb,
 126:Drivers/lvgl/src/misc/cache/class/lv_cache_lru_ll.c ****     .drop_cb = drop_cb,
 127:Drivers/lvgl/src/misc/cache/class/lv_cache_lru_ll.c ****     .drop_all_cb = drop_all_cb,
 128:Drivers/lvgl/src/misc/cache/class/lv_cache_lru_ll.c ****     .get_victim_cb = get_victim_cb,
 129:Drivers/lvgl/src/misc/cache/class/lv_cache_lru_ll.c ****     .reserve_cond_cb = reserve_cond_cb,
 130:Drivers/lvgl/src/misc/cache/class/lv_cache_lru_ll.c ****     .iter_create_cb = cache_iter_create_cb,
 131:Drivers/lvgl/src/misc/cache/class/lv_cache_lru_ll.c **** };
 132:Drivers/lvgl/src/misc/cache/class/lv_cache_lru_ll.c **** 
 133:Drivers/lvgl/src/misc/cache/class/lv_cache_lru_ll.c **** /**********************
 134:Drivers/lvgl/src/misc/cache/class/lv_cache_lru_ll.c ****  *  STATIC VARIABLES
 135:Drivers/lvgl/src/misc/cache/class/lv_cache_lru_ll.c ****  **********************/
 136:Drivers/lvgl/src/misc/cache/class/lv_cache_lru_ll.c **** 
 137:Drivers/lvgl/src/misc/cache/class/lv_cache_lru_ll.c **** /**********************
 138:Drivers/lvgl/src/misc/cache/class/lv_cache_lru_ll.c ****  *      MACROS
 139:Drivers/lvgl/src/misc/cache/class/lv_cache_lru_ll.c ****  **********************/
 140:Drivers/lvgl/src/misc/cache/class/lv_cache_lru_ll.c **** 
 141:Drivers/lvgl/src/misc/cache/class/lv_cache_lru_ll.c **** /**********************
 142:Drivers/lvgl/src/misc/cache/class/lv_cache_lru_ll.c ****  *   GLOBAL FUNCTIONS
 143:Drivers/lvgl/src/misc/cache/class/lv_cache_lru_ll.c ****  **********************/
 144:Drivers/lvgl/src/misc/cache/class/lv_cache_lru_ll.c **** 
ARM GAS  /var/folders/qx/2_175_4n2s19vhvtspjhb3qh0000gn/T//cczf0E1J.s 			page 4


 145:Drivers/lvgl/src/misc/cache/class/lv_cache_lru_ll.c **** /**********************
 146:Drivers/lvgl/src/misc/cache/class/lv_cache_lru_ll.c ****  *   STATIC FUNCTIONS
 147:Drivers/lvgl/src/misc/cache/class/lv_cache_lru_ll.c ****  **********************/
 148:Drivers/lvgl/src/misc/cache/class/lv_cache_lru_ll.c **** 
 149:Drivers/lvgl/src/misc/cache/class/lv_cache_lru_ll.c **** static void * alloc_new_node(lv_cache_lru_ll_t * lru, void * key, void * user_data)
 150:Drivers/lvgl/src/misc/cache/class/lv_cache_lru_ll.c **** {
 151:Drivers/lvgl/src/misc/cache/class/lv_cache_lru_ll.c ****     LV_UNUSED(user_data);
 152:Drivers/lvgl/src/misc/cache/class/lv_cache_lru_ll.c **** 
 153:Drivers/lvgl/src/misc/cache/class/lv_cache_lru_ll.c ****     LV_ASSERT_NULL(lru);
 154:Drivers/lvgl/src/misc/cache/class/lv_cache_lru_ll.c ****     LV_ASSERT_NULL(key);
 155:Drivers/lvgl/src/misc/cache/class/lv_cache_lru_ll.c **** 
 156:Drivers/lvgl/src/misc/cache/class/lv_cache_lru_ll.c ****     if(lru == NULL || key == NULL) {
 157:Drivers/lvgl/src/misc/cache/class/lv_cache_lru_ll.c ****         return NULL;
 158:Drivers/lvgl/src/misc/cache/class/lv_cache_lru_ll.c ****     }
 159:Drivers/lvgl/src/misc/cache/class/lv_cache_lru_ll.c **** 
 160:Drivers/lvgl/src/misc/cache/class/lv_cache_lru_ll.c ****     void * new_node = lv_ll_ins_head(&lru->ll);
 161:Drivers/lvgl/src/misc/cache/class/lv_cache_lru_ll.c ****     if(new_node == NULL) {
 162:Drivers/lvgl/src/misc/cache/class/lv_cache_lru_ll.c ****         return NULL;
 163:Drivers/lvgl/src/misc/cache/class/lv_cache_lru_ll.c ****     }
 164:Drivers/lvgl/src/misc/cache/class/lv_cache_lru_ll.c **** 
 165:Drivers/lvgl/src/misc/cache/class/lv_cache_lru_ll.c ****     lv_memcpy(new_node, key, lru->cache.node_size);
 166:Drivers/lvgl/src/misc/cache/class/lv_cache_lru_ll.c ****     lv_cache_entry_t * entry = lv_cache_entry_get_entry(new_node, lru->cache.node_size);
 167:Drivers/lvgl/src/misc/cache/class/lv_cache_lru_ll.c ****     lv_cache_entry_init(entry, &lru->cache, lru->cache.node_size);
 168:Drivers/lvgl/src/misc/cache/class/lv_cache_lru_ll.c ****     return entry;
 169:Drivers/lvgl/src/misc/cache/class/lv_cache_lru_ll.c **** }
 170:Drivers/lvgl/src/misc/cache/class/lv_cache_lru_ll.c **** 
 171:Drivers/lvgl/src/misc/cache/class/lv_cache_lru_ll.c **** static void * alloc_cb(void)
 172:Drivers/lvgl/src/misc/cache/class/lv_cache_lru_ll.c **** {
 173:Drivers/lvgl/src/misc/cache/class/lv_cache_lru_ll.c ****     void * res = lv_malloc(sizeof(lv_cache_lru_ll_t));
 174:Drivers/lvgl/src/misc/cache/class/lv_cache_lru_ll.c ****     LV_ASSERT_MALLOC(res);
 175:Drivers/lvgl/src/misc/cache/class/lv_cache_lru_ll.c ****     if(res == NULL) {
 176:Drivers/lvgl/src/misc/cache/class/lv_cache_lru_ll.c ****         LV_LOG_ERROR("malloc failed");
 177:Drivers/lvgl/src/misc/cache/class/lv_cache_lru_ll.c ****         return NULL;
 178:Drivers/lvgl/src/misc/cache/class/lv_cache_lru_ll.c ****     }
 179:Drivers/lvgl/src/misc/cache/class/lv_cache_lru_ll.c **** 
 180:Drivers/lvgl/src/misc/cache/class/lv_cache_lru_ll.c ****     lv_memzero(res, sizeof(lv_cache_lru_ll_t));
 181:Drivers/lvgl/src/misc/cache/class/lv_cache_lru_ll.c ****     return res;
 182:Drivers/lvgl/src/misc/cache/class/lv_cache_lru_ll.c **** }
 183:Drivers/lvgl/src/misc/cache/class/lv_cache_lru_ll.c **** 
 184:Drivers/lvgl/src/misc/cache/class/lv_cache_lru_ll.c **** static bool init_cnt_cb(lv_cache_t * cache)
 185:Drivers/lvgl/src/misc/cache/class/lv_cache_lru_ll.c **** {
 186:Drivers/lvgl/src/misc/cache/class/lv_cache_lru_ll.c ****     lv_cache_lru_ll_t * lru = (lv_cache_lru_ll_t *)cache;
 187:Drivers/lvgl/src/misc/cache/class/lv_cache_lru_ll.c **** 
 188:Drivers/lvgl/src/misc/cache/class/lv_cache_lru_ll.c ****     LV_ASSERT_NULL(lru->cache.ops.compare_cb);
 189:Drivers/lvgl/src/misc/cache/class/lv_cache_lru_ll.c ****     LV_ASSERT_NULL(lru->cache.ops.free_cb);
 190:Drivers/lvgl/src/misc/cache/class/lv_cache_lru_ll.c ****     LV_ASSERT(lru->cache.node_size > 0);
 191:Drivers/lvgl/src/misc/cache/class/lv_cache_lru_ll.c **** 
 192:Drivers/lvgl/src/misc/cache/class/lv_cache_lru_ll.c ****     if(lru->cache.node_size <= 0 || lru->cache.ops.compare_cb == NULL || lru->cache.ops.free_cb == 
 193:Drivers/lvgl/src/misc/cache/class/lv_cache_lru_ll.c ****         return false;
 194:Drivers/lvgl/src/misc/cache/class/lv_cache_lru_ll.c ****     }
 195:Drivers/lvgl/src/misc/cache/class/lv_cache_lru_ll.c **** 
 196:Drivers/lvgl/src/misc/cache/class/lv_cache_lru_ll.c ****     lv_ll_init(&lru->ll, lv_cache_entry_get_size(lru->cache.node_size));
 197:Drivers/lvgl/src/misc/cache/class/lv_cache_lru_ll.c ****     lru->get_data_size_cb = cnt_get_data_size_cb;
 198:Drivers/lvgl/src/misc/cache/class/lv_cache_lru_ll.c **** 
 199:Drivers/lvgl/src/misc/cache/class/lv_cache_lru_ll.c ****     return true;
 200:Drivers/lvgl/src/misc/cache/class/lv_cache_lru_ll.c **** }
 201:Drivers/lvgl/src/misc/cache/class/lv_cache_lru_ll.c **** 
ARM GAS  /var/folders/qx/2_175_4n2s19vhvtspjhb3qh0000gn/T//cczf0E1J.s 			page 5


 202:Drivers/lvgl/src/misc/cache/class/lv_cache_lru_ll.c **** static bool init_size_cb(lv_cache_t * cache)
 203:Drivers/lvgl/src/misc/cache/class/lv_cache_lru_ll.c **** {
 204:Drivers/lvgl/src/misc/cache/class/lv_cache_lru_ll.c ****     lv_cache_lru_ll_t * lru = (lv_cache_lru_ll_t *)cache;
 205:Drivers/lvgl/src/misc/cache/class/lv_cache_lru_ll.c **** 
 206:Drivers/lvgl/src/misc/cache/class/lv_cache_lru_ll.c ****     LV_ASSERT_NULL(lru->cache.ops.compare_cb);
 207:Drivers/lvgl/src/misc/cache/class/lv_cache_lru_ll.c ****     LV_ASSERT_NULL(lru->cache.ops.free_cb);
 208:Drivers/lvgl/src/misc/cache/class/lv_cache_lru_ll.c ****     LV_ASSERT(lru->cache.node_size > 0);
 209:Drivers/lvgl/src/misc/cache/class/lv_cache_lru_ll.c **** 
 210:Drivers/lvgl/src/misc/cache/class/lv_cache_lru_ll.c ****     if(lru->cache.node_size <= 0 || lru->cache.ops.compare_cb == NULL || lru->cache.ops.free_cb == 
 211:Drivers/lvgl/src/misc/cache/class/lv_cache_lru_ll.c ****         return false;
 212:Drivers/lvgl/src/misc/cache/class/lv_cache_lru_ll.c ****     }
 213:Drivers/lvgl/src/misc/cache/class/lv_cache_lru_ll.c **** 
 214:Drivers/lvgl/src/misc/cache/class/lv_cache_lru_ll.c ****     lv_ll_init(&lru->ll, lv_cache_entry_get_size(lru->cache.node_size));
 215:Drivers/lvgl/src/misc/cache/class/lv_cache_lru_ll.c ****     lru->get_data_size_cb = size_get_data_size_cb;
 216:Drivers/lvgl/src/misc/cache/class/lv_cache_lru_ll.c **** 
 217:Drivers/lvgl/src/misc/cache/class/lv_cache_lru_ll.c ****     return true;
 218:Drivers/lvgl/src/misc/cache/class/lv_cache_lru_ll.c **** }
 219:Drivers/lvgl/src/misc/cache/class/lv_cache_lru_ll.c **** 
 220:Drivers/lvgl/src/misc/cache/class/lv_cache_lru_ll.c **** static void destroy_cb(lv_cache_t * cache, void * user_data)
 221:Drivers/lvgl/src/misc/cache/class/lv_cache_lru_ll.c **** {
  29              		.loc 1 221 1 view -0
  30              		.cfi_startproc
  31              		@ args = 0, pretend = 0, frame = 0
  32              		@ frame_needed = 0, uses_anonymous_args = 0
 222:Drivers/lvgl/src/misc/cache/class/lv_cache_lru_ll.c ****     LV_UNUSED(user_data);
  33              		.loc 1 222 5 view .LVU1
 223:Drivers/lvgl/src/misc/cache/class/lv_cache_lru_ll.c **** 
 224:Drivers/lvgl/src/misc/cache/class/lv_cache_lru_ll.c ****     lv_cache_lru_ll_t * lru = (lv_cache_lru_ll_t *)cache;
  34              		.loc 1 224 5 view .LVU2
 225:Drivers/lvgl/src/misc/cache/class/lv_cache_lru_ll.c **** 
 226:Drivers/lvgl/src/misc/cache/class/lv_cache_lru_ll.c ****     LV_ASSERT_NULL(lru);
  35              		.loc 1 226 5 view .LVU3
  36              		.loc 1 226 5 view .LVU4
  37 0000 38B1     		cbz	r0, .L3
 221:Drivers/lvgl/src/misc/cache/class/lv_cache_lru_ll.c ****     LV_UNUSED(user_data);
  38              		.loc 1 221 1 is_stmt 0 view .LVU5
  39 0002 10B5     		push	{r4, lr}
  40              	.LCFI0:
  41              		.cfi_def_cfa_offset 8
  42              		.cfi_offset 4, -8
  43              		.cfi_offset 14, -4
  44 0004 0446     		mov	r4, r0
  45              		.loc 1 226 5 is_stmt 1 view .LVU6
  46              		.loc 1 226 24 view .LVU7
 227:Drivers/lvgl/src/misc/cache/class/lv_cache_lru_ll.c **** 
 228:Drivers/lvgl/src/misc/cache/class/lv_cache_lru_ll.c ****     if(lru == NULL) {
  47              		.loc 1 228 5 view .LVU8
 229:Drivers/lvgl/src/misc/cache/class/lv_cache_lru_ll.c ****         return;
 230:Drivers/lvgl/src/misc/cache/class/lv_cache_lru_ll.c ****     }
 231:Drivers/lvgl/src/misc/cache/class/lv_cache_lru_ll.c **** 
 232:Drivers/lvgl/src/misc/cache/class/lv_cache_lru_ll.c ****     cache->clz->drop_all_cb(cache, user_data);
  48              		.loc 1 232 5 view .LVU9
  49              		.loc 1 232 10 is_stmt 0 view .LVU10
  50 0006 0368     		ldr	r3, [r0]
  51              		.loc 1 232 15 view .LVU11
  52 0008 DB69     		ldr	r3, [r3, #28]
  53              		.loc 1 232 5 view .LVU12
ARM GAS  /var/folders/qx/2_175_4n2s19vhvtspjhb3qh0000gn/T//cczf0E1J.s 			page 6


  54 000a 9847     		blx	r3
  55              	.LVL1:
 233:Drivers/lvgl/src/misc/cache/class/lv_cache_lru_ll.c ****     cache->size = 0;
  56              		.loc 1 233 5 is_stmt 1 view .LVU13
  57              		.loc 1 233 17 is_stmt 0 view .LVU14
  58 000c 0023     		movs	r3, #0
  59 000e E360     		str	r3, [r4, #12]
 234:Drivers/lvgl/src/misc/cache/class/lv_cache_lru_ll.c **** }
  60              		.loc 1 234 1 view .LVU15
  61 0010 10BD     		pop	{r4, pc}
  62              	.LVL2:
  63              	.L3:
  64              	.LCFI1:
  65              		.cfi_def_cfa_offset 0
  66              		.cfi_restore 4
  67              		.cfi_restore 14
 226:Drivers/lvgl/src/misc/cache/class/lv_cache_lru_ll.c **** 
  68              		.loc 1 226 5 is_stmt 1 view .LVU16
 226:Drivers/lvgl/src/misc/cache/class/lv_cache_lru_ll.c **** 
  69              		.loc 1 226 5 view .LVU17
 226:Drivers/lvgl/src/misc/cache/class/lv_cache_lru_ll.c **** 
  70              		.loc 1 226 5 view .LVU18
 226:Drivers/lvgl/src/misc/cache/class/lv_cache_lru_ll.c **** 
  71              		.loc 1 226 5 view .LVU19
 226:Drivers/lvgl/src/misc/cache/class/lv_cache_lru_ll.c **** 
  72              		.loc 1 226 5 view .LVU20
  73 0012 FEE7     		b	.L3
  74              		.cfi_endproc
  75              	.LFE18:
  77              		.section	.text.reserve_cond_cb,"ax",%progbits
  78              		.align	1
  79              		.syntax unified
  80              		.thumb
  81              		.thumb_func
  83              	reserve_cond_cb:
  84              	.LVL3:
  85              	.LFB25:
 235:Drivers/lvgl/src/misc/cache/class/lv_cache_lru_ll.c **** 
 236:Drivers/lvgl/src/misc/cache/class/lv_cache_lru_ll.c **** static lv_cache_entry_t * get_cb(lv_cache_t * cache, const void * key, void * user_data)
 237:Drivers/lvgl/src/misc/cache/class/lv_cache_lru_ll.c **** {
 238:Drivers/lvgl/src/misc/cache/class/lv_cache_lru_ll.c ****     LV_UNUSED(user_data);
 239:Drivers/lvgl/src/misc/cache/class/lv_cache_lru_ll.c **** 
 240:Drivers/lvgl/src/misc/cache/class/lv_cache_lru_ll.c ****     lv_cache_lru_ll_t * lru = (lv_cache_lru_ll_t *)cache;
 241:Drivers/lvgl/src/misc/cache/class/lv_cache_lru_ll.c **** 
 242:Drivers/lvgl/src/misc/cache/class/lv_cache_lru_ll.c ****     LV_ASSERT_NULL(lru);
 243:Drivers/lvgl/src/misc/cache/class/lv_cache_lru_ll.c ****     LV_ASSERT_NULL(key);
 244:Drivers/lvgl/src/misc/cache/class/lv_cache_lru_ll.c **** 
 245:Drivers/lvgl/src/misc/cache/class/lv_cache_lru_ll.c ****     if(lru == NULL || key == NULL) {
 246:Drivers/lvgl/src/misc/cache/class/lv_cache_lru_ll.c ****         return NULL;
 247:Drivers/lvgl/src/misc/cache/class/lv_cache_lru_ll.c ****     }
 248:Drivers/lvgl/src/misc/cache/class/lv_cache_lru_ll.c **** 
 249:Drivers/lvgl/src/misc/cache/class/lv_cache_lru_ll.c ****     /* Linear search */
 250:Drivers/lvgl/src/misc/cache/class/lv_cache_lru_ll.c ****     void * node = NULL;
 251:Drivers/lvgl/src/misc/cache/class/lv_cache_lru_ll.c ****     LV_LL_READ(&lru->ll, node) {
 252:Drivers/lvgl/src/misc/cache/class/lv_cache_lru_ll.c ****         if(lru->cache.ops.compare_cb(node, key) == 0) {
 253:Drivers/lvgl/src/misc/cache/class/lv_cache_lru_ll.c ****             break;
 254:Drivers/lvgl/src/misc/cache/class/lv_cache_lru_ll.c ****         }
ARM GAS  /var/folders/qx/2_175_4n2s19vhvtspjhb3qh0000gn/T//cczf0E1J.s 			page 7


 255:Drivers/lvgl/src/misc/cache/class/lv_cache_lru_ll.c ****     }
 256:Drivers/lvgl/src/misc/cache/class/lv_cache_lru_ll.c ****     /*cache hit*/
 257:Drivers/lvgl/src/misc/cache/class/lv_cache_lru_ll.c ****     if(node) {
 258:Drivers/lvgl/src/misc/cache/class/lv_cache_lru_ll.c ****         void * head = lv_ll_get_head(&lru->ll);
 259:Drivers/lvgl/src/misc/cache/class/lv_cache_lru_ll.c ****         lv_ll_move_before(&lru->ll, node, head);
 260:Drivers/lvgl/src/misc/cache/class/lv_cache_lru_ll.c **** 
 261:Drivers/lvgl/src/misc/cache/class/lv_cache_lru_ll.c ****         lv_cache_entry_t * entry = lv_cache_entry_get_entry(node, cache->node_size);
 262:Drivers/lvgl/src/misc/cache/class/lv_cache_lru_ll.c ****         return entry;
 263:Drivers/lvgl/src/misc/cache/class/lv_cache_lru_ll.c ****     }
 264:Drivers/lvgl/src/misc/cache/class/lv_cache_lru_ll.c ****     return NULL;
 265:Drivers/lvgl/src/misc/cache/class/lv_cache_lru_ll.c **** }
 266:Drivers/lvgl/src/misc/cache/class/lv_cache_lru_ll.c **** 
 267:Drivers/lvgl/src/misc/cache/class/lv_cache_lru_ll.c **** static lv_cache_entry_t * add_cb(lv_cache_t * cache, const void * key, void * user_data)
 268:Drivers/lvgl/src/misc/cache/class/lv_cache_lru_ll.c **** {
 269:Drivers/lvgl/src/misc/cache/class/lv_cache_lru_ll.c ****     LV_UNUSED(user_data);
 270:Drivers/lvgl/src/misc/cache/class/lv_cache_lru_ll.c **** 
 271:Drivers/lvgl/src/misc/cache/class/lv_cache_lru_ll.c ****     lv_cache_lru_ll_t * lru = (lv_cache_lru_ll_t *)cache;
 272:Drivers/lvgl/src/misc/cache/class/lv_cache_lru_ll.c **** 
 273:Drivers/lvgl/src/misc/cache/class/lv_cache_lru_ll.c ****     LV_ASSERT_NULL(lru);
 274:Drivers/lvgl/src/misc/cache/class/lv_cache_lru_ll.c ****     LV_ASSERT_NULL(key);
 275:Drivers/lvgl/src/misc/cache/class/lv_cache_lru_ll.c **** 
 276:Drivers/lvgl/src/misc/cache/class/lv_cache_lru_ll.c ****     if(lru == NULL || key == NULL) {
 277:Drivers/lvgl/src/misc/cache/class/lv_cache_lru_ll.c ****         return NULL;
 278:Drivers/lvgl/src/misc/cache/class/lv_cache_lru_ll.c ****     }
 279:Drivers/lvgl/src/misc/cache/class/lv_cache_lru_ll.c **** 
 280:Drivers/lvgl/src/misc/cache/class/lv_cache_lru_ll.c ****     lv_cache_entry_t * entry = alloc_new_node(lru, (void *)key, user_data);
 281:Drivers/lvgl/src/misc/cache/class/lv_cache_lru_ll.c ****     if(entry == NULL) {
 282:Drivers/lvgl/src/misc/cache/class/lv_cache_lru_ll.c ****         return NULL;
 283:Drivers/lvgl/src/misc/cache/class/lv_cache_lru_ll.c ****     }
 284:Drivers/lvgl/src/misc/cache/class/lv_cache_lru_ll.c **** 
 285:Drivers/lvgl/src/misc/cache/class/lv_cache_lru_ll.c ****     cache->size += lru->get_data_size_cb(key);
 286:Drivers/lvgl/src/misc/cache/class/lv_cache_lru_ll.c **** 
 287:Drivers/lvgl/src/misc/cache/class/lv_cache_lru_ll.c ****     return entry;
 288:Drivers/lvgl/src/misc/cache/class/lv_cache_lru_ll.c **** }
 289:Drivers/lvgl/src/misc/cache/class/lv_cache_lru_ll.c **** 
 290:Drivers/lvgl/src/misc/cache/class/lv_cache_lru_ll.c **** static void remove_cb(lv_cache_t * cache, lv_cache_entry_t * entry, void * user_data)
 291:Drivers/lvgl/src/misc/cache/class/lv_cache_lru_ll.c **** {
 292:Drivers/lvgl/src/misc/cache/class/lv_cache_lru_ll.c ****     LV_UNUSED(user_data);
 293:Drivers/lvgl/src/misc/cache/class/lv_cache_lru_ll.c **** 
 294:Drivers/lvgl/src/misc/cache/class/lv_cache_lru_ll.c ****     lv_cache_lru_ll_t * lru = (lv_cache_lru_ll_t *)cache;
 295:Drivers/lvgl/src/misc/cache/class/lv_cache_lru_ll.c **** 
 296:Drivers/lvgl/src/misc/cache/class/lv_cache_lru_ll.c ****     LV_ASSERT_NULL(lru);
 297:Drivers/lvgl/src/misc/cache/class/lv_cache_lru_ll.c ****     LV_ASSERT_NULL(entry);
 298:Drivers/lvgl/src/misc/cache/class/lv_cache_lru_ll.c **** 
 299:Drivers/lvgl/src/misc/cache/class/lv_cache_lru_ll.c ****     if(lru == NULL || entry == NULL) {
 300:Drivers/lvgl/src/misc/cache/class/lv_cache_lru_ll.c ****         return;
 301:Drivers/lvgl/src/misc/cache/class/lv_cache_lru_ll.c ****     }
 302:Drivers/lvgl/src/misc/cache/class/lv_cache_lru_ll.c **** 
 303:Drivers/lvgl/src/misc/cache/class/lv_cache_lru_ll.c ****     void * node = lv_cache_entry_get_data(entry);
 304:Drivers/lvgl/src/misc/cache/class/lv_cache_lru_ll.c **** 
 305:Drivers/lvgl/src/misc/cache/class/lv_cache_lru_ll.c ****     lv_ll_remove(&lru->ll, node);
 306:Drivers/lvgl/src/misc/cache/class/lv_cache_lru_ll.c **** 
 307:Drivers/lvgl/src/misc/cache/class/lv_cache_lru_ll.c ****     cache->size -= lru->get_data_size_cb(node);
 308:Drivers/lvgl/src/misc/cache/class/lv_cache_lru_ll.c **** }
 309:Drivers/lvgl/src/misc/cache/class/lv_cache_lru_ll.c **** 
 310:Drivers/lvgl/src/misc/cache/class/lv_cache_lru_ll.c **** static void drop_cb(lv_cache_t * cache, const void * key, void * user_data)
 311:Drivers/lvgl/src/misc/cache/class/lv_cache_lru_ll.c **** {
ARM GAS  /var/folders/qx/2_175_4n2s19vhvtspjhb3qh0000gn/T//cczf0E1J.s 			page 8


 312:Drivers/lvgl/src/misc/cache/class/lv_cache_lru_ll.c ****     lv_cache_lru_ll_t * lru = (lv_cache_lru_ll_t *)cache;
 313:Drivers/lvgl/src/misc/cache/class/lv_cache_lru_ll.c **** 
 314:Drivers/lvgl/src/misc/cache/class/lv_cache_lru_ll.c ****     LV_ASSERT_NULL(lru);
 315:Drivers/lvgl/src/misc/cache/class/lv_cache_lru_ll.c ****     LV_ASSERT_NULL(key);
 316:Drivers/lvgl/src/misc/cache/class/lv_cache_lru_ll.c **** 
 317:Drivers/lvgl/src/misc/cache/class/lv_cache_lru_ll.c ****     if(lru == NULL || key == NULL) {
 318:Drivers/lvgl/src/misc/cache/class/lv_cache_lru_ll.c ****         return;
 319:Drivers/lvgl/src/misc/cache/class/lv_cache_lru_ll.c ****     }
 320:Drivers/lvgl/src/misc/cache/class/lv_cache_lru_ll.c **** 
 321:Drivers/lvgl/src/misc/cache/class/lv_cache_lru_ll.c ****     void * node = cache->clz->get_cb(cache, key, user_data);
 322:Drivers/lvgl/src/misc/cache/class/lv_cache_lru_ll.c ****     if(node == NULL) {
 323:Drivers/lvgl/src/misc/cache/class/lv_cache_lru_ll.c ****         return;
 324:Drivers/lvgl/src/misc/cache/class/lv_cache_lru_ll.c ****     }
 325:Drivers/lvgl/src/misc/cache/class/lv_cache_lru_ll.c ****     lv_ll_remove(&lru->ll, node);
 326:Drivers/lvgl/src/misc/cache/class/lv_cache_lru_ll.c **** 
 327:Drivers/lvgl/src/misc/cache/class/lv_cache_lru_ll.c ****     lru->cache.ops.free_cb(node, user_data);
 328:Drivers/lvgl/src/misc/cache/class/lv_cache_lru_ll.c ****     cache->size -= lru->get_data_size_cb(node);
 329:Drivers/lvgl/src/misc/cache/class/lv_cache_lru_ll.c **** 
 330:Drivers/lvgl/src/misc/cache/class/lv_cache_lru_ll.c ****     lv_cache_entry_t * entry = lv_cache_entry_get_entry(node, cache->node_size);
 331:Drivers/lvgl/src/misc/cache/class/lv_cache_lru_ll.c ****     lv_cache_entry_delete(entry);
 332:Drivers/lvgl/src/misc/cache/class/lv_cache_lru_ll.c **** }
 333:Drivers/lvgl/src/misc/cache/class/lv_cache_lru_ll.c **** 
 334:Drivers/lvgl/src/misc/cache/class/lv_cache_lru_ll.c **** static void drop_all_cb(lv_cache_t * cache, void * user_data)
 335:Drivers/lvgl/src/misc/cache/class/lv_cache_lru_ll.c **** {
 336:Drivers/lvgl/src/misc/cache/class/lv_cache_lru_ll.c ****     lv_cache_lru_ll_t * lru = (lv_cache_lru_ll_t *)cache;
 337:Drivers/lvgl/src/misc/cache/class/lv_cache_lru_ll.c **** 
 338:Drivers/lvgl/src/misc/cache/class/lv_cache_lru_ll.c ****     LV_ASSERT_NULL(lru);
 339:Drivers/lvgl/src/misc/cache/class/lv_cache_lru_ll.c **** 
 340:Drivers/lvgl/src/misc/cache/class/lv_cache_lru_ll.c ****     if(lru == NULL) {
 341:Drivers/lvgl/src/misc/cache/class/lv_cache_lru_ll.c ****         return;
 342:Drivers/lvgl/src/misc/cache/class/lv_cache_lru_ll.c ****     }
 343:Drivers/lvgl/src/misc/cache/class/lv_cache_lru_ll.c **** 
 344:Drivers/lvgl/src/misc/cache/class/lv_cache_lru_ll.c ****     uint32_t used_cnt = 0;
 345:Drivers/lvgl/src/misc/cache/class/lv_cache_lru_ll.c ****     void * node;
 346:Drivers/lvgl/src/misc/cache/class/lv_cache_lru_ll.c ****     LV_LL_READ(&lru->ll, node) {
 347:Drivers/lvgl/src/misc/cache/class/lv_cache_lru_ll.c ****         /*free user handled data and do other clean up*/
 348:Drivers/lvgl/src/misc/cache/class/lv_cache_lru_ll.c ****         lv_cache_entry_t * entry = lv_cache_entry_get_entry(node, cache->node_size);
 349:Drivers/lvgl/src/misc/cache/class/lv_cache_lru_ll.c ****         if(lv_cache_entry_get_ref(entry) == 0) {
 350:Drivers/lvgl/src/misc/cache/class/lv_cache_lru_ll.c ****             lru->cache.ops.free_cb(node, user_data);
 351:Drivers/lvgl/src/misc/cache/class/lv_cache_lru_ll.c ****         }
 352:Drivers/lvgl/src/misc/cache/class/lv_cache_lru_ll.c ****         else {
 353:Drivers/lvgl/src/misc/cache/class/lv_cache_lru_ll.c ****             LV_LOG_WARN("entry (%p) is still referenced (%" LV_PRId32 ")", (void *)entry, lv_cache_
 354:Drivers/lvgl/src/misc/cache/class/lv_cache_lru_ll.c ****             used_cnt++;
 355:Drivers/lvgl/src/misc/cache/class/lv_cache_lru_ll.c ****         }
 356:Drivers/lvgl/src/misc/cache/class/lv_cache_lru_ll.c ****     }
 357:Drivers/lvgl/src/misc/cache/class/lv_cache_lru_ll.c ****     if(used_cnt > 0) {
 358:Drivers/lvgl/src/misc/cache/class/lv_cache_lru_ll.c ****         LV_LOG_WARN("%" LV_PRId32 " entries are still referenced", used_cnt);
 359:Drivers/lvgl/src/misc/cache/class/lv_cache_lru_ll.c ****     }
 360:Drivers/lvgl/src/misc/cache/class/lv_cache_lru_ll.c **** 
 361:Drivers/lvgl/src/misc/cache/class/lv_cache_lru_ll.c ****     lv_ll_clear(&lru->ll);
 362:Drivers/lvgl/src/misc/cache/class/lv_cache_lru_ll.c **** 
 363:Drivers/lvgl/src/misc/cache/class/lv_cache_lru_ll.c ****     cache->size = 0;
 364:Drivers/lvgl/src/misc/cache/class/lv_cache_lru_ll.c **** }
 365:Drivers/lvgl/src/misc/cache/class/lv_cache_lru_ll.c **** 
 366:Drivers/lvgl/src/misc/cache/class/lv_cache_lru_ll.c **** static lv_cache_entry_t * get_victim_cb(lv_cache_t * cache, void * user_data)
 367:Drivers/lvgl/src/misc/cache/class/lv_cache_lru_ll.c **** {
 368:Drivers/lvgl/src/misc/cache/class/lv_cache_lru_ll.c ****     LV_UNUSED(user_data);
ARM GAS  /var/folders/qx/2_175_4n2s19vhvtspjhb3qh0000gn/T//cczf0E1J.s 			page 9


 369:Drivers/lvgl/src/misc/cache/class/lv_cache_lru_ll.c **** 
 370:Drivers/lvgl/src/misc/cache/class/lv_cache_lru_ll.c ****     lv_cache_lru_ll_t * lru = (lv_cache_lru_ll_t *)cache;
 371:Drivers/lvgl/src/misc/cache/class/lv_cache_lru_ll.c **** 
 372:Drivers/lvgl/src/misc/cache/class/lv_cache_lru_ll.c ****     LV_ASSERT_NULL(lru);
 373:Drivers/lvgl/src/misc/cache/class/lv_cache_lru_ll.c **** 
 374:Drivers/lvgl/src/misc/cache/class/lv_cache_lru_ll.c ****     void * tail;
 375:Drivers/lvgl/src/misc/cache/class/lv_cache_lru_ll.c ****     LV_LL_READ_BACK(&lru->ll, tail) {
 376:Drivers/lvgl/src/misc/cache/class/lv_cache_lru_ll.c ****         lv_cache_entry_t * entry = lv_cache_entry_get_entry(tail, cache->node_size);
 377:Drivers/lvgl/src/misc/cache/class/lv_cache_lru_ll.c ****         if(lv_cache_entry_get_ref(entry) == 0) {
 378:Drivers/lvgl/src/misc/cache/class/lv_cache_lru_ll.c ****             return entry;
 379:Drivers/lvgl/src/misc/cache/class/lv_cache_lru_ll.c ****         }
 380:Drivers/lvgl/src/misc/cache/class/lv_cache_lru_ll.c ****     }
 381:Drivers/lvgl/src/misc/cache/class/lv_cache_lru_ll.c **** 
 382:Drivers/lvgl/src/misc/cache/class/lv_cache_lru_ll.c ****     return NULL;
 383:Drivers/lvgl/src/misc/cache/class/lv_cache_lru_ll.c **** }
 384:Drivers/lvgl/src/misc/cache/class/lv_cache_lru_ll.c **** 
 385:Drivers/lvgl/src/misc/cache/class/lv_cache_lru_ll.c **** static lv_cache_reserve_cond_res_t reserve_cond_cb(lv_cache_t * cache, const void * key, size_t res
 386:Drivers/lvgl/src/misc/cache/class/lv_cache_lru_ll.c ****                                                    void * user_data)
 387:Drivers/lvgl/src/misc/cache/class/lv_cache_lru_ll.c **** {
  86              		.loc 1 387 1 view -0
  87              		.cfi_startproc
  88              		@ args = 0, pretend = 0, frame = 0
  89              		@ frame_needed = 0, uses_anonymous_args = 0
 388:Drivers/lvgl/src/misc/cache/class/lv_cache_lru_ll.c ****     LV_UNUSED(user_data);
  90              		.loc 1 388 5 view .LVU22
 389:Drivers/lvgl/src/misc/cache/class/lv_cache_lru_ll.c **** 
 390:Drivers/lvgl/src/misc/cache/class/lv_cache_lru_ll.c ****     lv_cache_lru_ll_t * lru = (lv_cache_lru_ll_t *)cache;
  91              		.loc 1 390 5 view .LVU23
 391:Drivers/lvgl/src/misc/cache/class/lv_cache_lru_ll.c **** 
 392:Drivers/lvgl/src/misc/cache/class/lv_cache_lru_ll.c ****     LV_ASSERT_NULL(lru);
  92              		.loc 1 392 5 view .LVU24
  93              		.loc 1 392 5 view .LVU25
  94 0000 88B1     		cbz	r0, .L8
 387:Drivers/lvgl/src/misc/cache/class/lv_cache_lru_ll.c ****     LV_UNUSED(user_data);
  95              		.loc 1 387 1 is_stmt 0 view .LVU26
  96 0002 38B5     		push	{r3, r4, r5, lr}
  97              	.LCFI2:
  98              		.cfi_def_cfa_offset 16
  99              		.cfi_offset 3, -16
 100              		.cfi_offset 4, -12
 101              		.cfi_offset 5, -8
 102              		.cfi_offset 14, -4
 103 0004 1546     		mov	r5, r2
 104 0006 0446     		mov	r4, r0
 105              		.loc 1 392 5 is_stmt 1 view .LVU27
 106              		.loc 1 392 24 view .LVU28
 393:Drivers/lvgl/src/misc/cache/class/lv_cache_lru_ll.c **** 
 394:Drivers/lvgl/src/misc/cache/class/lv_cache_lru_ll.c ****     if(lru == NULL) {
 107              		.loc 1 394 5 view .LVU29
 395:Drivers/lvgl/src/misc/cache/class/lv_cache_lru_ll.c ****         return LV_CACHE_RESERVE_COND_ERROR;
 396:Drivers/lvgl/src/misc/cache/class/lv_cache_lru_ll.c ****     }
 397:Drivers/lvgl/src/misc/cache/class/lv_cache_lru_ll.c **** 
 398:Drivers/lvgl/src/misc/cache/class/lv_cache_lru_ll.c ****     uint32_t data_size = key ? lru->get_data_size_cb(key) : 0;
 108              		.loc 1 398 5 view .LVU30
 109              		.loc 1 398 59 is_stmt 0 view .LVU31
 110 0008 71B1     		cbz	r1, .L11
 111              		.loc 1 398 35 discriminator 1 view .LVU32
ARM GAS  /var/folders/qx/2_175_4n2s19vhvtspjhb3qh0000gn/T//cczf0E1J.s 			page 10


 112 000a 036B     		ldr	r3, [r0, #48]
 113              	.LVL4:
 114              		.loc 1 398 32 discriminator 1 view .LVU33
 115 000c 0846     		mov	r0, r1
 116              	.LVL5:
 117              		.loc 1 398 32 discriminator 1 view .LVU34
 118 000e 9847     		blx	r3
 119              	.LVL6:
 399:Drivers/lvgl/src/misc/cache/class/lv_cache_lru_ll.c ****     if(data_size > lru->cache.max_size) {
 120              		.loc 1 399 5 is_stmt 1 view .LVU35
 121              		.loc 1 399 30 is_stmt 0 view .LVU36
 122 0010 A368     		ldr	r3, [r4, #8]
 123              		.loc 1 399 7 view .LVU37
 124 0012 8342     		cmp	r3, r0
 125 0014 0CD3     		bcc	.L16
 126              	.LVL7:
 127              	.L9:
 400:Drivers/lvgl/src/misc/cache/class/lv_cache_lru_ll.c ****         LV_LOG_ERROR("data size (%" LV_PRIu32 ") is larger than max size (%" LV_PRIu32 ")", data_si
 401:Drivers/lvgl/src/misc/cache/class/lv_cache_lru_ll.c ****         return LV_CACHE_RESERVE_COND_TOO_LARGE;
 402:Drivers/lvgl/src/misc/cache/class/lv_cache_lru_ll.c ****     }
 403:Drivers/lvgl/src/misc/cache/class/lv_cache_lru_ll.c **** 
 404:Drivers/lvgl/src/misc/cache/class/lv_cache_lru_ll.c ****     return cache->size + reserved_size + data_size > lru->cache.max_size
 128              		.loc 1 404 5 is_stmt 1 view .LVU38
 129              		.loc 1 404 17 is_stmt 0 view .LVU39
 130 0016 E368     		ldr	r3, [r4, #12]
 131              		.loc 1 404 24 view .LVU40
 132 0018 2B44     		add	r3, r3, r5
 133              		.loc 1 404 40 view .LVU41
 134 001a 0344     		add	r3, r3, r0
 135              		.loc 1 404 64 view .LVU42
 136 001c A268     		ldr	r2, [r4, #8]
 405:Drivers/lvgl/src/misc/cache/class/lv_cache_lru_ll.c ****            ? LV_CACHE_RESERVE_COND_NEED_VICTIM
 406:Drivers/lvgl/src/misc/cache/class/lv_cache_lru_ll.c ****            : LV_CACHE_RESERVE_COND_OK;
 137              		.loc 1 406 12 view .LVU43
 138 001e 9342     		cmp	r3, r2
 139 0020 04D8     		bhi	.L17
 140              		.loc 1 406 12 discriminator 2 view .LVU44
 141 0022 0020     		movs	r0, #0
 142              	.L10:
 407:Drivers/lvgl/src/misc/cache/class/lv_cache_lru_ll.c **** }
 143              		.loc 1 407 1 view .LVU45
 144 0024 38BD     		pop	{r3, r4, r5, pc}
 145              	.LVL8:
 146              	.L8:
 147              	.LCFI3:
 148              		.cfi_def_cfa_offset 0
 149              		.cfi_restore 3
 150              		.cfi_restore 4
 151              		.cfi_restore 5
 152              		.cfi_restore 14
 392:Drivers/lvgl/src/misc/cache/class/lv_cache_lru_ll.c **** 
 153              		.loc 1 392 5 is_stmt 1 view .LVU46
 392:Drivers/lvgl/src/misc/cache/class/lv_cache_lru_ll.c **** 
 154              		.loc 1 392 5 view .LVU47
 392:Drivers/lvgl/src/misc/cache/class/lv_cache_lru_ll.c **** 
 155              		.loc 1 392 5 view .LVU48
 392:Drivers/lvgl/src/misc/cache/class/lv_cache_lru_ll.c **** 
ARM GAS  /var/folders/qx/2_175_4n2s19vhvtspjhb3qh0000gn/T//cczf0E1J.s 			page 11


 156              		.loc 1 392 5 view .LVU49
 392:Drivers/lvgl/src/misc/cache/class/lv_cache_lru_ll.c **** 
 157              		.loc 1 392 5 view .LVU50
 158 0026 FEE7     		b	.L8
 159              	.L11:
 160              	.LCFI4:
 161              		.cfi_def_cfa_offset 16
 162              		.cfi_offset 3, -16
 163              		.cfi_offset 4, -12
 164              		.cfi_offset 5, -8
 165              		.cfi_offset 14, -4
 398:Drivers/lvgl/src/misc/cache/class/lv_cache_lru_ll.c ****     if(data_size > lru->cache.max_size) {
 166              		.loc 1 398 59 is_stmt 0 discriminator 2 view .LVU51
 167 0028 0020     		movs	r0, #0
 168              	.LVL9:
 398:Drivers/lvgl/src/misc/cache/class/lv_cache_lru_ll.c ****     if(data_size > lru->cache.max_size) {
 169              		.loc 1 398 59 discriminator 2 view .LVU52
 170 002a F4E7     		b	.L9
 171              	.LVL10:
 172              	.L17:
 406:Drivers/lvgl/src/misc/cache/class/lv_cache_lru_ll.c **** }
 173              		.loc 1 406 12 discriminator 1 view .LVU53
 174 002c 0220     		movs	r0, #2
 175 002e F9E7     		b	.L10
 176              	.LVL11:
 177              	.L16:
 401:Drivers/lvgl/src/misc/cache/class/lv_cache_lru_ll.c ****     }
 178              		.loc 1 401 16 view .LVU54
 179 0030 0120     		movs	r0, #1
 180              	.LVL12:
 401:Drivers/lvgl/src/misc/cache/class/lv_cache_lru_ll.c ****     }
 181              		.loc 1 401 16 view .LVU55
 182 0032 F7E7     		b	.L10
 183              		.cfi_endproc
 184              	.LFE25:
 186              		.section	.text.cnt_get_data_size_cb,"ax",%progbits
 187              		.align	1
 188              		.syntax unified
 189              		.thumb
 190              		.thumb_func
 192              	cnt_get_data_size_cb:
 193              	.LVL13:
 194              	.LFB26:
 408:Drivers/lvgl/src/misc/cache/class/lv_cache_lru_ll.c **** 
 409:Drivers/lvgl/src/misc/cache/class/lv_cache_lru_ll.c **** static uint32_t cnt_get_data_size_cb(const void * data)
 410:Drivers/lvgl/src/misc/cache/class/lv_cache_lru_ll.c **** {
 195              		.loc 1 410 1 is_stmt 1 view -0
 196              		.cfi_startproc
 197              		@ args = 0, pretend = 0, frame = 0
 198              		@ frame_needed = 0, uses_anonymous_args = 0
 199              		@ link register save eliminated.
 411:Drivers/lvgl/src/misc/cache/class/lv_cache_lru_ll.c ****     LV_UNUSED(data);
 200              		.loc 1 411 5 view .LVU57
 412:Drivers/lvgl/src/misc/cache/class/lv_cache_lru_ll.c ****     return 1;
 201              		.loc 1 412 5 view .LVU58
 413:Drivers/lvgl/src/misc/cache/class/lv_cache_lru_ll.c **** }
 202              		.loc 1 413 1 is_stmt 0 view .LVU59
ARM GAS  /var/folders/qx/2_175_4n2s19vhvtspjhb3qh0000gn/T//cczf0E1J.s 			page 12


 203 0000 0120     		movs	r0, #1
 204              	.LVL14:
 205              		.loc 1 413 1 view .LVU60
 206 0002 7047     		bx	lr
 207              		.cfi_endproc
 208              	.LFE26:
 210              		.section	.text.size_get_data_size_cb,"ax",%progbits
 211              		.align	1
 212              		.syntax unified
 213              		.thumb
 214              		.thumb_func
 216              	size_get_data_size_cb:
 217              	.LVL15:
 218              	.LFB27:
 414:Drivers/lvgl/src/misc/cache/class/lv_cache_lru_ll.c **** 
 415:Drivers/lvgl/src/misc/cache/class/lv_cache_lru_ll.c **** static uint32_t size_get_data_size_cb(const void * data)
 416:Drivers/lvgl/src/misc/cache/class/lv_cache_lru_ll.c **** {
 219              		.loc 1 416 1 is_stmt 1 view -0
 220              		.cfi_startproc
 221              		@ args = 0, pretend = 0, frame = 0
 222              		@ frame_needed = 0, uses_anonymous_args = 0
 223              		@ link register save eliminated.
 417:Drivers/lvgl/src/misc/cache/class/lv_cache_lru_ll.c ****     lv_cache_slot_size_t * slot = (lv_cache_slot_size_t *)data;
 224              		.loc 1 417 5 view .LVU62
 418:Drivers/lvgl/src/misc/cache/class/lv_cache_lru_ll.c ****     return slot->size;
 225              		.loc 1 418 5 view .LVU63
 419:Drivers/lvgl/src/misc/cache/class/lv_cache_lru_ll.c **** }
 226              		.loc 1 419 1 is_stmt 0 view .LVU64
 227 0000 0068     		ldr	r0, [r0]
 228              	.LVL16:
 229              		.loc 1 419 1 view .LVU65
 230 0002 7047     		bx	lr
 231              		.cfi_endproc
 232              	.LFE27:
 234              		.section	.text.cache_iter_create_cb,"ax",%progbits
 235              		.align	1
 236              		.syntax unified
 237              		.thumb
 238              		.thumb_func
 240              	cache_iter_create_cb:
 241              	.LVL17:
 242              	.LFB28:
 420:Drivers/lvgl/src/misc/cache/class/lv_cache_lru_ll.c **** 
 421:Drivers/lvgl/src/misc/cache/class/lv_cache_lru_ll.c **** static lv_iter_t * cache_iter_create_cb(lv_cache_t * cache)
 422:Drivers/lvgl/src/misc/cache/class/lv_cache_lru_ll.c **** {
 243              		.loc 1 422 1 is_stmt 1 view -0
 244              		.cfi_startproc
 245              		@ args = 0, pretend = 0, frame = 0
 246              		@ frame_needed = 0, uses_anonymous_args = 0
 247              		.loc 1 422 1 is_stmt 0 view .LVU67
 248 0000 10B5     		push	{r4, lr}
 249              	.LCFI5:
 250              		.cfi_def_cfa_offset 8
 251              		.cfi_offset 4, -8
 252              		.cfi_offset 14, -4
 253 0002 0446     		mov	r4, r0
 423:Drivers/lvgl/src/misc/cache/class/lv_cache_lru_ll.c ****     return lv_iter_create(cache, lv_cache_entry_get_size(cache->node_size), 0, cache_iter_next_cb);
ARM GAS  /var/folders/qx/2_175_4n2s19vhvtspjhb3qh0000gn/T//cczf0E1J.s 			page 13


 254              		.loc 1 423 5 is_stmt 1 view .LVU68
 255              		.loc 1 423 12 is_stmt 0 view .LVU69
 256 0004 4068     		ldr	r0, [r0, #4]
 257              	.LVL18:
 258              		.loc 1 423 12 view .LVU70
 259 0006 FFF7FEFF 		bl	lv_cache_entry_get_size
 260              	.LVL19:
 261 000a 0146     		mov	r1, r0
 262              		.loc 1 423 12 discriminator 1 view .LVU71
 263 000c 024B     		ldr	r3, .L22
 264 000e 0022     		movs	r2, #0
 265 0010 2046     		mov	r0, r4
 266 0012 FFF7FEFF 		bl	lv_iter_create
 267              	.LVL20:
 424:Drivers/lvgl/src/misc/cache/class/lv_cache_lru_ll.c **** }
 268              		.loc 1 424 1 view .LVU72
 269 0016 10BD     		pop	{r4, pc}
 270              	.LVL21:
 271              	.L23:
 272              		.loc 1 424 1 view .LVU73
 273              		.align	2
 274              	.L22:
 275 0018 00000000 		.word	cache_iter_next_cb
 276              		.cfi_endproc
 277              	.LFE28:
 279              		.section	.text.cache_iter_next_cb,"ax",%progbits
 280              		.align	1
 281              		.syntax unified
 282              		.thumb
 283              		.thumb_func
 285              	cache_iter_next_cb:
 286              	.LVL22:
 287              	.LFB29:
 425:Drivers/lvgl/src/misc/cache/class/lv_cache_lru_ll.c **** 
 426:Drivers/lvgl/src/misc/cache/class/lv_cache_lru_ll.c **** static lv_result_t cache_iter_next_cb(void * instance, void * context, void * elem)
 427:Drivers/lvgl/src/misc/cache/class/lv_cache_lru_ll.c **** {
 288              		.loc 1 427 1 is_stmt 1 view -0
 289              		.cfi_startproc
 290              		@ args = 0, pretend = 0, frame = 0
 291              		@ frame_needed = 0, uses_anonymous_args = 0
 428:Drivers/lvgl/src/misc/cache/class/lv_cache_lru_ll.c ****     lv_cache_lru_ll_t * lru = (lv_cache_lru_ll_t *)instance;
 292              		.loc 1 428 5 view .LVU75
 429:Drivers/lvgl/src/misc/cache/class/lv_cache_lru_ll.c ****     void ** ll_node = context;
 293              		.loc 1 429 5 view .LVU76
 430:Drivers/lvgl/src/misc/cache/class/lv_cache_lru_ll.c **** 
 431:Drivers/lvgl/src/misc/cache/class/lv_cache_lru_ll.c ****     LV_ASSERT_NULL(ll_node);
 294              		.loc 1 431 5 view .LVU77
 295              		.loc 1 431 5 view .LVU78
 296 0000 A9B1     		cbz	r1, .L26
 427:Drivers/lvgl/src/misc/cache/class/lv_cache_lru_ll.c ****     lv_cache_lru_ll_t * lru = (lv_cache_lru_ll_t *)instance;
 297              		.loc 1 427 1 is_stmt 0 view .LVU79
 298 0002 70B5     		push	{r4, r5, r6, lr}
 299              	.LCFI6:
 300              		.cfi_def_cfa_offset 16
 301              		.cfi_offset 4, -16
 302              		.cfi_offset 5, -12
 303              		.cfi_offset 6, -8
ARM GAS  /var/folders/qx/2_175_4n2s19vhvtspjhb3qh0000gn/T//cczf0E1J.s 			page 14


 304              		.cfi_offset 14, -4
 305 0004 0446     		mov	r4, r0
 306 0006 1646     		mov	r6, r2
 307 0008 0D46     		mov	r5, r1
 308              		.loc 1 431 5 is_stmt 1 view .LVU80
 309              		.loc 1 431 28 view .LVU81
 432:Drivers/lvgl/src/misc/cache/class/lv_cache_lru_ll.c **** 
 433:Drivers/lvgl/src/misc/cache/class/lv_cache_lru_ll.c ****     if(*ll_node == NULL) *ll_node = lv_ll_get_head(&lru->ll);
 310              		.loc 1 433 5 view .LVU82
 311              		.loc 1 433 8 is_stmt 0 view .LVU83
 312 000a 0968     		ldr	r1, [r1]
 313              	.LVL23:
 314              		.loc 1 433 7 view .LVU84
 315 000c 81B1     		cbz	r1, .L33
 434:Drivers/lvgl/src/misc/cache/class/lv_cache_lru_ll.c ****     else *ll_node = lv_ll_get_next(&lru->ll, *ll_node);
 316              		.loc 1 434 10 is_stmt 1 view .LVU85
 317              		.loc 1 434 21 is_stmt 0 view .LVU86
 318 000e 2430     		adds	r0, r0, #36
 319              	.LVL24:
 320              		.loc 1 434 21 view .LVU87
 321 0010 FFF7FEFF 		bl	lv_ll_get_next
 322              	.LVL25:
 323              		.loc 1 434 19 discriminator 1 view .LVU88
 324 0014 2860     		str	r0, [r5]
 325              	.L28:
 435:Drivers/lvgl/src/misc/cache/class/lv_cache_lru_ll.c **** 
 436:Drivers/lvgl/src/misc/cache/class/lv_cache_lru_ll.c ****     void * node = *ll_node;
 326              		.loc 1 436 5 is_stmt 1 view .LVU89
 327              		.loc 1 436 12 is_stmt 0 view .LVU90
 328 0016 2D68     		ldr	r5, [r5]
 329              	.LVL26:
 437:Drivers/lvgl/src/misc/cache/class/lv_cache_lru_ll.c **** 
 438:Drivers/lvgl/src/misc/cache/class/lv_cache_lru_ll.c ****     if(node == NULL) return LV_RESULT_INVALID;
 330              		.loc 1 438 5 is_stmt 1 view .LVU91
 331              		.loc 1 438 7 is_stmt 0 view .LVU92
 332 0018 7DB1     		cbz	r5, .L30
 439:Drivers/lvgl/src/misc/cache/class/lv_cache_lru_ll.c **** 
 440:Drivers/lvgl/src/misc/cache/class/lv_cache_lru_ll.c ****     lv_memcpy(elem, node, lv_cache_entry_get_size(lru->cache.node_size));
 333              		.loc 1 440 5 is_stmt 1 view .LVU93
 334              		.loc 1 440 27 is_stmt 0 view .LVU94
 335 001a 6068     		ldr	r0, [r4, #4]
 336 001c FFF7FEFF 		bl	lv_cache_entry_get_size
 337              	.LVL27:
 338 0020 0246     		mov	r2, r0
 339              		.loc 1 440 5 discriminator 1 view .LVU95
 340 0022 2946     		mov	r1, r5
 341 0024 3046     		mov	r0, r6
 342 0026 FFF7FEFF 		bl	lv_memcpy
 343              	.LVL28:
 441:Drivers/lvgl/src/misc/cache/class/lv_cache_lru_ll.c **** 
 442:Drivers/lvgl/src/misc/cache/class/lv_cache_lru_ll.c ****     return LV_RESULT_OK;
 344              		.loc 1 442 5 is_stmt 1 view .LVU96
 345              		.loc 1 442 12 is_stmt 0 view .LVU97
 346 002a 0120     		movs	r0, #1
 347              	.L29:
 443:Drivers/lvgl/src/misc/cache/class/lv_cache_lru_ll.c **** }
 348              		.loc 1 443 1 view .LVU98
ARM GAS  /var/folders/qx/2_175_4n2s19vhvtspjhb3qh0000gn/T//cczf0E1J.s 			page 15


 349 002c 70BD     		pop	{r4, r5, r6, pc}
 350              	.LVL29:
 351              	.L26:
 352              	.LCFI7:
 353              		.cfi_def_cfa_offset 0
 354              		.cfi_restore 4
 355              		.cfi_restore 5
 356              		.cfi_restore 6
 357              		.cfi_restore 14
 431:Drivers/lvgl/src/misc/cache/class/lv_cache_lru_ll.c **** 
 358              		.loc 1 431 5 is_stmt 1 view .LVU99
 431:Drivers/lvgl/src/misc/cache/class/lv_cache_lru_ll.c **** 
 359              		.loc 1 431 5 view .LVU100
 431:Drivers/lvgl/src/misc/cache/class/lv_cache_lru_ll.c **** 
 360              		.loc 1 431 5 view .LVU101
 431:Drivers/lvgl/src/misc/cache/class/lv_cache_lru_ll.c **** 
 361              		.loc 1 431 5 view .LVU102
 431:Drivers/lvgl/src/misc/cache/class/lv_cache_lru_ll.c **** 
 362              		.loc 1 431 5 view .LVU103
 363 002e FEE7     		b	.L26
 364              	.LVL30:
 365              	.L33:
 366              	.LCFI8:
 367              		.cfi_def_cfa_offset 16
 368              		.cfi_offset 4, -16
 369              		.cfi_offset 5, -12
 370              		.cfi_offset 6, -8
 371              		.cfi_offset 14, -4
 433:Drivers/lvgl/src/misc/cache/class/lv_cache_lru_ll.c ****     else *ll_node = lv_ll_get_next(&lru->ll, *ll_node);
 372              		.loc 1 433 26 discriminator 1 view .LVU104
 433:Drivers/lvgl/src/misc/cache/class/lv_cache_lru_ll.c ****     else *ll_node = lv_ll_get_next(&lru->ll, *ll_node);
 373              		.loc 1 433 37 is_stmt 0 discriminator 1 view .LVU105
 374 0030 2430     		adds	r0, r0, #36
 375              	.LVL31:
 433:Drivers/lvgl/src/misc/cache/class/lv_cache_lru_ll.c ****     else *ll_node = lv_ll_get_next(&lru->ll, *ll_node);
 376              		.loc 1 433 37 discriminator 1 view .LVU106
 377 0032 FFF7FEFF 		bl	lv_ll_get_head
 378              	.LVL32:
 433:Drivers/lvgl/src/misc/cache/class/lv_cache_lru_ll.c ****     else *ll_node = lv_ll_get_next(&lru->ll, *ll_node);
 379              		.loc 1 433 35 discriminator 1 view .LVU107
 380 0036 2860     		str	r0, [r5]
 381 0038 EDE7     		b	.L28
 382              	.LVL33:
 383              	.L30:
 438:Drivers/lvgl/src/misc/cache/class/lv_cache_lru_ll.c **** 
 384              		.loc 1 438 29 discriminator 1 view .LVU108
 385 003a 0020     		movs	r0, #0
 386 003c F6E7     		b	.L29
 387              		.cfi_endproc
 388              	.LFE29:
 390              		.section	.text.get_victim_cb,"ax",%progbits
 391              		.align	1
 392              		.syntax unified
 393              		.thumb
 394              		.thumb_func
 396              	get_victim_cb:
 397              	.LVL34:
ARM GAS  /var/folders/qx/2_175_4n2s19vhvtspjhb3qh0000gn/T//cczf0E1J.s 			page 16


 398              	.LFB24:
 367:Drivers/lvgl/src/misc/cache/class/lv_cache_lru_ll.c ****     LV_UNUSED(user_data);
 399              		.loc 1 367 1 is_stmt 1 view -0
 400              		.cfi_startproc
 401              		@ args = 0, pretend = 0, frame = 0
 402              		@ frame_needed = 0, uses_anonymous_args = 0
 368:Drivers/lvgl/src/misc/cache/class/lv_cache_lru_ll.c **** 
 403              		.loc 1 368 5 view .LVU110
 370:Drivers/lvgl/src/misc/cache/class/lv_cache_lru_ll.c **** 
 404              		.loc 1 370 5 view .LVU111
 372:Drivers/lvgl/src/misc/cache/class/lv_cache_lru_ll.c **** 
 405              		.loc 1 372 5 view .LVU112
 372:Drivers/lvgl/src/misc/cache/class/lv_cache_lru_ll.c **** 
 406              		.loc 1 372 5 view .LVU113
 407 0000 B0B1     		cbz	r0, .L36
 367:Drivers/lvgl/src/misc/cache/class/lv_cache_lru_ll.c ****     LV_UNUSED(user_data);
 408              		.loc 1 367 1 is_stmt 0 view .LVU114
 409 0002 F8B5     		push	{r3, r4, r5, r6, r7, lr}
 410              	.LCFI9:
 411              		.cfi_def_cfa_offset 24
 412              		.cfi_offset 3, -24
 413              		.cfi_offset 4, -20
 414              		.cfi_offset 5, -16
 415              		.cfi_offset 6, -12
 416              		.cfi_offset 7, -8
 417              		.cfi_offset 14, -4
 418 0004 0646     		mov	r6, r0
 372:Drivers/lvgl/src/misc/cache/class/lv_cache_lru_ll.c **** 
 419              		.loc 1 372 5 is_stmt 1 view .LVU115
 372:Drivers/lvgl/src/misc/cache/class/lv_cache_lru_ll.c **** 
 420              		.loc 1 372 24 view .LVU116
 374:Drivers/lvgl/src/misc/cache/class/lv_cache_lru_ll.c ****     LV_LL_READ_BACK(&lru->ll, tail) {
 421              		.loc 1 374 5 view .LVU117
 375:Drivers/lvgl/src/misc/cache/class/lv_cache_lru_ll.c ****         lv_cache_entry_t * entry = lv_cache_entry_get_entry(tail, cache->node_size);
 422              		.loc 1 375 5 view .LVU118
 423 0006 00F12407 		add	r7, r0, #36
 424 000a 3846     		mov	r0, r7
 425              	.LVL35:
 375:Drivers/lvgl/src/misc/cache/class/lv_cache_lru_ll.c ****         lv_cache_entry_t * entry = lv_cache_entry_get_entry(tail, cache->node_size);
 426              		.loc 1 375 5 is_stmt 0 view .LVU119
 427 000c FFF7FEFF 		bl	lv_ll_get_tail
 428              	.LVL36:
 375:Drivers/lvgl/src/misc/cache/class/lv_cache_lru_ll.c ****         lv_cache_entry_t * entry = lv_cache_entry_get_entry(tail, cache->node_size);
 429              		.loc 1 375 5 view .LVU120
 430 0010 0446     		mov	r4, r0
 431              	.LVL37:
 432              	.L37:
 375:Drivers/lvgl/src/misc/cache/class/lv_cache_lru_ll.c ****         lv_cache_entry_t * entry = lv_cache_entry_get_entry(tail, cache->node_size);
 433              		.loc 1 375 5 is_stmt 1 discriminator 1 view .LVU121
 434 0012 7CB1     		cbz	r4, .L34
 435              	.LBB4:
 376:Drivers/lvgl/src/misc/cache/class/lv_cache_lru_ll.c ****         if(lv_cache_entry_get_ref(entry) == 0) {
 436              		.loc 1 376 9 view .LVU122
 376:Drivers/lvgl/src/misc/cache/class/lv_cache_lru_ll.c ****         if(lv_cache_entry_get_ref(entry) == 0) {
 437              		.loc 1 376 36 is_stmt 0 view .LVU123
 438 0014 7168     		ldr	r1, [r6, #4]
 439 0016 2046     		mov	r0, r4
ARM GAS  /var/folders/qx/2_175_4n2s19vhvtspjhb3qh0000gn/T//cczf0E1J.s 			page 17


 440 0018 FFF7FEFF 		bl	lv_cache_entry_get_entry
 441              	.LVL38:
 442 001c 0546     		mov	r5, r0
 443              	.LVL39:
 377:Drivers/lvgl/src/misc/cache/class/lv_cache_lru_ll.c ****             return entry;
 444              		.loc 1 377 9 is_stmt 1 view .LVU124
 377:Drivers/lvgl/src/misc/cache/class/lv_cache_lru_ll.c ****             return entry;
 445              		.loc 1 377 12 is_stmt 0 view .LVU125
 446 001e FFF7FEFF 		bl	lv_cache_entry_get_ref
 447              	.LVL40:
 377:Drivers/lvgl/src/misc/cache/class/lv_cache_lru_ll.c ****             return entry;
 448              		.loc 1 377 11 discriminator 1 view .LVU126
 449 0022 30B1     		cbz	r0, .L40
 450              	.LBE4:
 375:Drivers/lvgl/src/misc/cache/class/lv_cache_lru_ll.c ****         lv_cache_entry_t * entry = lv_cache_entry_get_entry(tail, cache->node_size);
 451              		.loc 1 375 5 is_stmt 1 discriminator 2 view .LVU127
 452 0024 2146     		mov	r1, r4
 453 0026 3846     		mov	r0, r7
 454 0028 FFF7FEFF 		bl	lv_ll_get_prev
 455              	.LVL41:
 456 002c 0446     		mov	r4, r0
 457              	.LVL42:
 375:Drivers/lvgl/src/misc/cache/class/lv_cache_lru_ll.c ****         lv_cache_entry_t * entry = lv_cache_entry_get_entry(tail, cache->node_size);
 458              		.loc 1 375 5 is_stmt 0 discriminator 2 view .LVU128
 459 002e F0E7     		b	.L37
 460              	.LVL43:
 461              	.L36:
 462              	.LCFI10:
 463              		.cfi_def_cfa_offset 0
 464              		.cfi_restore 3
 465              		.cfi_restore 4
 466              		.cfi_restore 5
 467              		.cfi_restore 6
 468              		.cfi_restore 7
 469              		.cfi_restore 14
 372:Drivers/lvgl/src/misc/cache/class/lv_cache_lru_ll.c **** 
 470              		.loc 1 372 5 is_stmt 1 view .LVU129
 372:Drivers/lvgl/src/misc/cache/class/lv_cache_lru_ll.c **** 
 471              		.loc 1 372 5 view .LVU130
 372:Drivers/lvgl/src/misc/cache/class/lv_cache_lru_ll.c **** 
 472              		.loc 1 372 5 view .LVU131
 372:Drivers/lvgl/src/misc/cache/class/lv_cache_lru_ll.c **** 
 473              		.loc 1 372 5 view .LVU132
 372:Drivers/lvgl/src/misc/cache/class/lv_cache_lru_ll.c **** 
 474              		.loc 1 372 5 view .LVU133
 475 0030 FEE7     		b	.L36
 476              	.LVL44:
 477              	.L40:
 478              	.LCFI11:
 479              		.cfi_def_cfa_offset 24
 480              		.cfi_offset 3, -24
 481              		.cfi_offset 4, -20
 482              		.cfi_offset 5, -16
 483              		.cfi_offset 6, -12
 484              		.cfi_offset 7, -8
 485              		.cfi_offset 14, -4
 486              	.LBB5:
ARM GAS  /var/folders/qx/2_175_4n2s19vhvtspjhb3qh0000gn/T//cczf0E1J.s 			page 18


 378:Drivers/lvgl/src/misc/cache/class/lv_cache_lru_ll.c ****         }
 487              		.loc 1 378 20 is_stmt 0 view .LVU134
 488 0032 2C46     		mov	r4, r5
 489              	.LVL45:
 490              	.L34:
 378:Drivers/lvgl/src/misc/cache/class/lv_cache_lru_ll.c ****         }
 491              		.loc 1 378 20 view .LVU135
 492              	.LBE5:
 383:Drivers/lvgl/src/misc/cache/class/lv_cache_lru_ll.c **** 
 493              		.loc 1 383 1 view .LVU136
 494 0034 2046     		mov	r0, r4
 495 0036 F8BD     		pop	{r3, r4, r5, r6, r7, pc}
 383:Drivers/lvgl/src/misc/cache/class/lv_cache_lru_ll.c **** 
 496              		.loc 1 383 1 view .LVU137
 497              		.cfi_endproc
 498              	.LFE24:
 500              		.section	.text.drop_all_cb,"ax",%progbits
 501              		.align	1
 502              		.syntax unified
 503              		.thumb
 504              		.thumb_func
 506              	drop_all_cb:
 507              	.LVL46:
 508              	.LFB23:
 335:Drivers/lvgl/src/misc/cache/class/lv_cache_lru_ll.c ****     lv_cache_lru_ll_t * lru = (lv_cache_lru_ll_t *)cache;
 509              		.loc 1 335 1 is_stmt 1 view -0
 510              		.cfi_startproc
 511              		@ args = 0, pretend = 0, frame = 0
 512              		@ frame_needed = 0, uses_anonymous_args = 0
 336:Drivers/lvgl/src/misc/cache/class/lv_cache_lru_ll.c **** 
 513              		.loc 1 336 5 view .LVU139
 338:Drivers/lvgl/src/misc/cache/class/lv_cache_lru_ll.c **** 
 514              		.loc 1 338 5 view .LVU140
 338:Drivers/lvgl/src/misc/cache/class/lv_cache_lru_ll.c **** 
 515              		.loc 1 338 5 view .LVU141
 516 0000 48B1     		cbz	r0, .L45
 335:Drivers/lvgl/src/misc/cache/class/lv_cache_lru_ll.c ****     lv_cache_lru_ll_t * lru = (lv_cache_lru_ll_t *)cache;
 517              		.loc 1 335 1 is_stmt 0 view .LVU142
 518 0002 F8B5     		push	{r3, r4, r5, r6, r7, lr}
 519              	.LCFI12:
 520              		.cfi_def_cfa_offset 24
 521              		.cfi_offset 3, -24
 522              		.cfi_offset 4, -20
 523              		.cfi_offset 5, -16
 524              		.cfi_offset 6, -12
 525              		.cfi_offset 7, -8
 526              		.cfi_offset 14, -4
 527 0004 0F46     		mov	r7, r1
 528 0006 0546     		mov	r5, r0
 338:Drivers/lvgl/src/misc/cache/class/lv_cache_lru_ll.c **** 
 529              		.loc 1 338 5 is_stmt 1 view .LVU143
 338:Drivers/lvgl/src/misc/cache/class/lv_cache_lru_ll.c **** 
 530              		.loc 1 338 24 view .LVU144
 340:Drivers/lvgl/src/misc/cache/class/lv_cache_lru_ll.c ****         return;
 531              		.loc 1 340 5 view .LVU145
 344:Drivers/lvgl/src/misc/cache/class/lv_cache_lru_ll.c ****     void * node;
 532              		.loc 1 344 5 view .LVU146
ARM GAS  /var/folders/qx/2_175_4n2s19vhvtspjhb3qh0000gn/T//cczf0E1J.s 			page 19


 533              	.LVL47:
 345:Drivers/lvgl/src/misc/cache/class/lv_cache_lru_ll.c ****     LV_LL_READ(&lru->ll, node) {
 534              		.loc 1 345 5 view .LVU147
 346:Drivers/lvgl/src/misc/cache/class/lv_cache_lru_ll.c ****         /*free user handled data and do other clean up*/
 535              		.loc 1 346 5 view .LVU148
 536 0008 00F12406 		add	r6, r0, #36
 537 000c 3046     		mov	r0, r6
 538              	.LVL48:
 346:Drivers/lvgl/src/misc/cache/class/lv_cache_lru_ll.c ****         /*free user handled data and do other clean up*/
 539              		.loc 1 346 5 is_stmt 0 view .LVU149
 540 000e FFF7FEFF 		bl	lv_ll_get_head
 541              	.LVL49:
 346:Drivers/lvgl/src/misc/cache/class/lv_cache_lru_ll.c ****         /*free user handled data and do other clean up*/
 542              		.loc 1 346 5 view .LVU150
 543 0012 0446     		mov	r4, r0
 544              	.LVL50:
 346:Drivers/lvgl/src/misc/cache/class/lv_cache_lru_ll.c ****         /*free user handled data and do other clean up*/
 545              		.loc 1 346 5 view .LVU151
 546 0014 05E0     		b	.L46
 547              	.LVL51:
 548              	.L45:
 549              	.LCFI13:
 550              		.cfi_def_cfa_offset 0
 551              		.cfi_restore 3
 552              		.cfi_restore 4
 553              		.cfi_restore 5
 554              		.cfi_restore 6
 555              		.cfi_restore 7
 556              		.cfi_restore 14
 338:Drivers/lvgl/src/misc/cache/class/lv_cache_lru_ll.c **** 
 557              		.loc 1 338 5 is_stmt 1 view .LVU152
 338:Drivers/lvgl/src/misc/cache/class/lv_cache_lru_ll.c **** 
 558              		.loc 1 338 5 view .LVU153
 338:Drivers/lvgl/src/misc/cache/class/lv_cache_lru_ll.c **** 
 559              		.loc 1 338 5 view .LVU154
 338:Drivers/lvgl/src/misc/cache/class/lv_cache_lru_ll.c **** 
 560              		.loc 1 338 5 view .LVU155
 338:Drivers/lvgl/src/misc/cache/class/lv_cache_lru_ll.c **** 
 561              		.loc 1 338 5 view .LVU156
 562 0016 FEE7     		b	.L45
 563              	.LVL52:
 564              	.L47:
 565              	.LCFI14:
 566              		.cfi_def_cfa_offset 24
 567              		.cfi_offset 3, -24
 568              		.cfi_offset 4, -20
 569              		.cfi_offset 5, -16
 570              		.cfi_offset 6, -12
 571              		.cfi_offset 7, -8
 572              		.cfi_offset 14, -4
 346:Drivers/lvgl/src/misc/cache/class/lv_cache_lru_ll.c ****         /*free user handled data and do other clean up*/
 573              		.loc 1 346 5 discriminator 2 view .LVU157
 574 0018 2146     		mov	r1, r4
 575 001a 3046     		mov	r0, r6
 576 001c FFF7FEFF 		bl	lv_ll_get_next
 577              	.LVL53:
 578 0020 0446     		mov	r4, r0
ARM GAS  /var/folders/qx/2_175_4n2s19vhvtspjhb3qh0000gn/T//cczf0E1J.s 			page 20


 579              	.LVL54:
 580              	.L46:
 346:Drivers/lvgl/src/misc/cache/class/lv_cache_lru_ll.c ****         /*free user handled data and do other clean up*/
 581              		.loc 1 346 5 discriminator 1 view .LVU158
 582 0022 64B1     		cbz	r4, .L51
 583              	.LBB6:
 348:Drivers/lvgl/src/misc/cache/class/lv_cache_lru_ll.c ****         if(lv_cache_entry_get_ref(entry) == 0) {
 584              		.loc 1 348 9 view .LVU159
 348:Drivers/lvgl/src/misc/cache/class/lv_cache_lru_ll.c ****         if(lv_cache_entry_get_ref(entry) == 0) {
 585              		.loc 1 348 36 is_stmt 0 view .LVU160
 586 0024 6968     		ldr	r1, [r5, #4]
 587 0026 2046     		mov	r0, r4
 588 0028 FFF7FEFF 		bl	lv_cache_entry_get_entry
 589              	.LVL55:
 349:Drivers/lvgl/src/misc/cache/class/lv_cache_lru_ll.c ****             lru->cache.ops.free_cb(node, user_data);
 590              		.loc 1 349 9 is_stmt 1 view .LVU161
 349:Drivers/lvgl/src/misc/cache/class/lv_cache_lru_ll.c ****             lru->cache.ops.free_cb(node, user_data);
 591              		.loc 1 349 12 is_stmt 0 view .LVU162
 592 002c FFF7FEFF 		bl	lv_cache_entry_get_ref
 593              	.LVL56:
 349:Drivers/lvgl/src/misc/cache/class/lv_cache_lru_ll.c ****             lru->cache.ops.free_cb(node, user_data);
 594              		.loc 1 349 11 discriminator 1 view .LVU163
 595 0030 0028     		cmp	r0, #0
 596 0032 F1D1     		bne	.L47
 350:Drivers/lvgl/src/misc/cache/class/lv_cache_lru_ll.c ****         }
 597              		.loc 1 350 13 is_stmt 1 view .LVU164
 350:Drivers/lvgl/src/misc/cache/class/lv_cache_lru_ll.c ****         }
 598              		.loc 1 350 27 is_stmt 0 view .LVU165
 599 0034 AB69     		ldr	r3, [r5, #24]
 350:Drivers/lvgl/src/misc/cache/class/lv_cache_lru_ll.c ****         }
 600              		.loc 1 350 13 view .LVU166
 601 0036 3946     		mov	r1, r7
 602 0038 2046     		mov	r0, r4
 603 003a 9847     		blx	r3
 604              	.LVL57:
 605 003c ECE7     		b	.L47
 606              	.LVL58:
 607              	.L51:
 350:Drivers/lvgl/src/misc/cache/class/lv_cache_lru_ll.c ****         }
 608              		.loc 1 350 13 view .LVU167
 609              	.LBE6:
 357:Drivers/lvgl/src/misc/cache/class/lv_cache_lru_ll.c ****         LV_LOG_WARN("%" LV_PRId32 " entries are still referenced", used_cnt);
 610              		.loc 1 357 5 is_stmt 1 view .LVU168
 358:Drivers/lvgl/src/misc/cache/class/lv_cache_lru_ll.c ****     }
 611              		.loc 1 358 9 view .LVU169
 358:Drivers/lvgl/src/misc/cache/class/lv_cache_lru_ll.c ****     }
 612              		.loc 1 358 9 view .LVU170
 358:Drivers/lvgl/src/misc/cache/class/lv_cache_lru_ll.c ****     }
 613              		.loc 1 358 9 view .LVU171
 361:Drivers/lvgl/src/misc/cache/class/lv_cache_lru_ll.c **** 
 614              		.loc 1 361 5 view .LVU172
 615 003e 3046     		mov	r0, r6
 616 0040 FFF7FEFF 		bl	lv_ll_clear
 617              	.LVL59:
 363:Drivers/lvgl/src/misc/cache/class/lv_cache_lru_ll.c **** }
 618              		.loc 1 363 5 view .LVU173
 363:Drivers/lvgl/src/misc/cache/class/lv_cache_lru_ll.c **** }
ARM GAS  /var/folders/qx/2_175_4n2s19vhvtspjhb3qh0000gn/T//cczf0E1J.s 			page 21


 619              		.loc 1 363 17 is_stmt 0 view .LVU174
 620 0044 0023     		movs	r3, #0
 621 0046 EB60     		str	r3, [r5, #12]
 364:Drivers/lvgl/src/misc/cache/class/lv_cache_lru_ll.c **** 
 622              		.loc 1 364 1 view .LVU175
 623 0048 F8BD     		pop	{r3, r4, r5, r6, r7, pc}
 364:Drivers/lvgl/src/misc/cache/class/lv_cache_lru_ll.c **** 
 624              		.loc 1 364 1 view .LVU176
 625              		.cfi_endproc
 626              	.LFE23:
 628              		.section	.text.drop_cb,"ax",%progbits
 629              		.align	1
 630              		.syntax unified
 631              		.thumb
 632              		.thumb_func
 634              	drop_cb:
 635              	.LVL60:
 636              	.LFB22:
 311:Drivers/lvgl/src/misc/cache/class/lv_cache_lru_ll.c ****     lv_cache_lru_ll_t * lru = (lv_cache_lru_ll_t *)cache;
 637              		.loc 1 311 1 is_stmt 1 view -0
 638              		.cfi_startproc
 639              		@ args = 0, pretend = 0, frame = 0
 640              		@ frame_needed = 0, uses_anonymous_args = 0
 312:Drivers/lvgl/src/misc/cache/class/lv_cache_lru_ll.c **** 
 641              		.loc 1 312 5 view .LVU178
 314:Drivers/lvgl/src/misc/cache/class/lv_cache_lru_ll.c ****     LV_ASSERT_NULL(key);
 642              		.loc 1 314 5 view .LVU179
 314:Drivers/lvgl/src/misc/cache/class/lv_cache_lru_ll.c ****     LV_ASSERT_NULL(key);
 643              		.loc 1 314 5 view .LVU180
 644 0000 F0B1     		cbz	r0, .L54
 311:Drivers/lvgl/src/misc/cache/class/lv_cache_lru_ll.c ****     lv_cache_lru_ll_t * lru = (lv_cache_lru_ll_t *)cache;
 645              		.loc 1 311 1 is_stmt 0 view .LVU181
 646 0002 70B5     		push	{r4, r5, r6, lr}
 647              	.LCFI15:
 648              		.cfi_def_cfa_offset 16
 649              		.cfi_offset 4, -16
 650              		.cfi_offset 5, -12
 651              		.cfi_offset 6, -8
 652              		.cfi_offset 14, -4
 653 0004 1546     		mov	r5, r2
 654 0006 0446     		mov	r4, r0
 314:Drivers/lvgl/src/misc/cache/class/lv_cache_lru_ll.c ****     LV_ASSERT_NULL(key);
 655              		.loc 1 314 5 is_stmt 1 view .LVU182
 314:Drivers/lvgl/src/misc/cache/class/lv_cache_lru_ll.c ****     LV_ASSERT_NULL(key);
 656              		.loc 1 314 24 view .LVU183
 315:Drivers/lvgl/src/misc/cache/class/lv_cache_lru_ll.c **** 
 657              		.loc 1 315 5 view .LVU184
 315:Drivers/lvgl/src/misc/cache/class/lv_cache_lru_ll.c **** 
 658              		.loc 1 315 5 view .LVU185
 659 0008 D9B1     		cbz	r1, .L56
 315:Drivers/lvgl/src/misc/cache/class/lv_cache_lru_ll.c **** 
 660              		.loc 1 315 5 view .LVU186
 315:Drivers/lvgl/src/misc/cache/class/lv_cache_lru_ll.c **** 
 661              		.loc 1 315 24 view .LVU187
 317:Drivers/lvgl/src/misc/cache/class/lv_cache_lru_ll.c ****         return;
 662              		.loc 1 317 5 view .LVU188
 321:Drivers/lvgl/src/misc/cache/class/lv_cache_lru_ll.c ****     if(node == NULL) {
ARM GAS  /var/folders/qx/2_175_4n2s19vhvtspjhb3qh0000gn/T//cczf0E1J.s 			page 22


 663              		.loc 1 321 5 view .LVU189
 321:Drivers/lvgl/src/misc/cache/class/lv_cache_lru_ll.c ****     if(node == NULL) {
 664              		.loc 1 321 24 is_stmt 0 view .LVU190
 665 000a 0368     		ldr	r3, [r0]
 321:Drivers/lvgl/src/misc/cache/class/lv_cache_lru_ll.c ****     if(node == NULL) {
 666              		.loc 1 321 29 view .LVU191
 667 000c DB68     		ldr	r3, [r3, #12]
 321:Drivers/lvgl/src/misc/cache/class/lv_cache_lru_ll.c ****     if(node == NULL) {
 668              		.loc 1 321 19 view .LVU192
 669 000e 9847     		blx	r3
 670              	.LVL61:
 322:Drivers/lvgl/src/misc/cache/class/lv_cache_lru_ll.c ****         return;
 671              		.loc 1 322 5 is_stmt 1 view .LVU193
 322:Drivers/lvgl/src/misc/cache/class/lv_cache_lru_ll.c ****         return;
 672              		.loc 1 322 7 is_stmt 0 view .LVU194
 673 0010 0646     		mov	r6, r0
 674 0012 A0B1     		cbz	r0, .L52
 325:Drivers/lvgl/src/misc/cache/class/lv_cache_lru_ll.c **** 
 675              		.loc 1 325 5 is_stmt 1 view .LVU195
 676 0014 0146     		mov	r1, r0
 677 0016 04F12400 		add	r0, r4, #36
 678              	.LVL62:
 325:Drivers/lvgl/src/misc/cache/class/lv_cache_lru_ll.c **** 
 679              		.loc 1 325 5 is_stmt 0 view .LVU196
 680 001a FFF7FEFF 		bl	lv_ll_remove
 681              	.LVL63:
 327:Drivers/lvgl/src/misc/cache/class/lv_cache_lru_ll.c ****     cache->size -= lru->get_data_size_cb(node);
 682              		.loc 1 327 5 is_stmt 1 view .LVU197
 327:Drivers/lvgl/src/misc/cache/class/lv_cache_lru_ll.c ****     cache->size -= lru->get_data_size_cb(node);
 683              		.loc 1 327 19 is_stmt 0 view .LVU198
 684 001e A369     		ldr	r3, [r4, #24]
 327:Drivers/lvgl/src/misc/cache/class/lv_cache_lru_ll.c ****     cache->size -= lru->get_data_size_cb(node);
 685              		.loc 1 327 5 view .LVU199
 686 0020 2946     		mov	r1, r5
 687 0022 3046     		mov	r0, r6
 688 0024 9847     		blx	r3
 689              	.LVL64:
 328:Drivers/lvgl/src/misc/cache/class/lv_cache_lru_ll.c **** 
 690              		.loc 1 328 5 is_stmt 1 view .LVU200
 328:Drivers/lvgl/src/misc/cache/class/lv_cache_lru_ll.c **** 
 691              		.loc 1 328 23 is_stmt 0 view .LVU201
 692 0026 236B     		ldr	r3, [r4, #48]
 328:Drivers/lvgl/src/misc/cache/class/lv_cache_lru_ll.c **** 
 693              		.loc 1 328 20 view .LVU202
 694 0028 3046     		mov	r0, r6
 695 002a 9847     		blx	r3
 696              	.LVL65:
 328:Drivers/lvgl/src/misc/cache/class/lv_cache_lru_ll.c **** 
 697              		.loc 1 328 10 discriminator 1 view .LVU203
 698 002c E368     		ldr	r3, [r4, #12]
 328:Drivers/lvgl/src/misc/cache/class/lv_cache_lru_ll.c **** 
 699              		.loc 1 328 17 discriminator 1 view .LVU204
 700 002e 1B1A     		subs	r3, r3, r0
 701 0030 E360     		str	r3, [r4, #12]
 330:Drivers/lvgl/src/misc/cache/class/lv_cache_lru_ll.c ****     lv_cache_entry_delete(entry);
 702              		.loc 1 330 5 is_stmt 1 view .LVU205
 330:Drivers/lvgl/src/misc/cache/class/lv_cache_lru_ll.c ****     lv_cache_entry_delete(entry);
ARM GAS  /var/folders/qx/2_175_4n2s19vhvtspjhb3qh0000gn/T//cczf0E1J.s 			page 23


 703              		.loc 1 330 32 is_stmt 0 view .LVU206
 704 0032 6168     		ldr	r1, [r4, #4]
 705 0034 3046     		mov	r0, r6
 706 0036 FFF7FEFF 		bl	lv_cache_entry_get_entry
 707              	.LVL66:
 331:Drivers/lvgl/src/misc/cache/class/lv_cache_lru_ll.c **** }
 708              		.loc 1 331 5 is_stmt 1 view .LVU207
 709 003a FFF7FEFF 		bl	lv_cache_entry_delete
 710              	.LVL67:
 711              	.L52:
 332:Drivers/lvgl/src/misc/cache/class/lv_cache_lru_ll.c **** 
 712              		.loc 1 332 1 is_stmt 0 view .LVU208
 713 003e 70BD     		pop	{r4, r5, r6, pc}
 714              	.LVL68:
 715              	.L54:
 716              	.LCFI16:
 717              		.cfi_def_cfa_offset 0
 718              		.cfi_restore 4
 719              		.cfi_restore 5
 720              		.cfi_restore 6
 721              		.cfi_restore 14
 314:Drivers/lvgl/src/misc/cache/class/lv_cache_lru_ll.c ****     LV_ASSERT_NULL(key);
 722              		.loc 1 314 5 is_stmt 1 view .LVU209
 314:Drivers/lvgl/src/misc/cache/class/lv_cache_lru_ll.c ****     LV_ASSERT_NULL(key);
 723              		.loc 1 314 5 view .LVU210
 314:Drivers/lvgl/src/misc/cache/class/lv_cache_lru_ll.c ****     LV_ASSERT_NULL(key);
 724              		.loc 1 314 5 view .LVU211
 314:Drivers/lvgl/src/misc/cache/class/lv_cache_lru_ll.c ****     LV_ASSERT_NULL(key);
 725              		.loc 1 314 5 view .LVU212
 314:Drivers/lvgl/src/misc/cache/class/lv_cache_lru_ll.c ****     LV_ASSERT_NULL(key);
 726              		.loc 1 314 5 view .LVU213
 727 0040 FEE7     		b	.L54
 728              	.L56:
 729              	.LCFI17:
 730              		.cfi_def_cfa_offset 16
 731              		.cfi_offset 4, -16
 732              		.cfi_offset 5, -12
 733              		.cfi_offset 6, -8
 734              		.cfi_offset 14, -4
 315:Drivers/lvgl/src/misc/cache/class/lv_cache_lru_ll.c **** 
 735              		.loc 1 315 5 view .LVU214
 315:Drivers/lvgl/src/misc/cache/class/lv_cache_lru_ll.c **** 
 736              		.loc 1 315 5 view .LVU215
 315:Drivers/lvgl/src/misc/cache/class/lv_cache_lru_ll.c **** 
 737              		.loc 1 315 5 view .LVU216
 315:Drivers/lvgl/src/misc/cache/class/lv_cache_lru_ll.c **** 
 738              		.loc 1 315 5 view .LVU217
 315:Drivers/lvgl/src/misc/cache/class/lv_cache_lru_ll.c **** 
 739              		.loc 1 315 5 view .LVU218
 740 0042 FEE7     		b	.L56
 741              		.cfi_endproc
 742              	.LFE22:
 744              		.section	.text.remove_cb,"ax",%progbits
 745              		.align	1
 746              		.syntax unified
 747              		.thumb
 748              		.thumb_func
ARM GAS  /var/folders/qx/2_175_4n2s19vhvtspjhb3qh0000gn/T//cczf0E1J.s 			page 24


 750              	remove_cb:
 751              	.LVL69:
 752              	.LFB21:
 291:Drivers/lvgl/src/misc/cache/class/lv_cache_lru_ll.c ****     LV_UNUSED(user_data);
 753              		.loc 1 291 1 view -0
 754              		.cfi_startproc
 755              		@ args = 0, pretend = 0, frame = 0
 756              		@ frame_needed = 0, uses_anonymous_args = 0
 292:Drivers/lvgl/src/misc/cache/class/lv_cache_lru_ll.c **** 
 757              		.loc 1 292 5 view .LVU220
 294:Drivers/lvgl/src/misc/cache/class/lv_cache_lru_ll.c **** 
 758              		.loc 1 294 5 view .LVU221
 296:Drivers/lvgl/src/misc/cache/class/lv_cache_lru_ll.c ****     LV_ASSERT_NULL(entry);
 759              		.loc 1 296 5 view .LVU222
 296:Drivers/lvgl/src/misc/cache/class/lv_cache_lru_ll.c ****     LV_ASSERT_NULL(entry);
 760              		.loc 1 296 5 view .LVU223
 761 0000 90B1     		cbz	r0, .L62
 291:Drivers/lvgl/src/misc/cache/class/lv_cache_lru_ll.c ****     LV_UNUSED(user_data);
 762              		.loc 1 291 1 is_stmt 0 view .LVU224
 763 0002 38B5     		push	{r3, r4, r5, lr}
 764              	.LCFI18:
 765              		.cfi_def_cfa_offset 16
 766              		.cfi_offset 3, -16
 767              		.cfi_offset 4, -12
 768              		.cfi_offset 5, -8
 769              		.cfi_offset 14, -4
 770 0004 0446     		mov	r4, r0
 296:Drivers/lvgl/src/misc/cache/class/lv_cache_lru_ll.c ****     LV_ASSERT_NULL(entry);
 771              		.loc 1 296 5 is_stmt 1 view .LVU225
 296:Drivers/lvgl/src/misc/cache/class/lv_cache_lru_ll.c ****     LV_ASSERT_NULL(entry);
 772              		.loc 1 296 24 view .LVU226
 297:Drivers/lvgl/src/misc/cache/class/lv_cache_lru_ll.c **** 
 773              		.loc 1 297 5 view .LVU227
 297:Drivers/lvgl/src/misc/cache/class/lv_cache_lru_ll.c **** 
 774              		.loc 1 297 5 view .LVU228
 775 0006 81B1     		cbz	r1, .L64
 297:Drivers/lvgl/src/misc/cache/class/lv_cache_lru_ll.c **** 
 776              		.loc 1 297 5 view .LVU229
 297:Drivers/lvgl/src/misc/cache/class/lv_cache_lru_ll.c **** 
 777              		.loc 1 297 26 view .LVU230
 299:Drivers/lvgl/src/misc/cache/class/lv_cache_lru_ll.c ****         return;
 778              		.loc 1 299 5 view .LVU231
 303:Drivers/lvgl/src/misc/cache/class/lv_cache_lru_ll.c **** 
 779              		.loc 1 303 5 view .LVU232
 303:Drivers/lvgl/src/misc/cache/class/lv_cache_lru_ll.c **** 
 780              		.loc 1 303 19 is_stmt 0 view .LVU233
 781 0008 0846     		mov	r0, r1
 782              	.LVL70:
 303:Drivers/lvgl/src/misc/cache/class/lv_cache_lru_ll.c **** 
 783              		.loc 1 303 19 view .LVU234
 784 000a FFF7FEFF 		bl	lv_cache_entry_get_data
 785              	.LVL71:
 303:Drivers/lvgl/src/misc/cache/class/lv_cache_lru_ll.c **** 
 786              		.loc 1 303 19 view .LVU235
 787 000e 0546     		mov	r5, r0
 788              	.LVL72:
 305:Drivers/lvgl/src/misc/cache/class/lv_cache_lru_ll.c **** 
ARM GAS  /var/folders/qx/2_175_4n2s19vhvtspjhb3qh0000gn/T//cczf0E1J.s 			page 25


 789              		.loc 1 305 5 is_stmt 1 view .LVU236
 790 0010 0146     		mov	r1, r0
 791 0012 04F12400 		add	r0, r4, #36
 792              	.LVL73:
 305:Drivers/lvgl/src/misc/cache/class/lv_cache_lru_ll.c **** 
 793              		.loc 1 305 5 is_stmt 0 view .LVU237
 794 0016 FFF7FEFF 		bl	lv_ll_remove
 795              	.LVL74:
 307:Drivers/lvgl/src/misc/cache/class/lv_cache_lru_ll.c **** }
 796              		.loc 1 307 5 is_stmt 1 view .LVU238
 307:Drivers/lvgl/src/misc/cache/class/lv_cache_lru_ll.c **** }
 797              		.loc 1 307 23 is_stmt 0 view .LVU239
 798 001a 236B     		ldr	r3, [r4, #48]
 307:Drivers/lvgl/src/misc/cache/class/lv_cache_lru_ll.c **** }
 799              		.loc 1 307 20 view .LVU240
 800 001c 2846     		mov	r0, r5
 801 001e 9847     		blx	r3
 802              	.LVL75:
 307:Drivers/lvgl/src/misc/cache/class/lv_cache_lru_ll.c **** }
 803              		.loc 1 307 10 discriminator 1 view .LVU241
 804 0020 E368     		ldr	r3, [r4, #12]
 307:Drivers/lvgl/src/misc/cache/class/lv_cache_lru_ll.c **** }
 805              		.loc 1 307 17 discriminator 1 view .LVU242
 806 0022 1B1A     		subs	r3, r3, r0
 807 0024 E360     		str	r3, [r4, #12]
 308:Drivers/lvgl/src/misc/cache/class/lv_cache_lru_ll.c **** 
 808              		.loc 1 308 1 view .LVU243
 809 0026 38BD     		pop	{r3, r4, r5, pc}
 810              	.LVL76:
 811              	.L62:
 812              	.LCFI19:
 813              		.cfi_def_cfa_offset 0
 814              		.cfi_restore 3
 815              		.cfi_restore 4
 816              		.cfi_restore 5
 817              		.cfi_restore 14
 296:Drivers/lvgl/src/misc/cache/class/lv_cache_lru_ll.c ****     LV_ASSERT_NULL(entry);
 818              		.loc 1 296 5 is_stmt 1 view .LVU244
 296:Drivers/lvgl/src/misc/cache/class/lv_cache_lru_ll.c ****     LV_ASSERT_NULL(entry);
 819              		.loc 1 296 5 view .LVU245
 296:Drivers/lvgl/src/misc/cache/class/lv_cache_lru_ll.c ****     LV_ASSERT_NULL(entry);
 820              		.loc 1 296 5 view .LVU246
 296:Drivers/lvgl/src/misc/cache/class/lv_cache_lru_ll.c ****     LV_ASSERT_NULL(entry);
 821              		.loc 1 296 5 view .LVU247
 296:Drivers/lvgl/src/misc/cache/class/lv_cache_lru_ll.c ****     LV_ASSERT_NULL(entry);
 822              		.loc 1 296 5 view .LVU248
 823 0028 FEE7     		b	.L62
 824              	.L64:
 825              	.LCFI20:
 826              		.cfi_def_cfa_offset 16
 827              		.cfi_offset 3, -16
 828              		.cfi_offset 4, -12
 829              		.cfi_offset 5, -8
 830              		.cfi_offset 14, -4
 297:Drivers/lvgl/src/misc/cache/class/lv_cache_lru_ll.c **** 
 831              		.loc 1 297 5 view .LVU249
 297:Drivers/lvgl/src/misc/cache/class/lv_cache_lru_ll.c **** 
ARM GAS  /var/folders/qx/2_175_4n2s19vhvtspjhb3qh0000gn/T//cczf0E1J.s 			page 26


 832              		.loc 1 297 5 view .LVU250
 297:Drivers/lvgl/src/misc/cache/class/lv_cache_lru_ll.c **** 
 833              		.loc 1 297 5 view .LVU251
 297:Drivers/lvgl/src/misc/cache/class/lv_cache_lru_ll.c **** 
 834              		.loc 1 297 5 view .LVU252
 297:Drivers/lvgl/src/misc/cache/class/lv_cache_lru_ll.c **** 
 835              		.loc 1 297 5 view .LVU253
 836 002a FEE7     		b	.L64
 837              		.cfi_endproc
 838              	.LFE21:
 840              		.section	.text.alloc_new_node,"ax",%progbits
 841              		.align	1
 842              		.syntax unified
 843              		.thumb
 844              		.thumb_func
 846              	alloc_new_node:
 847              	.LVL77:
 848              	.LFB14:
 150:Drivers/lvgl/src/misc/cache/class/lv_cache_lru_ll.c ****     LV_UNUSED(user_data);
 849              		.loc 1 150 1 view -0
 850              		.cfi_startproc
 851              		@ args = 0, pretend = 0, frame = 0
 852              		@ frame_needed = 0, uses_anonymous_args = 0
 151:Drivers/lvgl/src/misc/cache/class/lv_cache_lru_ll.c **** 
 853              		.loc 1 151 5 view .LVU255
 153:Drivers/lvgl/src/misc/cache/class/lv_cache_lru_ll.c ****     LV_ASSERT_NULL(key);
 854              		.loc 1 153 5 view .LVU256
 153:Drivers/lvgl/src/misc/cache/class/lv_cache_lru_ll.c ****     LV_ASSERT_NULL(key);
 855              		.loc 1 153 5 view .LVU257
 856 0000 B8B1     		cbz	r0, .L69
 150:Drivers/lvgl/src/misc/cache/class/lv_cache_lru_ll.c ****     LV_UNUSED(user_data);
 857              		.loc 1 150 1 is_stmt 0 view .LVU258
 858 0002 70B5     		push	{r4, r5, r6, lr}
 859              	.LCFI21:
 860              		.cfi_def_cfa_offset 16
 861              		.cfi_offset 4, -16
 862              		.cfi_offset 5, -12
 863              		.cfi_offset 6, -8
 864              		.cfi_offset 14, -4
 865 0004 0C46     		mov	r4, r1
 866 0006 0546     		mov	r5, r0
 153:Drivers/lvgl/src/misc/cache/class/lv_cache_lru_ll.c ****     LV_ASSERT_NULL(key);
 867              		.loc 1 153 5 is_stmt 1 view .LVU259
 153:Drivers/lvgl/src/misc/cache/class/lv_cache_lru_ll.c ****     LV_ASSERT_NULL(key);
 868              		.loc 1 153 24 view .LVU260
 154:Drivers/lvgl/src/misc/cache/class/lv_cache_lru_ll.c **** 
 869              		.loc 1 154 5 view .LVU261
 154:Drivers/lvgl/src/misc/cache/class/lv_cache_lru_ll.c **** 
 870              		.loc 1 154 5 view .LVU262
 871 0008 A1B1     		cbz	r1, .L71
 154:Drivers/lvgl/src/misc/cache/class/lv_cache_lru_ll.c **** 
 872              		.loc 1 154 5 view .LVU263
 154:Drivers/lvgl/src/misc/cache/class/lv_cache_lru_ll.c **** 
 873              		.loc 1 154 24 view .LVU264
 156:Drivers/lvgl/src/misc/cache/class/lv_cache_lru_ll.c ****         return NULL;
 874              		.loc 1 156 5 view .LVU265
 160:Drivers/lvgl/src/misc/cache/class/lv_cache_lru_ll.c ****     if(new_node == NULL) {
ARM GAS  /var/folders/qx/2_175_4n2s19vhvtspjhb3qh0000gn/T//cczf0E1J.s 			page 27


 875              		.loc 1 160 5 view .LVU266
 160:Drivers/lvgl/src/misc/cache/class/lv_cache_lru_ll.c ****     if(new_node == NULL) {
 876              		.loc 1 160 23 is_stmt 0 view .LVU267
 877 000a 2430     		adds	r0, r0, #36
 878              	.LVL78:
 160:Drivers/lvgl/src/misc/cache/class/lv_cache_lru_ll.c ****     if(new_node == NULL) {
 879              		.loc 1 160 23 view .LVU268
 880 000c FFF7FEFF 		bl	lv_ll_ins_head
 881              	.LVL79:
 161:Drivers/lvgl/src/misc/cache/class/lv_cache_lru_ll.c ****         return NULL;
 882              		.loc 1 161 5 is_stmt 1 view .LVU269
 161:Drivers/lvgl/src/misc/cache/class/lv_cache_lru_ll.c ****         return NULL;
 883              		.loc 1 161 7 is_stmt 0 view .LVU270
 884 0010 0646     		mov	r6, r0
 885 0012 60B1     		cbz	r0, .L67
 165:Drivers/lvgl/src/misc/cache/class/lv_cache_lru_ll.c ****     lv_cache_entry_t * entry = lv_cache_entry_get_entry(new_node, lru->cache.node_size);
 886              		.loc 1 165 5 is_stmt 1 view .LVU271
 887 0014 6A68     		ldr	r2, [r5, #4]
 888 0016 2146     		mov	r1, r4
 889 0018 FFF7FEFF 		bl	lv_memcpy
 890              	.LVL80:
 166:Drivers/lvgl/src/misc/cache/class/lv_cache_lru_ll.c ****     lv_cache_entry_init(entry, &lru->cache, lru->cache.node_size);
 891              		.loc 1 166 5 view .LVU272
 166:Drivers/lvgl/src/misc/cache/class/lv_cache_lru_ll.c ****     lv_cache_entry_init(entry, &lru->cache, lru->cache.node_size);
 892              		.loc 1 166 32 is_stmt 0 view .LVU273
 893 001c 6968     		ldr	r1, [r5, #4]
 894 001e 3046     		mov	r0, r6
 895 0020 FFF7FEFF 		bl	lv_cache_entry_get_entry
 896              	.LVL81:
 897 0024 0646     		mov	r6, r0
 898              	.LVL82:
 167:Drivers/lvgl/src/misc/cache/class/lv_cache_lru_ll.c ****     return entry;
 899              		.loc 1 167 5 is_stmt 1 view .LVU274
 900 0026 6A68     		ldr	r2, [r5, #4]
 901 0028 2946     		mov	r1, r5
 902 002a FFF7FEFF 		bl	lv_cache_entry_init
 903              	.LVL83:
 168:Drivers/lvgl/src/misc/cache/class/lv_cache_lru_ll.c **** }
 904              		.loc 1 168 5 view .LVU275
 905              	.L67:
 169:Drivers/lvgl/src/misc/cache/class/lv_cache_lru_ll.c **** 
 906              		.loc 1 169 1 is_stmt 0 view .LVU276
 907 002e 3046     		mov	r0, r6
 908 0030 70BD     		pop	{r4, r5, r6, pc}
 909              	.LVL84:
 910              	.L69:
 911              	.LCFI22:
 912              		.cfi_def_cfa_offset 0
 913              		.cfi_restore 4
 914              		.cfi_restore 5
 915              		.cfi_restore 6
 916              		.cfi_restore 14
 153:Drivers/lvgl/src/misc/cache/class/lv_cache_lru_ll.c ****     LV_ASSERT_NULL(key);
 917              		.loc 1 153 5 is_stmt 1 view .LVU277
 153:Drivers/lvgl/src/misc/cache/class/lv_cache_lru_ll.c ****     LV_ASSERT_NULL(key);
 918              		.loc 1 153 5 view .LVU278
 153:Drivers/lvgl/src/misc/cache/class/lv_cache_lru_ll.c ****     LV_ASSERT_NULL(key);
ARM GAS  /var/folders/qx/2_175_4n2s19vhvtspjhb3qh0000gn/T//cczf0E1J.s 			page 28


 919              		.loc 1 153 5 view .LVU279
 153:Drivers/lvgl/src/misc/cache/class/lv_cache_lru_ll.c ****     LV_ASSERT_NULL(key);
 920              		.loc 1 153 5 view .LVU280
 153:Drivers/lvgl/src/misc/cache/class/lv_cache_lru_ll.c ****     LV_ASSERT_NULL(key);
 921              		.loc 1 153 5 view .LVU281
 922 0032 FEE7     		b	.L69
 923              	.L71:
 924              	.LCFI23:
 925              		.cfi_def_cfa_offset 16
 926              		.cfi_offset 4, -16
 927              		.cfi_offset 5, -12
 928              		.cfi_offset 6, -8
 929              		.cfi_offset 14, -4
 154:Drivers/lvgl/src/misc/cache/class/lv_cache_lru_ll.c **** 
 930              		.loc 1 154 5 view .LVU282
 154:Drivers/lvgl/src/misc/cache/class/lv_cache_lru_ll.c **** 
 931              		.loc 1 154 5 view .LVU283
 154:Drivers/lvgl/src/misc/cache/class/lv_cache_lru_ll.c **** 
 932              		.loc 1 154 5 view .LVU284
 154:Drivers/lvgl/src/misc/cache/class/lv_cache_lru_ll.c **** 
 933              		.loc 1 154 5 view .LVU285
 154:Drivers/lvgl/src/misc/cache/class/lv_cache_lru_ll.c **** 
 934              		.loc 1 154 5 view .LVU286
 935 0034 FEE7     		b	.L71
 936              		.cfi_endproc
 937              	.LFE14:
 939              		.section	.text.add_cb,"ax",%progbits
 940              		.align	1
 941              		.syntax unified
 942              		.thumb
 943              		.thumb_func
 945              	add_cb:
 946              	.LVL85:
 947              	.LFB20:
 268:Drivers/lvgl/src/misc/cache/class/lv_cache_lru_ll.c ****     LV_UNUSED(user_data);
 948              		.loc 1 268 1 view -0
 949              		.cfi_startproc
 950              		@ args = 0, pretend = 0, frame = 0
 951              		@ frame_needed = 0, uses_anonymous_args = 0
 269:Drivers/lvgl/src/misc/cache/class/lv_cache_lru_ll.c **** 
 952              		.loc 1 269 5 view .LVU288
 271:Drivers/lvgl/src/misc/cache/class/lv_cache_lru_ll.c **** 
 953              		.loc 1 271 5 view .LVU289
 273:Drivers/lvgl/src/misc/cache/class/lv_cache_lru_ll.c ****     LV_ASSERT_NULL(key);
 954              		.loc 1 273 5 view .LVU290
 273:Drivers/lvgl/src/misc/cache/class/lv_cache_lru_ll.c ****     LV_ASSERT_NULL(key);
 955              		.loc 1 273 5 view .LVU291
 956 0000 78B1     		cbz	r0, .L77
 268:Drivers/lvgl/src/misc/cache/class/lv_cache_lru_ll.c ****     LV_UNUSED(user_data);
 957              		.loc 1 268 1 is_stmt 0 view .LVU292
 958 0002 70B5     		push	{r4, r5, r6, lr}
 959              	.LCFI24:
 960              		.cfi_def_cfa_offset 16
 961              		.cfi_offset 4, -16
 962              		.cfi_offset 5, -12
 963              		.cfi_offset 6, -8
 964              		.cfi_offset 14, -4
ARM GAS  /var/folders/qx/2_175_4n2s19vhvtspjhb3qh0000gn/T//cczf0E1J.s 			page 29


 965 0004 0C46     		mov	r4, r1
 966 0006 0546     		mov	r5, r0
 273:Drivers/lvgl/src/misc/cache/class/lv_cache_lru_ll.c ****     LV_ASSERT_NULL(key);
 967              		.loc 1 273 5 is_stmt 1 view .LVU293
 273:Drivers/lvgl/src/misc/cache/class/lv_cache_lru_ll.c ****     LV_ASSERT_NULL(key);
 968              		.loc 1 273 24 view .LVU294
 274:Drivers/lvgl/src/misc/cache/class/lv_cache_lru_ll.c **** 
 969              		.loc 1 274 5 view .LVU295
 274:Drivers/lvgl/src/misc/cache/class/lv_cache_lru_ll.c **** 
 970              		.loc 1 274 5 view .LVU296
 971 0008 61B1     		cbz	r1, .L79
 274:Drivers/lvgl/src/misc/cache/class/lv_cache_lru_ll.c **** 
 972              		.loc 1 274 5 view .LVU297
 274:Drivers/lvgl/src/misc/cache/class/lv_cache_lru_ll.c **** 
 973              		.loc 1 274 24 view .LVU298
 276:Drivers/lvgl/src/misc/cache/class/lv_cache_lru_ll.c ****         return NULL;
 974              		.loc 1 276 5 view .LVU299
 280:Drivers/lvgl/src/misc/cache/class/lv_cache_lru_ll.c ****     if(entry == NULL) {
 975              		.loc 1 280 5 view .LVU300
 280:Drivers/lvgl/src/misc/cache/class/lv_cache_lru_ll.c ****     if(entry == NULL) {
 976              		.loc 1 280 32 is_stmt 0 view .LVU301
 977 000a FFF7FEFF 		bl	alloc_new_node
 978              	.LVL86:
 281:Drivers/lvgl/src/misc/cache/class/lv_cache_lru_ll.c ****         return NULL;
 979              		.loc 1 281 5 is_stmt 1 view .LVU302
 281:Drivers/lvgl/src/misc/cache/class/lv_cache_lru_ll.c ****         return NULL;
 980              		.loc 1 281 7 is_stmt 0 view .LVU303
 981 000e 0646     		mov	r6, r0
 982 0010 28B1     		cbz	r0, .L75
 285:Drivers/lvgl/src/misc/cache/class/lv_cache_lru_ll.c **** 
 983              		.loc 1 285 5 is_stmt 1 view .LVU304
 285:Drivers/lvgl/src/misc/cache/class/lv_cache_lru_ll.c **** 
 984              		.loc 1 285 23 is_stmt 0 view .LVU305
 985 0012 2B6B     		ldr	r3, [r5, #48]
 285:Drivers/lvgl/src/misc/cache/class/lv_cache_lru_ll.c **** 
 986              		.loc 1 285 20 view .LVU306
 987 0014 2046     		mov	r0, r4
 988              	.LVL87:
 285:Drivers/lvgl/src/misc/cache/class/lv_cache_lru_ll.c **** 
 989              		.loc 1 285 20 view .LVU307
 990 0016 9847     		blx	r3
 991              	.LVL88:
 285:Drivers/lvgl/src/misc/cache/class/lv_cache_lru_ll.c **** 
 992              		.loc 1 285 10 discriminator 1 view .LVU308
 993 0018 EB68     		ldr	r3, [r5, #12]
 285:Drivers/lvgl/src/misc/cache/class/lv_cache_lru_ll.c **** 
 994              		.loc 1 285 17 discriminator 1 view .LVU309
 995 001a 0344     		add	r3, r3, r0
 996 001c EB60     		str	r3, [r5, #12]
 287:Drivers/lvgl/src/misc/cache/class/lv_cache_lru_ll.c **** }
 997              		.loc 1 287 5 is_stmt 1 view .LVU310
 998              	.L75:
 288:Drivers/lvgl/src/misc/cache/class/lv_cache_lru_ll.c **** 
 999              		.loc 1 288 1 is_stmt 0 view .LVU311
 1000 001e 3046     		mov	r0, r6
 1001 0020 70BD     		pop	{r4, r5, r6, pc}
 1002              	.LVL89:
ARM GAS  /var/folders/qx/2_175_4n2s19vhvtspjhb3qh0000gn/T//cczf0E1J.s 			page 30


 1003              	.L77:
 1004              	.LCFI25:
 1005              		.cfi_def_cfa_offset 0
 1006              		.cfi_restore 4
 1007              		.cfi_restore 5
 1008              		.cfi_restore 6
 1009              		.cfi_restore 14
 273:Drivers/lvgl/src/misc/cache/class/lv_cache_lru_ll.c ****     LV_ASSERT_NULL(key);
 1010              		.loc 1 273 5 is_stmt 1 view .LVU312
 273:Drivers/lvgl/src/misc/cache/class/lv_cache_lru_ll.c ****     LV_ASSERT_NULL(key);
 1011              		.loc 1 273 5 view .LVU313
 273:Drivers/lvgl/src/misc/cache/class/lv_cache_lru_ll.c ****     LV_ASSERT_NULL(key);
 1012              		.loc 1 273 5 view .LVU314
 273:Drivers/lvgl/src/misc/cache/class/lv_cache_lru_ll.c ****     LV_ASSERT_NULL(key);
 1013              		.loc 1 273 5 view .LVU315
 273:Drivers/lvgl/src/misc/cache/class/lv_cache_lru_ll.c ****     LV_ASSERT_NULL(key);
 1014              		.loc 1 273 5 view .LVU316
 1015 0022 FEE7     		b	.L77
 1016              	.L79:
 1017              	.LCFI26:
 1018              		.cfi_def_cfa_offset 16
 1019              		.cfi_offset 4, -16
 1020              		.cfi_offset 5, -12
 1021              		.cfi_offset 6, -8
 1022              		.cfi_offset 14, -4
 274:Drivers/lvgl/src/misc/cache/class/lv_cache_lru_ll.c **** 
 1023              		.loc 1 274 5 view .LVU317
 274:Drivers/lvgl/src/misc/cache/class/lv_cache_lru_ll.c **** 
 1024              		.loc 1 274 5 view .LVU318
 274:Drivers/lvgl/src/misc/cache/class/lv_cache_lru_ll.c **** 
 1025              		.loc 1 274 5 view .LVU319
 274:Drivers/lvgl/src/misc/cache/class/lv_cache_lru_ll.c **** 
 1026              		.loc 1 274 5 view .LVU320
 274:Drivers/lvgl/src/misc/cache/class/lv_cache_lru_ll.c **** 
 1027              		.loc 1 274 5 view .LVU321
 1028 0024 FEE7     		b	.L79
 1029              		.cfi_endproc
 1030              	.LFE20:
 1032              		.section	.text.get_cb,"ax",%progbits
 1033              		.align	1
 1034              		.syntax unified
 1035              		.thumb
 1036              		.thumb_func
 1038              	get_cb:
 1039              	.LVL90:
 1040              	.LFB19:
 237:Drivers/lvgl/src/misc/cache/class/lv_cache_lru_ll.c ****     LV_UNUSED(user_data);
 1041              		.loc 1 237 1 view -0
 1042              		.cfi_startproc
 1043              		@ args = 0, pretend = 0, frame = 0
 1044              		@ frame_needed = 0, uses_anonymous_args = 0
 238:Drivers/lvgl/src/misc/cache/class/lv_cache_lru_ll.c **** 
 1045              		.loc 1 238 5 view .LVU323
 240:Drivers/lvgl/src/misc/cache/class/lv_cache_lru_ll.c **** 
 1046              		.loc 1 240 5 view .LVU324
 242:Drivers/lvgl/src/misc/cache/class/lv_cache_lru_ll.c ****     LV_ASSERT_NULL(key);
 1047              		.loc 1 242 5 view .LVU325
ARM GAS  /var/folders/qx/2_175_4n2s19vhvtspjhb3qh0000gn/T//cczf0E1J.s 			page 31


 242:Drivers/lvgl/src/misc/cache/class/lv_cache_lru_ll.c ****     LV_ASSERT_NULL(key);
 1048              		.loc 1 242 5 view .LVU326
 1049 0000 A8B1     		cbz	r0, .L85
 237:Drivers/lvgl/src/misc/cache/class/lv_cache_lru_ll.c ****     LV_UNUSED(user_data);
 1050              		.loc 1 237 1 is_stmt 0 view .LVU327
 1051 0002 F8B5     		push	{r3, r4, r5, r6, r7, lr}
 1052              	.LCFI27:
 1053              		.cfi_def_cfa_offset 24
 1054              		.cfi_offset 3, -24
 1055              		.cfi_offset 4, -20
 1056              		.cfi_offset 5, -16
 1057              		.cfi_offset 6, -12
 1058              		.cfi_offset 7, -8
 1059              		.cfi_offset 14, -4
 1060 0004 0D46     		mov	r5, r1
 1061 0006 0646     		mov	r6, r0
 242:Drivers/lvgl/src/misc/cache/class/lv_cache_lru_ll.c ****     LV_ASSERT_NULL(key);
 1062              		.loc 1 242 5 is_stmt 1 view .LVU328
 242:Drivers/lvgl/src/misc/cache/class/lv_cache_lru_ll.c ****     LV_ASSERT_NULL(key);
 1063              		.loc 1 242 24 view .LVU329
 243:Drivers/lvgl/src/misc/cache/class/lv_cache_lru_ll.c **** 
 1064              		.loc 1 243 5 view .LVU330
 243:Drivers/lvgl/src/misc/cache/class/lv_cache_lru_ll.c **** 
 1065              		.loc 1 243 5 view .LVU331
 1066 0008 91B1     		cbz	r1, .L87
 243:Drivers/lvgl/src/misc/cache/class/lv_cache_lru_ll.c **** 
 1067              		.loc 1 243 5 view .LVU332
 243:Drivers/lvgl/src/misc/cache/class/lv_cache_lru_ll.c **** 
 1068              		.loc 1 243 24 view .LVU333
 245:Drivers/lvgl/src/misc/cache/class/lv_cache_lru_ll.c ****         return NULL;
 1069              		.loc 1 245 5 view .LVU334
 250:Drivers/lvgl/src/misc/cache/class/lv_cache_lru_ll.c ****     LV_LL_READ(&lru->ll, node) {
 1070              		.loc 1 250 5 view .LVU335
 1071              	.LVL91:
 251:Drivers/lvgl/src/misc/cache/class/lv_cache_lru_ll.c ****         if(lru->cache.ops.compare_cb(node, key) == 0) {
 1072              		.loc 1 251 5 view .LVU336
 1073 000a 00F12407 		add	r7, r0, #36
 1074 000e 3846     		mov	r0, r7
 1075              	.LVL92:
 251:Drivers/lvgl/src/misc/cache/class/lv_cache_lru_ll.c ****         if(lru->cache.ops.compare_cb(node, key) == 0) {
 1076              		.loc 1 251 5 is_stmt 0 view .LVU337
 1077 0010 FFF7FEFF 		bl	lv_ll_get_head
 1078              	.LVL93:
 251:Drivers/lvgl/src/misc/cache/class/lv_cache_lru_ll.c ****         if(lru->cache.ops.compare_cb(node, key) == 0) {
 1079              		.loc 1 251 5 view .LVU338
 1080 0014 0446     		mov	r4, r0
 1081              	.LVL94:
 1082              	.L88:
 251:Drivers/lvgl/src/misc/cache/class/lv_cache_lru_ll.c ****         if(lru->cache.ops.compare_cb(node, key) == 0) {
 1083              		.loc 1 251 5 is_stmt 1 discriminator 1 view .LVU339
 1084 0016 64B1     		cbz	r4, .L89
 252:Drivers/lvgl/src/misc/cache/class/lv_cache_lru_ll.c ****             break;
 1085              		.loc 1 252 9 view .LVU340
 252:Drivers/lvgl/src/misc/cache/class/lv_cache_lru_ll.c ****             break;
 1086              		.loc 1 252 26 is_stmt 0 view .LVU341
 1087 0018 3369     		ldr	r3, [r6, #16]
 252:Drivers/lvgl/src/misc/cache/class/lv_cache_lru_ll.c ****             break;
ARM GAS  /var/folders/qx/2_175_4n2s19vhvtspjhb3qh0000gn/T//cczf0E1J.s 			page 32


 1088              		.loc 1 252 12 view .LVU342
 1089 001a 2946     		mov	r1, r5
 1090 001c 2046     		mov	r0, r4
 1091 001e 9847     		blx	r3
 1092              	.LVL95:
 252:Drivers/lvgl/src/misc/cache/class/lv_cache_lru_ll.c ****             break;
 1093              		.loc 1 252 11 discriminator 1 view .LVU343
 1094 0020 38B1     		cbz	r0, .L89
 251:Drivers/lvgl/src/misc/cache/class/lv_cache_lru_ll.c ****         if(lru->cache.ops.compare_cb(node, key) == 0) {
 1095              		.loc 1 251 5 is_stmt 1 discriminator 2 view .LVU344
 1096 0022 2146     		mov	r1, r4
 1097 0024 3846     		mov	r0, r7
 1098 0026 FFF7FEFF 		bl	lv_ll_get_next
 1099              	.LVL96:
 1100 002a 0446     		mov	r4, r0
 1101              	.LVL97:
 251:Drivers/lvgl/src/misc/cache/class/lv_cache_lru_ll.c ****         if(lru->cache.ops.compare_cb(node, key) == 0) {
 1102              		.loc 1 251 5 is_stmt 0 discriminator 2 view .LVU345
 1103 002c F3E7     		b	.L88
 1104              	.LVL98:
 1105              	.L85:
 1106              	.LCFI28:
 1107              		.cfi_def_cfa_offset 0
 1108              		.cfi_restore 3
 1109              		.cfi_restore 4
 1110              		.cfi_restore 5
 1111              		.cfi_restore 6
 1112              		.cfi_restore 7
 1113              		.cfi_restore 14
 242:Drivers/lvgl/src/misc/cache/class/lv_cache_lru_ll.c ****     LV_ASSERT_NULL(key);
 1114              		.loc 1 242 5 is_stmt 1 view .LVU346
 242:Drivers/lvgl/src/misc/cache/class/lv_cache_lru_ll.c ****     LV_ASSERT_NULL(key);
 1115              		.loc 1 242 5 view .LVU347
 242:Drivers/lvgl/src/misc/cache/class/lv_cache_lru_ll.c ****     LV_ASSERT_NULL(key);
 1116              		.loc 1 242 5 view .LVU348
 242:Drivers/lvgl/src/misc/cache/class/lv_cache_lru_ll.c ****     LV_ASSERT_NULL(key);
 1117              		.loc 1 242 5 view .LVU349
 242:Drivers/lvgl/src/misc/cache/class/lv_cache_lru_ll.c ****     LV_ASSERT_NULL(key);
 1118              		.loc 1 242 5 view .LVU350
 1119 002e FEE7     		b	.L85
 1120              	.L87:
 1121              	.LCFI29:
 1122              		.cfi_def_cfa_offset 24
 1123              		.cfi_offset 3, -24
 1124              		.cfi_offset 4, -20
 1125              		.cfi_offset 5, -16
 1126              		.cfi_offset 6, -12
 1127              		.cfi_offset 7, -8
 1128              		.cfi_offset 14, -4
 243:Drivers/lvgl/src/misc/cache/class/lv_cache_lru_ll.c **** 
 1129              		.loc 1 243 5 view .LVU351
 243:Drivers/lvgl/src/misc/cache/class/lv_cache_lru_ll.c **** 
 1130              		.loc 1 243 5 view .LVU352
 243:Drivers/lvgl/src/misc/cache/class/lv_cache_lru_ll.c **** 
 1131              		.loc 1 243 5 view .LVU353
 243:Drivers/lvgl/src/misc/cache/class/lv_cache_lru_ll.c **** 
 1132              		.loc 1 243 5 view .LVU354
ARM GAS  /var/folders/qx/2_175_4n2s19vhvtspjhb3qh0000gn/T//cczf0E1J.s 			page 33


 243:Drivers/lvgl/src/misc/cache/class/lv_cache_lru_ll.c **** 
 1133              		.loc 1 243 5 view .LVU355
 1134 0030 FEE7     		b	.L87
 1135              	.LVL99:
 1136              	.L89:
 257:Drivers/lvgl/src/misc/cache/class/lv_cache_lru_ll.c ****         void * head = lv_ll_get_head(&lru->ll);
 1137              		.loc 1 257 5 view .LVU356
 257:Drivers/lvgl/src/misc/cache/class/lv_cache_lru_ll.c ****         void * head = lv_ll_get_head(&lru->ll);
 1138              		.loc 1 257 7 is_stmt 0 view .LVU357
 1139 0032 64B1     		cbz	r4, .L83
 1140              	.LBB7:
 258:Drivers/lvgl/src/misc/cache/class/lv_cache_lru_ll.c ****         lv_ll_move_before(&lru->ll, node, head);
 1141              		.loc 1 258 9 is_stmt 1 view .LVU358
 258:Drivers/lvgl/src/misc/cache/class/lv_cache_lru_ll.c ****         lv_ll_move_before(&lru->ll, node, head);
 1142              		.loc 1 258 23 is_stmt 0 view .LVU359
 1143 0034 3846     		mov	r0, r7
 1144 0036 FFF7FEFF 		bl	lv_ll_get_head
 1145              	.LVL100:
 1146 003a 0246     		mov	r2, r0
 1147              	.LVL101:
 259:Drivers/lvgl/src/misc/cache/class/lv_cache_lru_ll.c **** 
 1148              		.loc 1 259 9 is_stmt 1 view .LVU360
 1149 003c 2146     		mov	r1, r4
 1150 003e 3846     		mov	r0, r7
 1151              	.LVL102:
 259:Drivers/lvgl/src/misc/cache/class/lv_cache_lru_ll.c **** 
 1152              		.loc 1 259 9 is_stmt 0 view .LVU361
 1153 0040 FFF7FEFF 		bl	lv_ll_move_before
 1154              	.LVL103:
 261:Drivers/lvgl/src/misc/cache/class/lv_cache_lru_ll.c ****         return entry;
 1155              		.loc 1 261 9 is_stmt 1 view .LVU362
 261:Drivers/lvgl/src/misc/cache/class/lv_cache_lru_ll.c ****         return entry;
 1156              		.loc 1 261 36 is_stmt 0 view .LVU363
 1157 0044 7168     		ldr	r1, [r6, #4]
 1158 0046 2046     		mov	r0, r4
 1159 0048 FFF7FEFF 		bl	lv_cache_entry_get_entry
 1160              	.LVL104:
 1161 004c 0446     		mov	r4, r0
 1162              	.LVL105:
 262:Drivers/lvgl/src/misc/cache/class/lv_cache_lru_ll.c ****     }
 1163              		.loc 1 262 9 is_stmt 1 view .LVU364
 1164              	.L83:
 262:Drivers/lvgl/src/misc/cache/class/lv_cache_lru_ll.c ****     }
 1165              		.loc 1 262 9 is_stmt 0 view .LVU365
 1166              	.LBE7:
 265:Drivers/lvgl/src/misc/cache/class/lv_cache_lru_ll.c **** 
 1167              		.loc 1 265 1 view .LVU366
 1168 004e 2046     		mov	r0, r4
 1169 0050 F8BD     		pop	{r3, r4, r5, r6, r7, pc}
 265:Drivers/lvgl/src/misc/cache/class/lv_cache_lru_ll.c **** 
 1170              		.loc 1 265 1 view .LVU367
 1171              		.cfi_endproc
 1172              	.LFE19:
 1174              		.section	.text.init_cnt_cb,"ax",%progbits
 1175              		.align	1
 1176              		.syntax unified
 1177              		.thumb
ARM GAS  /var/folders/qx/2_175_4n2s19vhvtspjhb3qh0000gn/T//cczf0E1J.s 			page 34


 1178              		.thumb_func
 1180              	init_cnt_cb:
 1181              	.LVL106:
 1182              	.LFB16:
 185:Drivers/lvgl/src/misc/cache/class/lv_cache_lru_ll.c ****     lv_cache_lru_ll_t * lru = (lv_cache_lru_ll_t *)cache;
 1183              		.loc 1 185 1 is_stmt 1 view -0
 1184              		.cfi_startproc
 1185              		@ args = 0, pretend = 0, frame = 0
 1186              		@ frame_needed = 0, uses_anonymous_args = 0
 186:Drivers/lvgl/src/misc/cache/class/lv_cache_lru_ll.c **** 
 1187              		.loc 1 186 5 view .LVU369
 188:Drivers/lvgl/src/misc/cache/class/lv_cache_lru_ll.c ****     LV_ASSERT_NULL(lru->cache.ops.free_cb);
 1188              		.loc 1 188 5 view .LVU370
 188:Drivers/lvgl/src/misc/cache/class/lv_cache_lru_ll.c ****     LV_ASSERT_NULL(lru->cache.ops.free_cb);
 1189              		.loc 1 188 5 view .LVU371
 1190 0000 0369     		ldr	r3, [r0, #16]
 1191 0002 33B1     		cbz	r3, .L96
 185:Drivers/lvgl/src/misc/cache/class/lv_cache_lru_ll.c ****     lv_cache_lru_ll_t * lru = (lv_cache_lru_ll_t *)cache;
 1192              		.loc 1 185 1 is_stmt 0 view .LVU372
 1193 0004 10B5     		push	{r4, lr}
 1194              	.LCFI30:
 1195              		.cfi_def_cfa_offset 8
 1196              		.cfi_offset 4, -8
 1197              		.cfi_offset 14, -4
 1198 0006 0446     		mov	r4, r0
 188:Drivers/lvgl/src/misc/cache/class/lv_cache_lru_ll.c ****     LV_ASSERT_NULL(lru->cache.ops.free_cb);
 1199              		.loc 1 188 5 is_stmt 1 view .LVU373
 188:Drivers/lvgl/src/misc/cache/class/lv_cache_lru_ll.c ****     LV_ASSERT_NULL(lru->cache.ops.free_cb);
 1200              		.loc 1 188 46 view .LVU374
 189:Drivers/lvgl/src/misc/cache/class/lv_cache_lru_ll.c ****     LV_ASSERT(lru->cache.node_size > 0);
 1201              		.loc 1 189 5 view .LVU375
 189:Drivers/lvgl/src/misc/cache/class/lv_cache_lru_ll.c ****     LV_ASSERT(lru->cache.node_size > 0);
 1202              		.loc 1 189 5 view .LVU376
 1203 0008 8369     		ldr	r3, [r0, #24]
 1204 000a 1BB1     		cbz	r3, .L98
 189:Drivers/lvgl/src/misc/cache/class/lv_cache_lru_ll.c ****     LV_ASSERT(lru->cache.node_size > 0);
 1205              		.loc 1 189 5 view .LVU377
 189:Drivers/lvgl/src/misc/cache/class/lv_cache_lru_ll.c ****     LV_ASSERT(lru->cache.node_size > 0);
 1206              		.loc 1 189 43 view .LVU378
 190:Drivers/lvgl/src/misc/cache/class/lv_cache_lru_ll.c **** 
 1207              		.loc 1 190 5 view .LVU379
 190:Drivers/lvgl/src/misc/cache/class/lv_cache_lru_ll.c **** 
 1208              		.loc 1 190 5 view .LVU380
 1209 000c 4068     		ldr	r0, [r0, #4]
 1210              	.LVL107:
 190:Drivers/lvgl/src/misc/cache/class/lv_cache_lru_ll.c **** 
 1211              		.loc 1 190 5 is_stmt 0 view .LVU381
 1212 000e 10B9     		cbnz	r0, .L99
 1213              	.L100:
 190:Drivers/lvgl/src/misc/cache/class/lv_cache_lru_ll.c **** 
 1214              		.loc 1 190 5 is_stmt 1 view .LVU382
 190:Drivers/lvgl/src/misc/cache/class/lv_cache_lru_ll.c **** 
 1215              		.loc 1 190 5 view .LVU383
 190:Drivers/lvgl/src/misc/cache/class/lv_cache_lru_ll.c **** 
 1216              		.loc 1 190 5 view .LVU384
 190:Drivers/lvgl/src/misc/cache/class/lv_cache_lru_ll.c **** 
 1217              		.loc 1 190 5 view .LVU385
ARM GAS  /var/folders/qx/2_175_4n2s19vhvtspjhb3qh0000gn/T//cczf0E1J.s 			page 35


 190:Drivers/lvgl/src/misc/cache/class/lv_cache_lru_ll.c **** 
 1218              		.loc 1 190 5 view .LVU386
 1219 0010 FEE7     		b	.L100
 1220              	.LVL108:
 1221              	.L96:
 1222              	.LCFI31:
 1223              		.cfi_def_cfa_offset 0
 1224              		.cfi_restore 4
 1225              		.cfi_restore 14
 188:Drivers/lvgl/src/misc/cache/class/lv_cache_lru_ll.c ****     LV_ASSERT_NULL(lru->cache.ops.free_cb);
 1226              		.loc 1 188 5 view .LVU387
 188:Drivers/lvgl/src/misc/cache/class/lv_cache_lru_ll.c ****     LV_ASSERT_NULL(lru->cache.ops.free_cb);
 1227              		.loc 1 188 5 view .LVU388
 188:Drivers/lvgl/src/misc/cache/class/lv_cache_lru_ll.c ****     LV_ASSERT_NULL(lru->cache.ops.free_cb);
 1228              		.loc 1 188 5 view .LVU389
 188:Drivers/lvgl/src/misc/cache/class/lv_cache_lru_ll.c ****     LV_ASSERT_NULL(lru->cache.ops.free_cb);
 1229              		.loc 1 188 5 view .LVU390
 188:Drivers/lvgl/src/misc/cache/class/lv_cache_lru_ll.c ****     LV_ASSERT_NULL(lru->cache.ops.free_cb);
 1230              		.loc 1 188 5 view .LVU391
 1231 0012 FEE7     		b	.L96
 1232              	.L98:
 1233              	.LCFI32:
 1234              		.cfi_def_cfa_offset 8
 1235              		.cfi_offset 4, -8
 1236              		.cfi_offset 14, -4
 189:Drivers/lvgl/src/misc/cache/class/lv_cache_lru_ll.c ****     LV_ASSERT(lru->cache.node_size > 0);
 1237              		.loc 1 189 5 view .LVU392
 189:Drivers/lvgl/src/misc/cache/class/lv_cache_lru_ll.c ****     LV_ASSERT(lru->cache.node_size > 0);
 1238              		.loc 1 189 5 view .LVU393
 189:Drivers/lvgl/src/misc/cache/class/lv_cache_lru_ll.c ****     LV_ASSERT(lru->cache.node_size > 0);
 1239              		.loc 1 189 5 view .LVU394
 189:Drivers/lvgl/src/misc/cache/class/lv_cache_lru_ll.c ****     LV_ASSERT(lru->cache.node_size > 0);
 1240              		.loc 1 189 5 view .LVU395
 189:Drivers/lvgl/src/misc/cache/class/lv_cache_lru_ll.c ****     LV_ASSERT(lru->cache.node_size > 0);
 1241              		.loc 1 189 5 view .LVU396
 1242 0014 FEE7     		b	.L98
 1243              	.LVL109:
 1244              	.L99:
 190:Drivers/lvgl/src/misc/cache/class/lv_cache_lru_ll.c **** 
 1245              		.loc 1 190 5 view .LVU397
 192:Drivers/lvgl/src/misc/cache/class/lv_cache_lru_ll.c ****         return false;
 1246              		.loc 1 192 5 view .LVU398
 196:Drivers/lvgl/src/misc/cache/class/lv_cache_lru_ll.c ****     lru->get_data_size_cb = cnt_get_data_size_cb;
 1247              		.loc 1 196 5 view .LVU399
 1248 0016 FFF7FEFF 		bl	lv_cache_entry_get_size
 1249              	.LVL110:
 1250 001a 0146     		mov	r1, r0
 196:Drivers/lvgl/src/misc/cache/class/lv_cache_lru_ll.c ****     lru->get_data_size_cb = cnt_get_data_size_cb;
 1251              		.loc 1 196 5 is_stmt 0 discriminator 1 view .LVU400
 1252 001c 04F12400 		add	r0, r4, #36
 1253 0020 FFF7FEFF 		bl	lv_ll_init
 1254              	.LVL111:
 197:Drivers/lvgl/src/misc/cache/class/lv_cache_lru_ll.c **** 
 1255              		.loc 1 197 5 is_stmt 1 view .LVU401
 197:Drivers/lvgl/src/misc/cache/class/lv_cache_lru_ll.c **** 
 1256              		.loc 1 197 27 is_stmt 0 view .LVU402
 1257 0024 014B     		ldr	r3, .L103
ARM GAS  /var/folders/qx/2_175_4n2s19vhvtspjhb3qh0000gn/T//cczf0E1J.s 			page 36


 1258 0026 2363     		str	r3, [r4, #48]
 199:Drivers/lvgl/src/misc/cache/class/lv_cache_lru_ll.c **** }
 1259              		.loc 1 199 5 is_stmt 1 view .LVU403
 200:Drivers/lvgl/src/misc/cache/class/lv_cache_lru_ll.c **** 
 1260              		.loc 1 200 1 is_stmt 0 view .LVU404
 1261 0028 0120     		movs	r0, #1
 1262 002a 10BD     		pop	{r4, pc}
 1263              	.LVL112:
 1264              	.L104:
 200:Drivers/lvgl/src/misc/cache/class/lv_cache_lru_ll.c **** 
 1265              		.loc 1 200 1 view .LVU405
 1266              		.align	2
 1267              	.L103:
 1268 002c 00000000 		.word	cnt_get_data_size_cb
 1269              		.cfi_endproc
 1270              	.LFE16:
 1272              		.section	.text.init_size_cb,"ax",%progbits
 1273              		.align	1
 1274              		.syntax unified
 1275              		.thumb
 1276              		.thumb_func
 1278              	init_size_cb:
 1279              	.LVL113:
 1280              	.LFB17:
 203:Drivers/lvgl/src/misc/cache/class/lv_cache_lru_ll.c ****     lv_cache_lru_ll_t * lru = (lv_cache_lru_ll_t *)cache;
 1281              		.loc 1 203 1 is_stmt 1 view -0
 1282              		.cfi_startproc
 1283              		@ args = 0, pretend = 0, frame = 0
 1284              		@ frame_needed = 0, uses_anonymous_args = 0
 204:Drivers/lvgl/src/misc/cache/class/lv_cache_lru_ll.c **** 
 1285              		.loc 1 204 5 view .LVU407
 206:Drivers/lvgl/src/misc/cache/class/lv_cache_lru_ll.c ****     LV_ASSERT_NULL(lru->cache.ops.free_cb);
 1286              		.loc 1 206 5 view .LVU408
 206:Drivers/lvgl/src/misc/cache/class/lv_cache_lru_ll.c ****     LV_ASSERT_NULL(lru->cache.ops.free_cb);
 1287              		.loc 1 206 5 view .LVU409
 1288 0000 0369     		ldr	r3, [r0, #16]
 1289 0002 33B1     		cbz	r3, .L107
 203:Drivers/lvgl/src/misc/cache/class/lv_cache_lru_ll.c ****     lv_cache_lru_ll_t * lru = (lv_cache_lru_ll_t *)cache;
 1290              		.loc 1 203 1 is_stmt 0 view .LVU410
 1291 0004 10B5     		push	{r4, lr}
 1292              	.LCFI33:
 1293              		.cfi_def_cfa_offset 8
 1294              		.cfi_offset 4, -8
 1295              		.cfi_offset 14, -4
 1296 0006 0446     		mov	r4, r0
 206:Drivers/lvgl/src/misc/cache/class/lv_cache_lru_ll.c ****     LV_ASSERT_NULL(lru->cache.ops.free_cb);
 1297              		.loc 1 206 5 is_stmt 1 view .LVU411
 206:Drivers/lvgl/src/misc/cache/class/lv_cache_lru_ll.c ****     LV_ASSERT_NULL(lru->cache.ops.free_cb);
 1298              		.loc 1 206 46 view .LVU412
 207:Drivers/lvgl/src/misc/cache/class/lv_cache_lru_ll.c ****     LV_ASSERT(lru->cache.node_size > 0);
 1299              		.loc 1 207 5 view .LVU413
 207:Drivers/lvgl/src/misc/cache/class/lv_cache_lru_ll.c ****     LV_ASSERT(lru->cache.node_size > 0);
 1300              		.loc 1 207 5 view .LVU414
 1301 0008 8369     		ldr	r3, [r0, #24]
 1302 000a 1BB1     		cbz	r3, .L109
 207:Drivers/lvgl/src/misc/cache/class/lv_cache_lru_ll.c ****     LV_ASSERT(lru->cache.node_size > 0);
 1303              		.loc 1 207 5 view .LVU415
ARM GAS  /var/folders/qx/2_175_4n2s19vhvtspjhb3qh0000gn/T//cczf0E1J.s 			page 37


 207:Drivers/lvgl/src/misc/cache/class/lv_cache_lru_ll.c ****     LV_ASSERT(lru->cache.node_size > 0);
 1304              		.loc 1 207 43 view .LVU416
 208:Drivers/lvgl/src/misc/cache/class/lv_cache_lru_ll.c **** 
 1305              		.loc 1 208 5 view .LVU417
 208:Drivers/lvgl/src/misc/cache/class/lv_cache_lru_ll.c **** 
 1306              		.loc 1 208 5 view .LVU418
 1307 000c 4068     		ldr	r0, [r0, #4]
 1308              	.LVL114:
 208:Drivers/lvgl/src/misc/cache/class/lv_cache_lru_ll.c **** 
 1309              		.loc 1 208 5 is_stmt 0 view .LVU419
 1310 000e 10B9     		cbnz	r0, .L110
 1311              	.L111:
 208:Drivers/lvgl/src/misc/cache/class/lv_cache_lru_ll.c **** 
 1312              		.loc 1 208 5 is_stmt 1 view .LVU420
 208:Drivers/lvgl/src/misc/cache/class/lv_cache_lru_ll.c **** 
 1313              		.loc 1 208 5 view .LVU421
 208:Drivers/lvgl/src/misc/cache/class/lv_cache_lru_ll.c **** 
 1314              		.loc 1 208 5 view .LVU422
 208:Drivers/lvgl/src/misc/cache/class/lv_cache_lru_ll.c **** 
 1315              		.loc 1 208 5 view .LVU423
 208:Drivers/lvgl/src/misc/cache/class/lv_cache_lru_ll.c **** 
 1316              		.loc 1 208 5 view .LVU424
 1317 0010 FEE7     		b	.L111
 1318              	.LVL115:
 1319              	.L107:
 1320              	.LCFI34:
 1321              		.cfi_def_cfa_offset 0
 1322              		.cfi_restore 4
 1323              		.cfi_restore 14
 206:Drivers/lvgl/src/misc/cache/class/lv_cache_lru_ll.c ****     LV_ASSERT_NULL(lru->cache.ops.free_cb);
 1324              		.loc 1 206 5 view .LVU425
 206:Drivers/lvgl/src/misc/cache/class/lv_cache_lru_ll.c ****     LV_ASSERT_NULL(lru->cache.ops.free_cb);
 1325              		.loc 1 206 5 view .LVU426
 206:Drivers/lvgl/src/misc/cache/class/lv_cache_lru_ll.c ****     LV_ASSERT_NULL(lru->cache.ops.free_cb);
 1326              		.loc 1 206 5 view .LVU427
 206:Drivers/lvgl/src/misc/cache/class/lv_cache_lru_ll.c ****     LV_ASSERT_NULL(lru->cache.ops.free_cb);
 1327              		.loc 1 206 5 view .LVU428
 206:Drivers/lvgl/src/misc/cache/class/lv_cache_lru_ll.c ****     LV_ASSERT_NULL(lru->cache.ops.free_cb);
 1328              		.loc 1 206 5 view .LVU429
 1329 0012 FEE7     		b	.L107
 1330              	.L109:
 1331              	.LCFI35:
 1332              		.cfi_def_cfa_offset 8
 1333              		.cfi_offset 4, -8
 1334              		.cfi_offset 14, -4
 207:Drivers/lvgl/src/misc/cache/class/lv_cache_lru_ll.c ****     LV_ASSERT(lru->cache.node_size > 0);
 1335              		.loc 1 207 5 view .LVU430
 207:Drivers/lvgl/src/misc/cache/class/lv_cache_lru_ll.c ****     LV_ASSERT(lru->cache.node_size > 0);
 1336              		.loc 1 207 5 view .LVU431
 207:Drivers/lvgl/src/misc/cache/class/lv_cache_lru_ll.c ****     LV_ASSERT(lru->cache.node_size > 0);
 1337              		.loc 1 207 5 view .LVU432
 207:Drivers/lvgl/src/misc/cache/class/lv_cache_lru_ll.c ****     LV_ASSERT(lru->cache.node_size > 0);
 1338              		.loc 1 207 5 view .LVU433
 207:Drivers/lvgl/src/misc/cache/class/lv_cache_lru_ll.c ****     LV_ASSERT(lru->cache.node_size > 0);
 1339              		.loc 1 207 5 view .LVU434
 1340 0014 FEE7     		b	.L109
 1341              	.LVL116:
ARM GAS  /var/folders/qx/2_175_4n2s19vhvtspjhb3qh0000gn/T//cczf0E1J.s 			page 38


 1342              	.L110:
 208:Drivers/lvgl/src/misc/cache/class/lv_cache_lru_ll.c **** 
 1343              		.loc 1 208 5 view .LVU435
 210:Drivers/lvgl/src/misc/cache/class/lv_cache_lru_ll.c ****         return false;
 1344              		.loc 1 210 5 view .LVU436
 214:Drivers/lvgl/src/misc/cache/class/lv_cache_lru_ll.c ****     lru->get_data_size_cb = size_get_data_size_cb;
 1345              		.loc 1 214 5 view .LVU437
 1346 0016 FFF7FEFF 		bl	lv_cache_entry_get_size
 1347              	.LVL117:
 1348 001a 0146     		mov	r1, r0
 214:Drivers/lvgl/src/misc/cache/class/lv_cache_lru_ll.c ****     lru->get_data_size_cb = size_get_data_size_cb;
 1349              		.loc 1 214 5 is_stmt 0 discriminator 1 view .LVU438
 1350 001c 04F12400 		add	r0, r4, #36
 1351 0020 FFF7FEFF 		bl	lv_ll_init
 1352              	.LVL118:
 215:Drivers/lvgl/src/misc/cache/class/lv_cache_lru_ll.c **** 
 1353              		.loc 1 215 5 is_stmt 1 view .LVU439
 215:Drivers/lvgl/src/misc/cache/class/lv_cache_lru_ll.c **** 
 1354              		.loc 1 215 27 is_stmt 0 view .LVU440
 1355 0024 014B     		ldr	r3, .L114
 1356 0026 2363     		str	r3, [r4, #48]
 217:Drivers/lvgl/src/misc/cache/class/lv_cache_lru_ll.c **** }
 1357              		.loc 1 217 5 is_stmt 1 view .LVU441
 218:Drivers/lvgl/src/misc/cache/class/lv_cache_lru_ll.c **** 
 1358              		.loc 1 218 1 is_stmt 0 view .LVU442
 1359 0028 0120     		movs	r0, #1
 1360 002a 10BD     		pop	{r4, pc}
 1361              	.LVL119:
 1362              	.L115:
 218:Drivers/lvgl/src/misc/cache/class/lv_cache_lru_ll.c **** 
 1363              		.loc 1 218 1 view .LVU443
 1364              		.align	2
 1365              	.L114:
 1366 002c 00000000 		.word	size_get_data_size_cb
 1367              		.cfi_endproc
 1368              	.LFE17:
 1370              		.section	.text.alloc_cb,"ax",%progbits
 1371              		.align	1
 1372              		.syntax unified
 1373              		.thumb
 1374              		.thumb_func
 1376              	alloc_cb:
 1377              	.LFB15:
 172:Drivers/lvgl/src/misc/cache/class/lv_cache_lru_ll.c ****     void * res = lv_malloc(sizeof(lv_cache_lru_ll_t));
 1378              		.loc 1 172 1 is_stmt 1 view -0
 1379              		.cfi_startproc
 1380              		@ args = 0, pretend = 0, frame = 0
 1381              		@ frame_needed = 0, uses_anonymous_args = 0
 1382 0000 10B5     		push	{r4, lr}
 1383              	.LCFI36:
 1384              		.cfi_def_cfa_offset 8
 1385              		.cfi_offset 4, -8
 1386              		.cfi_offset 14, -4
 173:Drivers/lvgl/src/misc/cache/class/lv_cache_lru_ll.c ****     LV_ASSERT_MALLOC(res);
 1387              		.loc 1 173 5 view .LVU445
 173:Drivers/lvgl/src/misc/cache/class/lv_cache_lru_ll.c ****     LV_ASSERT_MALLOC(res);
 1388              		.loc 1 173 18 is_stmt 0 view .LVU446
ARM GAS  /var/folders/qx/2_175_4n2s19vhvtspjhb3qh0000gn/T//cczf0E1J.s 			page 39


 1389 0002 3420     		movs	r0, #52
 1390 0004 FFF7FEFF 		bl	lv_malloc
 1391              	.LVL120:
 174:Drivers/lvgl/src/misc/cache/class/lv_cache_lru_ll.c ****     if(res == NULL) {
 1392              		.loc 1 174 5 is_stmt 1 view .LVU447
 174:Drivers/lvgl/src/misc/cache/class/lv_cache_lru_ll.c ****     if(res == NULL) {
 1393              		.loc 1 174 5 view .LVU448
 1394 0008 30B1     		cbz	r0, .L118
 1395 000a 0446     		mov	r4, r0
 174:Drivers/lvgl/src/misc/cache/class/lv_cache_lru_ll.c ****     if(res == NULL) {
 1396              		.loc 1 174 5 view .LVU449
 174:Drivers/lvgl/src/misc/cache/class/lv_cache_lru_ll.c ****     if(res == NULL) {
 1397              		.loc 1 174 26 view .LVU450
 175:Drivers/lvgl/src/misc/cache/class/lv_cache_lru_ll.c ****         LV_LOG_ERROR("malloc failed");
 1398              		.loc 1 175 5 view .LVU451
 180:Drivers/lvgl/src/misc/cache/class/lv_cache_lru_ll.c ****     return res;
 1399              		.loc 1 180 5 view .LVU452
 1400              	.LVL121:
 1401              	.LBB8:
 1402              	.LBI8:
 1403              		.file 2 "Drivers/lvgl/src/misc/cache/class/../../../stdlib/lv_string.h"
   1:Drivers/lvgl/src/misc/cache/class/../../../stdlib/lv_string.h **** /**
   2:Drivers/lvgl/src/misc/cache/class/../../../stdlib/lv_string.h ****  * @file lv_string.h
   3:Drivers/lvgl/src/misc/cache/class/../../../stdlib/lv_string.h ****  *
   4:Drivers/lvgl/src/misc/cache/class/../../../stdlib/lv_string.h ****  */
   5:Drivers/lvgl/src/misc/cache/class/../../../stdlib/lv_string.h **** 
   6:Drivers/lvgl/src/misc/cache/class/../../../stdlib/lv_string.h **** #ifndef LV_STRING_H
   7:Drivers/lvgl/src/misc/cache/class/../../../stdlib/lv_string.h **** #define LV_STRING_H
   8:Drivers/lvgl/src/misc/cache/class/../../../stdlib/lv_string.h **** 
   9:Drivers/lvgl/src/misc/cache/class/../../../stdlib/lv_string.h **** #ifdef __cplusplus
  10:Drivers/lvgl/src/misc/cache/class/../../../stdlib/lv_string.h **** extern "C" {
  11:Drivers/lvgl/src/misc/cache/class/../../../stdlib/lv_string.h **** #endif
  12:Drivers/lvgl/src/misc/cache/class/../../../stdlib/lv_string.h **** 
  13:Drivers/lvgl/src/misc/cache/class/../../../stdlib/lv_string.h **** /*********************
  14:Drivers/lvgl/src/misc/cache/class/../../../stdlib/lv_string.h ****  *      INCLUDES
  15:Drivers/lvgl/src/misc/cache/class/../../../stdlib/lv_string.h ****  *********************/
  16:Drivers/lvgl/src/misc/cache/class/../../../stdlib/lv_string.h **** #include "../lv_conf_internal.h"
  17:Drivers/lvgl/src/misc/cache/class/../../../stdlib/lv_string.h **** #include "../misc/lv_types.h"
  18:Drivers/lvgl/src/misc/cache/class/../../../stdlib/lv_string.h **** 
  19:Drivers/lvgl/src/misc/cache/class/../../../stdlib/lv_string.h **** /*********************
  20:Drivers/lvgl/src/misc/cache/class/../../../stdlib/lv_string.h ****  *      DEFINES
  21:Drivers/lvgl/src/misc/cache/class/../../../stdlib/lv_string.h ****  *********************/
  22:Drivers/lvgl/src/misc/cache/class/../../../stdlib/lv_string.h **** 
  23:Drivers/lvgl/src/misc/cache/class/../../../stdlib/lv_string.h **** /**********************
  24:Drivers/lvgl/src/misc/cache/class/../../../stdlib/lv_string.h ****  *      TYPEDEFS
  25:Drivers/lvgl/src/misc/cache/class/../../../stdlib/lv_string.h ****  **********************/
  26:Drivers/lvgl/src/misc/cache/class/../../../stdlib/lv_string.h **** 
  27:Drivers/lvgl/src/misc/cache/class/../../../stdlib/lv_string.h **** /**********************
  28:Drivers/lvgl/src/misc/cache/class/../../../stdlib/lv_string.h ****  * GLOBAL PROTOTYPES
  29:Drivers/lvgl/src/misc/cache/class/../../../stdlib/lv_string.h ****  **********************/
  30:Drivers/lvgl/src/misc/cache/class/../../../stdlib/lv_string.h **** 
  31:Drivers/lvgl/src/misc/cache/class/../../../stdlib/lv_string.h **** /**
  32:Drivers/lvgl/src/misc/cache/class/../../../stdlib/lv_string.h ****  * @brief Copies a block of memory from a source address to a destination address.
  33:Drivers/lvgl/src/misc/cache/class/../../../stdlib/lv_string.h ****  * @param dst Pointer to the destination array where the content is to be copied.
  34:Drivers/lvgl/src/misc/cache/class/../../../stdlib/lv_string.h ****  * @param src Pointer to the source of data to be copied.
  35:Drivers/lvgl/src/misc/cache/class/../../../stdlib/lv_string.h ****  * @param len Number of bytes to copy.
  36:Drivers/lvgl/src/misc/cache/class/../../../stdlib/lv_string.h ****  * @return Pointer to the destination array.
ARM GAS  /var/folders/qx/2_175_4n2s19vhvtspjhb3qh0000gn/T//cczf0E1J.s 			page 40


  37:Drivers/lvgl/src/misc/cache/class/../../../stdlib/lv_string.h ****  * @note The function does not check for any overlapping of the source and destination memory block
  38:Drivers/lvgl/src/misc/cache/class/../../../stdlib/lv_string.h ****  */
  39:Drivers/lvgl/src/misc/cache/class/../../../stdlib/lv_string.h **** void * lv_memcpy(void * dst, const void * src, size_t len);
  40:Drivers/lvgl/src/misc/cache/class/../../../stdlib/lv_string.h **** 
  41:Drivers/lvgl/src/misc/cache/class/../../../stdlib/lv_string.h **** /**
  42:Drivers/lvgl/src/misc/cache/class/../../../stdlib/lv_string.h ****  * @brief Fills a block of memory with a specified value.
  43:Drivers/lvgl/src/misc/cache/class/../../../stdlib/lv_string.h ****  * @param dst Pointer to the destination array to fill with the specified value.
  44:Drivers/lvgl/src/misc/cache/class/../../../stdlib/lv_string.h ****  * @param v Value to be set. The value is passed as an int, but the function fills
  45:Drivers/lvgl/src/misc/cache/class/../../../stdlib/lv_string.h ****  *          the block of memory using the unsigned char conversion of this value.
  46:Drivers/lvgl/src/misc/cache/class/../../../stdlib/lv_string.h ****  * @param len Number of bytes to be set to the value.
  47:Drivers/lvgl/src/misc/cache/class/../../../stdlib/lv_string.h ****  */
  48:Drivers/lvgl/src/misc/cache/class/../../../stdlib/lv_string.h **** void lv_memset(void * dst, uint8_t v, size_t len);
  49:Drivers/lvgl/src/misc/cache/class/../../../stdlib/lv_string.h **** 
  50:Drivers/lvgl/src/misc/cache/class/../../../stdlib/lv_string.h **** /**
  51:Drivers/lvgl/src/misc/cache/class/../../../stdlib/lv_string.h ****  * @brief Move a block of memory from source to destination
  52:Drivers/lvgl/src/misc/cache/class/../../../stdlib/lv_string.h ****  * @param dst Pointer to the destination array where the content is to be copied.
  53:Drivers/lvgl/src/misc/cache/class/../../../stdlib/lv_string.h ****  * @param src Pointer to the source of data to be copied.
  54:Drivers/lvgl/src/misc/cache/class/../../../stdlib/lv_string.h ****  * @param len Number of bytes to copy
  55:Drivers/lvgl/src/misc/cache/class/../../../stdlib/lv_string.h ****  * @return Pointer to the destination array.
  56:Drivers/lvgl/src/misc/cache/class/../../../stdlib/lv_string.h ****  */
  57:Drivers/lvgl/src/misc/cache/class/../../../stdlib/lv_string.h **** void * lv_memmove(void * dst, const void * src, size_t len);
  58:Drivers/lvgl/src/misc/cache/class/../../../stdlib/lv_string.h **** 
  59:Drivers/lvgl/src/misc/cache/class/../../../stdlib/lv_string.h **** /**
  60:Drivers/lvgl/src/misc/cache/class/../../../stdlib/lv_string.h ****  * @brief This function will compare two memory blocks
  61:Drivers/lvgl/src/misc/cache/class/../../../stdlib/lv_string.h ****  * @param p1 Pointer to the first memory block
  62:Drivers/lvgl/src/misc/cache/class/../../../stdlib/lv_string.h ****  * @param p2 Pointer to the second memory block
  63:Drivers/lvgl/src/misc/cache/class/../../../stdlib/lv_string.h ****  * @param len Number of bytes to compare
  64:Drivers/lvgl/src/misc/cache/class/../../../stdlib/lv_string.h ****  * @return The difference between the value of the first unmatching byte.
  65:Drivers/lvgl/src/misc/cache/class/../../../stdlib/lv_string.h ****  */
  66:Drivers/lvgl/src/misc/cache/class/../../../stdlib/lv_string.h **** int lv_memcmp(const void * p1, const void * p2, size_t len);
  67:Drivers/lvgl/src/misc/cache/class/../../../stdlib/lv_string.h **** 
  68:Drivers/lvgl/src/misc/cache/class/../../../stdlib/lv_string.h **** /**
  69:Drivers/lvgl/src/misc/cache/class/../../../stdlib/lv_string.h ****  * Same as `memset(dst, 0x00, len)`.
  70:Drivers/lvgl/src/misc/cache/class/../../../stdlib/lv_string.h ****  * @param dst pointer to the destination buffer
  71:Drivers/lvgl/src/misc/cache/class/../../../stdlib/lv_string.h ****  * @param len number of byte to set
  72:Drivers/lvgl/src/misc/cache/class/../../../stdlib/lv_string.h ****  */
  73:Drivers/lvgl/src/misc/cache/class/../../../stdlib/lv_string.h **** static inline void lv_memzero(void * dst, size_t len)
 1404              		.loc 2 73 20 view .LVU453
 1405              	.LBB9:
  74:Drivers/lvgl/src/misc/cache/class/../../../stdlib/lv_string.h **** {
  75:Drivers/lvgl/src/misc/cache/class/../../../stdlib/lv_string.h ****     lv_memset(dst, 0x00, len);
 1406              		.loc 2 75 5 view .LVU454
 1407 000c 3422     		movs	r2, #52
 1408 000e 0021     		movs	r1, #0
 1409 0010 FFF7FEFF 		bl	lv_memset
 1410              	.LVL122:
 1411              		.loc 2 75 5 is_stmt 0 view .LVU455
 1412              	.LBE9:
 1413              	.LBE8:
 181:Drivers/lvgl/src/misc/cache/class/lv_cache_lru_ll.c **** }
 1414              		.loc 1 181 5 is_stmt 1 view .LVU456
 182:Drivers/lvgl/src/misc/cache/class/lv_cache_lru_ll.c **** 
 1415              		.loc 1 182 1 is_stmt 0 view .LVU457
 1416 0014 2046     		mov	r0, r4
 1417 0016 10BD     		pop	{r4, pc}
 1418              	.LVL123:
 1419              	.L118:
ARM GAS  /var/folders/qx/2_175_4n2s19vhvtspjhb3qh0000gn/T//cczf0E1J.s 			page 41


 174:Drivers/lvgl/src/misc/cache/class/lv_cache_lru_ll.c ****     if(res == NULL) {
 1420              		.loc 1 174 5 is_stmt 1 view .LVU458
 174:Drivers/lvgl/src/misc/cache/class/lv_cache_lru_ll.c ****     if(res == NULL) {
 1421              		.loc 1 174 5 view .LVU459
 174:Drivers/lvgl/src/misc/cache/class/lv_cache_lru_ll.c ****     if(res == NULL) {
 1422              		.loc 1 174 5 view .LVU460
 174:Drivers/lvgl/src/misc/cache/class/lv_cache_lru_ll.c ****     if(res == NULL) {
 1423              		.loc 1 174 5 view .LVU461
 174:Drivers/lvgl/src/misc/cache/class/lv_cache_lru_ll.c ****     if(res == NULL) {
 1424              		.loc 1 174 5 view .LVU462
 1425 0018 FEE7     		b	.L118
 1426              		.cfi_endproc
 1427              	.LFE15:
 1429              		.global	lv_cache_class_lru_ll_size
 1430              		.section	.rodata.lv_cache_class_lru_ll_size,"a"
 1431              		.align	2
 1434              	lv_cache_class_lru_ll_size:
 1435 0000 00000000 		.word	alloc_cb
 1436 0004 00000000 		.word	init_size_cb
 1437 0008 00000000 		.word	destroy_cb
 1438 000c 00000000 		.word	get_cb
 1439 0010 00000000 		.word	add_cb
 1440 0014 00000000 		.word	remove_cb
 1441 0018 00000000 		.word	drop_cb
 1442 001c 00000000 		.word	drop_all_cb
 1443 0020 00000000 		.word	get_victim_cb
 1444 0024 00000000 		.word	reserve_cond_cb
 1445 0028 00000000 		.word	cache_iter_create_cb
 1446              		.global	lv_cache_class_lru_ll_count
 1447              		.section	.rodata.lv_cache_class_lru_ll_count,"a"
 1448              		.align	2
 1451              	lv_cache_class_lru_ll_count:
 1452 0000 00000000 		.word	alloc_cb
 1453 0004 00000000 		.word	init_cnt_cb
 1454 0008 00000000 		.word	destroy_cb
 1455 000c 00000000 		.word	get_cb
 1456 0010 00000000 		.word	add_cb
 1457 0014 00000000 		.word	remove_cb
 1458 0018 00000000 		.word	drop_cb
 1459 001c 00000000 		.word	drop_all_cb
 1460 0020 00000000 		.word	get_victim_cb
 1461 0024 00000000 		.word	reserve_cond_cb
 1462 0028 00000000 		.word	cache_iter_create_cb
 1463              		.text
 1464              	.Letext0:
 1465              		.file 3 "/Applications/ArmGNUToolchain/14.3.rel1/arm-none-eabi/arm-none-eabi/include/machine/_defa
 1466              		.file 4 "/Applications/ArmGNUToolchain/14.3.rel1/arm-none-eabi/arm-none-eabi/include/sys/_stdint.h
 1467              		.file 5 "/Applications/ArmGNUToolchain/14.3.rel1/arm-none-eabi/lib/gcc/arm-none-eabi/14.3.1/includ
 1468              		.file 6 "Drivers/lvgl/src/misc/cache/class/../../lv_types.h"
 1469              		.file 7 "Drivers/lvgl/src/misc/cache/class/../lv_cache_private.h"
 1470              		.file 8 "Drivers/lvgl/src/misc/cache/class/../../../osal/lv_os_none.h"
 1471              		.file 9 "Drivers/lvgl/src/misc/cache/class/lv_cache_lru_ll.h"
 1472              		.file 10 "Drivers/lvgl/src/misc/cache/class/../../lv_ll.h"
 1473              		.file 11 "Drivers/lvgl/src/misc/cache/class/../../lv_iter.h"
 1474              		.file 12 "Drivers/lvgl/src/misc/cache/class/../lv_cache_entry.h"
 1475              		.file 13 "Drivers/lvgl/src/misc/cache/class/../../../stdlib/lv_mem.h"
ARM GAS  /var/folders/qx/2_175_4n2s19vhvtspjhb3qh0000gn/T//cczf0E1J.s 			page 42

