ARM GAS  /var/folders/qx/2_175_4n2s19vhvtspjhb3qh0000gn/T//cclDKaGf.s 			page 1


   1              		.cpu cortex-m4
   2              		.arch armv7e-m
   3              		.fpu fpv4-sp-d16
   4              		.eabi_attribute 27, 1
   5              		.eabi_attribute 28, 1
   6              		.eabi_attribute 20, 1
   7              		.eabi_attribute 21, 1
   8              		.eabi_attribute 23, 3
   9              		.eabi_attribute 24, 1
  10              		.eabi_attribute 25, 1
  11              		.eabi_attribute 26, 1
  12              		.eabi_attribute 30, 1
  13              		.eabi_attribute 34, 1
  14              		.eabi_attribute 18, 4
  15              		.file	"lv_cache_sc_da.c"
  16              		.text
  17              	.Ltext0:
  18              		.cfi_sections	.debug_frame
  19              		.file 1 "Drivers/lvgl/src/misc/cache/class/lv_cache_sc_da.c"
  20              		.section	.text.init_cnt_cb,"ax",%progbits
  21              		.align	1
  22              		.syntax unified
  23              		.thumb
  24              		.thumb_func
  26              	init_cnt_cb:
  27              	.LVL0:
  28              	.LFB20:
   1:Drivers/lvgl/src/misc/cache/class/lv_cache_sc_da.c **** /**
   2:Drivers/lvgl/src/misc/cache/class/lv_cache_sc_da.c **** * @file lv_cache_sc_da.c
   3:Drivers/lvgl/src/misc/cache/class/lv_cache_sc_da.c **** *
   4:Drivers/lvgl/src/misc/cache/class/lv_cache_sc_da.c **** */
   5:Drivers/lvgl/src/misc/cache/class/lv_cache_sc_da.c **** /*********************************************\
   6:Drivers/lvgl/src/misc/cache/class/lv_cache_sc_da.c **** *                                            *
   7:Drivers/lvgl/src/misc/cache/class/lv_cache_sc_da.c **** *  ŌöÅ Ōöü Ōöü Ōöü Ōöü Ōöü Ōöü Ōöü Ōöü Ōöü Ōöü Ōöü Ōöü Ōöü Ōöü Ōöō           *
   8:Drivers/lvgl/src/misc/cache/class/lv_cache_sc_da.c **** *                                            *
   9:Drivers/lvgl/src/misc/cache/class/lv_cache_sc_da.c **** *  Ōöā   Second Chance Cache       Ōöā           *
  10:Drivers/lvgl/src/misc/cache/class/lv_cache_sc_da.c **** *                                            *
  11:Drivers/lvgl/src/misc/cache/class/lv_cache_sc_da.c **** *  Ōöā  ŌöīŌöĆŌöĆŌöĆŌö¼ŌöĆŌöĆŌöĆŌö¼ŌöĆŌöĆŌöĆŌö¼ŌöĆŌöĆŌöĆŌö¼ŌöĆŌöĆŌöĆŌöÉ      Ōöā           *
  12:Drivers/lvgl/src/misc/cache/class/lv_cache_sc_da.c **** *     Ōöé B Ōöé E Ōöé A Ōöé D Ōöé C Ōöé                  *
  13:Drivers/lvgl/src/misc/cache/class/lv_cache_sc_da.c **** *  Ōöā  Ōö£ŌöĆŌö¼ŌöĆŌö╝ŌöĆŌö¼ŌöĆŌö╝ŌöĆŌö¼ŌöĆŌö╝ŌöĆŌö¼ŌöĆŌö╝ŌöĆŌö¼ŌöĆŌöż      Ōöā           *
  14:Drivers/lvgl/src/misc/cache/class/lv_cache_sc_da.c **** *     Ōöé1Ōöé Ōöé0Ōöé Ōöé1Ōöé Ōöé1Ōöé Ōöé0Ōöé Ōöé                  *
  15:Drivers/lvgl/src/misc/cache/class/lv_cache_sc_da.c **** *  Ōöā  ŌööŌöĆŌö┤ŌöĆŌö┤ŌöĆŌö┤ŌöĆŌö┤ŌöĆŌö┤ŌöĆŌö┤ŌöĆŌö┤ŌöĆŌö┤ŌöĆŌö┤ŌöĆŌöś      Ōöā           *
  16:Drivers/lvgl/src/misc/cache/class/lv_cache_sc_da.c **** *     [0] [1] [2] [3] [4]                    *
  17:Drivers/lvgl/src/misc/cache/class/lv_cache_sc_da.c **** *  Ōöā    Ō¢▓   Ō¢▓       Ō¢▓       Ō¢▓    Ōöā           *
  18:Drivers/lvgl/src/misc/cache/class/lv_cache_sc_da.c **** *       Ōöé   Ōöé       Ōöé       Ōöé                *
  19:Drivers/lvgl/src/misc/cache/class/lv_cache_sc_da.c **** *  Ōöā    Ōöé   Ōöé       Ōöé   Ōöī ŌöĆ Ōö┤ ŌöÉ  Ōöā           *
  20:Drivers/lvgl/src/misc/cache/class/lv_cache_sc_da.c **** *       Ōöé   Ōöé       Ōöé   Ōöé add Ōöé              *
  21:Drivers/lvgl/src/misc/cache/class/lv_cache_sc_da.c **** *  Ōöā    Ōöé   Ōöé       Ōöé   Ōöé new Ōöé  Ōöā           *
  22:Drivers/lvgl/src/misc/cache/class/lv_cache_sc_da.c **** *       Ōöé   Ōöé       Ōöé   Ōöéhere Ōöé              *
  23:Drivers/lvgl/src/misc/cache/class/lv_cache_sc_da.c **** *  Ōöā    Ōöé   Ōöé       Ōöé   Ōöö ŌöĆ ŌöĆ Ōöś  Ōöā           *
  24:Drivers/lvgl/src/misc/cache/class/lv_cache_sc_da.c **** *       Ōöé   Ōöé       Ōöé                        *
  25:Drivers/lvgl/src/misc/cache/class/lv_cache_sc_da.c **** *  Ōöā    Ōöé   Ōöé   Ōöī ŌöĆ Ōö┤ ŌöĆ ŌöĆ ŌöĆ ŌöĆ ŌöÉ  Ōöā           *
  26:Drivers/lvgl/src/misc/cache/class/lv_cache_sc_da.c **** *       Ōöé   Ōöé   Ōöé recently    Ōöé              *
  27:Drivers/lvgl/src/misc/cache/class/lv_cache_sc_da.c **** *  Ōöā    Ōöé   Ōöé   Ōöé used bit=1  Ōöé  Ōöā           *
  28:Drivers/lvgl/src/misc/cache/class/lv_cache_sc_da.c **** *       Ōöé   Ōöé   Ōöé (accessed)  Ōöé              *
  29:Drivers/lvgl/src/misc/cache/class/lv_cache_sc_da.c **** *  Ōöā    Ōöé   Ōöé   Ōöö ŌöĆ ŌöĆ ŌöĆ ŌöĆ ŌöĆ ŌöĆ Ōöś  Ōöā           *
  30:Drivers/lvgl/src/misc/cache/class/lv_cache_sc_da.c **** *       Ōöé   Ōöé                                *
ARM GAS  /var/folders/qx/2_175_4n2s19vhvtspjhb3qh0000gn/T//cclDKaGf.s 			page 2


  31:Drivers/lvgl/src/misc/cache/class/lv_cache_sc_da.c **** *  Ōöā    Ōöé   Ōöö ŌöĆ ŌöĆ victim bit=0   Ōöā           *
  32:Drivers/lvgl/src/misc/cache/class/lv_cache_sc_da.c **** *       Ōöé       (will be evicted)            *
  33:Drivers/lvgl/src/misc/cache/class/lv_cache_sc_da.c **** *  Ōöā    Ōöö ŌöĆ ŌöĆ ŌöĆ ŌöĆ victim bit=1   Ōöā           *
  34:Drivers/lvgl/src/misc/cache/class/lv_cache_sc_da.c **** *         (gets second chance,               *
  35:Drivers/lvgl/src/misc/cache/class/lv_cache_sc_da.c **** *  Ōöā      bit reset to 0)        Ōöā           *
  36:Drivers/lvgl/src/misc/cache/class/lv_cache_sc_da.c **** *                                            *
  37:Drivers/lvgl/src/misc/cache/class/lv_cache_sc_da.c **** *  Ōöā  Eviction Process:          Ōöā           *
  38:Drivers/lvgl/src/misc/cache/class/lv_cache_sc_da.c **** *     1. Find first bit=0                    *
  39:Drivers/lvgl/src/misc/cache/class/lv_cache_sc_da.c **** *  Ōöā  2. If none, reset all to 0 Ōöā           *
  40:Drivers/lvgl/src/misc/cache/class/lv_cache_sc_da.c **** *     3. Replace first entry                 *
  41:Drivers/lvgl/src/misc/cache/class/lv_cache_sc_da.c **** *  Ōöā                             Ōöā           *
  42:Drivers/lvgl/src/misc/cache/class/lv_cache_sc_da.c **** *  ŌöŚ Ōöü Ōöü Ōöü Ōöü Ōöü Ōöü Ōöü Ōöü Ōöü Ōöü Ōöü Ōöü Ōöü Ōöü Ōöø           *
  43:Drivers/lvgl/src/misc/cache/class/lv_cache_sc_da.c **** *                                            *
  44:Drivers/lvgl/src/misc/cache/class/lv_cache_sc_da.c **** * ŌöÅŌöüŌöüŌöüŌöüŌöüŌöüŌöüŌöüŌöüŌöüŌöüŌöüŌöüŌöüŌöüŌöüŌöüŌöüŌöüŌöüŌöüŌöüŌöüŌöüŌöüŌöüŌöüŌöüŌöüŌöüŌöüŌ
  45:Drivers/lvgl/src/misc/cache/class/lv_cache_sc_da.c **** * Ōöā       Buffer Entry Structure           Ōöā *
  46:Drivers/lvgl/src/misc/cache/class/lv_cache_sc_da.c **** * Ōöā  ŌöīŌöĆŌöĆŌöĆŌöĆŌöĆŌöĆŌöĆŌöĆŌöĆŌöĆŌöĆŌöĆŌö¼ŌöĆŌöĆŌöĆŌöĆŌöĆŌöĆŌöĆŌöĆŌöĆŌöĆŌöĆŌöĆŌöĆŌöĆŌöĆŌöĆŌö
  47:Drivers/lvgl/src/misc/cache/class/lv_cache_sc_da.c **** * Ōöā  Ōöé   DATA     Ōöé     ENTRY_DATA       Ōöé Ōöā *
  48:Drivers/lvgl/src/misc/cache/class/lv_cache_sc_da.c **** * Ōöā  Ōöé (user type)Ōöé (lv_cache_entry_t)   Ōöé Ōöā *
  49:Drivers/lvgl/src/misc/cache/class/lv_cache_sc_da.c **** * Ōöā  ŌööŌöĆŌöĆŌöĆŌöĆŌöĆŌöĆŌöĆŌöĆŌöĆŌöĆŌöĆŌöĆŌö┤ŌöĆŌöĆŌöĆŌöĆŌöĆŌöĆŌöĆŌöĆŌöĆŌöĆŌöĆŌöĆŌöĆŌöĆŌöĆŌöĆŌö
  50:Drivers/lvgl/src/misc/cache/class/lv_cache_sc_da.c **** * ŌöŚŌöüŌöüŌöüŌöüŌöüŌöüŌöüŌöüŌöüŌöüŌöüŌöüŌöüŌöüŌöüŌöüŌöüŌöüŌöüŌöüŌöüŌöüŌöüŌöüŌöüŌöüŌöüŌöüŌöüŌöüŌöüŌ
  51:Drivers/lvgl/src/misc/cache/class/lv_cache_sc_da.c **** \*********************************************/
  52:Drivers/lvgl/src/misc/cache/class/lv_cache_sc_da.c **** 
  53:Drivers/lvgl/src/misc/cache/class/lv_cache_sc_da.c **** /*********************
  54:Drivers/lvgl/src/misc/cache/class/lv_cache_sc_da.c ****  *      INCLUDES
  55:Drivers/lvgl/src/misc/cache/class/lv_cache_sc_da.c ****  *********************/
  56:Drivers/lvgl/src/misc/cache/class/lv_cache_sc_da.c **** 
  57:Drivers/lvgl/src/misc/cache/class/lv_cache_sc_da.c **** #include "lv_cache_sc_da.h"
  58:Drivers/lvgl/src/misc/cache/class/lv_cache_sc_da.c **** #include "../lv_cache_entry.h"
  59:Drivers/lvgl/src/misc/cache/class/lv_cache_sc_da.c **** #include "../lv_cache_entry_private.h"
  60:Drivers/lvgl/src/misc/cache/class/lv_cache_sc_da.c **** #include "../../../stdlib/lv_sprintf.h"
  61:Drivers/lvgl/src/misc/cache/class/lv_cache_sc_da.c **** #include "../../../stdlib/lv_string.h"
  62:Drivers/lvgl/src/misc/cache/class/lv_cache_sc_da.c **** 
  63:Drivers/lvgl/src/misc/cache/class/lv_cache_sc_da.c **** #include "../../lv_iter.h"
  64:Drivers/lvgl/src/misc/cache/class/lv_cache_sc_da.c **** #include "../../lv_assert.h"
  65:Drivers/lvgl/src/misc/cache/class/lv_cache_sc_da.c **** #include "../../lv_math.h"
  66:Drivers/lvgl/src/misc/cache/class/lv_cache_sc_da.c **** #include "../../lv_types.h"
  67:Drivers/lvgl/src/misc/cache/class/lv_cache_sc_da.c **** 
  68:Drivers/lvgl/src/misc/cache/class/lv_cache_sc_da.c **** /*********************
  69:Drivers/lvgl/src/misc/cache/class/lv_cache_sc_da.c ****  *      DEFINES
  70:Drivers/lvgl/src/misc/cache/class/lv_cache_sc_da.c ****  *********************/
  71:Drivers/lvgl/src/misc/cache/class/lv_cache_sc_da.c **** 
  72:Drivers/lvgl/src/misc/cache/class/lv_cache_sc_da.c **** /**********************
  73:Drivers/lvgl/src/misc/cache/class/lv_cache_sc_da.c ****  *      TYPEDEFS
  74:Drivers/lvgl/src/misc/cache/class/lv_cache_sc_da.c ****  **********************/
  75:Drivers/lvgl/src/misc/cache/class/lv_cache_sc_da.c **** 
  76:Drivers/lvgl/src/misc/cache/class/lv_cache_sc_da.c **** typedef uint32_t(get_data_size_cb_t)(const void * data);
  77:Drivers/lvgl/src/misc/cache/class/lv_cache_sc_da.c **** 
  78:Drivers/lvgl/src/misc/cache/class/lv_cache_sc_da.c **** typedef struct {
  79:Drivers/lvgl/src/misc/cache/class/lv_cache_sc_da.c ****     lv_cache_t cache;
  80:Drivers/lvgl/src/misc/cache/class/lv_cache_sc_da.c ****     uint8_t * data;
  81:Drivers/lvgl/src/misc/cache/class/lv_cache_sc_da.c ****     size_t capacity;
  82:Drivers/lvgl/src/misc/cache/class/lv_cache_sc_da.c **** } lv_cache_sc_da_t;
  83:Drivers/lvgl/src/misc/cache/class/lv_cache_sc_da.c **** 
  84:Drivers/lvgl/src/misc/cache/class/lv_cache_sc_da.c **** /**********************
  85:Drivers/lvgl/src/misc/cache/class/lv_cache_sc_da.c ****  *  STATIC PROTOTYPES
  86:Drivers/lvgl/src/misc/cache/class/lv_cache_sc_da.c ****  **********************/
  87:Drivers/lvgl/src/misc/cache/class/lv_cache_sc_da.c **** 
ARM GAS  /var/folders/qx/2_175_4n2s19vhvtspjhb3qh0000gn/T//cclDKaGf.s 			page 3


  88:Drivers/lvgl/src/misc/cache/class/lv_cache_sc_da.c **** static void * alloc_cb(void);
  89:Drivers/lvgl/src/misc/cache/class/lv_cache_sc_da.c **** static bool init_cnt_cb(lv_cache_t * cache);
  90:Drivers/lvgl/src/misc/cache/class/lv_cache_sc_da.c **** static void destroy_cb(lv_cache_t * cache, void * user_data);
  91:Drivers/lvgl/src/misc/cache/class/lv_cache_sc_da.c **** 
  92:Drivers/lvgl/src/misc/cache/class/lv_cache_sc_da.c **** static lv_cache_entry_t * get_cb(lv_cache_t * cache, const void * key,
  93:Drivers/lvgl/src/misc/cache/class/lv_cache_sc_da.c ****                                  void * user_data);
  94:Drivers/lvgl/src/misc/cache/class/lv_cache_sc_da.c **** static lv_cache_entry_t * add_cb(lv_cache_t * cache, const void * key,
  95:Drivers/lvgl/src/misc/cache/class/lv_cache_sc_da.c ****                                  void * user_data);
  96:Drivers/lvgl/src/misc/cache/class/lv_cache_sc_da.c **** static void remove_cb(lv_cache_t * cache, lv_cache_entry_t * entry,
  97:Drivers/lvgl/src/misc/cache/class/lv_cache_sc_da.c ****                       void * user_data);
  98:Drivers/lvgl/src/misc/cache/class/lv_cache_sc_da.c **** static void drop_cb(lv_cache_t * cache, const void * key, void * user_data);
  99:Drivers/lvgl/src/misc/cache/class/lv_cache_sc_da.c **** static void drop_all_cb(lv_cache_t * cache, void * user_data);
 100:Drivers/lvgl/src/misc/cache/class/lv_cache_sc_da.c **** static lv_cache_entry_t * get_victim_cb(lv_cache_t * cache, void * user_data);
 101:Drivers/lvgl/src/misc/cache/class/lv_cache_sc_da.c **** static lv_cache_reserve_cond_res_t reserve_cond_cb(lv_cache_t * cache,
 102:Drivers/lvgl/src/misc/cache/class/lv_cache_sc_da.c ****                                                    const void * key,
 103:Drivers/lvgl/src/misc/cache/class/lv_cache_sc_da.c ****                                                    size_t reserved_size,
 104:Drivers/lvgl/src/misc/cache/class/lv_cache_sc_da.c ****                                                    void * user_data);
 105:Drivers/lvgl/src/misc/cache/class/lv_cache_sc_da.c **** 
 106:Drivers/lvgl/src/misc/cache/class/lv_cache_sc_da.c **** static void * alloc_new_entry(lv_cache_sc_da_t * da, const void * key,
 107:Drivers/lvgl/src/misc/cache/class/lv_cache_sc_da.c ****                               void * user_data);
 108:Drivers/lvgl/src/misc/cache/class/lv_cache_sc_da.c **** 
 109:Drivers/lvgl/src/misc/cache/class/lv_cache_sc_da.c **** static lv_iter_t * cache_iter_create_cb(lv_cache_t * cache);
 110:Drivers/lvgl/src/misc/cache/class/lv_cache_sc_da.c **** static lv_result_t cache_iter_next_cb(void * instance, void * context,
 111:Drivers/lvgl/src/misc/cache/class/lv_cache_sc_da.c ****                                       void * elem);
 112:Drivers/lvgl/src/misc/cache/class/lv_cache_sc_da.c **** 
 113:Drivers/lvgl/src/misc/cache/class/lv_cache_sc_da.c **** static lv_cache_entry_t * get_possible_victim(lv_cache_sc_da_t * da,
 114:Drivers/lvgl/src/misc/cache/class/lv_cache_sc_da.c ****                                               size_t index);
 115:Drivers/lvgl/src/misc/cache/class/lv_cache_sc_da.c **** 
 116:Drivers/lvgl/src/misc/cache/class/lv_cache_sc_da.c **** static inline void set_second_chance(lv_cache_entry_t * entry, bool value);
 117:Drivers/lvgl/src/misc/cache/class/lv_cache_sc_da.c **** static inline bool has_second_chance(lv_cache_entry_t * entry);
 118:Drivers/lvgl/src/misc/cache/class/lv_cache_sc_da.c **** static inline void get_entry(lv_cache_sc_da_t * da, size_t index,
 119:Drivers/lvgl/src/misc/cache/class/lv_cache_sc_da.c ****                              void ** cache_data, lv_cache_entry_t ** cache_entry);
 120:Drivers/lvgl/src/misc/cache/class/lv_cache_sc_da.c **** 
 121:Drivers/lvgl/src/misc/cache/class/lv_cache_sc_da.c **** /**********************
 122:Drivers/lvgl/src/misc/cache/class/lv_cache_sc_da.c ****  *  GLOBAL VARIABLES
 123:Drivers/lvgl/src/misc/cache/class/lv_cache_sc_da.c ****  **********************/
 124:Drivers/lvgl/src/misc/cache/class/lv_cache_sc_da.c **** const lv_cache_class_t lv_cache_class_sc_da = {
 125:Drivers/lvgl/src/misc/cache/class/lv_cache_sc_da.c ****     .alloc_cb = alloc_cb,
 126:Drivers/lvgl/src/misc/cache/class/lv_cache_sc_da.c ****     .init_cb = init_cnt_cb,
 127:Drivers/lvgl/src/misc/cache/class/lv_cache_sc_da.c ****     .destroy_cb = destroy_cb,
 128:Drivers/lvgl/src/misc/cache/class/lv_cache_sc_da.c **** 
 129:Drivers/lvgl/src/misc/cache/class/lv_cache_sc_da.c ****     .get_cb = get_cb,
 130:Drivers/lvgl/src/misc/cache/class/lv_cache_sc_da.c ****     .add_cb = add_cb,
 131:Drivers/lvgl/src/misc/cache/class/lv_cache_sc_da.c ****     .remove_cb = remove_cb,
 132:Drivers/lvgl/src/misc/cache/class/lv_cache_sc_da.c ****     .drop_cb = drop_cb,
 133:Drivers/lvgl/src/misc/cache/class/lv_cache_sc_da.c ****     .drop_all_cb = drop_all_cb,
 134:Drivers/lvgl/src/misc/cache/class/lv_cache_sc_da.c ****     .get_victim_cb = get_victim_cb,
 135:Drivers/lvgl/src/misc/cache/class/lv_cache_sc_da.c ****     .reserve_cond_cb = reserve_cond_cb,
 136:Drivers/lvgl/src/misc/cache/class/lv_cache_sc_da.c ****     .iter_create_cb = cache_iter_create_cb,
 137:Drivers/lvgl/src/misc/cache/class/lv_cache_sc_da.c **** };
 138:Drivers/lvgl/src/misc/cache/class/lv_cache_sc_da.c **** 
 139:Drivers/lvgl/src/misc/cache/class/lv_cache_sc_da.c **** /**********************
 140:Drivers/lvgl/src/misc/cache/class/lv_cache_sc_da.c ****  *  STATIC VARIABLES
 141:Drivers/lvgl/src/misc/cache/class/lv_cache_sc_da.c ****  **********************/
 142:Drivers/lvgl/src/misc/cache/class/lv_cache_sc_da.c **** 
 143:Drivers/lvgl/src/misc/cache/class/lv_cache_sc_da.c **** /**********************
 144:Drivers/lvgl/src/misc/cache/class/lv_cache_sc_da.c ****  *      MACROS
ARM GAS  /var/folders/qx/2_175_4n2s19vhvtspjhb3qh0000gn/T//cclDKaGf.s 			page 4


 145:Drivers/lvgl/src/misc/cache/class/lv_cache_sc_da.c ****  **********************/
 146:Drivers/lvgl/src/misc/cache/class/lv_cache_sc_da.c **** 
 147:Drivers/lvgl/src/misc/cache/class/lv_cache_sc_da.c **** #define LV_CACHE_ENTRY_SIZE lv_cache_entry_get_size(0)
 148:Drivers/lvgl/src/misc/cache/class/lv_cache_sc_da.c **** 
 149:Drivers/lvgl/src/misc/cache/class/lv_cache_sc_da.c **** /**********************
 150:Drivers/lvgl/src/misc/cache/class/lv_cache_sc_da.c ****  *   GLOBAL FUNCTIONS
 151:Drivers/lvgl/src/misc/cache/class/lv_cache_sc_da.c ****  **********************/
 152:Drivers/lvgl/src/misc/cache/class/lv_cache_sc_da.c **** 
 153:Drivers/lvgl/src/misc/cache/class/lv_cache_sc_da.c **** /**********************
 154:Drivers/lvgl/src/misc/cache/class/lv_cache_sc_da.c ****  *   STATIC FUNCTIONS
 155:Drivers/lvgl/src/misc/cache/class/lv_cache_sc_da.c ****  **********************/
 156:Drivers/lvgl/src/misc/cache/class/lv_cache_sc_da.c **** 
 157:Drivers/lvgl/src/misc/cache/class/lv_cache_sc_da.c **** static inline void get_entry(lv_cache_sc_da_t * da, size_t index,
 158:Drivers/lvgl/src/misc/cache/class/lv_cache_sc_da.c ****                              void ** cache_data, lv_cache_entry_t ** cache_entry)
 159:Drivers/lvgl/src/misc/cache/class/lv_cache_sc_da.c **** {
 160:Drivers/lvgl/src/misc/cache/class/lv_cache_sc_da.c ****     const size_t node_size = lv_cache_entry_get_size(da->cache.node_size);
 161:Drivers/lvgl/src/misc/cache/class/lv_cache_sc_da.c ****     *cache_data = da->data + (index * node_size);
 162:Drivers/lvgl/src/misc/cache/class/lv_cache_sc_da.c ****     *cache_entry =
 163:Drivers/lvgl/src/misc/cache/class/lv_cache_sc_da.c ****         lv_cache_entry_get_entry(*cache_data, da->cache.node_size);
 164:Drivers/lvgl/src/misc/cache/class/lv_cache_sc_da.c **** }
 165:Drivers/lvgl/src/misc/cache/class/lv_cache_sc_da.c **** static inline void set_second_chance(lv_cache_entry_t * entry, bool value)
 166:Drivers/lvgl/src/misc/cache/class/lv_cache_sc_da.c **** {
 167:Drivers/lvgl/src/misc/cache/class/lv_cache_sc_da.c ****     if(value) {
 168:Drivers/lvgl/src/misc/cache/class/lv_cache_sc_da.c ****         lv_cache_entry_set_flag(entry, LV_CACHE_ENTRY_FLAG_CLASS_CUSTOM);
 169:Drivers/lvgl/src/misc/cache/class/lv_cache_sc_da.c ****     }
 170:Drivers/lvgl/src/misc/cache/class/lv_cache_sc_da.c ****     else {
 171:Drivers/lvgl/src/misc/cache/class/lv_cache_sc_da.c ****         lv_cache_entry_remove_flag(entry, LV_CACHE_ENTRY_FLAG_CLASS_CUSTOM);
 172:Drivers/lvgl/src/misc/cache/class/lv_cache_sc_da.c ****     }
 173:Drivers/lvgl/src/misc/cache/class/lv_cache_sc_da.c **** }
 174:Drivers/lvgl/src/misc/cache/class/lv_cache_sc_da.c **** 
 175:Drivers/lvgl/src/misc/cache/class/lv_cache_sc_da.c **** static inline bool has_second_chance(lv_cache_entry_t * entry)
 176:Drivers/lvgl/src/misc/cache/class/lv_cache_sc_da.c **** {
 177:Drivers/lvgl/src/misc/cache/class/lv_cache_sc_da.c ****     return lv_cache_entry_has_flag(entry, LV_CACHE_ENTRY_FLAG_CLASS_CUSTOM);
 178:Drivers/lvgl/src/misc/cache/class/lv_cache_sc_da.c **** }
 179:Drivers/lvgl/src/misc/cache/class/lv_cache_sc_da.c **** 
 180:Drivers/lvgl/src/misc/cache/class/lv_cache_sc_da.c **** static void * alloc_new_entry(lv_cache_sc_da_t * da, const void * key,
 181:Drivers/lvgl/src/misc/cache/class/lv_cache_sc_da.c ****                               void * user_data)
 182:Drivers/lvgl/src/misc/cache/class/lv_cache_sc_da.c **** {
 183:Drivers/lvgl/src/misc/cache/class/lv_cache_sc_da.c ****     LV_UNUSED(user_data);
 184:Drivers/lvgl/src/misc/cache/class/lv_cache_sc_da.c **** 
 185:Drivers/lvgl/src/misc/cache/class/lv_cache_sc_da.c ****     LV_ASSERT_NULL(da);
 186:Drivers/lvgl/src/misc/cache/class/lv_cache_sc_da.c ****     LV_ASSERT_NULL(key);
 187:Drivers/lvgl/src/misc/cache/class/lv_cache_sc_da.c **** 
 188:Drivers/lvgl/src/misc/cache/class/lv_cache_sc_da.c ****     if(da == NULL || key == NULL) {
 189:Drivers/lvgl/src/misc/cache/class/lv_cache_sc_da.c ****         return NULL;
 190:Drivers/lvgl/src/misc/cache/class/lv_cache_sc_da.c ****     }
 191:Drivers/lvgl/src/misc/cache/class/lv_cache_sc_da.c ****     const size_t node_size = lv_cache_entry_get_size(da->cache.node_size);
 192:Drivers/lvgl/src/misc/cache/class/lv_cache_sc_da.c **** 
 193:Drivers/lvgl/src/misc/cache/class/lv_cache_sc_da.c ****     if(da->capacity == da->cache.size) {
 194:Drivers/lvgl/src/misc/cache/class/lv_cache_sc_da.c ****         if(da->capacity == da->cache.max_size) {
 195:Drivers/lvgl/src/misc/cache/class/lv_cache_sc_da.c ****             LV_LOG_ERROR(
 196:Drivers/lvgl/src/misc/cache/class/lv_cache_sc_da.c ****                 "Reached maximum size of cache. Unable to allocate a new entry");
 197:Drivers/lvgl/src/misc/cache/class/lv_cache_sc_da.c ****             return NULL;
 198:Drivers/lvgl/src/misc/cache/class/lv_cache_sc_da.c ****         }
 199:Drivers/lvgl/src/misc/cache/class/lv_cache_sc_da.c **** 
 200:Drivers/lvgl/src/misc/cache/class/lv_cache_sc_da.c ****         const size_t new_capacity =
 201:Drivers/lvgl/src/misc/cache/class/lv_cache_sc_da.c ****             LV_MIN(da->capacity == 0 ? 1 : da->capacity * 2,
ARM GAS  /var/folders/qx/2_175_4n2s19vhvtspjhb3qh0000gn/T//cclDKaGf.s 			page 5


 202:Drivers/lvgl/src/misc/cache/class/lv_cache_sc_da.c ****                    da->cache.max_size);
 203:Drivers/lvgl/src/misc/cache/class/lv_cache_sc_da.c **** 
 204:Drivers/lvgl/src/misc/cache/class/lv_cache_sc_da.c ****         uint8_t * new_data = (uint8_t *)lv_realloc(
 205:Drivers/lvgl/src/misc/cache/class/lv_cache_sc_da.c ****                                  da->data, new_capacity * node_size);
 206:Drivers/lvgl/src/misc/cache/class/lv_cache_sc_da.c **** 
 207:Drivers/lvgl/src/misc/cache/class/lv_cache_sc_da.c ****         if(!new_data) {
 208:Drivers/lvgl/src/misc/cache/class/lv_cache_sc_da.c ****             LV_LOG_ERROR("Failed to allocate new data for cache");
 209:Drivers/lvgl/src/misc/cache/class/lv_cache_sc_da.c ****             return NULL;
 210:Drivers/lvgl/src/misc/cache/class/lv_cache_sc_da.c ****         }
 211:Drivers/lvgl/src/misc/cache/class/lv_cache_sc_da.c **** 
 212:Drivers/lvgl/src/misc/cache/class/lv_cache_sc_da.c ****         da->data = new_data;
 213:Drivers/lvgl/src/misc/cache/class/lv_cache_sc_da.c ****         da->capacity = new_capacity;
 214:Drivers/lvgl/src/misc/cache/class/lv_cache_sc_da.c ****     }
 215:Drivers/lvgl/src/misc/cache/class/lv_cache_sc_da.c ****     void * last_da_entry;
 216:Drivers/lvgl/src/misc/cache/class/lv_cache_sc_da.c ****     lv_cache_entry_t * last_cache_entry;
 217:Drivers/lvgl/src/misc/cache/class/lv_cache_sc_da.c **** 
 218:Drivers/lvgl/src/misc/cache/class/lv_cache_sc_da.c ****     get_entry(da, da->cache.size, &last_da_entry, &last_cache_entry);
 219:Drivers/lvgl/src/misc/cache/class/lv_cache_sc_da.c **** 
 220:Drivers/lvgl/src/misc/cache/class/lv_cache_sc_da.c ****     lv_memcpy(last_da_entry, key, da->cache.node_size);
 221:Drivers/lvgl/src/misc/cache/class/lv_cache_sc_da.c ****     lv_cache_entry_init(last_cache_entry, &da->cache, da->cache.node_size);
 222:Drivers/lvgl/src/misc/cache/class/lv_cache_sc_da.c ****     lv_cache_entry_set_flag(last_cache_entry, LV_CACHE_ENTRY_FLAG_DISABLE_DELETE);
 223:Drivers/lvgl/src/misc/cache/class/lv_cache_sc_da.c **** 
 224:Drivers/lvgl/src/misc/cache/class/lv_cache_sc_da.c ****     /*New entries start with their second chance set*/
 225:Drivers/lvgl/src/misc/cache/class/lv_cache_sc_da.c ****     set_second_chance(last_cache_entry, true);
 226:Drivers/lvgl/src/misc/cache/class/lv_cache_sc_da.c ****     return last_cache_entry;
 227:Drivers/lvgl/src/misc/cache/class/lv_cache_sc_da.c **** }
 228:Drivers/lvgl/src/misc/cache/class/lv_cache_sc_da.c **** 
 229:Drivers/lvgl/src/misc/cache/class/lv_cache_sc_da.c **** static void * alloc_cb(void)
 230:Drivers/lvgl/src/misc/cache/class/lv_cache_sc_da.c **** {
 231:Drivers/lvgl/src/misc/cache/class/lv_cache_sc_da.c ****     return lv_calloc(1, sizeof(lv_cache_sc_da_t));
 232:Drivers/lvgl/src/misc/cache/class/lv_cache_sc_da.c **** }
 233:Drivers/lvgl/src/misc/cache/class/lv_cache_sc_da.c **** 
 234:Drivers/lvgl/src/misc/cache/class/lv_cache_sc_da.c **** static bool init_cnt_cb(lv_cache_t * cache)
 235:Drivers/lvgl/src/misc/cache/class/lv_cache_sc_da.c **** {
  29              		.loc 1 235 1 view -0
  30              		.cfi_startproc
  31              		@ args = 0, pretend = 0, frame = 0
  32              		@ frame_needed = 0, uses_anonymous_args = 0
  33              		@ link register save eliminated.
 236:Drivers/lvgl/src/misc/cache/class/lv_cache_sc_da.c ****     LV_ASSERT_NULL(cache);
  34              		.loc 1 236 5 view .LVU1
  35              		.loc 1 236 5 view .LVU2
  36 0000 38B1     		cbz	r0, .L3
  37              		.loc 1 236 5 view .LVU3
  38              		.loc 1 236 26 view .LVU4
 237:Drivers/lvgl/src/misc/cache/class/lv_cache_sc_da.c ****     lv_cache_sc_da_t * da = (lv_cache_sc_da_t *)cache;
  39              		.loc 1 237 5 view .LVU5
  40              	.LVL1:
 238:Drivers/lvgl/src/misc/cache/class/lv_cache_sc_da.c ****     return da->cache.node_size > 0 && da->cache.ops.compare_cb &&
  41              		.loc 1 238 5 view .LVU6
  42              		.loc 1 238 21 is_stmt 0 view .LVU7
  43 0002 4268     		ldr	r2, [r0, #4]
  44              		.loc 1 238 64 view .LVU8
  45 0004 42B1     		cbz	r2, .L5
  46              		.loc 1 238 52 discriminator 1 view .LVU9
  47 0006 0269     		ldr	r2, [r0, #16]
  48              		.loc 1 238 36 discriminator 1 view .LVU10
ARM GAS  /var/folders/qx/2_175_4n2s19vhvtspjhb3qh0000gn/T//cclDKaGf.s 			page 6


  49 0008 42B1     		cbz	r2, .L6
 239:Drivers/lvgl/src/misc/cache/class/lv_cache_sc_da.c ****            da->cache.ops.free_cb;
  50              		.loc 1 239 25 view .LVU11
  51 000a 8369     		ldr	r3, [r0, #24]
 238:Drivers/lvgl/src/misc/cache/class/lv_cache_sc_da.c ****     return da->cache.node_size > 0 && da->cache.ops.compare_cb &&
  52              		.loc 1 238 64 discriminator 3 view .LVU12
  53 000c 13B1     		cbz	r3, .L8
 238:Drivers/lvgl/src/misc/cache/class/lv_cache_sc_da.c ****     return da->cache.node_size > 0 && da->cache.ops.compare_cb &&
  54              		.loc 1 238 64 discriminator 5 view .LVU13
  55 000e 0120     		movs	r0, #1
  56              	.LVL2:
 240:Drivers/lvgl/src/misc/cache/class/lv_cache_sc_da.c **** }
  57              		.loc 1 240 1 view .LVU14
  58 0010 7047     		bx	lr
  59              	.LVL3:
  60              	.L3:
 236:Drivers/lvgl/src/misc/cache/class/lv_cache_sc_da.c ****     lv_cache_sc_da_t * da = (lv_cache_sc_da_t *)cache;
  61              		.loc 1 236 5 is_stmt 1 view .LVU15
 236:Drivers/lvgl/src/misc/cache/class/lv_cache_sc_da.c ****     lv_cache_sc_da_t * da = (lv_cache_sc_da_t *)cache;
  62              		.loc 1 236 5 view .LVU16
 236:Drivers/lvgl/src/misc/cache/class/lv_cache_sc_da.c ****     lv_cache_sc_da_t * da = (lv_cache_sc_da_t *)cache;
  63              		.loc 1 236 5 view .LVU17
 236:Drivers/lvgl/src/misc/cache/class/lv_cache_sc_da.c ****     lv_cache_sc_da_t * da = (lv_cache_sc_da_t *)cache;
  64              		.loc 1 236 5 view .LVU18
 236:Drivers/lvgl/src/misc/cache/class/lv_cache_sc_da.c ****     lv_cache_sc_da_t * da = (lv_cache_sc_da_t *)cache;
  65              		.loc 1 236 5 view .LVU19
  66 0012 FEE7     		b	.L3
  67              	.LVL4:
  68              	.L8:
 238:Drivers/lvgl/src/misc/cache/class/lv_cache_sc_da.c ****            da->cache.ops.free_cb;
  69              		.loc 1 238 64 is_stmt 0 discriminator 6 view .LVU20
  70 0014 0020     		movs	r0, #0
  71              	.LVL5:
 238:Drivers/lvgl/src/misc/cache/class/lv_cache_sc_da.c ****            da->cache.ops.free_cb;
  72              		.loc 1 238 64 discriminator 6 view .LVU21
  73 0016 7047     		bx	lr
  74              	.LVL6:
  75              	.L5:
 238:Drivers/lvgl/src/misc/cache/class/lv_cache_sc_da.c ****            da->cache.ops.free_cb;
  76              		.loc 1 238 64 discriminator 6 view .LVU22
  77 0018 0020     		movs	r0, #0
  78              	.LVL7:
 238:Drivers/lvgl/src/misc/cache/class/lv_cache_sc_da.c ****            da->cache.ops.free_cb;
  79              		.loc 1 238 64 discriminator 6 view .LVU23
  80 001a 7047     		bx	lr
  81              	.LVL8:
  82              	.L6:
 238:Drivers/lvgl/src/misc/cache/class/lv_cache_sc_da.c ****            da->cache.ops.free_cb;
  83              		.loc 1 238 64 discriminator 6 view .LVU24
  84 001c 0020     		movs	r0, #0
  85              	.LVL9:
 238:Drivers/lvgl/src/misc/cache/class/lv_cache_sc_da.c ****            da->cache.ops.free_cb;
  86              		.loc 1 238 64 discriminator 6 view .LVU25
  87 001e 7047     		bx	lr
  88              		.cfi_endproc
  89              	.LFE20:
  91              		.section	.text.reserve_cond_cb,"ax",%progbits
ARM GAS  /var/folders/qx/2_175_4n2s19vhvtspjhb3qh0000gn/T//cclDKaGf.s 			page 7


  92              		.align	1
  93              		.syntax unified
  94              		.thumb
  95              		.thumb_func
  97              	reserve_cond_cb:
  98              	.LVL10:
  99              	.LFB29:
 241:Drivers/lvgl/src/misc/cache/class/lv_cache_sc_da.c **** 
 242:Drivers/lvgl/src/misc/cache/class/lv_cache_sc_da.c **** static void destroy_cb(lv_cache_t * cache, void * user_data)
 243:Drivers/lvgl/src/misc/cache/class/lv_cache_sc_da.c **** {
 244:Drivers/lvgl/src/misc/cache/class/lv_cache_sc_da.c ****     LV_UNUSED(user_data);
 245:Drivers/lvgl/src/misc/cache/class/lv_cache_sc_da.c **** 
 246:Drivers/lvgl/src/misc/cache/class/lv_cache_sc_da.c ****     lv_cache_sc_da_t * da = (lv_cache_sc_da_t *)cache;
 247:Drivers/lvgl/src/misc/cache/class/lv_cache_sc_da.c **** 
 248:Drivers/lvgl/src/misc/cache/class/lv_cache_sc_da.c ****     LV_ASSERT_NULL(da);
 249:Drivers/lvgl/src/misc/cache/class/lv_cache_sc_da.c **** 
 250:Drivers/lvgl/src/misc/cache/class/lv_cache_sc_da.c ****     if(da == NULL) {
 251:Drivers/lvgl/src/misc/cache/class/lv_cache_sc_da.c ****         return;
 252:Drivers/lvgl/src/misc/cache/class/lv_cache_sc_da.c ****     }
 253:Drivers/lvgl/src/misc/cache/class/lv_cache_sc_da.c **** 
 254:Drivers/lvgl/src/misc/cache/class/lv_cache_sc_da.c ****     cache->clz->drop_all_cb(cache, user_data);
 255:Drivers/lvgl/src/misc/cache/class/lv_cache_sc_da.c ****     cache->size = 0;
 256:Drivers/lvgl/src/misc/cache/class/lv_cache_sc_da.c ****     lv_free(da->data);
 257:Drivers/lvgl/src/misc/cache/class/lv_cache_sc_da.c ****     da->data = NULL;
 258:Drivers/lvgl/src/misc/cache/class/lv_cache_sc_da.c ****     da->capacity = 0;
 259:Drivers/lvgl/src/misc/cache/class/lv_cache_sc_da.c **** }
 260:Drivers/lvgl/src/misc/cache/class/lv_cache_sc_da.c **** 
 261:Drivers/lvgl/src/misc/cache/class/lv_cache_sc_da.c **** static lv_cache_entry_t * get_cb(lv_cache_t * cache, const void * key,
 262:Drivers/lvgl/src/misc/cache/class/lv_cache_sc_da.c ****                                  void * user_data)
 263:Drivers/lvgl/src/misc/cache/class/lv_cache_sc_da.c **** {
 264:Drivers/lvgl/src/misc/cache/class/lv_cache_sc_da.c ****     LV_UNUSED(user_data);
 265:Drivers/lvgl/src/misc/cache/class/lv_cache_sc_da.c **** 
 266:Drivers/lvgl/src/misc/cache/class/lv_cache_sc_da.c ****     lv_cache_sc_da_t * da = (lv_cache_sc_da_t *)cache;
 267:Drivers/lvgl/src/misc/cache/class/lv_cache_sc_da.c **** 
 268:Drivers/lvgl/src/misc/cache/class/lv_cache_sc_da.c ****     LV_ASSERT_NULL(da);
 269:Drivers/lvgl/src/misc/cache/class/lv_cache_sc_da.c ****     LV_ASSERT_NULL(key);
 270:Drivers/lvgl/src/misc/cache/class/lv_cache_sc_da.c **** 
 271:Drivers/lvgl/src/misc/cache/class/lv_cache_sc_da.c ****     if(da == NULL || key == NULL) {
 272:Drivers/lvgl/src/misc/cache/class/lv_cache_sc_da.c ****         return NULL;
 273:Drivers/lvgl/src/misc/cache/class/lv_cache_sc_da.c ****     }
 274:Drivers/lvgl/src/misc/cache/class/lv_cache_sc_da.c **** 
 275:Drivers/lvgl/src/misc/cache/class/lv_cache_sc_da.c ****     /* Linear search */
 276:Drivers/lvgl/src/misc/cache/class/lv_cache_sc_da.c ****     lv_cache_entry_t * cache_entry = NULL;
 277:Drivers/lvgl/src/misc/cache/class/lv_cache_sc_da.c ****     for(size_t i = 0; i < da->cache.size; ++i) {
 278:Drivers/lvgl/src/misc/cache/class/lv_cache_sc_da.c ****         void * curr_da_entry;
 279:Drivers/lvgl/src/misc/cache/class/lv_cache_sc_da.c ****         lv_cache_entry_t * curr_cache_entry;
 280:Drivers/lvgl/src/misc/cache/class/lv_cache_sc_da.c ****         get_entry(da, i, &curr_da_entry, &curr_cache_entry);
 281:Drivers/lvgl/src/misc/cache/class/lv_cache_sc_da.c **** 
 282:Drivers/lvgl/src/misc/cache/class/lv_cache_sc_da.c ****         if(da->cache.ops.compare_cb(curr_da_entry, key) == 0) {
 283:Drivers/lvgl/src/misc/cache/class/lv_cache_sc_da.c ****             cache_entry = curr_cache_entry;
 284:Drivers/lvgl/src/misc/cache/class/lv_cache_sc_da.c ****             /*When an entry is used, we set it's second chance to true again*/
 285:Drivers/lvgl/src/misc/cache/class/lv_cache_sc_da.c ****             set_second_chance(cache_entry, true);
 286:Drivers/lvgl/src/misc/cache/class/lv_cache_sc_da.c ****             break;
 287:Drivers/lvgl/src/misc/cache/class/lv_cache_sc_da.c ****         }
 288:Drivers/lvgl/src/misc/cache/class/lv_cache_sc_da.c ****     }
 289:Drivers/lvgl/src/misc/cache/class/lv_cache_sc_da.c ****     return cache_entry;
 290:Drivers/lvgl/src/misc/cache/class/lv_cache_sc_da.c **** }
ARM GAS  /var/folders/qx/2_175_4n2s19vhvtspjhb3qh0000gn/T//cclDKaGf.s 			page 8


 291:Drivers/lvgl/src/misc/cache/class/lv_cache_sc_da.c **** 
 292:Drivers/lvgl/src/misc/cache/class/lv_cache_sc_da.c **** static lv_cache_entry_t * add_cb(lv_cache_t * cache, const void * key,
 293:Drivers/lvgl/src/misc/cache/class/lv_cache_sc_da.c ****                                  void * user_data)
 294:Drivers/lvgl/src/misc/cache/class/lv_cache_sc_da.c **** {
 295:Drivers/lvgl/src/misc/cache/class/lv_cache_sc_da.c ****     LV_UNUSED(user_data);
 296:Drivers/lvgl/src/misc/cache/class/lv_cache_sc_da.c **** 
 297:Drivers/lvgl/src/misc/cache/class/lv_cache_sc_da.c ****     lv_cache_sc_da_t * da = (lv_cache_sc_da_t *)cache;
 298:Drivers/lvgl/src/misc/cache/class/lv_cache_sc_da.c **** 
 299:Drivers/lvgl/src/misc/cache/class/lv_cache_sc_da.c ****     LV_ASSERT_NULL(da);
 300:Drivers/lvgl/src/misc/cache/class/lv_cache_sc_da.c ****     LV_ASSERT_NULL(key);
 301:Drivers/lvgl/src/misc/cache/class/lv_cache_sc_da.c **** 
 302:Drivers/lvgl/src/misc/cache/class/lv_cache_sc_da.c ****     if(da == NULL || key == NULL) {
 303:Drivers/lvgl/src/misc/cache/class/lv_cache_sc_da.c ****         return NULL;
 304:Drivers/lvgl/src/misc/cache/class/lv_cache_sc_da.c ****     }
 305:Drivers/lvgl/src/misc/cache/class/lv_cache_sc_da.c **** 
 306:Drivers/lvgl/src/misc/cache/class/lv_cache_sc_da.c ****     lv_cache_entry_t * entry = alloc_new_entry(da, key, user_data);
 307:Drivers/lvgl/src/misc/cache/class/lv_cache_sc_da.c ****     if(entry == NULL) {
 308:Drivers/lvgl/src/misc/cache/class/lv_cache_sc_da.c ****         return NULL;
 309:Drivers/lvgl/src/misc/cache/class/lv_cache_sc_da.c ****     }
 310:Drivers/lvgl/src/misc/cache/class/lv_cache_sc_da.c **** 
 311:Drivers/lvgl/src/misc/cache/class/lv_cache_sc_da.c ****     cache->size += 1;
 312:Drivers/lvgl/src/misc/cache/class/lv_cache_sc_da.c **** 
 313:Drivers/lvgl/src/misc/cache/class/lv_cache_sc_da.c ****     return entry;
 314:Drivers/lvgl/src/misc/cache/class/lv_cache_sc_da.c **** }
 315:Drivers/lvgl/src/misc/cache/class/lv_cache_sc_da.c **** 
 316:Drivers/lvgl/src/misc/cache/class/lv_cache_sc_da.c **** static void remove_cb(lv_cache_t * cache, lv_cache_entry_t * entry,
 317:Drivers/lvgl/src/misc/cache/class/lv_cache_sc_da.c ****                       void * user_data)
 318:Drivers/lvgl/src/misc/cache/class/lv_cache_sc_da.c **** {
 319:Drivers/lvgl/src/misc/cache/class/lv_cache_sc_da.c ****     LV_UNUSED(user_data);
 320:Drivers/lvgl/src/misc/cache/class/lv_cache_sc_da.c **** 
 321:Drivers/lvgl/src/misc/cache/class/lv_cache_sc_da.c ****     lv_cache_sc_da_t * da = (lv_cache_sc_da_t *)cache;
 322:Drivers/lvgl/src/misc/cache/class/lv_cache_sc_da.c **** 
 323:Drivers/lvgl/src/misc/cache/class/lv_cache_sc_da.c ****     LV_ASSERT_NULL(da);
 324:Drivers/lvgl/src/misc/cache/class/lv_cache_sc_da.c ****     LV_ASSERT_NULL(entry);
 325:Drivers/lvgl/src/misc/cache/class/lv_cache_sc_da.c **** 
 326:Drivers/lvgl/src/misc/cache/class/lv_cache_sc_da.c ****     if(da == NULL || entry == NULL) {
 327:Drivers/lvgl/src/misc/cache/class/lv_cache_sc_da.c ****         return;
 328:Drivers/lvgl/src/misc/cache/class/lv_cache_sc_da.c ****     }
 329:Drivers/lvgl/src/misc/cache/class/lv_cache_sc_da.c **** 
 330:Drivers/lvgl/src/misc/cache/class/lv_cache_sc_da.c ****     const size_t entry_size = lv_cache_entry_get_size(da->cache.node_size);
 331:Drivers/lvgl/src/misc/cache/class/lv_cache_sc_da.c ****     uint8_t * da_entry_to_remove = (uint8_t *)lv_cache_entry_get_data(entry);
 332:Drivers/lvgl/src/misc/cache/class/lv_cache_sc_da.c **** 
 333:Drivers/lvgl/src/misc/cache/class/lv_cache_sc_da.c ****     void * last_da_entry;
 334:Drivers/lvgl/src/misc/cache/class/lv_cache_sc_da.c ****     lv_cache_entry_t * last_cache_entry;
 335:Drivers/lvgl/src/misc/cache/class/lv_cache_sc_da.c ****     get_entry(da, cache->size - 1, &last_da_entry, &last_cache_entry);
 336:Drivers/lvgl/src/misc/cache/class/lv_cache_sc_da.c **** 
 337:Drivers/lvgl/src/misc/cache/class/lv_cache_sc_da.c ****     if(da_entry_to_remove != last_da_entry) {
 338:Drivers/lvgl/src/misc/cache/class/lv_cache_sc_da.c ****         lv_memcpy(da_entry_to_remove, last_da_entry, entry_size);
 339:Drivers/lvgl/src/misc/cache/class/lv_cache_sc_da.c ****     }
 340:Drivers/lvgl/src/misc/cache/class/lv_cache_sc_da.c ****     cache->size -= 1;
 341:Drivers/lvgl/src/misc/cache/class/lv_cache_sc_da.c **** }
 342:Drivers/lvgl/src/misc/cache/class/lv_cache_sc_da.c **** 
 343:Drivers/lvgl/src/misc/cache/class/lv_cache_sc_da.c **** static void drop_cb(lv_cache_t * cache, const void * key, void * user_data)
 344:Drivers/lvgl/src/misc/cache/class/lv_cache_sc_da.c **** {
 345:Drivers/lvgl/src/misc/cache/class/lv_cache_sc_da.c ****     lv_cache_sc_da_t * da = (lv_cache_sc_da_t *)cache;
 346:Drivers/lvgl/src/misc/cache/class/lv_cache_sc_da.c **** 
 347:Drivers/lvgl/src/misc/cache/class/lv_cache_sc_da.c ****     LV_ASSERT_NULL(da);
ARM GAS  /var/folders/qx/2_175_4n2s19vhvtspjhb3qh0000gn/T//cclDKaGf.s 			page 9


 348:Drivers/lvgl/src/misc/cache/class/lv_cache_sc_da.c ****     LV_ASSERT_NULL(key);
 349:Drivers/lvgl/src/misc/cache/class/lv_cache_sc_da.c **** 
 350:Drivers/lvgl/src/misc/cache/class/lv_cache_sc_da.c ****     if(da == NULL || key == NULL) {
 351:Drivers/lvgl/src/misc/cache/class/lv_cache_sc_da.c ****         return;
 352:Drivers/lvgl/src/misc/cache/class/lv_cache_sc_da.c ****     }
 353:Drivers/lvgl/src/misc/cache/class/lv_cache_sc_da.c ****     lv_cache_entry_t * entry = cache->clz->get_cb(cache, key, user_data);
 354:Drivers/lvgl/src/misc/cache/class/lv_cache_sc_da.c ****     if(!entry) {
 355:Drivers/lvgl/src/misc/cache/class/lv_cache_sc_da.c ****         return;
 356:Drivers/lvgl/src/misc/cache/class/lv_cache_sc_da.c ****     }
 357:Drivers/lvgl/src/misc/cache/class/lv_cache_sc_da.c **** 
 358:Drivers/lvgl/src/misc/cache/class/lv_cache_sc_da.c ****     const size_t entry_size = lv_cache_entry_get_size(da->cache.node_size);
 359:Drivers/lvgl/src/misc/cache/class/lv_cache_sc_da.c ****     uint8_t * da_entry_to_remove = (uint8_t *)lv_cache_entry_get_data(entry);
 360:Drivers/lvgl/src/misc/cache/class/lv_cache_sc_da.c **** 
 361:Drivers/lvgl/src/misc/cache/class/lv_cache_sc_da.c ****     void * last_da_entry;
 362:Drivers/lvgl/src/misc/cache/class/lv_cache_sc_da.c ****     lv_cache_entry_t * last_cache_entry;
 363:Drivers/lvgl/src/misc/cache/class/lv_cache_sc_da.c ****     get_entry(da, cache->size - 1, &last_da_entry, &last_cache_entry);
 364:Drivers/lvgl/src/misc/cache/class/lv_cache_sc_da.c **** 
 365:Drivers/lvgl/src/misc/cache/class/lv_cache_sc_da.c ****     if(da_entry_to_remove != last_da_entry) {
 366:Drivers/lvgl/src/misc/cache/class/lv_cache_sc_da.c ****         lv_memcpy(da_entry_to_remove, last_da_entry, entry_size);
 367:Drivers/lvgl/src/misc/cache/class/lv_cache_sc_da.c ****     }
 368:Drivers/lvgl/src/misc/cache/class/lv_cache_sc_da.c ****     cache->ops.free_cb(da_entry_to_remove, user_data);
 369:Drivers/lvgl/src/misc/cache/class/lv_cache_sc_da.c ****     cache->size -= 1;
 370:Drivers/lvgl/src/misc/cache/class/lv_cache_sc_da.c **** }
 371:Drivers/lvgl/src/misc/cache/class/lv_cache_sc_da.c **** 
 372:Drivers/lvgl/src/misc/cache/class/lv_cache_sc_da.c **** static void drop_all_cb(lv_cache_t * cache, void * user_data)
 373:Drivers/lvgl/src/misc/cache/class/lv_cache_sc_da.c **** {
 374:Drivers/lvgl/src/misc/cache/class/lv_cache_sc_da.c ****     lv_cache_sc_da_t * da = (lv_cache_sc_da_t *)cache;
 375:Drivers/lvgl/src/misc/cache/class/lv_cache_sc_da.c **** 
 376:Drivers/lvgl/src/misc/cache/class/lv_cache_sc_da.c ****     LV_ASSERT_NULL(da);
 377:Drivers/lvgl/src/misc/cache/class/lv_cache_sc_da.c **** 
 378:Drivers/lvgl/src/misc/cache/class/lv_cache_sc_da.c ****     if(da == NULL) {
 379:Drivers/lvgl/src/misc/cache/class/lv_cache_sc_da.c ****         return;
 380:Drivers/lvgl/src/misc/cache/class/lv_cache_sc_da.c ****     }
 381:Drivers/lvgl/src/misc/cache/class/lv_cache_sc_da.c ****     uint32_t used_cnt = 0;
 382:Drivers/lvgl/src/misc/cache/class/lv_cache_sc_da.c ****     for(size_t i = 0; i < cache->size; ++i) {
 383:Drivers/lvgl/src/misc/cache/class/lv_cache_sc_da.c ****         void * da_entry;
 384:Drivers/lvgl/src/misc/cache/class/lv_cache_sc_da.c ****         lv_cache_entry_t * cache_entry;
 385:Drivers/lvgl/src/misc/cache/class/lv_cache_sc_da.c ****         get_entry(da, i, &da_entry, &cache_entry);
 386:Drivers/lvgl/src/misc/cache/class/lv_cache_sc_da.c ****         const int32_t refs = lv_cache_entry_get_ref(cache_entry);
 387:Drivers/lvgl/src/misc/cache/class/lv_cache_sc_da.c **** 
 388:Drivers/lvgl/src/misc/cache/class/lv_cache_sc_da.c ****         if(refs > 0) {
 389:Drivers/lvgl/src/misc/cache/class/lv_cache_sc_da.c ****             LV_LOG_WARN(
 390:Drivers/lvgl/src/misc/cache/class/lv_cache_sc_da.c ****                 "entry (%zu) is still referenced (%" LV_PRId32
 391:Drivers/lvgl/src/misc/cache/class/lv_cache_sc_da.c ****                 ")",
 392:Drivers/lvgl/src/misc/cache/class/lv_cache_sc_da.c ****                 i, refs);
 393:Drivers/lvgl/src/misc/cache/class/lv_cache_sc_da.c ****             used_cnt++;
 394:Drivers/lvgl/src/misc/cache/class/lv_cache_sc_da.c ****             continue;
 395:Drivers/lvgl/src/misc/cache/class/lv_cache_sc_da.c ****         }
 396:Drivers/lvgl/src/misc/cache/class/lv_cache_sc_da.c ****         da->cache.ops.free_cb(da_entry, user_data);
 397:Drivers/lvgl/src/misc/cache/class/lv_cache_sc_da.c ****     }
 398:Drivers/lvgl/src/misc/cache/class/lv_cache_sc_da.c ****     if(used_cnt > 0) {
 399:Drivers/lvgl/src/misc/cache/class/lv_cache_sc_da.c ****         LV_LOG_WARN("%" LV_PRId32 " entries are still referenced",
 400:Drivers/lvgl/src/misc/cache/class/lv_cache_sc_da.c ****                     used_cnt);
 401:Drivers/lvgl/src/misc/cache/class/lv_cache_sc_da.c ****     }
 402:Drivers/lvgl/src/misc/cache/class/lv_cache_sc_da.c **** 
 403:Drivers/lvgl/src/misc/cache/class/lv_cache_sc_da.c ****     cache->size = 0;
 404:Drivers/lvgl/src/misc/cache/class/lv_cache_sc_da.c **** }
ARM GAS  /var/folders/qx/2_175_4n2s19vhvtspjhb3qh0000gn/T//cclDKaGf.s 			page 10


 405:Drivers/lvgl/src/misc/cache/class/lv_cache_sc_da.c **** 
 406:Drivers/lvgl/src/misc/cache/class/lv_cache_sc_da.c **** static lv_cache_entry_t * get_possible_victim(lv_cache_sc_da_t * da, size_t index)
 407:Drivers/lvgl/src/misc/cache/class/lv_cache_sc_da.c **** {
 408:Drivers/lvgl/src/misc/cache/class/lv_cache_sc_da.c ****     LV_ASSERT(index < da->cache.size);
 409:Drivers/lvgl/src/misc/cache/class/lv_cache_sc_da.c **** 
 410:Drivers/lvgl/src/misc/cache/class/lv_cache_sc_da.c ****     void * da_entry;
 411:Drivers/lvgl/src/misc/cache/class/lv_cache_sc_da.c ****     lv_cache_entry_t * cache_entry;
 412:Drivers/lvgl/src/misc/cache/class/lv_cache_sc_da.c ****     get_entry(da, index, &da_entry, &cache_entry);
 413:Drivers/lvgl/src/misc/cache/class/lv_cache_sc_da.c **** 
 414:Drivers/lvgl/src/misc/cache/class/lv_cache_sc_da.c ****     const uint8_t sec_chance = has_second_chance(cache_entry);
 415:Drivers/lvgl/src/misc/cache/class/lv_cache_sc_da.c ****     const int32_t refs = lv_cache_entry_get_ref(cache_entry);
 416:Drivers/lvgl/src/misc/cache/class/lv_cache_sc_da.c **** 
 417:Drivers/lvgl/src/misc/cache/class/lv_cache_sc_da.c ****     if(sec_chance == 0 && refs == 0) {
 418:Drivers/lvgl/src/misc/cache/class/lv_cache_sc_da.c ****         return cache_entry;
 419:Drivers/lvgl/src/misc/cache/class/lv_cache_sc_da.c ****     }
 420:Drivers/lvgl/src/misc/cache/class/lv_cache_sc_da.c ****     if(sec_chance == 0 && refs > 0) {
 421:Drivers/lvgl/src/misc/cache/class/lv_cache_sc_da.c ****         LV_LOG_INFO(
 422:Drivers/lvgl/src/misc/cache/class/lv_cache_sc_da.c ****             "Entry %zu should be evicted but it's still referenced %" LV_PRId32
 423:Drivers/lvgl/src/misc/cache/class/lv_cache_sc_da.c ****             " times\n",
 424:Drivers/lvgl/src/misc/cache/class/lv_cache_sc_da.c ****             index, refs);
 425:Drivers/lvgl/src/misc/cache/class/lv_cache_sc_da.c ****         return NULL;
 426:Drivers/lvgl/src/misc/cache/class/lv_cache_sc_da.c ****     }
 427:Drivers/lvgl/src/misc/cache/class/lv_cache_sc_da.c **** 
 428:Drivers/lvgl/src/misc/cache/class/lv_cache_sc_da.c ****     /*Remove its second chance*/
 429:Drivers/lvgl/src/misc/cache/class/lv_cache_sc_da.c ****     set_second_chance(cache_entry, false);
 430:Drivers/lvgl/src/misc/cache/class/lv_cache_sc_da.c ****     return NULL;
 431:Drivers/lvgl/src/misc/cache/class/lv_cache_sc_da.c **** }
 432:Drivers/lvgl/src/misc/cache/class/lv_cache_sc_da.c **** 
 433:Drivers/lvgl/src/misc/cache/class/lv_cache_sc_da.c **** static lv_cache_entry_t * get_victim_cb(lv_cache_t * cache, void * user_data)
 434:Drivers/lvgl/src/misc/cache/class/lv_cache_sc_da.c **** {
 435:Drivers/lvgl/src/misc/cache/class/lv_cache_sc_da.c ****     LV_UNUSED(user_data);
 436:Drivers/lvgl/src/misc/cache/class/lv_cache_sc_da.c **** 
 437:Drivers/lvgl/src/misc/cache/class/lv_cache_sc_da.c ****     lv_cache_sc_da_t * da = (lv_cache_sc_da_t *)cache;
 438:Drivers/lvgl/src/misc/cache/class/lv_cache_sc_da.c **** 
 439:Drivers/lvgl/src/misc/cache/class/lv_cache_sc_da.c ****     LV_ASSERT_NULL(da);
 440:Drivers/lvgl/src/misc/cache/class/lv_cache_sc_da.c ****     /*
 441:Drivers/lvgl/src/misc/cache/class/lv_cache_sc_da.c ****          * We iterate twice to handle the complexity introduced by reference counting
 442:Drivers/lvgl/src/misc/cache/class/lv_cache_sc_da.c ****          * in the second chance algorithm:
 443:Drivers/lvgl/src/misc/cache/class/lv_cache_sc_da.c ****          *
 444:Drivers/lvgl/src/misc/cache/class/lv_cache_sc_da.c ****          * First iteration: Clear second chance bits and look for victims (entries with
 445:Drivers/lvgl/src/misc/cache/class/lv_cache_sc_da.c ****          * sec_chance=0 AND refs=0). Some entries may have sec_chance=0 but refs>0,
 446:Drivers/lvgl/src/misc/cache/class/lv_cache_sc_da.c ****          * making them unavailable for eviction despite being marked for removal.
 447:Drivers/lvgl/src/misc/cache/class/lv_cache_sc_da.c ****          *
 448:Drivers/lvgl/src/misc/cache/class/lv_cache_sc_da.c ****          * Second iteration: Now that all second chance bits are cleared from the first
 449:Drivers/lvgl/src/misc/cache/class/lv_cache_sc_da.c ****          * pass, we can find entries that are truly available for eviction (refs=0).
 450:Drivers/lvgl/src/misc/cache/class/lv_cache_sc_da.c ****          * We can't assume the first entry will be the victim after the first round
 451:Drivers/lvgl/src/misc/cache/class/lv_cache_sc_da.c ****          * because reference counts may prevent eviction of otherwise eligible entries.
 452:Drivers/lvgl/src/misc/cache/class/lv_cache_sc_da.c ****          *
 453:Drivers/lvgl/src/misc/cache/class/lv_cache_sc_da.c ****          * This ensures we give all entries a proper second chance while respecting
 454:Drivers/lvgl/src/misc/cache/class/lv_cache_sc_da.c ****          * active references that prevent immediate eviction.
 455:Drivers/lvgl/src/misc/cache/class/lv_cache_sc_da.c ****          */
 456:Drivers/lvgl/src/misc/cache/class/lv_cache_sc_da.c ****     for(size_t i = 0; i < 2; ++i) {
 457:Drivers/lvgl/src/misc/cache/class/lv_cache_sc_da.c ****         for(size_t j = 0; j < da->cache.size; ++j) {
 458:Drivers/lvgl/src/misc/cache/class/lv_cache_sc_da.c ****             lv_cache_entry_t * victim = get_possible_victim(da, j);
 459:Drivers/lvgl/src/misc/cache/class/lv_cache_sc_da.c ****             if(victim) {
 460:Drivers/lvgl/src/misc/cache/class/lv_cache_sc_da.c ****                 return victim;
 461:Drivers/lvgl/src/misc/cache/class/lv_cache_sc_da.c ****             }
ARM GAS  /var/folders/qx/2_175_4n2s19vhvtspjhb3qh0000gn/T//cclDKaGf.s 			page 11


 462:Drivers/lvgl/src/misc/cache/class/lv_cache_sc_da.c ****         }
 463:Drivers/lvgl/src/misc/cache/class/lv_cache_sc_da.c ****     }
 464:Drivers/lvgl/src/misc/cache/class/lv_cache_sc_da.c ****     return NULL;
 465:Drivers/lvgl/src/misc/cache/class/lv_cache_sc_da.c **** }
 466:Drivers/lvgl/src/misc/cache/class/lv_cache_sc_da.c **** 
 467:Drivers/lvgl/src/misc/cache/class/lv_cache_sc_da.c **** static lv_cache_reserve_cond_res_t reserve_cond_cb(lv_cache_t * cache,
 468:Drivers/lvgl/src/misc/cache/class/lv_cache_sc_da.c ****                                                    const void * key,
 469:Drivers/lvgl/src/misc/cache/class/lv_cache_sc_da.c ****                                                    size_t reserved_size,
 470:Drivers/lvgl/src/misc/cache/class/lv_cache_sc_da.c ****                                                    void * user_data)
 471:Drivers/lvgl/src/misc/cache/class/lv_cache_sc_da.c **** {
 100              		.loc 1 471 1 is_stmt 1 view -0
 101              		.cfi_startproc
 102              		@ args = 0, pretend = 0, frame = 0
 103              		@ frame_needed = 0, uses_anonymous_args = 0
 104              		@ link register save eliminated.
 472:Drivers/lvgl/src/misc/cache/class/lv_cache_sc_da.c ****     LV_UNUSED(user_data);
 105              		.loc 1 472 5 view .LVU27
 473:Drivers/lvgl/src/misc/cache/class/lv_cache_sc_da.c ****     LV_UNUSED(key);
 106              		.loc 1 473 5 view .LVU28
 474:Drivers/lvgl/src/misc/cache/class/lv_cache_sc_da.c **** 
 475:Drivers/lvgl/src/misc/cache/class/lv_cache_sc_da.c ****     lv_cache_sc_da_t * da = (lv_cache_sc_da_t *)cache;
 107              		.loc 1 475 5 view .LVU29
 476:Drivers/lvgl/src/misc/cache/class/lv_cache_sc_da.c **** 
 477:Drivers/lvgl/src/misc/cache/class/lv_cache_sc_da.c ****     LV_ASSERT_NULL(da);
 108              		.loc 1 477 5 view .LVU30
 109              		.loc 1 477 5 view .LVU31
 110 0000 38B1     		cbz	r0, .L11
 111              		.loc 1 477 5 view .LVU32
 112              		.loc 1 477 23 view .LVU33
 478:Drivers/lvgl/src/misc/cache/class/lv_cache_sc_da.c **** 
 479:Drivers/lvgl/src/misc/cache/class/lv_cache_sc_da.c ****     if(da == NULL) {
 113              		.loc 1 479 5 view .LVU34
 480:Drivers/lvgl/src/misc/cache/class/lv_cache_sc_da.c ****         return LV_CACHE_RESERVE_COND_ERROR;
 481:Drivers/lvgl/src/misc/cache/class/lv_cache_sc_da.c ****     }
 482:Drivers/lvgl/src/misc/cache/class/lv_cache_sc_da.c **** 
 483:Drivers/lvgl/src/misc/cache/class/lv_cache_sc_da.c ****     return cache->size + reserved_size + 1 > da->cache.max_size ?
 114              		.loc 1 483 5 view .LVU35
 115              		.loc 1 483 17 is_stmt 0 view .LVU36
 116 0002 C368     		ldr	r3, [r0, #12]
 117              	.LVL11:
 118              		.loc 1 483 24 view .LVU37
 119 0004 1344     		add	r3, r3, r2
 120              		.loc 1 483 40 view .LVU38
 121 0006 0133     		adds	r3, r3, #1
 122              		.loc 1 483 55 view .LVU39
 123 0008 8268     		ldr	r2, [r0, #8]
 124              	.LVL12:
 484:Drivers/lvgl/src/misc/cache/class/lv_cache_sc_da.c ****            LV_CACHE_RESERVE_COND_NEED_VICTIM :
 125              		.loc 1 484 46 view .LVU40
 126 000a 9342     		cmp	r3, r2
 127 000c 02D8     		bhi	.L14
 128              		.loc 1 484 46 discriminator 2 view .LVU41
 129 000e 0020     		movs	r0, #0
 130              	.LVL13:
 485:Drivers/lvgl/src/misc/cache/class/lv_cache_sc_da.c ****            LV_CACHE_RESERVE_COND_OK;
 486:Drivers/lvgl/src/misc/cache/class/lv_cache_sc_da.c **** }
 131              		.loc 1 486 1 view .LVU42
ARM GAS  /var/folders/qx/2_175_4n2s19vhvtspjhb3qh0000gn/T//cclDKaGf.s 			page 12


 132 0010 7047     		bx	lr
 133              	.LVL14:
 134              	.L11:
 477:Drivers/lvgl/src/misc/cache/class/lv_cache_sc_da.c **** 
 135              		.loc 1 477 5 is_stmt 1 view .LVU43
 477:Drivers/lvgl/src/misc/cache/class/lv_cache_sc_da.c **** 
 136              		.loc 1 477 5 view .LVU44
 477:Drivers/lvgl/src/misc/cache/class/lv_cache_sc_da.c **** 
 137              		.loc 1 477 5 view .LVU45
 477:Drivers/lvgl/src/misc/cache/class/lv_cache_sc_da.c **** 
 138              		.loc 1 477 5 view .LVU46
 477:Drivers/lvgl/src/misc/cache/class/lv_cache_sc_da.c **** 
 139              		.loc 1 477 5 view .LVU47
 140 0012 FEE7     		b	.L11
 141              	.LVL15:
 142              	.L14:
 484:Drivers/lvgl/src/misc/cache/class/lv_cache_sc_da.c ****            LV_CACHE_RESERVE_COND_NEED_VICTIM :
 143              		.loc 1 484 46 is_stmt 0 discriminator 1 view .LVU48
 144 0014 0220     		movs	r0, #2
 145              	.LVL16:
 484:Drivers/lvgl/src/misc/cache/class/lv_cache_sc_da.c ****            LV_CACHE_RESERVE_COND_NEED_VICTIM :
 146              		.loc 1 484 46 discriminator 1 view .LVU49
 147 0016 7047     		bx	lr
 148              		.cfi_endproc
 149              	.LFE29:
 151              		.section	.text.cache_iter_create_cb,"ax",%progbits
 152              		.align	1
 153              		.syntax unified
 154              		.thumb
 155              		.thumb_func
 157              	cache_iter_create_cb:
 158              	.LVL17:
 159              	.LFB30:
 487:Drivers/lvgl/src/misc/cache/class/lv_cache_sc_da.c **** 
 488:Drivers/lvgl/src/misc/cache/class/lv_cache_sc_da.c **** static lv_iter_t * cache_iter_create_cb(lv_cache_t * cache)
 489:Drivers/lvgl/src/misc/cache/class/lv_cache_sc_da.c **** {
 160              		.loc 1 489 1 is_stmt 1 view -0
 161              		.cfi_startproc
 162              		@ args = 0, pretend = 0, frame = 0
 163              		@ frame_needed = 0, uses_anonymous_args = 0
 164              		.loc 1 489 1 is_stmt 0 view .LVU51
 165 0000 10B5     		push	{r4, lr}
 166              	.LCFI0:
 167              		.cfi_def_cfa_offset 8
 168              		.cfi_offset 4, -8
 169              		.cfi_offset 14, -4
 170 0002 0446     		mov	r4, r0
 490:Drivers/lvgl/src/misc/cache/class/lv_cache_sc_da.c ****     return lv_iter_create(cache, lv_cache_entry_get_size(cache->node_size),
 171              		.loc 1 490 5 is_stmt 1 view .LVU52
 172              		.loc 1 490 12 is_stmt 0 view .LVU53
 173 0004 4068     		ldr	r0, [r0, #4]
 174              	.LVL18:
 175              		.loc 1 490 12 view .LVU54
 176 0006 FFF7FEFF 		bl	lv_cache_entry_get_size
 177              	.LVL19:
 178 000a 0146     		mov	r1, r0
 179              		.loc 1 490 12 discriminator 1 view .LVU55
ARM GAS  /var/folders/qx/2_175_4n2s19vhvtspjhb3qh0000gn/T//cclDKaGf.s 			page 13


 180 000c 024B     		ldr	r3, .L17
 181 000e 0022     		movs	r2, #0
 182 0010 2046     		mov	r0, r4
 183 0012 FFF7FEFF 		bl	lv_iter_create
 184              	.LVL20:
 491:Drivers/lvgl/src/misc/cache/class/lv_cache_sc_da.c ****                           0, cache_iter_next_cb);
 492:Drivers/lvgl/src/misc/cache/class/lv_cache_sc_da.c **** }
 185              		.loc 1 492 1 view .LVU56
 186 0016 10BD     		pop	{r4, pc}
 187              	.LVL21:
 188              	.L18:
 189              		.loc 1 492 1 view .LVU57
 190              		.align	2
 191              	.L17:
 192 0018 00000000 		.word	cache_iter_next_cb
 193              		.cfi_endproc
 194              	.LFE30:
 196              		.section	.text.cache_iter_next_cb,"ax",%progbits
 197              		.align	1
 198              		.syntax unified
 199              		.thumb
 200              		.thumb_func
 202              	cache_iter_next_cb:
 203              	.LVL22:
 204              	.LFB31:
 493:Drivers/lvgl/src/misc/cache/class/lv_cache_sc_da.c **** 
 494:Drivers/lvgl/src/misc/cache/class/lv_cache_sc_da.c **** static lv_result_t cache_iter_next_cb(void * instance, void * context, void * elem)
 495:Drivers/lvgl/src/misc/cache/class/lv_cache_sc_da.c **** {
 205              		.loc 1 495 1 is_stmt 1 view -0
 206              		.cfi_startproc
 207              		@ args = 0, pretend = 0, frame = 0
 208              		@ frame_needed = 0, uses_anonymous_args = 0
 496:Drivers/lvgl/src/misc/cache/class/lv_cache_sc_da.c ****     lv_cache_sc_da_t * da = (lv_cache_sc_da_t *)instance;
 209              		.loc 1 496 5 view .LVU59
 497:Drivers/lvgl/src/misc/cache/class/lv_cache_sc_da.c ****     uint8_t ** da_entry = context;
 210              		.loc 1 497 5 view .LVU60
 498:Drivers/lvgl/src/misc/cache/class/lv_cache_sc_da.c ****     LV_ASSERT_NULL(da_entry);
 211              		.loc 1 498 5 view .LVU61
 212              		.loc 1 498 5 view .LVU62
 213 0000 99B1     		cbz	r1, .L21
 495:Drivers/lvgl/src/misc/cache/class/lv_cache_sc_da.c ****     lv_cache_sc_da_t * da = (lv_cache_sc_da_t *)instance;
 214              		.loc 1 495 1 is_stmt 0 view .LVU63
 215 0002 70B5     		push	{r4, r5, r6, lr}
 216              	.LCFI1:
 217              		.cfi_def_cfa_offset 16
 218              		.cfi_offset 4, -16
 219              		.cfi_offset 5, -12
 220              		.cfi_offset 6, -8
 221              		.cfi_offset 14, -4
 222 0004 0446     		mov	r4, r0
 223 0006 1546     		mov	r5, r2
 224 0008 0E46     		mov	r6, r1
 225              		.loc 1 498 5 is_stmt 1 view .LVU64
 226              		.loc 1 498 29 view .LVU65
 499:Drivers/lvgl/src/misc/cache/class/lv_cache_sc_da.c ****     const size_t entry_size = lv_cache_entry_get_size(da->cache.node_size);
 227              		.loc 1 499 5 view .LVU66
 228              		.loc 1 499 31 is_stmt 0 view .LVU67
ARM GAS  /var/folders/qx/2_175_4n2s19vhvtspjhb3qh0000gn/T//cclDKaGf.s 			page 14


 229 000a 4068     		ldr	r0, [r0, #4]
 230              	.LVL23:
 231              		.loc 1 499 31 view .LVU68
 232 000c FFF7FEFF 		bl	lv_cache_entry_get_size
 233              	.LVL24:
 234              		.loc 1 499 31 view .LVU69
 235 0010 0246     		mov	r2, r0
 236              	.LVL25:
 500:Drivers/lvgl/src/misc/cache/class/lv_cache_sc_da.c **** 
 501:Drivers/lvgl/src/misc/cache/class/lv_cache_sc_da.c ****     if(*da_entry == NULL) {
 237              		.loc 1 501 5 is_stmt 1 view .LVU70
 238              		.loc 1 501 8 is_stmt 0 view .LVU71
 239 0012 3368     		ldr	r3, [r6]
 240              		.loc 1 501 7 view .LVU72
 241 0014 53B1     		cbz	r3, .L28
 502:Drivers/lvgl/src/misc/cache/class/lv_cache_sc_da.c ****         *da_entry = da->data;
 503:Drivers/lvgl/src/misc/cache/class/lv_cache_sc_da.c ****     }
 504:Drivers/lvgl/src/misc/cache/class/lv_cache_sc_da.c ****     else {
 505:Drivers/lvgl/src/misc/cache/class/lv_cache_sc_da.c ****         *da_entry += entry_size;
 242              		.loc 1 505 9 is_stmt 1 view .LVU73
 243              		.loc 1 505 19 is_stmt 0 view .LVU74
 244 0016 0344     		add	r3, r3, r0
 245 0018 3360     		str	r3, [r6]
 246              	.L23:
 506:Drivers/lvgl/src/misc/cache/class/lv_cache_sc_da.c ****     }
 507:Drivers/lvgl/src/misc/cache/class/lv_cache_sc_da.c **** 
 508:Drivers/lvgl/src/misc/cache/class/lv_cache_sc_da.c ****     if(*da_entry == NULL) {
 247              		.loc 1 508 5 is_stmt 1 view .LVU75
 248              		.loc 1 508 8 is_stmt 0 view .LVU76
 249 001a 3368     		ldr	r3, [r6]
 250              		.loc 1 508 7 view .LVU77
 251 001c 4BB1     		cbz	r3, .L25
 509:Drivers/lvgl/src/misc/cache/class/lv_cache_sc_da.c ****         return LV_RESULT_INVALID;
 510:Drivers/lvgl/src/misc/cache/class/lv_cache_sc_da.c ****     }
 511:Drivers/lvgl/src/misc/cache/class/lv_cache_sc_da.c **** 
 512:Drivers/lvgl/src/misc/cache/class/lv_cache_sc_da.c ****     lv_memcpy(elem, da_entry, entry_size);
 252              		.loc 1 512 5 is_stmt 1 view .LVU78
 253 001e 3146     		mov	r1, r6
 254 0020 2846     		mov	r0, r5
 255              	.LVL26:
 256              		.loc 1 512 5 is_stmt 0 view .LVU79
 257 0022 FFF7FEFF 		bl	lv_memcpy
 258              	.LVL27:
 513:Drivers/lvgl/src/misc/cache/class/lv_cache_sc_da.c **** 
 514:Drivers/lvgl/src/misc/cache/class/lv_cache_sc_da.c ****     return LV_RESULT_OK;
 259              		.loc 1 514 5 is_stmt 1 view .LVU80
 260              		.loc 1 514 12 is_stmt 0 view .LVU81
 261 0026 0120     		movs	r0, #1
 262              	.L24:
 515:Drivers/lvgl/src/misc/cache/class/lv_cache_sc_da.c **** }
 263              		.loc 1 515 1 view .LVU82
 264 0028 70BD     		pop	{r4, r5, r6, pc}
 265              	.LVL28:
 266              	.L21:
 267              	.LCFI2:
 268              		.cfi_def_cfa_offset 0
 269              		.cfi_restore 4
ARM GAS  /var/folders/qx/2_175_4n2s19vhvtspjhb3qh0000gn/T//cclDKaGf.s 			page 15


 270              		.cfi_restore 5
 271              		.cfi_restore 6
 272              		.cfi_restore 14
 498:Drivers/lvgl/src/misc/cache/class/lv_cache_sc_da.c ****     const size_t entry_size = lv_cache_entry_get_size(da->cache.node_size);
 273              		.loc 1 498 5 is_stmt 1 view .LVU83
 498:Drivers/lvgl/src/misc/cache/class/lv_cache_sc_da.c ****     const size_t entry_size = lv_cache_entry_get_size(da->cache.node_size);
 274              		.loc 1 498 5 view .LVU84
 498:Drivers/lvgl/src/misc/cache/class/lv_cache_sc_da.c ****     const size_t entry_size = lv_cache_entry_get_size(da->cache.node_size);
 275              		.loc 1 498 5 view .LVU85
 498:Drivers/lvgl/src/misc/cache/class/lv_cache_sc_da.c ****     const size_t entry_size = lv_cache_entry_get_size(da->cache.node_size);
 276              		.loc 1 498 5 view .LVU86
 498:Drivers/lvgl/src/misc/cache/class/lv_cache_sc_da.c ****     const size_t entry_size = lv_cache_entry_get_size(da->cache.node_size);
 277              		.loc 1 498 5 view .LVU87
 278 002a FEE7     		b	.L21
 279              	.LVL29:
 280              	.L28:
 281              	.LCFI3:
 282              		.cfi_def_cfa_offset 16
 283              		.cfi_offset 4, -16
 284              		.cfi_offset 5, -12
 285              		.cfi_offset 6, -8
 286              		.cfi_offset 14, -4
 502:Drivers/lvgl/src/misc/cache/class/lv_cache_sc_da.c ****     }
 287              		.loc 1 502 9 view .LVU88
 502:Drivers/lvgl/src/misc/cache/class/lv_cache_sc_da.c ****     }
 288              		.loc 1 502 23 is_stmt 0 view .LVU89
 289 002c 636A     		ldr	r3, [r4, #36]
 502:Drivers/lvgl/src/misc/cache/class/lv_cache_sc_da.c ****     }
 290              		.loc 1 502 19 view .LVU90
 291 002e 3360     		str	r3, [r6]
 292 0030 F3E7     		b	.L23
 293              	.L25:
 509:Drivers/lvgl/src/misc/cache/class/lv_cache_sc_da.c ****     }
 294              		.loc 1 509 16 view .LVU91
 295 0032 0020     		movs	r0, #0
 296              	.LVL30:
 509:Drivers/lvgl/src/misc/cache/class/lv_cache_sc_da.c ****     }
 297              		.loc 1 509 16 view .LVU92
 298 0034 F8E7     		b	.L24
 299              		.cfi_endproc
 300              	.LFE31:
 302              		.section	.text.get_entry,"ax",%progbits
 303              		.align	1
 304              		.syntax unified
 305              		.thumb
 306              		.thumb_func
 308              	get_entry:
 309              	.LVL31:
 310              	.LFB15:
 159:Drivers/lvgl/src/misc/cache/class/lv_cache_sc_da.c ****     const size_t node_size = lv_cache_entry_get_size(da->cache.node_size);
 311              		.loc 1 159 1 is_stmt 1 view -0
 312              		.cfi_startproc
 313              		@ args = 0, pretend = 0, frame = 0
 314              		@ frame_needed = 0, uses_anonymous_args = 0
 159:Drivers/lvgl/src/misc/cache/class/lv_cache_sc_da.c ****     const size_t node_size = lv_cache_entry_get_size(da->cache.node_size);
 315              		.loc 1 159 1 is_stmt 0 view .LVU94
 316 0000 F8B5     		push	{r3, r4, r5, r6, r7, lr}
ARM GAS  /var/folders/qx/2_175_4n2s19vhvtspjhb3qh0000gn/T//cclDKaGf.s 			page 16


 317              	.LCFI4:
 318              		.cfi_def_cfa_offset 24
 319              		.cfi_offset 3, -24
 320              		.cfi_offset 4, -20
 321              		.cfi_offset 5, -16
 322              		.cfi_offset 6, -12
 323              		.cfi_offset 7, -8
 324              		.cfi_offset 14, -4
 325 0002 0446     		mov	r4, r0
 326 0004 0F46     		mov	r7, r1
 327 0006 1646     		mov	r6, r2
 328 0008 1D46     		mov	r5, r3
 160:Drivers/lvgl/src/misc/cache/class/lv_cache_sc_da.c ****     *cache_data = da->data + (index * node_size);
 329              		.loc 1 160 5 is_stmt 1 view .LVU95
 160:Drivers/lvgl/src/misc/cache/class/lv_cache_sc_da.c ****     *cache_data = da->data + (index * node_size);
 330              		.loc 1 160 30 is_stmt 0 view .LVU96
 331 000a 4068     		ldr	r0, [r0, #4]
 332              	.LVL32:
 160:Drivers/lvgl/src/misc/cache/class/lv_cache_sc_da.c ****     *cache_data = da->data + (index * node_size);
 333              		.loc 1 160 30 view .LVU97
 334 000c FFF7FEFF 		bl	lv_cache_entry_get_size
 335              	.LVL33:
 161:Drivers/lvgl/src/misc/cache/class/lv_cache_sc_da.c ****     *cache_entry =
 336              		.loc 1 161 5 is_stmt 1 view .LVU98
 161:Drivers/lvgl/src/misc/cache/class/lv_cache_sc_da.c ****     *cache_entry =
 337              		.loc 1 161 28 is_stmt 0 view .LVU99
 338 0010 636A     		ldr	r3, [r4, #36]
 339 0012 07FB0030 		mla	r0, r7, r0, r3
 340              	.LVL34:
 161:Drivers/lvgl/src/misc/cache/class/lv_cache_sc_da.c ****     *cache_entry =
 341              		.loc 1 161 17 view .LVU100
 342 0016 3060     		str	r0, [r6]
 162:Drivers/lvgl/src/misc/cache/class/lv_cache_sc_da.c ****         lv_cache_entry_get_entry(*cache_data, da->cache.node_size);
 343              		.loc 1 162 5 is_stmt 1 view .LVU101
 163:Drivers/lvgl/src/misc/cache/class/lv_cache_sc_da.c **** }
 344              		.loc 1 163 9 is_stmt 0 view .LVU102
 345 0018 6168     		ldr	r1, [r4, #4]
 346 001a FFF7FEFF 		bl	lv_cache_entry_get_entry
 347              	.LVL35:
 162:Drivers/lvgl/src/misc/cache/class/lv_cache_sc_da.c ****         lv_cache_entry_get_entry(*cache_data, da->cache.node_size);
 348              		.loc 1 162 18 view .LVU103
 349 001e 2860     		str	r0, [r5]
 164:Drivers/lvgl/src/misc/cache/class/lv_cache_sc_da.c **** static inline void set_second_chance(lv_cache_entry_t * entry, bool value)
 350              		.loc 1 164 1 view .LVU104
 351 0020 F8BD     		pop	{r3, r4, r5, r6, r7, pc}
 164:Drivers/lvgl/src/misc/cache/class/lv_cache_sc_da.c **** static inline void set_second_chance(lv_cache_entry_t * entry, bool value)
 352              		.loc 1 164 1 view .LVU105
 353              		.cfi_endproc
 354              	.LFE15:
 356              		.section	.text.drop_all_cb,"ax",%progbits
 357              		.align	1
 358              		.syntax unified
 359              		.thumb
 360              		.thumb_func
 362              	drop_all_cb:
 363              	.LVL36:
 364              	.LFB26:
ARM GAS  /var/folders/qx/2_175_4n2s19vhvtspjhb3qh0000gn/T//cclDKaGf.s 			page 17


 373:Drivers/lvgl/src/misc/cache/class/lv_cache_sc_da.c ****     lv_cache_sc_da_t * da = (lv_cache_sc_da_t *)cache;
 365              		.loc 1 373 1 is_stmt 1 view -0
 366              		.cfi_startproc
 367              		@ args = 0, pretend = 0, frame = 8
 368              		@ frame_needed = 0, uses_anonymous_args = 0
 374:Drivers/lvgl/src/misc/cache/class/lv_cache_sc_da.c **** 
 369              		.loc 1 374 5 view .LVU107
 376:Drivers/lvgl/src/misc/cache/class/lv_cache_sc_da.c **** 
 370              		.loc 1 376 5 view .LVU108
 376:Drivers/lvgl/src/misc/cache/class/lv_cache_sc_da.c **** 
 371              		.loc 1 376 5 view .LVU109
 372 0000 28B1     		cbz	r0, .L33
 373:Drivers/lvgl/src/misc/cache/class/lv_cache_sc_da.c ****     lv_cache_sc_da_t * da = (lv_cache_sc_da_t *)cache;
 373              		.loc 1 373 1 is_stmt 0 view .LVU110
 374 0002 70B5     		push	{r4, r5, r6, lr}
 375              	.LCFI5:
 376              		.cfi_def_cfa_offset 16
 377              		.cfi_offset 4, -16
 378              		.cfi_offset 5, -12
 379              		.cfi_offset 6, -8
 380              		.cfi_offset 14, -4
 381 0004 82B0     		sub	sp, sp, #8
 382              	.LCFI6:
 383              		.cfi_def_cfa_offset 24
 384 0006 0E46     		mov	r6, r1
 385 0008 0546     		mov	r5, r0
 386              	.LBB13:
 382:Drivers/lvgl/src/misc/cache/class/lv_cache_sc_da.c ****         void * da_entry;
 387              		.loc 1 382 16 view .LVU111
 388 000a 0024     		movs	r4, #0
 389 000c 05E0     		b	.L32
 390              	.L33:
 391              	.LCFI7:
 392              		.cfi_def_cfa_offset 0
 393              		.cfi_restore 4
 394              		.cfi_restore 5
 395              		.cfi_restore 6
 396              		.cfi_restore 14
 382:Drivers/lvgl/src/misc/cache/class/lv_cache_sc_da.c ****         void * da_entry;
 397              		.loc 1 382 16 view .LVU112
 398              	.LBE13:
 376:Drivers/lvgl/src/misc/cache/class/lv_cache_sc_da.c **** 
 399              		.loc 1 376 5 is_stmt 1 view .LVU113
 376:Drivers/lvgl/src/misc/cache/class/lv_cache_sc_da.c **** 
 400              		.loc 1 376 5 view .LVU114
 376:Drivers/lvgl/src/misc/cache/class/lv_cache_sc_da.c **** 
 401              		.loc 1 376 5 view .LVU115
 376:Drivers/lvgl/src/misc/cache/class/lv_cache_sc_da.c **** 
 402              		.loc 1 376 5 view .LVU116
 376:Drivers/lvgl/src/misc/cache/class/lv_cache_sc_da.c **** 
 403              		.loc 1 376 5 view .LVU117
 404 000e FEE7     		b	.L33
 405              	.LVL37:
 406              	.L41:
 407              	.LCFI8:
 408              		.cfi_def_cfa_offset 24
 409              		.cfi_offset 4, -16
ARM GAS  /var/folders/qx/2_175_4n2s19vhvtspjhb3qh0000gn/T//cclDKaGf.s 			page 18


 410              		.cfi_offset 5, -12
 411              		.cfi_offset 6, -8
 412              		.cfi_offset 14, -4
 413              	.LBB16:
 414              	.LBB14:
 396:Drivers/lvgl/src/misc/cache/class/lv_cache_sc_da.c ****     }
 415              		.loc 1 396 9 view .LVU118
 396:Drivers/lvgl/src/misc/cache/class/lv_cache_sc_da.c ****     }
 416              		.loc 1 396 22 is_stmt 0 view .LVU119
 417 0010 AB69     		ldr	r3, [r5, #24]
 396:Drivers/lvgl/src/misc/cache/class/lv_cache_sc_da.c ****     }
 418              		.loc 1 396 9 view .LVU120
 419 0012 3146     		mov	r1, r6
 420 0014 0098     		ldr	r0, [sp]
 421              	.LVL38:
 396:Drivers/lvgl/src/misc/cache/class/lv_cache_sc_da.c ****     }
 422              		.loc 1 396 9 view .LVU121
 423 0016 9847     		blx	r3
 424              	.LVL39:
 425              	.L35:
 396:Drivers/lvgl/src/misc/cache/class/lv_cache_sc_da.c ****     }
 426              		.loc 1 396 9 view .LVU122
 427              	.LBE14:
 382:Drivers/lvgl/src/misc/cache/class/lv_cache_sc_da.c ****         void * da_entry;
 428              		.loc 1 382 40 is_stmt 1 discriminator 2 view .LVU123
 429 0018 0134     		adds	r4, r4, #1
 430              	.LVL40:
 431              	.L32:
 382:Drivers/lvgl/src/misc/cache/class/lv_cache_sc_da.c ****         void * da_entry;
 432              		.loc 1 382 25 discriminator 1 view .LVU124
 382:Drivers/lvgl/src/misc/cache/class/lv_cache_sc_da.c ****         void * da_entry;
 433              		.loc 1 382 32 is_stmt 0 discriminator 1 view .LVU125
 434 001a EB68     		ldr	r3, [r5, #12]
 382:Drivers/lvgl/src/misc/cache/class/lv_cache_sc_da.c ****         void * da_entry;
 435              		.loc 1 382 25 discriminator 1 view .LVU126
 436 001c A342     		cmp	r3, r4
 437 001e 0BD9     		bls	.L40
 438              	.LBB15:
 383:Drivers/lvgl/src/misc/cache/class/lv_cache_sc_da.c ****         lv_cache_entry_t * cache_entry;
 439              		.loc 1 383 9 is_stmt 1 view .LVU127
 384:Drivers/lvgl/src/misc/cache/class/lv_cache_sc_da.c ****         get_entry(da, i, &da_entry, &cache_entry);
 440              		.loc 1 384 9 view .LVU128
 385:Drivers/lvgl/src/misc/cache/class/lv_cache_sc_da.c ****         const int32_t refs = lv_cache_entry_get_ref(cache_entry);
 441              		.loc 1 385 9 view .LVU129
 442 0020 01AB     		add	r3, sp, #4
 443 0022 6A46     		mov	r2, sp
 444 0024 2146     		mov	r1, r4
 445 0026 2846     		mov	r0, r5
 446 0028 FFF7FEFF 		bl	get_entry
 447              	.LVL41:
 386:Drivers/lvgl/src/misc/cache/class/lv_cache_sc_da.c **** 
 448              		.loc 1 386 9 view .LVU130
 386:Drivers/lvgl/src/misc/cache/class/lv_cache_sc_da.c **** 
 449              		.loc 1 386 30 is_stmt 0 view .LVU131
 450 002c 0198     		ldr	r0, [sp, #4]
 451 002e FFF7FEFF 		bl	lv_cache_entry_get_ref
 452              	.LVL42:
ARM GAS  /var/folders/qx/2_175_4n2s19vhvtspjhb3qh0000gn/T//cclDKaGf.s 			page 19


 388:Drivers/lvgl/src/misc/cache/class/lv_cache_sc_da.c ****             LV_LOG_WARN(
 453              		.loc 1 388 9 is_stmt 1 view .LVU132
 388:Drivers/lvgl/src/misc/cache/class/lv_cache_sc_da.c ****             LV_LOG_WARN(
 454              		.loc 1 388 11 is_stmt 0 view .LVU133
 455 0032 0028     		cmp	r0, #0
 456 0034 ECDD     		ble	.L41
 457 0036 EFE7     		b	.L35
 458              	.LVL43:
 459              	.L40:
 388:Drivers/lvgl/src/misc/cache/class/lv_cache_sc_da.c ****             LV_LOG_WARN(
 460              		.loc 1 388 11 view .LVU134
 461              	.LBE15:
 462              	.LBE16:
 398:Drivers/lvgl/src/misc/cache/class/lv_cache_sc_da.c ****         LV_LOG_WARN("%" LV_PRId32 " entries are still referenced",
 463              		.loc 1 398 5 is_stmt 1 view .LVU135
 399:Drivers/lvgl/src/misc/cache/class/lv_cache_sc_da.c ****                     used_cnt);
 464              		.loc 1 399 9 view .LVU136
 399:Drivers/lvgl/src/misc/cache/class/lv_cache_sc_da.c ****                     used_cnt);
 465              		.loc 1 399 9 view .LVU137
 399:Drivers/lvgl/src/misc/cache/class/lv_cache_sc_da.c ****                     used_cnt);
 466              		.loc 1 399 9 view .LVU138
 403:Drivers/lvgl/src/misc/cache/class/lv_cache_sc_da.c **** }
 467              		.loc 1 403 5 view .LVU139
 403:Drivers/lvgl/src/misc/cache/class/lv_cache_sc_da.c **** }
 468              		.loc 1 403 17 is_stmt 0 view .LVU140
 469 0038 0023     		movs	r3, #0
 470 003a EB60     		str	r3, [r5, #12]
 404:Drivers/lvgl/src/misc/cache/class/lv_cache_sc_da.c **** 
 471              		.loc 1 404 1 view .LVU141
 472 003c 02B0     		add	sp, sp, #8
 473              	.LCFI9:
 474              		.cfi_def_cfa_offset 16
 475              		@ sp needed
 476 003e 70BD     		pop	{r4, r5, r6, pc}
 404:Drivers/lvgl/src/misc/cache/class/lv_cache_sc_da.c **** 
 477              		.loc 1 404 1 view .LVU142
 478              		.cfi_endproc
 479              	.LFE26:
 481              		.section	.text.get_cb,"ax",%progbits
 482              		.align	1
 483              		.syntax unified
 484              		.thumb
 485              		.thumb_func
 487              	get_cb:
 488              	.LVL44:
 489              	.LFB22:
 263:Drivers/lvgl/src/misc/cache/class/lv_cache_sc_da.c ****     LV_UNUSED(user_data);
 490              		.loc 1 263 1 is_stmt 1 view -0
 491              		.cfi_startproc
 492              		@ args = 0, pretend = 0, frame = 8
 493              		@ frame_needed = 0, uses_anonymous_args = 0
 264:Drivers/lvgl/src/misc/cache/class/lv_cache_sc_da.c **** 
 494              		.loc 1 264 5 view .LVU144
 266:Drivers/lvgl/src/misc/cache/class/lv_cache_sc_da.c **** 
 495              		.loc 1 266 5 view .LVU145
 268:Drivers/lvgl/src/misc/cache/class/lv_cache_sc_da.c ****     LV_ASSERT_NULL(key);
 496              		.loc 1 268 5 view .LVU146
ARM GAS  /var/folders/qx/2_175_4n2s19vhvtspjhb3qh0000gn/T//cclDKaGf.s 			page 20


 268:Drivers/lvgl/src/misc/cache/class/lv_cache_sc_da.c ****     LV_ASSERT_NULL(key);
 497              		.loc 1 268 5 view .LVU147
 498 0000 A8B1     		cbz	r0, .L44
 263:Drivers/lvgl/src/misc/cache/class/lv_cache_sc_da.c ****     LV_UNUSED(user_data);
 499              		.loc 1 263 1 is_stmt 0 view .LVU148
 500 0002 70B5     		push	{r4, r5, r6, lr}
 501              	.LCFI10:
 502              		.cfi_def_cfa_offset 16
 503              		.cfi_offset 4, -16
 504              		.cfi_offset 5, -12
 505              		.cfi_offset 6, -8
 506              		.cfi_offset 14, -4
 507 0004 82B0     		sub	sp, sp, #8
 508              	.LCFI11:
 509              		.cfi_def_cfa_offset 24
 510 0006 0E46     		mov	r6, r1
 511 0008 0546     		mov	r5, r0
 268:Drivers/lvgl/src/misc/cache/class/lv_cache_sc_da.c ****     LV_ASSERT_NULL(key);
 512              		.loc 1 268 5 is_stmt 1 view .LVU149
 268:Drivers/lvgl/src/misc/cache/class/lv_cache_sc_da.c ****     LV_ASSERT_NULL(key);
 513              		.loc 1 268 23 view .LVU150
 269:Drivers/lvgl/src/misc/cache/class/lv_cache_sc_da.c **** 
 514              		.loc 1 269 5 view .LVU151
 269:Drivers/lvgl/src/misc/cache/class/lv_cache_sc_da.c **** 
 515              		.loc 1 269 5 view .LVU152
 516 000a 89B1     		cbz	r1, .L46
 517              	.LBB17:
 277:Drivers/lvgl/src/misc/cache/class/lv_cache_sc_da.c ****         void * curr_da_entry;
 518              		.loc 1 277 16 is_stmt 0 view .LVU153
 519 000c 0024     		movs	r4, #0
 520              	.LVL45:
 521              	.L45:
 277:Drivers/lvgl/src/misc/cache/class/lv_cache_sc_da.c ****         void * curr_da_entry;
 522              		.loc 1 277 25 is_stmt 1 discriminator 1 view .LVU154
 277:Drivers/lvgl/src/misc/cache/class/lv_cache_sc_da.c ****         void * curr_da_entry;
 523              		.loc 1 277 36 is_stmt 0 discriminator 1 view .LVU155
 524 000e EB68     		ldr	r3, [r5, #12]
 277:Drivers/lvgl/src/misc/cache/class/lv_cache_sc_da.c ****         void * curr_da_entry;
 525              		.loc 1 277 25 discriminator 1 view .LVU156
 526 0010 A342     		cmp	r3, r4
 527 0012 14D9     		bls	.L53
 528              	.LBB18:
 278:Drivers/lvgl/src/misc/cache/class/lv_cache_sc_da.c ****         lv_cache_entry_t * curr_cache_entry;
 529              		.loc 1 278 9 is_stmt 1 view .LVU157
 279:Drivers/lvgl/src/misc/cache/class/lv_cache_sc_da.c ****         get_entry(da, i, &curr_da_entry, &curr_cache_entry);
 530              		.loc 1 279 9 view .LVU158
 280:Drivers/lvgl/src/misc/cache/class/lv_cache_sc_da.c **** 
 531              		.loc 1 280 9 view .LVU159
 532 0014 01AB     		add	r3, sp, #4
 533 0016 6A46     		mov	r2, sp
 534 0018 2146     		mov	r1, r4
 535 001a 2846     		mov	r0, r5
 536 001c FFF7FEFF 		bl	get_entry
 537              	.LVL46:
 282:Drivers/lvgl/src/misc/cache/class/lv_cache_sc_da.c ****             cache_entry = curr_cache_entry;
 538              		.loc 1 282 9 view .LVU160
 282:Drivers/lvgl/src/misc/cache/class/lv_cache_sc_da.c ****             cache_entry = curr_cache_entry;
ARM GAS  /var/folders/qx/2_175_4n2s19vhvtspjhb3qh0000gn/T//cclDKaGf.s 			page 21


 539              		.loc 1 282 25 is_stmt 0 view .LVU161
 540 0020 2B69     		ldr	r3, [r5, #16]
 282:Drivers/lvgl/src/misc/cache/class/lv_cache_sc_da.c ****             cache_entry = curr_cache_entry;
 541              		.loc 1 282 12 view .LVU162
 542 0022 3146     		mov	r1, r6
 543 0024 0098     		ldr	r0, [sp]
 544 0026 9847     		blx	r3
 545              	.LVL47:
 282:Drivers/lvgl/src/misc/cache/class/lv_cache_sc_da.c ****             cache_entry = curr_cache_entry;
 546              		.loc 1 282 11 discriminator 1 view .LVU163
 547 0028 18B1     		cbz	r0, .L54
 548              	.LBE18:
 277:Drivers/lvgl/src/misc/cache/class/lv_cache_sc_da.c ****         void * curr_da_entry;
 549              		.loc 1 277 43 is_stmt 1 discriminator 2 view .LVU164
 550 002a 0134     		adds	r4, r4, #1
 551              	.LVL48:
 277:Drivers/lvgl/src/misc/cache/class/lv_cache_sc_da.c ****         void * curr_da_entry;
 552              		.loc 1 277 43 is_stmt 0 discriminator 2 view .LVU165
 553 002c EFE7     		b	.L45
 554              	.LVL49:
 555              	.L44:
 556              	.LCFI12:
 557              		.cfi_def_cfa_offset 0
 558              		.cfi_restore 4
 559              		.cfi_restore 5
 560              		.cfi_restore 6
 561              		.cfi_restore 14
 277:Drivers/lvgl/src/misc/cache/class/lv_cache_sc_da.c ****         void * curr_da_entry;
 562              		.loc 1 277 43 discriminator 2 view .LVU166
 563              	.LBE17:
 268:Drivers/lvgl/src/misc/cache/class/lv_cache_sc_da.c ****     LV_ASSERT_NULL(key);
 564              		.loc 1 268 5 is_stmt 1 view .LVU167
 268:Drivers/lvgl/src/misc/cache/class/lv_cache_sc_da.c ****     LV_ASSERT_NULL(key);
 565              		.loc 1 268 5 view .LVU168
 268:Drivers/lvgl/src/misc/cache/class/lv_cache_sc_da.c ****     LV_ASSERT_NULL(key);
 566              		.loc 1 268 5 view .LVU169
 268:Drivers/lvgl/src/misc/cache/class/lv_cache_sc_da.c ****     LV_ASSERT_NULL(key);
 567              		.loc 1 268 5 view .LVU170
 268:Drivers/lvgl/src/misc/cache/class/lv_cache_sc_da.c ****     LV_ASSERT_NULL(key);
 568              		.loc 1 268 5 view .LVU171
 569 002e FEE7     		b	.L44
 570              	.L46:
 571              	.LCFI13:
 572              		.cfi_def_cfa_offset 24
 573              		.cfi_offset 4, -16
 574              		.cfi_offset 5, -12
 575              		.cfi_offset 6, -8
 576              		.cfi_offset 14, -4
 269:Drivers/lvgl/src/misc/cache/class/lv_cache_sc_da.c **** 
 577              		.loc 1 269 5 view .LVU172
 269:Drivers/lvgl/src/misc/cache/class/lv_cache_sc_da.c **** 
 578              		.loc 1 269 5 view .LVU173
 269:Drivers/lvgl/src/misc/cache/class/lv_cache_sc_da.c **** 
 579              		.loc 1 269 5 view .LVU174
 269:Drivers/lvgl/src/misc/cache/class/lv_cache_sc_da.c **** 
 580              		.loc 1 269 5 view .LVU175
 269:Drivers/lvgl/src/misc/cache/class/lv_cache_sc_da.c **** 
ARM GAS  /var/folders/qx/2_175_4n2s19vhvtspjhb3qh0000gn/T//cclDKaGf.s 			page 22


 581              		.loc 1 269 5 view .LVU176
 582 0030 FEE7     		b	.L46
 583              	.LVL50:
 584              	.L54:
 585              	.LBB22:
 586              	.LBB21:
 283:Drivers/lvgl/src/misc/cache/class/lv_cache_sc_da.c ****             /*When an entry is used, we set it's second chance to true again*/
 587              		.loc 1 283 13 view .LVU177
 283:Drivers/lvgl/src/misc/cache/class/lv_cache_sc_da.c ****             /*When an entry is used, we set it's second chance to true again*/
 588              		.loc 1 283 25 is_stmt 0 view .LVU178
 589 0032 019C     		ldr	r4, [sp, #4]
 590              	.LVL51:
 285:Drivers/lvgl/src/misc/cache/class/lv_cache_sc_da.c ****             break;
 591              		.loc 1 285 13 is_stmt 1 view .LVU179
 592              	.LBB19:
 593              	.LBI19:
 165:Drivers/lvgl/src/misc/cache/class/lv_cache_sc_da.c **** {
 594              		.loc 1 165 20 view .LVU180
 595              	.LBB20:
 167:Drivers/lvgl/src/misc/cache/class/lv_cache_sc_da.c ****         lv_cache_entry_set_flag(entry, LV_CACHE_ENTRY_FLAG_CLASS_CUSTOM);
 596              		.loc 1 167 5 view .LVU181
 168:Drivers/lvgl/src/misc/cache/class/lv_cache_sc_da.c ****     }
 597              		.loc 1 168 9 view .LVU182
 598 0034 8021     		movs	r1, #128
 599 0036 2046     		mov	r0, r4
 600 0038 FFF7FEFF 		bl	lv_cache_entry_set_flag
 601              	.LVL52:
 168:Drivers/lvgl/src/misc/cache/class/lv_cache_sc_da.c ****     }
 602              		.loc 1 168 9 is_stmt 0 view .LVU183
 603              	.LBE20:
 604              	.LBE19:
 286:Drivers/lvgl/src/misc/cache/class/lv_cache_sc_da.c ****         }
 605              		.loc 1 286 13 is_stmt 1 view .LVU184
 606 003c 00E0     		b	.L42
 607              	.LVL53:
 608              	.L53:
 286:Drivers/lvgl/src/misc/cache/class/lv_cache_sc_da.c ****         }
 609              		.loc 1 286 13 is_stmt 0 view .LVU185
 610              	.LBE21:
 611              	.LBE22:
 276:Drivers/lvgl/src/misc/cache/class/lv_cache_sc_da.c ****     for(size_t i = 0; i < da->cache.size; ++i) {
 612              		.loc 1 276 24 view .LVU186
 613 003e 0024     		movs	r4, #0
 614              	.LVL54:
 289:Drivers/lvgl/src/misc/cache/class/lv_cache_sc_da.c **** }
 615              		.loc 1 289 5 is_stmt 1 view .LVU187
 616              	.L42:
 290:Drivers/lvgl/src/misc/cache/class/lv_cache_sc_da.c **** 
 617              		.loc 1 290 1 is_stmt 0 view .LVU188
 618 0040 2046     		mov	r0, r4
 619 0042 02B0     		add	sp, sp, #8
 620              	.LCFI14:
 621              		.cfi_def_cfa_offset 16
 622              		@ sp needed
 623 0044 70BD     		pop	{r4, r5, r6, pc}
 290:Drivers/lvgl/src/misc/cache/class/lv_cache_sc_da.c **** 
 624              		.loc 1 290 1 view .LVU189
ARM GAS  /var/folders/qx/2_175_4n2s19vhvtspjhb3qh0000gn/T//cclDKaGf.s 			page 23


 625              		.cfi_endproc
 626              	.LFE22:
 628              		.section	.text.get_possible_victim,"ax",%progbits
 629              		.align	1
 630              		.syntax unified
 631              		.thumb
 632              		.thumb_func
 634              	get_possible_victim:
 635              	.LVL55:
 636              	.LFB27:
 407:Drivers/lvgl/src/misc/cache/class/lv_cache_sc_da.c ****     LV_ASSERT(index < da->cache.size);
 637              		.loc 1 407 1 is_stmt 1 view -0
 638              		.cfi_startproc
 639              		@ args = 0, pretend = 0, frame = 8
 640              		@ frame_needed = 0, uses_anonymous_args = 0
 408:Drivers/lvgl/src/misc/cache/class/lv_cache_sc_da.c **** 
 641              		.loc 1 408 5 view .LVU191
 408:Drivers/lvgl/src/misc/cache/class/lv_cache_sc_da.c **** 
 642              		.loc 1 408 5 view .LVU192
 643 0000 C368     		ldr	r3, [r0, #12]
 644 0002 8B42     		cmp	r3, r1
 645 0004 00D8     		bhi	.L56
 646              	.L57:
 408:Drivers/lvgl/src/misc/cache/class/lv_cache_sc_da.c **** 
 647              		.loc 1 408 5 view .LVU193
 408:Drivers/lvgl/src/misc/cache/class/lv_cache_sc_da.c **** 
 648              		.loc 1 408 5 view .LVU194
 408:Drivers/lvgl/src/misc/cache/class/lv_cache_sc_da.c **** 
 649              		.loc 1 408 5 view .LVU195
 408:Drivers/lvgl/src/misc/cache/class/lv_cache_sc_da.c **** 
 650              		.loc 1 408 5 view .LVU196
 408:Drivers/lvgl/src/misc/cache/class/lv_cache_sc_da.c **** 
 651              		.loc 1 408 5 view .LVU197
 652 0006 FEE7     		b	.L57
 653              	.L56:
 407:Drivers/lvgl/src/misc/cache/class/lv_cache_sc_da.c ****     LV_ASSERT(index < da->cache.size);
 654              		.loc 1 407 1 is_stmt 0 view .LVU198
 655 0008 10B5     		push	{r4, lr}
 656              	.LCFI15:
 657              		.cfi_def_cfa_offset 8
 658              		.cfi_offset 4, -8
 659              		.cfi_offset 14, -4
 660 000a 82B0     		sub	sp, sp, #8
 661              	.LCFI16:
 662              		.cfi_def_cfa_offset 16
 408:Drivers/lvgl/src/misc/cache/class/lv_cache_sc_da.c **** 
 663              		.loc 1 408 5 is_stmt 1 view .LVU199
 410:Drivers/lvgl/src/misc/cache/class/lv_cache_sc_da.c ****     lv_cache_entry_t * cache_entry;
 664              		.loc 1 410 5 view .LVU200
 411:Drivers/lvgl/src/misc/cache/class/lv_cache_sc_da.c ****     get_entry(da, index, &da_entry, &cache_entry);
 665              		.loc 1 411 5 view .LVU201
 412:Drivers/lvgl/src/misc/cache/class/lv_cache_sc_da.c **** 
 666              		.loc 1 412 5 view .LVU202
 667 000c 6B46     		mov	r3, sp
 668 000e 01AA     		add	r2, sp, #4
 669 0010 FFF7FEFF 		bl	get_entry
 670              	.LVL56:
ARM GAS  /var/folders/qx/2_175_4n2s19vhvtspjhb3qh0000gn/T//cclDKaGf.s 			page 24


 414:Drivers/lvgl/src/misc/cache/class/lv_cache_sc_da.c ****     const int32_t refs = lv_cache_entry_get_ref(cache_entry);
 671              		.loc 1 414 5 view .LVU203
 672              	.LBB23:
 673              	.LBI23:
 175:Drivers/lvgl/src/misc/cache/class/lv_cache_sc_da.c **** {
 674              		.loc 1 175 20 view .LVU204
 675              	.LBB24:
 177:Drivers/lvgl/src/misc/cache/class/lv_cache_sc_da.c **** }
 676              		.loc 1 177 5 view .LVU205
 177:Drivers/lvgl/src/misc/cache/class/lv_cache_sc_da.c **** }
 677              		.loc 1 177 12 is_stmt 0 view .LVU206
 678 0014 8021     		movs	r1, #128
 679 0016 0098     		ldr	r0, [sp]
 680 0018 FFF7FEFF 		bl	lv_cache_entry_has_flag
 681              	.LVL57:
 177:Drivers/lvgl/src/misc/cache/class/lv_cache_sc_da.c **** }
 682              		.loc 1 177 12 view .LVU207
 683 001c 0446     		mov	r4, r0
 684              	.LVL58:
 177:Drivers/lvgl/src/misc/cache/class/lv_cache_sc_da.c **** }
 685              		.loc 1 177 12 view .LVU208
 686              	.LBE24:
 687              	.LBE23:
 415:Drivers/lvgl/src/misc/cache/class/lv_cache_sc_da.c **** 
 688              		.loc 1 415 5 is_stmt 1 view .LVU209
 415:Drivers/lvgl/src/misc/cache/class/lv_cache_sc_da.c **** 
 689              		.loc 1 415 26 is_stmt 0 view .LVU210
 690 001e 0098     		ldr	r0, [sp]
 691 0020 FFF7FEFF 		bl	lv_cache_entry_get_ref
 692              	.LVL59:
 417:Drivers/lvgl/src/misc/cache/class/lv_cache_sc_da.c ****         return cache_entry;
 693              		.loc 1 417 5 is_stmt 1 view .LVU211
 417:Drivers/lvgl/src/misc/cache/class/lv_cache_sc_da.c ****         return cache_entry;
 694              		.loc 1 417 7 is_stmt 0 view .LVU212
 695 0024 14B9     		cbnz	r4, .L58
 417:Drivers/lvgl/src/misc/cache/class/lv_cache_sc_da.c ****         return cache_entry;
 696              		.loc 1 417 24 discriminator 1 view .LVU213
 697 0026 40B1     		cbz	r0, .L64
 420:Drivers/lvgl/src/misc/cache/class/lv_cache_sc_da.c ****         LV_LOG_INFO(
 698              		.loc 1 420 5 is_stmt 1 view .LVU214
 420:Drivers/lvgl/src/misc/cache/class/lv_cache_sc_da.c ****         LV_LOG_INFO(
 699              		.loc 1 420 24 is_stmt 0 discriminator 1 view .LVU215
 700 0028 0028     		cmp	r0, #0
 701 002a 08DC     		bgt	.L61
 702              	.L58:
 429:Drivers/lvgl/src/misc/cache/class/lv_cache_sc_da.c ****     return NULL;
 703              		.loc 1 429 5 is_stmt 1 view .LVU216
 704              	.LVL60:
 705              	.LBB25:
 706              	.LBI25:
 165:Drivers/lvgl/src/misc/cache/class/lv_cache_sc_da.c **** {
 707              		.loc 1 165 20 view .LVU217
 708              	.LBB26:
 167:Drivers/lvgl/src/misc/cache/class/lv_cache_sc_da.c ****         lv_cache_entry_set_flag(entry, LV_CACHE_ENTRY_FLAG_CLASS_CUSTOM);
 709              		.loc 1 167 5 view .LVU218
 171:Drivers/lvgl/src/misc/cache/class/lv_cache_sc_da.c ****     }
 710              		.loc 1 171 9 view .LVU219
ARM GAS  /var/folders/qx/2_175_4n2s19vhvtspjhb3qh0000gn/T//cclDKaGf.s 			page 25


 711 002c 8021     		movs	r1, #128
 712 002e 0098     		ldr	r0, [sp]
 713              	.LVL61:
 171:Drivers/lvgl/src/misc/cache/class/lv_cache_sc_da.c ****     }
 714              		.loc 1 171 9 is_stmt 0 view .LVU220
 715 0030 FFF7FEFF 		bl	lv_cache_entry_remove_flag
 716              	.LVL62:
 171:Drivers/lvgl/src/misc/cache/class/lv_cache_sc_da.c ****     }
 717              		.loc 1 171 9 view .LVU221
 718              	.LBE26:
 719              	.LBE25:
 430:Drivers/lvgl/src/misc/cache/class/lv_cache_sc_da.c **** }
 720              		.loc 1 430 5 is_stmt 1 view .LVU222
 430:Drivers/lvgl/src/misc/cache/class/lv_cache_sc_da.c **** }
 721              		.loc 1 430 12 is_stmt 0 view .LVU223
 722 0034 0020     		movs	r0, #0
 723              	.L55:
 431:Drivers/lvgl/src/misc/cache/class/lv_cache_sc_da.c **** 
 724              		.loc 1 431 1 view .LVU224
 725 0036 02B0     		add	sp, sp, #8
 726              	.LCFI17:
 727              		.cfi_remember_state
 728              		.cfi_def_cfa_offset 8
 729              		@ sp needed
 730 0038 10BD     		pop	{r4, pc}
 731              	.LVL63:
 732              	.L64:
 733              	.LCFI18:
 734              		.cfi_restore_state
 418:Drivers/lvgl/src/misc/cache/class/lv_cache_sc_da.c ****     }
 735              		.loc 1 418 9 is_stmt 1 view .LVU225
 418:Drivers/lvgl/src/misc/cache/class/lv_cache_sc_da.c ****     }
 736              		.loc 1 418 16 is_stmt 0 view .LVU226
 737 003a 0098     		ldr	r0, [sp]
 738              	.LVL64:
 418:Drivers/lvgl/src/misc/cache/class/lv_cache_sc_da.c ****     }
 739              		.loc 1 418 16 view .LVU227
 740 003c FBE7     		b	.L55
 741              	.LVL65:
 742              	.L61:
 425:Drivers/lvgl/src/misc/cache/class/lv_cache_sc_da.c ****     }
 743              		.loc 1 425 16 view .LVU228
 744 003e 0020     		movs	r0, #0
 745              	.LVL66:
 425:Drivers/lvgl/src/misc/cache/class/lv_cache_sc_da.c ****     }
 746              		.loc 1 425 16 view .LVU229
 747 0040 F9E7     		b	.L55
 748              		.cfi_endproc
 749              	.LFE27:
 751              		.section	.text.get_victim_cb,"ax",%progbits
 752              		.align	1
 753              		.syntax unified
 754              		.thumb
 755              		.thumb_func
 757              	get_victim_cb:
 758              	.LVL67:
 759              	.LFB28:
ARM GAS  /var/folders/qx/2_175_4n2s19vhvtspjhb3qh0000gn/T//cclDKaGf.s 			page 26


 434:Drivers/lvgl/src/misc/cache/class/lv_cache_sc_da.c ****     LV_UNUSED(user_data);
 760              		.loc 1 434 1 is_stmt 1 view -0
 761              		.cfi_startproc
 762              		@ args = 0, pretend = 0, frame = 0
 763              		@ frame_needed = 0, uses_anonymous_args = 0
 435:Drivers/lvgl/src/misc/cache/class/lv_cache_sc_da.c **** 
 764              		.loc 1 435 5 view .LVU231
 437:Drivers/lvgl/src/misc/cache/class/lv_cache_sc_da.c **** 
 765              		.loc 1 437 5 view .LVU232
 439:Drivers/lvgl/src/misc/cache/class/lv_cache_sc_da.c ****     /*
 766              		.loc 1 439 5 view .LVU233
 439:Drivers/lvgl/src/misc/cache/class/lv_cache_sc_da.c ****     /*
 767              		.loc 1 439 5 view .LVU234
 768 0000 80B1     		cbz	r0, .L67
 434:Drivers/lvgl/src/misc/cache/class/lv_cache_sc_da.c ****     LV_UNUSED(user_data);
 769              		.loc 1 434 1 is_stmt 0 view .LVU235
 770 0002 70B5     		push	{r4, r5, r6, lr}
 771              	.LCFI19:
 772              		.cfi_def_cfa_offset 16
 773              		.cfi_offset 4, -16
 774              		.cfi_offset 5, -12
 775              		.cfi_offset 6, -8
 776              		.cfi_offset 14, -4
 777 0004 0546     		mov	r5, r0
 778              	.LBB27:
 456:Drivers/lvgl/src/misc/cache/class/lv_cache_sc_da.c ****         for(size_t j = 0; j < da->cache.size; ++j) {
 779              		.loc 1 456 16 view .LVU236
 780 0006 0026     		movs	r6, #0
 781              	.LVL68:
 782              	.L66:
 456:Drivers/lvgl/src/misc/cache/class/lv_cache_sc_da.c ****         for(size_t j = 0; j < da->cache.size; ++j) {
 783              		.loc 1 456 25 is_stmt 1 discriminator 1 view .LVU237
 784 0008 012E     		cmp	r6, #1
 785 000a 0ED8     		bhi	.L75
 786              	.LBB28:
 457:Drivers/lvgl/src/misc/cache/class/lv_cache_sc_da.c ****             lv_cache_entry_t * victim = get_possible_victim(da, j);
 787              		.loc 1 457 20 is_stmt 0 view .LVU238
 788 000c 0024     		movs	r4, #0
 789              	.L70:
 790              	.LVL69:
 457:Drivers/lvgl/src/misc/cache/class/lv_cache_sc_da.c ****             lv_cache_entry_t * victim = get_possible_victim(da, j);
 791              		.loc 1 457 29 is_stmt 1 discriminator 1 view .LVU239
 457:Drivers/lvgl/src/misc/cache/class/lv_cache_sc_da.c ****             lv_cache_entry_t * victim = get_possible_victim(da, j);
 792              		.loc 1 457 40 is_stmt 0 discriminator 1 view .LVU240
 793 000e EB68     		ldr	r3, [r5, #12]
 457:Drivers/lvgl/src/misc/cache/class/lv_cache_sc_da.c ****             lv_cache_entry_t * victim = get_possible_victim(da, j);
 794              		.loc 1 457 29 discriminator 1 view .LVU241
 795 0010 A342     		cmp	r3, r4
 796 0012 08D9     		bls	.L76
 797              	.LBB29:
 458:Drivers/lvgl/src/misc/cache/class/lv_cache_sc_da.c ****             if(victim) {
 798              		.loc 1 458 13 is_stmt 1 view .LVU242
 458:Drivers/lvgl/src/misc/cache/class/lv_cache_sc_da.c ****             if(victim) {
 799              		.loc 1 458 41 is_stmt 0 view .LVU243
 800 0014 2146     		mov	r1, r4
 801 0016 2846     		mov	r0, r5
 802 0018 FFF7FEFF 		bl	get_possible_victim
ARM GAS  /var/folders/qx/2_175_4n2s19vhvtspjhb3qh0000gn/T//cclDKaGf.s 			page 27


 803              	.LVL70:
 459:Drivers/lvgl/src/misc/cache/class/lv_cache_sc_da.c ****                 return victim;
 804              		.loc 1 459 13 is_stmt 1 view .LVU244
 459:Drivers/lvgl/src/misc/cache/class/lv_cache_sc_da.c ****                 return victim;
 805              		.loc 1 459 15 is_stmt 0 view .LVU245
 806 001c 0346     		mov	r3, r0
 807 001e 28B9     		cbnz	r0, .L65
 808              	.LBE29:
 457:Drivers/lvgl/src/misc/cache/class/lv_cache_sc_da.c ****             lv_cache_entry_t * victim = get_possible_victim(da, j);
 809              		.loc 1 457 47 is_stmt 1 discriminator 2 view .LVU246
 810 0020 0134     		adds	r4, r4, #1
 811              	.LVL71:
 457:Drivers/lvgl/src/misc/cache/class/lv_cache_sc_da.c ****             lv_cache_entry_t * victim = get_possible_victim(da, j);
 812              		.loc 1 457 47 is_stmt 0 discriminator 2 view .LVU247
 813 0022 F4E7     		b	.L70
 814              	.LVL72:
 815              	.L67:
 816              	.LCFI20:
 817              		.cfi_def_cfa_offset 0
 818              		.cfi_restore 4
 819              		.cfi_restore 5
 820              		.cfi_restore 6
 821              		.cfi_restore 14
 457:Drivers/lvgl/src/misc/cache/class/lv_cache_sc_da.c ****             lv_cache_entry_t * victim = get_possible_victim(da, j);
 822              		.loc 1 457 47 discriminator 2 view .LVU248
 823              	.LBE28:
 824              	.LBE27:
 439:Drivers/lvgl/src/misc/cache/class/lv_cache_sc_da.c ****     /*
 825              		.loc 1 439 5 is_stmt 1 view .LVU249
 439:Drivers/lvgl/src/misc/cache/class/lv_cache_sc_da.c ****     /*
 826              		.loc 1 439 5 view .LVU250
 439:Drivers/lvgl/src/misc/cache/class/lv_cache_sc_da.c ****     /*
 827              		.loc 1 439 5 view .LVU251
 439:Drivers/lvgl/src/misc/cache/class/lv_cache_sc_da.c ****     /*
 828              		.loc 1 439 5 view .LVU252
 439:Drivers/lvgl/src/misc/cache/class/lv_cache_sc_da.c ****     /*
 829              		.loc 1 439 5 view .LVU253
 830 0024 FEE7     		b	.L67
 831              	.LVL73:
 832              	.L76:
 833              	.LCFI21:
 834              		.cfi_def_cfa_offset 16
 835              		.cfi_offset 4, -16
 836              		.cfi_offset 5, -12
 837              		.cfi_offset 6, -8
 838              		.cfi_offset 14, -4
 839              	.LBB30:
 456:Drivers/lvgl/src/misc/cache/class/lv_cache_sc_da.c ****         for(size_t j = 0; j < da->cache.size; ++j) {
 840              		.loc 1 456 30 discriminator 2 view .LVU254
 841 0026 0136     		adds	r6, r6, #1
 842              	.LVL74:
 456:Drivers/lvgl/src/misc/cache/class/lv_cache_sc_da.c ****         for(size_t j = 0; j < da->cache.size; ++j) {
 843              		.loc 1 456 30 is_stmt 0 discriminator 2 view .LVU255
 844 0028 EEE7     		b	.L66
 845              	.LVL75:
 846              	.L75:
 456:Drivers/lvgl/src/misc/cache/class/lv_cache_sc_da.c ****         for(size_t j = 0; j < da->cache.size; ++j) {
ARM GAS  /var/folders/qx/2_175_4n2s19vhvtspjhb3qh0000gn/T//cclDKaGf.s 			page 28


 847              		.loc 1 456 30 discriminator 2 view .LVU256
 848              	.LBE30:
 464:Drivers/lvgl/src/misc/cache/class/lv_cache_sc_da.c **** }
 849              		.loc 1 464 12 view .LVU257
 850 002a 0023     		movs	r3, #0
 851              	.L65:
 465:Drivers/lvgl/src/misc/cache/class/lv_cache_sc_da.c **** 
 852              		.loc 1 465 1 view .LVU258
 853 002c 1846     		mov	r0, r3
 854 002e 70BD     		pop	{r4, r5, r6, pc}
 465:Drivers/lvgl/src/misc/cache/class/lv_cache_sc_da.c **** 
 855              		.loc 1 465 1 view .LVU259
 856              		.cfi_endproc
 857              	.LFE28:
 859              		.section	.text.drop_cb,"ax",%progbits
 860              		.align	1
 861              		.syntax unified
 862              		.thumb
 863              		.thumb_func
 865              	drop_cb:
 866              	.LVL76:
 867              	.LFB25:
 344:Drivers/lvgl/src/misc/cache/class/lv_cache_sc_da.c ****     lv_cache_sc_da_t * da = (lv_cache_sc_da_t *)cache;
 868              		.loc 1 344 1 is_stmt 1 view -0
 869              		.cfi_startproc
 870              		@ args = 0, pretend = 0, frame = 8
 871              		@ frame_needed = 0, uses_anonymous_args = 0
 345:Drivers/lvgl/src/misc/cache/class/lv_cache_sc_da.c **** 
 872              		.loc 1 345 5 view .LVU261
 347:Drivers/lvgl/src/misc/cache/class/lv_cache_sc_da.c ****     LV_ASSERT_NULL(key);
 873              		.loc 1 347 5 view .LVU262
 347:Drivers/lvgl/src/misc/cache/class/lv_cache_sc_da.c ****     LV_ASSERT_NULL(key);
 874              		.loc 1 347 5 view .LVU263
 875 0000 40B3     		cbz	r0, .L79
 344:Drivers/lvgl/src/misc/cache/class/lv_cache_sc_da.c ****     lv_cache_sc_da_t * da = (lv_cache_sc_da_t *)cache;
 876              		.loc 1 344 1 is_stmt 0 view .LVU264
 877 0002 F0B5     		push	{r4, r5, r6, r7, lr}
 878              	.LCFI22:
 879              		.cfi_def_cfa_offset 20
 880              		.cfi_offset 4, -20
 881              		.cfi_offset 5, -16
 882              		.cfi_offset 6, -12
 883              		.cfi_offset 7, -8
 884              		.cfi_offset 14, -4
 885 0004 83B0     		sub	sp, sp, #12
 886              	.LCFI23:
 887              		.cfi_def_cfa_offset 32
 888 0006 1546     		mov	r5, r2
 889 0008 0446     		mov	r4, r0
 347:Drivers/lvgl/src/misc/cache/class/lv_cache_sc_da.c ****     LV_ASSERT_NULL(key);
 890              		.loc 1 347 5 is_stmt 1 view .LVU265
 347:Drivers/lvgl/src/misc/cache/class/lv_cache_sc_da.c ****     LV_ASSERT_NULL(key);
 891              		.loc 1 347 23 view .LVU266
 348:Drivers/lvgl/src/misc/cache/class/lv_cache_sc_da.c **** 
 892              		.loc 1 348 5 view .LVU267
 348:Drivers/lvgl/src/misc/cache/class/lv_cache_sc_da.c **** 
 893              		.loc 1 348 5 view .LVU268
ARM GAS  /var/folders/qx/2_175_4n2s19vhvtspjhb3qh0000gn/T//cclDKaGf.s 			page 29


 894 000a 21B3     		cbz	r1, .L81
 348:Drivers/lvgl/src/misc/cache/class/lv_cache_sc_da.c **** 
 895              		.loc 1 348 5 view .LVU269
 348:Drivers/lvgl/src/misc/cache/class/lv_cache_sc_da.c **** 
 896              		.loc 1 348 24 view .LVU270
 350:Drivers/lvgl/src/misc/cache/class/lv_cache_sc_da.c ****         return;
 897              		.loc 1 350 5 view .LVU271
 353:Drivers/lvgl/src/misc/cache/class/lv_cache_sc_da.c ****     if(!entry) {
 898              		.loc 1 353 5 view .LVU272
 353:Drivers/lvgl/src/misc/cache/class/lv_cache_sc_da.c ****     if(!entry) {
 899              		.loc 1 353 37 is_stmt 0 view .LVU273
 900 000c 0368     		ldr	r3, [r0]
 353:Drivers/lvgl/src/misc/cache/class/lv_cache_sc_da.c ****     if(!entry) {
 901              		.loc 1 353 42 view .LVU274
 902 000e DB68     		ldr	r3, [r3, #12]
 353:Drivers/lvgl/src/misc/cache/class/lv_cache_sc_da.c ****     if(!entry) {
 903              		.loc 1 353 32 view .LVU275
 904 0010 9847     		blx	r3
 905              	.LVL77:
 354:Drivers/lvgl/src/misc/cache/class/lv_cache_sc_da.c ****         return;
 906              		.loc 1 354 5 is_stmt 1 view .LVU276
 354:Drivers/lvgl/src/misc/cache/class/lv_cache_sc_da.c ****         return;
 907              		.loc 1 354 7 is_stmt 0 view .LVU277
 908 0012 0646     		mov	r6, r0
 909 0014 E0B1     		cbz	r0, .L77
 358:Drivers/lvgl/src/misc/cache/class/lv_cache_sc_da.c ****     uint8_t * da_entry_to_remove = (uint8_t *)lv_cache_entry_get_data(entry);
 910              		.loc 1 358 5 is_stmt 1 view .LVU278
 358:Drivers/lvgl/src/misc/cache/class/lv_cache_sc_da.c ****     uint8_t * da_entry_to_remove = (uint8_t *)lv_cache_entry_get_data(entry);
 911              		.loc 1 358 31 is_stmt 0 view .LVU279
 912 0016 6068     		ldr	r0, [r4, #4]
 913              	.LVL78:
 358:Drivers/lvgl/src/misc/cache/class/lv_cache_sc_da.c ****     uint8_t * da_entry_to_remove = (uint8_t *)lv_cache_entry_get_data(entry);
 914              		.loc 1 358 31 view .LVU280
 915 0018 FFF7FEFF 		bl	lv_cache_entry_get_size
 916              	.LVL79:
 917 001c 0746     		mov	r7, r0
 918              	.LVL80:
 359:Drivers/lvgl/src/misc/cache/class/lv_cache_sc_da.c **** 
 919              		.loc 1 359 5 is_stmt 1 view .LVU281
 359:Drivers/lvgl/src/misc/cache/class/lv_cache_sc_da.c **** 
 920              		.loc 1 359 47 is_stmt 0 view .LVU282
 921 001e 3046     		mov	r0, r6
 922              	.LVL81:
 359:Drivers/lvgl/src/misc/cache/class/lv_cache_sc_da.c **** 
 923              		.loc 1 359 47 view .LVU283
 924 0020 FFF7FEFF 		bl	lv_cache_entry_get_data
 925              	.LVL82:
 926 0024 0646     		mov	r6, r0
 927              	.LVL83:
 361:Drivers/lvgl/src/misc/cache/class/lv_cache_sc_da.c ****     lv_cache_entry_t * last_cache_entry;
 928              		.loc 1 361 5 is_stmt 1 view .LVU284
 362:Drivers/lvgl/src/misc/cache/class/lv_cache_sc_da.c ****     get_entry(da, cache->size - 1, &last_da_entry, &last_cache_entry);
 929              		.loc 1 362 5 view .LVU285
 363:Drivers/lvgl/src/misc/cache/class/lv_cache_sc_da.c **** 
 930              		.loc 1 363 5 view .LVU286
 363:Drivers/lvgl/src/misc/cache/class/lv_cache_sc_da.c **** 
 931              		.loc 1 363 24 is_stmt 0 view .LVU287
ARM GAS  /var/folders/qx/2_175_4n2s19vhvtspjhb3qh0000gn/T//cclDKaGf.s 			page 30


 932 0026 E168     		ldr	r1, [r4, #12]
 363:Drivers/lvgl/src/misc/cache/class/lv_cache_sc_da.c **** 
 933              		.loc 1 363 5 view .LVU288
 934 0028 6B46     		mov	r3, sp
 935 002a 01AA     		add	r2, sp, #4
 936 002c 0139     		subs	r1, r1, #1
 937 002e 2046     		mov	r0, r4
 938              	.LVL84:
 363:Drivers/lvgl/src/misc/cache/class/lv_cache_sc_da.c **** 
 939              		.loc 1 363 5 view .LVU289
 940 0030 FFF7FEFF 		bl	get_entry
 941              	.LVL85:
 365:Drivers/lvgl/src/misc/cache/class/lv_cache_sc_da.c ****         lv_memcpy(da_entry_to_remove, last_da_entry, entry_size);
 942              		.loc 1 365 5 is_stmt 1 view .LVU290
 365:Drivers/lvgl/src/misc/cache/class/lv_cache_sc_da.c ****         lv_memcpy(da_entry_to_remove, last_da_entry, entry_size);
 943              		.loc 1 365 27 is_stmt 0 view .LVU291
 944 0034 0199     		ldr	r1, [sp, #4]
 365:Drivers/lvgl/src/misc/cache/class/lv_cache_sc_da.c ****         lv_memcpy(da_entry_to_remove, last_da_entry, entry_size);
 945              		.loc 1 365 7 view .LVU292
 946 0036 B142     		cmp	r1, r6
 947 0038 03D0     		beq	.L84
 366:Drivers/lvgl/src/misc/cache/class/lv_cache_sc_da.c ****     }
 948              		.loc 1 366 9 is_stmt 1 view .LVU293
 949 003a 3A46     		mov	r2, r7
 950 003c 3046     		mov	r0, r6
 951 003e FFF7FEFF 		bl	lv_memcpy
 952              	.LVL86:
 953              	.L84:
 368:Drivers/lvgl/src/misc/cache/class/lv_cache_sc_da.c ****     cache->size -= 1;
 954              		.loc 1 368 5 view .LVU294
 368:Drivers/lvgl/src/misc/cache/class/lv_cache_sc_da.c ****     cache->size -= 1;
 955              		.loc 1 368 15 is_stmt 0 view .LVU295
 956 0042 A369     		ldr	r3, [r4, #24]
 368:Drivers/lvgl/src/misc/cache/class/lv_cache_sc_da.c ****     cache->size -= 1;
 957              		.loc 1 368 5 view .LVU296
 958 0044 2946     		mov	r1, r5
 959 0046 3046     		mov	r0, r6
 960 0048 9847     		blx	r3
 961              	.LVL87:
 369:Drivers/lvgl/src/misc/cache/class/lv_cache_sc_da.c **** }
 962              		.loc 1 369 5 is_stmt 1 view .LVU297
 369:Drivers/lvgl/src/misc/cache/class/lv_cache_sc_da.c **** }
 963              		.loc 1 369 10 is_stmt 0 view .LVU298
 964 004a E368     		ldr	r3, [r4, #12]
 369:Drivers/lvgl/src/misc/cache/class/lv_cache_sc_da.c **** }
 965              		.loc 1 369 17 view .LVU299
 966 004c 013B     		subs	r3, r3, #1
 967 004e E360     		str	r3, [r4, #12]
 968              	.LVL88:
 969              	.L77:
 370:Drivers/lvgl/src/misc/cache/class/lv_cache_sc_da.c **** 
 970              		.loc 1 370 1 view .LVU300
 971 0050 03B0     		add	sp, sp, #12
 972              	.LCFI24:
 973              		.cfi_def_cfa_offset 20
 974              		@ sp needed
 975 0052 F0BD     		pop	{r4, r5, r6, r7, pc}
ARM GAS  /var/folders/qx/2_175_4n2s19vhvtspjhb3qh0000gn/T//cclDKaGf.s 			page 31


 976              	.LVL89:
 977              	.L79:
 978              	.LCFI25:
 979              		.cfi_def_cfa_offset 0
 980              		.cfi_restore 4
 981              		.cfi_restore 5
 982              		.cfi_restore 6
 983              		.cfi_restore 7
 984              		.cfi_restore 14
 347:Drivers/lvgl/src/misc/cache/class/lv_cache_sc_da.c ****     LV_ASSERT_NULL(key);
 985              		.loc 1 347 5 is_stmt 1 view .LVU301
 347:Drivers/lvgl/src/misc/cache/class/lv_cache_sc_da.c ****     LV_ASSERT_NULL(key);
 986              		.loc 1 347 5 view .LVU302
 347:Drivers/lvgl/src/misc/cache/class/lv_cache_sc_da.c ****     LV_ASSERT_NULL(key);
 987              		.loc 1 347 5 view .LVU303
 347:Drivers/lvgl/src/misc/cache/class/lv_cache_sc_da.c ****     LV_ASSERT_NULL(key);
 988              		.loc 1 347 5 view .LVU304
 347:Drivers/lvgl/src/misc/cache/class/lv_cache_sc_da.c ****     LV_ASSERT_NULL(key);
 989              		.loc 1 347 5 view .LVU305
 990 0054 FEE7     		b	.L79
 991              	.L81:
 992              	.LCFI26:
 993              		.cfi_def_cfa_offset 32
 994              		.cfi_offset 4, -20
 995              		.cfi_offset 5, -16
 996              		.cfi_offset 6, -12
 997              		.cfi_offset 7, -8
 998              		.cfi_offset 14, -4
 348:Drivers/lvgl/src/misc/cache/class/lv_cache_sc_da.c **** 
 999              		.loc 1 348 5 view .LVU306
 348:Drivers/lvgl/src/misc/cache/class/lv_cache_sc_da.c **** 
 1000              		.loc 1 348 5 view .LVU307
 348:Drivers/lvgl/src/misc/cache/class/lv_cache_sc_da.c **** 
 1001              		.loc 1 348 5 view .LVU308
 348:Drivers/lvgl/src/misc/cache/class/lv_cache_sc_da.c **** 
 1002              		.loc 1 348 5 view .LVU309
 348:Drivers/lvgl/src/misc/cache/class/lv_cache_sc_da.c **** 
 1003              		.loc 1 348 5 view .LVU310
 1004 0056 FEE7     		b	.L81
 1005              		.cfi_endproc
 1006              	.LFE25:
 1008              		.section	.text.remove_cb,"ax",%progbits
 1009              		.align	1
 1010              		.syntax unified
 1011              		.thumb
 1012              		.thumb_func
 1014              	remove_cb:
 1015              	.LVL90:
 1016              	.LFB24:
 318:Drivers/lvgl/src/misc/cache/class/lv_cache_sc_da.c ****     LV_UNUSED(user_data);
 1017              		.loc 1 318 1 view -0
 1018              		.cfi_startproc
 1019              		@ args = 0, pretend = 0, frame = 8
 1020              		@ frame_needed = 0, uses_anonymous_args = 0
 319:Drivers/lvgl/src/misc/cache/class/lv_cache_sc_da.c **** 
 1021              		.loc 1 319 5 view .LVU312
 321:Drivers/lvgl/src/misc/cache/class/lv_cache_sc_da.c **** 
ARM GAS  /var/folders/qx/2_175_4n2s19vhvtspjhb3qh0000gn/T//cclDKaGf.s 			page 32


 1022              		.loc 1 321 5 view .LVU313
 323:Drivers/lvgl/src/misc/cache/class/lv_cache_sc_da.c ****     LV_ASSERT_NULL(entry);
 1023              		.loc 1 323 5 view .LVU314
 323:Drivers/lvgl/src/misc/cache/class/lv_cache_sc_da.c ****     LV_ASSERT_NULL(entry);
 1024              		.loc 1 323 5 view .LVU315
 1025 0000 F8B1     		cbz	r0, .L89
 318:Drivers/lvgl/src/misc/cache/class/lv_cache_sc_da.c ****     LV_UNUSED(user_data);
 1026              		.loc 1 318 1 is_stmt 0 view .LVU316
 1027 0002 70B5     		push	{r4, r5, r6, lr}
 1028              	.LCFI27:
 1029              		.cfi_def_cfa_offset 16
 1030              		.cfi_offset 4, -16
 1031              		.cfi_offset 5, -12
 1032              		.cfi_offset 6, -8
 1033              		.cfi_offset 14, -4
 1034 0004 82B0     		sub	sp, sp, #8
 1035              	.LCFI28:
 1036              		.cfi_def_cfa_offset 24
 1037 0006 0C46     		mov	r4, r1
 1038 0008 0546     		mov	r5, r0
 323:Drivers/lvgl/src/misc/cache/class/lv_cache_sc_da.c ****     LV_ASSERT_NULL(entry);
 1039              		.loc 1 323 5 is_stmt 1 view .LVU317
 323:Drivers/lvgl/src/misc/cache/class/lv_cache_sc_da.c ****     LV_ASSERT_NULL(entry);
 1040              		.loc 1 323 23 view .LVU318
 324:Drivers/lvgl/src/misc/cache/class/lv_cache_sc_da.c **** 
 1041              		.loc 1 324 5 view .LVU319
 324:Drivers/lvgl/src/misc/cache/class/lv_cache_sc_da.c **** 
 1042              		.loc 1 324 5 view .LVU320
 1043 000a D9B1     		cbz	r1, .L91
 324:Drivers/lvgl/src/misc/cache/class/lv_cache_sc_da.c **** 
 1044              		.loc 1 324 5 view .LVU321
 324:Drivers/lvgl/src/misc/cache/class/lv_cache_sc_da.c **** 
 1045              		.loc 1 324 26 view .LVU322
 326:Drivers/lvgl/src/misc/cache/class/lv_cache_sc_da.c ****         return;
 1046              		.loc 1 326 5 view .LVU323
 330:Drivers/lvgl/src/misc/cache/class/lv_cache_sc_da.c ****     uint8_t * da_entry_to_remove = (uint8_t *)lv_cache_entry_get_data(entry);
 1047              		.loc 1 330 5 view .LVU324
 330:Drivers/lvgl/src/misc/cache/class/lv_cache_sc_da.c ****     uint8_t * da_entry_to_remove = (uint8_t *)lv_cache_entry_get_data(entry);
 1048              		.loc 1 330 31 is_stmt 0 view .LVU325
 1049 000c 4068     		ldr	r0, [r0, #4]
 1050              	.LVL91:
 330:Drivers/lvgl/src/misc/cache/class/lv_cache_sc_da.c ****     uint8_t * da_entry_to_remove = (uint8_t *)lv_cache_entry_get_data(entry);
 1051              		.loc 1 330 31 view .LVU326
 1052 000e FFF7FEFF 		bl	lv_cache_entry_get_size
 1053              	.LVL92:
 330:Drivers/lvgl/src/misc/cache/class/lv_cache_sc_da.c ****     uint8_t * da_entry_to_remove = (uint8_t *)lv_cache_entry_get_data(entry);
 1054              		.loc 1 330 31 view .LVU327
 1055 0012 0646     		mov	r6, r0
 1056              	.LVL93:
 331:Drivers/lvgl/src/misc/cache/class/lv_cache_sc_da.c **** 
 1057              		.loc 1 331 5 is_stmt 1 view .LVU328
 331:Drivers/lvgl/src/misc/cache/class/lv_cache_sc_da.c **** 
 1058              		.loc 1 331 47 is_stmt 0 view .LVU329
 1059 0014 2046     		mov	r0, r4
 1060              	.LVL94:
 331:Drivers/lvgl/src/misc/cache/class/lv_cache_sc_da.c **** 
 1061              		.loc 1 331 47 view .LVU330
ARM GAS  /var/folders/qx/2_175_4n2s19vhvtspjhb3qh0000gn/T//cclDKaGf.s 			page 33


 1062 0016 FFF7FEFF 		bl	lv_cache_entry_get_data
 1063              	.LVL95:
 1064 001a 0446     		mov	r4, r0
 1065              	.LVL96:
 333:Drivers/lvgl/src/misc/cache/class/lv_cache_sc_da.c ****     lv_cache_entry_t * last_cache_entry;
 1066              		.loc 1 333 5 is_stmt 1 view .LVU331
 334:Drivers/lvgl/src/misc/cache/class/lv_cache_sc_da.c ****     get_entry(da, cache->size - 1, &last_da_entry, &last_cache_entry);
 1067              		.loc 1 334 5 view .LVU332
 335:Drivers/lvgl/src/misc/cache/class/lv_cache_sc_da.c **** 
 1068              		.loc 1 335 5 view .LVU333
 335:Drivers/lvgl/src/misc/cache/class/lv_cache_sc_da.c **** 
 1069              		.loc 1 335 24 is_stmt 0 view .LVU334
 1070 001c E968     		ldr	r1, [r5, #12]
 335:Drivers/lvgl/src/misc/cache/class/lv_cache_sc_da.c **** 
 1071              		.loc 1 335 5 view .LVU335
 1072 001e 6B46     		mov	r3, sp
 1073 0020 01AA     		add	r2, sp, #4
 1074 0022 0139     		subs	r1, r1, #1
 1075 0024 2846     		mov	r0, r5
 1076              	.LVL97:
 335:Drivers/lvgl/src/misc/cache/class/lv_cache_sc_da.c **** 
 1077              		.loc 1 335 5 view .LVU336
 1078 0026 FFF7FEFF 		bl	get_entry
 1079              	.LVL98:
 337:Drivers/lvgl/src/misc/cache/class/lv_cache_sc_da.c ****         lv_memcpy(da_entry_to_remove, last_da_entry, entry_size);
 1080              		.loc 1 337 5 is_stmt 1 view .LVU337
 337:Drivers/lvgl/src/misc/cache/class/lv_cache_sc_da.c ****         lv_memcpy(da_entry_to_remove, last_da_entry, entry_size);
 1081              		.loc 1 337 27 is_stmt 0 view .LVU338
 1082 002a 0199     		ldr	r1, [sp, #4]
 337:Drivers/lvgl/src/misc/cache/class/lv_cache_sc_da.c ****         lv_memcpy(da_entry_to_remove, last_da_entry, entry_size);
 1083              		.loc 1 337 7 view .LVU339
 1084 002c A142     		cmp	r1, r4
 1085 002e 03D0     		beq	.L92
 338:Drivers/lvgl/src/misc/cache/class/lv_cache_sc_da.c ****     }
 1086              		.loc 1 338 9 is_stmt 1 view .LVU340
 1087 0030 3246     		mov	r2, r6
 1088 0032 2046     		mov	r0, r4
 1089 0034 FFF7FEFF 		bl	lv_memcpy
 1090              	.LVL99:
 1091              	.L92:
 340:Drivers/lvgl/src/misc/cache/class/lv_cache_sc_da.c **** }
 1092              		.loc 1 340 5 view .LVU341
 340:Drivers/lvgl/src/misc/cache/class/lv_cache_sc_da.c **** }
 1093              		.loc 1 340 10 is_stmt 0 view .LVU342
 1094 0038 EB68     		ldr	r3, [r5, #12]
 340:Drivers/lvgl/src/misc/cache/class/lv_cache_sc_da.c **** }
 1095              		.loc 1 340 17 view .LVU343
 1096 003a 013B     		subs	r3, r3, #1
 1097 003c EB60     		str	r3, [r5, #12]
 341:Drivers/lvgl/src/misc/cache/class/lv_cache_sc_da.c **** 
 1098              		.loc 1 341 1 view .LVU344
 1099 003e 02B0     		add	sp, sp, #8
 1100              	.LCFI29:
 1101              		.cfi_def_cfa_offset 16
 1102              		@ sp needed
 1103 0040 70BD     		pop	{r4, r5, r6, pc}
 1104              	.LVL100:
ARM GAS  /var/folders/qx/2_175_4n2s19vhvtspjhb3qh0000gn/T//cclDKaGf.s 			page 34


 1105              	.L89:
 1106              	.LCFI30:
 1107              		.cfi_def_cfa_offset 0
 1108              		.cfi_restore 4
 1109              		.cfi_restore 5
 1110              		.cfi_restore 6
 1111              		.cfi_restore 14
 323:Drivers/lvgl/src/misc/cache/class/lv_cache_sc_da.c ****     LV_ASSERT_NULL(entry);
 1112              		.loc 1 323 5 is_stmt 1 view .LVU345
 323:Drivers/lvgl/src/misc/cache/class/lv_cache_sc_da.c ****     LV_ASSERT_NULL(entry);
 1113              		.loc 1 323 5 view .LVU346
 323:Drivers/lvgl/src/misc/cache/class/lv_cache_sc_da.c ****     LV_ASSERT_NULL(entry);
 1114              		.loc 1 323 5 view .LVU347
 323:Drivers/lvgl/src/misc/cache/class/lv_cache_sc_da.c ****     LV_ASSERT_NULL(entry);
 1115              		.loc 1 323 5 view .LVU348
 323:Drivers/lvgl/src/misc/cache/class/lv_cache_sc_da.c ****     LV_ASSERT_NULL(entry);
 1116              		.loc 1 323 5 view .LVU349
 1117 0042 FEE7     		b	.L89
 1118              	.L91:
 1119              	.LCFI31:
 1120              		.cfi_def_cfa_offset 24
 1121              		.cfi_offset 4, -16
 1122              		.cfi_offset 5, -12
 1123              		.cfi_offset 6, -8
 1124              		.cfi_offset 14, -4
 324:Drivers/lvgl/src/misc/cache/class/lv_cache_sc_da.c **** 
 1125              		.loc 1 324 5 view .LVU350
 324:Drivers/lvgl/src/misc/cache/class/lv_cache_sc_da.c **** 
 1126              		.loc 1 324 5 view .LVU351
 324:Drivers/lvgl/src/misc/cache/class/lv_cache_sc_da.c **** 
 1127              		.loc 1 324 5 view .LVU352
 324:Drivers/lvgl/src/misc/cache/class/lv_cache_sc_da.c **** 
 1128              		.loc 1 324 5 view .LVU353
 324:Drivers/lvgl/src/misc/cache/class/lv_cache_sc_da.c **** 
 1129              		.loc 1 324 5 view .LVU354
 1130 0044 FEE7     		b	.L91
 1131              		.cfi_endproc
 1132              	.LFE24:
 1134              		.section	.text.alloc_new_entry,"ax",%progbits
 1135              		.align	1
 1136              		.syntax unified
 1137              		.thumb
 1138              		.thumb_func
 1140              	alloc_new_entry:
 1141              	.LVL101:
 1142              	.LFB18:
 182:Drivers/lvgl/src/misc/cache/class/lv_cache_sc_da.c ****     LV_UNUSED(user_data);
 1143              		.loc 1 182 1 view -0
 1144              		.cfi_startproc
 1145              		@ args = 0, pretend = 0, frame = 8
 1146              		@ frame_needed = 0, uses_anonymous_args = 0
 183:Drivers/lvgl/src/misc/cache/class/lv_cache_sc_da.c **** 
 1147              		.loc 1 183 5 view .LVU356
 185:Drivers/lvgl/src/misc/cache/class/lv_cache_sc_da.c ****     LV_ASSERT_NULL(key);
 1148              		.loc 1 185 5 view .LVU357
 185:Drivers/lvgl/src/misc/cache/class/lv_cache_sc_da.c ****     LV_ASSERT_NULL(key);
 1149              		.loc 1 185 5 view .LVU358
ARM GAS  /var/folders/qx/2_175_4n2s19vhvtspjhb3qh0000gn/T//cclDKaGf.s 			page 35


 1150 0000 0028     		cmp	r0, #0
 1151 0002 37D0     		beq	.L97
 182:Drivers/lvgl/src/misc/cache/class/lv_cache_sc_da.c ****     LV_UNUSED(user_data);
 1152              		.loc 1 182 1 is_stmt 0 view .LVU359
 1153 0004 70B5     		push	{r4, r5, r6, lr}
 1154              	.LCFI32:
 1155              		.cfi_def_cfa_offset 16
 1156              		.cfi_offset 4, -16
 1157              		.cfi_offset 5, -12
 1158              		.cfi_offset 6, -8
 1159              		.cfi_offset 14, -4
 1160 0006 82B0     		sub	sp, sp, #8
 1161              	.LCFI33:
 1162              		.cfi_def_cfa_offset 24
 1163 0008 0D46     		mov	r5, r1
 1164 000a 0446     		mov	r4, r0
 185:Drivers/lvgl/src/misc/cache/class/lv_cache_sc_da.c ****     LV_ASSERT_NULL(key);
 1165              		.loc 1 185 5 is_stmt 1 view .LVU360
 185:Drivers/lvgl/src/misc/cache/class/lv_cache_sc_da.c ****     LV_ASSERT_NULL(key);
 1166              		.loc 1 185 23 view .LVU361
 186:Drivers/lvgl/src/misc/cache/class/lv_cache_sc_da.c **** 
 1167              		.loc 1 186 5 view .LVU362
 186:Drivers/lvgl/src/misc/cache/class/lv_cache_sc_da.c **** 
 1168              		.loc 1 186 5 view .LVU363
 1169 000c 0029     		cmp	r1, #0
 1170 000e 32D0     		beq	.L99
 186:Drivers/lvgl/src/misc/cache/class/lv_cache_sc_da.c **** 
 1171              		.loc 1 186 5 view .LVU364
 186:Drivers/lvgl/src/misc/cache/class/lv_cache_sc_da.c **** 
 1172              		.loc 1 186 24 view .LVU365
 188:Drivers/lvgl/src/misc/cache/class/lv_cache_sc_da.c ****         return NULL;
 1173              		.loc 1 188 5 view .LVU366
 191:Drivers/lvgl/src/misc/cache/class/lv_cache_sc_da.c **** 
 1174              		.loc 1 191 5 view .LVU367
 191:Drivers/lvgl/src/misc/cache/class/lv_cache_sc_da.c **** 
 1175              		.loc 1 191 30 is_stmt 0 view .LVU368
 1176 0010 4068     		ldr	r0, [r0, #4]
 1177              	.LVL102:
 191:Drivers/lvgl/src/misc/cache/class/lv_cache_sc_da.c **** 
 1178              		.loc 1 191 30 view .LVU369
 1179 0012 FFF7FEFF 		bl	lv_cache_entry_get_size
 1180              	.LVL103:
 193:Drivers/lvgl/src/misc/cache/class/lv_cache_sc_da.c ****         if(da->capacity == da->cache.max_size) {
 1181              		.loc 1 193 5 is_stmt 1 view .LVU370
 193:Drivers/lvgl/src/misc/cache/class/lv_cache_sc_da.c ****         if(da->capacity == da->cache.max_size) {
 1182              		.loc 1 193 10 is_stmt 0 view .LVU371
 1183 0016 A66A     		ldr	r6, [r4, #40]
 193:Drivers/lvgl/src/misc/cache/class/lv_cache_sc_da.c ****         if(da->capacity == da->cache.max_size) {
 1184              		.loc 1 193 33 view .LVU372
 1185 0018 E268     		ldr	r2, [r4, #12]
 193:Drivers/lvgl/src/misc/cache/class/lv_cache_sc_da.c ****         if(da->capacity == da->cache.max_size) {
 1186              		.loc 1 193 7 view .LVU373
 1187 001a 9642     		cmp	r6, r2
 1188 001c 0FD1     		bne	.L100
 1189              	.LBB31:
 194:Drivers/lvgl/src/misc/cache/class/lv_cache_sc_da.c ****             LV_LOG_ERROR(
 1190              		.loc 1 194 9 is_stmt 1 view .LVU374
ARM GAS  /var/folders/qx/2_175_4n2s19vhvtspjhb3qh0000gn/T//cclDKaGf.s 			page 36


 194:Drivers/lvgl/src/misc/cache/class/lv_cache_sc_da.c ****             LV_LOG_ERROR(
 1191              		.loc 1 194 37 is_stmt 0 view .LVU375
 1192 001e A268     		ldr	r2, [r4, #8]
 194:Drivers/lvgl/src/misc/cache/class/lv_cache_sc_da.c ****             LV_LOG_ERROR(
 1193              		.loc 1 194 11 view .LVU376
 1194 0020 9642     		cmp	r6, r2
 1195 0022 2BD0     		beq	.L103
 200:Drivers/lvgl/src/misc/cache/class/lv_cache_sc_da.c ****             LV_MIN(da->capacity == 0 ? 1 : da->capacity * 2,
 1196              		.loc 1 200 9 is_stmt 1 view .LVU377
 201:Drivers/lvgl/src/misc/cache/class/lv_cache_sc_da.c ****                    da->cache.max_size);
 1197              		.loc 1 201 13 is_stmt 0 view .LVU378
 1198 0024 46B3     		cbz	r6, .L104
 201:Drivers/lvgl/src/misc/cache/class/lv_cache_sc_da.c ****                    da->cache.max_size);
 1199              		.loc 1 201 13 discriminator 1 view .LVU379
 1200 0026 7600     		lsls	r6, r6, #1
 1201              	.L102:
 200:Drivers/lvgl/src/misc/cache/class/lv_cache_sc_da.c ****             LV_MIN(da->capacity == 0 ? 1 : da->capacity * 2,
 1202              		.loc 1 200 22 view .LVU380
 1203 0028 9642     		cmp	r6, r2
 1204 002a 28BF     		it	cs
 1205 002c 1646     		movcs	r6, r2
 1206              	.LVL104:
 204:Drivers/lvgl/src/misc/cache/class/lv_cache_sc_da.c ****                                  da->data, new_capacity * node_size);
 1207              		.loc 1 204 9 is_stmt 1 view .LVU381
 204:Drivers/lvgl/src/misc/cache/class/lv_cache_sc_da.c ****                                  da->data, new_capacity * node_size);
 1208              		.loc 1 204 41 is_stmt 0 view .LVU382
 1209 002e 06FB00F1 		mul	r1, r6, r0
 1210 0032 606A     		ldr	r0, [r4, #36]
 1211              	.LVL105:
 204:Drivers/lvgl/src/misc/cache/class/lv_cache_sc_da.c ****                                  da->data, new_capacity * node_size);
 1212              		.loc 1 204 41 view .LVU383
 1213 0034 FFF7FEFF 		bl	lv_realloc
 1214              	.LVL106:
 207:Drivers/lvgl/src/misc/cache/class/lv_cache_sc_da.c ****             LV_LOG_ERROR("Failed to allocate new data for cache");
 1215              		.loc 1 207 9 is_stmt 1 view .LVU384
 207:Drivers/lvgl/src/misc/cache/class/lv_cache_sc_da.c ****             LV_LOG_ERROR("Failed to allocate new data for cache");
 1216              		.loc 1 207 11 is_stmt 0 view .LVU385
 1217 0038 D0B1     		cbz	r0, .L95
 212:Drivers/lvgl/src/misc/cache/class/lv_cache_sc_da.c ****         da->capacity = new_capacity;
 1218              		.loc 1 212 9 is_stmt 1 view .LVU386
 212:Drivers/lvgl/src/misc/cache/class/lv_cache_sc_da.c ****         da->capacity = new_capacity;
 1219              		.loc 1 212 18 is_stmt 0 view .LVU387
 1220 003a 6062     		str	r0, [r4, #36]
 213:Drivers/lvgl/src/misc/cache/class/lv_cache_sc_da.c ****     }
 1221              		.loc 1 213 9 is_stmt 1 view .LVU388
 213:Drivers/lvgl/src/misc/cache/class/lv_cache_sc_da.c ****     }
 1222              		.loc 1 213 22 is_stmt 0 view .LVU389
 1223 003c A662     		str	r6, [r4, #40]
 1224              	.LVL107:
 1225              	.L100:
 213:Drivers/lvgl/src/misc/cache/class/lv_cache_sc_da.c ****     }
 1226              		.loc 1 213 22 view .LVU390
 1227              	.LBE31:
 215:Drivers/lvgl/src/misc/cache/class/lv_cache_sc_da.c ****     lv_cache_entry_t * last_cache_entry;
 1228              		.loc 1 215 5 is_stmt 1 view .LVU391
 216:Drivers/lvgl/src/misc/cache/class/lv_cache_sc_da.c **** 
 1229              		.loc 1 216 5 view .LVU392
ARM GAS  /var/folders/qx/2_175_4n2s19vhvtspjhb3qh0000gn/T//cclDKaGf.s 			page 37


 218:Drivers/lvgl/src/misc/cache/class/lv_cache_sc_da.c **** 
 1230              		.loc 1 218 5 view .LVU393
 1231 003e 6B46     		mov	r3, sp
 1232 0040 01AA     		add	r2, sp, #4
 1233 0042 E168     		ldr	r1, [r4, #12]
 1234 0044 2046     		mov	r0, r4
 1235 0046 FFF7FEFF 		bl	get_entry
 1236              	.LVL108:
 220:Drivers/lvgl/src/misc/cache/class/lv_cache_sc_da.c ****     lv_cache_entry_init(last_cache_entry, &da->cache, da->cache.node_size);
 1237              		.loc 1 220 5 view .LVU394
 1238 004a 6268     		ldr	r2, [r4, #4]
 1239 004c 2946     		mov	r1, r5
 1240 004e 0198     		ldr	r0, [sp, #4]
 1241 0050 FFF7FEFF 		bl	lv_memcpy
 1242              	.LVL109:
 221:Drivers/lvgl/src/misc/cache/class/lv_cache_sc_da.c ****     lv_cache_entry_set_flag(last_cache_entry, LV_CACHE_ENTRY_FLAG_DISABLE_DELETE);
 1243              		.loc 1 221 5 view .LVU395
 1244 0054 6268     		ldr	r2, [r4, #4]
 1245 0056 2146     		mov	r1, r4
 1246 0058 0098     		ldr	r0, [sp]
 1247 005a FFF7FEFF 		bl	lv_cache_entry_init
 1248              	.LVL110:
 222:Drivers/lvgl/src/misc/cache/class/lv_cache_sc_da.c **** 
 1249              		.loc 1 222 5 view .LVU396
 1250 005e 0221     		movs	r1, #2
 1251 0060 0098     		ldr	r0, [sp]
 1252 0062 FFF7FEFF 		bl	lv_cache_entry_set_flag
 1253              	.LVL111:
 225:Drivers/lvgl/src/misc/cache/class/lv_cache_sc_da.c ****     return last_cache_entry;
 1254              		.loc 1 225 5 view .LVU397
 1255              	.LBB32:
 1256              	.LBI32:
 165:Drivers/lvgl/src/misc/cache/class/lv_cache_sc_da.c **** {
 1257              		.loc 1 165 20 view .LVU398
 1258              	.LBB33:
 167:Drivers/lvgl/src/misc/cache/class/lv_cache_sc_da.c ****         lv_cache_entry_set_flag(entry, LV_CACHE_ENTRY_FLAG_CLASS_CUSTOM);
 1259              		.loc 1 167 5 view .LVU399
 168:Drivers/lvgl/src/misc/cache/class/lv_cache_sc_da.c ****     }
 1260              		.loc 1 168 9 view .LVU400
 1261 0066 8021     		movs	r1, #128
 1262 0068 0098     		ldr	r0, [sp]
 1263 006a FFF7FEFF 		bl	lv_cache_entry_set_flag
 1264              	.LVL112:
 168:Drivers/lvgl/src/misc/cache/class/lv_cache_sc_da.c ****     }
 1265              		.loc 1 168 9 is_stmt 0 view .LVU401
 1266              	.LBE33:
 1267              	.LBE32:
 226:Drivers/lvgl/src/misc/cache/class/lv_cache_sc_da.c **** }
 1268              		.loc 1 226 5 is_stmt 1 view .LVU402
 226:Drivers/lvgl/src/misc/cache/class/lv_cache_sc_da.c **** }
 1269              		.loc 1 226 12 is_stmt 0 view .LVU403
 1270 006e 0098     		ldr	r0, [sp]
 1271              	.L95:
 227:Drivers/lvgl/src/misc/cache/class/lv_cache_sc_da.c **** 
 1272              		.loc 1 227 1 view .LVU404
 1273 0070 02B0     		add	sp, sp, #8
 1274              	.LCFI34:
ARM GAS  /var/folders/qx/2_175_4n2s19vhvtspjhb3qh0000gn/T//cclDKaGf.s 			page 38


 1275              		.cfi_def_cfa_offset 16
 1276              		@ sp needed
 1277 0072 70BD     		pop	{r4, r5, r6, pc}
 1278              	.LVL113:
 1279              	.L97:
 1280              	.LCFI35:
 1281              		.cfi_def_cfa_offset 0
 1282              		.cfi_restore 4
 1283              		.cfi_restore 5
 1284              		.cfi_restore 6
 1285              		.cfi_restore 14
 185:Drivers/lvgl/src/misc/cache/class/lv_cache_sc_da.c ****     LV_ASSERT_NULL(key);
 1286              		.loc 1 185 5 is_stmt 1 view .LVU405
 185:Drivers/lvgl/src/misc/cache/class/lv_cache_sc_da.c ****     LV_ASSERT_NULL(key);
 1287              		.loc 1 185 5 view .LVU406
 185:Drivers/lvgl/src/misc/cache/class/lv_cache_sc_da.c ****     LV_ASSERT_NULL(key);
 1288              		.loc 1 185 5 view .LVU407
 185:Drivers/lvgl/src/misc/cache/class/lv_cache_sc_da.c ****     LV_ASSERT_NULL(key);
 1289              		.loc 1 185 5 view .LVU408
 185:Drivers/lvgl/src/misc/cache/class/lv_cache_sc_da.c ****     LV_ASSERT_NULL(key);
 1290              		.loc 1 185 5 view .LVU409
 1291 0074 FEE7     		b	.L97
 1292              	.L99:
 1293              	.LCFI36:
 1294              		.cfi_def_cfa_offset 24
 1295              		.cfi_offset 4, -16
 1296              		.cfi_offset 5, -12
 1297              		.cfi_offset 6, -8
 1298              		.cfi_offset 14, -4
 186:Drivers/lvgl/src/misc/cache/class/lv_cache_sc_da.c **** 
 1299              		.loc 1 186 5 view .LVU410
 186:Drivers/lvgl/src/misc/cache/class/lv_cache_sc_da.c **** 
 1300              		.loc 1 186 5 view .LVU411
 186:Drivers/lvgl/src/misc/cache/class/lv_cache_sc_da.c **** 
 1301              		.loc 1 186 5 view .LVU412
 186:Drivers/lvgl/src/misc/cache/class/lv_cache_sc_da.c **** 
 1302              		.loc 1 186 5 view .LVU413
 186:Drivers/lvgl/src/misc/cache/class/lv_cache_sc_da.c **** 
 1303              		.loc 1 186 5 view .LVU414
 1304 0076 FEE7     		b	.L99
 1305              	.LVL114:
 1306              	.L104:
 1307              	.LBB34:
 201:Drivers/lvgl/src/misc/cache/class/lv_cache_sc_da.c ****                    da->cache.max_size);
 1308              		.loc 1 201 13 is_stmt 0 discriminator 2 view .LVU415
 1309 0078 0126     		movs	r6, #1
 1310 007a D5E7     		b	.L102
 1311              	.L103:
 197:Drivers/lvgl/src/misc/cache/class/lv_cache_sc_da.c ****         }
 1312              		.loc 1 197 20 view .LVU416
 1313 007c 0020     		movs	r0, #0
 1314              	.LVL115:
 197:Drivers/lvgl/src/misc/cache/class/lv_cache_sc_da.c ****         }
 1315              		.loc 1 197 20 view .LVU417
 1316 007e F7E7     		b	.L95
 1317              	.LBE34:
 1318              		.cfi_endproc
ARM GAS  /var/folders/qx/2_175_4n2s19vhvtspjhb3qh0000gn/T//cclDKaGf.s 			page 39


 1319              	.LFE18:
 1321              		.section	.text.add_cb,"ax",%progbits
 1322              		.align	1
 1323              		.syntax unified
 1324              		.thumb
 1325              		.thumb_func
 1327              	add_cb:
 1328              	.LVL116:
 1329              	.LFB23:
 294:Drivers/lvgl/src/misc/cache/class/lv_cache_sc_da.c ****     LV_UNUSED(user_data);
 1330              		.loc 1 294 1 is_stmt 1 view -0
 1331              		.cfi_startproc
 1332              		@ args = 0, pretend = 0, frame = 0
 1333              		@ frame_needed = 0, uses_anonymous_args = 0
 295:Drivers/lvgl/src/misc/cache/class/lv_cache_sc_da.c **** 
 1334              		.loc 1 295 5 view .LVU419
 297:Drivers/lvgl/src/misc/cache/class/lv_cache_sc_da.c **** 
 1335              		.loc 1 297 5 view .LVU420
 299:Drivers/lvgl/src/misc/cache/class/lv_cache_sc_da.c ****     LV_ASSERT_NULL(key);
 1336              		.loc 1 299 5 view .LVU421
 299:Drivers/lvgl/src/misc/cache/class/lv_cache_sc_da.c ****     LV_ASSERT_NULL(key);
 1337              		.loc 1 299 5 view .LVU422
 1338 0000 48B1     		cbz	r0, .L109
 294:Drivers/lvgl/src/misc/cache/class/lv_cache_sc_da.c ****     LV_UNUSED(user_data);
 1339              		.loc 1 294 1 is_stmt 0 view .LVU423
 1340 0002 10B5     		push	{r4, lr}
 1341              	.LCFI37:
 1342              		.cfi_def_cfa_offset 8
 1343              		.cfi_offset 4, -8
 1344              		.cfi_offset 14, -4
 1345 0004 0446     		mov	r4, r0
 299:Drivers/lvgl/src/misc/cache/class/lv_cache_sc_da.c ****     LV_ASSERT_NULL(key);
 1346              		.loc 1 299 5 is_stmt 1 view .LVU424
 299:Drivers/lvgl/src/misc/cache/class/lv_cache_sc_da.c ****     LV_ASSERT_NULL(key);
 1347              		.loc 1 299 23 view .LVU425
 300:Drivers/lvgl/src/misc/cache/class/lv_cache_sc_da.c **** 
 1348              		.loc 1 300 5 view .LVU426
 300:Drivers/lvgl/src/misc/cache/class/lv_cache_sc_da.c **** 
 1349              		.loc 1 300 5 view .LVU427
 1350 0006 39B1     		cbz	r1, .L111
 300:Drivers/lvgl/src/misc/cache/class/lv_cache_sc_da.c **** 
 1351              		.loc 1 300 5 view .LVU428
 300:Drivers/lvgl/src/misc/cache/class/lv_cache_sc_da.c **** 
 1352              		.loc 1 300 24 view .LVU429
 302:Drivers/lvgl/src/misc/cache/class/lv_cache_sc_da.c ****         return NULL;
 1353              		.loc 1 302 5 view .LVU430
 306:Drivers/lvgl/src/misc/cache/class/lv_cache_sc_da.c ****     if(entry == NULL) {
 1354              		.loc 1 306 5 view .LVU431
 306:Drivers/lvgl/src/misc/cache/class/lv_cache_sc_da.c ****     if(entry == NULL) {
 1355              		.loc 1 306 32 is_stmt 0 view .LVU432
 1356 0008 FFF7FEFF 		bl	alloc_new_entry
 1357              	.LVL117:
 307:Drivers/lvgl/src/misc/cache/class/lv_cache_sc_da.c ****         return NULL;
 1358              		.loc 1 307 5 is_stmt 1 view .LVU433
 307:Drivers/lvgl/src/misc/cache/class/lv_cache_sc_da.c ****         return NULL;
 1359              		.loc 1 307 7 is_stmt 0 view .LVU434
 1360 000c 10B1     		cbz	r0, .L107
ARM GAS  /var/folders/qx/2_175_4n2s19vhvtspjhb3qh0000gn/T//cclDKaGf.s 			page 40


 311:Drivers/lvgl/src/misc/cache/class/lv_cache_sc_da.c **** 
 1361              		.loc 1 311 5 is_stmt 1 view .LVU435
 311:Drivers/lvgl/src/misc/cache/class/lv_cache_sc_da.c **** 
 1362              		.loc 1 311 10 is_stmt 0 view .LVU436
 1363 000e E368     		ldr	r3, [r4, #12]
 311:Drivers/lvgl/src/misc/cache/class/lv_cache_sc_da.c **** 
 1364              		.loc 1 311 17 view .LVU437
 1365 0010 0133     		adds	r3, r3, #1
 1366 0012 E360     		str	r3, [r4, #12]
 313:Drivers/lvgl/src/misc/cache/class/lv_cache_sc_da.c **** }
 1367              		.loc 1 313 5 is_stmt 1 view .LVU438
 1368              	.L107:
 314:Drivers/lvgl/src/misc/cache/class/lv_cache_sc_da.c **** 
 1369              		.loc 1 314 1 is_stmt 0 view .LVU439
 1370 0014 10BD     		pop	{r4, pc}
 1371              	.LVL118:
 1372              	.L109:
 1373              	.LCFI38:
 1374              		.cfi_def_cfa_offset 0
 1375              		.cfi_restore 4
 1376              		.cfi_restore 14
 299:Drivers/lvgl/src/misc/cache/class/lv_cache_sc_da.c ****     LV_ASSERT_NULL(key);
 1377              		.loc 1 299 5 is_stmt 1 view .LVU440
 299:Drivers/lvgl/src/misc/cache/class/lv_cache_sc_da.c ****     LV_ASSERT_NULL(key);
 1378              		.loc 1 299 5 view .LVU441
 299:Drivers/lvgl/src/misc/cache/class/lv_cache_sc_da.c ****     LV_ASSERT_NULL(key);
 1379              		.loc 1 299 5 view .LVU442
 299:Drivers/lvgl/src/misc/cache/class/lv_cache_sc_da.c ****     LV_ASSERT_NULL(key);
 1380              		.loc 1 299 5 view .LVU443
 299:Drivers/lvgl/src/misc/cache/class/lv_cache_sc_da.c ****     LV_ASSERT_NULL(key);
 1381              		.loc 1 299 5 view .LVU444
 1382 0016 FEE7     		b	.L109
 1383              	.L111:
 1384              	.LCFI39:
 1385              		.cfi_def_cfa_offset 8
 1386              		.cfi_offset 4, -8
 1387              		.cfi_offset 14, -4
 300:Drivers/lvgl/src/misc/cache/class/lv_cache_sc_da.c **** 
 1388              		.loc 1 300 5 view .LVU445
 300:Drivers/lvgl/src/misc/cache/class/lv_cache_sc_da.c **** 
 1389              		.loc 1 300 5 view .LVU446
 300:Drivers/lvgl/src/misc/cache/class/lv_cache_sc_da.c **** 
 1390              		.loc 1 300 5 view .LVU447
 300:Drivers/lvgl/src/misc/cache/class/lv_cache_sc_da.c **** 
 1391              		.loc 1 300 5 view .LVU448
 300:Drivers/lvgl/src/misc/cache/class/lv_cache_sc_da.c **** 
 1392              		.loc 1 300 5 view .LVU449
 1393 0018 FEE7     		b	.L111
 1394              		.cfi_endproc
 1395              	.LFE23:
 1397              		.section	.text.destroy_cb,"ax",%progbits
 1398              		.align	1
 1399              		.syntax unified
 1400              		.thumb
 1401              		.thumb_func
 1403              	destroy_cb:
 1404              	.LVL119:
ARM GAS  /var/folders/qx/2_175_4n2s19vhvtspjhb3qh0000gn/T//cclDKaGf.s 			page 41


 1405              	.LFB21:
 243:Drivers/lvgl/src/misc/cache/class/lv_cache_sc_da.c ****     LV_UNUSED(user_data);
 1406              		.loc 1 243 1 view -0
 1407              		.cfi_startproc
 1408              		@ args = 0, pretend = 0, frame = 0
 1409              		@ frame_needed = 0, uses_anonymous_args = 0
 244:Drivers/lvgl/src/misc/cache/class/lv_cache_sc_da.c **** 
 1410              		.loc 1 244 5 view .LVU451
 246:Drivers/lvgl/src/misc/cache/class/lv_cache_sc_da.c **** 
 1411              		.loc 1 246 5 view .LVU452
 248:Drivers/lvgl/src/misc/cache/class/lv_cache_sc_da.c **** 
 1412              		.loc 1 248 5 view .LVU453
 248:Drivers/lvgl/src/misc/cache/class/lv_cache_sc_da.c **** 
 1413              		.loc 1 248 5 view .LVU454
 1414 0000 60B1     		cbz	r0, .L117
 243:Drivers/lvgl/src/misc/cache/class/lv_cache_sc_da.c ****     LV_UNUSED(user_data);
 1415              		.loc 1 243 1 is_stmt 0 view .LVU455
 1416 0002 38B5     		push	{r3, r4, r5, lr}
 1417              	.LCFI40:
 1418              		.cfi_def_cfa_offset 16
 1419              		.cfi_offset 3, -16
 1420              		.cfi_offset 4, -12
 1421              		.cfi_offset 5, -8
 1422              		.cfi_offset 14, -4
 1423 0004 0446     		mov	r4, r0
 248:Drivers/lvgl/src/misc/cache/class/lv_cache_sc_da.c **** 
 1424              		.loc 1 248 5 is_stmt 1 view .LVU456
 248:Drivers/lvgl/src/misc/cache/class/lv_cache_sc_da.c **** 
 1425              		.loc 1 248 23 view .LVU457
 250:Drivers/lvgl/src/misc/cache/class/lv_cache_sc_da.c ****         return;
 1426              		.loc 1 250 5 view .LVU458
 254:Drivers/lvgl/src/misc/cache/class/lv_cache_sc_da.c ****     cache->size = 0;
 1427              		.loc 1 254 5 view .LVU459
 254:Drivers/lvgl/src/misc/cache/class/lv_cache_sc_da.c ****     cache->size = 0;
 1428              		.loc 1 254 10 is_stmt 0 view .LVU460
 1429 0006 0368     		ldr	r3, [r0]
 254:Drivers/lvgl/src/misc/cache/class/lv_cache_sc_da.c ****     cache->size = 0;
 1430              		.loc 1 254 15 view .LVU461
 1431 0008 DB69     		ldr	r3, [r3, #28]
 254:Drivers/lvgl/src/misc/cache/class/lv_cache_sc_da.c ****     cache->size = 0;
 1432              		.loc 1 254 5 view .LVU462
 1433 000a 9847     		blx	r3
 1434              	.LVL120:
 255:Drivers/lvgl/src/misc/cache/class/lv_cache_sc_da.c ****     lv_free(da->data);
 1435              		.loc 1 255 5 is_stmt 1 view .LVU463
 255:Drivers/lvgl/src/misc/cache/class/lv_cache_sc_da.c ****     lv_free(da->data);
 1436              		.loc 1 255 17 is_stmt 0 view .LVU464
 1437 000c 0025     		movs	r5, #0
 1438 000e E560     		str	r5, [r4, #12]
 256:Drivers/lvgl/src/misc/cache/class/lv_cache_sc_da.c ****     da->data = NULL;
 1439              		.loc 1 256 5 is_stmt 1 view .LVU465
 1440 0010 606A     		ldr	r0, [r4, #36]
 1441 0012 FFF7FEFF 		bl	lv_free
 1442              	.LVL121:
 257:Drivers/lvgl/src/misc/cache/class/lv_cache_sc_da.c ****     da->capacity = 0;
 1443              		.loc 1 257 5 view .LVU466
 257:Drivers/lvgl/src/misc/cache/class/lv_cache_sc_da.c ****     da->capacity = 0;
ARM GAS  /var/folders/qx/2_175_4n2s19vhvtspjhb3qh0000gn/T//cclDKaGf.s 			page 42


 1444              		.loc 1 257 14 is_stmt 0 view .LVU467
 1445 0016 6562     		str	r5, [r4, #36]
 258:Drivers/lvgl/src/misc/cache/class/lv_cache_sc_da.c **** }
 1446              		.loc 1 258 5 is_stmt 1 view .LVU468
 258:Drivers/lvgl/src/misc/cache/class/lv_cache_sc_da.c **** }
 1447              		.loc 1 258 18 is_stmt 0 view .LVU469
 1448 0018 A562     		str	r5, [r4, #40]
 259:Drivers/lvgl/src/misc/cache/class/lv_cache_sc_da.c **** 
 1449              		.loc 1 259 1 view .LVU470
 1450 001a 38BD     		pop	{r3, r4, r5, pc}
 1451              	.LVL122:
 1452              	.L117:
 1453              	.LCFI41:
 1454              		.cfi_def_cfa_offset 0
 1455              		.cfi_restore 3
 1456              		.cfi_restore 4
 1457              		.cfi_restore 5
 1458              		.cfi_restore 14
 248:Drivers/lvgl/src/misc/cache/class/lv_cache_sc_da.c **** 
 1459              		.loc 1 248 5 is_stmt 1 view .LVU471
 248:Drivers/lvgl/src/misc/cache/class/lv_cache_sc_da.c **** 
 1460              		.loc 1 248 5 view .LVU472
 248:Drivers/lvgl/src/misc/cache/class/lv_cache_sc_da.c **** 
 1461              		.loc 1 248 5 view .LVU473
 248:Drivers/lvgl/src/misc/cache/class/lv_cache_sc_da.c **** 
 1462              		.loc 1 248 5 view .LVU474
 248:Drivers/lvgl/src/misc/cache/class/lv_cache_sc_da.c **** 
 1463              		.loc 1 248 5 view .LVU475
 1464 001c FEE7     		b	.L117
 1465              		.cfi_endproc
 1466              	.LFE21:
 1468              		.section	.text.alloc_cb,"ax",%progbits
 1469              		.align	1
 1470              		.syntax unified
 1471              		.thumb
 1472              		.thumb_func
 1474              	alloc_cb:
 1475              	.LFB19:
 230:Drivers/lvgl/src/misc/cache/class/lv_cache_sc_da.c ****     return lv_calloc(1, sizeof(lv_cache_sc_da_t));
 1476              		.loc 1 230 1 view -0
 1477              		.cfi_startproc
 1478              		@ args = 0, pretend = 0, frame = 0
 1479              		@ frame_needed = 0, uses_anonymous_args = 0
 1480 0000 08B5     		push	{r3, lr}
 1481              	.LCFI42:
 1482              		.cfi_def_cfa_offset 8
 1483              		.cfi_offset 3, -8
 1484              		.cfi_offset 14, -4
 231:Drivers/lvgl/src/misc/cache/class/lv_cache_sc_da.c **** }
 1485              		.loc 1 231 5 view .LVU477
 231:Drivers/lvgl/src/misc/cache/class/lv_cache_sc_da.c **** }
 1486              		.loc 1 231 12 is_stmt 0 view .LVU478
 1487 0002 2C21     		movs	r1, #44
 1488 0004 0120     		movs	r0, #1
 1489 0006 FFF7FEFF 		bl	lv_calloc
 1490              	.LVL123:
 232:Drivers/lvgl/src/misc/cache/class/lv_cache_sc_da.c **** 
ARM GAS  /var/folders/qx/2_175_4n2s19vhvtspjhb3qh0000gn/T//cclDKaGf.s 			page 43


 1491              		.loc 1 232 1 view .LVU479
 1492 000a 08BD     		pop	{r3, pc}
 1493              		.cfi_endproc
 1494              	.LFE19:
 1496              		.global	lv_cache_class_sc_da
 1497              		.section	.rodata.lv_cache_class_sc_da,"a"
 1498              		.align	2
 1501              	lv_cache_class_sc_da:
 1502 0000 00000000 		.word	alloc_cb
 1503 0004 00000000 		.word	init_cnt_cb
 1504 0008 00000000 		.word	destroy_cb
 1505 000c 00000000 		.word	get_cb
 1506 0010 00000000 		.word	add_cb
 1507 0014 00000000 		.word	remove_cb
 1508 0018 00000000 		.word	drop_cb
 1509 001c 00000000 		.word	drop_all_cb
 1510 0020 00000000 		.word	get_victim_cb
 1511 0024 00000000 		.word	reserve_cond_cb
 1512 0028 00000000 		.word	cache_iter_create_cb
 1513              		.text
 1514              	.Letext0:
 1515              		.file 2 "/Applications/ArmGNUToolchain/14.3.rel1/arm-none-eabi/arm-none-eabi/include/machine/_defa
 1516              		.file 3 "/Applications/ArmGNUToolchain/14.3.rel1/arm-none-eabi/arm-none-eabi/include/sys/_stdint.h
 1517              		.file 4 "/Applications/ArmGNUToolchain/14.3.rel1/arm-none-eabi/lib/gcc/arm-none-eabi/14.3.1/includ
 1518              		.file 5 "Drivers/lvgl/src/misc/cache/class/../../lv_types.h"
 1519              		.file 6 "Drivers/lvgl/src/misc/cache/class/../lv_cache_private.h"
 1520              		.file 7 "Drivers/lvgl/src/misc/cache/class/../lv_cache_entry_private.h"
 1521              		.file 8 "Drivers/lvgl/src/misc/cache/class/../../../osal/lv_os_none.h"
 1522              		.file 9 "Drivers/lvgl/src/misc/cache/class/../../lv_iter.h"
 1523              		.file 10 "Drivers/lvgl/src/misc/cache/class/../../../stdlib/lv_mem.h"
 1524              		.file 11 "Drivers/lvgl/src/misc/cache/class/../lv_cache_entry.h"
 1525              		.file 12 "Drivers/lvgl/src/misc/cache/class/../../../stdlib/lv_string.h"
 1526              		.file 13 "Drivers/lvgl/src/misc/cache/class/lv_cache_sc_da.h"
ARM GAS  /var/folders/qx/2_175_4n2s19vhvtspjhb3qh0000gn/T//cclDKaGf.s 			page 44

