ARM GAS  /var/folders/qx/2_175_4n2s19vhvtspjhb3qh0000gn/T//ccRvvqfJ.s 			page 1


   1              		.cpu cortex-m4
   2              		.arch armv7e-m
   3              		.fpu fpv4-sp-d16
   4              		.eabi_attribute 27, 1
   5              		.eabi_attribute 28, 1
   6              		.eabi_attribute 20, 1
   7              		.eabi_attribute 21, 1
   8              		.eabi_attribute 23, 3
   9              		.eabi_attribute 24, 1
  10              		.eabi_attribute 25, 1
  11              		.eabi_attribute 26, 1
  12              		.eabi_attribute 30, 1
  13              		.eabi_attribute 34, 1
  14              		.eabi_attribute 18, 4
  15              		.file	"lv_animimage.c"
  16              		.text
  17              	.Ltext0:
  18              		.cfi_sections	.debug_frame
  19              		.file 1 "Drivers/lvgl/src/widgets/animimage/lv_animimage.c"
  20              		.section	.text.lv_animimg_set_src_inner,"ax",%progbits
  21              		.align	1
  22              		.syntax unified
  23              		.thumb
  24              		.thumb_func
  26              	lv_animimg_set_src_inner:
  27              	.LVL0:
  28              	.LFB202:
   1:Drivers/lvgl/src/widgets/animimage/lv_animimage.c **** /**
   2:Drivers/lvgl/src/widgets/animimage/lv_animimage.c ****  * @file lv_animimage.c
   3:Drivers/lvgl/src/widgets/animimage/lv_animimage.c ****  *
   4:Drivers/lvgl/src/widgets/animimage/lv_animimage.c ****  */
   5:Drivers/lvgl/src/widgets/animimage/lv_animimage.c **** 
   6:Drivers/lvgl/src/widgets/animimage/lv_animimage.c **** /**
   7:Drivers/lvgl/src/widgets/animimage/lv_animimage.c ****  * Modified by NXP in 2025
   8:Drivers/lvgl/src/widgets/animimage/lv_animimage.c ****  */
   9:Drivers/lvgl/src/widgets/animimage/lv_animimage.c **** 
  10:Drivers/lvgl/src/widgets/animimage/lv_animimage.c **** /*********************
  11:Drivers/lvgl/src/widgets/animimage/lv_animimage.c ****  *      INCLUDES
  12:Drivers/lvgl/src/widgets/animimage/lv_animimage.c ****  *********************/
  13:Drivers/lvgl/src/widgets/animimage/lv_animimage.c **** #include "lv_animimage_private.h"
  14:Drivers/lvgl/src/widgets/animimage/lv_animimage.c **** #include "../../core/lv_obj_class_private.h"
  15:Drivers/lvgl/src/widgets/animimage/lv_animimage.c **** #if LV_USE_ANIMIMG != 0
  16:Drivers/lvgl/src/widgets/animimage/lv_animimage.c **** 
  17:Drivers/lvgl/src/widgets/animimage/lv_animimage.c **** /*Testing of dependencies*/
  18:Drivers/lvgl/src/widgets/animimage/lv_animimage.c **** #if LV_USE_IMAGE == 0
  19:Drivers/lvgl/src/widgets/animimage/lv_animimage.c ****     #error "lv_animimg: lv_img is required. Enable it in lv_conf.h (LV_USE_IMAGE  1) "
  20:Drivers/lvgl/src/widgets/animimage/lv_animimage.c **** #endif
  21:Drivers/lvgl/src/widgets/animimage/lv_animimage.c **** 
  22:Drivers/lvgl/src/widgets/animimage/lv_animimage.c **** #include "../../draw/lv_image_decoder.h"
  23:Drivers/lvgl/src/widgets/animimage/lv_animimage.c **** #include "../../misc/lv_assert.h"
  24:Drivers/lvgl/src/widgets/animimage/lv_animimage.c **** #include "../../misc/lv_fs.h"
  25:Drivers/lvgl/src/widgets/animimage/lv_animimage.c **** #include "../../misc/lv_text_private.h"
  26:Drivers/lvgl/src/widgets/animimage/lv_animimage.c **** #include "../../misc/lv_math.h"
  27:Drivers/lvgl/src/widgets/animimage/lv_animimage.c **** #include "../../misc/lv_log.h"
  28:Drivers/lvgl/src/widgets/animimage/lv_animimage.c **** #include "../../misc/lv_anim.h"
  29:Drivers/lvgl/src/widgets/animimage/lv_animimage.c **** 
  30:Drivers/lvgl/src/widgets/animimage/lv_animimage.c **** /*********************
ARM GAS  /var/folders/qx/2_175_4n2s19vhvtspjhb3qh0000gn/T//ccRvvqfJ.s 			page 2


  31:Drivers/lvgl/src/widgets/animimage/lv_animimage.c ****  *      DEFINES
  32:Drivers/lvgl/src/widgets/animimage/lv_animimage.c ****  *********************/
  33:Drivers/lvgl/src/widgets/animimage/lv_animimage.c **** #define LV_OBJX_NAME "lv_animimg"
  34:Drivers/lvgl/src/widgets/animimage/lv_animimage.c **** 
  35:Drivers/lvgl/src/widgets/animimage/lv_animimage.c **** #define MY_CLASS (&lv_animimg_class)
  36:Drivers/lvgl/src/widgets/animimage/lv_animimage.c **** 
  37:Drivers/lvgl/src/widgets/animimage/lv_animimage.c **** /**********************
  38:Drivers/lvgl/src/widgets/animimage/lv_animimage.c ****  *      TYPEDEFS
  39:Drivers/lvgl/src/widgets/animimage/lv_animimage.c ****  **********************/
  40:Drivers/lvgl/src/widgets/animimage/lv_animimage.c **** 
  41:Drivers/lvgl/src/widgets/animimage/lv_animimage.c **** /**********************
  42:Drivers/lvgl/src/widgets/animimage/lv_animimage.c ****  *  STATIC PROTOTYPES
  43:Drivers/lvgl/src/widgets/animimage/lv_animimage.c ****  **********************/
  44:Drivers/lvgl/src/widgets/animimage/lv_animimage.c **** static void index_change(lv_obj_t * obj, int32_t idx);
  45:Drivers/lvgl/src/widgets/animimage/lv_animimage.c **** static void lv_animimg_constructor(const lv_obj_class_t * class_p, lv_obj_t * obj);
  46:Drivers/lvgl/src/widgets/animimage/lv_animimage.c **** static void lv_animimg_set_src_inner(lv_obj_t * obj, const void * dsc[], size_t num, bool reverse);
  47:Drivers/lvgl/src/widgets/animimage/lv_animimage.c **** 
  48:Drivers/lvgl/src/widgets/animimage/lv_animimage.c **** /**********************
  49:Drivers/lvgl/src/widgets/animimage/lv_animimage.c ****  *  STATIC VARIABLES
  50:Drivers/lvgl/src/widgets/animimage/lv_animimage.c ****  **********************/
  51:Drivers/lvgl/src/widgets/animimage/lv_animimage.c **** 
  52:Drivers/lvgl/src/widgets/animimage/lv_animimage.c **** #if LV_USE_OBJ_PROPERTY
  53:Drivers/lvgl/src/widgets/animimage/lv_animimage.c **** static const lv_property_ops_t lv_animimage_properties[] = {
  54:Drivers/lvgl/src/widgets/animimage/lv_animimage.c ****     {
  55:Drivers/lvgl/src/widgets/animimage/lv_animimage.c ****         .id = LV_PROPERTY_ANIMIMAGE_SRC,
  56:Drivers/lvgl/src/widgets/animimage/lv_animimage.c ****         .setter = lv_animimg_set_src,
  57:Drivers/lvgl/src/widgets/animimage/lv_animimage.c ****         .getter = lv_animimg_get_src,
  58:Drivers/lvgl/src/widgets/animimage/lv_animimage.c ****     },
  59:Drivers/lvgl/src/widgets/animimage/lv_animimage.c ****     {
  60:Drivers/lvgl/src/widgets/animimage/lv_animimage.c ****         .id = LV_PROPERTY_ANIMIMAGE_DURATION,
  61:Drivers/lvgl/src/widgets/animimage/lv_animimage.c ****         .setter = lv_animimg_set_duration,
  62:Drivers/lvgl/src/widgets/animimage/lv_animimage.c ****         .getter = lv_animimg_get_duration,
  63:Drivers/lvgl/src/widgets/animimage/lv_animimage.c ****     },
  64:Drivers/lvgl/src/widgets/animimage/lv_animimage.c ****     {
  65:Drivers/lvgl/src/widgets/animimage/lv_animimage.c ****         .id = LV_PROPERTY_ANIMIMAGE_REPEAT_COUNT,
  66:Drivers/lvgl/src/widgets/animimage/lv_animimage.c ****         .setter = lv_animimg_set_repeat_count,
  67:Drivers/lvgl/src/widgets/animimage/lv_animimage.c ****         .getter = lv_animimg_get_repeat_count,
  68:Drivers/lvgl/src/widgets/animimage/lv_animimage.c ****     },
  69:Drivers/lvgl/src/widgets/animimage/lv_animimage.c ****     {
  70:Drivers/lvgl/src/widgets/animimage/lv_animimage.c ****         .id = LV_PROPERTY_ANIMIMAGE_SRC_COUNT,
  71:Drivers/lvgl/src/widgets/animimage/lv_animimage.c ****         .setter = NULL,
  72:Drivers/lvgl/src/widgets/animimage/lv_animimage.c ****         .getter = lv_animimg_get_src_count,
  73:Drivers/lvgl/src/widgets/animimage/lv_animimage.c ****     },
  74:Drivers/lvgl/src/widgets/animimage/lv_animimage.c **** };
  75:Drivers/lvgl/src/widgets/animimage/lv_animimage.c **** #endif
  76:Drivers/lvgl/src/widgets/animimage/lv_animimage.c **** 
  77:Drivers/lvgl/src/widgets/animimage/lv_animimage.c **** const lv_obj_class_t lv_animimg_class = {
  78:Drivers/lvgl/src/widgets/animimage/lv_animimage.c ****     .constructor_cb = lv_animimg_constructor,
  79:Drivers/lvgl/src/widgets/animimage/lv_animimage.c ****     .instance_size = sizeof(lv_animimg_t),
  80:Drivers/lvgl/src/widgets/animimage/lv_animimage.c ****     .base_class = &lv_image_class,
  81:Drivers/lvgl/src/widgets/animimage/lv_animimage.c ****     .name = "lv_animimg",
  82:Drivers/lvgl/src/widgets/animimage/lv_animimage.c ****     LV_PROPERTY_CLASS_FIELDS(animimage, ANIMIMAGE)
  83:Drivers/lvgl/src/widgets/animimage/lv_animimage.c **** };
  84:Drivers/lvgl/src/widgets/animimage/lv_animimage.c **** 
  85:Drivers/lvgl/src/widgets/animimage/lv_animimage.c **** /**********************
  86:Drivers/lvgl/src/widgets/animimage/lv_animimage.c ****  *      MACROS
  87:Drivers/lvgl/src/widgets/animimage/lv_animimage.c ****  **********************/
ARM GAS  /var/folders/qx/2_175_4n2s19vhvtspjhb3qh0000gn/T//ccRvvqfJ.s 			page 3


  88:Drivers/lvgl/src/widgets/animimage/lv_animimage.c **** 
  89:Drivers/lvgl/src/widgets/animimage/lv_animimage.c **** /**********************
  90:Drivers/lvgl/src/widgets/animimage/lv_animimage.c ****  *   GLOBAL FUNCTIONS
  91:Drivers/lvgl/src/widgets/animimage/lv_animimage.c ****  **********************/
  92:Drivers/lvgl/src/widgets/animimage/lv_animimage.c **** 
  93:Drivers/lvgl/src/widgets/animimage/lv_animimage.c **** lv_obj_t * lv_animimg_create(lv_obj_t * parent)
  94:Drivers/lvgl/src/widgets/animimage/lv_animimage.c **** {
  95:Drivers/lvgl/src/widgets/animimage/lv_animimage.c ****     LV_LOG_INFO("begin");
  96:Drivers/lvgl/src/widgets/animimage/lv_animimage.c ****     lv_obj_t * obj = lv_obj_class_create_obj(&lv_animimg_class, parent);
  97:Drivers/lvgl/src/widgets/animimage/lv_animimage.c ****     lv_obj_class_init_obj(obj);
  98:Drivers/lvgl/src/widgets/animimage/lv_animimage.c ****     return obj;
  99:Drivers/lvgl/src/widgets/animimage/lv_animimage.c **** }
 100:Drivers/lvgl/src/widgets/animimage/lv_animimage.c **** 
 101:Drivers/lvgl/src/widgets/animimage/lv_animimage.c **** void lv_animimg_set_src(lv_obj_t * obj, const void * dsc[], size_t num)
 102:Drivers/lvgl/src/widgets/animimage/lv_animimage.c **** {
 103:Drivers/lvgl/src/widgets/animimage/lv_animimage.c ****     lv_animimg_set_src_inner(obj, dsc, num, false);
 104:Drivers/lvgl/src/widgets/animimage/lv_animimage.c **** }
 105:Drivers/lvgl/src/widgets/animimage/lv_animimage.c **** 
 106:Drivers/lvgl/src/widgets/animimage/lv_animimage.c **** void lv_animimg_set_src_reverse(lv_obj_t * obj, const void * dsc[], size_t num)
 107:Drivers/lvgl/src/widgets/animimage/lv_animimage.c **** {
 108:Drivers/lvgl/src/widgets/animimage/lv_animimage.c ****     lv_animimg_set_src_inner(obj, dsc, num, true);
 109:Drivers/lvgl/src/widgets/animimage/lv_animimage.c **** }
 110:Drivers/lvgl/src/widgets/animimage/lv_animimage.c **** 
 111:Drivers/lvgl/src/widgets/animimage/lv_animimage.c **** void lv_animimg_start(lv_obj_t * obj)
 112:Drivers/lvgl/src/widgets/animimage/lv_animimage.c **** {
 113:Drivers/lvgl/src/widgets/animimage/lv_animimage.c ****     LV_ASSERT_OBJ(obj, MY_CLASS);
 114:Drivers/lvgl/src/widgets/animimage/lv_animimage.c ****     lv_animimg_t * animimg = (lv_animimg_t *)obj;
 115:Drivers/lvgl/src/widgets/animimage/lv_animimage.c ****     lv_anim_start(&animimg->anim);
 116:Drivers/lvgl/src/widgets/animimage/lv_animimage.c **** }
 117:Drivers/lvgl/src/widgets/animimage/lv_animimage.c **** 
 118:Drivers/lvgl/src/widgets/animimage/lv_animimage.c **** bool lv_animimg_delete(lv_obj_t * obj)
 119:Drivers/lvgl/src/widgets/animimage/lv_animimage.c **** {
 120:Drivers/lvgl/src/widgets/animimage/lv_animimage.c ****     LV_ASSERT_OBJ(obj, MY_CLASS);
 121:Drivers/lvgl/src/widgets/animimage/lv_animimage.c ****     lv_animimg_t * animimg = (lv_animimg_t *)obj;
 122:Drivers/lvgl/src/widgets/animimage/lv_animimage.c ****     return lv_anim_delete(animimg, NULL);
 123:Drivers/lvgl/src/widgets/animimage/lv_animimage.c **** }
 124:Drivers/lvgl/src/widgets/animimage/lv_animimage.c **** 
 125:Drivers/lvgl/src/widgets/animimage/lv_animimage.c **** /*=====================
 126:Drivers/lvgl/src/widgets/animimage/lv_animimage.c ****  * Setter functions
 127:Drivers/lvgl/src/widgets/animimage/lv_animimage.c ****  *====================*/
 128:Drivers/lvgl/src/widgets/animimage/lv_animimage.c **** 
 129:Drivers/lvgl/src/widgets/animimage/lv_animimage.c **** void lv_animimg_set_duration(lv_obj_t * obj, uint32_t duration)
 130:Drivers/lvgl/src/widgets/animimage/lv_animimage.c **** {
 131:Drivers/lvgl/src/widgets/animimage/lv_animimage.c ****     LV_ASSERT_OBJ(obj, MY_CLASS);
 132:Drivers/lvgl/src/widgets/animimage/lv_animimage.c ****     lv_animimg_t * animimg = (lv_animimg_t *)obj;
 133:Drivers/lvgl/src/widgets/animimage/lv_animimage.c ****     lv_anim_set_duration(&animimg->anim, duration);
 134:Drivers/lvgl/src/widgets/animimage/lv_animimage.c ****     lv_anim_set_reverse_delay(&animimg->anim, duration);
 135:Drivers/lvgl/src/widgets/animimage/lv_animimage.c **** }
 136:Drivers/lvgl/src/widgets/animimage/lv_animimage.c **** 
 137:Drivers/lvgl/src/widgets/animimage/lv_animimage.c **** void lv_animimg_set_repeat_count(lv_obj_t * obj, uint32_t count)
 138:Drivers/lvgl/src/widgets/animimage/lv_animimage.c **** {
 139:Drivers/lvgl/src/widgets/animimage/lv_animimage.c ****     LV_ASSERT_OBJ(obj, MY_CLASS);
 140:Drivers/lvgl/src/widgets/animimage/lv_animimage.c ****     lv_animimg_t * animimg = (lv_animimg_t *)obj;
 141:Drivers/lvgl/src/widgets/animimage/lv_animimage.c ****     lv_anim_set_repeat_count(&animimg->anim, count);
 142:Drivers/lvgl/src/widgets/animimage/lv_animimage.c **** }
 143:Drivers/lvgl/src/widgets/animimage/lv_animimage.c **** 
 144:Drivers/lvgl/src/widgets/animimage/lv_animimage.c **** void lv_animimg_set_reverse_duration(lv_obj_t * obj, uint32_t duration)
ARM GAS  /var/folders/qx/2_175_4n2s19vhvtspjhb3qh0000gn/T//ccRvvqfJ.s 			page 4


 145:Drivers/lvgl/src/widgets/animimage/lv_animimage.c **** {
 146:Drivers/lvgl/src/widgets/animimage/lv_animimage.c ****     LV_ASSERT_OBJ(obj, MY_CLASS);
 147:Drivers/lvgl/src/widgets/animimage/lv_animimage.c ****     lv_animimg_t * animimg = (lv_animimg_t *)obj;
 148:Drivers/lvgl/src/widgets/animimage/lv_animimage.c ****     lv_anim_set_reverse_duration(&animimg->anim, duration);
 149:Drivers/lvgl/src/widgets/animimage/lv_animimage.c **** }
 150:Drivers/lvgl/src/widgets/animimage/lv_animimage.c **** 
 151:Drivers/lvgl/src/widgets/animimage/lv_animimage.c **** void lv_animimg_set_reverse_delay(lv_obj_t * obj, uint32_t duration)
 152:Drivers/lvgl/src/widgets/animimage/lv_animimage.c **** {
 153:Drivers/lvgl/src/widgets/animimage/lv_animimage.c ****     LV_ASSERT_OBJ(obj, MY_CLASS);
 154:Drivers/lvgl/src/widgets/animimage/lv_animimage.c ****     lv_animimg_t * animimg = (lv_animimg_t *)obj;
 155:Drivers/lvgl/src/widgets/animimage/lv_animimage.c ****     lv_anim_set_reverse_delay(&animimg->anim, duration);
 156:Drivers/lvgl/src/widgets/animimage/lv_animimage.c **** }
 157:Drivers/lvgl/src/widgets/animimage/lv_animimage.c **** 
 158:Drivers/lvgl/src/widgets/animimage/lv_animimage.c **** void lv_animimg_set_start_cb(lv_obj_t * obj, lv_anim_start_cb_t start_cb)
 159:Drivers/lvgl/src/widgets/animimage/lv_animimage.c **** {
 160:Drivers/lvgl/src/widgets/animimage/lv_animimage.c ****     LV_ASSERT_OBJ(obj, MY_CLASS);
 161:Drivers/lvgl/src/widgets/animimage/lv_animimage.c ****     lv_animimg_t * animimg = (lv_animimg_t *)obj;
 162:Drivers/lvgl/src/widgets/animimage/lv_animimage.c ****     lv_anim_set_start_cb(&animimg->anim, start_cb);
 163:Drivers/lvgl/src/widgets/animimage/lv_animimage.c **** }
 164:Drivers/lvgl/src/widgets/animimage/lv_animimage.c **** 
 165:Drivers/lvgl/src/widgets/animimage/lv_animimage.c **** void lv_animimg_set_completed_cb(lv_obj_t * obj, lv_anim_completed_cb_t completed_cb)
 166:Drivers/lvgl/src/widgets/animimage/lv_animimage.c **** {
 167:Drivers/lvgl/src/widgets/animimage/lv_animimage.c ****     LV_ASSERT_OBJ(obj, MY_CLASS);
 168:Drivers/lvgl/src/widgets/animimage/lv_animimage.c ****     lv_animimg_t * animimg = (lv_animimg_t *)obj;
 169:Drivers/lvgl/src/widgets/animimage/lv_animimage.c ****     lv_anim_set_completed_cb(&animimg->anim, completed_cb);
 170:Drivers/lvgl/src/widgets/animimage/lv_animimage.c **** }
 171:Drivers/lvgl/src/widgets/animimage/lv_animimage.c **** 
 172:Drivers/lvgl/src/widgets/animimage/lv_animimage.c **** /*=====================
 173:Drivers/lvgl/src/widgets/animimage/lv_animimage.c ****  * Getter functions
 174:Drivers/lvgl/src/widgets/animimage/lv_animimage.c ****  *====================*/
 175:Drivers/lvgl/src/widgets/animimage/lv_animimage.c **** 
 176:Drivers/lvgl/src/widgets/animimage/lv_animimage.c **** const void ** lv_animimg_get_src(lv_obj_t * obj)
 177:Drivers/lvgl/src/widgets/animimage/lv_animimage.c **** {
 178:Drivers/lvgl/src/widgets/animimage/lv_animimage.c ****     LV_ASSERT_OBJ(obj, MY_CLASS);
 179:Drivers/lvgl/src/widgets/animimage/lv_animimage.c ****     lv_animimg_t * animimg = (lv_animimg_t *)obj;
 180:Drivers/lvgl/src/widgets/animimage/lv_animimage.c ****     return animimg->dsc;
 181:Drivers/lvgl/src/widgets/animimage/lv_animimage.c **** }
 182:Drivers/lvgl/src/widgets/animimage/lv_animimage.c **** 
 183:Drivers/lvgl/src/widgets/animimage/lv_animimage.c **** uint8_t lv_animimg_get_src_count(lv_obj_t * obj)
 184:Drivers/lvgl/src/widgets/animimage/lv_animimage.c **** {
 185:Drivers/lvgl/src/widgets/animimage/lv_animimage.c ****     LV_ASSERT_OBJ(obj, MY_CLASS);
 186:Drivers/lvgl/src/widgets/animimage/lv_animimage.c ****     lv_animimg_t * animimg = (lv_animimg_t *)obj;
 187:Drivers/lvgl/src/widgets/animimage/lv_animimage.c ****     return animimg->pic_count;
 188:Drivers/lvgl/src/widgets/animimage/lv_animimage.c **** }
 189:Drivers/lvgl/src/widgets/animimage/lv_animimage.c **** 
 190:Drivers/lvgl/src/widgets/animimage/lv_animimage.c **** uint32_t lv_animimg_get_duration(lv_obj_t * obj)
 191:Drivers/lvgl/src/widgets/animimage/lv_animimage.c **** {
 192:Drivers/lvgl/src/widgets/animimage/lv_animimage.c ****     LV_ASSERT_OBJ(obj, MY_CLASS);
 193:Drivers/lvgl/src/widgets/animimage/lv_animimage.c ****     lv_animimg_t * animimg = (lv_animimg_t *)obj;
 194:Drivers/lvgl/src/widgets/animimage/lv_animimage.c ****     return lv_anim_get_time(&animimg->anim);
 195:Drivers/lvgl/src/widgets/animimage/lv_animimage.c **** }
 196:Drivers/lvgl/src/widgets/animimage/lv_animimage.c **** 
 197:Drivers/lvgl/src/widgets/animimage/lv_animimage.c **** uint32_t lv_animimg_get_repeat_count(lv_obj_t * obj)
 198:Drivers/lvgl/src/widgets/animimage/lv_animimage.c **** {
 199:Drivers/lvgl/src/widgets/animimage/lv_animimage.c ****     LV_ASSERT_OBJ(obj, MY_CLASS);
 200:Drivers/lvgl/src/widgets/animimage/lv_animimage.c ****     lv_animimg_t * animimg = (lv_animimg_t *)obj;
 201:Drivers/lvgl/src/widgets/animimage/lv_animimage.c ****     return lv_anim_get_repeat_count(&animimg->anim);
ARM GAS  /var/folders/qx/2_175_4n2s19vhvtspjhb3qh0000gn/T//ccRvvqfJ.s 			page 5


 202:Drivers/lvgl/src/widgets/animimage/lv_animimage.c **** }
 203:Drivers/lvgl/src/widgets/animimage/lv_animimage.c **** 
 204:Drivers/lvgl/src/widgets/animimage/lv_animimage.c **** lv_anim_t * lv_animimg_get_anim(lv_obj_t * obj)
 205:Drivers/lvgl/src/widgets/animimage/lv_animimage.c **** {
 206:Drivers/lvgl/src/widgets/animimage/lv_animimage.c ****     LV_ASSERT_OBJ(obj, MY_CLASS);
 207:Drivers/lvgl/src/widgets/animimage/lv_animimage.c ****     lv_animimg_t * animimg = (lv_animimg_t *)obj;
 208:Drivers/lvgl/src/widgets/animimage/lv_animimage.c ****     return &animimg->anim;
 209:Drivers/lvgl/src/widgets/animimage/lv_animimage.c **** }
 210:Drivers/lvgl/src/widgets/animimage/lv_animimage.c **** 
 211:Drivers/lvgl/src/widgets/animimage/lv_animimage.c **** /**********************
 212:Drivers/lvgl/src/widgets/animimage/lv_animimage.c ****  *   STATIC FUNCTIONS
 213:Drivers/lvgl/src/widgets/animimage/lv_animimage.c ****  **********************/
 214:Drivers/lvgl/src/widgets/animimage/lv_animimage.c **** 
 215:Drivers/lvgl/src/widgets/animimage/lv_animimage.c **** static void lv_animimg_constructor(const lv_obj_class_t * class_p, lv_obj_t * obj)
 216:Drivers/lvgl/src/widgets/animimage/lv_animimage.c **** {
 217:Drivers/lvgl/src/widgets/animimage/lv_animimage.c ****     LV_TRACE_OBJ_CREATE("begin");
 218:Drivers/lvgl/src/widgets/animimage/lv_animimage.c **** 
 219:Drivers/lvgl/src/widgets/animimage/lv_animimage.c ****     LV_UNUSED(class_p);
 220:Drivers/lvgl/src/widgets/animimage/lv_animimage.c ****     lv_animimg_t * animimg = (lv_animimg_t *)obj;
 221:Drivers/lvgl/src/widgets/animimage/lv_animimage.c **** 
 222:Drivers/lvgl/src/widgets/animimage/lv_animimage.c ****     animimg->dsc = NULL;
 223:Drivers/lvgl/src/widgets/animimage/lv_animimage.c ****     animimg->pic_count = -1;
 224:Drivers/lvgl/src/widgets/animimage/lv_animimage.c **** 
 225:Drivers/lvgl/src/widgets/animimage/lv_animimage.c ****     /*initial animation*/
 226:Drivers/lvgl/src/widgets/animimage/lv_animimage.c ****     lv_anim_init(&animimg->anim);
 227:Drivers/lvgl/src/widgets/animimage/lv_animimage.c ****     lv_anim_set_var(&animimg->anim, obj);
 228:Drivers/lvgl/src/widgets/animimage/lv_animimage.c ****     lv_anim_set_duration(&animimg->anim, 30);
 229:Drivers/lvgl/src/widgets/animimage/lv_animimage.c ****     lv_anim_set_exec_cb(&animimg->anim, (lv_anim_exec_xcb_t)index_change);
 230:Drivers/lvgl/src/widgets/animimage/lv_animimage.c ****     lv_anim_set_values(&animimg->anim, 0, 1);
 231:Drivers/lvgl/src/widgets/animimage/lv_animimage.c ****     lv_anim_set_repeat_count(&animimg->anim, LV_ANIM_REPEAT_INFINITE);
 232:Drivers/lvgl/src/widgets/animimage/lv_animimage.c **** }
 233:Drivers/lvgl/src/widgets/animimage/lv_animimage.c **** 
 234:Drivers/lvgl/src/widgets/animimage/lv_animimage.c **** static void index_change(lv_obj_t * obj, int32_t idx)
 235:Drivers/lvgl/src/widgets/animimage/lv_animimage.c **** {
 236:Drivers/lvgl/src/widgets/animimage/lv_animimage.c ****     lv_animimg_t * animimg = (lv_animimg_t *)obj;
 237:Drivers/lvgl/src/widgets/animimage/lv_animimage.c **** 
 238:Drivers/lvgl/src/widgets/animimage/lv_animimage.c ****     if(animimg->dsc == NULL) {
 239:Drivers/lvgl/src/widgets/animimage/lv_animimage.c ****         LV_LOG_WARN("dsc is null");
 240:Drivers/lvgl/src/widgets/animimage/lv_animimage.c ****         return;
 241:Drivers/lvgl/src/widgets/animimage/lv_animimage.c ****     }
 242:Drivers/lvgl/src/widgets/animimage/lv_animimage.c **** 
 243:Drivers/lvgl/src/widgets/animimage/lv_animimage.c ****     if(idx >= animimg->pic_count) idx =  animimg->pic_count - 1;
 244:Drivers/lvgl/src/widgets/animimage/lv_animimage.c **** 
 245:Drivers/lvgl/src/widgets/animimage/lv_animimage.c ****     lv_image_set_src(obj, animimg->dsc[idx]);
 246:Drivers/lvgl/src/widgets/animimage/lv_animimage.c **** }
 247:Drivers/lvgl/src/widgets/animimage/lv_animimage.c **** 
 248:Drivers/lvgl/src/widgets/animimage/lv_animimage.c **** static void lv_animimg_set_src_inner(lv_obj_t * obj, const void * dsc[], size_t num, bool reverse)
 249:Drivers/lvgl/src/widgets/animimage/lv_animimage.c **** {
  29              		.loc 1 249 1 view -0
  30              		.cfi_startproc
  31              		@ args = 0, pretend = 0, frame = 0
  32              		@ frame_needed = 0, uses_anonymous_args = 0
 250:Drivers/lvgl/src/widgets/animimage/lv_animimage.c ****     LV_ASSERT_OBJ(obj, MY_CLASS);
  33              		.loc 1 250 5 view .LVU1
  34              		.loc 1 250 5 view .LVU2
  35 0000 60B1     		cbz	r0, .L3
 249:Drivers/lvgl/src/widgets/animimage/lv_animimage.c ****     LV_ASSERT_OBJ(obj, MY_CLASS);
ARM GAS  /var/folders/qx/2_175_4n2s19vhvtspjhb3qh0000gn/T//ccRvvqfJ.s 			page 6


  36              		.loc 1 249 1 is_stmt 0 view .LVU3
  37 0002 10B5     		push	{r4, lr}
  38              	.LCFI0:
  39              		.cfi_def_cfa_offset 8
  40              		.cfi_offset 4, -8
  41              		.cfi_offset 14, -4
  42 0004 0C46     		mov	r4, r1
  43 0006 1146     		mov	r1, r2
  44              	.LVL1:
  45              		.loc 1 250 5 is_stmt 1 view .LVU4
  46              		.loc 1 250 33 view .LVU5
 251:Drivers/lvgl/src/widgets/animimage/lv_animimage.c ****     lv_animimg_t * animimg = (lv_animimg_t *)obj;
  47              		.loc 1 251 5 view .LVU6
 252:Drivers/lvgl/src/widgets/animimage/lv_animimage.c ****     animimg->dsc = dsc;
  48              		.loc 1 252 5 view .LVU7
  49              		.loc 1 252 18 is_stmt 0 view .LVU8
  50 0008 C0F8BC40 		str	r4, [r0, #188]
 253:Drivers/lvgl/src/widgets/animimage/lv_animimage.c ****     animimg->pic_count = num;
  51              		.loc 1 253 5 is_stmt 1 view .LVU9
  52              		.loc 1 253 24 is_stmt 0 view .LVU10
  53 000c 80F8C020 		strb	r2, [r0, #192]
 254:Drivers/lvgl/src/widgets/animimage/lv_animimage.c ****     if(reverse) {
  54              		.loc 1 254 5 is_stmt 1 view .LVU11
  55              		.loc 1 254 7 is_stmt 0 view .LVU12
  56 0010 2BB1     		cbz	r3, .L4
 255:Drivers/lvgl/src/widgets/animimage/lv_animimage.c ****         lv_anim_set_values(&animimg->anim, (int32_t)num, 0);
  57              		.loc 1 255 9 is_stmt 1 view .LVU13
  58 0012 0022     		movs	r2, #0
  59              	.LVL2:
  60              		.loc 1 255 9 is_stmt 0 view .LVU14
  61 0014 5C30     		adds	r0, r0, #92
  62              	.LVL3:
  63              		.loc 1 255 9 view .LVU15
  64 0016 FFF7FEFF 		bl	lv_anim_set_values
  65              	.LVL4:
  66              	.L1:
 256:Drivers/lvgl/src/widgets/animimage/lv_animimage.c ****     }
 257:Drivers/lvgl/src/widgets/animimage/lv_animimage.c ****     else {
 258:Drivers/lvgl/src/widgets/animimage/lv_animimage.c ****         lv_anim_set_values(&animimg->anim, 0, (int32_t)num);
 259:Drivers/lvgl/src/widgets/animimage/lv_animimage.c ****     }
 260:Drivers/lvgl/src/widgets/animimage/lv_animimage.c **** }
  67              		.loc 1 260 1 view .LVU16
  68 001a 10BD     		pop	{r4, pc}
  69              	.LVL5:
  70              	.L3:
  71              	.LCFI1:
  72              		.cfi_def_cfa_offset 0
  73              		.cfi_restore 4
  74              		.cfi_restore 14
 250:Drivers/lvgl/src/widgets/animimage/lv_animimage.c ****     lv_animimg_t * animimg = (lv_animimg_t *)obj;
  75              		.loc 1 250 5 is_stmt 1 view .LVU17
 250:Drivers/lvgl/src/widgets/animimage/lv_animimage.c ****     lv_animimg_t * animimg = (lv_animimg_t *)obj;
  76              		.loc 1 250 5 view .LVU18
 250:Drivers/lvgl/src/widgets/animimage/lv_animimage.c ****     lv_animimg_t * animimg = (lv_animimg_t *)obj;
  77              		.loc 1 250 5 view .LVU19
 250:Drivers/lvgl/src/widgets/animimage/lv_animimage.c ****     lv_animimg_t * animimg = (lv_animimg_t *)obj;
  78              		.loc 1 250 5 view .LVU20
ARM GAS  /var/folders/qx/2_175_4n2s19vhvtspjhb3qh0000gn/T//ccRvvqfJ.s 			page 7


 250:Drivers/lvgl/src/widgets/animimage/lv_animimage.c ****     lv_animimg_t * animimg = (lv_animimg_t *)obj;
  79              		.loc 1 250 5 view .LVU21
  80 001c FEE7     		b	.L3
  81              	.LVL6:
  82              	.L4:
  83              	.LCFI2:
  84              		.cfi_def_cfa_offset 8
  85              		.cfi_offset 4, -8
  86              		.cfi_offset 14, -4
 258:Drivers/lvgl/src/widgets/animimage/lv_animimage.c ****     }
  87              		.loc 1 258 9 view .LVU22
  88 001e 0021     		movs	r1, #0
  89              	.LVL7:
 258:Drivers/lvgl/src/widgets/animimage/lv_animimage.c ****     }
  90              		.loc 1 258 9 is_stmt 0 view .LVU23
  91 0020 5C30     		adds	r0, r0, #92
  92              	.LVL8:
 258:Drivers/lvgl/src/widgets/animimage/lv_animimage.c ****     }
  93              		.loc 1 258 9 view .LVU24
  94 0022 FFF7FEFF 		bl	lv_anim_set_values
  95              	.LVL9:
  96              		.loc 1 260 1 view .LVU25
  97 0026 F8E7     		b	.L1
  98              		.cfi_endproc
  99              	.LFE202:
 101              		.section	.text.lv_animimg_constructor,"ax",%progbits
 102              		.align	1
 103              		.syntax unified
 104              		.thumb
 105              		.thumb_func
 107              	lv_animimg_constructor:
 108              	.LVL10:
 109              	.LFB200:
 216:Drivers/lvgl/src/widgets/animimage/lv_animimage.c ****     LV_TRACE_OBJ_CREATE("begin");
 110              		.loc 1 216 1 is_stmt 1 view -0
 111              		.cfi_startproc
 112              		@ args = 0, pretend = 0, frame = 0
 113              		@ frame_needed = 0, uses_anonymous_args = 0
 216:Drivers/lvgl/src/widgets/animimage/lv_animimage.c ****     LV_TRACE_OBJ_CREATE("begin");
 114              		.loc 1 216 1 is_stmt 0 view .LVU27
 115 0000 70B5     		push	{r4, r5, r6, lr}
 116              	.LCFI3:
 117              		.cfi_def_cfa_offset 16
 118              		.cfi_offset 4, -16
 119              		.cfi_offset 5, -12
 120              		.cfi_offset 6, -8
 121              		.cfi_offset 14, -4
 122 0002 0D46     		mov	r5, r1
 217:Drivers/lvgl/src/widgets/animimage/lv_animimage.c **** 
 123              		.loc 1 217 33 is_stmt 1 view .LVU28
 219:Drivers/lvgl/src/widgets/animimage/lv_animimage.c ****     lv_animimg_t * animimg = (lv_animimg_t *)obj;
 124              		.loc 1 219 5 view .LVU29
 220:Drivers/lvgl/src/widgets/animimage/lv_animimage.c **** 
 125              		.loc 1 220 5 view .LVU30
 126              	.LVL11:
 222:Drivers/lvgl/src/widgets/animimage/lv_animimage.c ****     animimg->pic_count = -1;
 127              		.loc 1 222 5 view .LVU31
ARM GAS  /var/folders/qx/2_175_4n2s19vhvtspjhb3qh0000gn/T//ccRvvqfJ.s 			page 8


 222:Drivers/lvgl/src/widgets/animimage/lv_animimage.c ****     animimg->pic_count = -1;
 128              		.loc 1 222 18 is_stmt 0 view .LVU32
 129 0004 0026     		movs	r6, #0
 130 0006 C1F8BC60 		str	r6, [r1, #188]
 223:Drivers/lvgl/src/widgets/animimage/lv_animimage.c **** 
 131              		.loc 1 223 5 is_stmt 1 view .LVU33
 223:Drivers/lvgl/src/widgets/animimage/lv_animimage.c **** 
 132              		.loc 1 223 24 is_stmt 0 view .LVU34
 133 000a FF23     		movs	r3, #255
 134 000c 81F8C030 		strb	r3, [r1, #192]
 226:Drivers/lvgl/src/widgets/animimage/lv_animimage.c ****     lv_anim_set_var(&animimg->anim, obj);
 135              		.loc 1 226 5 is_stmt 1 view .LVU35
 136 0010 01F15C04 		add	r4, r1, #92
 137 0014 2046     		mov	r0, r4
 138              	.LVL12:
 226:Drivers/lvgl/src/widgets/animimage/lv_animimage.c ****     lv_anim_set_var(&animimg->anim, obj);
 139              		.loc 1 226 5 is_stmt 0 view .LVU36
 140 0016 FFF7FEFF 		bl	lv_anim_init
 141              	.LVL13:
 227:Drivers/lvgl/src/widgets/animimage/lv_animimage.c ****     lv_anim_set_duration(&animimg->anim, 30);
 142              		.loc 1 227 5 is_stmt 1 view .LVU37
 143 001a 2946     		mov	r1, r5
 144 001c 2046     		mov	r0, r4
 145 001e FFF7FEFF 		bl	lv_anim_set_var
 146              	.LVL14:
 228:Drivers/lvgl/src/widgets/animimage/lv_animimage.c ****     lv_anim_set_exec_cb(&animimg->anim, (lv_anim_exec_xcb_t)index_change);
 147              		.loc 1 228 5 view .LVU38
 148 0022 1E21     		movs	r1, #30
 149 0024 2046     		mov	r0, r4
 150 0026 FFF7FEFF 		bl	lv_anim_set_duration
 151              	.LVL15:
 229:Drivers/lvgl/src/widgets/animimage/lv_animimage.c ****     lv_anim_set_values(&animimg->anim, 0, 1);
 152              		.loc 1 229 5 view .LVU39
 153 002a 0749     		ldr	r1, .L10
 154 002c 2046     		mov	r0, r4
 155 002e FFF7FEFF 		bl	lv_anim_set_exec_cb
 156              	.LVL16:
 230:Drivers/lvgl/src/widgets/animimage/lv_animimage.c ****     lv_anim_set_repeat_count(&animimg->anim, LV_ANIM_REPEAT_INFINITE);
 157              		.loc 1 230 5 view .LVU40
 158 0032 0122     		movs	r2, #1
 159 0034 3146     		mov	r1, r6
 160 0036 2046     		mov	r0, r4
 161 0038 FFF7FEFF 		bl	lv_anim_set_values
 162              	.LVL17:
 231:Drivers/lvgl/src/widgets/animimage/lv_animimage.c **** }
 163              		.loc 1 231 5 view .LVU41
 164 003c 4FF0FF31 		mov	r1, #-1
 165 0040 2046     		mov	r0, r4
 166 0042 FFF7FEFF 		bl	lv_anim_set_repeat_count
 167              	.LVL18:
 232:Drivers/lvgl/src/widgets/animimage/lv_animimage.c **** 
 168              		.loc 1 232 1 is_stmt 0 view .LVU42
 169 0046 70BD     		pop	{r4, r5, r6, pc}
 170              	.LVL19:
 171              	.L11:
 232:Drivers/lvgl/src/widgets/animimage/lv_animimage.c **** 
 172              		.loc 1 232 1 view .LVU43
ARM GAS  /var/folders/qx/2_175_4n2s19vhvtspjhb3qh0000gn/T//ccRvvqfJ.s 			page 9


 173              		.align	2
 174              	.L10:
 175 0048 00000000 		.word	index_change
 176              		.cfi_endproc
 177              	.LFE200:
 179              		.section	.text.index_change,"ax",%progbits
 180              		.align	1
 181              		.syntax unified
 182              		.thumb
 183              		.thumb_func
 185              	index_change:
 186              	.LVL20:
 187              	.LFB201:
 235:Drivers/lvgl/src/widgets/animimage/lv_animimage.c ****     lv_animimg_t * animimg = (lv_animimg_t *)obj;
 188              		.loc 1 235 1 is_stmt 1 view -0
 189              		.cfi_startproc
 190              		@ args = 0, pretend = 0, frame = 0
 191              		@ frame_needed = 0, uses_anonymous_args = 0
 235:Drivers/lvgl/src/widgets/animimage/lv_animimage.c ****     lv_animimg_t * animimg = (lv_animimg_t *)obj;
 192              		.loc 1 235 1 is_stmt 0 view .LVU45
 193 0000 08B5     		push	{r3, lr}
 194              	.LCFI4:
 195              		.cfi_def_cfa_offset 8
 196              		.cfi_offset 3, -8
 197              		.cfi_offset 14, -4
 236:Drivers/lvgl/src/widgets/animimage/lv_animimage.c **** 
 198              		.loc 1 236 5 is_stmt 1 view .LVU46
 199              	.LVL21:
 238:Drivers/lvgl/src/widgets/animimage/lv_animimage.c ****         LV_LOG_WARN("dsc is null");
 200              		.loc 1 238 5 view .LVU47
 238:Drivers/lvgl/src/widgets/animimage/lv_animimage.c ****         LV_LOG_WARN("dsc is null");
 201              		.loc 1 238 15 is_stmt 0 view .LVU48
 202 0002 D0F8BC30 		ldr	r3, [r0, #188]
 238:Drivers/lvgl/src/widgets/animimage/lv_animimage.c ****         LV_LOG_WARN("dsc is null");
 203              		.loc 1 238 7 view .LVU49
 204 0006 43B1     		cbz	r3, .L12
 243:Drivers/lvgl/src/widgets/animimage/lv_animimage.c **** 
 205              		.loc 1 243 5 is_stmt 1 view .LVU50
 243:Drivers/lvgl/src/widgets/animimage/lv_animimage.c **** 
 206              		.loc 1 243 22 is_stmt 0 view .LVU51
 207 0008 90F9C020 		ldrsb	r2, [r0, #192]
 243:Drivers/lvgl/src/widgets/animimage/lv_animimage.c **** 
 208              		.loc 1 243 7 view .LVU52
 209 000c 8A42     		cmp	r2, r1
 210 000e 00DC     		bgt	.L14
 243:Drivers/lvgl/src/widgets/animimage/lv_animimage.c **** 
 211              		.loc 1 243 35 is_stmt 1 discriminator 1 view .LVU53
 243:Drivers/lvgl/src/widgets/animimage/lv_animimage.c **** 
 212              		.loc 1 243 39 is_stmt 0 discriminator 1 view .LVU54
 213 0010 511E     		subs	r1, r2, #1
 214              	.LVL22:
 215              	.L14:
 245:Drivers/lvgl/src/widgets/animimage/lv_animimage.c **** }
 216              		.loc 1 245 5 is_stmt 1 view .LVU55
 217 0012 53F82110 		ldr	r1, [r3, r1, lsl #2]
 218              	.LVL23:
 245:Drivers/lvgl/src/widgets/animimage/lv_animimage.c **** }
ARM GAS  /var/folders/qx/2_175_4n2s19vhvtspjhb3qh0000gn/T//ccRvvqfJ.s 			page 10


 219              		.loc 1 245 5 is_stmt 0 view .LVU56
 220 0016 FFF7FEFF 		bl	lv_image_set_src
 221              	.LVL24:
 222              	.L12:
 246:Drivers/lvgl/src/widgets/animimage/lv_animimage.c **** 
 223              		.loc 1 246 1 view .LVU57
 224 001a 08BD     		pop	{r3, pc}
 225              		.cfi_endproc
 226              	.LFE201:
 228              		.section	.text.lv_animimg_create,"ax",%progbits
 229              		.align	1
 230              		.global	lv_animimg_create
 231              		.syntax unified
 232              		.thumb
 233              		.thumb_func
 235              	lv_animimg_create:
 236              	.LVL25:
 237              	.LFB184:
  94:Drivers/lvgl/src/widgets/animimage/lv_animimage.c ****     LV_LOG_INFO("begin");
 238              		.loc 1 94 1 is_stmt 1 view -0
 239              		.cfi_startproc
 240              		@ args = 0, pretend = 0, frame = 0
 241              		@ frame_needed = 0, uses_anonymous_args = 0
  94:Drivers/lvgl/src/widgets/animimage/lv_animimage.c ****     LV_LOG_INFO("begin");
 242              		.loc 1 94 1 is_stmt 0 view .LVU59
 243 0000 10B5     		push	{r4, lr}
 244              	.LCFI5:
 245              		.cfi_def_cfa_offset 8
 246              		.cfi_offset 4, -8
 247              		.cfi_offset 14, -4
 248 0002 0146     		mov	r1, r0
  95:Drivers/lvgl/src/widgets/animimage/lv_animimage.c ****     lv_obj_t * obj = lv_obj_class_create_obj(&lv_animimg_class, parent);
 249              		.loc 1 95 5 is_stmt 1 view .LVU60
  95:Drivers/lvgl/src/widgets/animimage/lv_animimage.c ****     lv_obj_t * obj = lv_obj_class_create_obj(&lv_animimg_class, parent);
 250              		.loc 1 95 5 view .LVU61
  95:Drivers/lvgl/src/widgets/animimage/lv_animimage.c ****     lv_obj_t * obj = lv_obj_class_create_obj(&lv_animimg_class, parent);
 251              		.loc 1 95 5 view .LVU62
  96:Drivers/lvgl/src/widgets/animimage/lv_animimage.c ****     lv_obj_class_init_obj(obj);
 252              		.loc 1 96 5 view .LVU63
  96:Drivers/lvgl/src/widgets/animimage/lv_animimage.c ****     lv_obj_class_init_obj(obj);
 253              		.loc 1 96 22 is_stmt 0 view .LVU64
 254 0004 0348     		ldr	r0, .L18
 255              	.LVL26:
  96:Drivers/lvgl/src/widgets/animimage/lv_animimage.c ****     lv_obj_class_init_obj(obj);
 256              		.loc 1 96 22 view .LVU65
 257 0006 FFF7FEFF 		bl	lv_obj_class_create_obj
 258              	.LVL27:
  96:Drivers/lvgl/src/widgets/animimage/lv_animimage.c ****     lv_obj_class_init_obj(obj);
 259              		.loc 1 96 22 view .LVU66
 260 000a 0446     		mov	r4, r0
 261              	.LVL28:
  97:Drivers/lvgl/src/widgets/animimage/lv_animimage.c ****     return obj;
 262              		.loc 1 97 5 is_stmt 1 view .LVU67
 263 000c FFF7FEFF 		bl	lv_obj_class_init_obj
 264              	.LVL29:
  98:Drivers/lvgl/src/widgets/animimage/lv_animimage.c **** }
 265              		.loc 1 98 5 view .LVU68
ARM GAS  /var/folders/qx/2_175_4n2s19vhvtspjhb3qh0000gn/T//ccRvvqfJ.s 			page 11


  99:Drivers/lvgl/src/widgets/animimage/lv_animimage.c **** 
 266              		.loc 1 99 1 is_stmt 0 view .LVU69
 267 0010 2046     		mov	r0, r4
 268 0012 10BD     		pop	{r4, pc}
 269              	.LVL30:
 270              	.L19:
  99:Drivers/lvgl/src/widgets/animimage/lv_animimage.c **** 
 271              		.loc 1 99 1 view .LVU70
 272              		.align	2
 273              	.L18:
 274 0014 00000000 		.word	lv_animimg_class
 275              		.cfi_endproc
 276              	.LFE184:
 278              		.section	.text.lv_animimg_set_src,"ax",%progbits
 279              		.align	1
 280              		.global	lv_animimg_set_src
 281              		.syntax unified
 282              		.thumb
 283              		.thumb_func
 285              	lv_animimg_set_src:
 286              	.LVL31:
 287              	.LFB185:
 102:Drivers/lvgl/src/widgets/animimage/lv_animimage.c ****     lv_animimg_set_src_inner(obj, dsc, num, false);
 288              		.loc 1 102 1 is_stmt 1 view -0
 289              		.cfi_startproc
 290              		@ args = 0, pretend = 0, frame = 0
 291              		@ frame_needed = 0, uses_anonymous_args = 0
 102:Drivers/lvgl/src/widgets/animimage/lv_animimage.c ****     lv_animimg_set_src_inner(obj, dsc, num, false);
 292              		.loc 1 102 1 is_stmt 0 view .LVU72
 293 0000 08B5     		push	{r3, lr}
 294              	.LCFI6:
 295              		.cfi_def_cfa_offset 8
 296              		.cfi_offset 3, -8
 297              		.cfi_offset 14, -4
 103:Drivers/lvgl/src/widgets/animimage/lv_animimage.c **** }
 298              		.loc 1 103 5 is_stmt 1 view .LVU73
 299 0002 0023     		movs	r3, #0
 300 0004 FFF7FEFF 		bl	lv_animimg_set_src_inner
 301              	.LVL32:
 104:Drivers/lvgl/src/widgets/animimage/lv_animimage.c **** 
 302              		.loc 1 104 1 is_stmt 0 view .LVU74
 303 0008 08BD     		pop	{r3, pc}
 304              		.cfi_endproc
 305              	.LFE185:
 307              		.section	.text.lv_animimg_set_src_reverse,"ax",%progbits
 308              		.align	1
 309              		.global	lv_animimg_set_src_reverse
 310              		.syntax unified
 311              		.thumb
 312              		.thumb_func
 314              	lv_animimg_set_src_reverse:
 315              	.LVL33:
 316              	.LFB186:
 107:Drivers/lvgl/src/widgets/animimage/lv_animimage.c ****     lv_animimg_set_src_inner(obj, dsc, num, true);
 317              		.loc 1 107 1 is_stmt 1 view -0
 318              		.cfi_startproc
 319              		@ args = 0, pretend = 0, frame = 0
ARM GAS  /var/folders/qx/2_175_4n2s19vhvtspjhb3qh0000gn/T//ccRvvqfJ.s 			page 12


 320              		@ frame_needed = 0, uses_anonymous_args = 0
 107:Drivers/lvgl/src/widgets/animimage/lv_animimage.c ****     lv_animimg_set_src_inner(obj, dsc, num, true);
 321              		.loc 1 107 1 is_stmt 0 view .LVU76
 322 0000 08B5     		push	{r3, lr}
 323              	.LCFI7:
 324              		.cfi_def_cfa_offset 8
 325              		.cfi_offset 3, -8
 326              		.cfi_offset 14, -4
 108:Drivers/lvgl/src/widgets/animimage/lv_animimage.c **** }
 327              		.loc 1 108 5 is_stmt 1 view .LVU77
 328 0002 0123     		movs	r3, #1
 329 0004 FFF7FEFF 		bl	lv_animimg_set_src_inner
 330              	.LVL34:
 109:Drivers/lvgl/src/widgets/animimage/lv_animimage.c **** 
 331              		.loc 1 109 1 is_stmt 0 view .LVU78
 332 0008 08BD     		pop	{r3, pc}
 333              		.cfi_endproc
 334              	.LFE186:
 336              		.section	.text.lv_animimg_start,"ax",%progbits
 337              		.align	1
 338              		.global	lv_animimg_start
 339              		.syntax unified
 340              		.thumb
 341              		.thumb_func
 343              	lv_animimg_start:
 344              	.LVL35:
 345              	.LFB187:
 112:Drivers/lvgl/src/widgets/animimage/lv_animimage.c ****     LV_ASSERT_OBJ(obj, MY_CLASS);
 346              		.loc 1 112 1 is_stmt 1 view -0
 347              		.cfi_startproc
 348              		@ args = 0, pretend = 0, frame = 0
 349              		@ frame_needed = 0, uses_anonymous_args = 0
 113:Drivers/lvgl/src/widgets/animimage/lv_animimage.c ****     lv_animimg_t * animimg = (lv_animimg_t *)obj;
 350              		.loc 1 113 5 view .LVU80
 113:Drivers/lvgl/src/widgets/animimage/lv_animimage.c ****     lv_animimg_t * animimg = (lv_animimg_t *)obj;
 351              		.loc 1 113 5 view .LVU81
 352 0000 20B1     		cbz	r0, .L26
 112:Drivers/lvgl/src/widgets/animimage/lv_animimage.c ****     LV_ASSERT_OBJ(obj, MY_CLASS);
 353              		.loc 1 112 1 is_stmt 0 view .LVU82
 354 0002 08B5     		push	{r3, lr}
 355              	.LCFI8:
 356              		.cfi_def_cfa_offset 8
 357              		.cfi_offset 3, -8
 358              		.cfi_offset 14, -4
 113:Drivers/lvgl/src/widgets/animimage/lv_animimage.c ****     lv_animimg_t * animimg = (lv_animimg_t *)obj;
 359              		.loc 1 113 5 is_stmt 1 view .LVU83
 113:Drivers/lvgl/src/widgets/animimage/lv_animimage.c ****     lv_animimg_t * animimg = (lv_animimg_t *)obj;
 360              		.loc 1 113 33 view .LVU84
 114:Drivers/lvgl/src/widgets/animimage/lv_animimage.c ****     lv_anim_start(&animimg->anim);
 361              		.loc 1 114 5 view .LVU85
 362              	.LVL36:
 115:Drivers/lvgl/src/widgets/animimage/lv_animimage.c **** }
 363              		.loc 1 115 5 view .LVU86
 364 0004 5C30     		adds	r0, r0, #92
 365              	.LVL37:
 115:Drivers/lvgl/src/widgets/animimage/lv_animimage.c **** }
 366              		.loc 1 115 5 is_stmt 0 view .LVU87
ARM GAS  /var/folders/qx/2_175_4n2s19vhvtspjhb3qh0000gn/T//ccRvvqfJ.s 			page 13


 367 0006 FFF7FEFF 		bl	lv_anim_start
 368              	.LVL38:
 116:Drivers/lvgl/src/widgets/animimage/lv_animimage.c **** 
 369              		.loc 1 116 1 view .LVU88
 370 000a 08BD     		pop	{r3, pc}
 371              	.LVL39:
 372              	.L26:
 373              	.LCFI9:
 374              		.cfi_def_cfa_offset 0
 375              		.cfi_restore 3
 376              		.cfi_restore 14
 113:Drivers/lvgl/src/widgets/animimage/lv_animimage.c ****     lv_animimg_t * animimg = (lv_animimg_t *)obj;
 377              		.loc 1 113 5 is_stmt 1 view .LVU89
 113:Drivers/lvgl/src/widgets/animimage/lv_animimage.c ****     lv_animimg_t * animimg = (lv_animimg_t *)obj;
 378              		.loc 1 113 5 view .LVU90
 113:Drivers/lvgl/src/widgets/animimage/lv_animimage.c ****     lv_animimg_t * animimg = (lv_animimg_t *)obj;
 379              		.loc 1 113 5 view .LVU91
 113:Drivers/lvgl/src/widgets/animimage/lv_animimage.c ****     lv_animimg_t * animimg = (lv_animimg_t *)obj;
 380              		.loc 1 113 5 view .LVU92
 113:Drivers/lvgl/src/widgets/animimage/lv_animimage.c ****     lv_animimg_t * animimg = (lv_animimg_t *)obj;
 381              		.loc 1 113 5 view .LVU93
 382 000c FEE7     		b	.L26
 383              		.cfi_endproc
 384              	.LFE187:
 386              		.section	.text.lv_animimg_delete,"ax",%progbits
 387              		.align	1
 388              		.global	lv_animimg_delete
 389              		.syntax unified
 390              		.thumb
 391              		.thumb_func
 393              	lv_animimg_delete:
 394              	.LVL40:
 395              	.LFB188:
 119:Drivers/lvgl/src/widgets/animimage/lv_animimage.c ****     LV_ASSERT_OBJ(obj, MY_CLASS);
 396              		.loc 1 119 1 view -0
 397              		.cfi_startproc
 398              		@ args = 0, pretend = 0, frame = 0
 399              		@ frame_needed = 0, uses_anonymous_args = 0
 120:Drivers/lvgl/src/widgets/animimage/lv_animimage.c ****     lv_animimg_t * animimg = (lv_animimg_t *)obj;
 400              		.loc 1 120 5 view .LVU95
 120:Drivers/lvgl/src/widgets/animimage/lv_animimage.c ****     lv_animimg_t * animimg = (lv_animimg_t *)obj;
 401              		.loc 1 120 5 view .LVU96
 402 0000 20B1     		cbz	r0, .L31
 119:Drivers/lvgl/src/widgets/animimage/lv_animimage.c ****     LV_ASSERT_OBJ(obj, MY_CLASS);
 403              		.loc 1 119 1 is_stmt 0 view .LVU97
 404 0002 08B5     		push	{r3, lr}
 405              	.LCFI10:
 406              		.cfi_def_cfa_offset 8
 407              		.cfi_offset 3, -8
 408              		.cfi_offset 14, -4
 120:Drivers/lvgl/src/widgets/animimage/lv_animimage.c ****     lv_animimg_t * animimg = (lv_animimg_t *)obj;
 409              		.loc 1 120 5 is_stmt 1 view .LVU98
 120:Drivers/lvgl/src/widgets/animimage/lv_animimage.c ****     lv_animimg_t * animimg = (lv_animimg_t *)obj;
 410              		.loc 1 120 33 view .LVU99
 121:Drivers/lvgl/src/widgets/animimage/lv_animimage.c ****     return lv_anim_delete(animimg, NULL);
 411              		.loc 1 121 5 view .LVU100
 412              	.LVL41:
ARM GAS  /var/folders/qx/2_175_4n2s19vhvtspjhb3qh0000gn/T//ccRvvqfJ.s 			page 14


 122:Drivers/lvgl/src/widgets/animimage/lv_animimage.c **** }
 413              		.loc 1 122 5 view .LVU101
 122:Drivers/lvgl/src/widgets/animimage/lv_animimage.c **** }
 414              		.loc 1 122 12 is_stmt 0 view .LVU102
 415 0004 0021     		movs	r1, #0
 416 0006 FFF7FEFF 		bl	lv_anim_delete
 417              	.LVL42:
 123:Drivers/lvgl/src/widgets/animimage/lv_animimage.c **** 
 418              		.loc 1 123 1 view .LVU103
 419 000a 08BD     		pop	{r3, pc}
 420              	.LVL43:
 421              	.L31:
 422              	.LCFI11:
 423              		.cfi_def_cfa_offset 0
 424              		.cfi_restore 3
 425              		.cfi_restore 14
 120:Drivers/lvgl/src/widgets/animimage/lv_animimage.c ****     lv_animimg_t * animimg = (lv_animimg_t *)obj;
 426              		.loc 1 120 5 is_stmt 1 view .LVU104
 120:Drivers/lvgl/src/widgets/animimage/lv_animimage.c ****     lv_animimg_t * animimg = (lv_animimg_t *)obj;
 427              		.loc 1 120 5 view .LVU105
 120:Drivers/lvgl/src/widgets/animimage/lv_animimage.c ****     lv_animimg_t * animimg = (lv_animimg_t *)obj;
 428              		.loc 1 120 5 view .LVU106
 120:Drivers/lvgl/src/widgets/animimage/lv_animimage.c ****     lv_animimg_t * animimg = (lv_animimg_t *)obj;
 429              		.loc 1 120 5 view .LVU107
 120:Drivers/lvgl/src/widgets/animimage/lv_animimage.c ****     lv_animimg_t * animimg = (lv_animimg_t *)obj;
 430              		.loc 1 120 5 view .LVU108
 431 000c FEE7     		b	.L31
 432              		.cfi_endproc
 433              	.LFE188:
 435              		.section	.text.lv_animimg_set_duration,"ax",%progbits
 436              		.align	1
 437              		.global	lv_animimg_set_duration
 438              		.syntax unified
 439              		.thumb
 440              		.thumb_func
 442              	lv_animimg_set_duration:
 443              	.LVL44:
 444              	.LFB189:
 130:Drivers/lvgl/src/widgets/animimage/lv_animimage.c ****     LV_ASSERT_OBJ(obj, MY_CLASS);
 445              		.loc 1 130 1 view -0
 446              		.cfi_startproc
 447              		@ args = 0, pretend = 0, frame = 0
 448              		@ frame_needed = 0, uses_anonymous_args = 0
 131:Drivers/lvgl/src/widgets/animimage/lv_animimage.c ****     lv_animimg_t * animimg = (lv_animimg_t *)obj;
 449              		.loc 1 131 5 view .LVU110
 131:Drivers/lvgl/src/widgets/animimage/lv_animimage.c ****     lv_animimg_t * animimg = (lv_animimg_t *)obj;
 450              		.loc 1 131 5 view .LVU111
 451 0000 58B1     		cbz	r0, .L36
 130:Drivers/lvgl/src/widgets/animimage/lv_animimage.c ****     LV_ASSERT_OBJ(obj, MY_CLASS);
 452              		.loc 1 130 1 is_stmt 0 view .LVU112
 453 0002 38B5     		push	{r3, r4, r5, lr}
 454              	.LCFI12:
 455              		.cfi_def_cfa_offset 16
 456              		.cfi_offset 3, -16
 457              		.cfi_offset 4, -12
 458              		.cfi_offset 5, -8
 459              		.cfi_offset 14, -4
ARM GAS  /var/folders/qx/2_175_4n2s19vhvtspjhb3qh0000gn/T//ccRvvqfJ.s 			page 15


 460 0004 0C46     		mov	r4, r1
 461 0006 0546     		mov	r5, r0
 131:Drivers/lvgl/src/widgets/animimage/lv_animimage.c ****     lv_animimg_t * animimg = (lv_animimg_t *)obj;
 462              		.loc 1 131 5 is_stmt 1 view .LVU113
 131:Drivers/lvgl/src/widgets/animimage/lv_animimage.c ****     lv_animimg_t * animimg = (lv_animimg_t *)obj;
 463              		.loc 1 131 33 view .LVU114
 132:Drivers/lvgl/src/widgets/animimage/lv_animimage.c ****     lv_anim_set_duration(&animimg->anim, duration);
 464              		.loc 1 132 5 view .LVU115
 465              	.LVL45:
 133:Drivers/lvgl/src/widgets/animimage/lv_animimage.c ****     lv_anim_set_reverse_delay(&animimg->anim, duration);
 466              		.loc 1 133 5 view .LVU116
 467 0008 5C35     		adds	r5, r5, #92
 468 000a 2846     		mov	r0, r5
 469              	.LVL46:
 133:Drivers/lvgl/src/widgets/animimage/lv_animimage.c ****     lv_anim_set_reverse_delay(&animimg->anim, duration);
 470              		.loc 1 133 5 is_stmt 0 view .LVU117
 471 000c FFF7FEFF 		bl	lv_anim_set_duration
 472              	.LVL47:
 134:Drivers/lvgl/src/widgets/animimage/lv_animimage.c **** }
 473              		.loc 1 134 5 is_stmt 1 view .LVU118
 474 0010 2146     		mov	r1, r4
 475 0012 2846     		mov	r0, r5
 476 0014 FFF7FEFF 		bl	lv_anim_set_reverse_delay
 477              	.LVL48:
 135:Drivers/lvgl/src/widgets/animimage/lv_animimage.c **** 
 478              		.loc 1 135 1 is_stmt 0 view .LVU119
 479 0018 38BD     		pop	{r3, r4, r5, pc}
 480              	.LVL49:
 481              	.L36:
 482              	.LCFI13:
 483              		.cfi_def_cfa_offset 0
 484              		.cfi_restore 3
 485              		.cfi_restore 4
 486              		.cfi_restore 5
 487              		.cfi_restore 14
 131:Drivers/lvgl/src/widgets/animimage/lv_animimage.c ****     lv_animimg_t * animimg = (lv_animimg_t *)obj;
 488              		.loc 1 131 5 is_stmt 1 view .LVU120
 131:Drivers/lvgl/src/widgets/animimage/lv_animimage.c ****     lv_animimg_t * animimg = (lv_animimg_t *)obj;
 489              		.loc 1 131 5 view .LVU121
 131:Drivers/lvgl/src/widgets/animimage/lv_animimage.c ****     lv_animimg_t * animimg = (lv_animimg_t *)obj;
 490              		.loc 1 131 5 view .LVU122
 131:Drivers/lvgl/src/widgets/animimage/lv_animimage.c ****     lv_animimg_t * animimg = (lv_animimg_t *)obj;
 491              		.loc 1 131 5 view .LVU123
 131:Drivers/lvgl/src/widgets/animimage/lv_animimage.c ****     lv_animimg_t * animimg = (lv_animimg_t *)obj;
 492              		.loc 1 131 5 view .LVU124
 493 001a FEE7     		b	.L36
 494              		.cfi_endproc
 495              	.LFE189:
 497              		.section	.text.lv_animimg_set_repeat_count,"ax",%progbits
 498              		.align	1
 499              		.global	lv_animimg_set_repeat_count
 500              		.syntax unified
 501              		.thumb
 502              		.thumb_func
 504              	lv_animimg_set_repeat_count:
 505              	.LVL50:
 506              	.LFB190:
ARM GAS  /var/folders/qx/2_175_4n2s19vhvtspjhb3qh0000gn/T//ccRvvqfJ.s 			page 16


 138:Drivers/lvgl/src/widgets/animimage/lv_animimage.c ****     LV_ASSERT_OBJ(obj, MY_CLASS);
 507              		.loc 1 138 1 view -0
 508              		.cfi_startproc
 509              		@ args = 0, pretend = 0, frame = 0
 510              		@ frame_needed = 0, uses_anonymous_args = 0
 139:Drivers/lvgl/src/widgets/animimage/lv_animimage.c ****     lv_animimg_t * animimg = (lv_animimg_t *)obj;
 511              		.loc 1 139 5 view .LVU126
 139:Drivers/lvgl/src/widgets/animimage/lv_animimage.c ****     lv_animimg_t * animimg = (lv_animimg_t *)obj;
 512              		.loc 1 139 5 view .LVU127
 513 0000 20B1     		cbz	r0, .L41
 138:Drivers/lvgl/src/widgets/animimage/lv_animimage.c ****     LV_ASSERT_OBJ(obj, MY_CLASS);
 514              		.loc 1 138 1 is_stmt 0 view .LVU128
 515 0002 08B5     		push	{r3, lr}
 516              	.LCFI14:
 517              		.cfi_def_cfa_offset 8
 518              		.cfi_offset 3, -8
 519              		.cfi_offset 14, -4
 139:Drivers/lvgl/src/widgets/animimage/lv_animimage.c ****     lv_animimg_t * animimg = (lv_animimg_t *)obj;
 520              		.loc 1 139 5 is_stmt 1 view .LVU129
 139:Drivers/lvgl/src/widgets/animimage/lv_animimage.c ****     lv_animimg_t * animimg = (lv_animimg_t *)obj;
 521              		.loc 1 139 33 view .LVU130
 140:Drivers/lvgl/src/widgets/animimage/lv_animimage.c ****     lv_anim_set_repeat_count(&animimg->anim, count);
 522              		.loc 1 140 5 view .LVU131
 523              	.LVL51:
 141:Drivers/lvgl/src/widgets/animimage/lv_animimage.c **** }
 524              		.loc 1 141 5 view .LVU132
 525 0004 5C30     		adds	r0, r0, #92
 526              	.LVL52:
 141:Drivers/lvgl/src/widgets/animimage/lv_animimage.c **** }
 527              		.loc 1 141 5 is_stmt 0 view .LVU133
 528 0006 FFF7FEFF 		bl	lv_anim_set_repeat_count
 529              	.LVL53:
 142:Drivers/lvgl/src/widgets/animimage/lv_animimage.c **** 
 530              		.loc 1 142 1 view .LVU134
 531 000a 08BD     		pop	{r3, pc}
 532              	.LVL54:
 533              	.L41:
 534              	.LCFI15:
 535              		.cfi_def_cfa_offset 0
 536              		.cfi_restore 3
 537              		.cfi_restore 14
 139:Drivers/lvgl/src/widgets/animimage/lv_animimage.c ****     lv_animimg_t * animimg = (lv_animimg_t *)obj;
 538              		.loc 1 139 5 is_stmt 1 view .LVU135
 139:Drivers/lvgl/src/widgets/animimage/lv_animimage.c ****     lv_animimg_t * animimg = (lv_animimg_t *)obj;
 539              		.loc 1 139 5 view .LVU136
 139:Drivers/lvgl/src/widgets/animimage/lv_animimage.c ****     lv_animimg_t * animimg = (lv_animimg_t *)obj;
 540              		.loc 1 139 5 view .LVU137
 139:Drivers/lvgl/src/widgets/animimage/lv_animimage.c ****     lv_animimg_t * animimg = (lv_animimg_t *)obj;
 541              		.loc 1 139 5 view .LVU138
 139:Drivers/lvgl/src/widgets/animimage/lv_animimage.c ****     lv_animimg_t * animimg = (lv_animimg_t *)obj;
 542              		.loc 1 139 5 view .LVU139
 543 000c FEE7     		b	.L41
 544              		.cfi_endproc
 545              	.LFE190:
 547              		.section	.text.lv_animimg_set_reverse_duration,"ax",%progbits
 548              		.align	1
 549              		.global	lv_animimg_set_reverse_duration
ARM GAS  /var/folders/qx/2_175_4n2s19vhvtspjhb3qh0000gn/T//ccRvvqfJ.s 			page 17


 550              		.syntax unified
 551              		.thumb
 552              		.thumb_func
 554              	lv_animimg_set_reverse_duration:
 555              	.LVL55:
 556              	.LFB191:
 145:Drivers/lvgl/src/widgets/animimage/lv_animimage.c ****     LV_ASSERT_OBJ(obj, MY_CLASS);
 557              		.loc 1 145 1 view -0
 558              		.cfi_startproc
 559              		@ args = 0, pretend = 0, frame = 0
 560              		@ frame_needed = 0, uses_anonymous_args = 0
 146:Drivers/lvgl/src/widgets/animimage/lv_animimage.c ****     lv_animimg_t * animimg = (lv_animimg_t *)obj;
 561              		.loc 1 146 5 view .LVU141
 146:Drivers/lvgl/src/widgets/animimage/lv_animimage.c ****     lv_animimg_t * animimg = (lv_animimg_t *)obj;
 562              		.loc 1 146 5 view .LVU142
 563 0000 20B1     		cbz	r0, .L46
 145:Drivers/lvgl/src/widgets/animimage/lv_animimage.c ****     LV_ASSERT_OBJ(obj, MY_CLASS);
 564              		.loc 1 145 1 is_stmt 0 view .LVU143
 565 0002 08B5     		push	{r3, lr}
 566              	.LCFI16:
 567              		.cfi_def_cfa_offset 8
 568              		.cfi_offset 3, -8
 569              		.cfi_offset 14, -4
 146:Drivers/lvgl/src/widgets/animimage/lv_animimage.c ****     lv_animimg_t * animimg = (lv_animimg_t *)obj;
 570              		.loc 1 146 5 is_stmt 1 view .LVU144
 146:Drivers/lvgl/src/widgets/animimage/lv_animimage.c ****     lv_animimg_t * animimg = (lv_animimg_t *)obj;
 571              		.loc 1 146 33 view .LVU145
 147:Drivers/lvgl/src/widgets/animimage/lv_animimage.c ****     lv_anim_set_reverse_duration(&animimg->anim, duration);
 572              		.loc 1 147 5 view .LVU146
 573              	.LVL56:
 148:Drivers/lvgl/src/widgets/animimage/lv_animimage.c **** }
 574              		.loc 1 148 5 view .LVU147
 575 0004 5C30     		adds	r0, r0, #92
 576              	.LVL57:
 148:Drivers/lvgl/src/widgets/animimage/lv_animimage.c **** }
 577              		.loc 1 148 5 is_stmt 0 view .LVU148
 578 0006 FFF7FEFF 		bl	lv_anim_set_reverse_duration
 579              	.LVL58:
 149:Drivers/lvgl/src/widgets/animimage/lv_animimage.c **** 
 580              		.loc 1 149 1 view .LVU149
 581 000a 08BD     		pop	{r3, pc}
 582              	.LVL59:
 583              	.L46:
 584              	.LCFI17:
 585              		.cfi_def_cfa_offset 0
 586              		.cfi_restore 3
 587              		.cfi_restore 14
 146:Drivers/lvgl/src/widgets/animimage/lv_animimage.c ****     lv_animimg_t * animimg = (lv_animimg_t *)obj;
 588              		.loc 1 146 5 is_stmt 1 view .LVU150
 146:Drivers/lvgl/src/widgets/animimage/lv_animimage.c ****     lv_animimg_t * animimg = (lv_animimg_t *)obj;
 589              		.loc 1 146 5 view .LVU151
 146:Drivers/lvgl/src/widgets/animimage/lv_animimage.c ****     lv_animimg_t * animimg = (lv_animimg_t *)obj;
 590              		.loc 1 146 5 view .LVU152
 146:Drivers/lvgl/src/widgets/animimage/lv_animimage.c ****     lv_animimg_t * animimg = (lv_animimg_t *)obj;
 591              		.loc 1 146 5 view .LVU153
 146:Drivers/lvgl/src/widgets/animimage/lv_animimage.c ****     lv_animimg_t * animimg = (lv_animimg_t *)obj;
 592              		.loc 1 146 5 view .LVU154
ARM GAS  /var/folders/qx/2_175_4n2s19vhvtspjhb3qh0000gn/T//ccRvvqfJ.s 			page 18


 593 000c FEE7     		b	.L46
 594              		.cfi_endproc
 595              	.LFE191:
 597              		.section	.text.lv_animimg_set_reverse_delay,"ax",%progbits
 598              		.align	1
 599              		.global	lv_animimg_set_reverse_delay
 600              		.syntax unified
 601              		.thumb
 602              		.thumb_func
 604              	lv_animimg_set_reverse_delay:
 605              	.LVL60:
 606              	.LFB192:
 152:Drivers/lvgl/src/widgets/animimage/lv_animimage.c ****     LV_ASSERT_OBJ(obj, MY_CLASS);
 607              		.loc 1 152 1 view -0
 608              		.cfi_startproc
 609              		@ args = 0, pretend = 0, frame = 0
 610              		@ frame_needed = 0, uses_anonymous_args = 0
 153:Drivers/lvgl/src/widgets/animimage/lv_animimage.c ****     lv_animimg_t * animimg = (lv_animimg_t *)obj;
 611              		.loc 1 153 5 view .LVU156
 153:Drivers/lvgl/src/widgets/animimage/lv_animimage.c ****     lv_animimg_t * animimg = (lv_animimg_t *)obj;
 612              		.loc 1 153 5 view .LVU157
 613 0000 20B1     		cbz	r0, .L51
 152:Drivers/lvgl/src/widgets/animimage/lv_animimage.c ****     LV_ASSERT_OBJ(obj, MY_CLASS);
 614              		.loc 1 152 1 is_stmt 0 view .LVU158
 615 0002 08B5     		push	{r3, lr}
 616              	.LCFI18:
 617              		.cfi_def_cfa_offset 8
 618              		.cfi_offset 3, -8
 619              		.cfi_offset 14, -4
 153:Drivers/lvgl/src/widgets/animimage/lv_animimage.c ****     lv_animimg_t * animimg = (lv_animimg_t *)obj;
 620              		.loc 1 153 5 is_stmt 1 view .LVU159
 153:Drivers/lvgl/src/widgets/animimage/lv_animimage.c ****     lv_animimg_t * animimg = (lv_animimg_t *)obj;
 621              		.loc 1 153 33 view .LVU160
 154:Drivers/lvgl/src/widgets/animimage/lv_animimage.c ****     lv_anim_set_reverse_delay(&animimg->anim, duration);
 622              		.loc 1 154 5 view .LVU161
 623              	.LVL61:
 155:Drivers/lvgl/src/widgets/animimage/lv_animimage.c **** }
 624              		.loc 1 155 5 view .LVU162
 625 0004 5C30     		adds	r0, r0, #92
 626              	.LVL62:
 155:Drivers/lvgl/src/widgets/animimage/lv_animimage.c **** }
 627              		.loc 1 155 5 is_stmt 0 view .LVU163
 628 0006 FFF7FEFF 		bl	lv_anim_set_reverse_delay
 629              	.LVL63:
 156:Drivers/lvgl/src/widgets/animimage/lv_animimage.c **** 
 630              		.loc 1 156 1 view .LVU164
 631 000a 08BD     		pop	{r3, pc}
 632              	.LVL64:
 633              	.L51:
 634              	.LCFI19:
 635              		.cfi_def_cfa_offset 0
 636              		.cfi_restore 3
 637              		.cfi_restore 14
 153:Drivers/lvgl/src/widgets/animimage/lv_animimage.c ****     lv_animimg_t * animimg = (lv_animimg_t *)obj;
 638              		.loc 1 153 5 is_stmt 1 view .LVU165
 153:Drivers/lvgl/src/widgets/animimage/lv_animimage.c ****     lv_animimg_t * animimg = (lv_animimg_t *)obj;
 639              		.loc 1 153 5 view .LVU166
ARM GAS  /var/folders/qx/2_175_4n2s19vhvtspjhb3qh0000gn/T//ccRvvqfJ.s 			page 19


 153:Drivers/lvgl/src/widgets/animimage/lv_animimage.c ****     lv_animimg_t * animimg = (lv_animimg_t *)obj;
 640              		.loc 1 153 5 view .LVU167
 153:Drivers/lvgl/src/widgets/animimage/lv_animimage.c ****     lv_animimg_t * animimg = (lv_animimg_t *)obj;
 641              		.loc 1 153 5 view .LVU168
 153:Drivers/lvgl/src/widgets/animimage/lv_animimage.c ****     lv_animimg_t * animimg = (lv_animimg_t *)obj;
 642              		.loc 1 153 5 view .LVU169
 643 000c FEE7     		b	.L51
 644              		.cfi_endproc
 645              	.LFE192:
 647              		.section	.text.lv_animimg_set_start_cb,"ax",%progbits
 648              		.align	1
 649              		.global	lv_animimg_set_start_cb
 650              		.syntax unified
 651              		.thumb
 652              		.thumb_func
 654              	lv_animimg_set_start_cb:
 655              	.LVL65:
 656              	.LFB193:
 159:Drivers/lvgl/src/widgets/animimage/lv_animimage.c ****     LV_ASSERT_OBJ(obj, MY_CLASS);
 657              		.loc 1 159 1 view -0
 658              		.cfi_startproc
 659              		@ args = 0, pretend = 0, frame = 0
 660              		@ frame_needed = 0, uses_anonymous_args = 0
 160:Drivers/lvgl/src/widgets/animimage/lv_animimage.c ****     lv_animimg_t * animimg = (lv_animimg_t *)obj;
 661              		.loc 1 160 5 view .LVU171
 160:Drivers/lvgl/src/widgets/animimage/lv_animimage.c ****     lv_animimg_t * animimg = (lv_animimg_t *)obj;
 662              		.loc 1 160 5 view .LVU172
 663 0000 20B1     		cbz	r0, .L56
 159:Drivers/lvgl/src/widgets/animimage/lv_animimage.c ****     LV_ASSERT_OBJ(obj, MY_CLASS);
 664              		.loc 1 159 1 is_stmt 0 view .LVU173
 665 0002 08B5     		push	{r3, lr}
 666              	.LCFI20:
 667              		.cfi_def_cfa_offset 8
 668              		.cfi_offset 3, -8
 669              		.cfi_offset 14, -4
 160:Drivers/lvgl/src/widgets/animimage/lv_animimage.c ****     lv_animimg_t * animimg = (lv_animimg_t *)obj;
 670              		.loc 1 160 5 is_stmt 1 view .LVU174
 160:Drivers/lvgl/src/widgets/animimage/lv_animimage.c ****     lv_animimg_t * animimg = (lv_animimg_t *)obj;
 671              		.loc 1 160 33 view .LVU175
 161:Drivers/lvgl/src/widgets/animimage/lv_animimage.c ****     lv_anim_set_start_cb(&animimg->anim, start_cb);
 672              		.loc 1 161 5 view .LVU176
 673              	.LVL66:
 162:Drivers/lvgl/src/widgets/animimage/lv_animimage.c **** }
 674              		.loc 1 162 5 view .LVU177
 675 0004 5C30     		adds	r0, r0, #92
 676              	.LVL67:
 162:Drivers/lvgl/src/widgets/animimage/lv_animimage.c **** }
 677              		.loc 1 162 5 is_stmt 0 view .LVU178
 678 0006 FFF7FEFF 		bl	lv_anim_set_start_cb
 679              	.LVL68:
 163:Drivers/lvgl/src/widgets/animimage/lv_animimage.c **** 
 680              		.loc 1 163 1 view .LVU179
 681 000a 08BD     		pop	{r3, pc}
 682              	.LVL69:
 683              	.L56:
 684              	.LCFI21:
 685              		.cfi_def_cfa_offset 0
ARM GAS  /var/folders/qx/2_175_4n2s19vhvtspjhb3qh0000gn/T//ccRvvqfJ.s 			page 20


 686              		.cfi_restore 3
 687              		.cfi_restore 14
 160:Drivers/lvgl/src/widgets/animimage/lv_animimage.c ****     lv_animimg_t * animimg = (lv_animimg_t *)obj;
 688              		.loc 1 160 5 is_stmt 1 view .LVU180
 160:Drivers/lvgl/src/widgets/animimage/lv_animimage.c ****     lv_animimg_t * animimg = (lv_animimg_t *)obj;
 689              		.loc 1 160 5 view .LVU181
 160:Drivers/lvgl/src/widgets/animimage/lv_animimage.c ****     lv_animimg_t * animimg = (lv_animimg_t *)obj;
 690              		.loc 1 160 5 view .LVU182
 160:Drivers/lvgl/src/widgets/animimage/lv_animimage.c ****     lv_animimg_t * animimg = (lv_animimg_t *)obj;
 691              		.loc 1 160 5 view .LVU183
 160:Drivers/lvgl/src/widgets/animimage/lv_animimage.c ****     lv_animimg_t * animimg = (lv_animimg_t *)obj;
 692              		.loc 1 160 5 view .LVU184
 693 000c FEE7     		b	.L56
 694              		.cfi_endproc
 695              	.LFE193:
 697              		.section	.text.lv_animimg_set_completed_cb,"ax",%progbits
 698              		.align	1
 699              		.global	lv_animimg_set_completed_cb
 700              		.syntax unified
 701              		.thumb
 702              		.thumb_func
 704              	lv_animimg_set_completed_cb:
 705              	.LVL70:
 706              	.LFB194:
 166:Drivers/lvgl/src/widgets/animimage/lv_animimage.c ****     LV_ASSERT_OBJ(obj, MY_CLASS);
 707              		.loc 1 166 1 view -0
 708              		.cfi_startproc
 709              		@ args = 0, pretend = 0, frame = 0
 710              		@ frame_needed = 0, uses_anonymous_args = 0
 167:Drivers/lvgl/src/widgets/animimage/lv_animimage.c ****     lv_animimg_t * animimg = (lv_animimg_t *)obj;
 711              		.loc 1 167 5 view .LVU186
 167:Drivers/lvgl/src/widgets/animimage/lv_animimage.c ****     lv_animimg_t * animimg = (lv_animimg_t *)obj;
 712              		.loc 1 167 5 view .LVU187
 713 0000 20B1     		cbz	r0, .L61
 166:Drivers/lvgl/src/widgets/animimage/lv_animimage.c ****     LV_ASSERT_OBJ(obj, MY_CLASS);
 714              		.loc 1 166 1 is_stmt 0 view .LVU188
 715 0002 08B5     		push	{r3, lr}
 716              	.LCFI22:
 717              		.cfi_def_cfa_offset 8
 718              		.cfi_offset 3, -8
 719              		.cfi_offset 14, -4
 167:Drivers/lvgl/src/widgets/animimage/lv_animimage.c ****     lv_animimg_t * animimg = (lv_animimg_t *)obj;
 720              		.loc 1 167 5 is_stmt 1 view .LVU189
 167:Drivers/lvgl/src/widgets/animimage/lv_animimage.c ****     lv_animimg_t * animimg = (lv_animimg_t *)obj;
 721              		.loc 1 167 33 view .LVU190
 168:Drivers/lvgl/src/widgets/animimage/lv_animimage.c ****     lv_anim_set_completed_cb(&animimg->anim, completed_cb);
 722              		.loc 1 168 5 view .LVU191
 723              	.LVL71:
 169:Drivers/lvgl/src/widgets/animimage/lv_animimage.c **** }
 724              		.loc 1 169 5 view .LVU192
 725 0004 5C30     		adds	r0, r0, #92
 726              	.LVL72:
 169:Drivers/lvgl/src/widgets/animimage/lv_animimage.c **** }
 727              		.loc 1 169 5 is_stmt 0 view .LVU193
 728 0006 FFF7FEFF 		bl	lv_anim_set_completed_cb
 729              	.LVL73:
 170:Drivers/lvgl/src/widgets/animimage/lv_animimage.c **** 
ARM GAS  /var/folders/qx/2_175_4n2s19vhvtspjhb3qh0000gn/T//ccRvvqfJ.s 			page 21


 730              		.loc 1 170 1 view .LVU194
 731 000a 08BD     		pop	{r3, pc}
 732              	.LVL74:
 733              	.L61:
 734              	.LCFI23:
 735              		.cfi_def_cfa_offset 0
 736              		.cfi_restore 3
 737              		.cfi_restore 14
 167:Drivers/lvgl/src/widgets/animimage/lv_animimage.c ****     lv_animimg_t * animimg = (lv_animimg_t *)obj;
 738              		.loc 1 167 5 is_stmt 1 view .LVU195
 167:Drivers/lvgl/src/widgets/animimage/lv_animimage.c ****     lv_animimg_t * animimg = (lv_animimg_t *)obj;
 739              		.loc 1 167 5 view .LVU196
 167:Drivers/lvgl/src/widgets/animimage/lv_animimage.c ****     lv_animimg_t * animimg = (lv_animimg_t *)obj;
 740              		.loc 1 167 5 view .LVU197
 167:Drivers/lvgl/src/widgets/animimage/lv_animimage.c ****     lv_animimg_t * animimg = (lv_animimg_t *)obj;
 741              		.loc 1 167 5 view .LVU198
 167:Drivers/lvgl/src/widgets/animimage/lv_animimage.c ****     lv_animimg_t * animimg = (lv_animimg_t *)obj;
 742              		.loc 1 167 5 view .LVU199
 743 000c FEE7     		b	.L61
 744              		.cfi_endproc
 745              	.LFE194:
 747              		.section	.text.lv_animimg_get_src,"ax",%progbits
 748              		.align	1
 749              		.global	lv_animimg_get_src
 750              		.syntax unified
 751              		.thumb
 752              		.thumb_func
 754              	lv_animimg_get_src:
 755              	.LVL75:
 756              	.LFB195:
 177:Drivers/lvgl/src/widgets/animimage/lv_animimage.c ****     LV_ASSERT_OBJ(obj, MY_CLASS);
 757              		.loc 1 177 1 view -0
 758              		.cfi_startproc
 759              		@ args = 0, pretend = 0, frame = 0
 760              		@ frame_needed = 0, uses_anonymous_args = 0
 761              		@ link register save eliminated.
 178:Drivers/lvgl/src/widgets/animimage/lv_animimage.c ****     lv_animimg_t * animimg = (lv_animimg_t *)obj;
 762              		.loc 1 178 5 view .LVU201
 178:Drivers/lvgl/src/widgets/animimage/lv_animimage.c ****     lv_animimg_t * animimg = (lv_animimg_t *)obj;
 763              		.loc 1 178 5 view .LVU202
 764 0000 10B1     		cbz	r0, .L66
 178:Drivers/lvgl/src/widgets/animimage/lv_animimage.c ****     lv_animimg_t * animimg = (lv_animimg_t *)obj;
 765              		.loc 1 178 5 view .LVU203
 178:Drivers/lvgl/src/widgets/animimage/lv_animimage.c ****     lv_animimg_t * animimg = (lv_animimg_t *)obj;
 766              		.loc 1 178 33 view .LVU204
 179:Drivers/lvgl/src/widgets/animimage/lv_animimage.c ****     return animimg->dsc;
 767              		.loc 1 179 5 view .LVU205
 768              	.LVL76:
 180:Drivers/lvgl/src/widgets/animimage/lv_animimage.c **** }
 769              		.loc 1 180 5 view .LVU206
 181:Drivers/lvgl/src/widgets/animimage/lv_animimage.c **** 
 770              		.loc 1 181 1 is_stmt 0 view .LVU207
 771 0002 D0F8BC00 		ldr	r0, [r0, #188]
 772              	.LVL77:
 181:Drivers/lvgl/src/widgets/animimage/lv_animimage.c **** 
 773              		.loc 1 181 1 view .LVU208
 774 0006 7047     		bx	lr
ARM GAS  /var/folders/qx/2_175_4n2s19vhvtspjhb3qh0000gn/T//ccRvvqfJ.s 			page 22


 775              	.LVL78:
 776              	.L66:
 178:Drivers/lvgl/src/widgets/animimage/lv_animimage.c ****     lv_animimg_t * animimg = (lv_animimg_t *)obj;
 777              		.loc 1 178 5 is_stmt 1 view .LVU209
 178:Drivers/lvgl/src/widgets/animimage/lv_animimage.c ****     lv_animimg_t * animimg = (lv_animimg_t *)obj;
 778              		.loc 1 178 5 view .LVU210
 178:Drivers/lvgl/src/widgets/animimage/lv_animimage.c ****     lv_animimg_t * animimg = (lv_animimg_t *)obj;
 779              		.loc 1 178 5 view .LVU211
 178:Drivers/lvgl/src/widgets/animimage/lv_animimage.c ****     lv_animimg_t * animimg = (lv_animimg_t *)obj;
 780              		.loc 1 178 5 view .LVU212
 178:Drivers/lvgl/src/widgets/animimage/lv_animimage.c ****     lv_animimg_t * animimg = (lv_animimg_t *)obj;
 781              		.loc 1 178 5 view .LVU213
 782 0008 FEE7     		b	.L66
 783              		.cfi_endproc
 784              	.LFE195:
 786              		.section	.text.lv_animimg_get_src_count,"ax",%progbits
 787              		.align	1
 788              		.global	lv_animimg_get_src_count
 789              		.syntax unified
 790              		.thumb
 791              		.thumb_func
 793              	lv_animimg_get_src_count:
 794              	.LVL79:
 795              	.LFB196:
 184:Drivers/lvgl/src/widgets/animimage/lv_animimage.c ****     LV_ASSERT_OBJ(obj, MY_CLASS);
 796              		.loc 1 184 1 view -0
 797              		.cfi_startproc
 798              		@ args = 0, pretend = 0, frame = 0
 799              		@ frame_needed = 0, uses_anonymous_args = 0
 800              		@ link register save eliminated.
 185:Drivers/lvgl/src/widgets/animimage/lv_animimage.c ****     lv_animimg_t * animimg = (lv_animimg_t *)obj;
 801              		.loc 1 185 5 view .LVU215
 185:Drivers/lvgl/src/widgets/animimage/lv_animimage.c ****     lv_animimg_t * animimg = (lv_animimg_t *)obj;
 802              		.loc 1 185 5 view .LVU216
 803 0000 10B1     		cbz	r0, .L69
 185:Drivers/lvgl/src/widgets/animimage/lv_animimage.c ****     lv_animimg_t * animimg = (lv_animimg_t *)obj;
 804              		.loc 1 185 5 view .LVU217
 185:Drivers/lvgl/src/widgets/animimage/lv_animimage.c ****     lv_animimg_t * animimg = (lv_animimg_t *)obj;
 805              		.loc 1 185 33 view .LVU218
 186:Drivers/lvgl/src/widgets/animimage/lv_animimage.c ****     return animimg->pic_count;
 806              		.loc 1 186 5 view .LVU219
 807              	.LVL80:
 187:Drivers/lvgl/src/widgets/animimage/lv_animimage.c **** }
 808              		.loc 1 187 5 view .LVU220
 188:Drivers/lvgl/src/widgets/animimage/lv_animimage.c **** 
 809              		.loc 1 188 1 is_stmt 0 view .LVU221
 810 0002 90F8C000 		ldrb	r0, [r0, #192]	@ zero_extendqisi2
 811              	.LVL81:
 188:Drivers/lvgl/src/widgets/animimage/lv_animimage.c **** 
 812              		.loc 1 188 1 view .LVU222
 813 0006 7047     		bx	lr
 814              	.LVL82:
 815              	.L69:
 185:Drivers/lvgl/src/widgets/animimage/lv_animimage.c ****     lv_animimg_t * animimg = (lv_animimg_t *)obj;
 816              		.loc 1 185 5 is_stmt 1 view .LVU223
 185:Drivers/lvgl/src/widgets/animimage/lv_animimage.c ****     lv_animimg_t * animimg = (lv_animimg_t *)obj;
 817              		.loc 1 185 5 view .LVU224
ARM GAS  /var/folders/qx/2_175_4n2s19vhvtspjhb3qh0000gn/T//ccRvvqfJ.s 			page 23


 185:Drivers/lvgl/src/widgets/animimage/lv_animimage.c ****     lv_animimg_t * animimg = (lv_animimg_t *)obj;
 818              		.loc 1 185 5 view .LVU225
 185:Drivers/lvgl/src/widgets/animimage/lv_animimage.c ****     lv_animimg_t * animimg = (lv_animimg_t *)obj;
 819              		.loc 1 185 5 view .LVU226
 185:Drivers/lvgl/src/widgets/animimage/lv_animimage.c ****     lv_animimg_t * animimg = (lv_animimg_t *)obj;
 820              		.loc 1 185 5 view .LVU227
 821 0008 FEE7     		b	.L69
 822              		.cfi_endproc
 823              	.LFE196:
 825              		.section	.text.lv_animimg_get_duration,"ax",%progbits
 826              		.align	1
 827              		.global	lv_animimg_get_duration
 828              		.syntax unified
 829              		.thumb
 830              		.thumb_func
 832              	lv_animimg_get_duration:
 833              	.LVL83:
 834              	.LFB197:
 191:Drivers/lvgl/src/widgets/animimage/lv_animimage.c ****     LV_ASSERT_OBJ(obj, MY_CLASS);
 835              		.loc 1 191 1 view -0
 836              		.cfi_startproc
 837              		@ args = 0, pretend = 0, frame = 0
 838              		@ frame_needed = 0, uses_anonymous_args = 0
 192:Drivers/lvgl/src/widgets/animimage/lv_animimage.c ****     lv_animimg_t * animimg = (lv_animimg_t *)obj;
 839              		.loc 1 192 5 view .LVU229
 192:Drivers/lvgl/src/widgets/animimage/lv_animimage.c ****     lv_animimg_t * animimg = (lv_animimg_t *)obj;
 840              		.loc 1 192 5 view .LVU230
 841 0000 20B1     		cbz	r0, .L72
 191:Drivers/lvgl/src/widgets/animimage/lv_animimage.c ****     LV_ASSERT_OBJ(obj, MY_CLASS);
 842              		.loc 1 191 1 is_stmt 0 view .LVU231
 843 0002 08B5     		push	{r3, lr}
 844              	.LCFI24:
 845              		.cfi_def_cfa_offset 8
 846              		.cfi_offset 3, -8
 847              		.cfi_offset 14, -4
 192:Drivers/lvgl/src/widgets/animimage/lv_animimage.c ****     lv_animimg_t * animimg = (lv_animimg_t *)obj;
 848              		.loc 1 192 5 is_stmt 1 view .LVU232
 192:Drivers/lvgl/src/widgets/animimage/lv_animimage.c ****     lv_animimg_t * animimg = (lv_animimg_t *)obj;
 849              		.loc 1 192 33 view .LVU233
 193:Drivers/lvgl/src/widgets/animimage/lv_animimage.c ****     return lv_anim_get_time(&animimg->anim);
 850              		.loc 1 193 5 view .LVU234
 851              	.LVL84:
 194:Drivers/lvgl/src/widgets/animimage/lv_animimage.c **** }
 852              		.loc 1 194 5 view .LVU235
 194:Drivers/lvgl/src/widgets/animimage/lv_animimage.c **** }
 853              		.loc 1 194 12 is_stmt 0 view .LVU236
 854 0004 5C30     		adds	r0, r0, #92
 855              	.LVL85:
 194:Drivers/lvgl/src/widgets/animimage/lv_animimage.c **** }
 856              		.loc 1 194 12 view .LVU237
 857 0006 FFF7FEFF 		bl	lv_anim_get_time
 858              	.LVL86:
 195:Drivers/lvgl/src/widgets/animimage/lv_animimage.c **** 
 859              		.loc 1 195 1 view .LVU238
 860 000a 08BD     		pop	{r3, pc}
 861              	.LVL87:
 862              	.L72:
ARM GAS  /var/folders/qx/2_175_4n2s19vhvtspjhb3qh0000gn/T//ccRvvqfJ.s 			page 24


 863              	.LCFI25:
 864              		.cfi_def_cfa_offset 0
 865              		.cfi_restore 3
 866              		.cfi_restore 14
 192:Drivers/lvgl/src/widgets/animimage/lv_animimage.c ****     lv_animimg_t * animimg = (lv_animimg_t *)obj;
 867              		.loc 1 192 5 is_stmt 1 view .LVU239
 192:Drivers/lvgl/src/widgets/animimage/lv_animimage.c ****     lv_animimg_t * animimg = (lv_animimg_t *)obj;
 868              		.loc 1 192 5 view .LVU240
 192:Drivers/lvgl/src/widgets/animimage/lv_animimage.c ****     lv_animimg_t * animimg = (lv_animimg_t *)obj;
 869              		.loc 1 192 5 view .LVU241
 192:Drivers/lvgl/src/widgets/animimage/lv_animimage.c ****     lv_animimg_t * animimg = (lv_animimg_t *)obj;
 870              		.loc 1 192 5 view .LVU242
 192:Drivers/lvgl/src/widgets/animimage/lv_animimage.c ****     lv_animimg_t * animimg = (lv_animimg_t *)obj;
 871              		.loc 1 192 5 view .LVU243
 872 000c FEE7     		b	.L72
 873              		.cfi_endproc
 874              	.LFE197:
 876              		.section	.text.lv_animimg_get_repeat_count,"ax",%progbits
 877              		.align	1
 878              		.global	lv_animimg_get_repeat_count
 879              		.syntax unified
 880              		.thumb
 881              		.thumb_func
 883              	lv_animimg_get_repeat_count:
 884              	.LVL88:
 885              	.LFB198:
 198:Drivers/lvgl/src/widgets/animimage/lv_animimage.c ****     LV_ASSERT_OBJ(obj, MY_CLASS);
 886              		.loc 1 198 1 view -0
 887              		.cfi_startproc
 888              		@ args = 0, pretend = 0, frame = 0
 889              		@ frame_needed = 0, uses_anonymous_args = 0
 199:Drivers/lvgl/src/widgets/animimage/lv_animimage.c ****     lv_animimg_t * animimg = (lv_animimg_t *)obj;
 890              		.loc 1 199 5 view .LVU245
 199:Drivers/lvgl/src/widgets/animimage/lv_animimage.c ****     lv_animimg_t * animimg = (lv_animimg_t *)obj;
 891              		.loc 1 199 5 view .LVU246
 892 0000 20B1     		cbz	r0, .L77
 198:Drivers/lvgl/src/widgets/animimage/lv_animimage.c ****     LV_ASSERT_OBJ(obj, MY_CLASS);
 893              		.loc 1 198 1 is_stmt 0 view .LVU247
 894 0002 08B5     		push	{r3, lr}
 895              	.LCFI26:
 896              		.cfi_def_cfa_offset 8
 897              		.cfi_offset 3, -8
 898              		.cfi_offset 14, -4
 199:Drivers/lvgl/src/widgets/animimage/lv_animimage.c ****     lv_animimg_t * animimg = (lv_animimg_t *)obj;
 899              		.loc 1 199 5 is_stmt 1 view .LVU248
 199:Drivers/lvgl/src/widgets/animimage/lv_animimage.c ****     lv_animimg_t * animimg = (lv_animimg_t *)obj;
 900              		.loc 1 199 33 view .LVU249
 200:Drivers/lvgl/src/widgets/animimage/lv_animimage.c ****     return lv_anim_get_repeat_count(&animimg->anim);
 901              		.loc 1 200 5 view .LVU250
 902              	.LVL89:
 201:Drivers/lvgl/src/widgets/animimage/lv_animimage.c **** }
 903              		.loc 1 201 5 view .LVU251
 201:Drivers/lvgl/src/widgets/animimage/lv_animimage.c **** }
 904              		.loc 1 201 12 is_stmt 0 view .LVU252
 905 0004 5C30     		adds	r0, r0, #92
 906              	.LVL90:
 201:Drivers/lvgl/src/widgets/animimage/lv_animimage.c **** }
ARM GAS  /var/folders/qx/2_175_4n2s19vhvtspjhb3qh0000gn/T//ccRvvqfJ.s 			page 25


 907              		.loc 1 201 12 view .LVU253
 908 0006 FFF7FEFF 		bl	lv_anim_get_repeat_count
 909              	.LVL91:
 202:Drivers/lvgl/src/widgets/animimage/lv_animimage.c **** 
 910              		.loc 1 202 1 view .LVU254
 911 000a 08BD     		pop	{r3, pc}
 912              	.LVL92:
 913              	.L77:
 914              	.LCFI27:
 915              		.cfi_def_cfa_offset 0
 916              		.cfi_restore 3
 917              		.cfi_restore 14
 199:Drivers/lvgl/src/widgets/animimage/lv_animimage.c ****     lv_animimg_t * animimg = (lv_animimg_t *)obj;
 918              		.loc 1 199 5 is_stmt 1 view .LVU255
 199:Drivers/lvgl/src/widgets/animimage/lv_animimage.c ****     lv_animimg_t * animimg = (lv_animimg_t *)obj;
 919              		.loc 1 199 5 view .LVU256
 199:Drivers/lvgl/src/widgets/animimage/lv_animimage.c ****     lv_animimg_t * animimg = (lv_animimg_t *)obj;
 920              		.loc 1 199 5 view .LVU257
 199:Drivers/lvgl/src/widgets/animimage/lv_animimage.c ****     lv_animimg_t * animimg = (lv_animimg_t *)obj;
 921              		.loc 1 199 5 view .LVU258
 199:Drivers/lvgl/src/widgets/animimage/lv_animimage.c ****     lv_animimg_t * animimg = (lv_animimg_t *)obj;
 922              		.loc 1 199 5 view .LVU259
 923 000c FEE7     		b	.L77
 924              		.cfi_endproc
 925              	.LFE198:
 927              		.section	.text.lv_animimg_get_anim,"ax",%progbits
 928              		.align	1
 929              		.global	lv_animimg_get_anim
 930              		.syntax unified
 931              		.thumb
 932              		.thumb_func
 934              	lv_animimg_get_anim:
 935              	.LVL93:
 936              	.LFB199:
 205:Drivers/lvgl/src/widgets/animimage/lv_animimage.c ****     LV_ASSERT_OBJ(obj, MY_CLASS);
 937              		.loc 1 205 1 view -0
 938              		.cfi_startproc
 939              		@ args = 0, pretend = 0, frame = 0
 940              		@ frame_needed = 0, uses_anonymous_args = 0
 941              		@ link register save eliminated.
 206:Drivers/lvgl/src/widgets/animimage/lv_animimage.c ****     lv_animimg_t * animimg = (lv_animimg_t *)obj;
 942              		.loc 1 206 5 view .LVU261
 206:Drivers/lvgl/src/widgets/animimage/lv_animimage.c ****     lv_animimg_t * animimg = (lv_animimg_t *)obj;
 943              		.loc 1 206 5 view .LVU262
 944 0000 08B1     		cbz	r0, .L82
 206:Drivers/lvgl/src/widgets/animimage/lv_animimage.c ****     lv_animimg_t * animimg = (lv_animimg_t *)obj;
 945              		.loc 1 206 5 view .LVU263
 206:Drivers/lvgl/src/widgets/animimage/lv_animimage.c ****     lv_animimg_t * animimg = (lv_animimg_t *)obj;
 946              		.loc 1 206 33 view .LVU264
 207:Drivers/lvgl/src/widgets/animimage/lv_animimage.c ****     return &animimg->anim;
 947              		.loc 1 207 5 view .LVU265
 948              	.LVL94:
 208:Drivers/lvgl/src/widgets/animimage/lv_animimage.c **** }
 949              		.loc 1 208 5 view .LVU266
 209:Drivers/lvgl/src/widgets/animimage/lv_animimage.c **** 
 950              		.loc 1 209 1 is_stmt 0 view .LVU267
 951 0002 5C30     		adds	r0, r0, #92
ARM GAS  /var/folders/qx/2_175_4n2s19vhvtspjhb3qh0000gn/T//ccRvvqfJ.s 			page 26


 952              	.LVL95:
 209:Drivers/lvgl/src/widgets/animimage/lv_animimage.c **** 
 953              		.loc 1 209 1 view .LVU268
 954 0004 7047     		bx	lr
 955              	.LVL96:
 956              	.L82:
 206:Drivers/lvgl/src/widgets/animimage/lv_animimage.c ****     lv_animimg_t * animimg = (lv_animimg_t *)obj;
 957              		.loc 1 206 5 is_stmt 1 view .LVU269
 206:Drivers/lvgl/src/widgets/animimage/lv_animimage.c ****     lv_animimg_t * animimg = (lv_animimg_t *)obj;
 958              		.loc 1 206 5 view .LVU270
 206:Drivers/lvgl/src/widgets/animimage/lv_animimage.c ****     lv_animimg_t * animimg = (lv_animimg_t *)obj;
 959              		.loc 1 206 5 view .LVU271
 206:Drivers/lvgl/src/widgets/animimage/lv_animimage.c ****     lv_animimg_t * animimg = (lv_animimg_t *)obj;
 960              		.loc 1 206 5 view .LVU272
 206:Drivers/lvgl/src/widgets/animimage/lv_animimage.c ****     lv_animimg_t * animimg = (lv_animimg_t *)obj;
 961              		.loc 1 206 5 view .LVU273
 962 0006 FEE7     		b	.L82
 963              		.cfi_endproc
 964              	.LFE199:
 966              		.global	lv_animimg_class
 967              		.section	.rodata.str1.4,"aMS",%progbits,1
 968              		.align	2
 969              	.LC0:
 970 0000 6C765F61 		.ascii	"lv_animimg\000"
 970      6E696D69 
 970      6D6700
 971              		.section	.rodata.lv_animimg_class,"a"
 972              		.align	2
 975              	lv_animimg_class:
 976 0000 00000000 		.word	lv_image_class
 977 0004 00000000 		.word	lv_animimg_constructor
 978 0008 00000000 		.space	12
 978      00000000 
 978      00000000 
 979 0014 00000000 		.word	.LC0
 980 0018 00000000 		.space	8
 980      00000000 
 981 0020 40       		.byte	64
 982 0021 0C       		.byte	12
 983 0022 00       		.byte	0
 984 0023 00       		.space	1
 985              		.text
 986              	.Letext0:
 987              		.file 2 "/Applications/ArmGNUToolchain/14.3.rel1/arm-none-eabi/arm-none-eabi/include/machine/_defa
 988              		.file 3 "/Applications/ArmGNUToolchain/14.3.rel1/arm-none-eabi/arm-none-eabi/include/sys/_stdint.h
 989              		.file 4 "/Applications/ArmGNUToolchain/14.3.rel1/arm-none-eabi/lib/gcc/arm-none-eabi/14.3.1/includ
 990              		.file 5 "Drivers/lvgl/src/widgets/animimage/../image/../../core/../misc/lv_types.h"
 991              		.file 6 "Drivers/lvgl/src/widgets/animimage/../image/../../core/lv_obj_private.h"
 992              		.file 7 "Drivers/lvgl/src/widgets/animimage/../../core/lv_obj_class_private.h"
 993              		.file 8 "Drivers/lvgl/src/widgets/animimage/../image/../../core/../misc/lv_anim.h"
 994              		.file 9 "Drivers/lvgl/src/widgets/animimage/../image/lv_image_private.h"
 995              		.file 10 "Drivers/lvgl/src/widgets/animimage/lv_animimage_private.h"
 996              		.file 11 "Drivers/lvgl/src/widgets/animimage/../image/../../core/../display/../misc/lv_array.h"
 997              		.file 12 "Drivers/lvgl/src/widgets/animimage/../image/../../core/../misc/../font/../draw/../misc/l
 998              		.file 13 "Drivers/lvgl/src/widgets/animimage/../image/../../core/../misc/../font/../draw/lv_image_
 999              		.file 14 "Drivers/lvgl/src/widgets/animimage/../image/../../core/../display/../misc/lv_event.h"
 1000              		.file 15 "Drivers/lvgl/src/widgets/animimage/../image/../../core/../indev/lv_indev.h"
ARM GAS  /var/folders/qx/2_175_4n2s19vhvtspjhb3qh0000gn/T//ccRvvqfJ.s 			page 27


 1001              		.file 16 "Drivers/lvgl/src/widgets/animimage/../image/../../core/lv_obj.h"
 1002              		.file 17 "Drivers/lvgl/src/widgets/animimage/../image/lv_image.h"
 1003              		.file 18 "Drivers/lvgl/src/widgets/animimage/lv_animimage.h"
 1004              		.file 19 "Drivers/lvgl/src/widgets/animimage/../image/../../core/lv_obj_class.h"
ARM GAS  /var/folders/qx/2_175_4n2s19vhvtspjhb3qh0000gn/T//ccRvvqfJ.s 			page 28

