ARM GAS  C:\Users\moham\AppData\Local\Temp\ccsT0uSd.s 			page 1


   1              		.cpu cortex-m4
   2              		.arch armv7e-m
   3              		.fpu fpv4-sp-d16
   4              		.eabi_attribute 27, 1
   5              		.eabi_attribute 28, 1
   6              		.eabi_attribute 20, 1
   7              		.eabi_attribute 21, 1
   8              		.eabi_attribute 23, 3
   9              		.eabi_attribute 24, 1
  10              		.eabi_attribute 25, 1
  11              		.eabi_attribute 26, 1
  12              		.eabi_attribute 30, 1
  13              		.eabi_attribute 34, 1
  14              		.eabi_attribute 18, 4
  15              		.file	"freertos.c"
  16              		.text
  17              	.Ltext0:
  18              		.cfi_sections	.debug_frame
  19              		.file 1 "Core/Src/freertos.c"
  20              		.section	.text.StartDefaultTask,"ax",%progbits
  21              		.align	1
  22              		.global	StartDefaultTask
  23              		.syntax unified
  24              		.thumb
  25              		.thumb_func
  27              	StartDefaultTask:
  28              	.LVL0:
  29              	.LFB147:
   1:Core/Src/freertos.c **** /* USER CODE BEGIN Header */
   2:Core/Src/freertos.c **** /**
   3:Core/Src/freertos.c ****   ******************************************************************************
   4:Core/Src/freertos.c ****   * File Name          : freertos.c
   5:Core/Src/freertos.c ****   * Description        : Code for freertos applications
   6:Core/Src/freertos.c ****   ******************************************************************************
   7:Core/Src/freertos.c ****   * @attention
   8:Core/Src/freertos.c ****   *
   9:Core/Src/freertos.c ****   * Copyright (c) 2025 STMicroelectronics.
  10:Core/Src/freertos.c ****   * All rights reserved.
  11:Core/Src/freertos.c ****   *
  12:Core/Src/freertos.c ****   * This software is licensed under terms that can be found in the LICENSE file
  13:Core/Src/freertos.c ****   * in the root directory of this software component.
  14:Core/Src/freertos.c ****   * If no LICENSE file comes with this software, it is provided AS-IS.
  15:Core/Src/freertos.c ****   *
  16:Core/Src/freertos.c ****   ******************************************************************************
  17:Core/Src/freertos.c ****   */
  18:Core/Src/freertos.c **** /* USER CODE END Header */
  19:Core/Src/freertos.c **** 
  20:Core/Src/freertos.c **** /* Includes ------------------------------------------------------------------*/
  21:Core/Src/freertos.c **** #include "FreeRTOS.h"
  22:Core/Src/freertos.c **** #include "task.h"
  23:Core/Src/freertos.c **** #include "main.h"
  24:Core/Src/freertos.c **** #include "cmsis_os.h"
  25:Core/Src/freertos.c **** 
  26:Core/Src/freertos.c **** /* Private includes ----------------------------------------------------------*/
  27:Core/Src/freertos.c **** /* USER CODE BEGIN Includes */
  28:Core/Src/freertos.c **** #include <string.h>
  29:Core/Src/freertos.c **** #include "usart.h"
ARM GAS  C:\Users\moham\AppData\Local\Temp\ccsT0uSd.s 			page 2


  30:Core/Src/freertos.c **** #include <stdio.h>
  31:Core/Src/freertos.c **** 
  32:Core/Src/freertos.c **** SemaphoreHandle_t ButtonSemaphore;
  33:Core/Src/freertos.c **** 
  34:Core/Src/freertos.c **** osThreadId PeriodicTaskHandle;
  35:Core/Src/freertos.c **** osThreadId EventTaskHandle;
  36:Core/Src/freertos.c **** 
  37:Core/Src/freertos.c **** void PeriodicTask(void const * argument);
  38:Core/Src/freertos.c **** void EventTask(void const * argument);
  39:Core/Src/freertos.c **** 
  40:Core/Src/freertos.c **** // LED definitions for STM32F429I-Discovery
  41:Core/Src/freertos.c **** #define LED_PORT        GPIOG
  42:Core/Src/freertos.c **** #define LED_GREEN_PIN   GPIO_PIN_13  // Green LED
  43:Core/Src/freertos.c **** #define LED_RED_PIN     GPIO_PIN_14  // Red LED
  44:Core/Src/freertos.c **** 
  45:Core/Src/freertos.c **** /* USER CODE END Includes */
  46:Core/Src/freertos.c **** 
  47:Core/Src/freertos.c **** /* Private typedef -----------------------------------------------------------*/
  48:Core/Src/freertos.c **** /* USER CODE BEGIN PTD */
  49:Core/Src/freertos.c **** 
  50:Core/Src/freertos.c **** /* USER CODE END PTD */
  51:Core/Src/freertos.c **** 
  52:Core/Src/freertos.c **** /* Private define ------------------------------------------------------------*/
  53:Core/Src/freertos.c **** /* USER CODE BEGIN PD */
  54:Core/Src/freertos.c **** 
  55:Core/Src/freertos.c **** /* USER CODE END PD */
  56:Core/Src/freertos.c **** 
  57:Core/Src/freertos.c **** /* Private macro -------------------------------------------------------------*/
  58:Core/Src/freertos.c **** /* USER CODE BEGIN PM */
  59:Core/Src/freertos.c **** 
  60:Core/Src/freertos.c **** /* USER CODE END PM */
  61:Core/Src/freertos.c **** 
  62:Core/Src/freertos.c **** /* Private variables ---------------------------------------------------------*/
  63:Core/Src/freertos.c **** /* USER CODE BEGIN Variables */
  64:Core/Src/freertos.c **** 
  65:Core/Src/freertos.c **** /* USER CODE END Variables */
  66:Core/Src/freertos.c **** osThreadId defaultTaskHandle;
  67:Core/Src/freertos.c **** 
  68:Core/Src/freertos.c **** /* Private function prototypes -----------------------------------------------*/
  69:Core/Src/freertos.c **** /* USER CODE BEGIN FunctionPrototypes */
  70:Core/Src/freertos.c **** 
  71:Core/Src/freertos.c **** /* USER CODE END FunctionPrototypes */
  72:Core/Src/freertos.c **** 
  73:Core/Src/freertos.c **** void StartDefaultTask(void const * argument);
  74:Core/Src/freertos.c **** 
  75:Core/Src/freertos.c **** extern void MX_USB_HOST_Init(void);
  76:Core/Src/freertos.c **** void MX_FREERTOS_Init(void); /* (MISRA C 2004 rule 8.1) */
  77:Core/Src/freertos.c **** 
  78:Core/Src/freertos.c **** /* GetIdleTaskMemory prototype (linked to static allocation support) */
  79:Core/Src/freertos.c **** void vApplicationGetIdleTaskMemory( StaticTask_t **ppxIdleTaskTCBBuffer, StackType_t **ppxIdleTaskS
  80:Core/Src/freertos.c **** 
  81:Core/Src/freertos.c **** /* Hook prototypes */
  82:Core/Src/freertos.c **** void vApplicationIdleHook(void);
  83:Core/Src/freertos.c **** void vApplicationStackOverflowHook(xTaskHandle xTask, signed char *pcTaskName);
  84:Core/Src/freertos.c **** void vApplicationMallocFailedHook(void);
  85:Core/Src/freertos.c **** 
  86:Core/Src/freertos.c **** /* USER CODE BEGIN 2 */
ARM GAS  C:\Users\moham\AppData\Local\Temp\ccsT0uSd.s 			page 3


  87:Core/Src/freertos.c **** __weak void vApplicationIdleHook( void )
  88:Core/Src/freertos.c **** {
  89:Core/Src/freertos.c ****    /* vApplicationIdleHook() will only be called if configUSE_IDLE_HOOK is set
  90:Core/Src/freertos.c ****    to 1 in FreeRTOSConfig.h. It will be called on each iteration of the idle
  91:Core/Src/freertos.c ****    task. It is essential that code added to this hook function never attempts
  92:Core/Src/freertos.c ****    to block in any way (for example, call xQueueReceive() with a block time
  93:Core/Src/freertos.c ****    specified, or call vTaskDelay()). If the application makes use of the
  94:Core/Src/freertos.c ****    vTaskDelete() API function (as this demo application does) then it is also
  95:Core/Src/freertos.c ****    important that vApplicationIdleHook() is permitted to return to its calling
  96:Core/Src/freertos.c ****    function, because it is the responsibility of the idle task to clean up
  97:Core/Src/freertos.c ****    memory allocated by the kernel to any task that has since been deleted. */
  98:Core/Src/freertos.c **** }
  99:Core/Src/freertos.c **** /* USER CODE END 2 */
 100:Core/Src/freertos.c **** 
 101:Core/Src/freertos.c **** /* USER CODE BEGIN 4 */
 102:Core/Src/freertos.c **** __weak void vApplicationStackOverflowHook(xTaskHandle xTask, signed char *pcTaskName)
 103:Core/Src/freertos.c **** {
 104:Core/Src/freertos.c ****    /* Run time stack overflow checking is performed if
 105:Core/Src/freertos.c ****    configCHECK_FOR_STACK_OVERFLOW is defined to 1 or 2. This hook function is
 106:Core/Src/freertos.c ****    called if a stack overflow is detected. */
 107:Core/Src/freertos.c **** }
 108:Core/Src/freertos.c **** /* USER CODE END 4 */
 109:Core/Src/freertos.c **** 
 110:Core/Src/freertos.c **** /* USER CODE BEGIN 5 */
 111:Core/Src/freertos.c **** __weak void vApplicationMallocFailedHook(void)
 112:Core/Src/freertos.c **** {
 113:Core/Src/freertos.c ****    /* vApplicationMallocFailedHook() will only be called if
 114:Core/Src/freertos.c ****    configUSE_MALLOC_FAILED_HOOK is set to 1 in FreeRTOSConfig.h. It is a hook
 115:Core/Src/freertos.c ****    function that will get called if a call to pvPortMalloc() fails.
 116:Core/Src/freertos.c ****    pvPortMalloc() is called internally by the kernel whenever a task, queue,
 117:Core/Src/freertos.c ****    timer or semaphore is created. It is also called by various parts of the
 118:Core/Src/freertos.c ****    demo application. If heap_1.c or heap_2.c are used, then the size of the
 119:Core/Src/freertos.c ****    heap available to pvPortMalloc() is defined by configTOTAL_HEAP_SIZE in
 120:Core/Src/freertos.c ****    FreeRTOSConfig.h, and the xPortGetFreeHeapSize() API function can be used
 121:Core/Src/freertos.c ****    to query the size of free heap space that remains (although it does not
 122:Core/Src/freertos.c ****    provide information on how the remaining heap might be fragmented). */
 123:Core/Src/freertos.c **** }
 124:Core/Src/freertos.c **** /* USER CODE END 5 */
 125:Core/Src/freertos.c **** 
 126:Core/Src/freertos.c **** /* USER CODE BEGIN GET_IDLE_TASK_MEMORY */
 127:Core/Src/freertos.c **** static StaticTask_t xIdleTaskTCBBuffer;
 128:Core/Src/freertos.c **** static StackType_t xIdleStack[configMINIMAL_STACK_SIZE];
 129:Core/Src/freertos.c **** 
 130:Core/Src/freertos.c **** void vApplicationGetIdleTaskMemory( StaticTask_t **ppxIdleTaskTCBBuffer, StackType_t **ppxIdleTaskS
 131:Core/Src/freertos.c **** {
 132:Core/Src/freertos.c ****   *ppxIdleTaskTCBBuffer = &xIdleTaskTCBBuffer;
 133:Core/Src/freertos.c ****   *ppxIdleTaskStackBuffer = &xIdleStack[0];
 134:Core/Src/freertos.c ****   *pulIdleTaskStackSize = configMINIMAL_STACK_SIZE;
 135:Core/Src/freertos.c ****   /* place for user code */
 136:Core/Src/freertos.c **** }
 137:Core/Src/freertos.c **** /* USER CODE END GET_IDLE_TASK_MEMORY */
 138:Core/Src/freertos.c **** 
 139:Core/Src/freertos.c **** /**
 140:Core/Src/freertos.c ****   * @brief  FreeRTOS initialization
 141:Core/Src/freertos.c ****   * @param  None
 142:Core/Src/freertos.c ****   * @retval None
 143:Core/Src/freertos.c ****   */
ARM GAS  C:\Users\moham\AppData\Local\Temp\ccsT0uSd.s 			page 4


 144:Core/Src/freertos.c **** void MX_FREERTOS_Init(void) {
 145:Core/Src/freertos.c ****   /* USER CODE BEGIN Init */
 146:Core/Src/freertos.c ****   ButtonSemaphore = xSemaphoreCreateBinary();
 147:Core/Src/freertos.c ****   /* USER CODE END Init */
 148:Core/Src/freertos.c **** 
 149:Core/Src/freertos.c ****   /* USER CODE BEGIN RTOS_MUTEX */
 150:Core/Src/freertos.c ****   /* add mutexes, ... */
 151:Core/Src/freertos.c ****   /* USER CODE END RTOS_MUTEX */
 152:Core/Src/freertos.c **** 
 153:Core/Src/freertos.c ****   /* USER CODE BEGIN RTOS_SEMAPHORES */
 154:Core/Src/freertos.c ****   /* add semaphores, ... */
 155:Core/Src/freertos.c ****   /* USER CODE END RTOS_SEMAPHORES */
 156:Core/Src/freertos.c ****     // LED task: normal priority, 128 words stack
 157:Core/Src/freertos.c ****   osThreadDef(Periodic, PeriodicTask, osPriorityNormal, 0, 128);
 158:Core/Src/freertos.c ****   PeriodicTaskHandle = osThreadCreate(osThread(Periodic), NULL);
 159:Core/Src/freertos.c **** 
 160:Core/Src/freertos.c **** 
 161:Core/Src/freertos.c ****   // Button task: normal priority, 128 words stack
 162:Core/Src/freertos.c ****   osThreadDef(Event, EventTask, osPriorityNormal, 0, 128);
 163:Core/Src/freertos.c ****   EventTaskHandle = osThreadCreate(osThread(Event), NULL);
 164:Core/Src/freertos.c ****   /* USER CODE BEGIN RTOS_TIMERS */
 165:Core/Src/freertos.c ****   /* start timers, add new ones, ... */
 166:Core/Src/freertos.c ****   /* USER CODE END RTOS_TIMERS */
 167:Core/Src/freertos.c **** 
 168:Core/Src/freertos.c ****   /* USER CODE BEGIN RTOS_QUEUES */
 169:Core/Src/freertos.c ****   /* add queues, ... */
 170:Core/Src/freertos.c ****   /* USER CODE END RTOS_QUEUES */
 171:Core/Src/freertos.c **** 
 172:Core/Src/freertos.c ****   /* Create the thread(s) */
 173:Core/Src/freertos.c ****   /* definition and creation of defaultTask */
 174:Core/Src/freertos.c ****   osThreadDef(defaultTask, StartDefaultTask, osPriorityNormal, 0, 4096);
 175:Core/Src/freertos.c ****   defaultTaskHandle = osThreadCreate(osThread(defaultTask), NULL);
 176:Core/Src/freertos.c **** 
 177:Core/Src/freertos.c ****   /* USER CODE BEGIN RTOS_THREADS */
 178:Core/Src/freertos.c ****   /* add threads, ... */
 179:Core/Src/freertos.c ****   /* USER CODE END RTOS_THREADS */
 180:Core/Src/freertos.c **** 
 181:Core/Src/freertos.c **** }
 182:Core/Src/freertos.c **** 
 183:Core/Src/freertos.c **** 
 184:Core/Src/freertos.c **** /* USER CODE BEGIN Header_StartDefaultTask */
 185:Core/Src/freertos.c **** /**
 186:Core/Src/freertos.c ****   * @brief  Function implementing the defaultTask thread.
 187:Core/Src/freertos.c ****   * @param  argument: Not used
 188:Core/Src/freertos.c ****   * @retval None
 189:Core/Src/freertos.c ****   */
 190:Core/Src/freertos.c **** /* USER CODE END Header_StartDefaultTask */
 191:Core/Src/freertos.c **** void StartDefaultTask(void const * argument)
 192:Core/Src/freertos.c **** {
  30              		.loc 1 192 1 view -0
  31              		.cfi_startproc
  32              		@ Volatile: function does not return.
  33              		@ args = 0, pretend = 0, frame = 0
  34              		@ frame_needed = 0, uses_anonymous_args = 0
  35              		.loc 1 192 1 is_stmt 0 view .LVU1
  36 0000 08B5     		push	{r3, lr}
  37              	.LCFI0:
ARM GAS  C:\Users\moham\AppData\Local\Temp\ccsT0uSd.s 			page 5


  38              		.cfi_def_cfa_offset 8
  39              		.cfi_offset 3, -8
  40              		.cfi_offset 14, -4
 193:Core/Src/freertos.c ****   /* init code for USB_HOST */
 194:Core/Src/freertos.c ****   MX_USB_HOST_Init();
  41              		.loc 1 194 3 is_stmt 1 view .LVU2
  42 0002 FFF7FEFF 		bl	MX_USB_HOST_Init
  43              	.LVL1:
  44              	.L2:
 195:Core/Src/freertos.c ****   /* USER CODE BEGIN StartDefaultTask */
 196:Core/Src/freertos.c ****   /* Infinite loop */
 197:Core/Src/freertos.c ****   for(;;)
  45              		.loc 1 197 3 view .LVU3
 198:Core/Src/freertos.c ****   {
 199:Core/Src/freertos.c **** 
 200:Core/Src/freertos.c ****     //osDelay(1);
 201:Core/Src/freertos.c ****   }
  46              		.loc 1 201 3 view .LVU4
 197:Core/Src/freertos.c ****   {
  47              		.loc 1 197 3 view .LVU5
  48 0006 FEE7     		b	.L2
  49              		.cfi_endproc
  50              	.LFE147:
  52              		.section	.rodata.PeriodicTask.str1.4,"aMS",%progbits,1
  53              		.align	2
  54              	.LC6:
  55 0000 5B256C75 		.ascii	"[%lu] Periodic tick #%lu\015\012\000"
  55      5D205065 
  55      72696F64 
  55      69632074 
  55      69636B20 
  56              		.section	.text.PeriodicTask,"ax",%progbits
  57              		.align	1
  58              		.global	PeriodicTask
  59              		.syntax unified
  60              		.thumb
  61              		.thumb_func
  63              	PeriodicTask:
  64              	.LVL2:
  65              	.LFB148:
 202:Core/Src/freertos.c ****   /* USER CODE END StartDefaultTask */
 203:Core/Src/freertos.c **** }
 204:Core/Src/freertos.c **** 
 205:Core/Src/freertos.c **** /* Private application code --------------------------------------------------*/
 206:Core/Src/freertos.c **** /* USER CODE BEGIN Application */
 207:Core/Src/freertos.c **** 
 208:Core/Src/freertos.c **** void PeriodicTask(void const * argument){
  66              		.loc 1 208 41 view -0
  67              		.cfi_startproc
  68              		@ args = 0, pretend = 0, frame = 8
  69              		@ frame_needed = 0, uses_anonymous_args = 0
  70              		.loc 1 208 41 is_stmt 0 view .LVU7
  71 0000 10B5     		push	{r4, lr}
  72              	.LCFI1:
  73              		.cfi_def_cfa_offset 8
  74              		.cfi_offset 4, -8
  75              		.cfi_offset 14, -4
ARM GAS  C:\Users\moham\AppData\Local\Temp\ccsT0uSd.s 			page 6


  76 0002 82B0     		sub	sp, sp, #8
  77              	.LCFI2:
  78              		.cfi_def_cfa_offset 16
 209:Core/Src/freertos.c ****   TickType_t lastWakeTime = xTaskGetTickCount();
  79              		.loc 1 209 3 is_stmt 1 view .LVU8
  80              		.loc 1 209 29 is_stmt 0 view .LVU9
  81 0004 FFF7FEFF 		bl	xTaskGetTickCount
  82              	.LVL3:
  83              		.loc 1 209 14 discriminator 1 view .LVU10
  84 0008 0190     		str	r0, [sp, #4]
 210:Core/Src/freertos.c ****   const TickType_t frequency = pdMS_TO_TICKS(1000);
  85              		.loc 1 210 3 is_stmt 1 view .LVU11
  86              	.LVL4:
 211:Core/Src/freertos.c ****   uint32_t count = 0;
  87              		.loc 1 211 3 view .LVU12
  88              		.loc 1 211 12 is_stmt 0 view .LVU13
  89 000a 0024     		movs	r4, #0
  90              	.LVL5:
  91              	.L5:
 212:Core/Src/freertos.c **** 
 213:Core/Src/freertos.c ****   for(;;){
  92              		.loc 1 213 3 is_stmt 1 view .LVU14
 214:Core/Src/freertos.c ****     count++;
  93              		.loc 1 214 5 view .LVU15
  94              		.loc 1 214 10 is_stmt 0 view .LVU16
  95 000c 0134     		adds	r4, r4, #1
  96              	.LVL6:
 215:Core/Src/freertos.c ****     printf("[%lu] Periodic tick #%lu\r\n", HAL_GetTick(), count);
  97              		.loc 1 215 5 is_stmt 1 view .LVU17
  98 000e FFF7FEFF 		bl	HAL_GetTick
  99              	.LVL7:
 100 0012 0146     		mov	r1, r0
 101              		.loc 1 215 5 is_stmt 0 discriminator 1 view .LVU18
 102 0014 2246     		mov	r2, r4
 103 0016 0448     		ldr	r0, .L7
 104 0018 FFF7FEFF 		bl	printf
 105              	.LVL8:
 216:Core/Src/freertos.c ****     vTaskDelayUntil(&lastWakeTime, frequency);
 106              		.loc 1 216 5 is_stmt 1 discriminator 1 view .LVU19
 107 001c 4FF47A71 		mov	r1, #1000
 108 0020 01A8     		add	r0, sp, #4
 109 0022 FFF7FEFF 		bl	vTaskDelayUntil
 110              	.LVL9:
 213:Core/Src/freertos.c ****     count++;
 111              		.loc 1 213 3 view .LVU20
 112 0026 F1E7     		b	.L5
 113              	.L8:
 114              		.align	2
 115              	.L7:
 116 0028 00000000 		.word	.LC6
 117              		.cfi_endproc
 118              	.LFE148:
 120              		.section	.rodata.EventTask.str1.4,"aMS",%progbits,1
 121              		.align	2
 122              	.LC7:
 123 0000 5B256C75 		.ascii	"[%lu] Button event! Count: %lu\015\012\000"
 123      5D204275 
ARM GAS  C:\Users\moham\AppData\Local\Temp\ccsT0uSd.s 			page 7


 123      74746F6E 
 123      20657665 
 123      6E742120 
 124              		.section	.text.EventTask,"ax",%progbits
 125              		.align	1
 126              		.global	EventTask
 127              		.syntax unified
 128              		.thumb
 129              		.thumb_func
 131              	EventTask:
 132              	.LVL10:
 133              	.LFB149:
 217:Core/Src/freertos.c ****   }
 218:Core/Src/freertos.c **** }
 219:Core/Src/freertos.c **** 
 220:Core/Src/freertos.c ****   void EventTask(void const * argument)
 221:Core/Src/freertos.c ****   {
 134              		.loc 1 221 3 view -0
 135              		.cfi_startproc
 136              		@ args = 0, pretend = 0, frame = 0
 137              		@ frame_needed = 0, uses_anonymous_args = 0
 138              		.loc 1 221 3 is_stmt 0 view .LVU22
 139 0000 10B5     		push	{r4, lr}
 140              	.LCFI3:
 141              		.cfi_def_cfa_offset 8
 142              		.cfi_offset 4, -8
 143              		.cfi_offset 14, -4
 222:Core/Src/freertos.c ****       uint32_t count = 0;
 144              		.loc 1 222 7 is_stmt 1 view .LVU23
 145              	.LVL11:
 146              		.loc 1 222 16 is_stmt 0 view .LVU24
 147 0002 0024     		movs	r4, #0
 148              	.LVL12:
 149              	.L10:
 223:Core/Src/freertos.c **** 
 224:Core/Src/freertos.c ****       for(;;)
 150              		.loc 1 224 7 is_stmt 1 view .LVU25
 225:Core/Src/freertos.c ****       {
 226:Core/Src/freertos.c ****           // Block until semaphore given (button pressed)
 227:Core/Src/freertos.c ****           xSemaphoreTake(ButtonSemaphore, portMAX_DELAY);
 151              		.loc 1 227 11 view .LVU26
 152 0004 4FF0FF31 		mov	r1, #-1
 153 0008 084B     		ldr	r3, .L12
 154 000a 1868     		ldr	r0, [r3]
 155 000c FFF7FEFF 		bl	xQueueSemaphoreTake
 156              	.LVL13:
 228:Core/Src/freertos.c **** 
 229:Core/Src/freertos.c ****           // Instant response!
 230:Core/Src/freertos.c ****           count++;
 157              		.loc 1 230 11 view .LVU27
 158              		.loc 1 230 16 is_stmt 0 view .LVU28
 159 0010 0134     		adds	r4, r4, #1
 160              	.LVL14:
 231:Core/Src/freertos.c ****           printf("[%lu] Button event! Count: %lu\r\n", HAL_GetTick(), count);
 161              		.loc 1 231 11 is_stmt 1 view .LVU29
 162 0012 FFF7FEFF 		bl	HAL_GetTick
 163              	.LVL15:
ARM GAS  C:\Users\moham\AppData\Local\Temp\ccsT0uSd.s 			page 8


 164 0016 0146     		mov	r1, r0
 165              		.loc 1 231 11 is_stmt 0 discriminator 1 view .LVU30
 166 0018 2246     		mov	r2, r4
 167 001a 0548     		ldr	r0, .L12+4
 168 001c FFF7FEFF 		bl	printf
 169              	.LVL16:
 232:Core/Src/freertos.c ****           HAL_GPIO_TogglePin(LED_PORT, LED_RED_PIN);
 170              		.loc 1 232 11 is_stmt 1 discriminator 1 view .LVU31
 171 0020 4FF48041 		mov	r1, #16384
 172 0024 0348     		ldr	r0, .L12+8
 173 0026 FFF7FEFF 		bl	HAL_GPIO_TogglePin
 174              	.LVL17:
 224:Core/Src/freertos.c ****       {
 175              		.loc 1 224 7 view .LVU32
 176 002a EBE7     		b	.L10
 177              	.L13:
 178              		.align	2
 179              	.L12:
 180 002c 00000000 		.word	ButtonSemaphore
 181 0030 00000000 		.word	.LC7
 182 0034 00180240 		.word	1073879040
 183              		.cfi_endproc
 184              	.LFE149:
 186              		.section	.text.vApplicationIdleHook,"ax",%progbits
 187              		.align	1
 188              		.weak	vApplicationIdleHook
 189              		.syntax unified
 190              		.thumb
 191              		.thumb_func
 193              	vApplicationIdleHook:
 194              	.LFB142:
  88:Core/Src/freertos.c ****    /* vApplicationIdleHook() will only be called if configUSE_IDLE_HOOK is set
 195              		.loc 1 88 1 view -0
 196              		.cfi_startproc
 197              		@ args = 0, pretend = 0, frame = 0
 198              		@ frame_needed = 0, uses_anonymous_args = 0
 199              		@ link register save eliminated.
  98:Core/Src/freertos.c **** /* USER CODE END 2 */
 200              		.loc 1 98 1 view .LVU34
 201 0000 7047     		bx	lr
 202              		.cfi_endproc
 203              	.LFE142:
 205              		.section	.text.vApplicationStackOverflowHook,"ax",%progbits
 206              		.align	1
 207              		.weak	vApplicationStackOverflowHook
 208              		.syntax unified
 209              		.thumb
 210              		.thumb_func
 212              	vApplicationStackOverflowHook:
 213              	.LVL18:
 214              	.LFB143:
 103:Core/Src/freertos.c ****    /* Run time stack overflow checking is performed if
 215              		.loc 1 103 1 view -0
 216              		.cfi_startproc
 217              		@ args = 0, pretend = 0, frame = 0
 218              		@ frame_needed = 0, uses_anonymous_args = 0
 219              		@ link register save eliminated.
ARM GAS  C:\Users\moham\AppData\Local\Temp\ccsT0uSd.s 			page 9


 107:Core/Src/freertos.c **** /* USER CODE END 4 */
 220              		.loc 1 107 1 view .LVU36
 221 0000 7047     		bx	lr
 222              		.cfi_endproc
 223              	.LFE143:
 225              		.section	.text.vApplicationMallocFailedHook,"ax",%progbits
 226              		.align	1
 227              		.weak	vApplicationMallocFailedHook
 228              		.syntax unified
 229              		.thumb
 230              		.thumb_func
 232              	vApplicationMallocFailedHook:
 233              	.LFB144:
 112:Core/Src/freertos.c ****    /* vApplicationMallocFailedHook() will only be called if
 234              		.loc 1 112 1 view -0
 235              		.cfi_startproc
 236              		@ args = 0, pretend = 0, frame = 0
 237              		@ frame_needed = 0, uses_anonymous_args = 0
 238              		@ link register save eliminated.
 123:Core/Src/freertos.c **** /* USER CODE END 5 */
 239              		.loc 1 123 1 view .LVU38
 240 0000 7047     		bx	lr
 241              		.cfi_endproc
 242              	.LFE144:
 244              		.section	.text.vApplicationGetIdleTaskMemory,"ax",%progbits
 245              		.align	1
 246              		.global	vApplicationGetIdleTaskMemory
 247              		.syntax unified
 248              		.thumb
 249              		.thumb_func
 251              	vApplicationGetIdleTaskMemory:
 252              	.LVL19:
 253              	.LFB145:
 131:Core/Src/freertos.c ****   *ppxIdleTaskTCBBuffer = &xIdleTaskTCBBuffer;
 254              		.loc 1 131 1 view -0
 255              		.cfi_startproc
 256              		@ args = 0, pretend = 0, frame = 0
 257              		@ frame_needed = 0, uses_anonymous_args = 0
 258              		@ link register save eliminated.
 132:Core/Src/freertos.c ****   *ppxIdleTaskStackBuffer = &xIdleStack[0];
 259              		.loc 1 132 3 view .LVU40
 132:Core/Src/freertos.c ****   *ppxIdleTaskStackBuffer = &xIdleStack[0];
 260              		.loc 1 132 25 is_stmt 0 view .LVU41
 261 0000 034B     		ldr	r3, .L18
 262 0002 0360     		str	r3, [r0]
 133:Core/Src/freertos.c ****   *pulIdleTaskStackSize = configMINIMAL_STACK_SIZE;
 263              		.loc 1 133 3 is_stmt 1 view .LVU42
 133:Core/Src/freertos.c ****   *pulIdleTaskStackSize = configMINIMAL_STACK_SIZE;
 264              		.loc 1 133 27 is_stmt 0 view .LVU43
 265 0004 034B     		ldr	r3, .L18+4
 266 0006 0B60     		str	r3, [r1]
 134:Core/Src/freertos.c ****   /* place for user code */
 267              		.loc 1 134 3 is_stmt 1 view .LVU44
 134:Core/Src/freertos.c ****   /* place for user code */
 268              		.loc 1 134 25 is_stmt 0 view .LVU45
 269 0008 8023     		movs	r3, #128
 270 000a 1360     		str	r3, [r2]
ARM GAS  C:\Users\moham\AppData\Local\Temp\ccsT0uSd.s 			page 10


 136:Core/Src/freertos.c **** /* USER CODE END GET_IDLE_TASK_MEMORY */
 271              		.loc 1 136 1 view .LVU46
 272 000c 7047     		bx	lr
 273              	.L19:
 274 000e 00BF     		.align	2
 275              	.L18:
 276 0010 00000000 		.word	xIdleTaskTCBBuffer
 277 0014 00000000 		.word	xIdleStack
 278              		.cfi_endproc
 279              	.LFE145:
 281              		.section	.text.MX_FREERTOS_Init,"ax",%progbits
 282              		.align	1
 283              		.global	MX_FREERTOS_Init
 284              		.syntax unified
 285              		.thumb
 286              		.thumb_func
 288              	MX_FREERTOS_Init:
 289              	.LFB146:
 144:Core/Src/freertos.c ****   /* USER CODE BEGIN Init */
 290              		.loc 1 144 29 is_stmt 1 view -0
 291              		.cfi_startproc
 292              		@ args = 0, pretend = 0, frame = 88
 293              		@ frame_needed = 0, uses_anonymous_args = 0
 294 0000 10B5     		push	{r4, lr}
 295              	.LCFI4:
 296              		.cfi_def_cfa_offset 8
 297              		.cfi_offset 4, -8
 298              		.cfi_offset 14, -4
 299 0002 96B0     		sub	sp, sp, #88
 300              	.LCFI5:
 301              		.cfi_def_cfa_offset 96
 146:Core/Src/freertos.c ****   /* USER CODE END Init */
 302              		.loc 1 146 3 view .LVU48
 146:Core/Src/freertos.c ****   /* USER CODE END Init */
 303              		.loc 1 146 21 is_stmt 0 view .LVU49
 304 0004 0322     		movs	r2, #3
 305 0006 0021     		movs	r1, #0
 306 0008 0120     		movs	r0, #1
 307 000a FFF7FEFF 		bl	xQueueGenericCreate
 308              	.LVL20:
 146:Core/Src/freertos.c ****   /* USER CODE END Init */
 309              		.loc 1 146 19 discriminator 1 view .LVU50
 310 000e 1D4B     		ldr	r3, .L22
 311 0010 1860     		str	r0, [r3]
 157:Core/Src/freertos.c ****   PeriodicTaskHandle = osThreadCreate(osThread(Periodic), NULL);
 312              		.loc 1 157 3 is_stmt 1 view .LVU51
 313 0012 1D4C     		ldr	r4, .L22+4
 314 0014 0DF13C0C 		add	ip, sp, #60
 315 0018 A646     		mov	lr, r4
 316 001a BEE80F00 		ldmia	lr!, {r0, r1, r2, r3}
 317 001e ACE80F00 		stmia	ip!, {r0, r1, r2, r3}
 318 0022 9EE80700 		ldm	lr, {r0, r1, r2}
 319 0026 8CE80700 		stm	ip, {r0, r1, r2}
 158:Core/Src/freertos.c **** 
 320              		.loc 1 158 3 view .LVU52
 158:Core/Src/freertos.c **** 
 321              		.loc 1 158 24 is_stmt 0 view .LVU53
ARM GAS  C:\Users\moham\AppData\Local\Temp\ccsT0uSd.s 			page 11


 322 002a 0021     		movs	r1, #0
 323 002c 0FA8     		add	r0, sp, #60
 324 002e FFF7FEFF 		bl	osThreadCreate
 325              	.LVL21:
 158:Core/Src/freertos.c **** 
 326              		.loc 1 158 22 discriminator 1 view .LVU54
 327 0032 164B     		ldr	r3, .L22+8
 328 0034 1860     		str	r0, [r3]
 162:Core/Src/freertos.c ****   EventTaskHandle = osThreadCreate(osThread(Event), NULL);
 329              		.loc 1 162 3 is_stmt 1 view .LVU55
 330 0036 0DF1200C 		add	ip, sp, #32
 331 003a 04F11C0E 		add	lr, r4, #28
 332 003e BEE80F00 		ldmia	lr!, {r0, r1, r2, r3}
 333 0042 ACE80F00 		stmia	ip!, {r0, r1, r2, r3}
 334 0046 9EE80700 		ldm	lr, {r0, r1, r2}
 335 004a 8CE80700 		stm	ip, {r0, r1, r2}
 163:Core/Src/freertos.c ****   /* USER CODE BEGIN RTOS_TIMERS */
 336              		.loc 1 163 3 view .LVU56
 163:Core/Src/freertos.c ****   /* USER CODE BEGIN RTOS_TIMERS */
 337              		.loc 1 163 21 is_stmt 0 view .LVU57
 338 004e 0021     		movs	r1, #0
 339 0050 08A8     		add	r0, sp, #32
 340 0052 FFF7FEFF 		bl	osThreadCreate
 341              	.LVL22:
 163:Core/Src/freertos.c ****   /* USER CODE BEGIN RTOS_TIMERS */
 342              		.loc 1 163 19 discriminator 1 view .LVU58
 343 0056 0E4B     		ldr	r3, .L22+12
 344 0058 1860     		str	r0, [r3]
 174:Core/Src/freertos.c ****   defaultTaskHandle = osThreadCreate(osThread(defaultTask), NULL);
 345              		.loc 1 174 3 is_stmt 1 view .LVU59
 346 005a 0DF1040E 		add	lr, sp, #4
 347 005e 04F1380C 		add	ip, r4, #56
 348 0062 BCE80F00 		ldmia	ip!, {r0, r1, r2, r3}
 349 0066 AEE80F00 		stmia	lr!, {r0, r1, r2, r3}
 350 006a 9CE80700 		ldm	ip, {r0, r1, r2}
 351 006e 8EE80700 		stm	lr, {r0, r1, r2}
 175:Core/Src/freertos.c **** 
 352              		.loc 1 175 3 view .LVU60
 175:Core/Src/freertos.c **** 
 353              		.loc 1 175 23 is_stmt 0 view .LVU61
 354 0072 0021     		movs	r1, #0
 355 0074 01A8     		add	r0, sp, #4
 356 0076 FFF7FEFF 		bl	osThreadCreate
 357              	.LVL23:
 175:Core/Src/freertos.c **** 
 358              		.loc 1 175 21 discriminator 1 view .LVU62
 359 007a 064B     		ldr	r3, .L22+16
 360 007c 1860     		str	r0, [r3]
 181:Core/Src/freertos.c **** 
 361              		.loc 1 181 1 view .LVU63
 362 007e 16B0     		add	sp, sp, #88
 363              	.LCFI6:
 364              		.cfi_def_cfa_offset 8
 365              		@ sp needed
 366 0080 10BD     		pop	{r4, pc}
 367              	.L23:
 368 0082 00BF     		.align	2
ARM GAS  C:\Users\moham\AppData\Local\Temp\ccsT0uSd.s 			page 12


 369              	.L22:
 370 0084 00000000 		.word	ButtonSemaphore
 371 0088 00000000 		.word	.LANCHOR0
 372 008c 00000000 		.word	PeriodicTaskHandle
 373 0090 00000000 		.word	EventTaskHandle
 374 0094 00000000 		.word	defaultTaskHandle
 375              		.cfi_endproc
 376              	.LFE146:
 378              		.section	.rodata.str1.4,"aMS",%progbits,1
 379              		.align	2
 380              	.LC4:
 381 0000 64656661 		.ascii	"defaultTask\000"
 381      756C7454 
 381      61736B00 
 382              		.align	2
 383              	.LC2:
 384 000c 4576656E 		.ascii	"Event\000"
 384      7400
 385 0012 0000     		.align	2
 386              	.LC0:
 387 0014 50657269 		.ascii	"Periodic\000"
 387      6F646963 
 387      00
 388              		.section	.bss.xIdleStack,"aw",%nobits
 389              		.align	2
 392              	xIdleStack:
 393 0000 00000000 		.space	512
 393      00000000 
 393      00000000 
 393      00000000 
 393      00000000 
 394              		.section	.bss.xIdleTaskTCBBuffer,"aw",%nobits
 395              		.align	2
 398              	xIdleTaskTCBBuffer:
 399 0000 00000000 		.space	88
 399      00000000 
 399      00000000 
 399      00000000 
 399      00000000 
 400              		.global	defaultTaskHandle
 401              		.section	.bss.defaultTaskHandle,"aw",%nobits
 402              		.align	2
 405              	defaultTaskHandle:
 406 0000 00000000 		.space	4
 407              		.global	EventTaskHandle
 408              		.section	.bss.EventTaskHandle,"aw",%nobits
 409              		.align	2
 412              	EventTaskHandle:
 413 0000 00000000 		.space	4
 414              		.global	PeriodicTaskHandle
 415              		.section	.bss.PeriodicTaskHandle,"aw",%nobits
 416              		.align	2
 419              	PeriodicTaskHandle:
 420 0000 00000000 		.space	4
 421              		.global	ButtonSemaphore
 422              		.section	.bss.ButtonSemaphore,"aw",%nobits
 423              		.align	2
ARM GAS  C:\Users\moham\AppData\Local\Temp\ccsT0uSd.s 			page 13


 426              	ButtonSemaphore:
 427 0000 00000000 		.space	4
 428              		.section	.rodata
 429              		.align	2
 430              		.set	.LANCHOR0,. + 0
 431              	.LC8:
 432 0000 14000000 		.word	.LC0
 433 0004 00000000 		.word	PeriodicTask
 434 0008 0000     		.short	0
 435 000a 0000     		.space	2
 436 000c 00000000 		.word	0
 437 0010 80000000 		.word	128
 438 0014 00000000 		.word	0
 439 0018 00000000 		.word	0
 440              	.LC9:
 441 001c 0C000000 		.word	.LC2
 442 0020 00000000 		.word	EventTask
 443 0024 0000     		.short	0
 444 0026 0000     		.space	2
 445 0028 00000000 		.word	0
 446 002c 80000000 		.word	128
 447 0030 00000000 		.word	0
 448 0034 00000000 		.word	0
 449              	.LC10:
 450 0038 00000000 		.word	.LC4
 451 003c 00000000 		.word	StartDefaultTask
 452 0040 0000     		.short	0
 453 0042 0000     		.space	2
 454 0044 00000000 		.word	0
 455 0048 00100000 		.word	4096
 456 004c 00000000 		.word	0
 457 0050 00000000 		.word	0
 458              		.text
 459              	.Letext0:
 460              		.file 2 "C:/Program Files (x86)/Arm GNU Toolchain arm-none-eabi/14.3 rel1/arm-none-eabi/include/ma
 461              		.file 3 "C:/Program Files (x86)/Arm GNU Toolchain arm-none-eabi/14.3 rel1/arm-none-eabi/include/sy
 462              		.file 4 "Middlewares/Third_Party/FreeRTOS/Source/portable/GCC/ARM_CM4F/portmacro.h"
 463              		.file 5 "Middlewares/Third_Party/FreeRTOS/Source/include/FreeRTOS.h"
 464              		.file 6 "Middlewares/Third_Party/FreeRTOS/Source/include/task.h"
 465              		.file 7 "Drivers/CMSIS/Device/ST/STM32F4xx/Include/stm32f429xx.h"
 466              		.file 8 "Middlewares/Third_Party/FreeRTOS/Source/include/queue.h"
 467              		.file 9 "Middlewares/Third_Party/FreeRTOS/Source/include/semphr.h"
 468              		.file 10 "Middlewares/Third_Party/FreeRTOS/Source/CMSIS_RTOS/cmsis_os.h"
 469              		.file 11 "Drivers/STM32F4xx_HAL_Driver/Inc/stm32f4xx_hal_gpio.h"
 470              		.file 12 "C:/Program Files (x86)/Arm GNU Toolchain arm-none-eabi/14.3 rel1/arm-none-eabi/include/s
 471              		.file 13 "Drivers/STM32F4xx_HAL_Driver/Inc/stm32f4xx_hal.h"
ARM GAS  C:\Users\moham\AppData\Local\Temp\ccsT0uSd.s 			page 14

