ARM GAS  C:\Users\moham\AppData\Local\Temp\ccFWfqRc.s 			page 1


   1              		.cpu cortex-m4
   2              		.arch armv7e-m
   3              		.fpu fpv4-sp-d16
   4              		.eabi_attribute 27, 1
   5              		.eabi_attribute 28, 1
   6              		.eabi_attribute 20, 1
   7              		.eabi_attribute 21, 1
   8              		.eabi_attribute 23, 3
   9              		.eabi_attribute 24, 1
  10              		.eabi_attribute 25, 1
  11              		.eabi_attribute 26, 1
  12              		.eabi_attribute 30, 1
  13              		.eabi_attribute 34, 1
  14              		.eabi_attribute 18, 4
  15              		.file	"gpio.c"
  16              		.text
  17              	.Ltext0:
  18              		.cfi_sections	.debug_frame
  19              		.file 1 "Core/Src/gpio.c"
  20              		.section	.text.MX_GPIO_Init,"ax",%progbits
  21              		.align	1
  22              		.global	MX_GPIO_Init
  23              		.syntax unified
  24              		.thumb
  25              		.thumb_func
  27              	MX_GPIO_Init:
  28              	.LFB134:
   1:Core/Src/gpio.c **** /* USER CODE BEGIN Header */
   2:Core/Src/gpio.c **** /**
   3:Core/Src/gpio.c ****   ******************************************************************************
   4:Core/Src/gpio.c ****   * @file    gpio.c
   5:Core/Src/gpio.c ****   * @brief   This file provides code for the configuration
   6:Core/Src/gpio.c ****   *          of all used GPIO pins.
   7:Core/Src/gpio.c ****   ******************************************************************************
   8:Core/Src/gpio.c ****   * @attention
   9:Core/Src/gpio.c ****   *
  10:Core/Src/gpio.c ****   * Copyright (c) 2025 STMicroelectronics.
  11:Core/Src/gpio.c ****   * All rights reserved.
  12:Core/Src/gpio.c ****   *
  13:Core/Src/gpio.c ****   * This software is licensed under terms that can be found in the LICENSE file
  14:Core/Src/gpio.c ****   * in the root directory of this software component.
  15:Core/Src/gpio.c ****   * If no LICENSE file comes with this software, it is provided AS-IS.
  16:Core/Src/gpio.c ****   *
  17:Core/Src/gpio.c ****   ******************************************************************************
  18:Core/Src/gpio.c ****   */
  19:Core/Src/gpio.c **** /* USER CODE END Header */
  20:Core/Src/gpio.c **** 
  21:Core/Src/gpio.c **** /* Includes ------------------------------------------------------------------*/
  22:Core/Src/gpio.c **** #include "gpio.h"
  23:Core/Src/gpio.c **** 
  24:Core/Src/gpio.c **** /* USER CODE BEGIN 0 */
  25:Core/Src/gpio.c **** 
  26:Core/Src/gpio.c **** /* USER CODE END 0 */
  27:Core/Src/gpio.c **** 
  28:Core/Src/gpio.c **** /*----------------------------------------------------------------------------*/
  29:Core/Src/gpio.c **** /* Configure GPIO                                                             */
  30:Core/Src/gpio.c **** /*----------------------------------------------------------------------------*/
ARM GAS  C:\Users\moham\AppData\Local\Temp\ccFWfqRc.s 			page 2


  31:Core/Src/gpio.c **** /* USER CODE BEGIN 1 */
  32:Core/Src/gpio.c **** 
  33:Core/Src/gpio.c **** /* USER CODE END 1 */
  34:Core/Src/gpio.c **** 
  35:Core/Src/gpio.c **** /** Configure pins as
  36:Core/Src/gpio.c ****         * Analog
  37:Core/Src/gpio.c ****         * Input
  38:Core/Src/gpio.c ****         * Output
  39:Core/Src/gpio.c ****         * EVENT_OUT
  40:Core/Src/gpio.c ****         * EXTI
  41:Core/Src/gpio.c **** */
  42:Core/Src/gpio.c **** void MX_GPIO_Init(void)
  43:Core/Src/gpio.c **** {
  29              		.loc 1 43 1 view -0
  30              		.cfi_startproc
  31              		@ args = 0, pretend = 0, frame = 56
  32              		@ frame_needed = 0, uses_anonymous_args = 0
  33 0000 2DE9F04F 		push	{r4, r5, r6, r7, r8, r9, r10, fp, lr}
  34              	.LCFI0:
  35              		.cfi_def_cfa_offset 36
  36              		.cfi_offset 4, -36
  37              		.cfi_offset 5, -32
  38              		.cfi_offset 6, -28
  39              		.cfi_offset 7, -24
  40              		.cfi_offset 8, -20
  41              		.cfi_offset 9, -16
  42              		.cfi_offset 10, -12
  43              		.cfi_offset 11, -8
  44              		.cfi_offset 14, -4
  45 0004 8FB0     		sub	sp, sp, #60
  46              	.LCFI1:
  47              		.cfi_def_cfa_offset 96
  44:Core/Src/gpio.c **** 
  45:Core/Src/gpio.c ****   GPIO_InitTypeDef GPIO_InitStruct = {0};
  48              		.loc 1 45 3 view .LVU1
  49              		.loc 1 45 20 is_stmt 0 view .LVU2
  50 0006 09AD     		add	r5, sp, #36
  51 0008 0024     		movs	r4, #0
  52 000a 0994     		str	r4, [sp, #36]
  53 000c 0A94     		str	r4, [sp, #40]
  54 000e 0B94     		str	r4, [sp, #44]
  55 0010 0C94     		str	r4, [sp, #48]
  56 0012 0D94     		str	r4, [sp, #52]
  46:Core/Src/gpio.c **** 
  47:Core/Src/gpio.c ****   /* GPIO Ports Clock Enable */
  48:Core/Src/gpio.c ****   __HAL_RCC_GPIOC_CLK_ENABLE();
  57              		.loc 1 48 3 is_stmt 1 view .LVU3
  58              	.LBB2:
  59              		.loc 1 48 3 view .LVU4
  60 0014 0194     		str	r4, [sp, #4]
  61              		.loc 1 48 3 view .LVU5
  62 0016 674B     		ldr	r3, .L3
  63 0018 1A6B     		ldr	r2, [r3, #48]
  64 001a 42F00402 		orr	r2, r2, #4
  65 001e 1A63     		str	r2, [r3, #48]
  66              		.loc 1 48 3 view .LVU6
  67 0020 1A6B     		ldr	r2, [r3, #48]
ARM GAS  C:\Users\moham\AppData\Local\Temp\ccFWfqRc.s 			page 3


  68 0022 02F00402 		and	r2, r2, #4
  69 0026 0192     		str	r2, [sp, #4]
  70              		.loc 1 48 3 view .LVU7
  71 0028 019A     		ldr	r2, [sp, #4]
  72              	.LBE2:
  73              		.loc 1 48 3 view .LVU8
  49:Core/Src/gpio.c ****   __HAL_RCC_GPIOF_CLK_ENABLE();
  74              		.loc 1 49 3 view .LVU9
  75              	.LBB3:
  76              		.loc 1 49 3 view .LVU10
  77 002a 0294     		str	r4, [sp, #8]
  78              		.loc 1 49 3 view .LVU11
  79 002c 1A6B     		ldr	r2, [r3, #48]
  80 002e 42F02002 		orr	r2, r2, #32
  81 0032 1A63     		str	r2, [r3, #48]
  82              		.loc 1 49 3 view .LVU12
  83 0034 1A6B     		ldr	r2, [r3, #48]
  84 0036 02F02002 		and	r2, r2, #32
  85 003a 0292     		str	r2, [sp, #8]
  86              		.loc 1 49 3 view .LVU13
  87 003c 029A     		ldr	r2, [sp, #8]
  88              	.LBE3:
  89              		.loc 1 49 3 view .LVU14
  50:Core/Src/gpio.c ****   __HAL_RCC_GPIOH_CLK_ENABLE();
  90              		.loc 1 50 3 view .LVU15
  91              	.LBB4:
  92              		.loc 1 50 3 view .LVU16
  93 003e 0394     		str	r4, [sp, #12]
  94              		.loc 1 50 3 view .LVU17
  95 0040 1A6B     		ldr	r2, [r3, #48]
  96 0042 42F08002 		orr	r2, r2, #128
  97 0046 1A63     		str	r2, [r3, #48]
  98              		.loc 1 50 3 view .LVU18
  99 0048 1A6B     		ldr	r2, [r3, #48]
 100 004a 02F08002 		and	r2, r2, #128
 101 004e 0392     		str	r2, [sp, #12]
 102              		.loc 1 50 3 view .LVU19
 103 0050 039A     		ldr	r2, [sp, #12]
 104              	.LBE4:
 105              		.loc 1 50 3 view .LVU20
  51:Core/Src/gpio.c ****   __HAL_RCC_GPIOA_CLK_ENABLE();
 106              		.loc 1 51 3 view .LVU21
 107              	.LBB5:
 108              		.loc 1 51 3 view .LVU22
 109 0052 0494     		str	r4, [sp, #16]
 110              		.loc 1 51 3 view .LVU23
 111 0054 1A6B     		ldr	r2, [r3, #48]
 112 0056 42F00102 		orr	r2, r2, #1
 113 005a 1A63     		str	r2, [r3, #48]
 114              		.loc 1 51 3 view .LVU24
 115 005c 1A6B     		ldr	r2, [r3, #48]
 116 005e 02F00102 		and	r2, r2, #1
 117 0062 0492     		str	r2, [sp, #16]
 118              		.loc 1 51 3 view .LVU25
 119 0064 049A     		ldr	r2, [sp, #16]
 120              	.LBE5:
 121              		.loc 1 51 3 view .LVU26
ARM GAS  C:\Users\moham\AppData\Local\Temp\ccFWfqRc.s 			page 4


  52:Core/Src/gpio.c ****   __HAL_RCC_GPIOB_CLK_ENABLE();
 122              		.loc 1 52 3 view .LVU27
 123              	.LBB6:
 124              		.loc 1 52 3 view .LVU28
 125 0066 0594     		str	r4, [sp, #20]
 126              		.loc 1 52 3 view .LVU29
 127 0068 1A6B     		ldr	r2, [r3, #48]
 128 006a 42F00202 		orr	r2, r2, #2
 129 006e 1A63     		str	r2, [r3, #48]
 130              		.loc 1 52 3 view .LVU30
 131 0070 1A6B     		ldr	r2, [r3, #48]
 132 0072 02F00202 		and	r2, r2, #2
 133 0076 0592     		str	r2, [sp, #20]
 134              		.loc 1 52 3 view .LVU31
 135 0078 059A     		ldr	r2, [sp, #20]
 136              	.LBE6:
 137              		.loc 1 52 3 view .LVU32
  53:Core/Src/gpio.c ****   __HAL_RCC_GPIOG_CLK_ENABLE();
 138              		.loc 1 53 3 view .LVU33
 139              	.LBB7:
 140              		.loc 1 53 3 view .LVU34
 141 007a 0694     		str	r4, [sp, #24]
 142              		.loc 1 53 3 view .LVU35
 143 007c 1A6B     		ldr	r2, [r3, #48]
 144 007e 42F04002 		orr	r2, r2, #64
 145 0082 1A63     		str	r2, [r3, #48]
 146              		.loc 1 53 3 view .LVU36
 147 0084 1A6B     		ldr	r2, [r3, #48]
 148 0086 02F04002 		and	r2, r2, #64
 149 008a 0692     		str	r2, [sp, #24]
 150              		.loc 1 53 3 view .LVU37
 151 008c 069A     		ldr	r2, [sp, #24]
 152              	.LBE7:
 153              		.loc 1 53 3 view .LVU38
  54:Core/Src/gpio.c ****   __HAL_RCC_GPIOE_CLK_ENABLE();
 154              		.loc 1 54 3 view .LVU39
 155              	.LBB8:
 156              		.loc 1 54 3 view .LVU40
 157 008e 0794     		str	r4, [sp, #28]
 158              		.loc 1 54 3 view .LVU41
 159 0090 1A6B     		ldr	r2, [r3, #48]
 160 0092 42F01002 		orr	r2, r2, #16
 161 0096 1A63     		str	r2, [r3, #48]
 162              		.loc 1 54 3 view .LVU42
 163 0098 1A6B     		ldr	r2, [r3, #48]
 164 009a 02F01002 		and	r2, r2, #16
 165 009e 0792     		str	r2, [sp, #28]
 166              		.loc 1 54 3 view .LVU43
 167 00a0 079A     		ldr	r2, [sp, #28]
 168              	.LBE8:
 169              		.loc 1 54 3 view .LVU44
  55:Core/Src/gpio.c ****   __HAL_RCC_GPIOD_CLK_ENABLE();
 170              		.loc 1 55 3 view .LVU45
 171              	.LBB9:
 172              		.loc 1 55 3 view .LVU46
 173 00a2 0894     		str	r4, [sp, #32]
 174              		.loc 1 55 3 view .LVU47
ARM GAS  C:\Users\moham\AppData\Local\Temp\ccFWfqRc.s 			page 5


 175 00a4 1A6B     		ldr	r2, [r3, #48]
 176 00a6 42F00802 		orr	r2, r2, #8
 177 00aa 1A63     		str	r2, [r3, #48]
 178              		.loc 1 55 3 view .LVU48
 179 00ac 1B6B     		ldr	r3, [r3, #48]
 180 00ae 03F00803 		and	r3, r3, #8
 181 00b2 0893     		str	r3, [sp, #32]
 182              		.loc 1 55 3 view .LVU49
 183 00b4 089B     		ldr	r3, [sp, #32]
 184              	.LBE9:
 185              		.loc 1 55 3 view .LVU50
  56:Core/Src/gpio.c **** 
  57:Core/Src/gpio.c ****   /*Configure GPIO pin Output Level */
  58:Core/Src/gpio.c ****   HAL_GPIO_WritePin(GPIOC, NCS_MEMS_SPI_Pin|CSX_Pin|OTG_FS_PSO_Pin, GPIO_PIN_RESET);
 186              		.loc 1 58 3 view .LVU51
 187 00b6 DFF80891 		ldr	r9, .L3+12
 188 00ba 2246     		mov	r2, r4
 189 00bc 1621     		movs	r1, #22
 190 00be 4846     		mov	r0, r9
 191 00c0 FFF7FEFF 		bl	HAL_GPIO_WritePin
 192              	.LVL0:
  59:Core/Src/gpio.c **** 
  60:Core/Src/gpio.c ****   /*Configure GPIO pin Output Level */
  61:Core/Src/gpio.c ****   HAL_GPIO_WritePin(ACP_RST_GPIO_Port, ACP_RST_Pin, GPIO_PIN_RESET);
 193              		.loc 1 61 3 view .LVU52
 194 00c4 3C4F     		ldr	r7, .L3+4
 195 00c6 2246     		mov	r2, r4
 196 00c8 8021     		movs	r1, #128
 197 00ca 3846     		mov	r0, r7
 198 00cc FFF7FEFF 		bl	HAL_GPIO_WritePin
 199              	.LVL1:
  62:Core/Src/gpio.c **** 
  63:Core/Src/gpio.c ****   /*Configure GPIO pin Output Level */
  64:Core/Src/gpio.c ****   HAL_GPIO_WritePin(GPIOD, RDX_Pin|WRX_DCX_Pin, GPIO_PIN_RESET);
 200              		.loc 1 64 3 view .LVU53
 201 00d0 DFF8F080 		ldr	r8, .L3+16
 202 00d4 2246     		mov	r2, r4
 203 00d6 4FF44051 		mov	r1, #12288
 204 00da 4046     		mov	r0, r8
 205 00dc FFF7FEFF 		bl	HAL_GPIO_WritePin
 206              	.LVL2:
  65:Core/Src/gpio.c **** 
  66:Core/Src/gpio.c ****   /*Configure GPIO pin Output Level */
  67:Core/Src/gpio.c ****   HAL_GPIO_WritePin(GPIOG, LD3_Pin|LD4_Pin, GPIO_PIN_RESET);
 207              		.loc 1 67 3 view .LVU54
 208 00e0 DFF8E4A0 		ldr	r10, .L3+20
 209 00e4 2246     		mov	r2, r4
 210 00e6 4FF4C041 		mov	r1, #24576
 211 00ea 5046     		mov	r0, r10
 212 00ec FFF7FEFF 		bl	HAL_GPIO_WritePin
 213              	.LVL3:
  68:Core/Src/gpio.c **** 
  69:Core/Src/gpio.c ****   /*Configure GPIO pins : NCS_MEMS_SPI_Pin CSX_Pin OTG_FS_PSO_Pin */
  70:Core/Src/gpio.c ****   GPIO_InitStruct.Pin = NCS_MEMS_SPI_Pin|CSX_Pin|OTG_FS_PSO_Pin;
 214              		.loc 1 70 3 view .LVU55
 215              		.loc 1 70 23 is_stmt 0 view .LVU56
 216 00f0 1623     		movs	r3, #22
ARM GAS  C:\Users\moham\AppData\Local\Temp\ccFWfqRc.s 			page 6


 217 00f2 0993     		str	r3, [sp, #36]
  71:Core/Src/gpio.c ****   GPIO_InitStruct.Mode = GPIO_MODE_OUTPUT_PP;
 218              		.loc 1 71 3 is_stmt 1 view .LVU57
 219              		.loc 1 71 24 is_stmt 0 view .LVU58
 220 00f4 0126     		movs	r6, #1
 221 00f6 0A96     		str	r6, [sp, #40]
  72:Core/Src/gpio.c ****   GPIO_InitStruct.Pull = GPIO_NOPULL;
 222              		.loc 1 72 3 is_stmt 1 view .LVU59
 223              		.loc 1 72 24 is_stmt 0 view .LVU60
 224 00f8 0B94     		str	r4, [sp, #44]
  73:Core/Src/gpio.c ****   GPIO_InitStruct.Speed = GPIO_SPEED_FREQ_LOW;
 225              		.loc 1 73 3 is_stmt 1 view .LVU61
 226              		.loc 1 73 25 is_stmt 0 view .LVU62
 227 00fa 0C94     		str	r4, [sp, #48]
  74:Core/Src/gpio.c ****   HAL_GPIO_Init(GPIOC, &GPIO_InitStruct);
 228              		.loc 1 74 3 is_stmt 1 view .LVU63
 229 00fc 2946     		mov	r1, r5
 230 00fe 4846     		mov	r0, r9
 231 0100 FFF7FEFF 		bl	HAL_GPIO_Init
 232              	.LVL4:
  75:Core/Src/gpio.c **** 
  76:Core/Src/gpio.c ****   /*Configure GPIO pin : PA0 */
  77:Core/Src/gpio.c ****   GPIO_InitStruct.Pin = GPIO_PIN_0;
 233              		.loc 1 77 3 view .LVU64
 234              		.loc 1 77 23 is_stmt 0 view .LVU65
 235 0104 0996     		str	r6, [sp, #36]
  78:Core/Src/gpio.c ****   GPIO_InitStruct.Mode = GPIO_MODE_IT_RISING;
 236              		.loc 1 78 3 is_stmt 1 view .LVU66
 237              		.loc 1 78 24 is_stmt 0 view .LVU67
 238 0106 4FF48813 		mov	r3, #1114112
 239 010a 0A93     		str	r3, [sp, #40]
  79:Core/Src/gpio.c ****   GPIO_InitStruct.Pull = GPIO_PULLDOWN;
 240              		.loc 1 79 3 is_stmt 1 view .LVU68
 241              		.loc 1 79 24 is_stmt 0 view .LVU69
 242 010c 0223     		movs	r3, #2
 243 010e 0B93     		str	r3, [sp, #44]
  80:Core/Src/gpio.c ****   HAL_GPIO_Init(GPIOA, &GPIO_InitStruct);
 244              		.loc 1 80 3 is_stmt 1 view .LVU70
 245 0110 2946     		mov	r1, r5
 246 0112 3846     		mov	r0, r7
 247 0114 FFF7FEFF 		bl	HAL_GPIO_Init
 248              	.LVL5:
  81:Core/Src/gpio.c ****   // NVIC enabled - using interrupt-driven event task
  82:Core/Src/gpio.c ****   HAL_NVIC_SetPriority(EXTI0_IRQn, 5, 0);
 249              		.loc 1 82 3 view .LVU71
 250 0118 2246     		mov	r2, r4
 251 011a 0521     		movs	r1, #5
 252 011c 0620     		movs	r0, #6
 253 011e FFF7FEFF 		bl	HAL_NVIC_SetPriority
 254              	.LVL6:
  83:Core/Src/gpio.c ****   HAL_NVIC_EnableIRQ(EXTI0_IRQn);
 255              		.loc 1 83 3 view .LVU72
 256 0122 0620     		movs	r0, #6
 257 0124 FFF7FEFF 		bl	HAL_NVIC_EnableIRQ
 258              	.LVL7:
  84:Core/Src/gpio.c **** 
  85:Core/Src/gpio.c ****   /*Configure GPIO pins : MEMS_INT1_Pin MEMS_INT2_Pin TP_INT1_Pin */
ARM GAS  C:\Users\moham\AppData\Local\Temp\ccFWfqRc.s 			page 7


  86:Core/Src/gpio.c ****   GPIO_InitStruct.Pin = MEMS_INT1_Pin|MEMS_INT2_Pin|TP_INT1_Pin;
 259              		.loc 1 86 3 view .LVU73
 260              		.loc 1 86 23 is_stmt 0 view .LVU74
 261 0128 48F20603 		movw	r3, #32774
 262 012c 0993     		str	r3, [sp, #36]
  87:Core/Src/gpio.c ****   GPIO_InitStruct.Mode = GPIO_MODE_EVT_RISING;
 263              		.loc 1 87 3 is_stmt 1 view .LVU75
 264              		.loc 1 87 24 is_stmt 0 view .LVU76
 265 012e 4FF4901B 		mov	fp, #1179648
 266 0132 CDF828B0 		str	fp, [sp, #40]
  88:Core/Src/gpio.c ****   GPIO_InitStruct.Pull = GPIO_NOPULL;
 267              		.loc 1 88 3 is_stmt 1 view .LVU77
 268              		.loc 1 88 24 is_stmt 0 view .LVU78
 269 0136 0B94     		str	r4, [sp, #44]
  89:Core/Src/gpio.c ****   HAL_GPIO_Init(GPIOA, &GPIO_InitStruct);
 270              		.loc 1 89 3 is_stmt 1 view .LVU79
 271 0138 2946     		mov	r1, r5
 272 013a 3846     		mov	r0, r7
 273 013c FFF7FEFF 		bl	HAL_GPIO_Init
 274              	.LVL8:
  90:Core/Src/gpio.c **** 
  91:Core/Src/gpio.c ****   /*Configure GPIO pin : ACP_RST_Pin */
  92:Core/Src/gpio.c ****   GPIO_InitStruct.Pin = ACP_RST_Pin;
 275              		.loc 1 92 3 view .LVU80
 276              		.loc 1 92 23 is_stmt 0 view .LVU81
 277 0140 8023     		movs	r3, #128
 278 0142 0993     		str	r3, [sp, #36]
  93:Core/Src/gpio.c ****   GPIO_InitStruct.Mode = GPIO_MODE_OUTPUT_PP;
 279              		.loc 1 93 3 is_stmt 1 view .LVU82
 280              		.loc 1 93 24 is_stmt 0 view .LVU83
 281 0144 0A96     		str	r6, [sp, #40]
  94:Core/Src/gpio.c ****   GPIO_InitStruct.Pull = GPIO_NOPULL;
 282              		.loc 1 94 3 is_stmt 1 view .LVU84
 283              		.loc 1 94 24 is_stmt 0 view .LVU85
 284 0146 0B94     		str	r4, [sp, #44]
  95:Core/Src/gpio.c ****   GPIO_InitStruct.Speed = GPIO_SPEED_FREQ_LOW;
 285              		.loc 1 95 3 is_stmt 1 view .LVU86
 286              		.loc 1 95 25 is_stmt 0 view .LVU87
 287 0148 0C94     		str	r4, [sp, #48]
  96:Core/Src/gpio.c ****   HAL_GPIO_Init(ACP_RST_GPIO_Port, &GPIO_InitStruct);
 288              		.loc 1 96 3 is_stmt 1 view .LVU88
 289 014a 2946     		mov	r1, r5
 290 014c 3846     		mov	r0, r7
 291 014e FFF7FEFF 		bl	HAL_GPIO_Init
 292              	.LVL9:
  97:Core/Src/gpio.c **** 
  98:Core/Src/gpio.c ****   /*Configure GPIO pin : OTG_FS_OC_Pin */
  99:Core/Src/gpio.c ****   GPIO_InitStruct.Pin = OTG_FS_OC_Pin;
 293              		.loc 1 99 3 view .LVU89
 294              		.loc 1 99 23 is_stmt 0 view .LVU90
 295 0152 2023     		movs	r3, #32
 296 0154 0993     		str	r3, [sp, #36]
 100:Core/Src/gpio.c ****   GPIO_InitStruct.Mode = GPIO_MODE_EVT_RISING;
 297              		.loc 1 100 3 is_stmt 1 view .LVU91
 298              		.loc 1 100 24 is_stmt 0 view .LVU92
 299 0156 CDF828B0 		str	fp, [sp, #40]
 101:Core/Src/gpio.c ****   GPIO_InitStruct.Pull = GPIO_NOPULL;
ARM GAS  C:\Users\moham\AppData\Local\Temp\ccFWfqRc.s 			page 8


 300              		.loc 1 101 3 is_stmt 1 view .LVU93
 301              		.loc 1 101 24 is_stmt 0 view .LVU94
 302 015a 0B94     		str	r4, [sp, #44]
 102:Core/Src/gpio.c ****   HAL_GPIO_Init(OTG_FS_OC_GPIO_Port, &GPIO_InitStruct);
 303              		.loc 1 102 3 is_stmt 1 view .LVU95
 304 015c 2946     		mov	r1, r5
 305 015e 4846     		mov	r0, r9
 306 0160 FFF7FEFF 		bl	HAL_GPIO_Init
 307              	.LVL10:
 103:Core/Src/gpio.c **** 
 104:Core/Src/gpio.c **** 
 105:Core/Src/gpio.c ****   /*Configure GPIO pin : BOOT1_Pin */
 106:Core/Src/gpio.c ****   GPIO_InitStruct.Pin = BOOT1_Pin;
 308              		.loc 1 106 3 view .LVU96
 309              		.loc 1 106 23 is_stmt 0 view .LVU97
 310 0164 0423     		movs	r3, #4
 311 0166 0993     		str	r3, [sp, #36]
 107:Core/Src/gpio.c ****   GPIO_InitStruct.Mode = GPIO_MODE_INPUT;
 312              		.loc 1 107 3 is_stmt 1 view .LVU98
 313              		.loc 1 107 24 is_stmt 0 view .LVU99
 314 0168 0A94     		str	r4, [sp, #40]
 108:Core/Src/gpio.c ****   GPIO_InitStruct.Pull = GPIO_NOPULL;
 315              		.loc 1 108 3 is_stmt 1 view .LVU100
 316              		.loc 1 108 24 is_stmt 0 view .LVU101
 317 016a 0B94     		str	r4, [sp, #44]
 109:Core/Src/gpio.c ****   HAL_GPIO_Init(BOOT1_GPIO_Port, &GPIO_InitStruct);
 318              		.loc 1 109 3 is_stmt 1 view .LVU102
 319 016c 2946     		mov	r1, r5
 320 016e 1348     		ldr	r0, .L3+8
 321 0170 FFF7FEFF 		bl	HAL_GPIO_Init
 322              	.LVL11:
 110:Core/Src/gpio.c **** 
 111:Core/Src/gpio.c ****   /*Configure GPIO pin : TE_Pin */
 112:Core/Src/gpio.c ****   GPIO_InitStruct.Pin = TE_Pin;
 323              		.loc 1 112 3 view .LVU103
 324              		.loc 1 112 23 is_stmt 0 view .LVU104
 325 0174 4FF40063 		mov	r3, #2048
 326 0178 0993     		str	r3, [sp, #36]
 113:Core/Src/gpio.c ****   GPIO_InitStruct.Mode = GPIO_MODE_INPUT;
 327              		.loc 1 113 3 is_stmt 1 view .LVU105
 328              		.loc 1 113 24 is_stmt 0 view .LVU106
 329 017a 0A94     		str	r4, [sp, #40]
 114:Core/Src/gpio.c ****   GPIO_InitStruct.Pull = GPIO_NOPULL;
 330              		.loc 1 114 3 is_stmt 1 view .LVU107
 331              		.loc 1 114 24 is_stmt 0 view .LVU108
 332 017c 0B94     		str	r4, [sp, #44]
 115:Core/Src/gpio.c ****   HAL_GPIO_Init(TE_GPIO_Port, &GPIO_InitStruct);
 333              		.loc 1 115 3 is_stmt 1 view .LVU109
 334 017e 2946     		mov	r1, r5
 335 0180 4046     		mov	r0, r8
 336 0182 FFF7FEFF 		bl	HAL_GPIO_Init
 337              	.LVL12:
 116:Core/Src/gpio.c **** 
 117:Core/Src/gpio.c ****   /*Configure GPIO pins : RDX_Pin WRX_DCX_Pin */
 118:Core/Src/gpio.c ****   GPIO_InitStruct.Pin = RDX_Pin|WRX_DCX_Pin;
 338              		.loc 1 118 3 view .LVU110
 339              		.loc 1 118 23 is_stmt 0 view .LVU111
ARM GAS  C:\Users\moham\AppData\Local\Temp\ccFWfqRc.s 			page 9


 340 0186 4FF44053 		mov	r3, #12288
 341 018a 0993     		str	r3, [sp, #36]
 119:Core/Src/gpio.c ****   GPIO_InitStruct.Mode = GPIO_MODE_OUTPUT_PP;
 342              		.loc 1 119 3 is_stmt 1 view .LVU112
 343              		.loc 1 119 24 is_stmt 0 view .LVU113
 344 018c 0A96     		str	r6, [sp, #40]
 120:Core/Src/gpio.c ****   GPIO_InitStruct.Pull = GPIO_NOPULL;
 345              		.loc 1 120 3 is_stmt 1 view .LVU114
 346              		.loc 1 120 24 is_stmt 0 view .LVU115
 347 018e 0B94     		str	r4, [sp, #44]
 121:Core/Src/gpio.c ****   GPIO_InitStruct.Speed = GPIO_SPEED_FREQ_LOW;
 348              		.loc 1 121 3 is_stmt 1 view .LVU116
 349              		.loc 1 121 25 is_stmt 0 view .LVU117
 350 0190 0C94     		str	r4, [sp, #48]
 122:Core/Src/gpio.c ****   HAL_GPIO_Init(GPIOD, &GPIO_InitStruct);
 351              		.loc 1 122 3 is_stmt 1 view .LVU118
 352 0192 2946     		mov	r1, r5
 353 0194 4046     		mov	r0, r8
 354 0196 FFF7FEFF 		bl	HAL_GPIO_Init
 355              	.LVL13:
 123:Core/Src/gpio.c **** 
 124:Core/Src/gpio.c ****   /*Configure GPIO pins : LD3_Pin LD4_Pin */
 125:Core/Src/gpio.c ****   GPIO_InitStruct.Pin = LD3_Pin|LD4_Pin;
 356              		.loc 1 125 3 view .LVU119
 357              		.loc 1 125 23 is_stmt 0 view .LVU120
 358 019a 4FF4C043 		mov	r3, #24576
 359 019e 0993     		str	r3, [sp, #36]
 126:Core/Src/gpio.c ****   GPIO_InitStruct.Mode = GPIO_MODE_OUTPUT_PP;
 360              		.loc 1 126 3 is_stmt 1 view .LVU121
 361              		.loc 1 126 24 is_stmt 0 view .LVU122
 362 01a0 0A96     		str	r6, [sp, #40]
 127:Core/Src/gpio.c ****   GPIO_InitStruct.Pull = GPIO_NOPULL;
 363              		.loc 1 127 3 is_stmt 1 view .LVU123
 364              		.loc 1 127 24 is_stmt 0 view .LVU124
 365 01a2 0B94     		str	r4, [sp, #44]
 128:Core/Src/gpio.c ****   GPIO_InitStruct.Speed = GPIO_SPEED_FREQ_LOW;
 366              		.loc 1 128 3 is_stmt 1 view .LVU125
 367              		.loc 1 128 25 is_stmt 0 view .LVU126
 368 01a4 0C94     		str	r4, [sp, #48]
 129:Core/Src/gpio.c ****   HAL_GPIO_Init(GPIOG, &GPIO_InitStruct);
 369              		.loc 1 129 3 is_stmt 1 view .LVU127
 370 01a6 2946     		mov	r1, r5
 371 01a8 5046     		mov	r0, r10
 372 01aa FFF7FEFF 		bl	HAL_GPIO_Init
 373              	.LVL14:
 130:Core/Src/gpio.c **** 
 131:Core/Src/gpio.c **** }
 374              		.loc 1 131 1 is_stmt 0 view .LVU128
 375 01ae 0FB0     		add	sp, sp, #60
 376              	.LCFI2:
 377              		.cfi_def_cfa_offset 36
 378              		@ sp needed
 379 01b0 BDE8F08F 		pop	{r4, r5, r6, r7, r8, r9, r10, fp, pc}
 380              	.L4:
 381              		.align	2
 382              	.L3:
 383 01b4 00380240 		.word	1073887232
ARM GAS  C:\Users\moham\AppData\Local\Temp\ccFWfqRc.s 			page 10


 384 01b8 00000240 		.word	1073872896
 385 01bc 00040240 		.word	1073873920
 386 01c0 00080240 		.word	1073874944
 387 01c4 000C0240 		.word	1073875968
 388 01c8 00180240 		.word	1073879040
 389              		.cfi_endproc
 390              	.LFE134:
 392              		.text
 393              	.Letext0:
 394              		.file 2 "Drivers/CMSIS/Device/ST/STM32F4xx/Include/stm32f429xx.h"
 395              		.file 3 "C:/Program Files (x86)/Arm GNU Toolchain arm-none-eabi/14.3 rel1/arm-none-eabi/include/ma
 396              		.file 4 "C:/Program Files (x86)/Arm GNU Toolchain arm-none-eabi/14.3 rel1/arm-none-eabi/include/sy
 397              		.file 5 "Drivers/STM32F4xx_HAL_Driver/Inc/stm32f4xx_hal_gpio.h"
 398              		.file 6 "Drivers/STM32F4xx_HAL_Driver/Inc/stm32f4xx_hal_cortex.h"
ARM GAS  C:\Users\moham\AppData\Local\Temp\ccFWfqRc.s 			page 11

