ARM GAS  C:\Users\moham\AppData\Local\Temp\ccRDsC4I.s 			page 1


   1              		.cpu cortex-m4
   2              		.arch armv7e-m
   3              		.fpu fpv4-sp-d16
   4              		.eabi_attribute 27, 1
   5              		.eabi_attribute 28, 1
   6              		.eabi_attribute 20, 1
   7              		.eabi_attribute 21, 1
   8              		.eabi_attribute 23, 3
   9              		.eabi_attribute 24, 1
  10              		.eabi_attribute 25, 1
  11              		.eabi_attribute 26, 1
  12              		.eabi_attribute 30, 1
  13              		.eabi_attribute 34, 1
  14              		.eabi_attribute 18, 4
  15              		.file	"stm32f4xx_hal_rcc.c"
  16              		.text
  17              	.Ltext0:
  18              		.cfi_sections	.debug_frame
  19              		.file 1 "Drivers/STM32F4xx_HAL_Driver/Src/stm32f4xx_hal_rcc.c"
  20              		.section	.text.HAL_RCC_DeInit,"ax",%progbits
  21              		.align	1
  22              		.weak	HAL_RCC_DeInit
  23              		.syntax unified
  24              		.thumb
  25              		.thumb_func
  27              	HAL_RCC_DeInit:
  28              	.LFB239:
   1:Drivers/STM32F4xx_HAL_Driver/Src/stm32f4xx_hal_rcc.c **** /**
   2:Drivers/STM32F4xx_HAL_Driver/Src/stm32f4xx_hal_rcc.c ****   ******************************************************************************
   3:Drivers/STM32F4xx_HAL_Driver/Src/stm32f4xx_hal_rcc.c ****   * @file    stm32f4xx_hal_rcc.c
   4:Drivers/STM32F4xx_HAL_Driver/Src/stm32f4xx_hal_rcc.c ****   * @author  MCD Application Team
   5:Drivers/STM32F4xx_HAL_Driver/Src/stm32f4xx_hal_rcc.c ****   * @brief   RCC HAL module driver.
   6:Drivers/STM32F4xx_HAL_Driver/Src/stm32f4xx_hal_rcc.c ****   *          This file provides firmware functions to manage the following
   7:Drivers/STM32F4xx_HAL_Driver/Src/stm32f4xx_hal_rcc.c ****   *          functionalities of the Reset and Clock Control (RCC) peripheral:
   8:Drivers/STM32F4xx_HAL_Driver/Src/stm32f4xx_hal_rcc.c ****   *           + Initialization and de-initialization functions
   9:Drivers/STM32F4xx_HAL_Driver/Src/stm32f4xx_hal_rcc.c ****   *           + Peripheral Control functions
  10:Drivers/STM32F4xx_HAL_Driver/Src/stm32f4xx_hal_rcc.c ****   *
  11:Drivers/STM32F4xx_HAL_Driver/Src/stm32f4xx_hal_rcc.c ****   @verbatim
  12:Drivers/STM32F4xx_HAL_Driver/Src/stm32f4xx_hal_rcc.c ****   ==============================================================================
  13:Drivers/STM32F4xx_HAL_Driver/Src/stm32f4xx_hal_rcc.c ****                       ##### RCC specific features #####
  14:Drivers/STM32F4xx_HAL_Driver/Src/stm32f4xx_hal_rcc.c ****   ==============================================================================
  15:Drivers/STM32F4xx_HAL_Driver/Src/stm32f4xx_hal_rcc.c ****     [..]
  16:Drivers/STM32F4xx_HAL_Driver/Src/stm32f4xx_hal_rcc.c ****       After reset the device is running from Internal High Speed oscillator
  17:Drivers/STM32F4xx_HAL_Driver/Src/stm32f4xx_hal_rcc.c ****       (HSI 16MHz) with Flash 0 wait state, Flash prefetch buffer, D-Cache
  18:Drivers/STM32F4xx_HAL_Driver/Src/stm32f4xx_hal_rcc.c ****       and I-Cache are disabled, and all peripherals are off except internal
  19:Drivers/STM32F4xx_HAL_Driver/Src/stm32f4xx_hal_rcc.c ****       SRAM, Flash and JTAG.
  20:Drivers/STM32F4xx_HAL_Driver/Src/stm32f4xx_hal_rcc.c ****       (+) There is no prescaler on High speed (AHB) and Low speed (APB) busses;
  21:Drivers/STM32F4xx_HAL_Driver/Src/stm32f4xx_hal_rcc.c ****           all peripherals mapped on these busses are running at HSI speed.
  22:Drivers/STM32F4xx_HAL_Driver/Src/stm32f4xx_hal_rcc.c ****       (+) The clock for all peripherals is switched off, except the SRAM and FLASH.
  23:Drivers/STM32F4xx_HAL_Driver/Src/stm32f4xx_hal_rcc.c ****       (+) All GPIOs are in input floating state, except the JTAG pins which
  24:Drivers/STM32F4xx_HAL_Driver/Src/stm32f4xx_hal_rcc.c ****           are assigned to be used for debug purpose.
  25:Drivers/STM32F4xx_HAL_Driver/Src/stm32f4xx_hal_rcc.c **** 
  26:Drivers/STM32F4xx_HAL_Driver/Src/stm32f4xx_hal_rcc.c ****     [..]
  27:Drivers/STM32F4xx_HAL_Driver/Src/stm32f4xx_hal_rcc.c ****       Once the device started from reset, the user application has to:
  28:Drivers/STM32F4xx_HAL_Driver/Src/stm32f4xx_hal_rcc.c ****       (+) Configure the clock source to be used to drive the System clock
  29:Drivers/STM32F4xx_HAL_Driver/Src/stm32f4xx_hal_rcc.c ****           (if the application needs higher frequency/performance)
  30:Drivers/STM32F4xx_HAL_Driver/Src/stm32f4xx_hal_rcc.c ****       (+) Configure the System clock frequency and Flash settings
ARM GAS  C:\Users\moham\AppData\Local\Temp\ccRDsC4I.s 			page 2


  31:Drivers/STM32F4xx_HAL_Driver/Src/stm32f4xx_hal_rcc.c ****       (+) Configure the AHB and APB busses prescalers
  32:Drivers/STM32F4xx_HAL_Driver/Src/stm32f4xx_hal_rcc.c ****       (+) Enable the clock for the peripheral(s) to be used
  33:Drivers/STM32F4xx_HAL_Driver/Src/stm32f4xx_hal_rcc.c ****       (+) Configure the clock source(s) for peripherals which clocks are not
  34:Drivers/STM32F4xx_HAL_Driver/Src/stm32f4xx_hal_rcc.c ****           derived from the System clock (I2S, RTC, ADC, USB OTG FS/SDIO/RNG)
  35:Drivers/STM32F4xx_HAL_Driver/Src/stm32f4xx_hal_rcc.c **** 
  36:Drivers/STM32F4xx_HAL_Driver/Src/stm32f4xx_hal_rcc.c ****                       ##### RCC Limitations #####
  37:Drivers/STM32F4xx_HAL_Driver/Src/stm32f4xx_hal_rcc.c ****   ==============================================================================
  38:Drivers/STM32F4xx_HAL_Driver/Src/stm32f4xx_hal_rcc.c ****     [..]
  39:Drivers/STM32F4xx_HAL_Driver/Src/stm32f4xx_hal_rcc.c ****       A delay between an RCC peripheral clock enable and the effective peripheral
  40:Drivers/STM32F4xx_HAL_Driver/Src/stm32f4xx_hal_rcc.c ****       enabling should be taken into account in order to manage the peripheral read/write
  41:Drivers/STM32F4xx_HAL_Driver/Src/stm32f4xx_hal_rcc.c ****       from/to registers.
  42:Drivers/STM32F4xx_HAL_Driver/Src/stm32f4xx_hal_rcc.c ****       (+) This delay depends on the peripheral mapping.
  43:Drivers/STM32F4xx_HAL_Driver/Src/stm32f4xx_hal_rcc.c ****       (+) If peripheral is mapped on AHB: the delay is 2 AHB clock cycle
  44:Drivers/STM32F4xx_HAL_Driver/Src/stm32f4xx_hal_rcc.c ****           after the clock enable bit is set on the hardware register
  45:Drivers/STM32F4xx_HAL_Driver/Src/stm32f4xx_hal_rcc.c ****       (+) If peripheral is mapped on APB: the delay is 2 APB clock cycle
  46:Drivers/STM32F4xx_HAL_Driver/Src/stm32f4xx_hal_rcc.c ****           after the clock enable bit is set on the hardware register
  47:Drivers/STM32F4xx_HAL_Driver/Src/stm32f4xx_hal_rcc.c **** 
  48:Drivers/STM32F4xx_HAL_Driver/Src/stm32f4xx_hal_rcc.c ****     [..]
  49:Drivers/STM32F4xx_HAL_Driver/Src/stm32f4xx_hal_rcc.c ****       Implemented Workaround:
  50:Drivers/STM32F4xx_HAL_Driver/Src/stm32f4xx_hal_rcc.c ****       (+) For AHB & APB peripherals, a dummy read to the peripheral register has been
  51:Drivers/STM32F4xx_HAL_Driver/Src/stm32f4xx_hal_rcc.c ****           inserted in each __HAL_RCC_PPP_CLK_ENABLE() macro.
  52:Drivers/STM32F4xx_HAL_Driver/Src/stm32f4xx_hal_rcc.c **** 
  53:Drivers/STM32F4xx_HAL_Driver/Src/stm32f4xx_hal_rcc.c ****   @endverbatim
  54:Drivers/STM32F4xx_HAL_Driver/Src/stm32f4xx_hal_rcc.c ****   ******************************************************************************
  55:Drivers/STM32F4xx_HAL_Driver/Src/stm32f4xx_hal_rcc.c ****   * @attention
  56:Drivers/STM32F4xx_HAL_Driver/Src/stm32f4xx_hal_rcc.c ****   *
  57:Drivers/STM32F4xx_HAL_Driver/Src/stm32f4xx_hal_rcc.c ****   * Copyright (c) 2017 STMicroelectronics.
  58:Drivers/STM32F4xx_HAL_Driver/Src/stm32f4xx_hal_rcc.c ****   * All rights reserved.
  59:Drivers/STM32F4xx_HAL_Driver/Src/stm32f4xx_hal_rcc.c ****   *
  60:Drivers/STM32F4xx_HAL_Driver/Src/stm32f4xx_hal_rcc.c ****   * This software is licensed under terms that can be found in the LICENSE file in
  61:Drivers/STM32F4xx_HAL_Driver/Src/stm32f4xx_hal_rcc.c ****   * the root directory of this software component.
  62:Drivers/STM32F4xx_HAL_Driver/Src/stm32f4xx_hal_rcc.c ****   * If no LICENSE file comes with this software, it is provided AS-IS.
  63:Drivers/STM32F4xx_HAL_Driver/Src/stm32f4xx_hal_rcc.c ****   ******************************************************************************
  64:Drivers/STM32F4xx_HAL_Driver/Src/stm32f4xx_hal_rcc.c ****   */
  65:Drivers/STM32F4xx_HAL_Driver/Src/stm32f4xx_hal_rcc.c **** 
  66:Drivers/STM32F4xx_HAL_Driver/Src/stm32f4xx_hal_rcc.c **** /* Includes ------------------------------------------------------------------*/
  67:Drivers/STM32F4xx_HAL_Driver/Src/stm32f4xx_hal_rcc.c **** #include "stm32f4xx_hal.h"
  68:Drivers/STM32F4xx_HAL_Driver/Src/stm32f4xx_hal_rcc.c **** 
  69:Drivers/STM32F4xx_HAL_Driver/Src/stm32f4xx_hal_rcc.c **** /** @addtogroup STM32F4xx_HAL_Driver
  70:Drivers/STM32F4xx_HAL_Driver/Src/stm32f4xx_hal_rcc.c ****   * @{
  71:Drivers/STM32F4xx_HAL_Driver/Src/stm32f4xx_hal_rcc.c ****   */
  72:Drivers/STM32F4xx_HAL_Driver/Src/stm32f4xx_hal_rcc.c **** 
  73:Drivers/STM32F4xx_HAL_Driver/Src/stm32f4xx_hal_rcc.c **** /** @defgroup RCC RCC
  74:Drivers/STM32F4xx_HAL_Driver/Src/stm32f4xx_hal_rcc.c ****   * @brief RCC HAL module driver
  75:Drivers/STM32F4xx_HAL_Driver/Src/stm32f4xx_hal_rcc.c ****   * @{
  76:Drivers/STM32F4xx_HAL_Driver/Src/stm32f4xx_hal_rcc.c ****   */
  77:Drivers/STM32F4xx_HAL_Driver/Src/stm32f4xx_hal_rcc.c **** 
  78:Drivers/STM32F4xx_HAL_Driver/Src/stm32f4xx_hal_rcc.c **** #ifdef HAL_RCC_MODULE_ENABLED
  79:Drivers/STM32F4xx_HAL_Driver/Src/stm32f4xx_hal_rcc.c **** 
  80:Drivers/STM32F4xx_HAL_Driver/Src/stm32f4xx_hal_rcc.c **** /* Private typedef -----------------------------------------------------------*/
  81:Drivers/STM32F4xx_HAL_Driver/Src/stm32f4xx_hal_rcc.c **** /* Private define ------------------------------------------------------------*/
  82:Drivers/STM32F4xx_HAL_Driver/Src/stm32f4xx_hal_rcc.c **** /** @addtogroup RCC_Private_Constants
  83:Drivers/STM32F4xx_HAL_Driver/Src/stm32f4xx_hal_rcc.c ****   * @{
  84:Drivers/STM32F4xx_HAL_Driver/Src/stm32f4xx_hal_rcc.c ****   */
  85:Drivers/STM32F4xx_HAL_Driver/Src/stm32f4xx_hal_rcc.c **** 
  86:Drivers/STM32F4xx_HAL_Driver/Src/stm32f4xx_hal_rcc.c **** /* Private macro -------------------------------------------------------------*/
  87:Drivers/STM32F4xx_HAL_Driver/Src/stm32f4xx_hal_rcc.c **** #define __MCO1_CLK_ENABLE()   __HAL_RCC_GPIOA_CLK_ENABLE()
ARM GAS  C:\Users\moham\AppData\Local\Temp\ccRDsC4I.s 			page 3


  88:Drivers/STM32F4xx_HAL_Driver/Src/stm32f4xx_hal_rcc.c **** #define MCO1_GPIO_PORT        GPIOA
  89:Drivers/STM32F4xx_HAL_Driver/Src/stm32f4xx_hal_rcc.c **** #define MCO1_PIN              GPIO_PIN_8
  90:Drivers/STM32F4xx_HAL_Driver/Src/stm32f4xx_hal_rcc.c **** 
  91:Drivers/STM32F4xx_HAL_Driver/Src/stm32f4xx_hal_rcc.c **** #define __MCO2_CLK_ENABLE()   __HAL_RCC_GPIOC_CLK_ENABLE()
  92:Drivers/STM32F4xx_HAL_Driver/Src/stm32f4xx_hal_rcc.c **** #define MCO2_GPIO_PORT         GPIOC
  93:Drivers/STM32F4xx_HAL_Driver/Src/stm32f4xx_hal_rcc.c **** #define MCO2_PIN               GPIO_PIN_9
  94:Drivers/STM32F4xx_HAL_Driver/Src/stm32f4xx_hal_rcc.c **** /**
  95:Drivers/STM32F4xx_HAL_Driver/Src/stm32f4xx_hal_rcc.c ****   * @}
  96:Drivers/STM32F4xx_HAL_Driver/Src/stm32f4xx_hal_rcc.c ****   */
  97:Drivers/STM32F4xx_HAL_Driver/Src/stm32f4xx_hal_rcc.c **** 
  98:Drivers/STM32F4xx_HAL_Driver/Src/stm32f4xx_hal_rcc.c **** /* Private variables ---------------------------------------------------------*/
  99:Drivers/STM32F4xx_HAL_Driver/Src/stm32f4xx_hal_rcc.c **** /** @defgroup RCC_Private_Variables RCC Private Variables
 100:Drivers/STM32F4xx_HAL_Driver/Src/stm32f4xx_hal_rcc.c ****   * @{
 101:Drivers/STM32F4xx_HAL_Driver/Src/stm32f4xx_hal_rcc.c ****   */
 102:Drivers/STM32F4xx_HAL_Driver/Src/stm32f4xx_hal_rcc.c **** /**
 103:Drivers/STM32F4xx_HAL_Driver/Src/stm32f4xx_hal_rcc.c ****   * @}
 104:Drivers/STM32F4xx_HAL_Driver/Src/stm32f4xx_hal_rcc.c ****   */
 105:Drivers/STM32F4xx_HAL_Driver/Src/stm32f4xx_hal_rcc.c **** /* Private function prototypes -----------------------------------------------*/
 106:Drivers/STM32F4xx_HAL_Driver/Src/stm32f4xx_hal_rcc.c **** /* Private functions ---------------------------------------------------------*/
 107:Drivers/STM32F4xx_HAL_Driver/Src/stm32f4xx_hal_rcc.c **** 
 108:Drivers/STM32F4xx_HAL_Driver/Src/stm32f4xx_hal_rcc.c **** /** @defgroup RCC_Exported_Functions RCC Exported Functions
 109:Drivers/STM32F4xx_HAL_Driver/Src/stm32f4xx_hal_rcc.c ****   *  @{
 110:Drivers/STM32F4xx_HAL_Driver/Src/stm32f4xx_hal_rcc.c ****   */
 111:Drivers/STM32F4xx_HAL_Driver/Src/stm32f4xx_hal_rcc.c **** 
 112:Drivers/STM32F4xx_HAL_Driver/Src/stm32f4xx_hal_rcc.c **** /** @defgroup RCC_Exported_Functions_Group1 Initialization and de-initialization functions
 113:Drivers/STM32F4xx_HAL_Driver/Src/stm32f4xx_hal_rcc.c ****   *  @brief    Initialization and Configuration functions
 114:Drivers/STM32F4xx_HAL_Driver/Src/stm32f4xx_hal_rcc.c ****   *
 115:Drivers/STM32F4xx_HAL_Driver/Src/stm32f4xx_hal_rcc.c **** @verbatim
 116:Drivers/STM32F4xx_HAL_Driver/Src/stm32f4xx_hal_rcc.c ****  ===============================================================================
 117:Drivers/STM32F4xx_HAL_Driver/Src/stm32f4xx_hal_rcc.c ****            ##### Initialization and de-initialization functions #####
 118:Drivers/STM32F4xx_HAL_Driver/Src/stm32f4xx_hal_rcc.c ****  ===============================================================================
 119:Drivers/STM32F4xx_HAL_Driver/Src/stm32f4xx_hal_rcc.c ****     [..]
 120:Drivers/STM32F4xx_HAL_Driver/Src/stm32f4xx_hal_rcc.c ****       This section provides functions allowing to configure the internal/external oscillators
 121:Drivers/STM32F4xx_HAL_Driver/Src/stm32f4xx_hal_rcc.c ****       (HSE, HSI, LSE, LSI, PLL, CSS and MCO) and the System busses clocks (SYSCLK, AHB, APB1
 122:Drivers/STM32F4xx_HAL_Driver/Src/stm32f4xx_hal_rcc.c ****        and APB2).
 123:Drivers/STM32F4xx_HAL_Driver/Src/stm32f4xx_hal_rcc.c **** 
 124:Drivers/STM32F4xx_HAL_Driver/Src/stm32f4xx_hal_rcc.c ****     [..] Internal/external clock and PLL configuration
 125:Drivers/STM32F4xx_HAL_Driver/Src/stm32f4xx_hal_rcc.c ****          (#) HSI (high-speed internal), 16 MHz factory-trimmed RC used directly or through
 126:Drivers/STM32F4xx_HAL_Driver/Src/stm32f4xx_hal_rcc.c ****              the PLL as System clock source.
 127:Drivers/STM32F4xx_HAL_Driver/Src/stm32f4xx_hal_rcc.c **** 
 128:Drivers/STM32F4xx_HAL_Driver/Src/stm32f4xx_hal_rcc.c ****          (#) LSI (low-speed internal), 32 KHz low consumption RC used as IWDG and/or RTC
 129:Drivers/STM32F4xx_HAL_Driver/Src/stm32f4xx_hal_rcc.c ****              clock source.
 130:Drivers/STM32F4xx_HAL_Driver/Src/stm32f4xx_hal_rcc.c **** 
 131:Drivers/STM32F4xx_HAL_Driver/Src/stm32f4xx_hal_rcc.c ****          (#) HSE (high-speed external), 4 to 26 MHz crystal oscillator used directly or
 132:Drivers/STM32F4xx_HAL_Driver/Src/stm32f4xx_hal_rcc.c ****              through the PLL as System clock source. Can be used also as RTC clock source.
 133:Drivers/STM32F4xx_HAL_Driver/Src/stm32f4xx_hal_rcc.c **** 
 134:Drivers/STM32F4xx_HAL_Driver/Src/stm32f4xx_hal_rcc.c ****          (#) LSE (low-speed external), 32 KHz oscillator used as RTC clock source.
 135:Drivers/STM32F4xx_HAL_Driver/Src/stm32f4xx_hal_rcc.c **** 
 136:Drivers/STM32F4xx_HAL_Driver/Src/stm32f4xx_hal_rcc.c ****          (#) PLL (clocked by HSI or HSE), featuring two different output clocks:
 137:Drivers/STM32F4xx_HAL_Driver/Src/stm32f4xx_hal_rcc.c ****            (++) The first output is used to generate the high speed system clock (up to 168 MHz)
 138:Drivers/STM32F4xx_HAL_Driver/Src/stm32f4xx_hal_rcc.c ****            (++) The second output is used to generate the clock for the USB OTG FS (48 MHz),
 139:Drivers/STM32F4xx_HAL_Driver/Src/stm32f4xx_hal_rcc.c ****                 the random analog generator (<=48 MHz) and the SDIO (<= 48 MHz).
 140:Drivers/STM32F4xx_HAL_Driver/Src/stm32f4xx_hal_rcc.c **** 
 141:Drivers/STM32F4xx_HAL_Driver/Src/stm32f4xx_hal_rcc.c ****          (#) CSS (Clock security system), once enable using the macro __HAL_RCC_CSS_ENABLE()
 142:Drivers/STM32F4xx_HAL_Driver/Src/stm32f4xx_hal_rcc.c ****              and if a HSE clock failure occurs(HSE used directly or through PLL as System
 143:Drivers/STM32F4xx_HAL_Driver/Src/stm32f4xx_hal_rcc.c ****              clock source), the System clocks automatically switched to HSI and an interrupt
 144:Drivers/STM32F4xx_HAL_Driver/Src/stm32f4xx_hal_rcc.c ****              is generated if enabled. The interrupt is linked to the Cortex-M4 NMI
ARM GAS  C:\Users\moham\AppData\Local\Temp\ccRDsC4I.s 			page 4


 145:Drivers/STM32F4xx_HAL_Driver/Src/stm32f4xx_hal_rcc.c ****              (Non-Maskable Interrupt) exception vector.
 146:Drivers/STM32F4xx_HAL_Driver/Src/stm32f4xx_hal_rcc.c **** 
 147:Drivers/STM32F4xx_HAL_Driver/Src/stm32f4xx_hal_rcc.c ****          (#) MCO1 (microcontroller clock output), used to output HSI, LSE, HSE or PLL
 148:Drivers/STM32F4xx_HAL_Driver/Src/stm32f4xx_hal_rcc.c ****              clock (through a configurable prescaler) on PA8 pin.
 149:Drivers/STM32F4xx_HAL_Driver/Src/stm32f4xx_hal_rcc.c **** 
 150:Drivers/STM32F4xx_HAL_Driver/Src/stm32f4xx_hal_rcc.c ****          (#) MCO2 (microcontroller clock output), used to output HSE, PLL, SYSCLK or PLLI2S
 151:Drivers/STM32F4xx_HAL_Driver/Src/stm32f4xx_hal_rcc.c ****              clock (through a configurable prescaler) on PC9 pin.
 152:Drivers/STM32F4xx_HAL_Driver/Src/stm32f4xx_hal_rcc.c **** 
 153:Drivers/STM32F4xx_HAL_Driver/Src/stm32f4xx_hal_rcc.c ****     [..] System, AHB and APB busses clocks configuration
 154:Drivers/STM32F4xx_HAL_Driver/Src/stm32f4xx_hal_rcc.c ****          (#) Several clock sources can be used to drive the System clock (SYSCLK): HSI,
 155:Drivers/STM32F4xx_HAL_Driver/Src/stm32f4xx_hal_rcc.c ****              HSE and PLL.
 156:Drivers/STM32F4xx_HAL_Driver/Src/stm32f4xx_hal_rcc.c ****              The AHB clock (HCLK) is derived from System clock through configurable
 157:Drivers/STM32F4xx_HAL_Driver/Src/stm32f4xx_hal_rcc.c ****              prescaler and used to clock the CPU, memory and peripherals mapped
 158:Drivers/STM32F4xx_HAL_Driver/Src/stm32f4xx_hal_rcc.c ****              on AHB bus (DMA, GPIO...). APB1 (PCLK1) and APB2 (PCLK2) clocks are derived
 159:Drivers/STM32F4xx_HAL_Driver/Src/stm32f4xx_hal_rcc.c ****              from AHB clock through configurable prescalers and used to clock
 160:Drivers/STM32F4xx_HAL_Driver/Src/stm32f4xx_hal_rcc.c ****              the peripherals mapped on these busses. You can use
 161:Drivers/STM32F4xx_HAL_Driver/Src/stm32f4xx_hal_rcc.c ****              "HAL_RCC_GetSysClockFreq()" function to retrieve the frequencies of these clocks.
 162:Drivers/STM32F4xx_HAL_Driver/Src/stm32f4xx_hal_rcc.c **** 
 163:Drivers/STM32F4xx_HAL_Driver/Src/stm32f4xx_hal_rcc.c ****          (#) For the STM32F405xx/07xx and STM32F415xx/17xx devices, the maximum
 164:Drivers/STM32F4xx_HAL_Driver/Src/stm32f4xx_hal_rcc.c ****              frequency of the SYSCLK and HCLK is 168 MHz, PCLK2 84 MHz and PCLK1 42 MHz.
 165:Drivers/STM32F4xx_HAL_Driver/Src/stm32f4xx_hal_rcc.c ****              Depending on the device voltage range, the maximum frequency should
 166:Drivers/STM32F4xx_HAL_Driver/Src/stm32f4xx_hal_rcc.c ****              be adapted accordingly (refer to the product datasheets for more details).
 167:Drivers/STM32F4xx_HAL_Driver/Src/stm32f4xx_hal_rcc.c **** 
 168:Drivers/STM32F4xx_HAL_Driver/Src/stm32f4xx_hal_rcc.c ****          (#) For the STM32F42xxx, STM32F43xxx, STM32F446xx, STM32F469xx and STM32F479xx devices,
 169:Drivers/STM32F4xx_HAL_Driver/Src/stm32f4xx_hal_rcc.c ****              the maximum frequency of the SYSCLK and HCLK is 180 MHz, PCLK2 90 MHz and PCLK1 45 MHz
 170:Drivers/STM32F4xx_HAL_Driver/Src/stm32f4xx_hal_rcc.c ****              Depending on the device voltage range, the maximum frequency should
 171:Drivers/STM32F4xx_HAL_Driver/Src/stm32f4xx_hal_rcc.c ****              be adapted accordingly (refer to the product datasheets for more details).
 172:Drivers/STM32F4xx_HAL_Driver/Src/stm32f4xx_hal_rcc.c **** 
 173:Drivers/STM32F4xx_HAL_Driver/Src/stm32f4xx_hal_rcc.c ****          (#) For the STM32F401xx, the maximum frequency of the SYSCLK and HCLK is 84 MHz,
 174:Drivers/STM32F4xx_HAL_Driver/Src/stm32f4xx_hal_rcc.c ****              PCLK2 84 MHz and PCLK1 42 MHz.
 175:Drivers/STM32F4xx_HAL_Driver/Src/stm32f4xx_hal_rcc.c ****              Depending on the device voltage range, the maximum frequency should
 176:Drivers/STM32F4xx_HAL_Driver/Src/stm32f4xx_hal_rcc.c ****              be adapted accordingly (refer to the product datasheets for more details).
 177:Drivers/STM32F4xx_HAL_Driver/Src/stm32f4xx_hal_rcc.c **** 
 178:Drivers/STM32F4xx_HAL_Driver/Src/stm32f4xx_hal_rcc.c ****          (#) For the STM32F41xxx, the maximum frequency of the SYSCLK and HCLK is 100 MHz,
 179:Drivers/STM32F4xx_HAL_Driver/Src/stm32f4xx_hal_rcc.c ****              PCLK2 100 MHz and PCLK1 50 MHz.
 180:Drivers/STM32F4xx_HAL_Driver/Src/stm32f4xx_hal_rcc.c ****              Depending on the device voltage range, the maximum frequency should
 181:Drivers/STM32F4xx_HAL_Driver/Src/stm32f4xx_hal_rcc.c ****              be adapted accordingly (refer to the product datasheets for more details).
 182:Drivers/STM32F4xx_HAL_Driver/Src/stm32f4xx_hal_rcc.c **** 
 183:Drivers/STM32F4xx_HAL_Driver/Src/stm32f4xx_hal_rcc.c **** @endverbatim
 184:Drivers/STM32F4xx_HAL_Driver/Src/stm32f4xx_hal_rcc.c ****   * @{
 185:Drivers/STM32F4xx_HAL_Driver/Src/stm32f4xx_hal_rcc.c ****   */
 186:Drivers/STM32F4xx_HAL_Driver/Src/stm32f4xx_hal_rcc.c **** 
 187:Drivers/STM32F4xx_HAL_Driver/Src/stm32f4xx_hal_rcc.c **** /**
 188:Drivers/STM32F4xx_HAL_Driver/Src/stm32f4xx_hal_rcc.c ****   * @brief  Resets the RCC clock configuration to the default reset state.
 189:Drivers/STM32F4xx_HAL_Driver/Src/stm32f4xx_hal_rcc.c ****   * @note   The default reset state of the clock configuration is given below:
 190:Drivers/STM32F4xx_HAL_Driver/Src/stm32f4xx_hal_rcc.c ****   *            - HSI ON and used as system clock source
 191:Drivers/STM32F4xx_HAL_Driver/Src/stm32f4xx_hal_rcc.c ****   *            - HSE and PLL OFF
 192:Drivers/STM32F4xx_HAL_Driver/Src/stm32f4xx_hal_rcc.c ****   *            - AHB, APB1 and APB2 prescaler set to 1.
 193:Drivers/STM32F4xx_HAL_Driver/Src/stm32f4xx_hal_rcc.c ****   *            - CSS, MCO1 and MCO2 OFF
 194:Drivers/STM32F4xx_HAL_Driver/Src/stm32f4xx_hal_rcc.c ****   *            - All interrupts disabled
 195:Drivers/STM32F4xx_HAL_Driver/Src/stm32f4xx_hal_rcc.c ****   * @note   This function doesn't modify the configuration of the
 196:Drivers/STM32F4xx_HAL_Driver/Src/stm32f4xx_hal_rcc.c ****   *            - Peripheral clocks
 197:Drivers/STM32F4xx_HAL_Driver/Src/stm32f4xx_hal_rcc.c ****   *            - LSI, LSE and RTC clocks
 198:Drivers/STM32F4xx_HAL_Driver/Src/stm32f4xx_hal_rcc.c ****   * @retval HAL status
 199:Drivers/STM32F4xx_HAL_Driver/Src/stm32f4xx_hal_rcc.c ****   */
 200:Drivers/STM32F4xx_HAL_Driver/Src/stm32f4xx_hal_rcc.c **** __weak HAL_StatusTypeDef HAL_RCC_DeInit(void)
 201:Drivers/STM32F4xx_HAL_Driver/Src/stm32f4xx_hal_rcc.c **** {
ARM GAS  C:\Users\moham\AppData\Local\Temp\ccRDsC4I.s 			page 5


  29              		.loc 1 201 1 view -0
  30              		.cfi_startproc
  31              		@ args = 0, pretend = 0, frame = 0
  32              		@ frame_needed = 0, uses_anonymous_args = 0
  33              		@ link register save eliminated.
 202:Drivers/STM32F4xx_HAL_Driver/Src/stm32f4xx_hal_rcc.c ****   return HAL_OK;
  34              		.loc 1 202 3 view .LVU1
 203:Drivers/STM32F4xx_HAL_Driver/Src/stm32f4xx_hal_rcc.c **** }
  35              		.loc 1 203 1 is_stmt 0 view .LVU2
  36 0000 0020     		movs	r0, #0
  37 0002 7047     		bx	lr
  38              		.cfi_endproc
  39              	.LFE239:
  41              		.section	.rodata.HAL_RCC_OscConfig.str1.4,"aMS",%progbits,1
  42              		.align	2
  43              	.LC0:
  44 0000 44726976 		.ascii	"Drivers/STM32F4xx_HAL_Driver/Src/stm32f4xx_hal_rcc."
  44      6572732F 
  44      53544D33 
  44      32463478 
  44      785F4841 
  45 0033 6300     		.ascii	"c\000"
  46              		.section	.text.HAL_RCC_OscConfig,"ax",%progbits
  47              		.align	1
  48              		.weak	HAL_RCC_OscConfig
  49              		.syntax unified
  50              		.thumb
  51              		.thumb_func
  53              	HAL_RCC_OscConfig:
  54              	.LVL0:
  55              	.LFB240:
 204:Drivers/STM32F4xx_HAL_Driver/Src/stm32f4xx_hal_rcc.c **** 
 205:Drivers/STM32F4xx_HAL_Driver/Src/stm32f4xx_hal_rcc.c **** /**
 206:Drivers/STM32F4xx_HAL_Driver/Src/stm32f4xx_hal_rcc.c ****   * @brief  Initializes the RCC Oscillators according to the specified parameters in the
 207:Drivers/STM32F4xx_HAL_Driver/Src/stm32f4xx_hal_rcc.c ****   *         RCC_OscInitTypeDef.
 208:Drivers/STM32F4xx_HAL_Driver/Src/stm32f4xx_hal_rcc.c ****   * @param  RCC_OscInitStruct pointer to an RCC_OscInitTypeDef structure that
 209:Drivers/STM32F4xx_HAL_Driver/Src/stm32f4xx_hal_rcc.c ****   *         contains the configuration information for the RCC Oscillators.
 210:Drivers/STM32F4xx_HAL_Driver/Src/stm32f4xx_hal_rcc.c ****   * @note   The PLL is not disabled when used as system clock.
 211:Drivers/STM32F4xx_HAL_Driver/Src/stm32f4xx_hal_rcc.c ****   * @note   Transitions LSE Bypass to LSE On and LSE On to LSE Bypass are not
 212:Drivers/STM32F4xx_HAL_Driver/Src/stm32f4xx_hal_rcc.c ****   *         supported by this API. User should request a transition to LSE Off
 213:Drivers/STM32F4xx_HAL_Driver/Src/stm32f4xx_hal_rcc.c ****   *         first and then LSE On or LSE Bypass.
 214:Drivers/STM32F4xx_HAL_Driver/Src/stm32f4xx_hal_rcc.c ****   * @note   Transition HSE Bypass to HSE On and HSE On to HSE Bypass are not
 215:Drivers/STM32F4xx_HAL_Driver/Src/stm32f4xx_hal_rcc.c ****   *         supported by this API. User should request a transition to HSE Off
 216:Drivers/STM32F4xx_HAL_Driver/Src/stm32f4xx_hal_rcc.c ****   *         first and then HSE On or HSE Bypass.
 217:Drivers/STM32F4xx_HAL_Driver/Src/stm32f4xx_hal_rcc.c ****   * @retval HAL status
 218:Drivers/STM32F4xx_HAL_Driver/Src/stm32f4xx_hal_rcc.c ****   */
 219:Drivers/STM32F4xx_HAL_Driver/Src/stm32f4xx_hal_rcc.c **** __weak HAL_StatusTypeDef HAL_RCC_OscConfig(const RCC_OscInitTypeDef  *RCC_OscInitStruct)
 220:Drivers/STM32F4xx_HAL_Driver/Src/stm32f4xx_hal_rcc.c **** {
  56              		.loc 1 220 1 is_stmt 1 view -0
  57              		.cfi_startproc
  58              		@ args = 0, pretend = 0, frame = 8
  59              		@ frame_needed = 0, uses_anonymous_args = 0
 221:Drivers/STM32F4xx_HAL_Driver/Src/stm32f4xx_hal_rcc.c ****   uint32_t tickstart;
  60              		.loc 1 221 3 view .LVU4
 222:Drivers/STM32F4xx_HAL_Driver/Src/stm32f4xx_hal_rcc.c ****   uint32_t pll_config;
  61              		.loc 1 222 3 view .LVU5
 223:Drivers/STM32F4xx_HAL_Driver/Src/stm32f4xx_hal_rcc.c ****   /* Check Null pointer */
ARM GAS  C:\Users\moham\AppData\Local\Temp\ccRDsC4I.s 			page 6


 224:Drivers/STM32F4xx_HAL_Driver/Src/stm32f4xx_hal_rcc.c ****   if (RCC_OscInitStruct == NULL)
  62              		.loc 1 224 3 view .LVU6
  63              		.loc 1 224 6 is_stmt 0 view .LVU7
  64 0000 0028     		cmp	r0, #0
  65 0002 00F05E82 		beq	.L65
 220:Drivers/STM32F4xx_HAL_Driver/Src/stm32f4xx_hal_rcc.c ****   uint32_t tickstart;
  66              		.loc 1 220 1 view .LVU8
  67 0006 70B5     		push	{r4, r5, r6, lr}
  68              	.LCFI0:
  69              		.cfi_def_cfa_offset 16
  70              		.cfi_offset 4, -16
  71              		.cfi_offset 5, -12
  72              		.cfi_offset 6, -8
  73              		.cfi_offset 14, -4
  74 0008 82B0     		sub	sp, sp, #8
  75              	.LCFI1:
  76              		.cfi_def_cfa_offset 24
  77 000a 0446     		mov	r4, r0
 225:Drivers/STM32F4xx_HAL_Driver/Src/stm32f4xx_hal_rcc.c ****   {
 226:Drivers/STM32F4xx_HAL_Driver/Src/stm32f4xx_hal_rcc.c ****     return HAL_ERROR;
 227:Drivers/STM32F4xx_HAL_Driver/Src/stm32f4xx_hal_rcc.c ****   }
 228:Drivers/STM32F4xx_HAL_Driver/Src/stm32f4xx_hal_rcc.c **** 
 229:Drivers/STM32F4xx_HAL_Driver/Src/stm32f4xx_hal_rcc.c ****   /* Check the parameters */
 230:Drivers/STM32F4xx_HAL_Driver/Src/stm32f4xx_hal_rcc.c ****   assert_param(IS_RCC_OSCILLATORTYPE(RCC_OscInitStruct->OscillatorType));
  78              		.loc 1 230 3 is_stmt 1 view .LVU9
  79 000c 0368     		ldr	r3, [r0]
  80 000e 0F2B     		cmp	r3, #15
  81 0010 39D8     		bhi	.L92
  82              	.LVL1:
  83              	.L4:
 231:Drivers/STM32F4xx_HAL_Driver/Src/stm32f4xx_hal_rcc.c ****   /*------------------------------- HSE Configuration ------------------------*/
 232:Drivers/STM32F4xx_HAL_Driver/Src/stm32f4xx_hal_rcc.c ****   if (((RCC_OscInitStruct->OscillatorType) & RCC_OSCILLATORTYPE_HSE) == RCC_OSCILLATORTYPE_HSE)
  84              		.loc 1 232 3 view .LVU10
  85              		.loc 1 232 26 is_stmt 0 view .LVU11
  86 0012 2368     		ldr	r3, [r4]
  87              		.loc 1 232 6 view .LVU12
  88 0014 13F0010F 		tst	r3, #1
  89 0018 4DD0     		beq	.L5
 233:Drivers/STM32F4xx_HAL_Driver/Src/stm32f4xx_hal_rcc.c ****   {
 234:Drivers/STM32F4xx_HAL_Driver/Src/stm32f4xx_hal_rcc.c ****     /* Check the parameters */
 235:Drivers/STM32F4xx_HAL_Driver/Src/stm32f4xx_hal_rcc.c ****     assert_param(IS_RCC_HSE(RCC_OscInitStruct->HSEState));
  90              		.loc 1 235 5 is_stmt 1 view .LVU13
  91 001a 6368     		ldr	r3, [r4, #4]
  92 001c 2BB1     		cbz	r3, .L6
  93              		.loc 1 235 5 is_stmt 0 discriminator 1 view .LVU14
  94 001e B3F5803F 		cmp	r3, #65536
  95 0022 02D0     		beq	.L6
  96              		.loc 1 235 5 discriminator 2 view .LVU15
  97 0024 B3F5A02F 		cmp	r3, #327680
  98 0028 32D1     		bne	.L93
  99              	.L6:
 236:Drivers/STM32F4xx_HAL_Driver/Src/stm32f4xx_hal_rcc.c ****     /* When the HSE is used as system clock or clock source for PLL in these cases HSE will not dis
 237:Drivers/STM32F4xx_HAL_Driver/Src/stm32f4xx_hal_rcc.c ****     if ((__HAL_RCC_GET_SYSCLK_SOURCE() == RCC_CFGR_SWS_HSE) || \
 100              		.loc 1 237 5 is_stmt 1 view .LVU16
 101              		.loc 1 237 10 is_stmt 0 view .LVU17
 102 002a 804B     		ldr	r3, .L116
 103 002c 9B68     		ldr	r3, [r3, #8]
ARM GAS  C:\Users\moham\AppData\Local\Temp\ccRDsC4I.s 			page 7


 104 002e 03F00C03 		and	r3, r3, #12
 105              		.loc 1 237 8 view .LVU18
 106 0032 042B     		cmp	r3, #4
 107 0034 36D0     		beq	.L7
 238:Drivers/STM32F4xx_HAL_Driver/Src/stm32f4xx_hal_rcc.c ****         ((__HAL_RCC_GET_SYSCLK_SOURCE() == RCC_CFGR_SWS_PLL) && ((RCC->PLLCFGR & RCC_PLLCFGR_PLLSRC
 108              		.loc 1 238 11 view .LVU19
 109 0036 7D4B     		ldr	r3, .L116
 110 0038 9B68     		ldr	r3, [r3, #8]
 111 003a 03F00C03 		and	r3, r3, #12
 237:Drivers/STM32F4xx_HAL_Driver/Src/stm32f4xx_hal_rcc.c ****         ((__HAL_RCC_GET_SYSCLK_SOURCE() == RCC_CFGR_SWS_PLL) && ((RCC->PLLCFGR & RCC_PLLCFGR_PLLSRC
 112              		.loc 1 237 61 discriminator 1 view .LVU20
 113 003e 082B     		cmp	r3, #8
 114 0040 2BD0     		beq	.L94
 115              	.L8:
 239:Drivers/STM32F4xx_HAL_Driver/Src/stm32f4xx_hal_rcc.c ****     {
 240:Drivers/STM32F4xx_HAL_Driver/Src/stm32f4xx_hal_rcc.c ****       if ((__HAL_RCC_GET_FLAG(RCC_FLAG_HSERDY) != RESET) && (RCC_OscInitStruct->HSEState == RCC_HSE
 241:Drivers/STM32F4xx_HAL_Driver/Src/stm32f4xx_hal_rcc.c ****       {
 242:Drivers/STM32F4xx_HAL_Driver/Src/stm32f4xx_hal_rcc.c ****         return HAL_ERROR;
 243:Drivers/STM32F4xx_HAL_Driver/Src/stm32f4xx_hal_rcc.c ****       }
 244:Drivers/STM32F4xx_HAL_Driver/Src/stm32f4xx_hal_rcc.c ****     }
 245:Drivers/STM32F4xx_HAL_Driver/Src/stm32f4xx_hal_rcc.c ****     else
 246:Drivers/STM32F4xx_HAL_Driver/Src/stm32f4xx_hal_rcc.c ****     {
 247:Drivers/STM32F4xx_HAL_Driver/Src/stm32f4xx_hal_rcc.c ****       /* Set the new HSE configuration ---------------------------------------*/
 248:Drivers/STM32F4xx_HAL_Driver/Src/stm32f4xx_hal_rcc.c ****       __HAL_RCC_HSE_CONFIG(RCC_OscInitStruct->HSEState);
 116              		.loc 1 248 7 is_stmt 1 view .LVU21
 117              		.loc 1 248 7 view .LVU22
 118 0042 6368     		ldr	r3, [r4, #4]
 119 0044 B3F5803F 		cmp	r3, #65536
 120 0048 5FD0     		beq	.L95
 121              		.loc 1 248 7 discriminator 2 view .LVU23
 122 004a B3F5A02F 		cmp	r3, #327680
 123 004e 62D0     		beq	.L96
 124              		.loc 1 248 7 discriminator 4 view .LVU24
 125 0050 764B     		ldr	r3, .L116
 126 0052 1A68     		ldr	r2, [r3]
 127 0054 22F48032 		bic	r2, r2, #65536
 128 0058 1A60     		str	r2, [r3]
 129              		.loc 1 248 7 view .LVU25
 130              		.loc 1 248 7 is_stmt 0 discriminator 4 view .LVU26
 131 005a 1A68     		ldr	r2, [r3]
 132 005c 22F48022 		bic	r2, r2, #262144
 133 0060 1A60     		str	r2, [r3]
 134              	.L10:
 135              		.loc 1 248 7 is_stmt 1 view .LVU27
 249:Drivers/STM32F4xx_HAL_Driver/Src/stm32f4xx_hal_rcc.c **** 
 250:Drivers/STM32F4xx_HAL_Driver/Src/stm32f4xx_hal_rcc.c ****       /* Check the HSE State */
 251:Drivers/STM32F4xx_HAL_Driver/Src/stm32f4xx_hal_rcc.c ****       if ((RCC_OscInitStruct->HSEState) != RCC_HSE_OFF)
 136              		.loc 1 251 7 view .LVU28
 137              		.loc 1 251 29 is_stmt 0 view .LVU29
 138 0062 6368     		ldr	r3, [r4, #4]
 139              		.loc 1 251 10 view .LVU30
 140 0064 002B     		cmp	r3, #0
 141 0066 60D0     		beq	.L12
 252:Drivers/STM32F4xx_HAL_Driver/Src/stm32f4xx_hal_rcc.c ****       {
 253:Drivers/STM32F4xx_HAL_Driver/Src/stm32f4xx_hal_rcc.c ****         /* Get Start Tick */
 254:Drivers/STM32F4xx_HAL_Driver/Src/stm32f4xx_hal_rcc.c ****         tickstart = HAL_GetTick();
 142              		.loc 1 254 9 is_stmt 1 view .LVU31
ARM GAS  C:\Users\moham\AppData\Local\Temp\ccRDsC4I.s 			page 8


 143              		.loc 1 254 21 is_stmt 0 view .LVU32
 144 0068 FFF7FEFF 		bl	HAL_GetTick
 145              	.LVL2:
 146 006c 0546     		mov	r5, r0
 147              	.LVL3:
 255:Drivers/STM32F4xx_HAL_Driver/Src/stm32f4xx_hal_rcc.c **** 
 256:Drivers/STM32F4xx_HAL_Driver/Src/stm32f4xx_hal_rcc.c ****         /* Wait till HSE is ready */
 257:Drivers/STM32F4xx_HAL_Driver/Src/stm32f4xx_hal_rcc.c ****         while (__HAL_RCC_GET_FLAG(RCC_FLAG_HSERDY) == RESET)
 148              		.loc 1 257 9 is_stmt 1 view .LVU33
 149              	.L13:
 150              		.loc 1 257 52 view .LVU34
 151              		.loc 1 257 16 is_stmt 0 view .LVU35
 152 006e 6F4B     		ldr	r3, .L116
 153 0070 1B68     		ldr	r3, [r3]
 154              		.loc 1 257 52 view .LVU36
 155 0072 13F4003F 		tst	r3, #131072
 156 0076 1ED1     		bne	.L5
 258:Drivers/STM32F4xx_HAL_Driver/Src/stm32f4xx_hal_rcc.c ****         {
 259:Drivers/STM32F4xx_HAL_Driver/Src/stm32f4xx_hal_rcc.c ****           if ((HAL_GetTick() - tickstart) > HSE_TIMEOUT_VALUE)
 157              		.loc 1 259 11 is_stmt 1 view .LVU37
 158              		.loc 1 259 16 is_stmt 0 view .LVU38
 159 0078 FFF7FEFF 		bl	HAL_GetTick
 160              	.LVL4:
 161              		.loc 1 259 30 discriminator 1 view .LVU39
 162 007c 401B     		subs	r0, r0, r5
 163              		.loc 1 259 14 discriminator 1 view .LVU40
 164 007e 6428     		cmp	r0, #100
 165 0080 F5D9     		bls	.L13
 260:Drivers/STM32F4xx_HAL_Driver/Src/stm32f4xx_hal_rcc.c ****           {
 261:Drivers/STM32F4xx_HAL_Driver/Src/stm32f4xx_hal_rcc.c ****             return HAL_TIMEOUT;
 166              		.loc 1 261 20 view .LVU41
 167 0082 0320     		movs	r0, #3
 168 0084 24E2     		b	.L3
 169              	.LVL5:
 170              	.L92:
 230:Drivers/STM32F4xx_HAL_Driver/Src/stm32f4xx_hal_rcc.c ****   /*------------------------------- HSE Configuration ------------------------*/
 171              		.loc 1 230 3 discriminator 1 view .LVU42
 172 0086 E621     		movs	r1, #230
 173 0088 6948     		ldr	r0, .L116+4
 174              	.LVL6:
 230:Drivers/STM32F4xx_HAL_Driver/Src/stm32f4xx_hal_rcc.c ****   /*------------------------------- HSE Configuration ------------------------*/
 175              		.loc 1 230 3 discriminator 1 view .LVU43
 176 008a FFF7FEFF 		bl	assert_failed
 177              	.LVL7:
 178 008e C0E7     		b	.L4
 179              	.L93:
 235:Drivers/STM32F4xx_HAL_Driver/Src/stm32f4xx_hal_rcc.c ****     /* When the HSE is used as system clock or clock source for PLL in these cases HSE will not dis
 180              		.loc 1 235 5 discriminator 3 view .LVU44
 181 0090 EB21     		movs	r1, #235
 182 0092 6748     		ldr	r0, .L116+4
 183 0094 FFF7FEFF 		bl	assert_failed
 184              	.LVL8:
 185 0098 C7E7     		b	.L6
 186              	.L94:
 238:Drivers/STM32F4xx_HAL_Driver/Src/stm32f4xx_hal_rcc.c ****     {
 187              		.loc 1 238 70 view .LVU45
 188 009a 644B     		ldr	r3, .L116
ARM GAS  C:\Users\moham\AppData\Local\Temp\ccRDsC4I.s 			page 9


 189 009c 5B68     		ldr	r3, [r3, #4]
 238:Drivers/STM32F4xx_HAL_Driver/Src/stm32f4xx_hal_rcc.c ****     {
 190              		.loc 1 238 62 view .LVU46
 191 009e 13F4800F 		tst	r3, #4194304
 192 00a2 CED0     		beq	.L8
 193              	.L7:
 240:Drivers/STM32F4xx_HAL_Driver/Src/stm32f4xx_hal_rcc.c ****       {
 194              		.loc 1 240 7 is_stmt 1 view .LVU47
 240:Drivers/STM32F4xx_HAL_Driver/Src/stm32f4xx_hal_rcc.c ****       {
 195              		.loc 1 240 12 is_stmt 0 view .LVU48
 196 00a4 614B     		ldr	r3, .L116
 197 00a6 1B68     		ldr	r3, [r3]
 240:Drivers/STM32F4xx_HAL_Driver/Src/stm32f4xx_hal_rcc.c ****       {
 198              		.loc 1 240 10 view .LVU49
 199 00a8 13F4003F 		tst	r3, #131072
 200 00ac 03D0     		beq	.L5
 240:Drivers/STM32F4xx_HAL_Driver/Src/stm32f4xx_hal_rcc.c ****       {
 201              		.loc 1 240 79 discriminator 1 view .LVU50
 202 00ae 6368     		ldr	r3, [r4, #4]
 240:Drivers/STM32F4xx_HAL_Driver/Src/stm32f4xx_hal_rcc.c ****       {
 203              		.loc 1 240 58 discriminator 1 view .LVU51
 204 00b0 002B     		cmp	r3, #0
 205 00b2 00F00882 		beq	.L97
 206              	.L5:
 262:Drivers/STM32F4xx_HAL_Driver/Src/stm32f4xx_hal_rcc.c ****           }
 263:Drivers/STM32F4xx_HAL_Driver/Src/stm32f4xx_hal_rcc.c ****         }
 264:Drivers/STM32F4xx_HAL_Driver/Src/stm32f4xx_hal_rcc.c ****       }
 265:Drivers/STM32F4xx_HAL_Driver/Src/stm32f4xx_hal_rcc.c ****       else
 266:Drivers/STM32F4xx_HAL_Driver/Src/stm32f4xx_hal_rcc.c ****       {
 267:Drivers/STM32F4xx_HAL_Driver/Src/stm32f4xx_hal_rcc.c ****         /* Get Start Tick */
 268:Drivers/STM32F4xx_HAL_Driver/Src/stm32f4xx_hal_rcc.c ****         tickstart = HAL_GetTick();
 269:Drivers/STM32F4xx_HAL_Driver/Src/stm32f4xx_hal_rcc.c **** 
 270:Drivers/STM32F4xx_HAL_Driver/Src/stm32f4xx_hal_rcc.c ****         /* Wait till HSE is bypassed or disabled */
 271:Drivers/STM32F4xx_HAL_Driver/Src/stm32f4xx_hal_rcc.c ****         while (__HAL_RCC_GET_FLAG(RCC_FLAG_HSERDY) != RESET)
 272:Drivers/STM32F4xx_HAL_Driver/Src/stm32f4xx_hal_rcc.c ****         {
 273:Drivers/STM32F4xx_HAL_Driver/Src/stm32f4xx_hal_rcc.c ****           if ((HAL_GetTick() - tickstart) > HSE_TIMEOUT_VALUE)
 274:Drivers/STM32F4xx_HAL_Driver/Src/stm32f4xx_hal_rcc.c ****           {
 275:Drivers/STM32F4xx_HAL_Driver/Src/stm32f4xx_hal_rcc.c ****             return HAL_TIMEOUT;
 276:Drivers/STM32F4xx_HAL_Driver/Src/stm32f4xx_hal_rcc.c ****           }
 277:Drivers/STM32F4xx_HAL_Driver/Src/stm32f4xx_hal_rcc.c ****         }
 278:Drivers/STM32F4xx_HAL_Driver/Src/stm32f4xx_hal_rcc.c ****       }
 279:Drivers/STM32F4xx_HAL_Driver/Src/stm32f4xx_hal_rcc.c ****     }
 280:Drivers/STM32F4xx_HAL_Driver/Src/stm32f4xx_hal_rcc.c ****   }
 281:Drivers/STM32F4xx_HAL_Driver/Src/stm32f4xx_hal_rcc.c ****   /*----------------------------- HSI Configuration --------------------------*/
 282:Drivers/STM32F4xx_HAL_Driver/Src/stm32f4xx_hal_rcc.c ****   if (((RCC_OscInitStruct->OscillatorType) & RCC_OSCILLATORTYPE_HSI) == RCC_OSCILLATORTYPE_HSI)
 207              		.loc 1 282 3 is_stmt 1 view .LVU52
 208              		.loc 1 282 26 is_stmt 0 view .LVU53
 209 00b6 2368     		ldr	r3, [r4]
 210              		.loc 1 282 6 view .LVU54
 211 00b8 13F0020F 		tst	r3, #2
 212 00bc 66D0     		beq	.L17
 283:Drivers/STM32F4xx_HAL_Driver/Src/stm32f4xx_hal_rcc.c ****   {
 284:Drivers/STM32F4xx_HAL_Driver/Src/stm32f4xx_hal_rcc.c ****     /* Check the parameters */
 285:Drivers/STM32F4xx_HAL_Driver/Src/stm32f4xx_hal_rcc.c ****     assert_param(IS_RCC_HSI(RCC_OscInitStruct->HSIState));
 213              		.loc 1 285 5 is_stmt 1 view .LVU55
 214 00be E368     		ldr	r3, [r4, #12]
 215 00c0 012B     		cmp	r3, #1
ARM GAS  C:\Users\moham\AppData\Local\Temp\ccRDsC4I.s 			page 10


 216 00c2 41D8     		bhi	.L98
 217              	.L18:
 286:Drivers/STM32F4xx_HAL_Driver/Src/stm32f4xx_hal_rcc.c ****     assert_param(IS_RCC_CALIBRATION_VALUE(RCC_OscInitStruct->HSICalibrationValue));
 218              		.loc 1 286 5 view .LVU56
 219 00c4 2369     		ldr	r3, [r4, #16]
 220 00c6 1F2B     		cmp	r3, #31
 221 00c8 44D8     		bhi	.L99
 222              	.L19:
 287:Drivers/STM32F4xx_HAL_Driver/Src/stm32f4xx_hal_rcc.c **** 
 288:Drivers/STM32F4xx_HAL_Driver/Src/stm32f4xx_hal_rcc.c ****     /* Check if HSI is used as system clock or as PLL source when PLL is selected as system clock *
 289:Drivers/STM32F4xx_HAL_Driver/Src/stm32f4xx_hal_rcc.c ****     if ((__HAL_RCC_GET_SYSCLK_SOURCE() == RCC_CFGR_SWS_HSI) || \
 223              		.loc 1 289 5 view .LVU57
 224              		.loc 1 289 10 is_stmt 0 view .LVU58
 225 00ca 584B     		ldr	r3, .L116
 226 00cc 9B68     		ldr	r3, [r3, #8]
 227              		.loc 1 289 8 view .LVU59
 228 00ce 13F00C0F 		tst	r3, #12
 229 00d2 4AD0     		beq	.L20
 290:Drivers/STM32F4xx_HAL_Driver/Src/stm32f4xx_hal_rcc.c ****         ((__HAL_RCC_GET_SYSCLK_SOURCE() == RCC_CFGR_SWS_PLL) && ((RCC->PLLCFGR & RCC_PLLCFGR_PLLSRC
 230              		.loc 1 290 11 view .LVU60
 231 00d4 554B     		ldr	r3, .L116
 232 00d6 9B68     		ldr	r3, [r3, #8]
 233 00d8 03F00C03 		and	r3, r3, #12
 289:Drivers/STM32F4xx_HAL_Driver/Src/stm32f4xx_hal_rcc.c ****         ((__HAL_RCC_GET_SYSCLK_SOURCE() == RCC_CFGR_SWS_PLL) && ((RCC->PLLCFGR & RCC_PLLCFGR_PLLSRC
 234              		.loc 1 289 61 discriminator 1 view .LVU61
 235 00dc 082B     		cmp	r3, #8
 236 00de 3FD0     		beq	.L100
 237              	.L21:
 291:Drivers/STM32F4xx_HAL_Driver/Src/stm32f4xx_hal_rcc.c ****     {
 292:Drivers/STM32F4xx_HAL_Driver/Src/stm32f4xx_hal_rcc.c ****       /* When HSI is used as system clock it will not disabled */
 293:Drivers/STM32F4xx_HAL_Driver/Src/stm32f4xx_hal_rcc.c ****       if ((__HAL_RCC_GET_FLAG(RCC_FLAG_HSIRDY) != RESET) && (RCC_OscInitStruct->HSIState != RCC_HSI
 294:Drivers/STM32F4xx_HAL_Driver/Src/stm32f4xx_hal_rcc.c ****       {
 295:Drivers/STM32F4xx_HAL_Driver/Src/stm32f4xx_hal_rcc.c ****         return HAL_ERROR;
 296:Drivers/STM32F4xx_HAL_Driver/Src/stm32f4xx_hal_rcc.c ****       }
 297:Drivers/STM32F4xx_HAL_Driver/Src/stm32f4xx_hal_rcc.c ****       /* Otherwise, just the calibration is allowed */
 298:Drivers/STM32F4xx_HAL_Driver/Src/stm32f4xx_hal_rcc.c ****       else
 299:Drivers/STM32F4xx_HAL_Driver/Src/stm32f4xx_hal_rcc.c ****       {
 300:Drivers/STM32F4xx_HAL_Driver/Src/stm32f4xx_hal_rcc.c ****         /* Adjusts the Internal High Speed oscillator (HSI) calibration value.*/
 301:Drivers/STM32F4xx_HAL_Driver/Src/stm32f4xx_hal_rcc.c ****         __HAL_RCC_HSI_CALIBRATIONVALUE_ADJUST(RCC_OscInitStruct->HSICalibrationValue);
 302:Drivers/STM32F4xx_HAL_Driver/Src/stm32f4xx_hal_rcc.c ****       }
 303:Drivers/STM32F4xx_HAL_Driver/Src/stm32f4xx_hal_rcc.c ****     }
 304:Drivers/STM32F4xx_HAL_Driver/Src/stm32f4xx_hal_rcc.c ****     else
 305:Drivers/STM32F4xx_HAL_Driver/Src/stm32f4xx_hal_rcc.c ****     {
 306:Drivers/STM32F4xx_HAL_Driver/Src/stm32f4xx_hal_rcc.c ****       /* Check the HSI State */
 307:Drivers/STM32F4xx_HAL_Driver/Src/stm32f4xx_hal_rcc.c ****       if ((RCC_OscInitStruct->HSIState) != RCC_HSI_OFF)
 238              		.loc 1 307 7 is_stmt 1 view .LVU62
 239              		.loc 1 307 29 is_stmt 0 view .LVU63
 240 00e0 E368     		ldr	r3, [r4, #12]
 241              		.loc 1 307 10 view .LVU64
 242 00e2 002B     		cmp	r3, #0
 243 00e4 77D0     		beq	.L23
 308:Drivers/STM32F4xx_HAL_Driver/Src/stm32f4xx_hal_rcc.c ****       {
 309:Drivers/STM32F4xx_HAL_Driver/Src/stm32f4xx_hal_rcc.c ****         /* Enable the Internal High Speed oscillator (HSI). */
 310:Drivers/STM32F4xx_HAL_Driver/Src/stm32f4xx_hal_rcc.c ****         __HAL_RCC_HSI_ENABLE();
 244              		.loc 1 310 9 is_stmt 1 view .LVU65
 245 00e6 534B     		ldr	r3, .L116+8
 246 00e8 0122     		movs	r2, #1
ARM GAS  C:\Users\moham\AppData\Local\Temp\ccRDsC4I.s 			page 11


 247 00ea 1A60     		str	r2, [r3]
 311:Drivers/STM32F4xx_HAL_Driver/Src/stm32f4xx_hal_rcc.c **** 
 312:Drivers/STM32F4xx_HAL_Driver/Src/stm32f4xx_hal_rcc.c ****         /* Get Start Tick*/
 313:Drivers/STM32F4xx_HAL_Driver/Src/stm32f4xx_hal_rcc.c ****         tickstart = HAL_GetTick();
 248              		.loc 1 313 9 view .LVU66
 249              		.loc 1 313 21 is_stmt 0 view .LVU67
 250 00ec FFF7FEFF 		bl	HAL_GetTick
 251              	.LVL9:
 252 00f0 0546     		mov	r5, r0
 253              	.LVL10:
 314:Drivers/STM32F4xx_HAL_Driver/Src/stm32f4xx_hal_rcc.c **** 
 315:Drivers/STM32F4xx_HAL_Driver/Src/stm32f4xx_hal_rcc.c ****         /* Wait till HSI is ready */
 316:Drivers/STM32F4xx_HAL_Driver/Src/stm32f4xx_hal_rcc.c ****         while (__HAL_RCC_GET_FLAG(RCC_FLAG_HSIRDY) == RESET)
 254              		.loc 1 316 9 is_stmt 1 view .LVU68
 255              	.L24:
 256              		.loc 1 316 52 view .LVU69
 257              		.loc 1 316 16 is_stmt 0 view .LVU70
 258 00f2 4E4B     		ldr	r3, .L116
 259 00f4 1B68     		ldr	r3, [r3]
 260              		.loc 1 316 52 view .LVU71
 261 00f6 13F0020F 		tst	r3, #2
 262 00fa 63D1     		bne	.L101
 317:Drivers/STM32F4xx_HAL_Driver/Src/stm32f4xx_hal_rcc.c ****         {
 318:Drivers/STM32F4xx_HAL_Driver/Src/stm32f4xx_hal_rcc.c ****           if ((HAL_GetTick() - tickstart) > HSI_TIMEOUT_VALUE)
 263              		.loc 1 318 11 is_stmt 1 view .LVU72
 264              		.loc 1 318 16 is_stmt 0 view .LVU73
 265 00fc FFF7FEFF 		bl	HAL_GetTick
 266              	.LVL11:
 267              		.loc 1 318 30 discriminator 1 view .LVU74
 268 0100 401B     		subs	r0, r0, r5
 269              		.loc 1 318 14 discriminator 1 view .LVU75
 270 0102 0228     		cmp	r0, #2
 271 0104 F5D9     		bls	.L24
 319:Drivers/STM32F4xx_HAL_Driver/Src/stm32f4xx_hal_rcc.c ****           {
 320:Drivers/STM32F4xx_HAL_Driver/Src/stm32f4xx_hal_rcc.c ****             return HAL_TIMEOUT;
 272              		.loc 1 320 20 view .LVU76
 273 0106 0320     		movs	r0, #3
 274 0108 E2E1     		b	.L3
 275              	.LVL12:
 276              	.L95:
 248:Drivers/STM32F4xx_HAL_Driver/Src/stm32f4xx_hal_rcc.c **** 
 277              		.loc 1 248 7 is_stmt 1 discriminator 1 view .LVU77
 278 010a 484A     		ldr	r2, .L116
 279 010c 1368     		ldr	r3, [r2]
 280 010e 43F48033 		orr	r3, r3, #65536
 281 0112 1360     		str	r3, [r2]
 282 0114 A5E7     		b	.L10
 283              	.L96:
 248:Drivers/STM32F4xx_HAL_Driver/Src/stm32f4xx_hal_rcc.c **** 
 284              		.loc 1 248 7 discriminator 3 view .LVU78
 285 0116 454B     		ldr	r3, .L116
 286 0118 1A68     		ldr	r2, [r3]
 287 011a 42F48022 		orr	r2, r2, #262144
 288 011e 1A60     		str	r2, [r3]
 248:Drivers/STM32F4xx_HAL_Driver/Src/stm32f4xx_hal_rcc.c **** 
 289              		.loc 1 248 7 view .LVU79
 248:Drivers/STM32F4xx_HAL_Driver/Src/stm32f4xx_hal_rcc.c **** 
ARM GAS  C:\Users\moham\AppData\Local\Temp\ccRDsC4I.s 			page 12


 290              		.loc 1 248 7 is_stmt 0 discriminator 3 view .LVU80
 291 0120 1A68     		ldr	r2, [r3]
 292 0122 42F48032 		orr	r2, r2, #65536
 293 0126 1A60     		str	r2, [r3]
 294 0128 9BE7     		b	.L10
 295              	.L12:
 268:Drivers/STM32F4xx_HAL_Driver/Src/stm32f4xx_hal_rcc.c **** 
 296              		.loc 1 268 9 is_stmt 1 view .LVU81
 268:Drivers/STM32F4xx_HAL_Driver/Src/stm32f4xx_hal_rcc.c **** 
 297              		.loc 1 268 21 is_stmt 0 view .LVU82
 298 012a FFF7FEFF 		bl	HAL_GetTick
 299              	.LVL13:
 300 012e 0546     		mov	r5, r0
 301              	.LVL14:
 271:Drivers/STM32F4xx_HAL_Driver/Src/stm32f4xx_hal_rcc.c ****         {
 302              		.loc 1 271 9 is_stmt 1 view .LVU83
 303              	.L15:
 271:Drivers/STM32F4xx_HAL_Driver/Src/stm32f4xx_hal_rcc.c ****         {
 304              		.loc 1 271 52 view .LVU84
 271:Drivers/STM32F4xx_HAL_Driver/Src/stm32f4xx_hal_rcc.c ****         {
 305              		.loc 1 271 16 is_stmt 0 view .LVU85
 306 0130 3E4B     		ldr	r3, .L116
 307 0132 1B68     		ldr	r3, [r3]
 271:Drivers/STM32F4xx_HAL_Driver/Src/stm32f4xx_hal_rcc.c ****         {
 308              		.loc 1 271 52 view .LVU86
 309 0134 13F4003F 		tst	r3, #131072
 310 0138 BDD0     		beq	.L5
 273:Drivers/STM32F4xx_HAL_Driver/Src/stm32f4xx_hal_rcc.c ****           {
 311              		.loc 1 273 11 is_stmt 1 view .LVU87
 273:Drivers/STM32F4xx_HAL_Driver/Src/stm32f4xx_hal_rcc.c ****           {
 312              		.loc 1 273 16 is_stmt 0 view .LVU88
 313 013a FFF7FEFF 		bl	HAL_GetTick
 314              	.LVL15:
 273:Drivers/STM32F4xx_HAL_Driver/Src/stm32f4xx_hal_rcc.c ****           {
 315              		.loc 1 273 30 discriminator 1 view .LVU89
 316 013e 401B     		subs	r0, r0, r5
 273:Drivers/STM32F4xx_HAL_Driver/Src/stm32f4xx_hal_rcc.c ****           {
 317              		.loc 1 273 14 discriminator 1 view .LVU90
 318 0140 6428     		cmp	r0, #100
 319 0142 F5D9     		bls	.L15
 275:Drivers/STM32F4xx_HAL_Driver/Src/stm32f4xx_hal_rcc.c ****           }
 320              		.loc 1 275 20 view .LVU91
 321 0144 0320     		movs	r0, #3
 322 0146 C3E1     		b	.L3
 323              	.LVL16:
 324              	.L98:
 285:Drivers/STM32F4xx_HAL_Driver/Src/stm32f4xx_hal_rcc.c ****     assert_param(IS_RCC_CALIBRATION_VALUE(RCC_OscInitStruct->HSICalibrationValue));
 325              		.loc 1 285 5 discriminator 1 view .LVU92
 326 0148 40F21D11 		movw	r1, #285
 327 014c 3848     		ldr	r0, .L116+4
 328 014e FFF7FEFF 		bl	assert_failed
 329              	.LVL17:
 330 0152 B7E7     		b	.L18
 331              	.L99:
 286:Drivers/STM32F4xx_HAL_Driver/Src/stm32f4xx_hal_rcc.c **** 
 332              		.loc 1 286 5 discriminator 1 view .LVU93
 333 0154 4FF48F71 		mov	r1, #286
ARM GAS  C:\Users\moham\AppData\Local\Temp\ccRDsC4I.s 			page 13


 334 0158 3548     		ldr	r0, .L116+4
 335 015a FFF7FEFF 		bl	assert_failed
 336              	.LVL18:
 337 015e B4E7     		b	.L19
 338              	.L100:
 290:Drivers/STM32F4xx_HAL_Driver/Src/stm32f4xx_hal_rcc.c ****     {
 339              		.loc 1 290 70 view .LVU94
 340 0160 324B     		ldr	r3, .L116
 341 0162 5B68     		ldr	r3, [r3, #4]
 290:Drivers/STM32F4xx_HAL_Driver/Src/stm32f4xx_hal_rcc.c ****     {
 342              		.loc 1 290 62 view .LVU95
 343 0164 13F4800F 		tst	r3, #4194304
 344 0168 BAD1     		bne	.L21
 345              	.L20:
 293:Drivers/STM32F4xx_HAL_Driver/Src/stm32f4xx_hal_rcc.c ****       {
 346              		.loc 1 293 7 is_stmt 1 view .LVU96
 293:Drivers/STM32F4xx_HAL_Driver/Src/stm32f4xx_hal_rcc.c ****       {
 347              		.loc 1 293 12 is_stmt 0 view .LVU97
 348 016a 304B     		ldr	r3, .L116
 349 016c 1B68     		ldr	r3, [r3]
 293:Drivers/STM32F4xx_HAL_Driver/Src/stm32f4xx_hal_rcc.c ****       {
 350              		.loc 1 293 10 view .LVU98
 351 016e 13F0020F 		tst	r3, #2
 352 0172 03D0     		beq	.L22
 293:Drivers/STM32F4xx_HAL_Driver/Src/stm32f4xx_hal_rcc.c ****       {
 353              		.loc 1 293 79 discriminator 1 view .LVU99
 354 0174 E368     		ldr	r3, [r4, #12]
 293:Drivers/STM32F4xx_HAL_Driver/Src/stm32f4xx_hal_rcc.c ****       {
 355              		.loc 1 293 58 discriminator 1 view .LVU100
 356 0176 012B     		cmp	r3, #1
 357 0178 40F0A781 		bne	.L69
 358              	.L22:
 301:Drivers/STM32F4xx_HAL_Driver/Src/stm32f4xx_hal_rcc.c ****       }
 359              		.loc 1 301 9 is_stmt 1 view .LVU101
 360 017c 2B4A     		ldr	r2, .L116
 361 017e 1368     		ldr	r3, [r2]
 362 0180 23F0F803 		bic	r3, r3, #248
 363 0184 2169     		ldr	r1, [r4, #16]
 364 0186 43EAC103 		orr	r3, r3, r1, lsl #3
 365 018a 1360     		str	r3, [r2]
 366              	.L17:
 321:Drivers/STM32F4xx_HAL_Driver/Src/stm32f4xx_hal_rcc.c ****           }
 322:Drivers/STM32F4xx_HAL_Driver/Src/stm32f4xx_hal_rcc.c ****         }
 323:Drivers/STM32F4xx_HAL_Driver/Src/stm32f4xx_hal_rcc.c **** 
 324:Drivers/STM32F4xx_HAL_Driver/Src/stm32f4xx_hal_rcc.c ****         /* Adjusts the Internal High Speed oscillator (HSI) calibration value. */
 325:Drivers/STM32F4xx_HAL_Driver/Src/stm32f4xx_hal_rcc.c ****         __HAL_RCC_HSI_CALIBRATIONVALUE_ADJUST(RCC_OscInitStruct->HSICalibrationValue);
 326:Drivers/STM32F4xx_HAL_Driver/Src/stm32f4xx_hal_rcc.c ****       }
 327:Drivers/STM32F4xx_HAL_Driver/Src/stm32f4xx_hal_rcc.c ****       else
 328:Drivers/STM32F4xx_HAL_Driver/Src/stm32f4xx_hal_rcc.c ****       {
 329:Drivers/STM32F4xx_HAL_Driver/Src/stm32f4xx_hal_rcc.c ****         /* Disable the Internal High Speed oscillator (HSI). */
 330:Drivers/STM32F4xx_HAL_Driver/Src/stm32f4xx_hal_rcc.c ****         __HAL_RCC_HSI_DISABLE();
 331:Drivers/STM32F4xx_HAL_Driver/Src/stm32f4xx_hal_rcc.c **** 
 332:Drivers/STM32F4xx_HAL_Driver/Src/stm32f4xx_hal_rcc.c ****         /* Get Start Tick*/
 333:Drivers/STM32F4xx_HAL_Driver/Src/stm32f4xx_hal_rcc.c ****         tickstart = HAL_GetTick();
 334:Drivers/STM32F4xx_HAL_Driver/Src/stm32f4xx_hal_rcc.c **** 
 335:Drivers/STM32F4xx_HAL_Driver/Src/stm32f4xx_hal_rcc.c ****         /* Wait till HSI is ready */
 336:Drivers/STM32F4xx_HAL_Driver/Src/stm32f4xx_hal_rcc.c ****         while (__HAL_RCC_GET_FLAG(RCC_FLAG_HSIRDY) != RESET)
ARM GAS  C:\Users\moham\AppData\Local\Temp\ccRDsC4I.s 			page 14


 337:Drivers/STM32F4xx_HAL_Driver/Src/stm32f4xx_hal_rcc.c ****         {
 338:Drivers/STM32F4xx_HAL_Driver/Src/stm32f4xx_hal_rcc.c ****           if ((HAL_GetTick() - tickstart) > HSI_TIMEOUT_VALUE)
 339:Drivers/STM32F4xx_HAL_Driver/Src/stm32f4xx_hal_rcc.c ****           {
 340:Drivers/STM32F4xx_HAL_Driver/Src/stm32f4xx_hal_rcc.c ****             return HAL_TIMEOUT;
 341:Drivers/STM32F4xx_HAL_Driver/Src/stm32f4xx_hal_rcc.c ****           }
 342:Drivers/STM32F4xx_HAL_Driver/Src/stm32f4xx_hal_rcc.c ****         }
 343:Drivers/STM32F4xx_HAL_Driver/Src/stm32f4xx_hal_rcc.c ****       }
 344:Drivers/STM32F4xx_HAL_Driver/Src/stm32f4xx_hal_rcc.c ****     }
 345:Drivers/STM32F4xx_HAL_Driver/Src/stm32f4xx_hal_rcc.c ****   }
 346:Drivers/STM32F4xx_HAL_Driver/Src/stm32f4xx_hal_rcc.c ****   /*------------------------------ LSI Configuration -------------------------*/
 347:Drivers/STM32F4xx_HAL_Driver/Src/stm32f4xx_hal_rcc.c ****   if (((RCC_OscInitStruct->OscillatorType) & RCC_OSCILLATORTYPE_LSI) == RCC_OSCILLATORTYPE_LSI)
 367              		.loc 1 347 3 view .LVU102
 368              		.loc 1 347 26 is_stmt 0 view .LVU103
 369 018c 2368     		ldr	r3, [r4]
 370              		.loc 1 347 6 view .LVU104
 371 018e 13F0080F 		tst	r3, #8
 372 0192 51D0     		beq	.L28
 348:Drivers/STM32F4xx_HAL_Driver/Src/stm32f4xx_hal_rcc.c ****   {
 349:Drivers/STM32F4xx_HAL_Driver/Src/stm32f4xx_hal_rcc.c ****     /* Check the parameters */
 350:Drivers/STM32F4xx_HAL_Driver/Src/stm32f4xx_hal_rcc.c ****     assert_param(IS_RCC_LSI(RCC_OscInitStruct->LSIState));
 373              		.loc 1 350 5 is_stmt 1 view .LVU105
 374 0194 6369     		ldr	r3, [r4, #20]
 375 0196 012B     		cmp	r3, #1
 376 0198 2FD8     		bhi	.L102
 377              	.L29:
 351:Drivers/STM32F4xx_HAL_Driver/Src/stm32f4xx_hal_rcc.c **** 
 352:Drivers/STM32F4xx_HAL_Driver/Src/stm32f4xx_hal_rcc.c ****     /* Check the LSI State */
 353:Drivers/STM32F4xx_HAL_Driver/Src/stm32f4xx_hal_rcc.c ****     if ((RCC_OscInitStruct->LSIState) != RCC_LSI_OFF)
 378              		.loc 1 353 5 view .LVU106
 379              		.loc 1 353 27 is_stmt 0 view .LVU107
 380 019a 6369     		ldr	r3, [r4, #20]
 381              		.loc 1 353 8 view .LVU108
 382 019c 9BB3     		cbz	r3, .L30
 354:Drivers/STM32F4xx_HAL_Driver/Src/stm32f4xx_hal_rcc.c ****     {
 355:Drivers/STM32F4xx_HAL_Driver/Src/stm32f4xx_hal_rcc.c ****       /* Enable the Internal Low Speed oscillator (LSI). */
 356:Drivers/STM32F4xx_HAL_Driver/Src/stm32f4xx_hal_rcc.c ****       __HAL_RCC_LSI_ENABLE();
 383              		.loc 1 356 7 is_stmt 1 view .LVU109
 384 019e 254B     		ldr	r3, .L116+8
 385 01a0 0122     		movs	r2, #1
 386 01a2 C3F8802E 		str	r2, [r3, #3712]
 357:Drivers/STM32F4xx_HAL_Driver/Src/stm32f4xx_hal_rcc.c **** 
 358:Drivers/STM32F4xx_HAL_Driver/Src/stm32f4xx_hal_rcc.c ****       /* Get Start Tick*/
 359:Drivers/STM32F4xx_HAL_Driver/Src/stm32f4xx_hal_rcc.c ****       tickstart = HAL_GetTick();
 387              		.loc 1 359 7 view .LVU110
 388              		.loc 1 359 19 is_stmt 0 view .LVU111
 389 01a6 FFF7FEFF 		bl	HAL_GetTick
 390              	.LVL19:
 391 01aa 0546     		mov	r5, r0
 392              	.LVL20:
 360:Drivers/STM32F4xx_HAL_Driver/Src/stm32f4xx_hal_rcc.c **** 
 361:Drivers/STM32F4xx_HAL_Driver/Src/stm32f4xx_hal_rcc.c ****       /* Wait till LSI is ready */
 362:Drivers/STM32F4xx_HAL_Driver/Src/stm32f4xx_hal_rcc.c ****       while (__HAL_RCC_GET_FLAG(RCC_FLAG_LSIRDY) == RESET)
 393              		.loc 1 362 7 is_stmt 1 view .LVU112
 394              	.L31:
 395              		.loc 1 362 50 view .LVU113
 396              		.loc 1 362 14 is_stmt 0 view .LVU114
 397 01ac 1F4B     		ldr	r3, .L116
ARM GAS  C:\Users\moham\AppData\Local\Temp\ccRDsC4I.s 			page 15


 398 01ae 5B6F     		ldr	r3, [r3, #116]
 399              		.loc 1 362 50 view .LVU115
 400 01b0 13F0020F 		tst	r3, #2
 401 01b4 40D1     		bne	.L28
 363:Drivers/STM32F4xx_HAL_Driver/Src/stm32f4xx_hal_rcc.c ****       {
 364:Drivers/STM32F4xx_HAL_Driver/Src/stm32f4xx_hal_rcc.c ****         if ((HAL_GetTick() - tickstart) > LSI_TIMEOUT_VALUE)
 402              		.loc 1 364 9 is_stmt 1 view .LVU116
 403              		.loc 1 364 14 is_stmt 0 view .LVU117
 404 01b6 FFF7FEFF 		bl	HAL_GetTick
 405              	.LVL21:
 406              		.loc 1 364 28 discriminator 1 view .LVU118
 407 01ba 401B     		subs	r0, r0, r5
 408              		.loc 1 364 12 discriminator 1 view .LVU119
 409 01bc 0228     		cmp	r0, #2
 410 01be F5D9     		bls	.L31
 365:Drivers/STM32F4xx_HAL_Driver/Src/stm32f4xx_hal_rcc.c ****         {
 366:Drivers/STM32F4xx_HAL_Driver/Src/stm32f4xx_hal_rcc.c ****           return HAL_TIMEOUT;
 411              		.loc 1 366 18 view .LVU120
 412 01c0 0320     		movs	r0, #3
 413 01c2 85E1     		b	.L3
 414              	.L101:
 325:Drivers/STM32F4xx_HAL_Driver/Src/stm32f4xx_hal_rcc.c ****       }
 415              		.loc 1 325 9 is_stmt 1 view .LVU121
 416 01c4 194A     		ldr	r2, .L116
 417 01c6 1368     		ldr	r3, [r2]
 418 01c8 23F0F803 		bic	r3, r3, #248
 419 01cc 2169     		ldr	r1, [r4, #16]
 420 01ce 43EAC103 		orr	r3, r3, r1, lsl #3
 421 01d2 1360     		str	r3, [r2]
 422 01d4 DAE7     		b	.L17
 423              	.LVL22:
 424              	.L23:
 330:Drivers/STM32F4xx_HAL_Driver/Src/stm32f4xx_hal_rcc.c **** 
 425              		.loc 1 330 9 view .LVU122
 426 01d6 174B     		ldr	r3, .L116+8
 427 01d8 0022     		movs	r2, #0
 428 01da 1A60     		str	r2, [r3]
 333:Drivers/STM32F4xx_HAL_Driver/Src/stm32f4xx_hal_rcc.c **** 
 429              		.loc 1 333 9 view .LVU123
 333:Drivers/STM32F4xx_HAL_Driver/Src/stm32f4xx_hal_rcc.c **** 
 430              		.loc 1 333 21 is_stmt 0 view .LVU124
 431 01dc FFF7FEFF 		bl	HAL_GetTick
 432              	.LVL23:
 433 01e0 0546     		mov	r5, r0
 434              	.LVL24:
 336:Drivers/STM32F4xx_HAL_Driver/Src/stm32f4xx_hal_rcc.c ****         {
 435              		.loc 1 336 9 is_stmt 1 view .LVU125
 436              	.L26:
 336:Drivers/STM32F4xx_HAL_Driver/Src/stm32f4xx_hal_rcc.c ****         {
 437              		.loc 1 336 52 view .LVU126
 336:Drivers/STM32F4xx_HAL_Driver/Src/stm32f4xx_hal_rcc.c ****         {
 438              		.loc 1 336 16 is_stmt 0 view .LVU127
 439 01e2 124B     		ldr	r3, .L116
 440 01e4 1B68     		ldr	r3, [r3]
 336:Drivers/STM32F4xx_HAL_Driver/Src/stm32f4xx_hal_rcc.c ****         {
 441              		.loc 1 336 52 view .LVU128
 442 01e6 13F0020F 		tst	r3, #2
ARM GAS  C:\Users\moham\AppData\Local\Temp\ccRDsC4I.s 			page 16


 443 01ea CFD0     		beq	.L17
 338:Drivers/STM32F4xx_HAL_Driver/Src/stm32f4xx_hal_rcc.c ****           {
 444              		.loc 1 338 11 is_stmt 1 view .LVU129
 338:Drivers/STM32F4xx_HAL_Driver/Src/stm32f4xx_hal_rcc.c ****           {
 445              		.loc 1 338 16 is_stmt 0 view .LVU130
 446 01ec FFF7FEFF 		bl	HAL_GetTick
 447              	.LVL25:
 338:Drivers/STM32F4xx_HAL_Driver/Src/stm32f4xx_hal_rcc.c ****           {
 448              		.loc 1 338 30 discriminator 1 view .LVU131
 449 01f0 401B     		subs	r0, r0, r5
 338:Drivers/STM32F4xx_HAL_Driver/Src/stm32f4xx_hal_rcc.c ****           {
 450              		.loc 1 338 14 discriminator 1 view .LVU132
 451 01f2 0228     		cmp	r0, #2
 452 01f4 F5D9     		bls	.L26
 340:Drivers/STM32F4xx_HAL_Driver/Src/stm32f4xx_hal_rcc.c ****           }
 453              		.loc 1 340 20 view .LVU133
 454 01f6 0320     		movs	r0, #3
 455 01f8 6AE1     		b	.L3
 456              	.LVL26:
 457              	.L102:
 350:Drivers/STM32F4xx_HAL_Driver/Src/stm32f4xx_hal_rcc.c **** 
 458              		.loc 1 350 5 discriminator 1 view .LVU134
 459 01fa 4FF4AF71 		mov	r1, #350
 460 01fe 0C48     		ldr	r0, .L116+4
 461 0200 FFF7FEFF 		bl	assert_failed
 462              	.LVL27:
 463 0204 C9E7     		b	.L29
 464              	.L30:
 367:Drivers/STM32F4xx_HAL_Driver/Src/stm32f4xx_hal_rcc.c ****         }
 368:Drivers/STM32F4xx_HAL_Driver/Src/stm32f4xx_hal_rcc.c ****       }
 369:Drivers/STM32F4xx_HAL_Driver/Src/stm32f4xx_hal_rcc.c ****     }
 370:Drivers/STM32F4xx_HAL_Driver/Src/stm32f4xx_hal_rcc.c ****     else
 371:Drivers/STM32F4xx_HAL_Driver/Src/stm32f4xx_hal_rcc.c ****     {
 372:Drivers/STM32F4xx_HAL_Driver/Src/stm32f4xx_hal_rcc.c ****       /* Disable the Internal Low Speed oscillator (LSI). */
 373:Drivers/STM32F4xx_HAL_Driver/Src/stm32f4xx_hal_rcc.c ****       __HAL_RCC_LSI_DISABLE();
 465              		.loc 1 373 7 is_stmt 1 view .LVU135
 466 0206 0B4B     		ldr	r3, .L116+8
 467 0208 0022     		movs	r2, #0
 468 020a C3F8802E 		str	r2, [r3, #3712]
 374:Drivers/STM32F4xx_HAL_Driver/Src/stm32f4xx_hal_rcc.c **** 
 375:Drivers/STM32F4xx_HAL_Driver/Src/stm32f4xx_hal_rcc.c ****       /* Get Start Tick */
 376:Drivers/STM32F4xx_HAL_Driver/Src/stm32f4xx_hal_rcc.c ****       tickstart = HAL_GetTick();
 469              		.loc 1 376 7 view .LVU136
 470              		.loc 1 376 19 is_stmt 0 view .LVU137
 471 020e FFF7FEFF 		bl	HAL_GetTick
 472              	.LVL28:
 473 0212 0546     		mov	r5, r0
 474              	.LVL29:
 377:Drivers/STM32F4xx_HAL_Driver/Src/stm32f4xx_hal_rcc.c **** 
 378:Drivers/STM32F4xx_HAL_Driver/Src/stm32f4xx_hal_rcc.c ****       /* Wait till LSI is ready */
 379:Drivers/STM32F4xx_HAL_Driver/Src/stm32f4xx_hal_rcc.c ****       while (__HAL_RCC_GET_FLAG(RCC_FLAG_LSIRDY) != RESET)
 475              		.loc 1 379 7 is_stmt 1 view .LVU138
 476              	.L33:
 477              		.loc 1 379 50 view .LVU139
 478              		.loc 1 379 14 is_stmt 0 view .LVU140
 479 0214 054B     		ldr	r3, .L116
 480 0216 5B6F     		ldr	r3, [r3, #116]
ARM GAS  C:\Users\moham\AppData\Local\Temp\ccRDsC4I.s 			page 17


 481              		.loc 1 379 50 view .LVU141
 482 0218 13F0020F 		tst	r3, #2
 483 021c 0CD0     		beq	.L28
 380:Drivers/STM32F4xx_HAL_Driver/Src/stm32f4xx_hal_rcc.c ****       {
 381:Drivers/STM32F4xx_HAL_Driver/Src/stm32f4xx_hal_rcc.c ****         if ((HAL_GetTick() - tickstart) > LSI_TIMEOUT_VALUE)
 484              		.loc 1 381 9 is_stmt 1 view .LVU142
 485              		.loc 1 381 14 is_stmt 0 view .LVU143
 486 021e FFF7FEFF 		bl	HAL_GetTick
 487              	.LVL30:
 488              		.loc 1 381 28 discriminator 1 view .LVU144
 489 0222 401B     		subs	r0, r0, r5
 490              		.loc 1 381 12 discriminator 1 view .LVU145
 491 0224 0228     		cmp	r0, #2
 492 0226 F5D9     		bls	.L33
 382:Drivers/STM32F4xx_HAL_Driver/Src/stm32f4xx_hal_rcc.c ****         {
 383:Drivers/STM32F4xx_HAL_Driver/Src/stm32f4xx_hal_rcc.c ****           return HAL_TIMEOUT;
 493              		.loc 1 383 18 view .LVU146
 494 0228 0320     		movs	r0, #3
 495 022a 51E1     		b	.L3
 496              	.L117:
 497              		.align	2
 498              	.L116:
 499 022c 00380240 		.word	1073887232
 500 0230 00000000 		.word	.LC0
 501 0234 00004742 		.word	1111949312
 502              	.LVL31:
 503              	.L28:
 384:Drivers/STM32F4xx_HAL_Driver/Src/stm32f4xx_hal_rcc.c ****         }
 385:Drivers/STM32F4xx_HAL_Driver/Src/stm32f4xx_hal_rcc.c ****       }
 386:Drivers/STM32F4xx_HAL_Driver/Src/stm32f4xx_hal_rcc.c ****     }
 387:Drivers/STM32F4xx_HAL_Driver/Src/stm32f4xx_hal_rcc.c ****   }
 388:Drivers/STM32F4xx_HAL_Driver/Src/stm32f4xx_hal_rcc.c ****   /*------------------------------ LSE Configuration -------------------------*/
 389:Drivers/STM32F4xx_HAL_Driver/Src/stm32f4xx_hal_rcc.c ****   if (((RCC_OscInitStruct->OscillatorType) & RCC_OSCILLATORTYPE_LSE) == RCC_OSCILLATORTYPE_LSE)
 504              		.loc 1 389 3 is_stmt 1 view .LVU147
 505              		.loc 1 389 26 is_stmt 0 view .LVU148
 506 0238 2368     		ldr	r3, [r4]
 507              		.loc 1 389 6 view .LVU149
 508 023a 13F0040F 		tst	r3, #4
 509 023e 7CD0     		beq	.L35
 510              	.LBB2:
 390:Drivers/STM32F4xx_HAL_Driver/Src/stm32f4xx_hal_rcc.c ****   {
 391:Drivers/STM32F4xx_HAL_Driver/Src/stm32f4xx_hal_rcc.c ****     FlagStatus       pwrclkchanged = RESET;
 511              		.loc 1 391 5 is_stmt 1 view .LVU150
 512              	.LVL32:
 392:Drivers/STM32F4xx_HAL_Driver/Src/stm32f4xx_hal_rcc.c **** 
 393:Drivers/STM32F4xx_HAL_Driver/Src/stm32f4xx_hal_rcc.c ****     /* Check the parameters */
 394:Drivers/STM32F4xx_HAL_Driver/Src/stm32f4xx_hal_rcc.c ****     assert_param(IS_RCC_LSE(RCC_OscInitStruct->LSEState));
 513              		.loc 1 394 5 view .LVU151
 514 0240 A368     		ldr	r3, [r4, #8]
 515 0242 012B     		cmp	r3, #1
 516 0244 01D9     		bls	.L36
 517              		.loc 1 394 5 is_stmt 0 discriminator 1 view .LVU152
 518 0246 052B     		cmp	r3, #5
 519 0248 38D1     		bne	.L103
 520              	.L36:
 395:Drivers/STM32F4xx_HAL_Driver/Src/stm32f4xx_hal_rcc.c **** 
 396:Drivers/STM32F4xx_HAL_Driver/Src/stm32f4xx_hal_rcc.c ****     /* Update LSE configuration in Backup Domain control register    */
ARM GAS  C:\Users\moham\AppData\Local\Temp\ccRDsC4I.s 			page 18


 397:Drivers/STM32F4xx_HAL_Driver/Src/stm32f4xx_hal_rcc.c ****     /* Requires to enable write access to Backup Domain of necessary */
 398:Drivers/STM32F4xx_HAL_Driver/Src/stm32f4xx_hal_rcc.c ****     if (__HAL_RCC_PWR_IS_CLK_DISABLED())
 521              		.loc 1 398 5 is_stmt 1 view .LVU153
 522              		.loc 1 398 9 is_stmt 0 view .LVU154
 523 024a A54B     		ldr	r3, .L118
 524 024c 1B6C     		ldr	r3, [r3, #64]
 525              		.loc 1 398 8 view .LVU155
 526 024e 13F0805F 		tst	r3, #268435456
 527 0252 39D1     		bne	.L74
 399:Drivers/STM32F4xx_HAL_Driver/Src/stm32f4xx_hal_rcc.c ****     {
 400:Drivers/STM32F4xx_HAL_Driver/Src/stm32f4xx_hal_rcc.c ****       __HAL_RCC_PWR_CLK_ENABLE();
 528              		.loc 1 400 7 is_stmt 1 view .LVU156
 529              	.LBB3:
 530              		.loc 1 400 7 view .LVU157
 531 0254 0023     		movs	r3, #0
 532 0256 0193     		str	r3, [sp, #4]
 533              		.loc 1 400 7 view .LVU158
 534 0258 A14B     		ldr	r3, .L118
 535 025a 1A6C     		ldr	r2, [r3, #64]
 536 025c 42F08052 		orr	r2, r2, #268435456
 537 0260 1A64     		str	r2, [r3, #64]
 538              		.loc 1 400 7 view .LVU159
 539 0262 1B6C     		ldr	r3, [r3, #64]
 540 0264 03F08053 		and	r3, r3, #268435456
 541 0268 0193     		str	r3, [sp, #4]
 542              		.loc 1 400 7 view .LVU160
 543 026a 019B     		ldr	r3, [sp, #4]
 544              	.LBE3:
 545              		.loc 1 400 7 view .LVU161
 401:Drivers/STM32F4xx_HAL_Driver/Src/stm32f4xx_hal_rcc.c ****       pwrclkchanged = SET;
 546              		.loc 1 401 7 view .LVU162
 547              	.LVL33:
 548              		.loc 1 401 21 is_stmt 0 view .LVU163
 549 026c 0125     		movs	r5, #1
 550              	.LVL34:
 551              	.L37:
 402:Drivers/STM32F4xx_HAL_Driver/Src/stm32f4xx_hal_rcc.c ****     }
 403:Drivers/STM32F4xx_HAL_Driver/Src/stm32f4xx_hal_rcc.c **** 
 404:Drivers/STM32F4xx_HAL_Driver/Src/stm32f4xx_hal_rcc.c ****     if (HAL_IS_BIT_CLR(PWR->CR, PWR_CR_DBP))
 552              		.loc 1 404 5 is_stmt 1 view .LVU164
 553              		.loc 1 404 9 is_stmt 0 view .LVU165
 554 026e 9D4B     		ldr	r3, .L118+4
 555 0270 1B68     		ldr	r3, [r3]
 556              		.loc 1 404 8 view .LVU166
 557 0272 13F4807F 		tst	r3, #256
 558 0276 29D0     		beq	.L104
 559              	.L38:
 405:Drivers/STM32F4xx_HAL_Driver/Src/stm32f4xx_hal_rcc.c ****     {
 406:Drivers/STM32F4xx_HAL_Driver/Src/stm32f4xx_hal_rcc.c ****       /* Enable write access to Backup domain */
 407:Drivers/STM32F4xx_HAL_Driver/Src/stm32f4xx_hal_rcc.c ****       SET_BIT(PWR->CR, PWR_CR_DBP);
 408:Drivers/STM32F4xx_HAL_Driver/Src/stm32f4xx_hal_rcc.c **** 
 409:Drivers/STM32F4xx_HAL_Driver/Src/stm32f4xx_hal_rcc.c ****       /* Wait for Backup domain Write protection disable */
 410:Drivers/STM32F4xx_HAL_Driver/Src/stm32f4xx_hal_rcc.c ****       tickstart = HAL_GetTick();
 411:Drivers/STM32F4xx_HAL_Driver/Src/stm32f4xx_hal_rcc.c **** 
 412:Drivers/STM32F4xx_HAL_Driver/Src/stm32f4xx_hal_rcc.c ****       while (HAL_IS_BIT_CLR(PWR->CR, PWR_CR_DBP))
 413:Drivers/STM32F4xx_HAL_Driver/Src/stm32f4xx_hal_rcc.c ****       {
 414:Drivers/STM32F4xx_HAL_Driver/Src/stm32f4xx_hal_rcc.c ****         if ((HAL_GetTick() - tickstart) > RCC_DBP_TIMEOUT_VALUE)
ARM GAS  C:\Users\moham\AppData\Local\Temp\ccRDsC4I.s 			page 19


 415:Drivers/STM32F4xx_HAL_Driver/Src/stm32f4xx_hal_rcc.c ****         {
 416:Drivers/STM32F4xx_HAL_Driver/Src/stm32f4xx_hal_rcc.c ****           return HAL_TIMEOUT;
 417:Drivers/STM32F4xx_HAL_Driver/Src/stm32f4xx_hal_rcc.c ****         }
 418:Drivers/STM32F4xx_HAL_Driver/Src/stm32f4xx_hal_rcc.c ****       }
 419:Drivers/STM32F4xx_HAL_Driver/Src/stm32f4xx_hal_rcc.c ****     }
 420:Drivers/STM32F4xx_HAL_Driver/Src/stm32f4xx_hal_rcc.c **** 
 421:Drivers/STM32F4xx_HAL_Driver/Src/stm32f4xx_hal_rcc.c ****     /* Set the new LSE configuration -----------------------------------------*/
 422:Drivers/STM32F4xx_HAL_Driver/Src/stm32f4xx_hal_rcc.c ****     __HAL_RCC_LSE_CONFIG(RCC_OscInitStruct->LSEState);
 560              		.loc 1 422 5 is_stmt 1 view .LVU167
 561              		.loc 1 422 5 view .LVU168
 562 0278 A368     		ldr	r3, [r4, #8]
 563 027a 012B     		cmp	r3, #1
 564 027c 3AD0     		beq	.L105
 565              		.loc 1 422 5 discriminator 2 view .LVU169
 566 027e 052B     		cmp	r3, #5
 567 0280 3ED0     		beq	.L106
 568              		.loc 1 422 5 discriminator 4 view .LVU170
 569 0282 974B     		ldr	r3, .L118
 570 0284 1A6F     		ldr	r2, [r3, #112]
 571 0286 22F00102 		bic	r2, r2, #1
 572 028a 1A67     		str	r2, [r3, #112]
 573              		.loc 1 422 5 view .LVU171
 574              		.loc 1 422 5 is_stmt 0 discriminator 4 view .LVU172
 575 028c 1A6F     		ldr	r2, [r3, #112]
 576 028e 22F00402 		bic	r2, r2, #4
 577 0292 1A67     		str	r2, [r3, #112]
 578              	.L42:
 579              		.loc 1 422 5 is_stmt 1 view .LVU173
 423:Drivers/STM32F4xx_HAL_Driver/Src/stm32f4xx_hal_rcc.c ****     /* Check the LSE State */
 424:Drivers/STM32F4xx_HAL_Driver/Src/stm32f4xx_hal_rcc.c ****     if ((RCC_OscInitStruct->LSEState) != RCC_LSE_OFF)
 580              		.loc 1 424 5 view .LVU174
 581              		.loc 1 424 27 is_stmt 0 view .LVU175
 582 0294 A368     		ldr	r3, [r4, #8]
 583              		.loc 1 424 8 view .LVU176
 584 0296 002B     		cmp	r3, #0
 585 0298 3CD0     		beq	.L44
 425:Drivers/STM32F4xx_HAL_Driver/Src/stm32f4xx_hal_rcc.c ****     {
 426:Drivers/STM32F4xx_HAL_Driver/Src/stm32f4xx_hal_rcc.c ****       /* Get Start Tick*/
 427:Drivers/STM32F4xx_HAL_Driver/Src/stm32f4xx_hal_rcc.c ****       tickstart = HAL_GetTick();
 586              		.loc 1 427 7 is_stmt 1 view .LVU177
 587              		.loc 1 427 19 is_stmt 0 view .LVU178
 588 029a FFF7FEFF 		bl	HAL_GetTick
 589              	.LVL35:
 590 029e 0646     		mov	r6, r0
 591              	.LVL36:
 428:Drivers/STM32F4xx_HAL_Driver/Src/stm32f4xx_hal_rcc.c **** 
 429:Drivers/STM32F4xx_HAL_Driver/Src/stm32f4xx_hal_rcc.c ****       /* Wait till LSE is ready */
 430:Drivers/STM32F4xx_HAL_Driver/Src/stm32f4xx_hal_rcc.c ****       while (__HAL_RCC_GET_FLAG(RCC_FLAG_LSERDY) == RESET)
 592              		.loc 1 430 7 is_stmt 1 view .LVU179
 593              	.L45:
 594              		.loc 1 430 50 view .LVU180
 595              		.loc 1 430 14 is_stmt 0 view .LVU181
 596 02a0 8F4B     		ldr	r3, .L118
 597 02a2 1B6F     		ldr	r3, [r3, #112]
 598              		.loc 1 430 50 view .LVU182
 599 02a4 13F0020F 		tst	r3, #2
 600 02a8 45D1     		bne	.L47
ARM GAS  C:\Users\moham\AppData\Local\Temp\ccRDsC4I.s 			page 20


 431:Drivers/STM32F4xx_HAL_Driver/Src/stm32f4xx_hal_rcc.c ****       {
 432:Drivers/STM32F4xx_HAL_Driver/Src/stm32f4xx_hal_rcc.c ****         if ((HAL_GetTick() - tickstart) > RCC_LSE_TIMEOUT_VALUE)
 601              		.loc 1 432 9 is_stmt 1 view .LVU183
 602              		.loc 1 432 14 is_stmt 0 view .LVU184
 603 02aa FFF7FEFF 		bl	HAL_GetTick
 604              	.LVL37:
 605              		.loc 1 432 28 discriminator 1 view .LVU185
 606 02ae 801B     		subs	r0, r0, r6
 607              		.loc 1 432 12 discriminator 1 view .LVU186
 608 02b0 41F28833 		movw	r3, #5000
 609 02b4 9842     		cmp	r0, r3
 610 02b6 F3D9     		bls	.L45
 433:Drivers/STM32F4xx_HAL_Driver/Src/stm32f4xx_hal_rcc.c ****         {
 434:Drivers/STM32F4xx_HAL_Driver/Src/stm32f4xx_hal_rcc.c ****           return HAL_TIMEOUT;
 611              		.loc 1 434 18 view .LVU187
 612 02b8 0320     		movs	r0, #3
 613 02ba 09E1     		b	.L3
 614              	.LVL38:
 615              	.L103:
 394:Drivers/STM32F4xx_HAL_Driver/Src/stm32f4xx_hal_rcc.c **** 
 616              		.loc 1 394 5 discriminator 2 view .LVU188
 617 02bc 4FF4C571 		mov	r1, #394
 618 02c0 8948     		ldr	r0, .L118+8
 619 02c2 FFF7FEFF 		bl	assert_failed
 620              	.LVL39:
 621 02c6 C0E7     		b	.L36
 622              	.L74:
 391:Drivers/STM32F4xx_HAL_Driver/Src/stm32f4xx_hal_rcc.c **** 
 623              		.loc 1 391 22 view .LVU189
 624 02c8 0025     		movs	r5, #0
 625 02ca D0E7     		b	.L37
 626              	.LVL40:
 627              	.L104:
 407:Drivers/STM32F4xx_HAL_Driver/Src/stm32f4xx_hal_rcc.c **** 
 628              		.loc 1 407 7 is_stmt 1 view .LVU190
 629 02cc 854A     		ldr	r2, .L118+4
 630 02ce 1368     		ldr	r3, [r2]
 631 02d0 43F48073 		orr	r3, r3, #256
 632 02d4 1360     		str	r3, [r2]
 410:Drivers/STM32F4xx_HAL_Driver/Src/stm32f4xx_hal_rcc.c **** 
 633              		.loc 1 410 7 view .LVU191
 410:Drivers/STM32F4xx_HAL_Driver/Src/stm32f4xx_hal_rcc.c **** 
 634              		.loc 1 410 19 is_stmt 0 view .LVU192
 635 02d6 FFF7FEFF 		bl	HAL_GetTick
 636              	.LVL41:
 637 02da 0646     		mov	r6, r0
 638              	.LVL42:
 412:Drivers/STM32F4xx_HAL_Driver/Src/stm32f4xx_hal_rcc.c ****       {
 639              		.loc 1 412 7 is_stmt 1 view .LVU193
 640              	.L39:
 412:Drivers/STM32F4xx_HAL_Driver/Src/stm32f4xx_hal_rcc.c ****       {
 641              		.loc 1 412 14 view .LVU194
 642 02dc 814B     		ldr	r3, .L118+4
 643 02de 1B68     		ldr	r3, [r3]
 644 02e0 13F4807F 		tst	r3, #256
 645 02e4 C8D1     		bne	.L38
 414:Drivers/STM32F4xx_HAL_Driver/Src/stm32f4xx_hal_rcc.c ****         {
ARM GAS  C:\Users\moham\AppData\Local\Temp\ccRDsC4I.s 			page 21


 646              		.loc 1 414 9 view .LVU195
 414:Drivers/STM32F4xx_HAL_Driver/Src/stm32f4xx_hal_rcc.c ****         {
 647              		.loc 1 414 14 is_stmt 0 view .LVU196
 648 02e6 FFF7FEFF 		bl	HAL_GetTick
 649              	.LVL43:
 414:Drivers/STM32F4xx_HAL_Driver/Src/stm32f4xx_hal_rcc.c ****         {
 650              		.loc 1 414 28 discriminator 1 view .LVU197
 651 02ea 801B     		subs	r0, r0, r6
 414:Drivers/STM32F4xx_HAL_Driver/Src/stm32f4xx_hal_rcc.c ****         {
 652              		.loc 1 414 12 discriminator 1 view .LVU198
 653 02ec 0228     		cmp	r0, #2
 654 02ee F5D9     		bls	.L39
 416:Drivers/STM32F4xx_HAL_Driver/Src/stm32f4xx_hal_rcc.c ****         }
 655              		.loc 1 416 18 view .LVU199
 656 02f0 0320     		movs	r0, #3
 657 02f2 EDE0     		b	.L3
 658              	.LVL44:
 659              	.L105:
 422:Drivers/STM32F4xx_HAL_Driver/Src/stm32f4xx_hal_rcc.c ****     /* Check the LSE State */
 660              		.loc 1 422 5 is_stmt 1 discriminator 1 view .LVU200
 661 02f4 7A4A     		ldr	r2, .L118
 662 02f6 136F     		ldr	r3, [r2, #112]
 663 02f8 43F00103 		orr	r3, r3, #1
 664 02fc 1367     		str	r3, [r2, #112]
 665 02fe C9E7     		b	.L42
 666              	.L106:
 422:Drivers/STM32F4xx_HAL_Driver/Src/stm32f4xx_hal_rcc.c ****     /* Check the LSE State */
 667              		.loc 1 422 5 discriminator 3 view .LVU201
 668 0300 774B     		ldr	r3, .L118
 669 0302 1A6F     		ldr	r2, [r3, #112]
 670 0304 42F00402 		orr	r2, r2, #4
 671 0308 1A67     		str	r2, [r3, #112]
 422:Drivers/STM32F4xx_HAL_Driver/Src/stm32f4xx_hal_rcc.c ****     /* Check the LSE State */
 672              		.loc 1 422 5 view .LVU202
 422:Drivers/STM32F4xx_HAL_Driver/Src/stm32f4xx_hal_rcc.c ****     /* Check the LSE State */
 673              		.loc 1 422 5 is_stmt 0 discriminator 3 view .LVU203
 674 030a 1A6F     		ldr	r2, [r3, #112]
 675 030c 42F00102 		orr	r2, r2, #1
 676 0310 1A67     		str	r2, [r3, #112]
 677 0312 BFE7     		b	.L42
 678              	.L44:
 435:Drivers/STM32F4xx_HAL_Driver/Src/stm32f4xx_hal_rcc.c ****         }
 436:Drivers/STM32F4xx_HAL_Driver/Src/stm32f4xx_hal_rcc.c ****       }
 437:Drivers/STM32F4xx_HAL_Driver/Src/stm32f4xx_hal_rcc.c ****     }
 438:Drivers/STM32F4xx_HAL_Driver/Src/stm32f4xx_hal_rcc.c ****     else
 439:Drivers/STM32F4xx_HAL_Driver/Src/stm32f4xx_hal_rcc.c ****     {
 440:Drivers/STM32F4xx_HAL_Driver/Src/stm32f4xx_hal_rcc.c ****       /* Get Start Tick */
 441:Drivers/STM32F4xx_HAL_Driver/Src/stm32f4xx_hal_rcc.c ****       tickstart = HAL_GetTick();
 679              		.loc 1 441 7 is_stmt 1 view .LVU204
 680              		.loc 1 441 19 is_stmt 0 view .LVU205
 681 0314 FFF7FEFF 		bl	HAL_GetTick
 682              	.LVL45:
 683 0318 0646     		mov	r6, r0
 684              	.LVL46:
 442:Drivers/STM32F4xx_HAL_Driver/Src/stm32f4xx_hal_rcc.c **** 
 443:Drivers/STM32F4xx_HAL_Driver/Src/stm32f4xx_hal_rcc.c ****       /* Wait till LSE is ready */
 444:Drivers/STM32F4xx_HAL_Driver/Src/stm32f4xx_hal_rcc.c ****       while (__HAL_RCC_GET_FLAG(RCC_FLAG_LSERDY) != RESET)
ARM GAS  C:\Users\moham\AppData\Local\Temp\ccRDsC4I.s 			page 22


 685              		.loc 1 444 7 is_stmt 1 view .LVU206
 686              	.L48:
 687              		.loc 1 444 50 view .LVU207
 688              		.loc 1 444 14 is_stmt 0 view .LVU208
 689 031a 714B     		ldr	r3, .L118
 690 031c 1B6F     		ldr	r3, [r3, #112]
 691              		.loc 1 444 50 view .LVU209
 692 031e 13F0020F 		tst	r3, #2
 693 0322 08D0     		beq	.L47
 445:Drivers/STM32F4xx_HAL_Driver/Src/stm32f4xx_hal_rcc.c ****       {
 446:Drivers/STM32F4xx_HAL_Driver/Src/stm32f4xx_hal_rcc.c ****         if ((HAL_GetTick() - tickstart) > RCC_LSE_TIMEOUT_VALUE)
 694              		.loc 1 446 9 is_stmt 1 view .LVU210
 695              		.loc 1 446 14 is_stmt 0 view .LVU211
 696 0324 FFF7FEFF 		bl	HAL_GetTick
 697              	.LVL47:
 698              		.loc 1 446 28 discriminator 1 view .LVU212
 699 0328 801B     		subs	r0, r0, r6
 700              		.loc 1 446 12 discriminator 1 view .LVU213
 701 032a 41F28833 		movw	r3, #5000
 702 032e 9842     		cmp	r0, r3
 703 0330 F3D9     		bls	.L48
 447:Drivers/STM32F4xx_HAL_Driver/Src/stm32f4xx_hal_rcc.c ****         {
 448:Drivers/STM32F4xx_HAL_Driver/Src/stm32f4xx_hal_rcc.c ****           return HAL_TIMEOUT;
 704              		.loc 1 448 18 view .LVU214
 705 0332 0320     		movs	r0, #3
 706 0334 CCE0     		b	.L3
 707              	.L47:
 449:Drivers/STM32F4xx_HAL_Driver/Src/stm32f4xx_hal_rcc.c ****         }
 450:Drivers/STM32F4xx_HAL_Driver/Src/stm32f4xx_hal_rcc.c ****       }
 451:Drivers/STM32F4xx_HAL_Driver/Src/stm32f4xx_hal_rcc.c ****     }
 452:Drivers/STM32F4xx_HAL_Driver/Src/stm32f4xx_hal_rcc.c **** 
 453:Drivers/STM32F4xx_HAL_Driver/Src/stm32f4xx_hal_rcc.c ****     /* Restore clock configuration if changed */
 454:Drivers/STM32F4xx_HAL_Driver/Src/stm32f4xx_hal_rcc.c ****     if (pwrclkchanged == SET)
 708              		.loc 1 454 5 is_stmt 1 view .LVU215
 709              		.loc 1 454 8 is_stmt 0 view .LVU216
 710 0336 002D     		cmp	r5, #0
 711 0338 3CD1     		bne	.L107
 712              	.LVL48:
 713              	.L35:
 714              		.loc 1 454 8 view .LVU217
 715              	.LBE2:
 455:Drivers/STM32F4xx_HAL_Driver/Src/stm32f4xx_hal_rcc.c ****     {
 456:Drivers/STM32F4xx_HAL_Driver/Src/stm32f4xx_hal_rcc.c ****       __HAL_RCC_PWR_CLK_DISABLE();
 457:Drivers/STM32F4xx_HAL_Driver/Src/stm32f4xx_hal_rcc.c ****     }
 458:Drivers/STM32F4xx_HAL_Driver/Src/stm32f4xx_hal_rcc.c ****   }
 459:Drivers/STM32F4xx_HAL_Driver/Src/stm32f4xx_hal_rcc.c ****   /*-------------------------------- PLL Configuration -----------------------*/
 460:Drivers/STM32F4xx_HAL_Driver/Src/stm32f4xx_hal_rcc.c ****   /* Check the parameters */
 461:Drivers/STM32F4xx_HAL_Driver/Src/stm32f4xx_hal_rcc.c ****   assert_param(IS_RCC_PLL(RCC_OscInitStruct->PLL.PLLState));
 716              		.loc 1 461 3 is_stmt 1 view .LVU218
 717 033a A369     		ldr	r3, [r4, #24]
 718 033c 022B     		cmp	r3, #2
 719 033e 3FD8     		bhi	.L108
 720              	.L50:
 462:Drivers/STM32F4xx_HAL_Driver/Src/stm32f4xx_hal_rcc.c ****   if ((RCC_OscInitStruct->PLL.PLLState) != RCC_PLL_NONE)
 721              		.loc 1 462 3 view .LVU219
 722              		.loc 1 462 30 is_stmt 0 view .LVU220
 723 0340 A369     		ldr	r3, [r4, #24]
ARM GAS  C:\Users\moham\AppData\Local\Temp\ccRDsC4I.s 			page 23


 724              		.loc 1 462 6 view .LVU221
 725 0342 002B     		cmp	r3, #0
 726 0344 00F0C380 		beq	.L78
 463:Drivers/STM32F4xx_HAL_Driver/Src/stm32f4xx_hal_rcc.c ****   {
 464:Drivers/STM32F4xx_HAL_Driver/Src/stm32f4xx_hal_rcc.c ****     /* Check if the PLL is used as system clock or not */
 465:Drivers/STM32F4xx_HAL_Driver/Src/stm32f4xx_hal_rcc.c ****     if (__HAL_RCC_GET_SYSCLK_SOURCE() != RCC_CFGR_SWS_PLL)
 727              		.loc 1 465 5 is_stmt 1 view .LVU222
 728              		.loc 1 465 9 is_stmt 0 view .LVU223
 729 0348 654A     		ldr	r2, .L118
 730 034a 9268     		ldr	r2, [r2, #8]
 731 034c 02F00C02 		and	r2, r2, #12
 732              		.loc 1 465 8 view .LVU224
 733 0350 082A     		cmp	r2, #8
 734 0352 00F09180 		beq	.L51
 466:Drivers/STM32F4xx_HAL_Driver/Src/stm32f4xx_hal_rcc.c ****     {
 467:Drivers/STM32F4xx_HAL_Driver/Src/stm32f4xx_hal_rcc.c ****       if ((RCC_OscInitStruct->PLL.PLLState) == RCC_PLL_ON)
 735              		.loc 1 467 7 is_stmt 1 view .LVU225
 736              		.loc 1 467 10 is_stmt 0 view .LVU226
 737 0356 022B     		cmp	r3, #2
 738 0358 7AD1     		bne	.L52
 468:Drivers/STM32F4xx_HAL_Driver/Src/stm32f4xx_hal_rcc.c ****       {
 469:Drivers/STM32F4xx_HAL_Driver/Src/stm32f4xx_hal_rcc.c ****         /* Check the parameters */
 470:Drivers/STM32F4xx_HAL_Driver/Src/stm32f4xx_hal_rcc.c ****         assert_param(IS_RCC_PLLSOURCE(RCC_OscInitStruct->PLL.PLLSource));
 739              		.loc 1 470 9 is_stmt 1 view .LVU227
 740 035a E369     		ldr	r3, [r4, #28]
 741 035c 13B1     		cbz	r3, .L53
 742              		.loc 1 470 9 is_stmt 0 discriminator 1 view .LVU228
 743 035e B3F5800F 		cmp	r3, #4194304
 744 0362 33D1     		bne	.L109
 745              	.L53:
 471:Drivers/STM32F4xx_HAL_Driver/Src/stm32f4xx_hal_rcc.c ****         assert_param(IS_RCC_PLLM_VALUE(RCC_OscInitStruct->PLL.PLLM));
 746              		.loc 1 471 9 is_stmt 1 view .LVU229
 747 0364 236A     		ldr	r3, [r4, #32]
 748 0366 023B     		subs	r3, r3, #2
 749 0368 3D2B     		cmp	r3, #61
 750 036a 35D8     		bhi	.L110
 751              	.L54:
 472:Drivers/STM32F4xx_HAL_Driver/Src/stm32f4xx_hal_rcc.c ****         assert_param(IS_RCC_PLLN_VALUE(RCC_OscInitStruct->PLL.PLLN));
 752              		.loc 1 472 9 view .LVU230
 753 036c 636A     		ldr	r3, [r4, #36]
 754 036e 323B     		subs	r3, r3, #50
 755 0370 B3F5BF7F 		cmp	r3, #382
 756 0374 36D8     		bhi	.L111
 757              	.L55:
 473:Drivers/STM32F4xx_HAL_Driver/Src/stm32f4xx_hal_rcc.c ****         assert_param(IS_RCC_PLLP_VALUE(RCC_OscInitStruct->PLL.PLLP));
 758              		.loc 1 473 9 view .LVU231
 759 0376 A26A     		ldr	r2, [r4, #40]
 760 0378 082A     		cmp	r2, #8
 761 037a 39D8     		bhi	.L56
 762 037c 4FF4AA73 		mov	r3, #340
 763 0380 D340     		lsrs	r3, r3, r2
 764 0382 13F0010F 		tst	r3, #1
 765 0386 33D0     		beq	.L56
 766              	.L57:
 474:Drivers/STM32F4xx_HAL_Driver/Src/stm32f4xx_hal_rcc.c ****         assert_param(IS_RCC_PLLQ_VALUE(RCC_OscInitStruct->PLL.PLLQ));
 767              		.loc 1 474 9 view .LVU232
 768 0388 E36A     		ldr	r3, [r4, #44]
ARM GAS  C:\Users\moham\AppData\Local\Temp\ccRDsC4I.s 			page 24


 769 038a 023B     		subs	r3, r3, #2
 770 038c 0D2B     		cmp	r3, #13
 771 038e 35D8     		bhi	.L112
 772              	.L58:
 475:Drivers/STM32F4xx_HAL_Driver/Src/stm32f4xx_hal_rcc.c **** 
 476:Drivers/STM32F4xx_HAL_Driver/Src/stm32f4xx_hal_rcc.c ****         /* Disable the main PLL. */
 477:Drivers/STM32F4xx_HAL_Driver/Src/stm32f4xx_hal_rcc.c ****         __HAL_RCC_PLL_DISABLE();
 773              		.loc 1 477 9 view .LVU233
 774 0390 564B     		ldr	r3, .L118+12
 775 0392 0022     		movs	r2, #0
 776 0394 1A66     		str	r2, [r3, #96]
 478:Drivers/STM32F4xx_HAL_Driver/Src/stm32f4xx_hal_rcc.c **** 
 479:Drivers/STM32F4xx_HAL_Driver/Src/stm32f4xx_hal_rcc.c ****         /* Get Start Tick */
 480:Drivers/STM32F4xx_HAL_Driver/Src/stm32f4xx_hal_rcc.c ****         tickstart = HAL_GetTick();
 777              		.loc 1 480 9 view .LVU234
 778              		.loc 1 480 21 is_stmt 0 view .LVU235
 779 0396 FFF7FEFF 		bl	HAL_GetTick
 780              	.LVL49:
 781 039a 0546     		mov	r5, r0
 782              	.LVL50:
 481:Drivers/STM32F4xx_HAL_Driver/Src/stm32f4xx_hal_rcc.c **** 
 482:Drivers/STM32F4xx_HAL_Driver/Src/stm32f4xx_hal_rcc.c ****         /* Wait till PLL is disabled */
 483:Drivers/STM32F4xx_HAL_Driver/Src/stm32f4xx_hal_rcc.c ****         while (__HAL_RCC_GET_FLAG(RCC_FLAG_PLLRDY) != RESET)
 783              		.loc 1 483 9 is_stmt 1 view .LVU236
 784              	.L59:
 785              		.loc 1 483 52 view .LVU237
 786              		.loc 1 483 16 is_stmt 0 view .LVU238
 787 039c 504B     		ldr	r3, .L118
 788 039e 1B68     		ldr	r3, [r3]
 789              		.loc 1 483 52 view .LVU239
 790 03a0 13F0007F 		tst	r3, #33554432
 791 03a4 30D0     		beq	.L113
 484:Drivers/STM32F4xx_HAL_Driver/Src/stm32f4xx_hal_rcc.c ****         {
 485:Drivers/STM32F4xx_HAL_Driver/Src/stm32f4xx_hal_rcc.c ****           if ((HAL_GetTick() - tickstart) > PLL_TIMEOUT_VALUE)
 792              		.loc 1 485 11 is_stmt 1 view .LVU240
 793              		.loc 1 485 16 is_stmt 0 view .LVU241
 794 03a6 FFF7FEFF 		bl	HAL_GetTick
 795              	.LVL51:
 796              		.loc 1 485 30 discriminator 1 view .LVU242
 797 03aa 401B     		subs	r0, r0, r5
 798              		.loc 1 485 14 discriminator 1 view .LVU243
 799 03ac 0228     		cmp	r0, #2
 800 03ae F5D9     		bls	.L59
 486:Drivers/STM32F4xx_HAL_Driver/Src/stm32f4xx_hal_rcc.c ****           {
 487:Drivers/STM32F4xx_HAL_Driver/Src/stm32f4xx_hal_rcc.c ****             return HAL_TIMEOUT;
 801              		.loc 1 487 20 view .LVU244
 802 03b0 0320     		movs	r0, #3
 803 03b2 8DE0     		b	.L3
 804              	.LVL52:
 805              	.L107:
 806              	.LBB4:
 456:Drivers/STM32F4xx_HAL_Driver/Src/stm32f4xx_hal_rcc.c ****     }
 807              		.loc 1 456 7 is_stmt 1 view .LVU245
 808 03b4 4A4A     		ldr	r2, .L118
 809 03b6 136C     		ldr	r3, [r2, #64]
 810 03b8 23F08053 		bic	r3, r3, #268435456
 811 03bc 1364     		str	r3, [r2, #64]
ARM GAS  C:\Users\moham\AppData\Local\Temp\ccRDsC4I.s 			page 25


 812 03be BCE7     		b	.L35
 813              	.LVL53:
 814              	.L108:
 456:Drivers/STM32F4xx_HAL_Driver/Src/stm32f4xx_hal_rcc.c ****     }
 815              		.loc 1 456 7 is_stmt 0 view .LVU246
 816              	.LBE4:
 461:Drivers/STM32F4xx_HAL_Driver/Src/stm32f4xx_hal_rcc.c ****   if ((RCC_OscInitStruct->PLL.PLLState) != RCC_PLL_NONE)
 817              		.loc 1 461 3 discriminator 1 view .LVU247
 818 03c0 40F2CD11 		movw	r1, #461
 819 03c4 4848     		ldr	r0, .L118+8
 820 03c6 FFF7FEFF 		bl	assert_failed
 821              	.LVL54:
 822 03ca B9E7     		b	.L50
 823              	.L109:
 470:Drivers/STM32F4xx_HAL_Driver/Src/stm32f4xx_hal_rcc.c ****         assert_param(IS_RCC_PLLM_VALUE(RCC_OscInitStruct->PLL.PLLM));
 824              		.loc 1 470 9 discriminator 2 view .LVU248
 825 03cc 4FF4EB71 		mov	r1, #470
 826 03d0 4548     		ldr	r0, .L118+8
 827 03d2 FFF7FEFF 		bl	assert_failed
 828              	.LVL55:
 829 03d6 C5E7     		b	.L53
 830              	.L110:
 471:Drivers/STM32F4xx_HAL_Driver/Src/stm32f4xx_hal_rcc.c ****         assert_param(IS_RCC_PLLN_VALUE(RCC_OscInitStruct->PLL.PLLN));
 831              		.loc 1 471 9 discriminator 1 view .LVU249
 832 03d8 40F2D711 		movw	r1, #471
 833 03dc 4248     		ldr	r0, .L118+8
 834 03de FFF7FEFF 		bl	assert_failed
 835              	.LVL56:
 836 03e2 C3E7     		b	.L54
 837              	.L111:
 472:Drivers/STM32F4xx_HAL_Driver/Src/stm32f4xx_hal_rcc.c ****         assert_param(IS_RCC_PLLP_VALUE(RCC_OscInitStruct->PLL.PLLP));
 838              		.loc 1 472 9 discriminator 1 view .LVU250
 839 03e4 4FF4EC71 		mov	r1, #472
 840 03e8 3F48     		ldr	r0, .L118+8
 841 03ea FFF7FEFF 		bl	assert_failed
 842              	.LVL57:
 843 03ee C2E7     		b	.L55
 844              	.L56:
 473:Drivers/STM32F4xx_HAL_Driver/Src/stm32f4xx_hal_rcc.c ****         assert_param(IS_RCC_PLLQ_VALUE(RCC_OscInitStruct->PLL.PLLQ));
 845              		.loc 1 473 9 discriminator 4 view .LVU251
 846 03f0 40F2D911 		movw	r1, #473
 847 03f4 3C48     		ldr	r0, .L118+8
 848 03f6 FFF7FEFF 		bl	assert_failed
 849              	.LVL58:
 850 03fa C5E7     		b	.L57
 851              	.L112:
 474:Drivers/STM32F4xx_HAL_Driver/Src/stm32f4xx_hal_rcc.c **** 
 852              		.loc 1 474 9 discriminator 1 view .LVU252
 853 03fc 4FF4ED71 		mov	r1, #474
 854 0400 3948     		ldr	r0, .L118+8
 855 0402 FFF7FEFF 		bl	assert_failed
 856              	.LVL59:
 857 0406 C3E7     		b	.L58
 858              	.LVL60:
 859              	.L113:
 488:Drivers/STM32F4xx_HAL_Driver/Src/stm32f4xx_hal_rcc.c ****           }
 489:Drivers/STM32F4xx_HAL_Driver/Src/stm32f4xx_hal_rcc.c ****         }
ARM GAS  C:\Users\moham\AppData\Local\Temp\ccRDsC4I.s 			page 26


 490:Drivers/STM32F4xx_HAL_Driver/Src/stm32f4xx_hal_rcc.c **** 
 491:Drivers/STM32F4xx_HAL_Driver/Src/stm32f4xx_hal_rcc.c ****         /* Configure the main PLL clock source, multiplication and division factors. */
 492:Drivers/STM32F4xx_HAL_Driver/Src/stm32f4xx_hal_rcc.c ****         WRITE_REG(RCC->PLLCFGR, (RCC_OscInitStruct->PLL.PLLSource                                  
 860              		.loc 1 492 9 is_stmt 1 view .LVU253
 861 0408 E369     		ldr	r3, [r4, #28]
 862 040a 226A     		ldr	r2, [r4, #32]
 863 040c 1343     		orrs	r3, r3, r2
 864 040e 626A     		ldr	r2, [r4, #36]
 865 0410 43EA8213 		orr	r3, r3, r2, lsl #6
 866 0414 A26A     		ldr	r2, [r4, #40]
 867 0416 5208     		lsrs	r2, r2, #1
 868 0418 013A     		subs	r2, r2, #1
 869 041a 43EA0243 		orr	r3, r3, r2, lsl #16
 870 041e E26A     		ldr	r2, [r4, #44]
 871 0420 43EA0263 		orr	r3, r3, r2, lsl #24
 872 0424 2E4A     		ldr	r2, .L118
 873 0426 5360     		str	r3, [r2, #4]
 493:Drivers/STM32F4xx_HAL_Driver/Src/stm32f4xx_hal_rcc.c ****                                  RCC_OscInitStruct->PLL.PLLM                                       
 494:Drivers/STM32F4xx_HAL_Driver/Src/stm32f4xx_hal_rcc.c ****                                  (RCC_OscInitStruct->PLL.PLLN << RCC_PLLCFGR_PLLN_Pos)             
 495:Drivers/STM32F4xx_HAL_Driver/Src/stm32f4xx_hal_rcc.c ****                                  (((RCC_OscInitStruct->PLL.PLLP >> 1U) - 1U) << RCC_PLLCFGR_PLLP_Po
 496:Drivers/STM32F4xx_HAL_Driver/Src/stm32f4xx_hal_rcc.c ****                                  (RCC_OscInitStruct->PLL.PLLQ << RCC_PLLCFGR_PLLQ_Pos)));
 497:Drivers/STM32F4xx_HAL_Driver/Src/stm32f4xx_hal_rcc.c ****         /* Enable the main PLL. */
 498:Drivers/STM32F4xx_HAL_Driver/Src/stm32f4xx_hal_rcc.c ****         __HAL_RCC_PLL_ENABLE();
 874              		.loc 1 498 9 view .LVU254
 875 0428 304B     		ldr	r3, .L118+12
 876 042a 0122     		movs	r2, #1
 877 042c 1A66     		str	r2, [r3, #96]
 499:Drivers/STM32F4xx_HAL_Driver/Src/stm32f4xx_hal_rcc.c **** 
 500:Drivers/STM32F4xx_HAL_Driver/Src/stm32f4xx_hal_rcc.c ****         /* Get Start Tick */
 501:Drivers/STM32F4xx_HAL_Driver/Src/stm32f4xx_hal_rcc.c ****         tickstart = HAL_GetTick();
 878              		.loc 1 501 9 view .LVU255
 879              		.loc 1 501 21 is_stmt 0 view .LVU256
 880 042e FFF7FEFF 		bl	HAL_GetTick
 881              	.LVL61:
 882 0432 0446     		mov	r4, r0
 883              	.LVL62:
 502:Drivers/STM32F4xx_HAL_Driver/Src/stm32f4xx_hal_rcc.c **** 
 503:Drivers/STM32F4xx_HAL_Driver/Src/stm32f4xx_hal_rcc.c ****         /* Wait till PLL is ready */
 504:Drivers/STM32F4xx_HAL_Driver/Src/stm32f4xx_hal_rcc.c ****         while (__HAL_RCC_GET_FLAG(RCC_FLAG_PLLRDY) == RESET)
 884              		.loc 1 504 9 is_stmt 1 view .LVU257
 885              	.L61:
 886              		.loc 1 504 52 view .LVU258
 887              		.loc 1 504 16 is_stmt 0 view .LVU259
 888 0434 2A4B     		ldr	r3, .L118
 889 0436 1B68     		ldr	r3, [r3]
 890              		.loc 1 504 52 view .LVU260
 891 0438 13F0007F 		tst	r3, #33554432
 892 043c 06D1     		bne	.L114
 505:Drivers/STM32F4xx_HAL_Driver/Src/stm32f4xx_hal_rcc.c ****         {
 506:Drivers/STM32F4xx_HAL_Driver/Src/stm32f4xx_hal_rcc.c ****           if ((HAL_GetTick() - tickstart) > PLL_TIMEOUT_VALUE)
 893              		.loc 1 506 11 is_stmt 1 view .LVU261
 894              		.loc 1 506 16 is_stmt 0 view .LVU262
 895 043e FFF7FEFF 		bl	HAL_GetTick
 896              	.LVL63:
 897              		.loc 1 506 30 discriminator 1 view .LVU263
 898 0442 001B     		subs	r0, r0, r4
 899              		.loc 1 506 14 discriminator 1 view .LVU264
ARM GAS  C:\Users\moham\AppData\Local\Temp\ccRDsC4I.s 			page 27


 900 0444 0228     		cmp	r0, #2
 901 0446 F5D9     		bls	.L61
 507:Drivers/STM32F4xx_HAL_Driver/Src/stm32f4xx_hal_rcc.c ****           {
 508:Drivers/STM32F4xx_HAL_Driver/Src/stm32f4xx_hal_rcc.c ****             return HAL_TIMEOUT;
 902              		.loc 1 508 20 view .LVU265
 903 0448 0320     		movs	r0, #3
 904 044a 41E0     		b	.L3
 905              	.L114:
 509:Drivers/STM32F4xx_HAL_Driver/Src/stm32f4xx_hal_rcc.c ****           }
 510:Drivers/STM32F4xx_HAL_Driver/Src/stm32f4xx_hal_rcc.c ****         }
 511:Drivers/STM32F4xx_HAL_Driver/Src/stm32f4xx_hal_rcc.c ****       }
 512:Drivers/STM32F4xx_HAL_Driver/Src/stm32f4xx_hal_rcc.c ****       else
 513:Drivers/STM32F4xx_HAL_Driver/Src/stm32f4xx_hal_rcc.c ****       {
 514:Drivers/STM32F4xx_HAL_Driver/Src/stm32f4xx_hal_rcc.c ****         /* Disable the main PLL. */
 515:Drivers/STM32F4xx_HAL_Driver/Src/stm32f4xx_hal_rcc.c ****         __HAL_RCC_PLL_DISABLE();
 516:Drivers/STM32F4xx_HAL_Driver/Src/stm32f4xx_hal_rcc.c **** 
 517:Drivers/STM32F4xx_HAL_Driver/Src/stm32f4xx_hal_rcc.c ****         /* Get Start Tick */
 518:Drivers/STM32F4xx_HAL_Driver/Src/stm32f4xx_hal_rcc.c ****         tickstart = HAL_GetTick();
 519:Drivers/STM32F4xx_HAL_Driver/Src/stm32f4xx_hal_rcc.c **** 
 520:Drivers/STM32F4xx_HAL_Driver/Src/stm32f4xx_hal_rcc.c ****         /* Wait till PLL is disabled */
 521:Drivers/STM32F4xx_HAL_Driver/Src/stm32f4xx_hal_rcc.c ****         while (__HAL_RCC_GET_FLAG(RCC_FLAG_PLLRDY) != RESET)
 522:Drivers/STM32F4xx_HAL_Driver/Src/stm32f4xx_hal_rcc.c ****         {
 523:Drivers/STM32F4xx_HAL_Driver/Src/stm32f4xx_hal_rcc.c ****           if ((HAL_GetTick() - tickstart) > PLL_TIMEOUT_VALUE)
 524:Drivers/STM32F4xx_HAL_Driver/Src/stm32f4xx_hal_rcc.c ****           {
 525:Drivers/STM32F4xx_HAL_Driver/Src/stm32f4xx_hal_rcc.c ****             return HAL_TIMEOUT;
 526:Drivers/STM32F4xx_HAL_Driver/Src/stm32f4xx_hal_rcc.c ****           }
 527:Drivers/STM32F4xx_HAL_Driver/Src/stm32f4xx_hal_rcc.c ****         }
 528:Drivers/STM32F4xx_HAL_Driver/Src/stm32f4xx_hal_rcc.c ****       }
 529:Drivers/STM32F4xx_HAL_Driver/Src/stm32f4xx_hal_rcc.c ****     }
 530:Drivers/STM32F4xx_HAL_Driver/Src/stm32f4xx_hal_rcc.c ****     else
 531:Drivers/STM32F4xx_HAL_Driver/Src/stm32f4xx_hal_rcc.c ****     {
 532:Drivers/STM32F4xx_HAL_Driver/Src/stm32f4xx_hal_rcc.c ****       /* Check if there is a request to disable the PLL used as System clock source */
 533:Drivers/STM32F4xx_HAL_Driver/Src/stm32f4xx_hal_rcc.c ****       if ((RCC_OscInitStruct->PLL.PLLState) == RCC_PLL_OFF)
 534:Drivers/STM32F4xx_HAL_Driver/Src/stm32f4xx_hal_rcc.c ****       {
 535:Drivers/STM32F4xx_HAL_Driver/Src/stm32f4xx_hal_rcc.c ****         return HAL_ERROR;
 536:Drivers/STM32F4xx_HAL_Driver/Src/stm32f4xx_hal_rcc.c ****       }
 537:Drivers/STM32F4xx_HAL_Driver/Src/stm32f4xx_hal_rcc.c ****       else
 538:Drivers/STM32F4xx_HAL_Driver/Src/stm32f4xx_hal_rcc.c ****       {
 539:Drivers/STM32F4xx_HAL_Driver/Src/stm32f4xx_hal_rcc.c ****         /* Do not return HAL_ERROR if request repeats the current configuration */
 540:Drivers/STM32F4xx_HAL_Driver/Src/stm32f4xx_hal_rcc.c ****         pll_config = RCC->PLLCFGR;
 541:Drivers/STM32F4xx_HAL_Driver/Src/stm32f4xx_hal_rcc.c **** #if defined (RCC_PLLCFGR_PLLR)
 542:Drivers/STM32F4xx_HAL_Driver/Src/stm32f4xx_hal_rcc.c ****         if (((RCC_OscInitStruct->PLL.PLLState) == RCC_PLL_OFF) ||
 543:Drivers/STM32F4xx_HAL_Driver/Src/stm32f4xx_hal_rcc.c ****             (READ_BIT(pll_config, RCC_PLLCFGR_PLLSRC) != RCC_OscInitStruct->PLL.PLLSource) ||
 544:Drivers/STM32F4xx_HAL_Driver/Src/stm32f4xx_hal_rcc.c ****             (READ_BIT(pll_config, RCC_PLLCFGR_PLLM) != (RCC_OscInitStruct->PLL.PLLM) << RCC_PLLCFGR
 545:Drivers/STM32F4xx_HAL_Driver/Src/stm32f4xx_hal_rcc.c ****             (READ_BIT(pll_config, RCC_PLLCFGR_PLLN) != (RCC_OscInitStruct->PLL.PLLN) << RCC_PLLCFGR
 546:Drivers/STM32F4xx_HAL_Driver/Src/stm32f4xx_hal_rcc.c ****             (READ_BIT(pll_config, RCC_PLLCFGR_PLLP) != (((RCC_OscInitStruct->PLL.PLLP >> 1U) - 1U))
 547:Drivers/STM32F4xx_HAL_Driver/Src/stm32f4xx_hal_rcc.c ****             (READ_BIT(pll_config, RCC_PLLCFGR_PLLQ) != (RCC_OscInitStruct->PLL.PLLQ << RCC_PLLCFGR_
 548:Drivers/STM32F4xx_HAL_Driver/Src/stm32f4xx_hal_rcc.c ****             (READ_BIT(pll_config, RCC_PLLCFGR_PLLR) != (RCC_OscInitStruct->PLL.PLLR << RCC_PLLCFGR_
 549:Drivers/STM32F4xx_HAL_Driver/Src/stm32f4xx_hal_rcc.c **** #else
 550:Drivers/STM32F4xx_HAL_Driver/Src/stm32f4xx_hal_rcc.c ****         if (((RCC_OscInitStruct->PLL.PLLState) == RCC_PLL_OFF) ||
 551:Drivers/STM32F4xx_HAL_Driver/Src/stm32f4xx_hal_rcc.c ****             (READ_BIT(pll_config, RCC_PLLCFGR_PLLSRC) != RCC_OscInitStruct->PLL.PLLSource) ||
 552:Drivers/STM32F4xx_HAL_Driver/Src/stm32f4xx_hal_rcc.c ****             (READ_BIT(pll_config, RCC_PLLCFGR_PLLM) != (RCC_OscInitStruct->PLL.PLLM) << RCC_PLLCFGR
 553:Drivers/STM32F4xx_HAL_Driver/Src/stm32f4xx_hal_rcc.c ****             (READ_BIT(pll_config, RCC_PLLCFGR_PLLN) != (RCC_OscInitStruct->PLL.PLLN) << RCC_PLLCFGR
 554:Drivers/STM32F4xx_HAL_Driver/Src/stm32f4xx_hal_rcc.c ****             (READ_BIT(pll_config, RCC_PLLCFGR_PLLP) != (((RCC_OscInitStruct->PLL.PLLP >> 1U) - 1U))
 555:Drivers/STM32F4xx_HAL_Driver/Src/stm32f4xx_hal_rcc.c ****             (READ_BIT(pll_config, RCC_PLLCFGR_PLLQ) != (RCC_OscInitStruct->PLL.PLLQ << RCC_PLLCFGR_
 556:Drivers/STM32F4xx_HAL_Driver/Src/stm32f4xx_hal_rcc.c **** #endif /* RCC_PLLCFGR_PLLR */
 557:Drivers/STM32F4xx_HAL_Driver/Src/stm32f4xx_hal_rcc.c ****         {
ARM GAS  C:\Users\moham\AppData\Local\Temp\ccRDsC4I.s 			page 28


 558:Drivers/STM32F4xx_HAL_Driver/Src/stm32f4xx_hal_rcc.c ****           return HAL_ERROR;
 559:Drivers/STM32F4xx_HAL_Driver/Src/stm32f4xx_hal_rcc.c ****         }
 560:Drivers/STM32F4xx_HAL_Driver/Src/stm32f4xx_hal_rcc.c ****       }
 561:Drivers/STM32F4xx_HAL_Driver/Src/stm32f4xx_hal_rcc.c ****     }
 562:Drivers/STM32F4xx_HAL_Driver/Src/stm32f4xx_hal_rcc.c ****   }
 563:Drivers/STM32F4xx_HAL_Driver/Src/stm32f4xx_hal_rcc.c ****   return HAL_OK;
 906              		.loc 1 563 10 view .LVU266
 907 044c 0020     		movs	r0, #0
 908 044e 3FE0     		b	.L3
 909              	.LVL64:
 910              	.L52:
 515:Drivers/STM32F4xx_HAL_Driver/Src/stm32f4xx_hal_rcc.c **** 
 911              		.loc 1 515 9 is_stmt 1 view .LVU267
 912 0450 264B     		ldr	r3, .L118+12
 913 0452 0022     		movs	r2, #0
 914 0454 1A66     		str	r2, [r3, #96]
 518:Drivers/STM32F4xx_HAL_Driver/Src/stm32f4xx_hal_rcc.c **** 
 915              		.loc 1 518 9 view .LVU268
 518:Drivers/STM32F4xx_HAL_Driver/Src/stm32f4xx_hal_rcc.c **** 
 916              		.loc 1 518 21 is_stmt 0 view .LVU269
 917 0456 FFF7FEFF 		bl	HAL_GetTick
 918              	.LVL65:
 919 045a 0446     		mov	r4, r0
 920              	.LVL66:
 521:Drivers/STM32F4xx_HAL_Driver/Src/stm32f4xx_hal_rcc.c ****         {
 921              		.loc 1 521 9 is_stmt 1 view .LVU270
 922              	.L63:
 521:Drivers/STM32F4xx_HAL_Driver/Src/stm32f4xx_hal_rcc.c ****         {
 923              		.loc 1 521 52 view .LVU271
 521:Drivers/STM32F4xx_HAL_Driver/Src/stm32f4xx_hal_rcc.c ****         {
 924              		.loc 1 521 16 is_stmt 0 view .LVU272
 925 045c 204B     		ldr	r3, .L118
 926 045e 1B68     		ldr	r3, [r3]
 521:Drivers/STM32F4xx_HAL_Driver/Src/stm32f4xx_hal_rcc.c ****         {
 927              		.loc 1 521 52 view .LVU273
 928 0460 13F0007F 		tst	r3, #33554432
 929 0464 06D0     		beq	.L115
 523:Drivers/STM32F4xx_HAL_Driver/Src/stm32f4xx_hal_rcc.c ****           {
 930              		.loc 1 523 11 is_stmt 1 view .LVU274
 523:Drivers/STM32F4xx_HAL_Driver/Src/stm32f4xx_hal_rcc.c ****           {
 931              		.loc 1 523 16 is_stmt 0 view .LVU275
 932 0466 FFF7FEFF 		bl	HAL_GetTick
 933              	.LVL67:
 523:Drivers/STM32F4xx_HAL_Driver/Src/stm32f4xx_hal_rcc.c ****           {
 934              		.loc 1 523 30 discriminator 1 view .LVU276
 935 046a 001B     		subs	r0, r0, r4
 523:Drivers/STM32F4xx_HAL_Driver/Src/stm32f4xx_hal_rcc.c ****           {
 936              		.loc 1 523 14 discriminator 1 view .LVU277
 937 046c 0228     		cmp	r0, #2
 938 046e F5D9     		bls	.L63
 525:Drivers/STM32F4xx_HAL_Driver/Src/stm32f4xx_hal_rcc.c ****           }
 939              		.loc 1 525 20 view .LVU278
 940 0470 0320     		movs	r0, #3
 941 0472 2DE0     		b	.L3
 942              	.L115:
 943              		.loc 1 563 10 view .LVU279
 944 0474 0020     		movs	r0, #0
ARM GAS  C:\Users\moham\AppData\Local\Temp\ccRDsC4I.s 			page 29


 945 0476 2BE0     		b	.L3
 946              	.LVL68:
 947              	.L51:
 533:Drivers/STM32F4xx_HAL_Driver/Src/stm32f4xx_hal_rcc.c ****       {
 948              		.loc 1 533 7 is_stmt 1 view .LVU280
 533:Drivers/STM32F4xx_HAL_Driver/Src/stm32f4xx_hal_rcc.c ****       {
 949              		.loc 1 533 10 is_stmt 0 view .LVU281
 950 0478 012B     		cmp	r3, #1
 951 047a 2BD0     		beq	.L82
 540:Drivers/STM32F4xx_HAL_Driver/Src/stm32f4xx_hal_rcc.c **** #if defined (RCC_PLLCFGR_PLLR)
 952              		.loc 1 540 9 is_stmt 1 view .LVU282
 540:Drivers/STM32F4xx_HAL_Driver/Src/stm32f4xx_hal_rcc.c **** #if defined (RCC_PLLCFGR_PLLR)
 953              		.loc 1 540 20 is_stmt 0 view .LVU283
 954 047c 184B     		ldr	r3, .L118
 955 047e 5B68     		ldr	r3, [r3, #4]
 956              	.LVL69:
 550:Drivers/STM32F4xx_HAL_Driver/Src/stm32f4xx_hal_rcc.c ****             (READ_BIT(pll_config, RCC_PLLCFGR_PLLSRC) != RCC_OscInitStruct->PLL.PLLSource) ||
 957              		.loc 1 550 9 is_stmt 1 view .LVU284
 551:Drivers/STM32F4xx_HAL_Driver/Src/stm32f4xx_hal_rcc.c ****             (READ_BIT(pll_config, RCC_PLLCFGR_PLLM) != (RCC_OscInitStruct->PLL.PLLM) << RCC_PLLCFGR
 958              		.loc 1 551 14 is_stmt 0 view .LVU285
 959 0480 03F48001 		and	r1, r3, #4194304
 551:Drivers/STM32F4xx_HAL_Driver/Src/stm32f4xx_hal_rcc.c ****             (READ_BIT(pll_config, RCC_PLLCFGR_PLLM) != (RCC_OscInitStruct->PLL.PLLM) << RCC_PLLCFGR
 960              		.loc 1 551 80 view .LVU286
 961 0484 E269     		ldr	r2, [r4, #28]
 550:Drivers/STM32F4xx_HAL_Driver/Src/stm32f4xx_hal_rcc.c ****             (READ_BIT(pll_config, RCC_PLLCFGR_PLLSRC) != RCC_OscInitStruct->PLL.PLLSource) ||
 962              		.loc 1 550 64 discriminator 1 view .LVU287
 963 0486 9142     		cmp	r1, r2
 964 0488 26D1     		bne	.L83
 552:Drivers/STM32F4xx_HAL_Driver/Src/stm32f4xx_hal_rcc.c ****             (READ_BIT(pll_config, RCC_PLLCFGR_PLLN) != (RCC_OscInitStruct->PLL.PLLN) << RCC_PLLCFGR
 965              		.loc 1 552 14 view .LVU288
 966 048a 03F03F02 		and	r2, r3, #63
 552:Drivers/STM32F4xx_HAL_Driver/Src/stm32f4xx_hal_rcc.c ****             (READ_BIT(pll_config, RCC_PLLCFGR_PLLN) != (RCC_OscInitStruct->PLL.PLLN) << RCC_PLLCFGR
 967              		.loc 1 552 79 view .LVU289
 968 048e 216A     		ldr	r1, [r4, #32]
 551:Drivers/STM32F4xx_HAL_Driver/Src/stm32f4xx_hal_rcc.c ****             (READ_BIT(pll_config, RCC_PLLCFGR_PLLM) != (RCC_OscInitStruct->PLL.PLLM) << RCC_PLLCFGR
 969              		.loc 1 551 92 view .LVU290
 970 0490 8A42     		cmp	r2, r1
 971 0492 23D1     		bne	.L84
 553:Drivers/STM32F4xx_HAL_Driver/Src/stm32f4xx_hal_rcc.c ****             (READ_BIT(pll_config, RCC_PLLCFGR_PLLP) != (((RCC_OscInitStruct->PLL.PLLP >> 1U) - 1U))
 972              		.loc 1 553 79 view .LVU291
 973 0494 616A     		ldr	r1, [r4, #36]
 552:Drivers/STM32F4xx_HAL_Driver/Src/stm32f4xx_hal_rcc.c ****             (READ_BIT(pll_config, RCC_PLLCFGR_PLLN) != (RCC_OscInitStruct->PLL.PLLN) << RCC_PLLCFGR
 974              		.loc 1 552 111 view .LVU292
 975 0496 47F6C072 		movw	r2, #32704
 976 049a 1A40     		ands	r2, r2, r3
 977 049c B2EB811F 		cmp	r2, r1, lsl #6
 978 04a0 26D1     		bne	.L85
 554:Drivers/STM32F4xx_HAL_Driver/Src/stm32f4xx_hal_rcc.c ****             (READ_BIT(pll_config, RCC_PLLCFGR_PLLQ) != (RCC_OscInitStruct->PLL.PLLQ << RCC_PLLCFGR_
 979              		.loc 1 554 14 view .LVU293
 980 04a2 03F44031 		and	r1, r3, #196608
 554:Drivers/STM32F4xx_HAL_Driver/Src/stm32f4xx_hal_rcc.c ****             (READ_BIT(pll_config, RCC_PLLCFGR_PLLQ) != (RCC_OscInitStruct->PLL.PLLQ << RCC_PLLCFGR_
 981              		.loc 1 554 81 view .LVU294
 982 04a6 A26A     		ldr	r2, [r4, #40]
 554:Drivers/STM32F4xx_HAL_Driver/Src/stm32f4xx_hal_rcc.c ****             (READ_BIT(pll_config, RCC_PLLCFGR_PLLQ) != (RCC_OscInitStruct->PLL.PLLQ << RCC_PLLCFGR_
 983              		.loc 1 554 87 view .LVU295
 984 04a8 5208     		lsrs	r2, r2, #1
 554:Drivers/STM32F4xx_HAL_Driver/Src/stm32f4xx_hal_rcc.c ****             (READ_BIT(pll_config, RCC_PLLCFGR_PLLQ) != (RCC_OscInitStruct->PLL.PLLQ << RCC_PLLCFGR_
ARM GAS  C:\Users\moham\AppData\Local\Temp\ccRDsC4I.s 			page 30


 985              		.loc 1 554 94 view .LVU296
 986 04aa 013A     		subs	r2, r2, #1
 553:Drivers/STM32F4xx_HAL_Driver/Src/stm32f4xx_hal_rcc.c ****             (READ_BIT(pll_config, RCC_PLLCFGR_PLLP) != (((RCC_OscInitStruct->PLL.PLLP >> 1U) - 1U))
 987              		.loc 1 553 111 view .LVU297
 988 04ac B1EB024F 		cmp	r1, r2, lsl #16
 989 04b0 20D1     		bne	.L86
 555:Drivers/STM32F4xx_HAL_Driver/Src/stm32f4xx_hal_rcc.c **** #endif /* RCC_PLLCFGR_PLLR */
 990              		.loc 1 555 14 view .LVU298
 991 04b2 03F07063 		and	r3, r3, #251658240
 992              	.LVL70:
 555:Drivers/STM32F4xx_HAL_Driver/Src/stm32f4xx_hal_rcc.c **** #endif /* RCC_PLLCFGR_PLLR */
 993              		.loc 1 555 79 view .LVU299
 994 04b6 E26A     		ldr	r2, [r4, #44]
 554:Drivers/STM32F4xx_HAL_Driver/Src/stm32f4xx_hal_rcc.c ****             (READ_BIT(pll_config, RCC_PLLCFGR_PLLQ) != (RCC_OscInitStruct->PLL.PLLQ << RCC_PLLCFGR_
 995              		.loc 1 554 126 view .LVU300
 996 04b8 B3EB026F 		cmp	r3, r2, lsl #24
 997 04bc 1CD1     		bne	.L87
 998              		.loc 1 563 10 view .LVU301
 999 04be 0020     		movs	r0, #0
 1000 04c0 06E0     		b	.L3
 1001              	.LVL71:
 1002              	.L65:
 1003              	.LCFI2:
 1004              		.cfi_def_cfa_offset 0
 1005              		.cfi_restore 4
 1006              		.cfi_restore 5
 1007              		.cfi_restore 6
 1008              		.cfi_restore 14
 226:Drivers/STM32F4xx_HAL_Driver/Src/stm32f4xx_hal_rcc.c ****   }
 1009              		.loc 1 226 12 view .LVU302
 1010 04c2 0120     		movs	r0, #1
 1011              	.LVL72:
 564:Drivers/STM32F4xx_HAL_Driver/Src/stm32f4xx_hal_rcc.c **** }
 1012              		.loc 1 564 1 view .LVU303
 1013 04c4 7047     		bx	lr
 1014              	.LVL73:
 1015              	.L97:
 1016              	.LCFI3:
 1017              		.cfi_def_cfa_offset 24
 1018              		.cfi_offset 4, -16
 1019              		.cfi_offset 5, -12
 1020              		.cfi_offset 6, -8
 1021              		.cfi_offset 14, -4
 242:Drivers/STM32F4xx_HAL_Driver/Src/stm32f4xx_hal_rcc.c ****       }
 1022              		.loc 1 242 16 view .LVU304
 1023 04c6 0120     		movs	r0, #1
 1024 04c8 02E0     		b	.L3
 1025              	.L69:
 295:Drivers/STM32F4xx_HAL_Driver/Src/stm32f4xx_hal_rcc.c ****       }
 1026              		.loc 1 295 16 view .LVU305
 1027 04ca 0120     		movs	r0, #1
 1028 04cc 00E0     		b	.L3
 1029              	.L78:
 563:Drivers/STM32F4xx_HAL_Driver/Src/stm32f4xx_hal_rcc.c **** }
 1030              		.loc 1 563 10 view .LVU306
 1031 04ce 0020     		movs	r0, #0
 1032              	.LVL74:
ARM GAS  C:\Users\moham\AppData\Local\Temp\ccRDsC4I.s 			page 31


 1033              	.L3:
 1034              		.loc 1 564 1 view .LVU307
 1035 04d0 02B0     		add	sp, sp, #8
 1036              	.LCFI4:
 1037              		.cfi_remember_state
 1038              		.cfi_def_cfa_offset 16
 1039              		@ sp needed
 1040 04d2 70BD     		pop	{r4, r5, r6, pc}
 1041              	.LVL75:
 1042              	.L82:
 1043              	.LCFI5:
 1044              		.cfi_restore_state
 535:Drivers/STM32F4xx_HAL_Driver/Src/stm32f4xx_hal_rcc.c ****       }
 1045              		.loc 1 535 16 view .LVU308
 1046 04d4 0120     		movs	r0, #1
 1047 04d6 FBE7     		b	.L3
 1048              	.LVL76:
 1049              	.L83:
 558:Drivers/STM32F4xx_HAL_Driver/Src/stm32f4xx_hal_rcc.c ****         }
 1050              		.loc 1 558 18 view .LVU309
 1051 04d8 0120     		movs	r0, #1
 1052 04da F9E7     		b	.L3
 1053              	.L84:
 1054 04dc 0120     		movs	r0, #1
 1055 04de F7E7     		b	.L3
 1056              	.L119:
 1057              		.align	2
 1058              	.L118:
 1059 04e0 00380240 		.word	1073887232
 1060 04e4 00700040 		.word	1073770496
 1061 04e8 00000000 		.word	.LC0
 1062 04ec 00004742 		.word	1111949312
 1063              	.L85:
 1064 04f0 0120     		movs	r0, #1
 1065 04f2 EDE7     		b	.L3
 1066              	.L86:
 1067 04f4 0120     		movs	r0, #1
 1068 04f6 EBE7     		b	.L3
 1069              	.LVL77:
 1070              	.L87:
 558:Drivers/STM32F4xx_HAL_Driver/Src/stm32f4xx_hal_rcc.c ****         }
 1071              		.loc 1 558 18 view .LVU310
 1072 04f8 0120     		movs	r0, #1
 1073 04fa E9E7     		b	.L3
 1074              		.cfi_endproc
 1075              	.LFE240:
 1077              		.section	.text.HAL_RCC_MCOConfig,"ax",%progbits
 1078              		.align	1
 1079              		.global	HAL_RCC_MCOConfig
 1080              		.syntax unified
 1081              		.thumb
 1082              		.thumb_func
 1084              	HAL_RCC_MCOConfig:
 1085              	.LVL78:
 1086              	.LFB242:
 565:Drivers/STM32F4xx_HAL_Driver/Src/stm32f4xx_hal_rcc.c **** 
 566:Drivers/STM32F4xx_HAL_Driver/Src/stm32f4xx_hal_rcc.c **** /**
ARM GAS  C:\Users\moham\AppData\Local\Temp\ccRDsC4I.s 			page 32


 567:Drivers/STM32F4xx_HAL_Driver/Src/stm32f4xx_hal_rcc.c ****   * @brief  Initializes the CPU, AHB and APB busses clocks according to the specified
 568:Drivers/STM32F4xx_HAL_Driver/Src/stm32f4xx_hal_rcc.c ****   *         parameters in the RCC_ClkInitStruct.
 569:Drivers/STM32F4xx_HAL_Driver/Src/stm32f4xx_hal_rcc.c ****   * @param  RCC_ClkInitStruct pointer to an RCC_OscInitTypeDef structure that
 570:Drivers/STM32F4xx_HAL_Driver/Src/stm32f4xx_hal_rcc.c ****   *         contains the configuration information for the RCC peripheral.
 571:Drivers/STM32F4xx_HAL_Driver/Src/stm32f4xx_hal_rcc.c ****   * @param  FLatency FLASH Latency, this parameter depend on device selected
 572:Drivers/STM32F4xx_HAL_Driver/Src/stm32f4xx_hal_rcc.c ****   *
 573:Drivers/STM32F4xx_HAL_Driver/Src/stm32f4xx_hal_rcc.c ****   * @note   The SystemCoreClock CMSIS variable is used to store System Clock Frequency
 574:Drivers/STM32F4xx_HAL_Driver/Src/stm32f4xx_hal_rcc.c ****   *         and updated by HAL_RCC_GetHCLKFreq() function called within this function
 575:Drivers/STM32F4xx_HAL_Driver/Src/stm32f4xx_hal_rcc.c ****   *
 576:Drivers/STM32F4xx_HAL_Driver/Src/stm32f4xx_hal_rcc.c ****   * @note   The HSI is used (enabled by hardware) as system clock source after
 577:Drivers/STM32F4xx_HAL_Driver/Src/stm32f4xx_hal_rcc.c ****   *         startup from Reset, wake-up from STOP and STANDBY mode, or in case
 578:Drivers/STM32F4xx_HAL_Driver/Src/stm32f4xx_hal_rcc.c ****   *         of failure of the HSE used directly or indirectly as system clock
 579:Drivers/STM32F4xx_HAL_Driver/Src/stm32f4xx_hal_rcc.c ****   *         (if the Clock Security System CSS is enabled).
 580:Drivers/STM32F4xx_HAL_Driver/Src/stm32f4xx_hal_rcc.c ****   *
 581:Drivers/STM32F4xx_HAL_Driver/Src/stm32f4xx_hal_rcc.c ****   * @note   A switch from one clock source to another occurs only if the target
 582:Drivers/STM32F4xx_HAL_Driver/Src/stm32f4xx_hal_rcc.c ****   *         clock source is ready (clock stable after startup delay or PLL locked).
 583:Drivers/STM32F4xx_HAL_Driver/Src/stm32f4xx_hal_rcc.c ****   *         If a clock source which is not yet ready is selected, the switch will
 584:Drivers/STM32F4xx_HAL_Driver/Src/stm32f4xx_hal_rcc.c ****   *         occur when the clock source will be ready.
 585:Drivers/STM32F4xx_HAL_Driver/Src/stm32f4xx_hal_rcc.c ****   *
 586:Drivers/STM32F4xx_HAL_Driver/Src/stm32f4xx_hal_rcc.c ****   * @note   Depending on the device voltage range, the software has to set correctly
 587:Drivers/STM32F4xx_HAL_Driver/Src/stm32f4xx_hal_rcc.c ****   *         HPRE[3:0] bits to ensure that HCLK not exceed the maximum allowed frequency
 588:Drivers/STM32F4xx_HAL_Driver/Src/stm32f4xx_hal_rcc.c ****   *         (for more details refer to section above "Initialization/de-initialization functions")
 589:Drivers/STM32F4xx_HAL_Driver/Src/stm32f4xx_hal_rcc.c ****   * @retval None
 590:Drivers/STM32F4xx_HAL_Driver/Src/stm32f4xx_hal_rcc.c ****   */
 591:Drivers/STM32F4xx_HAL_Driver/Src/stm32f4xx_hal_rcc.c **** HAL_StatusTypeDef HAL_RCC_ClockConfig(const RCC_ClkInitTypeDef  *RCC_ClkInitStruct, uint32_t FLaten
 592:Drivers/STM32F4xx_HAL_Driver/Src/stm32f4xx_hal_rcc.c **** {
 593:Drivers/STM32F4xx_HAL_Driver/Src/stm32f4xx_hal_rcc.c ****   uint32_t tickstart;
 594:Drivers/STM32F4xx_HAL_Driver/Src/stm32f4xx_hal_rcc.c **** 
 595:Drivers/STM32F4xx_HAL_Driver/Src/stm32f4xx_hal_rcc.c ****   /* Check Null pointer */
 596:Drivers/STM32F4xx_HAL_Driver/Src/stm32f4xx_hal_rcc.c ****   if (RCC_ClkInitStruct == NULL)
 597:Drivers/STM32F4xx_HAL_Driver/Src/stm32f4xx_hal_rcc.c ****   {
 598:Drivers/STM32F4xx_HAL_Driver/Src/stm32f4xx_hal_rcc.c ****     return HAL_ERROR;
 599:Drivers/STM32F4xx_HAL_Driver/Src/stm32f4xx_hal_rcc.c ****   }
 600:Drivers/STM32F4xx_HAL_Driver/Src/stm32f4xx_hal_rcc.c **** 
 601:Drivers/STM32F4xx_HAL_Driver/Src/stm32f4xx_hal_rcc.c ****   /* Check the parameters */
 602:Drivers/STM32F4xx_HAL_Driver/Src/stm32f4xx_hal_rcc.c ****   assert_param(IS_RCC_CLOCKTYPE(RCC_ClkInitStruct->ClockType));
 603:Drivers/STM32F4xx_HAL_Driver/Src/stm32f4xx_hal_rcc.c ****   assert_param(IS_FLASH_LATENCY(FLatency));
 604:Drivers/STM32F4xx_HAL_Driver/Src/stm32f4xx_hal_rcc.c **** 
 605:Drivers/STM32F4xx_HAL_Driver/Src/stm32f4xx_hal_rcc.c ****   /* To correctly read data from FLASH memory, the number of wait states (LATENCY)
 606:Drivers/STM32F4xx_HAL_Driver/Src/stm32f4xx_hal_rcc.c ****     must be correctly programmed according to the frequency of the CPU clock
 607:Drivers/STM32F4xx_HAL_Driver/Src/stm32f4xx_hal_rcc.c ****     (HCLK) and the supply voltage of the device. */
 608:Drivers/STM32F4xx_HAL_Driver/Src/stm32f4xx_hal_rcc.c **** 
 609:Drivers/STM32F4xx_HAL_Driver/Src/stm32f4xx_hal_rcc.c ****   /* Increasing the number of wait states because of higher CPU frequency */
 610:Drivers/STM32F4xx_HAL_Driver/Src/stm32f4xx_hal_rcc.c ****   if (FLatency > __HAL_FLASH_GET_LATENCY())
 611:Drivers/STM32F4xx_HAL_Driver/Src/stm32f4xx_hal_rcc.c ****   {
 612:Drivers/STM32F4xx_HAL_Driver/Src/stm32f4xx_hal_rcc.c ****     /* Program the new number of wait states to the LATENCY bits in the FLASH_ACR register */
 613:Drivers/STM32F4xx_HAL_Driver/Src/stm32f4xx_hal_rcc.c ****     __HAL_FLASH_SET_LATENCY(FLatency);
 614:Drivers/STM32F4xx_HAL_Driver/Src/stm32f4xx_hal_rcc.c **** 
 615:Drivers/STM32F4xx_HAL_Driver/Src/stm32f4xx_hal_rcc.c ****     /* Check that the new number of wait states is taken into account to access the Flash
 616:Drivers/STM32F4xx_HAL_Driver/Src/stm32f4xx_hal_rcc.c ****     memory by reading the FLASH_ACR register */
 617:Drivers/STM32F4xx_HAL_Driver/Src/stm32f4xx_hal_rcc.c ****     if (__HAL_FLASH_GET_LATENCY() != FLatency)
 618:Drivers/STM32F4xx_HAL_Driver/Src/stm32f4xx_hal_rcc.c ****     {
 619:Drivers/STM32F4xx_HAL_Driver/Src/stm32f4xx_hal_rcc.c ****       return HAL_ERROR;
 620:Drivers/STM32F4xx_HAL_Driver/Src/stm32f4xx_hal_rcc.c ****     }
 621:Drivers/STM32F4xx_HAL_Driver/Src/stm32f4xx_hal_rcc.c ****   }
 622:Drivers/STM32F4xx_HAL_Driver/Src/stm32f4xx_hal_rcc.c **** 
 623:Drivers/STM32F4xx_HAL_Driver/Src/stm32f4xx_hal_rcc.c ****   /*-------------------------- HCLK Configuration --------------------------*/
ARM GAS  C:\Users\moham\AppData\Local\Temp\ccRDsC4I.s 			page 33


 624:Drivers/STM32F4xx_HAL_Driver/Src/stm32f4xx_hal_rcc.c ****   if (((RCC_ClkInitStruct->ClockType) & RCC_CLOCKTYPE_HCLK) == RCC_CLOCKTYPE_HCLK)
 625:Drivers/STM32F4xx_HAL_Driver/Src/stm32f4xx_hal_rcc.c ****   {
 626:Drivers/STM32F4xx_HAL_Driver/Src/stm32f4xx_hal_rcc.c ****     /* Set the highest APBx dividers in order to ensure that we do not go through
 627:Drivers/STM32F4xx_HAL_Driver/Src/stm32f4xx_hal_rcc.c ****        a non-spec phase whatever we decrease or increase HCLK. */
 628:Drivers/STM32F4xx_HAL_Driver/Src/stm32f4xx_hal_rcc.c ****     if (((RCC_ClkInitStruct->ClockType) & RCC_CLOCKTYPE_PCLK1) == RCC_CLOCKTYPE_PCLK1)
 629:Drivers/STM32F4xx_HAL_Driver/Src/stm32f4xx_hal_rcc.c ****     {
 630:Drivers/STM32F4xx_HAL_Driver/Src/stm32f4xx_hal_rcc.c ****       MODIFY_REG(RCC->CFGR, RCC_CFGR_PPRE1, RCC_HCLK_DIV16);
 631:Drivers/STM32F4xx_HAL_Driver/Src/stm32f4xx_hal_rcc.c ****     }
 632:Drivers/STM32F4xx_HAL_Driver/Src/stm32f4xx_hal_rcc.c **** 
 633:Drivers/STM32F4xx_HAL_Driver/Src/stm32f4xx_hal_rcc.c ****     if (((RCC_ClkInitStruct->ClockType) & RCC_CLOCKTYPE_PCLK2) == RCC_CLOCKTYPE_PCLK2)
 634:Drivers/STM32F4xx_HAL_Driver/Src/stm32f4xx_hal_rcc.c ****     {
 635:Drivers/STM32F4xx_HAL_Driver/Src/stm32f4xx_hal_rcc.c ****       MODIFY_REG(RCC->CFGR, RCC_CFGR_PPRE2, (RCC_HCLK_DIV16 << 3));
 636:Drivers/STM32F4xx_HAL_Driver/Src/stm32f4xx_hal_rcc.c ****     }
 637:Drivers/STM32F4xx_HAL_Driver/Src/stm32f4xx_hal_rcc.c **** 
 638:Drivers/STM32F4xx_HAL_Driver/Src/stm32f4xx_hal_rcc.c ****     assert_param(IS_RCC_HCLK(RCC_ClkInitStruct->AHBCLKDivider));
 639:Drivers/STM32F4xx_HAL_Driver/Src/stm32f4xx_hal_rcc.c ****     MODIFY_REG(RCC->CFGR, RCC_CFGR_HPRE, RCC_ClkInitStruct->AHBCLKDivider);
 640:Drivers/STM32F4xx_HAL_Driver/Src/stm32f4xx_hal_rcc.c ****   }
 641:Drivers/STM32F4xx_HAL_Driver/Src/stm32f4xx_hal_rcc.c **** 
 642:Drivers/STM32F4xx_HAL_Driver/Src/stm32f4xx_hal_rcc.c ****   /*------------------------- SYSCLK Configuration ---------------------------*/
 643:Drivers/STM32F4xx_HAL_Driver/Src/stm32f4xx_hal_rcc.c ****   if (((RCC_ClkInitStruct->ClockType) & RCC_CLOCKTYPE_SYSCLK) == RCC_CLOCKTYPE_SYSCLK)
 644:Drivers/STM32F4xx_HAL_Driver/Src/stm32f4xx_hal_rcc.c ****   {
 645:Drivers/STM32F4xx_HAL_Driver/Src/stm32f4xx_hal_rcc.c ****     assert_param(IS_RCC_SYSCLKSOURCE(RCC_ClkInitStruct->SYSCLKSource));
 646:Drivers/STM32F4xx_HAL_Driver/Src/stm32f4xx_hal_rcc.c **** 
 647:Drivers/STM32F4xx_HAL_Driver/Src/stm32f4xx_hal_rcc.c ****     /* HSE is selected as System Clock Source */
 648:Drivers/STM32F4xx_HAL_Driver/Src/stm32f4xx_hal_rcc.c ****     if (RCC_ClkInitStruct->SYSCLKSource == RCC_SYSCLKSOURCE_HSE)
 649:Drivers/STM32F4xx_HAL_Driver/Src/stm32f4xx_hal_rcc.c ****     {
 650:Drivers/STM32F4xx_HAL_Driver/Src/stm32f4xx_hal_rcc.c ****       /* Check the HSE ready flag */
 651:Drivers/STM32F4xx_HAL_Driver/Src/stm32f4xx_hal_rcc.c ****       if (__HAL_RCC_GET_FLAG(RCC_FLAG_HSERDY) == RESET)
 652:Drivers/STM32F4xx_HAL_Driver/Src/stm32f4xx_hal_rcc.c ****       {
 653:Drivers/STM32F4xx_HAL_Driver/Src/stm32f4xx_hal_rcc.c ****         return HAL_ERROR;
 654:Drivers/STM32F4xx_HAL_Driver/Src/stm32f4xx_hal_rcc.c ****       }
 655:Drivers/STM32F4xx_HAL_Driver/Src/stm32f4xx_hal_rcc.c ****     }
 656:Drivers/STM32F4xx_HAL_Driver/Src/stm32f4xx_hal_rcc.c ****     /* PLL is selected as System Clock Source */
 657:Drivers/STM32F4xx_HAL_Driver/Src/stm32f4xx_hal_rcc.c ****     else if ((RCC_ClkInitStruct->SYSCLKSource == RCC_SYSCLKSOURCE_PLLCLK)   ||
 658:Drivers/STM32F4xx_HAL_Driver/Src/stm32f4xx_hal_rcc.c ****              (RCC_ClkInitStruct->SYSCLKSource == RCC_SYSCLKSOURCE_PLLRCLK))
 659:Drivers/STM32F4xx_HAL_Driver/Src/stm32f4xx_hal_rcc.c ****     {
 660:Drivers/STM32F4xx_HAL_Driver/Src/stm32f4xx_hal_rcc.c ****       /* Check the PLL ready flag */
 661:Drivers/STM32F4xx_HAL_Driver/Src/stm32f4xx_hal_rcc.c ****       if (__HAL_RCC_GET_FLAG(RCC_FLAG_PLLRDY) == RESET)
 662:Drivers/STM32F4xx_HAL_Driver/Src/stm32f4xx_hal_rcc.c ****       {
 663:Drivers/STM32F4xx_HAL_Driver/Src/stm32f4xx_hal_rcc.c ****         return HAL_ERROR;
 664:Drivers/STM32F4xx_HAL_Driver/Src/stm32f4xx_hal_rcc.c ****       }
 665:Drivers/STM32F4xx_HAL_Driver/Src/stm32f4xx_hal_rcc.c ****     }
 666:Drivers/STM32F4xx_HAL_Driver/Src/stm32f4xx_hal_rcc.c ****     /* HSI is selected as System Clock Source */
 667:Drivers/STM32F4xx_HAL_Driver/Src/stm32f4xx_hal_rcc.c ****     else
 668:Drivers/STM32F4xx_HAL_Driver/Src/stm32f4xx_hal_rcc.c ****     {
 669:Drivers/STM32F4xx_HAL_Driver/Src/stm32f4xx_hal_rcc.c ****       /* Check the HSI ready flag */
 670:Drivers/STM32F4xx_HAL_Driver/Src/stm32f4xx_hal_rcc.c ****       if (__HAL_RCC_GET_FLAG(RCC_FLAG_HSIRDY) == RESET)
 671:Drivers/STM32F4xx_HAL_Driver/Src/stm32f4xx_hal_rcc.c ****       {
 672:Drivers/STM32F4xx_HAL_Driver/Src/stm32f4xx_hal_rcc.c ****         return HAL_ERROR;
 673:Drivers/STM32F4xx_HAL_Driver/Src/stm32f4xx_hal_rcc.c ****       }
 674:Drivers/STM32F4xx_HAL_Driver/Src/stm32f4xx_hal_rcc.c ****     }
 675:Drivers/STM32F4xx_HAL_Driver/Src/stm32f4xx_hal_rcc.c **** 
 676:Drivers/STM32F4xx_HAL_Driver/Src/stm32f4xx_hal_rcc.c ****     __HAL_RCC_SYSCLK_CONFIG(RCC_ClkInitStruct->SYSCLKSource);
 677:Drivers/STM32F4xx_HAL_Driver/Src/stm32f4xx_hal_rcc.c **** 
 678:Drivers/STM32F4xx_HAL_Driver/Src/stm32f4xx_hal_rcc.c ****     /* Get Start Tick */
 679:Drivers/STM32F4xx_HAL_Driver/Src/stm32f4xx_hal_rcc.c ****     tickstart = HAL_GetTick();
 680:Drivers/STM32F4xx_HAL_Driver/Src/stm32f4xx_hal_rcc.c **** 
ARM GAS  C:\Users\moham\AppData\Local\Temp\ccRDsC4I.s 			page 34


 681:Drivers/STM32F4xx_HAL_Driver/Src/stm32f4xx_hal_rcc.c ****     while (__HAL_RCC_GET_SYSCLK_SOURCE() != (RCC_ClkInitStruct->SYSCLKSource << RCC_CFGR_SWS_Pos))
 682:Drivers/STM32F4xx_HAL_Driver/Src/stm32f4xx_hal_rcc.c ****     {
 683:Drivers/STM32F4xx_HAL_Driver/Src/stm32f4xx_hal_rcc.c ****       if ((HAL_GetTick() - tickstart) > CLOCKSWITCH_TIMEOUT_VALUE)
 684:Drivers/STM32F4xx_HAL_Driver/Src/stm32f4xx_hal_rcc.c ****       {
 685:Drivers/STM32F4xx_HAL_Driver/Src/stm32f4xx_hal_rcc.c ****         return HAL_TIMEOUT;
 686:Drivers/STM32F4xx_HAL_Driver/Src/stm32f4xx_hal_rcc.c ****       }
 687:Drivers/STM32F4xx_HAL_Driver/Src/stm32f4xx_hal_rcc.c ****     }
 688:Drivers/STM32F4xx_HAL_Driver/Src/stm32f4xx_hal_rcc.c ****   }
 689:Drivers/STM32F4xx_HAL_Driver/Src/stm32f4xx_hal_rcc.c **** 
 690:Drivers/STM32F4xx_HAL_Driver/Src/stm32f4xx_hal_rcc.c ****   /* Decreasing the number of wait states because of lower CPU frequency */
 691:Drivers/STM32F4xx_HAL_Driver/Src/stm32f4xx_hal_rcc.c ****   if (FLatency < __HAL_FLASH_GET_LATENCY())
 692:Drivers/STM32F4xx_HAL_Driver/Src/stm32f4xx_hal_rcc.c ****   {
 693:Drivers/STM32F4xx_HAL_Driver/Src/stm32f4xx_hal_rcc.c ****     /* Program the new number of wait states to the LATENCY bits in the FLASH_ACR register */
 694:Drivers/STM32F4xx_HAL_Driver/Src/stm32f4xx_hal_rcc.c ****     __HAL_FLASH_SET_LATENCY(FLatency);
 695:Drivers/STM32F4xx_HAL_Driver/Src/stm32f4xx_hal_rcc.c **** 
 696:Drivers/STM32F4xx_HAL_Driver/Src/stm32f4xx_hal_rcc.c ****     /* Check that the new number of wait states is taken into account to access the Flash
 697:Drivers/STM32F4xx_HAL_Driver/Src/stm32f4xx_hal_rcc.c ****     memory by reading the FLASH_ACR register */
 698:Drivers/STM32F4xx_HAL_Driver/Src/stm32f4xx_hal_rcc.c ****     if (__HAL_FLASH_GET_LATENCY() != FLatency)
 699:Drivers/STM32F4xx_HAL_Driver/Src/stm32f4xx_hal_rcc.c ****     {
 700:Drivers/STM32F4xx_HAL_Driver/Src/stm32f4xx_hal_rcc.c ****       return HAL_ERROR;
 701:Drivers/STM32F4xx_HAL_Driver/Src/stm32f4xx_hal_rcc.c ****     }
 702:Drivers/STM32F4xx_HAL_Driver/Src/stm32f4xx_hal_rcc.c ****   }
 703:Drivers/STM32F4xx_HAL_Driver/Src/stm32f4xx_hal_rcc.c **** 
 704:Drivers/STM32F4xx_HAL_Driver/Src/stm32f4xx_hal_rcc.c ****   /*-------------------------- PCLK1 Configuration ---------------------------*/
 705:Drivers/STM32F4xx_HAL_Driver/Src/stm32f4xx_hal_rcc.c ****   if (((RCC_ClkInitStruct->ClockType) & RCC_CLOCKTYPE_PCLK1) == RCC_CLOCKTYPE_PCLK1)
 706:Drivers/STM32F4xx_HAL_Driver/Src/stm32f4xx_hal_rcc.c ****   {
 707:Drivers/STM32F4xx_HAL_Driver/Src/stm32f4xx_hal_rcc.c ****     assert_param(IS_RCC_PCLK(RCC_ClkInitStruct->APB1CLKDivider));
 708:Drivers/STM32F4xx_HAL_Driver/Src/stm32f4xx_hal_rcc.c ****     MODIFY_REG(RCC->CFGR, RCC_CFGR_PPRE1, RCC_ClkInitStruct->APB1CLKDivider);
 709:Drivers/STM32F4xx_HAL_Driver/Src/stm32f4xx_hal_rcc.c ****   }
 710:Drivers/STM32F4xx_HAL_Driver/Src/stm32f4xx_hal_rcc.c **** 
 711:Drivers/STM32F4xx_HAL_Driver/Src/stm32f4xx_hal_rcc.c ****   /*-------------------------- PCLK2 Configuration ---------------------------*/
 712:Drivers/STM32F4xx_HAL_Driver/Src/stm32f4xx_hal_rcc.c ****   if (((RCC_ClkInitStruct->ClockType) & RCC_CLOCKTYPE_PCLK2) == RCC_CLOCKTYPE_PCLK2)
 713:Drivers/STM32F4xx_HAL_Driver/Src/stm32f4xx_hal_rcc.c ****   {
 714:Drivers/STM32F4xx_HAL_Driver/Src/stm32f4xx_hal_rcc.c ****     assert_param(IS_RCC_PCLK(RCC_ClkInitStruct->APB2CLKDivider));
 715:Drivers/STM32F4xx_HAL_Driver/Src/stm32f4xx_hal_rcc.c ****     MODIFY_REG(RCC->CFGR, RCC_CFGR_PPRE2, ((RCC_ClkInitStruct->APB2CLKDivider) << 3U));
 716:Drivers/STM32F4xx_HAL_Driver/Src/stm32f4xx_hal_rcc.c ****   }
 717:Drivers/STM32F4xx_HAL_Driver/Src/stm32f4xx_hal_rcc.c **** 
 718:Drivers/STM32F4xx_HAL_Driver/Src/stm32f4xx_hal_rcc.c ****   /* Update the SystemCoreClock global variable */
 719:Drivers/STM32F4xx_HAL_Driver/Src/stm32f4xx_hal_rcc.c ****   SystemCoreClock = HAL_RCC_GetSysClockFreq() >> AHBPrescTable[(RCC->CFGR & RCC_CFGR_HPRE) >> RCC_C
 720:Drivers/STM32F4xx_HAL_Driver/Src/stm32f4xx_hal_rcc.c **** 
 721:Drivers/STM32F4xx_HAL_Driver/Src/stm32f4xx_hal_rcc.c ****   /* Configure the source of time base considering new system clocks settings */
 722:Drivers/STM32F4xx_HAL_Driver/Src/stm32f4xx_hal_rcc.c ****   HAL_InitTick(uwTickPrio);
 723:Drivers/STM32F4xx_HAL_Driver/Src/stm32f4xx_hal_rcc.c **** 
 724:Drivers/STM32F4xx_HAL_Driver/Src/stm32f4xx_hal_rcc.c ****   return HAL_OK;
 725:Drivers/STM32F4xx_HAL_Driver/Src/stm32f4xx_hal_rcc.c **** }
 726:Drivers/STM32F4xx_HAL_Driver/Src/stm32f4xx_hal_rcc.c **** 
 727:Drivers/STM32F4xx_HAL_Driver/Src/stm32f4xx_hal_rcc.c **** /**
 728:Drivers/STM32F4xx_HAL_Driver/Src/stm32f4xx_hal_rcc.c ****   * @}
 729:Drivers/STM32F4xx_HAL_Driver/Src/stm32f4xx_hal_rcc.c ****   */
 730:Drivers/STM32F4xx_HAL_Driver/Src/stm32f4xx_hal_rcc.c **** 
 731:Drivers/STM32F4xx_HAL_Driver/Src/stm32f4xx_hal_rcc.c **** /** @defgroup RCC_Exported_Functions_Group2 Peripheral Control functions
 732:Drivers/STM32F4xx_HAL_Driver/Src/stm32f4xx_hal_rcc.c ****   *  @brief   RCC clocks control functions
 733:Drivers/STM32F4xx_HAL_Driver/Src/stm32f4xx_hal_rcc.c ****   *
 734:Drivers/STM32F4xx_HAL_Driver/Src/stm32f4xx_hal_rcc.c **** @verbatim
 735:Drivers/STM32F4xx_HAL_Driver/Src/stm32f4xx_hal_rcc.c ****  ===============================================================================
 736:Drivers/STM32F4xx_HAL_Driver/Src/stm32f4xx_hal_rcc.c ****                       ##### Peripheral Control functions #####
 737:Drivers/STM32F4xx_HAL_Driver/Src/stm32f4xx_hal_rcc.c ****  ===============================================================================
ARM GAS  C:\Users\moham\AppData\Local\Temp\ccRDsC4I.s 			page 35


 738:Drivers/STM32F4xx_HAL_Driver/Src/stm32f4xx_hal_rcc.c ****     [..]
 739:Drivers/STM32F4xx_HAL_Driver/Src/stm32f4xx_hal_rcc.c ****     This subsection provides a set of functions allowing to control the RCC Clocks
 740:Drivers/STM32F4xx_HAL_Driver/Src/stm32f4xx_hal_rcc.c ****     frequencies.
 741:Drivers/STM32F4xx_HAL_Driver/Src/stm32f4xx_hal_rcc.c **** 
 742:Drivers/STM32F4xx_HAL_Driver/Src/stm32f4xx_hal_rcc.c **** @endverbatim
 743:Drivers/STM32F4xx_HAL_Driver/Src/stm32f4xx_hal_rcc.c ****   * @{
 744:Drivers/STM32F4xx_HAL_Driver/Src/stm32f4xx_hal_rcc.c ****   */
 745:Drivers/STM32F4xx_HAL_Driver/Src/stm32f4xx_hal_rcc.c **** 
 746:Drivers/STM32F4xx_HAL_Driver/Src/stm32f4xx_hal_rcc.c **** /**
 747:Drivers/STM32F4xx_HAL_Driver/Src/stm32f4xx_hal_rcc.c ****   * @brief  Selects the clock source to output on MCO1 pin(PA8) or on MCO2 pin(PC9).
 748:Drivers/STM32F4xx_HAL_Driver/Src/stm32f4xx_hal_rcc.c ****   * @note   PA8/PC9 should be configured in alternate function mode.
 749:Drivers/STM32F4xx_HAL_Driver/Src/stm32f4xx_hal_rcc.c ****   * @param  RCC_MCOx specifies the output direction for the clock source.
 750:Drivers/STM32F4xx_HAL_Driver/Src/stm32f4xx_hal_rcc.c ****   *          This parameter can be one of the following values:
 751:Drivers/STM32F4xx_HAL_Driver/Src/stm32f4xx_hal_rcc.c ****   *            @arg RCC_MCO1: Clock source to output on MCO1 pin(PA8).
 752:Drivers/STM32F4xx_HAL_Driver/Src/stm32f4xx_hal_rcc.c ****   *            @arg RCC_MCO2: Clock source to output on MCO2 pin(PC9).
 753:Drivers/STM32F4xx_HAL_Driver/Src/stm32f4xx_hal_rcc.c ****   * @param  RCC_MCOSource specifies the clock source to output.
 754:Drivers/STM32F4xx_HAL_Driver/Src/stm32f4xx_hal_rcc.c ****   *          This parameter can be one of the following values:
 755:Drivers/STM32F4xx_HAL_Driver/Src/stm32f4xx_hal_rcc.c ****   *            @arg RCC_MCO1SOURCE_HSI: HSI clock selected as MCO1 source
 756:Drivers/STM32F4xx_HAL_Driver/Src/stm32f4xx_hal_rcc.c ****   *            @arg RCC_MCO1SOURCE_LSE: LSE clock selected as MCO1 source
 757:Drivers/STM32F4xx_HAL_Driver/Src/stm32f4xx_hal_rcc.c ****   *            @arg RCC_MCO1SOURCE_HSE: HSE clock selected as MCO1 source
 758:Drivers/STM32F4xx_HAL_Driver/Src/stm32f4xx_hal_rcc.c ****   *            @arg RCC_MCO1SOURCE_PLLCLK: main PLL clock selected as MCO1 source
 759:Drivers/STM32F4xx_HAL_Driver/Src/stm32f4xx_hal_rcc.c ****   *            @arg RCC_MCO2SOURCE_SYSCLK: System clock (SYSCLK) selected as MCO2 source
 760:Drivers/STM32F4xx_HAL_Driver/Src/stm32f4xx_hal_rcc.c ****   *            @arg RCC_MCO2SOURCE_PLLI2SCLK: PLLI2S clock selected as MCO2 source, available for a
 761:Drivers/STM32F4xx_HAL_Driver/Src/stm32f4xx_hal_rcc.c ****   *            @arg RCC_MCO2SOURCE_I2SCLK: I2SCLK clock selected as MCO2 source, available only for
 762:Drivers/STM32F4xx_HAL_Driver/Src/stm32f4xx_hal_rcc.c ****   *            @arg RCC_MCO2SOURCE_HSE: HSE clock selected as MCO2 source
 763:Drivers/STM32F4xx_HAL_Driver/Src/stm32f4xx_hal_rcc.c ****   *            @arg RCC_MCO2SOURCE_PLLCLK: main PLL clock selected as MCO2 source
 764:Drivers/STM32F4xx_HAL_Driver/Src/stm32f4xx_hal_rcc.c ****   * @param  RCC_MCODiv specifies the MCOx prescaler.
 765:Drivers/STM32F4xx_HAL_Driver/Src/stm32f4xx_hal_rcc.c ****   *          This parameter can be one of the following values:
 766:Drivers/STM32F4xx_HAL_Driver/Src/stm32f4xx_hal_rcc.c ****   *            @arg RCC_MCODIV_1: no division applied to MCOx clock
 767:Drivers/STM32F4xx_HAL_Driver/Src/stm32f4xx_hal_rcc.c ****   *            @arg RCC_MCODIV_2: division by 2 applied to MCOx clock
 768:Drivers/STM32F4xx_HAL_Driver/Src/stm32f4xx_hal_rcc.c ****   *            @arg RCC_MCODIV_3: division by 3 applied to MCOx clock
 769:Drivers/STM32F4xx_HAL_Driver/Src/stm32f4xx_hal_rcc.c ****   *            @arg RCC_MCODIV_4: division by 4 applied to MCOx clock
 770:Drivers/STM32F4xx_HAL_Driver/Src/stm32f4xx_hal_rcc.c ****   *            @arg RCC_MCODIV_5: division by 5 applied to MCOx clock
 771:Drivers/STM32F4xx_HAL_Driver/Src/stm32f4xx_hal_rcc.c ****   * @note  For STM32F410Rx devices to output I2SCLK clock on MCO2 you should have
 772:Drivers/STM32F4xx_HAL_Driver/Src/stm32f4xx_hal_rcc.c ****   *        at last one of the SPI clocks enabled (SPI1, SPI2 or SPI5).
 773:Drivers/STM32F4xx_HAL_Driver/Src/stm32f4xx_hal_rcc.c ****   * @retval None
 774:Drivers/STM32F4xx_HAL_Driver/Src/stm32f4xx_hal_rcc.c ****   */
 775:Drivers/STM32F4xx_HAL_Driver/Src/stm32f4xx_hal_rcc.c **** void HAL_RCC_MCOConfig(uint32_t RCC_MCOx, uint32_t RCC_MCOSource, uint32_t RCC_MCODiv)
 776:Drivers/STM32F4xx_HAL_Driver/Src/stm32f4xx_hal_rcc.c **** {
 1087              		.loc 1 776 1 is_stmt 1 view -0
 1088              		.cfi_startproc
 1089              		@ args = 0, pretend = 0, frame = 32
 1090              		@ frame_needed = 0, uses_anonymous_args = 0
 1091              		.loc 1 776 1 is_stmt 0 view .LVU312
 1092 0000 70B5     		push	{r4, r5, r6, lr}
 1093              	.LCFI6:
 1094              		.cfi_def_cfa_offset 16
 1095              		.cfi_offset 4, -16
 1096              		.cfi_offset 5, -12
 1097              		.cfi_offset 6, -8
 1098              		.cfi_offset 14, -4
 1099 0002 88B0     		sub	sp, sp, #32
 1100              	.LCFI7:
 1101              		.cfi_def_cfa_offset 48
 1102 0004 0646     		mov	r6, r0
 1103 0006 0D46     		mov	r5, r1
 1104 0008 1446     		mov	r4, r2
ARM GAS  C:\Users\moham\AppData\Local\Temp\ccRDsC4I.s 			page 36


 777:Drivers/STM32F4xx_HAL_Driver/Src/stm32f4xx_hal_rcc.c ****   GPIO_InitTypeDef GPIO_InitStruct;
 1105              		.loc 1 777 3 is_stmt 1 view .LVU313
 778:Drivers/STM32F4xx_HAL_Driver/Src/stm32f4xx_hal_rcc.c ****   /* Check the parameters */
 779:Drivers/STM32F4xx_HAL_Driver/Src/stm32f4xx_hal_rcc.c ****   assert_param(IS_RCC_MCO(RCC_MCOx));
 1106              		.loc 1 779 3 view .LVU314
 1107 000a 0128     		cmp	r0, #1
 1108 000c 39D8     		bhi	.L128
 1109              	.LVL79:
 1110              	.L121:
 780:Drivers/STM32F4xx_HAL_Driver/Src/stm32f4xx_hal_rcc.c ****   assert_param(IS_RCC_MCODIV(RCC_MCODiv));
 1111              		.loc 1 780 3 view .LVU315
 1112 000e 5CB1     		cbz	r4, .L122
 1113              		.loc 1 780 3 is_stmt 0 discriminator 1 view .LVU316
 1114 0010 B4F1806F 		cmp	r4, #67108864
 1115 0014 08D0     		beq	.L122
 1116              		.loc 1 780 3 discriminator 2 view .LVU317
 1117 0016 B4F1A06F 		cmp	r4, #83886080
 1118 001a 05D0     		beq	.L122
 1119              		.loc 1 780 3 discriminator 3 view .LVU318
 1120 001c B4F1C06F 		cmp	r4, #100663296
 1121 0020 02D0     		beq	.L122
 1122              		.loc 1 780 3 discriminator 4 view .LVU319
 1123 0022 B4F1E06F 		cmp	r4, #117440512
 1124 0026 32D1     		bne	.L129
 1125              	.L122:
 781:Drivers/STM32F4xx_HAL_Driver/Src/stm32f4xx_hal_rcc.c ****   /* RCC_MCO1 */
 782:Drivers/STM32F4xx_HAL_Driver/Src/stm32f4xx_hal_rcc.c ****   if (RCC_MCOx == RCC_MCO1)
 1126              		.loc 1 782 3 is_stmt 1 view .LVU320
 1127              		.loc 1 782 6 is_stmt 0 view .LVU321
 1128 0028 002E     		cmp	r6, #0
 1129 002a 3CD1     		bne	.L123
 783:Drivers/STM32F4xx_HAL_Driver/Src/stm32f4xx_hal_rcc.c ****   {
 784:Drivers/STM32F4xx_HAL_Driver/Src/stm32f4xx_hal_rcc.c ****     assert_param(IS_RCC_MCO1SOURCE(RCC_MCOSource));
 1130              		.loc 1 784 5 is_stmt 1 view .LVU322
 1131 002c 45B1     		cbz	r5, .L124
 1132              		.loc 1 784 5 is_stmt 0 discriminator 1 view .LVU323
 1133 002e B5F5001F 		cmp	r5, #2097152
 1134 0032 05D0     		beq	.L124
 1135              		.loc 1 784 5 discriminator 2 view .LVU324
 1136 0034 B5F5800F 		cmp	r5, #4194304
 1137 0038 02D0     		beq	.L124
 1138              		.loc 1 784 5 discriminator 3 view .LVU325
 1139 003a B5F5C00F 		cmp	r5, #6291456
 1140 003e 2CD1     		bne	.L130
 1141              	.L124:
 785:Drivers/STM32F4xx_HAL_Driver/Src/stm32f4xx_hal_rcc.c **** 
 786:Drivers/STM32F4xx_HAL_Driver/Src/stm32f4xx_hal_rcc.c ****     /* MCO1 Clock Enable */
 787:Drivers/STM32F4xx_HAL_Driver/Src/stm32f4xx_hal_rcc.c ****     __MCO1_CLK_ENABLE();
 1142              		.loc 1 787 5 is_stmt 1 view .LVU326
 1143              	.LBB5:
 1144              		.loc 1 787 5 view .LVU327
 1145 0040 0023     		movs	r3, #0
 1146 0042 0193     		str	r3, [sp, #4]
 1147              		.loc 1 787 5 view .LVU328
 1148 0044 304E     		ldr	r6, .L132
 1149              	.LVL80:
 1150              		.loc 1 787 5 is_stmt 0 view .LVU329
ARM GAS  C:\Users\moham\AppData\Local\Temp\ccRDsC4I.s 			page 37


 1151 0046 326B     		ldr	r2, [r6, #48]
 1152 0048 42F00102 		orr	r2, r2, #1
 1153 004c 3263     		str	r2, [r6, #48]
 1154              		.loc 1 787 5 is_stmt 1 view .LVU330
 1155 004e 326B     		ldr	r2, [r6, #48]
 1156 0050 02F00102 		and	r2, r2, #1
 1157 0054 0192     		str	r2, [sp, #4]
 1158              		.loc 1 787 5 view .LVU331
 1159 0056 019A     		ldr	r2, [sp, #4]
 1160              	.LBE5:
 1161              		.loc 1 787 5 view .LVU332
 788:Drivers/STM32F4xx_HAL_Driver/Src/stm32f4xx_hal_rcc.c **** 
 789:Drivers/STM32F4xx_HAL_Driver/Src/stm32f4xx_hal_rcc.c ****     /* Configure the MCO1 pin in alternate function mode */
 790:Drivers/STM32F4xx_HAL_Driver/Src/stm32f4xx_hal_rcc.c ****     GPIO_InitStruct.Pin = MCO1_PIN;
 1162              		.loc 1 790 5 view .LVU333
 1163              		.loc 1 790 25 is_stmt 0 view .LVU334
 1164 0058 4FF48072 		mov	r2, #256
 1165 005c 0392     		str	r2, [sp, #12]
 791:Drivers/STM32F4xx_HAL_Driver/Src/stm32f4xx_hal_rcc.c ****     GPIO_InitStruct.Mode = GPIO_MODE_AF_PP;
 1166              		.loc 1 791 5 is_stmt 1 view .LVU335
 1167              		.loc 1 791 26 is_stmt 0 view .LVU336
 1168 005e 0222     		movs	r2, #2
 1169 0060 0492     		str	r2, [sp, #16]
 792:Drivers/STM32F4xx_HAL_Driver/Src/stm32f4xx_hal_rcc.c ****     GPIO_InitStruct.Speed = GPIO_SPEED_FREQ_VERY_HIGH;
 1170              		.loc 1 792 5 is_stmt 1 view .LVU337
 1171              		.loc 1 792 27 is_stmt 0 view .LVU338
 1172 0062 0322     		movs	r2, #3
 1173 0064 0692     		str	r2, [sp, #24]
 793:Drivers/STM32F4xx_HAL_Driver/Src/stm32f4xx_hal_rcc.c ****     GPIO_InitStruct.Pull = GPIO_NOPULL;
 1174              		.loc 1 793 5 is_stmt 1 view .LVU339
 1175              		.loc 1 793 26 is_stmt 0 view .LVU340
 1176 0066 0593     		str	r3, [sp, #20]
 794:Drivers/STM32F4xx_HAL_Driver/Src/stm32f4xx_hal_rcc.c ****     GPIO_InitStruct.Alternate = GPIO_AF0_MCO;
 1177              		.loc 1 794 5 is_stmt 1 view .LVU341
 1178              		.loc 1 794 31 is_stmt 0 view .LVU342
 1179 0068 0793     		str	r3, [sp, #28]
 795:Drivers/STM32F4xx_HAL_Driver/Src/stm32f4xx_hal_rcc.c ****     HAL_GPIO_Init(MCO1_GPIO_PORT, &GPIO_InitStruct);
 1180              		.loc 1 795 5 is_stmt 1 view .LVU343
 1181 006a 03A9     		add	r1, sp, #12
 1182 006c 2748     		ldr	r0, .L132+4
 1183 006e FFF7FEFF 		bl	HAL_GPIO_Init
 1184              	.LVL81:
 796:Drivers/STM32F4xx_HAL_Driver/Src/stm32f4xx_hal_rcc.c **** 
 797:Drivers/STM32F4xx_HAL_Driver/Src/stm32f4xx_hal_rcc.c ****     /* Mask MCO1 and MCO1PRE[2:0] bits then Select MCO1 clock source and prescaler */
 798:Drivers/STM32F4xx_HAL_Driver/Src/stm32f4xx_hal_rcc.c ****     MODIFY_REG(RCC->CFGR, (RCC_CFGR_MCO1 | RCC_CFGR_MCO1PRE), (RCC_MCOSource | RCC_MCODiv));
 1185              		.loc 1 798 5 view .LVU344
 1186 0072 B368     		ldr	r3, [r6, #8]
 1187 0074 23F0EC63 		bic	r3, r3, #123731968
 1188 0078 2C43     		orrs	r4, r4, r5
 1189              	.LVL82:
 1190              		.loc 1 798 5 is_stmt 0 view .LVU345
 1191 007a 1C43     		orrs	r4, r4, r3
 1192 007c B460     		str	r4, [r6, #8]
 1193              	.LVL83:
 1194              	.L120:
 799:Drivers/STM32F4xx_HAL_Driver/Src/stm32f4xx_hal_rcc.c **** 
 800:Drivers/STM32F4xx_HAL_Driver/Src/stm32f4xx_hal_rcc.c ****     /* This RCC MCO1 enable feature is available only on STM32F410xx devices */
ARM GAS  C:\Users\moham\AppData\Local\Temp\ccRDsC4I.s 			page 38


 801:Drivers/STM32F4xx_HAL_Driver/Src/stm32f4xx_hal_rcc.c **** #if defined(RCC_CFGR_MCO1EN)
 802:Drivers/STM32F4xx_HAL_Driver/Src/stm32f4xx_hal_rcc.c ****     __HAL_RCC_MCO1_ENABLE();
 803:Drivers/STM32F4xx_HAL_Driver/Src/stm32f4xx_hal_rcc.c **** #endif /* RCC_CFGR_MCO1EN */
 804:Drivers/STM32F4xx_HAL_Driver/Src/stm32f4xx_hal_rcc.c ****   }
 805:Drivers/STM32F4xx_HAL_Driver/Src/stm32f4xx_hal_rcc.c **** #if defined(RCC_CFGR_MCO2)
 806:Drivers/STM32F4xx_HAL_Driver/Src/stm32f4xx_hal_rcc.c ****   else
 807:Drivers/STM32F4xx_HAL_Driver/Src/stm32f4xx_hal_rcc.c ****   {
 808:Drivers/STM32F4xx_HAL_Driver/Src/stm32f4xx_hal_rcc.c ****     assert_param(IS_RCC_MCO2SOURCE(RCC_MCOSource));
 809:Drivers/STM32F4xx_HAL_Driver/Src/stm32f4xx_hal_rcc.c **** 
 810:Drivers/STM32F4xx_HAL_Driver/Src/stm32f4xx_hal_rcc.c ****     /* MCO2 Clock Enable */
 811:Drivers/STM32F4xx_HAL_Driver/Src/stm32f4xx_hal_rcc.c ****     __MCO2_CLK_ENABLE();
 812:Drivers/STM32F4xx_HAL_Driver/Src/stm32f4xx_hal_rcc.c **** 
 813:Drivers/STM32F4xx_HAL_Driver/Src/stm32f4xx_hal_rcc.c ****     /* Configure the MCO2 pin in alternate function mode */
 814:Drivers/STM32F4xx_HAL_Driver/Src/stm32f4xx_hal_rcc.c ****     GPIO_InitStruct.Pin = MCO2_PIN;
 815:Drivers/STM32F4xx_HAL_Driver/Src/stm32f4xx_hal_rcc.c ****     GPIO_InitStruct.Mode = GPIO_MODE_AF_PP;
 816:Drivers/STM32F4xx_HAL_Driver/Src/stm32f4xx_hal_rcc.c ****     GPIO_InitStruct.Speed = GPIO_SPEED_FREQ_VERY_HIGH;
 817:Drivers/STM32F4xx_HAL_Driver/Src/stm32f4xx_hal_rcc.c ****     GPIO_InitStruct.Pull = GPIO_NOPULL;
 818:Drivers/STM32F4xx_HAL_Driver/Src/stm32f4xx_hal_rcc.c ****     GPIO_InitStruct.Alternate = GPIO_AF0_MCO;
 819:Drivers/STM32F4xx_HAL_Driver/Src/stm32f4xx_hal_rcc.c ****     HAL_GPIO_Init(MCO2_GPIO_PORT, &GPIO_InitStruct);
 820:Drivers/STM32F4xx_HAL_Driver/Src/stm32f4xx_hal_rcc.c **** 
 821:Drivers/STM32F4xx_HAL_Driver/Src/stm32f4xx_hal_rcc.c ****     /* Mask MCO2 and MCO2PRE[2:0] bits then Select MCO2 clock source and prescaler */
 822:Drivers/STM32F4xx_HAL_Driver/Src/stm32f4xx_hal_rcc.c ****     MODIFY_REG(RCC->CFGR, (RCC_CFGR_MCO2 | RCC_CFGR_MCO2PRE), (RCC_MCOSource | (RCC_MCODiv << 3U)))
 823:Drivers/STM32F4xx_HAL_Driver/Src/stm32f4xx_hal_rcc.c **** 
 824:Drivers/STM32F4xx_HAL_Driver/Src/stm32f4xx_hal_rcc.c ****     /* This RCC MCO2 enable feature is available only on STM32F410Rx devices */
 825:Drivers/STM32F4xx_HAL_Driver/Src/stm32f4xx_hal_rcc.c **** #if defined(RCC_CFGR_MCO2EN)
 826:Drivers/STM32F4xx_HAL_Driver/Src/stm32f4xx_hal_rcc.c ****     __HAL_RCC_MCO2_ENABLE();
 827:Drivers/STM32F4xx_HAL_Driver/Src/stm32f4xx_hal_rcc.c **** #endif /* RCC_CFGR_MCO2EN */
 828:Drivers/STM32F4xx_HAL_Driver/Src/stm32f4xx_hal_rcc.c ****   }
 829:Drivers/STM32F4xx_HAL_Driver/Src/stm32f4xx_hal_rcc.c **** #endif /* RCC_CFGR_MCO2 */
 830:Drivers/STM32F4xx_HAL_Driver/Src/stm32f4xx_hal_rcc.c **** }
 1195              		.loc 1 830 1 view .LVU346
 1196 007e 08B0     		add	sp, sp, #32
 1197              	.LCFI8:
 1198              		.cfi_remember_state
 1199              		.cfi_def_cfa_offset 16
 1200              		@ sp needed
 1201 0080 70BD     		pop	{r4, r5, r6, pc}
 1202              	.LVL84:
 1203              	.L128:
 1204              	.LCFI9:
 1205              		.cfi_restore_state
 779:Drivers/STM32F4xx_HAL_Driver/Src/stm32f4xx_hal_rcc.c ****   assert_param(IS_RCC_MCODIV(RCC_MCODiv));
 1206              		.loc 1 779 3 discriminator 1 view .LVU347
 1207 0082 40F20B31 		movw	r1, #779
 1208              	.LVL85:
 779:Drivers/STM32F4xx_HAL_Driver/Src/stm32f4xx_hal_rcc.c ****   assert_param(IS_RCC_MCODIV(RCC_MCODiv));
 1209              		.loc 1 779 3 discriminator 1 view .LVU348
 1210 0086 2248     		ldr	r0, .L132+8
 1211              	.LVL86:
 779:Drivers/STM32F4xx_HAL_Driver/Src/stm32f4xx_hal_rcc.c ****   assert_param(IS_RCC_MCODIV(RCC_MCODiv));
 1212              		.loc 1 779 3 discriminator 1 view .LVU349
 1213 0088 FFF7FEFF 		bl	assert_failed
 1214              	.LVL87:
 779:Drivers/STM32F4xx_HAL_Driver/Src/stm32f4xx_hal_rcc.c ****   assert_param(IS_RCC_MCODIV(RCC_MCODiv));
 1215              		.loc 1 779 3 discriminator 1 view .LVU350
 1216 008c BFE7     		b	.L121
 1217              	.L129:
ARM GAS  C:\Users\moham\AppData\Local\Temp\ccRDsC4I.s 			page 39


 780:Drivers/STM32F4xx_HAL_Driver/Src/stm32f4xx_hal_rcc.c ****   /* RCC_MCO1 */
 1218              		.loc 1 780 3 discriminator 5 view .LVU351
 1219 008e 4FF44371 		mov	r1, #780
 1220 0092 1F48     		ldr	r0, .L132+8
 1221 0094 FFF7FEFF 		bl	assert_failed
 1222              	.LVL88:
 1223 0098 C6E7     		b	.L122
 1224              	.L130:
 784:Drivers/STM32F4xx_HAL_Driver/Src/stm32f4xx_hal_rcc.c **** 
 1225              		.loc 1 784 5 discriminator 4 view .LVU352
 1226 009a 4FF44471 		mov	r1, #784
 1227 009e 1C48     		ldr	r0, .L132+8
 1228 00a0 FFF7FEFF 		bl	assert_failed
 1229              	.LVL89:
 1230 00a4 CCE7     		b	.L124
 1231              	.L123:
 808:Drivers/STM32F4xx_HAL_Driver/Src/stm32f4xx_hal_rcc.c **** 
 1232              		.loc 1 808 5 is_stmt 1 view .LVU353
 1233 00a6 45B1     		cbz	r5, .L126
 808:Drivers/STM32F4xx_HAL_Driver/Src/stm32f4xx_hal_rcc.c **** 
 1234              		.loc 1 808 5 is_stmt 0 discriminator 1 view .LVU354
 1235 00a8 B5F1804F 		cmp	r5, #1073741824
 1236 00ac 05D0     		beq	.L126
 808:Drivers/STM32F4xx_HAL_Driver/Src/stm32f4xx_hal_rcc.c **** 
 1237              		.loc 1 808 5 discriminator 2 view .LVU355
 1238 00ae B5F1004F 		cmp	r5, #-2147483648
 1239 00b2 02D0     		beq	.L126
 808:Drivers/STM32F4xx_HAL_Driver/Src/stm32f4xx_hal_rcc.c **** 
 1240              		.loc 1 808 5 discriminator 3 view .LVU356
 1241 00b4 B5F1404F 		cmp	r5, #-1073741824
 1242 00b8 20D1     		bne	.L131
 1243              	.L126:
 811:Drivers/STM32F4xx_HAL_Driver/Src/stm32f4xx_hal_rcc.c **** 
 1244              		.loc 1 811 5 is_stmt 1 view .LVU357
 1245              	.LBB6:
 811:Drivers/STM32F4xx_HAL_Driver/Src/stm32f4xx_hal_rcc.c **** 
 1246              		.loc 1 811 5 view .LVU358
 1247 00ba 0023     		movs	r3, #0
 1248 00bc 0293     		str	r3, [sp, #8]
 811:Drivers/STM32F4xx_HAL_Driver/Src/stm32f4xx_hal_rcc.c **** 
 1249              		.loc 1 811 5 view .LVU359
 1250 00be 124E     		ldr	r6, .L132
 1251              	.LVL90:
 811:Drivers/STM32F4xx_HAL_Driver/Src/stm32f4xx_hal_rcc.c **** 
 1252              		.loc 1 811 5 is_stmt 0 view .LVU360
 1253 00c0 326B     		ldr	r2, [r6, #48]
 1254 00c2 42F00402 		orr	r2, r2, #4
 1255 00c6 3263     		str	r2, [r6, #48]
 811:Drivers/STM32F4xx_HAL_Driver/Src/stm32f4xx_hal_rcc.c **** 
 1256              		.loc 1 811 5 is_stmt 1 view .LVU361
 1257 00c8 326B     		ldr	r2, [r6, #48]
 1258 00ca 02F00402 		and	r2, r2, #4
 1259 00ce 0292     		str	r2, [sp, #8]
 811:Drivers/STM32F4xx_HAL_Driver/Src/stm32f4xx_hal_rcc.c **** 
 1260              		.loc 1 811 5 view .LVU362
 1261 00d0 029A     		ldr	r2, [sp, #8]
 1262              	.LBE6:
ARM GAS  C:\Users\moham\AppData\Local\Temp\ccRDsC4I.s 			page 40


 811:Drivers/STM32F4xx_HAL_Driver/Src/stm32f4xx_hal_rcc.c **** 
 1263              		.loc 1 811 5 view .LVU363
 814:Drivers/STM32F4xx_HAL_Driver/Src/stm32f4xx_hal_rcc.c ****     GPIO_InitStruct.Mode = GPIO_MODE_AF_PP;
 1264              		.loc 1 814 5 view .LVU364
 814:Drivers/STM32F4xx_HAL_Driver/Src/stm32f4xx_hal_rcc.c ****     GPIO_InitStruct.Mode = GPIO_MODE_AF_PP;
 1265              		.loc 1 814 25 is_stmt 0 view .LVU365
 1266 00d2 4FF40072 		mov	r2, #512
 1267 00d6 0392     		str	r2, [sp, #12]
 815:Drivers/STM32F4xx_HAL_Driver/Src/stm32f4xx_hal_rcc.c ****     GPIO_InitStruct.Speed = GPIO_SPEED_FREQ_VERY_HIGH;
 1268              		.loc 1 815 5 is_stmt 1 view .LVU366
 815:Drivers/STM32F4xx_HAL_Driver/Src/stm32f4xx_hal_rcc.c ****     GPIO_InitStruct.Speed = GPIO_SPEED_FREQ_VERY_HIGH;
 1269              		.loc 1 815 26 is_stmt 0 view .LVU367
 1270 00d8 0222     		movs	r2, #2
 1271 00da 0492     		str	r2, [sp, #16]
 816:Drivers/STM32F4xx_HAL_Driver/Src/stm32f4xx_hal_rcc.c ****     GPIO_InitStruct.Pull = GPIO_NOPULL;
 1272              		.loc 1 816 5 is_stmt 1 view .LVU368
 816:Drivers/STM32F4xx_HAL_Driver/Src/stm32f4xx_hal_rcc.c ****     GPIO_InitStruct.Pull = GPIO_NOPULL;
 1273              		.loc 1 816 27 is_stmt 0 view .LVU369
 1274 00dc 0322     		movs	r2, #3
 1275 00de 0692     		str	r2, [sp, #24]
 817:Drivers/STM32F4xx_HAL_Driver/Src/stm32f4xx_hal_rcc.c ****     GPIO_InitStruct.Alternate = GPIO_AF0_MCO;
 1276              		.loc 1 817 5 is_stmt 1 view .LVU370
 817:Drivers/STM32F4xx_HAL_Driver/Src/stm32f4xx_hal_rcc.c ****     GPIO_InitStruct.Alternate = GPIO_AF0_MCO;
 1277              		.loc 1 817 26 is_stmt 0 view .LVU371
 1278 00e0 0593     		str	r3, [sp, #20]
 818:Drivers/STM32F4xx_HAL_Driver/Src/stm32f4xx_hal_rcc.c ****     HAL_GPIO_Init(MCO2_GPIO_PORT, &GPIO_InitStruct);
 1279              		.loc 1 818 5 is_stmt 1 view .LVU372
 818:Drivers/STM32F4xx_HAL_Driver/Src/stm32f4xx_hal_rcc.c ****     HAL_GPIO_Init(MCO2_GPIO_PORT, &GPIO_InitStruct);
 1280              		.loc 1 818 31 is_stmt 0 view .LVU373
 1281 00e2 0793     		str	r3, [sp, #28]
 819:Drivers/STM32F4xx_HAL_Driver/Src/stm32f4xx_hal_rcc.c **** 
 1282              		.loc 1 819 5 is_stmt 1 view .LVU374
 1283 00e4 03A9     		add	r1, sp, #12
 1284 00e6 0B48     		ldr	r0, .L132+12
 1285 00e8 FFF7FEFF 		bl	HAL_GPIO_Init
 1286              	.LVL91:
 822:Drivers/STM32F4xx_HAL_Driver/Src/stm32f4xx_hal_rcc.c **** 
 1287              		.loc 1 822 5 view .LVU375
 1288 00ec B368     		ldr	r3, [r6, #8]
 1289 00ee 23F07843 		bic	r3, r3, #-134217728
 1290 00f2 45EAC405 		orr	r5, r5, r4, lsl #3
 1291              	.LVL92:
 822:Drivers/STM32F4xx_HAL_Driver/Src/stm32f4xx_hal_rcc.c **** 
 1292              		.loc 1 822 5 is_stmt 0 view .LVU376
 1293 00f6 2B43     		orrs	r3, r3, r5
 1294 00f8 B360     		str	r3, [r6, #8]
 1295              		.loc 1 830 1 view .LVU377
 1296 00fa C0E7     		b	.L120
 1297              	.LVL93:
 1298              	.L131:
 808:Drivers/STM32F4xx_HAL_Driver/Src/stm32f4xx_hal_rcc.c **** 
 1299              		.loc 1 808 5 discriminator 4 view .LVU378
 1300 00fc 4FF44A71 		mov	r1, #808
 1301 0100 0348     		ldr	r0, .L132+8
 1302 0102 FFF7FEFF 		bl	assert_failed
 1303              	.LVL94:
 1304 0106 D8E7     		b	.L126
ARM GAS  C:\Users\moham\AppData\Local\Temp\ccRDsC4I.s 			page 41


 1305              	.L133:
 1306              		.align	2
 1307              	.L132:
 1308 0108 00380240 		.word	1073887232
 1309 010c 00000240 		.word	1073872896
 1310 0110 00000000 		.word	.LC0
 1311 0114 00080240 		.word	1073874944
 1312              		.cfi_endproc
 1313              	.LFE242:
 1315              		.section	.text.HAL_RCC_EnableCSS,"ax",%progbits
 1316              		.align	1
 1317              		.global	HAL_RCC_EnableCSS
 1318              		.syntax unified
 1319              		.thumb
 1320              		.thumb_func
 1322              	HAL_RCC_EnableCSS:
 1323              	.LFB243:
 831:Drivers/STM32F4xx_HAL_Driver/Src/stm32f4xx_hal_rcc.c **** 
 832:Drivers/STM32F4xx_HAL_Driver/Src/stm32f4xx_hal_rcc.c **** /**
 833:Drivers/STM32F4xx_HAL_Driver/Src/stm32f4xx_hal_rcc.c ****   * @brief  Enables the Clock Security System.
 834:Drivers/STM32F4xx_HAL_Driver/Src/stm32f4xx_hal_rcc.c ****   * @note   If a failure is detected on the HSE oscillator clock, this oscillator
 835:Drivers/STM32F4xx_HAL_Driver/Src/stm32f4xx_hal_rcc.c ****   *         is automatically disabled and an interrupt is generated to inform the
 836:Drivers/STM32F4xx_HAL_Driver/Src/stm32f4xx_hal_rcc.c ****   *         software about the failure (Clock Security System Interrupt, CSSI),
 837:Drivers/STM32F4xx_HAL_Driver/Src/stm32f4xx_hal_rcc.c ****   *         allowing the MCU to perform rescue operations. The CSSI is linked to
 838:Drivers/STM32F4xx_HAL_Driver/Src/stm32f4xx_hal_rcc.c ****   *         the Cortex-M4 NMI (Non-Maskable Interrupt) exception vector.
 839:Drivers/STM32F4xx_HAL_Driver/Src/stm32f4xx_hal_rcc.c ****   * @retval None
 840:Drivers/STM32F4xx_HAL_Driver/Src/stm32f4xx_hal_rcc.c ****   */
 841:Drivers/STM32F4xx_HAL_Driver/Src/stm32f4xx_hal_rcc.c **** void HAL_RCC_EnableCSS(void)
 842:Drivers/STM32F4xx_HAL_Driver/Src/stm32f4xx_hal_rcc.c **** {
 1324              		.loc 1 842 1 is_stmt 1 view -0
 1325              		.cfi_startproc
 1326              		@ args = 0, pretend = 0, frame = 0
 1327              		@ frame_needed = 0, uses_anonymous_args = 0
 1328              		@ link register save eliminated.
 843:Drivers/STM32F4xx_HAL_Driver/Src/stm32f4xx_hal_rcc.c ****   *(__IO uint32_t *) RCC_CR_CSSON_BB = (uint32_t)ENABLE;
 1329              		.loc 1 843 3 view .LVU380
 1330              		.loc 1 843 38 is_stmt 0 view .LVU381
 1331 0000 014B     		ldr	r3, .L135
 1332 0002 0122     		movs	r2, #1
 1333 0004 DA64     		str	r2, [r3, #76]
 844:Drivers/STM32F4xx_HAL_Driver/Src/stm32f4xx_hal_rcc.c **** }
 1334              		.loc 1 844 1 view .LVU382
 1335 0006 7047     		bx	lr
 1336              	.L136:
 1337              		.align	2
 1338              	.L135:
 1339 0008 00004742 		.word	1111949312
 1340              		.cfi_endproc
 1341              	.LFE243:
 1343              		.section	.text.HAL_RCC_DisableCSS,"ax",%progbits
 1344              		.align	1
 1345              		.global	HAL_RCC_DisableCSS
 1346              		.syntax unified
 1347              		.thumb
 1348              		.thumb_func
 1350              	HAL_RCC_DisableCSS:
 1351              	.LFB244:
ARM GAS  C:\Users\moham\AppData\Local\Temp\ccRDsC4I.s 			page 42


 845:Drivers/STM32F4xx_HAL_Driver/Src/stm32f4xx_hal_rcc.c **** 
 846:Drivers/STM32F4xx_HAL_Driver/Src/stm32f4xx_hal_rcc.c **** /**
 847:Drivers/STM32F4xx_HAL_Driver/Src/stm32f4xx_hal_rcc.c ****   * @brief  Disables the Clock Security System.
 848:Drivers/STM32F4xx_HAL_Driver/Src/stm32f4xx_hal_rcc.c ****   * @retval None
 849:Drivers/STM32F4xx_HAL_Driver/Src/stm32f4xx_hal_rcc.c ****   */
 850:Drivers/STM32F4xx_HAL_Driver/Src/stm32f4xx_hal_rcc.c **** void HAL_RCC_DisableCSS(void)
 851:Drivers/STM32F4xx_HAL_Driver/Src/stm32f4xx_hal_rcc.c **** {
 1352              		.loc 1 851 1 is_stmt 1 view -0
 1353              		.cfi_startproc
 1354              		@ args = 0, pretend = 0, frame = 0
 1355              		@ frame_needed = 0, uses_anonymous_args = 0
 1356              		@ link register save eliminated.
 852:Drivers/STM32F4xx_HAL_Driver/Src/stm32f4xx_hal_rcc.c ****   *(__IO uint32_t *) RCC_CR_CSSON_BB = (uint32_t)DISABLE;
 1357              		.loc 1 852 3 view .LVU384
 1358              		.loc 1 852 38 is_stmt 0 view .LVU385
 1359 0000 014B     		ldr	r3, .L138
 1360 0002 0022     		movs	r2, #0
 1361 0004 DA64     		str	r2, [r3, #76]
 853:Drivers/STM32F4xx_HAL_Driver/Src/stm32f4xx_hal_rcc.c **** }
 1362              		.loc 1 853 1 view .LVU386
 1363 0006 7047     		bx	lr
 1364              	.L139:
 1365              		.align	2
 1366              	.L138:
 1367 0008 00004742 		.word	1111949312
 1368              		.cfi_endproc
 1369              	.LFE244:
 1371              		.section	.text.HAL_RCC_GetSysClockFreq,"ax",%progbits
 1372              		.align	1
 1373              		.weak	HAL_RCC_GetSysClockFreq
 1374              		.syntax unified
 1375              		.thumb
 1376              		.thumb_func
 1378              	HAL_RCC_GetSysClockFreq:
 1379              	.LFB245:
 854:Drivers/STM32F4xx_HAL_Driver/Src/stm32f4xx_hal_rcc.c **** 
 855:Drivers/STM32F4xx_HAL_Driver/Src/stm32f4xx_hal_rcc.c **** /**
 856:Drivers/STM32F4xx_HAL_Driver/Src/stm32f4xx_hal_rcc.c ****   * @brief  Returns the SYSCLK frequency
 857:Drivers/STM32F4xx_HAL_Driver/Src/stm32f4xx_hal_rcc.c ****   *
 858:Drivers/STM32F4xx_HAL_Driver/Src/stm32f4xx_hal_rcc.c ****   * @note   The system frequency computed by this function is not the real
 859:Drivers/STM32F4xx_HAL_Driver/Src/stm32f4xx_hal_rcc.c ****   *         frequency in the chip. It is calculated based on the predefined
 860:Drivers/STM32F4xx_HAL_Driver/Src/stm32f4xx_hal_rcc.c ****   *         constant and the selected clock source:
 861:Drivers/STM32F4xx_HAL_Driver/Src/stm32f4xx_hal_rcc.c ****   * @note     If SYSCLK source is HSI, function returns values based on HSI_VALUE(*)
 862:Drivers/STM32F4xx_HAL_Driver/Src/stm32f4xx_hal_rcc.c ****   * @note     If SYSCLK source is HSE, function returns values based on HSE_VALUE(**)
 863:Drivers/STM32F4xx_HAL_Driver/Src/stm32f4xx_hal_rcc.c ****   * @note     If SYSCLK source is PLL, function returns values based on HSE_VALUE(**)
 864:Drivers/STM32F4xx_HAL_Driver/Src/stm32f4xx_hal_rcc.c ****   *           or HSI_VALUE(*) multiplied/divided by the PLL factors.
 865:Drivers/STM32F4xx_HAL_Driver/Src/stm32f4xx_hal_rcc.c ****   * @note     (*) HSI_VALUE is a constant defined in stm32f4xx_hal_conf.h file (default value
 866:Drivers/STM32F4xx_HAL_Driver/Src/stm32f4xx_hal_rcc.c ****   *               16 MHz) but the real value may vary depending on the variations
 867:Drivers/STM32F4xx_HAL_Driver/Src/stm32f4xx_hal_rcc.c ****   *               in voltage and temperature.
 868:Drivers/STM32F4xx_HAL_Driver/Src/stm32f4xx_hal_rcc.c ****   * @note     (**) HSE_VALUE is a constant defined in stm32f4xx_hal_conf.h file (default value
 869:Drivers/STM32F4xx_HAL_Driver/Src/stm32f4xx_hal_rcc.c ****   *                25 MHz), user has to ensure that HSE_VALUE is same as the real
 870:Drivers/STM32F4xx_HAL_Driver/Src/stm32f4xx_hal_rcc.c ****   *                frequency of the crystal used. Otherwise, this function may
 871:Drivers/STM32F4xx_HAL_Driver/Src/stm32f4xx_hal_rcc.c ****   *                have wrong result.
 872:Drivers/STM32F4xx_HAL_Driver/Src/stm32f4xx_hal_rcc.c ****   *
 873:Drivers/STM32F4xx_HAL_Driver/Src/stm32f4xx_hal_rcc.c ****   * @note   The result of this function could be not correct when using fractional
 874:Drivers/STM32F4xx_HAL_Driver/Src/stm32f4xx_hal_rcc.c ****   *         value for HSE crystal.
 875:Drivers/STM32F4xx_HAL_Driver/Src/stm32f4xx_hal_rcc.c ****   *
ARM GAS  C:\Users\moham\AppData\Local\Temp\ccRDsC4I.s 			page 43


 876:Drivers/STM32F4xx_HAL_Driver/Src/stm32f4xx_hal_rcc.c ****   * @note   This function can be used by the user application to compute the
 877:Drivers/STM32F4xx_HAL_Driver/Src/stm32f4xx_hal_rcc.c ****   *         baudrate for the communication peripherals or configure other parameters.
 878:Drivers/STM32F4xx_HAL_Driver/Src/stm32f4xx_hal_rcc.c ****   *
 879:Drivers/STM32F4xx_HAL_Driver/Src/stm32f4xx_hal_rcc.c ****   * @note   Each time SYSCLK changes, this function must be called to update the
 880:Drivers/STM32F4xx_HAL_Driver/Src/stm32f4xx_hal_rcc.c ****   *         right SYSCLK value. Otherwise, any configuration based on this function will be incorre
 881:Drivers/STM32F4xx_HAL_Driver/Src/stm32f4xx_hal_rcc.c ****   *
 882:Drivers/STM32F4xx_HAL_Driver/Src/stm32f4xx_hal_rcc.c ****   *
 883:Drivers/STM32F4xx_HAL_Driver/Src/stm32f4xx_hal_rcc.c ****   * @retval SYSCLK frequency
 884:Drivers/STM32F4xx_HAL_Driver/Src/stm32f4xx_hal_rcc.c ****   */
 885:Drivers/STM32F4xx_HAL_Driver/Src/stm32f4xx_hal_rcc.c **** __weak uint32_t HAL_RCC_GetSysClockFreq(void)
 886:Drivers/STM32F4xx_HAL_Driver/Src/stm32f4xx_hal_rcc.c **** {
 1380              		.loc 1 886 1 is_stmt 1 view -0
 1381              		.cfi_startproc
 1382              		@ args = 0, pretend = 0, frame = 0
 1383              		@ frame_needed = 0, uses_anonymous_args = 0
 1384 0000 08B5     		push	{r3, lr}
 1385              	.LCFI10:
 1386              		.cfi_def_cfa_offset 8
 1387              		.cfi_offset 3, -8
 1388              		.cfi_offset 14, -4
 887:Drivers/STM32F4xx_HAL_Driver/Src/stm32f4xx_hal_rcc.c ****   uint32_t pllm = 0U;
 1389              		.loc 1 887 3 view .LVU388
 1390              	.LVL95:
 888:Drivers/STM32F4xx_HAL_Driver/Src/stm32f4xx_hal_rcc.c ****   uint32_t pllvco = 0U;
 1391              		.loc 1 888 3 view .LVU389
 889:Drivers/STM32F4xx_HAL_Driver/Src/stm32f4xx_hal_rcc.c ****   uint32_t pllp = 0U;
 1392              		.loc 1 889 3 view .LVU390
 890:Drivers/STM32F4xx_HAL_Driver/Src/stm32f4xx_hal_rcc.c ****   uint32_t sysclockfreq = 0U;
 1393              		.loc 1 890 3 view .LVU391
 891:Drivers/STM32F4xx_HAL_Driver/Src/stm32f4xx_hal_rcc.c **** 
 892:Drivers/STM32F4xx_HAL_Driver/Src/stm32f4xx_hal_rcc.c ****   /* Get SYSCLK source -------------------------------------------------------*/
 893:Drivers/STM32F4xx_HAL_Driver/Src/stm32f4xx_hal_rcc.c ****   switch (RCC->CFGR & RCC_CFGR_SWS)
 1394              		.loc 1 893 3 view .LVU392
 1395              		.loc 1 893 14 is_stmt 0 view .LVU393
 1396 0002 334B     		ldr	r3, .L147
 1397 0004 9B68     		ldr	r3, [r3, #8]
 1398              		.loc 1 893 21 view .LVU394
 1399 0006 03F00C03 		and	r3, r3, #12
 1400              		.loc 1 893 3 view .LVU395
 1401 000a 042B     		cmp	r3, #4
 1402 000c 5BD0     		beq	.L144
 1403 000e 082B     		cmp	r3, #8
 1404 0010 5BD1     		bne	.L145
 894:Drivers/STM32F4xx_HAL_Driver/Src/stm32f4xx_hal_rcc.c ****   {
 895:Drivers/STM32F4xx_HAL_Driver/Src/stm32f4xx_hal_rcc.c ****     case RCC_CFGR_SWS_HSI:  /* HSI used as system clock source */
 896:Drivers/STM32F4xx_HAL_Driver/Src/stm32f4xx_hal_rcc.c ****     {
 897:Drivers/STM32F4xx_HAL_Driver/Src/stm32f4xx_hal_rcc.c ****       sysclockfreq = HSI_VALUE;
 898:Drivers/STM32F4xx_HAL_Driver/Src/stm32f4xx_hal_rcc.c ****       break;
 899:Drivers/STM32F4xx_HAL_Driver/Src/stm32f4xx_hal_rcc.c ****     }
 900:Drivers/STM32F4xx_HAL_Driver/Src/stm32f4xx_hal_rcc.c ****     case RCC_CFGR_SWS_HSE:  /* HSE used as system clock  source */
 901:Drivers/STM32F4xx_HAL_Driver/Src/stm32f4xx_hal_rcc.c ****     {
 902:Drivers/STM32F4xx_HAL_Driver/Src/stm32f4xx_hal_rcc.c ****       sysclockfreq = HSE_VALUE;
 903:Drivers/STM32F4xx_HAL_Driver/Src/stm32f4xx_hal_rcc.c ****       break;
 904:Drivers/STM32F4xx_HAL_Driver/Src/stm32f4xx_hal_rcc.c ****     }
 905:Drivers/STM32F4xx_HAL_Driver/Src/stm32f4xx_hal_rcc.c ****     case RCC_CFGR_SWS_PLL:  /* PLL used as system clock  source */
 906:Drivers/STM32F4xx_HAL_Driver/Src/stm32f4xx_hal_rcc.c ****     {
 907:Drivers/STM32F4xx_HAL_Driver/Src/stm32f4xx_hal_rcc.c ****       /* PLL_VCO = (HSE_VALUE or HSI_VALUE / PLLM) * PLLN
ARM GAS  C:\Users\moham\AppData\Local\Temp\ccRDsC4I.s 			page 44


 908:Drivers/STM32F4xx_HAL_Driver/Src/stm32f4xx_hal_rcc.c ****       SYSCLK = PLL_VCO / PLLP */
 909:Drivers/STM32F4xx_HAL_Driver/Src/stm32f4xx_hal_rcc.c ****       pllm = RCC->PLLCFGR & RCC_PLLCFGR_PLLM;
 1405              		.loc 1 909 7 is_stmt 1 view .LVU396
 1406              		.loc 1 909 17 is_stmt 0 view .LVU397
 1407 0012 2F4B     		ldr	r3, .L147
 1408 0014 5A68     		ldr	r2, [r3, #4]
 1409              		.loc 1 909 12 view .LVU398
 1410 0016 02F03F02 		and	r2, r2, #63
 1411              	.LVL96:
 910:Drivers/STM32F4xx_HAL_Driver/Src/stm32f4xx_hal_rcc.c ****       if (__HAL_RCC_GET_PLL_OSCSOURCE() != RCC_PLLSOURCE_HSI)
 1412              		.loc 1 910 7 is_stmt 1 view .LVU399
 1413              		.loc 1 910 11 is_stmt 0 view .LVU400
 1414 001a 5B68     		ldr	r3, [r3, #4]
 1415              		.loc 1 910 10 view .LVU401
 1416 001c 13F4800F 		tst	r3, #4194304
 1417 0020 2CD0     		beq	.L142
 911:Drivers/STM32F4xx_HAL_Driver/Src/stm32f4xx_hal_rcc.c ****       {
 912:Drivers/STM32F4xx_HAL_Driver/Src/stm32f4xx_hal_rcc.c ****         /* HSE used as PLL clock source */
 913:Drivers/STM32F4xx_HAL_Driver/Src/stm32f4xx_hal_rcc.c ****         pllvco = (uint32_t)((((uint64_t) HSE_VALUE * ((uint64_t)((RCC->PLLCFGR & RCC_PLLCFGR_PLLN) 
 1418              		.loc 1 913 9 is_stmt 1 view .LVU402
 1419              		.loc 1 913 70 is_stmt 0 view .LVU403
 1420 0022 2B4B     		ldr	r3, .L147
 1421 0024 5868     		ldr	r0, [r3, #4]
 1422              		.loc 1 913 55 view .LVU404
 1423 0026 C0F38810 		ubfx	r0, r0, #6, #9
 1424              		.loc 1 913 52 view .LVU405
 1425 002a 4FEA401C 		lsl	ip, r0, #5
 1426 002e BCEB000C 		subs	ip, ip, r0
 1427 0032 6EEB0E0E 		sbc	lr, lr, lr
 1428 0036 4FEA8E13 		lsl	r3, lr, #6
 1429 003a 43EA9C63 		orr	r3, r3, ip, lsr #26
 1430 003e 4FEA8C11 		lsl	r1, ip, #6
 1431 0042 B1EB0C01 		subs	r1, r1, ip
 1432 0046 63EB0E03 		sbc	r3, r3, lr
 1433 004a DB00     		lsls	r3, r3, #3
 1434 004c 43EA5173 		orr	r3, r3, r1, lsr #29
 1435 0050 C900     		lsls	r1, r1, #3
 1436 0052 11EB000C 		adds	ip, r1, r0
 1437 0056 43F10003 		adc	r3, r3, #0
 1438 005a 5902     		lsls	r1, r3, #9
 1439              		.loc 1 913 128 view .LVU406
 1440 005c 0023     		movs	r3, #0
 1441 005e 4FEA4C20 		lsl	r0, ip, #9
 1442 0062 41EADC51 		orr	r1, r1, ip, lsr #23
 1443 0066 FFF7FEFF 		bl	__aeabi_uldivmod
 1444              	.LVL97:
 1445              	.L143:
 914:Drivers/STM32F4xx_HAL_Driver/Src/stm32f4xx_hal_rcc.c ****       }
 915:Drivers/STM32F4xx_HAL_Driver/Src/stm32f4xx_hal_rcc.c ****       else
 916:Drivers/STM32F4xx_HAL_Driver/Src/stm32f4xx_hal_rcc.c ****       {
 917:Drivers/STM32F4xx_HAL_Driver/Src/stm32f4xx_hal_rcc.c ****         /* HSI used as PLL clock source */
 918:Drivers/STM32F4xx_HAL_Driver/Src/stm32f4xx_hal_rcc.c ****         pllvco = (uint32_t)((((uint64_t) HSI_VALUE * ((uint64_t)((RCC->PLLCFGR & RCC_PLLCFGR_PLLN) 
 919:Drivers/STM32F4xx_HAL_Driver/Src/stm32f4xx_hal_rcc.c ****       }
 920:Drivers/STM32F4xx_HAL_Driver/Src/stm32f4xx_hal_rcc.c ****       pllp = ((((RCC->PLLCFGR & RCC_PLLCFGR_PLLP) >> RCC_PLLCFGR_PLLP_Pos) + 1U) * 2U);
 1446              		.loc 1 920 7 is_stmt 1 view .LVU407
 1447              		.loc 1 920 21 is_stmt 0 view .LVU408
 1448 006a 194B     		ldr	r3, .L147
ARM GAS  C:\Users\moham\AppData\Local\Temp\ccRDsC4I.s 			page 45


 1449 006c 5B68     		ldr	r3, [r3, #4]
 1450              		.loc 1 920 51 view .LVU409
 1451 006e C3F30143 		ubfx	r3, r3, #16, #2
 1452              		.loc 1 920 76 view .LVU410
 1453 0072 0133     		adds	r3, r3, #1
 1454              		.loc 1 920 12 view .LVU411
 1455 0074 5B00     		lsls	r3, r3, #1
 1456              	.LVL98:
 921:Drivers/STM32F4xx_HAL_Driver/Src/stm32f4xx_hal_rcc.c **** 
 922:Drivers/STM32F4xx_HAL_Driver/Src/stm32f4xx_hal_rcc.c ****       sysclockfreq = pllvco / pllp;
 1457              		.loc 1 922 7 is_stmt 1 view .LVU412
 1458              		.loc 1 922 20 is_stmt 0 view .LVU413
 1459 0076 B0FBF3F0 		udiv	r0, r0, r3
 1460              	.LVL99:
 923:Drivers/STM32F4xx_HAL_Driver/Src/stm32f4xx_hal_rcc.c ****       break;
 1461              		.loc 1 923 7 is_stmt 1 view .LVU414
 1462              	.L140:
 924:Drivers/STM32F4xx_HAL_Driver/Src/stm32f4xx_hal_rcc.c ****     }
 925:Drivers/STM32F4xx_HAL_Driver/Src/stm32f4xx_hal_rcc.c ****     default:
 926:Drivers/STM32F4xx_HAL_Driver/Src/stm32f4xx_hal_rcc.c ****     {
 927:Drivers/STM32F4xx_HAL_Driver/Src/stm32f4xx_hal_rcc.c ****       sysclockfreq = HSI_VALUE;
 928:Drivers/STM32F4xx_HAL_Driver/Src/stm32f4xx_hal_rcc.c ****       break;
 929:Drivers/STM32F4xx_HAL_Driver/Src/stm32f4xx_hal_rcc.c ****     }
 930:Drivers/STM32F4xx_HAL_Driver/Src/stm32f4xx_hal_rcc.c ****   }
 931:Drivers/STM32F4xx_HAL_Driver/Src/stm32f4xx_hal_rcc.c ****   return sysclockfreq;
 932:Drivers/STM32F4xx_HAL_Driver/Src/stm32f4xx_hal_rcc.c **** }
 1463              		.loc 1 932 1 is_stmt 0 view .LVU415
 1464 007a 08BD     		pop	{r3, pc}
 1465              	.LVL100:
 1466              	.L142:
 918:Drivers/STM32F4xx_HAL_Driver/Src/stm32f4xx_hal_rcc.c ****       }
 1467              		.loc 1 918 9 is_stmt 1 view .LVU416
 918:Drivers/STM32F4xx_HAL_Driver/Src/stm32f4xx_hal_rcc.c ****       }
 1468              		.loc 1 918 70 is_stmt 0 view .LVU417
 1469 007c 144B     		ldr	r3, .L147
 1470 007e 5868     		ldr	r0, [r3, #4]
 918:Drivers/STM32F4xx_HAL_Driver/Src/stm32f4xx_hal_rcc.c ****       }
 1471              		.loc 1 918 55 view .LVU418
 1472 0080 C0F38810 		ubfx	r0, r0, #6, #9
 918:Drivers/STM32F4xx_HAL_Driver/Src/stm32f4xx_hal_rcc.c ****       }
 1473              		.loc 1 918 52 view .LVU419
 1474 0084 4FEA401C 		lsl	ip, r0, #5
 1475 0088 BCEB000C 		subs	ip, ip, r0
 1476 008c 6EEB0E0E 		sbc	lr, lr, lr
 1477 0090 4FEA8E13 		lsl	r3, lr, #6
 1478 0094 43EA9C63 		orr	r3, r3, ip, lsr #26
 1479 0098 4FEA8C11 		lsl	r1, ip, #6
 1480 009c B1EB0C01 		subs	r1, r1, ip
 1481 00a0 63EB0E03 		sbc	r3, r3, lr
 1482 00a4 DB00     		lsls	r3, r3, #3
 1483 00a6 43EA5173 		orr	r3, r3, r1, lsr #29
 1484 00aa C900     		lsls	r1, r1, #3
 1485 00ac 11EB000C 		adds	ip, r1, r0
 1486 00b0 43F10003 		adc	r3, r3, #0
 1487 00b4 9902     		lsls	r1, r3, #10
 918:Drivers/STM32F4xx_HAL_Driver/Src/stm32f4xx_hal_rcc.c ****       }
 1488              		.loc 1 918 128 view .LVU420
ARM GAS  C:\Users\moham\AppData\Local\Temp\ccRDsC4I.s 			page 46


 1489 00b6 0023     		movs	r3, #0
 1490 00b8 4FEA8C20 		lsl	r0, ip, #10
 1491 00bc 41EA9C51 		orr	r1, r1, ip, lsr #22
 1492 00c0 FFF7FEFF 		bl	__aeabi_uldivmod
 1493              	.LVL101:
 918:Drivers/STM32F4xx_HAL_Driver/Src/stm32f4xx_hal_rcc.c ****       }
 1494              		.loc 1 918 128 view .LVU421
 1495 00c4 D1E7     		b	.L143
 1496              	.LVL102:
 1497              	.L144:
 902:Drivers/STM32F4xx_HAL_Driver/Src/stm32f4xx_hal_rcc.c ****       break;
 1498              		.loc 1 902 20 view .LVU422
 1499 00c6 0348     		ldr	r0, .L147+4
 1500 00c8 D7E7     		b	.L140
 1501              	.L145:
 893:Drivers/STM32F4xx_HAL_Driver/Src/stm32f4xx_hal_rcc.c ****   {
 1502              		.loc 1 893 3 view .LVU423
 1503 00ca 0348     		ldr	r0, .L147+8
 1504              	.LVL103:
 931:Drivers/STM32F4xx_HAL_Driver/Src/stm32f4xx_hal_rcc.c **** }
 1505              		.loc 1 931 3 is_stmt 1 view .LVU424
 931:Drivers/STM32F4xx_HAL_Driver/Src/stm32f4xx_hal_rcc.c **** }
 1506              		.loc 1 931 10 is_stmt 0 view .LVU425
 1507 00cc D5E7     		b	.L140
 1508              	.L148:
 1509 00ce 00BF     		.align	2
 1510              	.L147:
 1511 00d0 00380240 		.word	1073887232
 1512 00d4 00127A00 		.word	8000000
 1513 00d8 0024F400 		.word	16000000
 1514              		.cfi_endproc
 1515              	.LFE245:
 1517              		.section	.text.HAL_RCC_ClockConfig,"ax",%progbits
 1518              		.align	1
 1519              		.global	HAL_RCC_ClockConfig
 1520              		.syntax unified
 1521              		.thumb
 1522              		.thumb_func
 1524              	HAL_RCC_ClockConfig:
 1525              	.LVL104:
 1526              	.LFB241:
 592:Drivers/STM32F4xx_HAL_Driver/Src/stm32f4xx_hal_rcc.c ****   uint32_t tickstart;
 1527              		.loc 1 592 1 is_stmt 1 view -0
 1528              		.cfi_startproc
 1529              		@ args = 0, pretend = 0, frame = 0
 1530              		@ frame_needed = 0, uses_anonymous_args = 0
 593:Drivers/STM32F4xx_HAL_Driver/Src/stm32f4xx_hal_rcc.c **** 
 1531              		.loc 1 593 3 view .LVU427
 596:Drivers/STM32F4xx_HAL_Driver/Src/stm32f4xx_hal_rcc.c ****   {
 1532              		.loc 1 596 3 view .LVU428
 596:Drivers/STM32F4xx_HAL_Driver/Src/stm32f4xx_hal_rcc.c ****   {
 1533              		.loc 1 596 6 is_stmt 0 view .LVU429
 1534 0000 0028     		cmp	r0, #0
 1535 0002 00F0FA80 		beq	.L173
 592:Drivers/STM32F4xx_HAL_Driver/Src/stm32f4xx_hal_rcc.c ****   uint32_t tickstart;
 1536              		.loc 1 592 1 view .LVU430
 1537 0006 70B5     		push	{r4, r5, r6, lr}
ARM GAS  C:\Users\moham\AppData\Local\Temp\ccRDsC4I.s 			page 47


 1538              	.LCFI11:
 1539              		.cfi_def_cfa_offset 16
 1540              		.cfi_offset 4, -16
 1541              		.cfi_offset 5, -12
 1542              		.cfi_offset 6, -8
 1543              		.cfi_offset 14, -4
 1544 0008 0D46     		mov	r5, r1
 1545 000a 0446     		mov	r4, r0
 602:Drivers/STM32F4xx_HAL_Driver/Src/stm32f4xx_hal_rcc.c ****   assert_param(IS_FLASH_LATENCY(FLatency));
 1546              		.loc 1 602 3 is_stmt 1 view .LVU431
 1547 000c 0368     		ldr	r3, [r0]
 1548 000e 013B     		subs	r3, r3, #1
 1549 0010 0E2B     		cmp	r3, #14
 1550 0012 32D8     		bhi	.L184
 1551              	.LVL105:
 1552              	.L151:
 603:Drivers/STM32F4xx_HAL_Driver/Src/stm32f4xx_hal_rcc.c **** 
 1553              		.loc 1 603 3 view .LVU432
 1554 0014 0F2D     		cmp	r5, #15
 1555 0016 36D8     		bhi	.L185
 1556              	.L152:
 610:Drivers/STM32F4xx_HAL_Driver/Src/stm32f4xx_hal_rcc.c ****   {
 1557              		.loc 1 610 3 view .LVU433
 610:Drivers/STM32F4xx_HAL_Driver/Src/stm32f4xx_hal_rcc.c ****   {
 1558              		.loc 1 610 18 is_stmt 0 view .LVU434
 1559 0018 7C4B     		ldr	r3, .L191
 1560 001a 1B68     		ldr	r3, [r3]
 1561 001c 03F00F03 		and	r3, r3, #15
 610:Drivers/STM32F4xx_HAL_Driver/Src/stm32f4xx_hal_rcc.c ****   {
 1562              		.loc 1 610 6 view .LVU435
 1563 0020 AB42     		cmp	r3, r5
 1564 0022 08D2     		bcs	.L153
 613:Drivers/STM32F4xx_HAL_Driver/Src/stm32f4xx_hal_rcc.c **** 
 1565              		.loc 1 613 5 is_stmt 1 view .LVU436
 1566 0024 EBB2     		uxtb	r3, r5
 1567 0026 794A     		ldr	r2, .L191
 1568 0028 1370     		strb	r3, [r2]
 617:Drivers/STM32F4xx_HAL_Driver/Src/stm32f4xx_hal_rcc.c ****     {
 1569              		.loc 1 617 5 view .LVU437
 617:Drivers/STM32F4xx_HAL_Driver/Src/stm32f4xx_hal_rcc.c ****     {
 1570              		.loc 1 617 9 is_stmt 0 view .LVU438
 1571 002a 1368     		ldr	r3, [r2]
 1572 002c 03F00F03 		and	r3, r3, #15
 617:Drivers/STM32F4xx_HAL_Driver/Src/stm32f4xx_hal_rcc.c ****     {
 1573              		.loc 1 617 8 view .LVU439
 1574 0030 AB42     		cmp	r3, r5
 1575 0032 40F0E480 		bne	.L174
 1576              	.L153:
 624:Drivers/STM32F4xx_HAL_Driver/Src/stm32f4xx_hal_rcc.c ****   {
 1577              		.loc 1 624 3 is_stmt 1 view .LVU440
 624:Drivers/STM32F4xx_HAL_Driver/Src/stm32f4xx_hal_rcc.c ****   {
 1578              		.loc 1 624 26 is_stmt 0 view .LVU441
 1579 0036 2368     		ldr	r3, [r4]
 624:Drivers/STM32F4xx_HAL_Driver/Src/stm32f4xx_hal_rcc.c ****   {
 1580              		.loc 1 624 6 view .LVU442
 1581 0038 13F0020F 		tst	r3, #2
 1582 003c 3ED0     		beq	.L154
ARM GAS  C:\Users\moham\AppData\Local\Temp\ccRDsC4I.s 			page 48


 628:Drivers/STM32F4xx_HAL_Driver/Src/stm32f4xx_hal_rcc.c ****     {
 1583              		.loc 1 628 5 is_stmt 1 view .LVU443
 628:Drivers/STM32F4xx_HAL_Driver/Src/stm32f4xx_hal_rcc.c ****     {
 1584              		.loc 1 628 8 is_stmt 0 view .LVU444
 1585 003e 13F0040F 		tst	r3, #4
 1586 0042 04D0     		beq	.L155
 630:Drivers/STM32F4xx_HAL_Driver/Src/stm32f4xx_hal_rcc.c ****     }
 1587              		.loc 1 630 7 is_stmt 1 view .LVU445
 1588 0044 724A     		ldr	r2, .L191+4
 1589 0046 9368     		ldr	r3, [r2, #8]
 1590 0048 43F4E053 		orr	r3, r3, #7168
 1591 004c 9360     		str	r3, [r2, #8]
 1592              	.L155:
 633:Drivers/STM32F4xx_HAL_Driver/Src/stm32f4xx_hal_rcc.c ****     {
 1593              		.loc 1 633 5 view .LVU446
 633:Drivers/STM32F4xx_HAL_Driver/Src/stm32f4xx_hal_rcc.c ****     {
 1594              		.loc 1 633 28 is_stmt 0 view .LVU447
 1595 004e 2368     		ldr	r3, [r4]
 633:Drivers/STM32F4xx_HAL_Driver/Src/stm32f4xx_hal_rcc.c ****     {
 1596              		.loc 1 633 8 view .LVU448
 1597 0050 13F0080F 		tst	r3, #8
 1598 0054 04D0     		beq	.L156
 635:Drivers/STM32F4xx_HAL_Driver/Src/stm32f4xx_hal_rcc.c ****     }
 1599              		.loc 1 635 7 is_stmt 1 view .LVU449
 1600 0056 6E4A     		ldr	r2, .L191+4
 1601 0058 9368     		ldr	r3, [r2, #8]
 1602 005a 43F46043 		orr	r3, r3, #57344
 1603 005e 9360     		str	r3, [r2, #8]
 1604              	.L156:
 638:Drivers/STM32F4xx_HAL_Driver/Src/stm32f4xx_hal_rcc.c ****     MODIFY_REG(RCC->CFGR, RCC_CFGR_HPRE, RCC_ClkInitStruct->AHBCLKDivider);
 1605              		.loc 1 638 5 view .LVU450
 1606 0060 A368     		ldr	r3, [r4, #8]
 1607 0062 23B3     		cbz	r3, .L157
 1608 0064 C02B     		cmp	r3, #192
 1609 0066 22D0     		beq	.L157
 1610 0068 16D8     		bhi	.L158
 1611 006a A02B     		cmp	r3, #160
 1612 006c 1FD0     		beq	.L157
 1613 006e 10D8     		bhi	.L159
 1614 0070 802B     		cmp	r3, #128
 1615 0072 1CD0     		beq	.L157
 1616 0074 902B     		cmp	r3, #144
 1617 0076 1AD0     		beq	.L157
 1618 0078 14E0     		b	.L160
 1619              	.LVL106:
 1620              	.L184:
 602:Drivers/STM32F4xx_HAL_Driver/Src/stm32f4xx_hal_rcc.c ****   assert_param(IS_FLASH_LATENCY(FLatency));
 1621              		.loc 1 602 3 is_stmt 0 discriminator 1 view .LVU451
 1622 007a 40F25A21 		movw	r1, #602
 1623              	.LVL107:
 602:Drivers/STM32F4xx_HAL_Driver/Src/stm32f4xx_hal_rcc.c ****   assert_param(IS_FLASH_LATENCY(FLatency));
 1624              		.loc 1 602 3 discriminator 1 view .LVU452
 1625 007e 6548     		ldr	r0, .L191+8
 1626              	.LVL108:
 602:Drivers/STM32F4xx_HAL_Driver/Src/stm32f4xx_hal_rcc.c ****   assert_param(IS_FLASH_LATENCY(FLatency));
 1627              		.loc 1 602 3 discriminator 1 view .LVU453
 1628 0080 FFF7FEFF 		bl	assert_failed
ARM GAS  C:\Users\moham\AppData\Local\Temp\ccRDsC4I.s 			page 49


 1629              	.LVL109:
 1630 0084 C6E7     		b	.L151
 1631              	.L185:
 603:Drivers/STM32F4xx_HAL_Driver/Src/stm32f4xx_hal_rcc.c **** 
 1632              		.loc 1 603 3 discriminator 1 view .LVU454
 1633 0086 40F25B21 		movw	r1, #603
 1634 008a 6248     		ldr	r0, .L191+8
 1635 008c FFF7FEFF 		bl	assert_failed
 1636              	.LVL110:
 1637 0090 C2E7     		b	.L152
 1638              	.L159:
 603:Drivers/STM32F4xx_HAL_Driver/Src/stm32f4xx_hal_rcc.c **** 
 1639              		.loc 1 603 3 discriminator 1 view .LVU455
 1640 0092 B02B     		cmp	r3, #176
 1641 0094 0BD0     		beq	.L157
 1642 0096 05E0     		b	.L160
 1643              	.L158:
 1644 0098 E02B     		cmp	r3, #224
 1645 009a 08D0     		beq	.L157
 1646 009c F02B     		cmp	r3, #240
 1647 009e 06D0     		beq	.L157
 1648 00a0 D02B     		cmp	r3, #208
 1649 00a2 04D0     		beq	.L157
 1650              	.L160:
 638:Drivers/STM32F4xx_HAL_Driver/Src/stm32f4xx_hal_rcc.c ****     MODIFY_REG(RCC->CFGR, RCC_CFGR_HPRE, RCC_ClkInitStruct->AHBCLKDivider);
 1651              		.loc 1 638 5 discriminator 9 view .LVU456
 1652 00a4 40F27E21 		movw	r1, #638
 1653 00a8 5A48     		ldr	r0, .L191+8
 1654 00aa FFF7FEFF 		bl	assert_failed
 1655              	.LVL111:
 1656              	.L157:
 639:Drivers/STM32F4xx_HAL_Driver/Src/stm32f4xx_hal_rcc.c ****   }
 1657              		.loc 1 639 5 is_stmt 1 view .LVU457
 1658 00ae 584A     		ldr	r2, .L191+4
 1659 00b0 9368     		ldr	r3, [r2, #8]
 1660 00b2 23F0F003 		bic	r3, r3, #240
 1661 00b6 A168     		ldr	r1, [r4, #8]
 1662 00b8 0B43     		orrs	r3, r3, r1
 1663 00ba 9360     		str	r3, [r2, #8]
 1664              	.L154:
 643:Drivers/STM32F4xx_HAL_Driver/Src/stm32f4xx_hal_rcc.c ****   {
 1665              		.loc 1 643 3 view .LVU458
 643:Drivers/STM32F4xx_HAL_Driver/Src/stm32f4xx_hal_rcc.c ****   {
 1666              		.loc 1 643 26 is_stmt 0 view .LVU459
 1667 00bc 2368     		ldr	r3, [r4]
 643:Drivers/STM32F4xx_HAL_Driver/Src/stm32f4xx_hal_rcc.c ****   {
 1668              		.loc 1 643 6 view .LVU460
 1669 00be 13F0010F 		tst	r3, #1
 1670 00c2 3CD0     		beq	.L161
 645:Drivers/STM32F4xx_HAL_Driver/Src/stm32f4xx_hal_rcc.c **** 
 1671              		.loc 1 645 5 is_stmt 1 view .LVU461
 1672 00c4 6368     		ldr	r3, [r4, #4]
 1673 00c6 032B     		cmp	r3, #3
 1674 00c8 25D8     		bhi	.L186
 1675              	.L162:
 648:Drivers/STM32F4xx_HAL_Driver/Src/stm32f4xx_hal_rcc.c ****     {
 1676              		.loc 1 648 5 view .LVU462
ARM GAS  C:\Users\moham\AppData\Local\Temp\ccRDsC4I.s 			page 50


 648:Drivers/STM32F4xx_HAL_Driver/Src/stm32f4xx_hal_rcc.c ****     {
 1677              		.loc 1 648 26 is_stmt 0 view .LVU463
 1678 00ca 6368     		ldr	r3, [r4, #4]
 648:Drivers/STM32F4xx_HAL_Driver/Src/stm32f4xx_hal_rcc.c ****     {
 1679              		.loc 1 648 8 view .LVU464
 1680 00cc 012B     		cmp	r3, #1
 1681 00ce 28D0     		beq	.L187
 657:Drivers/STM32F4xx_HAL_Driver/Src/stm32f4xx_hal_rcc.c ****              (RCC_ClkInitStruct->SYSCLKSource == RCC_SYSCLKSOURCE_PLLRCLK))
 1682              		.loc 1 657 10 is_stmt 1 view .LVU465
 657:Drivers/STM32F4xx_HAL_Driver/Src/stm32f4xx_hal_rcc.c ****              (RCC_ClkInitStruct->SYSCLKSource == RCC_SYSCLKSOURCE_PLLRCLK))
 1683              		.loc 1 657 77 is_stmt 0 view .LVU466
 1684 00d0 9A1E     		subs	r2, r3, #2
 657:Drivers/STM32F4xx_HAL_Driver/Src/stm32f4xx_hal_rcc.c ****              (RCC_ClkInitStruct->SYSCLKSource == RCC_SYSCLKSOURCE_PLLRCLK))
 1685              		.loc 1 657 13 view .LVU467
 1686 00d2 012A     		cmp	r2, #1
 1687 00d4 2CD9     		bls	.L188
 670:Drivers/STM32F4xx_HAL_Driver/Src/stm32f4xx_hal_rcc.c ****       {
 1688              		.loc 1 670 7 is_stmt 1 view .LVU468
 670:Drivers/STM32F4xx_HAL_Driver/Src/stm32f4xx_hal_rcc.c ****       {
 1689              		.loc 1 670 11 is_stmt 0 view .LVU469
 1690 00d6 4E4A     		ldr	r2, .L191+4
 1691 00d8 1268     		ldr	r2, [r2]
 670:Drivers/STM32F4xx_HAL_Driver/Src/stm32f4xx_hal_rcc.c ****       {
 1692              		.loc 1 670 10 view .LVU470
 1693 00da 12F0020F 		tst	r2, #2
 1694 00de 00F09080 		beq	.L177
 1695              	.L164:
 676:Drivers/STM32F4xx_HAL_Driver/Src/stm32f4xx_hal_rcc.c **** 
 1696              		.loc 1 676 5 is_stmt 1 view .LVU471
 1697 00e2 4B49     		ldr	r1, .L191+4
 1698 00e4 8A68     		ldr	r2, [r1, #8]
 1699 00e6 22F00302 		bic	r2, r2, #3
 1700 00ea 1343     		orrs	r3, r3, r2
 1701 00ec 8B60     		str	r3, [r1, #8]
 679:Drivers/STM32F4xx_HAL_Driver/Src/stm32f4xx_hal_rcc.c **** 
 1702              		.loc 1 679 5 view .LVU472
 679:Drivers/STM32F4xx_HAL_Driver/Src/stm32f4xx_hal_rcc.c **** 
 1703              		.loc 1 679 17 is_stmt 0 view .LVU473
 1704 00ee FFF7FEFF 		bl	HAL_GetTick
 1705              	.LVL112:
 1706 00f2 0646     		mov	r6, r0
 1707              	.LVL113:
 681:Drivers/STM32F4xx_HAL_Driver/Src/stm32f4xx_hal_rcc.c ****     {
 1708              		.loc 1 681 5 is_stmt 1 view .LVU474
 1709              	.L166:
 681:Drivers/STM32F4xx_HAL_Driver/Src/stm32f4xx_hal_rcc.c ****     {
 1710              		.loc 1 681 42 view .LVU475
 681:Drivers/STM32F4xx_HAL_Driver/Src/stm32f4xx_hal_rcc.c ****     {
 1711              		.loc 1 681 12 is_stmt 0 view .LVU476
 1712 00f4 464B     		ldr	r3, .L191+4
 1713 00f6 9B68     		ldr	r3, [r3, #8]
 1714 00f8 03F00C03 		and	r3, r3, #12
 681:Drivers/STM32F4xx_HAL_Driver/Src/stm32f4xx_hal_rcc.c ****     {
 1715              		.loc 1 681 63 view .LVU477
 1716 00fc 6268     		ldr	r2, [r4, #4]
 681:Drivers/STM32F4xx_HAL_Driver/Src/stm32f4xx_hal_rcc.c ****     {
 1717              		.loc 1 681 42 view .LVU478
ARM GAS  C:\Users\moham\AppData\Local\Temp\ccRDsC4I.s 			page 51


 1718 00fe B3EB820F 		cmp	r3, r2, lsl #2
 1719 0102 1CD0     		beq	.L161
 683:Drivers/STM32F4xx_HAL_Driver/Src/stm32f4xx_hal_rcc.c ****       {
 1720              		.loc 1 683 7 is_stmt 1 view .LVU479
 683:Drivers/STM32F4xx_HAL_Driver/Src/stm32f4xx_hal_rcc.c ****       {
 1721              		.loc 1 683 12 is_stmt 0 view .LVU480
 1722 0104 FFF7FEFF 		bl	HAL_GetTick
 1723              	.LVL114:
 683:Drivers/STM32F4xx_HAL_Driver/Src/stm32f4xx_hal_rcc.c ****       {
 1724              		.loc 1 683 26 discriminator 1 view .LVU481
 1725 0108 801B     		subs	r0, r0, r6
 683:Drivers/STM32F4xx_HAL_Driver/Src/stm32f4xx_hal_rcc.c ****       {
 1726              		.loc 1 683 10 discriminator 1 view .LVU482
 1727 010a 41F28833 		movw	r3, #5000
 1728 010e 9842     		cmp	r0, r3
 1729 0110 F0D9     		bls	.L166
 685:Drivers/STM32F4xx_HAL_Driver/Src/stm32f4xx_hal_rcc.c ****       }
 1730              		.loc 1 685 16 view .LVU483
 1731 0112 0320     		movs	r0, #3
 1732 0114 64E0     		b	.L150
 1733              	.LVL115:
 1734              	.L186:
 645:Drivers/STM32F4xx_HAL_Driver/Src/stm32f4xx_hal_rcc.c **** 
 1735              		.loc 1 645 5 discriminator 1 view .LVU484
 1736 0116 40F28521 		movw	r1, #645
 1737 011a 3E48     		ldr	r0, .L191+8
 1738 011c FFF7FEFF 		bl	assert_failed
 1739              	.LVL116:
 1740 0120 D3E7     		b	.L162
 1741              	.L187:
 651:Drivers/STM32F4xx_HAL_Driver/Src/stm32f4xx_hal_rcc.c ****       {
 1742              		.loc 1 651 7 is_stmt 1 view .LVU485
 651:Drivers/STM32F4xx_HAL_Driver/Src/stm32f4xx_hal_rcc.c ****       {
 1743              		.loc 1 651 11 is_stmt 0 view .LVU486
 1744 0122 3B4A     		ldr	r2, .L191+4
 1745 0124 1268     		ldr	r2, [r2]
 651:Drivers/STM32F4xx_HAL_Driver/Src/stm32f4xx_hal_rcc.c ****       {
 1746              		.loc 1 651 10 view .LVU487
 1747 0126 12F4003F 		tst	r2, #131072
 1748 012a DAD1     		bne	.L164
 653:Drivers/STM32F4xx_HAL_Driver/Src/stm32f4xx_hal_rcc.c ****       }
 1749              		.loc 1 653 16 view .LVU488
 1750 012c 0120     		movs	r0, #1
 1751 012e 57E0     		b	.L150
 1752              	.L188:
 661:Drivers/STM32F4xx_HAL_Driver/Src/stm32f4xx_hal_rcc.c ****       {
 1753              		.loc 1 661 7 is_stmt 1 view .LVU489
 661:Drivers/STM32F4xx_HAL_Driver/Src/stm32f4xx_hal_rcc.c ****       {
 1754              		.loc 1 661 11 is_stmt 0 view .LVU490
 1755 0130 374A     		ldr	r2, .L191+4
 1756 0132 1268     		ldr	r2, [r2]
 661:Drivers/STM32F4xx_HAL_Driver/Src/stm32f4xx_hal_rcc.c ****       {
 1757              		.loc 1 661 10 view .LVU491
 1758 0134 12F0007F 		tst	r2, #33554432
 1759 0138 D3D1     		bne	.L164
 663:Drivers/STM32F4xx_HAL_Driver/Src/stm32f4xx_hal_rcc.c ****       }
 1760              		.loc 1 663 16 view .LVU492
ARM GAS  C:\Users\moham\AppData\Local\Temp\ccRDsC4I.s 			page 52


 1761 013a 0120     		movs	r0, #1
 1762 013c 50E0     		b	.L150
 1763              	.L161:
 691:Drivers/STM32F4xx_HAL_Driver/Src/stm32f4xx_hal_rcc.c ****   {
 1764              		.loc 1 691 3 is_stmt 1 view .LVU493
 691:Drivers/STM32F4xx_HAL_Driver/Src/stm32f4xx_hal_rcc.c ****   {
 1765              		.loc 1 691 18 is_stmt 0 view .LVU494
 1766 013e 334B     		ldr	r3, .L191
 1767 0140 1B68     		ldr	r3, [r3]
 1768 0142 03F00F03 		and	r3, r3, #15
 691:Drivers/STM32F4xx_HAL_Driver/Src/stm32f4xx_hal_rcc.c ****   {
 1769              		.loc 1 691 6 view .LVU495
 1770 0146 AB42     		cmp	r3, r5
 1771 0148 07D9     		bls	.L168
 694:Drivers/STM32F4xx_HAL_Driver/Src/stm32f4xx_hal_rcc.c **** 
 1772              		.loc 1 694 5 is_stmt 1 view .LVU496
 1773 014a EAB2     		uxtb	r2, r5
 1774 014c 2F4B     		ldr	r3, .L191
 1775 014e 1A70     		strb	r2, [r3]
 698:Drivers/STM32F4xx_HAL_Driver/Src/stm32f4xx_hal_rcc.c ****     {
 1776              		.loc 1 698 5 view .LVU497
 698:Drivers/STM32F4xx_HAL_Driver/Src/stm32f4xx_hal_rcc.c ****     {
 1777              		.loc 1 698 9 is_stmt 0 view .LVU498
 1778 0150 1B68     		ldr	r3, [r3]
 1779 0152 03F00F03 		and	r3, r3, #15
 698:Drivers/STM32F4xx_HAL_Driver/Src/stm32f4xx_hal_rcc.c ****     {
 1780              		.loc 1 698 8 view .LVU499
 1781 0156 AB42     		cmp	r3, r5
 1782 0158 55D1     		bne	.L179
 1783              	.L168:
 705:Drivers/STM32F4xx_HAL_Driver/Src/stm32f4xx_hal_rcc.c ****   {
 1784              		.loc 1 705 3 is_stmt 1 view .LVU500
 705:Drivers/STM32F4xx_HAL_Driver/Src/stm32f4xx_hal_rcc.c ****   {
 1785              		.loc 1 705 26 is_stmt 0 view .LVU501
 1786 015a 2368     		ldr	r3, [r4]
 705:Drivers/STM32F4xx_HAL_Driver/Src/stm32f4xx_hal_rcc.c ****   {
 1787              		.loc 1 705 6 view .LVU502
 1788 015c 13F0040F 		tst	r3, #4
 1789 0160 14D0     		beq	.L169
 707:Drivers/STM32F4xx_HAL_Driver/Src/stm32f4xx_hal_rcc.c ****     MODIFY_REG(RCC->CFGR, RCC_CFGR_PPRE1, RCC_ClkInitStruct->APB1CLKDivider);
 1790              		.loc 1 707 5 is_stmt 1 view .LVU503
 1791 0162 E368     		ldr	r3, [r4, #12]
 1792 0164 5BB1     		cbz	r3, .L170
 707:Drivers/STM32F4xx_HAL_Driver/Src/stm32f4xx_hal_rcc.c ****     MODIFY_REG(RCC->CFGR, RCC_CFGR_PPRE1, RCC_ClkInitStruct->APB1CLKDivider);
 1793              		.loc 1 707 5 is_stmt 0 discriminator 1 view .LVU504
 1794 0166 B3F5805F 		cmp	r3, #4096
 1795 016a 08D0     		beq	.L170
 707:Drivers/STM32F4xx_HAL_Driver/Src/stm32f4xx_hal_rcc.c ****     MODIFY_REG(RCC->CFGR, RCC_CFGR_PPRE1, RCC_ClkInitStruct->APB1CLKDivider);
 1796              		.loc 1 707 5 discriminator 2 view .LVU505
 1797 016c B3F5A05F 		cmp	r3, #5120
 1798 0170 05D0     		beq	.L170
 707:Drivers/STM32F4xx_HAL_Driver/Src/stm32f4xx_hal_rcc.c ****     MODIFY_REG(RCC->CFGR, RCC_CFGR_PPRE1, RCC_ClkInitStruct->APB1CLKDivider);
 1799              		.loc 1 707 5 discriminator 3 view .LVU506
 1800 0172 B3F5C05F 		cmp	r3, #6144
 1801 0176 02D0     		beq	.L170
 707:Drivers/STM32F4xx_HAL_Driver/Src/stm32f4xx_hal_rcc.c ****     MODIFY_REG(RCC->CFGR, RCC_CFGR_PPRE1, RCC_ClkInitStruct->APB1CLKDivider);
 1802              		.loc 1 707 5 discriminator 4 view .LVU507
ARM GAS  C:\Users\moham\AppData\Local\Temp\ccRDsC4I.s 			page 53


 1803 0178 B3F5E05F 		cmp	r3, #7168
 1804 017c 31D1     		bne	.L189
 1805              	.L170:
 708:Drivers/STM32F4xx_HAL_Driver/Src/stm32f4xx_hal_rcc.c ****   }
 1806              		.loc 1 708 5 is_stmt 1 view .LVU508
 1807 017e 244A     		ldr	r2, .L191+4
 1808 0180 9368     		ldr	r3, [r2, #8]
 1809 0182 23F4E053 		bic	r3, r3, #7168
 1810 0186 E168     		ldr	r1, [r4, #12]
 1811 0188 0B43     		orrs	r3, r3, r1
 1812 018a 9360     		str	r3, [r2, #8]
 1813              	.L169:
 712:Drivers/STM32F4xx_HAL_Driver/Src/stm32f4xx_hal_rcc.c ****   {
 1814              		.loc 1 712 3 view .LVU509
 712:Drivers/STM32F4xx_HAL_Driver/Src/stm32f4xx_hal_rcc.c ****   {
 1815              		.loc 1 712 26 is_stmt 0 view .LVU510
 1816 018c 2368     		ldr	r3, [r4]
 712:Drivers/STM32F4xx_HAL_Driver/Src/stm32f4xx_hal_rcc.c ****   {
 1817              		.loc 1 712 6 view .LVU511
 1818 018e 13F0080F 		tst	r3, #8
 1819 0192 15D0     		beq	.L171
 714:Drivers/STM32F4xx_HAL_Driver/Src/stm32f4xx_hal_rcc.c ****     MODIFY_REG(RCC->CFGR, RCC_CFGR_PPRE2, ((RCC_ClkInitStruct->APB2CLKDivider) << 3U));
 1820              		.loc 1 714 5 is_stmt 1 view .LVU512
 1821 0194 2369     		ldr	r3, [r4, #16]
 1822 0196 5BB1     		cbz	r3, .L172
 714:Drivers/STM32F4xx_HAL_Driver/Src/stm32f4xx_hal_rcc.c ****     MODIFY_REG(RCC->CFGR, RCC_CFGR_PPRE2, ((RCC_ClkInitStruct->APB2CLKDivider) << 3U));
 1823              		.loc 1 714 5 is_stmt 0 discriminator 1 view .LVU513
 1824 0198 B3F5805F 		cmp	r3, #4096
 1825 019c 08D0     		beq	.L172
 714:Drivers/STM32F4xx_HAL_Driver/Src/stm32f4xx_hal_rcc.c ****     MODIFY_REG(RCC->CFGR, RCC_CFGR_PPRE2, ((RCC_ClkInitStruct->APB2CLKDivider) << 3U));
 1826              		.loc 1 714 5 discriminator 2 view .LVU514
 1827 019e B3F5A05F 		cmp	r3, #5120
 1828 01a2 05D0     		beq	.L172
 714:Drivers/STM32F4xx_HAL_Driver/Src/stm32f4xx_hal_rcc.c ****     MODIFY_REG(RCC->CFGR, RCC_CFGR_PPRE2, ((RCC_ClkInitStruct->APB2CLKDivider) << 3U));
 1829              		.loc 1 714 5 discriminator 3 view .LVU515
 1830 01a4 B3F5C05F 		cmp	r3, #6144
 1831 01a8 02D0     		beq	.L172
 714:Drivers/STM32F4xx_HAL_Driver/Src/stm32f4xx_hal_rcc.c ****     MODIFY_REG(RCC->CFGR, RCC_CFGR_PPRE2, ((RCC_ClkInitStruct->APB2CLKDivider) << 3U));
 1832              		.loc 1 714 5 discriminator 4 view .LVU516
 1833 01aa B3F5E05F 		cmp	r3, #7168
 1834 01ae 1ED1     		bne	.L190
 1835              	.L172:
 715:Drivers/STM32F4xx_HAL_Driver/Src/stm32f4xx_hal_rcc.c ****   }
 1836              		.loc 1 715 5 is_stmt 1 view .LVU517
 1837 01b0 174A     		ldr	r2, .L191+4
 1838 01b2 9368     		ldr	r3, [r2, #8]
 1839 01b4 23F46043 		bic	r3, r3, #57344
 1840 01b8 2169     		ldr	r1, [r4, #16]
 1841 01ba 43EAC103 		orr	r3, r3, r1, lsl #3
 1842 01be 9360     		str	r3, [r2, #8]
 1843              	.L171:
 719:Drivers/STM32F4xx_HAL_Driver/Src/stm32f4xx_hal_rcc.c **** 
 1844              		.loc 1 719 3 view .LVU518
 719:Drivers/STM32F4xx_HAL_Driver/Src/stm32f4xx_hal_rcc.c **** 
 1845              		.loc 1 719 21 is_stmt 0 view .LVU519
 1846 01c0 FFF7FEFF 		bl	HAL_RCC_GetSysClockFreq
 1847              	.LVL117:
ARM GAS  C:\Users\moham\AppData\Local\Temp\ccRDsC4I.s 			page 54


 719:Drivers/STM32F4xx_HAL_Driver/Src/stm32f4xx_hal_rcc.c **** 
 1848              		.loc 1 719 68 discriminator 1 view .LVU520
 1849 01c4 124B     		ldr	r3, .L191+4
 1850 01c6 9B68     		ldr	r3, [r3, #8]
 719:Drivers/STM32F4xx_HAL_Driver/Src/stm32f4xx_hal_rcc.c **** 
 1851              		.loc 1 719 92 discriminator 1 view .LVU521
 1852 01c8 C3F30313 		ubfx	r3, r3, #4, #4
 719:Drivers/STM32F4xx_HAL_Driver/Src/stm32f4xx_hal_rcc.c **** 
 1853              		.loc 1 719 63 discriminator 1 view .LVU522
 1854 01cc 124A     		ldr	r2, .L191+12
 1855 01ce D35C     		ldrb	r3, [r2, r3]	@ zero_extendqisi2
 719:Drivers/STM32F4xx_HAL_Driver/Src/stm32f4xx_hal_rcc.c **** 
 1856              		.loc 1 719 47 discriminator 1 view .LVU523
 1857 01d0 D840     		lsrs	r0, r0, r3
 719:Drivers/STM32F4xx_HAL_Driver/Src/stm32f4xx_hal_rcc.c **** 
 1858              		.loc 1 719 19 discriminator 1 view .LVU524
 1859 01d2 124B     		ldr	r3, .L191+16
 1860 01d4 1860     		str	r0, [r3]
 722:Drivers/STM32F4xx_HAL_Driver/Src/stm32f4xx_hal_rcc.c **** 
 1861              		.loc 1 722 3 is_stmt 1 view .LVU525
 1862 01d6 124B     		ldr	r3, .L191+20
 1863 01d8 1868     		ldr	r0, [r3]
 1864 01da FFF7FEFF 		bl	HAL_InitTick
 1865              	.LVL118:
 724:Drivers/STM32F4xx_HAL_Driver/Src/stm32f4xx_hal_rcc.c **** }
 1866              		.loc 1 724 3 view .LVU526
 724:Drivers/STM32F4xx_HAL_Driver/Src/stm32f4xx_hal_rcc.c **** }
 1867              		.loc 1 724 10 is_stmt 0 view .LVU527
 1868 01de 0020     		movs	r0, #0
 1869              	.L150:
 725:Drivers/STM32F4xx_HAL_Driver/Src/stm32f4xx_hal_rcc.c **** 
 1870              		.loc 1 725 1 view .LVU528
 1871 01e0 70BD     		pop	{r4, r5, r6, pc}
 1872              	.LVL119:
 1873              	.L189:
 707:Drivers/STM32F4xx_HAL_Driver/Src/stm32f4xx_hal_rcc.c ****     MODIFY_REG(RCC->CFGR, RCC_CFGR_PPRE1, RCC_ClkInitStruct->APB1CLKDivider);
 1874              		.loc 1 707 5 discriminator 5 view .LVU529
 1875 01e2 40F2C321 		movw	r1, #707
 1876 01e6 0B48     		ldr	r0, .L191+8
 1877 01e8 FFF7FEFF 		bl	assert_failed
 1878              	.LVL120:
 1879 01ec C7E7     		b	.L170
 1880              	.L190:
 714:Drivers/STM32F4xx_HAL_Driver/Src/stm32f4xx_hal_rcc.c ****     MODIFY_REG(RCC->CFGR, RCC_CFGR_PPRE2, ((RCC_ClkInitStruct->APB2CLKDivider) << 3U));
 1881              		.loc 1 714 5 discriminator 5 view .LVU530
 1882 01ee 40F2CA21 		movw	r1, #714
 1883 01f2 0848     		ldr	r0, .L191+8
 1884 01f4 FFF7FEFF 		bl	assert_failed
 1885              	.LVL121:
 1886 01f8 DAE7     		b	.L172
 1887              	.LVL122:
 1888              	.L173:
 1889              	.LCFI12:
 1890              		.cfi_def_cfa_offset 0
 1891              		.cfi_restore 4
 1892              		.cfi_restore 5
 1893              		.cfi_restore 6
ARM GAS  C:\Users\moham\AppData\Local\Temp\ccRDsC4I.s 			page 55


 1894              		.cfi_restore 14
 598:Drivers/STM32F4xx_HAL_Driver/Src/stm32f4xx_hal_rcc.c ****   }
 1895              		.loc 1 598 12 view .LVU531
 1896 01fa 0120     		movs	r0, #1
 1897              	.LVL123:
 725:Drivers/STM32F4xx_HAL_Driver/Src/stm32f4xx_hal_rcc.c **** 
 1898              		.loc 1 725 1 view .LVU532
 1899 01fc 7047     		bx	lr
 1900              	.LVL124:
 1901              	.L174:
 1902              	.LCFI13:
 1903              		.cfi_def_cfa_offset 16
 1904              		.cfi_offset 4, -16
 1905              		.cfi_offset 5, -12
 1906              		.cfi_offset 6, -8
 1907              		.cfi_offset 14, -4
 619:Drivers/STM32F4xx_HAL_Driver/Src/stm32f4xx_hal_rcc.c ****     }
 1908              		.loc 1 619 14 view .LVU533
 1909 01fe 0120     		movs	r0, #1
 1910 0200 EEE7     		b	.L150
 1911              	.L177:
 672:Drivers/STM32F4xx_HAL_Driver/Src/stm32f4xx_hal_rcc.c ****       }
 1912              		.loc 1 672 16 view .LVU534
 1913 0202 0120     		movs	r0, #1
 1914 0204 ECE7     		b	.L150
 1915              	.L179:
 700:Drivers/STM32F4xx_HAL_Driver/Src/stm32f4xx_hal_rcc.c ****     }
 1916              		.loc 1 700 14 view .LVU535
 1917 0206 0120     		movs	r0, #1
 1918 0208 EAE7     		b	.L150
 1919              	.L192:
 1920 020a 00BF     		.align	2
 1921              	.L191:
 1922 020c 003C0240 		.word	1073888256
 1923 0210 00380240 		.word	1073887232
 1924 0214 00000000 		.word	.LC0
 1925 0218 00000000 		.word	AHBPrescTable
 1926 021c 00000000 		.word	SystemCoreClock
 1927 0220 00000000 		.word	uwTickPrio
 1928              		.cfi_endproc
 1929              	.LFE241:
 1931              		.section	.text.HAL_RCC_GetHCLKFreq,"ax",%progbits
 1932              		.align	1
 1933              		.global	HAL_RCC_GetHCLKFreq
 1934              		.syntax unified
 1935              		.thumb
 1936              		.thumb_func
 1938              	HAL_RCC_GetHCLKFreq:
 1939              	.LFB246:
 933:Drivers/STM32F4xx_HAL_Driver/Src/stm32f4xx_hal_rcc.c **** 
 934:Drivers/STM32F4xx_HAL_Driver/Src/stm32f4xx_hal_rcc.c **** /**
 935:Drivers/STM32F4xx_HAL_Driver/Src/stm32f4xx_hal_rcc.c ****   * @brief  Returns the HCLK frequency
 936:Drivers/STM32F4xx_HAL_Driver/Src/stm32f4xx_hal_rcc.c ****   * @note   Each time HCLK changes, this function must be called to update the
 937:Drivers/STM32F4xx_HAL_Driver/Src/stm32f4xx_hal_rcc.c ****   *         right HCLK value. Otherwise, any configuration based on this function will be incorrect
 938:Drivers/STM32F4xx_HAL_Driver/Src/stm32f4xx_hal_rcc.c ****   *
 939:Drivers/STM32F4xx_HAL_Driver/Src/stm32f4xx_hal_rcc.c ****   * @note   The SystemCoreClock CMSIS variable is used to store System Clock Frequency
 940:Drivers/STM32F4xx_HAL_Driver/Src/stm32f4xx_hal_rcc.c ****   *         and updated within this function
ARM GAS  C:\Users\moham\AppData\Local\Temp\ccRDsC4I.s 			page 56


 941:Drivers/STM32F4xx_HAL_Driver/Src/stm32f4xx_hal_rcc.c ****   * @retval HCLK frequency
 942:Drivers/STM32F4xx_HAL_Driver/Src/stm32f4xx_hal_rcc.c ****   */
 943:Drivers/STM32F4xx_HAL_Driver/Src/stm32f4xx_hal_rcc.c **** uint32_t HAL_RCC_GetHCLKFreq(void)
 944:Drivers/STM32F4xx_HAL_Driver/Src/stm32f4xx_hal_rcc.c **** {
 1940              		.loc 1 944 1 is_stmt 1 view -0
 1941              		.cfi_startproc
 1942              		@ args = 0, pretend = 0, frame = 0
 1943              		@ frame_needed = 0, uses_anonymous_args = 0
 1944              		@ link register save eliminated.
 945:Drivers/STM32F4xx_HAL_Driver/Src/stm32f4xx_hal_rcc.c ****   return SystemCoreClock;
 1945              		.loc 1 945 3 view .LVU537
 946:Drivers/STM32F4xx_HAL_Driver/Src/stm32f4xx_hal_rcc.c **** }
 1946              		.loc 1 946 1 is_stmt 0 view .LVU538
 1947 0000 014B     		ldr	r3, .L194
 1948 0002 1868     		ldr	r0, [r3]
 1949 0004 7047     		bx	lr
 1950              	.L195:
 1951 0006 00BF     		.align	2
 1952              	.L194:
 1953 0008 00000000 		.word	SystemCoreClock
 1954              		.cfi_endproc
 1955              	.LFE246:
 1957              		.section	.text.HAL_RCC_GetPCLK1Freq,"ax",%progbits
 1958              		.align	1
 1959              		.global	HAL_RCC_GetPCLK1Freq
 1960              		.syntax unified
 1961              		.thumb
 1962              		.thumb_func
 1964              	HAL_RCC_GetPCLK1Freq:
 1965              	.LFB247:
 947:Drivers/STM32F4xx_HAL_Driver/Src/stm32f4xx_hal_rcc.c **** 
 948:Drivers/STM32F4xx_HAL_Driver/Src/stm32f4xx_hal_rcc.c **** /**
 949:Drivers/STM32F4xx_HAL_Driver/Src/stm32f4xx_hal_rcc.c ****   * @brief  Returns the PCLK1 frequency
 950:Drivers/STM32F4xx_HAL_Driver/Src/stm32f4xx_hal_rcc.c ****   * @note   Each time PCLK1 changes, this function must be called to update the
 951:Drivers/STM32F4xx_HAL_Driver/Src/stm32f4xx_hal_rcc.c ****   *         right PCLK1 value. Otherwise, any configuration based on this function will be incorrec
 952:Drivers/STM32F4xx_HAL_Driver/Src/stm32f4xx_hal_rcc.c ****   * @retval PCLK1 frequency
 953:Drivers/STM32F4xx_HAL_Driver/Src/stm32f4xx_hal_rcc.c ****   */
 954:Drivers/STM32F4xx_HAL_Driver/Src/stm32f4xx_hal_rcc.c **** uint32_t HAL_RCC_GetPCLK1Freq(void)
 955:Drivers/STM32F4xx_HAL_Driver/Src/stm32f4xx_hal_rcc.c **** {
 1966              		.loc 1 955 1 is_stmt 1 view -0
 1967              		.cfi_startproc
 1968              		@ args = 0, pretend = 0, frame = 0
 1969              		@ frame_needed = 0, uses_anonymous_args = 0
 1970 0000 08B5     		push	{r3, lr}
 1971              	.LCFI14:
 1972              		.cfi_def_cfa_offset 8
 1973              		.cfi_offset 3, -8
 1974              		.cfi_offset 14, -4
 956:Drivers/STM32F4xx_HAL_Driver/Src/stm32f4xx_hal_rcc.c ****   /* Get HCLK source and Compute PCLK1 frequency ---------------------------*/
 957:Drivers/STM32F4xx_HAL_Driver/Src/stm32f4xx_hal_rcc.c ****   return (HAL_RCC_GetHCLKFreq() >> APBPrescTable[(RCC->CFGR & RCC_CFGR_PPRE1) >> RCC_CFGR_PPRE1_Pos
 1975              		.loc 1 957 3 view .LVU540
 1976              		.loc 1 957 11 is_stmt 0 view .LVU541
 1977 0002 FFF7FEFF 		bl	HAL_RCC_GetHCLKFreq
 1978              	.LVL125:
 1979              		.loc 1 957 54 discriminator 1 view .LVU542
 1980 0006 044B     		ldr	r3, .L198
 1981 0008 9B68     		ldr	r3, [r3, #8]
ARM GAS  C:\Users\moham\AppData\Local\Temp\ccRDsC4I.s 			page 57


 1982              		.loc 1 957 79 discriminator 1 view .LVU543
 1983 000a C3F38223 		ubfx	r3, r3, #10, #3
 1984              		.loc 1 957 49 discriminator 1 view .LVU544
 1985 000e 034A     		ldr	r2, .L198+4
 1986 0010 D35C     		ldrb	r3, [r2, r3]	@ zero_extendqisi2
 958:Drivers/STM32F4xx_HAL_Driver/Src/stm32f4xx_hal_rcc.c **** }
 1987              		.loc 1 958 1 view .LVU545
 1988 0012 D840     		lsrs	r0, r0, r3
 1989 0014 08BD     		pop	{r3, pc}
 1990              	.L199:
 1991 0016 00BF     		.align	2
 1992              	.L198:
 1993 0018 00380240 		.word	1073887232
 1994 001c 00000000 		.word	APBPrescTable
 1995              		.cfi_endproc
 1996              	.LFE247:
 1998              		.section	.text.HAL_RCC_GetPCLK2Freq,"ax",%progbits
 1999              		.align	1
 2000              		.global	HAL_RCC_GetPCLK2Freq
 2001              		.syntax unified
 2002              		.thumb
 2003              		.thumb_func
 2005              	HAL_RCC_GetPCLK2Freq:
 2006              	.LFB248:
 959:Drivers/STM32F4xx_HAL_Driver/Src/stm32f4xx_hal_rcc.c **** 
 960:Drivers/STM32F4xx_HAL_Driver/Src/stm32f4xx_hal_rcc.c **** /**
 961:Drivers/STM32F4xx_HAL_Driver/Src/stm32f4xx_hal_rcc.c ****   * @brief  Returns the PCLK2 frequency
 962:Drivers/STM32F4xx_HAL_Driver/Src/stm32f4xx_hal_rcc.c ****   * @note   Each time PCLK2 changes, this function must be called to update the
 963:Drivers/STM32F4xx_HAL_Driver/Src/stm32f4xx_hal_rcc.c ****   *         right PCLK2 value. Otherwise, any configuration based on this function will be incorrec
 964:Drivers/STM32F4xx_HAL_Driver/Src/stm32f4xx_hal_rcc.c ****   * @retval PCLK2 frequency
 965:Drivers/STM32F4xx_HAL_Driver/Src/stm32f4xx_hal_rcc.c ****   */
 966:Drivers/STM32F4xx_HAL_Driver/Src/stm32f4xx_hal_rcc.c **** uint32_t HAL_RCC_GetPCLK2Freq(void)
 967:Drivers/STM32F4xx_HAL_Driver/Src/stm32f4xx_hal_rcc.c **** {
 2007              		.loc 1 967 1 is_stmt 1 view -0
 2008              		.cfi_startproc
 2009              		@ args = 0, pretend = 0, frame = 0
 2010              		@ frame_needed = 0, uses_anonymous_args = 0
 2011 0000 08B5     		push	{r3, lr}
 2012              	.LCFI15:
 2013              		.cfi_def_cfa_offset 8
 2014              		.cfi_offset 3, -8
 2015              		.cfi_offset 14, -4
 968:Drivers/STM32F4xx_HAL_Driver/Src/stm32f4xx_hal_rcc.c ****   /* Get HCLK source and Compute PCLK2 frequency ---------------------------*/
 969:Drivers/STM32F4xx_HAL_Driver/Src/stm32f4xx_hal_rcc.c ****   return (HAL_RCC_GetHCLKFreq() >> APBPrescTable[(RCC->CFGR & RCC_CFGR_PPRE2) >> RCC_CFGR_PPRE2_Pos
 2016              		.loc 1 969 3 view .LVU547
 2017              		.loc 1 969 11 is_stmt 0 view .LVU548
 2018 0002 FFF7FEFF 		bl	HAL_RCC_GetHCLKFreq
 2019              	.LVL126:
 2020              		.loc 1 969 54 discriminator 1 view .LVU549
 2021 0006 044B     		ldr	r3, .L202
 2022 0008 9B68     		ldr	r3, [r3, #8]
 2023              		.loc 1 969 79 discriminator 1 view .LVU550
 2024 000a C3F34233 		ubfx	r3, r3, #13, #3
 2025              		.loc 1 969 49 discriminator 1 view .LVU551
 2026 000e 034A     		ldr	r2, .L202+4
 2027 0010 D35C     		ldrb	r3, [r2, r3]	@ zero_extendqisi2
 970:Drivers/STM32F4xx_HAL_Driver/Src/stm32f4xx_hal_rcc.c **** }
ARM GAS  C:\Users\moham\AppData\Local\Temp\ccRDsC4I.s 			page 58


 2028              		.loc 1 970 1 view .LVU552
 2029 0012 D840     		lsrs	r0, r0, r3
 2030 0014 08BD     		pop	{r3, pc}
 2031              	.L203:
 2032 0016 00BF     		.align	2
 2033              	.L202:
 2034 0018 00380240 		.word	1073887232
 2035 001c 00000000 		.word	APBPrescTable
 2036              		.cfi_endproc
 2037              	.LFE248:
 2039              		.section	.text.HAL_RCC_GetOscConfig,"ax",%progbits
 2040              		.align	1
 2041              		.weak	HAL_RCC_GetOscConfig
 2042              		.syntax unified
 2043              		.thumb
 2044              		.thumb_func
 2046              	HAL_RCC_GetOscConfig:
 2047              	.LVL127:
 2048              	.LFB249:
 971:Drivers/STM32F4xx_HAL_Driver/Src/stm32f4xx_hal_rcc.c **** 
 972:Drivers/STM32F4xx_HAL_Driver/Src/stm32f4xx_hal_rcc.c **** /**
 973:Drivers/STM32F4xx_HAL_Driver/Src/stm32f4xx_hal_rcc.c ****   * @brief  Configures the RCC_OscInitStruct according to the internal
 974:Drivers/STM32F4xx_HAL_Driver/Src/stm32f4xx_hal_rcc.c ****   * RCC configuration registers.
 975:Drivers/STM32F4xx_HAL_Driver/Src/stm32f4xx_hal_rcc.c ****   * @param  RCC_OscInitStruct pointer to an RCC_OscInitTypeDef structure that
 976:Drivers/STM32F4xx_HAL_Driver/Src/stm32f4xx_hal_rcc.c ****   * will be configured.
 977:Drivers/STM32F4xx_HAL_Driver/Src/stm32f4xx_hal_rcc.c ****   * @retval None
 978:Drivers/STM32F4xx_HAL_Driver/Src/stm32f4xx_hal_rcc.c ****   */
 979:Drivers/STM32F4xx_HAL_Driver/Src/stm32f4xx_hal_rcc.c **** __weak void HAL_RCC_GetOscConfig(RCC_OscInitTypeDef  *RCC_OscInitStruct)
 980:Drivers/STM32F4xx_HAL_Driver/Src/stm32f4xx_hal_rcc.c **** {
 2049              		.loc 1 980 1 is_stmt 1 view -0
 2050              		.cfi_startproc
 2051              		@ args = 0, pretend = 0, frame = 0
 2052              		@ frame_needed = 0, uses_anonymous_args = 0
 2053              		@ link register save eliminated.
 981:Drivers/STM32F4xx_HAL_Driver/Src/stm32f4xx_hal_rcc.c ****   /* Set all possible values for the Oscillator type parameter ---------------*/
 982:Drivers/STM32F4xx_HAL_Driver/Src/stm32f4xx_hal_rcc.c ****   RCC_OscInitStruct->OscillatorType = RCC_OSCILLATORTYPE_HSE | RCC_OSCILLATORTYPE_HSI | RCC_OSCILLA
 2054              		.loc 1 982 3 view .LVU554
 2055              		.loc 1 982 37 is_stmt 0 view .LVU555
 2056 0000 0F23     		movs	r3, #15
 2057 0002 0360     		str	r3, [r0]
 983:Drivers/STM32F4xx_HAL_Driver/Src/stm32f4xx_hal_rcc.c **** 
 984:Drivers/STM32F4xx_HAL_Driver/Src/stm32f4xx_hal_rcc.c ****   /* Get the HSE configuration -----------------------------------------------*/
 985:Drivers/STM32F4xx_HAL_Driver/Src/stm32f4xx_hal_rcc.c ****   if ((RCC->CR & RCC_CR_HSEBYP) == RCC_CR_HSEBYP)
 2058              		.loc 1 985 3 is_stmt 1 view .LVU556
 2059              		.loc 1 985 11 is_stmt 0 view .LVU557
 2060 0004 304B     		ldr	r3, .L217
 2061 0006 1B68     		ldr	r3, [r3]
 2062              		.loc 1 985 6 view .LVU558
 2063 0008 13F4802F 		tst	r3, #262144
 2064 000c 3BD0     		beq	.L205
 986:Drivers/STM32F4xx_HAL_Driver/Src/stm32f4xx_hal_rcc.c ****   {
 987:Drivers/STM32F4xx_HAL_Driver/Src/stm32f4xx_hal_rcc.c ****     RCC_OscInitStruct->HSEState = RCC_HSE_BYPASS;
 2065              		.loc 1 987 5 is_stmt 1 view .LVU559
 2066              		.loc 1 987 33 is_stmt 0 view .LVU560
 2067 000e 4FF4A023 		mov	r3, #327680
 2068 0012 4360     		str	r3, [r0, #4]
 2069              	.L206:
ARM GAS  C:\Users\moham\AppData\Local\Temp\ccRDsC4I.s 			page 59


 988:Drivers/STM32F4xx_HAL_Driver/Src/stm32f4xx_hal_rcc.c ****   }
 989:Drivers/STM32F4xx_HAL_Driver/Src/stm32f4xx_hal_rcc.c ****   else if ((RCC->CR & RCC_CR_HSEON) == RCC_CR_HSEON)
 990:Drivers/STM32F4xx_HAL_Driver/Src/stm32f4xx_hal_rcc.c ****   {
 991:Drivers/STM32F4xx_HAL_Driver/Src/stm32f4xx_hal_rcc.c ****     RCC_OscInitStruct->HSEState = RCC_HSE_ON;
 992:Drivers/STM32F4xx_HAL_Driver/Src/stm32f4xx_hal_rcc.c ****   }
 993:Drivers/STM32F4xx_HAL_Driver/Src/stm32f4xx_hal_rcc.c ****   else
 994:Drivers/STM32F4xx_HAL_Driver/Src/stm32f4xx_hal_rcc.c ****   {
 995:Drivers/STM32F4xx_HAL_Driver/Src/stm32f4xx_hal_rcc.c ****     RCC_OscInitStruct->HSEState = RCC_HSE_OFF;
 996:Drivers/STM32F4xx_HAL_Driver/Src/stm32f4xx_hal_rcc.c ****   }
 997:Drivers/STM32F4xx_HAL_Driver/Src/stm32f4xx_hal_rcc.c **** 
 998:Drivers/STM32F4xx_HAL_Driver/Src/stm32f4xx_hal_rcc.c ****   /* Get the HSI configuration -----------------------------------------------*/
 999:Drivers/STM32F4xx_HAL_Driver/Src/stm32f4xx_hal_rcc.c ****   if ((RCC->CR & RCC_CR_HSION) == RCC_CR_HSION)
 2070              		.loc 1 999 3 is_stmt 1 view .LVU561
 2071              		.loc 1 999 11 is_stmt 0 view .LVU562
 2072 0014 2C4B     		ldr	r3, .L217
 2073 0016 1B68     		ldr	r3, [r3]
 2074              		.loc 1 999 6 view .LVU563
 2075 0018 13F0010F 		tst	r3, #1
 2076 001c 3FD0     		beq	.L208
1000:Drivers/STM32F4xx_HAL_Driver/Src/stm32f4xx_hal_rcc.c ****   {
1001:Drivers/STM32F4xx_HAL_Driver/Src/stm32f4xx_hal_rcc.c ****     RCC_OscInitStruct->HSIState = RCC_HSI_ON;
 2077              		.loc 1 1001 5 is_stmt 1 view .LVU564
 2078              		.loc 1 1001 33 is_stmt 0 view .LVU565
 2079 001e 0123     		movs	r3, #1
 2080 0020 C360     		str	r3, [r0, #12]
 2081              	.L209:
1002:Drivers/STM32F4xx_HAL_Driver/Src/stm32f4xx_hal_rcc.c ****   }
1003:Drivers/STM32F4xx_HAL_Driver/Src/stm32f4xx_hal_rcc.c ****   else
1004:Drivers/STM32F4xx_HAL_Driver/Src/stm32f4xx_hal_rcc.c ****   {
1005:Drivers/STM32F4xx_HAL_Driver/Src/stm32f4xx_hal_rcc.c ****     RCC_OscInitStruct->HSIState = RCC_HSI_OFF;
1006:Drivers/STM32F4xx_HAL_Driver/Src/stm32f4xx_hal_rcc.c ****   }
1007:Drivers/STM32F4xx_HAL_Driver/Src/stm32f4xx_hal_rcc.c **** 
1008:Drivers/STM32F4xx_HAL_Driver/Src/stm32f4xx_hal_rcc.c ****   RCC_OscInitStruct->HSICalibrationValue = (uint32_t)((RCC->CR & RCC_CR_HSITRIM) >> RCC_CR_HSITRIM_
 2082              		.loc 1 1008 3 is_stmt 1 view .LVU566
 2083              		.loc 1 1008 59 is_stmt 0 view .LVU567
 2084 0022 294A     		ldr	r2, .L217
 2085 0024 1368     		ldr	r3, [r2]
 2086              		.loc 1 1008 44 view .LVU568
 2087 0026 C3F3C403 		ubfx	r3, r3, #3, #5
 2088              		.loc 1 1008 42 view .LVU569
 2089 002a 0361     		str	r3, [r0, #16]
1009:Drivers/STM32F4xx_HAL_Driver/Src/stm32f4xx_hal_rcc.c **** 
1010:Drivers/STM32F4xx_HAL_Driver/Src/stm32f4xx_hal_rcc.c ****   /* Get the LSE configuration -----------------------------------------------*/
1011:Drivers/STM32F4xx_HAL_Driver/Src/stm32f4xx_hal_rcc.c ****   if ((RCC->BDCR & RCC_BDCR_LSEBYP) == RCC_BDCR_LSEBYP)
 2090              		.loc 1 1011 3 is_stmt 1 view .LVU570
 2091              		.loc 1 1011 11 is_stmt 0 view .LVU571
 2092 002c 136F     		ldr	r3, [r2, #112]
 2093              		.loc 1 1011 6 view .LVU572
 2094 002e 13F0040F 		tst	r3, #4
 2095 0032 37D0     		beq	.L210
1012:Drivers/STM32F4xx_HAL_Driver/Src/stm32f4xx_hal_rcc.c ****   {
1013:Drivers/STM32F4xx_HAL_Driver/Src/stm32f4xx_hal_rcc.c ****     RCC_OscInitStruct->LSEState = RCC_LSE_BYPASS;
 2096              		.loc 1 1013 5 is_stmt 1 view .LVU573
 2097              		.loc 1 1013 33 is_stmt 0 view .LVU574
 2098 0034 0523     		movs	r3, #5
 2099 0036 8360     		str	r3, [r0, #8]
 2100              	.L211:
ARM GAS  C:\Users\moham\AppData\Local\Temp\ccRDsC4I.s 			page 60


1014:Drivers/STM32F4xx_HAL_Driver/Src/stm32f4xx_hal_rcc.c ****   }
1015:Drivers/STM32F4xx_HAL_Driver/Src/stm32f4xx_hal_rcc.c ****   else if ((RCC->BDCR & RCC_BDCR_LSEON) == RCC_BDCR_LSEON)
1016:Drivers/STM32F4xx_HAL_Driver/Src/stm32f4xx_hal_rcc.c ****   {
1017:Drivers/STM32F4xx_HAL_Driver/Src/stm32f4xx_hal_rcc.c ****     RCC_OscInitStruct->LSEState = RCC_LSE_ON;
1018:Drivers/STM32F4xx_HAL_Driver/Src/stm32f4xx_hal_rcc.c ****   }
1019:Drivers/STM32F4xx_HAL_Driver/Src/stm32f4xx_hal_rcc.c ****   else
1020:Drivers/STM32F4xx_HAL_Driver/Src/stm32f4xx_hal_rcc.c ****   {
1021:Drivers/STM32F4xx_HAL_Driver/Src/stm32f4xx_hal_rcc.c ****     RCC_OscInitStruct->LSEState = RCC_LSE_OFF;
1022:Drivers/STM32F4xx_HAL_Driver/Src/stm32f4xx_hal_rcc.c ****   }
1023:Drivers/STM32F4xx_HAL_Driver/Src/stm32f4xx_hal_rcc.c **** 
1024:Drivers/STM32F4xx_HAL_Driver/Src/stm32f4xx_hal_rcc.c ****   /* Get the LSI configuration -----------------------------------------------*/
1025:Drivers/STM32F4xx_HAL_Driver/Src/stm32f4xx_hal_rcc.c ****   if ((RCC->CSR & RCC_CSR_LSION) == RCC_CSR_LSION)
 2101              		.loc 1 1025 3 is_stmt 1 view .LVU575
 2102              		.loc 1 1025 11 is_stmt 0 view .LVU576
 2103 0038 234B     		ldr	r3, .L217
 2104 003a 5B6F     		ldr	r3, [r3, #116]
 2105              		.loc 1 1025 6 view .LVU577
 2106 003c 13F0010F 		tst	r3, #1
 2107 0040 3BD0     		beq	.L213
1026:Drivers/STM32F4xx_HAL_Driver/Src/stm32f4xx_hal_rcc.c ****   {
1027:Drivers/STM32F4xx_HAL_Driver/Src/stm32f4xx_hal_rcc.c ****     RCC_OscInitStruct->LSIState = RCC_LSI_ON;
 2108              		.loc 1 1027 5 is_stmt 1 view .LVU578
 2109              		.loc 1 1027 33 is_stmt 0 view .LVU579
 2110 0042 0123     		movs	r3, #1
 2111 0044 4361     		str	r3, [r0, #20]
 2112              	.L214:
1028:Drivers/STM32F4xx_HAL_Driver/Src/stm32f4xx_hal_rcc.c ****   }
1029:Drivers/STM32F4xx_HAL_Driver/Src/stm32f4xx_hal_rcc.c ****   else
1030:Drivers/STM32F4xx_HAL_Driver/Src/stm32f4xx_hal_rcc.c ****   {
1031:Drivers/STM32F4xx_HAL_Driver/Src/stm32f4xx_hal_rcc.c ****     RCC_OscInitStruct->LSIState = RCC_LSI_OFF;
1032:Drivers/STM32F4xx_HAL_Driver/Src/stm32f4xx_hal_rcc.c ****   }
1033:Drivers/STM32F4xx_HAL_Driver/Src/stm32f4xx_hal_rcc.c **** 
1034:Drivers/STM32F4xx_HAL_Driver/Src/stm32f4xx_hal_rcc.c ****   /* Get the PLL configuration -----------------------------------------------*/
1035:Drivers/STM32F4xx_HAL_Driver/Src/stm32f4xx_hal_rcc.c ****   if ((RCC->CR & RCC_CR_PLLON) == RCC_CR_PLLON)
 2113              		.loc 1 1035 3 is_stmt 1 view .LVU580
 2114              		.loc 1 1035 11 is_stmt 0 view .LVU581
 2115 0046 204B     		ldr	r3, .L217
 2116 0048 1B68     		ldr	r3, [r3]
 2117              		.loc 1 1035 6 view .LVU582
 2118 004a 13F0807F 		tst	r3, #16777216
 2119 004e 37D0     		beq	.L215
1036:Drivers/STM32F4xx_HAL_Driver/Src/stm32f4xx_hal_rcc.c ****   {
1037:Drivers/STM32F4xx_HAL_Driver/Src/stm32f4xx_hal_rcc.c ****     RCC_OscInitStruct->PLL.PLLState = RCC_PLL_ON;
 2120              		.loc 1 1037 5 is_stmt 1 view .LVU583
 2121              		.loc 1 1037 37 is_stmt 0 view .LVU584
 2122 0050 0223     		movs	r3, #2
 2123 0052 8361     		str	r3, [r0, #24]
 2124              	.L216:
1038:Drivers/STM32F4xx_HAL_Driver/Src/stm32f4xx_hal_rcc.c ****   }
1039:Drivers/STM32F4xx_HAL_Driver/Src/stm32f4xx_hal_rcc.c ****   else
1040:Drivers/STM32F4xx_HAL_Driver/Src/stm32f4xx_hal_rcc.c ****   {
1041:Drivers/STM32F4xx_HAL_Driver/Src/stm32f4xx_hal_rcc.c ****     RCC_OscInitStruct->PLL.PLLState = RCC_PLL_OFF;
1042:Drivers/STM32F4xx_HAL_Driver/Src/stm32f4xx_hal_rcc.c ****   }
1043:Drivers/STM32F4xx_HAL_Driver/Src/stm32f4xx_hal_rcc.c ****   RCC_OscInitStruct->PLL.PLLSource = (uint32_t)(RCC->PLLCFGR & RCC_PLLCFGR_PLLSRC);
 2125              		.loc 1 1043 3 is_stmt 1 view .LVU585
 2126              		.loc 1 1043 52 is_stmt 0 view .LVU586
 2127 0054 1C4A     		ldr	r2, .L217
ARM GAS  C:\Users\moham\AppData\Local\Temp\ccRDsC4I.s 			page 61


 2128 0056 5368     		ldr	r3, [r2, #4]
 2129              		.loc 1 1043 38 view .LVU587
 2130 0058 03F48003 		and	r3, r3, #4194304
 2131              		.loc 1 1043 36 view .LVU588
 2132 005c C361     		str	r3, [r0, #28]
1044:Drivers/STM32F4xx_HAL_Driver/Src/stm32f4xx_hal_rcc.c ****   RCC_OscInitStruct->PLL.PLLM = (uint32_t)(RCC->PLLCFGR & RCC_PLLCFGR_PLLM);
 2133              		.loc 1 1044 3 is_stmt 1 view .LVU589
 2134              		.loc 1 1044 47 is_stmt 0 view .LVU590
 2135 005e 5368     		ldr	r3, [r2, #4]
 2136              		.loc 1 1044 33 view .LVU591
 2137 0060 03F03F03 		and	r3, r3, #63
 2138              		.loc 1 1044 31 view .LVU592
 2139 0064 0362     		str	r3, [r0, #32]
1045:Drivers/STM32F4xx_HAL_Driver/Src/stm32f4xx_hal_rcc.c ****   RCC_OscInitStruct->PLL.PLLN = (uint32_t)((RCC->PLLCFGR & RCC_PLLCFGR_PLLN) >> RCC_PLLCFGR_PLLN_Po
 2140              		.loc 1 1045 3 is_stmt 1 view .LVU593
 2141              		.loc 1 1045 48 is_stmt 0 view .LVU594
 2142 0066 5368     		ldr	r3, [r2, #4]
 2143              		.loc 1 1045 33 view .LVU595
 2144 0068 C3F38813 		ubfx	r3, r3, #6, #9
 2145              		.loc 1 1045 31 view .LVU596
 2146 006c 4362     		str	r3, [r0, #36]
1046:Drivers/STM32F4xx_HAL_Driver/Src/stm32f4xx_hal_rcc.c ****   RCC_OscInitStruct->PLL.PLLP = (uint32_t)((((RCC->PLLCFGR & RCC_PLLCFGR_PLLP) + RCC_PLLCFGR_PLLP_0
 2147              		.loc 1 1046 3 is_stmt 1 view .LVU597
 2148              		.loc 1 1046 50 is_stmt 0 view .LVU598
 2149 006e 5368     		ldr	r3, [r2, #4]
 2150              		.loc 1 1046 60 view .LVU599
 2151 0070 03F44033 		and	r3, r3, #196608
 2152              		.loc 1 1046 80 view .LVU600
 2153 0074 03F58033 		add	r3, r3, #65536
 2154              		.loc 1 1046 33 view .LVU601
 2155 0078 DB0B     		lsrs	r3, r3, #15
 2156              		.loc 1 1046 31 view .LVU602
 2157 007a 8362     		str	r3, [r0, #40]
1047:Drivers/STM32F4xx_HAL_Driver/Src/stm32f4xx_hal_rcc.c ****   RCC_OscInitStruct->PLL.PLLQ = (uint32_t)((RCC->PLLCFGR & RCC_PLLCFGR_PLLQ) >> RCC_PLLCFGR_PLLQ_Po
 2158              		.loc 1 1047 3 is_stmt 1 view .LVU603
 2159              		.loc 1 1047 48 is_stmt 0 view .LVU604
 2160 007c 5368     		ldr	r3, [r2, #4]
 2161              		.loc 1 1047 33 view .LVU605
 2162 007e C3F30363 		ubfx	r3, r3, #24, #4
 2163              		.loc 1 1047 31 view .LVU606
 2164 0082 C362     		str	r3, [r0, #44]
1048:Drivers/STM32F4xx_HAL_Driver/Src/stm32f4xx_hal_rcc.c **** }
 2165              		.loc 1 1048 1 view .LVU607
 2166 0084 7047     		bx	lr
 2167              	.L205:
 989:Drivers/STM32F4xx_HAL_Driver/Src/stm32f4xx_hal_rcc.c ****   {
 2168              		.loc 1 989 8 is_stmt 1 view .LVU608
 989:Drivers/STM32F4xx_HAL_Driver/Src/stm32f4xx_hal_rcc.c ****   {
 2169              		.loc 1 989 16 is_stmt 0 view .LVU609
 2170 0086 104B     		ldr	r3, .L217
 2171 0088 1B68     		ldr	r3, [r3]
 989:Drivers/STM32F4xx_HAL_Driver/Src/stm32f4xx_hal_rcc.c ****   {
 2172              		.loc 1 989 11 view .LVU610
 2173 008a 13F4803F 		tst	r3, #65536
 2174 008e 03D0     		beq	.L207
 991:Drivers/STM32F4xx_HAL_Driver/Src/stm32f4xx_hal_rcc.c ****   }
 2175              		.loc 1 991 5 is_stmt 1 view .LVU611
ARM GAS  C:\Users\moham\AppData\Local\Temp\ccRDsC4I.s 			page 62


 991:Drivers/STM32F4xx_HAL_Driver/Src/stm32f4xx_hal_rcc.c ****   }
 2176              		.loc 1 991 33 is_stmt 0 view .LVU612
 2177 0090 4FF48033 		mov	r3, #65536
 2178 0094 4360     		str	r3, [r0, #4]
 2179 0096 BDE7     		b	.L206
 2180              	.L207:
 995:Drivers/STM32F4xx_HAL_Driver/Src/stm32f4xx_hal_rcc.c ****   }
 2181              		.loc 1 995 5 is_stmt 1 view .LVU613
 995:Drivers/STM32F4xx_HAL_Driver/Src/stm32f4xx_hal_rcc.c ****   }
 2182              		.loc 1 995 33 is_stmt 0 view .LVU614
 2183 0098 0023     		movs	r3, #0
 2184 009a 4360     		str	r3, [r0, #4]
 2185 009c BAE7     		b	.L206
 2186              	.L208:
1005:Drivers/STM32F4xx_HAL_Driver/Src/stm32f4xx_hal_rcc.c ****   }
 2187              		.loc 1 1005 5 is_stmt 1 view .LVU615
1005:Drivers/STM32F4xx_HAL_Driver/Src/stm32f4xx_hal_rcc.c ****   }
 2188              		.loc 1 1005 33 is_stmt 0 view .LVU616
 2189 009e 0023     		movs	r3, #0
 2190 00a0 C360     		str	r3, [r0, #12]
 2191 00a2 BEE7     		b	.L209
 2192              	.L210:
1015:Drivers/STM32F4xx_HAL_Driver/Src/stm32f4xx_hal_rcc.c ****   {
 2193              		.loc 1 1015 8 is_stmt 1 view .LVU617
1015:Drivers/STM32F4xx_HAL_Driver/Src/stm32f4xx_hal_rcc.c ****   {
 2194              		.loc 1 1015 16 is_stmt 0 view .LVU618
 2195 00a4 084B     		ldr	r3, .L217
 2196 00a6 1B6F     		ldr	r3, [r3, #112]
1015:Drivers/STM32F4xx_HAL_Driver/Src/stm32f4xx_hal_rcc.c ****   {
 2197              		.loc 1 1015 11 view .LVU619
 2198 00a8 13F0010F 		tst	r3, #1
 2199 00ac 02D0     		beq	.L212
1017:Drivers/STM32F4xx_HAL_Driver/Src/stm32f4xx_hal_rcc.c ****   }
 2200              		.loc 1 1017 5 is_stmt 1 view .LVU620
1017:Drivers/STM32F4xx_HAL_Driver/Src/stm32f4xx_hal_rcc.c ****   }
 2201              		.loc 1 1017 33 is_stmt 0 view .LVU621
 2202 00ae 0123     		movs	r3, #1
 2203 00b0 8360     		str	r3, [r0, #8]
 2204 00b2 C1E7     		b	.L211
 2205              	.L212:
1021:Drivers/STM32F4xx_HAL_Driver/Src/stm32f4xx_hal_rcc.c ****   }
 2206              		.loc 1 1021 5 is_stmt 1 view .LVU622
1021:Drivers/STM32F4xx_HAL_Driver/Src/stm32f4xx_hal_rcc.c ****   }
 2207              		.loc 1 1021 33 is_stmt 0 view .LVU623
 2208 00b4 0023     		movs	r3, #0
 2209 00b6 8360     		str	r3, [r0, #8]
 2210 00b8 BEE7     		b	.L211
 2211              	.L213:
1031:Drivers/STM32F4xx_HAL_Driver/Src/stm32f4xx_hal_rcc.c ****   }
 2212              		.loc 1 1031 5 is_stmt 1 view .LVU624
1031:Drivers/STM32F4xx_HAL_Driver/Src/stm32f4xx_hal_rcc.c ****   }
 2213              		.loc 1 1031 33 is_stmt 0 view .LVU625
 2214 00ba 0023     		movs	r3, #0
 2215 00bc 4361     		str	r3, [r0, #20]
 2216 00be C2E7     		b	.L214
 2217              	.L215:
1041:Drivers/STM32F4xx_HAL_Driver/Src/stm32f4xx_hal_rcc.c ****   }
ARM GAS  C:\Users\moham\AppData\Local\Temp\ccRDsC4I.s 			page 63


 2218              		.loc 1 1041 5 is_stmt 1 view .LVU626
1041:Drivers/STM32F4xx_HAL_Driver/Src/stm32f4xx_hal_rcc.c ****   }
 2219              		.loc 1 1041 37 is_stmt 0 view .LVU627
 2220 00c0 0123     		movs	r3, #1
 2221 00c2 8361     		str	r3, [r0, #24]
 2222 00c4 C6E7     		b	.L216
 2223              	.L218:
 2224 00c6 00BF     		.align	2
 2225              	.L217:
 2226 00c8 00380240 		.word	1073887232
 2227              		.cfi_endproc
 2228              	.LFE249:
 2230              		.section	.text.HAL_RCC_GetClockConfig,"ax",%progbits
 2231              		.align	1
 2232              		.global	HAL_RCC_GetClockConfig
 2233              		.syntax unified
 2234              		.thumb
 2235              		.thumb_func
 2237              	HAL_RCC_GetClockConfig:
 2238              	.LVL128:
 2239              	.LFB250:
1049:Drivers/STM32F4xx_HAL_Driver/Src/stm32f4xx_hal_rcc.c **** 
1050:Drivers/STM32F4xx_HAL_Driver/Src/stm32f4xx_hal_rcc.c **** /**
1051:Drivers/STM32F4xx_HAL_Driver/Src/stm32f4xx_hal_rcc.c ****   * @brief  Configures the RCC_ClkInitStruct according to the internal
1052:Drivers/STM32F4xx_HAL_Driver/Src/stm32f4xx_hal_rcc.c ****   * RCC configuration registers.
1053:Drivers/STM32F4xx_HAL_Driver/Src/stm32f4xx_hal_rcc.c ****   * @param  RCC_ClkInitStruct pointer to an RCC_ClkInitTypeDef structure that
1054:Drivers/STM32F4xx_HAL_Driver/Src/stm32f4xx_hal_rcc.c ****   * will be configured.
1055:Drivers/STM32F4xx_HAL_Driver/Src/stm32f4xx_hal_rcc.c ****   * @param  pFLatency Pointer on the Flash Latency.
1056:Drivers/STM32F4xx_HAL_Driver/Src/stm32f4xx_hal_rcc.c ****   * @retval None
1057:Drivers/STM32F4xx_HAL_Driver/Src/stm32f4xx_hal_rcc.c ****   */
1058:Drivers/STM32F4xx_HAL_Driver/Src/stm32f4xx_hal_rcc.c **** void HAL_RCC_GetClockConfig(RCC_ClkInitTypeDef  *RCC_ClkInitStruct, uint32_t *pFLatency)
1059:Drivers/STM32F4xx_HAL_Driver/Src/stm32f4xx_hal_rcc.c **** {
 2240              		.loc 1 1059 1 is_stmt 1 view -0
 2241              		.cfi_startproc
 2242              		@ args = 0, pretend = 0, frame = 0
 2243              		@ frame_needed = 0, uses_anonymous_args = 0
 2244              		@ link register save eliminated.
1060:Drivers/STM32F4xx_HAL_Driver/Src/stm32f4xx_hal_rcc.c ****   /* Set all possible values for the Clock type parameter --------------------*/
1061:Drivers/STM32F4xx_HAL_Driver/Src/stm32f4xx_hal_rcc.c ****   RCC_ClkInitStruct->ClockType = RCC_CLOCKTYPE_SYSCLK | RCC_CLOCKTYPE_HCLK | RCC_CLOCKTYPE_PCLK1 | 
 2245              		.loc 1 1061 3 view .LVU629
 2246              		.loc 1 1061 32 is_stmt 0 view .LVU630
 2247 0000 0F23     		movs	r3, #15
 2248 0002 0360     		str	r3, [r0]
1062:Drivers/STM32F4xx_HAL_Driver/Src/stm32f4xx_hal_rcc.c **** 
1063:Drivers/STM32F4xx_HAL_Driver/Src/stm32f4xx_hal_rcc.c ****   /* Get the SYSCLK configuration --------------------------------------------*/
1064:Drivers/STM32F4xx_HAL_Driver/Src/stm32f4xx_hal_rcc.c ****   RCC_ClkInitStruct->SYSCLKSource = (uint32_t)(RCC->CFGR & RCC_CFGR_SW);
 2249              		.loc 1 1064 3 is_stmt 1 view .LVU631
 2250              		.loc 1 1064 51 is_stmt 0 view .LVU632
 2251 0004 0B4B     		ldr	r3, .L220
 2252 0006 9A68     		ldr	r2, [r3, #8]
 2253              		.loc 1 1064 37 view .LVU633
 2254 0008 02F00302 		and	r2, r2, #3
 2255              		.loc 1 1064 35 view .LVU634
 2256 000c 4260     		str	r2, [r0, #4]
1065:Drivers/STM32F4xx_HAL_Driver/Src/stm32f4xx_hal_rcc.c **** 
1066:Drivers/STM32F4xx_HAL_Driver/Src/stm32f4xx_hal_rcc.c ****   /* Get the HCLK configuration ----------------------------------------------*/
1067:Drivers/STM32F4xx_HAL_Driver/Src/stm32f4xx_hal_rcc.c ****   RCC_ClkInitStruct->AHBCLKDivider = (uint32_t)(RCC->CFGR & RCC_CFGR_HPRE);
ARM GAS  C:\Users\moham\AppData\Local\Temp\ccRDsC4I.s 			page 64


 2257              		.loc 1 1067 3 is_stmt 1 view .LVU635
 2258              		.loc 1 1067 52 is_stmt 0 view .LVU636
 2259 000e 9A68     		ldr	r2, [r3, #8]
 2260              		.loc 1 1067 38 view .LVU637
 2261 0010 02F0F002 		and	r2, r2, #240
 2262              		.loc 1 1067 36 view .LVU638
 2263 0014 8260     		str	r2, [r0, #8]
1068:Drivers/STM32F4xx_HAL_Driver/Src/stm32f4xx_hal_rcc.c **** 
1069:Drivers/STM32F4xx_HAL_Driver/Src/stm32f4xx_hal_rcc.c ****   /* Get the APB1 configuration ----------------------------------------------*/
1070:Drivers/STM32F4xx_HAL_Driver/Src/stm32f4xx_hal_rcc.c ****   RCC_ClkInitStruct->APB1CLKDivider = (uint32_t)(RCC->CFGR & RCC_CFGR_PPRE1);
 2264              		.loc 1 1070 3 is_stmt 1 view .LVU639
 2265              		.loc 1 1070 53 is_stmt 0 view .LVU640
 2266 0016 9A68     		ldr	r2, [r3, #8]
 2267              		.loc 1 1070 39 view .LVU641
 2268 0018 02F4E052 		and	r2, r2, #7168
 2269              		.loc 1 1070 37 view .LVU642
 2270 001c C260     		str	r2, [r0, #12]
1071:Drivers/STM32F4xx_HAL_Driver/Src/stm32f4xx_hal_rcc.c **** 
1072:Drivers/STM32F4xx_HAL_Driver/Src/stm32f4xx_hal_rcc.c ****   /* Get the APB2 configuration ----------------------------------------------*/
1073:Drivers/STM32F4xx_HAL_Driver/Src/stm32f4xx_hal_rcc.c ****   RCC_ClkInitStruct->APB2CLKDivider = (uint32_t)((RCC->CFGR & RCC_CFGR_PPRE2) >> 3U);
 2271              		.loc 1 1073 3 is_stmt 1 view .LVU643
 2272              		.loc 1 1073 54 is_stmt 0 view .LVU644
 2273 001e 9B68     		ldr	r3, [r3, #8]
 2274              		.loc 1 1073 39 view .LVU645
 2275 0020 DB08     		lsrs	r3, r3, #3
 2276 0022 03F4E053 		and	r3, r3, #7168
 2277              		.loc 1 1073 37 view .LVU646
 2278 0026 0361     		str	r3, [r0, #16]
1074:Drivers/STM32F4xx_HAL_Driver/Src/stm32f4xx_hal_rcc.c **** 
1075:Drivers/STM32F4xx_HAL_Driver/Src/stm32f4xx_hal_rcc.c ****   /* Get the Flash Wait State (Latency) configuration ------------------------*/
1076:Drivers/STM32F4xx_HAL_Driver/Src/stm32f4xx_hal_rcc.c ****   *pFLatency = (uint32_t)(FLASH->ACR & FLASH_ACR_LATENCY);
 2279              		.loc 1 1076 3 is_stmt 1 view .LVU647
 2280              		.loc 1 1076 32 is_stmt 0 view .LVU648
 2281 0028 034B     		ldr	r3, .L220+4
 2282 002a 1B68     		ldr	r3, [r3]
 2283              		.loc 1 1076 16 view .LVU649
 2284 002c 03F00F03 		and	r3, r3, #15
 2285              		.loc 1 1076 14 view .LVU650
 2286 0030 0B60     		str	r3, [r1]
1077:Drivers/STM32F4xx_HAL_Driver/Src/stm32f4xx_hal_rcc.c **** }
 2287              		.loc 1 1077 1 view .LVU651
 2288 0032 7047     		bx	lr
 2289              	.L221:
 2290              		.align	2
 2291              	.L220:
 2292 0034 00380240 		.word	1073887232
 2293 0038 003C0240 		.word	1073888256
 2294              		.cfi_endproc
 2295              	.LFE250:
 2297              		.section	.text.HAL_RCC_CSSCallback,"ax",%progbits
 2298              		.align	1
 2299              		.weak	HAL_RCC_CSSCallback
 2300              		.syntax unified
 2301              		.thumb
 2302              		.thumb_func
 2304              	HAL_RCC_CSSCallback:
 2305              	.LFB252:
ARM GAS  C:\Users\moham\AppData\Local\Temp\ccRDsC4I.s 			page 65


1078:Drivers/STM32F4xx_HAL_Driver/Src/stm32f4xx_hal_rcc.c **** 
1079:Drivers/STM32F4xx_HAL_Driver/Src/stm32f4xx_hal_rcc.c **** /**
1080:Drivers/STM32F4xx_HAL_Driver/Src/stm32f4xx_hal_rcc.c ****   * @brief This function handles the RCC CSS interrupt request.
1081:Drivers/STM32F4xx_HAL_Driver/Src/stm32f4xx_hal_rcc.c ****   * @note This API should be called under the NMI_Handler().
1082:Drivers/STM32F4xx_HAL_Driver/Src/stm32f4xx_hal_rcc.c ****   * @retval None
1083:Drivers/STM32F4xx_HAL_Driver/Src/stm32f4xx_hal_rcc.c ****   */
1084:Drivers/STM32F4xx_HAL_Driver/Src/stm32f4xx_hal_rcc.c **** void HAL_RCC_NMI_IRQHandler(void)
1085:Drivers/STM32F4xx_HAL_Driver/Src/stm32f4xx_hal_rcc.c **** {
1086:Drivers/STM32F4xx_HAL_Driver/Src/stm32f4xx_hal_rcc.c ****   /* Check RCC CSSF flag  */
1087:Drivers/STM32F4xx_HAL_Driver/Src/stm32f4xx_hal_rcc.c ****   if (__HAL_RCC_GET_IT(RCC_IT_CSS))
1088:Drivers/STM32F4xx_HAL_Driver/Src/stm32f4xx_hal_rcc.c ****   {
1089:Drivers/STM32F4xx_HAL_Driver/Src/stm32f4xx_hal_rcc.c ****     /* RCC Clock Security System interrupt user callback */
1090:Drivers/STM32F4xx_HAL_Driver/Src/stm32f4xx_hal_rcc.c ****     HAL_RCC_CSSCallback();
1091:Drivers/STM32F4xx_HAL_Driver/Src/stm32f4xx_hal_rcc.c **** 
1092:Drivers/STM32F4xx_HAL_Driver/Src/stm32f4xx_hal_rcc.c ****     /* Clear RCC CSS pending bit */
1093:Drivers/STM32F4xx_HAL_Driver/Src/stm32f4xx_hal_rcc.c ****     __HAL_RCC_CLEAR_IT(RCC_IT_CSS);
1094:Drivers/STM32F4xx_HAL_Driver/Src/stm32f4xx_hal_rcc.c ****   }
1095:Drivers/STM32F4xx_HAL_Driver/Src/stm32f4xx_hal_rcc.c **** }
1096:Drivers/STM32F4xx_HAL_Driver/Src/stm32f4xx_hal_rcc.c **** 
1097:Drivers/STM32F4xx_HAL_Driver/Src/stm32f4xx_hal_rcc.c **** /**
1098:Drivers/STM32F4xx_HAL_Driver/Src/stm32f4xx_hal_rcc.c ****   * @brief  RCC Clock Security System interrupt callback
1099:Drivers/STM32F4xx_HAL_Driver/Src/stm32f4xx_hal_rcc.c ****   * @retval None
1100:Drivers/STM32F4xx_HAL_Driver/Src/stm32f4xx_hal_rcc.c ****   */
1101:Drivers/STM32F4xx_HAL_Driver/Src/stm32f4xx_hal_rcc.c **** __weak void HAL_RCC_CSSCallback(void)
1102:Drivers/STM32F4xx_HAL_Driver/Src/stm32f4xx_hal_rcc.c **** {
 2306              		.loc 1 1102 1 is_stmt 1 view -0
 2307              		.cfi_startproc
 2308              		@ args = 0, pretend = 0, frame = 0
 2309              		@ frame_needed = 0, uses_anonymous_args = 0
 2310              		@ link register save eliminated.
1103:Drivers/STM32F4xx_HAL_Driver/Src/stm32f4xx_hal_rcc.c ****   /* NOTE : This function Should not be modified, when the callback is needed,
1104:Drivers/STM32F4xx_HAL_Driver/Src/stm32f4xx_hal_rcc.c ****             the HAL_RCC_CSSCallback could be implemented in the user file
1105:Drivers/STM32F4xx_HAL_Driver/Src/stm32f4xx_hal_rcc.c ****    */
1106:Drivers/STM32F4xx_HAL_Driver/Src/stm32f4xx_hal_rcc.c **** }
 2311              		.loc 1 1106 1 view .LVU653
 2312 0000 7047     		bx	lr
 2313              		.cfi_endproc
 2314              	.LFE252:
 2316              		.section	.text.HAL_RCC_NMI_IRQHandler,"ax",%progbits
 2317              		.align	1
 2318              		.global	HAL_RCC_NMI_IRQHandler
 2319              		.syntax unified
 2320              		.thumb
 2321              		.thumb_func
 2323              	HAL_RCC_NMI_IRQHandler:
 2324              	.LFB251:
1085:Drivers/STM32F4xx_HAL_Driver/Src/stm32f4xx_hal_rcc.c ****   /* Check RCC CSSF flag  */
 2325              		.loc 1 1085 1 view -0
 2326              		.cfi_startproc
 2327              		@ args = 0, pretend = 0, frame = 0
 2328              		@ frame_needed = 0, uses_anonymous_args = 0
 2329 0000 08B5     		push	{r3, lr}
 2330              	.LCFI16:
 2331              		.cfi_def_cfa_offset 8
 2332              		.cfi_offset 3, -8
 2333              		.cfi_offset 14, -4
1087:Drivers/STM32F4xx_HAL_Driver/Src/stm32f4xx_hal_rcc.c ****   {
ARM GAS  C:\Users\moham\AppData\Local\Temp\ccRDsC4I.s 			page 66


 2334              		.loc 1 1087 3 view .LVU655
1087:Drivers/STM32F4xx_HAL_Driver/Src/stm32f4xx_hal_rcc.c ****   {
 2335              		.loc 1 1087 7 is_stmt 0 view .LVU656
 2336 0002 064B     		ldr	r3, .L227
 2337 0004 DB68     		ldr	r3, [r3, #12]
1087:Drivers/STM32F4xx_HAL_Driver/Src/stm32f4xx_hal_rcc.c ****   {
 2338              		.loc 1 1087 6 view .LVU657
 2339 0006 13F0800F 		tst	r3, #128
 2340 000a 00D1     		bne	.L226
 2341              	.L223:
1095:Drivers/STM32F4xx_HAL_Driver/Src/stm32f4xx_hal_rcc.c **** 
 2342              		.loc 1 1095 1 view .LVU658
 2343 000c 08BD     		pop	{r3, pc}
 2344              	.L226:
1090:Drivers/STM32F4xx_HAL_Driver/Src/stm32f4xx_hal_rcc.c **** 
 2345              		.loc 1 1090 5 is_stmt 1 view .LVU659
 2346 000e FFF7FEFF 		bl	HAL_RCC_CSSCallback
 2347              	.LVL129:
1093:Drivers/STM32F4xx_HAL_Driver/Src/stm32f4xx_hal_rcc.c ****   }
 2348              		.loc 1 1093 5 view .LVU660
 2349 0012 024B     		ldr	r3, .L227
 2350 0014 8022     		movs	r2, #128
 2351 0016 9A73     		strb	r2, [r3, #14]
1095:Drivers/STM32F4xx_HAL_Driver/Src/stm32f4xx_hal_rcc.c **** 
 2352              		.loc 1 1095 1 is_stmt 0 view .LVU661
 2353 0018 F8E7     		b	.L223
 2354              	.L228:
 2355 001a 00BF     		.align	2
 2356              	.L227:
 2357 001c 00380240 		.word	1073887232
 2358              		.cfi_endproc
 2359              	.LFE251:
 2361              		.text
 2362              	.Letext0:
 2363              		.file 2 "C:/Program Files (x86)/Arm GNU Toolchain arm-none-eabi/14.3 rel1/arm-none-eabi/include/ma
 2364              		.file 3 "C:/Program Files (x86)/Arm GNU Toolchain arm-none-eabi/14.3 rel1/arm-none-eabi/include/sy
 2365              		.file 4 "Drivers/CMSIS/Device/ST/STM32F4xx/Include/system_stm32f4xx.h"
 2366              		.file 5 "Drivers/CMSIS/Device/ST/STM32F4xx/Include/stm32f429xx.h"
 2367              		.file 6 "Drivers/CMSIS/Device/ST/STM32F4xx/Include/stm32f4xx.h"
 2368              		.file 7 "Drivers/STM32F4xx_HAL_Driver/Inc/stm32f4xx_hal_def.h"
 2369              		.file 8 "Drivers/STM32F4xx_HAL_Driver/Inc/stm32f4xx_hal_rcc_ex.h"
 2370              		.file 9 "Drivers/STM32F4xx_HAL_Driver/Inc/stm32f4xx_hal_rcc.h"
 2371              		.file 10 "Drivers/STM32F4xx_HAL_Driver/Inc/stm32f4xx_hal_gpio.h"
 2372              		.file 11 "Drivers/STM32F4xx_HAL_Driver/Inc/stm32f4xx_hal.h"
 2373              		.file 12 "Core/Inc/stm32f4xx_hal_conf.h"
ARM GAS  C:\Users\moham\AppData\Local\Temp\ccRDsC4I.s 			page 67

