ARM GAS  C:\Users\moham\AppData\Local\Temp\ccM1fKiK.s 			page 1


   1              		.cpu cortex-m4
   2              		.arch armv7e-m
   3              		.fpu fpv4-sp-d16
   4              		.eabi_attribute 27, 1
   5              		.eabi_attribute 28, 1
   6              		.eabi_attribute 20, 1
   7              		.eabi_attribute 21, 1
   8              		.eabi_attribute 23, 3
   9              		.eabi_attribute 24, 1
  10              		.eabi_attribute 25, 1
  11              		.eabi_attribute 26, 1
  12              		.eabi_attribute 30, 1
  13              		.eabi_attribute 34, 1
  14              		.eabi_attribute 18, 4
  15              		.file	"stm32f4xx_hal_crc.c"
  16              		.text
  17              	.Ltext0:
  18              		.cfi_sections	.debug_frame
  19              		.file 1 "Drivers/STM32F4xx_HAL_Driver/Src/stm32f4xx_hal_crc.c"
  20              		.section	.text.HAL_CRC_MspInit,"ax",%progbits
  21              		.align	1
  22              		.weak	HAL_CRC_MspInit
  23              		.syntax unified
  24              		.thumb
  25              		.thumb_func
  27              	HAL_CRC_MspInit:
  28              	.LVL0:
  29              	.LFB241:
   1:Drivers/STM32F4xx_HAL_Driver/Src/stm32f4xx_hal_crc.c **** /**
   2:Drivers/STM32F4xx_HAL_Driver/Src/stm32f4xx_hal_crc.c ****   ******************************************************************************
   3:Drivers/STM32F4xx_HAL_Driver/Src/stm32f4xx_hal_crc.c ****   * @file    stm32f4xx_hal_crc.c
   4:Drivers/STM32F4xx_HAL_Driver/Src/stm32f4xx_hal_crc.c ****   * @author  MCD Application Team
   5:Drivers/STM32F4xx_HAL_Driver/Src/stm32f4xx_hal_crc.c ****   * @brief   CRC HAL module driver.
   6:Drivers/STM32F4xx_HAL_Driver/Src/stm32f4xx_hal_crc.c ****   *          This file provides firmware functions to manage the following
   7:Drivers/STM32F4xx_HAL_Driver/Src/stm32f4xx_hal_crc.c ****   *          functionalities of the Cyclic Redundancy Check (CRC) peripheral:
   8:Drivers/STM32F4xx_HAL_Driver/Src/stm32f4xx_hal_crc.c ****   *           + Initialization and de-initialization functions
   9:Drivers/STM32F4xx_HAL_Driver/Src/stm32f4xx_hal_crc.c ****   *           + Peripheral Control functions
  10:Drivers/STM32F4xx_HAL_Driver/Src/stm32f4xx_hal_crc.c ****   *           + Peripheral State functions
  11:Drivers/STM32F4xx_HAL_Driver/Src/stm32f4xx_hal_crc.c ****   *
  12:Drivers/STM32F4xx_HAL_Driver/Src/stm32f4xx_hal_crc.c ****   ******************************************************************************
  13:Drivers/STM32F4xx_HAL_Driver/Src/stm32f4xx_hal_crc.c ****   * @attention
  14:Drivers/STM32F4xx_HAL_Driver/Src/stm32f4xx_hal_crc.c ****   *
  15:Drivers/STM32F4xx_HAL_Driver/Src/stm32f4xx_hal_crc.c ****   * Copyright (c) 2016 STMicroelectronics.
  16:Drivers/STM32F4xx_HAL_Driver/Src/stm32f4xx_hal_crc.c ****   * All rights reserved.
  17:Drivers/STM32F4xx_HAL_Driver/Src/stm32f4xx_hal_crc.c ****   *
  18:Drivers/STM32F4xx_HAL_Driver/Src/stm32f4xx_hal_crc.c ****   * This software is licensed under terms that can be found in the LICENSE file
  19:Drivers/STM32F4xx_HAL_Driver/Src/stm32f4xx_hal_crc.c ****   * in the root directory of this software component.
  20:Drivers/STM32F4xx_HAL_Driver/Src/stm32f4xx_hal_crc.c ****   * If no LICENSE file comes with this software, it is provided AS-IS.
  21:Drivers/STM32F4xx_HAL_Driver/Src/stm32f4xx_hal_crc.c ****   *
  22:Drivers/STM32F4xx_HAL_Driver/Src/stm32f4xx_hal_crc.c ****   ******************************************************************************
  23:Drivers/STM32F4xx_HAL_Driver/Src/stm32f4xx_hal_crc.c ****   @verbatim
  24:Drivers/STM32F4xx_HAL_Driver/Src/stm32f4xx_hal_crc.c ****  ===============================================================================
  25:Drivers/STM32F4xx_HAL_Driver/Src/stm32f4xx_hal_crc.c ****                      ##### How to use this driver #####
  26:Drivers/STM32F4xx_HAL_Driver/Src/stm32f4xx_hal_crc.c ****  ===============================================================================
  27:Drivers/STM32F4xx_HAL_Driver/Src/stm32f4xx_hal_crc.c ****     [..]
  28:Drivers/STM32F4xx_HAL_Driver/Src/stm32f4xx_hal_crc.c ****          (+) Enable CRC AHB clock using __HAL_RCC_CRC_CLK_ENABLE();
  29:Drivers/STM32F4xx_HAL_Driver/Src/stm32f4xx_hal_crc.c ****          (+) Initialize CRC calculator
ARM GAS  C:\Users\moham\AppData\Local\Temp\ccM1fKiK.s 			page 2


  30:Drivers/STM32F4xx_HAL_Driver/Src/stm32f4xx_hal_crc.c ****              (++) specify generating polynomial (peripheral default or non-default one)
  31:Drivers/STM32F4xx_HAL_Driver/Src/stm32f4xx_hal_crc.c ****              (++) specify initialization value (peripheral default or non-default one)
  32:Drivers/STM32F4xx_HAL_Driver/Src/stm32f4xx_hal_crc.c ****              (++) specify input data format
  33:Drivers/STM32F4xx_HAL_Driver/Src/stm32f4xx_hal_crc.c ****              (++) specify input or output data inversion mode if any
  34:Drivers/STM32F4xx_HAL_Driver/Src/stm32f4xx_hal_crc.c ****          (+) Use HAL_CRC_Accumulate() function to compute the CRC value of the
  35:Drivers/STM32F4xx_HAL_Driver/Src/stm32f4xx_hal_crc.c ****              input data buffer starting with the previously computed CRC as
  36:Drivers/STM32F4xx_HAL_Driver/Src/stm32f4xx_hal_crc.c ****              initialization value
  37:Drivers/STM32F4xx_HAL_Driver/Src/stm32f4xx_hal_crc.c ****          (+) Use HAL_CRC_Calculate() function to compute the CRC value of the
  38:Drivers/STM32F4xx_HAL_Driver/Src/stm32f4xx_hal_crc.c ****              input data buffer starting with the defined initialization value
  39:Drivers/STM32F4xx_HAL_Driver/Src/stm32f4xx_hal_crc.c ****              (default or non-default) to initiate CRC calculation
  40:Drivers/STM32F4xx_HAL_Driver/Src/stm32f4xx_hal_crc.c **** 
  41:Drivers/STM32F4xx_HAL_Driver/Src/stm32f4xx_hal_crc.c ****   @endverbatim
  42:Drivers/STM32F4xx_HAL_Driver/Src/stm32f4xx_hal_crc.c ****   ******************************************************************************
  43:Drivers/STM32F4xx_HAL_Driver/Src/stm32f4xx_hal_crc.c ****   */
  44:Drivers/STM32F4xx_HAL_Driver/Src/stm32f4xx_hal_crc.c **** 
  45:Drivers/STM32F4xx_HAL_Driver/Src/stm32f4xx_hal_crc.c **** /* Includes ------------------------------------------------------------------*/
  46:Drivers/STM32F4xx_HAL_Driver/Src/stm32f4xx_hal_crc.c **** #include "stm32f4xx_hal.h"
  47:Drivers/STM32F4xx_HAL_Driver/Src/stm32f4xx_hal_crc.c **** 
  48:Drivers/STM32F4xx_HAL_Driver/Src/stm32f4xx_hal_crc.c **** /** @addtogroup STM32F4xx_HAL_Driver
  49:Drivers/STM32F4xx_HAL_Driver/Src/stm32f4xx_hal_crc.c ****   * @{
  50:Drivers/STM32F4xx_HAL_Driver/Src/stm32f4xx_hal_crc.c ****   */
  51:Drivers/STM32F4xx_HAL_Driver/Src/stm32f4xx_hal_crc.c **** 
  52:Drivers/STM32F4xx_HAL_Driver/Src/stm32f4xx_hal_crc.c **** /** @defgroup CRC CRC
  53:Drivers/STM32F4xx_HAL_Driver/Src/stm32f4xx_hal_crc.c ****   * @brief CRC HAL module driver.
  54:Drivers/STM32F4xx_HAL_Driver/Src/stm32f4xx_hal_crc.c ****   * @{
  55:Drivers/STM32F4xx_HAL_Driver/Src/stm32f4xx_hal_crc.c ****   */
  56:Drivers/STM32F4xx_HAL_Driver/Src/stm32f4xx_hal_crc.c **** 
  57:Drivers/STM32F4xx_HAL_Driver/Src/stm32f4xx_hal_crc.c **** #ifdef HAL_CRC_MODULE_ENABLED
  58:Drivers/STM32F4xx_HAL_Driver/Src/stm32f4xx_hal_crc.c **** 
  59:Drivers/STM32F4xx_HAL_Driver/Src/stm32f4xx_hal_crc.c **** /* Private typedef -----------------------------------------------------------*/
  60:Drivers/STM32F4xx_HAL_Driver/Src/stm32f4xx_hal_crc.c **** /* Private define ------------------------------------------------------------*/
  61:Drivers/STM32F4xx_HAL_Driver/Src/stm32f4xx_hal_crc.c **** /* Private macro -------------------------------------------------------------*/
  62:Drivers/STM32F4xx_HAL_Driver/Src/stm32f4xx_hal_crc.c **** /* Private variables ---------------------------------------------------------*/
  63:Drivers/STM32F4xx_HAL_Driver/Src/stm32f4xx_hal_crc.c **** /* Private function prototypes -----------------------------------------------*/
  64:Drivers/STM32F4xx_HAL_Driver/Src/stm32f4xx_hal_crc.c **** 
  65:Drivers/STM32F4xx_HAL_Driver/Src/stm32f4xx_hal_crc.c **** /* Exported functions --------------------------------------------------------*/
  66:Drivers/STM32F4xx_HAL_Driver/Src/stm32f4xx_hal_crc.c **** 
  67:Drivers/STM32F4xx_HAL_Driver/Src/stm32f4xx_hal_crc.c **** /** @defgroup CRC_Exported_Functions CRC Exported Functions
  68:Drivers/STM32F4xx_HAL_Driver/Src/stm32f4xx_hal_crc.c ****   * @{
  69:Drivers/STM32F4xx_HAL_Driver/Src/stm32f4xx_hal_crc.c ****   */
  70:Drivers/STM32F4xx_HAL_Driver/Src/stm32f4xx_hal_crc.c **** 
  71:Drivers/STM32F4xx_HAL_Driver/Src/stm32f4xx_hal_crc.c **** /** @defgroup CRC_Exported_Functions_Group1 Initialization and de-initialization functions
  72:Drivers/STM32F4xx_HAL_Driver/Src/stm32f4xx_hal_crc.c ****   *  @brief    Initialization and Configuration functions.
  73:Drivers/STM32F4xx_HAL_Driver/Src/stm32f4xx_hal_crc.c ****   *
  74:Drivers/STM32F4xx_HAL_Driver/Src/stm32f4xx_hal_crc.c **** @verbatim
  75:Drivers/STM32F4xx_HAL_Driver/Src/stm32f4xx_hal_crc.c ****  ===============================================================================
  76:Drivers/STM32F4xx_HAL_Driver/Src/stm32f4xx_hal_crc.c ****             ##### Initialization and de-initialization functions #####
  77:Drivers/STM32F4xx_HAL_Driver/Src/stm32f4xx_hal_crc.c ****  ===============================================================================
  78:Drivers/STM32F4xx_HAL_Driver/Src/stm32f4xx_hal_crc.c ****     [..]  This section provides functions allowing to:
  79:Drivers/STM32F4xx_HAL_Driver/Src/stm32f4xx_hal_crc.c ****       (+) Initialize the CRC according to the specified parameters
  80:Drivers/STM32F4xx_HAL_Driver/Src/stm32f4xx_hal_crc.c ****           in the CRC_InitTypeDef and create the associated handle
  81:Drivers/STM32F4xx_HAL_Driver/Src/stm32f4xx_hal_crc.c ****       (+) DeInitialize the CRC peripheral
  82:Drivers/STM32F4xx_HAL_Driver/Src/stm32f4xx_hal_crc.c ****       (+) Initialize the CRC MSP (MCU Specific Package)
  83:Drivers/STM32F4xx_HAL_Driver/Src/stm32f4xx_hal_crc.c ****       (+) DeInitialize the CRC MSP
  84:Drivers/STM32F4xx_HAL_Driver/Src/stm32f4xx_hal_crc.c **** 
  85:Drivers/STM32F4xx_HAL_Driver/Src/stm32f4xx_hal_crc.c **** @endverbatim
  86:Drivers/STM32F4xx_HAL_Driver/Src/stm32f4xx_hal_crc.c ****   * @{
ARM GAS  C:\Users\moham\AppData\Local\Temp\ccM1fKiK.s 			page 3


  87:Drivers/STM32F4xx_HAL_Driver/Src/stm32f4xx_hal_crc.c ****   */
  88:Drivers/STM32F4xx_HAL_Driver/Src/stm32f4xx_hal_crc.c **** 
  89:Drivers/STM32F4xx_HAL_Driver/Src/stm32f4xx_hal_crc.c **** /**
  90:Drivers/STM32F4xx_HAL_Driver/Src/stm32f4xx_hal_crc.c ****   * @brief  Initialize the CRC according to the specified
  91:Drivers/STM32F4xx_HAL_Driver/Src/stm32f4xx_hal_crc.c ****   *         parameters in the CRC_InitTypeDef and create the associated handle.
  92:Drivers/STM32F4xx_HAL_Driver/Src/stm32f4xx_hal_crc.c ****   * @param  hcrc CRC handle
  93:Drivers/STM32F4xx_HAL_Driver/Src/stm32f4xx_hal_crc.c ****   * @retval HAL status
  94:Drivers/STM32F4xx_HAL_Driver/Src/stm32f4xx_hal_crc.c ****   */
  95:Drivers/STM32F4xx_HAL_Driver/Src/stm32f4xx_hal_crc.c **** HAL_StatusTypeDef HAL_CRC_Init(CRC_HandleTypeDef *hcrc)
  96:Drivers/STM32F4xx_HAL_Driver/Src/stm32f4xx_hal_crc.c **** {
  97:Drivers/STM32F4xx_HAL_Driver/Src/stm32f4xx_hal_crc.c ****   /* Check the CRC handle allocation */
  98:Drivers/STM32F4xx_HAL_Driver/Src/stm32f4xx_hal_crc.c ****   if (hcrc == NULL)
  99:Drivers/STM32F4xx_HAL_Driver/Src/stm32f4xx_hal_crc.c ****   {
 100:Drivers/STM32F4xx_HAL_Driver/Src/stm32f4xx_hal_crc.c ****     return HAL_ERROR;
 101:Drivers/STM32F4xx_HAL_Driver/Src/stm32f4xx_hal_crc.c ****   }
 102:Drivers/STM32F4xx_HAL_Driver/Src/stm32f4xx_hal_crc.c **** 
 103:Drivers/STM32F4xx_HAL_Driver/Src/stm32f4xx_hal_crc.c ****   /* Check the parameters */
 104:Drivers/STM32F4xx_HAL_Driver/Src/stm32f4xx_hal_crc.c ****   assert_param(IS_CRC_ALL_INSTANCE(hcrc->Instance));
 105:Drivers/STM32F4xx_HAL_Driver/Src/stm32f4xx_hal_crc.c **** 
 106:Drivers/STM32F4xx_HAL_Driver/Src/stm32f4xx_hal_crc.c ****   if (hcrc->State == HAL_CRC_STATE_RESET)
 107:Drivers/STM32F4xx_HAL_Driver/Src/stm32f4xx_hal_crc.c ****   {
 108:Drivers/STM32F4xx_HAL_Driver/Src/stm32f4xx_hal_crc.c ****     /* Allocate lock resource and initialize it */
 109:Drivers/STM32F4xx_HAL_Driver/Src/stm32f4xx_hal_crc.c ****     hcrc->Lock = HAL_UNLOCKED;
 110:Drivers/STM32F4xx_HAL_Driver/Src/stm32f4xx_hal_crc.c ****     /* Init the low level hardware */
 111:Drivers/STM32F4xx_HAL_Driver/Src/stm32f4xx_hal_crc.c ****     HAL_CRC_MspInit(hcrc);
 112:Drivers/STM32F4xx_HAL_Driver/Src/stm32f4xx_hal_crc.c ****   }
 113:Drivers/STM32F4xx_HAL_Driver/Src/stm32f4xx_hal_crc.c **** 
 114:Drivers/STM32F4xx_HAL_Driver/Src/stm32f4xx_hal_crc.c ****   /* Change CRC peripheral state */
 115:Drivers/STM32F4xx_HAL_Driver/Src/stm32f4xx_hal_crc.c ****   hcrc->State = HAL_CRC_STATE_READY;
 116:Drivers/STM32F4xx_HAL_Driver/Src/stm32f4xx_hal_crc.c **** 
 117:Drivers/STM32F4xx_HAL_Driver/Src/stm32f4xx_hal_crc.c ****   /* Return function status */
 118:Drivers/STM32F4xx_HAL_Driver/Src/stm32f4xx_hal_crc.c ****   return HAL_OK;
 119:Drivers/STM32F4xx_HAL_Driver/Src/stm32f4xx_hal_crc.c **** }
 120:Drivers/STM32F4xx_HAL_Driver/Src/stm32f4xx_hal_crc.c **** 
 121:Drivers/STM32F4xx_HAL_Driver/Src/stm32f4xx_hal_crc.c **** /**
 122:Drivers/STM32F4xx_HAL_Driver/Src/stm32f4xx_hal_crc.c ****   * @brief  DeInitialize the CRC peripheral.
 123:Drivers/STM32F4xx_HAL_Driver/Src/stm32f4xx_hal_crc.c ****   * @param  hcrc CRC handle
 124:Drivers/STM32F4xx_HAL_Driver/Src/stm32f4xx_hal_crc.c ****   * @retval HAL status
 125:Drivers/STM32F4xx_HAL_Driver/Src/stm32f4xx_hal_crc.c ****   */
 126:Drivers/STM32F4xx_HAL_Driver/Src/stm32f4xx_hal_crc.c **** HAL_StatusTypeDef HAL_CRC_DeInit(CRC_HandleTypeDef *hcrc)
 127:Drivers/STM32F4xx_HAL_Driver/Src/stm32f4xx_hal_crc.c **** {
 128:Drivers/STM32F4xx_HAL_Driver/Src/stm32f4xx_hal_crc.c ****   /* Check the CRC handle allocation */
 129:Drivers/STM32F4xx_HAL_Driver/Src/stm32f4xx_hal_crc.c ****   if (hcrc == NULL)
 130:Drivers/STM32F4xx_HAL_Driver/Src/stm32f4xx_hal_crc.c ****   {
 131:Drivers/STM32F4xx_HAL_Driver/Src/stm32f4xx_hal_crc.c ****     return HAL_ERROR;
 132:Drivers/STM32F4xx_HAL_Driver/Src/stm32f4xx_hal_crc.c ****   }
 133:Drivers/STM32F4xx_HAL_Driver/Src/stm32f4xx_hal_crc.c **** 
 134:Drivers/STM32F4xx_HAL_Driver/Src/stm32f4xx_hal_crc.c ****   /* Check the parameters */
 135:Drivers/STM32F4xx_HAL_Driver/Src/stm32f4xx_hal_crc.c ****   assert_param(IS_CRC_ALL_INSTANCE(hcrc->Instance));
 136:Drivers/STM32F4xx_HAL_Driver/Src/stm32f4xx_hal_crc.c **** 
 137:Drivers/STM32F4xx_HAL_Driver/Src/stm32f4xx_hal_crc.c ****   /* Check the CRC peripheral state */
 138:Drivers/STM32F4xx_HAL_Driver/Src/stm32f4xx_hal_crc.c ****   if (hcrc->State == HAL_CRC_STATE_BUSY)
 139:Drivers/STM32F4xx_HAL_Driver/Src/stm32f4xx_hal_crc.c ****   {
 140:Drivers/STM32F4xx_HAL_Driver/Src/stm32f4xx_hal_crc.c ****     return HAL_BUSY;
 141:Drivers/STM32F4xx_HAL_Driver/Src/stm32f4xx_hal_crc.c ****   }
 142:Drivers/STM32F4xx_HAL_Driver/Src/stm32f4xx_hal_crc.c **** 
 143:Drivers/STM32F4xx_HAL_Driver/Src/stm32f4xx_hal_crc.c ****   /* Change CRC peripheral state */
ARM GAS  C:\Users\moham\AppData\Local\Temp\ccM1fKiK.s 			page 4


 144:Drivers/STM32F4xx_HAL_Driver/Src/stm32f4xx_hal_crc.c ****   hcrc->State = HAL_CRC_STATE_BUSY;
 145:Drivers/STM32F4xx_HAL_Driver/Src/stm32f4xx_hal_crc.c **** 
 146:Drivers/STM32F4xx_HAL_Driver/Src/stm32f4xx_hal_crc.c ****   /* Reset CRC calculation unit */
 147:Drivers/STM32F4xx_HAL_Driver/Src/stm32f4xx_hal_crc.c ****   __HAL_CRC_DR_RESET(hcrc);
 148:Drivers/STM32F4xx_HAL_Driver/Src/stm32f4xx_hal_crc.c **** 
 149:Drivers/STM32F4xx_HAL_Driver/Src/stm32f4xx_hal_crc.c ****   /* Reset IDR register content */
 150:Drivers/STM32F4xx_HAL_Driver/Src/stm32f4xx_hal_crc.c ****   __HAL_CRC_SET_IDR(hcrc, 0);
 151:Drivers/STM32F4xx_HAL_Driver/Src/stm32f4xx_hal_crc.c **** 
 152:Drivers/STM32F4xx_HAL_Driver/Src/stm32f4xx_hal_crc.c ****   /* DeInit the low level hardware */
 153:Drivers/STM32F4xx_HAL_Driver/Src/stm32f4xx_hal_crc.c ****   HAL_CRC_MspDeInit(hcrc);
 154:Drivers/STM32F4xx_HAL_Driver/Src/stm32f4xx_hal_crc.c **** 
 155:Drivers/STM32F4xx_HAL_Driver/Src/stm32f4xx_hal_crc.c ****   /* Change CRC peripheral state */
 156:Drivers/STM32F4xx_HAL_Driver/Src/stm32f4xx_hal_crc.c ****   hcrc->State = HAL_CRC_STATE_RESET;
 157:Drivers/STM32F4xx_HAL_Driver/Src/stm32f4xx_hal_crc.c **** 
 158:Drivers/STM32F4xx_HAL_Driver/Src/stm32f4xx_hal_crc.c ****   /* Process unlocked */
 159:Drivers/STM32F4xx_HAL_Driver/Src/stm32f4xx_hal_crc.c ****   __HAL_UNLOCK(hcrc);
 160:Drivers/STM32F4xx_HAL_Driver/Src/stm32f4xx_hal_crc.c **** 
 161:Drivers/STM32F4xx_HAL_Driver/Src/stm32f4xx_hal_crc.c ****   /* Return function status */
 162:Drivers/STM32F4xx_HAL_Driver/Src/stm32f4xx_hal_crc.c ****   return HAL_OK;
 163:Drivers/STM32F4xx_HAL_Driver/Src/stm32f4xx_hal_crc.c **** }
 164:Drivers/STM32F4xx_HAL_Driver/Src/stm32f4xx_hal_crc.c **** 
 165:Drivers/STM32F4xx_HAL_Driver/Src/stm32f4xx_hal_crc.c **** /**
 166:Drivers/STM32F4xx_HAL_Driver/Src/stm32f4xx_hal_crc.c ****   * @brief  Initializes the CRC MSP.
 167:Drivers/STM32F4xx_HAL_Driver/Src/stm32f4xx_hal_crc.c ****   * @param  hcrc CRC handle
 168:Drivers/STM32F4xx_HAL_Driver/Src/stm32f4xx_hal_crc.c ****   * @retval None
 169:Drivers/STM32F4xx_HAL_Driver/Src/stm32f4xx_hal_crc.c ****   */
 170:Drivers/STM32F4xx_HAL_Driver/Src/stm32f4xx_hal_crc.c **** __weak void HAL_CRC_MspInit(CRC_HandleTypeDef *hcrc)
 171:Drivers/STM32F4xx_HAL_Driver/Src/stm32f4xx_hal_crc.c **** {
  30              		.loc 1 171 1 view -0
  31              		.cfi_startproc
  32              		@ args = 0, pretend = 0, frame = 0
  33              		@ frame_needed = 0, uses_anonymous_args = 0
  34              		@ link register save eliminated.
 172:Drivers/STM32F4xx_HAL_Driver/Src/stm32f4xx_hal_crc.c ****   /* Prevent unused argument(s) compilation warning */
 173:Drivers/STM32F4xx_HAL_Driver/Src/stm32f4xx_hal_crc.c ****   UNUSED(hcrc);
  35              		.loc 1 173 3 view .LVU1
 174:Drivers/STM32F4xx_HAL_Driver/Src/stm32f4xx_hal_crc.c **** 
 175:Drivers/STM32F4xx_HAL_Driver/Src/stm32f4xx_hal_crc.c ****   /* NOTE : This function should not be modified, when the callback is needed,
 176:Drivers/STM32F4xx_HAL_Driver/Src/stm32f4xx_hal_crc.c ****             the HAL_CRC_MspInit can be implemented in the user file
 177:Drivers/STM32F4xx_HAL_Driver/Src/stm32f4xx_hal_crc.c ****    */
 178:Drivers/STM32F4xx_HAL_Driver/Src/stm32f4xx_hal_crc.c **** }
  36              		.loc 1 178 1 is_stmt 0 view .LVU2
  37 0000 7047     		bx	lr
  38              		.cfi_endproc
  39              	.LFE241:
  41              		.section	.rodata.HAL_CRC_Init.str1.4,"aMS",%progbits,1
  42              		.align	2
  43              	.LC0:
  44 0000 44726976 		.ascii	"Drivers/STM32F4xx_HAL_Driver/Src/stm32f4xx_hal_crc."
  44      6572732F 
  44      53544D33 
  44      32463478 
  44      785F4841 
  45 0033 6300     		.ascii	"c\000"
  46              		.section	.text.HAL_CRC_Init,"ax",%progbits
  47              		.align	1
  48              		.global	HAL_CRC_Init
ARM GAS  C:\Users\moham\AppData\Local\Temp\ccM1fKiK.s 			page 5


  49              		.syntax unified
  50              		.thumb
  51              		.thumb_func
  53              	HAL_CRC_Init:
  54              	.LVL1:
  55              	.LFB239:
  96:Drivers/STM32F4xx_HAL_Driver/Src/stm32f4xx_hal_crc.c ****   /* Check the CRC handle allocation */
  56              		.loc 1 96 1 is_stmt 1 view -0
  57              		.cfi_startproc
  58              		@ args = 0, pretend = 0, frame = 0
  59              		@ frame_needed = 0, uses_anonymous_args = 0
  98:Drivers/STM32F4xx_HAL_Driver/Src/stm32f4xx_hal_crc.c ****   {
  60              		.loc 1 98 3 view .LVU4
  98:Drivers/STM32F4xx_HAL_Driver/Src/stm32f4xx_hal_crc.c ****   {
  61              		.loc 1 98 6 is_stmt 0 view .LVU5
  62 0000 A0B1     		cbz	r0, .L6
  96:Drivers/STM32F4xx_HAL_Driver/Src/stm32f4xx_hal_crc.c ****   /* Check the CRC handle allocation */
  63              		.loc 1 96 1 view .LVU6
  64 0002 10B5     		push	{r4, lr}
  65              	.LCFI0:
  66              		.cfi_def_cfa_offset 8
  67              		.cfi_offset 4, -8
  68              		.cfi_offset 14, -4
  69 0004 0446     		mov	r4, r0
 104:Drivers/STM32F4xx_HAL_Driver/Src/stm32f4xx_hal_crc.c **** 
  70              		.loc 1 104 3 is_stmt 1 view .LVU7
  71 0006 0268     		ldr	r2, [r0]
  72 0008 094B     		ldr	r3, .L12
  73 000a 9A42     		cmp	r2, r3
  74 000c 03D0     		beq	.L4
 104:Drivers/STM32F4xx_HAL_Driver/Src/stm32f4xx_hal_crc.c **** 
  75              		.loc 1 104 3 is_stmt 0 discriminator 1 view .LVU8
  76 000e 6821     		movs	r1, #104
  77 0010 0848     		ldr	r0, .L12+4
  78              	.LVL2:
 104:Drivers/STM32F4xx_HAL_Driver/Src/stm32f4xx_hal_crc.c **** 
  79              		.loc 1 104 3 discriminator 1 view .LVU9
  80 0012 FFF7FEFF 		bl	assert_failed
  81              	.LVL3:
  82              	.L4:
 106:Drivers/STM32F4xx_HAL_Driver/Src/stm32f4xx_hal_crc.c ****   {
  83              		.loc 1 106 3 is_stmt 1 view .LVU10
 106:Drivers/STM32F4xx_HAL_Driver/Src/stm32f4xx_hal_crc.c ****   {
  84              		.loc 1 106 11 is_stmt 0 view .LVU11
  85 0016 6379     		ldrb	r3, [r4, #5]	@ zero_extendqisi2
 106:Drivers/STM32F4xx_HAL_Driver/Src/stm32f4xx_hal_crc.c ****   {
  86              		.loc 1 106 6 view .LVU12
  87 0018 1BB1     		cbz	r3, .L11
  88              	.L5:
 115:Drivers/STM32F4xx_HAL_Driver/Src/stm32f4xx_hal_crc.c **** 
  89              		.loc 1 115 3 is_stmt 1 view .LVU13
 115:Drivers/STM32F4xx_HAL_Driver/Src/stm32f4xx_hal_crc.c **** 
  90              		.loc 1 115 15 is_stmt 0 view .LVU14
  91 001a 0123     		movs	r3, #1
  92 001c 6371     		strb	r3, [r4, #5]
 118:Drivers/STM32F4xx_HAL_Driver/Src/stm32f4xx_hal_crc.c **** }
  93              		.loc 1 118 3 is_stmt 1 view .LVU15
ARM GAS  C:\Users\moham\AppData\Local\Temp\ccM1fKiK.s 			page 6


 118:Drivers/STM32F4xx_HAL_Driver/Src/stm32f4xx_hal_crc.c **** }
  94              		.loc 1 118 10 is_stmt 0 view .LVU16
  95 001e 0020     		movs	r0, #0
 119:Drivers/STM32F4xx_HAL_Driver/Src/stm32f4xx_hal_crc.c **** 
  96              		.loc 1 119 1 view .LVU17
  97 0020 10BD     		pop	{r4, pc}
  98              	.LVL4:
  99              	.L11:
 109:Drivers/STM32F4xx_HAL_Driver/Src/stm32f4xx_hal_crc.c ****     /* Init the low level hardware */
 100              		.loc 1 109 5 is_stmt 1 view .LVU18
 109:Drivers/STM32F4xx_HAL_Driver/Src/stm32f4xx_hal_crc.c ****     /* Init the low level hardware */
 101              		.loc 1 109 16 is_stmt 0 view .LVU19
 102 0022 2371     		strb	r3, [r4, #4]
 111:Drivers/STM32F4xx_HAL_Driver/Src/stm32f4xx_hal_crc.c ****   }
 103              		.loc 1 111 5 is_stmt 1 view .LVU20
 104 0024 2046     		mov	r0, r4
 105 0026 FFF7FEFF 		bl	HAL_CRC_MspInit
 106              	.LVL5:
 107 002a F6E7     		b	.L5
 108              	.LVL6:
 109              	.L6:
 110              	.LCFI1:
 111              		.cfi_def_cfa_offset 0
 112              		.cfi_restore 4
 113              		.cfi_restore 14
 100:Drivers/STM32F4xx_HAL_Driver/Src/stm32f4xx_hal_crc.c ****   }
 114              		.loc 1 100 12 is_stmt 0 view .LVU21
 115 002c 0120     		movs	r0, #1
 116              	.LVL7:
 119:Drivers/STM32F4xx_HAL_Driver/Src/stm32f4xx_hal_crc.c **** 
 117              		.loc 1 119 1 view .LVU22
 118 002e 7047     		bx	lr
 119              	.L13:
 120              		.align	2
 121              	.L12:
 122 0030 00300240 		.word	1073885184
 123 0034 00000000 		.word	.LC0
 124              		.cfi_endproc
 125              	.LFE239:
 127              		.section	.text.HAL_CRC_MspDeInit,"ax",%progbits
 128              		.align	1
 129              		.weak	HAL_CRC_MspDeInit
 130              		.syntax unified
 131              		.thumb
 132              		.thumb_func
 134              	HAL_CRC_MspDeInit:
 135              	.LVL8:
 136              	.LFB242:
 179:Drivers/STM32F4xx_HAL_Driver/Src/stm32f4xx_hal_crc.c **** 
 180:Drivers/STM32F4xx_HAL_Driver/Src/stm32f4xx_hal_crc.c **** /**
 181:Drivers/STM32F4xx_HAL_Driver/Src/stm32f4xx_hal_crc.c ****   * @brief  DeInitialize the CRC MSP.
 182:Drivers/STM32F4xx_HAL_Driver/Src/stm32f4xx_hal_crc.c ****   * @param  hcrc CRC handle
 183:Drivers/STM32F4xx_HAL_Driver/Src/stm32f4xx_hal_crc.c ****   * @retval None
 184:Drivers/STM32F4xx_HAL_Driver/Src/stm32f4xx_hal_crc.c ****   */
 185:Drivers/STM32F4xx_HAL_Driver/Src/stm32f4xx_hal_crc.c **** __weak void HAL_CRC_MspDeInit(CRC_HandleTypeDef *hcrc)
 186:Drivers/STM32F4xx_HAL_Driver/Src/stm32f4xx_hal_crc.c **** {
 137              		.loc 1 186 1 is_stmt 1 view -0
ARM GAS  C:\Users\moham\AppData\Local\Temp\ccM1fKiK.s 			page 7


 138              		.cfi_startproc
 139              		@ args = 0, pretend = 0, frame = 0
 140              		@ frame_needed = 0, uses_anonymous_args = 0
 141              		@ link register save eliminated.
 187:Drivers/STM32F4xx_HAL_Driver/Src/stm32f4xx_hal_crc.c ****   /* Prevent unused argument(s) compilation warning */
 188:Drivers/STM32F4xx_HAL_Driver/Src/stm32f4xx_hal_crc.c ****   UNUSED(hcrc);
 142              		.loc 1 188 3 view .LVU24
 189:Drivers/STM32F4xx_HAL_Driver/Src/stm32f4xx_hal_crc.c **** 
 190:Drivers/STM32F4xx_HAL_Driver/Src/stm32f4xx_hal_crc.c ****   /* NOTE : This function should not be modified, when the callback is needed,
 191:Drivers/STM32F4xx_HAL_Driver/Src/stm32f4xx_hal_crc.c ****             the HAL_CRC_MspDeInit can be implemented in the user file
 192:Drivers/STM32F4xx_HAL_Driver/Src/stm32f4xx_hal_crc.c ****    */
 193:Drivers/STM32F4xx_HAL_Driver/Src/stm32f4xx_hal_crc.c **** }
 143              		.loc 1 193 1 is_stmt 0 view .LVU25
 144 0000 7047     		bx	lr
 145              		.cfi_endproc
 146              	.LFE242:
 148              		.section	.text.HAL_CRC_DeInit,"ax",%progbits
 149              		.align	1
 150              		.global	HAL_CRC_DeInit
 151              		.syntax unified
 152              		.thumb
 153              		.thumb_func
 155              	HAL_CRC_DeInit:
 156              	.LVL9:
 157              	.LFB240:
 127:Drivers/STM32F4xx_HAL_Driver/Src/stm32f4xx_hal_crc.c ****   /* Check the CRC handle allocation */
 158              		.loc 1 127 1 is_stmt 1 view -0
 159              		.cfi_startproc
 160              		@ args = 0, pretend = 0, frame = 0
 161              		@ frame_needed = 0, uses_anonymous_args = 0
 129:Drivers/STM32F4xx_HAL_Driver/Src/stm32f4xx_hal_crc.c ****   {
 162              		.loc 1 129 3 view .LVU27
 129:Drivers/STM32F4xx_HAL_Driver/Src/stm32f4xx_hal_crc.c ****   {
 163              		.loc 1 129 6 is_stmt 0 view .LVU28
 164 0000 F0B1     		cbz	r0, .L18
 127:Drivers/STM32F4xx_HAL_Driver/Src/stm32f4xx_hal_crc.c ****   /* Check the CRC handle allocation */
 165              		.loc 1 127 1 view .LVU29
 166 0002 38B5     		push	{r3, r4, r5, lr}
 167              	.LCFI2:
 168              		.cfi_def_cfa_offset 16
 169              		.cfi_offset 3, -16
 170              		.cfi_offset 4, -12
 171              		.cfi_offset 5, -8
 172              		.cfi_offset 14, -4
 173 0004 0446     		mov	r4, r0
 135:Drivers/STM32F4xx_HAL_Driver/Src/stm32f4xx_hal_crc.c **** 
 174              		.loc 1 135 3 is_stmt 1 view .LVU30
 175 0006 0268     		ldr	r2, [r0]
 176 0008 0E4B     		ldr	r3, .L23
 177 000a 9A42     		cmp	r2, r3
 178 000c 03D0     		beq	.L17
 135:Drivers/STM32F4xx_HAL_Driver/Src/stm32f4xx_hal_crc.c **** 
 179              		.loc 1 135 3 is_stmt 0 discriminator 1 view .LVU31
 180 000e 8721     		movs	r1, #135
 181 0010 0D48     		ldr	r0, .L23+4
 182              	.LVL10:
 135:Drivers/STM32F4xx_HAL_Driver/Src/stm32f4xx_hal_crc.c **** 
ARM GAS  C:\Users\moham\AppData\Local\Temp\ccM1fKiK.s 			page 8


 183              		.loc 1 135 3 discriminator 1 view .LVU32
 184 0012 FFF7FEFF 		bl	assert_failed
 185              	.LVL11:
 186              	.L17:
 138:Drivers/STM32F4xx_HAL_Driver/Src/stm32f4xx_hal_crc.c ****   {
 187              		.loc 1 138 3 is_stmt 1 view .LVU33
 138:Drivers/STM32F4xx_HAL_Driver/Src/stm32f4xx_hal_crc.c ****   {
 188              		.loc 1 138 11 is_stmt 0 view .LVU34
 189 0016 6379     		ldrb	r3, [r4, #5]	@ zero_extendqisi2
 190 0018 D8B2     		uxtb	r0, r3
 138:Drivers/STM32F4xx_HAL_Driver/Src/stm32f4xx_hal_crc.c ****   {
 191              		.loc 1 138 6 view .LVU35
 192 001a 022B     		cmp	r3, #2
 193 001c 0FD0     		beq	.L16
 144:Drivers/STM32F4xx_HAL_Driver/Src/stm32f4xx_hal_crc.c **** 
 194              		.loc 1 144 3 is_stmt 1 view .LVU36
 144:Drivers/STM32F4xx_HAL_Driver/Src/stm32f4xx_hal_crc.c **** 
 195              		.loc 1 144 15 is_stmt 0 view .LVU37
 196 001e 0223     		movs	r3, #2
 197 0020 6371     		strb	r3, [r4, #5]
 147:Drivers/STM32F4xx_HAL_Driver/Src/stm32f4xx_hal_crc.c **** 
 198              		.loc 1 147 3 is_stmt 1 view .LVU38
 199 0022 2268     		ldr	r2, [r4]
 200 0024 9368     		ldr	r3, [r2, #8]
 201 0026 43F00103 		orr	r3, r3, #1
 202 002a 9360     		str	r3, [r2, #8]
 150:Drivers/STM32F4xx_HAL_Driver/Src/stm32f4xx_hal_crc.c **** 
 203              		.loc 1 150 3 view .LVU39
 204 002c 2368     		ldr	r3, [r4]
 205 002e 0025     		movs	r5, #0
 206 0030 1D71     		strb	r5, [r3, #4]
 153:Drivers/STM32F4xx_HAL_Driver/Src/stm32f4xx_hal_crc.c **** 
 207              		.loc 1 153 3 view .LVU40
 208 0032 2046     		mov	r0, r4
 209 0034 FFF7FEFF 		bl	HAL_CRC_MspDeInit
 210              	.LVL12:
 156:Drivers/STM32F4xx_HAL_Driver/Src/stm32f4xx_hal_crc.c **** 
 211              		.loc 1 156 3 view .LVU41
 156:Drivers/STM32F4xx_HAL_Driver/Src/stm32f4xx_hal_crc.c **** 
 212              		.loc 1 156 15 is_stmt 0 view .LVU42
 213 0038 6571     		strb	r5, [r4, #5]
 159:Drivers/STM32F4xx_HAL_Driver/Src/stm32f4xx_hal_crc.c **** 
 214              		.loc 1 159 3 is_stmt 1 view .LVU43
 159:Drivers/STM32F4xx_HAL_Driver/Src/stm32f4xx_hal_crc.c **** 
 215              		.loc 1 159 3 view .LVU44
 216 003a 2571     		strb	r5, [r4, #4]
 159:Drivers/STM32F4xx_HAL_Driver/Src/stm32f4xx_hal_crc.c **** 
 217              		.loc 1 159 3 view .LVU45
 162:Drivers/STM32F4xx_HAL_Driver/Src/stm32f4xx_hal_crc.c **** }
 218              		.loc 1 162 3 view .LVU46
 162:Drivers/STM32F4xx_HAL_Driver/Src/stm32f4xx_hal_crc.c **** }
 219              		.loc 1 162 10 is_stmt 0 view .LVU47
 220 003c 2846     		mov	r0, r5
 221              	.L16:
 163:Drivers/STM32F4xx_HAL_Driver/Src/stm32f4xx_hal_crc.c **** 
 222              		.loc 1 163 1 view .LVU48
 223 003e 38BD     		pop	{r3, r4, r5, pc}
ARM GAS  C:\Users\moham\AppData\Local\Temp\ccM1fKiK.s 			page 9


 224              	.LVL13:
 225              	.L18:
 226              	.LCFI3:
 227              		.cfi_def_cfa_offset 0
 228              		.cfi_restore 3
 229              		.cfi_restore 4
 230              		.cfi_restore 5
 231              		.cfi_restore 14
 131:Drivers/STM32F4xx_HAL_Driver/Src/stm32f4xx_hal_crc.c ****   }
 232              		.loc 1 131 12 view .LVU49
 233 0040 0120     		movs	r0, #1
 234              	.LVL14:
 163:Drivers/STM32F4xx_HAL_Driver/Src/stm32f4xx_hal_crc.c **** 
 235              		.loc 1 163 1 view .LVU50
 236 0042 7047     		bx	lr
 237              	.L24:
 238              		.align	2
 239              	.L23:
 240 0044 00300240 		.word	1073885184
 241 0048 00000000 		.word	.LC0
 242              		.cfi_endproc
 243              	.LFE240:
 245              		.section	.text.HAL_CRC_Accumulate,"ax",%progbits
 246              		.align	1
 247              		.global	HAL_CRC_Accumulate
 248              		.syntax unified
 249              		.thumb
 250              		.thumb_func
 252              	HAL_CRC_Accumulate:
 253              	.LVL15:
 254              	.LFB243:
 194:Drivers/STM32F4xx_HAL_Driver/Src/stm32f4xx_hal_crc.c **** 
 195:Drivers/STM32F4xx_HAL_Driver/Src/stm32f4xx_hal_crc.c **** /**
 196:Drivers/STM32F4xx_HAL_Driver/Src/stm32f4xx_hal_crc.c ****   * @}
 197:Drivers/STM32F4xx_HAL_Driver/Src/stm32f4xx_hal_crc.c ****   */
 198:Drivers/STM32F4xx_HAL_Driver/Src/stm32f4xx_hal_crc.c **** 
 199:Drivers/STM32F4xx_HAL_Driver/Src/stm32f4xx_hal_crc.c **** /** @defgroup CRC_Exported_Functions_Group2 Peripheral Control functions
 200:Drivers/STM32F4xx_HAL_Driver/Src/stm32f4xx_hal_crc.c ****   *  @brief    management functions.
 201:Drivers/STM32F4xx_HAL_Driver/Src/stm32f4xx_hal_crc.c ****   *
 202:Drivers/STM32F4xx_HAL_Driver/Src/stm32f4xx_hal_crc.c **** @verbatim
 203:Drivers/STM32F4xx_HAL_Driver/Src/stm32f4xx_hal_crc.c ****  ===============================================================================
 204:Drivers/STM32F4xx_HAL_Driver/Src/stm32f4xx_hal_crc.c ****                       ##### Peripheral Control functions #####
 205:Drivers/STM32F4xx_HAL_Driver/Src/stm32f4xx_hal_crc.c ****  ===============================================================================
 206:Drivers/STM32F4xx_HAL_Driver/Src/stm32f4xx_hal_crc.c ****     [..]  This section provides functions allowing to:
 207:Drivers/STM32F4xx_HAL_Driver/Src/stm32f4xx_hal_crc.c ****       (+) compute the 32-bit CRC value of a 32-bit data buffer
 208:Drivers/STM32F4xx_HAL_Driver/Src/stm32f4xx_hal_crc.c ****           using combination of the previous CRC value and the new one.
 209:Drivers/STM32F4xx_HAL_Driver/Src/stm32f4xx_hal_crc.c **** 
 210:Drivers/STM32F4xx_HAL_Driver/Src/stm32f4xx_hal_crc.c ****        [..]  or
 211:Drivers/STM32F4xx_HAL_Driver/Src/stm32f4xx_hal_crc.c **** 
 212:Drivers/STM32F4xx_HAL_Driver/Src/stm32f4xx_hal_crc.c ****       (+) compute the 32-bit CRC value of a 32-bit data buffer
 213:Drivers/STM32F4xx_HAL_Driver/Src/stm32f4xx_hal_crc.c ****           independently of the previous CRC value.
 214:Drivers/STM32F4xx_HAL_Driver/Src/stm32f4xx_hal_crc.c **** 
 215:Drivers/STM32F4xx_HAL_Driver/Src/stm32f4xx_hal_crc.c **** @endverbatim
 216:Drivers/STM32F4xx_HAL_Driver/Src/stm32f4xx_hal_crc.c ****   * @{
 217:Drivers/STM32F4xx_HAL_Driver/Src/stm32f4xx_hal_crc.c ****   */
 218:Drivers/STM32F4xx_HAL_Driver/Src/stm32f4xx_hal_crc.c **** 
 219:Drivers/STM32F4xx_HAL_Driver/Src/stm32f4xx_hal_crc.c **** /**
ARM GAS  C:\Users\moham\AppData\Local\Temp\ccM1fKiK.s 			page 10


 220:Drivers/STM32F4xx_HAL_Driver/Src/stm32f4xx_hal_crc.c ****   * @brief  Compute the 32-bit CRC value of a 32-bit data buffer
 221:Drivers/STM32F4xx_HAL_Driver/Src/stm32f4xx_hal_crc.c ****   *         starting with the previously computed CRC as initialization value.
 222:Drivers/STM32F4xx_HAL_Driver/Src/stm32f4xx_hal_crc.c ****   * @param  hcrc CRC handle
 223:Drivers/STM32F4xx_HAL_Driver/Src/stm32f4xx_hal_crc.c ****   * @param  pBuffer pointer to the input data buffer.
 224:Drivers/STM32F4xx_HAL_Driver/Src/stm32f4xx_hal_crc.c ****   * @param  BufferLength input data buffer length (number of uint32_t words).
 225:Drivers/STM32F4xx_HAL_Driver/Src/stm32f4xx_hal_crc.c ****   * @retval uint32_t CRC (returned value LSBs for CRC shorter than 32 bits)
 226:Drivers/STM32F4xx_HAL_Driver/Src/stm32f4xx_hal_crc.c ****   */
 227:Drivers/STM32F4xx_HAL_Driver/Src/stm32f4xx_hal_crc.c **** uint32_t HAL_CRC_Accumulate(CRC_HandleTypeDef *hcrc, uint32_t pBuffer[], uint32_t BufferLength)
 228:Drivers/STM32F4xx_HAL_Driver/Src/stm32f4xx_hal_crc.c **** {
 255              		.loc 1 228 1 is_stmt 1 view -0
 256              		.cfi_startproc
 257              		@ args = 0, pretend = 0, frame = 0
 258              		@ frame_needed = 0, uses_anonymous_args = 0
 259              		@ link register save eliminated.
 260              		.loc 1 228 1 is_stmt 0 view .LVU52
 261 0000 8446     		mov	ip, r0
 229:Drivers/STM32F4xx_HAL_Driver/Src/stm32f4xx_hal_crc.c ****   uint32_t index;      /* CRC input data buffer index */
 262              		.loc 1 229 3 is_stmt 1 view .LVU53
 230:Drivers/STM32F4xx_HAL_Driver/Src/stm32f4xx_hal_crc.c ****   uint32_t temp = 0U;  /* CRC output (read from hcrc->Instance->DR register) */
 263              		.loc 1 230 3 view .LVU54
 264              	.LVL16:
 231:Drivers/STM32F4xx_HAL_Driver/Src/stm32f4xx_hal_crc.c **** 
 232:Drivers/STM32F4xx_HAL_Driver/Src/stm32f4xx_hal_crc.c ****   /* Change CRC peripheral state */
 233:Drivers/STM32F4xx_HAL_Driver/Src/stm32f4xx_hal_crc.c ****   hcrc->State = HAL_CRC_STATE_BUSY;
 265              		.loc 1 233 3 view .LVU55
 266              		.loc 1 233 15 is_stmt 0 view .LVU56
 267 0002 0223     		movs	r3, #2
 268 0004 4371     		strb	r3, [r0, #5]
 234:Drivers/STM32F4xx_HAL_Driver/Src/stm32f4xx_hal_crc.c **** 
 235:Drivers/STM32F4xx_HAL_Driver/Src/stm32f4xx_hal_crc.c ****   /* Enter Data to the CRC calculator */
 236:Drivers/STM32F4xx_HAL_Driver/Src/stm32f4xx_hal_crc.c ****   for (index = 0U; index < BufferLength; index++)
 269              		.loc 1 236 3 is_stmt 1 view .LVU57
 270              	.LVL17:
 271              		.loc 1 236 14 is_stmt 0 view .LVU58
 272 0006 0023     		movs	r3, #0
 273              	.LVL18:
 274              		.loc 1 236 26 is_stmt 1 discriminator 1 view .LVU59
 275 0008 9342     		cmp	r3, r2
 276 000a 11D2     		bcs	.L32
 228:Drivers/STM32F4xx_HAL_Driver/Src/stm32f4xx_hal_crc.c ****   uint32_t index;      /* CRC input data buffer index */
 277              		.loc 1 228 1 is_stmt 0 view .LVU60
 278 000c 10B4     		push	{r4}
 279              	.LCFI4:
 280              		.cfi_def_cfa_offset 4
 281              		.cfi_offset 4, -4
 282              	.LVL19:
 283              	.L27:
 237:Drivers/STM32F4xx_HAL_Driver/Src/stm32f4xx_hal_crc.c ****   {
 238:Drivers/STM32F4xx_HAL_Driver/Src/stm32f4xx_hal_crc.c ****     hcrc->Instance->DR = pBuffer[index];
 284              		.loc 1 238 5 is_stmt 1 view .LVU61
 285              		.loc 1 238 24 is_stmt 0 view .LVU62
 286 000e DCF80000 		ldr	r0, [ip]
 287 0012 51F82340 		ldr	r4, [r1, r3, lsl #2]
 288 0016 0460     		str	r4, [r0]
 236:Drivers/STM32F4xx_HAL_Driver/Src/stm32f4xx_hal_crc.c ****   {
 289              		.loc 1 236 47 is_stmt 1 discriminator 3 view .LVU63
 290 0018 0133     		adds	r3, r3, #1
ARM GAS  C:\Users\moham\AppData\Local\Temp\ccM1fKiK.s 			page 11


 291              	.LVL20:
 236:Drivers/STM32F4xx_HAL_Driver/Src/stm32f4xx_hal_crc.c ****   {
 292              		.loc 1 236 26 discriminator 1 view .LVU64
 293 001a 9342     		cmp	r3, r2
 294 001c F7D3     		bcc	.L27
 239:Drivers/STM32F4xx_HAL_Driver/Src/stm32f4xx_hal_crc.c ****   }
 240:Drivers/STM32F4xx_HAL_Driver/Src/stm32f4xx_hal_crc.c ****   temp = hcrc->Instance->DR;
 295              		.loc 1 240 3 view .LVU65
 296              		.loc 1 240 14 is_stmt 0 view .LVU66
 297 001e DCF80030 		ldr	r3, [ip]
 298              	.LVL21:
 299              		.loc 1 240 8 view .LVU67
 300 0022 1868     		ldr	r0, [r3]
 301              	.LVL22:
 241:Drivers/STM32F4xx_HAL_Driver/Src/stm32f4xx_hal_crc.c **** 
 242:Drivers/STM32F4xx_HAL_Driver/Src/stm32f4xx_hal_crc.c ****   /* Change CRC peripheral state */
 243:Drivers/STM32F4xx_HAL_Driver/Src/stm32f4xx_hal_crc.c ****   hcrc->State = HAL_CRC_STATE_READY;
 302              		.loc 1 243 3 is_stmt 1 view .LVU68
 303              		.loc 1 243 15 is_stmt 0 view .LVU69
 304 0024 0123     		movs	r3, #1
 305 0026 8CF80530 		strb	r3, [ip, #5]
 244:Drivers/STM32F4xx_HAL_Driver/Src/stm32f4xx_hal_crc.c **** 
 245:Drivers/STM32F4xx_HAL_Driver/Src/stm32f4xx_hal_crc.c ****   /* Return the CRC computed value */
 246:Drivers/STM32F4xx_HAL_Driver/Src/stm32f4xx_hal_crc.c ****   return temp;
 306              		.loc 1 246 3 is_stmt 1 view .LVU70
 247:Drivers/STM32F4xx_HAL_Driver/Src/stm32f4xx_hal_crc.c **** }
 307              		.loc 1 247 1 is_stmt 0 view .LVU71
 308 002a 5DF8044B 		ldr	r4, [sp], #4
 309              	.LCFI5:
 310              		.cfi_restore 4
 311              		.cfi_def_cfa_offset 0
 312 002e 7047     		bx	lr
 313              	.LVL23:
 314              	.L32:
 240:Drivers/STM32F4xx_HAL_Driver/Src/stm32f4xx_hal_crc.c **** 
 315              		.loc 1 240 3 is_stmt 1 view .LVU72
 240:Drivers/STM32F4xx_HAL_Driver/Src/stm32f4xx_hal_crc.c **** 
 316              		.loc 1 240 14 is_stmt 0 view .LVU73
 317 0030 0368     		ldr	r3, [r0]
 318              	.LVL24:
 240:Drivers/STM32F4xx_HAL_Driver/Src/stm32f4xx_hal_crc.c **** 
 319              		.loc 1 240 8 view .LVU74
 320 0032 1868     		ldr	r0, [r3]
 321              	.LVL25:
 243:Drivers/STM32F4xx_HAL_Driver/Src/stm32f4xx_hal_crc.c **** 
 322              		.loc 1 243 3 is_stmt 1 view .LVU75
 243:Drivers/STM32F4xx_HAL_Driver/Src/stm32f4xx_hal_crc.c **** 
 323              		.loc 1 243 15 is_stmt 0 view .LVU76
 324 0034 0123     		movs	r3, #1
 325 0036 8CF80530 		strb	r3, [ip, #5]
 246:Drivers/STM32F4xx_HAL_Driver/Src/stm32f4xx_hal_crc.c **** }
 326              		.loc 1 246 3 is_stmt 1 view .LVU77
 327              		.loc 1 247 1 is_stmt 0 view .LVU78
 328 003a 7047     		bx	lr
 329              		.cfi_endproc
 330              	.LFE243:
 332              		.section	.text.HAL_CRC_Calculate,"ax",%progbits
ARM GAS  C:\Users\moham\AppData\Local\Temp\ccM1fKiK.s 			page 12


 333              		.align	1
 334              		.global	HAL_CRC_Calculate
 335              		.syntax unified
 336              		.thumb
 337              		.thumb_func
 339              	HAL_CRC_Calculate:
 340              	.LVL26:
 341              	.LFB244:
 248:Drivers/STM32F4xx_HAL_Driver/Src/stm32f4xx_hal_crc.c **** 
 249:Drivers/STM32F4xx_HAL_Driver/Src/stm32f4xx_hal_crc.c **** /**
 250:Drivers/STM32F4xx_HAL_Driver/Src/stm32f4xx_hal_crc.c ****   * @brief  Compute the 32-bit CRC value of a 32-bit data buffer
 251:Drivers/STM32F4xx_HAL_Driver/Src/stm32f4xx_hal_crc.c ****   *         starting with hcrc->Instance->INIT as initialization value.
 252:Drivers/STM32F4xx_HAL_Driver/Src/stm32f4xx_hal_crc.c ****   * @param  hcrc CRC handle
 253:Drivers/STM32F4xx_HAL_Driver/Src/stm32f4xx_hal_crc.c ****   * @param  pBuffer pointer to the input data buffer.
 254:Drivers/STM32F4xx_HAL_Driver/Src/stm32f4xx_hal_crc.c ****   * @param  BufferLength input data buffer length (number of uint32_t words).
 255:Drivers/STM32F4xx_HAL_Driver/Src/stm32f4xx_hal_crc.c ****   * @retval uint32_t CRC (returned value LSBs for CRC shorter than 32 bits)
 256:Drivers/STM32F4xx_HAL_Driver/Src/stm32f4xx_hal_crc.c ****   */
 257:Drivers/STM32F4xx_HAL_Driver/Src/stm32f4xx_hal_crc.c **** uint32_t HAL_CRC_Calculate(CRC_HandleTypeDef *hcrc, uint32_t pBuffer[], uint32_t BufferLength)
 258:Drivers/STM32F4xx_HAL_Driver/Src/stm32f4xx_hal_crc.c **** {
 342              		.loc 1 258 1 is_stmt 1 view -0
 343              		.cfi_startproc
 344              		@ args = 0, pretend = 0, frame = 0
 345              		@ frame_needed = 0, uses_anonymous_args = 0
 346              		@ link register save eliminated.
 347              		.loc 1 258 1 is_stmt 0 view .LVU80
 348 0000 8446     		mov	ip, r0
 259:Drivers/STM32F4xx_HAL_Driver/Src/stm32f4xx_hal_crc.c ****   uint32_t index;      /* CRC input data buffer index */
 349              		.loc 1 259 3 is_stmt 1 view .LVU81
 260:Drivers/STM32F4xx_HAL_Driver/Src/stm32f4xx_hal_crc.c ****   uint32_t temp = 0U;  /* CRC output (read from hcrc->Instance->DR register) */
 350              		.loc 1 260 3 view .LVU82
 351              	.LVL27:
 261:Drivers/STM32F4xx_HAL_Driver/Src/stm32f4xx_hal_crc.c **** 
 262:Drivers/STM32F4xx_HAL_Driver/Src/stm32f4xx_hal_crc.c ****   /* Change CRC peripheral state */
 263:Drivers/STM32F4xx_HAL_Driver/Src/stm32f4xx_hal_crc.c ****   hcrc->State = HAL_CRC_STATE_BUSY;
 352              		.loc 1 263 3 view .LVU83
 353              		.loc 1 263 15 is_stmt 0 view .LVU84
 354 0002 0223     		movs	r3, #2
 355 0004 4371     		strb	r3, [r0, #5]
 264:Drivers/STM32F4xx_HAL_Driver/Src/stm32f4xx_hal_crc.c **** 
 265:Drivers/STM32F4xx_HAL_Driver/Src/stm32f4xx_hal_crc.c ****   /* Reset CRC Calculation Unit (hcrc->Instance->INIT is
 266:Drivers/STM32F4xx_HAL_Driver/Src/stm32f4xx_hal_crc.c ****   *  written in hcrc->Instance->DR) */
 267:Drivers/STM32F4xx_HAL_Driver/Src/stm32f4xx_hal_crc.c ****   __HAL_CRC_DR_RESET(hcrc);
 356              		.loc 1 267 3 is_stmt 1 view .LVU85
 357 0006 0068     		ldr	r0, [r0]
 358              	.LVL28:
 359              		.loc 1 267 3 is_stmt 0 view .LVU86
 360 0008 8368     		ldr	r3, [r0, #8]
 361 000a 43F00103 		orr	r3, r3, #1
 362 000e 8360     		str	r3, [r0, #8]
 268:Drivers/STM32F4xx_HAL_Driver/Src/stm32f4xx_hal_crc.c **** 
 269:Drivers/STM32F4xx_HAL_Driver/Src/stm32f4xx_hal_crc.c ****   /* Enter 32-bit input data to the CRC calculator */
 270:Drivers/STM32F4xx_HAL_Driver/Src/stm32f4xx_hal_crc.c ****   for (index = 0U; index < BufferLength; index++)
 363              		.loc 1 270 3 is_stmt 1 view .LVU87
 364              	.LVL29:
 365              		.loc 1 270 14 is_stmt 0 view .LVU88
 366 0010 0023     		movs	r3, #0
 367              	.LVL30:
ARM GAS  C:\Users\moham\AppData\Local\Temp\ccM1fKiK.s 			page 13


 368              		.loc 1 270 26 is_stmt 1 discriminator 1 view .LVU89
 369 0012 9342     		cmp	r3, r2
 370 0014 11D2     		bcs	.L40
 258:Drivers/STM32F4xx_HAL_Driver/Src/stm32f4xx_hal_crc.c ****   uint32_t index;      /* CRC input data buffer index */
 371              		.loc 1 258 1 is_stmt 0 view .LVU90
 372 0016 10B4     		push	{r4}
 373              	.LCFI6:
 374              		.cfi_def_cfa_offset 4
 375              		.cfi_offset 4, -4
 376              	.L35:
 271:Drivers/STM32F4xx_HAL_Driver/Src/stm32f4xx_hal_crc.c ****   {
 272:Drivers/STM32F4xx_HAL_Driver/Src/stm32f4xx_hal_crc.c ****     hcrc->Instance->DR = pBuffer[index];
 377              		.loc 1 272 5 is_stmt 1 view .LVU91
 378              		.loc 1 272 24 is_stmt 0 view .LVU92
 379 0018 DCF80000 		ldr	r0, [ip]
 380 001c 51F82340 		ldr	r4, [r1, r3, lsl #2]
 381 0020 0460     		str	r4, [r0]
 270:Drivers/STM32F4xx_HAL_Driver/Src/stm32f4xx_hal_crc.c ****   {
 382              		.loc 1 270 47 is_stmt 1 discriminator 3 view .LVU93
 383 0022 0133     		adds	r3, r3, #1
 384              	.LVL31:
 270:Drivers/STM32F4xx_HAL_Driver/Src/stm32f4xx_hal_crc.c ****   {
 385              		.loc 1 270 26 discriminator 1 view .LVU94
 386 0024 9342     		cmp	r3, r2
 387 0026 F7D3     		bcc	.L35
 273:Drivers/STM32F4xx_HAL_Driver/Src/stm32f4xx_hal_crc.c ****   }
 274:Drivers/STM32F4xx_HAL_Driver/Src/stm32f4xx_hal_crc.c ****   temp = hcrc->Instance->DR;
 388              		.loc 1 274 3 view .LVU95
 389              		.loc 1 274 14 is_stmt 0 view .LVU96
 390 0028 DCF80030 		ldr	r3, [ip]
 391              	.LVL32:
 392              		.loc 1 274 8 view .LVU97
 393 002c 1868     		ldr	r0, [r3]
 394              	.LVL33:
 275:Drivers/STM32F4xx_HAL_Driver/Src/stm32f4xx_hal_crc.c **** 
 276:Drivers/STM32F4xx_HAL_Driver/Src/stm32f4xx_hal_crc.c ****   /* Change CRC peripheral state */
 277:Drivers/STM32F4xx_HAL_Driver/Src/stm32f4xx_hal_crc.c ****   hcrc->State = HAL_CRC_STATE_READY;
 395              		.loc 1 277 3 is_stmt 1 view .LVU98
 396              		.loc 1 277 15 is_stmt 0 view .LVU99
 397 002e 0123     		movs	r3, #1
 398 0030 8CF80530 		strb	r3, [ip, #5]
 278:Drivers/STM32F4xx_HAL_Driver/Src/stm32f4xx_hal_crc.c **** 
 279:Drivers/STM32F4xx_HAL_Driver/Src/stm32f4xx_hal_crc.c ****   /* Return the CRC computed value */
 280:Drivers/STM32F4xx_HAL_Driver/Src/stm32f4xx_hal_crc.c ****   return temp;
 399              		.loc 1 280 3 is_stmt 1 view .LVU100
 281:Drivers/STM32F4xx_HAL_Driver/Src/stm32f4xx_hal_crc.c **** }
 400              		.loc 1 281 1 is_stmt 0 view .LVU101
 401 0034 5DF8044B 		ldr	r4, [sp], #4
 402              	.LCFI7:
 403              		.cfi_restore 4
 404              		.cfi_def_cfa_offset 0
 405 0038 7047     		bx	lr
 406              	.LVL34:
 407              	.L40:
 274:Drivers/STM32F4xx_HAL_Driver/Src/stm32f4xx_hal_crc.c **** 
 408              		.loc 1 274 3 is_stmt 1 view .LVU102
 274:Drivers/STM32F4xx_HAL_Driver/Src/stm32f4xx_hal_crc.c **** 
ARM GAS  C:\Users\moham\AppData\Local\Temp\ccM1fKiK.s 			page 14


 409              		.loc 1 274 14 is_stmt 0 view .LVU103
 410 003a DCF80030 		ldr	r3, [ip]
 411              	.LVL35:
 274:Drivers/STM32F4xx_HAL_Driver/Src/stm32f4xx_hal_crc.c **** 
 412              		.loc 1 274 8 view .LVU104
 413 003e 1868     		ldr	r0, [r3]
 414              	.LVL36:
 277:Drivers/STM32F4xx_HAL_Driver/Src/stm32f4xx_hal_crc.c **** 
 415              		.loc 1 277 3 is_stmt 1 view .LVU105
 277:Drivers/STM32F4xx_HAL_Driver/Src/stm32f4xx_hal_crc.c **** 
 416              		.loc 1 277 15 is_stmt 0 view .LVU106
 417 0040 0123     		movs	r3, #1
 418 0042 8CF80530 		strb	r3, [ip, #5]
 280:Drivers/STM32F4xx_HAL_Driver/Src/stm32f4xx_hal_crc.c **** }
 419              		.loc 1 280 3 is_stmt 1 view .LVU107
 420              		.loc 1 281 1 is_stmt 0 view .LVU108
 421 0046 7047     		bx	lr
 422              		.cfi_endproc
 423              	.LFE244:
 425              		.section	.text.HAL_CRC_GetState,"ax",%progbits
 426              		.align	1
 427              		.global	HAL_CRC_GetState
 428              		.syntax unified
 429              		.thumb
 430              		.thumb_func
 432              	HAL_CRC_GetState:
 433              	.LVL37:
 434              	.LFB245:
 282:Drivers/STM32F4xx_HAL_Driver/Src/stm32f4xx_hal_crc.c **** 
 283:Drivers/STM32F4xx_HAL_Driver/Src/stm32f4xx_hal_crc.c **** /**
 284:Drivers/STM32F4xx_HAL_Driver/Src/stm32f4xx_hal_crc.c ****   * @}
 285:Drivers/STM32F4xx_HAL_Driver/Src/stm32f4xx_hal_crc.c ****   */
 286:Drivers/STM32F4xx_HAL_Driver/Src/stm32f4xx_hal_crc.c **** 
 287:Drivers/STM32F4xx_HAL_Driver/Src/stm32f4xx_hal_crc.c **** /** @defgroup CRC_Exported_Functions_Group3 Peripheral State functions
 288:Drivers/STM32F4xx_HAL_Driver/Src/stm32f4xx_hal_crc.c ****   *  @brief    Peripheral State functions.
 289:Drivers/STM32F4xx_HAL_Driver/Src/stm32f4xx_hal_crc.c ****   *
 290:Drivers/STM32F4xx_HAL_Driver/Src/stm32f4xx_hal_crc.c **** @verbatim
 291:Drivers/STM32F4xx_HAL_Driver/Src/stm32f4xx_hal_crc.c ****  ===============================================================================
 292:Drivers/STM32F4xx_HAL_Driver/Src/stm32f4xx_hal_crc.c ****                       ##### Peripheral State functions #####
 293:Drivers/STM32F4xx_HAL_Driver/Src/stm32f4xx_hal_crc.c ****  ===============================================================================
 294:Drivers/STM32F4xx_HAL_Driver/Src/stm32f4xx_hal_crc.c ****     [..]
 295:Drivers/STM32F4xx_HAL_Driver/Src/stm32f4xx_hal_crc.c ****     This subsection permits to get in run-time the status of the peripheral.
 296:Drivers/STM32F4xx_HAL_Driver/Src/stm32f4xx_hal_crc.c **** 
 297:Drivers/STM32F4xx_HAL_Driver/Src/stm32f4xx_hal_crc.c **** @endverbatim
 298:Drivers/STM32F4xx_HAL_Driver/Src/stm32f4xx_hal_crc.c ****   * @{
 299:Drivers/STM32F4xx_HAL_Driver/Src/stm32f4xx_hal_crc.c ****   */
 300:Drivers/STM32F4xx_HAL_Driver/Src/stm32f4xx_hal_crc.c **** 
 301:Drivers/STM32F4xx_HAL_Driver/Src/stm32f4xx_hal_crc.c **** /**
 302:Drivers/STM32F4xx_HAL_Driver/Src/stm32f4xx_hal_crc.c ****   * @brief  Return the CRC handle state.
 303:Drivers/STM32F4xx_HAL_Driver/Src/stm32f4xx_hal_crc.c ****   * @param  hcrc CRC handle
 304:Drivers/STM32F4xx_HAL_Driver/Src/stm32f4xx_hal_crc.c ****   * @retval HAL state
 305:Drivers/STM32F4xx_HAL_Driver/Src/stm32f4xx_hal_crc.c ****   */
 306:Drivers/STM32F4xx_HAL_Driver/Src/stm32f4xx_hal_crc.c **** HAL_CRC_StateTypeDef HAL_CRC_GetState(const CRC_HandleTypeDef *hcrc)
 307:Drivers/STM32F4xx_HAL_Driver/Src/stm32f4xx_hal_crc.c **** {
 435              		.loc 1 307 1 is_stmt 1 view -0
 436              		.cfi_startproc
 437              		@ args = 0, pretend = 0, frame = 0
ARM GAS  C:\Users\moham\AppData\Local\Temp\ccM1fKiK.s 			page 15


 438              		@ frame_needed = 0, uses_anonymous_args = 0
 439              		@ link register save eliminated.
 308:Drivers/STM32F4xx_HAL_Driver/Src/stm32f4xx_hal_crc.c ****   /* Return CRC handle state */
 309:Drivers/STM32F4xx_HAL_Driver/Src/stm32f4xx_hal_crc.c ****   return hcrc->State;
 440              		.loc 1 309 3 view .LVU110
 441              		.loc 1 309 14 is_stmt 0 view .LVU111
 442 0000 4079     		ldrb	r0, [r0, #5]	@ zero_extendqisi2
 443              	.LVL38:
 310:Drivers/STM32F4xx_HAL_Driver/Src/stm32f4xx_hal_crc.c **** }
 444              		.loc 1 310 1 view .LVU112
 445 0002 7047     		bx	lr
 446              		.cfi_endproc
 447              	.LFE245:
 449              		.text
 450              	.Letext0:
 451              		.file 2 "C:/Program Files (x86)/Arm GNU Toolchain arm-none-eabi/14.3 rel1/arm-none-eabi/include/ma
 452              		.file 3 "C:/Program Files (x86)/Arm GNU Toolchain arm-none-eabi/14.3 rel1/arm-none-eabi/include/sy
 453              		.file 4 "Drivers/CMSIS/Device/ST/STM32F4xx/Include/stm32f429xx.h"
 454              		.file 5 "Drivers/STM32F4xx_HAL_Driver/Inc/stm32f4xx_hal_def.h"
 455              		.file 6 "Drivers/STM32F4xx_HAL_Driver/Inc/stm32f4xx_hal_crc.h"
 456              		.file 7 "Core/Inc/stm32f4xx_hal_conf.h"
ARM GAS  C:\Users\moham\AppData\Local\Temp\ccM1fKiK.s 			page 16

