ARM GAS  /var/folders/qx/2_175_4n2s19vhvtspjhb3qh0000gn/T//cc35DONQ.s 			page 1


   1              		.cpu cortex-m4
   2              		.arch armv7e-m
   3              		.fpu fpv4-sp-d16
   4              		.eabi_attribute 27, 1
   5              		.eabi_attribute 28, 1
   6              		.eabi_attribute 20, 1
   7              		.eabi_attribute 21, 1
   8              		.eabi_attribute 23, 3
   9              		.eabi_attribute 24, 1
  10              		.eabi_attribute 25, 1
  11              		.eabi_attribute 26, 1
  12              		.eabi_attribute 30, 1
  13              		.eabi_attribute 34, 1
  14              		.eabi_attribute 18, 4
  15              		.file	"stm32f4xx_ll_fmc.c"
  16              		.text
  17              	.Ltext0:
  18              		.cfi_sections	.debug_frame
  19              		.file 1 "Drivers/STM32F4xx_HAL_Driver/Src/stm32f4xx_ll_fmc.c"
  20              		.section	.rodata.FMC_NORSRAM_Init.str1.4,"aMS",%progbits,1
  21              		.align	2
  22              	.LC0:
  23 0000 44726976 		.ascii	"Drivers/STM32F4xx_HAL_Driver/Src/stm32f4xx_ll_fmc.c"
  23      6572732F 
  23      53544D33 
  23      32463478 
  23      785F4841 
  24 0033 00       		.ascii	"\000"
  25              		.section	.text.FMC_NORSRAM_Init,"ax",%progbits
  26              		.align	1
  27              		.global	FMC_NORSRAM_Init
  28              		.syntax unified
  29              		.thumb
  30              		.thumb_func
  32              	FMC_NORSRAM_Init:
  33              	.LVL0:
  34              	.LFB239:
   1:Drivers/STM32F4xx_HAL_Driver/Src/stm32f4xx_ll_fmc.c **** /**
   2:Drivers/STM32F4xx_HAL_Driver/Src/stm32f4xx_ll_fmc.c ****   ******************************************************************************
   3:Drivers/STM32F4xx_HAL_Driver/Src/stm32f4xx_ll_fmc.c ****   * @file    stm32f4xx_ll_fmc.c
   4:Drivers/STM32F4xx_HAL_Driver/Src/stm32f4xx_ll_fmc.c ****   * @author  MCD Application Team
   5:Drivers/STM32F4xx_HAL_Driver/Src/stm32f4xx_ll_fmc.c ****   * @brief   FMC Low Layer HAL module driver.
   6:Drivers/STM32F4xx_HAL_Driver/Src/stm32f4xx_ll_fmc.c ****   *
   7:Drivers/STM32F4xx_HAL_Driver/Src/stm32f4xx_ll_fmc.c ****   *          This file provides firmware functions to manage the following
   8:Drivers/STM32F4xx_HAL_Driver/Src/stm32f4xx_ll_fmc.c ****   *          functionalities of the Flexible Memory Controller (FMC) peripheral memories:
   9:Drivers/STM32F4xx_HAL_Driver/Src/stm32f4xx_ll_fmc.c ****   *           + Initialization/de-initialization functions
  10:Drivers/STM32F4xx_HAL_Driver/Src/stm32f4xx_ll_fmc.c ****   *           + Peripheral Control functions
  11:Drivers/STM32F4xx_HAL_Driver/Src/stm32f4xx_ll_fmc.c ****   *           + Peripheral State functions
  12:Drivers/STM32F4xx_HAL_Driver/Src/stm32f4xx_ll_fmc.c ****   *
  13:Drivers/STM32F4xx_HAL_Driver/Src/stm32f4xx_ll_fmc.c ****   ******************************************************************************
  14:Drivers/STM32F4xx_HAL_Driver/Src/stm32f4xx_ll_fmc.c ****   * @attention
  15:Drivers/STM32F4xx_HAL_Driver/Src/stm32f4xx_ll_fmc.c ****   *
  16:Drivers/STM32F4xx_HAL_Driver/Src/stm32f4xx_ll_fmc.c ****   * Copyright (c) 2016 STMicroelectronics.
  17:Drivers/STM32F4xx_HAL_Driver/Src/stm32f4xx_ll_fmc.c ****   * All rights reserved.
  18:Drivers/STM32F4xx_HAL_Driver/Src/stm32f4xx_ll_fmc.c ****   *
  19:Drivers/STM32F4xx_HAL_Driver/Src/stm32f4xx_ll_fmc.c ****   * This software is licensed under terms that can be found in the LICENSE file
  20:Drivers/STM32F4xx_HAL_Driver/Src/stm32f4xx_ll_fmc.c ****   * in the root directory of this software component.
ARM GAS  /var/folders/qx/2_175_4n2s19vhvtspjhb3qh0000gn/T//cc35DONQ.s 			page 2


  21:Drivers/STM32F4xx_HAL_Driver/Src/stm32f4xx_ll_fmc.c ****   * If no LICENSE file comes with this software, it is provided AS-IS.
  22:Drivers/STM32F4xx_HAL_Driver/Src/stm32f4xx_ll_fmc.c ****   *
  23:Drivers/STM32F4xx_HAL_Driver/Src/stm32f4xx_ll_fmc.c ****   ******************************************************************************
  24:Drivers/STM32F4xx_HAL_Driver/Src/stm32f4xx_ll_fmc.c ****   @verbatim
  25:Drivers/STM32F4xx_HAL_Driver/Src/stm32f4xx_ll_fmc.c ****   ==============================================================================
  26:Drivers/STM32F4xx_HAL_Driver/Src/stm32f4xx_ll_fmc.c ****                         ##### FMC peripheral features #####
  27:Drivers/STM32F4xx_HAL_Driver/Src/stm32f4xx_ll_fmc.c ****   ==============================================================================
  28:Drivers/STM32F4xx_HAL_Driver/Src/stm32f4xx_ll_fmc.c ****   [..] The Flexible memory controller (FMC) includes following memory controllers:
  29:Drivers/STM32F4xx_HAL_Driver/Src/stm32f4xx_ll_fmc.c ****        (+) The NOR/PSRAM memory controller
  30:Drivers/STM32F4xx_HAL_Driver/Src/stm32f4xx_ll_fmc.c ****        (+) The NAND/PC Card memory controller
  31:Drivers/STM32F4xx_HAL_Driver/Src/stm32f4xx_ll_fmc.c ****        (+) The Synchronous DRAM (SDRAM) controller
  32:Drivers/STM32F4xx_HAL_Driver/Src/stm32f4xx_ll_fmc.c **** 
  33:Drivers/STM32F4xx_HAL_Driver/Src/stm32f4xx_ll_fmc.c ****   [..] The FMC functional block makes the interface with synchronous and asynchronous static
  34:Drivers/STM32F4xx_HAL_Driver/Src/stm32f4xx_ll_fmc.c ****        memories, SDRAM memories, and 16-bit PC memory cards. Its main purposes are:
  35:Drivers/STM32F4xx_HAL_Driver/Src/stm32f4xx_ll_fmc.c ****        (+) to translate AHB transactions into the appropriate external device protocol
  36:Drivers/STM32F4xx_HAL_Driver/Src/stm32f4xx_ll_fmc.c ****        (+) to meet the access time requirements of the external memory devices
  37:Drivers/STM32F4xx_HAL_Driver/Src/stm32f4xx_ll_fmc.c **** 
  38:Drivers/STM32F4xx_HAL_Driver/Src/stm32f4xx_ll_fmc.c ****   [..] All external memories share the addresses, data and control signals with the controller.
  39:Drivers/STM32F4xx_HAL_Driver/Src/stm32f4xx_ll_fmc.c ****        Each external device is accessed by means of a unique Chip Select. The FMC performs
  40:Drivers/STM32F4xx_HAL_Driver/Src/stm32f4xx_ll_fmc.c ****        only one access at a time to an external device.
  41:Drivers/STM32F4xx_HAL_Driver/Src/stm32f4xx_ll_fmc.c ****        The main features of the FMC controller are the following:
  42:Drivers/STM32F4xx_HAL_Driver/Src/stm32f4xx_ll_fmc.c ****         (+) Interface with static-memory mapped devices including:
  43:Drivers/STM32F4xx_HAL_Driver/Src/stm32f4xx_ll_fmc.c ****            (++) Static random access memory (SRAM)
  44:Drivers/STM32F4xx_HAL_Driver/Src/stm32f4xx_ll_fmc.c ****            (++) Read-only memory (ROM)
  45:Drivers/STM32F4xx_HAL_Driver/Src/stm32f4xx_ll_fmc.c ****            (++) NOR Flash memory/OneNAND Flash memory
  46:Drivers/STM32F4xx_HAL_Driver/Src/stm32f4xx_ll_fmc.c ****            (++) PSRAM (4 memory banks)
  47:Drivers/STM32F4xx_HAL_Driver/Src/stm32f4xx_ll_fmc.c ****            (++) 16-bit PC Card compatible devices
  48:Drivers/STM32F4xx_HAL_Driver/Src/stm32f4xx_ll_fmc.c ****            (++) Two banks of NAND Flash memory with ECC hardware to check up to 8 Kbytes of
  49:Drivers/STM32F4xx_HAL_Driver/Src/stm32f4xx_ll_fmc.c ****                 data
  50:Drivers/STM32F4xx_HAL_Driver/Src/stm32f4xx_ll_fmc.c ****         (+) Interface with synchronous DRAM (SDRAM) memories
  51:Drivers/STM32F4xx_HAL_Driver/Src/stm32f4xx_ll_fmc.c ****         (+) Independent Chip Select control for each memory bank
  52:Drivers/STM32F4xx_HAL_Driver/Src/stm32f4xx_ll_fmc.c ****         (+) Independent configuration for each memory bank
  53:Drivers/STM32F4xx_HAL_Driver/Src/stm32f4xx_ll_fmc.c **** 
  54:Drivers/STM32F4xx_HAL_Driver/Src/stm32f4xx_ll_fmc.c ****   @endverbatim
  55:Drivers/STM32F4xx_HAL_Driver/Src/stm32f4xx_ll_fmc.c ****   ******************************************************************************
  56:Drivers/STM32F4xx_HAL_Driver/Src/stm32f4xx_ll_fmc.c ****   */
  57:Drivers/STM32F4xx_HAL_Driver/Src/stm32f4xx_ll_fmc.c **** 
  58:Drivers/STM32F4xx_HAL_Driver/Src/stm32f4xx_ll_fmc.c **** /* Includes ------------------------------------------------------------------*/
  59:Drivers/STM32F4xx_HAL_Driver/Src/stm32f4xx_ll_fmc.c **** #include "stm32f4xx_hal.h"
  60:Drivers/STM32F4xx_HAL_Driver/Src/stm32f4xx_ll_fmc.c **** 
  61:Drivers/STM32F4xx_HAL_Driver/Src/stm32f4xx_ll_fmc.c **** /** @addtogroup STM32F4xx_HAL_Driver
  62:Drivers/STM32F4xx_HAL_Driver/Src/stm32f4xx_ll_fmc.c ****   * @{
  63:Drivers/STM32F4xx_HAL_Driver/Src/stm32f4xx_ll_fmc.c ****   */
  64:Drivers/STM32F4xx_HAL_Driver/Src/stm32f4xx_ll_fmc.c **** #if defined(HAL_NOR_MODULE_ENABLED) || (defined(HAL_NAND_MODULE_ENABLED)) || defined(HAL_PCCARD_MOD
  65:Drivers/STM32F4xx_HAL_Driver/Src/stm32f4xx_ll_fmc.c ****     || defined(HAL_SRAM_MODULE_ENABLED)
  66:Drivers/STM32F4xx_HAL_Driver/Src/stm32f4xx_ll_fmc.c **** 
  67:Drivers/STM32F4xx_HAL_Driver/Src/stm32f4xx_ll_fmc.c **** /** @defgroup FMC_LL  FMC Low Layer
  68:Drivers/STM32F4xx_HAL_Driver/Src/stm32f4xx_ll_fmc.c ****   * @brief FMC driver modules
  69:Drivers/STM32F4xx_HAL_Driver/Src/stm32f4xx_ll_fmc.c ****   * @{
  70:Drivers/STM32F4xx_HAL_Driver/Src/stm32f4xx_ll_fmc.c ****   */
  71:Drivers/STM32F4xx_HAL_Driver/Src/stm32f4xx_ll_fmc.c **** 
  72:Drivers/STM32F4xx_HAL_Driver/Src/stm32f4xx_ll_fmc.c **** /* Private typedef -----------------------------------------------------------*/
  73:Drivers/STM32F4xx_HAL_Driver/Src/stm32f4xx_ll_fmc.c **** /* Private define ------------------------------------------------------------*/
  74:Drivers/STM32F4xx_HAL_Driver/Src/stm32f4xx_ll_fmc.c **** 
  75:Drivers/STM32F4xx_HAL_Driver/Src/stm32f4xx_ll_fmc.c **** /** @defgroup FMC_LL_Private_Constants FMC Low Layer Private Constants
  76:Drivers/STM32F4xx_HAL_Driver/Src/stm32f4xx_ll_fmc.c ****   * @{
  77:Drivers/STM32F4xx_HAL_Driver/Src/stm32f4xx_ll_fmc.c ****   */
ARM GAS  /var/folders/qx/2_175_4n2s19vhvtspjhb3qh0000gn/T//cc35DONQ.s 			page 3


  78:Drivers/STM32F4xx_HAL_Driver/Src/stm32f4xx_ll_fmc.c **** 
  79:Drivers/STM32F4xx_HAL_Driver/Src/stm32f4xx_ll_fmc.c **** /* ----------------------- FMC registers bit mask --------------------------- */
  80:Drivers/STM32F4xx_HAL_Driver/Src/stm32f4xx_ll_fmc.c **** 
  81:Drivers/STM32F4xx_HAL_Driver/Src/stm32f4xx_ll_fmc.c **** #if defined(FMC_Bank1)
  82:Drivers/STM32F4xx_HAL_Driver/Src/stm32f4xx_ll_fmc.c **** /* --- BCR Register ---*/
  83:Drivers/STM32F4xx_HAL_Driver/Src/stm32f4xx_ll_fmc.c **** /* BCR register clear mask */
  84:Drivers/STM32F4xx_HAL_Driver/Src/stm32f4xx_ll_fmc.c **** 
  85:Drivers/STM32F4xx_HAL_Driver/Src/stm32f4xx_ll_fmc.c **** /* --- BTR Register ---*/
  86:Drivers/STM32F4xx_HAL_Driver/Src/stm32f4xx_ll_fmc.c **** /* BTR register clear mask */
  87:Drivers/STM32F4xx_HAL_Driver/Src/stm32f4xx_ll_fmc.c **** #define BTR_CLEAR_MASK    ((uint32_t)(FMC_BTR1_ADDSET | FMC_BTR1_ADDHLD  |\
  88:Drivers/STM32F4xx_HAL_Driver/Src/stm32f4xx_ll_fmc.c ****                                       FMC_BTR1_DATAST | FMC_BTR1_BUSTURN |\
  89:Drivers/STM32F4xx_HAL_Driver/Src/stm32f4xx_ll_fmc.c ****                                       FMC_BTR1_CLKDIV | FMC_BTR1_DATLAT  |\
  90:Drivers/STM32F4xx_HAL_Driver/Src/stm32f4xx_ll_fmc.c ****                                       FMC_BTR1_ACCMOD))
  91:Drivers/STM32F4xx_HAL_Driver/Src/stm32f4xx_ll_fmc.c **** 
  92:Drivers/STM32F4xx_HAL_Driver/Src/stm32f4xx_ll_fmc.c **** /* --- BWTR Register ---*/
  93:Drivers/STM32F4xx_HAL_Driver/Src/stm32f4xx_ll_fmc.c **** /* BWTR register clear mask */
  94:Drivers/STM32F4xx_HAL_Driver/Src/stm32f4xx_ll_fmc.c **** #define BWTR_CLEAR_MASK   ((uint32_t)(FMC_BWTR1_ADDSET | FMC_BWTR1_ADDHLD  |\
  95:Drivers/STM32F4xx_HAL_Driver/Src/stm32f4xx_ll_fmc.c ****                                       FMC_BWTR1_DATAST | FMC_BWTR1_BUSTURN |\
  96:Drivers/STM32F4xx_HAL_Driver/Src/stm32f4xx_ll_fmc.c ****                                       FMC_BWTR1_ACCMOD))
  97:Drivers/STM32F4xx_HAL_Driver/Src/stm32f4xx_ll_fmc.c **** #endif /* FMC_Bank1 */
  98:Drivers/STM32F4xx_HAL_Driver/Src/stm32f4xx_ll_fmc.c **** #if defined(FMC_Bank3) || defined(FMC_Bank2_3)
  99:Drivers/STM32F4xx_HAL_Driver/Src/stm32f4xx_ll_fmc.c **** 
 100:Drivers/STM32F4xx_HAL_Driver/Src/stm32f4xx_ll_fmc.c **** #if defined (FMC_PCR_PWAITEN)
 101:Drivers/STM32F4xx_HAL_Driver/Src/stm32f4xx_ll_fmc.c **** /* --- PCR Register ---*/
 102:Drivers/STM32F4xx_HAL_Driver/Src/stm32f4xx_ll_fmc.c **** /* PCR register clear mask */
 103:Drivers/STM32F4xx_HAL_Driver/Src/stm32f4xx_ll_fmc.c **** #define PCR_CLEAR_MASK    ((uint32_t)(FMC_PCR_PWAITEN | FMC_PCR_PBKEN  | \
 104:Drivers/STM32F4xx_HAL_Driver/Src/stm32f4xx_ll_fmc.c ****                                       FMC_PCR_PTYP    | FMC_PCR_PWID   | \
 105:Drivers/STM32F4xx_HAL_Driver/Src/stm32f4xx_ll_fmc.c ****                                       FMC_PCR_ECCEN   | FMC_PCR_TCLR   | \
 106:Drivers/STM32F4xx_HAL_Driver/Src/stm32f4xx_ll_fmc.c ****                                       FMC_PCR_TAR     | FMC_PCR_ECCPS))
 107:Drivers/STM32F4xx_HAL_Driver/Src/stm32f4xx_ll_fmc.c **** /* --- PMEM Register ---*/
 108:Drivers/STM32F4xx_HAL_Driver/Src/stm32f4xx_ll_fmc.c **** /* PMEM register clear mask */
 109:Drivers/STM32F4xx_HAL_Driver/Src/stm32f4xx_ll_fmc.c **** #define PMEM_CLEAR_MASK   ((uint32_t)(FMC_PMEM_MEMSET2  | FMC_PMEM_MEMWAIT2 |\
 110:Drivers/STM32F4xx_HAL_Driver/Src/stm32f4xx_ll_fmc.c ****                                       FMC_PMEM_MEMHOLD2 | FMC_PMEM_MEMHIZ2))
 111:Drivers/STM32F4xx_HAL_Driver/Src/stm32f4xx_ll_fmc.c **** 
 112:Drivers/STM32F4xx_HAL_Driver/Src/stm32f4xx_ll_fmc.c **** /* --- PATT Register ---*/
 113:Drivers/STM32F4xx_HAL_Driver/Src/stm32f4xx_ll_fmc.c **** /* PATT register clear mask */
 114:Drivers/STM32F4xx_HAL_Driver/Src/stm32f4xx_ll_fmc.c **** #define PATT_CLEAR_MASK   ((uint32_t)(FMC_PATT_ATTSET2  | FMC_PATT_ATTWAIT2 |\
 115:Drivers/STM32F4xx_HAL_Driver/Src/stm32f4xx_ll_fmc.c ****                                       FMC_PATT_ATTHOLD2 | FMC_PATT_ATTHIZ2))
 116:Drivers/STM32F4xx_HAL_Driver/Src/stm32f4xx_ll_fmc.c **** #else
 117:Drivers/STM32F4xx_HAL_Driver/Src/stm32f4xx_ll_fmc.c **** /* --- PCR Register ---*/
 118:Drivers/STM32F4xx_HAL_Driver/Src/stm32f4xx_ll_fmc.c **** /* PCR register clear mask */
 119:Drivers/STM32F4xx_HAL_Driver/Src/stm32f4xx_ll_fmc.c **** #define PCR_CLEAR_MASK    ((uint32_t)(FMC_PCR2_PWAITEN | FMC_PCR2_PBKEN  | \
 120:Drivers/STM32F4xx_HAL_Driver/Src/stm32f4xx_ll_fmc.c ****                                       FMC_PCR2_PTYP    | FMC_PCR2_PWID   | \
 121:Drivers/STM32F4xx_HAL_Driver/Src/stm32f4xx_ll_fmc.c ****                                       FMC_PCR2_ECCEN   | FMC_PCR2_TCLR   | \
 122:Drivers/STM32F4xx_HAL_Driver/Src/stm32f4xx_ll_fmc.c ****                                       FMC_PCR2_TAR     | FMC_PCR2_ECCPS))
 123:Drivers/STM32F4xx_HAL_Driver/Src/stm32f4xx_ll_fmc.c **** /* --- PMEM Register ---*/
 124:Drivers/STM32F4xx_HAL_Driver/Src/stm32f4xx_ll_fmc.c **** /* PMEM register clear mask */
 125:Drivers/STM32F4xx_HAL_Driver/Src/stm32f4xx_ll_fmc.c **** #define PMEM_CLEAR_MASK   ((uint32_t)(FMC_PMEM2_MEMSET2  | FMC_PMEM2_MEMWAIT2 |\
 126:Drivers/STM32F4xx_HAL_Driver/Src/stm32f4xx_ll_fmc.c ****                                       FMC_PMEM2_MEMHOLD2 | FMC_PMEM2_MEMHIZ2))
 127:Drivers/STM32F4xx_HAL_Driver/Src/stm32f4xx_ll_fmc.c **** 
 128:Drivers/STM32F4xx_HAL_Driver/Src/stm32f4xx_ll_fmc.c **** /* --- PATT Register ---*/
 129:Drivers/STM32F4xx_HAL_Driver/Src/stm32f4xx_ll_fmc.c **** /* PATT register clear mask */
 130:Drivers/STM32F4xx_HAL_Driver/Src/stm32f4xx_ll_fmc.c **** #define PATT_CLEAR_MASK   ((uint32_t)(FMC_PATT2_ATTSET2  | FMC_PATT2_ATTWAIT2 |\
 131:Drivers/STM32F4xx_HAL_Driver/Src/stm32f4xx_ll_fmc.c ****                                       FMC_PATT2_ATTHOLD2 | FMC_PATT2_ATTHIZ2))
 132:Drivers/STM32F4xx_HAL_Driver/Src/stm32f4xx_ll_fmc.c **** 
 133:Drivers/STM32F4xx_HAL_Driver/Src/stm32f4xx_ll_fmc.c **** #endif /* FMC_PCR_PWAITEN */
 134:Drivers/STM32F4xx_HAL_Driver/Src/stm32f4xx_ll_fmc.c **** #endif /* FMC_Bank3) || defined(FMC_Bank2_3 */
ARM GAS  /var/folders/qx/2_175_4n2s19vhvtspjhb3qh0000gn/T//cc35DONQ.s 			page 4


 135:Drivers/STM32F4xx_HAL_Driver/Src/stm32f4xx_ll_fmc.c **** #if defined(FMC_Bank4)
 136:Drivers/STM32F4xx_HAL_Driver/Src/stm32f4xx_ll_fmc.c **** /* --- PCR Register ---*/
 137:Drivers/STM32F4xx_HAL_Driver/Src/stm32f4xx_ll_fmc.c **** /* PCR register clear mask */
 138:Drivers/STM32F4xx_HAL_Driver/Src/stm32f4xx_ll_fmc.c **** #define PCR4_CLEAR_MASK   ((uint32_t)(FMC_PCR4_PWAITEN | FMC_PCR4_PBKEN  | \
 139:Drivers/STM32F4xx_HAL_Driver/Src/stm32f4xx_ll_fmc.c ****                                       FMC_PCR4_PTYP    | FMC_PCR4_PWID   | \
 140:Drivers/STM32F4xx_HAL_Driver/Src/stm32f4xx_ll_fmc.c ****                                       FMC_PCR4_ECCEN   | FMC_PCR4_TCLR   | \
 141:Drivers/STM32F4xx_HAL_Driver/Src/stm32f4xx_ll_fmc.c ****                                       FMC_PCR4_TAR     | FMC_PCR4_ECCPS))
 142:Drivers/STM32F4xx_HAL_Driver/Src/stm32f4xx_ll_fmc.c **** /* --- PMEM Register ---*/
 143:Drivers/STM32F4xx_HAL_Driver/Src/stm32f4xx_ll_fmc.c **** /* PMEM register clear mask */
 144:Drivers/STM32F4xx_HAL_Driver/Src/stm32f4xx_ll_fmc.c **** #define PMEM4_CLEAR_MASK  ((uint32_t)(FMC_PMEM4_MEMSET4  | FMC_PMEM4_MEMWAIT4 |\
 145:Drivers/STM32F4xx_HAL_Driver/Src/stm32f4xx_ll_fmc.c ****                                       FMC_PMEM4_MEMHOLD4 | FMC_PMEM4_MEMHIZ4))
 146:Drivers/STM32F4xx_HAL_Driver/Src/stm32f4xx_ll_fmc.c **** 
 147:Drivers/STM32F4xx_HAL_Driver/Src/stm32f4xx_ll_fmc.c **** /* --- PATT Register ---*/
 148:Drivers/STM32F4xx_HAL_Driver/Src/stm32f4xx_ll_fmc.c **** /* PATT register clear mask */
 149:Drivers/STM32F4xx_HAL_Driver/Src/stm32f4xx_ll_fmc.c **** #define PATT4_CLEAR_MASK  ((uint32_t)(FMC_PATT4_ATTSET4  | FMC_PATT4_ATTWAIT4 |\
 150:Drivers/STM32F4xx_HAL_Driver/Src/stm32f4xx_ll_fmc.c ****                                       FMC_PATT4_ATTHOLD4 | FMC_PATT4_ATTHIZ4))
 151:Drivers/STM32F4xx_HAL_Driver/Src/stm32f4xx_ll_fmc.c **** 
 152:Drivers/STM32F4xx_HAL_Driver/Src/stm32f4xx_ll_fmc.c **** /* --- PIO4 Register ---*/
 153:Drivers/STM32F4xx_HAL_Driver/Src/stm32f4xx_ll_fmc.c **** /* PIO4 register clear mask */
 154:Drivers/STM32F4xx_HAL_Driver/Src/stm32f4xx_ll_fmc.c **** #define PIO4_CLEAR_MASK   ((uint32_t)(FMC_PIO4_IOSET4  | FMC_PIO4_IOWAIT4 | \
 155:Drivers/STM32F4xx_HAL_Driver/Src/stm32f4xx_ll_fmc.c ****                                       FMC_PIO4_IOHOLD4 | FMC_PIO4_IOHIZ4))
 156:Drivers/STM32F4xx_HAL_Driver/Src/stm32f4xx_ll_fmc.c **** 
 157:Drivers/STM32F4xx_HAL_Driver/Src/stm32f4xx_ll_fmc.c **** #endif /* FMC_Bank4 */
 158:Drivers/STM32F4xx_HAL_Driver/Src/stm32f4xx_ll_fmc.c **** #if defined(FMC_Bank5_6)
 159:Drivers/STM32F4xx_HAL_Driver/Src/stm32f4xx_ll_fmc.c **** 
 160:Drivers/STM32F4xx_HAL_Driver/Src/stm32f4xx_ll_fmc.c **** /* --- SDCR Register ---*/
 161:Drivers/STM32F4xx_HAL_Driver/Src/stm32f4xx_ll_fmc.c **** /* SDCR register clear mask */
 162:Drivers/STM32F4xx_HAL_Driver/Src/stm32f4xx_ll_fmc.c **** #define SDCR_CLEAR_MASK   ((uint32_t)(FMC_SDCR1_NC    | FMC_SDCR1_NR     | \
 163:Drivers/STM32F4xx_HAL_Driver/Src/stm32f4xx_ll_fmc.c ****                                       FMC_SDCR1_MWID  | FMC_SDCR1_NB     | \
 164:Drivers/STM32F4xx_HAL_Driver/Src/stm32f4xx_ll_fmc.c ****                                       FMC_SDCR1_CAS   | FMC_SDCR1_WP     | \
 165:Drivers/STM32F4xx_HAL_Driver/Src/stm32f4xx_ll_fmc.c ****                                       FMC_SDCR1_SDCLK | FMC_SDCR1_RBURST | \
 166:Drivers/STM32F4xx_HAL_Driver/Src/stm32f4xx_ll_fmc.c ****                                       FMC_SDCR1_RPIPE))
 167:Drivers/STM32F4xx_HAL_Driver/Src/stm32f4xx_ll_fmc.c **** 
 168:Drivers/STM32F4xx_HAL_Driver/Src/stm32f4xx_ll_fmc.c **** /* --- SDTR Register ---*/
 169:Drivers/STM32F4xx_HAL_Driver/Src/stm32f4xx_ll_fmc.c **** /* SDTR register clear mask */
 170:Drivers/STM32F4xx_HAL_Driver/Src/stm32f4xx_ll_fmc.c **** #define SDTR_CLEAR_MASK   ((uint32_t)(FMC_SDTR1_TMRD  | FMC_SDTR1_TXSR   | \
 171:Drivers/STM32F4xx_HAL_Driver/Src/stm32f4xx_ll_fmc.c ****                                       FMC_SDTR1_TRAS  | FMC_SDTR1_TRC    | \
 172:Drivers/STM32F4xx_HAL_Driver/Src/stm32f4xx_ll_fmc.c ****                                       FMC_SDTR1_TWR   | FMC_SDTR1_TRP    | \
 173:Drivers/STM32F4xx_HAL_Driver/Src/stm32f4xx_ll_fmc.c ****                                       FMC_SDTR1_TRCD))
 174:Drivers/STM32F4xx_HAL_Driver/Src/stm32f4xx_ll_fmc.c **** #endif /* FMC_Bank5_6 */
 175:Drivers/STM32F4xx_HAL_Driver/Src/stm32f4xx_ll_fmc.c **** 
 176:Drivers/STM32F4xx_HAL_Driver/Src/stm32f4xx_ll_fmc.c **** /**
 177:Drivers/STM32F4xx_HAL_Driver/Src/stm32f4xx_ll_fmc.c ****   * @}
 178:Drivers/STM32F4xx_HAL_Driver/Src/stm32f4xx_ll_fmc.c ****   */
 179:Drivers/STM32F4xx_HAL_Driver/Src/stm32f4xx_ll_fmc.c **** 
 180:Drivers/STM32F4xx_HAL_Driver/Src/stm32f4xx_ll_fmc.c **** /* Private macro -------------------------------------------------------------*/
 181:Drivers/STM32F4xx_HAL_Driver/Src/stm32f4xx_ll_fmc.c **** /* Private variables ---------------------------------------------------------*/
 182:Drivers/STM32F4xx_HAL_Driver/Src/stm32f4xx_ll_fmc.c **** /* Private function prototypes -----------------------------------------------*/
 183:Drivers/STM32F4xx_HAL_Driver/Src/stm32f4xx_ll_fmc.c **** /* Exported functions --------------------------------------------------------*/
 184:Drivers/STM32F4xx_HAL_Driver/Src/stm32f4xx_ll_fmc.c **** 
 185:Drivers/STM32F4xx_HAL_Driver/Src/stm32f4xx_ll_fmc.c **** /** @defgroup FMC_LL_Exported_Functions FMC Low Layer Exported Functions
 186:Drivers/STM32F4xx_HAL_Driver/Src/stm32f4xx_ll_fmc.c ****   * @{
 187:Drivers/STM32F4xx_HAL_Driver/Src/stm32f4xx_ll_fmc.c ****   */
 188:Drivers/STM32F4xx_HAL_Driver/Src/stm32f4xx_ll_fmc.c **** 
 189:Drivers/STM32F4xx_HAL_Driver/Src/stm32f4xx_ll_fmc.c **** #if defined(FMC_Bank1)
 190:Drivers/STM32F4xx_HAL_Driver/Src/stm32f4xx_ll_fmc.c **** 
 191:Drivers/STM32F4xx_HAL_Driver/Src/stm32f4xx_ll_fmc.c **** /** @defgroup FMC_LL_Exported_Functions_NORSRAM FMC Low Layer NOR SRAM Exported Functions
ARM GAS  /var/folders/qx/2_175_4n2s19vhvtspjhb3qh0000gn/T//cc35DONQ.s 			page 5


 192:Drivers/STM32F4xx_HAL_Driver/Src/stm32f4xx_ll_fmc.c ****   * @brief  NORSRAM Controller functions
 193:Drivers/STM32F4xx_HAL_Driver/Src/stm32f4xx_ll_fmc.c ****   *
 194:Drivers/STM32F4xx_HAL_Driver/Src/stm32f4xx_ll_fmc.c ****   @verbatim
 195:Drivers/STM32F4xx_HAL_Driver/Src/stm32f4xx_ll_fmc.c ****   ==============================================================================
 196:Drivers/STM32F4xx_HAL_Driver/Src/stm32f4xx_ll_fmc.c ****                    ##### How to use NORSRAM device driver #####
 197:Drivers/STM32F4xx_HAL_Driver/Src/stm32f4xx_ll_fmc.c ****   ==============================================================================
 198:Drivers/STM32F4xx_HAL_Driver/Src/stm32f4xx_ll_fmc.c **** 
 199:Drivers/STM32F4xx_HAL_Driver/Src/stm32f4xx_ll_fmc.c ****   [..]
 200:Drivers/STM32F4xx_HAL_Driver/Src/stm32f4xx_ll_fmc.c ****     This driver contains a set of APIs to interface with the FMC NORSRAM banks in order
 201:Drivers/STM32F4xx_HAL_Driver/Src/stm32f4xx_ll_fmc.c ****     to run the NORSRAM external devices.
 202:Drivers/STM32F4xx_HAL_Driver/Src/stm32f4xx_ll_fmc.c **** 
 203:Drivers/STM32F4xx_HAL_Driver/Src/stm32f4xx_ll_fmc.c ****     (+) FMC NORSRAM bank reset using the function FMC_NORSRAM_DeInit()
 204:Drivers/STM32F4xx_HAL_Driver/Src/stm32f4xx_ll_fmc.c ****     (+) FMC NORSRAM bank control configuration using the function FMC_NORSRAM_Init()
 205:Drivers/STM32F4xx_HAL_Driver/Src/stm32f4xx_ll_fmc.c ****     (+) FMC NORSRAM bank timing configuration using the function FMC_NORSRAM_Timing_Init()
 206:Drivers/STM32F4xx_HAL_Driver/Src/stm32f4xx_ll_fmc.c ****     (+) FMC NORSRAM bank extended timing configuration using the function
 207:Drivers/STM32F4xx_HAL_Driver/Src/stm32f4xx_ll_fmc.c ****         FMC_NORSRAM_Extended_Timing_Init()
 208:Drivers/STM32F4xx_HAL_Driver/Src/stm32f4xx_ll_fmc.c ****     (+) FMC NORSRAM bank enable/disable write operation using the functions
 209:Drivers/STM32F4xx_HAL_Driver/Src/stm32f4xx_ll_fmc.c ****         FMC_NORSRAM_WriteOperation_Enable()/FMC_NORSRAM_WriteOperation_Disable()
 210:Drivers/STM32F4xx_HAL_Driver/Src/stm32f4xx_ll_fmc.c **** 
 211:Drivers/STM32F4xx_HAL_Driver/Src/stm32f4xx_ll_fmc.c **** @endverbatim
 212:Drivers/STM32F4xx_HAL_Driver/Src/stm32f4xx_ll_fmc.c ****   * @{
 213:Drivers/STM32F4xx_HAL_Driver/Src/stm32f4xx_ll_fmc.c ****   */
 214:Drivers/STM32F4xx_HAL_Driver/Src/stm32f4xx_ll_fmc.c **** 
 215:Drivers/STM32F4xx_HAL_Driver/Src/stm32f4xx_ll_fmc.c **** /** @defgroup FMC_LL_NORSRAM_Exported_Functions_Group1 Initialization and de-initialization functio
 216:Drivers/STM32F4xx_HAL_Driver/Src/stm32f4xx_ll_fmc.c ****   * @brief    Initialization and Configuration functions
 217:Drivers/STM32F4xx_HAL_Driver/Src/stm32f4xx_ll_fmc.c ****   *
 218:Drivers/STM32F4xx_HAL_Driver/Src/stm32f4xx_ll_fmc.c ****   @verbatim
 219:Drivers/STM32F4xx_HAL_Driver/Src/stm32f4xx_ll_fmc.c ****   ==============================================================================
 220:Drivers/STM32F4xx_HAL_Driver/Src/stm32f4xx_ll_fmc.c ****               ##### Initialization and de_initialization functions #####
 221:Drivers/STM32F4xx_HAL_Driver/Src/stm32f4xx_ll_fmc.c ****   ==============================================================================
 222:Drivers/STM32F4xx_HAL_Driver/Src/stm32f4xx_ll_fmc.c ****   [..]
 223:Drivers/STM32F4xx_HAL_Driver/Src/stm32f4xx_ll_fmc.c ****     This section provides functions allowing to:
 224:Drivers/STM32F4xx_HAL_Driver/Src/stm32f4xx_ll_fmc.c ****     (+) Initialize and configure the FMC NORSRAM interface
 225:Drivers/STM32F4xx_HAL_Driver/Src/stm32f4xx_ll_fmc.c ****     (+) De-initialize the FMC NORSRAM interface
 226:Drivers/STM32F4xx_HAL_Driver/Src/stm32f4xx_ll_fmc.c ****     (+) Configure the FMC clock and associated GPIOs
 227:Drivers/STM32F4xx_HAL_Driver/Src/stm32f4xx_ll_fmc.c **** 
 228:Drivers/STM32F4xx_HAL_Driver/Src/stm32f4xx_ll_fmc.c **** @endverbatim
 229:Drivers/STM32F4xx_HAL_Driver/Src/stm32f4xx_ll_fmc.c ****   * @{
 230:Drivers/STM32F4xx_HAL_Driver/Src/stm32f4xx_ll_fmc.c ****   */
 231:Drivers/STM32F4xx_HAL_Driver/Src/stm32f4xx_ll_fmc.c **** 
 232:Drivers/STM32F4xx_HAL_Driver/Src/stm32f4xx_ll_fmc.c **** /**
 233:Drivers/STM32F4xx_HAL_Driver/Src/stm32f4xx_ll_fmc.c ****   * @brief  Initialize the FMC_NORSRAM device according to the specified
 234:Drivers/STM32F4xx_HAL_Driver/Src/stm32f4xx_ll_fmc.c ****   *         control parameters in the FMC_NORSRAM_InitTypeDef
 235:Drivers/STM32F4xx_HAL_Driver/Src/stm32f4xx_ll_fmc.c ****   * @param  Device Pointer to NORSRAM device instance
 236:Drivers/STM32F4xx_HAL_Driver/Src/stm32f4xx_ll_fmc.c ****   * @param  Init Pointer to NORSRAM Initialization structure
 237:Drivers/STM32F4xx_HAL_Driver/Src/stm32f4xx_ll_fmc.c ****   * @retval HAL status
 238:Drivers/STM32F4xx_HAL_Driver/Src/stm32f4xx_ll_fmc.c ****   */
 239:Drivers/STM32F4xx_HAL_Driver/Src/stm32f4xx_ll_fmc.c **** HAL_StatusTypeDef  FMC_NORSRAM_Init(FMC_NORSRAM_TypeDef *Device,
 240:Drivers/STM32F4xx_HAL_Driver/Src/stm32f4xx_ll_fmc.c ****                                     const FMC_NORSRAM_InitTypeDef *Init)
 241:Drivers/STM32F4xx_HAL_Driver/Src/stm32f4xx_ll_fmc.c **** {
  35              		.loc 1 241 1 view -0
  36              		.cfi_startproc
  37              		@ args = 0, pretend = 0, frame = 0
  38              		@ frame_needed = 0, uses_anonymous_args = 0
  39              		.loc 1 241 1 is_stmt 0 view .LVU1
  40 0000 38B5     		push	{r3, r4, r5, lr}
  41              	.LCFI0:
ARM GAS  /var/folders/qx/2_175_4n2s19vhvtspjhb3qh0000gn/T//cc35DONQ.s 			page 6


  42              		.cfi_def_cfa_offset 16
  43              		.cfi_offset 3, -16
  44              		.cfi_offset 4, -12
  45              		.cfi_offset 5, -8
  46              		.cfi_offset 14, -4
  47 0002 0546     		mov	r5, r0
  48 0004 0C46     		mov	r4, r1
 242:Drivers/STM32F4xx_HAL_Driver/Src/stm32f4xx_ll_fmc.c ****   uint32_t flashaccess;
  49              		.loc 1 242 3 is_stmt 1 view .LVU2
 243:Drivers/STM32F4xx_HAL_Driver/Src/stm32f4xx_ll_fmc.c ****   uint32_t btcr_reg;
  50              		.loc 1 243 3 view .LVU3
 244:Drivers/STM32F4xx_HAL_Driver/Src/stm32f4xx_ll_fmc.c ****   uint32_t mask;
  51              		.loc 1 244 3 view .LVU4
 245:Drivers/STM32F4xx_HAL_Driver/Src/stm32f4xx_ll_fmc.c **** 
 246:Drivers/STM32F4xx_HAL_Driver/Src/stm32f4xx_ll_fmc.c ****   /* Check the parameters */
 247:Drivers/STM32F4xx_HAL_Driver/Src/stm32f4xx_ll_fmc.c ****   assert_param(IS_FMC_NORSRAM_DEVICE(Device));
  52              		.loc 1 247 3 view .LVU5
  53 0006 B0F1204F 		cmp	r0, #-1610612736
  54 000a 03D0     		beq	.L2
  55              		.loc 1 247 3 is_stmt 0 discriminator 1 view .LVU6
  56 000c F721     		movs	r1, #247
  57              	.LVL1:
  58              		.loc 1 247 3 discriminator 1 view .LVU7
  59 000e 7F48     		ldr	r0, .L39
  60              	.LVL2:
  61              		.loc 1 247 3 discriminator 1 view .LVU8
  62 0010 FFF7FEFF 		bl	assert_failed
  63              	.LVL3:
  64              	.L2:
 248:Drivers/STM32F4xx_HAL_Driver/Src/stm32f4xx_ll_fmc.c ****   assert_param(IS_FMC_NORSRAM_BANK(Init->NSBank));
  65              		.loc 1 248 3 is_stmt 1 view .LVU9
  66 0014 2368     		ldr	r3, [r4]
  67 0016 4BB1     		cbz	r3, .L3
  68 0018 062B     		cmp	r3, #6
  69 001a 00F29980 		bhi	.L4
  70 001e 5422     		movs	r2, #84
  71 0020 22FA03F3 		lsr	r3, r2, r3
  72 0024 13F0010F 		tst	r3, #1
  73 0028 00F09280 		beq	.L4
  74              	.L3:
 249:Drivers/STM32F4xx_HAL_Driver/Src/stm32f4xx_ll_fmc.c ****   assert_param(IS_FMC_MUX(Init->DataAddressMux));
  75              		.loc 1 249 3 view .LVU10
  76 002c 6368     		ldr	r3, [r4, #4]
  77 002e 13B1     		cbz	r3, .L5
  78              		.loc 1 249 3 is_stmt 0 discriminator 1 view .LVU11
  79 0030 022B     		cmp	r3, #2
  80 0032 40F09280 		bne	.L23
  81              	.L5:
 250:Drivers/STM32F4xx_HAL_Driver/Src/stm32f4xx_ll_fmc.c ****   assert_param(IS_FMC_MEMORY(Init->MemoryType));
  82              		.loc 1 250 3 is_stmt 1 view .LVU12
  83 0036 A368     		ldr	r3, [r4, #8]
  84 0038 23B1     		cbz	r3, .L6
  85              		.loc 1 250 3 is_stmt 0 discriminator 1 view .LVU13
  86 003a 042B     		cmp	r3, #4
  87 003c 02D0     		beq	.L6
  88              		.loc 1 250 3 discriminator 2 view .LVU14
  89 003e 082B     		cmp	r3, #8
ARM GAS  /var/folders/qx/2_175_4n2s19vhvtspjhb3qh0000gn/T//cc35DONQ.s 			page 7


  90 0040 40F09080 		bne	.L24
  91              	.L6:
 251:Drivers/STM32F4xx_HAL_Driver/Src/stm32f4xx_ll_fmc.c ****   assert_param(IS_FMC_NORSRAM_MEMORY_WIDTH(Init->MemoryDataWidth));
  92              		.loc 1 251 3 is_stmt 1 view .LVU15
  93 0044 E368     		ldr	r3, [r4, #12]
  94 0046 23B1     		cbz	r3, .L7
  95              		.loc 1 251 3 is_stmt 0 discriminator 1 view .LVU16
  96 0048 102B     		cmp	r3, #16
  97 004a 02D0     		beq	.L7
  98              		.loc 1 251 3 discriminator 2 view .LVU17
  99 004c 202B     		cmp	r3, #32
 100 004e 40F08E80 		bne	.L25
 101              	.L7:
 252:Drivers/STM32F4xx_HAL_Driver/Src/stm32f4xx_ll_fmc.c ****   assert_param(IS_FMC_BURSTMODE(Init->BurstAccessMode));
 102              		.loc 1 252 3 is_stmt 1 view .LVU18
 103 0052 2369     		ldr	r3, [r4, #16]
 104 0054 1BB1     		cbz	r3, .L8
 105              		.loc 1 252 3 is_stmt 0 discriminator 1 view .LVU19
 106 0056 B3F5807F 		cmp	r3, #256
 107 005a 40F08D80 		bne	.L26
 108              	.L8:
 253:Drivers/STM32F4xx_HAL_Driver/Src/stm32f4xx_ll_fmc.c ****   assert_param(IS_FMC_WAIT_POLARITY(Init->WaitSignalPolarity));
 109              		.loc 1 253 3 is_stmt 1 view .LVU20
 110 005e 6369     		ldr	r3, [r4, #20]
 111 0060 1BB1     		cbz	r3, .L9
 112              		.loc 1 253 3 is_stmt 0 discriminator 1 view .LVU21
 113 0062 B3F5007F 		cmp	r3, #512
 114 0066 40F08C80 		bne	.L27
 115              	.L9:
 254:Drivers/STM32F4xx_HAL_Driver/Src/stm32f4xx_ll_fmc.c **** #if defined(FMC_BCR1_WRAPMOD)
 255:Drivers/STM32F4xx_HAL_Driver/Src/stm32f4xx_ll_fmc.c ****   assert_param(IS_FMC_WRAP_MODE(Init->WrapMode));
 116              		.loc 1 255 3 is_stmt 1 view .LVU22
 117 006a A369     		ldr	r3, [r4, #24]
 118 006c 1BB1     		cbz	r3, .L10
 119              		.loc 1 255 3 is_stmt 0 discriminator 1 view .LVU23
 120 006e B3F5806F 		cmp	r3, #1024
 121 0072 40F08B80 		bne	.L28
 122              	.L10:
 256:Drivers/STM32F4xx_HAL_Driver/Src/stm32f4xx_ll_fmc.c **** #endif /* FMC_BCR1_WRAPMOD */
 257:Drivers/STM32F4xx_HAL_Driver/Src/stm32f4xx_ll_fmc.c ****   assert_param(IS_FMC_WAIT_SIGNAL_ACTIVE(Init->WaitSignalActive));
 123              		.loc 1 257 3 is_stmt 1 view .LVU24
 124 0076 E369     		ldr	r3, [r4, #28]
 125 0078 1BB1     		cbz	r3, .L11
 126              		.loc 1 257 3 is_stmt 0 discriminator 1 view .LVU25
 127 007a B3F5006F 		cmp	r3, #2048
 128 007e 40F08A80 		bne	.L29
 129              	.L11:
 258:Drivers/STM32F4xx_HAL_Driver/Src/stm32f4xx_ll_fmc.c ****   assert_param(IS_FMC_WRITE_OPERATION(Init->WriteOperation));
 130              		.loc 1 258 3 is_stmt 1 view .LVU26
 131 0082 236A     		ldr	r3, [r4, #32]
 132 0084 1BB1     		cbz	r3, .L12
 133              		.loc 1 258 3 is_stmt 0 discriminator 1 view .LVU27
 134 0086 B3F5805F 		cmp	r3, #4096
 135 008a 40F08A80 		bne	.L30
 136              	.L12:
 259:Drivers/STM32F4xx_HAL_Driver/Src/stm32f4xx_ll_fmc.c ****   assert_param(IS_FMC_WAITE_SIGNAL(Init->WaitSignal));
 137              		.loc 1 259 3 is_stmt 1 view .LVU28
ARM GAS  /var/folders/qx/2_175_4n2s19vhvtspjhb3qh0000gn/T//cc35DONQ.s 			page 8


 138 008e 636A     		ldr	r3, [r4, #36]
 139 0090 1BB1     		cbz	r3, .L13
 140              		.loc 1 259 3 is_stmt 0 discriminator 1 view .LVU29
 141 0092 B3F5005F 		cmp	r3, #8192
 142 0096 40F08A80 		bne	.L31
 143              	.L13:
 260:Drivers/STM32F4xx_HAL_Driver/Src/stm32f4xx_ll_fmc.c ****   assert_param(IS_FMC_EXTENDED_MODE(Init->ExtendedMode));
 144              		.loc 1 260 3 is_stmt 1 view .LVU30
 145 009a A36A     		ldr	r3, [r4, #40]
 146 009c 1BB1     		cbz	r3, .L14
 147              		.loc 1 260 3 is_stmt 0 discriminator 1 view .LVU31
 148 009e B3F5804F 		cmp	r3, #16384
 149 00a2 40F08A80 		bne	.L32
 150              	.L14:
 261:Drivers/STM32F4xx_HAL_Driver/Src/stm32f4xx_ll_fmc.c ****   assert_param(IS_FMC_ASYNWAIT(Init->AsynchronousWait));
 151              		.loc 1 261 3 is_stmt 1 view .LVU32
 152 00a6 E36A     		ldr	r3, [r4, #44]
 153 00a8 1BB1     		cbz	r3, .L15
 154              		.loc 1 261 3 is_stmt 0 discriminator 1 view .LVU33
 155 00aa B3F5004F 		cmp	r3, #32768
 156 00ae 40F08A80 		bne	.L33
 157              	.L15:
 262:Drivers/STM32F4xx_HAL_Driver/Src/stm32f4xx_ll_fmc.c ****   assert_param(IS_FMC_WRITE_BURST(Init->WriteBurst));
 158              		.loc 1 262 3 is_stmt 1 view .LVU34
 159 00b2 236B     		ldr	r3, [r4, #48]
 160 00b4 1BB1     		cbz	r3, .L16
 161              		.loc 1 262 3 is_stmt 0 discriminator 1 view .LVU35
 162 00b6 B3F5002F 		cmp	r3, #524288
 163 00ba 40F08A80 		bne	.L34
 164              	.L16:
 263:Drivers/STM32F4xx_HAL_Driver/Src/stm32f4xx_ll_fmc.c **** #if defined(FMC_BCR1_CCLKEN)
 264:Drivers/STM32F4xx_HAL_Driver/Src/stm32f4xx_ll_fmc.c ****   assert_param(IS_FMC_CONTINOUS_CLOCK(Init->ContinuousClock));
 165              		.loc 1 264 3 is_stmt 1 view .LVU36
 166 00be 636B     		ldr	r3, [r4, #52]
 167 00c0 1BB1     		cbz	r3, .L17
 168              		.loc 1 264 3 is_stmt 0 discriminator 1 view .LVU37
 169 00c2 B3F5801F 		cmp	r3, #1048576
 170 00c6 40F08A80 		bne	.L35
 171              	.L17:
 265:Drivers/STM32F4xx_HAL_Driver/Src/stm32f4xx_ll_fmc.c **** #endif /* FMC_BCR1_CCLKEN */
 266:Drivers/STM32F4xx_HAL_Driver/Src/stm32f4xx_ll_fmc.c **** #if defined(FMC_BCR1_WFDIS)
 267:Drivers/STM32F4xx_HAL_Driver/Src/stm32f4xx_ll_fmc.c ****   assert_param(IS_FMC_WRITE_FIFO(Init->WriteFifo));
 268:Drivers/STM32F4xx_HAL_Driver/Src/stm32f4xx_ll_fmc.c **** #endif /* FMC_BCR1_WFDIS */
 269:Drivers/STM32F4xx_HAL_Driver/Src/stm32f4xx_ll_fmc.c ****   assert_param(IS_FMC_PAGESIZE(Init->PageSize));
 172              		.loc 1 269 3 is_stmt 1 view .LVU38
 173 00ca E36B     		ldr	r3, [r4, #60]
 174 00cc 63B1     		cbz	r3, .L18
 175              		.loc 1 269 3 is_stmt 0 discriminator 1 view .LVU39
 176 00ce B3F5803F 		cmp	r3, #65536
 177 00d2 09D0     		beq	.L18
 178              		.loc 1 269 3 discriminator 2 view .LVU40
 179 00d4 B3F5003F 		cmp	r3, #131072
 180 00d8 06D0     		beq	.L18
 181              		.loc 1 269 3 discriminator 3 view .LVU41
 182 00da B3F5403F 		cmp	r3, #196608
 183 00de 03D0     		beq	.L18
 184              		.loc 1 269 3 discriminator 4 view .LVU42
ARM GAS  /var/folders/qx/2_175_4n2s19vhvtspjhb3qh0000gn/T//cc35DONQ.s 			page 9


 185 00e0 B3F5802F 		cmp	r3, #262144
 186 00e4 40F08180 		bne	.L36
 187              	.L18:
 270:Drivers/STM32F4xx_HAL_Driver/Src/stm32f4xx_ll_fmc.c **** 
 271:Drivers/STM32F4xx_HAL_Driver/Src/stm32f4xx_ll_fmc.c ****   /* Disable NORSRAM Device */
 272:Drivers/STM32F4xx_HAL_Driver/Src/stm32f4xx_ll_fmc.c ****   __FMC_NORSRAM_DISABLE(Device, Init->NSBank);
 188              		.loc 1 272 3 is_stmt 1 view .LVU43
 189 00e8 2268     		ldr	r2, [r4]
 190 00ea 55F82230 		ldr	r3, [r5, r2, lsl #2]
 191 00ee 23F00103 		bic	r3, r3, #1
 192 00f2 45F82230 		str	r3, [r5, r2, lsl #2]
 273:Drivers/STM32F4xx_HAL_Driver/Src/stm32f4xx_ll_fmc.c **** 
 274:Drivers/STM32F4xx_HAL_Driver/Src/stm32f4xx_ll_fmc.c ****   /* Set NORSRAM device control parameters */
 275:Drivers/STM32F4xx_HAL_Driver/Src/stm32f4xx_ll_fmc.c ****   if (Init->MemoryType == FMC_MEMORY_TYPE_NOR)
 193              		.loc 1 275 3 view .LVU44
 194              		.loc 1 275 11 is_stmt 0 view .LVU45
 195 00f6 A368     		ldr	r3, [r4, #8]
 196              		.loc 1 275 6 view .LVU46
 197 00f8 082B     		cmp	r3, #8
 198 00fa 7CD0     		beq	.L37
 276:Drivers/STM32F4xx_HAL_Driver/Src/stm32f4xx_ll_fmc.c ****   {
 277:Drivers/STM32F4xx_HAL_Driver/Src/stm32f4xx_ll_fmc.c ****     flashaccess = FMC_NORSRAM_FLASH_ACCESS_ENABLE;
 278:Drivers/STM32F4xx_HAL_Driver/Src/stm32f4xx_ll_fmc.c ****   }
 279:Drivers/STM32F4xx_HAL_Driver/Src/stm32f4xx_ll_fmc.c ****   else
 280:Drivers/STM32F4xx_HAL_Driver/Src/stm32f4xx_ll_fmc.c ****   {
 281:Drivers/STM32F4xx_HAL_Driver/Src/stm32f4xx_ll_fmc.c ****     flashaccess = FMC_NORSRAM_FLASH_ACCESS_DISABLE;
 199              		.loc 1 281 17 view .LVU47
 200 00fc 0021     		movs	r1, #0
 201              	.L19:
 202              	.LVL4:
 282:Drivers/STM32F4xx_HAL_Driver/Src/stm32f4xx_ll_fmc.c ****   }
 283:Drivers/STM32F4xx_HAL_Driver/Src/stm32f4xx_ll_fmc.c **** 
 284:Drivers/STM32F4xx_HAL_Driver/Src/stm32f4xx_ll_fmc.c ****   btcr_reg = (flashaccess                   | \
 203              		.loc 1 284 3 is_stmt 1 view .LVU48
 285:Drivers/STM32F4xx_HAL_Driver/Src/stm32f4xx_ll_fmc.c ****               Init->DataAddressMux          | \
 204              		.loc 1 285 19 is_stmt 0 view .LVU49
 205 00fe 6268     		ldr	r2, [r4, #4]
 284:Drivers/STM32F4xx_HAL_Driver/Src/stm32f4xx_ll_fmc.c ****               Init->DataAddressMux          | \
 206              		.loc 1 284 45 view .LVU50
 207 0100 0A43     		orrs	r2, r2, r1
 208              		.loc 1 285 45 view .LVU51
 209 0102 1343     		orrs	r3, r3, r2
 286:Drivers/STM32F4xx_HAL_Driver/Src/stm32f4xx_ll_fmc.c ****               Init->MemoryType              | \
 287:Drivers/STM32F4xx_HAL_Driver/Src/stm32f4xx_ll_fmc.c ****               Init->MemoryDataWidth         | \
 210              		.loc 1 287 19 view .LVU52
 211 0104 E268     		ldr	r2, [r4, #12]
 286:Drivers/STM32F4xx_HAL_Driver/Src/stm32f4xx_ll_fmc.c ****               Init->MemoryType              | \
 212              		.loc 1 286 45 view .LVU53
 213 0106 1343     		orrs	r3, r3, r2
 288:Drivers/STM32F4xx_HAL_Driver/Src/stm32f4xx_ll_fmc.c ****               Init->BurstAccessMode         | \
 214              		.loc 1 288 19 view .LVU54
 215 0108 2269     		ldr	r2, [r4, #16]
 287:Drivers/STM32F4xx_HAL_Driver/Src/stm32f4xx_ll_fmc.c ****               Init->BurstAccessMode         | \
 216              		.loc 1 287 45 view .LVU55
 217 010a 1343     		orrs	r3, r3, r2
 289:Drivers/STM32F4xx_HAL_Driver/Src/stm32f4xx_ll_fmc.c ****               Init->WaitSignalPolarity      | \
 218              		.loc 1 289 19 view .LVU56
ARM GAS  /var/folders/qx/2_175_4n2s19vhvtspjhb3qh0000gn/T//cc35DONQ.s 			page 10


 219 010c 6269     		ldr	r2, [r4, #20]
 288:Drivers/STM32F4xx_HAL_Driver/Src/stm32f4xx_ll_fmc.c ****               Init->BurstAccessMode         | \
 220              		.loc 1 288 45 view .LVU57
 221 010e 1343     		orrs	r3, r3, r2
 290:Drivers/STM32F4xx_HAL_Driver/Src/stm32f4xx_ll_fmc.c ****               Init->WaitSignalActive        | \
 222              		.loc 1 290 19 view .LVU58
 223 0110 E269     		ldr	r2, [r4, #28]
 289:Drivers/STM32F4xx_HAL_Driver/Src/stm32f4xx_ll_fmc.c ****               Init->WaitSignalPolarity      | \
 224              		.loc 1 289 45 view .LVU59
 225 0112 1343     		orrs	r3, r3, r2
 291:Drivers/STM32F4xx_HAL_Driver/Src/stm32f4xx_ll_fmc.c ****               Init->WriteOperation          | \
 226              		.loc 1 291 19 view .LVU60
 227 0114 226A     		ldr	r2, [r4, #32]
 290:Drivers/STM32F4xx_HAL_Driver/Src/stm32f4xx_ll_fmc.c ****               Init->WaitSignalActive        | \
 228              		.loc 1 290 45 view .LVU61
 229 0116 1343     		orrs	r3, r3, r2
 292:Drivers/STM32F4xx_HAL_Driver/Src/stm32f4xx_ll_fmc.c ****               Init->WaitSignal              | \
 230              		.loc 1 292 19 view .LVU62
 231 0118 626A     		ldr	r2, [r4, #36]
 291:Drivers/STM32F4xx_HAL_Driver/Src/stm32f4xx_ll_fmc.c ****               Init->WriteOperation          | \
 232              		.loc 1 291 45 view .LVU63
 233 011a 1343     		orrs	r3, r3, r2
 293:Drivers/STM32F4xx_HAL_Driver/Src/stm32f4xx_ll_fmc.c ****               Init->ExtendedMode            | \
 234              		.loc 1 293 19 view .LVU64
 235 011c A26A     		ldr	r2, [r4, #40]
 292:Drivers/STM32F4xx_HAL_Driver/Src/stm32f4xx_ll_fmc.c ****               Init->WaitSignal              | \
 236              		.loc 1 292 45 view .LVU65
 237 011e 1343     		orrs	r3, r3, r2
 294:Drivers/STM32F4xx_HAL_Driver/Src/stm32f4xx_ll_fmc.c ****               Init->AsynchronousWait        | \
 238              		.loc 1 294 19 view .LVU66
 239 0120 E26A     		ldr	r2, [r4, #44]
 293:Drivers/STM32F4xx_HAL_Driver/Src/stm32f4xx_ll_fmc.c ****               Init->ExtendedMode            | \
 240              		.loc 1 293 45 view .LVU67
 241 0122 1343     		orrs	r3, r3, r2
 295:Drivers/STM32F4xx_HAL_Driver/Src/stm32f4xx_ll_fmc.c ****               Init->WriteBurst);
 242              		.loc 1 295 19 view .LVU68
 243 0124 226B     		ldr	r2, [r4, #48]
 284:Drivers/STM32F4xx_HAL_Driver/Src/stm32f4xx_ll_fmc.c ****               Init->DataAddressMux          | \
 244              		.loc 1 284 12 view .LVU69
 245 0126 1343     		orrs	r3, r3, r2
 246              	.LVL5:
 296:Drivers/STM32F4xx_HAL_Driver/Src/stm32f4xx_ll_fmc.c **** 
 297:Drivers/STM32F4xx_HAL_Driver/Src/stm32f4xx_ll_fmc.c **** #if defined(FMC_BCR1_WRAPMOD)
 298:Drivers/STM32F4xx_HAL_Driver/Src/stm32f4xx_ll_fmc.c ****   btcr_reg |= Init->WrapMode;
 247              		.loc 1 298 3 is_stmt 1 view .LVU70
 248              		.loc 1 298 19 is_stmt 0 view .LVU71
 249 0128 A269     		ldr	r2, [r4, #24]
 250              		.loc 1 298 12 view .LVU72
 251 012a 1A43     		orrs	r2, r2, r3
 252              	.LVL6:
 299:Drivers/STM32F4xx_HAL_Driver/Src/stm32f4xx_ll_fmc.c **** #endif /* FMC_BCR1_WRAPMOD */
 300:Drivers/STM32F4xx_HAL_Driver/Src/stm32f4xx_ll_fmc.c **** #if defined(FMC_BCR1_CCLKEN)
 301:Drivers/STM32F4xx_HAL_Driver/Src/stm32f4xx_ll_fmc.c ****   btcr_reg |= Init->ContinuousClock;
 253              		.loc 1 301 3 is_stmt 1 view .LVU73
 254              		.loc 1 301 19 is_stmt 0 view .LVU74
 255 012c 636B     		ldr	r3, [r4, #52]
 256              		.loc 1 301 12 view .LVU75
ARM GAS  /var/folders/qx/2_175_4n2s19vhvtspjhb3qh0000gn/T//cc35DONQ.s 			page 11


 257 012e 1A43     		orrs	r2, r2, r3
 258              	.LVL7:
 302:Drivers/STM32F4xx_HAL_Driver/Src/stm32f4xx_ll_fmc.c **** #endif /* FMC_BCR1_CCLKEN */
 303:Drivers/STM32F4xx_HAL_Driver/Src/stm32f4xx_ll_fmc.c **** #if defined(FMC_BCR1_WFDIS)
 304:Drivers/STM32F4xx_HAL_Driver/Src/stm32f4xx_ll_fmc.c ****   btcr_reg |= Init->WriteFifo;
 305:Drivers/STM32F4xx_HAL_Driver/Src/stm32f4xx_ll_fmc.c **** #endif /* FMC_BCR1_WFDIS */
 306:Drivers/STM32F4xx_HAL_Driver/Src/stm32f4xx_ll_fmc.c ****   btcr_reg |= Init->PageSize;
 259              		.loc 1 306 3 is_stmt 1 view .LVU76
 260              		.loc 1 306 19 is_stmt 0 view .LVU77
 261 0130 E36B     		ldr	r3, [r4, #60]
 262              		.loc 1 306 12 view .LVU78
 263 0132 1A43     		orrs	r2, r2, r3
 264              	.LVL8:
 307:Drivers/STM32F4xx_HAL_Driver/Src/stm32f4xx_ll_fmc.c **** 
 308:Drivers/STM32F4xx_HAL_Driver/Src/stm32f4xx_ll_fmc.c ****   mask = (FMC_BCR1_MBKEN                |
 265              		.loc 1 308 3 is_stmt 1 view .LVU79
 309:Drivers/STM32F4xx_HAL_Driver/Src/stm32f4xx_ll_fmc.c ****           FMC_BCR1_MUXEN                |
 310:Drivers/STM32F4xx_HAL_Driver/Src/stm32f4xx_ll_fmc.c ****           FMC_BCR1_MTYP                 |
 311:Drivers/STM32F4xx_HAL_Driver/Src/stm32f4xx_ll_fmc.c ****           FMC_BCR1_MWID                 |
 312:Drivers/STM32F4xx_HAL_Driver/Src/stm32f4xx_ll_fmc.c ****           FMC_BCR1_FACCEN               |
 313:Drivers/STM32F4xx_HAL_Driver/Src/stm32f4xx_ll_fmc.c ****           FMC_BCR1_BURSTEN              |
 314:Drivers/STM32F4xx_HAL_Driver/Src/stm32f4xx_ll_fmc.c ****           FMC_BCR1_WAITPOL              |
 315:Drivers/STM32F4xx_HAL_Driver/Src/stm32f4xx_ll_fmc.c ****           FMC_BCR1_WAITCFG              |
 316:Drivers/STM32F4xx_HAL_Driver/Src/stm32f4xx_ll_fmc.c ****           FMC_BCR1_WREN                 |
 317:Drivers/STM32F4xx_HAL_Driver/Src/stm32f4xx_ll_fmc.c ****           FMC_BCR1_WAITEN               |
 318:Drivers/STM32F4xx_HAL_Driver/Src/stm32f4xx_ll_fmc.c ****           FMC_BCR1_EXTMOD               |
 319:Drivers/STM32F4xx_HAL_Driver/Src/stm32f4xx_ll_fmc.c ****           FMC_BCR1_ASYNCWAIT            |
 320:Drivers/STM32F4xx_HAL_Driver/Src/stm32f4xx_ll_fmc.c ****           FMC_BCR1_CBURSTRW);
 321:Drivers/STM32F4xx_HAL_Driver/Src/stm32f4xx_ll_fmc.c **** 
 322:Drivers/STM32F4xx_HAL_Driver/Src/stm32f4xx_ll_fmc.c **** #if defined(FMC_BCR1_WRAPMOD)
 323:Drivers/STM32F4xx_HAL_Driver/Src/stm32f4xx_ll_fmc.c ****   mask |= FMC_BCR1_WRAPMOD;
 266              		.loc 1 323 3 view .LVU80
 324:Drivers/STM32F4xx_HAL_Driver/Src/stm32f4xx_ll_fmc.c **** #endif /* FMC_BCR1_WRAPMOD */
 325:Drivers/STM32F4xx_HAL_Driver/Src/stm32f4xx_ll_fmc.c **** #if defined(FMC_BCR1_CCLKEN)
 326:Drivers/STM32F4xx_HAL_Driver/Src/stm32f4xx_ll_fmc.c ****   mask |= FMC_BCR1_CCLKEN;
 267              		.loc 1 326 3 view .LVU81
 327:Drivers/STM32F4xx_HAL_Driver/Src/stm32f4xx_ll_fmc.c **** #endif /* FMC_BCR1_CCLKEN */
 328:Drivers/STM32F4xx_HAL_Driver/Src/stm32f4xx_ll_fmc.c **** #if defined(FMC_BCR1_WFDIS)
 329:Drivers/STM32F4xx_HAL_Driver/Src/stm32f4xx_ll_fmc.c ****   mask |= FMC_BCR1_WFDIS;
 330:Drivers/STM32F4xx_HAL_Driver/Src/stm32f4xx_ll_fmc.c **** #endif /* FMC_BCR1_WFDIS */
 331:Drivers/STM32F4xx_HAL_Driver/Src/stm32f4xx_ll_fmc.c ****   mask |= FMC_BCR1_CPSIZE;
 268              		.loc 1 331 3 view .LVU82
 332:Drivers/STM32F4xx_HAL_Driver/Src/stm32f4xx_ll_fmc.c **** 
 333:Drivers/STM32F4xx_HAL_Driver/Src/stm32f4xx_ll_fmc.c ****   MODIFY_REG(Device->BTCR[Init->NSBank], mask, btcr_reg);
 269              		.loc 1 333 3 view .LVU83
 270 0134 2168     		ldr	r1, [r4]
 271              	.LVL9:
 272              		.loc 1 333 3 is_stmt 0 view .LVU84
 273 0136 55F82100 		ldr	r0, [r5, r1, lsl #2]
 274 013a 354B     		ldr	r3, .L39+4
 275 013c 0340     		ands	r3, r3, r0
 276 013e 1343     		orrs	r3, r3, r2
 277 0140 45F82130 		str	r3, [r5, r1, lsl #2]
 334:Drivers/STM32F4xx_HAL_Driver/Src/stm32f4xx_ll_fmc.c **** 
 335:Drivers/STM32F4xx_HAL_Driver/Src/stm32f4xx_ll_fmc.c **** #if defined(FMC_BCR1_CCLKEN)
 336:Drivers/STM32F4xx_HAL_Driver/Src/stm32f4xx_ll_fmc.c ****   /* Configure synchronous mode when Continuous clock is enabled for bank2..4 */
 337:Drivers/STM32F4xx_HAL_Driver/Src/stm32f4xx_ll_fmc.c ****   if ((Init->ContinuousClock == FMC_CONTINUOUS_CLOCK_SYNC_ASYNC) && (Init->NSBank != FMC_NORSRAM_BA
ARM GAS  /var/folders/qx/2_175_4n2s19vhvtspjhb3qh0000gn/T//cc35DONQ.s 			page 12


 278              		.loc 1 337 3 is_stmt 1 view .LVU85
 279              		.loc 1 337 12 is_stmt 0 view .LVU86
 280 0144 636B     		ldr	r3, [r4, #52]
 281              		.loc 1 337 6 view .LVU87
 282 0146 B3F5801F 		cmp	r3, #1048576
 283 014a 56D0     		beq	.L38
 284              	.LVL10:
 285              	.L20:
 338:Drivers/STM32F4xx_HAL_Driver/Src/stm32f4xx_ll_fmc.c ****   {
 339:Drivers/STM32F4xx_HAL_Driver/Src/stm32f4xx_ll_fmc.c ****     MODIFY_REG(Device->BTCR[FMC_NORSRAM_BANK1], FMC_BCR1_CCLKEN, Init->ContinuousClock);
 340:Drivers/STM32F4xx_HAL_Driver/Src/stm32f4xx_ll_fmc.c ****   }
 341:Drivers/STM32F4xx_HAL_Driver/Src/stm32f4xx_ll_fmc.c **** #endif /* FMC_BCR1_CCLKEN */
 342:Drivers/STM32F4xx_HAL_Driver/Src/stm32f4xx_ll_fmc.c **** #if defined(FMC_BCR1_WFDIS)
 343:Drivers/STM32F4xx_HAL_Driver/Src/stm32f4xx_ll_fmc.c **** 
 344:Drivers/STM32F4xx_HAL_Driver/Src/stm32f4xx_ll_fmc.c ****   if (Init->NSBank != FMC_NORSRAM_BANK1)
 345:Drivers/STM32F4xx_HAL_Driver/Src/stm32f4xx_ll_fmc.c ****   {
 346:Drivers/STM32F4xx_HAL_Driver/Src/stm32f4xx_ll_fmc.c ****     /* Configure Write FIFO mode when Write Fifo is enabled for bank2..4 */
 347:Drivers/STM32F4xx_HAL_Driver/Src/stm32f4xx_ll_fmc.c ****     SET_BIT(Device->BTCR[FMC_NORSRAM_BANK1], (uint32_t)(Init->WriteFifo));
 348:Drivers/STM32F4xx_HAL_Driver/Src/stm32f4xx_ll_fmc.c ****   }
 349:Drivers/STM32F4xx_HAL_Driver/Src/stm32f4xx_ll_fmc.c **** #endif /* FMC_BCR1_WFDIS */
 350:Drivers/STM32F4xx_HAL_Driver/Src/stm32f4xx_ll_fmc.c **** 
 351:Drivers/STM32F4xx_HAL_Driver/Src/stm32f4xx_ll_fmc.c ****   return HAL_OK;
 286              		.loc 1 351 3 is_stmt 1 view .LVU88
 352:Drivers/STM32F4xx_HAL_Driver/Src/stm32f4xx_ll_fmc.c **** }
 287              		.loc 1 352 1 is_stmt 0 view .LVU89
 288 014c 0020     		movs	r0, #0
 289 014e 38BD     		pop	{r3, r4, r5, pc}
 290              	.LVL11:
 291              	.L4:
 248:Drivers/STM32F4xx_HAL_Driver/Src/stm32f4xx_ll_fmc.c ****   assert_param(IS_FMC_MUX(Init->DataAddressMux));
 292              		.loc 1 248 3 discriminator 4 view .LVU90
 293 0150 F821     		movs	r1, #248
 294 0152 2E48     		ldr	r0, .L39
 295 0154 FFF7FEFF 		bl	assert_failed
 296              	.LVL12:
 297 0158 68E7     		b	.L3
 298              	.L23:
 249:Drivers/STM32F4xx_HAL_Driver/Src/stm32f4xx_ll_fmc.c ****   assert_param(IS_FMC_MEMORY(Init->MemoryType));
 299              		.loc 1 249 3 discriminator 2 view .LVU91
 300 015a F921     		movs	r1, #249
 301 015c 2B48     		ldr	r0, .L39
 302 015e FFF7FEFF 		bl	assert_failed
 303              	.LVL13:
 304 0162 68E7     		b	.L5
 305              	.L24:
 250:Drivers/STM32F4xx_HAL_Driver/Src/stm32f4xx_ll_fmc.c ****   assert_param(IS_FMC_NORSRAM_MEMORY_WIDTH(Init->MemoryDataWidth));
 306              		.loc 1 250 3 discriminator 3 view .LVU92
 307 0164 FA21     		movs	r1, #250
 308 0166 2948     		ldr	r0, .L39
 309 0168 FFF7FEFF 		bl	assert_failed
 310              	.LVL14:
 311 016c 6AE7     		b	.L6
 312              	.L25:
 251:Drivers/STM32F4xx_HAL_Driver/Src/stm32f4xx_ll_fmc.c ****   assert_param(IS_FMC_BURSTMODE(Init->BurstAccessMode));
 313              		.loc 1 251 3 discriminator 3 view .LVU93
 314 016e FB21     		movs	r1, #251
 315 0170 2648     		ldr	r0, .L39
ARM GAS  /var/folders/qx/2_175_4n2s19vhvtspjhb3qh0000gn/T//cc35DONQ.s 			page 13


 316 0172 FFF7FEFF 		bl	assert_failed
 317              	.LVL15:
 318 0176 6CE7     		b	.L7
 319              	.L26:
 252:Drivers/STM32F4xx_HAL_Driver/Src/stm32f4xx_ll_fmc.c ****   assert_param(IS_FMC_WAIT_POLARITY(Init->WaitSignalPolarity));
 320              		.loc 1 252 3 discriminator 2 view .LVU94
 321 0178 FC21     		movs	r1, #252
 322 017a 2448     		ldr	r0, .L39
 323 017c FFF7FEFF 		bl	assert_failed
 324              	.LVL16:
 325 0180 6DE7     		b	.L8
 326              	.L27:
 253:Drivers/STM32F4xx_HAL_Driver/Src/stm32f4xx_ll_fmc.c **** #if defined(FMC_BCR1_WRAPMOD)
 327              		.loc 1 253 3 discriminator 2 view .LVU95
 328 0182 FD21     		movs	r1, #253
 329 0184 2148     		ldr	r0, .L39
 330 0186 FFF7FEFF 		bl	assert_failed
 331              	.LVL17:
 332 018a 6EE7     		b	.L9
 333              	.L28:
 255:Drivers/STM32F4xx_HAL_Driver/Src/stm32f4xx_ll_fmc.c **** #endif /* FMC_BCR1_WRAPMOD */
 334              		.loc 1 255 3 discriminator 2 view .LVU96
 335 018c FF21     		movs	r1, #255
 336 018e 1F48     		ldr	r0, .L39
 337 0190 FFF7FEFF 		bl	assert_failed
 338              	.LVL18:
 339 0194 6FE7     		b	.L10
 340              	.L29:
 257:Drivers/STM32F4xx_HAL_Driver/Src/stm32f4xx_ll_fmc.c ****   assert_param(IS_FMC_WRITE_OPERATION(Init->WriteOperation));
 341              		.loc 1 257 3 discriminator 2 view .LVU97
 342 0196 40F20111 		movw	r1, #257
 343 019a 1C48     		ldr	r0, .L39
 344 019c FFF7FEFF 		bl	assert_failed
 345              	.LVL19:
 346 01a0 6FE7     		b	.L11
 347              	.L30:
 258:Drivers/STM32F4xx_HAL_Driver/Src/stm32f4xx_ll_fmc.c ****   assert_param(IS_FMC_WAITE_SIGNAL(Init->WaitSignal));
 348              		.loc 1 258 3 discriminator 2 view .LVU98
 349 01a2 4FF48171 		mov	r1, #258
 350 01a6 1948     		ldr	r0, .L39
 351 01a8 FFF7FEFF 		bl	assert_failed
 352              	.LVL20:
 353 01ac 6FE7     		b	.L12
 354              	.L31:
 259:Drivers/STM32F4xx_HAL_Driver/Src/stm32f4xx_ll_fmc.c ****   assert_param(IS_FMC_EXTENDED_MODE(Init->ExtendedMode));
 355              		.loc 1 259 3 discriminator 2 view .LVU99
 356 01ae 40F20311 		movw	r1, #259
 357 01b2 1648     		ldr	r0, .L39
 358 01b4 FFF7FEFF 		bl	assert_failed
 359              	.LVL21:
 360 01b8 6FE7     		b	.L13
 361              	.L32:
 260:Drivers/STM32F4xx_HAL_Driver/Src/stm32f4xx_ll_fmc.c ****   assert_param(IS_FMC_ASYNWAIT(Init->AsynchronousWait));
 362              		.loc 1 260 3 discriminator 2 view .LVU100
 363 01ba 4FF48271 		mov	r1, #260
 364 01be 1348     		ldr	r0, .L39
 365 01c0 FFF7FEFF 		bl	assert_failed
ARM GAS  /var/folders/qx/2_175_4n2s19vhvtspjhb3qh0000gn/T//cc35DONQ.s 			page 14


 366              	.LVL22:
 367 01c4 6FE7     		b	.L14
 368              	.L33:
 261:Drivers/STM32F4xx_HAL_Driver/Src/stm32f4xx_ll_fmc.c ****   assert_param(IS_FMC_WRITE_BURST(Init->WriteBurst));
 369              		.loc 1 261 3 discriminator 2 view .LVU101
 370 01c6 40F20511 		movw	r1, #261
 371 01ca 1048     		ldr	r0, .L39
 372 01cc FFF7FEFF 		bl	assert_failed
 373              	.LVL23:
 374 01d0 6FE7     		b	.L15
 375              	.L34:
 262:Drivers/STM32F4xx_HAL_Driver/Src/stm32f4xx_ll_fmc.c **** #if defined(FMC_BCR1_CCLKEN)
 376              		.loc 1 262 3 discriminator 2 view .LVU102
 377 01d2 4FF48371 		mov	r1, #262
 378 01d6 0D48     		ldr	r0, .L39
 379 01d8 FFF7FEFF 		bl	assert_failed
 380              	.LVL24:
 381 01dc 6FE7     		b	.L16
 382              	.L35:
 264:Drivers/STM32F4xx_HAL_Driver/Src/stm32f4xx_ll_fmc.c **** #endif /* FMC_BCR1_CCLKEN */
 383              		.loc 1 264 3 discriminator 2 view .LVU103
 384 01de 4FF48471 		mov	r1, #264
 385 01e2 0A48     		ldr	r0, .L39
 386 01e4 FFF7FEFF 		bl	assert_failed
 387              	.LVL25:
 388 01e8 6FE7     		b	.L17
 389              	.L36:
 269:Drivers/STM32F4xx_HAL_Driver/Src/stm32f4xx_ll_fmc.c **** 
 390              		.loc 1 269 3 discriminator 5 view .LVU104
 391 01ea 40F20D11 		movw	r1, #269
 392 01ee 0748     		ldr	r0, .L39
 393 01f0 FFF7FEFF 		bl	assert_failed
 394              	.LVL26:
 395 01f4 78E7     		b	.L18
 396              	.L37:
 277:Drivers/STM32F4xx_HAL_Driver/Src/stm32f4xx_ll_fmc.c ****   }
 397              		.loc 1 277 17 view .LVU105
 398 01f6 4021     		movs	r1, #64
 399 01f8 81E7     		b	.L19
 400              	.LVL27:
 401              	.L38:
 337:Drivers/STM32F4xx_HAL_Driver/Src/stm32f4xx_ll_fmc.c ****   {
 402              		.loc 1 337 74 discriminator 1 view .LVU106
 403 01fa 2268     		ldr	r2, [r4]
 404              	.LVL28:
 337:Drivers/STM32F4xx_HAL_Driver/Src/stm32f4xx_ll_fmc.c ****   {
 405              		.loc 1 337 66 discriminator 1 view .LVU107
 406 01fc 002A     		cmp	r2, #0
 407 01fe A5D0     		beq	.L20
 339:Drivers/STM32F4xx_HAL_Driver/Src/stm32f4xx_ll_fmc.c ****   }
 408              		.loc 1 339 5 is_stmt 1 view .LVU108
 409 0200 2A68     		ldr	r2, [r5]
 410 0202 22F48012 		bic	r2, r2, #1048576
 411 0206 1343     		orrs	r3, r3, r2
 412 0208 2B60     		str	r3, [r5]
 413 020a 9FE7     		b	.L20
 414              	.L40:
ARM GAS  /var/folders/qx/2_175_4n2s19vhvtspjhb3qh0000gn/T//cc35DONQ.s 			page 15


 415              		.align	2
 416              	.L39:
 417 020c 00000000 		.word	.LC0
 418 0210 8000E0FF 		.word	-2097024
 419              		.cfi_endproc
 420              	.LFE239:
 422              		.section	.text.FMC_NORSRAM_DeInit,"ax",%progbits
 423              		.align	1
 424              		.global	FMC_NORSRAM_DeInit
 425              		.syntax unified
 426              		.thumb
 427              		.thumb_func
 429              	FMC_NORSRAM_DeInit:
 430              	.LVL29:
 431              	.LFB240:
 353:Drivers/STM32F4xx_HAL_Driver/Src/stm32f4xx_ll_fmc.c **** 
 354:Drivers/STM32F4xx_HAL_Driver/Src/stm32f4xx_ll_fmc.c **** /**
 355:Drivers/STM32F4xx_HAL_Driver/Src/stm32f4xx_ll_fmc.c ****   * @brief  DeInitialize the FMC_NORSRAM peripheral
 356:Drivers/STM32F4xx_HAL_Driver/Src/stm32f4xx_ll_fmc.c ****   * @param  Device Pointer to NORSRAM device instance
 357:Drivers/STM32F4xx_HAL_Driver/Src/stm32f4xx_ll_fmc.c ****   * @param  ExDevice Pointer to NORSRAM extended mode device instance
 358:Drivers/STM32F4xx_HAL_Driver/Src/stm32f4xx_ll_fmc.c ****   * @param  Bank NORSRAM bank number
 359:Drivers/STM32F4xx_HAL_Driver/Src/stm32f4xx_ll_fmc.c ****   * @retval HAL status
 360:Drivers/STM32F4xx_HAL_Driver/Src/stm32f4xx_ll_fmc.c ****   */
 361:Drivers/STM32F4xx_HAL_Driver/Src/stm32f4xx_ll_fmc.c **** HAL_StatusTypeDef FMC_NORSRAM_DeInit(FMC_NORSRAM_TypeDef *Device,
 362:Drivers/STM32F4xx_HAL_Driver/Src/stm32f4xx_ll_fmc.c ****                                      FMC_NORSRAM_EXTENDED_TypeDef *ExDevice, uint32_t Bank)
 363:Drivers/STM32F4xx_HAL_Driver/Src/stm32f4xx_ll_fmc.c **** {
 432              		.loc 1 363 1 view -0
 433              		.cfi_startproc
 434              		@ args = 0, pretend = 0, frame = 0
 435              		@ frame_needed = 0, uses_anonymous_args = 0
 436              		.loc 1 363 1 is_stmt 0 view .LVU110
 437 0000 70B5     		push	{r4, r5, r6, lr}
 438              	.LCFI1:
 439              		.cfi_def_cfa_offset 16
 440              		.cfi_offset 4, -16
 441              		.cfi_offset 5, -12
 442              		.cfi_offset 6, -8
 443              		.cfi_offset 14, -4
 444 0002 0546     		mov	r5, r0
 445 0004 0E46     		mov	r6, r1
 446 0006 1446     		mov	r4, r2
 364:Drivers/STM32F4xx_HAL_Driver/Src/stm32f4xx_ll_fmc.c ****   /* Check the parameters */
 365:Drivers/STM32F4xx_HAL_Driver/Src/stm32f4xx_ll_fmc.c ****   assert_param(IS_FMC_NORSRAM_DEVICE(Device));
 447              		.loc 1 365 3 is_stmt 1 view .LVU111
 448 0008 B0F1204F 		cmp	r0, #-1610612736
 449 000c 04D0     		beq	.L42
 450              		.loc 1 365 3 is_stmt 0 discriminator 1 view .LVU112
 451 000e 40F26D11 		movw	r1, #365
 452              	.LVL30:
 453              		.loc 1 365 3 discriminator 1 view .LVU113
 454 0012 1848     		ldr	r0, .L49
 455              	.LVL31:
 456              		.loc 1 365 3 discriminator 1 view .LVU114
 457 0014 FFF7FEFF 		bl	assert_failed
 458              	.LVL32:
 459              	.L42:
 366:Drivers/STM32F4xx_HAL_Driver/Src/stm32f4xx_ll_fmc.c ****   assert_param(IS_FMC_NORSRAM_EXTENDED_DEVICE(ExDevice));
ARM GAS  /var/folders/qx/2_175_4n2s19vhvtspjhb3qh0000gn/T//cc35DONQ.s 			page 16


 460              		.loc 1 366 3 is_stmt 1 view .LVU115
 461 0018 174B     		ldr	r3, .L49+4
 462 001a 9E42     		cmp	r6, r3
 463 001c 04D0     		beq	.L43
 464              		.loc 1 366 3 is_stmt 0 discriminator 1 view .LVU116
 465 001e 4FF4B771 		mov	r1, #366
 466 0022 1448     		ldr	r0, .L49
 467 0024 FFF7FEFF 		bl	assert_failed
 468              	.LVL33:
 469              	.L43:
 367:Drivers/STM32F4xx_HAL_Driver/Src/stm32f4xx_ll_fmc.c ****   assert_param(IS_FMC_NORSRAM_BANK(Bank));
 470              		.loc 1 367 3 is_stmt 1 view .LVU117
 471 0028 062C     		cmp	r4, #6
 472 002a 18D8     		bhi	.L44
 473 002c 5523     		movs	r3, #85
 474 002e E340     		lsrs	r3, r3, r4
 475 0030 13F0010F 		tst	r3, #1
 476 0034 13D0     		beq	.L44
 477              	.L45:
 368:Drivers/STM32F4xx_HAL_Driver/Src/stm32f4xx_ll_fmc.c **** 
 369:Drivers/STM32F4xx_HAL_Driver/Src/stm32f4xx_ll_fmc.c ****   /* Disable the FMC_NORSRAM device */
 370:Drivers/STM32F4xx_HAL_Driver/Src/stm32f4xx_ll_fmc.c ****   __FMC_NORSRAM_DISABLE(Device, Bank);
 478              		.loc 1 370 3 view .LVU118
 479 0036 55F82430 		ldr	r3, [r5, r4, lsl #2]
 480 003a 23F00103 		bic	r3, r3, #1
 481 003e 45F82430 		str	r3, [r5, r4, lsl #2]
 371:Drivers/STM32F4xx_HAL_Driver/Src/stm32f4xx_ll_fmc.c **** 
 372:Drivers/STM32F4xx_HAL_Driver/Src/stm32f4xx_ll_fmc.c ****   /* De-initialize the FMC_NORSRAM device */
 373:Drivers/STM32F4xx_HAL_Driver/Src/stm32f4xx_ll_fmc.c ****   /* FMC_NORSRAM_BANK1 */
 374:Drivers/STM32F4xx_HAL_Driver/Src/stm32f4xx_ll_fmc.c ****   if (Bank == FMC_NORSRAM_BANK1)
 482              		.loc 1 374 3 view .LVU119
 483              		.loc 1 374 6 is_stmt 0 view .LVU120
 484 0042 94B9     		cbnz	r4, .L46
 375:Drivers/STM32F4xx_HAL_Driver/Src/stm32f4xx_ll_fmc.c ****   {
 376:Drivers/STM32F4xx_HAL_Driver/Src/stm32f4xx_ll_fmc.c ****     Device->BTCR[Bank] = 0x000030DBU;
 485              		.loc 1 376 5 is_stmt 1 view .LVU121
 486              		.loc 1 376 24 is_stmt 0 view .LVU122
 487 0044 43F2DB03 		movw	r3, #12507
 488 0048 45F82430 		str	r3, [r5, r4, lsl #2]
 489              	.L47:
 377:Drivers/STM32F4xx_HAL_Driver/Src/stm32f4xx_ll_fmc.c ****   }
 378:Drivers/STM32F4xx_HAL_Driver/Src/stm32f4xx_ll_fmc.c ****   /* FMC_NORSRAM_BANK2, FMC_NORSRAM_BANK3 or FMC_NORSRAM_BANK4 */
 379:Drivers/STM32F4xx_HAL_Driver/Src/stm32f4xx_ll_fmc.c ****   else
 380:Drivers/STM32F4xx_HAL_Driver/Src/stm32f4xx_ll_fmc.c ****   {
 381:Drivers/STM32F4xx_HAL_Driver/Src/stm32f4xx_ll_fmc.c ****     Device->BTCR[Bank] = 0x000030D2U;
 382:Drivers/STM32F4xx_HAL_Driver/Src/stm32f4xx_ll_fmc.c ****   }
 383:Drivers/STM32F4xx_HAL_Driver/Src/stm32f4xx_ll_fmc.c **** 
 384:Drivers/STM32F4xx_HAL_Driver/Src/stm32f4xx_ll_fmc.c ****   Device->BTCR[Bank + 1U] = 0x0FFFFFFFU;
 490              		.loc 1 384 3 is_stmt 1 view .LVU123
 491              		.loc 1 384 21 is_stmt 0 view .LVU124
 492 004c 621C     		adds	r2, r4, #1
 493              		.loc 1 384 27 view .LVU125
 494 004e 6FF07043 		mvn	r3, #-268435456
 495 0052 45F82230 		str	r3, [r5, r2, lsl #2]
 385:Drivers/STM32F4xx_HAL_Driver/Src/stm32f4xx_ll_fmc.c ****   ExDevice->BWTR[Bank]   = 0x0FFFFFFFU;
 496              		.loc 1 385 3 is_stmt 1 view .LVU126
 497              		.loc 1 385 26 is_stmt 0 view .LVU127
ARM GAS  /var/folders/qx/2_175_4n2s19vhvtspjhb3qh0000gn/T//cc35DONQ.s 			page 17


 498 0056 46F82430 		str	r3, [r6, r4, lsl #2]
 386:Drivers/STM32F4xx_HAL_Driver/Src/stm32f4xx_ll_fmc.c **** 
 387:Drivers/STM32F4xx_HAL_Driver/Src/stm32f4xx_ll_fmc.c ****   return HAL_OK;
 499              		.loc 1 387 3 is_stmt 1 view .LVU128
 388:Drivers/STM32F4xx_HAL_Driver/Src/stm32f4xx_ll_fmc.c **** }
 500              		.loc 1 388 1 is_stmt 0 view .LVU129
 501 005a 0020     		movs	r0, #0
 502 005c 70BD     		pop	{r4, r5, r6, pc}
 503              	.LVL34:
 504              	.L44:
 367:Drivers/STM32F4xx_HAL_Driver/Src/stm32f4xx_ll_fmc.c **** 
 505              		.loc 1 367 3 discriminator 4 view .LVU130
 506 005e 40F26F11 		movw	r1, #367
 507 0062 0448     		ldr	r0, .L49
 508 0064 FFF7FEFF 		bl	assert_failed
 509              	.LVL35:
 510 0068 E5E7     		b	.L45
 511              	.L46:
 381:Drivers/STM32F4xx_HAL_Driver/Src/stm32f4xx_ll_fmc.c ****   }
 512              		.loc 1 381 5 is_stmt 1 view .LVU131
 381:Drivers/STM32F4xx_HAL_Driver/Src/stm32f4xx_ll_fmc.c ****   }
 513              		.loc 1 381 24 is_stmt 0 view .LVU132
 514 006a 43F2D203 		movw	r3, #12498
 515 006e 45F82430 		str	r3, [r5, r4, lsl #2]
 516 0072 EBE7     		b	.L47
 517              	.L50:
 518              		.align	2
 519              	.L49:
 520 0074 00000000 		.word	.LC0
 521 0078 040100A0 		.word	-1610612476
 522              		.cfi_endproc
 523              	.LFE240:
 525              		.section	.text.FMC_NORSRAM_Timing_Init,"ax",%progbits
 526              		.align	1
 527              		.global	FMC_NORSRAM_Timing_Init
 528              		.syntax unified
 529              		.thumb
 530              		.thumb_func
 532              	FMC_NORSRAM_Timing_Init:
 533              	.LVL36:
 534              	.LFB241:
 389:Drivers/STM32F4xx_HAL_Driver/Src/stm32f4xx_ll_fmc.c **** 
 390:Drivers/STM32F4xx_HAL_Driver/Src/stm32f4xx_ll_fmc.c **** /**
 391:Drivers/STM32F4xx_HAL_Driver/Src/stm32f4xx_ll_fmc.c ****   * @brief  Initialize the FMC_NORSRAM Timing according to the specified
 392:Drivers/STM32F4xx_HAL_Driver/Src/stm32f4xx_ll_fmc.c ****   *         parameters in the FMC_NORSRAM_TimingTypeDef
 393:Drivers/STM32F4xx_HAL_Driver/Src/stm32f4xx_ll_fmc.c ****   * @param  Device Pointer to NORSRAM device instance
 394:Drivers/STM32F4xx_HAL_Driver/Src/stm32f4xx_ll_fmc.c ****   * @param  Timing Pointer to NORSRAM Timing structure
 395:Drivers/STM32F4xx_HAL_Driver/Src/stm32f4xx_ll_fmc.c ****   * @param  Bank NORSRAM bank number
 396:Drivers/STM32F4xx_HAL_Driver/Src/stm32f4xx_ll_fmc.c ****   * @retval HAL status
 397:Drivers/STM32F4xx_HAL_Driver/Src/stm32f4xx_ll_fmc.c ****   */
 398:Drivers/STM32F4xx_HAL_Driver/Src/stm32f4xx_ll_fmc.c **** HAL_StatusTypeDef FMC_NORSRAM_Timing_Init(FMC_NORSRAM_TypeDef *Device,
 399:Drivers/STM32F4xx_HAL_Driver/Src/stm32f4xx_ll_fmc.c ****                                           const FMC_NORSRAM_TimingTypeDef *Timing, uint32_t Bank)
 400:Drivers/STM32F4xx_HAL_Driver/Src/stm32f4xx_ll_fmc.c **** {
 535              		.loc 1 400 1 is_stmt 1 view -0
 536              		.cfi_startproc
 537              		@ args = 0, pretend = 0, frame = 0
 538              		@ frame_needed = 0, uses_anonymous_args = 0
ARM GAS  /var/folders/qx/2_175_4n2s19vhvtspjhb3qh0000gn/T//cc35DONQ.s 			page 18


 539              		.loc 1 400 1 is_stmt 0 view .LVU134
 540 0000 70B5     		push	{r4, r5, r6, lr}
 541              	.LCFI2:
 542              		.cfi_def_cfa_offset 16
 543              		.cfi_offset 4, -16
 544              		.cfi_offset 5, -12
 545              		.cfi_offset 6, -8
 546              		.cfi_offset 14, -4
 547 0002 0546     		mov	r5, r0
 548 0004 0C46     		mov	r4, r1
 549 0006 1646     		mov	r6, r2
 401:Drivers/STM32F4xx_HAL_Driver/Src/stm32f4xx_ll_fmc.c **** #if defined(FMC_BCR1_CCLKEN)
 402:Drivers/STM32F4xx_HAL_Driver/Src/stm32f4xx_ll_fmc.c ****   uint32_t tmpr;
 550              		.loc 1 402 3 is_stmt 1 view .LVU135
 403:Drivers/STM32F4xx_HAL_Driver/Src/stm32f4xx_ll_fmc.c **** #endif /* FMC_BCR1_CCLKEN */
 404:Drivers/STM32F4xx_HAL_Driver/Src/stm32f4xx_ll_fmc.c **** 
 405:Drivers/STM32F4xx_HAL_Driver/Src/stm32f4xx_ll_fmc.c ****   /* Check the parameters */
 406:Drivers/STM32F4xx_HAL_Driver/Src/stm32f4xx_ll_fmc.c ****   assert_param(IS_FMC_NORSRAM_DEVICE(Device));
 551              		.loc 1 406 3 view .LVU136
 552 0008 B0F1204F 		cmp	r0, #-1610612736
 553 000c 04D0     		beq	.L52
 554              		.loc 1 406 3 is_stmt 0 discriminator 1 view .LVU137
 555 000e 4FF4CB71 		mov	r1, #406
 556              	.LVL37:
 557              		.loc 1 406 3 discriminator 1 view .LVU138
 558 0012 4248     		ldr	r0, .L71
 559              	.LVL38:
 560              		.loc 1 406 3 discriminator 1 view .LVU139
 561 0014 FFF7FEFF 		bl	assert_failed
 562              	.LVL39:
 563              	.L52:
 407:Drivers/STM32F4xx_HAL_Driver/Src/stm32f4xx_ll_fmc.c ****   assert_param(IS_FMC_ADDRESS_SETUP_TIME(Timing->AddressSetupTime));
 564              		.loc 1 407 3 is_stmt 1 view .LVU140
 565 0018 2368     		ldr	r3, [r4]
 566 001a 0F2B     		cmp	r3, #15
 567 001c 4DD8     		bhi	.L64
 568              	.L53:
 408:Drivers/STM32F4xx_HAL_Driver/Src/stm32f4xx_ll_fmc.c ****   assert_param(IS_FMC_ADDRESS_HOLD_TIME(Timing->AddressHoldTime));
 569              		.loc 1 408 3 view .LVU141
 570 001e 6368     		ldr	r3, [r4, #4]
 571 0020 013B     		subs	r3, r3, #1
 572 0022 0E2B     		cmp	r3, #14
 573 0024 4FD8     		bhi	.L65
 574              	.L54:
 409:Drivers/STM32F4xx_HAL_Driver/Src/stm32f4xx_ll_fmc.c ****   assert_param(IS_FMC_DATASETUP_TIME(Timing->DataSetupTime));
 575              		.loc 1 409 3 view .LVU142
 576 0026 A368     		ldr	r3, [r4, #8]
 577 0028 013B     		subs	r3, r3, #1
 578 002a FE2B     		cmp	r3, #254
 579 002c 51D8     		bhi	.L66
 580              	.L55:
 410:Drivers/STM32F4xx_HAL_Driver/Src/stm32f4xx_ll_fmc.c ****   assert_param(IS_FMC_TURNAROUND_TIME(Timing->BusTurnAroundDuration));
 581              		.loc 1 410 3 view .LVU143
 582 002e E368     		ldr	r3, [r4, #12]
 583 0030 0F2B     		cmp	r3, #15
 584 0032 54D8     		bhi	.L67
 585              	.L56:
ARM GAS  /var/folders/qx/2_175_4n2s19vhvtspjhb3qh0000gn/T//cc35DONQ.s 			page 19


 411:Drivers/STM32F4xx_HAL_Driver/Src/stm32f4xx_ll_fmc.c ****   assert_param(IS_FMC_CLK_DIV(Timing->CLKDivision));
 586              		.loc 1 411 3 view .LVU144
 587 0034 2369     		ldr	r3, [r4, #16]
 588 0036 023B     		subs	r3, r3, #2
 589 0038 0E2B     		cmp	r3, #14
 590 003a 56D8     		bhi	.L68
 591              	.L57:
 412:Drivers/STM32F4xx_HAL_Driver/Src/stm32f4xx_ll_fmc.c ****   assert_param(IS_FMC_DATA_LATENCY(Timing->DataLatency));
 592              		.loc 1 412 3 view .LVU145
 593 003c 6369     		ldr	r3, [r4, #20]
 594 003e 023B     		subs	r3, r3, #2
 595 0040 0F2B     		cmp	r3, #15
 596 0042 58D8     		bhi	.L69
 597              	.L58:
 413:Drivers/STM32F4xx_HAL_Driver/Src/stm32f4xx_ll_fmc.c ****   assert_param(IS_FMC_ACCESS_MODE(Timing->AccessMode));
 598              		.loc 1 413 3 view .LVU146
 599 0044 A369     		ldr	r3, [r4, #24]
 600 0046 43B1     		cbz	r3, .L59
 601              		.loc 1 413 3 is_stmt 0 discriminator 1 view .LVU147
 602 0048 B3F1805F 		cmp	r3, #268435456
 603 004c 05D0     		beq	.L59
 604              		.loc 1 413 3 discriminator 2 view .LVU148
 605 004e B3F1005F 		cmp	r3, #536870912
 606 0052 02D0     		beq	.L59
 607              		.loc 1 413 3 discriminator 3 view .LVU149
 608 0054 B3F1405F 		cmp	r3, #805306368
 609 0058 53D1     		bne	.L70
 610              	.L59:
 414:Drivers/STM32F4xx_HAL_Driver/Src/stm32f4xx_ll_fmc.c ****   assert_param(IS_FMC_NORSRAM_BANK(Bank));
 611              		.loc 1 414 3 is_stmt 1 view .LVU150
 612 005a 062E     		cmp	r6, #6
 613 005c 57D8     		bhi	.L60
 614 005e 5523     		movs	r3, #85
 615 0060 F340     		lsrs	r3, r3, r6
 616 0062 13F0010F 		tst	r3, #1
 617 0066 52D0     		beq	.L60
 618              	.L61:
 415:Drivers/STM32F4xx_HAL_Driver/Src/stm32f4xx_ll_fmc.c **** 
 416:Drivers/STM32F4xx_HAL_Driver/Src/stm32f4xx_ll_fmc.c ****   /* Set FMC_NORSRAM device timing parameters */
 417:Drivers/STM32F4xx_HAL_Driver/Src/stm32f4xx_ll_fmc.c ****   Device->BTCR[Bank + 1U] =
 619              		.loc 1 417 3 view .LVU151
 418:Drivers/STM32F4xx_HAL_Driver/Src/stm32f4xx_ll_fmc.c ****     (Timing->AddressSetupTime << FMC_BTR1_ADDSET_Pos) |
 620              		.loc 1 418 12 is_stmt 0 view .LVU152
 621 0068 2368     		ldr	r3, [r4]
 419:Drivers/STM32F4xx_HAL_Driver/Src/stm32f4xx_ll_fmc.c ****     (Timing->AddressHoldTime << FMC_BTR1_ADDHLD_Pos) |
 622              		.loc 1 419 12 view .LVU153
 623 006a 6268     		ldr	r2, [r4, #4]
 418:Drivers/STM32F4xx_HAL_Driver/Src/stm32f4xx_ll_fmc.c ****     (Timing->AddressSetupTime << FMC_BTR1_ADDSET_Pos) |
 624              		.loc 1 418 55 view .LVU154
 625 006c 43EA0213 		orr	r3, r3, r2, lsl #4
 420:Drivers/STM32F4xx_HAL_Driver/Src/stm32f4xx_ll_fmc.c ****     (Timing->DataSetupTime << FMC_BTR1_DATAST_Pos) |
 626              		.loc 1 420 12 view .LVU155
 627 0070 A268     		ldr	r2, [r4, #8]
 419:Drivers/STM32F4xx_HAL_Driver/Src/stm32f4xx_ll_fmc.c ****     (Timing->AddressHoldTime << FMC_BTR1_ADDHLD_Pos) |
 628              		.loc 1 419 54 view .LVU156
 629 0072 43EA0223 		orr	r3, r3, r2, lsl #8
 421:Drivers/STM32F4xx_HAL_Driver/Src/stm32f4xx_ll_fmc.c ****     (Timing->BusTurnAroundDuration << FMC_BTR1_BUSTURN_Pos) |
ARM GAS  /var/folders/qx/2_175_4n2s19vhvtspjhb3qh0000gn/T//cc35DONQ.s 			page 20


 630              		.loc 1 421 12 view .LVU157
 631 0076 E268     		ldr	r2, [r4, #12]
 420:Drivers/STM32F4xx_HAL_Driver/Src/stm32f4xx_ll_fmc.c ****     (Timing->DataSetupTime << FMC_BTR1_DATAST_Pos) |
 632              		.loc 1 420 52 view .LVU158
 633 0078 43EA0243 		orr	r3, r3, r2, lsl #16
 422:Drivers/STM32F4xx_HAL_Driver/Src/stm32f4xx_ll_fmc.c ****     ((Timing->CLKDivision - 1U) << FMC_BTR1_CLKDIV_Pos) |
 634              		.loc 1 422 13 view .LVU159
 635 007c 2269     		ldr	r2, [r4, #16]
 636              		.loc 1 422 27 view .LVU160
 637 007e 013A     		subs	r2, r2, #1
 421:Drivers/STM32F4xx_HAL_Driver/Src/stm32f4xx_ll_fmc.c ****     (Timing->BusTurnAroundDuration << FMC_BTR1_BUSTURN_Pos) |
 638              		.loc 1 421 61 view .LVU161
 639 0080 43EA0253 		orr	r3, r3, r2, lsl #20
 423:Drivers/STM32F4xx_HAL_Driver/Src/stm32f4xx_ll_fmc.c ****     ((Timing->DataLatency - 2U) << FMC_BTR1_DATLAT_Pos) |
 640              		.loc 1 423 13 view .LVU162
 641 0084 6269     		ldr	r2, [r4, #20]
 642              		.loc 1 423 27 view .LVU163
 643 0086 023A     		subs	r2, r2, #2
 422:Drivers/STM32F4xx_HAL_Driver/Src/stm32f4xx_ll_fmc.c ****     ((Timing->CLKDivision - 1U) << FMC_BTR1_CLKDIV_Pos) |
 644              		.loc 1 422 57 view .LVU164
 645 0088 43EA0263 		orr	r3, r3, r2, lsl #24
 424:Drivers/STM32F4xx_HAL_Driver/Src/stm32f4xx_ll_fmc.c ****     Timing->AccessMode;
 646              		.loc 1 424 11 view .LVU165
 647 008c A269     		ldr	r2, [r4, #24]
 417:Drivers/STM32F4xx_HAL_Driver/Src/stm32f4xx_ll_fmc.c ****     (Timing->AddressSetupTime << FMC_BTR1_ADDSET_Pos) |
 648              		.loc 1 417 21 view .LVU166
 649 008e 0136     		adds	r6, r6, #1
 650              	.LVL40:
 423:Drivers/STM32F4xx_HAL_Driver/Src/stm32f4xx_ll_fmc.c ****     ((Timing->DataLatency - 2U) << FMC_BTR1_DATLAT_Pos) |
 651              		.loc 1 423 57 view .LVU167
 652 0090 1343     		orrs	r3, r3, r2
 417:Drivers/STM32F4xx_HAL_Driver/Src/stm32f4xx_ll_fmc.c ****     (Timing->AddressSetupTime << FMC_BTR1_ADDSET_Pos) |
 653              		.loc 1 417 27 view .LVU168
 654 0092 45F82630 		str	r3, [r5, r6, lsl #2]
 425:Drivers/STM32F4xx_HAL_Driver/Src/stm32f4xx_ll_fmc.c **** 
 426:Drivers/STM32F4xx_HAL_Driver/Src/stm32f4xx_ll_fmc.c **** #if defined(FMC_BCR1_CCLKEN)
 427:Drivers/STM32F4xx_HAL_Driver/Src/stm32f4xx_ll_fmc.c ****   /* Configure Clock division value (in NORSRAM bank 1) when continuous clock is enabled */
 428:Drivers/STM32F4xx_HAL_Driver/Src/stm32f4xx_ll_fmc.c ****   if (HAL_IS_BIT_SET(Device->BTCR[FMC_NORSRAM_BANK1], FMC_BCR1_CCLKEN))
 655              		.loc 1 428 3 is_stmt 1 view .LVU169
 656              		.loc 1 428 7 is_stmt 0 view .LVU170
 657 0096 2B68     		ldr	r3, [r5]
 658              		.loc 1 428 6 view .LVU171
 659 0098 13F4801F 		tst	r3, #1048576
 660 009c 0BD0     		beq	.L62
 429:Drivers/STM32F4xx_HAL_Driver/Src/stm32f4xx_ll_fmc.c ****   {
 430:Drivers/STM32F4xx_HAL_Driver/Src/stm32f4xx_ll_fmc.c ****     tmpr = (uint32_t)(Device->BTCR[FMC_NORSRAM_BANK1 + 1U] & ~((0x0FU) << FMC_BTR1_CLKDIV_Pos));
 661              		.loc 1 430 5 is_stmt 1 view .LVU172
 662              		.loc 1 430 35 is_stmt 0 view .LVU173
 663 009e 6A68     		ldr	r2, [r5, #4]
 664              		.loc 1 430 10 view .LVU174
 665 00a0 22F47002 		bic	r2, r2, #15728640
 666              	.LVL41:
 431:Drivers/STM32F4xx_HAL_Driver/Src/stm32f4xx_ll_fmc.c ****     tmpr |= (uint32_t)(((Timing->CLKDivision) - 1U) << FMC_BTR1_CLKDIV_Pos);
 667              		.loc 1 431 5 is_stmt 1 view .LVU175
 668              		.loc 1 431 32 is_stmt 0 view .LVU176
 669 00a4 2369     		ldr	r3, [r4, #16]
 670              		.loc 1 431 47 view .LVU177
ARM GAS  /var/folders/qx/2_175_4n2s19vhvtspjhb3qh0000gn/T//cc35DONQ.s 			page 21


 671 00a6 013B     		subs	r3, r3, #1
 672              		.loc 1 431 10 view .LVU178
 673 00a8 42EA0352 		orr	r2, r2, r3, lsl #20
 674              	.LVL42:
 432:Drivers/STM32F4xx_HAL_Driver/Src/stm32f4xx_ll_fmc.c ****     MODIFY_REG(Device->BTCR[FMC_NORSRAM_BANK1 + 1U], FMC_BTR1_CLKDIV, tmpr);
 675              		.loc 1 432 5 is_stmt 1 view .LVU179
 676 00ac 6B68     		ldr	r3, [r5, #4]
 677 00ae 23F47003 		bic	r3, r3, #15728640
 678 00b2 1343     		orrs	r3, r3, r2
 679 00b4 6B60     		str	r3, [r5, #4]
 680              	.LVL43:
 681              	.L62:
 433:Drivers/STM32F4xx_HAL_Driver/Src/stm32f4xx_ll_fmc.c ****   }
 434:Drivers/STM32F4xx_HAL_Driver/Src/stm32f4xx_ll_fmc.c **** 
 435:Drivers/STM32F4xx_HAL_Driver/Src/stm32f4xx_ll_fmc.c **** #endif /* FMC_BCR1_CCLKEN */
 436:Drivers/STM32F4xx_HAL_Driver/Src/stm32f4xx_ll_fmc.c ****   return HAL_OK;
 682              		.loc 1 436 3 view .LVU180
 437:Drivers/STM32F4xx_HAL_Driver/Src/stm32f4xx_ll_fmc.c **** }
 683              		.loc 1 437 1 is_stmt 0 view .LVU181
 684 00b6 0020     		movs	r0, #0
 685 00b8 70BD     		pop	{r4, r5, r6, pc}
 686              	.LVL44:
 687              	.L64:
 407:Drivers/STM32F4xx_HAL_Driver/Src/stm32f4xx_ll_fmc.c ****   assert_param(IS_FMC_ADDRESS_HOLD_TIME(Timing->AddressHoldTime));
 688              		.loc 1 407 3 discriminator 1 view .LVU182
 689 00ba 40F29711 		movw	r1, #407
 690 00be 1748     		ldr	r0, .L71
 691 00c0 FFF7FEFF 		bl	assert_failed
 692              	.LVL45:
 693 00c4 ABE7     		b	.L53
 694              	.L65:
 408:Drivers/STM32F4xx_HAL_Driver/Src/stm32f4xx_ll_fmc.c ****   assert_param(IS_FMC_DATASETUP_TIME(Timing->DataSetupTime));
 695              		.loc 1 408 3 discriminator 1 view .LVU183
 696 00c6 4FF4CC71 		mov	r1, #408
 697 00ca 1448     		ldr	r0, .L71
 698 00cc FFF7FEFF 		bl	assert_failed
 699              	.LVL46:
 700 00d0 A9E7     		b	.L54
 701              	.L66:
 409:Drivers/STM32F4xx_HAL_Driver/Src/stm32f4xx_ll_fmc.c ****   assert_param(IS_FMC_TURNAROUND_TIME(Timing->BusTurnAroundDuration));
 702              		.loc 1 409 3 discriminator 1 view .LVU184
 703 00d2 40F29911 		movw	r1, #409
 704 00d6 1148     		ldr	r0, .L71
 705 00d8 FFF7FEFF 		bl	assert_failed
 706              	.LVL47:
 707 00dc A7E7     		b	.L55
 708              	.L67:
 410:Drivers/STM32F4xx_HAL_Driver/Src/stm32f4xx_ll_fmc.c ****   assert_param(IS_FMC_CLK_DIV(Timing->CLKDivision));
 709              		.loc 1 410 3 discriminator 1 view .LVU185
 710 00de 4FF4CD71 		mov	r1, #410
 711 00e2 0E48     		ldr	r0, .L71
 712 00e4 FFF7FEFF 		bl	assert_failed
 713              	.LVL48:
 714 00e8 A4E7     		b	.L56
 715              	.L68:
 411:Drivers/STM32F4xx_HAL_Driver/Src/stm32f4xx_ll_fmc.c ****   assert_param(IS_FMC_DATA_LATENCY(Timing->DataLatency));
 716              		.loc 1 411 3 discriminator 1 view .LVU186
ARM GAS  /var/folders/qx/2_175_4n2s19vhvtspjhb3qh0000gn/T//cc35DONQ.s 			page 22


 717 00ea 40F29B11 		movw	r1, #411
 718 00ee 0B48     		ldr	r0, .L71
 719 00f0 FFF7FEFF 		bl	assert_failed
 720              	.LVL49:
 721 00f4 A2E7     		b	.L57
 722              	.L69:
 412:Drivers/STM32F4xx_HAL_Driver/Src/stm32f4xx_ll_fmc.c ****   assert_param(IS_FMC_ACCESS_MODE(Timing->AccessMode));
 723              		.loc 1 412 3 discriminator 1 view .LVU187
 724 00f6 4FF4CE71 		mov	r1, #412
 725 00fa 0848     		ldr	r0, .L71
 726 00fc FFF7FEFF 		bl	assert_failed
 727              	.LVL50:
 728 0100 A0E7     		b	.L58
 729              	.L70:
 413:Drivers/STM32F4xx_HAL_Driver/Src/stm32f4xx_ll_fmc.c ****   assert_param(IS_FMC_NORSRAM_BANK(Bank));
 730              		.loc 1 413 3 discriminator 4 view .LVU188
 731 0102 40F29D11 		movw	r1, #413
 732 0106 0548     		ldr	r0, .L71
 733 0108 FFF7FEFF 		bl	assert_failed
 734              	.LVL51:
 735 010c A5E7     		b	.L59
 736              	.L60:
 414:Drivers/STM32F4xx_HAL_Driver/Src/stm32f4xx_ll_fmc.c **** 
 737              		.loc 1 414 3 discriminator 4 view .LVU189
 738 010e 4FF4CF71 		mov	r1, #414
 739 0112 0248     		ldr	r0, .L71
 740 0114 FFF7FEFF 		bl	assert_failed
 741              	.LVL52:
 742 0118 A6E7     		b	.L61
 743              	.L72:
 744 011a 00BF     		.align	2
 745              	.L71:
 746 011c 00000000 		.word	.LC0
 747              		.cfi_endproc
 748              	.LFE241:
 750              		.section	.text.FMC_NORSRAM_Extended_Timing_Init,"ax",%progbits
 751              		.align	1
 752              		.global	FMC_NORSRAM_Extended_Timing_Init
 753              		.syntax unified
 754              		.thumb
 755              		.thumb_func
 757              	FMC_NORSRAM_Extended_Timing_Init:
 758              	.LVL53:
 759              	.LFB242:
 438:Drivers/STM32F4xx_HAL_Driver/Src/stm32f4xx_ll_fmc.c **** 
 439:Drivers/STM32F4xx_HAL_Driver/Src/stm32f4xx_ll_fmc.c **** /**
 440:Drivers/STM32F4xx_HAL_Driver/Src/stm32f4xx_ll_fmc.c ****   * @brief  Initialize the FMC_NORSRAM Extended mode Timing according to the specified
 441:Drivers/STM32F4xx_HAL_Driver/Src/stm32f4xx_ll_fmc.c ****   *         parameters in the FMC_NORSRAM_TimingTypeDef
 442:Drivers/STM32F4xx_HAL_Driver/Src/stm32f4xx_ll_fmc.c ****   * @param  Device Pointer to NORSRAM device instance
 443:Drivers/STM32F4xx_HAL_Driver/Src/stm32f4xx_ll_fmc.c ****   * @param  Timing Pointer to NORSRAM Timing structure
 444:Drivers/STM32F4xx_HAL_Driver/Src/stm32f4xx_ll_fmc.c ****   * @param  Bank NORSRAM bank number
 445:Drivers/STM32F4xx_HAL_Driver/Src/stm32f4xx_ll_fmc.c ****   * @param  ExtendedMode FMC Extended Mode
 446:Drivers/STM32F4xx_HAL_Driver/Src/stm32f4xx_ll_fmc.c ****   *          This parameter can be one of the following values:
 447:Drivers/STM32F4xx_HAL_Driver/Src/stm32f4xx_ll_fmc.c ****   *            @arg FMC_EXTENDED_MODE_DISABLE
 448:Drivers/STM32F4xx_HAL_Driver/Src/stm32f4xx_ll_fmc.c ****   *            @arg FMC_EXTENDED_MODE_ENABLE
 449:Drivers/STM32F4xx_HAL_Driver/Src/stm32f4xx_ll_fmc.c ****   * @retval HAL status
 450:Drivers/STM32F4xx_HAL_Driver/Src/stm32f4xx_ll_fmc.c ****   */
ARM GAS  /var/folders/qx/2_175_4n2s19vhvtspjhb3qh0000gn/T//cc35DONQ.s 			page 23


 451:Drivers/STM32F4xx_HAL_Driver/Src/stm32f4xx_ll_fmc.c **** HAL_StatusTypeDef FMC_NORSRAM_Extended_Timing_Init(FMC_NORSRAM_EXTENDED_TypeDef *Device,
 452:Drivers/STM32F4xx_HAL_Driver/Src/stm32f4xx_ll_fmc.c ****                                                    const FMC_NORSRAM_TimingTypeDef *Timing, uint32_
 453:Drivers/STM32F4xx_HAL_Driver/Src/stm32f4xx_ll_fmc.c ****                                                    uint32_t ExtendedMode)
 454:Drivers/STM32F4xx_HAL_Driver/Src/stm32f4xx_ll_fmc.c **** {
 760              		.loc 1 454 1 is_stmt 1 view -0
 761              		.cfi_startproc
 762              		@ args = 0, pretend = 0, frame = 0
 763              		@ frame_needed = 0, uses_anonymous_args = 0
 764              		.loc 1 454 1 is_stmt 0 view .LVU191
 765 0000 70B5     		push	{r4, r5, r6, lr}
 766              	.LCFI3:
 767              		.cfi_def_cfa_offset 16
 768              		.cfi_offset 4, -16
 769              		.cfi_offset 5, -12
 770              		.cfi_offset 6, -8
 771              		.cfi_offset 14, -4
 772 0002 0646     		mov	r6, r0
 773 0004 1546     		mov	r5, r2
 455:Drivers/STM32F4xx_HAL_Driver/Src/stm32f4xx_ll_fmc.c ****   /* Check the parameters */
 456:Drivers/STM32F4xx_HAL_Driver/Src/stm32f4xx_ll_fmc.c ****   assert_param(IS_FMC_EXTENDED_MODE(ExtendedMode));
 774              		.loc 1 456 3 is_stmt 1 view .LVU192
 775 0006 002B     		cmp	r3, #0
 776 0008 44D0     		beq	.L74
 777 000a 0C46     		mov	r4, r1
 778              		.loc 1 456 3 is_stmt 0 discriminator 1 view .LVU193
 779 000c B3F5804F 		cmp	r3, #16384
 780 0010 3BD1     		bne	.L75
 457:Drivers/STM32F4xx_HAL_Driver/Src/stm32f4xx_ll_fmc.c **** 
 458:Drivers/STM32F4xx_HAL_Driver/Src/stm32f4xx_ll_fmc.c ****   /* Set NORSRAM device timing register for write configuration, if extended mode is used */
 459:Drivers/STM32F4xx_HAL_Driver/Src/stm32f4xx_ll_fmc.c ****   if (ExtendedMode == FMC_EXTENDED_MODE_ENABLE)
 781              		.loc 1 459 3 is_stmt 1 view .LVU194
 460:Drivers/STM32F4xx_HAL_Driver/Src/stm32f4xx_ll_fmc.c ****   {
 461:Drivers/STM32F4xx_HAL_Driver/Src/stm32f4xx_ll_fmc.c ****     /* Check the parameters */
 462:Drivers/STM32F4xx_HAL_Driver/Src/stm32f4xx_ll_fmc.c ****     assert_param(IS_FMC_NORSRAM_EXTENDED_DEVICE(Device));
 782              		.loc 1 462 5 view .LVU195
 783 0012 354B     		ldr	r3, .L92
 784              	.LVL54:
 785              		.loc 1 462 5 is_stmt 0 view .LVU196
 786 0014 9842     		cmp	r0, r3
 787 0016 04D0     		beq	.L77
 788              		.loc 1 462 5 discriminator 1 view .LVU197
 789 0018 4FF4E771 		mov	r1, #462
 790              	.LVL55:
 791              		.loc 1 462 5 discriminator 1 view .LVU198
 792 001c 3348     		ldr	r0, .L92+4
 793              	.LVL56:
 794              		.loc 1 462 5 discriminator 1 view .LVU199
 795 001e FFF7FEFF 		bl	assert_failed
 796              	.LVL57:
 797              	.L77:
 463:Drivers/STM32F4xx_HAL_Driver/Src/stm32f4xx_ll_fmc.c ****     assert_param(IS_FMC_ADDRESS_SETUP_TIME(Timing->AddressSetupTime));
 798              		.loc 1 463 5 is_stmt 1 view .LVU200
 799 0022 2368     		ldr	r3, [r4]
 800 0024 0F2B     		cmp	r3, #15
 801 0026 3BD8     		bhi	.L87
 802              	.L78:
 464:Drivers/STM32F4xx_HAL_Driver/Src/stm32f4xx_ll_fmc.c ****     assert_param(IS_FMC_ADDRESS_HOLD_TIME(Timing->AddressHoldTime));
ARM GAS  /var/folders/qx/2_175_4n2s19vhvtspjhb3qh0000gn/T//cc35DONQ.s 			page 24


 803              		.loc 1 464 5 view .LVU201
 804 0028 6368     		ldr	r3, [r4, #4]
 805 002a 013B     		subs	r3, r3, #1
 806 002c 0E2B     		cmp	r3, #14
 807 002e 3DD8     		bhi	.L88
 808              	.L79:
 465:Drivers/STM32F4xx_HAL_Driver/Src/stm32f4xx_ll_fmc.c ****     assert_param(IS_FMC_DATASETUP_TIME(Timing->DataSetupTime));
 809              		.loc 1 465 5 view .LVU202
 810 0030 A368     		ldr	r3, [r4, #8]
 811 0032 013B     		subs	r3, r3, #1
 812 0034 FE2B     		cmp	r3, #254
 813 0036 3FD8     		bhi	.L89
 814              	.L80:
 466:Drivers/STM32F4xx_HAL_Driver/Src/stm32f4xx_ll_fmc.c ****     assert_param(IS_FMC_TURNAROUND_TIME(Timing->BusTurnAroundDuration));
 815              		.loc 1 466 5 view .LVU203
 816 0038 E368     		ldr	r3, [r4, #12]
 817 003a 0F2B     		cmp	r3, #15
 818 003c 42D8     		bhi	.L90
 819              	.L81:
 467:Drivers/STM32F4xx_HAL_Driver/Src/stm32f4xx_ll_fmc.c ****     assert_param(IS_FMC_ACCESS_MODE(Timing->AccessMode));
 820              		.loc 1 467 5 view .LVU204
 821 003e A369     		ldr	r3, [r4, #24]
 822 0040 43B1     		cbz	r3, .L82
 823              		.loc 1 467 5 is_stmt 0 discriminator 1 view .LVU205
 824 0042 B3F1805F 		cmp	r3, #268435456
 825 0046 05D0     		beq	.L82
 826              		.loc 1 467 5 discriminator 2 view .LVU206
 827 0048 B3F1005F 		cmp	r3, #536870912
 828 004c 02D0     		beq	.L82
 829              		.loc 1 467 5 discriminator 3 view .LVU207
 830 004e B3F1405F 		cmp	r3, #805306368
 831 0052 3DD1     		bne	.L91
 832              	.L82:
 468:Drivers/STM32F4xx_HAL_Driver/Src/stm32f4xx_ll_fmc.c ****     assert_param(IS_FMC_NORSRAM_BANK(Bank));
 833              		.loc 1 468 5 is_stmt 1 view .LVU208
 834 0054 062D     		cmp	r5, #6
 835 0056 41D8     		bhi	.L83
 836 0058 5523     		movs	r3, #85
 837 005a EB40     		lsrs	r3, r3, r5
 838 005c 13F0010F 		tst	r3, #1
 839 0060 3CD0     		beq	.L83
 840              	.L84:
 469:Drivers/STM32F4xx_HAL_Driver/Src/stm32f4xx_ll_fmc.c **** 
 470:Drivers/STM32F4xx_HAL_Driver/Src/stm32f4xx_ll_fmc.c ****     /* Set NORSRAM device timing register for write configuration, if extended mode is used */
 471:Drivers/STM32F4xx_HAL_Driver/Src/stm32f4xx_ll_fmc.c ****     MODIFY_REG(Device->BWTR[Bank], BWTR_CLEAR_MASK, (Timing->AddressSetupTime                      
 841              		.loc 1 471 5 view .LVU209
 842 0062 56F82530 		ldr	r3, [r6, r5, lsl #2]
 843 0066 224A     		ldr	r2, .L92+8
 844 0068 1A40     		ands	r2, r2, r3
 845 006a 2368     		ldr	r3, [r4]
 846 006c 6168     		ldr	r1, [r4, #4]
 847 006e 43EA0113 		orr	r3, r3, r1, lsl #4
 848 0072 A168     		ldr	r1, [r4, #8]
 849 0074 43EA0123 		orr	r3, r3, r1, lsl #8
 850 0078 A169     		ldr	r1, [r4, #24]
 851 007a 0B43     		orrs	r3, r3, r1
 852 007c E168     		ldr	r1, [r4, #12]
ARM GAS  /var/folders/qx/2_175_4n2s19vhvtspjhb3qh0000gn/T//cc35DONQ.s 			page 25


 853 007e 43EA0143 		orr	r3, r3, r1, lsl #16
 854 0082 1A43     		orrs	r2, r2, r3
 855 0084 46F82520 		str	r2, [r6, r5, lsl #2]
 856 0088 08E0     		b	.L85
 857              	.LVL58:
 858              	.L75:
 456:Drivers/STM32F4xx_HAL_Driver/Src/stm32f4xx_ll_fmc.c **** 
 859              		.loc 1 456 3 is_stmt 0 discriminator 2 view .LVU210
 860 008a 4FF4E471 		mov	r1, #456
 861              	.LVL59:
 456:Drivers/STM32F4xx_HAL_Driver/Src/stm32f4xx_ll_fmc.c **** 
 862              		.loc 1 456 3 discriminator 2 view .LVU211
 863 008e 1748     		ldr	r0, .L92+4
 864              	.LVL60:
 456:Drivers/STM32F4xx_HAL_Driver/Src/stm32f4xx_ll_fmc.c **** 
 865              		.loc 1 456 3 discriminator 2 view .LVU212
 866 0090 FFF7FEFF 		bl	assert_failed
 867              	.LVL61:
 459:Drivers/STM32F4xx_HAL_Driver/Src/stm32f4xx_ll_fmc.c ****   {
 868              		.loc 1 459 3 is_stmt 1 view .LVU213
 869              	.L74:
 472:Drivers/STM32F4xx_HAL_Driver/Src/stm32f4xx_ll_fmc.c ****                                                      ((Timing->AddressHoldTime)        << FMC_BWTR1
 473:Drivers/STM32F4xx_HAL_Driver/Src/stm32f4xx_ll_fmc.c ****                                                      ((Timing->DataSetupTime)          << FMC_BWTR1
 474:Drivers/STM32F4xx_HAL_Driver/Src/stm32f4xx_ll_fmc.c ****                                                      Timing->AccessMode                            
 475:Drivers/STM32F4xx_HAL_Driver/Src/stm32f4xx_ll_fmc.c ****                                                      ((Timing->BusTurnAroundDuration)  << FMC_BWTR1
 476:Drivers/STM32F4xx_HAL_Driver/Src/stm32f4xx_ll_fmc.c ****   }
 477:Drivers/STM32F4xx_HAL_Driver/Src/stm32f4xx_ll_fmc.c ****   else
 478:Drivers/STM32F4xx_HAL_Driver/Src/stm32f4xx_ll_fmc.c ****   {
 479:Drivers/STM32F4xx_HAL_Driver/Src/stm32f4xx_ll_fmc.c ****     Device->BWTR[Bank] = 0x0FFFFFFFU;
 870              		.loc 1 479 5 view .LVU214
 871              		.loc 1 479 24 is_stmt 0 view .LVU215
 872 0094 6FF07043 		mvn	r3, #-268435456
 873 0098 46F82530 		str	r3, [r6, r5, lsl #2]
 874              	.L85:
 480:Drivers/STM32F4xx_HAL_Driver/Src/stm32f4xx_ll_fmc.c ****   }
 481:Drivers/STM32F4xx_HAL_Driver/Src/stm32f4xx_ll_fmc.c **** 
 482:Drivers/STM32F4xx_HAL_Driver/Src/stm32f4xx_ll_fmc.c ****   return HAL_OK;
 875              		.loc 1 482 3 is_stmt 1 view .LVU216
 483:Drivers/STM32F4xx_HAL_Driver/Src/stm32f4xx_ll_fmc.c **** }
 876              		.loc 1 483 1 is_stmt 0 view .LVU217
 877 009c 0020     		movs	r0, #0
 878 009e 70BD     		pop	{r4, r5, r6, pc}
 879              	.LVL62:
 880              	.L87:
 463:Drivers/STM32F4xx_HAL_Driver/Src/stm32f4xx_ll_fmc.c ****     assert_param(IS_FMC_ADDRESS_HOLD_TIME(Timing->AddressHoldTime));
 881              		.loc 1 463 5 discriminator 1 view .LVU218
 882 00a0 40F2CF11 		movw	r1, #463
 883 00a4 1148     		ldr	r0, .L92+4
 884 00a6 FFF7FEFF 		bl	assert_failed
 885              	.LVL63:
 886 00aa BDE7     		b	.L78
 887              	.L88:
 464:Drivers/STM32F4xx_HAL_Driver/Src/stm32f4xx_ll_fmc.c ****     assert_param(IS_FMC_DATASETUP_TIME(Timing->DataSetupTime));
 888              		.loc 1 464 5 discriminator 1 view .LVU219
 889 00ac 4FF4E871 		mov	r1, #464
 890 00b0 0E48     		ldr	r0, .L92+4
 891 00b2 FFF7FEFF 		bl	assert_failed
ARM GAS  /var/folders/qx/2_175_4n2s19vhvtspjhb3qh0000gn/T//cc35DONQ.s 			page 26


 892              	.LVL64:
 893 00b6 BBE7     		b	.L79
 894              	.L89:
 465:Drivers/STM32F4xx_HAL_Driver/Src/stm32f4xx_ll_fmc.c ****     assert_param(IS_FMC_TURNAROUND_TIME(Timing->BusTurnAroundDuration));
 895              		.loc 1 465 5 discriminator 1 view .LVU220
 896 00b8 40F2D111 		movw	r1, #465
 897 00bc 0B48     		ldr	r0, .L92+4
 898 00be FFF7FEFF 		bl	assert_failed
 899              	.LVL65:
 900 00c2 B9E7     		b	.L80
 901              	.L90:
 466:Drivers/STM32F4xx_HAL_Driver/Src/stm32f4xx_ll_fmc.c ****     assert_param(IS_FMC_ACCESS_MODE(Timing->AccessMode));
 902              		.loc 1 466 5 discriminator 1 view .LVU221
 903 00c4 4FF4E971 		mov	r1, #466
 904 00c8 0848     		ldr	r0, .L92+4
 905 00ca FFF7FEFF 		bl	assert_failed
 906              	.LVL66:
 907 00ce B6E7     		b	.L81
 908              	.L91:
 467:Drivers/STM32F4xx_HAL_Driver/Src/stm32f4xx_ll_fmc.c ****     assert_param(IS_FMC_NORSRAM_BANK(Bank));
 909              		.loc 1 467 5 discriminator 4 view .LVU222
 910 00d0 40F2D311 		movw	r1, #467
 911 00d4 0548     		ldr	r0, .L92+4
 912 00d6 FFF7FEFF 		bl	assert_failed
 913              	.LVL67:
 914 00da BBE7     		b	.L82
 915              	.L83:
 468:Drivers/STM32F4xx_HAL_Driver/Src/stm32f4xx_ll_fmc.c **** 
 916              		.loc 1 468 5 discriminator 4 view .LVU223
 917 00dc 4FF4EA71 		mov	r1, #468
 918 00e0 0248     		ldr	r0, .L92+4
 919 00e2 FFF7FEFF 		bl	assert_failed
 920              	.LVL68:
 921 00e6 BCE7     		b	.L84
 922              	.L93:
 923              		.align	2
 924              	.L92:
 925 00e8 040100A0 		.word	-1610612476
 926 00ec 00000000 		.word	.LC0
 927 00f0 0000F0CF 		.word	-806354944
 928              		.cfi_endproc
 929              	.LFE242:
 931              		.section	.text.FMC_NORSRAM_WriteOperation_Enable,"ax",%progbits
 932              		.align	1
 933              		.global	FMC_NORSRAM_WriteOperation_Enable
 934              		.syntax unified
 935              		.thumb
 936              		.thumb_func
 938              	FMC_NORSRAM_WriteOperation_Enable:
 939              	.LVL69:
 940              	.LFB243:
 484:Drivers/STM32F4xx_HAL_Driver/Src/stm32f4xx_ll_fmc.c **** /**
 485:Drivers/STM32F4xx_HAL_Driver/Src/stm32f4xx_ll_fmc.c ****   * @}
 486:Drivers/STM32F4xx_HAL_Driver/Src/stm32f4xx_ll_fmc.c ****   */
 487:Drivers/STM32F4xx_HAL_Driver/Src/stm32f4xx_ll_fmc.c **** 
 488:Drivers/STM32F4xx_HAL_Driver/Src/stm32f4xx_ll_fmc.c **** /** @addtogroup FMC_LL_NORSRAM_Private_Functions_Group2
 489:Drivers/STM32F4xx_HAL_Driver/Src/stm32f4xx_ll_fmc.c ****   *  @brief   management functions
ARM GAS  /var/folders/qx/2_175_4n2s19vhvtspjhb3qh0000gn/T//cc35DONQ.s 			page 27


 490:Drivers/STM32F4xx_HAL_Driver/Src/stm32f4xx_ll_fmc.c ****   *
 491:Drivers/STM32F4xx_HAL_Driver/Src/stm32f4xx_ll_fmc.c **** @verbatim
 492:Drivers/STM32F4xx_HAL_Driver/Src/stm32f4xx_ll_fmc.c ****   ==============================================================================
 493:Drivers/STM32F4xx_HAL_Driver/Src/stm32f4xx_ll_fmc.c ****                       ##### FMC_NORSRAM Control functions #####
 494:Drivers/STM32F4xx_HAL_Driver/Src/stm32f4xx_ll_fmc.c ****   ==============================================================================
 495:Drivers/STM32F4xx_HAL_Driver/Src/stm32f4xx_ll_fmc.c ****   [..]
 496:Drivers/STM32F4xx_HAL_Driver/Src/stm32f4xx_ll_fmc.c ****     This subsection provides a set of functions allowing to control dynamically
 497:Drivers/STM32F4xx_HAL_Driver/Src/stm32f4xx_ll_fmc.c ****     the FMC NORSRAM interface.
 498:Drivers/STM32F4xx_HAL_Driver/Src/stm32f4xx_ll_fmc.c **** 
 499:Drivers/STM32F4xx_HAL_Driver/Src/stm32f4xx_ll_fmc.c **** @endverbatim
 500:Drivers/STM32F4xx_HAL_Driver/Src/stm32f4xx_ll_fmc.c ****   * @{
 501:Drivers/STM32F4xx_HAL_Driver/Src/stm32f4xx_ll_fmc.c ****   */
 502:Drivers/STM32F4xx_HAL_Driver/Src/stm32f4xx_ll_fmc.c **** 
 503:Drivers/STM32F4xx_HAL_Driver/Src/stm32f4xx_ll_fmc.c **** /**
 504:Drivers/STM32F4xx_HAL_Driver/Src/stm32f4xx_ll_fmc.c ****   * @brief  Enables dynamically FMC_NORSRAM write operation.
 505:Drivers/STM32F4xx_HAL_Driver/Src/stm32f4xx_ll_fmc.c ****   * @param  Device Pointer to NORSRAM device instance
 506:Drivers/STM32F4xx_HAL_Driver/Src/stm32f4xx_ll_fmc.c ****   * @param  Bank NORSRAM bank number
 507:Drivers/STM32F4xx_HAL_Driver/Src/stm32f4xx_ll_fmc.c ****   * @retval HAL status
 508:Drivers/STM32F4xx_HAL_Driver/Src/stm32f4xx_ll_fmc.c ****   */
 509:Drivers/STM32F4xx_HAL_Driver/Src/stm32f4xx_ll_fmc.c **** HAL_StatusTypeDef FMC_NORSRAM_WriteOperation_Enable(FMC_NORSRAM_TypeDef *Device, uint32_t Bank)
 510:Drivers/STM32F4xx_HAL_Driver/Src/stm32f4xx_ll_fmc.c **** {
 941              		.loc 1 510 1 is_stmt 1 view -0
 942              		.cfi_startproc
 943              		@ args = 0, pretend = 0, frame = 0
 944              		@ frame_needed = 0, uses_anonymous_args = 0
 945              		.loc 1 510 1 is_stmt 0 view .LVU225
 946 0000 38B5     		push	{r3, r4, r5, lr}
 947              	.LCFI4:
 948              		.cfi_def_cfa_offset 16
 949              		.cfi_offset 3, -16
 950              		.cfi_offset 4, -12
 951              		.cfi_offset 5, -8
 952              		.cfi_offset 14, -4
 953 0002 0546     		mov	r5, r0
 954 0004 0C46     		mov	r4, r1
 511:Drivers/STM32F4xx_HAL_Driver/Src/stm32f4xx_ll_fmc.c ****   /* Check the parameters */
 512:Drivers/STM32F4xx_HAL_Driver/Src/stm32f4xx_ll_fmc.c ****   assert_param(IS_FMC_NORSRAM_DEVICE(Device));
 955              		.loc 1 512 3 is_stmt 1 view .LVU226
 956 0006 B0F1204F 		cmp	r0, #-1610612736
 957 000a 04D0     		beq	.L95
 958              		.loc 1 512 3 is_stmt 0 discriminator 1 view .LVU227
 959 000c 4FF40071 		mov	r1, #512
 960              	.LVL70:
 961              		.loc 1 512 3 discriminator 1 view .LVU228
 962 0010 0B48     		ldr	r0, .L99
 963              	.LVL71:
 964              		.loc 1 512 3 discriminator 1 view .LVU229
 965 0012 FFF7FEFF 		bl	assert_failed
 966              	.LVL72:
 967              	.L95:
 513:Drivers/STM32F4xx_HAL_Driver/Src/stm32f4xx_ll_fmc.c ****   assert_param(IS_FMC_NORSRAM_BANK(Bank));
 968              		.loc 1 513 3 is_stmt 1 view .LVU230
 969 0016 062C     		cmp	r4, #6
 970 0018 0CD8     		bhi	.L96
 971 001a 5523     		movs	r3, #85
 972 001c E340     		lsrs	r3, r3, r4
 973 001e 13F0010F 		tst	r3, #1
ARM GAS  /var/folders/qx/2_175_4n2s19vhvtspjhb3qh0000gn/T//cc35DONQ.s 			page 28


 974 0022 07D0     		beq	.L96
 975              	.L97:
 514:Drivers/STM32F4xx_HAL_Driver/Src/stm32f4xx_ll_fmc.c **** 
 515:Drivers/STM32F4xx_HAL_Driver/Src/stm32f4xx_ll_fmc.c ****   /* Enable write operation */
 516:Drivers/STM32F4xx_HAL_Driver/Src/stm32f4xx_ll_fmc.c ****   SET_BIT(Device->BTCR[Bank], FMC_WRITE_OPERATION_ENABLE);
 976              		.loc 1 516 3 view .LVU231
 977 0024 55F82430 		ldr	r3, [r5, r4, lsl #2]
 978 0028 43F48053 		orr	r3, r3, #4096
 979 002c 45F82430 		str	r3, [r5, r4, lsl #2]
 517:Drivers/STM32F4xx_HAL_Driver/Src/stm32f4xx_ll_fmc.c **** 
 518:Drivers/STM32F4xx_HAL_Driver/Src/stm32f4xx_ll_fmc.c ****   return HAL_OK;
 980              		.loc 1 518 3 view .LVU232
 519:Drivers/STM32F4xx_HAL_Driver/Src/stm32f4xx_ll_fmc.c **** }
 981              		.loc 1 519 1 is_stmt 0 view .LVU233
 982 0030 0020     		movs	r0, #0
 983 0032 38BD     		pop	{r3, r4, r5, pc}
 984              	.LVL73:
 985              	.L96:
 513:Drivers/STM32F4xx_HAL_Driver/Src/stm32f4xx_ll_fmc.c **** 
 986              		.loc 1 513 3 discriminator 4 view .LVU234
 987 0034 40F20121 		movw	r1, #513
 988 0038 0148     		ldr	r0, .L99
 989 003a FFF7FEFF 		bl	assert_failed
 990              	.LVL74:
 991 003e F1E7     		b	.L97
 992              	.L100:
 993              		.align	2
 994              	.L99:
 995 0040 00000000 		.word	.LC0
 996              		.cfi_endproc
 997              	.LFE243:
 999              		.section	.text.FMC_NORSRAM_WriteOperation_Disable,"ax",%progbits
 1000              		.align	1
 1001              		.global	FMC_NORSRAM_WriteOperation_Disable
 1002              		.syntax unified
 1003              		.thumb
 1004              		.thumb_func
 1006              	FMC_NORSRAM_WriteOperation_Disable:
 1007              	.LVL75:
 1008              	.LFB244:
 520:Drivers/STM32F4xx_HAL_Driver/Src/stm32f4xx_ll_fmc.c **** 
 521:Drivers/STM32F4xx_HAL_Driver/Src/stm32f4xx_ll_fmc.c **** /**
 522:Drivers/STM32F4xx_HAL_Driver/Src/stm32f4xx_ll_fmc.c ****   * @brief  Disables dynamically FMC_NORSRAM write operation.
 523:Drivers/STM32F4xx_HAL_Driver/Src/stm32f4xx_ll_fmc.c ****   * @param  Device Pointer to NORSRAM device instance
 524:Drivers/STM32F4xx_HAL_Driver/Src/stm32f4xx_ll_fmc.c ****   * @param  Bank NORSRAM bank number
 525:Drivers/STM32F4xx_HAL_Driver/Src/stm32f4xx_ll_fmc.c ****   * @retval HAL status
 526:Drivers/STM32F4xx_HAL_Driver/Src/stm32f4xx_ll_fmc.c ****   */
 527:Drivers/STM32F4xx_HAL_Driver/Src/stm32f4xx_ll_fmc.c **** HAL_StatusTypeDef FMC_NORSRAM_WriteOperation_Disable(FMC_NORSRAM_TypeDef *Device, uint32_t Bank)
 528:Drivers/STM32F4xx_HAL_Driver/Src/stm32f4xx_ll_fmc.c **** {
 1009              		.loc 1 528 1 is_stmt 1 view -0
 1010              		.cfi_startproc
 1011              		@ args = 0, pretend = 0, frame = 0
 1012              		@ frame_needed = 0, uses_anonymous_args = 0
 1013              		.loc 1 528 1 is_stmt 0 view .LVU236
 1014 0000 38B5     		push	{r3, r4, r5, lr}
 1015              	.LCFI5:
 1016              		.cfi_def_cfa_offset 16
ARM GAS  /var/folders/qx/2_175_4n2s19vhvtspjhb3qh0000gn/T//cc35DONQ.s 			page 29


 1017              		.cfi_offset 3, -16
 1018              		.cfi_offset 4, -12
 1019              		.cfi_offset 5, -8
 1020              		.cfi_offset 14, -4
 1021 0002 0546     		mov	r5, r0
 1022 0004 0C46     		mov	r4, r1
 529:Drivers/STM32F4xx_HAL_Driver/Src/stm32f4xx_ll_fmc.c ****   /* Check the parameters */
 530:Drivers/STM32F4xx_HAL_Driver/Src/stm32f4xx_ll_fmc.c ****   assert_param(IS_FMC_NORSRAM_DEVICE(Device));
 1023              		.loc 1 530 3 is_stmt 1 view .LVU237
 1024 0006 B0F1204F 		cmp	r0, #-1610612736
 1025 000a 04D0     		beq	.L102
 1026              		.loc 1 530 3 is_stmt 0 discriminator 1 view .LVU238
 1027 000c 40F21221 		movw	r1, #530
 1028              	.LVL76:
 1029              		.loc 1 530 3 discriminator 1 view .LVU239
 1030 0010 0B48     		ldr	r0, .L106
 1031              	.LVL77:
 1032              		.loc 1 530 3 discriminator 1 view .LVU240
 1033 0012 FFF7FEFF 		bl	assert_failed
 1034              	.LVL78:
 1035              	.L102:
 531:Drivers/STM32F4xx_HAL_Driver/Src/stm32f4xx_ll_fmc.c ****   assert_param(IS_FMC_NORSRAM_BANK(Bank));
 1036              		.loc 1 531 3 is_stmt 1 view .LVU241
 1037 0016 062C     		cmp	r4, #6
 1038 0018 0CD8     		bhi	.L103
 1039 001a 5523     		movs	r3, #85
 1040 001c E340     		lsrs	r3, r3, r4
 1041 001e 13F0010F 		tst	r3, #1
 1042 0022 07D0     		beq	.L103
 1043              	.L104:
 532:Drivers/STM32F4xx_HAL_Driver/Src/stm32f4xx_ll_fmc.c **** 
 533:Drivers/STM32F4xx_HAL_Driver/Src/stm32f4xx_ll_fmc.c ****   /* Disable write operation */
 534:Drivers/STM32F4xx_HAL_Driver/Src/stm32f4xx_ll_fmc.c ****   CLEAR_BIT(Device->BTCR[Bank], FMC_WRITE_OPERATION_ENABLE);
 1044              		.loc 1 534 3 view .LVU242
 1045 0024 55F82430 		ldr	r3, [r5, r4, lsl #2]
 1046 0028 23F48053 		bic	r3, r3, #4096
 1047 002c 45F82430 		str	r3, [r5, r4, lsl #2]
 535:Drivers/STM32F4xx_HAL_Driver/Src/stm32f4xx_ll_fmc.c **** 
 536:Drivers/STM32F4xx_HAL_Driver/Src/stm32f4xx_ll_fmc.c ****   return HAL_OK;
 1048              		.loc 1 536 3 view .LVU243
 537:Drivers/STM32F4xx_HAL_Driver/Src/stm32f4xx_ll_fmc.c **** }
 1049              		.loc 1 537 1 is_stmt 0 view .LVU244
 1050 0030 0020     		movs	r0, #0
 1051 0032 38BD     		pop	{r3, r4, r5, pc}
 1052              	.LVL79:
 1053              	.L103:
 531:Drivers/STM32F4xx_HAL_Driver/Src/stm32f4xx_ll_fmc.c **** 
 1054              		.loc 1 531 3 discriminator 4 view .LVU245
 1055 0034 40F21321 		movw	r1, #531
 1056 0038 0148     		ldr	r0, .L106
 1057 003a FFF7FEFF 		bl	assert_failed
 1058              	.LVL80:
 1059 003e F1E7     		b	.L104
 1060              	.L107:
 1061              		.align	2
 1062              	.L106:
 1063 0040 00000000 		.word	.LC0
ARM GAS  /var/folders/qx/2_175_4n2s19vhvtspjhb3qh0000gn/T//cc35DONQ.s 			page 30


 1064              		.cfi_endproc
 1065              	.LFE244:
 1067              		.section	.text.FMC_NAND_Init,"ax",%progbits
 1068              		.align	1
 1069              		.global	FMC_NAND_Init
 1070              		.syntax unified
 1071              		.thumb
 1072              		.thumb_func
 1074              	FMC_NAND_Init:
 1075              	.LVL81:
 1076              	.LFB245:
 538:Drivers/STM32F4xx_HAL_Driver/Src/stm32f4xx_ll_fmc.c **** 
 539:Drivers/STM32F4xx_HAL_Driver/Src/stm32f4xx_ll_fmc.c **** /**
 540:Drivers/STM32F4xx_HAL_Driver/Src/stm32f4xx_ll_fmc.c ****   * @}
 541:Drivers/STM32F4xx_HAL_Driver/Src/stm32f4xx_ll_fmc.c ****   */
 542:Drivers/STM32F4xx_HAL_Driver/Src/stm32f4xx_ll_fmc.c **** 
 543:Drivers/STM32F4xx_HAL_Driver/Src/stm32f4xx_ll_fmc.c **** /**
 544:Drivers/STM32F4xx_HAL_Driver/Src/stm32f4xx_ll_fmc.c ****   * @}
 545:Drivers/STM32F4xx_HAL_Driver/Src/stm32f4xx_ll_fmc.c ****   */
 546:Drivers/STM32F4xx_HAL_Driver/Src/stm32f4xx_ll_fmc.c **** #endif /* FMC_Bank1 */
 547:Drivers/STM32F4xx_HAL_Driver/Src/stm32f4xx_ll_fmc.c **** 
 548:Drivers/STM32F4xx_HAL_Driver/Src/stm32f4xx_ll_fmc.c **** #if defined(FMC_Bank3) || defined(FMC_Bank2_3)
 549:Drivers/STM32F4xx_HAL_Driver/Src/stm32f4xx_ll_fmc.c **** 
 550:Drivers/STM32F4xx_HAL_Driver/Src/stm32f4xx_ll_fmc.c **** /** @defgroup FMC_LL_Exported_Functions_NAND FMC Low Layer NAND Exported Functions
 551:Drivers/STM32F4xx_HAL_Driver/Src/stm32f4xx_ll_fmc.c ****   * @brief    NAND Controller functions
 552:Drivers/STM32F4xx_HAL_Driver/Src/stm32f4xx_ll_fmc.c ****   *
 553:Drivers/STM32F4xx_HAL_Driver/Src/stm32f4xx_ll_fmc.c ****   @verbatim
 554:Drivers/STM32F4xx_HAL_Driver/Src/stm32f4xx_ll_fmc.c ****   ==============================================================================
 555:Drivers/STM32F4xx_HAL_Driver/Src/stm32f4xx_ll_fmc.c ****                     ##### How to use NAND device driver #####
 556:Drivers/STM32F4xx_HAL_Driver/Src/stm32f4xx_ll_fmc.c ****   ==============================================================================
 557:Drivers/STM32F4xx_HAL_Driver/Src/stm32f4xx_ll_fmc.c ****   [..]
 558:Drivers/STM32F4xx_HAL_Driver/Src/stm32f4xx_ll_fmc.c ****     This driver contains a set of APIs to interface with the FMC NAND banks in order
 559:Drivers/STM32F4xx_HAL_Driver/Src/stm32f4xx_ll_fmc.c ****     to run the NAND external devices.
 560:Drivers/STM32F4xx_HAL_Driver/Src/stm32f4xx_ll_fmc.c **** 
 561:Drivers/STM32F4xx_HAL_Driver/Src/stm32f4xx_ll_fmc.c ****     (+) FMC NAND bank reset using the function FMC_NAND_DeInit()
 562:Drivers/STM32F4xx_HAL_Driver/Src/stm32f4xx_ll_fmc.c ****     (+) FMC NAND bank control configuration using the function FMC_NAND_Init()
 563:Drivers/STM32F4xx_HAL_Driver/Src/stm32f4xx_ll_fmc.c ****     (+) FMC NAND bank common space timing configuration using the function
 564:Drivers/STM32F4xx_HAL_Driver/Src/stm32f4xx_ll_fmc.c ****         FMC_NAND_CommonSpace_Timing_Init()
 565:Drivers/STM32F4xx_HAL_Driver/Src/stm32f4xx_ll_fmc.c ****     (+) FMC NAND bank attribute space timing configuration using the function
 566:Drivers/STM32F4xx_HAL_Driver/Src/stm32f4xx_ll_fmc.c ****         FMC_NAND_AttributeSpace_Timing_Init()
 567:Drivers/STM32F4xx_HAL_Driver/Src/stm32f4xx_ll_fmc.c ****     (+) FMC NAND bank enable/disable ECC correction feature using the functions
 568:Drivers/STM32F4xx_HAL_Driver/Src/stm32f4xx_ll_fmc.c ****         FMC_NAND_ECC_Enable()/FMC_NAND_ECC_Disable()
 569:Drivers/STM32F4xx_HAL_Driver/Src/stm32f4xx_ll_fmc.c ****     (+) FMC NAND bank get ECC correction code using the function FMC_NAND_GetECC()
 570:Drivers/STM32F4xx_HAL_Driver/Src/stm32f4xx_ll_fmc.c **** 
 571:Drivers/STM32F4xx_HAL_Driver/Src/stm32f4xx_ll_fmc.c **** @endverbatim
 572:Drivers/STM32F4xx_HAL_Driver/Src/stm32f4xx_ll_fmc.c ****   * @{
 573:Drivers/STM32F4xx_HAL_Driver/Src/stm32f4xx_ll_fmc.c ****   */
 574:Drivers/STM32F4xx_HAL_Driver/Src/stm32f4xx_ll_fmc.c **** 
 575:Drivers/STM32F4xx_HAL_Driver/Src/stm32f4xx_ll_fmc.c **** /** @defgroup FMC_LL_NAND_Exported_Functions_Group1 Initialization and de-initialization functions
 576:Drivers/STM32F4xx_HAL_Driver/Src/stm32f4xx_ll_fmc.c ****   *  @brief    Initialization and Configuration functions
 577:Drivers/STM32F4xx_HAL_Driver/Src/stm32f4xx_ll_fmc.c ****   *
 578:Drivers/STM32F4xx_HAL_Driver/Src/stm32f4xx_ll_fmc.c **** @verbatim
 579:Drivers/STM32F4xx_HAL_Driver/Src/stm32f4xx_ll_fmc.c ****   ==============================================================================
 580:Drivers/STM32F4xx_HAL_Driver/Src/stm32f4xx_ll_fmc.c ****               ##### Initialization and de_initialization functions #####
 581:Drivers/STM32F4xx_HAL_Driver/Src/stm32f4xx_ll_fmc.c ****   ==============================================================================
 582:Drivers/STM32F4xx_HAL_Driver/Src/stm32f4xx_ll_fmc.c ****   [..]
 583:Drivers/STM32F4xx_HAL_Driver/Src/stm32f4xx_ll_fmc.c ****     This section provides functions allowing to:
ARM GAS  /var/folders/qx/2_175_4n2s19vhvtspjhb3qh0000gn/T//cc35DONQ.s 			page 31


 584:Drivers/STM32F4xx_HAL_Driver/Src/stm32f4xx_ll_fmc.c ****     (+) Initialize and configure the FMC NAND interface
 585:Drivers/STM32F4xx_HAL_Driver/Src/stm32f4xx_ll_fmc.c ****     (+) De-initialize the FMC NAND interface
 586:Drivers/STM32F4xx_HAL_Driver/Src/stm32f4xx_ll_fmc.c ****     (+) Configure the FMC clock and associated GPIOs
 587:Drivers/STM32F4xx_HAL_Driver/Src/stm32f4xx_ll_fmc.c **** 
 588:Drivers/STM32F4xx_HAL_Driver/Src/stm32f4xx_ll_fmc.c **** @endverbatim
 589:Drivers/STM32F4xx_HAL_Driver/Src/stm32f4xx_ll_fmc.c ****   * @{
 590:Drivers/STM32F4xx_HAL_Driver/Src/stm32f4xx_ll_fmc.c ****   */
 591:Drivers/STM32F4xx_HAL_Driver/Src/stm32f4xx_ll_fmc.c **** 
 592:Drivers/STM32F4xx_HAL_Driver/Src/stm32f4xx_ll_fmc.c **** /**
 593:Drivers/STM32F4xx_HAL_Driver/Src/stm32f4xx_ll_fmc.c ****   * @brief  Initializes the FMC_NAND device according to the specified
 594:Drivers/STM32F4xx_HAL_Driver/Src/stm32f4xx_ll_fmc.c ****   *         control parameters in the FMC_NAND_HandleTypeDef
 595:Drivers/STM32F4xx_HAL_Driver/Src/stm32f4xx_ll_fmc.c ****   * @param  Device Pointer to NAND device instance
 596:Drivers/STM32F4xx_HAL_Driver/Src/stm32f4xx_ll_fmc.c ****   * @param  Init Pointer to NAND Initialization structure
 597:Drivers/STM32F4xx_HAL_Driver/Src/stm32f4xx_ll_fmc.c ****   * @retval HAL status
 598:Drivers/STM32F4xx_HAL_Driver/Src/stm32f4xx_ll_fmc.c ****   */
 599:Drivers/STM32F4xx_HAL_Driver/Src/stm32f4xx_ll_fmc.c **** HAL_StatusTypeDef FMC_NAND_Init(FMC_NAND_TypeDef *Device, const FMC_NAND_InitTypeDef *Init)
 600:Drivers/STM32F4xx_HAL_Driver/Src/stm32f4xx_ll_fmc.c **** {
 1077              		.loc 1 600 1 is_stmt 1 view -0
 1078              		.cfi_startproc
 1079              		@ args = 0, pretend = 0, frame = 0
 1080              		@ frame_needed = 0, uses_anonymous_args = 0
 1081              		.loc 1 600 1 is_stmt 0 view .LVU247
 1082 0000 38B5     		push	{r3, r4, r5, lr}
 1083              	.LCFI6:
 1084              		.cfi_def_cfa_offset 16
 1085              		.cfi_offset 3, -16
 1086              		.cfi_offset 4, -12
 1087              		.cfi_offset 5, -8
 1088              		.cfi_offset 14, -4
 1089 0002 0546     		mov	r5, r0
 1090 0004 0C46     		mov	r4, r1
 601:Drivers/STM32F4xx_HAL_Driver/Src/stm32f4xx_ll_fmc.c ****   /* Check the parameters */
 602:Drivers/STM32F4xx_HAL_Driver/Src/stm32f4xx_ll_fmc.c ****   assert_param(IS_FMC_NAND_DEVICE(Device));
 1091              		.loc 1 602 3 is_stmt 1 view .LVU248
 1092 0006 444B     		ldr	r3, .L128
 1093 0008 9842     		cmp	r0, r3
 1094 000a 04D0     		beq	.L109
 1095              		.loc 1 602 3 is_stmt 0 discriminator 1 view .LVU249
 1096 000c 40F25A21 		movw	r1, #602
 1097              	.LVL82:
 1098              		.loc 1 602 3 discriminator 1 view .LVU250
 1099 0010 4248     		ldr	r0, .L128+4
 1100              	.LVL83:
 1101              		.loc 1 602 3 discriminator 1 view .LVU251
 1102 0012 FFF7FEFF 		bl	assert_failed
 1103              	.LVL84:
 1104              	.L109:
 603:Drivers/STM32F4xx_HAL_Driver/Src/stm32f4xx_ll_fmc.c ****   assert_param(IS_FMC_NAND_BANK(Init->NandBank));
 1105              		.loc 1 603 3 is_stmt 1 view .LVU252
 1106 0016 2368     		ldr	r3, [r4]
 1107 0018 102B     		cmp	r3, #16
 1108 001a 02D0     		beq	.L110
 1109              		.loc 1 603 3 is_stmt 0 discriminator 1 view .LVU253
 1110 001c B3F5807F 		cmp	r3, #256
 1111 0020 3BD1     		bne	.L120
 1112              	.L110:
 604:Drivers/STM32F4xx_HAL_Driver/Src/stm32f4xx_ll_fmc.c ****   assert_param(IS_FMC_WAIT_FEATURE(Init->Waitfeature));
ARM GAS  /var/folders/qx/2_175_4n2s19vhvtspjhb3qh0000gn/T//cc35DONQ.s 			page 32


 1113              		.loc 1 604 3 is_stmt 1 view .LVU254
 1114 0022 6368     		ldr	r3, [r4, #4]
 1115 0024 0BB1     		cbz	r3, .L111
 1116              		.loc 1 604 3 is_stmt 0 discriminator 1 view .LVU255
 1117 0026 022B     		cmp	r3, #2
 1118 0028 3DD1     		bne	.L121
 1119              	.L111:
 605:Drivers/STM32F4xx_HAL_Driver/Src/stm32f4xx_ll_fmc.c ****   assert_param(IS_FMC_NAND_MEMORY_WIDTH(Init->MemoryDataWidth));
 1120              		.loc 1 605 3 is_stmt 1 view .LVU256
 1121 002a A368     		ldr	r3, [r4, #8]
 1122 002c 0BB1     		cbz	r3, .L112
 1123              		.loc 1 605 3 is_stmt 0 discriminator 1 view .LVU257
 1124 002e 102B     		cmp	r3, #16
 1125 0030 3FD1     		bne	.L122
 1126              	.L112:
 606:Drivers/STM32F4xx_HAL_Driver/Src/stm32f4xx_ll_fmc.c ****   assert_param(IS_FMC_ECC_STATE(Init->EccComputation));
 1127              		.loc 1 606 3 is_stmt 1 view .LVU258
 1128 0032 E368     		ldr	r3, [r4, #12]
 1129 0034 0BB1     		cbz	r3, .L113
 1130              		.loc 1 606 3 is_stmt 0 discriminator 1 view .LVU259
 1131 0036 402B     		cmp	r3, #64
 1132 0038 41D1     		bne	.L123
 1133              	.L113:
 607:Drivers/STM32F4xx_HAL_Driver/Src/stm32f4xx_ll_fmc.c ****   assert_param(IS_FMC_ECCPAGE_SIZE(Init->ECCPageSize));
 1134              		.loc 1 607 3 is_stmt 1 view .LVU260
 1135 003a 2369     		ldr	r3, [r4, #16]
 1136 003c 73B1     		cbz	r3, .L114
 1137              		.loc 1 607 3 is_stmt 0 discriminator 1 view .LVU261
 1138 003e B3F5003F 		cmp	r3, #131072
 1139 0042 0BD0     		beq	.L114
 1140              		.loc 1 607 3 discriminator 2 view .LVU262
 1141 0044 B3F5802F 		cmp	r3, #262144
 1142 0048 08D0     		beq	.L114
 1143              		.loc 1 607 3 discriminator 3 view .LVU263
 1144 004a B3F5C02F 		cmp	r3, #393216
 1145 004e 05D0     		beq	.L114
 1146              		.loc 1 607 3 discriminator 4 view .LVU264
 1147 0050 B3F5002F 		cmp	r3, #524288
 1148 0054 02D0     		beq	.L114
 1149              		.loc 1 607 3 discriminator 5 view .LVU265
 1150 0056 B3F5202F 		cmp	r3, #655360
 1151 005a 36D1     		bne	.L124
 1152              	.L114:
 608:Drivers/STM32F4xx_HAL_Driver/Src/stm32f4xx_ll_fmc.c ****   assert_param(IS_FMC_TCLR_TIME(Init->TCLRSetupTime));
 1153              		.loc 1 608 3 is_stmt 1 view .LVU266
 1154 005c 6369     		ldr	r3, [r4, #20]
 1155 005e FF2B     		cmp	r3, #255
 1156 0060 39D8     		bhi	.L125
 1157              	.L115:
 609:Drivers/STM32F4xx_HAL_Driver/Src/stm32f4xx_ll_fmc.c ****   assert_param(IS_FMC_TAR_TIME(Init->TARSetupTime));
 1158              		.loc 1 609 3 view .LVU267
 1159 0062 A369     		ldr	r3, [r4, #24]
 1160 0064 FF2B     		cmp	r3, #255
 1161 0066 3CD8     		bhi	.L126
 1162              	.L116:
 610:Drivers/STM32F4xx_HAL_Driver/Src/stm32f4xx_ll_fmc.c **** 
 611:Drivers/STM32F4xx_HAL_Driver/Src/stm32f4xx_ll_fmc.c **** #if defined(FMC_Bank2_3)
ARM GAS  /var/folders/qx/2_175_4n2s19vhvtspjhb3qh0000gn/T//cc35DONQ.s 			page 33


 612:Drivers/STM32F4xx_HAL_Driver/Src/stm32f4xx_ll_fmc.c ****   /* Set NAND device control parameters */
 613:Drivers/STM32F4xx_HAL_Driver/Src/stm32f4xx_ll_fmc.c ****   if (Init->NandBank == FMC_NAND_BANK2)
 1163              		.loc 1 613 3 view .LVU268
 1164              		.loc 1 613 11 is_stmt 0 view .LVU269
 1165 0068 2368     		ldr	r3, [r4]
 1166              		.loc 1 613 6 view .LVU270
 1167 006a 102B     		cmp	r3, #16
 1168 006c 3FD0     		beq	.L127
 614:Drivers/STM32F4xx_HAL_Driver/Src/stm32f4xx_ll_fmc.c ****   {
 615:Drivers/STM32F4xx_HAL_Driver/Src/stm32f4xx_ll_fmc.c ****     /* NAND bank 2 registers configuration */
 616:Drivers/STM32F4xx_HAL_Driver/Src/stm32f4xx_ll_fmc.c ****     MODIFY_REG(Device->PCR2, PCR_CLEAR_MASK, (Init->Waitfeature                                    
 617:Drivers/STM32F4xx_HAL_Driver/Src/stm32f4xx_ll_fmc.c ****                                               FMC_PCR_MEMORY_TYPE_NAND                             
 618:Drivers/STM32F4xx_HAL_Driver/Src/stm32f4xx_ll_fmc.c ****                                               Init->MemoryDataWidth                                
 619:Drivers/STM32F4xx_HAL_Driver/Src/stm32f4xx_ll_fmc.c ****                                               Init->EccComputation                                 
 620:Drivers/STM32F4xx_HAL_Driver/Src/stm32f4xx_ll_fmc.c ****                                               Init->ECCPageSize                                    
 621:Drivers/STM32F4xx_HAL_Driver/Src/stm32f4xx_ll_fmc.c ****                                               ((Init->TCLRSetupTime) << FMC_PCR2_TCLR_Pos)  |
 622:Drivers/STM32F4xx_HAL_Driver/Src/stm32f4xx_ll_fmc.c ****                                               ((Init->TARSetupTime)  << FMC_PCR2_TAR_Pos)));
 623:Drivers/STM32F4xx_HAL_Driver/Src/stm32f4xx_ll_fmc.c ****   }
 624:Drivers/STM32F4xx_HAL_Driver/Src/stm32f4xx_ll_fmc.c ****   else
 625:Drivers/STM32F4xx_HAL_Driver/Src/stm32f4xx_ll_fmc.c ****   {
 626:Drivers/STM32F4xx_HAL_Driver/Src/stm32f4xx_ll_fmc.c ****     /* NAND bank 3 registers configuration */
 627:Drivers/STM32F4xx_HAL_Driver/Src/stm32f4xx_ll_fmc.c ****     MODIFY_REG(Device->PCR3, PCR_CLEAR_MASK, (Init->Waitfeature                                    
 1169              		.loc 1 627 5 is_stmt 1 view .LVU271
 1170 006e 2B6A     		ldr	r3, [r5, #32]
 1171 0070 2B4A     		ldr	r2, .L128+8
 1172 0072 1A40     		ands	r2, r2, r3
 1173 0074 6368     		ldr	r3, [r4, #4]
 1174 0076 A168     		ldr	r1, [r4, #8]
 1175 0078 0B43     		orrs	r3, r3, r1
 1176 007a E168     		ldr	r1, [r4, #12]
 1177 007c 0B43     		orrs	r3, r3, r1
 1178 007e 2169     		ldr	r1, [r4, #16]
 1179 0080 0B43     		orrs	r3, r3, r1
 1180 0082 6169     		ldr	r1, [r4, #20]
 1181 0084 43EA4123 		orr	r3, r3, r1, lsl #9
 1182 0088 A169     		ldr	r1, [r4, #24]
 1183 008a 43EA4133 		orr	r3, r3, r1, lsl #13
 1184 008e 1A43     		orrs	r2, r2, r3
 1185 0090 42F00802 		orr	r2, r2, #8
 1186 0094 2A62     		str	r2, [r5, #32]
 1187              	.L118:
 628:Drivers/STM32F4xx_HAL_Driver/Src/stm32f4xx_ll_fmc.c ****                                               FMC_PCR_MEMORY_TYPE_NAND                             
 629:Drivers/STM32F4xx_HAL_Driver/Src/stm32f4xx_ll_fmc.c ****                                               Init->MemoryDataWidth                                
 630:Drivers/STM32F4xx_HAL_Driver/Src/stm32f4xx_ll_fmc.c ****                                               Init->EccComputation                                 
 631:Drivers/STM32F4xx_HAL_Driver/Src/stm32f4xx_ll_fmc.c ****                                               Init->ECCPageSize                                    
 632:Drivers/STM32F4xx_HAL_Driver/Src/stm32f4xx_ll_fmc.c ****                                               ((Init->TCLRSetupTime) << FMC_PCR2_TCLR_Pos)  |
 633:Drivers/STM32F4xx_HAL_Driver/Src/stm32f4xx_ll_fmc.c ****                                               ((Init->TARSetupTime)  << FMC_PCR2_TAR_Pos)));
 634:Drivers/STM32F4xx_HAL_Driver/Src/stm32f4xx_ll_fmc.c ****   }
 635:Drivers/STM32F4xx_HAL_Driver/Src/stm32f4xx_ll_fmc.c **** #else
 636:Drivers/STM32F4xx_HAL_Driver/Src/stm32f4xx_ll_fmc.c ****   /* NAND bank 3 registers configuration */
 637:Drivers/STM32F4xx_HAL_Driver/Src/stm32f4xx_ll_fmc.c ****   MODIFY_REG(Device->PCR, PCR_CLEAR_MASK, (Init->Waitfeature                            |
 638:Drivers/STM32F4xx_HAL_Driver/Src/stm32f4xx_ll_fmc.c ****                                            FMC_PCR_MEMORY_TYPE_NAND                     |
 639:Drivers/STM32F4xx_HAL_Driver/Src/stm32f4xx_ll_fmc.c ****                                            Init->MemoryDataWidth                        |
 640:Drivers/STM32F4xx_HAL_Driver/Src/stm32f4xx_ll_fmc.c ****                                            Init->EccComputation                         |
 641:Drivers/STM32F4xx_HAL_Driver/Src/stm32f4xx_ll_fmc.c ****                                            Init->ECCPageSize                            |
 642:Drivers/STM32F4xx_HAL_Driver/Src/stm32f4xx_ll_fmc.c ****                                            ((Init->TCLRSetupTime) << FMC_PCR_TCLR_Pos)  |
 643:Drivers/STM32F4xx_HAL_Driver/Src/stm32f4xx_ll_fmc.c ****                                            ((Init->TARSetupTime)  << FMC_PCR_TAR_Pos)));
ARM GAS  /var/folders/qx/2_175_4n2s19vhvtspjhb3qh0000gn/T//cc35DONQ.s 			page 34


 644:Drivers/STM32F4xx_HAL_Driver/Src/stm32f4xx_ll_fmc.c **** #endif /* FMC_Bank2_3 */
 645:Drivers/STM32F4xx_HAL_Driver/Src/stm32f4xx_ll_fmc.c **** 
 646:Drivers/STM32F4xx_HAL_Driver/Src/stm32f4xx_ll_fmc.c ****   return HAL_OK;
 1188              		.loc 1 646 3 view .LVU272
 647:Drivers/STM32F4xx_HAL_Driver/Src/stm32f4xx_ll_fmc.c **** }
 1189              		.loc 1 647 1 is_stmt 0 view .LVU273
 1190 0096 0020     		movs	r0, #0
 1191 0098 38BD     		pop	{r3, r4, r5, pc}
 1192              	.LVL85:
 1193              	.L120:
 603:Drivers/STM32F4xx_HAL_Driver/Src/stm32f4xx_ll_fmc.c ****   assert_param(IS_FMC_WAIT_FEATURE(Init->Waitfeature));
 1194              		.loc 1 603 3 discriminator 2 view .LVU274
 1195 009a 40F25B21 		movw	r1, #603
 1196 009e 1F48     		ldr	r0, .L128+4
 1197 00a0 FFF7FEFF 		bl	assert_failed
 1198              	.LVL86:
 1199 00a4 BDE7     		b	.L110
 1200              	.L121:
 604:Drivers/STM32F4xx_HAL_Driver/Src/stm32f4xx_ll_fmc.c ****   assert_param(IS_FMC_NAND_MEMORY_WIDTH(Init->MemoryDataWidth));
 1201              		.loc 1 604 3 discriminator 2 view .LVU275
 1202 00a6 4FF41771 		mov	r1, #604
 1203 00aa 1C48     		ldr	r0, .L128+4
 1204 00ac FFF7FEFF 		bl	assert_failed
 1205              	.LVL87:
 1206 00b0 BBE7     		b	.L111
 1207              	.L122:
 605:Drivers/STM32F4xx_HAL_Driver/Src/stm32f4xx_ll_fmc.c ****   assert_param(IS_FMC_ECC_STATE(Init->EccComputation));
 1208              		.loc 1 605 3 discriminator 2 view .LVU276
 1209 00b2 40F25D21 		movw	r1, #605
 1210 00b6 1948     		ldr	r0, .L128+4
 1211 00b8 FFF7FEFF 		bl	assert_failed
 1212              	.LVL88:
 1213 00bc B9E7     		b	.L112
 1214              	.L123:
 606:Drivers/STM32F4xx_HAL_Driver/Src/stm32f4xx_ll_fmc.c ****   assert_param(IS_FMC_ECCPAGE_SIZE(Init->ECCPageSize));
 1215              		.loc 1 606 3 discriminator 2 view .LVU277
 1216 00be 40F25E21 		movw	r1, #606
 1217 00c2 1648     		ldr	r0, .L128+4
 1218 00c4 FFF7FEFF 		bl	assert_failed
 1219              	.LVL89:
 1220 00c8 B7E7     		b	.L113
 1221              	.L124:
 607:Drivers/STM32F4xx_HAL_Driver/Src/stm32f4xx_ll_fmc.c ****   assert_param(IS_FMC_TCLR_TIME(Init->TCLRSetupTime));
 1222              		.loc 1 607 3 discriminator 6 view .LVU278
 1223 00ca 40F25F21 		movw	r1, #607
 1224 00ce 1348     		ldr	r0, .L128+4
 1225 00d0 FFF7FEFF 		bl	assert_failed
 1226              	.LVL90:
 1227 00d4 C2E7     		b	.L114
 1228              	.L125:
 608:Drivers/STM32F4xx_HAL_Driver/Src/stm32f4xx_ll_fmc.c ****   assert_param(IS_FMC_TAR_TIME(Init->TARSetupTime));
 1229              		.loc 1 608 3 discriminator 1 view .LVU279
 1230 00d6 4FF41871 		mov	r1, #608
 1231 00da 1048     		ldr	r0, .L128+4
 1232 00dc FFF7FEFF 		bl	assert_failed
 1233              	.LVL91:
 1234 00e0 BFE7     		b	.L115
ARM GAS  /var/folders/qx/2_175_4n2s19vhvtspjhb3qh0000gn/T//cc35DONQ.s 			page 35


 1235              	.L126:
 609:Drivers/STM32F4xx_HAL_Driver/Src/stm32f4xx_ll_fmc.c **** 
 1236              		.loc 1 609 3 discriminator 1 view .LVU280
 1237 00e2 40F26121 		movw	r1, #609
 1238 00e6 0D48     		ldr	r0, .L128+4
 1239 00e8 FFF7FEFF 		bl	assert_failed
 1240              	.LVL92:
 1241 00ec BCE7     		b	.L116
 1242              	.L127:
 616:Drivers/STM32F4xx_HAL_Driver/Src/stm32f4xx_ll_fmc.c ****                                               FMC_PCR_MEMORY_TYPE_NAND                             
 1243              		.loc 1 616 5 is_stmt 1 view .LVU281
 1244 00ee 2B68     		ldr	r3, [r5]
 1245 00f0 0B4A     		ldr	r2, .L128+8
 1246 00f2 1A40     		ands	r2, r2, r3
 1247 00f4 6368     		ldr	r3, [r4, #4]
 1248 00f6 A168     		ldr	r1, [r4, #8]
 1249 00f8 0B43     		orrs	r3, r3, r1
 1250 00fa E168     		ldr	r1, [r4, #12]
 1251 00fc 0B43     		orrs	r3, r3, r1
 1252 00fe 2169     		ldr	r1, [r4, #16]
 1253 0100 0B43     		orrs	r3, r3, r1
 1254 0102 6169     		ldr	r1, [r4, #20]
 1255 0104 43EA4123 		orr	r3, r3, r1, lsl #9
 1256 0108 A169     		ldr	r1, [r4, #24]
 1257 010a 43EA4133 		orr	r3, r3, r1, lsl #13
 1258 010e 1A43     		orrs	r2, r2, r3
 1259 0110 42F00802 		orr	r2, r2, #8
 1260 0114 2A60     		str	r2, [r5]
 1261 0116 BEE7     		b	.L118
 1262              	.L129:
 1263              		.align	2
 1264              	.L128:
 1265 0118 600000A0 		.word	-1610612640
 1266 011c 00000000 		.word	.LC0
 1267 0120 8101F0FF 		.word	-1048191
 1268              		.cfi_endproc
 1269              	.LFE245:
 1271              		.section	.text.FMC_NAND_CommonSpace_Timing_Init,"ax",%progbits
 1272              		.align	1
 1273              		.global	FMC_NAND_CommonSpace_Timing_Init
 1274              		.syntax unified
 1275              		.thumb
 1276              		.thumb_func
 1278              	FMC_NAND_CommonSpace_Timing_Init:
 1279              	.LVL93:
 1280              	.LFB246:
 648:Drivers/STM32F4xx_HAL_Driver/Src/stm32f4xx_ll_fmc.c **** 
 649:Drivers/STM32F4xx_HAL_Driver/Src/stm32f4xx_ll_fmc.c **** /**
 650:Drivers/STM32F4xx_HAL_Driver/Src/stm32f4xx_ll_fmc.c ****   * @brief  Initializes the FMC_NAND Common space Timing according to the specified
 651:Drivers/STM32F4xx_HAL_Driver/Src/stm32f4xx_ll_fmc.c ****   *         parameters in the FMC_NAND_PCC_TimingTypeDef
 652:Drivers/STM32F4xx_HAL_Driver/Src/stm32f4xx_ll_fmc.c ****   * @param  Device Pointer to NAND device instance
 653:Drivers/STM32F4xx_HAL_Driver/Src/stm32f4xx_ll_fmc.c ****   * @param  Timing Pointer to NAND timing structure
 654:Drivers/STM32F4xx_HAL_Driver/Src/stm32f4xx_ll_fmc.c ****   * @param  Bank NAND bank number
 655:Drivers/STM32F4xx_HAL_Driver/Src/stm32f4xx_ll_fmc.c ****   * @retval HAL status
 656:Drivers/STM32F4xx_HAL_Driver/Src/stm32f4xx_ll_fmc.c ****   */
 657:Drivers/STM32F4xx_HAL_Driver/Src/stm32f4xx_ll_fmc.c **** HAL_StatusTypeDef FMC_NAND_CommonSpace_Timing_Init(FMC_NAND_TypeDef *Device,
 658:Drivers/STM32F4xx_HAL_Driver/Src/stm32f4xx_ll_fmc.c ****                                                    const FMC_NAND_PCC_TimingTypeDef *Timing, uint32
ARM GAS  /var/folders/qx/2_175_4n2s19vhvtspjhb3qh0000gn/T//cc35DONQ.s 			page 36


 659:Drivers/STM32F4xx_HAL_Driver/Src/stm32f4xx_ll_fmc.c **** {
 1281              		.loc 1 659 1 view -0
 1282              		.cfi_startproc
 1283              		@ args = 0, pretend = 0, frame = 0
 1284              		@ frame_needed = 0, uses_anonymous_args = 0
 1285              		.loc 1 659 1 is_stmt 0 view .LVU283
 1286 0000 70B5     		push	{r4, r5, r6, lr}
 1287              	.LCFI7:
 1288              		.cfi_def_cfa_offset 16
 1289              		.cfi_offset 4, -16
 1290              		.cfi_offset 5, -12
 1291              		.cfi_offset 6, -8
 1292              		.cfi_offset 14, -4
 1293 0002 0546     		mov	r5, r0
 1294 0004 0C46     		mov	r4, r1
 1295 0006 1646     		mov	r6, r2
 660:Drivers/STM32F4xx_HAL_Driver/Src/stm32f4xx_ll_fmc.c ****   /* Check the parameters */
 661:Drivers/STM32F4xx_HAL_Driver/Src/stm32f4xx_ll_fmc.c ****   assert_param(IS_FMC_NAND_DEVICE(Device));
 1296              		.loc 1 661 3 is_stmt 1 view .LVU284
 1297 0008 274B     		ldr	r3, .L146
 1298 000a 9842     		cmp	r0, r3
 1299 000c 04D0     		beq	.L131
 1300              		.loc 1 661 3 is_stmt 0 discriminator 1 view .LVU285
 1301 000e 40F29521 		movw	r1, #661
 1302              	.LVL94:
 1303              		.loc 1 661 3 discriminator 1 view .LVU286
 1304 0012 2648     		ldr	r0, .L146+4
 1305              	.LVL95:
 1306              		.loc 1 661 3 discriminator 1 view .LVU287
 1307 0014 FFF7FEFF 		bl	assert_failed
 1308              	.LVL96:
 1309              	.L131:
 662:Drivers/STM32F4xx_HAL_Driver/Src/stm32f4xx_ll_fmc.c ****   assert_param(IS_FMC_SETUP_TIME(Timing->SetupTime));
 1310              		.loc 1 662 3 is_stmt 1 view .LVU288
 1311 0018 2368     		ldr	r3, [r4]
 1312 001a FE2B     		cmp	r3, #254
 1313 001c 1AD8     		bhi	.L140
 1314              	.L132:
 663:Drivers/STM32F4xx_HAL_Driver/Src/stm32f4xx_ll_fmc.c ****   assert_param(IS_FMC_WAIT_TIME(Timing->WaitSetupTime));
 1315              		.loc 1 663 3 view .LVU289
 1316 001e 6368     		ldr	r3, [r4, #4]
 1317 0020 FE2B     		cmp	r3, #254
 1318 0022 1DD8     		bhi	.L141
 1319              	.L133:
 664:Drivers/STM32F4xx_HAL_Driver/Src/stm32f4xx_ll_fmc.c ****   assert_param(IS_FMC_HOLD_TIME(Timing->HoldSetupTime));
 1320              		.loc 1 664 3 view .LVU290
 1321 0024 A368     		ldr	r3, [r4, #8]
 1322 0026 FE2B     		cmp	r3, #254
 1323 0028 20D8     		bhi	.L142
 1324              	.L134:
 665:Drivers/STM32F4xx_HAL_Driver/Src/stm32f4xx_ll_fmc.c ****   assert_param(IS_FMC_HIZ_TIME(Timing->HiZSetupTime));
 1325              		.loc 1 665 3 view .LVU291
 1326 002a E368     		ldr	r3, [r4, #12]
 1327 002c FE2B     		cmp	r3, #254
 1328 002e 23D8     		bhi	.L143
 1329              	.L135:
 666:Drivers/STM32F4xx_HAL_Driver/Src/stm32f4xx_ll_fmc.c ****   assert_param(IS_FMC_NAND_BANK(Bank));
ARM GAS  /var/folders/qx/2_175_4n2s19vhvtspjhb3qh0000gn/T//cc35DONQ.s 			page 37


 1330              		.loc 1 666 3 view .LVU292
 1331 0030 102E     		cmp	r6, #16
 1332 0032 27D0     		beq	.L144
 1333              		.loc 1 666 3 is_stmt 0 discriminator 1 view .LVU293
 1334 0034 B6F5807F 		cmp	r6, #256
 1335 0038 30D1     		bne	.L145
 1336              	.L138:
 667:Drivers/STM32F4xx_HAL_Driver/Src/stm32f4xx_ll_fmc.c **** 
 668:Drivers/STM32F4xx_HAL_Driver/Src/stm32f4xx_ll_fmc.c **** #if defined(FMC_Bank2_3)
 669:Drivers/STM32F4xx_HAL_Driver/Src/stm32f4xx_ll_fmc.c ****   /* Set FMC_NAND device timing parameters */
 670:Drivers/STM32F4xx_HAL_Driver/Src/stm32f4xx_ll_fmc.c ****   if (Bank == FMC_NAND_BANK2)
 671:Drivers/STM32F4xx_HAL_Driver/Src/stm32f4xx_ll_fmc.c ****   {
 672:Drivers/STM32F4xx_HAL_Driver/Src/stm32f4xx_ll_fmc.c ****     /* NAND bank 2 registers configuration */
 673:Drivers/STM32F4xx_HAL_Driver/Src/stm32f4xx_ll_fmc.c ****     WRITE_REG(Device->PMEM2, (Timing->SetupTime                                             |
 674:Drivers/STM32F4xx_HAL_Driver/Src/stm32f4xx_ll_fmc.c ****                               ((Timing->WaitSetupTime) << FMC_PMEM2_MEMWAIT2_Pos) |
 675:Drivers/STM32F4xx_HAL_Driver/Src/stm32f4xx_ll_fmc.c ****                               ((Timing->HoldSetupTime) << FMC_PMEM2_MEMHOLD2_Pos) |
 676:Drivers/STM32F4xx_HAL_Driver/Src/stm32f4xx_ll_fmc.c ****                               ((Timing->HiZSetupTime)  << FMC_PMEM2_MEMHIZ2_Pos)));
 677:Drivers/STM32F4xx_HAL_Driver/Src/stm32f4xx_ll_fmc.c ****   }
 678:Drivers/STM32F4xx_HAL_Driver/Src/stm32f4xx_ll_fmc.c ****   else
 679:Drivers/STM32F4xx_HAL_Driver/Src/stm32f4xx_ll_fmc.c ****   {
 680:Drivers/STM32F4xx_HAL_Driver/Src/stm32f4xx_ll_fmc.c ****     /* NAND bank 3 registers configuration */
 681:Drivers/STM32F4xx_HAL_Driver/Src/stm32f4xx_ll_fmc.c ****     WRITE_REG(Device->PMEM3, (Timing->SetupTime                                             |
 1337              		.loc 1 681 5 is_stmt 1 view .LVU294
 1338 003a 2368     		ldr	r3, [r4]
 1339 003c 6268     		ldr	r2, [r4, #4]
 1340 003e 43EA0223 		orr	r3, r3, r2, lsl #8
 1341 0042 A268     		ldr	r2, [r4, #8]
 1342 0044 43EA0243 		orr	r3, r3, r2, lsl #16
 1343 0048 E268     		ldr	r2, [r4, #12]
 1344 004a 43EA0263 		orr	r3, r3, r2, lsl #24
 1345 004e AB62     		str	r3, [r5, #40]
 1346              	.L137:
 682:Drivers/STM32F4xx_HAL_Driver/Src/stm32f4xx_ll_fmc.c ****                               ((Timing->WaitSetupTime) << FMC_PMEM2_MEMWAIT2_Pos) |
 683:Drivers/STM32F4xx_HAL_Driver/Src/stm32f4xx_ll_fmc.c ****                               ((Timing->HoldSetupTime) << FMC_PMEM2_MEMHOLD2_Pos) |
 684:Drivers/STM32F4xx_HAL_Driver/Src/stm32f4xx_ll_fmc.c ****                               ((Timing->HiZSetupTime)  << FMC_PMEM2_MEMHIZ2_Pos)));
 685:Drivers/STM32F4xx_HAL_Driver/Src/stm32f4xx_ll_fmc.c ****   }
 686:Drivers/STM32F4xx_HAL_Driver/Src/stm32f4xx_ll_fmc.c **** #else
 687:Drivers/STM32F4xx_HAL_Driver/Src/stm32f4xx_ll_fmc.c ****   /* Prevent unused argument(s) compilation warning if no assert_param check */
 688:Drivers/STM32F4xx_HAL_Driver/Src/stm32f4xx_ll_fmc.c ****   UNUSED(Bank);
 689:Drivers/STM32F4xx_HAL_Driver/Src/stm32f4xx_ll_fmc.c **** 
 690:Drivers/STM32F4xx_HAL_Driver/Src/stm32f4xx_ll_fmc.c ****   /* NAND bank 3 registers configuration */
 691:Drivers/STM32F4xx_HAL_Driver/Src/stm32f4xx_ll_fmc.c ****   Device->PMEM = (Timing->SetupTime |
 692:Drivers/STM32F4xx_HAL_Driver/Src/stm32f4xx_ll_fmc.c ****                   ((Timing->WaitSetupTime) << FMC_PMEM_MEMWAIT2_Pos) |
 693:Drivers/STM32F4xx_HAL_Driver/Src/stm32f4xx_ll_fmc.c ****                   ((Timing->HoldSetupTime) << FMC_PMEM_MEMHOLD2_Pos) |
 694:Drivers/STM32F4xx_HAL_Driver/Src/stm32f4xx_ll_fmc.c ****                   ((Timing->HiZSetupTime) << FMC_PMEM_MEMHIZ2_Pos));
 695:Drivers/STM32F4xx_HAL_Driver/Src/stm32f4xx_ll_fmc.c **** #endif /* FMC_Bank2_3 */
 696:Drivers/STM32F4xx_HAL_Driver/Src/stm32f4xx_ll_fmc.c **** 
 697:Drivers/STM32F4xx_HAL_Driver/Src/stm32f4xx_ll_fmc.c ****   return HAL_OK;
 1347              		.loc 1 697 3 view .LVU295
 698:Drivers/STM32F4xx_HAL_Driver/Src/stm32f4xx_ll_fmc.c **** }
 1348              		.loc 1 698 1 is_stmt 0 view .LVU296
 1349 0050 0020     		movs	r0, #0
 1350 0052 70BD     		pop	{r4, r5, r6, pc}
 1351              	.LVL97:
 1352              	.L140:
 662:Drivers/STM32F4xx_HAL_Driver/Src/stm32f4xx_ll_fmc.c ****   assert_param(IS_FMC_WAIT_TIME(Timing->WaitSetupTime));
 1353              		.loc 1 662 3 discriminator 1 view .LVU297
ARM GAS  /var/folders/qx/2_175_4n2s19vhvtspjhb3qh0000gn/T//cc35DONQ.s 			page 38


 1354 0054 40F29621 		movw	r1, #662
 1355 0058 1448     		ldr	r0, .L146+4
 1356 005a FFF7FEFF 		bl	assert_failed
 1357              	.LVL98:
 1358 005e DEE7     		b	.L132
 1359              	.L141:
 663:Drivers/STM32F4xx_HAL_Driver/Src/stm32f4xx_ll_fmc.c ****   assert_param(IS_FMC_HOLD_TIME(Timing->HoldSetupTime));
 1360              		.loc 1 663 3 discriminator 1 view .LVU298
 1361 0060 40F29721 		movw	r1, #663
 1362 0064 1148     		ldr	r0, .L146+4
 1363 0066 FFF7FEFF 		bl	assert_failed
 1364              	.LVL99:
 1365 006a DBE7     		b	.L133
 1366              	.L142:
 664:Drivers/STM32F4xx_HAL_Driver/Src/stm32f4xx_ll_fmc.c ****   assert_param(IS_FMC_HIZ_TIME(Timing->HiZSetupTime));
 1367              		.loc 1 664 3 discriminator 1 view .LVU299
 1368 006c 4FF42671 		mov	r1, #664
 1369 0070 0E48     		ldr	r0, .L146+4
 1370 0072 FFF7FEFF 		bl	assert_failed
 1371              	.LVL100:
 1372 0076 D8E7     		b	.L134
 1373              	.L143:
 665:Drivers/STM32F4xx_HAL_Driver/Src/stm32f4xx_ll_fmc.c ****   assert_param(IS_FMC_NAND_BANK(Bank));
 1374              		.loc 1 665 3 discriminator 1 view .LVU300
 1375 0078 40F29921 		movw	r1, #665
 1376 007c 0B48     		ldr	r0, .L146+4
 1377 007e FFF7FEFF 		bl	assert_failed
 1378              	.LVL101:
 1379 0082 D5E7     		b	.L135
 1380              	.L144:
 670:Drivers/STM32F4xx_HAL_Driver/Src/stm32f4xx_ll_fmc.c ****   {
 1381              		.loc 1 670 3 is_stmt 1 view .LVU301
 673:Drivers/STM32F4xx_HAL_Driver/Src/stm32f4xx_ll_fmc.c ****                               ((Timing->WaitSetupTime) << FMC_PMEM2_MEMWAIT2_Pos) |
 1382              		.loc 1 673 5 view .LVU302
 1383 0084 2368     		ldr	r3, [r4]
 1384 0086 6268     		ldr	r2, [r4, #4]
 1385 0088 43EA0223 		orr	r3, r3, r2, lsl #8
 1386 008c A268     		ldr	r2, [r4, #8]
 1387 008e 43EA0243 		orr	r3, r3, r2, lsl #16
 1388 0092 E268     		ldr	r2, [r4, #12]
 1389 0094 43EA0263 		orr	r3, r3, r2, lsl #24
 1390 0098 AB60     		str	r3, [r5, #8]
 1391 009a D9E7     		b	.L137
 1392              	.L145:
 666:Drivers/STM32F4xx_HAL_Driver/Src/stm32f4xx_ll_fmc.c **** 
 1393              		.loc 1 666 3 is_stmt 0 discriminator 2 view .LVU303
 1394 009c 40F29A21 		movw	r1, #666
 1395 00a0 0248     		ldr	r0, .L146+4
 1396 00a2 FFF7FEFF 		bl	assert_failed
 1397              	.LVL102:
 670:Drivers/STM32F4xx_HAL_Driver/Src/stm32f4xx_ll_fmc.c ****   {
 1398              		.loc 1 670 3 is_stmt 1 view .LVU304
 1399 00a6 C8E7     		b	.L138
 1400              	.L147:
 1401              		.align	2
 1402              	.L146:
 1403 00a8 600000A0 		.word	-1610612640
ARM GAS  /var/folders/qx/2_175_4n2s19vhvtspjhb3qh0000gn/T//cc35DONQ.s 			page 39


 1404 00ac 00000000 		.word	.LC0
 1405              		.cfi_endproc
 1406              	.LFE246:
 1408              		.section	.text.FMC_NAND_AttributeSpace_Timing_Init,"ax",%progbits
 1409              		.align	1
 1410              		.global	FMC_NAND_AttributeSpace_Timing_Init
 1411              		.syntax unified
 1412              		.thumb
 1413              		.thumb_func
 1415              	FMC_NAND_AttributeSpace_Timing_Init:
 1416              	.LVL103:
 1417              	.LFB247:
 699:Drivers/STM32F4xx_HAL_Driver/Src/stm32f4xx_ll_fmc.c **** 
 700:Drivers/STM32F4xx_HAL_Driver/Src/stm32f4xx_ll_fmc.c **** /**
 701:Drivers/STM32F4xx_HAL_Driver/Src/stm32f4xx_ll_fmc.c ****   * @brief  Initializes the FMC_NAND Attribute space Timing according to the specified
 702:Drivers/STM32F4xx_HAL_Driver/Src/stm32f4xx_ll_fmc.c ****   *         parameters in the FMC_NAND_PCC_TimingTypeDef
 703:Drivers/STM32F4xx_HAL_Driver/Src/stm32f4xx_ll_fmc.c ****   * @param  Device Pointer to NAND device instance
 704:Drivers/STM32F4xx_HAL_Driver/Src/stm32f4xx_ll_fmc.c ****   * @param  Timing Pointer to NAND timing structure
 705:Drivers/STM32F4xx_HAL_Driver/Src/stm32f4xx_ll_fmc.c ****   * @param  Bank NAND bank number
 706:Drivers/STM32F4xx_HAL_Driver/Src/stm32f4xx_ll_fmc.c ****   * @retval HAL status
 707:Drivers/STM32F4xx_HAL_Driver/Src/stm32f4xx_ll_fmc.c ****   */
 708:Drivers/STM32F4xx_HAL_Driver/Src/stm32f4xx_ll_fmc.c **** HAL_StatusTypeDef FMC_NAND_AttributeSpace_Timing_Init(FMC_NAND_TypeDef *Device,
 709:Drivers/STM32F4xx_HAL_Driver/Src/stm32f4xx_ll_fmc.c ****                                                       const FMC_NAND_PCC_TimingTypeDef *Timing, uin
 710:Drivers/STM32F4xx_HAL_Driver/Src/stm32f4xx_ll_fmc.c **** {
 1418              		.loc 1 710 1 view -0
 1419              		.cfi_startproc
 1420              		@ args = 0, pretend = 0, frame = 0
 1421              		@ frame_needed = 0, uses_anonymous_args = 0
 1422              		.loc 1 710 1 is_stmt 0 view .LVU306
 1423 0000 70B5     		push	{r4, r5, r6, lr}
 1424              	.LCFI8:
 1425              		.cfi_def_cfa_offset 16
 1426              		.cfi_offset 4, -16
 1427              		.cfi_offset 5, -12
 1428              		.cfi_offset 6, -8
 1429              		.cfi_offset 14, -4
 1430 0002 0546     		mov	r5, r0
 1431 0004 0C46     		mov	r4, r1
 1432 0006 1646     		mov	r6, r2
 711:Drivers/STM32F4xx_HAL_Driver/Src/stm32f4xx_ll_fmc.c ****   /* Check the parameters */
 712:Drivers/STM32F4xx_HAL_Driver/Src/stm32f4xx_ll_fmc.c ****   assert_param(IS_FMC_NAND_DEVICE(Device));
 1433              		.loc 1 712 3 is_stmt 1 view .LVU307
 1434 0008 274B     		ldr	r3, .L164
 1435 000a 9842     		cmp	r0, r3
 1436 000c 04D0     		beq	.L149
 1437              		.loc 1 712 3 is_stmt 0 discriminator 1 view .LVU308
 1438 000e 4FF43271 		mov	r1, #712
 1439              	.LVL104:
 1440              		.loc 1 712 3 discriminator 1 view .LVU309
 1441 0012 2648     		ldr	r0, .L164+4
 1442              	.LVL105:
 1443              		.loc 1 712 3 discriminator 1 view .LVU310
 1444 0014 FFF7FEFF 		bl	assert_failed
 1445              	.LVL106:
 1446              	.L149:
 713:Drivers/STM32F4xx_HAL_Driver/Src/stm32f4xx_ll_fmc.c ****   assert_param(IS_FMC_SETUP_TIME(Timing->SetupTime));
 1447              		.loc 1 713 3 is_stmt 1 view .LVU311
ARM GAS  /var/folders/qx/2_175_4n2s19vhvtspjhb3qh0000gn/T//cc35DONQ.s 			page 40


 1448 0018 2368     		ldr	r3, [r4]
 1449 001a FE2B     		cmp	r3, #254
 1450 001c 1AD8     		bhi	.L158
 1451              	.L150:
 714:Drivers/STM32F4xx_HAL_Driver/Src/stm32f4xx_ll_fmc.c ****   assert_param(IS_FMC_WAIT_TIME(Timing->WaitSetupTime));
 1452              		.loc 1 714 3 view .LVU312
 1453 001e 6368     		ldr	r3, [r4, #4]
 1454 0020 FE2B     		cmp	r3, #254
 1455 0022 1DD8     		bhi	.L159
 1456              	.L151:
 715:Drivers/STM32F4xx_HAL_Driver/Src/stm32f4xx_ll_fmc.c ****   assert_param(IS_FMC_HOLD_TIME(Timing->HoldSetupTime));
 1457              		.loc 1 715 3 view .LVU313
 1458 0024 A368     		ldr	r3, [r4, #8]
 1459 0026 FE2B     		cmp	r3, #254
 1460 0028 20D8     		bhi	.L160
 1461              	.L152:
 716:Drivers/STM32F4xx_HAL_Driver/Src/stm32f4xx_ll_fmc.c ****   assert_param(IS_FMC_HIZ_TIME(Timing->HiZSetupTime));
 1462              		.loc 1 716 3 view .LVU314
 1463 002a E368     		ldr	r3, [r4, #12]
 1464 002c FE2B     		cmp	r3, #254
 1465 002e 23D8     		bhi	.L161
 1466              	.L153:
 717:Drivers/STM32F4xx_HAL_Driver/Src/stm32f4xx_ll_fmc.c ****   assert_param(IS_FMC_NAND_BANK(Bank));
 1467              		.loc 1 717 3 view .LVU315
 1468 0030 102E     		cmp	r6, #16
 1469 0032 27D0     		beq	.L162
 1470              		.loc 1 717 3 is_stmt 0 discriminator 1 view .LVU316
 1471 0034 B6F5807F 		cmp	r6, #256
 1472 0038 30D1     		bne	.L163
 1473              	.L156:
 718:Drivers/STM32F4xx_HAL_Driver/Src/stm32f4xx_ll_fmc.c **** 
 719:Drivers/STM32F4xx_HAL_Driver/Src/stm32f4xx_ll_fmc.c **** #if defined(FMC_Bank2_3)
 720:Drivers/STM32F4xx_HAL_Driver/Src/stm32f4xx_ll_fmc.c ****   /* Set FMC_NAND device timing parameters */
 721:Drivers/STM32F4xx_HAL_Driver/Src/stm32f4xx_ll_fmc.c ****   if (Bank == FMC_NAND_BANK2)
 722:Drivers/STM32F4xx_HAL_Driver/Src/stm32f4xx_ll_fmc.c ****   {
 723:Drivers/STM32F4xx_HAL_Driver/Src/stm32f4xx_ll_fmc.c ****     /* NAND bank 2 registers configuration */
 724:Drivers/STM32F4xx_HAL_Driver/Src/stm32f4xx_ll_fmc.c ****     WRITE_REG(Device->PATT2, (Timing->SetupTime                                             |
 725:Drivers/STM32F4xx_HAL_Driver/Src/stm32f4xx_ll_fmc.c ****                               ((Timing->WaitSetupTime) << FMC_PATT2_ATTWAIT2_Pos) |
 726:Drivers/STM32F4xx_HAL_Driver/Src/stm32f4xx_ll_fmc.c ****                               ((Timing->HoldSetupTime) << FMC_PATT2_ATTHOLD2_Pos) |
 727:Drivers/STM32F4xx_HAL_Driver/Src/stm32f4xx_ll_fmc.c ****                               ((Timing->HiZSetupTime)  << FMC_PATT2_ATTHIZ2_Pos)));
 728:Drivers/STM32F4xx_HAL_Driver/Src/stm32f4xx_ll_fmc.c ****   }
 729:Drivers/STM32F4xx_HAL_Driver/Src/stm32f4xx_ll_fmc.c ****   else
 730:Drivers/STM32F4xx_HAL_Driver/Src/stm32f4xx_ll_fmc.c ****   {
 731:Drivers/STM32F4xx_HAL_Driver/Src/stm32f4xx_ll_fmc.c ****     /* NAND bank 3 registers configuration */
 732:Drivers/STM32F4xx_HAL_Driver/Src/stm32f4xx_ll_fmc.c ****     WRITE_REG(Device->PATT3, (Timing->SetupTime                                             |
 1474              		.loc 1 732 5 is_stmt 1 view .LVU317
 1475 003a 2368     		ldr	r3, [r4]
 1476 003c 6268     		ldr	r2, [r4, #4]
 1477 003e 43EA0223 		orr	r3, r3, r2, lsl #8
 1478 0042 A268     		ldr	r2, [r4, #8]
 1479 0044 43EA0243 		orr	r3, r3, r2, lsl #16
 1480 0048 E268     		ldr	r2, [r4, #12]
 1481 004a 43EA0263 		orr	r3, r3, r2, lsl #24
 1482 004e EB62     		str	r3, [r5, #44]
 1483              	.L155:
 733:Drivers/STM32F4xx_HAL_Driver/Src/stm32f4xx_ll_fmc.c ****                               ((Timing->WaitSetupTime) << FMC_PATT2_ATTWAIT2_Pos) |
 734:Drivers/STM32F4xx_HAL_Driver/Src/stm32f4xx_ll_fmc.c ****                               ((Timing->HoldSetupTime) << FMC_PATT2_ATTHOLD2_Pos) |
ARM GAS  /var/folders/qx/2_175_4n2s19vhvtspjhb3qh0000gn/T//cc35DONQ.s 			page 41


 735:Drivers/STM32F4xx_HAL_Driver/Src/stm32f4xx_ll_fmc.c ****                               ((Timing->HiZSetupTime)  << FMC_PATT2_ATTHIZ2_Pos)));
 736:Drivers/STM32F4xx_HAL_Driver/Src/stm32f4xx_ll_fmc.c ****   }
 737:Drivers/STM32F4xx_HAL_Driver/Src/stm32f4xx_ll_fmc.c **** #else
 738:Drivers/STM32F4xx_HAL_Driver/Src/stm32f4xx_ll_fmc.c ****   /* Prevent unused argument(s) compilation warning if no assert_param check */
 739:Drivers/STM32F4xx_HAL_Driver/Src/stm32f4xx_ll_fmc.c ****   UNUSED(Bank);
 740:Drivers/STM32F4xx_HAL_Driver/Src/stm32f4xx_ll_fmc.c **** 
 741:Drivers/STM32F4xx_HAL_Driver/Src/stm32f4xx_ll_fmc.c ****   /* NAND bank 3 registers configuration */
 742:Drivers/STM32F4xx_HAL_Driver/Src/stm32f4xx_ll_fmc.c ****   Device->PATT = (Timing->SetupTime |
 743:Drivers/STM32F4xx_HAL_Driver/Src/stm32f4xx_ll_fmc.c ****                   ((Timing->WaitSetupTime) << FMC_PATT_ATTWAIT2_Pos) |
 744:Drivers/STM32F4xx_HAL_Driver/Src/stm32f4xx_ll_fmc.c ****                   ((Timing->HoldSetupTime) << FMC_PATT_ATTHOLD2_Pos) |
 745:Drivers/STM32F4xx_HAL_Driver/Src/stm32f4xx_ll_fmc.c ****                   ((Timing->HiZSetupTime)  << FMC_PATT_ATTHIZ2_Pos));
 746:Drivers/STM32F4xx_HAL_Driver/Src/stm32f4xx_ll_fmc.c **** #endif /* FMC_Bank2_3 */
 747:Drivers/STM32F4xx_HAL_Driver/Src/stm32f4xx_ll_fmc.c **** 
 748:Drivers/STM32F4xx_HAL_Driver/Src/stm32f4xx_ll_fmc.c ****   return HAL_OK;
 1484              		.loc 1 748 3 view .LVU318
 749:Drivers/STM32F4xx_HAL_Driver/Src/stm32f4xx_ll_fmc.c **** }
 1485              		.loc 1 749 1 is_stmt 0 view .LVU319
 1486 0050 0020     		movs	r0, #0
 1487 0052 70BD     		pop	{r4, r5, r6, pc}
 1488              	.LVL107:
 1489              	.L158:
 713:Drivers/STM32F4xx_HAL_Driver/Src/stm32f4xx_ll_fmc.c ****   assert_param(IS_FMC_WAIT_TIME(Timing->WaitSetupTime));
 1490              		.loc 1 713 3 discriminator 1 view .LVU320
 1491 0054 40F2C921 		movw	r1, #713
 1492 0058 1448     		ldr	r0, .L164+4
 1493 005a FFF7FEFF 		bl	assert_failed
 1494              	.LVL108:
 1495 005e DEE7     		b	.L150
 1496              	.L159:
 714:Drivers/STM32F4xx_HAL_Driver/Src/stm32f4xx_ll_fmc.c ****   assert_param(IS_FMC_HOLD_TIME(Timing->HoldSetupTime));
 1497              		.loc 1 714 3 discriminator 1 view .LVU321
 1498 0060 40F2CA21 		movw	r1, #714
 1499 0064 1148     		ldr	r0, .L164+4
 1500 0066 FFF7FEFF 		bl	assert_failed
 1501              	.LVL109:
 1502 006a DBE7     		b	.L151
 1503              	.L160:
 715:Drivers/STM32F4xx_HAL_Driver/Src/stm32f4xx_ll_fmc.c ****   assert_param(IS_FMC_HIZ_TIME(Timing->HiZSetupTime));
 1504              		.loc 1 715 3 discriminator 1 view .LVU322
 1505 006c 40F2CB21 		movw	r1, #715
 1506 0070 0E48     		ldr	r0, .L164+4
 1507 0072 FFF7FEFF 		bl	assert_failed
 1508              	.LVL110:
 1509 0076 D8E7     		b	.L152
 1510              	.L161:
 716:Drivers/STM32F4xx_HAL_Driver/Src/stm32f4xx_ll_fmc.c ****   assert_param(IS_FMC_NAND_BANK(Bank));
 1511              		.loc 1 716 3 discriminator 1 view .LVU323
 1512 0078 4FF43371 		mov	r1, #716
 1513 007c 0B48     		ldr	r0, .L164+4
 1514 007e FFF7FEFF 		bl	assert_failed
 1515              	.LVL111:
 1516 0082 D5E7     		b	.L153
 1517              	.L162:
 721:Drivers/STM32F4xx_HAL_Driver/Src/stm32f4xx_ll_fmc.c ****   {
 1518              		.loc 1 721 3 is_stmt 1 view .LVU324
 724:Drivers/STM32F4xx_HAL_Driver/Src/stm32f4xx_ll_fmc.c ****                               ((Timing->WaitSetupTime) << FMC_PATT2_ATTWAIT2_Pos) |
 1519              		.loc 1 724 5 view .LVU325
ARM GAS  /var/folders/qx/2_175_4n2s19vhvtspjhb3qh0000gn/T//cc35DONQ.s 			page 42


 1520 0084 2368     		ldr	r3, [r4]
 1521 0086 6268     		ldr	r2, [r4, #4]
 1522 0088 43EA0223 		orr	r3, r3, r2, lsl #8
 1523 008c A268     		ldr	r2, [r4, #8]
 1524 008e 43EA0243 		orr	r3, r3, r2, lsl #16
 1525 0092 E268     		ldr	r2, [r4, #12]
 1526 0094 43EA0263 		orr	r3, r3, r2, lsl #24
 1527 0098 EB60     		str	r3, [r5, #12]
 1528 009a D9E7     		b	.L155
 1529              	.L163:
 717:Drivers/STM32F4xx_HAL_Driver/Src/stm32f4xx_ll_fmc.c **** 
 1530              		.loc 1 717 3 is_stmt 0 discriminator 2 view .LVU326
 1531 009c 40F2CD21 		movw	r1, #717
 1532 00a0 0248     		ldr	r0, .L164+4
 1533 00a2 FFF7FEFF 		bl	assert_failed
 1534              	.LVL112:
 721:Drivers/STM32F4xx_HAL_Driver/Src/stm32f4xx_ll_fmc.c ****   {
 1535              		.loc 1 721 3 is_stmt 1 view .LVU327
 1536 00a6 C8E7     		b	.L156
 1537              	.L165:
 1538              		.align	2
 1539              	.L164:
 1540 00a8 600000A0 		.word	-1610612640
 1541 00ac 00000000 		.word	.LC0
 1542              		.cfi_endproc
 1543              	.LFE247:
 1545              		.section	.text.FMC_NAND_DeInit,"ax",%progbits
 1546              		.align	1
 1547              		.global	FMC_NAND_DeInit
 1548              		.syntax unified
 1549              		.thumb
 1550              		.thumb_func
 1552              	FMC_NAND_DeInit:
 1553              	.LVL113:
 1554              	.LFB248:
 750:Drivers/STM32F4xx_HAL_Driver/Src/stm32f4xx_ll_fmc.c **** 
 751:Drivers/STM32F4xx_HAL_Driver/Src/stm32f4xx_ll_fmc.c **** /**
 752:Drivers/STM32F4xx_HAL_Driver/Src/stm32f4xx_ll_fmc.c ****   * @brief  DeInitializes the FMC_NAND device
 753:Drivers/STM32F4xx_HAL_Driver/Src/stm32f4xx_ll_fmc.c ****   * @param  Device Pointer to NAND device instance
 754:Drivers/STM32F4xx_HAL_Driver/Src/stm32f4xx_ll_fmc.c ****   * @param  Bank NAND bank number
 755:Drivers/STM32F4xx_HAL_Driver/Src/stm32f4xx_ll_fmc.c ****   * @retval HAL status
 756:Drivers/STM32F4xx_HAL_Driver/Src/stm32f4xx_ll_fmc.c ****   */
 757:Drivers/STM32F4xx_HAL_Driver/Src/stm32f4xx_ll_fmc.c **** HAL_StatusTypeDef FMC_NAND_DeInit(FMC_NAND_TypeDef *Device, uint32_t Bank)
 758:Drivers/STM32F4xx_HAL_Driver/Src/stm32f4xx_ll_fmc.c **** {
 1555              		.loc 1 758 1 view -0
 1556              		.cfi_startproc
 1557              		@ args = 0, pretend = 0, frame = 0
 1558              		@ frame_needed = 0, uses_anonymous_args = 0
 1559              		.loc 1 758 1 is_stmt 0 view .LVU329
 1560 0000 38B5     		push	{r3, r4, r5, lr}
 1561              	.LCFI9:
 1562              		.cfi_def_cfa_offset 16
 1563              		.cfi_offset 3, -16
 1564              		.cfi_offset 4, -12
 1565              		.cfi_offset 5, -8
 1566              		.cfi_offset 14, -4
 1567 0002 0446     		mov	r4, r0
ARM GAS  /var/folders/qx/2_175_4n2s19vhvtspjhb3qh0000gn/T//cc35DONQ.s 			page 43


 1568 0004 0D46     		mov	r5, r1
 759:Drivers/STM32F4xx_HAL_Driver/Src/stm32f4xx_ll_fmc.c ****   /* Check the parameters */
 760:Drivers/STM32F4xx_HAL_Driver/Src/stm32f4xx_ll_fmc.c ****   assert_param(IS_FMC_NAND_DEVICE(Device));
 1569              		.loc 1 760 3 is_stmt 1 view .LVU330
 1570 0006 184B     		ldr	r3, .L177
 1571 0008 9842     		cmp	r0, r3
 1572 000a 04D0     		beq	.L167
 1573              		.loc 1 760 3 is_stmt 0 discriminator 1 view .LVU331
 1574 000c 4FF43E71 		mov	r1, #760
 1575              	.LVL114:
 1576              		.loc 1 760 3 discriminator 1 view .LVU332
 1577 0010 1648     		ldr	r0, .L177+4
 1578              	.LVL115:
 1579              		.loc 1 760 3 discriminator 1 view .LVU333
 1580 0012 FFF7FEFF 		bl	assert_failed
 1581              	.LVL116:
 1582              	.L167:
 761:Drivers/STM32F4xx_HAL_Driver/Src/stm32f4xx_ll_fmc.c ****   assert_param(IS_FMC_NAND_BANK(Bank));
 1583              		.loc 1 761 3 is_stmt 1 view .LVU334
 1584 0016 102D     		cmp	r5, #16
 1585 0018 12D0     		beq	.L174
 1586              		.loc 1 761 3 is_stmt 0 discriminator 1 view .LVU335
 1587 001a B5F5807F 		cmp	r5, #256
 1588 001e 14D1     		bne	.L175
 1589              	.L170:
 762:Drivers/STM32F4xx_HAL_Driver/Src/stm32f4xx_ll_fmc.c **** 
 763:Drivers/STM32F4xx_HAL_Driver/Src/stm32f4xx_ll_fmc.c ****   /* Disable the NAND Bank */
 764:Drivers/STM32F4xx_HAL_Driver/Src/stm32f4xx_ll_fmc.c ****   __FMC_NAND_DISABLE(Device, Bank);
 1590              		.loc 1 764 3 discriminator 2 view .LVU336
 1591 0020 236A     		ldr	r3, [r4, #32]
 1592 0022 23F00403 		bic	r3, r3, #4
 1593 0026 2362     		str	r3, [r4, #32]
 1594              	.L169:
 765:Drivers/STM32F4xx_HAL_Driver/Src/stm32f4xx_ll_fmc.c **** 
 766:Drivers/STM32F4xx_HAL_Driver/Src/stm32f4xx_ll_fmc.c ****   /* De-initialize the NAND Bank */
 767:Drivers/STM32F4xx_HAL_Driver/Src/stm32f4xx_ll_fmc.c **** #if defined(FMC_Bank2_3)
 768:Drivers/STM32F4xx_HAL_Driver/Src/stm32f4xx_ll_fmc.c ****   if (Bank == FMC_NAND_BANK2)
 1595              		.loc 1 768 3 is_stmt 1 view .LVU337
 1596              		.loc 1 768 6 is_stmt 0 view .LVU338
 1597 0028 102D     		cmp	r5, #16
 1598 002a 14D0     		beq	.L176
 769:Drivers/STM32F4xx_HAL_Driver/Src/stm32f4xx_ll_fmc.c ****   {
 770:Drivers/STM32F4xx_HAL_Driver/Src/stm32f4xx_ll_fmc.c ****     /* Set the FMC_NAND_BANK2 registers to their reset values */
 771:Drivers/STM32F4xx_HAL_Driver/Src/stm32f4xx_ll_fmc.c ****     WRITE_REG(Device->PCR2,  0x00000018U);
 772:Drivers/STM32F4xx_HAL_Driver/Src/stm32f4xx_ll_fmc.c ****     WRITE_REG(Device->SR2,   0x00000040U);
 773:Drivers/STM32F4xx_HAL_Driver/Src/stm32f4xx_ll_fmc.c ****     WRITE_REG(Device->PMEM2, 0xFCFCFCFCU);
 774:Drivers/STM32F4xx_HAL_Driver/Src/stm32f4xx_ll_fmc.c ****     WRITE_REG(Device->PATT2, 0xFCFCFCFCU);
 775:Drivers/STM32F4xx_HAL_Driver/Src/stm32f4xx_ll_fmc.c ****   }
 776:Drivers/STM32F4xx_HAL_Driver/Src/stm32f4xx_ll_fmc.c ****   /* FMC_Bank3_NAND */
 777:Drivers/STM32F4xx_HAL_Driver/Src/stm32f4xx_ll_fmc.c ****   else
 778:Drivers/STM32F4xx_HAL_Driver/Src/stm32f4xx_ll_fmc.c ****   {
 779:Drivers/STM32F4xx_HAL_Driver/Src/stm32f4xx_ll_fmc.c ****     /* Set the FMC_NAND_BANK3 registers to their reset values */
 780:Drivers/STM32F4xx_HAL_Driver/Src/stm32f4xx_ll_fmc.c ****     WRITE_REG(Device->PCR3,  0x00000018U);
 1599              		.loc 1 780 5 is_stmt 1 view .LVU339
 1600 002c 1823     		movs	r3, #24
 1601 002e 2362     		str	r3, [r4, #32]
 781:Drivers/STM32F4xx_HAL_Driver/Src/stm32f4xx_ll_fmc.c ****     WRITE_REG(Device->SR3,   0x00000040U);
ARM GAS  /var/folders/qx/2_175_4n2s19vhvtspjhb3qh0000gn/T//cc35DONQ.s 			page 44


 1602              		.loc 1 781 5 view .LVU340
 1603 0030 4023     		movs	r3, #64
 1604 0032 6362     		str	r3, [r4, #36]
 782:Drivers/STM32F4xx_HAL_Driver/Src/stm32f4xx_ll_fmc.c ****     WRITE_REG(Device->PMEM3, 0xFCFCFCFCU);
 1605              		.loc 1 782 5 view .LVU341
 1606 0034 4FF0FC33 		mov	r3, #-50529028
 1607 0038 A362     		str	r3, [r4, #40]
 783:Drivers/STM32F4xx_HAL_Driver/Src/stm32f4xx_ll_fmc.c ****     WRITE_REG(Device->PATT3, 0xFCFCFCFCU);
 1608              		.loc 1 783 5 view .LVU342
 1609 003a E362     		str	r3, [r4, #44]
 1610              	.L172:
 784:Drivers/STM32F4xx_HAL_Driver/Src/stm32f4xx_ll_fmc.c ****   }
 785:Drivers/STM32F4xx_HAL_Driver/Src/stm32f4xx_ll_fmc.c **** #else
 786:Drivers/STM32F4xx_HAL_Driver/Src/stm32f4xx_ll_fmc.c ****   /* Prevent unused argument(s) compilation warning if no assert_param check */
 787:Drivers/STM32F4xx_HAL_Driver/Src/stm32f4xx_ll_fmc.c ****   UNUSED(Bank);
 788:Drivers/STM32F4xx_HAL_Driver/Src/stm32f4xx_ll_fmc.c **** 
 789:Drivers/STM32F4xx_HAL_Driver/Src/stm32f4xx_ll_fmc.c ****   /* Set the FMC_NAND_BANK3 registers to their reset values */
 790:Drivers/STM32F4xx_HAL_Driver/Src/stm32f4xx_ll_fmc.c ****   WRITE_REG(Device->PCR,  0x00000018U);
 791:Drivers/STM32F4xx_HAL_Driver/Src/stm32f4xx_ll_fmc.c ****   WRITE_REG(Device->SR,   0x00000040U);
 792:Drivers/STM32F4xx_HAL_Driver/Src/stm32f4xx_ll_fmc.c ****   WRITE_REG(Device->PMEM, 0xFCFCFCFCU);
 793:Drivers/STM32F4xx_HAL_Driver/Src/stm32f4xx_ll_fmc.c ****   WRITE_REG(Device->PATT, 0xFCFCFCFCU);
 794:Drivers/STM32F4xx_HAL_Driver/Src/stm32f4xx_ll_fmc.c **** #endif /* FMC_Bank2_3 */
 795:Drivers/STM32F4xx_HAL_Driver/Src/stm32f4xx_ll_fmc.c **** 
 796:Drivers/STM32F4xx_HAL_Driver/Src/stm32f4xx_ll_fmc.c ****   return HAL_OK;
 1611              		.loc 1 796 3 view .LVU343
 797:Drivers/STM32F4xx_HAL_Driver/Src/stm32f4xx_ll_fmc.c **** }
 1612              		.loc 1 797 1 is_stmt 0 view .LVU344
 1613 003c 0020     		movs	r0, #0
 1614 003e 38BD     		pop	{r3, r4, r5, pc}
 1615              	.LVL117:
 1616              	.L174:
 764:Drivers/STM32F4xx_HAL_Driver/Src/stm32f4xx_ll_fmc.c **** 
 1617              		.loc 1 764 3 is_stmt 1 view .LVU345
 764:Drivers/STM32F4xx_HAL_Driver/Src/stm32f4xx_ll_fmc.c **** 
 1618              		.loc 1 764 3 is_stmt 0 discriminator 1 view .LVU346
 1619 0040 2368     		ldr	r3, [r4]
 1620 0042 23F00403 		bic	r3, r3, #4
 1621 0046 2360     		str	r3, [r4]
 1622 0048 EEE7     		b	.L169
 1623              	.L175:
 761:Drivers/STM32F4xx_HAL_Driver/Src/stm32f4xx_ll_fmc.c **** 
 1624              		.loc 1 761 3 discriminator 2 view .LVU347
 1625 004a 40F2F921 		movw	r1, #761
 1626 004e 0748     		ldr	r0, .L177+4
 1627 0050 FFF7FEFF 		bl	assert_failed
 1628              	.LVL118:
 764:Drivers/STM32F4xx_HAL_Driver/Src/stm32f4xx_ll_fmc.c **** 
 1629              		.loc 1 764 3 is_stmt 1 view .LVU348
 1630 0054 E4E7     		b	.L170
 1631              	.L176:
 771:Drivers/STM32F4xx_HAL_Driver/Src/stm32f4xx_ll_fmc.c ****     WRITE_REG(Device->SR2,   0x00000040U);
 1632              		.loc 1 771 5 view .LVU349
 1633 0056 1823     		movs	r3, #24
 1634 0058 2360     		str	r3, [r4]
 772:Drivers/STM32F4xx_HAL_Driver/Src/stm32f4xx_ll_fmc.c ****     WRITE_REG(Device->PMEM2, 0xFCFCFCFCU);
 1635              		.loc 1 772 5 view .LVU350
 1636 005a 4023     		movs	r3, #64
ARM GAS  /var/folders/qx/2_175_4n2s19vhvtspjhb3qh0000gn/T//cc35DONQ.s 			page 45


 1637 005c 6360     		str	r3, [r4, #4]
 773:Drivers/STM32F4xx_HAL_Driver/Src/stm32f4xx_ll_fmc.c ****     WRITE_REG(Device->PATT2, 0xFCFCFCFCU);
 1638              		.loc 1 773 5 view .LVU351
 1639 005e 4FF0FC33 		mov	r3, #-50529028
 1640 0062 A360     		str	r3, [r4, #8]
 774:Drivers/STM32F4xx_HAL_Driver/Src/stm32f4xx_ll_fmc.c ****   }
 1641              		.loc 1 774 5 view .LVU352
 1642 0064 E360     		str	r3, [r4, #12]
 1643 0066 E9E7     		b	.L172
 1644              	.L178:
 1645              		.align	2
 1646              	.L177:
 1647 0068 600000A0 		.word	-1610612640
 1648 006c 00000000 		.word	.LC0
 1649              		.cfi_endproc
 1650              	.LFE248:
 1652              		.section	.text.FMC_NAND_ECC_Enable,"ax",%progbits
 1653              		.align	1
 1654              		.global	FMC_NAND_ECC_Enable
 1655              		.syntax unified
 1656              		.thumb
 1657              		.thumb_func
 1659              	FMC_NAND_ECC_Enable:
 1660              	.LVL119:
 1661              	.LFB249:
 798:Drivers/STM32F4xx_HAL_Driver/Src/stm32f4xx_ll_fmc.c **** 
 799:Drivers/STM32F4xx_HAL_Driver/Src/stm32f4xx_ll_fmc.c **** /**
 800:Drivers/STM32F4xx_HAL_Driver/Src/stm32f4xx_ll_fmc.c ****   * @}
 801:Drivers/STM32F4xx_HAL_Driver/Src/stm32f4xx_ll_fmc.c ****   */
 802:Drivers/STM32F4xx_HAL_Driver/Src/stm32f4xx_ll_fmc.c **** 
 803:Drivers/STM32F4xx_HAL_Driver/Src/stm32f4xx_ll_fmc.c **** /** @defgroup HAL_FMC_NAND_Group2 Peripheral Control functions
 804:Drivers/STM32F4xx_HAL_Driver/Src/stm32f4xx_ll_fmc.c ****   *  @brief   management functions
 805:Drivers/STM32F4xx_HAL_Driver/Src/stm32f4xx_ll_fmc.c ****   *
 806:Drivers/STM32F4xx_HAL_Driver/Src/stm32f4xx_ll_fmc.c **** @verbatim
 807:Drivers/STM32F4xx_HAL_Driver/Src/stm32f4xx_ll_fmc.c ****   ==============================================================================
 808:Drivers/STM32F4xx_HAL_Driver/Src/stm32f4xx_ll_fmc.c ****                        ##### FMC_NAND Control functions #####
 809:Drivers/STM32F4xx_HAL_Driver/Src/stm32f4xx_ll_fmc.c ****   ==============================================================================
 810:Drivers/STM32F4xx_HAL_Driver/Src/stm32f4xx_ll_fmc.c ****   [..]
 811:Drivers/STM32F4xx_HAL_Driver/Src/stm32f4xx_ll_fmc.c ****     This subsection provides a set of functions allowing to control dynamically
 812:Drivers/STM32F4xx_HAL_Driver/Src/stm32f4xx_ll_fmc.c ****     the FMC NAND interface.
 813:Drivers/STM32F4xx_HAL_Driver/Src/stm32f4xx_ll_fmc.c **** 
 814:Drivers/STM32F4xx_HAL_Driver/Src/stm32f4xx_ll_fmc.c **** @endverbatim
 815:Drivers/STM32F4xx_HAL_Driver/Src/stm32f4xx_ll_fmc.c ****   * @{
 816:Drivers/STM32F4xx_HAL_Driver/Src/stm32f4xx_ll_fmc.c ****   */
 817:Drivers/STM32F4xx_HAL_Driver/Src/stm32f4xx_ll_fmc.c **** 
 818:Drivers/STM32F4xx_HAL_Driver/Src/stm32f4xx_ll_fmc.c **** 
 819:Drivers/STM32F4xx_HAL_Driver/Src/stm32f4xx_ll_fmc.c **** /**
 820:Drivers/STM32F4xx_HAL_Driver/Src/stm32f4xx_ll_fmc.c ****   * @brief  Enables dynamically FMC_NAND ECC feature.
 821:Drivers/STM32F4xx_HAL_Driver/Src/stm32f4xx_ll_fmc.c ****   * @param  Device Pointer to NAND device instance
 822:Drivers/STM32F4xx_HAL_Driver/Src/stm32f4xx_ll_fmc.c ****   * @param  Bank NAND bank number
 823:Drivers/STM32F4xx_HAL_Driver/Src/stm32f4xx_ll_fmc.c ****   * @retval HAL status
 824:Drivers/STM32F4xx_HAL_Driver/Src/stm32f4xx_ll_fmc.c ****   */
 825:Drivers/STM32F4xx_HAL_Driver/Src/stm32f4xx_ll_fmc.c **** HAL_StatusTypeDef FMC_NAND_ECC_Enable(FMC_NAND_TypeDef *Device, uint32_t Bank)
 826:Drivers/STM32F4xx_HAL_Driver/Src/stm32f4xx_ll_fmc.c **** {
 1662              		.loc 1 826 1 view -0
 1663              		.cfi_startproc
 1664              		@ args = 0, pretend = 0, frame = 0
ARM GAS  /var/folders/qx/2_175_4n2s19vhvtspjhb3qh0000gn/T//cc35DONQ.s 			page 46


 1665              		@ frame_needed = 0, uses_anonymous_args = 0
 1666              		.loc 1 826 1 is_stmt 0 view .LVU354
 1667 0000 38B5     		push	{r3, r4, r5, lr}
 1668              	.LCFI10:
 1669              		.cfi_def_cfa_offset 16
 1670              		.cfi_offset 3, -16
 1671              		.cfi_offset 4, -12
 1672              		.cfi_offset 5, -8
 1673              		.cfi_offset 14, -4
 1674 0002 0446     		mov	r4, r0
 1675 0004 0D46     		mov	r5, r1
 827:Drivers/STM32F4xx_HAL_Driver/Src/stm32f4xx_ll_fmc.c ****   /* Check the parameters */
 828:Drivers/STM32F4xx_HAL_Driver/Src/stm32f4xx_ll_fmc.c ****   assert_param(IS_FMC_NAND_DEVICE(Device));
 1676              		.loc 1 828 3 is_stmt 1 view .LVU355
 1677 0006 0F4B     		ldr	r3, .L187
 1678 0008 9842     		cmp	r0, r3
 1679 000a 04D0     		beq	.L180
 1680              		.loc 1 828 3 is_stmt 0 discriminator 1 view .LVU356
 1681 000c 4FF44F71 		mov	r1, #828
 1682              	.LVL120:
 1683              		.loc 1 828 3 discriminator 1 view .LVU357
 1684 0010 0D48     		ldr	r0, .L187+4
 1685              	.LVL121:
 1686              		.loc 1 828 3 discriminator 1 view .LVU358
 1687 0012 FFF7FEFF 		bl	assert_failed
 1688              	.LVL122:
 1689              	.L180:
 829:Drivers/STM32F4xx_HAL_Driver/Src/stm32f4xx_ll_fmc.c ****   assert_param(IS_FMC_NAND_BANK(Bank));
 1690              		.loc 1 829 3 is_stmt 1 view .LVU359
 1691 0016 102D     		cmp	r5, #16
 1692 0018 08D0     		beq	.L185
 1693              		.loc 1 829 3 is_stmt 0 discriminator 1 view .LVU360
 1694 001a B5F5807F 		cmp	r5, #256
 1695 001e 0AD1     		bne	.L186
 1696              	.L183:
 830:Drivers/STM32F4xx_HAL_Driver/Src/stm32f4xx_ll_fmc.c **** 
 831:Drivers/STM32F4xx_HAL_Driver/Src/stm32f4xx_ll_fmc.c ****   /* Enable ECC feature */
 832:Drivers/STM32F4xx_HAL_Driver/Src/stm32f4xx_ll_fmc.c **** #if defined(FMC_Bank2_3)
 833:Drivers/STM32F4xx_HAL_Driver/Src/stm32f4xx_ll_fmc.c ****   if (Bank == FMC_NAND_BANK2)
 834:Drivers/STM32F4xx_HAL_Driver/Src/stm32f4xx_ll_fmc.c ****   {
 835:Drivers/STM32F4xx_HAL_Driver/Src/stm32f4xx_ll_fmc.c ****     SET_BIT(Device->PCR2, FMC_PCR2_ECCEN);
 836:Drivers/STM32F4xx_HAL_Driver/Src/stm32f4xx_ll_fmc.c ****   }
 837:Drivers/STM32F4xx_HAL_Driver/Src/stm32f4xx_ll_fmc.c ****   else
 838:Drivers/STM32F4xx_HAL_Driver/Src/stm32f4xx_ll_fmc.c ****   {
 839:Drivers/STM32F4xx_HAL_Driver/Src/stm32f4xx_ll_fmc.c ****     SET_BIT(Device->PCR3, FMC_PCR2_ECCEN);
 1697              		.loc 1 839 5 is_stmt 1 view .LVU361
 1698 0020 236A     		ldr	r3, [r4, #32]
 1699 0022 43F04003 		orr	r3, r3, #64
 1700 0026 2362     		str	r3, [r4, #32]
 1701              	.L182:
 840:Drivers/STM32F4xx_HAL_Driver/Src/stm32f4xx_ll_fmc.c ****   }
 841:Drivers/STM32F4xx_HAL_Driver/Src/stm32f4xx_ll_fmc.c **** #else
 842:Drivers/STM32F4xx_HAL_Driver/Src/stm32f4xx_ll_fmc.c ****   /* Prevent unused argument(s) compilation warning if no assert_param check */
 843:Drivers/STM32F4xx_HAL_Driver/Src/stm32f4xx_ll_fmc.c ****   UNUSED(Bank);
 844:Drivers/STM32F4xx_HAL_Driver/Src/stm32f4xx_ll_fmc.c **** 
 845:Drivers/STM32F4xx_HAL_Driver/Src/stm32f4xx_ll_fmc.c ****   SET_BIT(Device->PCR, FMC_PCR_ECCEN);
 846:Drivers/STM32F4xx_HAL_Driver/Src/stm32f4xx_ll_fmc.c **** #endif /* FMC_Bank2_3 */
ARM GAS  /var/folders/qx/2_175_4n2s19vhvtspjhb3qh0000gn/T//cc35DONQ.s 			page 47


 847:Drivers/STM32F4xx_HAL_Driver/Src/stm32f4xx_ll_fmc.c **** 
 848:Drivers/STM32F4xx_HAL_Driver/Src/stm32f4xx_ll_fmc.c ****   return HAL_OK;
 1702              		.loc 1 848 3 view .LVU362
 849:Drivers/STM32F4xx_HAL_Driver/Src/stm32f4xx_ll_fmc.c **** }
 1703              		.loc 1 849 1 is_stmt 0 view .LVU363
 1704 0028 0020     		movs	r0, #0
 1705 002a 38BD     		pop	{r3, r4, r5, pc}
 1706              	.LVL123:
 1707              	.L185:
 833:Drivers/STM32F4xx_HAL_Driver/Src/stm32f4xx_ll_fmc.c ****   {
 1708              		.loc 1 833 3 is_stmt 1 view .LVU364
 835:Drivers/STM32F4xx_HAL_Driver/Src/stm32f4xx_ll_fmc.c ****   }
 1709              		.loc 1 835 5 view .LVU365
 1710 002c 2368     		ldr	r3, [r4]
 1711 002e 43F04003 		orr	r3, r3, #64
 1712 0032 2360     		str	r3, [r4]
 1713 0034 F8E7     		b	.L182
 1714              	.L186:
 829:Drivers/STM32F4xx_HAL_Driver/Src/stm32f4xx_ll_fmc.c **** 
 1715              		.loc 1 829 3 is_stmt 0 discriminator 2 view .LVU366
 1716 0036 40F23D31 		movw	r1, #829
 1717 003a 0348     		ldr	r0, .L187+4
 1718 003c FFF7FEFF 		bl	assert_failed
 1719              	.LVL124:
 833:Drivers/STM32F4xx_HAL_Driver/Src/stm32f4xx_ll_fmc.c ****   {
 1720              		.loc 1 833 3 is_stmt 1 view .LVU367
 1721 0040 EEE7     		b	.L183
 1722              	.L188:
 1723 0042 00BF     		.align	2
 1724              	.L187:
 1725 0044 600000A0 		.word	-1610612640
 1726 0048 00000000 		.word	.LC0
 1727              		.cfi_endproc
 1728              	.LFE249:
 1730              		.section	.text.FMC_NAND_ECC_Disable,"ax",%progbits
 1731              		.align	1
 1732              		.global	FMC_NAND_ECC_Disable
 1733              		.syntax unified
 1734              		.thumb
 1735              		.thumb_func
 1737              	FMC_NAND_ECC_Disable:
 1738              	.LVL125:
 1739              	.LFB250:
 850:Drivers/STM32F4xx_HAL_Driver/Src/stm32f4xx_ll_fmc.c **** 
 851:Drivers/STM32F4xx_HAL_Driver/Src/stm32f4xx_ll_fmc.c **** 
 852:Drivers/STM32F4xx_HAL_Driver/Src/stm32f4xx_ll_fmc.c **** /**
 853:Drivers/STM32F4xx_HAL_Driver/Src/stm32f4xx_ll_fmc.c ****   * @brief  Disables dynamically FMC_NAND ECC feature.
 854:Drivers/STM32F4xx_HAL_Driver/Src/stm32f4xx_ll_fmc.c ****   * @param  Device Pointer to NAND device instance
 855:Drivers/STM32F4xx_HAL_Driver/Src/stm32f4xx_ll_fmc.c ****   * @param  Bank NAND bank number
 856:Drivers/STM32F4xx_HAL_Driver/Src/stm32f4xx_ll_fmc.c ****   * @retval HAL status
 857:Drivers/STM32F4xx_HAL_Driver/Src/stm32f4xx_ll_fmc.c ****   */
 858:Drivers/STM32F4xx_HAL_Driver/Src/stm32f4xx_ll_fmc.c **** HAL_StatusTypeDef FMC_NAND_ECC_Disable(FMC_NAND_TypeDef *Device, uint32_t Bank)
 859:Drivers/STM32F4xx_HAL_Driver/Src/stm32f4xx_ll_fmc.c **** {
 1740              		.loc 1 859 1 view -0
 1741              		.cfi_startproc
 1742              		@ args = 0, pretend = 0, frame = 0
 1743              		@ frame_needed = 0, uses_anonymous_args = 0
ARM GAS  /var/folders/qx/2_175_4n2s19vhvtspjhb3qh0000gn/T//cc35DONQ.s 			page 48


 1744              		.loc 1 859 1 is_stmt 0 view .LVU369
 1745 0000 38B5     		push	{r3, r4, r5, lr}
 1746              	.LCFI11:
 1747              		.cfi_def_cfa_offset 16
 1748              		.cfi_offset 3, -16
 1749              		.cfi_offset 4, -12
 1750              		.cfi_offset 5, -8
 1751              		.cfi_offset 14, -4
 1752 0002 0446     		mov	r4, r0
 1753 0004 0D46     		mov	r5, r1
 860:Drivers/STM32F4xx_HAL_Driver/Src/stm32f4xx_ll_fmc.c ****   /* Check the parameters */
 861:Drivers/STM32F4xx_HAL_Driver/Src/stm32f4xx_ll_fmc.c ****   assert_param(IS_FMC_NAND_DEVICE(Device));
 1754              		.loc 1 861 3 is_stmt 1 view .LVU370
 1755 0006 0F4B     		ldr	r3, .L197
 1756 0008 9842     		cmp	r0, r3
 1757 000a 04D0     		beq	.L190
 1758              		.loc 1 861 3 is_stmt 0 discriminator 1 view .LVU371
 1759 000c 40F25D31 		movw	r1, #861
 1760              	.LVL126:
 1761              		.loc 1 861 3 discriminator 1 view .LVU372
 1762 0010 0D48     		ldr	r0, .L197+4
 1763              	.LVL127:
 1764              		.loc 1 861 3 discriminator 1 view .LVU373
 1765 0012 FFF7FEFF 		bl	assert_failed
 1766              	.LVL128:
 1767              	.L190:
 862:Drivers/STM32F4xx_HAL_Driver/Src/stm32f4xx_ll_fmc.c ****   assert_param(IS_FMC_NAND_BANK(Bank));
 1768              		.loc 1 862 3 is_stmt 1 view .LVU374
 1769 0016 102D     		cmp	r5, #16
 1770 0018 08D0     		beq	.L195
 1771              		.loc 1 862 3 is_stmt 0 discriminator 1 view .LVU375
 1772 001a B5F5807F 		cmp	r5, #256
 1773 001e 0AD1     		bne	.L196
 1774              	.L193:
 863:Drivers/STM32F4xx_HAL_Driver/Src/stm32f4xx_ll_fmc.c **** 
 864:Drivers/STM32F4xx_HAL_Driver/Src/stm32f4xx_ll_fmc.c ****   /* Disable ECC feature */
 865:Drivers/STM32F4xx_HAL_Driver/Src/stm32f4xx_ll_fmc.c **** #if defined(FMC_Bank2_3)
 866:Drivers/STM32F4xx_HAL_Driver/Src/stm32f4xx_ll_fmc.c ****   if (Bank == FMC_NAND_BANK2)
 867:Drivers/STM32F4xx_HAL_Driver/Src/stm32f4xx_ll_fmc.c ****   {
 868:Drivers/STM32F4xx_HAL_Driver/Src/stm32f4xx_ll_fmc.c ****     CLEAR_BIT(Device->PCR2, FMC_PCR2_ECCEN);
 869:Drivers/STM32F4xx_HAL_Driver/Src/stm32f4xx_ll_fmc.c ****   }
 870:Drivers/STM32F4xx_HAL_Driver/Src/stm32f4xx_ll_fmc.c ****   else
 871:Drivers/STM32F4xx_HAL_Driver/Src/stm32f4xx_ll_fmc.c ****   {
 872:Drivers/STM32F4xx_HAL_Driver/Src/stm32f4xx_ll_fmc.c ****     CLEAR_BIT(Device->PCR3, FMC_PCR2_ECCEN);
 1775              		.loc 1 872 5 is_stmt 1 view .LVU376
 1776 0020 236A     		ldr	r3, [r4, #32]
 1777 0022 23F04003 		bic	r3, r3, #64
 1778 0026 2362     		str	r3, [r4, #32]
 1779              	.L192:
 873:Drivers/STM32F4xx_HAL_Driver/Src/stm32f4xx_ll_fmc.c ****   }
 874:Drivers/STM32F4xx_HAL_Driver/Src/stm32f4xx_ll_fmc.c **** #else
 875:Drivers/STM32F4xx_HAL_Driver/Src/stm32f4xx_ll_fmc.c ****   /* Prevent unused argument(s) compilation warning if no assert_param check */
 876:Drivers/STM32F4xx_HAL_Driver/Src/stm32f4xx_ll_fmc.c ****   UNUSED(Bank);
 877:Drivers/STM32F4xx_HAL_Driver/Src/stm32f4xx_ll_fmc.c **** 
 878:Drivers/STM32F4xx_HAL_Driver/Src/stm32f4xx_ll_fmc.c ****   CLEAR_BIT(Device->PCR, FMC_PCR_ECCEN);
 879:Drivers/STM32F4xx_HAL_Driver/Src/stm32f4xx_ll_fmc.c **** #endif /* FMC_Bank2_3 */
 880:Drivers/STM32F4xx_HAL_Driver/Src/stm32f4xx_ll_fmc.c **** 
ARM GAS  /var/folders/qx/2_175_4n2s19vhvtspjhb3qh0000gn/T//cc35DONQ.s 			page 49


 881:Drivers/STM32F4xx_HAL_Driver/Src/stm32f4xx_ll_fmc.c ****   return HAL_OK;
 1780              		.loc 1 881 3 view .LVU377
 882:Drivers/STM32F4xx_HAL_Driver/Src/stm32f4xx_ll_fmc.c **** }
 1781              		.loc 1 882 1 is_stmt 0 view .LVU378
 1782 0028 0020     		movs	r0, #0
 1783 002a 38BD     		pop	{r3, r4, r5, pc}
 1784              	.LVL129:
 1785              	.L195:
 866:Drivers/STM32F4xx_HAL_Driver/Src/stm32f4xx_ll_fmc.c ****   {
 1786              		.loc 1 866 3 is_stmt 1 view .LVU379
 868:Drivers/STM32F4xx_HAL_Driver/Src/stm32f4xx_ll_fmc.c ****   }
 1787              		.loc 1 868 5 view .LVU380
 1788 002c 2368     		ldr	r3, [r4]
 1789 002e 23F04003 		bic	r3, r3, #64
 1790 0032 2360     		str	r3, [r4]
 1791 0034 F8E7     		b	.L192
 1792              	.L196:
 862:Drivers/STM32F4xx_HAL_Driver/Src/stm32f4xx_ll_fmc.c **** 
 1793              		.loc 1 862 3 is_stmt 0 discriminator 2 view .LVU381
 1794 0036 40F25E31 		movw	r1, #862
 1795 003a 0348     		ldr	r0, .L197+4
 1796 003c FFF7FEFF 		bl	assert_failed
 1797              	.LVL130:
 866:Drivers/STM32F4xx_HAL_Driver/Src/stm32f4xx_ll_fmc.c ****   {
 1798              		.loc 1 866 3 is_stmt 1 view .LVU382
 1799 0040 EEE7     		b	.L193
 1800              	.L198:
 1801 0042 00BF     		.align	2
 1802              	.L197:
 1803 0044 600000A0 		.word	-1610612640
 1804 0048 00000000 		.word	.LC0
 1805              		.cfi_endproc
 1806              	.LFE250:
 1808              		.section	.text.FMC_NAND_GetECC,"ax",%progbits
 1809              		.align	1
 1810              		.global	FMC_NAND_GetECC
 1811              		.syntax unified
 1812              		.thumb
 1813              		.thumb_func
 1815              	FMC_NAND_GetECC:
 1816              	.LVL131:
 1817              	.LFB251:
 883:Drivers/STM32F4xx_HAL_Driver/Src/stm32f4xx_ll_fmc.c **** 
 884:Drivers/STM32F4xx_HAL_Driver/Src/stm32f4xx_ll_fmc.c **** /**
 885:Drivers/STM32F4xx_HAL_Driver/Src/stm32f4xx_ll_fmc.c ****   * @brief  Disables dynamically FMC_NAND ECC feature.
 886:Drivers/STM32F4xx_HAL_Driver/Src/stm32f4xx_ll_fmc.c ****   * @param  Device Pointer to NAND device instance
 887:Drivers/STM32F4xx_HAL_Driver/Src/stm32f4xx_ll_fmc.c ****   * @param  ECCval Pointer to ECC value
 888:Drivers/STM32F4xx_HAL_Driver/Src/stm32f4xx_ll_fmc.c ****   * @param  Bank NAND bank number
 889:Drivers/STM32F4xx_HAL_Driver/Src/stm32f4xx_ll_fmc.c ****   * @param  Timeout Timeout wait value
 890:Drivers/STM32F4xx_HAL_Driver/Src/stm32f4xx_ll_fmc.c ****   * @retval HAL status
 891:Drivers/STM32F4xx_HAL_Driver/Src/stm32f4xx_ll_fmc.c ****   */
 892:Drivers/STM32F4xx_HAL_Driver/Src/stm32f4xx_ll_fmc.c **** HAL_StatusTypeDef FMC_NAND_GetECC(const FMC_NAND_TypeDef *Device, uint32_t *ECCval, uint32_t Bank,
 893:Drivers/STM32F4xx_HAL_Driver/Src/stm32f4xx_ll_fmc.c ****                                   uint32_t Timeout)
 894:Drivers/STM32F4xx_HAL_Driver/Src/stm32f4xx_ll_fmc.c **** {
 1818              		.loc 1 894 1 view -0
 1819              		.cfi_startproc
 1820              		@ args = 0, pretend = 0, frame = 0
ARM GAS  /var/folders/qx/2_175_4n2s19vhvtspjhb3qh0000gn/T//cc35DONQ.s 			page 50


 1821              		@ frame_needed = 0, uses_anonymous_args = 0
 1822              		.loc 1 894 1 is_stmt 0 view .LVU384
 1823 0000 2DE9F843 		push	{r3, r4, r5, r6, r7, r8, r9, lr}
 1824              	.LCFI12:
 1825              		.cfi_def_cfa_offset 32
 1826              		.cfi_offset 3, -32
 1827              		.cfi_offset 4, -28
 1828              		.cfi_offset 5, -24
 1829              		.cfi_offset 6, -20
 1830              		.cfi_offset 7, -16
 1831              		.cfi_offset 8, -12
 1832              		.cfi_offset 9, -8
 1833              		.cfi_offset 14, -4
 1834 0004 0646     		mov	r6, r0
 1835 0006 8846     		mov	r8, r1
 1836 0008 1546     		mov	r5, r2
 1837 000a 1F46     		mov	r7, r3
 895:Drivers/STM32F4xx_HAL_Driver/Src/stm32f4xx_ll_fmc.c ****   uint32_t tickstart;
 1838              		.loc 1 895 3 is_stmt 1 view .LVU385
 896:Drivers/STM32F4xx_HAL_Driver/Src/stm32f4xx_ll_fmc.c **** 
 897:Drivers/STM32F4xx_HAL_Driver/Src/stm32f4xx_ll_fmc.c ****   /* Check the parameters */
 898:Drivers/STM32F4xx_HAL_Driver/Src/stm32f4xx_ll_fmc.c ****   assert_param(IS_FMC_NAND_DEVICE(Device));
 1839              		.loc 1 898 3 view .LVU386
 1840 000c 204B     		ldr	r3, .L216
 1841              	.LVL132:
 1842              		.loc 1 898 3 is_stmt 0 view .LVU387
 1843 000e 9842     		cmp	r0, r3
 1844 0010 04D0     		beq	.L200
 1845              		.loc 1 898 3 discriminator 1 view .LVU388
 1846 0012 40F28231 		movw	r1, #898
 1847              	.LVL133:
 1848              		.loc 1 898 3 discriminator 1 view .LVU389
 1849 0016 1F48     		ldr	r0, .L216+4
 1850              	.LVL134:
 1851              		.loc 1 898 3 discriminator 1 view .LVU390
 1852 0018 FFF7FEFF 		bl	assert_failed
 1853              	.LVL135:
 1854              	.L200:
 899:Drivers/STM32F4xx_HAL_Driver/Src/stm32f4xx_ll_fmc.c ****   assert_param(IS_FMC_NAND_BANK(Bank));
 1855              		.loc 1 899 3 is_stmt 1 view .LVU391
 1856 001c 102D     		cmp	r5, #16
 1857 001e 02D0     		beq	.L201
 1858              		.loc 1 899 3 is_stmt 0 discriminator 1 view .LVU392
 1859 0020 B5F5807F 		cmp	r5, #256
 1860 0024 03D1     		bne	.L212
 1861              	.L201:
 900:Drivers/STM32F4xx_HAL_Driver/Src/stm32f4xx_ll_fmc.c **** 
 901:Drivers/STM32F4xx_HAL_Driver/Src/stm32f4xx_ll_fmc.c ****   /* Get tick */
 902:Drivers/STM32F4xx_HAL_Driver/Src/stm32f4xx_ll_fmc.c ****   tickstart = HAL_GetTick();
 1862              		.loc 1 902 3 is_stmt 1 view .LVU393
 1863              		.loc 1 902 15 is_stmt 0 view .LVU394
 1864 0026 FFF7FEFF 		bl	HAL_GetTick
 1865              	.LVL136:
 1866 002a 8146     		mov	r9, r0
 1867              	.LVL137:
 903:Drivers/STM32F4xx_HAL_Driver/Src/stm32f4xx_ll_fmc.c **** 
 904:Drivers/STM32F4xx_HAL_Driver/Src/stm32f4xx_ll_fmc.c ****   /* Wait until FIFO is empty */
ARM GAS  /var/folders/qx/2_175_4n2s19vhvtspjhb3qh0000gn/T//cc35DONQ.s 			page 51


 905:Drivers/STM32F4xx_HAL_Driver/Src/stm32f4xx_ll_fmc.c ****   while (__FMC_NAND_GET_FLAG(Device, Bank, FMC_FLAG_FEMPT) == RESET)
 1868              		.loc 1 905 3 is_stmt 1 view .LVU395
 1869              		.loc 1 905 9 is_stmt 0 view .LVU396
 1870 002c 18E0     		b	.L203
 1871              	.LVL138:
 1872              	.L212:
 899:Drivers/STM32F4xx_HAL_Driver/Src/stm32f4xx_ll_fmc.c **** 
 1873              		.loc 1 899 3 discriminator 2 view .LVU397
 1874 002e 40F28331 		movw	r1, #899
 1875 0032 1848     		ldr	r0, .L216+4
 1876 0034 FFF7FEFF 		bl	assert_failed
 1877              	.LVL139:
 1878 0038 F5E7     		b	.L201
 1879              	.LVL140:
 1880              	.L214:
 906:Drivers/STM32F4xx_HAL_Driver/Src/stm32f4xx_ll_fmc.c ****   {
 907:Drivers/STM32F4xx_HAL_Driver/Src/stm32f4xx_ll_fmc.c ****     /* Check for the Timeout */
 908:Drivers/STM32F4xx_HAL_Driver/Src/stm32f4xx_ll_fmc.c ****     if (Timeout != HAL_MAX_DELAY)
 909:Drivers/STM32F4xx_HAL_Driver/Src/stm32f4xx_ll_fmc.c ****     {
 910:Drivers/STM32F4xx_HAL_Driver/Src/stm32f4xx_ll_fmc.c ****       if (((HAL_GetTick() - tickstart) > Timeout) || (Timeout == 0U))
 1881              		.loc 1 910 7 is_stmt 1 view .LVU398
 1882              		.loc 1 910 13 is_stmt 0 view .LVU399
 1883 003a FFF7FEFF 		bl	HAL_GetTick
 1884              	.LVL141:
 1885              		.loc 1 910 27 discriminator 1 view .LVU400
 1886 003e A0EB0900 		sub	r0, r0, r9
 1887              		.loc 1 910 10 discriminator 1 view .LVU401
 1888 0042 B842     		cmp	r0, r7
 1889 0044 22D8     		bhi	.L209
 1890              		.loc 1 910 51 discriminator 1 view .LVU402
 1891 0046 5FB9     		cbnz	r7, .L203
 911:Drivers/STM32F4xx_HAL_Driver/Src/stm32f4xx_ll_fmc.c ****       {
 912:Drivers/STM32F4xx_HAL_Driver/Src/stm32f4xx_ll_fmc.c ****         return HAL_TIMEOUT;
 1892              		.loc 1 912 16 view .LVU403
 1893 0048 0320     		movs	r0, #3
 1894 004a 18E0     		b	.L204
 1895              	.L205:
 905:Drivers/STM32F4xx_HAL_Driver/Src/stm32f4xx_ll_fmc.c ****   {
 1896              		.loc 1 905 10 discriminator 2 view .LVU404
 1897 004c 746A     		ldr	r4, [r6, #36]
 1898 004e 04F04004 		and	r4, r4, #64
 905:Drivers/STM32F4xx_HAL_Driver/Src/stm32f4xx_ll_fmc.c ****   {
 1899              		.loc 1 905 60 discriminator 2 view .LVU405
 1900 0052 B4FA84F4 		clz	r4, r4
 1901 0056 6409     		lsrs	r4, r4, #5
 1902              	.L206:
 905:Drivers/STM32F4xx_HAL_Driver/Src/stm32f4xx_ll_fmc.c ****   {
 1903              		.loc 1 905 60 discriminator 4 view .LVU406
 1904 0058 5CB1     		cbz	r4, .L213
 908:Drivers/STM32F4xx_HAL_Driver/Src/stm32f4xx_ll_fmc.c ****     {
 1905              		.loc 1 908 5 is_stmt 1 view .LVU407
 908:Drivers/STM32F4xx_HAL_Driver/Src/stm32f4xx_ll_fmc.c ****     {
 1906              		.loc 1 908 8 is_stmt 0 view .LVU408
 1907 005a B7F1FF3F 		cmp	r7, #-1
 1908 005e ECD1     		bne	.L214
 1909              	.L203:
 905:Drivers/STM32F4xx_HAL_Driver/Src/stm32f4xx_ll_fmc.c ****   {
ARM GAS  /var/folders/qx/2_175_4n2s19vhvtspjhb3qh0000gn/T//cc35DONQ.s 			page 52


 1910              		.loc 1 905 60 is_stmt 1 view .LVU409
 1911 0060 102D     		cmp	r5, #16
 1912 0062 F3D1     		bne	.L205
 905:Drivers/STM32F4xx_HAL_Driver/Src/stm32f4xx_ll_fmc.c ****   {
 1913              		.loc 1 905 10 is_stmt 0 discriminator 1 view .LVU410
 1914 0064 7468     		ldr	r4, [r6, #4]
 1915 0066 04F04004 		and	r4, r4, #64
 905:Drivers/STM32F4xx_HAL_Driver/Src/stm32f4xx_ll_fmc.c ****   {
 1916              		.loc 1 905 60 discriminator 1 view .LVU411
 1917 006a B4FA84F4 		clz	r4, r4
 1918 006e 6409     		lsrs	r4, r4, #5
 1919 0070 F2E7     		b	.L206
 1920              	.L213:
 913:Drivers/STM32F4xx_HAL_Driver/Src/stm32f4xx_ll_fmc.c ****       }
 914:Drivers/STM32F4xx_HAL_Driver/Src/stm32f4xx_ll_fmc.c ****     }
 915:Drivers/STM32F4xx_HAL_Driver/Src/stm32f4xx_ll_fmc.c ****   }
 916:Drivers/STM32F4xx_HAL_Driver/Src/stm32f4xx_ll_fmc.c **** 
 917:Drivers/STM32F4xx_HAL_Driver/Src/stm32f4xx_ll_fmc.c **** #if defined(FMC_Bank2_3)
 918:Drivers/STM32F4xx_HAL_Driver/Src/stm32f4xx_ll_fmc.c ****   if (Bank == FMC_NAND_BANK2)
 1921              		.loc 1 918 3 is_stmt 1 view .LVU412
 1922              		.loc 1 918 6 is_stmt 0 view .LVU413
 1923 0072 102D     		cmp	r5, #16
 1924 0074 05D0     		beq	.L215
 919:Drivers/STM32F4xx_HAL_Driver/Src/stm32f4xx_ll_fmc.c ****   {
 920:Drivers/STM32F4xx_HAL_Driver/Src/stm32f4xx_ll_fmc.c ****     /* Get the ECCR2 register value */
 921:Drivers/STM32F4xx_HAL_Driver/Src/stm32f4xx_ll_fmc.c ****     *ECCval = (uint32_t)Device->ECCR2;
 922:Drivers/STM32F4xx_HAL_Driver/Src/stm32f4xx_ll_fmc.c ****   }
 923:Drivers/STM32F4xx_HAL_Driver/Src/stm32f4xx_ll_fmc.c ****   else
 924:Drivers/STM32F4xx_HAL_Driver/Src/stm32f4xx_ll_fmc.c ****   {
 925:Drivers/STM32F4xx_HAL_Driver/Src/stm32f4xx_ll_fmc.c ****     /* Get the ECCR3 register value */
 926:Drivers/STM32F4xx_HAL_Driver/Src/stm32f4xx_ll_fmc.c ****     *ECCval = (uint32_t)Device->ECCR3;
 1925              		.loc 1 926 5 is_stmt 1 view .LVU414
 1926              		.loc 1 926 31 is_stmt 0 view .LVU415
 1927 0076 736B     		ldr	r3, [r6, #52]
 1928              		.loc 1 926 13 view .LVU416
 1929 0078 C8F80030 		str	r3, [r8]
 927:Drivers/STM32F4xx_HAL_Driver/Src/stm32f4xx_ll_fmc.c ****   }
 928:Drivers/STM32F4xx_HAL_Driver/Src/stm32f4xx_ll_fmc.c **** #else
 929:Drivers/STM32F4xx_HAL_Driver/Src/stm32f4xx_ll_fmc.c ****   /* Prevent unused argument(s) compilation warning if no assert_param check */
 930:Drivers/STM32F4xx_HAL_Driver/Src/stm32f4xx_ll_fmc.c ****   UNUSED(Bank);
 931:Drivers/STM32F4xx_HAL_Driver/Src/stm32f4xx_ll_fmc.c **** 
 932:Drivers/STM32F4xx_HAL_Driver/Src/stm32f4xx_ll_fmc.c ****   /* Get the ECCR register value */
 933:Drivers/STM32F4xx_HAL_Driver/Src/stm32f4xx_ll_fmc.c ****   *ECCval = (uint32_t)Device->ECCR;
 934:Drivers/STM32F4xx_HAL_Driver/Src/stm32f4xx_ll_fmc.c **** #endif /* FMC_Bank2_3 */
 935:Drivers/STM32F4xx_HAL_Driver/Src/stm32f4xx_ll_fmc.c **** 
 936:Drivers/STM32F4xx_HAL_Driver/Src/stm32f4xx_ll_fmc.c ****   return HAL_OK;
 1930              		.loc 1 936 10 view .LVU417
 1931 007c 0020     		movs	r0, #0
 1932              	.L204:
 937:Drivers/STM32F4xx_HAL_Driver/Src/stm32f4xx_ll_fmc.c **** }
 1933              		.loc 1 937 1 view .LVU418
 1934 007e BDE8F883 		pop	{r3, r4, r5, r6, r7, r8, r9, pc}
 1935              	.LVL142:
 1936              	.L215:
 921:Drivers/STM32F4xx_HAL_Driver/Src/stm32f4xx_ll_fmc.c ****   }
 1937              		.loc 1 921 5 is_stmt 1 view .LVU419
 921:Drivers/STM32F4xx_HAL_Driver/Src/stm32f4xx_ll_fmc.c ****   }
ARM GAS  /var/folders/qx/2_175_4n2s19vhvtspjhb3qh0000gn/T//cc35DONQ.s 			page 53


 1938              		.loc 1 921 31 is_stmt 0 view .LVU420
 1939 0082 7369     		ldr	r3, [r6, #20]
 921:Drivers/STM32F4xx_HAL_Driver/Src/stm32f4xx_ll_fmc.c ****   }
 1940              		.loc 1 921 13 view .LVU421
 1941 0084 C8F80030 		str	r3, [r8]
 936:Drivers/STM32F4xx_HAL_Driver/Src/stm32f4xx_ll_fmc.c **** }
 1942              		.loc 1 936 10 view .LVU422
 1943 0088 0020     		movs	r0, #0
 1944 008a F8E7     		b	.L204
 1945              	.L209:
 912:Drivers/STM32F4xx_HAL_Driver/Src/stm32f4xx_ll_fmc.c ****       }
 1946              		.loc 1 912 16 view .LVU423
 1947 008c 0320     		movs	r0, #3
 1948 008e F6E7     		b	.L204
 1949              	.L217:
 1950              		.align	2
 1951              	.L216:
 1952 0090 600000A0 		.word	-1610612640
 1953 0094 00000000 		.word	.LC0
 1954              		.cfi_endproc
 1955              	.LFE251:
 1957              		.section	.text.FMC_PCCARD_Init,"ax",%progbits
 1958              		.align	1
 1959              		.global	FMC_PCCARD_Init
 1960              		.syntax unified
 1961              		.thumb
 1962              		.thumb_func
 1964              	FMC_PCCARD_Init:
 1965              	.LVL143:
 1966              	.LFB252:
 938:Drivers/STM32F4xx_HAL_Driver/Src/stm32f4xx_ll_fmc.c **** 
 939:Drivers/STM32F4xx_HAL_Driver/Src/stm32f4xx_ll_fmc.c **** /**
 940:Drivers/STM32F4xx_HAL_Driver/Src/stm32f4xx_ll_fmc.c ****   * @}
 941:Drivers/STM32F4xx_HAL_Driver/Src/stm32f4xx_ll_fmc.c ****   */
 942:Drivers/STM32F4xx_HAL_Driver/Src/stm32f4xx_ll_fmc.c **** #endif /* FMC_Bank3) || defined(FMC_Bank2_3 */
 943:Drivers/STM32F4xx_HAL_Driver/Src/stm32f4xx_ll_fmc.c **** 
 944:Drivers/STM32F4xx_HAL_Driver/Src/stm32f4xx_ll_fmc.c **** #if defined(FMC_Bank4)
 945:Drivers/STM32F4xx_HAL_Driver/Src/stm32f4xx_ll_fmc.c **** 
 946:Drivers/STM32F4xx_HAL_Driver/Src/stm32f4xx_ll_fmc.c **** /** @addtogroup FMC_LL_PCCARD
 947:Drivers/STM32F4xx_HAL_Driver/Src/stm32f4xx_ll_fmc.c ****   * @brief    PCCARD Controller functions
 948:Drivers/STM32F4xx_HAL_Driver/Src/stm32f4xx_ll_fmc.c ****   *
 949:Drivers/STM32F4xx_HAL_Driver/Src/stm32f4xx_ll_fmc.c ****   @verbatim
 950:Drivers/STM32F4xx_HAL_Driver/Src/stm32f4xx_ll_fmc.c ****   ==============================================================================
 951:Drivers/STM32F4xx_HAL_Driver/Src/stm32f4xx_ll_fmc.c ****                     ##### How to use PCCARD device driver #####
 952:Drivers/STM32F4xx_HAL_Driver/Src/stm32f4xx_ll_fmc.c ****   ==============================================================================
 953:Drivers/STM32F4xx_HAL_Driver/Src/stm32f4xx_ll_fmc.c ****   [..]
 954:Drivers/STM32F4xx_HAL_Driver/Src/stm32f4xx_ll_fmc.c ****     This driver contains a set of APIs to interface with the FMC PCCARD bank in order
 955:Drivers/STM32F4xx_HAL_Driver/Src/stm32f4xx_ll_fmc.c ****     to run the PCCARD/compact flash external devices.
 956:Drivers/STM32F4xx_HAL_Driver/Src/stm32f4xx_ll_fmc.c **** 
 957:Drivers/STM32F4xx_HAL_Driver/Src/stm32f4xx_ll_fmc.c ****     (+) FMC PCCARD bank reset using the function FMC_PCCARD_DeInit()
 958:Drivers/STM32F4xx_HAL_Driver/Src/stm32f4xx_ll_fmc.c ****     (+) FMC PCCARD bank control configuration using the function FMC_PCCARD_Init()
 959:Drivers/STM32F4xx_HAL_Driver/Src/stm32f4xx_ll_fmc.c ****     (+) FMC PCCARD bank common space timing configuration using the function
 960:Drivers/STM32F4xx_HAL_Driver/Src/stm32f4xx_ll_fmc.c ****         FMC_PCCARD_CommonSpace_Timing_Init()
 961:Drivers/STM32F4xx_HAL_Driver/Src/stm32f4xx_ll_fmc.c ****     (+) FMC PCCARD bank attribute space timing configuration using the function
 962:Drivers/STM32F4xx_HAL_Driver/Src/stm32f4xx_ll_fmc.c ****         FMC_PCCARD_AttributeSpace_Timing_Init()
 963:Drivers/STM32F4xx_HAL_Driver/Src/stm32f4xx_ll_fmc.c ****     (+) FMC PCCARD bank IO space timing configuration using the function
 964:Drivers/STM32F4xx_HAL_Driver/Src/stm32f4xx_ll_fmc.c ****         FMC_PCCARD_IOSpace_Timing_Init()
ARM GAS  /var/folders/qx/2_175_4n2s19vhvtspjhb3qh0000gn/T//cc35DONQ.s 			page 54


 965:Drivers/STM32F4xx_HAL_Driver/Src/stm32f4xx_ll_fmc.c **** @endverbatim
 966:Drivers/STM32F4xx_HAL_Driver/Src/stm32f4xx_ll_fmc.c ****   * @{
 967:Drivers/STM32F4xx_HAL_Driver/Src/stm32f4xx_ll_fmc.c ****   */
 968:Drivers/STM32F4xx_HAL_Driver/Src/stm32f4xx_ll_fmc.c **** 
 969:Drivers/STM32F4xx_HAL_Driver/Src/stm32f4xx_ll_fmc.c **** /** @addtogroup FMC_LL_PCCARD_Private_Functions_Group1
 970:Drivers/STM32F4xx_HAL_Driver/Src/stm32f4xx_ll_fmc.c ****   *  @brief    Initialization and Configuration functions
 971:Drivers/STM32F4xx_HAL_Driver/Src/stm32f4xx_ll_fmc.c ****   *
 972:Drivers/STM32F4xx_HAL_Driver/Src/stm32f4xx_ll_fmc.c **** @verbatim
 973:Drivers/STM32F4xx_HAL_Driver/Src/stm32f4xx_ll_fmc.c ****   ==============================================================================
 974:Drivers/STM32F4xx_HAL_Driver/Src/stm32f4xx_ll_fmc.c ****               ##### Initialization and de_initialization functions #####
 975:Drivers/STM32F4xx_HAL_Driver/Src/stm32f4xx_ll_fmc.c ****   ==============================================================================
 976:Drivers/STM32F4xx_HAL_Driver/Src/stm32f4xx_ll_fmc.c ****   [..]
 977:Drivers/STM32F4xx_HAL_Driver/Src/stm32f4xx_ll_fmc.c ****     This section provides functions allowing to:
 978:Drivers/STM32F4xx_HAL_Driver/Src/stm32f4xx_ll_fmc.c ****     (+) Initialize and configure the FMC PCCARD interface
 979:Drivers/STM32F4xx_HAL_Driver/Src/stm32f4xx_ll_fmc.c ****     (+) De-initialize the FMC PCCARD interface
 980:Drivers/STM32F4xx_HAL_Driver/Src/stm32f4xx_ll_fmc.c ****     (+) Configure the FMC clock and associated GPIOs
 981:Drivers/STM32F4xx_HAL_Driver/Src/stm32f4xx_ll_fmc.c **** 
 982:Drivers/STM32F4xx_HAL_Driver/Src/stm32f4xx_ll_fmc.c **** @endverbatim
 983:Drivers/STM32F4xx_HAL_Driver/Src/stm32f4xx_ll_fmc.c ****   * @{
 984:Drivers/STM32F4xx_HAL_Driver/Src/stm32f4xx_ll_fmc.c ****   */
 985:Drivers/STM32F4xx_HAL_Driver/Src/stm32f4xx_ll_fmc.c **** 
 986:Drivers/STM32F4xx_HAL_Driver/Src/stm32f4xx_ll_fmc.c **** /**
 987:Drivers/STM32F4xx_HAL_Driver/Src/stm32f4xx_ll_fmc.c ****   * @brief  Initializes the FMC_PCCARD device according to the specified
 988:Drivers/STM32F4xx_HAL_Driver/Src/stm32f4xx_ll_fmc.c ****   *         control parameters in the FMC_PCCARD_HandleTypeDef
 989:Drivers/STM32F4xx_HAL_Driver/Src/stm32f4xx_ll_fmc.c ****   * @param  Device Pointer to PCCARD device instance
 990:Drivers/STM32F4xx_HAL_Driver/Src/stm32f4xx_ll_fmc.c ****   * @param  Init Pointer to PCCARD Initialization structure
 991:Drivers/STM32F4xx_HAL_Driver/Src/stm32f4xx_ll_fmc.c ****   * @retval HAL status
 992:Drivers/STM32F4xx_HAL_Driver/Src/stm32f4xx_ll_fmc.c ****   */
 993:Drivers/STM32F4xx_HAL_Driver/Src/stm32f4xx_ll_fmc.c **** HAL_StatusTypeDef FMC_PCCARD_Init(FMC_PCCARD_TypeDef *Device, const FMC_PCCARD_InitTypeDef *Init)
 994:Drivers/STM32F4xx_HAL_Driver/Src/stm32f4xx_ll_fmc.c **** {
 1967              		.loc 1 994 1 is_stmt 1 view -0
 1968              		.cfi_startproc
 1969              		@ args = 0, pretend = 0, frame = 0
 1970              		@ frame_needed = 0, uses_anonymous_args = 0
 1971              		.loc 1 994 1 is_stmt 0 view .LVU425
 1972 0000 38B5     		push	{r3, r4, r5, lr}
 1973              	.LCFI13:
 1974              		.cfi_def_cfa_offset 16
 1975              		.cfi_offset 3, -16
 1976              		.cfi_offset 4, -12
 1977              		.cfi_offset 5, -8
 1978              		.cfi_offset 14, -4
 1979 0002 0546     		mov	r5, r0
 1980 0004 0C46     		mov	r4, r1
 995:Drivers/STM32F4xx_HAL_Driver/Src/stm32f4xx_ll_fmc.c ****   /* Check the parameters */
 996:Drivers/STM32F4xx_HAL_Driver/Src/stm32f4xx_ll_fmc.c ****   assert_param(IS_FMC_PCCARD_DEVICE(Device));
 1981              		.loc 1 996 3 is_stmt 1 view .LVU426
 1982 0006 1B4B     		ldr	r3, .L227
 1983 0008 9842     		cmp	r0, r3
 1984 000a 04D0     		beq	.L219
 1985              		.loc 1 996 3 is_stmt 0 discriminator 1 view .LVU427
 1986 000c 4FF47971 		mov	r1, #996
 1987              	.LVL144:
 1988              		.loc 1 996 3 discriminator 1 view .LVU428
 1989 0010 1948     		ldr	r0, .L227+4
 1990              	.LVL145:
 1991              		.loc 1 996 3 discriminator 1 view .LVU429
ARM GAS  /var/folders/qx/2_175_4n2s19vhvtspjhb3qh0000gn/T//cc35DONQ.s 			page 55


 1992 0012 FFF7FEFF 		bl	assert_failed
 1993              	.LVL146:
 1994              	.L219:
 997:Drivers/STM32F4xx_HAL_Driver/Src/stm32f4xx_ll_fmc.c **** #if defined(FMC_Bank3) || defined(FMC_Bank2_3)
 998:Drivers/STM32F4xx_HAL_Driver/Src/stm32f4xx_ll_fmc.c ****   assert_param(IS_FMC_WAIT_FEATURE(Init->Waitfeature));
 1995              		.loc 1 998 3 is_stmt 1 view .LVU430
 1996 0016 2368     		ldr	r3, [r4]
 1997 0018 0BB1     		cbz	r3, .L220
 1998              		.loc 1 998 3 is_stmt 0 discriminator 1 view .LVU431
 1999 001a 022B     		cmp	r3, #2
 2000 001c 17D1     		bne	.L224
 2001              	.L220:
 999:Drivers/STM32F4xx_HAL_Driver/Src/stm32f4xx_ll_fmc.c ****   assert_param(IS_FMC_TCLR_TIME(Init->TCLRSetupTime));
 2002              		.loc 1 999 3 is_stmt 1 view .LVU432
 2003 001e 6368     		ldr	r3, [r4, #4]
 2004 0020 FF2B     		cmp	r3, #255
 2005 0022 1AD8     		bhi	.L225
 2006              	.L221:
1000:Drivers/STM32F4xx_HAL_Driver/Src/stm32f4xx_ll_fmc.c ****   assert_param(IS_FMC_TAR_TIME(Init->TARSetupTime));
 2007              		.loc 1 1000 3 view .LVU433
 2008 0024 A368     		ldr	r3, [r4, #8]
 2009 0026 FF2B     		cmp	r3, #255
 2010 0028 1DD8     		bhi	.L226
 2011              	.L222:
1001:Drivers/STM32F4xx_HAL_Driver/Src/stm32f4xx_ll_fmc.c **** #endif /* FMC_Bank3) || defined(FMC_Bank2_3 */
1002:Drivers/STM32F4xx_HAL_Driver/Src/stm32f4xx_ll_fmc.c **** 
1003:Drivers/STM32F4xx_HAL_Driver/Src/stm32f4xx_ll_fmc.c ****   /* Set FMC_PCCARD device control parameters */
1004:Drivers/STM32F4xx_HAL_Driver/Src/stm32f4xx_ll_fmc.c ****   MODIFY_REG(Device->PCR4,
 2012              		.loc 1 1004 3 view .LVU434
 2013 002a 2B68     		ldr	r3, [r5]
 2014 002c 23F4FF33 		bic	r3, r3, #130560
 2015 0030 23F03A03 		bic	r3, r3, #58
 2016 0034 2268     		ldr	r2, [r4]
 2017 0036 6168     		ldr	r1, [r4, #4]
 2018 0038 42EA4122 		orr	r2, r2, r1, lsl #9
 2019 003c A168     		ldr	r1, [r4, #8]
 2020 003e 42EA4132 		orr	r2, r2, r1, lsl #13
 2021 0042 1343     		orrs	r3, r3, r2
 2022 0044 43F01003 		orr	r3, r3, #16
 2023 0048 2B60     		str	r3, [r5]
1005:Drivers/STM32F4xx_HAL_Driver/Src/stm32f4xx_ll_fmc.c ****              (FMC_PCR4_PTYP                                          |
1006:Drivers/STM32F4xx_HAL_Driver/Src/stm32f4xx_ll_fmc.c ****               FMC_PCR4_PWAITEN                                       |
1007:Drivers/STM32F4xx_HAL_Driver/Src/stm32f4xx_ll_fmc.c ****               FMC_PCR4_PWID                                          |
1008:Drivers/STM32F4xx_HAL_Driver/Src/stm32f4xx_ll_fmc.c ****               FMC_PCR4_TCLR                                          |
1009:Drivers/STM32F4xx_HAL_Driver/Src/stm32f4xx_ll_fmc.c ****               FMC_PCR4_TAR),
1010:Drivers/STM32F4xx_HAL_Driver/Src/stm32f4xx_ll_fmc.c ****              (FMC_PCR_MEMORY_TYPE_PCCARD                             |
1011:Drivers/STM32F4xx_HAL_Driver/Src/stm32f4xx_ll_fmc.c ****               Init->Waitfeature                                      |
1012:Drivers/STM32F4xx_HAL_Driver/Src/stm32f4xx_ll_fmc.c ****               FMC_NAND_PCC_MEM_BUS_WIDTH_16                          |
1013:Drivers/STM32F4xx_HAL_Driver/Src/stm32f4xx_ll_fmc.c ****               (Init->TCLRSetupTime << FMC_PCR4_TCLR_Pos)   |
1014:Drivers/STM32F4xx_HAL_Driver/Src/stm32f4xx_ll_fmc.c ****               (Init->TARSetupTime  << FMC_PCR4_TAR_Pos)));
1015:Drivers/STM32F4xx_HAL_Driver/Src/stm32f4xx_ll_fmc.c **** 
1016:Drivers/STM32F4xx_HAL_Driver/Src/stm32f4xx_ll_fmc.c ****   return HAL_OK;
 2024              		.loc 1 1016 3 view .LVU435
1017:Drivers/STM32F4xx_HAL_Driver/Src/stm32f4xx_ll_fmc.c **** }
 2025              		.loc 1 1017 1 is_stmt 0 view .LVU436
 2026 004a 0020     		movs	r0, #0
 2027 004c 38BD     		pop	{r3, r4, r5, pc}
ARM GAS  /var/folders/qx/2_175_4n2s19vhvtspjhb3qh0000gn/T//cc35DONQ.s 			page 56


 2028              	.LVL147:
 2029              	.L224:
 998:Drivers/STM32F4xx_HAL_Driver/Src/stm32f4xx_ll_fmc.c ****   assert_param(IS_FMC_TCLR_TIME(Init->TCLRSetupTime));
 2030              		.loc 1 998 3 discriminator 2 view .LVU437
 2031 004e 40F2E631 		movw	r1, #998
 2032 0052 0948     		ldr	r0, .L227+4
 2033 0054 FFF7FEFF 		bl	assert_failed
 2034              	.LVL148:
 2035 0058 E1E7     		b	.L220
 2036              	.L225:
 999:Drivers/STM32F4xx_HAL_Driver/Src/stm32f4xx_ll_fmc.c ****   assert_param(IS_FMC_TAR_TIME(Init->TARSetupTime));
 2037              		.loc 1 999 3 discriminator 1 view .LVU438
 2038 005a 40F2E731 		movw	r1, #999
 2039 005e 0648     		ldr	r0, .L227+4
 2040 0060 FFF7FEFF 		bl	assert_failed
 2041              	.LVL149:
 2042 0064 DEE7     		b	.L221
 2043              	.L226:
1000:Drivers/STM32F4xx_HAL_Driver/Src/stm32f4xx_ll_fmc.c **** #endif /* FMC_Bank3) || defined(FMC_Bank2_3 */
 2044              		.loc 1 1000 3 discriminator 1 view .LVU439
 2045 0066 4FF47A71 		mov	r1, #1000
 2046 006a 0348     		ldr	r0, .L227+4
 2047 006c FFF7FEFF 		bl	assert_failed
 2048              	.LVL150:
 2049 0070 DBE7     		b	.L222
 2050              	.L228:
 2051 0072 00BF     		.align	2
 2052              	.L227:
 2053 0074 A00000A0 		.word	-1610612576
 2054 0078 00000000 		.word	.LC0
 2055              		.cfi_endproc
 2056              	.LFE252:
 2058              		.section	.text.FMC_PCCARD_CommonSpace_Timing_Init,"ax",%progbits
 2059              		.align	1
 2060              		.global	FMC_PCCARD_CommonSpace_Timing_Init
 2061              		.syntax unified
 2062              		.thumb
 2063              		.thumb_func
 2065              	FMC_PCCARD_CommonSpace_Timing_Init:
 2066              	.LVL151:
 2067              	.LFB253:
1018:Drivers/STM32F4xx_HAL_Driver/Src/stm32f4xx_ll_fmc.c **** 
1019:Drivers/STM32F4xx_HAL_Driver/Src/stm32f4xx_ll_fmc.c **** /**
1020:Drivers/STM32F4xx_HAL_Driver/Src/stm32f4xx_ll_fmc.c ****   * @brief  Initializes the FMC_PCCARD Common space Timing according to the specified
1021:Drivers/STM32F4xx_HAL_Driver/Src/stm32f4xx_ll_fmc.c ****   *         parameters in the FMC_NAND_PCC_TimingTypeDef
1022:Drivers/STM32F4xx_HAL_Driver/Src/stm32f4xx_ll_fmc.c ****   * @param  Device Pointer to PCCARD device instance
1023:Drivers/STM32F4xx_HAL_Driver/Src/stm32f4xx_ll_fmc.c ****   * @param  Timing Pointer to PCCARD timing structure
1024:Drivers/STM32F4xx_HAL_Driver/Src/stm32f4xx_ll_fmc.c ****   * @retval HAL status
1025:Drivers/STM32F4xx_HAL_Driver/Src/stm32f4xx_ll_fmc.c ****   */
1026:Drivers/STM32F4xx_HAL_Driver/Src/stm32f4xx_ll_fmc.c **** HAL_StatusTypeDef FMC_PCCARD_CommonSpace_Timing_Init(FMC_PCCARD_TypeDef *Device,
1027:Drivers/STM32F4xx_HAL_Driver/Src/stm32f4xx_ll_fmc.c ****                                                      const FMC_NAND_PCC_TimingTypeDef *Timing)
1028:Drivers/STM32F4xx_HAL_Driver/Src/stm32f4xx_ll_fmc.c **** {
 2068              		.loc 1 1028 1 is_stmt 1 view -0
 2069              		.cfi_startproc
 2070              		@ args = 0, pretend = 0, frame = 0
 2071              		@ frame_needed = 0, uses_anonymous_args = 0
 2072              		.loc 1 1028 1 is_stmt 0 view .LVU441
ARM GAS  /var/folders/qx/2_175_4n2s19vhvtspjhb3qh0000gn/T//cc35DONQ.s 			page 57


 2073 0000 38B5     		push	{r3, r4, r5, lr}
 2074              	.LCFI14:
 2075              		.cfi_def_cfa_offset 16
 2076              		.cfi_offset 3, -16
 2077              		.cfi_offset 4, -12
 2078              		.cfi_offset 5, -8
 2079              		.cfi_offset 14, -4
 2080 0002 0546     		mov	r5, r0
 2081 0004 0C46     		mov	r4, r1
1029:Drivers/STM32F4xx_HAL_Driver/Src/stm32f4xx_ll_fmc.c ****   /* Check the parameters */
1030:Drivers/STM32F4xx_HAL_Driver/Src/stm32f4xx_ll_fmc.c ****   assert_param(IS_FMC_PCCARD_DEVICE(Device));
 2082              		.loc 1 1030 3 is_stmt 1 view .LVU442
 2083 0006 1C4B     		ldr	r3, .L240
 2084 0008 9842     		cmp	r0, r3
 2085 000a 04D0     		beq	.L230
 2086              		.loc 1 1030 3 is_stmt 0 discriminator 1 view .LVU443
 2087 000c 40F20641 		movw	r1, #1030
 2088              	.LVL152:
 2089              		.loc 1 1030 3 discriminator 1 view .LVU444
 2090 0010 1A48     		ldr	r0, .L240+4
 2091              	.LVL153:
 2092              		.loc 1 1030 3 discriminator 1 view .LVU445
 2093 0012 FFF7FEFF 		bl	assert_failed
 2094              	.LVL154:
 2095              	.L230:
1031:Drivers/STM32F4xx_HAL_Driver/Src/stm32f4xx_ll_fmc.c **** #if defined(FMC_Bank3) || defined(FMC_Bank2_3)
1032:Drivers/STM32F4xx_HAL_Driver/Src/stm32f4xx_ll_fmc.c ****   assert_param(IS_FMC_SETUP_TIME(Timing->SetupTime));
 2096              		.loc 1 1032 3 is_stmt 1 view .LVU446
 2097 0016 2368     		ldr	r3, [r4]
 2098 0018 FE2B     		cmp	r3, #254
 2099 001a 15D8     		bhi	.L236
 2100              	.L231:
1033:Drivers/STM32F4xx_HAL_Driver/Src/stm32f4xx_ll_fmc.c ****   assert_param(IS_FMC_WAIT_TIME(Timing->WaitSetupTime));
 2101              		.loc 1 1033 3 view .LVU447
 2102 001c 6368     		ldr	r3, [r4, #4]
 2103 001e FE2B     		cmp	r3, #254
 2104 0020 18D8     		bhi	.L237
 2105              	.L232:
1034:Drivers/STM32F4xx_HAL_Driver/Src/stm32f4xx_ll_fmc.c ****   assert_param(IS_FMC_HOLD_TIME(Timing->HoldSetupTime));
 2106              		.loc 1 1034 3 view .LVU448
 2107 0022 A368     		ldr	r3, [r4, #8]
 2108 0024 FE2B     		cmp	r3, #254
 2109 0026 1BD8     		bhi	.L238
 2110              	.L233:
1035:Drivers/STM32F4xx_HAL_Driver/Src/stm32f4xx_ll_fmc.c ****   assert_param(IS_FMC_HIZ_TIME(Timing->HiZSetupTime));
 2111              		.loc 1 1035 3 view .LVU449
 2112 0028 E368     		ldr	r3, [r4, #12]
 2113 002a FE2B     		cmp	r3, #254
 2114 002c 1ED8     		bhi	.L239
 2115              	.L234:
1036:Drivers/STM32F4xx_HAL_Driver/Src/stm32f4xx_ll_fmc.c **** #endif /* FMC_Bank3) || defined(FMC_Bank2_3 */
1037:Drivers/STM32F4xx_HAL_Driver/Src/stm32f4xx_ll_fmc.c **** 
1038:Drivers/STM32F4xx_HAL_Driver/Src/stm32f4xx_ll_fmc.c ****   /* Set PCCARD timing parameters */
1039:Drivers/STM32F4xx_HAL_Driver/Src/stm32f4xx_ll_fmc.c ****   WRITE_REG(Device->PMEM4, (Timing->SetupTime |
 2116              		.loc 1 1039 3 view .LVU450
 2117 002e 2368     		ldr	r3, [r4]
 2118 0030 6268     		ldr	r2, [r4, #4]
ARM GAS  /var/folders/qx/2_175_4n2s19vhvtspjhb3qh0000gn/T//cc35DONQ.s 			page 58


 2119 0032 43EA0223 		orr	r3, r3, r2, lsl #8
 2120 0036 A268     		ldr	r2, [r4, #8]
 2121 0038 43EA0243 		orr	r3, r3, r2, lsl #16
 2122 003c E268     		ldr	r2, [r4, #12]
 2123 003e 43EA0263 		orr	r3, r3, r2, lsl #24
 2124 0042 AB60     		str	r3, [r5, #8]
1040:Drivers/STM32F4xx_HAL_Driver/Src/stm32f4xx_ll_fmc.c ****                             ((Timing->WaitSetupTime) << FMC_PMEM4_MEMWAIT4_Pos)  |
1041:Drivers/STM32F4xx_HAL_Driver/Src/stm32f4xx_ll_fmc.c ****                             ((Timing->HoldSetupTime) << FMC_PMEM4_MEMHOLD4_Pos)  |
1042:Drivers/STM32F4xx_HAL_Driver/Src/stm32f4xx_ll_fmc.c ****                             ((Timing->HiZSetupTime)  << FMC_PMEM4_MEMHIZ4_Pos)));
1043:Drivers/STM32F4xx_HAL_Driver/Src/stm32f4xx_ll_fmc.c **** 
1044:Drivers/STM32F4xx_HAL_Driver/Src/stm32f4xx_ll_fmc.c ****   return HAL_OK;
 2125              		.loc 1 1044 3 view .LVU451
1045:Drivers/STM32F4xx_HAL_Driver/Src/stm32f4xx_ll_fmc.c **** }
 2126              		.loc 1 1045 1 is_stmt 0 view .LVU452
 2127 0044 0020     		movs	r0, #0
 2128 0046 38BD     		pop	{r3, r4, r5, pc}
 2129              	.LVL155:
 2130              	.L236:
1032:Drivers/STM32F4xx_HAL_Driver/Src/stm32f4xx_ll_fmc.c ****   assert_param(IS_FMC_WAIT_TIME(Timing->WaitSetupTime));
 2131              		.loc 1 1032 3 discriminator 1 view .LVU453
 2132 0048 4FF48161 		mov	r1, #1032
 2133 004c 0B48     		ldr	r0, .L240+4
 2134 004e FFF7FEFF 		bl	assert_failed
 2135              	.LVL156:
 2136 0052 E3E7     		b	.L231
 2137              	.L237:
1033:Drivers/STM32F4xx_HAL_Driver/Src/stm32f4xx_ll_fmc.c ****   assert_param(IS_FMC_HOLD_TIME(Timing->HoldSetupTime));
 2138              		.loc 1 1033 3 discriminator 1 view .LVU454
 2139 0054 40F20941 		movw	r1, #1033
 2140 0058 0848     		ldr	r0, .L240+4
 2141 005a FFF7FEFF 		bl	assert_failed
 2142              	.LVL157:
 2143 005e E0E7     		b	.L232
 2144              	.L238:
1034:Drivers/STM32F4xx_HAL_Driver/Src/stm32f4xx_ll_fmc.c ****   assert_param(IS_FMC_HIZ_TIME(Timing->HiZSetupTime));
 2145              		.loc 1 1034 3 discriminator 1 view .LVU455
 2146 0060 40F20A41 		movw	r1, #1034
 2147 0064 0548     		ldr	r0, .L240+4
 2148 0066 FFF7FEFF 		bl	assert_failed
 2149              	.LVL158:
 2150 006a DDE7     		b	.L233
 2151              	.L239:
1035:Drivers/STM32F4xx_HAL_Driver/Src/stm32f4xx_ll_fmc.c **** #endif /* FMC_Bank3) || defined(FMC_Bank2_3 */
 2152              		.loc 1 1035 3 discriminator 1 view .LVU456
 2153 006c 40F20B41 		movw	r1, #1035
 2154 0070 0248     		ldr	r0, .L240+4
 2155 0072 FFF7FEFF 		bl	assert_failed
 2156              	.LVL159:
 2157 0076 DAE7     		b	.L234
 2158              	.L241:
 2159              		.align	2
 2160              	.L240:
 2161 0078 A00000A0 		.word	-1610612576
 2162 007c 00000000 		.word	.LC0
 2163              		.cfi_endproc
 2164              	.LFE253:
 2166              		.section	.text.FMC_PCCARD_AttributeSpace_Timing_Init,"ax",%progbits
ARM GAS  /var/folders/qx/2_175_4n2s19vhvtspjhb3qh0000gn/T//cc35DONQ.s 			page 59


 2167              		.align	1
 2168              		.global	FMC_PCCARD_AttributeSpace_Timing_Init
 2169              		.syntax unified
 2170              		.thumb
 2171              		.thumb_func
 2173              	FMC_PCCARD_AttributeSpace_Timing_Init:
 2174              	.LVL160:
 2175              	.LFB254:
1046:Drivers/STM32F4xx_HAL_Driver/Src/stm32f4xx_ll_fmc.c **** 
1047:Drivers/STM32F4xx_HAL_Driver/Src/stm32f4xx_ll_fmc.c **** /**
1048:Drivers/STM32F4xx_HAL_Driver/Src/stm32f4xx_ll_fmc.c ****   * @brief  Initializes the FMC_PCCARD Attribute space Timing according to the specified
1049:Drivers/STM32F4xx_HAL_Driver/Src/stm32f4xx_ll_fmc.c ****   *         parameters in the FMC_NAND_PCC_TimingTypeDef
1050:Drivers/STM32F4xx_HAL_Driver/Src/stm32f4xx_ll_fmc.c ****   * @param  Device Pointer to PCCARD device instance
1051:Drivers/STM32F4xx_HAL_Driver/Src/stm32f4xx_ll_fmc.c ****   * @param  Timing Pointer to PCCARD timing structure
1052:Drivers/STM32F4xx_HAL_Driver/Src/stm32f4xx_ll_fmc.c ****   * @retval HAL status
1053:Drivers/STM32F4xx_HAL_Driver/Src/stm32f4xx_ll_fmc.c ****   */
1054:Drivers/STM32F4xx_HAL_Driver/Src/stm32f4xx_ll_fmc.c **** HAL_StatusTypeDef FMC_PCCARD_AttributeSpace_Timing_Init(FMC_PCCARD_TypeDef *Device,
1055:Drivers/STM32F4xx_HAL_Driver/Src/stm32f4xx_ll_fmc.c ****                                                         const FMC_NAND_PCC_TimingTypeDef *Timing)
1056:Drivers/STM32F4xx_HAL_Driver/Src/stm32f4xx_ll_fmc.c **** {
 2176              		.loc 1 1056 1 is_stmt 1 view -0
 2177              		.cfi_startproc
 2178              		@ args = 0, pretend = 0, frame = 0
 2179              		@ frame_needed = 0, uses_anonymous_args = 0
 2180              		.loc 1 1056 1 is_stmt 0 view .LVU458
 2181 0000 38B5     		push	{r3, r4, r5, lr}
 2182              	.LCFI15:
 2183              		.cfi_def_cfa_offset 16
 2184              		.cfi_offset 3, -16
 2185              		.cfi_offset 4, -12
 2186              		.cfi_offset 5, -8
 2187              		.cfi_offset 14, -4
 2188 0002 0546     		mov	r5, r0
 2189 0004 0C46     		mov	r4, r1
1057:Drivers/STM32F4xx_HAL_Driver/Src/stm32f4xx_ll_fmc.c ****   /* Check the parameters */
1058:Drivers/STM32F4xx_HAL_Driver/Src/stm32f4xx_ll_fmc.c ****   assert_param(IS_FMC_PCCARD_DEVICE(Device));
 2190              		.loc 1 1058 3 is_stmt 1 view .LVU459
 2191 0006 1C4B     		ldr	r3, .L253
 2192 0008 9842     		cmp	r0, r3
 2193 000a 04D0     		beq	.L243
 2194              		.loc 1 1058 3 is_stmt 0 discriminator 1 view .LVU460
 2195 000c 40F22241 		movw	r1, #1058
 2196              	.LVL161:
 2197              		.loc 1 1058 3 discriminator 1 view .LVU461
 2198 0010 1A48     		ldr	r0, .L253+4
 2199              	.LVL162:
 2200              		.loc 1 1058 3 discriminator 1 view .LVU462
 2201 0012 FFF7FEFF 		bl	assert_failed
 2202              	.LVL163:
 2203              	.L243:
1059:Drivers/STM32F4xx_HAL_Driver/Src/stm32f4xx_ll_fmc.c **** #if defined(FMC_Bank3) || defined(FMC_Bank2_3)
1060:Drivers/STM32F4xx_HAL_Driver/Src/stm32f4xx_ll_fmc.c ****   assert_param(IS_FMC_SETUP_TIME(Timing->SetupTime));
 2204              		.loc 1 1060 3 is_stmt 1 view .LVU463
 2205 0016 2368     		ldr	r3, [r4]
 2206 0018 FE2B     		cmp	r3, #254
 2207 001a 15D8     		bhi	.L249
 2208              	.L244:
1061:Drivers/STM32F4xx_HAL_Driver/Src/stm32f4xx_ll_fmc.c ****   assert_param(IS_FMC_WAIT_TIME(Timing->WaitSetupTime));
ARM GAS  /var/folders/qx/2_175_4n2s19vhvtspjhb3qh0000gn/T//cc35DONQ.s 			page 60


 2209              		.loc 1 1061 3 view .LVU464
 2210 001c 6368     		ldr	r3, [r4, #4]
 2211 001e FE2B     		cmp	r3, #254
 2212 0020 18D8     		bhi	.L250
 2213              	.L245:
1062:Drivers/STM32F4xx_HAL_Driver/Src/stm32f4xx_ll_fmc.c ****   assert_param(IS_FMC_HOLD_TIME(Timing->HoldSetupTime));
 2214              		.loc 1 1062 3 view .LVU465
 2215 0022 A368     		ldr	r3, [r4, #8]
 2216 0024 FE2B     		cmp	r3, #254
 2217 0026 1BD8     		bhi	.L251
 2218              	.L246:
1063:Drivers/STM32F4xx_HAL_Driver/Src/stm32f4xx_ll_fmc.c ****   assert_param(IS_FMC_HIZ_TIME(Timing->HiZSetupTime));
 2219              		.loc 1 1063 3 view .LVU466
 2220 0028 E368     		ldr	r3, [r4, #12]
 2221 002a FE2B     		cmp	r3, #254
 2222 002c 1ED8     		bhi	.L252
 2223              	.L247:
1064:Drivers/STM32F4xx_HAL_Driver/Src/stm32f4xx_ll_fmc.c **** #endif /* FMC_Bank3) || defined(FMC_Bank2_3 */
1065:Drivers/STM32F4xx_HAL_Driver/Src/stm32f4xx_ll_fmc.c **** 
1066:Drivers/STM32F4xx_HAL_Driver/Src/stm32f4xx_ll_fmc.c ****   /* Set PCCARD timing parameters */
1067:Drivers/STM32F4xx_HAL_Driver/Src/stm32f4xx_ll_fmc.c ****   WRITE_REG(Device->PATT4, (Timing->SetupTime                                                 |
 2224              		.loc 1 1067 3 view .LVU467
 2225 002e 2368     		ldr	r3, [r4]
 2226 0030 6268     		ldr	r2, [r4, #4]
 2227 0032 43EA0223 		orr	r3, r3, r2, lsl #8
 2228 0036 A268     		ldr	r2, [r4, #8]
 2229 0038 43EA0243 		orr	r3, r3, r2, lsl #16
 2230 003c E268     		ldr	r2, [r4, #12]
 2231 003e 43EA0263 		orr	r3, r3, r2, lsl #24
 2232 0042 EB60     		str	r3, [r5, #12]
1068:Drivers/STM32F4xx_HAL_Driver/Src/stm32f4xx_ll_fmc.c ****                             ((Timing->WaitSetupTime) << FMC_PATT4_ATTWAIT4_Pos)  |
1069:Drivers/STM32F4xx_HAL_Driver/Src/stm32f4xx_ll_fmc.c ****                             ((Timing->HoldSetupTime) << FMC_PATT4_ATTHOLD4_Pos)  |
1070:Drivers/STM32F4xx_HAL_Driver/Src/stm32f4xx_ll_fmc.c ****                             ((Timing->HiZSetupTime)  << FMC_PATT4_ATTHIZ4_Pos)));
1071:Drivers/STM32F4xx_HAL_Driver/Src/stm32f4xx_ll_fmc.c **** 
1072:Drivers/STM32F4xx_HAL_Driver/Src/stm32f4xx_ll_fmc.c ****   return HAL_OK;
 2233              		.loc 1 1072 3 view .LVU468
1073:Drivers/STM32F4xx_HAL_Driver/Src/stm32f4xx_ll_fmc.c **** }
 2234              		.loc 1 1073 1 is_stmt 0 view .LVU469
 2235 0044 0020     		movs	r0, #0
 2236 0046 38BD     		pop	{r3, r4, r5, pc}
 2237              	.LVL164:
 2238              	.L249:
1060:Drivers/STM32F4xx_HAL_Driver/Src/stm32f4xx_ll_fmc.c ****   assert_param(IS_FMC_WAIT_TIME(Timing->WaitSetupTime));
 2239              		.loc 1 1060 3 discriminator 1 view .LVU470
 2240 0048 40F22441 		movw	r1, #1060
 2241 004c 0B48     		ldr	r0, .L253+4
 2242 004e FFF7FEFF 		bl	assert_failed
 2243              	.LVL165:
 2244 0052 E3E7     		b	.L244
 2245              	.L250:
1061:Drivers/STM32F4xx_HAL_Driver/Src/stm32f4xx_ll_fmc.c ****   assert_param(IS_FMC_HOLD_TIME(Timing->HoldSetupTime));
 2246              		.loc 1 1061 3 discriminator 1 view .LVU471
 2247 0054 40F22541 		movw	r1, #1061
 2248 0058 0848     		ldr	r0, .L253+4
 2249 005a FFF7FEFF 		bl	assert_failed
 2250              	.LVL166:
 2251 005e E0E7     		b	.L245
ARM GAS  /var/folders/qx/2_175_4n2s19vhvtspjhb3qh0000gn/T//cc35DONQ.s 			page 61


 2252              	.L251:
1062:Drivers/STM32F4xx_HAL_Driver/Src/stm32f4xx_ll_fmc.c ****   assert_param(IS_FMC_HIZ_TIME(Timing->HiZSetupTime));
 2253              		.loc 1 1062 3 discriminator 1 view .LVU472
 2254 0060 40F22641 		movw	r1, #1062
 2255 0064 0548     		ldr	r0, .L253+4
 2256 0066 FFF7FEFF 		bl	assert_failed
 2257              	.LVL167:
 2258 006a DDE7     		b	.L246
 2259              	.L252:
1063:Drivers/STM32F4xx_HAL_Driver/Src/stm32f4xx_ll_fmc.c **** #endif /* FMC_Bank3) || defined(FMC_Bank2_3 */
 2260              		.loc 1 1063 3 discriminator 1 view .LVU473
 2261 006c 40F22741 		movw	r1, #1063
 2262 0070 0248     		ldr	r0, .L253+4
 2263 0072 FFF7FEFF 		bl	assert_failed
 2264              	.LVL168:
 2265 0076 DAE7     		b	.L247
 2266              	.L254:
 2267              		.align	2
 2268              	.L253:
 2269 0078 A00000A0 		.word	-1610612576
 2270 007c 00000000 		.word	.LC0
 2271              		.cfi_endproc
 2272              	.LFE254:
 2274              		.section	.text.FMC_PCCARD_IOSpace_Timing_Init,"ax",%progbits
 2275              		.align	1
 2276              		.global	FMC_PCCARD_IOSpace_Timing_Init
 2277              		.syntax unified
 2278              		.thumb
 2279              		.thumb_func
 2281              	FMC_PCCARD_IOSpace_Timing_Init:
 2282              	.LVL169:
 2283              	.LFB255:
1074:Drivers/STM32F4xx_HAL_Driver/Src/stm32f4xx_ll_fmc.c **** 
1075:Drivers/STM32F4xx_HAL_Driver/Src/stm32f4xx_ll_fmc.c **** /**
1076:Drivers/STM32F4xx_HAL_Driver/Src/stm32f4xx_ll_fmc.c ****   * @brief  Initializes the FMC_PCCARD IO space Timing according to the specified
1077:Drivers/STM32F4xx_HAL_Driver/Src/stm32f4xx_ll_fmc.c ****   *         parameters in the FMC_NAND_PCC_TimingTypeDef
1078:Drivers/STM32F4xx_HAL_Driver/Src/stm32f4xx_ll_fmc.c ****   * @param  Device Pointer to PCCARD device instance
1079:Drivers/STM32F4xx_HAL_Driver/Src/stm32f4xx_ll_fmc.c ****   * @param  Timing Pointer to PCCARD timing structure
1080:Drivers/STM32F4xx_HAL_Driver/Src/stm32f4xx_ll_fmc.c ****   * @retval HAL status
1081:Drivers/STM32F4xx_HAL_Driver/Src/stm32f4xx_ll_fmc.c ****   */
1082:Drivers/STM32F4xx_HAL_Driver/Src/stm32f4xx_ll_fmc.c **** HAL_StatusTypeDef FMC_PCCARD_IOSpace_Timing_Init(FMC_PCCARD_TypeDef *Device,
1083:Drivers/STM32F4xx_HAL_Driver/Src/stm32f4xx_ll_fmc.c ****                                                  const FMC_NAND_PCC_TimingTypeDef *Timing)
1084:Drivers/STM32F4xx_HAL_Driver/Src/stm32f4xx_ll_fmc.c **** {
 2284              		.loc 1 1084 1 is_stmt 1 view -0
 2285              		.cfi_startproc
 2286              		@ args = 0, pretend = 0, frame = 0
 2287              		@ frame_needed = 0, uses_anonymous_args = 0
 2288              		.loc 1 1084 1 is_stmt 0 view .LVU475
 2289 0000 38B5     		push	{r3, r4, r5, lr}
 2290              	.LCFI16:
 2291              		.cfi_def_cfa_offset 16
 2292              		.cfi_offset 3, -16
 2293              		.cfi_offset 4, -12
 2294              		.cfi_offset 5, -8
 2295              		.cfi_offset 14, -4
 2296 0002 0546     		mov	r5, r0
 2297 0004 0C46     		mov	r4, r1
ARM GAS  /var/folders/qx/2_175_4n2s19vhvtspjhb3qh0000gn/T//cc35DONQ.s 			page 62


1085:Drivers/STM32F4xx_HAL_Driver/Src/stm32f4xx_ll_fmc.c ****   /* Check the parameters */
1086:Drivers/STM32F4xx_HAL_Driver/Src/stm32f4xx_ll_fmc.c ****   assert_param(IS_FMC_PCCARD_DEVICE(Device));
 2298              		.loc 1 1086 3 is_stmt 1 view .LVU476
 2299 0006 1C4B     		ldr	r3, .L266
 2300 0008 9842     		cmp	r0, r3
 2301 000a 04D0     		beq	.L256
 2302              		.loc 1 1086 3 is_stmt 0 discriminator 1 view .LVU477
 2303 000c 40F23E41 		movw	r1, #1086
 2304              	.LVL170:
 2305              		.loc 1 1086 3 discriminator 1 view .LVU478
 2306 0010 1A48     		ldr	r0, .L266+4
 2307              	.LVL171:
 2308              		.loc 1 1086 3 discriminator 1 view .LVU479
 2309 0012 FFF7FEFF 		bl	assert_failed
 2310              	.LVL172:
 2311              	.L256:
1087:Drivers/STM32F4xx_HAL_Driver/Src/stm32f4xx_ll_fmc.c **** #if defined(FMC_Bank3) || defined(FMC_Bank2_3)
1088:Drivers/STM32F4xx_HAL_Driver/Src/stm32f4xx_ll_fmc.c ****   assert_param(IS_FMC_SETUP_TIME(Timing->SetupTime));
 2312              		.loc 1 1088 3 is_stmt 1 view .LVU480
 2313 0016 2368     		ldr	r3, [r4]
 2314 0018 FE2B     		cmp	r3, #254
 2315 001a 15D8     		bhi	.L262
 2316              	.L257:
1089:Drivers/STM32F4xx_HAL_Driver/Src/stm32f4xx_ll_fmc.c ****   assert_param(IS_FMC_WAIT_TIME(Timing->WaitSetupTime));
 2317              		.loc 1 1089 3 view .LVU481
 2318 001c 6368     		ldr	r3, [r4, #4]
 2319 001e FE2B     		cmp	r3, #254
 2320 0020 18D8     		bhi	.L263
 2321              	.L258:
1090:Drivers/STM32F4xx_HAL_Driver/Src/stm32f4xx_ll_fmc.c ****   assert_param(IS_FMC_HOLD_TIME(Timing->HoldSetupTime));
 2322              		.loc 1 1090 3 view .LVU482
 2323 0022 A368     		ldr	r3, [r4, #8]
 2324 0024 FE2B     		cmp	r3, #254
 2325 0026 1BD8     		bhi	.L264
 2326              	.L259:
1091:Drivers/STM32F4xx_HAL_Driver/Src/stm32f4xx_ll_fmc.c ****   assert_param(IS_FMC_HIZ_TIME(Timing->HiZSetupTime));
 2327              		.loc 1 1091 3 view .LVU483
 2328 0028 E368     		ldr	r3, [r4, #12]
 2329 002a FE2B     		cmp	r3, #254
 2330 002c 1ED8     		bhi	.L265
 2331              	.L260:
1092:Drivers/STM32F4xx_HAL_Driver/Src/stm32f4xx_ll_fmc.c **** #endif /* FMC_Bank3) || defined(FMC_Bank2_3 */
1093:Drivers/STM32F4xx_HAL_Driver/Src/stm32f4xx_ll_fmc.c **** 
1094:Drivers/STM32F4xx_HAL_Driver/Src/stm32f4xx_ll_fmc.c ****   /* Set FMC_PCCARD device timing parameters */
1095:Drivers/STM32F4xx_HAL_Driver/Src/stm32f4xx_ll_fmc.c ****   WRITE_REG(Device->PIO4, (Timing->SetupTime |
 2332              		.loc 1 1095 3 view .LVU484
 2333 002e 2368     		ldr	r3, [r4]
 2334 0030 6268     		ldr	r2, [r4, #4]
 2335 0032 43EA0223 		orr	r3, r3, r2, lsl #8
 2336 0036 A268     		ldr	r2, [r4, #8]
 2337 0038 43EA0243 		orr	r3, r3, r2, lsl #16
 2338 003c E268     		ldr	r2, [r4, #12]
 2339 003e 43EA0263 		orr	r3, r3, r2, lsl #24
 2340 0042 2B61     		str	r3, [r5, #16]
1096:Drivers/STM32F4xx_HAL_Driver/Src/stm32f4xx_ll_fmc.c ****                            (Timing->WaitSetupTime << FMC_PIO4_IOWAIT4_Pos) |
1097:Drivers/STM32F4xx_HAL_Driver/Src/stm32f4xx_ll_fmc.c ****                            (Timing->HoldSetupTime << FMC_PIO4_IOHOLD4_Pos) |
1098:Drivers/STM32F4xx_HAL_Driver/Src/stm32f4xx_ll_fmc.c ****                            (Timing->HiZSetupTime  << FMC_PIO4_IOHIZ4_Pos)));
ARM GAS  /var/folders/qx/2_175_4n2s19vhvtspjhb3qh0000gn/T//cc35DONQ.s 			page 63


1099:Drivers/STM32F4xx_HAL_Driver/Src/stm32f4xx_ll_fmc.c **** 
1100:Drivers/STM32F4xx_HAL_Driver/Src/stm32f4xx_ll_fmc.c ****   return HAL_OK;
 2341              		.loc 1 1100 3 view .LVU485
1101:Drivers/STM32F4xx_HAL_Driver/Src/stm32f4xx_ll_fmc.c **** }
 2342              		.loc 1 1101 1 is_stmt 0 view .LVU486
 2343 0044 0020     		movs	r0, #0
 2344 0046 38BD     		pop	{r3, r4, r5, pc}
 2345              	.LVL173:
 2346              	.L262:
1088:Drivers/STM32F4xx_HAL_Driver/Src/stm32f4xx_ll_fmc.c ****   assert_param(IS_FMC_WAIT_TIME(Timing->WaitSetupTime));
 2347              		.loc 1 1088 3 discriminator 1 view .LVU487
 2348 0048 4FF48861 		mov	r1, #1088
 2349 004c 0B48     		ldr	r0, .L266+4
 2350 004e FFF7FEFF 		bl	assert_failed
 2351              	.LVL174:
 2352 0052 E3E7     		b	.L257
 2353              	.L263:
1089:Drivers/STM32F4xx_HAL_Driver/Src/stm32f4xx_ll_fmc.c ****   assert_param(IS_FMC_HOLD_TIME(Timing->HoldSetupTime));
 2354              		.loc 1 1089 3 discriminator 1 view .LVU488
 2355 0054 40F24141 		movw	r1, #1089
 2356 0058 0848     		ldr	r0, .L266+4
 2357 005a FFF7FEFF 		bl	assert_failed
 2358              	.LVL175:
 2359 005e E0E7     		b	.L258
 2360              	.L264:
1090:Drivers/STM32F4xx_HAL_Driver/Src/stm32f4xx_ll_fmc.c ****   assert_param(IS_FMC_HIZ_TIME(Timing->HiZSetupTime));
 2361              		.loc 1 1090 3 discriminator 1 view .LVU489
 2362 0060 40F24241 		movw	r1, #1090
 2363 0064 0548     		ldr	r0, .L266+4
 2364 0066 FFF7FEFF 		bl	assert_failed
 2365              	.LVL176:
 2366 006a DDE7     		b	.L259
 2367              	.L265:
1091:Drivers/STM32F4xx_HAL_Driver/Src/stm32f4xx_ll_fmc.c **** #endif /* FMC_Bank3) || defined(FMC_Bank2_3 */
 2368              		.loc 1 1091 3 discriminator 1 view .LVU490
 2369 006c 40F24341 		movw	r1, #1091
 2370 0070 0248     		ldr	r0, .L266+4
 2371 0072 FFF7FEFF 		bl	assert_failed
 2372              	.LVL177:
 2373 0076 DAE7     		b	.L260
 2374              	.L267:
 2375              		.align	2
 2376              	.L266:
 2377 0078 A00000A0 		.word	-1610612576
 2378 007c 00000000 		.word	.LC0
 2379              		.cfi_endproc
 2380              	.LFE255:
 2382              		.section	.text.FMC_PCCARD_DeInit,"ax",%progbits
 2383              		.align	1
 2384              		.global	FMC_PCCARD_DeInit
 2385              		.syntax unified
 2386              		.thumb
 2387              		.thumb_func
 2389              	FMC_PCCARD_DeInit:
 2390              	.LVL178:
 2391              	.LFB256:
1102:Drivers/STM32F4xx_HAL_Driver/Src/stm32f4xx_ll_fmc.c **** 
ARM GAS  /var/folders/qx/2_175_4n2s19vhvtspjhb3qh0000gn/T//cc35DONQ.s 			page 64


1103:Drivers/STM32F4xx_HAL_Driver/Src/stm32f4xx_ll_fmc.c **** /**
1104:Drivers/STM32F4xx_HAL_Driver/Src/stm32f4xx_ll_fmc.c ****   * @brief  DeInitializes the FMC_PCCARD device
1105:Drivers/STM32F4xx_HAL_Driver/Src/stm32f4xx_ll_fmc.c ****   * @param  Device Pointer to PCCARD device instance
1106:Drivers/STM32F4xx_HAL_Driver/Src/stm32f4xx_ll_fmc.c ****   * @retval HAL status
1107:Drivers/STM32F4xx_HAL_Driver/Src/stm32f4xx_ll_fmc.c ****   */
1108:Drivers/STM32F4xx_HAL_Driver/Src/stm32f4xx_ll_fmc.c **** HAL_StatusTypeDef FMC_PCCARD_DeInit(FMC_PCCARD_TypeDef *Device)
1109:Drivers/STM32F4xx_HAL_Driver/Src/stm32f4xx_ll_fmc.c **** {
 2392              		.loc 1 1109 1 is_stmt 1 view -0
 2393              		.cfi_startproc
 2394              		@ args = 0, pretend = 0, frame = 0
 2395              		@ frame_needed = 0, uses_anonymous_args = 0
 2396              		.loc 1 1109 1 is_stmt 0 view .LVU492
 2397 0000 10B5     		push	{r4, lr}
 2398              	.LCFI17:
 2399              		.cfi_def_cfa_offset 8
 2400              		.cfi_offset 4, -8
 2401              		.cfi_offset 14, -4
 2402 0002 0446     		mov	r4, r0
1110:Drivers/STM32F4xx_HAL_Driver/Src/stm32f4xx_ll_fmc.c ****   /* Check the parameters */
1111:Drivers/STM32F4xx_HAL_Driver/Src/stm32f4xx_ll_fmc.c ****   assert_param(IS_FMC_PCCARD_DEVICE(Device));
 2403              		.loc 1 1111 3 is_stmt 1 view .LVU493
 2404 0004 0B4B     		ldr	r3, .L271
 2405 0006 9842     		cmp	r0, r3
 2406 0008 04D0     		beq	.L269
 2407              		.loc 1 1111 3 is_stmt 0 discriminator 1 view .LVU494
 2408 000a 40F25741 		movw	r1, #1111
 2409 000e 0A48     		ldr	r0, .L271+4
 2410              	.LVL179:
 2411              		.loc 1 1111 3 discriminator 1 view .LVU495
 2412 0010 FFF7FEFF 		bl	assert_failed
 2413              	.LVL180:
 2414              	.L269:
1112:Drivers/STM32F4xx_HAL_Driver/Src/stm32f4xx_ll_fmc.c **** 
1113:Drivers/STM32F4xx_HAL_Driver/Src/stm32f4xx_ll_fmc.c ****   /* Disable the FMC_PCCARD device */
1114:Drivers/STM32F4xx_HAL_Driver/Src/stm32f4xx_ll_fmc.c ****   __FMC_PCCARD_DISABLE(Device);
 2415              		.loc 1 1114 3 is_stmt 1 view .LVU496
 2416 0014 2368     		ldr	r3, [r4]
 2417 0016 23F00403 		bic	r3, r3, #4
 2418 001a 2360     		str	r3, [r4]
1115:Drivers/STM32F4xx_HAL_Driver/Src/stm32f4xx_ll_fmc.c **** 
1116:Drivers/STM32F4xx_HAL_Driver/Src/stm32f4xx_ll_fmc.c ****   /* De-initialize the FMC_PCCARD device */
1117:Drivers/STM32F4xx_HAL_Driver/Src/stm32f4xx_ll_fmc.c ****   Device->PCR4    = 0x00000018U;
 2419              		.loc 1 1117 3 view .LVU497
 2420              		.loc 1 1117 19 is_stmt 0 view .LVU498
 2421 001c 1823     		movs	r3, #24
 2422 001e 2360     		str	r3, [r4]
1118:Drivers/STM32F4xx_HAL_Driver/Src/stm32f4xx_ll_fmc.c ****   Device->SR4     = 0x00000040U;
 2423              		.loc 1 1118 3 is_stmt 1 view .LVU499
 2424              		.loc 1 1118 19 is_stmt 0 view .LVU500
 2425 0020 4023     		movs	r3, #64
 2426 0022 6360     		str	r3, [r4, #4]
1119:Drivers/STM32F4xx_HAL_Driver/Src/stm32f4xx_ll_fmc.c ****   Device->PMEM4   = 0xFCFCFCFCU;
 2427              		.loc 1 1119 3 is_stmt 1 view .LVU501
 2428              		.loc 1 1119 19 is_stmt 0 view .LVU502
 2429 0024 4FF0FC33 		mov	r3, #-50529028
 2430 0028 A360     		str	r3, [r4, #8]
1120:Drivers/STM32F4xx_HAL_Driver/Src/stm32f4xx_ll_fmc.c ****   Device->PATT4   = 0xFCFCFCFCU;
ARM GAS  /var/folders/qx/2_175_4n2s19vhvtspjhb3qh0000gn/T//cc35DONQ.s 			page 65


 2431              		.loc 1 1120 3 is_stmt 1 view .LVU503
 2432              		.loc 1 1120 19 is_stmt 0 view .LVU504
 2433 002a E360     		str	r3, [r4, #12]
1121:Drivers/STM32F4xx_HAL_Driver/Src/stm32f4xx_ll_fmc.c ****   Device->PIO4    = 0xFCFCFCFCU;
 2434              		.loc 1 1121 3 is_stmt 1 view .LVU505
 2435              		.loc 1 1121 19 is_stmt 0 view .LVU506
 2436 002c 2361     		str	r3, [r4, #16]
1122:Drivers/STM32F4xx_HAL_Driver/Src/stm32f4xx_ll_fmc.c **** 
1123:Drivers/STM32F4xx_HAL_Driver/Src/stm32f4xx_ll_fmc.c ****   return HAL_OK;
 2437              		.loc 1 1123 3 is_stmt 1 view .LVU507
1124:Drivers/STM32F4xx_HAL_Driver/Src/stm32f4xx_ll_fmc.c **** }
 2438              		.loc 1 1124 1 is_stmt 0 view .LVU508
 2439 002e 0020     		movs	r0, #0
 2440 0030 10BD     		pop	{r4, pc}
 2441              	.LVL181:
 2442              	.L272:
 2443              		.loc 1 1124 1 view .LVU509
 2444 0032 00BF     		.align	2
 2445              	.L271:
 2446 0034 A00000A0 		.word	-1610612576
 2447 0038 00000000 		.word	.LC0
 2448              		.cfi_endproc
 2449              	.LFE256:
 2451              		.section	.text.FMC_SDRAM_Init,"ax",%progbits
 2452              		.align	1
 2453              		.global	FMC_SDRAM_Init
 2454              		.syntax unified
 2455              		.thumb
 2456              		.thumb_func
 2458              	FMC_SDRAM_Init:
 2459              	.LVL182:
 2460              	.LFB257:
1125:Drivers/STM32F4xx_HAL_Driver/Src/stm32f4xx_ll_fmc.c **** 
1126:Drivers/STM32F4xx_HAL_Driver/Src/stm32f4xx_ll_fmc.c **** /**
1127:Drivers/STM32F4xx_HAL_Driver/Src/stm32f4xx_ll_fmc.c ****   * @}
1128:Drivers/STM32F4xx_HAL_Driver/Src/stm32f4xx_ll_fmc.c ****   */
1129:Drivers/STM32F4xx_HAL_Driver/Src/stm32f4xx_ll_fmc.c **** #endif /* FMC_Bank4 */
1130:Drivers/STM32F4xx_HAL_Driver/Src/stm32f4xx_ll_fmc.c **** 
1131:Drivers/STM32F4xx_HAL_Driver/Src/stm32f4xx_ll_fmc.c **** #if defined(FMC_Bank5_6)
1132:Drivers/STM32F4xx_HAL_Driver/Src/stm32f4xx_ll_fmc.c **** 
1133:Drivers/STM32F4xx_HAL_Driver/Src/stm32f4xx_ll_fmc.c **** /** @defgroup FMC_LL_SDRAM
1134:Drivers/STM32F4xx_HAL_Driver/Src/stm32f4xx_ll_fmc.c ****   * @brief    SDRAM Controller functions
1135:Drivers/STM32F4xx_HAL_Driver/Src/stm32f4xx_ll_fmc.c ****   *
1136:Drivers/STM32F4xx_HAL_Driver/Src/stm32f4xx_ll_fmc.c ****   @verbatim
1137:Drivers/STM32F4xx_HAL_Driver/Src/stm32f4xx_ll_fmc.c ****   ==============================================================================
1138:Drivers/STM32F4xx_HAL_Driver/Src/stm32f4xx_ll_fmc.c ****                      ##### How to use SDRAM device driver #####
1139:Drivers/STM32F4xx_HAL_Driver/Src/stm32f4xx_ll_fmc.c ****   ==============================================================================
1140:Drivers/STM32F4xx_HAL_Driver/Src/stm32f4xx_ll_fmc.c ****   [..]
1141:Drivers/STM32F4xx_HAL_Driver/Src/stm32f4xx_ll_fmc.c ****     This driver contains a set of APIs to interface with the FMC SDRAM banks in order
1142:Drivers/STM32F4xx_HAL_Driver/Src/stm32f4xx_ll_fmc.c ****     to run the SDRAM external devices.
1143:Drivers/STM32F4xx_HAL_Driver/Src/stm32f4xx_ll_fmc.c **** 
1144:Drivers/STM32F4xx_HAL_Driver/Src/stm32f4xx_ll_fmc.c ****     (+) FMC SDRAM bank reset using the function FMC_SDRAM_DeInit()
1145:Drivers/STM32F4xx_HAL_Driver/Src/stm32f4xx_ll_fmc.c ****     (+) FMC SDRAM bank control configuration using the function FMC_SDRAM_Init()
1146:Drivers/STM32F4xx_HAL_Driver/Src/stm32f4xx_ll_fmc.c ****     (+) FMC SDRAM bank timing configuration using the function FMC_SDRAM_Timing_Init()
1147:Drivers/STM32F4xx_HAL_Driver/Src/stm32f4xx_ll_fmc.c ****     (+) FMC SDRAM bank enable/disable write operation using the functions
1148:Drivers/STM32F4xx_HAL_Driver/Src/stm32f4xx_ll_fmc.c ****         FMC_SDRAM_WriteOperation_Enable()/FMC_SDRAM_WriteOperation_Disable()
1149:Drivers/STM32F4xx_HAL_Driver/Src/stm32f4xx_ll_fmc.c ****     (+) FMC SDRAM bank send command using the function FMC_SDRAM_SendCommand()
ARM GAS  /var/folders/qx/2_175_4n2s19vhvtspjhb3qh0000gn/T//cc35DONQ.s 			page 66


1150:Drivers/STM32F4xx_HAL_Driver/Src/stm32f4xx_ll_fmc.c **** 
1151:Drivers/STM32F4xx_HAL_Driver/Src/stm32f4xx_ll_fmc.c **** @endverbatim
1152:Drivers/STM32F4xx_HAL_Driver/Src/stm32f4xx_ll_fmc.c ****   * @{
1153:Drivers/STM32F4xx_HAL_Driver/Src/stm32f4xx_ll_fmc.c ****   */
1154:Drivers/STM32F4xx_HAL_Driver/Src/stm32f4xx_ll_fmc.c **** 
1155:Drivers/STM32F4xx_HAL_Driver/Src/stm32f4xx_ll_fmc.c **** /** @addtogroup FMC_LL_SDRAM_Private_Functions_Group1
1156:Drivers/STM32F4xx_HAL_Driver/Src/stm32f4xx_ll_fmc.c ****   *  @brief    Initialization and Configuration functions
1157:Drivers/STM32F4xx_HAL_Driver/Src/stm32f4xx_ll_fmc.c ****   *
1158:Drivers/STM32F4xx_HAL_Driver/Src/stm32f4xx_ll_fmc.c **** @verbatim
1159:Drivers/STM32F4xx_HAL_Driver/Src/stm32f4xx_ll_fmc.c ****   ==============================================================================
1160:Drivers/STM32F4xx_HAL_Driver/Src/stm32f4xx_ll_fmc.c ****               ##### Initialization and de_initialization functions #####
1161:Drivers/STM32F4xx_HAL_Driver/Src/stm32f4xx_ll_fmc.c ****   ==============================================================================
1162:Drivers/STM32F4xx_HAL_Driver/Src/stm32f4xx_ll_fmc.c ****   [..]
1163:Drivers/STM32F4xx_HAL_Driver/Src/stm32f4xx_ll_fmc.c ****     This section provides functions allowing to:
1164:Drivers/STM32F4xx_HAL_Driver/Src/stm32f4xx_ll_fmc.c ****     (+) Initialize and configure the FMC SDRAM interface
1165:Drivers/STM32F4xx_HAL_Driver/Src/stm32f4xx_ll_fmc.c ****     (+) De-initialize the FMC SDRAM interface
1166:Drivers/STM32F4xx_HAL_Driver/Src/stm32f4xx_ll_fmc.c ****     (+) Configure the FMC clock and associated GPIOs
1167:Drivers/STM32F4xx_HAL_Driver/Src/stm32f4xx_ll_fmc.c **** 
1168:Drivers/STM32F4xx_HAL_Driver/Src/stm32f4xx_ll_fmc.c **** @endverbatim
1169:Drivers/STM32F4xx_HAL_Driver/Src/stm32f4xx_ll_fmc.c ****   * @{
1170:Drivers/STM32F4xx_HAL_Driver/Src/stm32f4xx_ll_fmc.c ****   */
1171:Drivers/STM32F4xx_HAL_Driver/Src/stm32f4xx_ll_fmc.c **** 
1172:Drivers/STM32F4xx_HAL_Driver/Src/stm32f4xx_ll_fmc.c **** /**
1173:Drivers/STM32F4xx_HAL_Driver/Src/stm32f4xx_ll_fmc.c ****   * @brief  Initializes the FMC_SDRAM device according to the specified
1174:Drivers/STM32F4xx_HAL_Driver/Src/stm32f4xx_ll_fmc.c ****   *         control parameters in the FMC_SDRAM_InitTypeDef
1175:Drivers/STM32F4xx_HAL_Driver/Src/stm32f4xx_ll_fmc.c ****   * @param  Device Pointer to SDRAM device instance
1176:Drivers/STM32F4xx_HAL_Driver/Src/stm32f4xx_ll_fmc.c ****   * @param  Init Pointer to SDRAM Initialization structure
1177:Drivers/STM32F4xx_HAL_Driver/Src/stm32f4xx_ll_fmc.c ****   * @retval HAL status
1178:Drivers/STM32F4xx_HAL_Driver/Src/stm32f4xx_ll_fmc.c ****   */
1179:Drivers/STM32F4xx_HAL_Driver/Src/stm32f4xx_ll_fmc.c **** HAL_StatusTypeDef FMC_SDRAM_Init(FMC_SDRAM_TypeDef *Device, const FMC_SDRAM_InitTypeDef *Init)
1180:Drivers/STM32F4xx_HAL_Driver/Src/stm32f4xx_ll_fmc.c **** {
 2461              		.loc 1 1180 1 is_stmt 1 view -0
 2462              		.cfi_startproc
 2463              		@ args = 0, pretend = 0, frame = 0
 2464              		@ frame_needed = 0, uses_anonymous_args = 0
 2465              		.loc 1 1180 1 is_stmt 0 view .LVU511
 2466 0000 38B5     		push	{r3, r4, r5, lr}
 2467              	.LCFI18:
 2468              		.cfi_def_cfa_offset 16
 2469              		.cfi_offset 3, -16
 2470              		.cfi_offset 4, -12
 2471              		.cfi_offset 5, -8
 2472              		.cfi_offset 14, -4
 2473 0002 0546     		mov	r5, r0
 2474 0004 0C46     		mov	r4, r1
1181:Drivers/STM32F4xx_HAL_Driver/Src/stm32f4xx_ll_fmc.c ****   /* Check the parameters */
1182:Drivers/STM32F4xx_HAL_Driver/Src/stm32f4xx_ll_fmc.c ****   assert_param(IS_FMC_SDRAM_DEVICE(Device));
 2475              		.loc 1 1182 3 is_stmt 1 view .LVU512
 2476 0006 594B     		ldr	r3, .L298
 2477 0008 9842     		cmp	r0, r3
 2478 000a 04D0     		beq	.L274
 2479              		.loc 1 1182 3 is_stmt 0 discriminator 1 view .LVU513
 2480 000c 40F29E41 		movw	r1, #1182
 2481              	.LVL183:
 2482              		.loc 1 1182 3 discriminator 1 view .LVU514
 2483 0010 5748     		ldr	r0, .L298+4
 2484              	.LVL184:
ARM GAS  /var/folders/qx/2_175_4n2s19vhvtspjhb3qh0000gn/T//cc35DONQ.s 			page 67


 2485              		.loc 1 1182 3 discriminator 1 view .LVU515
 2486 0012 FFF7FEFF 		bl	assert_failed
 2487              	.LVL185:
 2488              	.L274:
1183:Drivers/STM32F4xx_HAL_Driver/Src/stm32f4xx_ll_fmc.c ****   assert_param(IS_FMC_SDRAM_BANK(Init->SDBank));
 2489              		.loc 1 1183 3 is_stmt 1 view .LVU516
 2490 0016 2368     		ldr	r3, [r4]
 2491 0018 012B     		cmp	r3, #1
 2492 001a 50D8     		bhi	.L288
 2493              	.L275:
1184:Drivers/STM32F4xx_HAL_Driver/Src/stm32f4xx_ll_fmc.c ****   assert_param(IS_FMC_COLUMNBITS_NUMBER(Init->ColumnBitsNumber));
 2494              		.loc 1 1184 3 view .LVU517
 2495 001c 6368     		ldr	r3, [r4, #4]
 2496 001e 032B     		cmp	r3, #3
 2497 0020 53D8     		bhi	.L289
 2498              	.L276:
1185:Drivers/STM32F4xx_HAL_Driver/Src/stm32f4xx_ll_fmc.c ****   assert_param(IS_FMC_ROWBITS_NUMBER(Init->RowBitsNumber));
 2499              		.loc 1 1185 3 view .LVU518
 2500 0022 A368     		ldr	r3, [r4, #8]
 2501 0024 1BB1     		cbz	r3, .L277
 2502              		.loc 1 1185 3 is_stmt 0 discriminator 1 view .LVU519
 2503 0026 042B     		cmp	r3, #4
 2504 0028 01D0     		beq	.L277
 2505              		.loc 1 1185 3 discriminator 2 view .LVU520
 2506 002a 082B     		cmp	r3, #8
 2507 002c 53D1     		bne	.L290
 2508              	.L277:
1186:Drivers/STM32F4xx_HAL_Driver/Src/stm32f4xx_ll_fmc.c ****   assert_param(IS_FMC_SDMEMORY_WIDTH(Init->MemoryDataWidth));
 2509              		.loc 1 1186 3 is_stmt 1 view .LVU521
 2510 002e E368     		ldr	r3, [r4, #12]
 2511 0030 1BB1     		cbz	r3, .L278
 2512              		.loc 1 1186 3 is_stmt 0 discriminator 1 view .LVU522
 2513 0032 102B     		cmp	r3, #16
 2514 0034 01D0     		beq	.L278
 2515              		.loc 1 1186 3 discriminator 2 view .LVU523
 2516 0036 202B     		cmp	r3, #32
 2517 0038 53D1     		bne	.L291
 2518              	.L278:
1187:Drivers/STM32F4xx_HAL_Driver/Src/stm32f4xx_ll_fmc.c ****   assert_param(IS_FMC_INTERNALBANK_NUMBER(Init->InternalBankNumber));
 2519              		.loc 1 1187 3 is_stmt 1 view .LVU524
 2520 003a 2369     		ldr	r3, [r4, #16]
 2521 003c 0BB1     		cbz	r3, .L279
 2522              		.loc 1 1187 3 is_stmt 0 discriminator 1 view .LVU525
 2523 003e 402B     		cmp	r3, #64
 2524 0040 55D1     		bne	.L292
 2525              	.L279:
1188:Drivers/STM32F4xx_HAL_Driver/Src/stm32f4xx_ll_fmc.c ****   assert_param(IS_FMC_CAS_LATENCY(Init->CASLatency));
 2526              		.loc 1 1188 3 is_stmt 1 view .LVU526
 2527 0042 6369     		ldr	r3, [r4, #20]
 2528 0044 802B     		cmp	r3, #128
 2529 0046 05D0     		beq	.L280
 2530              		.loc 1 1188 3 is_stmt 0 discriminator 1 view .LVU527
 2531 0048 B3F5807F 		cmp	r3, #256
 2532 004c 02D0     		beq	.L280
 2533              		.loc 1 1188 3 discriminator 2 view .LVU528
 2534 004e B3F5C07F 		cmp	r3, #384
 2535 0052 52D1     		bne	.L293
ARM GAS  /var/folders/qx/2_175_4n2s19vhvtspjhb3qh0000gn/T//cc35DONQ.s 			page 68


 2536              	.L280:
1189:Drivers/STM32F4xx_HAL_Driver/Src/stm32f4xx_ll_fmc.c ****   assert_param(IS_FMC_WRITE_PROTECTION(Init->WriteProtection));
 2537              		.loc 1 1189 3 is_stmt 1 view .LVU529
 2538 0054 A369     		ldr	r3, [r4, #24]
 2539 0056 13B1     		cbz	r3, .L281
 2540              		.loc 1 1189 3 is_stmt 0 discriminator 1 view .LVU530
 2541 0058 B3F5007F 		cmp	r3, #512
 2542 005c 53D1     		bne	.L294
 2543              	.L281:
1190:Drivers/STM32F4xx_HAL_Driver/Src/stm32f4xx_ll_fmc.c ****   assert_param(IS_FMC_SDCLOCK_PERIOD(Init->SDClockPeriod));
 2544              		.loc 1 1190 3 is_stmt 1 view .LVU531
 2545 005e E369     		ldr	r3, [r4, #28]
 2546 0060 2BB1     		cbz	r3, .L282
 2547              		.loc 1 1190 3 is_stmt 0 discriminator 1 view .LVU532
 2548 0062 B3F5006F 		cmp	r3, #2048
 2549 0066 02D0     		beq	.L282
 2550              		.loc 1 1190 3 discriminator 2 view .LVU533
 2551 0068 B3F5406F 		cmp	r3, #3072
 2552 006c 51D1     		bne	.L295
 2553              	.L282:
1191:Drivers/STM32F4xx_HAL_Driver/Src/stm32f4xx_ll_fmc.c ****   assert_param(IS_FMC_READ_BURST(Init->ReadBurst));
 2554              		.loc 1 1191 3 is_stmt 1 view .LVU534
 2555 006e 236A     		ldr	r3, [r4, #32]
 2556 0070 13B1     		cbz	r3, .L283
 2557              		.loc 1 1191 3 is_stmt 0 discriminator 1 view .LVU535
 2558 0072 B3F5805F 		cmp	r3, #4096
 2559 0076 52D1     		bne	.L296
 2560              	.L283:
1192:Drivers/STM32F4xx_HAL_Driver/Src/stm32f4xx_ll_fmc.c ****   assert_param(IS_FMC_READPIPE_DELAY(Init->ReadPipeDelay));
 2561              		.loc 1 1192 3 is_stmt 1 view .LVU536
 2562 0078 636A     		ldr	r3, [r4, #36]
 2563 007a 2BB1     		cbz	r3, .L284
 2564              		.loc 1 1192 3 is_stmt 0 discriminator 1 view .LVU537
 2565 007c B3F5005F 		cmp	r3, #8192
 2566 0080 02D0     		beq	.L284
 2567              		.loc 1 1192 3 discriminator 2 view .LVU538
 2568 0082 B3F5804F 		cmp	r3, #16384
 2569 0086 50D1     		bne	.L297
 2570              	.L284:
1193:Drivers/STM32F4xx_HAL_Driver/Src/stm32f4xx_ll_fmc.c **** 
1194:Drivers/STM32F4xx_HAL_Driver/Src/stm32f4xx_ll_fmc.c ****   /* Set SDRAM bank configuration parameters */
1195:Drivers/STM32F4xx_HAL_Driver/Src/stm32f4xx_ll_fmc.c ****   if (Init->SDBank == FMC_SDRAM_BANK1)
 2571              		.loc 1 1195 3 is_stmt 1 view .LVU539
 2572              		.loc 1 1195 11 is_stmt 0 view .LVU540
 2573 0088 2368     		ldr	r3, [r4]
 2574              		.loc 1 1195 6 view .LVU541
 2575 008a 002B     		cmp	r3, #0
 2576 008c 53D1     		bne	.L285
1196:Drivers/STM32F4xx_HAL_Driver/Src/stm32f4xx_ll_fmc.c ****   {
1197:Drivers/STM32F4xx_HAL_Driver/Src/stm32f4xx_ll_fmc.c ****     MODIFY_REG(Device->SDCR[FMC_SDRAM_BANK1],
 2577              		.loc 1 1197 5 is_stmt 1 view .LVU542
 2578 008e 2A68     		ldr	r2, [r5]
 2579 0090 6FF30E02 		bfc	r2, #0, #15
 2580 0094 6368     		ldr	r3, [r4, #4]
 2581 0096 A168     		ldr	r1, [r4, #8]
 2582 0098 0B43     		orrs	r3, r3, r1
 2583 009a E168     		ldr	r1, [r4, #12]
ARM GAS  /var/folders/qx/2_175_4n2s19vhvtspjhb3qh0000gn/T//cc35DONQ.s 			page 69


 2584 009c 0B43     		orrs	r3, r3, r1
 2585 009e 2169     		ldr	r1, [r4, #16]
 2586 00a0 0B43     		orrs	r3, r3, r1
 2587 00a2 6169     		ldr	r1, [r4, #20]
 2588 00a4 0B43     		orrs	r3, r3, r1
 2589 00a6 A169     		ldr	r1, [r4, #24]
 2590 00a8 0B43     		orrs	r3, r3, r1
 2591 00aa E169     		ldr	r1, [r4, #28]
 2592 00ac 0B43     		orrs	r3, r3, r1
 2593 00ae 216A     		ldr	r1, [r4, #32]
 2594 00b0 0B43     		orrs	r3, r3, r1
 2595 00b2 616A     		ldr	r1, [r4, #36]
 2596 00b4 0B43     		orrs	r3, r3, r1
 2597 00b6 1343     		orrs	r3, r3, r2
 2598 00b8 2B60     		str	r3, [r5]
 2599              	.L286:
1198:Drivers/STM32F4xx_HAL_Driver/Src/stm32f4xx_ll_fmc.c ****                SDCR_CLEAR_MASK,
1199:Drivers/STM32F4xx_HAL_Driver/Src/stm32f4xx_ll_fmc.c ****                (Init->ColumnBitsNumber   |
1200:Drivers/STM32F4xx_HAL_Driver/Src/stm32f4xx_ll_fmc.c ****                 Init->RowBitsNumber      |
1201:Drivers/STM32F4xx_HAL_Driver/Src/stm32f4xx_ll_fmc.c ****                 Init->MemoryDataWidth    |
1202:Drivers/STM32F4xx_HAL_Driver/Src/stm32f4xx_ll_fmc.c ****                 Init->InternalBankNumber |
1203:Drivers/STM32F4xx_HAL_Driver/Src/stm32f4xx_ll_fmc.c ****                 Init->CASLatency         |
1204:Drivers/STM32F4xx_HAL_Driver/Src/stm32f4xx_ll_fmc.c ****                 Init->WriteProtection    |
1205:Drivers/STM32F4xx_HAL_Driver/Src/stm32f4xx_ll_fmc.c ****                 Init->SDClockPeriod      |
1206:Drivers/STM32F4xx_HAL_Driver/Src/stm32f4xx_ll_fmc.c ****                 Init->ReadBurst          |
1207:Drivers/STM32F4xx_HAL_Driver/Src/stm32f4xx_ll_fmc.c ****                 Init->ReadPipeDelay));
1208:Drivers/STM32F4xx_HAL_Driver/Src/stm32f4xx_ll_fmc.c ****   }
1209:Drivers/STM32F4xx_HAL_Driver/Src/stm32f4xx_ll_fmc.c ****   else /* FMC_Bank2_SDRAM */
1210:Drivers/STM32F4xx_HAL_Driver/Src/stm32f4xx_ll_fmc.c ****   {
1211:Drivers/STM32F4xx_HAL_Driver/Src/stm32f4xx_ll_fmc.c ****     MODIFY_REG(Device->SDCR[FMC_SDRAM_BANK1],
1212:Drivers/STM32F4xx_HAL_Driver/Src/stm32f4xx_ll_fmc.c ****                FMC_SDCR1_SDCLK           |
1213:Drivers/STM32F4xx_HAL_Driver/Src/stm32f4xx_ll_fmc.c ****                FMC_SDCR1_RBURST          |
1214:Drivers/STM32F4xx_HAL_Driver/Src/stm32f4xx_ll_fmc.c ****                FMC_SDCR1_RPIPE,
1215:Drivers/STM32F4xx_HAL_Driver/Src/stm32f4xx_ll_fmc.c ****                (Init->SDClockPeriod      |
1216:Drivers/STM32F4xx_HAL_Driver/Src/stm32f4xx_ll_fmc.c ****                 Init->ReadBurst          |
1217:Drivers/STM32F4xx_HAL_Driver/Src/stm32f4xx_ll_fmc.c ****                 Init->ReadPipeDelay));
1218:Drivers/STM32F4xx_HAL_Driver/Src/stm32f4xx_ll_fmc.c **** 
1219:Drivers/STM32F4xx_HAL_Driver/Src/stm32f4xx_ll_fmc.c ****     MODIFY_REG(Device->SDCR[FMC_SDRAM_BANK2],
1220:Drivers/STM32F4xx_HAL_Driver/Src/stm32f4xx_ll_fmc.c ****                SDCR_CLEAR_MASK,
1221:Drivers/STM32F4xx_HAL_Driver/Src/stm32f4xx_ll_fmc.c ****                (Init->ColumnBitsNumber   |
1222:Drivers/STM32F4xx_HAL_Driver/Src/stm32f4xx_ll_fmc.c ****                 Init->RowBitsNumber      |
1223:Drivers/STM32F4xx_HAL_Driver/Src/stm32f4xx_ll_fmc.c ****                 Init->MemoryDataWidth    |
1224:Drivers/STM32F4xx_HAL_Driver/Src/stm32f4xx_ll_fmc.c ****                 Init->InternalBankNumber |
1225:Drivers/STM32F4xx_HAL_Driver/Src/stm32f4xx_ll_fmc.c ****                 Init->CASLatency         |
1226:Drivers/STM32F4xx_HAL_Driver/Src/stm32f4xx_ll_fmc.c ****                 Init->WriteProtection));
1227:Drivers/STM32F4xx_HAL_Driver/Src/stm32f4xx_ll_fmc.c ****   }
1228:Drivers/STM32F4xx_HAL_Driver/Src/stm32f4xx_ll_fmc.c **** 
1229:Drivers/STM32F4xx_HAL_Driver/Src/stm32f4xx_ll_fmc.c ****   return HAL_OK;
 2600              		.loc 1 1229 3 view .LVU543
1230:Drivers/STM32F4xx_HAL_Driver/Src/stm32f4xx_ll_fmc.c **** }
 2601              		.loc 1 1230 1 is_stmt 0 view .LVU544
 2602 00ba 0020     		movs	r0, #0
 2603 00bc 38BD     		pop	{r3, r4, r5, pc}
 2604              	.LVL186:
 2605              	.L288:
1183:Drivers/STM32F4xx_HAL_Driver/Src/stm32f4xx_ll_fmc.c ****   assert_param(IS_FMC_COLUMNBITS_NUMBER(Init->ColumnBitsNumber));
 2606              		.loc 1 1183 3 discriminator 1 view .LVU545
ARM GAS  /var/folders/qx/2_175_4n2s19vhvtspjhb3qh0000gn/T//cc35DONQ.s 			page 70


 2607 00be 40F29F41 		movw	r1, #1183
 2608 00c2 2B48     		ldr	r0, .L298+4
 2609 00c4 FFF7FEFF 		bl	assert_failed
 2610              	.LVL187:
 2611 00c8 A8E7     		b	.L275
 2612              	.L289:
1184:Drivers/STM32F4xx_HAL_Driver/Src/stm32f4xx_ll_fmc.c ****   assert_param(IS_FMC_ROWBITS_NUMBER(Init->RowBitsNumber));
 2613              		.loc 1 1184 3 discriminator 1 view .LVU546
 2614 00ca 4FF49461 		mov	r1, #1184
 2615 00ce 2848     		ldr	r0, .L298+4
 2616 00d0 FFF7FEFF 		bl	assert_failed
 2617              	.LVL188:
 2618 00d4 A5E7     		b	.L276
 2619              	.L290:
1185:Drivers/STM32F4xx_HAL_Driver/Src/stm32f4xx_ll_fmc.c ****   assert_param(IS_FMC_SDMEMORY_WIDTH(Init->MemoryDataWidth));
 2620              		.loc 1 1185 3 discriminator 3 view .LVU547
 2621 00d6 40F2A141 		movw	r1, #1185
 2622 00da 2548     		ldr	r0, .L298+4
 2623 00dc FFF7FEFF 		bl	assert_failed
 2624              	.LVL189:
 2625 00e0 A5E7     		b	.L277
 2626              	.L291:
1186:Drivers/STM32F4xx_HAL_Driver/Src/stm32f4xx_ll_fmc.c ****   assert_param(IS_FMC_INTERNALBANK_NUMBER(Init->InternalBankNumber));
 2627              		.loc 1 1186 3 discriminator 3 view .LVU548
 2628 00e2 40F2A241 		movw	r1, #1186
 2629 00e6 2248     		ldr	r0, .L298+4
 2630 00e8 FFF7FEFF 		bl	assert_failed
 2631              	.LVL190:
 2632 00ec A5E7     		b	.L278
 2633              	.L292:
1187:Drivers/STM32F4xx_HAL_Driver/Src/stm32f4xx_ll_fmc.c ****   assert_param(IS_FMC_CAS_LATENCY(Init->CASLatency));
 2634              		.loc 1 1187 3 discriminator 2 view .LVU549
 2635 00ee 40F2A341 		movw	r1, #1187
 2636 00f2 1F48     		ldr	r0, .L298+4
 2637 00f4 FFF7FEFF 		bl	assert_failed
 2638              	.LVL191:
 2639 00f8 A3E7     		b	.L279
 2640              	.L293:
1188:Drivers/STM32F4xx_HAL_Driver/Src/stm32f4xx_ll_fmc.c ****   assert_param(IS_FMC_WRITE_PROTECTION(Init->WriteProtection));
 2641              		.loc 1 1188 3 discriminator 3 view .LVU550
 2642 00fa 40F2A441 		movw	r1, #1188
 2643 00fe 1C48     		ldr	r0, .L298+4
 2644 0100 FFF7FEFF 		bl	assert_failed
 2645              	.LVL192:
 2646 0104 A6E7     		b	.L280
 2647              	.L294:
1189:Drivers/STM32F4xx_HAL_Driver/Src/stm32f4xx_ll_fmc.c ****   assert_param(IS_FMC_SDCLOCK_PERIOD(Init->SDClockPeriod));
 2648              		.loc 1 1189 3 discriminator 2 view .LVU551
 2649 0106 40F2A541 		movw	r1, #1189
 2650 010a 1948     		ldr	r0, .L298+4
 2651 010c FFF7FEFF 		bl	assert_failed
 2652              	.LVL193:
 2653 0110 A5E7     		b	.L281
 2654              	.L295:
1190:Drivers/STM32F4xx_HAL_Driver/Src/stm32f4xx_ll_fmc.c ****   assert_param(IS_FMC_READ_BURST(Init->ReadBurst));
 2655              		.loc 1 1190 3 discriminator 3 view .LVU552
 2656 0112 40F2A641 		movw	r1, #1190
ARM GAS  /var/folders/qx/2_175_4n2s19vhvtspjhb3qh0000gn/T//cc35DONQ.s 			page 71


 2657 0116 1648     		ldr	r0, .L298+4
 2658 0118 FFF7FEFF 		bl	assert_failed
 2659              	.LVL194:
 2660 011c A7E7     		b	.L282
 2661              	.L296:
1191:Drivers/STM32F4xx_HAL_Driver/Src/stm32f4xx_ll_fmc.c ****   assert_param(IS_FMC_READPIPE_DELAY(Init->ReadPipeDelay));
 2662              		.loc 1 1191 3 discriminator 2 view .LVU553
 2663 011e 40F2A741 		movw	r1, #1191
 2664 0122 1348     		ldr	r0, .L298+4
 2665 0124 FFF7FEFF 		bl	assert_failed
 2666              	.LVL195:
 2667 0128 A6E7     		b	.L283
 2668              	.L297:
1192:Drivers/STM32F4xx_HAL_Driver/Src/stm32f4xx_ll_fmc.c **** 
 2669              		.loc 1 1192 3 discriminator 3 view .LVU554
 2670 012a 4FF49561 		mov	r1, #1192
 2671 012e 1048     		ldr	r0, .L298+4
 2672 0130 FFF7FEFF 		bl	assert_failed
 2673              	.LVL196:
 2674 0134 A8E7     		b	.L284
 2675              	.L285:
1211:Drivers/STM32F4xx_HAL_Driver/Src/stm32f4xx_ll_fmc.c ****                FMC_SDCR1_SDCLK           |
 2676              		.loc 1 1211 5 is_stmt 1 view .LVU555
 2677 0136 2B68     		ldr	r3, [r5]
 2678 0138 23F4F843 		bic	r3, r3, #31744
 2679 013c E269     		ldr	r2, [r4, #28]
 2680 013e 216A     		ldr	r1, [r4, #32]
 2681 0140 0A43     		orrs	r2, r2, r1
 2682 0142 616A     		ldr	r1, [r4, #36]
 2683 0144 0A43     		orrs	r2, r2, r1
 2684 0146 1343     		orrs	r3, r3, r2
 2685 0148 2B60     		str	r3, [r5]
1219:Drivers/STM32F4xx_HAL_Driver/Src/stm32f4xx_ll_fmc.c ****                SDCR_CLEAR_MASK,
 2686              		.loc 1 1219 5 view .LVU556
 2687 014a 6A68     		ldr	r2, [r5, #4]
 2688 014c 6FF30E02 		bfc	r2, #0, #15
 2689 0150 6368     		ldr	r3, [r4, #4]
 2690 0152 A168     		ldr	r1, [r4, #8]
 2691 0154 0B43     		orrs	r3, r3, r1
 2692 0156 E168     		ldr	r1, [r4, #12]
 2693 0158 0B43     		orrs	r3, r3, r1
 2694 015a 2169     		ldr	r1, [r4, #16]
 2695 015c 0B43     		orrs	r3, r3, r1
 2696 015e 6169     		ldr	r1, [r4, #20]
 2697 0160 0B43     		orrs	r3, r3, r1
 2698 0162 A169     		ldr	r1, [r4, #24]
 2699 0164 0B43     		orrs	r3, r3, r1
 2700 0166 1343     		orrs	r3, r3, r2
 2701 0168 6B60     		str	r3, [r5, #4]
 2702 016a A6E7     		b	.L286
 2703              	.L299:
 2704              		.align	2
 2705              	.L298:
 2706 016c 400100A0 		.word	-1610612416
 2707 0170 00000000 		.word	.LC0
 2708              		.cfi_endproc
 2709              	.LFE257:
ARM GAS  /var/folders/qx/2_175_4n2s19vhvtspjhb3qh0000gn/T//cc35DONQ.s 			page 72


 2711              		.section	.text.FMC_SDRAM_Timing_Init,"ax",%progbits
 2712              		.align	1
 2713              		.global	FMC_SDRAM_Timing_Init
 2714              		.syntax unified
 2715              		.thumb
 2716              		.thumb_func
 2718              	FMC_SDRAM_Timing_Init:
 2719              	.LVL197:
 2720              	.LFB258:
1231:Drivers/STM32F4xx_HAL_Driver/Src/stm32f4xx_ll_fmc.c **** 
1232:Drivers/STM32F4xx_HAL_Driver/Src/stm32f4xx_ll_fmc.c **** 
1233:Drivers/STM32F4xx_HAL_Driver/Src/stm32f4xx_ll_fmc.c **** /**
1234:Drivers/STM32F4xx_HAL_Driver/Src/stm32f4xx_ll_fmc.c ****   * @brief  Initializes the FMC_SDRAM device timing according to the specified
1235:Drivers/STM32F4xx_HAL_Driver/Src/stm32f4xx_ll_fmc.c ****   *         parameters in the FMC_SDRAM_TimingTypeDef
1236:Drivers/STM32F4xx_HAL_Driver/Src/stm32f4xx_ll_fmc.c ****   * @param  Device Pointer to SDRAM device instance
1237:Drivers/STM32F4xx_HAL_Driver/Src/stm32f4xx_ll_fmc.c ****   * @param  Timing Pointer to SDRAM Timing structure
1238:Drivers/STM32F4xx_HAL_Driver/Src/stm32f4xx_ll_fmc.c ****   * @param  Bank SDRAM bank number
1239:Drivers/STM32F4xx_HAL_Driver/Src/stm32f4xx_ll_fmc.c ****   * @retval HAL status
1240:Drivers/STM32F4xx_HAL_Driver/Src/stm32f4xx_ll_fmc.c ****   */
1241:Drivers/STM32F4xx_HAL_Driver/Src/stm32f4xx_ll_fmc.c **** HAL_StatusTypeDef FMC_SDRAM_Timing_Init(FMC_SDRAM_TypeDef *Device,
1242:Drivers/STM32F4xx_HAL_Driver/Src/stm32f4xx_ll_fmc.c ****                                         const FMC_SDRAM_TimingTypeDef *Timing, uint32_t Bank)
1243:Drivers/STM32F4xx_HAL_Driver/Src/stm32f4xx_ll_fmc.c **** {
 2721              		.loc 1 1243 1 view -0
 2722              		.cfi_startproc
 2723              		@ args = 0, pretend = 0, frame = 0
 2724              		@ frame_needed = 0, uses_anonymous_args = 0
 2725              		.loc 1 1243 1 is_stmt 0 view .LVU558
 2726 0000 70B5     		push	{r4, r5, r6, lr}
 2727              	.LCFI19:
 2728              		.cfi_def_cfa_offset 16
 2729              		.cfi_offset 4, -16
 2730              		.cfi_offset 5, -12
 2731              		.cfi_offset 6, -8
 2732              		.cfi_offset 14, -4
 2733 0002 0546     		mov	r5, r0
 2734 0004 0C46     		mov	r4, r1
 2735 0006 1646     		mov	r6, r2
1244:Drivers/STM32F4xx_HAL_Driver/Src/stm32f4xx_ll_fmc.c ****   /* Check the parameters */
1245:Drivers/STM32F4xx_HAL_Driver/Src/stm32f4xx_ll_fmc.c ****   assert_param(IS_FMC_SDRAM_DEVICE(Device));
 2736              		.loc 1 1245 3 is_stmt 1 view .LVU559
 2737 0008 4F4B     		ldr	r3, .L321
 2738 000a 9842     		cmp	r0, r3
 2739 000c 04D0     		beq	.L301
 2740              		.loc 1 1245 3 is_stmt 0 discriminator 1 view .LVU560
 2741 000e 40F2DD41 		movw	r1, #1245
 2742              	.LVL198:
 2743              		.loc 1 1245 3 discriminator 1 view .LVU561
 2744 0012 4E48     		ldr	r0, .L321+4
 2745              	.LVL199:
 2746              		.loc 1 1245 3 discriminator 1 view .LVU562
 2747 0014 FFF7FEFF 		bl	assert_failed
 2748              	.LVL200:
 2749              	.L301:
1246:Drivers/STM32F4xx_HAL_Driver/Src/stm32f4xx_ll_fmc.c ****   assert_param(IS_FMC_LOADTOACTIVE_DELAY(Timing->LoadToActiveDelay));
 2750              		.loc 1 1246 3 is_stmt 1 view .LVU563
 2751 0018 2368     		ldr	r3, [r4]
 2752 001a 013B     		subs	r3, r3, #1
ARM GAS  /var/folders/qx/2_175_4n2s19vhvtspjhb3qh0000gn/T//cc35DONQ.s 			page 73


 2753 001c 0F2B     		cmp	r3, #15
 2754 001e 3CD8     		bhi	.L313
 2755              	.L302:
1247:Drivers/STM32F4xx_HAL_Driver/Src/stm32f4xx_ll_fmc.c ****   assert_param(IS_FMC_EXITSELFREFRESH_DELAY(Timing->ExitSelfRefreshDelay));
 2756              		.loc 1 1247 3 view .LVU564
 2757 0020 6368     		ldr	r3, [r4, #4]
 2758 0022 013B     		subs	r3, r3, #1
 2759 0024 0F2B     		cmp	r3, #15
 2760 0026 3ED8     		bhi	.L314
 2761              	.L303:
1248:Drivers/STM32F4xx_HAL_Driver/Src/stm32f4xx_ll_fmc.c ****   assert_param(IS_FMC_SELFREFRESH_TIME(Timing->SelfRefreshTime));
 2762              		.loc 1 1248 3 view .LVU565
 2763 0028 A368     		ldr	r3, [r4, #8]
 2764 002a 013B     		subs	r3, r3, #1
 2765 002c 0F2B     		cmp	r3, #15
 2766 002e 40D8     		bhi	.L315
 2767              	.L304:
1249:Drivers/STM32F4xx_HAL_Driver/Src/stm32f4xx_ll_fmc.c ****   assert_param(IS_FMC_ROWCYCLE_DELAY(Timing->RowCycleDelay));
 2768              		.loc 1 1249 3 view .LVU566
 2769 0030 E368     		ldr	r3, [r4, #12]
 2770 0032 013B     		subs	r3, r3, #1
 2771 0034 0F2B     		cmp	r3, #15
 2772 0036 42D8     		bhi	.L316
 2773              	.L305:
1250:Drivers/STM32F4xx_HAL_Driver/Src/stm32f4xx_ll_fmc.c ****   assert_param(IS_FMC_WRITE_RECOVERY_TIME(Timing->WriteRecoveryTime));
 2774              		.loc 1 1250 3 view .LVU567
 2775 0038 2369     		ldr	r3, [r4, #16]
 2776 003a 013B     		subs	r3, r3, #1
 2777 003c 0F2B     		cmp	r3, #15
 2778 003e 44D8     		bhi	.L317
 2779              	.L306:
1251:Drivers/STM32F4xx_HAL_Driver/Src/stm32f4xx_ll_fmc.c ****   assert_param(IS_FMC_RP_DELAY(Timing->RPDelay));
 2780              		.loc 1 1251 3 view .LVU568
 2781 0040 6369     		ldr	r3, [r4, #20]
 2782 0042 013B     		subs	r3, r3, #1
 2783 0044 0F2B     		cmp	r3, #15
 2784 0046 46D8     		bhi	.L318
 2785              	.L307:
1252:Drivers/STM32F4xx_HAL_Driver/Src/stm32f4xx_ll_fmc.c ****   assert_param(IS_FMC_RCD_DELAY(Timing->RCDDelay));
 2786              		.loc 1 1252 3 view .LVU569
 2787 0048 A369     		ldr	r3, [r4, #24]
 2788 004a 013B     		subs	r3, r3, #1
 2789 004c 0F2B     		cmp	r3, #15
 2790 004e 48D8     		bhi	.L319
 2791              	.L308:
1253:Drivers/STM32F4xx_HAL_Driver/Src/stm32f4xx_ll_fmc.c ****   assert_param(IS_FMC_SDRAM_BANK(Bank));
 2792              		.loc 1 1253 3 view .LVU570
 2793 0050 012E     		cmp	r6, #1
 2794 0052 4CD8     		bhi	.L320
 2795              	.L309:
1254:Drivers/STM32F4xx_HAL_Driver/Src/stm32f4xx_ll_fmc.c **** 
1255:Drivers/STM32F4xx_HAL_Driver/Src/stm32f4xx_ll_fmc.c ****   /* Set SDRAM device timing parameters */
1256:Drivers/STM32F4xx_HAL_Driver/Src/stm32f4xx_ll_fmc.c ****   if (Bank == FMC_SDRAM_BANK1)
 2796              		.loc 1 1256 3 view .LVU571
 2797              		.loc 1 1256 6 is_stmt 0 view .LVU572
 2798 0054 002E     		cmp	r6, #0
 2799 0056 50D1     		bne	.L310
ARM GAS  /var/folders/qx/2_175_4n2s19vhvtspjhb3qh0000gn/T//cc35DONQ.s 			page 74


1257:Drivers/STM32F4xx_HAL_Driver/Src/stm32f4xx_ll_fmc.c ****   {
1258:Drivers/STM32F4xx_HAL_Driver/Src/stm32f4xx_ll_fmc.c ****     MODIFY_REG(Device->SDTR[FMC_SDRAM_BANK1],
 2800              		.loc 1 1258 5 is_stmt 1 view .LVU573
 2801 0058 AA68     		ldr	r2, [r5, #8]
 2802 005a 02F07042 		and	r2, r2, #-268435456
 2803 005e 2368     		ldr	r3, [r4]
 2804 0060 013B     		subs	r3, r3, #1
 2805 0062 6168     		ldr	r1, [r4, #4]
 2806 0064 0139     		subs	r1, r1, #1
 2807 0066 43EA0113 		orr	r3, r3, r1, lsl #4
 2808 006a A168     		ldr	r1, [r4, #8]
 2809 006c 0139     		subs	r1, r1, #1
 2810 006e 43EA0123 		orr	r3, r3, r1, lsl #8
 2811 0072 E168     		ldr	r1, [r4, #12]
 2812 0074 0139     		subs	r1, r1, #1
 2813 0076 43EA0133 		orr	r3, r3, r1, lsl #12
 2814 007a 2169     		ldr	r1, [r4, #16]
 2815 007c 0139     		subs	r1, r1, #1
 2816 007e 43EA0143 		orr	r3, r3, r1, lsl #16
 2817 0082 6169     		ldr	r1, [r4, #20]
 2818 0084 0139     		subs	r1, r1, #1
 2819 0086 43EA0153 		orr	r3, r3, r1, lsl #20
 2820 008a A169     		ldr	r1, [r4, #24]
 2821 008c 0139     		subs	r1, r1, #1
 2822 008e 43EA0163 		orr	r3, r3, r1, lsl #24
 2823 0092 1343     		orrs	r3, r3, r2
 2824 0094 AB60     		str	r3, [r5, #8]
 2825              	.L311:
1259:Drivers/STM32F4xx_HAL_Driver/Src/stm32f4xx_ll_fmc.c ****                SDTR_CLEAR_MASK,
1260:Drivers/STM32F4xx_HAL_Driver/Src/stm32f4xx_ll_fmc.c ****                (((Timing->LoadToActiveDelay) - 1U)                                      |
1261:Drivers/STM32F4xx_HAL_Driver/Src/stm32f4xx_ll_fmc.c ****                 (((Timing->ExitSelfRefreshDelay) - 1U) << FMC_SDTR1_TXSR_Pos) |
1262:Drivers/STM32F4xx_HAL_Driver/Src/stm32f4xx_ll_fmc.c ****                 (((Timing->SelfRefreshTime) - 1U)      << FMC_SDTR1_TRAS_Pos) |
1263:Drivers/STM32F4xx_HAL_Driver/Src/stm32f4xx_ll_fmc.c ****                 (((Timing->RowCycleDelay) - 1U)        << FMC_SDTR1_TRC_Pos)  |
1264:Drivers/STM32F4xx_HAL_Driver/Src/stm32f4xx_ll_fmc.c ****                 (((Timing->WriteRecoveryTime) - 1U)    << FMC_SDTR1_TWR_Pos)  |
1265:Drivers/STM32F4xx_HAL_Driver/Src/stm32f4xx_ll_fmc.c ****                 (((Timing->RPDelay) - 1U)              << FMC_SDTR1_TRP_Pos)  |
1266:Drivers/STM32F4xx_HAL_Driver/Src/stm32f4xx_ll_fmc.c ****                 (((Timing->RCDDelay) - 1U)             << FMC_SDTR1_TRCD_Pos)));
1267:Drivers/STM32F4xx_HAL_Driver/Src/stm32f4xx_ll_fmc.c ****   }
1268:Drivers/STM32F4xx_HAL_Driver/Src/stm32f4xx_ll_fmc.c ****   else /* FMC_Bank2_SDRAM */
1269:Drivers/STM32F4xx_HAL_Driver/Src/stm32f4xx_ll_fmc.c ****   {
1270:Drivers/STM32F4xx_HAL_Driver/Src/stm32f4xx_ll_fmc.c ****     MODIFY_REG(Device->SDTR[FMC_SDRAM_BANK1],
1271:Drivers/STM32F4xx_HAL_Driver/Src/stm32f4xx_ll_fmc.c ****                FMC_SDTR1_TRC |
1272:Drivers/STM32F4xx_HAL_Driver/Src/stm32f4xx_ll_fmc.c ****                FMC_SDTR1_TRP,
1273:Drivers/STM32F4xx_HAL_Driver/Src/stm32f4xx_ll_fmc.c ****                (((Timing->RowCycleDelay) - 1U)         << FMC_SDTR1_TRC_Pos)  |
1274:Drivers/STM32F4xx_HAL_Driver/Src/stm32f4xx_ll_fmc.c ****                (((Timing->RPDelay) - 1U)               << FMC_SDTR1_TRP_Pos));
1275:Drivers/STM32F4xx_HAL_Driver/Src/stm32f4xx_ll_fmc.c **** 
1276:Drivers/STM32F4xx_HAL_Driver/Src/stm32f4xx_ll_fmc.c ****     MODIFY_REG(Device->SDTR[FMC_SDRAM_BANK2],
1277:Drivers/STM32F4xx_HAL_Driver/Src/stm32f4xx_ll_fmc.c ****                SDTR_CLEAR_MASK,
1278:Drivers/STM32F4xx_HAL_Driver/Src/stm32f4xx_ll_fmc.c ****                (((Timing->LoadToActiveDelay) - 1U)                                      |
1279:Drivers/STM32F4xx_HAL_Driver/Src/stm32f4xx_ll_fmc.c ****                 (((Timing->ExitSelfRefreshDelay) - 1U) << FMC_SDTR1_TXSR_Pos) |
1280:Drivers/STM32F4xx_HAL_Driver/Src/stm32f4xx_ll_fmc.c ****                 (((Timing->SelfRefreshTime) - 1U)      << FMC_SDTR1_TRAS_Pos) |
1281:Drivers/STM32F4xx_HAL_Driver/Src/stm32f4xx_ll_fmc.c ****                 (((Timing->WriteRecoveryTime) - 1U)    << FMC_SDTR1_TWR_Pos)  |
1282:Drivers/STM32F4xx_HAL_Driver/Src/stm32f4xx_ll_fmc.c ****                 (((Timing->RCDDelay) - 1U)             << FMC_SDTR1_TRCD_Pos)));
1283:Drivers/STM32F4xx_HAL_Driver/Src/stm32f4xx_ll_fmc.c ****   }
1284:Drivers/STM32F4xx_HAL_Driver/Src/stm32f4xx_ll_fmc.c **** 
1285:Drivers/STM32F4xx_HAL_Driver/Src/stm32f4xx_ll_fmc.c ****   return HAL_OK;
 2826              		.loc 1 1285 3 view .LVU574
1286:Drivers/STM32F4xx_HAL_Driver/Src/stm32f4xx_ll_fmc.c **** }
ARM GAS  /var/folders/qx/2_175_4n2s19vhvtspjhb3qh0000gn/T//cc35DONQ.s 			page 75


 2827              		.loc 1 1286 1 is_stmt 0 view .LVU575
 2828 0096 0020     		movs	r0, #0
 2829 0098 70BD     		pop	{r4, r5, r6, pc}
 2830              	.LVL201:
 2831              	.L313:
1246:Drivers/STM32F4xx_HAL_Driver/Src/stm32f4xx_ll_fmc.c ****   assert_param(IS_FMC_EXITSELFREFRESH_DELAY(Timing->ExitSelfRefreshDelay));
 2832              		.loc 1 1246 3 discriminator 1 view .LVU576
 2833 009a 40F2DE41 		movw	r1, #1246
 2834 009e 2B48     		ldr	r0, .L321+4
 2835 00a0 FFF7FEFF 		bl	assert_failed
 2836              	.LVL202:
 2837 00a4 BCE7     		b	.L302
 2838              	.L314:
1247:Drivers/STM32F4xx_HAL_Driver/Src/stm32f4xx_ll_fmc.c ****   assert_param(IS_FMC_SELFREFRESH_TIME(Timing->SelfRefreshTime));
 2839              		.loc 1 1247 3 discriminator 1 view .LVU577
 2840 00a6 40F2DF41 		movw	r1, #1247
 2841 00aa 2848     		ldr	r0, .L321+4
 2842 00ac FFF7FEFF 		bl	assert_failed
 2843              	.LVL203:
 2844 00b0 BAE7     		b	.L303
 2845              	.L315:
1248:Drivers/STM32F4xx_HAL_Driver/Src/stm32f4xx_ll_fmc.c ****   assert_param(IS_FMC_ROWCYCLE_DELAY(Timing->RowCycleDelay));
 2846              		.loc 1 1248 3 discriminator 1 view .LVU578
 2847 00b2 4FF49C61 		mov	r1, #1248
 2848 00b6 2548     		ldr	r0, .L321+4
 2849 00b8 FFF7FEFF 		bl	assert_failed
 2850              	.LVL204:
 2851 00bc B8E7     		b	.L304
 2852              	.L316:
1249:Drivers/STM32F4xx_HAL_Driver/Src/stm32f4xx_ll_fmc.c ****   assert_param(IS_FMC_WRITE_RECOVERY_TIME(Timing->WriteRecoveryTime));
 2853              		.loc 1 1249 3 discriminator 1 view .LVU579
 2854 00be 40F2E141 		movw	r1, #1249
 2855 00c2 2248     		ldr	r0, .L321+4
 2856 00c4 FFF7FEFF 		bl	assert_failed
 2857              	.LVL205:
 2858 00c8 B6E7     		b	.L305
 2859              	.L317:
1250:Drivers/STM32F4xx_HAL_Driver/Src/stm32f4xx_ll_fmc.c ****   assert_param(IS_FMC_RP_DELAY(Timing->RPDelay));
 2860              		.loc 1 1250 3 discriminator 1 view .LVU580
 2861 00ca 40F2E241 		movw	r1, #1250
 2862 00ce 1F48     		ldr	r0, .L321+4
 2863 00d0 FFF7FEFF 		bl	assert_failed
 2864              	.LVL206:
 2865 00d4 B4E7     		b	.L306
 2866              	.L318:
1251:Drivers/STM32F4xx_HAL_Driver/Src/stm32f4xx_ll_fmc.c ****   assert_param(IS_FMC_RCD_DELAY(Timing->RCDDelay));
 2867              		.loc 1 1251 3 discriminator 1 view .LVU581
 2868 00d6 40F2E341 		movw	r1, #1251
 2869 00da 1C48     		ldr	r0, .L321+4
 2870 00dc FFF7FEFF 		bl	assert_failed
 2871              	.LVL207:
 2872 00e0 B2E7     		b	.L307
 2873              	.L319:
1252:Drivers/STM32F4xx_HAL_Driver/Src/stm32f4xx_ll_fmc.c ****   assert_param(IS_FMC_SDRAM_BANK(Bank));
 2874              		.loc 1 1252 3 discriminator 1 view .LVU582
 2875 00e2 40F2E441 		movw	r1, #1252
 2876 00e6 1948     		ldr	r0, .L321+4
ARM GAS  /var/folders/qx/2_175_4n2s19vhvtspjhb3qh0000gn/T//cc35DONQ.s 			page 76


 2877 00e8 FFF7FEFF 		bl	assert_failed
 2878              	.LVL208:
 2879 00ec B0E7     		b	.L308
 2880              	.L320:
1253:Drivers/STM32F4xx_HAL_Driver/Src/stm32f4xx_ll_fmc.c **** 
 2881              		.loc 1 1253 3 discriminator 1 view .LVU583
 2882 00ee 40F2E541 		movw	r1, #1253
 2883 00f2 1648     		ldr	r0, .L321+4
 2884 00f4 FFF7FEFF 		bl	assert_failed
 2885              	.LVL209:
 2886 00f8 ACE7     		b	.L309
 2887              	.L310:
1270:Drivers/STM32F4xx_HAL_Driver/Src/stm32f4xx_ll_fmc.c ****                FMC_SDTR1_TRC |
 2888              		.loc 1 1270 5 is_stmt 1 view .LVU584
 2889 00fa AB68     		ldr	r3, [r5, #8]
 2890 00fc 23F47003 		bic	r3, r3, #15728640
 2891 0100 23F47043 		bic	r3, r3, #61440
 2892 0104 E268     		ldr	r2, [r4, #12]
 2893 0106 511E     		subs	r1, r2, #1
 2894 0108 6269     		ldr	r2, [r4, #20]
 2895 010a 013A     		subs	r2, r2, #1
 2896 010c 1205     		lsls	r2, r2, #20
 2897 010e 42EA0132 		orr	r2, r2, r1, lsl #12
 2898 0112 1343     		orrs	r3, r3, r2
 2899 0114 AB60     		str	r3, [r5, #8]
1276:Drivers/STM32F4xx_HAL_Driver/Src/stm32f4xx_ll_fmc.c ****                SDTR_CLEAR_MASK,
 2900              		.loc 1 1276 5 view .LVU585
 2901 0116 EA68     		ldr	r2, [r5, #12]
 2902 0118 02F07042 		and	r2, r2, #-268435456
 2903 011c 2368     		ldr	r3, [r4]
 2904 011e 013B     		subs	r3, r3, #1
 2905 0120 6168     		ldr	r1, [r4, #4]
 2906 0122 0139     		subs	r1, r1, #1
 2907 0124 43EA0113 		orr	r3, r3, r1, lsl #4
 2908 0128 A168     		ldr	r1, [r4, #8]
 2909 012a 0139     		subs	r1, r1, #1
 2910 012c 43EA0123 		orr	r3, r3, r1, lsl #8
 2911 0130 2169     		ldr	r1, [r4, #16]
 2912 0132 0139     		subs	r1, r1, #1
 2913 0134 43EA0143 		orr	r3, r3, r1, lsl #16
 2914 0138 A169     		ldr	r1, [r4, #24]
 2915 013a 0139     		subs	r1, r1, #1
 2916 013c 43EA0163 		orr	r3, r3, r1, lsl #24
 2917 0140 1343     		orrs	r3, r3, r2
 2918 0142 EB60     		str	r3, [r5, #12]
 2919 0144 A7E7     		b	.L311
 2920              	.L322:
 2921 0146 00BF     		.align	2
 2922              	.L321:
 2923 0148 400100A0 		.word	-1610612416
 2924 014c 00000000 		.word	.LC0
 2925              		.cfi_endproc
 2926              	.LFE258:
 2928              		.section	.text.FMC_SDRAM_DeInit,"ax",%progbits
 2929              		.align	1
 2930              		.global	FMC_SDRAM_DeInit
 2931              		.syntax unified
ARM GAS  /var/folders/qx/2_175_4n2s19vhvtspjhb3qh0000gn/T//cc35DONQ.s 			page 77


 2932              		.thumb
 2933              		.thumb_func
 2935              	FMC_SDRAM_DeInit:
 2936              	.LVL210:
 2937              	.LFB259:
1287:Drivers/STM32F4xx_HAL_Driver/Src/stm32f4xx_ll_fmc.c **** 
1288:Drivers/STM32F4xx_HAL_Driver/Src/stm32f4xx_ll_fmc.c **** /**
1289:Drivers/STM32F4xx_HAL_Driver/Src/stm32f4xx_ll_fmc.c ****   * @brief  DeInitializes the FMC_SDRAM peripheral
1290:Drivers/STM32F4xx_HAL_Driver/Src/stm32f4xx_ll_fmc.c ****   * @param  Device Pointer to SDRAM device instance
1291:Drivers/STM32F4xx_HAL_Driver/Src/stm32f4xx_ll_fmc.c ****   * @retval HAL status
1292:Drivers/STM32F4xx_HAL_Driver/Src/stm32f4xx_ll_fmc.c ****   */
1293:Drivers/STM32F4xx_HAL_Driver/Src/stm32f4xx_ll_fmc.c **** HAL_StatusTypeDef FMC_SDRAM_DeInit(FMC_SDRAM_TypeDef *Device, uint32_t Bank)
1294:Drivers/STM32F4xx_HAL_Driver/Src/stm32f4xx_ll_fmc.c **** {
 2938              		.loc 1 1294 1 view -0
 2939              		.cfi_startproc
 2940              		@ args = 0, pretend = 0, frame = 0
 2941              		@ frame_needed = 0, uses_anonymous_args = 0
 2942              		.loc 1 1294 1 is_stmt 0 view .LVU587
 2943 0000 38B5     		push	{r3, r4, r5, lr}
 2944              	.LCFI20:
 2945              		.cfi_def_cfa_offset 16
 2946              		.cfi_offset 3, -16
 2947              		.cfi_offset 4, -12
 2948              		.cfi_offset 5, -8
 2949              		.cfi_offset 14, -4
 2950 0002 0446     		mov	r4, r0
 2951 0004 0D46     		mov	r5, r1
1295:Drivers/STM32F4xx_HAL_Driver/Src/stm32f4xx_ll_fmc.c ****   /* Check the parameters */
1296:Drivers/STM32F4xx_HAL_Driver/Src/stm32f4xx_ll_fmc.c ****   assert_param(IS_FMC_SDRAM_DEVICE(Device));
 2952              		.loc 1 1296 3 is_stmt 1 view .LVU588
 2953 0006 0F4B     		ldr	r3, .L328
 2954 0008 9842     		cmp	r0, r3
 2955 000a 04D0     		beq	.L324
 2956              		.loc 1 1296 3 is_stmt 0 discriminator 1 view .LVU589
 2957 000c 4FF4A261 		mov	r1, #1296
 2958              	.LVL211:
 2959              		.loc 1 1296 3 discriminator 1 view .LVU590
 2960 0010 0D48     		ldr	r0, .L328+4
 2961              	.LVL212:
 2962              		.loc 1 1296 3 discriminator 1 view .LVU591
 2963 0012 FFF7FEFF 		bl	assert_failed
 2964              	.LVL213:
 2965              	.L324:
1297:Drivers/STM32F4xx_HAL_Driver/Src/stm32f4xx_ll_fmc.c ****   assert_param(IS_FMC_SDRAM_BANK(Bank));
 2966              		.loc 1 1297 3 is_stmt 1 view .LVU592
 2967 0016 012D     		cmp	r5, #1
 2968 0018 0DD8     		bhi	.L327
 2969              	.L325:
1298:Drivers/STM32F4xx_HAL_Driver/Src/stm32f4xx_ll_fmc.c **** 
1299:Drivers/STM32F4xx_HAL_Driver/Src/stm32f4xx_ll_fmc.c ****   /* De-initialize the SDRAM device */
1300:Drivers/STM32F4xx_HAL_Driver/Src/stm32f4xx_ll_fmc.c ****   Device->SDCR[Bank] = 0x000002D0U;
 2970              		.loc 1 1300 3 view .LVU593
 2971              		.loc 1 1300 22 is_stmt 0 view .LVU594
 2972 001a 4FF43473 		mov	r3, #720
 2973 001e 44F82530 		str	r3, [r4, r5, lsl #2]
1301:Drivers/STM32F4xx_HAL_Driver/Src/stm32f4xx_ll_fmc.c ****   Device->SDTR[Bank] = 0x0FFFFFFFU;
 2974              		.loc 1 1301 3 is_stmt 1 view .LVU595
ARM GAS  /var/folders/qx/2_175_4n2s19vhvtspjhb3qh0000gn/T//cc35DONQ.s 			page 78


 2975              		.loc 1 1301 22 is_stmt 0 view .LVU596
 2976 0022 0235     		adds	r5, r5, #2
 2977              	.LVL214:
 2978              		.loc 1 1301 22 view .LVU597
 2979 0024 6FF07043 		mvn	r3, #-268435456
 2980 0028 44F82530 		str	r3, [r4, r5, lsl #2]
1302:Drivers/STM32F4xx_HAL_Driver/Src/stm32f4xx_ll_fmc.c ****   Device->SDCMR      = 0x00000000U;
 2981              		.loc 1 1302 3 is_stmt 1 view .LVU598
 2982              		.loc 1 1302 22 is_stmt 0 view .LVU599
 2983 002c 0020     		movs	r0, #0
 2984 002e 2061     		str	r0, [r4, #16]
1303:Drivers/STM32F4xx_HAL_Driver/Src/stm32f4xx_ll_fmc.c ****   Device->SDRTR      = 0x00000000U;
 2985              		.loc 1 1303 3 is_stmt 1 view .LVU600
 2986              		.loc 1 1303 22 is_stmt 0 view .LVU601
 2987 0030 6061     		str	r0, [r4, #20]
1304:Drivers/STM32F4xx_HAL_Driver/Src/stm32f4xx_ll_fmc.c ****   Device->SDSR       = 0x00000000U;
 2988              		.loc 1 1304 3 is_stmt 1 view .LVU602
 2989              		.loc 1 1304 22 is_stmt 0 view .LVU603
 2990 0032 A061     		str	r0, [r4, #24]
1305:Drivers/STM32F4xx_HAL_Driver/Src/stm32f4xx_ll_fmc.c **** 
1306:Drivers/STM32F4xx_HAL_Driver/Src/stm32f4xx_ll_fmc.c ****   return HAL_OK;
 2991              		.loc 1 1306 3 is_stmt 1 view .LVU604
1307:Drivers/STM32F4xx_HAL_Driver/Src/stm32f4xx_ll_fmc.c **** }
 2992              		.loc 1 1307 1 is_stmt 0 view .LVU605
 2993 0034 38BD     		pop	{r3, r4, r5, pc}
 2994              	.LVL215:
 2995              	.L327:
1297:Drivers/STM32F4xx_HAL_Driver/Src/stm32f4xx_ll_fmc.c **** 
 2996              		.loc 1 1297 3 discriminator 1 view .LVU606
 2997 0036 40F21151 		movw	r1, #1297
 2998 003a 0348     		ldr	r0, .L328+4
 2999 003c FFF7FEFF 		bl	assert_failed
 3000              	.LVL216:
 3001 0040 EBE7     		b	.L325
 3002              	.L329:
 3003 0042 00BF     		.align	2
 3004              	.L328:
 3005 0044 400100A0 		.word	-1610612416
 3006 0048 00000000 		.word	.LC0
 3007              		.cfi_endproc
 3008              	.LFE259:
 3010              		.section	.text.FMC_SDRAM_WriteProtection_Enable,"ax",%progbits
 3011              		.align	1
 3012              		.global	FMC_SDRAM_WriteProtection_Enable
 3013              		.syntax unified
 3014              		.thumb
 3015              		.thumb_func
 3017              	FMC_SDRAM_WriteProtection_Enable:
 3018              	.LVL217:
 3019              	.LFB260:
1308:Drivers/STM32F4xx_HAL_Driver/Src/stm32f4xx_ll_fmc.c **** 
1309:Drivers/STM32F4xx_HAL_Driver/Src/stm32f4xx_ll_fmc.c **** /**
1310:Drivers/STM32F4xx_HAL_Driver/Src/stm32f4xx_ll_fmc.c ****   * @}
1311:Drivers/STM32F4xx_HAL_Driver/Src/stm32f4xx_ll_fmc.c ****   */
1312:Drivers/STM32F4xx_HAL_Driver/Src/stm32f4xx_ll_fmc.c **** 
1313:Drivers/STM32F4xx_HAL_Driver/Src/stm32f4xx_ll_fmc.c **** /** @addtogroup FMC_LL_SDRAMPrivate_Functions_Group2
1314:Drivers/STM32F4xx_HAL_Driver/Src/stm32f4xx_ll_fmc.c ****   *  @brief   management functions
ARM GAS  /var/folders/qx/2_175_4n2s19vhvtspjhb3qh0000gn/T//cc35DONQ.s 			page 79


1315:Drivers/STM32F4xx_HAL_Driver/Src/stm32f4xx_ll_fmc.c ****   *
1316:Drivers/STM32F4xx_HAL_Driver/Src/stm32f4xx_ll_fmc.c **** @verbatim
1317:Drivers/STM32F4xx_HAL_Driver/Src/stm32f4xx_ll_fmc.c ****   ==============================================================================
1318:Drivers/STM32F4xx_HAL_Driver/Src/stm32f4xx_ll_fmc.c ****                       ##### FMC_SDRAM Control functions #####
1319:Drivers/STM32F4xx_HAL_Driver/Src/stm32f4xx_ll_fmc.c ****   ==============================================================================
1320:Drivers/STM32F4xx_HAL_Driver/Src/stm32f4xx_ll_fmc.c ****   [..]
1321:Drivers/STM32F4xx_HAL_Driver/Src/stm32f4xx_ll_fmc.c ****     This subsection provides a set of functions allowing to control dynamically
1322:Drivers/STM32F4xx_HAL_Driver/Src/stm32f4xx_ll_fmc.c ****     the FMC SDRAM interface.
1323:Drivers/STM32F4xx_HAL_Driver/Src/stm32f4xx_ll_fmc.c **** 
1324:Drivers/STM32F4xx_HAL_Driver/Src/stm32f4xx_ll_fmc.c **** @endverbatim
1325:Drivers/STM32F4xx_HAL_Driver/Src/stm32f4xx_ll_fmc.c ****   * @{
1326:Drivers/STM32F4xx_HAL_Driver/Src/stm32f4xx_ll_fmc.c ****   */
1327:Drivers/STM32F4xx_HAL_Driver/Src/stm32f4xx_ll_fmc.c **** 
1328:Drivers/STM32F4xx_HAL_Driver/Src/stm32f4xx_ll_fmc.c **** /**
1329:Drivers/STM32F4xx_HAL_Driver/Src/stm32f4xx_ll_fmc.c ****   * @brief  Enables dynamically FMC_SDRAM write protection.
1330:Drivers/STM32F4xx_HAL_Driver/Src/stm32f4xx_ll_fmc.c ****   * @param  Device Pointer to SDRAM device instance
1331:Drivers/STM32F4xx_HAL_Driver/Src/stm32f4xx_ll_fmc.c ****   * @param  Bank SDRAM bank number
1332:Drivers/STM32F4xx_HAL_Driver/Src/stm32f4xx_ll_fmc.c ****   * @retval HAL status
1333:Drivers/STM32F4xx_HAL_Driver/Src/stm32f4xx_ll_fmc.c ****   */
1334:Drivers/STM32F4xx_HAL_Driver/Src/stm32f4xx_ll_fmc.c **** HAL_StatusTypeDef FMC_SDRAM_WriteProtection_Enable(FMC_SDRAM_TypeDef *Device, uint32_t Bank)
1335:Drivers/STM32F4xx_HAL_Driver/Src/stm32f4xx_ll_fmc.c **** {
 3020              		.loc 1 1335 1 is_stmt 1 view -0
 3021              		.cfi_startproc
 3022              		@ args = 0, pretend = 0, frame = 0
 3023              		@ frame_needed = 0, uses_anonymous_args = 0
 3024              		.loc 1 1335 1 is_stmt 0 view .LVU608
 3025 0000 38B5     		push	{r3, r4, r5, lr}
 3026              	.LCFI21:
 3027              		.cfi_def_cfa_offset 16
 3028              		.cfi_offset 3, -16
 3029              		.cfi_offset 4, -12
 3030              		.cfi_offset 5, -8
 3031              		.cfi_offset 14, -4
 3032 0002 0446     		mov	r4, r0
 3033 0004 0D46     		mov	r5, r1
1336:Drivers/STM32F4xx_HAL_Driver/Src/stm32f4xx_ll_fmc.c ****   /* Check the parameters */
1337:Drivers/STM32F4xx_HAL_Driver/Src/stm32f4xx_ll_fmc.c ****   assert_param(IS_FMC_SDRAM_DEVICE(Device));
 3034              		.loc 1 1337 3 is_stmt 1 view .LVU609
 3035 0006 0C4B     		ldr	r3, .L335
 3036 0008 9842     		cmp	r0, r3
 3037 000a 04D0     		beq	.L331
 3038              		.loc 1 1337 3 is_stmt 0 discriminator 1 view .LVU610
 3039 000c 40F23951 		movw	r1, #1337
 3040              	.LVL218:
 3041              		.loc 1 1337 3 discriminator 1 view .LVU611
 3042 0010 0A48     		ldr	r0, .L335+4
 3043              	.LVL219:
 3044              		.loc 1 1337 3 discriminator 1 view .LVU612
 3045 0012 FFF7FEFF 		bl	assert_failed
 3046              	.LVL220:
 3047              	.L331:
1338:Drivers/STM32F4xx_HAL_Driver/Src/stm32f4xx_ll_fmc.c ****   assert_param(IS_FMC_SDRAM_BANK(Bank));
 3048              		.loc 1 1338 3 is_stmt 1 view .LVU613
 3049 0016 012D     		cmp	r5, #1
 3050 0018 07D8     		bhi	.L334
 3051              	.L332:
1339:Drivers/STM32F4xx_HAL_Driver/Src/stm32f4xx_ll_fmc.c **** 
ARM GAS  /var/folders/qx/2_175_4n2s19vhvtspjhb3qh0000gn/T//cc35DONQ.s 			page 80


1340:Drivers/STM32F4xx_HAL_Driver/Src/stm32f4xx_ll_fmc.c ****   /* Enable write protection */
1341:Drivers/STM32F4xx_HAL_Driver/Src/stm32f4xx_ll_fmc.c ****   SET_BIT(Device->SDCR[Bank], FMC_SDRAM_WRITE_PROTECTION_ENABLE);
 3052              		.loc 1 1341 3 view .LVU614
 3053 001a 54F82530 		ldr	r3, [r4, r5, lsl #2]
 3054 001e 43F40073 		orr	r3, r3, #512
 3055 0022 44F82530 		str	r3, [r4, r5, lsl #2]
1342:Drivers/STM32F4xx_HAL_Driver/Src/stm32f4xx_ll_fmc.c **** 
1343:Drivers/STM32F4xx_HAL_Driver/Src/stm32f4xx_ll_fmc.c ****   return HAL_OK;
 3056              		.loc 1 1343 3 view .LVU615
1344:Drivers/STM32F4xx_HAL_Driver/Src/stm32f4xx_ll_fmc.c **** }
 3057              		.loc 1 1344 1 is_stmt 0 view .LVU616
 3058 0026 0020     		movs	r0, #0
 3059 0028 38BD     		pop	{r3, r4, r5, pc}
 3060              	.LVL221:
 3061              	.L334:
1338:Drivers/STM32F4xx_HAL_Driver/Src/stm32f4xx_ll_fmc.c **** 
 3062              		.loc 1 1338 3 discriminator 1 view .LVU617
 3063 002a 40F23A51 		movw	r1, #1338
 3064 002e 0348     		ldr	r0, .L335+4
 3065 0030 FFF7FEFF 		bl	assert_failed
 3066              	.LVL222:
 3067 0034 F1E7     		b	.L332
 3068              	.L336:
 3069 0036 00BF     		.align	2
 3070              	.L335:
 3071 0038 400100A0 		.word	-1610612416
 3072 003c 00000000 		.word	.LC0
 3073              		.cfi_endproc
 3074              	.LFE260:
 3076              		.section	.text.FMC_SDRAM_WriteProtection_Disable,"ax",%progbits
 3077              		.align	1
 3078              		.global	FMC_SDRAM_WriteProtection_Disable
 3079              		.syntax unified
 3080              		.thumb
 3081              		.thumb_func
 3083              	FMC_SDRAM_WriteProtection_Disable:
 3084              	.LVL223:
 3085              	.LFB261:
1345:Drivers/STM32F4xx_HAL_Driver/Src/stm32f4xx_ll_fmc.c **** 
1346:Drivers/STM32F4xx_HAL_Driver/Src/stm32f4xx_ll_fmc.c **** /**
1347:Drivers/STM32F4xx_HAL_Driver/Src/stm32f4xx_ll_fmc.c ****   * @brief  Disables dynamically FMC_SDRAM write protection.
1348:Drivers/STM32F4xx_HAL_Driver/Src/stm32f4xx_ll_fmc.c ****   * @param  hsdram FMC_SDRAM handle
1349:Drivers/STM32F4xx_HAL_Driver/Src/stm32f4xx_ll_fmc.c ****   * @retval HAL status
1350:Drivers/STM32F4xx_HAL_Driver/Src/stm32f4xx_ll_fmc.c ****   */
1351:Drivers/STM32F4xx_HAL_Driver/Src/stm32f4xx_ll_fmc.c **** HAL_StatusTypeDef FMC_SDRAM_WriteProtection_Disable(FMC_SDRAM_TypeDef *Device, uint32_t Bank)
1352:Drivers/STM32F4xx_HAL_Driver/Src/stm32f4xx_ll_fmc.c **** {
 3086              		.loc 1 1352 1 is_stmt 1 view -0
 3087              		.cfi_startproc
 3088              		@ args = 0, pretend = 0, frame = 0
 3089              		@ frame_needed = 0, uses_anonymous_args = 0
 3090              		.loc 1 1352 1 is_stmt 0 view .LVU619
 3091 0000 38B5     		push	{r3, r4, r5, lr}
 3092              	.LCFI22:
 3093              		.cfi_def_cfa_offset 16
 3094              		.cfi_offset 3, -16
 3095              		.cfi_offset 4, -12
 3096              		.cfi_offset 5, -8
ARM GAS  /var/folders/qx/2_175_4n2s19vhvtspjhb3qh0000gn/T//cc35DONQ.s 			page 81


 3097              		.cfi_offset 14, -4
 3098 0002 0446     		mov	r4, r0
 3099 0004 0D46     		mov	r5, r1
1353:Drivers/STM32F4xx_HAL_Driver/Src/stm32f4xx_ll_fmc.c ****   /* Check the parameters */
1354:Drivers/STM32F4xx_HAL_Driver/Src/stm32f4xx_ll_fmc.c ****   assert_param(IS_FMC_SDRAM_DEVICE(Device));
 3100              		.loc 1 1354 3 is_stmt 1 view .LVU620
 3101 0006 0C4B     		ldr	r3, .L342
 3102 0008 9842     		cmp	r0, r3
 3103 000a 04D0     		beq	.L338
 3104              		.loc 1 1354 3 is_stmt 0 discriminator 1 view .LVU621
 3105 000c 40F24A51 		movw	r1, #1354
 3106              	.LVL224:
 3107              		.loc 1 1354 3 discriminator 1 view .LVU622
 3108 0010 0A48     		ldr	r0, .L342+4
 3109              	.LVL225:
 3110              		.loc 1 1354 3 discriminator 1 view .LVU623
 3111 0012 FFF7FEFF 		bl	assert_failed
 3112              	.LVL226:
 3113              	.L338:
1355:Drivers/STM32F4xx_HAL_Driver/Src/stm32f4xx_ll_fmc.c ****   assert_param(IS_FMC_SDRAM_BANK(Bank));
 3114              		.loc 1 1355 3 is_stmt 1 view .LVU624
 3115 0016 012D     		cmp	r5, #1
 3116 0018 07D8     		bhi	.L341
 3117              	.L339:
1356:Drivers/STM32F4xx_HAL_Driver/Src/stm32f4xx_ll_fmc.c **** 
1357:Drivers/STM32F4xx_HAL_Driver/Src/stm32f4xx_ll_fmc.c ****   /* Disable write protection */
1358:Drivers/STM32F4xx_HAL_Driver/Src/stm32f4xx_ll_fmc.c ****   CLEAR_BIT(Device->SDCR[Bank], FMC_SDRAM_WRITE_PROTECTION_ENABLE);
 3118              		.loc 1 1358 3 view .LVU625
 3119 001a 54F82530 		ldr	r3, [r4, r5, lsl #2]
 3120 001e 23F40073 		bic	r3, r3, #512
 3121 0022 44F82530 		str	r3, [r4, r5, lsl #2]
1359:Drivers/STM32F4xx_HAL_Driver/Src/stm32f4xx_ll_fmc.c **** 
1360:Drivers/STM32F4xx_HAL_Driver/Src/stm32f4xx_ll_fmc.c ****   return HAL_OK;
 3122              		.loc 1 1360 3 view .LVU626
1361:Drivers/STM32F4xx_HAL_Driver/Src/stm32f4xx_ll_fmc.c **** }
 3123              		.loc 1 1361 1 is_stmt 0 view .LVU627
 3124 0026 0020     		movs	r0, #0
 3125 0028 38BD     		pop	{r3, r4, r5, pc}
 3126              	.LVL227:
 3127              	.L341:
1355:Drivers/STM32F4xx_HAL_Driver/Src/stm32f4xx_ll_fmc.c **** 
 3128              		.loc 1 1355 3 discriminator 1 view .LVU628
 3129 002a 40F24B51 		movw	r1, #1355
 3130 002e 0348     		ldr	r0, .L342+4
 3131 0030 FFF7FEFF 		bl	assert_failed
 3132              	.LVL228:
 3133 0034 F1E7     		b	.L339
 3134              	.L343:
 3135 0036 00BF     		.align	2
 3136              	.L342:
 3137 0038 400100A0 		.word	-1610612416
 3138 003c 00000000 		.word	.LC0
 3139              		.cfi_endproc
 3140              	.LFE261:
 3142              		.section	.text.FMC_SDRAM_SendCommand,"ax",%progbits
 3143              		.align	1
 3144              		.global	FMC_SDRAM_SendCommand
ARM GAS  /var/folders/qx/2_175_4n2s19vhvtspjhb3qh0000gn/T//cc35DONQ.s 			page 82


 3145              		.syntax unified
 3146              		.thumb
 3147              		.thumb_func
 3149              	FMC_SDRAM_SendCommand:
 3150              	.LVL229:
 3151              	.LFB262:
1362:Drivers/STM32F4xx_HAL_Driver/Src/stm32f4xx_ll_fmc.c **** 
1363:Drivers/STM32F4xx_HAL_Driver/Src/stm32f4xx_ll_fmc.c **** /**
1364:Drivers/STM32F4xx_HAL_Driver/Src/stm32f4xx_ll_fmc.c ****   * @brief  Send Command to the FMC SDRAM bank
1365:Drivers/STM32F4xx_HAL_Driver/Src/stm32f4xx_ll_fmc.c ****   * @param  Device Pointer to SDRAM device instance
1366:Drivers/STM32F4xx_HAL_Driver/Src/stm32f4xx_ll_fmc.c ****   * @param  Command Pointer to SDRAM command structure
1367:Drivers/STM32F4xx_HAL_Driver/Src/stm32f4xx_ll_fmc.c ****   * @param  Timing Pointer to SDRAM Timing structure
1368:Drivers/STM32F4xx_HAL_Driver/Src/stm32f4xx_ll_fmc.c ****   * @param  Timeout Timeout wait value
1369:Drivers/STM32F4xx_HAL_Driver/Src/stm32f4xx_ll_fmc.c ****   * @retval HAL state
1370:Drivers/STM32F4xx_HAL_Driver/Src/stm32f4xx_ll_fmc.c ****   */
1371:Drivers/STM32F4xx_HAL_Driver/Src/stm32f4xx_ll_fmc.c **** HAL_StatusTypeDef FMC_SDRAM_SendCommand(FMC_SDRAM_TypeDef *Device,
1372:Drivers/STM32F4xx_HAL_Driver/Src/stm32f4xx_ll_fmc.c ****                                         const FMC_SDRAM_CommandTypeDef *Command, uint32_t Timeout)
1373:Drivers/STM32F4xx_HAL_Driver/Src/stm32f4xx_ll_fmc.c **** {
 3152              		.loc 1 1373 1 is_stmt 1 view -0
 3153              		.cfi_startproc
 3154              		@ args = 0, pretend = 0, frame = 0
 3155              		@ frame_needed = 0, uses_anonymous_args = 0
 3156              		.loc 1 1373 1 is_stmt 0 view .LVU630
 3157 0000 70B5     		push	{r4, r5, r6, lr}
 3158              	.LCFI23:
 3159              		.cfi_def_cfa_offset 16
 3160              		.cfi_offset 4, -16
 3161              		.cfi_offset 5, -12
 3162              		.cfi_offset 6, -8
 3163              		.cfi_offset 14, -4
 3164 0002 0446     		mov	r4, r0
 3165 0004 0E46     		mov	r6, r1
 3166 0006 1546     		mov	r5, r2
1374:Drivers/STM32F4xx_HAL_Driver/Src/stm32f4xx_ll_fmc.c ****   uint32_t tickstart = 0U;
 3167              		.loc 1 1374 3 is_stmt 1 view .LVU631
 3168              	.LVL230:
1375:Drivers/STM32F4xx_HAL_Driver/Src/stm32f4xx_ll_fmc.c ****   /* Check the parameters */
1376:Drivers/STM32F4xx_HAL_Driver/Src/stm32f4xx_ll_fmc.c ****   assert_param(IS_FMC_SDRAM_DEVICE(Device));
 3169              		.loc 1 1376 3 view .LVU632
 3170 0008 2A4B     		ldr	r3, .L361
 3171 000a 9842     		cmp	r0, r3
 3172 000c 04D0     		beq	.L345
 3173              		.loc 1 1376 3 is_stmt 0 discriminator 1 view .LVU633
 3174 000e 4FF4AC61 		mov	r1, #1376
 3175              	.LVL231:
 3176              		.loc 1 1376 3 discriminator 1 view .LVU634
 3177 0012 2948     		ldr	r0, .L361+4
 3178              	.LVL232:
 3179              		.loc 1 1376 3 discriminator 1 view .LVU635
 3180 0014 FFF7FEFF 		bl	assert_failed
 3181              	.LVL233:
 3182              	.L345:
1377:Drivers/STM32F4xx_HAL_Driver/Src/stm32f4xx_ll_fmc.c ****   assert_param(IS_FMC_COMMAND_MODE(Command->CommandMode));
 3183              		.loc 1 1377 3 is_stmt 1 view .LVU636
 3184 0018 3368     		ldr	r3, [r6]
 3185 001a 062B     		cmp	r3, #6
 3186 001c 30D8     		bhi	.L357
ARM GAS  /var/folders/qx/2_175_4n2s19vhvtspjhb3qh0000gn/T//cc35DONQ.s 			page 83


 3187              	.L346:
1378:Drivers/STM32F4xx_HAL_Driver/Src/stm32f4xx_ll_fmc.c ****   assert_param(IS_FMC_COMMAND_TARGET(Command->CommandTarget));
 3188              		.loc 1 1378 3 view .LVU637
 3189 001e 7268     		ldr	r2, [r6, #4]
 3190 0020 182A     		cmp	r2, #24
 3191 0022 33D8     		bhi	.L347
 3192 0024 254B     		ldr	r3, .L361+8
 3193 0026 D340     		lsrs	r3, r3, r2
 3194 0028 13F0010F 		tst	r3, #1
 3195 002c 2ED0     		beq	.L347
 3196              	.L348:
1379:Drivers/STM32F4xx_HAL_Driver/Src/stm32f4xx_ll_fmc.c ****   assert_param(IS_FMC_AUTOREFRESH_NUMBER(Command->AutoRefreshNumber));
 3197              		.loc 1 1379 3 view .LVU638
 3198 002e B368     		ldr	r3, [r6, #8]
 3199 0030 013B     		subs	r3, r3, #1
 3200 0032 0E2B     		cmp	r3, #14
 3201 0034 30D8     		bhi	.L358
 3202              	.L349:
1380:Drivers/STM32F4xx_HAL_Driver/Src/stm32f4xx_ll_fmc.c ****   assert_param(IS_FMC_MODE_REGISTER(Command->ModeRegisterDefinition));
 3203              		.loc 1 1380 3 view .LVU639
 3204 0036 F368     		ldr	r3, [r6, #12]
 3205 0038 B3F5005F 		cmp	r3, #8192
 3206 003c 32D2     		bcs	.L359
 3207              	.L350:
1381:Drivers/STM32F4xx_HAL_Driver/Src/stm32f4xx_ll_fmc.c **** 
1382:Drivers/STM32F4xx_HAL_Driver/Src/stm32f4xx_ll_fmc.c ****   /* Set command register */
1383:Drivers/STM32F4xx_HAL_Driver/Src/stm32f4xx_ll_fmc.c ****   MODIFY_REG(Device->SDCMR, (FMC_SDCMR_MODE | FMC_SDCMR_CTB2 | FMC_SDCMR_CTB1 | FMC_SDCMR_NRFS | FM
 3208              		.loc 1 1383 3 view .LVU640
 3209 003e 2269     		ldr	r2, [r4, #16]
 3210 0040 6FF31502 		bfc	r2, #0, #22
 3211 0044 3368     		ldr	r3, [r6]
 3212 0046 7168     		ldr	r1, [r6, #4]
 3213 0048 0B43     		orrs	r3, r3, r1
 3214 004a B168     		ldr	r1, [r6, #8]
 3215 004c 0139     		subs	r1, r1, #1
 3216 004e 43EA4113 		orr	r3, r3, r1, lsl #5
 3217 0052 F168     		ldr	r1, [r6, #12]
 3218 0054 43EA4123 		orr	r3, r3, r1, lsl #9
 3219 0058 1343     		orrs	r3, r3, r2
 3220 005a 2361     		str	r3, [r4, #16]
1384:Drivers/STM32F4xx_HAL_Driver/Src/stm32f4xx_ll_fmc.c ****              ((Command->CommandMode) | (Command->CommandTarget) |
1385:Drivers/STM32F4xx_HAL_Driver/Src/stm32f4xx_ll_fmc.c ****               (((Command->AutoRefreshNumber) - 1U) << FMC_SDCMR_NRFS_Pos) |
1386:Drivers/STM32F4xx_HAL_Driver/Src/stm32f4xx_ll_fmc.c ****               ((Command->ModeRegisterDefinition) << FMC_SDCMR_MRD_Pos)));
1387:Drivers/STM32F4xx_HAL_Driver/Src/stm32f4xx_ll_fmc.c ****   /* Get tick */
1388:Drivers/STM32F4xx_HAL_Driver/Src/stm32f4xx_ll_fmc.c ****   tickstart = HAL_GetTick();
 3221              		.loc 1 1388 3 view .LVU641
 3222              		.loc 1 1388 15 is_stmt 0 view .LVU642
 3223 005c FFF7FEFF 		bl	HAL_GetTick
 3224              	.LVL234:
 3225 0060 0646     		mov	r6, r0
 3226              	.LVL235:
1389:Drivers/STM32F4xx_HAL_Driver/Src/stm32f4xx_ll_fmc.c **** 
1390:Drivers/STM32F4xx_HAL_Driver/Src/stm32f4xx_ll_fmc.c ****   /* wait until command is send */
1391:Drivers/STM32F4xx_HAL_Driver/Src/stm32f4xx_ll_fmc.c ****   while (HAL_IS_BIT_SET(Device->SDSR, FMC_SDSR_BUSY))
 3227              		.loc 1 1391 3 is_stmt 1 view .LVU643
 3228              	.L352:
 3229              		.loc 1 1391 10 view .LVU644
ARM GAS  /var/folders/qx/2_175_4n2s19vhvtspjhb3qh0000gn/T//cc35DONQ.s 			page 84


 3230 0062 A369     		ldr	r3, [r4, #24]
 3231 0064 13F0200F 		tst	r3, #32
 3232 0068 22D0     		beq	.L360
1392:Drivers/STM32F4xx_HAL_Driver/Src/stm32f4xx_ll_fmc.c ****   {
1393:Drivers/STM32F4xx_HAL_Driver/Src/stm32f4xx_ll_fmc.c ****     /* Check for the Timeout */
1394:Drivers/STM32F4xx_HAL_Driver/Src/stm32f4xx_ll_fmc.c ****     if (Timeout != HAL_MAX_DELAY)
 3233              		.loc 1 1394 5 view .LVU645
 3234              		.loc 1 1394 8 is_stmt 0 view .LVU646
 3235 006a B5F1FF3F 		cmp	r5, #-1
 3236 006e F8D0     		beq	.L352
1395:Drivers/STM32F4xx_HAL_Driver/Src/stm32f4xx_ll_fmc.c ****     {
1396:Drivers/STM32F4xx_HAL_Driver/Src/stm32f4xx_ll_fmc.c ****       if ((Timeout == 0U) || ((HAL_GetTick() - tickstart) > Timeout))
 3237              		.loc 1 1396 7 is_stmt 1 view .LVU647
 3238              		.loc 1 1396 10 is_stmt 0 view .LVU648
 3239 0070 25B1     		cbz	r5, .L353
 3240              		.loc 1 1396 32 discriminator 1 view .LVU649
 3241 0072 FFF7FEFF 		bl	HAL_GetTick
 3242              	.LVL236:
 3243              		.loc 1 1396 46 discriminator 1 view .LVU650
 3244 0076 801B     		subs	r0, r0, r6
 3245              		.loc 1 1396 27 discriminator 1 view .LVU651
 3246 0078 A842     		cmp	r0, r5
 3247 007a F2D9     		bls	.L352
 3248              	.L353:
1397:Drivers/STM32F4xx_HAL_Driver/Src/stm32f4xx_ll_fmc.c ****       {
1398:Drivers/STM32F4xx_HAL_Driver/Src/stm32f4xx_ll_fmc.c ****         return HAL_TIMEOUT;
 3249              		.loc 1 1398 9 is_stmt 1 view .LVU652
 3250              		.loc 1 1398 16 is_stmt 0 view .LVU653
 3251 007c 0320     		movs	r0, #3
 3252 007e 18E0     		b	.L354
 3253              	.LVL237:
 3254              	.L357:
1377:Drivers/STM32F4xx_HAL_Driver/Src/stm32f4xx_ll_fmc.c ****   assert_param(IS_FMC_COMMAND_TARGET(Command->CommandTarget));
 3255              		.loc 1 1377 3 discriminator 1 view .LVU654
 3256 0080 40F26151 		movw	r1, #1377
 3257 0084 0C48     		ldr	r0, .L361+4
 3258 0086 FFF7FEFF 		bl	assert_failed
 3259              	.LVL238:
 3260 008a C8E7     		b	.L346
 3261              	.L347:
1378:Drivers/STM32F4xx_HAL_Driver/Src/stm32f4xx_ll_fmc.c ****   assert_param(IS_FMC_AUTOREFRESH_NUMBER(Command->AutoRefreshNumber));
 3262              		.loc 1 1378 3 discriminator 3 view .LVU655
 3263 008c 40F26251 		movw	r1, #1378
 3264 0090 0948     		ldr	r0, .L361+4
 3265 0092 FFF7FEFF 		bl	assert_failed
 3266              	.LVL239:
 3267 0096 CAE7     		b	.L348
 3268              	.L358:
1379:Drivers/STM32F4xx_HAL_Driver/Src/stm32f4xx_ll_fmc.c ****   assert_param(IS_FMC_MODE_REGISTER(Command->ModeRegisterDefinition));
 3269              		.loc 1 1379 3 discriminator 1 view .LVU656
 3270 0098 40F26351 		movw	r1, #1379
 3271 009c 0648     		ldr	r0, .L361+4
 3272 009e FFF7FEFF 		bl	assert_failed
 3273              	.LVL240:
 3274 00a2 C8E7     		b	.L349
 3275              	.L359:
1380:Drivers/STM32F4xx_HAL_Driver/Src/stm32f4xx_ll_fmc.c **** 
ARM GAS  /var/folders/qx/2_175_4n2s19vhvtspjhb3qh0000gn/T//cc35DONQ.s 			page 85


 3276              		.loc 1 1380 3 discriminator 1 view .LVU657
 3277 00a4 40F26451 		movw	r1, #1380
 3278 00a8 0348     		ldr	r0, .L361+4
 3279 00aa FFF7FEFF 		bl	assert_failed
 3280              	.LVL241:
 3281 00ae C6E7     		b	.L350
 3282              	.LVL242:
 3283              	.L360:
1399:Drivers/STM32F4xx_HAL_Driver/Src/stm32f4xx_ll_fmc.c ****       }
1400:Drivers/STM32F4xx_HAL_Driver/Src/stm32f4xx_ll_fmc.c ****     }
1401:Drivers/STM32F4xx_HAL_Driver/Src/stm32f4xx_ll_fmc.c ****   }
1402:Drivers/STM32F4xx_HAL_Driver/Src/stm32f4xx_ll_fmc.c ****   return HAL_OK;
 3284              		.loc 1 1402 10 view .LVU658
 3285 00b0 0020     		movs	r0, #0
 3286              	.L354:
1403:Drivers/STM32F4xx_HAL_Driver/Src/stm32f4xx_ll_fmc.c **** }
 3287              		.loc 1 1403 1 view .LVU659
 3288 00b2 70BD     		pop	{r4, r5, r6, pc}
 3289              	.LVL243:
 3290              	.L362:
 3291              		.loc 1 1403 1 view .LVU660
 3292              		.align	2
 3293              	.L361:
 3294 00b4 400100A0 		.word	-1610612416
 3295 00b8 00000000 		.word	.LC0
 3296 00bc 00010101 		.word	16843008
 3297              		.cfi_endproc
 3298              	.LFE262:
 3300              		.section	.text.FMC_SDRAM_ProgramRefreshRate,"ax",%progbits
 3301              		.align	1
 3302              		.global	FMC_SDRAM_ProgramRefreshRate
 3303              		.syntax unified
 3304              		.thumb
 3305              		.thumb_func
 3307              	FMC_SDRAM_ProgramRefreshRate:
 3308              	.LVL244:
 3309              	.LFB263:
1404:Drivers/STM32F4xx_HAL_Driver/Src/stm32f4xx_ll_fmc.c **** 
1405:Drivers/STM32F4xx_HAL_Driver/Src/stm32f4xx_ll_fmc.c **** /**
1406:Drivers/STM32F4xx_HAL_Driver/Src/stm32f4xx_ll_fmc.c ****   * @brief  Program the SDRAM Memory Refresh rate.
1407:Drivers/STM32F4xx_HAL_Driver/Src/stm32f4xx_ll_fmc.c ****   * @param  Device Pointer to SDRAM device instance
1408:Drivers/STM32F4xx_HAL_Driver/Src/stm32f4xx_ll_fmc.c ****   * @param  RefreshRate The SDRAM refresh rate value.
1409:Drivers/STM32F4xx_HAL_Driver/Src/stm32f4xx_ll_fmc.c ****   * @retval HAL state
1410:Drivers/STM32F4xx_HAL_Driver/Src/stm32f4xx_ll_fmc.c ****   */
1411:Drivers/STM32F4xx_HAL_Driver/Src/stm32f4xx_ll_fmc.c **** HAL_StatusTypeDef FMC_SDRAM_ProgramRefreshRate(FMC_SDRAM_TypeDef *Device, uint32_t RefreshRate)
1412:Drivers/STM32F4xx_HAL_Driver/Src/stm32f4xx_ll_fmc.c **** {
 3310              		.loc 1 1412 1 is_stmt 1 view -0
 3311              		.cfi_startproc
 3312              		@ args = 0, pretend = 0, frame = 0
 3313              		@ frame_needed = 0, uses_anonymous_args = 0
 3314              		.loc 1 1412 1 is_stmt 0 view .LVU662
 3315 0000 38B5     		push	{r3, r4, r5, lr}
 3316              	.LCFI24:
 3317              		.cfi_def_cfa_offset 16
 3318              		.cfi_offset 3, -16
 3319              		.cfi_offset 4, -12
 3320              		.cfi_offset 5, -8
ARM GAS  /var/folders/qx/2_175_4n2s19vhvtspjhb3qh0000gn/T//cc35DONQ.s 			page 86


 3321              		.cfi_offset 14, -4
 3322 0002 0446     		mov	r4, r0
 3323 0004 0D46     		mov	r5, r1
1413:Drivers/STM32F4xx_HAL_Driver/Src/stm32f4xx_ll_fmc.c ****   /* Check the parameters */
1414:Drivers/STM32F4xx_HAL_Driver/Src/stm32f4xx_ll_fmc.c ****   assert_param(IS_FMC_SDRAM_DEVICE(Device));
 3324              		.loc 1 1414 3 is_stmt 1 view .LVU663
 3325 0006 0C4B     		ldr	r3, .L368
 3326 0008 9842     		cmp	r0, r3
 3327 000a 04D0     		beq	.L364
 3328              		.loc 1 1414 3 is_stmt 0 discriminator 1 view .LVU664
 3329 000c 40F28651 		movw	r1, #1414
 3330              	.LVL245:
 3331              		.loc 1 1414 3 discriminator 1 view .LVU665
 3332 0010 0A48     		ldr	r0, .L368+4
 3333              	.LVL246:
 3334              		.loc 1 1414 3 discriminator 1 view .LVU666
 3335 0012 FFF7FEFF 		bl	assert_failed
 3336              	.LVL247:
 3337              	.L364:
1415:Drivers/STM32F4xx_HAL_Driver/Src/stm32f4xx_ll_fmc.c ****   assert_param(IS_FMC_REFRESH_RATE(RefreshRate));
 3338              		.loc 1 1415 3 is_stmt 1 view .LVU667
 3339 0016 B5F5005F 		cmp	r5, #8192
 3340 001a 07D2     		bcs	.L367
 3341              	.L365:
1416:Drivers/STM32F4xx_HAL_Driver/Src/stm32f4xx_ll_fmc.c **** 
1417:Drivers/STM32F4xx_HAL_Driver/Src/stm32f4xx_ll_fmc.c ****   /* Set the refresh rate in command register */
1418:Drivers/STM32F4xx_HAL_Driver/Src/stm32f4xx_ll_fmc.c ****   MODIFY_REG(Device->SDRTR, FMC_SDRTR_COUNT, (RefreshRate << FMC_SDRTR_COUNT_Pos));
 3342              		.loc 1 1418 3 view .LVU668
 3343 001c 6369     		ldr	r3, [r4, #20]
 3344 001e 6FF34D03 		bfc	r3, #1, #13
 3345 0022 43EA4503 		orr	r3, r3, r5, lsl #1
 3346 0026 6361     		str	r3, [r4, #20]
1419:Drivers/STM32F4xx_HAL_Driver/Src/stm32f4xx_ll_fmc.c **** 
1420:Drivers/STM32F4xx_HAL_Driver/Src/stm32f4xx_ll_fmc.c ****   return HAL_OK;
 3347              		.loc 1 1420 3 view .LVU669
1421:Drivers/STM32F4xx_HAL_Driver/Src/stm32f4xx_ll_fmc.c **** }
 3348              		.loc 1 1421 1 is_stmt 0 view .LVU670
 3349 0028 0020     		movs	r0, #0
 3350 002a 38BD     		pop	{r3, r4, r5, pc}
 3351              	.LVL248:
 3352              	.L367:
1415:Drivers/STM32F4xx_HAL_Driver/Src/stm32f4xx_ll_fmc.c **** 
 3353              		.loc 1 1415 3 discriminator 1 view .LVU671
 3354 002c 40F28751 		movw	r1, #1415
 3355 0030 0248     		ldr	r0, .L368+4
 3356 0032 FFF7FEFF 		bl	assert_failed
 3357              	.LVL249:
 3358 0036 F1E7     		b	.L365
 3359              	.L369:
 3360              		.align	2
 3361              	.L368:
 3362 0038 400100A0 		.word	-1610612416
 3363 003c 00000000 		.word	.LC0
 3364              		.cfi_endproc
 3365              	.LFE263:
 3367              		.section	.text.FMC_SDRAM_SetAutoRefreshNumber,"ax",%progbits
 3368              		.align	1
ARM GAS  /var/folders/qx/2_175_4n2s19vhvtspjhb3qh0000gn/T//cc35DONQ.s 			page 87


 3369              		.global	FMC_SDRAM_SetAutoRefreshNumber
 3370              		.syntax unified
 3371              		.thumb
 3372              		.thumb_func
 3374              	FMC_SDRAM_SetAutoRefreshNumber:
 3375              	.LVL250:
 3376              	.LFB264:
1422:Drivers/STM32F4xx_HAL_Driver/Src/stm32f4xx_ll_fmc.c **** 
1423:Drivers/STM32F4xx_HAL_Driver/Src/stm32f4xx_ll_fmc.c **** /**
1424:Drivers/STM32F4xx_HAL_Driver/Src/stm32f4xx_ll_fmc.c ****   * @brief  Set the Number of consecutive SDRAM Memory auto Refresh commands.
1425:Drivers/STM32F4xx_HAL_Driver/Src/stm32f4xx_ll_fmc.c ****   * @param  Device Pointer to SDRAM device instance
1426:Drivers/STM32F4xx_HAL_Driver/Src/stm32f4xx_ll_fmc.c ****   * @param  AutoRefreshNumber Specifies the auto Refresh number.
1427:Drivers/STM32F4xx_HAL_Driver/Src/stm32f4xx_ll_fmc.c ****   * @retval None
1428:Drivers/STM32F4xx_HAL_Driver/Src/stm32f4xx_ll_fmc.c ****   */
1429:Drivers/STM32F4xx_HAL_Driver/Src/stm32f4xx_ll_fmc.c **** HAL_StatusTypeDef FMC_SDRAM_SetAutoRefreshNumber(FMC_SDRAM_TypeDef *Device,
1430:Drivers/STM32F4xx_HAL_Driver/Src/stm32f4xx_ll_fmc.c ****                                                  uint32_t AutoRefreshNumber)
1431:Drivers/STM32F4xx_HAL_Driver/Src/stm32f4xx_ll_fmc.c **** {
 3377              		.loc 1 1431 1 is_stmt 1 view -0
 3378              		.cfi_startproc
 3379              		@ args = 0, pretend = 0, frame = 0
 3380              		@ frame_needed = 0, uses_anonymous_args = 0
 3381              		.loc 1 1431 1 is_stmt 0 view .LVU673
 3382 0000 38B5     		push	{r3, r4, r5, lr}
 3383              	.LCFI25:
 3384              		.cfi_def_cfa_offset 16
 3385              		.cfi_offset 3, -16
 3386              		.cfi_offset 4, -12
 3387              		.cfi_offset 5, -8
 3388              		.cfi_offset 14, -4
 3389 0002 0546     		mov	r5, r0
 3390 0004 0C46     		mov	r4, r1
1432:Drivers/STM32F4xx_HAL_Driver/Src/stm32f4xx_ll_fmc.c ****   /* Check the parameters */
1433:Drivers/STM32F4xx_HAL_Driver/Src/stm32f4xx_ll_fmc.c ****   assert_param(IS_FMC_SDRAM_DEVICE(Device));
 3391              		.loc 1 1433 3 is_stmt 1 view .LVU674
 3392 0006 0C4B     		ldr	r3, .L375
 3393 0008 9842     		cmp	r0, r3
 3394 000a 04D0     		beq	.L371
 3395              		.loc 1 1433 3 is_stmt 0 discriminator 1 view .LVU675
 3396 000c 40F29951 		movw	r1, #1433
 3397              	.LVL251:
 3398              		.loc 1 1433 3 discriminator 1 view .LVU676
 3399 0010 0A48     		ldr	r0, .L375+4
 3400              	.LVL252:
 3401              		.loc 1 1433 3 discriminator 1 view .LVU677
 3402 0012 FFF7FEFF 		bl	assert_failed
 3403              	.LVL253:
 3404              	.L371:
1434:Drivers/STM32F4xx_HAL_Driver/Src/stm32f4xx_ll_fmc.c ****   assert_param(IS_FMC_AUTOREFRESH_NUMBER(AutoRefreshNumber));
 3405              		.loc 1 1434 3 is_stmt 1 view .LVU678
 3406 0016 013C     		subs	r4, r4, #1
 3407              	.LVL254:
 3408              		.loc 1 1434 3 is_stmt 0 view .LVU679
 3409 0018 0E2C     		cmp	r4, #14
 3410 001a 07D8     		bhi	.L374
 3411              	.L372:
1435:Drivers/STM32F4xx_HAL_Driver/Src/stm32f4xx_ll_fmc.c **** 
1436:Drivers/STM32F4xx_HAL_Driver/Src/stm32f4xx_ll_fmc.c ****   /* Set the Auto-refresh number in command register */
ARM GAS  /var/folders/qx/2_175_4n2s19vhvtspjhb3qh0000gn/T//cc35DONQ.s 			page 88


1437:Drivers/STM32F4xx_HAL_Driver/Src/stm32f4xx_ll_fmc.c ****   MODIFY_REG(Device->SDCMR, FMC_SDCMR_NRFS, ((AutoRefreshNumber - 1U) << FMC_SDCMR_NRFS_Pos));
 3412              		.loc 1 1437 3 is_stmt 1 view .LVU680
 3413 001c 2B69     		ldr	r3, [r5, #16]
 3414 001e 23F4F073 		bic	r3, r3, #480
 3415 0022 43EA4413 		orr	r3, r3, r4, lsl #5
 3416 0026 2B61     		str	r3, [r5, #16]
1438:Drivers/STM32F4xx_HAL_Driver/Src/stm32f4xx_ll_fmc.c **** 
1439:Drivers/STM32F4xx_HAL_Driver/Src/stm32f4xx_ll_fmc.c ****   return HAL_OK;
 3417              		.loc 1 1439 3 view .LVU681
1440:Drivers/STM32F4xx_HAL_Driver/Src/stm32f4xx_ll_fmc.c **** }
 3418              		.loc 1 1440 1 is_stmt 0 view .LVU682
 3419 0028 0020     		movs	r0, #0
 3420 002a 38BD     		pop	{r3, r4, r5, pc}
 3421              	.LVL255:
 3422              	.L374:
1434:Drivers/STM32F4xx_HAL_Driver/Src/stm32f4xx_ll_fmc.c **** 
 3423              		.loc 1 1434 3 discriminator 1 view .LVU683
 3424 002c 40F29A51 		movw	r1, #1434
 3425 0030 0248     		ldr	r0, .L375+4
 3426 0032 FFF7FEFF 		bl	assert_failed
 3427              	.LVL256:
 3428 0036 F1E7     		b	.L372
 3429              	.L376:
 3430              		.align	2
 3431              	.L375:
 3432 0038 400100A0 		.word	-1610612416
 3433 003c 00000000 		.word	.LC0
 3434              		.cfi_endproc
 3435              	.LFE264:
 3437              		.section	.text.FMC_SDRAM_GetModeStatus,"ax",%progbits
 3438              		.align	1
 3439              		.global	FMC_SDRAM_GetModeStatus
 3440              		.syntax unified
 3441              		.thumb
 3442              		.thumb_func
 3444              	FMC_SDRAM_GetModeStatus:
 3445              	.LVL257:
 3446              	.LFB265:
1441:Drivers/STM32F4xx_HAL_Driver/Src/stm32f4xx_ll_fmc.c **** 
1442:Drivers/STM32F4xx_HAL_Driver/Src/stm32f4xx_ll_fmc.c **** /**
1443:Drivers/STM32F4xx_HAL_Driver/Src/stm32f4xx_ll_fmc.c ****   * @brief  Returns the indicated FMC SDRAM bank mode status.
1444:Drivers/STM32F4xx_HAL_Driver/Src/stm32f4xx_ll_fmc.c ****   * @param  Device Pointer to SDRAM device instance
1445:Drivers/STM32F4xx_HAL_Driver/Src/stm32f4xx_ll_fmc.c ****   * @param  Bank Defines the FMC SDRAM bank. This parameter can be
1446:Drivers/STM32F4xx_HAL_Driver/Src/stm32f4xx_ll_fmc.c ****   *                     FMC_Bank1_SDRAM or FMC_Bank2_SDRAM.
1447:Drivers/STM32F4xx_HAL_Driver/Src/stm32f4xx_ll_fmc.c ****   * @retval The FMC SDRAM bank mode status, could be on of the following values:
1448:Drivers/STM32F4xx_HAL_Driver/Src/stm32f4xx_ll_fmc.c ****   *         FMC_SDRAM_NORMAL_MODE, FMC_SDRAM_SELF_REFRESH_MODE or
1449:Drivers/STM32F4xx_HAL_Driver/Src/stm32f4xx_ll_fmc.c ****   *         FMC_SDRAM_POWER_DOWN_MODE.
1450:Drivers/STM32F4xx_HAL_Driver/Src/stm32f4xx_ll_fmc.c ****   */
1451:Drivers/STM32F4xx_HAL_Driver/Src/stm32f4xx_ll_fmc.c **** uint32_t FMC_SDRAM_GetModeStatus(const FMC_SDRAM_TypeDef *Device, uint32_t Bank)
1452:Drivers/STM32F4xx_HAL_Driver/Src/stm32f4xx_ll_fmc.c **** {
 3447              		.loc 1 1452 1 is_stmt 1 view -0
 3448              		.cfi_startproc
 3449              		@ args = 0, pretend = 0, frame = 0
 3450              		@ frame_needed = 0, uses_anonymous_args = 0
 3451              		.loc 1 1452 1 is_stmt 0 view .LVU685
 3452 0000 38B5     		push	{r3, r4, r5, lr}
 3453              	.LCFI26:
ARM GAS  /var/folders/qx/2_175_4n2s19vhvtspjhb3qh0000gn/T//cc35DONQ.s 			page 89


 3454              		.cfi_def_cfa_offset 16
 3455              		.cfi_offset 3, -16
 3456              		.cfi_offset 4, -12
 3457              		.cfi_offset 5, -8
 3458              		.cfi_offset 14, -4
 3459 0002 0446     		mov	r4, r0
 3460 0004 0D46     		mov	r5, r1
1453:Drivers/STM32F4xx_HAL_Driver/Src/stm32f4xx_ll_fmc.c ****   uint32_t tmpreg;
 3461              		.loc 1 1453 3 is_stmt 1 view .LVU686
1454:Drivers/STM32F4xx_HAL_Driver/Src/stm32f4xx_ll_fmc.c **** 
1455:Drivers/STM32F4xx_HAL_Driver/Src/stm32f4xx_ll_fmc.c ****   /* Check the parameters */
1456:Drivers/STM32F4xx_HAL_Driver/Src/stm32f4xx_ll_fmc.c ****   assert_param(IS_FMC_SDRAM_DEVICE(Device));
 3462              		.loc 1 1456 3 view .LVU687
 3463 0006 0D4B     		ldr	r3, .L384
 3464 0008 9842     		cmp	r0, r3
 3465 000a 04D0     		beq	.L378
 3466              		.loc 1 1456 3 is_stmt 0 discriminator 1 view .LVU688
 3467 000c 4FF4B661 		mov	r1, #1456
 3468              	.LVL258:
 3469              		.loc 1 1456 3 discriminator 1 view .LVU689
 3470 0010 0B48     		ldr	r0, .L384+4
 3471              	.LVL259:
 3472              		.loc 1 1456 3 discriminator 1 view .LVU690
 3473 0012 FFF7FEFF 		bl	assert_failed
 3474              	.LVL260:
 3475              	.L378:
1457:Drivers/STM32F4xx_HAL_Driver/Src/stm32f4xx_ll_fmc.c ****   assert_param(IS_FMC_SDRAM_BANK(Bank));
 3476              		.loc 1 1457 3 is_stmt 1 view .LVU691
 3477 0016 012D     		cmp	r5, #1
 3478 0018 04D8     		bhi	.L383
 3479              	.L379:
1458:Drivers/STM32F4xx_HAL_Driver/Src/stm32f4xx_ll_fmc.c **** 
1459:Drivers/STM32F4xx_HAL_Driver/Src/stm32f4xx_ll_fmc.c ****   /* Get the corresponding bank mode */
1460:Drivers/STM32F4xx_HAL_Driver/Src/stm32f4xx_ll_fmc.c ****   if (Bank == FMC_SDRAM_BANK1)
 3480              		.loc 1 1460 3 view .LVU692
 3481              		.loc 1 1460 6 is_stmt 0 view .LVU693
 3482 001a 4DB9     		cbnz	r5, .L380
1461:Drivers/STM32F4xx_HAL_Driver/Src/stm32f4xx_ll_fmc.c ****   {
1462:Drivers/STM32F4xx_HAL_Driver/Src/stm32f4xx_ll_fmc.c ****     tmpreg = (uint32_t)(Device->SDSR & FMC_SDSR_MODES1);
 3483              		.loc 1 1462 5 is_stmt 1 view .LVU694
 3484              		.loc 1 1462 31 is_stmt 0 view .LVU695
 3485 001c A069     		ldr	r0, [r4, #24]
 3486              		.loc 1 1462 12 view .LVU696
 3487 001e 00F00600 		and	r0, r0, #6
 3488              	.LVL261:
 3489              	.L377:
1463:Drivers/STM32F4xx_HAL_Driver/Src/stm32f4xx_ll_fmc.c ****   }
1464:Drivers/STM32F4xx_HAL_Driver/Src/stm32f4xx_ll_fmc.c ****   else
1465:Drivers/STM32F4xx_HAL_Driver/Src/stm32f4xx_ll_fmc.c ****   {
1466:Drivers/STM32F4xx_HAL_Driver/Src/stm32f4xx_ll_fmc.c ****     tmpreg = ((uint32_t)(Device->SDSR & FMC_SDSR_MODES2) >> 2U);
1467:Drivers/STM32F4xx_HAL_Driver/Src/stm32f4xx_ll_fmc.c ****   }
1468:Drivers/STM32F4xx_HAL_Driver/Src/stm32f4xx_ll_fmc.c **** 
1469:Drivers/STM32F4xx_HAL_Driver/Src/stm32f4xx_ll_fmc.c ****   /* Return the mode status */
1470:Drivers/STM32F4xx_HAL_Driver/Src/stm32f4xx_ll_fmc.c ****   return tmpreg;
1471:Drivers/STM32F4xx_HAL_Driver/Src/stm32f4xx_ll_fmc.c **** }
 3490              		.loc 1 1471 1 view .LVU697
 3491 0022 38BD     		pop	{r3, r4, r5, pc}
ARM GAS  /var/folders/qx/2_175_4n2s19vhvtspjhb3qh0000gn/T//cc35DONQ.s 			page 90


 3492              	.LVL262:
 3493              	.L383:
1457:Drivers/STM32F4xx_HAL_Driver/Src/stm32f4xx_ll_fmc.c **** 
 3494              		.loc 1 1457 3 discriminator 1 view .LVU698
 3495 0024 40F2B151 		movw	r1, #1457
 3496 0028 0548     		ldr	r0, .L384+4
 3497 002a FFF7FEFF 		bl	assert_failed
 3498              	.LVL263:
 3499 002e F4E7     		b	.L379
 3500              	.L380:
1466:Drivers/STM32F4xx_HAL_Driver/Src/stm32f4xx_ll_fmc.c ****   }
 3501              		.loc 1 1466 5 is_stmt 1 view .LVU699
1466:Drivers/STM32F4xx_HAL_Driver/Src/stm32f4xx_ll_fmc.c ****   }
 3502              		.loc 1 1466 32 is_stmt 0 view .LVU700
 3503 0030 A069     		ldr	r0, [r4, #24]
1466:Drivers/STM32F4xx_HAL_Driver/Src/stm32f4xx_ll_fmc.c ****   }
 3504              		.loc 1 1466 58 view .LVU701
 3505 0032 8008     		lsrs	r0, r0, #2
1466:Drivers/STM32F4xx_HAL_Driver/Src/stm32f4xx_ll_fmc.c ****   }
 3506              		.loc 1 1466 12 view .LVU702
 3507 0034 00F00600 		and	r0, r0, #6
 3508              	.LVL264:
1470:Drivers/STM32F4xx_HAL_Driver/Src/stm32f4xx_ll_fmc.c **** }
 3509              		.loc 1 1470 3 is_stmt 1 view .LVU703
1470:Drivers/STM32F4xx_HAL_Driver/Src/stm32f4xx_ll_fmc.c **** }
 3510              		.loc 1 1470 10 is_stmt 0 view .LVU704
 3511 0038 F3E7     		b	.L377
 3512              	.L385:
 3513 003a 00BF     		.align	2
 3514              	.L384:
 3515 003c 400100A0 		.word	-1610612416
 3516 0040 00000000 		.word	.LC0
 3517              		.cfi_endproc
 3518              	.LFE265:
 3520              		.text
 3521              	.Letext0:
 3522              		.file 2 "/Applications/ArmGNUToolchain/14.3.rel1/arm-none-eabi/arm-none-eabi/include/machine/_defa
 3523              		.file 3 "/Applications/ArmGNUToolchain/14.3.rel1/arm-none-eabi/arm-none-eabi/include/sys/_stdint.h
 3524              		.file 4 "Drivers/CMSIS/Device/ST/STM32F4xx/Include/stm32f429xx.h"
 3525              		.file 5 "Drivers/CMSIS/Device/ST/STM32F4xx/Include/stm32f4xx.h"
 3526              		.file 6 "Drivers/STM32F4xx_HAL_Driver/Inc/stm32f4xx_hal_def.h"
 3527              		.file 7 "Drivers/STM32F4xx_HAL_Driver/Inc/stm32f4xx_ll_fmc.h"
 3528              		.file 8 "Drivers/STM32F4xx_HAL_Driver/Inc/stm32f4xx_hal.h"
 3529              		.file 9 "Core/Inc/stm32f4xx_hal_conf.h"
ARM GAS  /var/folders/qx/2_175_4n2s19vhvtspjhb3qh0000gn/T//cc35DONQ.s 			page 91


DEFINED SYMBOLS
                            *ABS*:00000000 stm32f4xx_ll_fmc.c
/var/folders/qx/2_175_4n2s19vhvtspjhb3qh0000gn/T//cc35DONQ.s:21     .rodata.FMC_NORSRAM_Init.str1.4:00000000 $d
/var/folders/qx/2_175_4n2s19vhvtspjhb3qh0000gn/T//cc35DONQ.s:26     .text.FMC_NORSRAM_Init:00000000 $t
/var/folders/qx/2_175_4n2s19vhvtspjhb3qh0000gn/T//cc35DONQ.s:32     .text.FMC_NORSRAM_Init:00000000 FMC_NORSRAM_Init
/var/folders/qx/2_175_4n2s19vhvtspjhb3qh0000gn/T//cc35DONQ.s:417    .text.FMC_NORSRAM_Init:0000020c $d
/var/folders/qx/2_175_4n2s19vhvtspjhb3qh0000gn/T//cc35DONQ.s:423    .text.FMC_NORSRAM_DeInit:00000000 $t
/var/folders/qx/2_175_4n2s19vhvtspjhb3qh0000gn/T//cc35DONQ.s:429    .text.FMC_NORSRAM_DeInit:00000000 FMC_NORSRAM_DeInit
/var/folders/qx/2_175_4n2s19vhvtspjhb3qh0000gn/T//cc35DONQ.s:520    .text.FMC_NORSRAM_DeInit:00000074 $d
/var/folders/qx/2_175_4n2s19vhvtspjhb3qh0000gn/T//cc35DONQ.s:526    .text.FMC_NORSRAM_Timing_Init:00000000 $t
/var/folders/qx/2_175_4n2s19vhvtspjhb3qh0000gn/T//cc35DONQ.s:532    .text.FMC_NORSRAM_Timing_Init:00000000 FMC_NORSRAM_Timing_Init
/var/folders/qx/2_175_4n2s19vhvtspjhb3qh0000gn/T//cc35DONQ.s:746    .text.FMC_NORSRAM_Timing_Init:0000011c $d
/var/folders/qx/2_175_4n2s19vhvtspjhb3qh0000gn/T//cc35DONQ.s:751    .text.FMC_NORSRAM_Extended_Timing_Init:00000000 $t
/var/folders/qx/2_175_4n2s19vhvtspjhb3qh0000gn/T//cc35DONQ.s:757    .text.FMC_NORSRAM_Extended_Timing_Init:00000000 FMC_NORSRAM_Extended_Timing_Init
/var/folders/qx/2_175_4n2s19vhvtspjhb3qh0000gn/T//cc35DONQ.s:925    .text.FMC_NORSRAM_Extended_Timing_Init:000000e8 $d
/var/folders/qx/2_175_4n2s19vhvtspjhb3qh0000gn/T//cc35DONQ.s:932    .text.FMC_NORSRAM_WriteOperation_Enable:00000000 $t
/var/folders/qx/2_175_4n2s19vhvtspjhb3qh0000gn/T//cc35DONQ.s:938    .text.FMC_NORSRAM_WriteOperation_Enable:00000000 FMC_NORSRAM_WriteOperation_Enable
/var/folders/qx/2_175_4n2s19vhvtspjhb3qh0000gn/T//cc35DONQ.s:995    .text.FMC_NORSRAM_WriteOperation_Enable:00000040 $d
/var/folders/qx/2_175_4n2s19vhvtspjhb3qh0000gn/T//cc35DONQ.s:1000   .text.FMC_NORSRAM_WriteOperation_Disable:00000000 $t
/var/folders/qx/2_175_4n2s19vhvtspjhb3qh0000gn/T//cc35DONQ.s:1006   .text.FMC_NORSRAM_WriteOperation_Disable:00000000 FMC_NORSRAM_WriteOperation_Disable
/var/folders/qx/2_175_4n2s19vhvtspjhb3qh0000gn/T//cc35DONQ.s:1063   .text.FMC_NORSRAM_WriteOperation_Disable:00000040 $d
/var/folders/qx/2_175_4n2s19vhvtspjhb3qh0000gn/T//cc35DONQ.s:1068   .text.FMC_NAND_Init:00000000 $t
/var/folders/qx/2_175_4n2s19vhvtspjhb3qh0000gn/T//cc35DONQ.s:1074   .text.FMC_NAND_Init:00000000 FMC_NAND_Init
/var/folders/qx/2_175_4n2s19vhvtspjhb3qh0000gn/T//cc35DONQ.s:1265   .text.FMC_NAND_Init:00000118 $d
/var/folders/qx/2_175_4n2s19vhvtspjhb3qh0000gn/T//cc35DONQ.s:1272   .text.FMC_NAND_CommonSpace_Timing_Init:00000000 $t
/var/folders/qx/2_175_4n2s19vhvtspjhb3qh0000gn/T//cc35DONQ.s:1278   .text.FMC_NAND_CommonSpace_Timing_Init:00000000 FMC_NAND_CommonSpace_Timing_Init
/var/folders/qx/2_175_4n2s19vhvtspjhb3qh0000gn/T//cc35DONQ.s:1403   .text.FMC_NAND_CommonSpace_Timing_Init:000000a8 $d
/var/folders/qx/2_175_4n2s19vhvtspjhb3qh0000gn/T//cc35DONQ.s:1409   .text.FMC_NAND_AttributeSpace_Timing_Init:00000000 $t
/var/folders/qx/2_175_4n2s19vhvtspjhb3qh0000gn/T//cc35DONQ.s:1415   .text.FMC_NAND_AttributeSpace_Timing_Init:00000000 FMC_NAND_AttributeSpace_Timing_Init
/var/folders/qx/2_175_4n2s19vhvtspjhb3qh0000gn/T//cc35DONQ.s:1540   .text.FMC_NAND_AttributeSpace_Timing_Init:000000a8 $d
/var/folders/qx/2_175_4n2s19vhvtspjhb3qh0000gn/T//cc35DONQ.s:1546   .text.FMC_NAND_DeInit:00000000 $t
/var/folders/qx/2_175_4n2s19vhvtspjhb3qh0000gn/T//cc35DONQ.s:1552   .text.FMC_NAND_DeInit:00000000 FMC_NAND_DeInit
/var/folders/qx/2_175_4n2s19vhvtspjhb3qh0000gn/T//cc35DONQ.s:1647   .text.FMC_NAND_DeInit:00000068 $d
/var/folders/qx/2_175_4n2s19vhvtspjhb3qh0000gn/T//cc35DONQ.s:1653   .text.FMC_NAND_ECC_Enable:00000000 $t
/var/folders/qx/2_175_4n2s19vhvtspjhb3qh0000gn/T//cc35DONQ.s:1659   .text.FMC_NAND_ECC_Enable:00000000 FMC_NAND_ECC_Enable
/var/folders/qx/2_175_4n2s19vhvtspjhb3qh0000gn/T//cc35DONQ.s:1725   .text.FMC_NAND_ECC_Enable:00000044 $d
/var/folders/qx/2_175_4n2s19vhvtspjhb3qh0000gn/T//cc35DONQ.s:1731   .text.FMC_NAND_ECC_Disable:00000000 $t
/var/folders/qx/2_175_4n2s19vhvtspjhb3qh0000gn/T//cc35DONQ.s:1737   .text.FMC_NAND_ECC_Disable:00000000 FMC_NAND_ECC_Disable
/var/folders/qx/2_175_4n2s19vhvtspjhb3qh0000gn/T//cc35DONQ.s:1803   .text.FMC_NAND_ECC_Disable:00000044 $d
/var/folders/qx/2_175_4n2s19vhvtspjhb3qh0000gn/T//cc35DONQ.s:1809   .text.FMC_NAND_GetECC:00000000 $t
/var/folders/qx/2_175_4n2s19vhvtspjhb3qh0000gn/T//cc35DONQ.s:1815   .text.FMC_NAND_GetECC:00000000 FMC_NAND_GetECC
/var/folders/qx/2_175_4n2s19vhvtspjhb3qh0000gn/T//cc35DONQ.s:1952   .text.FMC_NAND_GetECC:00000090 $d
/var/folders/qx/2_175_4n2s19vhvtspjhb3qh0000gn/T//cc35DONQ.s:1958   .text.FMC_PCCARD_Init:00000000 $t
/var/folders/qx/2_175_4n2s19vhvtspjhb3qh0000gn/T//cc35DONQ.s:1964   .text.FMC_PCCARD_Init:00000000 FMC_PCCARD_Init
/var/folders/qx/2_175_4n2s19vhvtspjhb3qh0000gn/T//cc35DONQ.s:2053   .text.FMC_PCCARD_Init:00000074 $d
/var/folders/qx/2_175_4n2s19vhvtspjhb3qh0000gn/T//cc35DONQ.s:2059   .text.FMC_PCCARD_CommonSpace_Timing_Init:00000000 $t
/var/folders/qx/2_175_4n2s19vhvtspjhb3qh0000gn/T//cc35DONQ.s:2065   .text.FMC_PCCARD_CommonSpace_Timing_Init:00000000 FMC_PCCARD_CommonSpace_Timing_Init
/var/folders/qx/2_175_4n2s19vhvtspjhb3qh0000gn/T//cc35DONQ.s:2161   .text.FMC_PCCARD_CommonSpace_Timing_Init:00000078 $d
/var/folders/qx/2_175_4n2s19vhvtspjhb3qh0000gn/T//cc35DONQ.s:2167   .text.FMC_PCCARD_AttributeSpace_Timing_Init:00000000 $t
/var/folders/qx/2_175_4n2s19vhvtspjhb3qh0000gn/T//cc35DONQ.s:2173   .text.FMC_PCCARD_AttributeSpace_Timing_Init:00000000 FMC_PCCARD_AttributeSpace_Timing_Init
/var/folders/qx/2_175_4n2s19vhvtspjhb3qh0000gn/T//cc35DONQ.s:2269   .text.FMC_PCCARD_AttributeSpace_Timing_Init:00000078 $d
/var/folders/qx/2_175_4n2s19vhvtspjhb3qh0000gn/T//cc35DONQ.s:2275   .text.FMC_PCCARD_IOSpace_Timing_Init:00000000 $t
/var/folders/qx/2_175_4n2s19vhvtspjhb3qh0000gn/T//cc35DONQ.s:2281   .text.FMC_PCCARD_IOSpace_Timing_Init:00000000 FMC_PCCARD_IOSpace_Timing_Init
/var/folders/qx/2_175_4n2s19vhvtspjhb3qh0000gn/T//cc35DONQ.s:2377   .text.FMC_PCCARD_IOSpace_Timing_Init:00000078 $d
/var/folders/qx/2_175_4n2s19vhvtspjhb3qh0000gn/T//cc35DONQ.s:2383   .text.FMC_PCCARD_DeInit:00000000 $t
/var/folders/qx/2_175_4n2s19vhvtspjhb3qh0000gn/T//cc35DONQ.s:2389   .text.FMC_PCCARD_DeInit:00000000 FMC_PCCARD_DeInit
/var/folders/qx/2_175_4n2s19vhvtspjhb3qh0000gn/T//cc35DONQ.s:2446   .text.FMC_PCCARD_DeInit:00000034 $d
ARM GAS  /var/folders/qx/2_175_4n2s19vhvtspjhb3qh0000gn/T//cc35DONQ.s 			page 92


/var/folders/qx/2_175_4n2s19vhvtspjhb3qh0000gn/T//cc35DONQ.s:2452   .text.FMC_SDRAM_Init:00000000 $t
/var/folders/qx/2_175_4n2s19vhvtspjhb3qh0000gn/T//cc35DONQ.s:2458   .text.FMC_SDRAM_Init:00000000 FMC_SDRAM_Init
/var/folders/qx/2_175_4n2s19vhvtspjhb3qh0000gn/T//cc35DONQ.s:2706   .text.FMC_SDRAM_Init:0000016c $d
/var/folders/qx/2_175_4n2s19vhvtspjhb3qh0000gn/T//cc35DONQ.s:2712   .text.FMC_SDRAM_Timing_Init:00000000 $t
/var/folders/qx/2_175_4n2s19vhvtspjhb3qh0000gn/T//cc35DONQ.s:2718   .text.FMC_SDRAM_Timing_Init:00000000 FMC_SDRAM_Timing_Init
/var/folders/qx/2_175_4n2s19vhvtspjhb3qh0000gn/T//cc35DONQ.s:2923   .text.FMC_SDRAM_Timing_Init:00000148 $d
/var/folders/qx/2_175_4n2s19vhvtspjhb3qh0000gn/T//cc35DONQ.s:2929   .text.FMC_SDRAM_DeInit:00000000 $t
/var/folders/qx/2_175_4n2s19vhvtspjhb3qh0000gn/T//cc35DONQ.s:2935   .text.FMC_SDRAM_DeInit:00000000 FMC_SDRAM_DeInit
/var/folders/qx/2_175_4n2s19vhvtspjhb3qh0000gn/T//cc35DONQ.s:3005   .text.FMC_SDRAM_DeInit:00000044 $d
/var/folders/qx/2_175_4n2s19vhvtspjhb3qh0000gn/T//cc35DONQ.s:3011   .text.FMC_SDRAM_WriteProtection_Enable:00000000 $t
/var/folders/qx/2_175_4n2s19vhvtspjhb3qh0000gn/T//cc35DONQ.s:3017   .text.FMC_SDRAM_WriteProtection_Enable:00000000 FMC_SDRAM_WriteProtection_Enable
/var/folders/qx/2_175_4n2s19vhvtspjhb3qh0000gn/T//cc35DONQ.s:3071   .text.FMC_SDRAM_WriteProtection_Enable:00000038 $d
/var/folders/qx/2_175_4n2s19vhvtspjhb3qh0000gn/T//cc35DONQ.s:3077   .text.FMC_SDRAM_WriteProtection_Disable:00000000 $t
/var/folders/qx/2_175_4n2s19vhvtspjhb3qh0000gn/T//cc35DONQ.s:3083   .text.FMC_SDRAM_WriteProtection_Disable:00000000 FMC_SDRAM_WriteProtection_Disable
/var/folders/qx/2_175_4n2s19vhvtspjhb3qh0000gn/T//cc35DONQ.s:3137   .text.FMC_SDRAM_WriteProtection_Disable:00000038 $d
/var/folders/qx/2_175_4n2s19vhvtspjhb3qh0000gn/T//cc35DONQ.s:3143   .text.FMC_SDRAM_SendCommand:00000000 $t
/var/folders/qx/2_175_4n2s19vhvtspjhb3qh0000gn/T//cc35DONQ.s:3149   .text.FMC_SDRAM_SendCommand:00000000 FMC_SDRAM_SendCommand
/var/folders/qx/2_175_4n2s19vhvtspjhb3qh0000gn/T//cc35DONQ.s:3294   .text.FMC_SDRAM_SendCommand:000000b4 $d
/var/folders/qx/2_175_4n2s19vhvtspjhb3qh0000gn/T//cc35DONQ.s:3301   .text.FMC_SDRAM_ProgramRefreshRate:00000000 $t
/var/folders/qx/2_175_4n2s19vhvtspjhb3qh0000gn/T//cc35DONQ.s:3307   .text.FMC_SDRAM_ProgramRefreshRate:00000000 FMC_SDRAM_ProgramRefreshRate
/var/folders/qx/2_175_4n2s19vhvtspjhb3qh0000gn/T//cc35DONQ.s:3362   .text.FMC_SDRAM_ProgramRefreshRate:00000038 $d
/var/folders/qx/2_175_4n2s19vhvtspjhb3qh0000gn/T//cc35DONQ.s:3368   .text.FMC_SDRAM_SetAutoRefreshNumber:00000000 $t
/var/folders/qx/2_175_4n2s19vhvtspjhb3qh0000gn/T//cc35DONQ.s:3374   .text.FMC_SDRAM_SetAutoRefreshNumber:00000000 FMC_SDRAM_SetAutoRefreshNumber
/var/folders/qx/2_175_4n2s19vhvtspjhb3qh0000gn/T//cc35DONQ.s:3432   .text.FMC_SDRAM_SetAutoRefreshNumber:00000038 $d
/var/folders/qx/2_175_4n2s19vhvtspjhb3qh0000gn/T//cc35DONQ.s:3438   .text.FMC_SDRAM_GetModeStatus:00000000 $t
/var/folders/qx/2_175_4n2s19vhvtspjhb3qh0000gn/T//cc35DONQ.s:3444   .text.FMC_SDRAM_GetModeStatus:00000000 FMC_SDRAM_GetModeStatus
/var/folders/qx/2_175_4n2s19vhvtspjhb3qh0000gn/T//cc35DONQ.s:3515   .text.FMC_SDRAM_GetModeStatus:0000003c $d

UNDEFINED SYMBOLS
assert_failed
HAL_GetTick
