ARM GAS  C:\Users\moham\AppData\Local\Temp\ccR7RLkT.s 			page 1


   1              		.cpu cortex-m4
   2              		.arch armv7e-m
   3              		.fpu fpv4-sp-d16
   4              		.eabi_attribute 27, 1
   5              		.eabi_attribute 28, 1
   6              		.eabi_attribute 20, 1
   7              		.eabi_attribute 21, 1
   8              		.eabi_attribute 23, 3
   9              		.eabi_attribute 24, 1
  10              		.eabi_attribute 25, 1
  11              		.eabi_attribute 26, 1
  12              		.eabi_attribute 30, 1
  13              		.eabi_attribute 34, 1
  14              		.eabi_attribute 18, 4
  15              		.file	"usbh_core.c"
  16              		.text
  17              	.Ltext0:
  18              		.cfi_sections	.debug_frame
  19              		.file 1 "Middlewares/ST/STM32_USB_Host_Library/Core/Src/usbh_core.c"
  20              		.section	.text.USBH_HandleSof,"ax",%progbits
  21              		.align	1
  22              		.syntax unified
  23              		.thumb
  24              		.thumb_func
  26              	USBH_HandleSof:
  27              	.LVL0:
  28              	.LFB262:
   1:Middlewares/ST/STM32_USB_Host_Library/Core/Src/usbh_core.c **** /**
   2:Middlewares/ST/STM32_USB_Host_Library/Core/Src/usbh_core.c ****   ******************************************************************************
   3:Middlewares/ST/STM32_USB_Host_Library/Core/Src/usbh_core.c ****   * @file    usbh_core.c
   4:Middlewares/ST/STM32_USB_Host_Library/Core/Src/usbh_core.c ****   * @author  MCD Application Team
   5:Middlewares/ST/STM32_USB_Host_Library/Core/Src/usbh_core.c ****   * @brief   This file implements the functions for the core state machine process
   6:Middlewares/ST/STM32_USB_Host_Library/Core/Src/usbh_core.c ****   *          the enumeration and the control transfer process
   7:Middlewares/ST/STM32_USB_Host_Library/Core/Src/usbh_core.c ****   ******************************************************************************
   8:Middlewares/ST/STM32_USB_Host_Library/Core/Src/usbh_core.c ****   * @attention
   9:Middlewares/ST/STM32_USB_Host_Library/Core/Src/usbh_core.c ****   *
  10:Middlewares/ST/STM32_USB_Host_Library/Core/Src/usbh_core.c ****   * Copyright (c) 2015 STMicroelectronics.
  11:Middlewares/ST/STM32_USB_Host_Library/Core/Src/usbh_core.c ****   * All rights reserved.
  12:Middlewares/ST/STM32_USB_Host_Library/Core/Src/usbh_core.c ****   *
  13:Middlewares/ST/STM32_USB_Host_Library/Core/Src/usbh_core.c ****   * This software is licensed under terms that can be found in the LICENSE file
  14:Middlewares/ST/STM32_USB_Host_Library/Core/Src/usbh_core.c ****   * in the root directory of this software component.
  15:Middlewares/ST/STM32_USB_Host_Library/Core/Src/usbh_core.c ****   * If no LICENSE file comes with this software, it is provided AS-IS.
  16:Middlewares/ST/STM32_USB_Host_Library/Core/Src/usbh_core.c ****   *
  17:Middlewares/ST/STM32_USB_Host_Library/Core/Src/usbh_core.c ****   ******************************************************************************
  18:Middlewares/ST/STM32_USB_Host_Library/Core/Src/usbh_core.c ****   */
  19:Middlewares/ST/STM32_USB_Host_Library/Core/Src/usbh_core.c **** 
  20:Middlewares/ST/STM32_USB_Host_Library/Core/Src/usbh_core.c **** /* Includes ------------------------------------------------------------------*/
  21:Middlewares/ST/STM32_USB_Host_Library/Core/Src/usbh_core.c **** #include "usbh_core.h"
  22:Middlewares/ST/STM32_USB_Host_Library/Core/Src/usbh_core.c **** 
  23:Middlewares/ST/STM32_USB_Host_Library/Core/Src/usbh_core.c **** 
  24:Middlewares/ST/STM32_USB_Host_Library/Core/Src/usbh_core.c **** /** @addtogroup USBH_LIB
  25:Middlewares/ST/STM32_USB_Host_Library/Core/Src/usbh_core.c ****   * @{
  26:Middlewares/ST/STM32_USB_Host_Library/Core/Src/usbh_core.c ****   */
  27:Middlewares/ST/STM32_USB_Host_Library/Core/Src/usbh_core.c **** 
  28:Middlewares/ST/STM32_USB_Host_Library/Core/Src/usbh_core.c **** /** @addtogroup USBH_LIB_CORE
  29:Middlewares/ST/STM32_USB_Host_Library/Core/Src/usbh_core.c ****   * @{
  30:Middlewares/ST/STM32_USB_Host_Library/Core/Src/usbh_core.c ****   */
ARM GAS  C:\Users\moham\AppData\Local\Temp\ccR7RLkT.s 			page 2


  31:Middlewares/ST/STM32_USB_Host_Library/Core/Src/usbh_core.c **** 
  32:Middlewares/ST/STM32_USB_Host_Library/Core/Src/usbh_core.c **** /** @defgroup USBH_CORE
  33:Middlewares/ST/STM32_USB_Host_Library/Core/Src/usbh_core.c ****   * @brief This file handles the basic enumeration when a device is connected
  34:Middlewares/ST/STM32_USB_Host_Library/Core/Src/usbh_core.c ****   *          to the host.
  35:Middlewares/ST/STM32_USB_Host_Library/Core/Src/usbh_core.c ****   * @{
  36:Middlewares/ST/STM32_USB_Host_Library/Core/Src/usbh_core.c ****   */
  37:Middlewares/ST/STM32_USB_Host_Library/Core/Src/usbh_core.c **** 
  38:Middlewares/ST/STM32_USB_Host_Library/Core/Src/usbh_core.c **** 
  39:Middlewares/ST/STM32_USB_Host_Library/Core/Src/usbh_core.c **** /** @defgroup USBH_CORE_Private_Defines
  40:Middlewares/ST/STM32_USB_Host_Library/Core/Src/usbh_core.c ****   * @{
  41:Middlewares/ST/STM32_USB_Host_Library/Core/Src/usbh_core.c ****   */
  42:Middlewares/ST/STM32_USB_Host_Library/Core/Src/usbh_core.c **** #define USBH_ADDRESS_DEFAULT                     0x00U
  43:Middlewares/ST/STM32_USB_Host_Library/Core/Src/usbh_core.c **** #define USBH_ADDRESS_ASSIGNED                    0x01U
  44:Middlewares/ST/STM32_USB_Host_Library/Core/Src/usbh_core.c **** #define USBH_MPS_DEFAULT                         0x40U
  45:Middlewares/ST/STM32_USB_Host_Library/Core/Src/usbh_core.c **** /**
  46:Middlewares/ST/STM32_USB_Host_Library/Core/Src/usbh_core.c ****   * @}
  47:Middlewares/ST/STM32_USB_Host_Library/Core/Src/usbh_core.c ****   */
  48:Middlewares/ST/STM32_USB_Host_Library/Core/Src/usbh_core.c **** 
  49:Middlewares/ST/STM32_USB_Host_Library/Core/Src/usbh_core.c **** /** @defgroup USBH_CORE_Private_Macros
  50:Middlewares/ST/STM32_USB_Host_Library/Core/Src/usbh_core.c ****   * @{
  51:Middlewares/ST/STM32_USB_Host_Library/Core/Src/usbh_core.c ****   */
  52:Middlewares/ST/STM32_USB_Host_Library/Core/Src/usbh_core.c **** /**
  53:Middlewares/ST/STM32_USB_Host_Library/Core/Src/usbh_core.c ****   * @}
  54:Middlewares/ST/STM32_USB_Host_Library/Core/Src/usbh_core.c ****   */
  55:Middlewares/ST/STM32_USB_Host_Library/Core/Src/usbh_core.c **** 
  56:Middlewares/ST/STM32_USB_Host_Library/Core/Src/usbh_core.c **** 
  57:Middlewares/ST/STM32_USB_Host_Library/Core/Src/usbh_core.c **** /** @defgroup USBH_CORE_Private_Variables
  58:Middlewares/ST/STM32_USB_Host_Library/Core/Src/usbh_core.c ****   * @{
  59:Middlewares/ST/STM32_USB_Host_Library/Core/Src/usbh_core.c ****   */
  60:Middlewares/ST/STM32_USB_Host_Library/Core/Src/usbh_core.c **** #if (USBH_USE_OS == 1U)
  61:Middlewares/ST/STM32_USB_Host_Library/Core/Src/usbh_core.c **** #if (osCMSIS >= 0x20000U)
  62:Middlewares/ST/STM32_USB_Host_Library/Core/Src/usbh_core.c **** osThreadAttr_t USBH_Thread_Atrr;
  63:Middlewares/ST/STM32_USB_Host_Library/Core/Src/usbh_core.c **** #endif
  64:Middlewares/ST/STM32_USB_Host_Library/Core/Src/usbh_core.c **** #endif /* (USBH_USE_OS == 1U) */
  65:Middlewares/ST/STM32_USB_Host_Library/Core/Src/usbh_core.c **** 
  66:Middlewares/ST/STM32_USB_Host_Library/Core/Src/usbh_core.c **** 
  67:Middlewares/ST/STM32_USB_Host_Library/Core/Src/usbh_core.c **** /**
  68:Middlewares/ST/STM32_USB_Host_Library/Core/Src/usbh_core.c ****   * @}
  69:Middlewares/ST/STM32_USB_Host_Library/Core/Src/usbh_core.c ****   */
  70:Middlewares/ST/STM32_USB_Host_Library/Core/Src/usbh_core.c **** 
  71:Middlewares/ST/STM32_USB_Host_Library/Core/Src/usbh_core.c **** 
  72:Middlewares/ST/STM32_USB_Host_Library/Core/Src/usbh_core.c **** /** @defgroup USBH_CORE_Private_Functions
  73:Middlewares/ST/STM32_USB_Host_Library/Core/Src/usbh_core.c ****   * @{
  74:Middlewares/ST/STM32_USB_Host_Library/Core/Src/usbh_core.c ****   */
  75:Middlewares/ST/STM32_USB_Host_Library/Core/Src/usbh_core.c **** static USBH_StatusTypeDef USBH_HandleEnum(USBH_HandleTypeDef *phost);
  76:Middlewares/ST/STM32_USB_Host_Library/Core/Src/usbh_core.c **** static void USBH_HandleSof(USBH_HandleTypeDef *phost);
  77:Middlewares/ST/STM32_USB_Host_Library/Core/Src/usbh_core.c **** static USBH_StatusTypeDef DeInitStateMachine(USBH_HandleTypeDef *phost);
  78:Middlewares/ST/STM32_USB_Host_Library/Core/Src/usbh_core.c **** 
  79:Middlewares/ST/STM32_USB_Host_Library/Core/Src/usbh_core.c **** #if (USBH_USE_OS == 1U)
  80:Middlewares/ST/STM32_USB_Host_Library/Core/Src/usbh_core.c **** #if (osCMSIS < 0x20000U)
  81:Middlewares/ST/STM32_USB_Host_Library/Core/Src/usbh_core.c **** static void USBH_Process_OS(void const *argument);
  82:Middlewares/ST/STM32_USB_Host_Library/Core/Src/usbh_core.c **** #else
  83:Middlewares/ST/STM32_USB_Host_Library/Core/Src/usbh_core.c **** static void USBH_Process_OS(void *argument);
  84:Middlewares/ST/STM32_USB_Host_Library/Core/Src/usbh_core.c **** #endif /* (osCMSIS < 0x20000U) */
  85:Middlewares/ST/STM32_USB_Host_Library/Core/Src/usbh_core.c **** #endif /* (USBH_USE_OS == 1U) */
  86:Middlewares/ST/STM32_USB_Host_Library/Core/Src/usbh_core.c **** 
  87:Middlewares/ST/STM32_USB_Host_Library/Core/Src/usbh_core.c **** 
ARM GAS  C:\Users\moham\AppData\Local\Temp\ccR7RLkT.s 			page 3


  88:Middlewares/ST/STM32_USB_Host_Library/Core/Src/usbh_core.c **** /**
  89:Middlewares/ST/STM32_USB_Host_Library/Core/Src/usbh_core.c ****   * @brief  HCD_Init
  90:Middlewares/ST/STM32_USB_Host_Library/Core/Src/usbh_core.c ****   *         Initialize the HOST Core.
  91:Middlewares/ST/STM32_USB_Host_Library/Core/Src/usbh_core.c ****   * @param  phost: Host Handle
  92:Middlewares/ST/STM32_USB_Host_Library/Core/Src/usbh_core.c ****   * @param  pUsrFunc: User Callback
  93:Middlewares/ST/STM32_USB_Host_Library/Core/Src/usbh_core.c ****   * @retval USBH Status
  94:Middlewares/ST/STM32_USB_Host_Library/Core/Src/usbh_core.c ****   */
  95:Middlewares/ST/STM32_USB_Host_Library/Core/Src/usbh_core.c **** USBH_StatusTypeDef USBH_Init(USBH_HandleTypeDef *phost,
  96:Middlewares/ST/STM32_USB_Host_Library/Core/Src/usbh_core.c ****                              void (*pUsrFunc)(USBH_HandleTypeDef *phost,
  97:Middlewares/ST/STM32_USB_Host_Library/Core/Src/usbh_core.c ****                                               uint8_t id), uint8_t id)
  98:Middlewares/ST/STM32_USB_Host_Library/Core/Src/usbh_core.c **** {
  99:Middlewares/ST/STM32_USB_Host_Library/Core/Src/usbh_core.c ****   /* Check whether the USB Host handle is valid */
 100:Middlewares/ST/STM32_USB_Host_Library/Core/Src/usbh_core.c ****   if (phost == NULL)
 101:Middlewares/ST/STM32_USB_Host_Library/Core/Src/usbh_core.c ****   {
 102:Middlewares/ST/STM32_USB_Host_Library/Core/Src/usbh_core.c ****     USBH_ErrLog("Invalid Host handle");
 103:Middlewares/ST/STM32_USB_Host_Library/Core/Src/usbh_core.c ****     return USBH_FAIL;
 104:Middlewares/ST/STM32_USB_Host_Library/Core/Src/usbh_core.c ****   }
 105:Middlewares/ST/STM32_USB_Host_Library/Core/Src/usbh_core.c **** 
 106:Middlewares/ST/STM32_USB_Host_Library/Core/Src/usbh_core.c ****   /* Set DRiver ID */
 107:Middlewares/ST/STM32_USB_Host_Library/Core/Src/usbh_core.c ****   phost->id = id;
 108:Middlewares/ST/STM32_USB_Host_Library/Core/Src/usbh_core.c **** 
 109:Middlewares/ST/STM32_USB_Host_Library/Core/Src/usbh_core.c ****   /* Unlink class*/
 110:Middlewares/ST/STM32_USB_Host_Library/Core/Src/usbh_core.c ****   phost->pActiveClass = NULL;
 111:Middlewares/ST/STM32_USB_Host_Library/Core/Src/usbh_core.c ****   phost->ClassNumber = 0U;
 112:Middlewares/ST/STM32_USB_Host_Library/Core/Src/usbh_core.c **** 
 113:Middlewares/ST/STM32_USB_Host_Library/Core/Src/usbh_core.c ****   /* Restore default states and prepare EP0 */
 114:Middlewares/ST/STM32_USB_Host_Library/Core/Src/usbh_core.c ****   (void)DeInitStateMachine(phost);
 115:Middlewares/ST/STM32_USB_Host_Library/Core/Src/usbh_core.c **** 
 116:Middlewares/ST/STM32_USB_Host_Library/Core/Src/usbh_core.c ****   /* Restore default Device connection states */
 117:Middlewares/ST/STM32_USB_Host_Library/Core/Src/usbh_core.c ****   phost->device.PortEnabled = 0U;
 118:Middlewares/ST/STM32_USB_Host_Library/Core/Src/usbh_core.c ****   phost->device.is_connected = 0U;
 119:Middlewares/ST/STM32_USB_Host_Library/Core/Src/usbh_core.c ****   phost->device.is_disconnected = 0U;
 120:Middlewares/ST/STM32_USB_Host_Library/Core/Src/usbh_core.c ****   phost->device.is_ReEnumerated = 0U;
 121:Middlewares/ST/STM32_USB_Host_Library/Core/Src/usbh_core.c **** 
 122:Middlewares/ST/STM32_USB_Host_Library/Core/Src/usbh_core.c ****   /* Assign User process */
 123:Middlewares/ST/STM32_USB_Host_Library/Core/Src/usbh_core.c ****   if (pUsrFunc != NULL)
 124:Middlewares/ST/STM32_USB_Host_Library/Core/Src/usbh_core.c ****   {
 125:Middlewares/ST/STM32_USB_Host_Library/Core/Src/usbh_core.c ****     phost->pUser = pUsrFunc;
 126:Middlewares/ST/STM32_USB_Host_Library/Core/Src/usbh_core.c ****   }
 127:Middlewares/ST/STM32_USB_Host_Library/Core/Src/usbh_core.c **** 
 128:Middlewares/ST/STM32_USB_Host_Library/Core/Src/usbh_core.c **** #if (USBH_USE_OS == 1U)
 129:Middlewares/ST/STM32_USB_Host_Library/Core/Src/usbh_core.c **** #if (osCMSIS < 0x20000U)
 130:Middlewares/ST/STM32_USB_Host_Library/Core/Src/usbh_core.c **** 
 131:Middlewares/ST/STM32_USB_Host_Library/Core/Src/usbh_core.c ****   /* Create USB Host Queue */
 132:Middlewares/ST/STM32_USB_Host_Library/Core/Src/usbh_core.c ****   osMessageQDef(USBH_Queue, MSGQUEUE_OBJECTS, uint16_t);
 133:Middlewares/ST/STM32_USB_Host_Library/Core/Src/usbh_core.c ****   phost->os_event = osMessageCreate(osMessageQ(USBH_Queue), NULL);
 134:Middlewares/ST/STM32_USB_Host_Library/Core/Src/usbh_core.c **** 
 135:Middlewares/ST/STM32_USB_Host_Library/Core/Src/usbh_core.c ****   /* Create USB Host Task */
 136:Middlewares/ST/STM32_USB_Host_Library/Core/Src/usbh_core.c **** #if defined (USBH_PROCESS_STACK_SIZE)
 137:Middlewares/ST/STM32_USB_Host_Library/Core/Src/usbh_core.c ****   osThreadDef(USBH_Thread, USBH_Process_OS, USBH_PROCESS_PRIO, 0U, USBH_PROCESS_STACK_SIZE);
 138:Middlewares/ST/STM32_USB_Host_Library/Core/Src/usbh_core.c **** #else
 139:Middlewares/ST/STM32_USB_Host_Library/Core/Src/usbh_core.c ****   osThreadDef(USBH_Thread, USBH_Process_OS, USBH_PROCESS_PRIO, 0U, 8U * configMINIMAL_STACK_SIZE);
 140:Middlewares/ST/STM32_USB_Host_Library/Core/Src/usbh_core.c **** #endif /* defined (USBH_PROCESS_STACK_SIZE) */
 141:Middlewares/ST/STM32_USB_Host_Library/Core/Src/usbh_core.c **** 
 142:Middlewares/ST/STM32_USB_Host_Library/Core/Src/usbh_core.c ****   phost->thread = osThreadCreate(osThread(USBH_Thread), phost);
 143:Middlewares/ST/STM32_USB_Host_Library/Core/Src/usbh_core.c **** 
 144:Middlewares/ST/STM32_USB_Host_Library/Core/Src/usbh_core.c **** #else
ARM GAS  C:\Users\moham\AppData\Local\Temp\ccR7RLkT.s 			page 4


 145:Middlewares/ST/STM32_USB_Host_Library/Core/Src/usbh_core.c **** 
 146:Middlewares/ST/STM32_USB_Host_Library/Core/Src/usbh_core.c ****   /* Create USB Host Queue */
 147:Middlewares/ST/STM32_USB_Host_Library/Core/Src/usbh_core.c ****   phost->os_event = osMessageQueueNew(MSGQUEUE_OBJECTS, sizeof(uint32_t), NULL);
 148:Middlewares/ST/STM32_USB_Host_Library/Core/Src/usbh_core.c **** 
 149:Middlewares/ST/STM32_USB_Host_Library/Core/Src/usbh_core.c ****   /* Create USB Host Task */
 150:Middlewares/ST/STM32_USB_Host_Library/Core/Src/usbh_core.c ****   USBH_Thread_Atrr.name = "USBH_Queue";
 151:Middlewares/ST/STM32_USB_Host_Library/Core/Src/usbh_core.c **** 
 152:Middlewares/ST/STM32_USB_Host_Library/Core/Src/usbh_core.c **** #if defined (USBH_PROCESS_STACK_SIZE)
 153:Middlewares/ST/STM32_USB_Host_Library/Core/Src/usbh_core.c ****   USBH_Thread_Atrr.stack_size = USBH_PROCESS_STACK_SIZE;
 154:Middlewares/ST/STM32_USB_Host_Library/Core/Src/usbh_core.c **** #else
 155:Middlewares/ST/STM32_USB_Host_Library/Core/Src/usbh_core.c ****   USBH_Thread_Atrr.stack_size = (8U * configMINIMAL_STACK_SIZE);
 156:Middlewares/ST/STM32_USB_Host_Library/Core/Src/usbh_core.c **** #endif /* defined (USBH_PROCESS_STACK_SIZE) */
 157:Middlewares/ST/STM32_USB_Host_Library/Core/Src/usbh_core.c **** 
 158:Middlewares/ST/STM32_USB_Host_Library/Core/Src/usbh_core.c ****   USBH_Thread_Atrr.priority = USBH_PROCESS_PRIO;
 159:Middlewares/ST/STM32_USB_Host_Library/Core/Src/usbh_core.c ****   phost->thread = osThreadNew(USBH_Process_OS, phost, &USBH_Thread_Atrr);
 160:Middlewares/ST/STM32_USB_Host_Library/Core/Src/usbh_core.c **** 
 161:Middlewares/ST/STM32_USB_Host_Library/Core/Src/usbh_core.c **** #endif /* (osCMSIS < 0x20000U) */
 162:Middlewares/ST/STM32_USB_Host_Library/Core/Src/usbh_core.c **** #endif /* (USBH_USE_OS == 1U) */
 163:Middlewares/ST/STM32_USB_Host_Library/Core/Src/usbh_core.c **** 
 164:Middlewares/ST/STM32_USB_Host_Library/Core/Src/usbh_core.c ****   /* Initialize low level driver */
 165:Middlewares/ST/STM32_USB_Host_Library/Core/Src/usbh_core.c ****   (void)USBH_LL_Init(phost);
 166:Middlewares/ST/STM32_USB_Host_Library/Core/Src/usbh_core.c **** 
 167:Middlewares/ST/STM32_USB_Host_Library/Core/Src/usbh_core.c ****   return USBH_OK;
 168:Middlewares/ST/STM32_USB_Host_Library/Core/Src/usbh_core.c **** }
 169:Middlewares/ST/STM32_USB_Host_Library/Core/Src/usbh_core.c **** 
 170:Middlewares/ST/STM32_USB_Host_Library/Core/Src/usbh_core.c **** 
 171:Middlewares/ST/STM32_USB_Host_Library/Core/Src/usbh_core.c **** /**
 172:Middlewares/ST/STM32_USB_Host_Library/Core/Src/usbh_core.c ****   * @brief  HCD_Init
 173:Middlewares/ST/STM32_USB_Host_Library/Core/Src/usbh_core.c ****   *         De-Initialize the Host portion of the driver.
 174:Middlewares/ST/STM32_USB_Host_Library/Core/Src/usbh_core.c ****   * @param  phost: Host Handle
 175:Middlewares/ST/STM32_USB_Host_Library/Core/Src/usbh_core.c ****   * @retval USBH Status
 176:Middlewares/ST/STM32_USB_Host_Library/Core/Src/usbh_core.c ****   */
 177:Middlewares/ST/STM32_USB_Host_Library/Core/Src/usbh_core.c **** USBH_StatusTypeDef USBH_DeInit(USBH_HandleTypeDef *phost)
 178:Middlewares/ST/STM32_USB_Host_Library/Core/Src/usbh_core.c **** {
 179:Middlewares/ST/STM32_USB_Host_Library/Core/Src/usbh_core.c ****   (void)DeInitStateMachine(phost);
 180:Middlewares/ST/STM32_USB_Host_Library/Core/Src/usbh_core.c **** 
 181:Middlewares/ST/STM32_USB_Host_Library/Core/Src/usbh_core.c ****   /* Restore default Device connection states */
 182:Middlewares/ST/STM32_USB_Host_Library/Core/Src/usbh_core.c ****   phost->device.PortEnabled = 0U;
 183:Middlewares/ST/STM32_USB_Host_Library/Core/Src/usbh_core.c ****   phost->device.is_connected = 0U;
 184:Middlewares/ST/STM32_USB_Host_Library/Core/Src/usbh_core.c ****   phost->device.is_disconnected = 0U;
 185:Middlewares/ST/STM32_USB_Host_Library/Core/Src/usbh_core.c ****   phost->device.is_ReEnumerated = 0U;
 186:Middlewares/ST/STM32_USB_Host_Library/Core/Src/usbh_core.c ****   phost->device.RstCnt = 0U;
 187:Middlewares/ST/STM32_USB_Host_Library/Core/Src/usbh_core.c ****   phost->device.EnumCnt = 0U;
 188:Middlewares/ST/STM32_USB_Host_Library/Core/Src/usbh_core.c **** 
 189:Middlewares/ST/STM32_USB_Host_Library/Core/Src/usbh_core.c ****   if (phost->pData != NULL)
 190:Middlewares/ST/STM32_USB_Host_Library/Core/Src/usbh_core.c ****   {
 191:Middlewares/ST/STM32_USB_Host_Library/Core/Src/usbh_core.c ****     (void)USBH_LL_Stop(phost);
 192:Middlewares/ST/STM32_USB_Host_Library/Core/Src/usbh_core.c ****   }
 193:Middlewares/ST/STM32_USB_Host_Library/Core/Src/usbh_core.c **** 
 194:Middlewares/ST/STM32_USB_Host_Library/Core/Src/usbh_core.c **** #if (USBH_USE_OS == 1U)
 195:Middlewares/ST/STM32_USB_Host_Library/Core/Src/usbh_core.c **** #if (osCMSIS < 0x20000U)
 196:Middlewares/ST/STM32_USB_Host_Library/Core/Src/usbh_core.c **** 
 197:Middlewares/ST/STM32_USB_Host_Library/Core/Src/usbh_core.c ****   /* Free allocated resource for USBH process */
 198:Middlewares/ST/STM32_USB_Host_Library/Core/Src/usbh_core.c ****   (void)osThreadTerminate(phost->thread);
 199:Middlewares/ST/STM32_USB_Host_Library/Core/Src/usbh_core.c ****   (void)osMessageDelete(phost->os_event);
 200:Middlewares/ST/STM32_USB_Host_Library/Core/Src/usbh_core.c **** 
 201:Middlewares/ST/STM32_USB_Host_Library/Core/Src/usbh_core.c **** #else
ARM GAS  C:\Users\moham\AppData\Local\Temp\ccR7RLkT.s 			page 5


 202:Middlewares/ST/STM32_USB_Host_Library/Core/Src/usbh_core.c **** 
 203:Middlewares/ST/STM32_USB_Host_Library/Core/Src/usbh_core.c ****   /* Free allocated resource for USBH process */
 204:Middlewares/ST/STM32_USB_Host_Library/Core/Src/usbh_core.c ****   (void)osThreadTerminate(phost->thread);
 205:Middlewares/ST/STM32_USB_Host_Library/Core/Src/usbh_core.c ****   (void)osMessageQueueDelete(phost->os_event);
 206:Middlewares/ST/STM32_USB_Host_Library/Core/Src/usbh_core.c **** 
 207:Middlewares/ST/STM32_USB_Host_Library/Core/Src/usbh_core.c **** #endif /* (osCMSIS < 0x20000U) */
 208:Middlewares/ST/STM32_USB_Host_Library/Core/Src/usbh_core.c **** #endif /* (USBH_USE_OS == 1U) */
 209:Middlewares/ST/STM32_USB_Host_Library/Core/Src/usbh_core.c **** 
 210:Middlewares/ST/STM32_USB_Host_Library/Core/Src/usbh_core.c ****   return USBH_OK;
 211:Middlewares/ST/STM32_USB_Host_Library/Core/Src/usbh_core.c **** }
 212:Middlewares/ST/STM32_USB_Host_Library/Core/Src/usbh_core.c **** 
 213:Middlewares/ST/STM32_USB_Host_Library/Core/Src/usbh_core.c **** 
 214:Middlewares/ST/STM32_USB_Host_Library/Core/Src/usbh_core.c **** /**
 215:Middlewares/ST/STM32_USB_Host_Library/Core/Src/usbh_core.c ****   * @brief  DeInitStateMachine
 216:Middlewares/ST/STM32_USB_Host_Library/Core/Src/usbh_core.c ****   *         De-Initialize the Host state machine.
 217:Middlewares/ST/STM32_USB_Host_Library/Core/Src/usbh_core.c ****   * @param  phost: Host Handle
 218:Middlewares/ST/STM32_USB_Host_Library/Core/Src/usbh_core.c ****   * @retval USBH Status
 219:Middlewares/ST/STM32_USB_Host_Library/Core/Src/usbh_core.c ****   */
 220:Middlewares/ST/STM32_USB_Host_Library/Core/Src/usbh_core.c **** static USBH_StatusTypeDef DeInitStateMachine(USBH_HandleTypeDef *phost)
 221:Middlewares/ST/STM32_USB_Host_Library/Core/Src/usbh_core.c **** {
 222:Middlewares/ST/STM32_USB_Host_Library/Core/Src/usbh_core.c ****   uint32_t i;
 223:Middlewares/ST/STM32_USB_Host_Library/Core/Src/usbh_core.c **** 
 224:Middlewares/ST/STM32_USB_Host_Library/Core/Src/usbh_core.c ****   /* Clear Pipes flags*/
 225:Middlewares/ST/STM32_USB_Host_Library/Core/Src/usbh_core.c ****   for (i = 0U; i < USBH_MAX_PIPES_NBR; i++)
 226:Middlewares/ST/STM32_USB_Host_Library/Core/Src/usbh_core.c ****   {
 227:Middlewares/ST/STM32_USB_Host_Library/Core/Src/usbh_core.c ****     phost->Pipes[i] = 0U;
 228:Middlewares/ST/STM32_USB_Host_Library/Core/Src/usbh_core.c ****   }
 229:Middlewares/ST/STM32_USB_Host_Library/Core/Src/usbh_core.c **** 
 230:Middlewares/ST/STM32_USB_Host_Library/Core/Src/usbh_core.c ****   for (i = 0U; i < USBH_MAX_DATA_BUFFER; i++)
 231:Middlewares/ST/STM32_USB_Host_Library/Core/Src/usbh_core.c ****   {
 232:Middlewares/ST/STM32_USB_Host_Library/Core/Src/usbh_core.c ****     phost->device.Data[i] = 0U;
 233:Middlewares/ST/STM32_USB_Host_Library/Core/Src/usbh_core.c ****   }
 234:Middlewares/ST/STM32_USB_Host_Library/Core/Src/usbh_core.c **** 
 235:Middlewares/ST/STM32_USB_Host_Library/Core/Src/usbh_core.c ****   phost->gState = HOST_IDLE;
 236:Middlewares/ST/STM32_USB_Host_Library/Core/Src/usbh_core.c ****   phost->EnumState = ENUM_IDLE;
 237:Middlewares/ST/STM32_USB_Host_Library/Core/Src/usbh_core.c ****   phost->RequestState = CMD_SEND;
 238:Middlewares/ST/STM32_USB_Host_Library/Core/Src/usbh_core.c ****   phost->Timer = 0U;
 239:Middlewares/ST/STM32_USB_Host_Library/Core/Src/usbh_core.c **** 
 240:Middlewares/ST/STM32_USB_Host_Library/Core/Src/usbh_core.c ****   phost->Control.state = CTRL_SETUP;
 241:Middlewares/ST/STM32_USB_Host_Library/Core/Src/usbh_core.c ****   phost->Control.pipe_size = USBH_MPS_DEFAULT;
 242:Middlewares/ST/STM32_USB_Host_Library/Core/Src/usbh_core.c ****   phost->Control.errorcount = 0U;
 243:Middlewares/ST/STM32_USB_Host_Library/Core/Src/usbh_core.c **** 
 244:Middlewares/ST/STM32_USB_Host_Library/Core/Src/usbh_core.c ****   phost->device.address = USBH_ADDRESS_DEFAULT;
 245:Middlewares/ST/STM32_USB_Host_Library/Core/Src/usbh_core.c ****   phost->device.speed = (uint8_t)USBH_SPEED_FULL;
 246:Middlewares/ST/STM32_USB_Host_Library/Core/Src/usbh_core.c ****   phost->device.RstCnt = 0U;
 247:Middlewares/ST/STM32_USB_Host_Library/Core/Src/usbh_core.c ****   phost->device.EnumCnt = 0U;
 248:Middlewares/ST/STM32_USB_Host_Library/Core/Src/usbh_core.c **** 
 249:Middlewares/ST/STM32_USB_Host_Library/Core/Src/usbh_core.c ****   /* Reset the device struct */
 250:Middlewares/ST/STM32_USB_Host_Library/Core/Src/usbh_core.c ****   USBH_memset(&phost->device.CfgDesc_Raw, 0, sizeof(phost->device.CfgDesc_Raw));
 251:Middlewares/ST/STM32_USB_Host_Library/Core/Src/usbh_core.c ****   USBH_memset(&phost->device.Data, 0, sizeof(phost->device.Data));
 252:Middlewares/ST/STM32_USB_Host_Library/Core/Src/usbh_core.c ****   USBH_memset(&phost->device.DevDesc, 0, sizeof(phost->device.DevDesc));
 253:Middlewares/ST/STM32_USB_Host_Library/Core/Src/usbh_core.c ****   USBH_memset(&phost->device.CfgDesc, 0, sizeof(phost->device.CfgDesc));
 254:Middlewares/ST/STM32_USB_Host_Library/Core/Src/usbh_core.c **** 
 255:Middlewares/ST/STM32_USB_Host_Library/Core/Src/usbh_core.c ****   return USBH_OK;
 256:Middlewares/ST/STM32_USB_Host_Library/Core/Src/usbh_core.c **** }
 257:Middlewares/ST/STM32_USB_Host_Library/Core/Src/usbh_core.c **** 
 258:Middlewares/ST/STM32_USB_Host_Library/Core/Src/usbh_core.c **** 
ARM GAS  C:\Users\moham\AppData\Local\Temp\ccR7RLkT.s 			page 6


 259:Middlewares/ST/STM32_USB_Host_Library/Core/Src/usbh_core.c **** /**
 260:Middlewares/ST/STM32_USB_Host_Library/Core/Src/usbh_core.c ****   * @brief  USBH_RegisterClass
 261:Middlewares/ST/STM32_USB_Host_Library/Core/Src/usbh_core.c ****   *         Link class driver to Host Core.
 262:Middlewares/ST/STM32_USB_Host_Library/Core/Src/usbh_core.c ****   * @param  phost : Host Handle
 263:Middlewares/ST/STM32_USB_Host_Library/Core/Src/usbh_core.c ****   * @param  pclass: Class handle
 264:Middlewares/ST/STM32_USB_Host_Library/Core/Src/usbh_core.c ****   * @retval USBH Status
 265:Middlewares/ST/STM32_USB_Host_Library/Core/Src/usbh_core.c ****   */
 266:Middlewares/ST/STM32_USB_Host_Library/Core/Src/usbh_core.c **** USBH_StatusTypeDef USBH_RegisterClass(USBH_HandleTypeDef *phost, USBH_ClassTypeDef *pclass)
 267:Middlewares/ST/STM32_USB_Host_Library/Core/Src/usbh_core.c **** {
 268:Middlewares/ST/STM32_USB_Host_Library/Core/Src/usbh_core.c ****   USBH_StatusTypeDef status = USBH_OK;
 269:Middlewares/ST/STM32_USB_Host_Library/Core/Src/usbh_core.c **** 
 270:Middlewares/ST/STM32_USB_Host_Library/Core/Src/usbh_core.c ****   if (pclass != NULL)
 271:Middlewares/ST/STM32_USB_Host_Library/Core/Src/usbh_core.c ****   {
 272:Middlewares/ST/STM32_USB_Host_Library/Core/Src/usbh_core.c ****     if (phost->ClassNumber < USBH_MAX_NUM_SUPPORTED_CLASS)
 273:Middlewares/ST/STM32_USB_Host_Library/Core/Src/usbh_core.c ****     {
 274:Middlewares/ST/STM32_USB_Host_Library/Core/Src/usbh_core.c ****       /* link the class to the USB Host handle */
 275:Middlewares/ST/STM32_USB_Host_Library/Core/Src/usbh_core.c ****       phost->pClass[phost->ClassNumber++] = pclass;
 276:Middlewares/ST/STM32_USB_Host_Library/Core/Src/usbh_core.c ****       status = USBH_OK;
 277:Middlewares/ST/STM32_USB_Host_Library/Core/Src/usbh_core.c ****     }
 278:Middlewares/ST/STM32_USB_Host_Library/Core/Src/usbh_core.c ****     else
 279:Middlewares/ST/STM32_USB_Host_Library/Core/Src/usbh_core.c ****     {
 280:Middlewares/ST/STM32_USB_Host_Library/Core/Src/usbh_core.c ****       USBH_ErrLog("Max Class Number reached");
 281:Middlewares/ST/STM32_USB_Host_Library/Core/Src/usbh_core.c ****       status = USBH_FAIL;
 282:Middlewares/ST/STM32_USB_Host_Library/Core/Src/usbh_core.c ****     }
 283:Middlewares/ST/STM32_USB_Host_Library/Core/Src/usbh_core.c ****   }
 284:Middlewares/ST/STM32_USB_Host_Library/Core/Src/usbh_core.c ****   else
 285:Middlewares/ST/STM32_USB_Host_Library/Core/Src/usbh_core.c ****   {
 286:Middlewares/ST/STM32_USB_Host_Library/Core/Src/usbh_core.c ****     USBH_ErrLog("Invalid Class handle");
 287:Middlewares/ST/STM32_USB_Host_Library/Core/Src/usbh_core.c ****     status = USBH_FAIL;
 288:Middlewares/ST/STM32_USB_Host_Library/Core/Src/usbh_core.c ****   }
 289:Middlewares/ST/STM32_USB_Host_Library/Core/Src/usbh_core.c **** 
 290:Middlewares/ST/STM32_USB_Host_Library/Core/Src/usbh_core.c ****   return status;
 291:Middlewares/ST/STM32_USB_Host_Library/Core/Src/usbh_core.c **** }
 292:Middlewares/ST/STM32_USB_Host_Library/Core/Src/usbh_core.c **** 
 293:Middlewares/ST/STM32_USB_Host_Library/Core/Src/usbh_core.c **** 
 294:Middlewares/ST/STM32_USB_Host_Library/Core/Src/usbh_core.c **** /**
 295:Middlewares/ST/STM32_USB_Host_Library/Core/Src/usbh_core.c ****   * @brief  USBH_SelectInterface
 296:Middlewares/ST/STM32_USB_Host_Library/Core/Src/usbh_core.c ****   *         Select current interface.
 297:Middlewares/ST/STM32_USB_Host_Library/Core/Src/usbh_core.c ****   * @param  phost: Host Handle
 298:Middlewares/ST/STM32_USB_Host_Library/Core/Src/usbh_core.c ****   * @param  interface: Interface number
 299:Middlewares/ST/STM32_USB_Host_Library/Core/Src/usbh_core.c ****   * @retval USBH Status
 300:Middlewares/ST/STM32_USB_Host_Library/Core/Src/usbh_core.c ****   */
 301:Middlewares/ST/STM32_USB_Host_Library/Core/Src/usbh_core.c **** USBH_StatusTypeDef USBH_SelectInterface(USBH_HandleTypeDef *phost, uint8_t interface)
 302:Middlewares/ST/STM32_USB_Host_Library/Core/Src/usbh_core.c **** {
 303:Middlewares/ST/STM32_USB_Host_Library/Core/Src/usbh_core.c ****   USBH_StatusTypeDef status = USBH_OK;
 304:Middlewares/ST/STM32_USB_Host_Library/Core/Src/usbh_core.c **** 
 305:Middlewares/ST/STM32_USB_Host_Library/Core/Src/usbh_core.c ****   if (interface < phost->device.CfgDesc.bNumInterfaces)
 306:Middlewares/ST/STM32_USB_Host_Library/Core/Src/usbh_core.c ****   {
 307:Middlewares/ST/STM32_USB_Host_Library/Core/Src/usbh_core.c ****     phost->device.current_interface = interface;
 308:Middlewares/ST/STM32_USB_Host_Library/Core/Src/usbh_core.c ****     USBH_UsrLog("Switching to Interface (#%d)", interface);
 309:Middlewares/ST/STM32_USB_Host_Library/Core/Src/usbh_core.c ****     USBH_UsrLog("Class    : %xh", phost->device.CfgDesc.Itf_Desc[interface].bInterfaceClass);
 310:Middlewares/ST/STM32_USB_Host_Library/Core/Src/usbh_core.c ****     USBH_UsrLog("SubClass : %xh", phost->device.CfgDesc.Itf_Desc[interface].bInterfaceSubClass);
 311:Middlewares/ST/STM32_USB_Host_Library/Core/Src/usbh_core.c ****     USBH_UsrLog("Protocol : %xh", phost->device.CfgDesc.Itf_Desc[interface].bInterfaceProtocol);
 312:Middlewares/ST/STM32_USB_Host_Library/Core/Src/usbh_core.c ****   }
 313:Middlewares/ST/STM32_USB_Host_Library/Core/Src/usbh_core.c ****   else
 314:Middlewares/ST/STM32_USB_Host_Library/Core/Src/usbh_core.c ****   {
 315:Middlewares/ST/STM32_USB_Host_Library/Core/Src/usbh_core.c ****     USBH_ErrLog("Cannot Select This Interface.");
ARM GAS  C:\Users\moham\AppData\Local\Temp\ccR7RLkT.s 			page 7


 316:Middlewares/ST/STM32_USB_Host_Library/Core/Src/usbh_core.c ****     status = USBH_FAIL;
 317:Middlewares/ST/STM32_USB_Host_Library/Core/Src/usbh_core.c ****   }
 318:Middlewares/ST/STM32_USB_Host_Library/Core/Src/usbh_core.c **** 
 319:Middlewares/ST/STM32_USB_Host_Library/Core/Src/usbh_core.c ****   return status;
 320:Middlewares/ST/STM32_USB_Host_Library/Core/Src/usbh_core.c **** }
 321:Middlewares/ST/STM32_USB_Host_Library/Core/Src/usbh_core.c **** 
 322:Middlewares/ST/STM32_USB_Host_Library/Core/Src/usbh_core.c **** 
 323:Middlewares/ST/STM32_USB_Host_Library/Core/Src/usbh_core.c **** /**
 324:Middlewares/ST/STM32_USB_Host_Library/Core/Src/usbh_core.c ****   * @brief  USBH_GetActiveClass
 325:Middlewares/ST/STM32_USB_Host_Library/Core/Src/usbh_core.c ****   *         Return Device Class.
 326:Middlewares/ST/STM32_USB_Host_Library/Core/Src/usbh_core.c ****   * @param  phost: Host Handle
 327:Middlewares/ST/STM32_USB_Host_Library/Core/Src/usbh_core.c ****   * @param  interface: Interface index
 328:Middlewares/ST/STM32_USB_Host_Library/Core/Src/usbh_core.c ****   * @retval Class Code
 329:Middlewares/ST/STM32_USB_Host_Library/Core/Src/usbh_core.c ****   */
 330:Middlewares/ST/STM32_USB_Host_Library/Core/Src/usbh_core.c **** uint8_t USBH_GetActiveClass(USBH_HandleTypeDef *phost)
 331:Middlewares/ST/STM32_USB_Host_Library/Core/Src/usbh_core.c **** {
 332:Middlewares/ST/STM32_USB_Host_Library/Core/Src/usbh_core.c ****   return (phost->device.CfgDesc.Itf_Desc[0].bInterfaceClass);
 333:Middlewares/ST/STM32_USB_Host_Library/Core/Src/usbh_core.c **** }
 334:Middlewares/ST/STM32_USB_Host_Library/Core/Src/usbh_core.c **** 
 335:Middlewares/ST/STM32_USB_Host_Library/Core/Src/usbh_core.c **** 
 336:Middlewares/ST/STM32_USB_Host_Library/Core/Src/usbh_core.c **** /**
 337:Middlewares/ST/STM32_USB_Host_Library/Core/Src/usbh_core.c ****   * @brief  USBH_FindInterface
 338:Middlewares/ST/STM32_USB_Host_Library/Core/Src/usbh_core.c ****   *         Find the interface index for a specific class.
 339:Middlewares/ST/STM32_USB_Host_Library/Core/Src/usbh_core.c ****   * @param  phost: Host Handle
 340:Middlewares/ST/STM32_USB_Host_Library/Core/Src/usbh_core.c ****   * @param  Class: Class code
 341:Middlewares/ST/STM32_USB_Host_Library/Core/Src/usbh_core.c ****   * @param  SubClass: SubClass code
 342:Middlewares/ST/STM32_USB_Host_Library/Core/Src/usbh_core.c ****   * @param  Protocol: Protocol code
 343:Middlewares/ST/STM32_USB_Host_Library/Core/Src/usbh_core.c ****   * @retval interface index in the configuration structure
 344:Middlewares/ST/STM32_USB_Host_Library/Core/Src/usbh_core.c ****   * @note : (1)interface index 0xFF means interface index not found
 345:Middlewares/ST/STM32_USB_Host_Library/Core/Src/usbh_core.c ****   */
 346:Middlewares/ST/STM32_USB_Host_Library/Core/Src/usbh_core.c **** uint8_t USBH_FindInterface(USBH_HandleTypeDef *phost, uint8_t Class, uint8_t SubClass, uint8_t Prot
 347:Middlewares/ST/STM32_USB_Host_Library/Core/Src/usbh_core.c **** {
 348:Middlewares/ST/STM32_USB_Host_Library/Core/Src/usbh_core.c ****   USBH_InterfaceDescTypeDef *pif;
 349:Middlewares/ST/STM32_USB_Host_Library/Core/Src/usbh_core.c ****   USBH_CfgDescTypeDef *pcfg;
 350:Middlewares/ST/STM32_USB_Host_Library/Core/Src/usbh_core.c ****   uint8_t if_ix = 0U;
 351:Middlewares/ST/STM32_USB_Host_Library/Core/Src/usbh_core.c **** 
 352:Middlewares/ST/STM32_USB_Host_Library/Core/Src/usbh_core.c ****   pif = (USBH_InterfaceDescTypeDef *)NULL;
 353:Middlewares/ST/STM32_USB_Host_Library/Core/Src/usbh_core.c ****   pcfg = &phost->device.CfgDesc;
 354:Middlewares/ST/STM32_USB_Host_Library/Core/Src/usbh_core.c **** 
 355:Middlewares/ST/STM32_USB_Host_Library/Core/Src/usbh_core.c ****   while (if_ix < USBH_MAX_NUM_INTERFACES)
 356:Middlewares/ST/STM32_USB_Host_Library/Core/Src/usbh_core.c ****   {
 357:Middlewares/ST/STM32_USB_Host_Library/Core/Src/usbh_core.c ****     pif = &pcfg->Itf_Desc[if_ix];
 358:Middlewares/ST/STM32_USB_Host_Library/Core/Src/usbh_core.c ****     if (((pif->bInterfaceClass == Class) || (Class == 0xFFU)) &&
 359:Middlewares/ST/STM32_USB_Host_Library/Core/Src/usbh_core.c ****         ((pif->bInterfaceSubClass == SubClass) || (SubClass == 0xFFU)) &&
 360:Middlewares/ST/STM32_USB_Host_Library/Core/Src/usbh_core.c ****         ((pif->bInterfaceProtocol == Protocol) || (Protocol == 0xFFU)))
 361:Middlewares/ST/STM32_USB_Host_Library/Core/Src/usbh_core.c ****     {
 362:Middlewares/ST/STM32_USB_Host_Library/Core/Src/usbh_core.c ****       return  if_ix;
 363:Middlewares/ST/STM32_USB_Host_Library/Core/Src/usbh_core.c ****     }
 364:Middlewares/ST/STM32_USB_Host_Library/Core/Src/usbh_core.c ****     if_ix++;
 365:Middlewares/ST/STM32_USB_Host_Library/Core/Src/usbh_core.c ****   }
 366:Middlewares/ST/STM32_USB_Host_Library/Core/Src/usbh_core.c ****   return 0xFFU;
 367:Middlewares/ST/STM32_USB_Host_Library/Core/Src/usbh_core.c **** }
 368:Middlewares/ST/STM32_USB_Host_Library/Core/Src/usbh_core.c **** 
 369:Middlewares/ST/STM32_USB_Host_Library/Core/Src/usbh_core.c **** 
 370:Middlewares/ST/STM32_USB_Host_Library/Core/Src/usbh_core.c **** /**
 371:Middlewares/ST/STM32_USB_Host_Library/Core/Src/usbh_core.c ****   * @brief  USBH_FindInterfaceIndex
 372:Middlewares/ST/STM32_USB_Host_Library/Core/Src/usbh_core.c ****   *         Find the interface index for a specific class interface and alternate setting number.
ARM GAS  C:\Users\moham\AppData\Local\Temp\ccR7RLkT.s 			page 8


 373:Middlewares/ST/STM32_USB_Host_Library/Core/Src/usbh_core.c ****   * @param  phost: Host Handle
 374:Middlewares/ST/STM32_USB_Host_Library/Core/Src/usbh_core.c ****   * @param  interface_number: interface number
 375:Middlewares/ST/STM32_USB_Host_Library/Core/Src/usbh_core.c ****   * @param  alt_settings    : alternate setting number
 376:Middlewares/ST/STM32_USB_Host_Library/Core/Src/usbh_core.c ****   * @retval interface index in the configuration structure
 377:Middlewares/ST/STM32_USB_Host_Library/Core/Src/usbh_core.c ****   * @note : (1)interface index 0xFF means interface index not found
 378:Middlewares/ST/STM32_USB_Host_Library/Core/Src/usbh_core.c ****   */
 379:Middlewares/ST/STM32_USB_Host_Library/Core/Src/usbh_core.c **** uint8_t USBH_FindInterfaceIndex(USBH_HandleTypeDef *phost, uint8_t interface_number, uint8_t alt_se
 380:Middlewares/ST/STM32_USB_Host_Library/Core/Src/usbh_core.c **** {
 381:Middlewares/ST/STM32_USB_Host_Library/Core/Src/usbh_core.c ****   USBH_InterfaceDescTypeDef *pif;
 382:Middlewares/ST/STM32_USB_Host_Library/Core/Src/usbh_core.c ****   USBH_CfgDescTypeDef *pcfg;
 383:Middlewares/ST/STM32_USB_Host_Library/Core/Src/usbh_core.c ****   uint8_t if_ix = 0U;
 384:Middlewares/ST/STM32_USB_Host_Library/Core/Src/usbh_core.c **** 
 385:Middlewares/ST/STM32_USB_Host_Library/Core/Src/usbh_core.c ****   pif = (USBH_InterfaceDescTypeDef *)NULL;
 386:Middlewares/ST/STM32_USB_Host_Library/Core/Src/usbh_core.c ****   pcfg = &phost->device.CfgDesc;
 387:Middlewares/ST/STM32_USB_Host_Library/Core/Src/usbh_core.c **** 
 388:Middlewares/ST/STM32_USB_Host_Library/Core/Src/usbh_core.c ****   while (if_ix < USBH_MAX_NUM_INTERFACES)
 389:Middlewares/ST/STM32_USB_Host_Library/Core/Src/usbh_core.c ****   {
 390:Middlewares/ST/STM32_USB_Host_Library/Core/Src/usbh_core.c ****     pif = &pcfg->Itf_Desc[if_ix];
 391:Middlewares/ST/STM32_USB_Host_Library/Core/Src/usbh_core.c ****     if ((pif->bInterfaceNumber == interface_number) && (pif->bAlternateSetting == alt_settings))
 392:Middlewares/ST/STM32_USB_Host_Library/Core/Src/usbh_core.c ****     {
 393:Middlewares/ST/STM32_USB_Host_Library/Core/Src/usbh_core.c ****       return  if_ix;
 394:Middlewares/ST/STM32_USB_Host_Library/Core/Src/usbh_core.c ****     }
 395:Middlewares/ST/STM32_USB_Host_Library/Core/Src/usbh_core.c ****     if_ix++;
 396:Middlewares/ST/STM32_USB_Host_Library/Core/Src/usbh_core.c ****   }
 397:Middlewares/ST/STM32_USB_Host_Library/Core/Src/usbh_core.c ****   return 0xFFU;
 398:Middlewares/ST/STM32_USB_Host_Library/Core/Src/usbh_core.c **** }
 399:Middlewares/ST/STM32_USB_Host_Library/Core/Src/usbh_core.c **** 
 400:Middlewares/ST/STM32_USB_Host_Library/Core/Src/usbh_core.c **** 
 401:Middlewares/ST/STM32_USB_Host_Library/Core/Src/usbh_core.c **** /**
 402:Middlewares/ST/STM32_USB_Host_Library/Core/Src/usbh_core.c ****   * @brief  USBH_Start
 403:Middlewares/ST/STM32_USB_Host_Library/Core/Src/usbh_core.c ****   *         Start the USB Host Core.
 404:Middlewares/ST/STM32_USB_Host_Library/Core/Src/usbh_core.c ****   * @param  phost: Host Handle
 405:Middlewares/ST/STM32_USB_Host_Library/Core/Src/usbh_core.c ****   * @retval USBH Status
 406:Middlewares/ST/STM32_USB_Host_Library/Core/Src/usbh_core.c ****   */
 407:Middlewares/ST/STM32_USB_Host_Library/Core/Src/usbh_core.c **** USBH_StatusTypeDef USBH_Start(USBH_HandleTypeDef *phost)
 408:Middlewares/ST/STM32_USB_Host_Library/Core/Src/usbh_core.c **** {
 409:Middlewares/ST/STM32_USB_Host_Library/Core/Src/usbh_core.c ****   /* Start the low level driver  */
 410:Middlewares/ST/STM32_USB_Host_Library/Core/Src/usbh_core.c ****   (void)USBH_LL_Start(phost);
 411:Middlewares/ST/STM32_USB_Host_Library/Core/Src/usbh_core.c **** 
 412:Middlewares/ST/STM32_USB_Host_Library/Core/Src/usbh_core.c ****   /* Activate VBUS on the port */
 413:Middlewares/ST/STM32_USB_Host_Library/Core/Src/usbh_core.c ****   (void)USBH_LL_DriverVBUS(phost, TRUE);
 414:Middlewares/ST/STM32_USB_Host_Library/Core/Src/usbh_core.c **** 
 415:Middlewares/ST/STM32_USB_Host_Library/Core/Src/usbh_core.c ****   return USBH_OK;
 416:Middlewares/ST/STM32_USB_Host_Library/Core/Src/usbh_core.c **** }
 417:Middlewares/ST/STM32_USB_Host_Library/Core/Src/usbh_core.c **** 
 418:Middlewares/ST/STM32_USB_Host_Library/Core/Src/usbh_core.c **** 
 419:Middlewares/ST/STM32_USB_Host_Library/Core/Src/usbh_core.c **** /**
 420:Middlewares/ST/STM32_USB_Host_Library/Core/Src/usbh_core.c ****   * @brief  USBH_Stop
 421:Middlewares/ST/STM32_USB_Host_Library/Core/Src/usbh_core.c ****   *         Stop the USB Host Core.
 422:Middlewares/ST/STM32_USB_Host_Library/Core/Src/usbh_core.c ****   * @param  phost: Host Handle
 423:Middlewares/ST/STM32_USB_Host_Library/Core/Src/usbh_core.c ****   * @retval USBH Status
 424:Middlewares/ST/STM32_USB_Host_Library/Core/Src/usbh_core.c ****   */
 425:Middlewares/ST/STM32_USB_Host_Library/Core/Src/usbh_core.c **** USBH_StatusTypeDef USBH_Stop(USBH_HandleTypeDef *phost)
 426:Middlewares/ST/STM32_USB_Host_Library/Core/Src/usbh_core.c **** {
 427:Middlewares/ST/STM32_USB_Host_Library/Core/Src/usbh_core.c ****   /* DeActivate VBUS on the port */
 428:Middlewares/ST/STM32_USB_Host_Library/Core/Src/usbh_core.c ****   (void)USBH_LL_DriverVBUS(phost, FALSE);
 429:Middlewares/ST/STM32_USB_Host_Library/Core/Src/usbh_core.c **** 
ARM GAS  C:\Users\moham\AppData\Local\Temp\ccR7RLkT.s 			page 9


 430:Middlewares/ST/STM32_USB_Host_Library/Core/Src/usbh_core.c ****   /* Stop and cleanup the low level driver  */
 431:Middlewares/ST/STM32_USB_Host_Library/Core/Src/usbh_core.c ****   (void)USBH_LL_Stop(phost);
 432:Middlewares/ST/STM32_USB_Host_Library/Core/Src/usbh_core.c **** 
 433:Middlewares/ST/STM32_USB_Host_Library/Core/Src/usbh_core.c ****   /* Free Control Pipes */
 434:Middlewares/ST/STM32_USB_Host_Library/Core/Src/usbh_core.c ****   (void)USBH_FreePipe(phost, phost->Control.pipe_in);
 435:Middlewares/ST/STM32_USB_Host_Library/Core/Src/usbh_core.c ****   (void)USBH_FreePipe(phost, phost->Control.pipe_out);
 436:Middlewares/ST/STM32_USB_Host_Library/Core/Src/usbh_core.c **** 
 437:Middlewares/ST/STM32_USB_Host_Library/Core/Src/usbh_core.c ****   return USBH_OK;
 438:Middlewares/ST/STM32_USB_Host_Library/Core/Src/usbh_core.c **** }
 439:Middlewares/ST/STM32_USB_Host_Library/Core/Src/usbh_core.c **** 
 440:Middlewares/ST/STM32_USB_Host_Library/Core/Src/usbh_core.c **** 
 441:Middlewares/ST/STM32_USB_Host_Library/Core/Src/usbh_core.c **** /**
 442:Middlewares/ST/STM32_USB_Host_Library/Core/Src/usbh_core.c ****   * @brief  HCD_ReEnumerate
 443:Middlewares/ST/STM32_USB_Host_Library/Core/Src/usbh_core.c ****   *         Perform a new Enumeration phase.
 444:Middlewares/ST/STM32_USB_Host_Library/Core/Src/usbh_core.c ****   * @param  phost: Host Handle
 445:Middlewares/ST/STM32_USB_Host_Library/Core/Src/usbh_core.c ****   * @retval USBH Status
 446:Middlewares/ST/STM32_USB_Host_Library/Core/Src/usbh_core.c ****   */
 447:Middlewares/ST/STM32_USB_Host_Library/Core/Src/usbh_core.c **** USBH_StatusTypeDef USBH_ReEnumerate(USBH_HandleTypeDef *phost)
 448:Middlewares/ST/STM32_USB_Host_Library/Core/Src/usbh_core.c **** {
 449:Middlewares/ST/STM32_USB_Host_Library/Core/Src/usbh_core.c ****   if (USBH_IsPortEnabled(phost) != 0U)
 450:Middlewares/ST/STM32_USB_Host_Library/Core/Src/usbh_core.c ****   {
 451:Middlewares/ST/STM32_USB_Host_Library/Core/Src/usbh_core.c ****     phost->device.is_ReEnumerated = 1U;
 452:Middlewares/ST/STM32_USB_Host_Library/Core/Src/usbh_core.c **** 
 453:Middlewares/ST/STM32_USB_Host_Library/Core/Src/usbh_core.c ****     /* Stop Host */
 454:Middlewares/ST/STM32_USB_Host_Library/Core/Src/usbh_core.c ****     (void)USBH_Stop(phost);
 455:Middlewares/ST/STM32_USB_Host_Library/Core/Src/usbh_core.c **** 
 456:Middlewares/ST/STM32_USB_Host_Library/Core/Src/usbh_core.c ****     phost->device.is_disconnected = 1U;
 457:Middlewares/ST/STM32_USB_Host_Library/Core/Src/usbh_core.c ****   }
 458:Middlewares/ST/STM32_USB_Host_Library/Core/Src/usbh_core.c **** 
 459:Middlewares/ST/STM32_USB_Host_Library/Core/Src/usbh_core.c **** #if (USBH_USE_OS == 1U)
 460:Middlewares/ST/STM32_USB_Host_Library/Core/Src/usbh_core.c ****   USBH_OS_PutMessage(phost, USBH_PORT_EVENT, 0U, 0U);
 461:Middlewares/ST/STM32_USB_Host_Library/Core/Src/usbh_core.c **** #endif /* (USBH_USE_OS == 1U) */
 462:Middlewares/ST/STM32_USB_Host_Library/Core/Src/usbh_core.c **** 
 463:Middlewares/ST/STM32_USB_Host_Library/Core/Src/usbh_core.c ****   return USBH_OK;
 464:Middlewares/ST/STM32_USB_Host_Library/Core/Src/usbh_core.c **** }
 465:Middlewares/ST/STM32_USB_Host_Library/Core/Src/usbh_core.c **** 
 466:Middlewares/ST/STM32_USB_Host_Library/Core/Src/usbh_core.c **** 
 467:Middlewares/ST/STM32_USB_Host_Library/Core/Src/usbh_core.c **** /**
 468:Middlewares/ST/STM32_USB_Host_Library/Core/Src/usbh_core.c ****   * @brief  USBH_Process
 469:Middlewares/ST/STM32_USB_Host_Library/Core/Src/usbh_core.c ****   *         Background process of the USB Core.
 470:Middlewares/ST/STM32_USB_Host_Library/Core/Src/usbh_core.c ****   * @param  phost: Host Handle
 471:Middlewares/ST/STM32_USB_Host_Library/Core/Src/usbh_core.c ****   * @retval USBH Status
 472:Middlewares/ST/STM32_USB_Host_Library/Core/Src/usbh_core.c ****   */
 473:Middlewares/ST/STM32_USB_Host_Library/Core/Src/usbh_core.c **** USBH_StatusTypeDef USBH_Process(USBH_HandleTypeDef *phost)
 474:Middlewares/ST/STM32_USB_Host_Library/Core/Src/usbh_core.c **** {
 475:Middlewares/ST/STM32_USB_Host_Library/Core/Src/usbh_core.c ****   __IO USBH_StatusTypeDef status = USBH_FAIL;
 476:Middlewares/ST/STM32_USB_Host_Library/Core/Src/usbh_core.c ****   uint8_t idx = 0U;
 477:Middlewares/ST/STM32_USB_Host_Library/Core/Src/usbh_core.c **** 
 478:Middlewares/ST/STM32_USB_Host_Library/Core/Src/usbh_core.c ****   /* check for Host pending port disconnect event */
 479:Middlewares/ST/STM32_USB_Host_Library/Core/Src/usbh_core.c ****   if (phost->device.is_disconnected == 1U)
 480:Middlewares/ST/STM32_USB_Host_Library/Core/Src/usbh_core.c ****   {
 481:Middlewares/ST/STM32_USB_Host_Library/Core/Src/usbh_core.c ****     phost->gState = HOST_DEV_DISCONNECTED;
 482:Middlewares/ST/STM32_USB_Host_Library/Core/Src/usbh_core.c ****   }
 483:Middlewares/ST/STM32_USB_Host_Library/Core/Src/usbh_core.c **** 
 484:Middlewares/ST/STM32_USB_Host_Library/Core/Src/usbh_core.c ****   switch (phost->gState)
 485:Middlewares/ST/STM32_USB_Host_Library/Core/Src/usbh_core.c ****   {
 486:Middlewares/ST/STM32_USB_Host_Library/Core/Src/usbh_core.c ****     case HOST_IDLE :
ARM GAS  C:\Users\moham\AppData\Local\Temp\ccR7RLkT.s 			page 10


 487:Middlewares/ST/STM32_USB_Host_Library/Core/Src/usbh_core.c **** 
 488:Middlewares/ST/STM32_USB_Host_Library/Core/Src/usbh_core.c ****       if ((phost->device.is_connected) != 0U)
 489:Middlewares/ST/STM32_USB_Host_Library/Core/Src/usbh_core.c ****       {
 490:Middlewares/ST/STM32_USB_Host_Library/Core/Src/usbh_core.c ****         USBH_UsrLog("USB Device Connected");
 491:Middlewares/ST/STM32_USB_Host_Library/Core/Src/usbh_core.c **** 
 492:Middlewares/ST/STM32_USB_Host_Library/Core/Src/usbh_core.c ****         /* Wait for 200 ms after connection */
 493:Middlewares/ST/STM32_USB_Host_Library/Core/Src/usbh_core.c ****         phost->gState = HOST_DEV_WAIT_FOR_ATTACHMENT;
 494:Middlewares/ST/STM32_USB_Host_Library/Core/Src/usbh_core.c ****         USBH_Delay(200U);
 495:Middlewares/ST/STM32_USB_Host_Library/Core/Src/usbh_core.c ****         (void)USBH_LL_ResetPort(phost);
 496:Middlewares/ST/STM32_USB_Host_Library/Core/Src/usbh_core.c **** 
 497:Middlewares/ST/STM32_USB_Host_Library/Core/Src/usbh_core.c ****         /* Make sure to start with Default address */
 498:Middlewares/ST/STM32_USB_Host_Library/Core/Src/usbh_core.c ****         phost->device.address = USBH_ADDRESS_DEFAULT;
 499:Middlewares/ST/STM32_USB_Host_Library/Core/Src/usbh_core.c ****         phost->Timeout = 0U;
 500:Middlewares/ST/STM32_USB_Host_Library/Core/Src/usbh_core.c **** 
 501:Middlewares/ST/STM32_USB_Host_Library/Core/Src/usbh_core.c **** #if (USBH_USE_OS == 1U)
 502:Middlewares/ST/STM32_USB_Host_Library/Core/Src/usbh_core.c ****         USBH_OS_PutMessage(phost, USBH_PORT_EVENT, 0U, 0U);
 503:Middlewares/ST/STM32_USB_Host_Library/Core/Src/usbh_core.c **** #endif /* (USBH_USE_OS == 1U) */
 504:Middlewares/ST/STM32_USB_Host_Library/Core/Src/usbh_core.c ****       }
 505:Middlewares/ST/STM32_USB_Host_Library/Core/Src/usbh_core.c ****       break;
 506:Middlewares/ST/STM32_USB_Host_Library/Core/Src/usbh_core.c **** 
 507:Middlewares/ST/STM32_USB_Host_Library/Core/Src/usbh_core.c ****     case HOST_DEV_WAIT_FOR_ATTACHMENT: /* Wait for Port Enabled */
 508:Middlewares/ST/STM32_USB_Host_Library/Core/Src/usbh_core.c **** 
 509:Middlewares/ST/STM32_USB_Host_Library/Core/Src/usbh_core.c ****       if (phost->device.PortEnabled == 1U)
 510:Middlewares/ST/STM32_USB_Host_Library/Core/Src/usbh_core.c ****       {
 511:Middlewares/ST/STM32_USB_Host_Library/Core/Src/usbh_core.c ****         USBH_UsrLog("USB Device Reset Completed");
 512:Middlewares/ST/STM32_USB_Host_Library/Core/Src/usbh_core.c ****         phost->device.RstCnt = 0U;
 513:Middlewares/ST/STM32_USB_Host_Library/Core/Src/usbh_core.c ****         phost->gState = HOST_DEV_ATTACHED;
 514:Middlewares/ST/STM32_USB_Host_Library/Core/Src/usbh_core.c ****       }
 515:Middlewares/ST/STM32_USB_Host_Library/Core/Src/usbh_core.c ****       else
 516:Middlewares/ST/STM32_USB_Host_Library/Core/Src/usbh_core.c ****       {
 517:Middlewares/ST/STM32_USB_Host_Library/Core/Src/usbh_core.c ****         if (phost->Timeout > USBH_DEV_RESET_TIMEOUT)
 518:Middlewares/ST/STM32_USB_Host_Library/Core/Src/usbh_core.c ****         {
 519:Middlewares/ST/STM32_USB_Host_Library/Core/Src/usbh_core.c ****           phost->device.RstCnt++;
 520:Middlewares/ST/STM32_USB_Host_Library/Core/Src/usbh_core.c ****           if (phost->device.RstCnt > 3U)
 521:Middlewares/ST/STM32_USB_Host_Library/Core/Src/usbh_core.c ****           {
 522:Middlewares/ST/STM32_USB_Host_Library/Core/Src/usbh_core.c ****             /* Buggy Device can't complete reset */
 523:Middlewares/ST/STM32_USB_Host_Library/Core/Src/usbh_core.c ****             USBH_UsrLog("USB Reset Failed, Please unplug the Device.");
 524:Middlewares/ST/STM32_USB_Host_Library/Core/Src/usbh_core.c ****             phost->gState = HOST_ABORT_STATE;
 525:Middlewares/ST/STM32_USB_Host_Library/Core/Src/usbh_core.c ****           }
 526:Middlewares/ST/STM32_USB_Host_Library/Core/Src/usbh_core.c ****           else
 527:Middlewares/ST/STM32_USB_Host_Library/Core/Src/usbh_core.c ****           {
 528:Middlewares/ST/STM32_USB_Host_Library/Core/Src/usbh_core.c ****             phost->gState = HOST_IDLE;
 529:Middlewares/ST/STM32_USB_Host_Library/Core/Src/usbh_core.c ****           }
 530:Middlewares/ST/STM32_USB_Host_Library/Core/Src/usbh_core.c ****         }
 531:Middlewares/ST/STM32_USB_Host_Library/Core/Src/usbh_core.c ****         else
 532:Middlewares/ST/STM32_USB_Host_Library/Core/Src/usbh_core.c ****         {
 533:Middlewares/ST/STM32_USB_Host_Library/Core/Src/usbh_core.c ****           phost->Timeout += 10U;
 534:Middlewares/ST/STM32_USB_Host_Library/Core/Src/usbh_core.c ****           USBH_Delay(10U);
 535:Middlewares/ST/STM32_USB_Host_Library/Core/Src/usbh_core.c ****         }
 536:Middlewares/ST/STM32_USB_Host_Library/Core/Src/usbh_core.c ****       }
 537:Middlewares/ST/STM32_USB_Host_Library/Core/Src/usbh_core.c **** 
 538:Middlewares/ST/STM32_USB_Host_Library/Core/Src/usbh_core.c **** #if (USBH_USE_OS == 1U)
 539:Middlewares/ST/STM32_USB_Host_Library/Core/Src/usbh_core.c ****       USBH_OS_PutMessage(phost, USBH_PORT_EVENT, 0U, 0U);
 540:Middlewares/ST/STM32_USB_Host_Library/Core/Src/usbh_core.c **** #endif /* (USBH_USE_OS == 1U) */
 541:Middlewares/ST/STM32_USB_Host_Library/Core/Src/usbh_core.c ****       break;
 542:Middlewares/ST/STM32_USB_Host_Library/Core/Src/usbh_core.c **** 
 543:Middlewares/ST/STM32_USB_Host_Library/Core/Src/usbh_core.c ****     case HOST_DEV_ATTACHED :
ARM GAS  C:\Users\moham\AppData\Local\Temp\ccR7RLkT.s 			page 11


 544:Middlewares/ST/STM32_USB_Host_Library/Core/Src/usbh_core.c **** 
 545:Middlewares/ST/STM32_USB_Host_Library/Core/Src/usbh_core.c ****       if (phost->pUser != NULL)
 546:Middlewares/ST/STM32_USB_Host_Library/Core/Src/usbh_core.c ****       {
 547:Middlewares/ST/STM32_USB_Host_Library/Core/Src/usbh_core.c ****         phost->pUser(phost, HOST_USER_CONNECTION);
 548:Middlewares/ST/STM32_USB_Host_Library/Core/Src/usbh_core.c ****       }
 549:Middlewares/ST/STM32_USB_Host_Library/Core/Src/usbh_core.c **** 
 550:Middlewares/ST/STM32_USB_Host_Library/Core/Src/usbh_core.c ****       /* Wait for 100 ms after Reset */
 551:Middlewares/ST/STM32_USB_Host_Library/Core/Src/usbh_core.c ****       USBH_Delay(100U);
 552:Middlewares/ST/STM32_USB_Host_Library/Core/Src/usbh_core.c **** 
 553:Middlewares/ST/STM32_USB_Host_Library/Core/Src/usbh_core.c ****       phost->device.speed = (uint8_t)USBH_LL_GetSpeed(phost);
 554:Middlewares/ST/STM32_USB_Host_Library/Core/Src/usbh_core.c **** 
 555:Middlewares/ST/STM32_USB_Host_Library/Core/Src/usbh_core.c **** #if defined (USBH_IN_NAK_PROCESS) && (USBH_IN_NAK_PROCESS == 1U)
 556:Middlewares/ST/STM32_USB_Host_Library/Core/Src/usbh_core.c ****       phost->NakTimeout = USBH_NAK_SOF_COUNT;
 557:Middlewares/ST/STM32_USB_Host_Library/Core/Src/usbh_core.c **** #endif /* defined (USBH_IN_NAK_PROCESS) && (USBH_IN_NAK_PROCESS == 1U) */
 558:Middlewares/ST/STM32_USB_Host_Library/Core/Src/usbh_core.c **** 
 559:Middlewares/ST/STM32_USB_Host_Library/Core/Src/usbh_core.c ****       phost->gState = HOST_ENUMERATION;
 560:Middlewares/ST/STM32_USB_Host_Library/Core/Src/usbh_core.c **** 
 561:Middlewares/ST/STM32_USB_Host_Library/Core/Src/usbh_core.c ****       phost->Control.pipe_out = USBH_AllocPipe(phost, 0x00U);
 562:Middlewares/ST/STM32_USB_Host_Library/Core/Src/usbh_core.c ****       phost->Control.pipe_in  = USBH_AllocPipe(phost, 0x80U);
 563:Middlewares/ST/STM32_USB_Host_Library/Core/Src/usbh_core.c **** 
 564:Middlewares/ST/STM32_USB_Host_Library/Core/Src/usbh_core.c ****       /* Open Control pipes */
 565:Middlewares/ST/STM32_USB_Host_Library/Core/Src/usbh_core.c ****       (void)USBH_OpenPipe(phost, phost->Control.pipe_in, 0x80U,
 566:Middlewares/ST/STM32_USB_Host_Library/Core/Src/usbh_core.c ****                           phost->device.address, phost->device.speed,
 567:Middlewares/ST/STM32_USB_Host_Library/Core/Src/usbh_core.c ****                           USBH_EP_CONTROL, (uint16_t)phost->Control.pipe_size);
 568:Middlewares/ST/STM32_USB_Host_Library/Core/Src/usbh_core.c **** 
 569:Middlewares/ST/STM32_USB_Host_Library/Core/Src/usbh_core.c ****       /* Open Control pipes */
 570:Middlewares/ST/STM32_USB_Host_Library/Core/Src/usbh_core.c ****       (void)USBH_OpenPipe(phost, phost->Control.pipe_out, 0x00U,
 571:Middlewares/ST/STM32_USB_Host_Library/Core/Src/usbh_core.c ****                           phost->device.address, phost->device.speed,
 572:Middlewares/ST/STM32_USB_Host_Library/Core/Src/usbh_core.c ****                           USBH_EP_CONTROL, (uint16_t)phost->Control.pipe_size);
 573:Middlewares/ST/STM32_USB_Host_Library/Core/Src/usbh_core.c **** 
 574:Middlewares/ST/STM32_USB_Host_Library/Core/Src/usbh_core.c **** #if (USBH_USE_OS == 1U)
 575:Middlewares/ST/STM32_USB_Host_Library/Core/Src/usbh_core.c ****       USBH_OS_PutMessage(phost, USBH_PORT_EVENT, 0U, 0U);
 576:Middlewares/ST/STM32_USB_Host_Library/Core/Src/usbh_core.c **** #endif /* (USBH_USE_OS == 1U) */
 577:Middlewares/ST/STM32_USB_Host_Library/Core/Src/usbh_core.c ****       break;
 578:Middlewares/ST/STM32_USB_Host_Library/Core/Src/usbh_core.c **** 
 579:Middlewares/ST/STM32_USB_Host_Library/Core/Src/usbh_core.c ****     case HOST_ENUMERATION:
 580:Middlewares/ST/STM32_USB_Host_Library/Core/Src/usbh_core.c ****       /* Check for enumeration status */
 581:Middlewares/ST/STM32_USB_Host_Library/Core/Src/usbh_core.c ****       status = USBH_HandleEnum(phost);
 582:Middlewares/ST/STM32_USB_Host_Library/Core/Src/usbh_core.c ****       if (status == USBH_OK)
 583:Middlewares/ST/STM32_USB_Host_Library/Core/Src/usbh_core.c ****       {
 584:Middlewares/ST/STM32_USB_Host_Library/Core/Src/usbh_core.c ****         /* The function shall return USBH_OK when full enumeration is complete */
 585:Middlewares/ST/STM32_USB_Host_Library/Core/Src/usbh_core.c ****         USBH_UsrLog("Enumeration done.");
 586:Middlewares/ST/STM32_USB_Host_Library/Core/Src/usbh_core.c **** 
 587:Middlewares/ST/STM32_USB_Host_Library/Core/Src/usbh_core.c ****         phost->device.current_interface = 0U;
 588:Middlewares/ST/STM32_USB_Host_Library/Core/Src/usbh_core.c **** 
 589:Middlewares/ST/STM32_USB_Host_Library/Core/Src/usbh_core.c ****         if (phost->device.DevDesc.bNumConfigurations == 1U)
 590:Middlewares/ST/STM32_USB_Host_Library/Core/Src/usbh_core.c ****         {
 591:Middlewares/ST/STM32_USB_Host_Library/Core/Src/usbh_core.c ****           USBH_UsrLog("This device has only 1 configuration.");
 592:Middlewares/ST/STM32_USB_Host_Library/Core/Src/usbh_core.c ****           phost->gState = HOST_SET_CONFIGURATION;
 593:Middlewares/ST/STM32_USB_Host_Library/Core/Src/usbh_core.c ****         }
 594:Middlewares/ST/STM32_USB_Host_Library/Core/Src/usbh_core.c ****         else
 595:Middlewares/ST/STM32_USB_Host_Library/Core/Src/usbh_core.c ****         {
 596:Middlewares/ST/STM32_USB_Host_Library/Core/Src/usbh_core.c ****           phost->gState = HOST_INPUT;
 597:Middlewares/ST/STM32_USB_Host_Library/Core/Src/usbh_core.c ****         }
 598:Middlewares/ST/STM32_USB_Host_Library/Core/Src/usbh_core.c **** 
 599:Middlewares/ST/STM32_USB_Host_Library/Core/Src/usbh_core.c **** #if (USBH_USE_OS == 1U)
 600:Middlewares/ST/STM32_USB_Host_Library/Core/Src/usbh_core.c ****         USBH_OS_PutMessage(phost, USBH_STATE_CHANGED_EVENT, 0U, 0U);
ARM GAS  C:\Users\moham\AppData\Local\Temp\ccR7RLkT.s 			page 12


 601:Middlewares/ST/STM32_USB_Host_Library/Core/Src/usbh_core.c **** #endif /* (USBH_USE_OS == 1U) */
 602:Middlewares/ST/STM32_USB_Host_Library/Core/Src/usbh_core.c ****       }
 603:Middlewares/ST/STM32_USB_Host_Library/Core/Src/usbh_core.c ****       break;
 604:Middlewares/ST/STM32_USB_Host_Library/Core/Src/usbh_core.c **** 
 605:Middlewares/ST/STM32_USB_Host_Library/Core/Src/usbh_core.c ****     case HOST_INPUT:
 606:Middlewares/ST/STM32_USB_Host_Library/Core/Src/usbh_core.c ****     {
 607:Middlewares/ST/STM32_USB_Host_Library/Core/Src/usbh_core.c ****       /* user callback for end of device basic enumeration */
 608:Middlewares/ST/STM32_USB_Host_Library/Core/Src/usbh_core.c ****       if (phost->pUser != NULL)
 609:Middlewares/ST/STM32_USB_Host_Library/Core/Src/usbh_core.c ****       {
 610:Middlewares/ST/STM32_USB_Host_Library/Core/Src/usbh_core.c ****         phost->pUser(phost, HOST_USER_SELECT_CONFIGURATION);
 611:Middlewares/ST/STM32_USB_Host_Library/Core/Src/usbh_core.c ****         phost->gState = HOST_SET_CONFIGURATION;
 612:Middlewares/ST/STM32_USB_Host_Library/Core/Src/usbh_core.c **** 
 613:Middlewares/ST/STM32_USB_Host_Library/Core/Src/usbh_core.c **** #if (USBH_USE_OS == 1U)
 614:Middlewares/ST/STM32_USB_Host_Library/Core/Src/usbh_core.c ****         USBH_OS_PutMessage(phost, USBH_STATE_CHANGED_EVENT, 0U, 0U);
 615:Middlewares/ST/STM32_USB_Host_Library/Core/Src/usbh_core.c **** #endif /* (USBH_USE_OS == 1U) */
 616:Middlewares/ST/STM32_USB_Host_Library/Core/Src/usbh_core.c ****       }
 617:Middlewares/ST/STM32_USB_Host_Library/Core/Src/usbh_core.c ****     }
 618:Middlewares/ST/STM32_USB_Host_Library/Core/Src/usbh_core.c ****     break;
 619:Middlewares/ST/STM32_USB_Host_Library/Core/Src/usbh_core.c **** 
 620:Middlewares/ST/STM32_USB_Host_Library/Core/Src/usbh_core.c ****     case HOST_SET_CONFIGURATION:
 621:Middlewares/ST/STM32_USB_Host_Library/Core/Src/usbh_core.c ****       /* set configuration */
 622:Middlewares/ST/STM32_USB_Host_Library/Core/Src/usbh_core.c ****       if (USBH_SetCfg(phost, (uint16_t)phost->device.CfgDesc.bConfigurationValue) == USBH_OK)
 623:Middlewares/ST/STM32_USB_Host_Library/Core/Src/usbh_core.c ****       {
 624:Middlewares/ST/STM32_USB_Host_Library/Core/Src/usbh_core.c ****         phost->gState = HOST_SET_WAKEUP_FEATURE;
 625:Middlewares/ST/STM32_USB_Host_Library/Core/Src/usbh_core.c ****         USBH_UsrLog("Default configuration set.");
 626:Middlewares/ST/STM32_USB_Host_Library/Core/Src/usbh_core.c ****       }
 627:Middlewares/ST/STM32_USB_Host_Library/Core/Src/usbh_core.c **** 
 628:Middlewares/ST/STM32_USB_Host_Library/Core/Src/usbh_core.c **** #if (USBH_USE_OS == 1U)
 629:Middlewares/ST/STM32_USB_Host_Library/Core/Src/usbh_core.c ****       USBH_OS_PutMessage(phost, USBH_PORT_EVENT, 0U, 0U);
 630:Middlewares/ST/STM32_USB_Host_Library/Core/Src/usbh_core.c **** #endif /* (USBH_USE_OS == 1U) */
 631:Middlewares/ST/STM32_USB_Host_Library/Core/Src/usbh_core.c ****       break;
 632:Middlewares/ST/STM32_USB_Host_Library/Core/Src/usbh_core.c **** 
 633:Middlewares/ST/STM32_USB_Host_Library/Core/Src/usbh_core.c ****     case  HOST_SET_WAKEUP_FEATURE:
 634:Middlewares/ST/STM32_USB_Host_Library/Core/Src/usbh_core.c **** 
 635:Middlewares/ST/STM32_USB_Host_Library/Core/Src/usbh_core.c ****       if (((phost->device.CfgDesc.bmAttributes) & (1U << 5)) != 0U)
 636:Middlewares/ST/STM32_USB_Host_Library/Core/Src/usbh_core.c ****       {
 637:Middlewares/ST/STM32_USB_Host_Library/Core/Src/usbh_core.c ****         status = USBH_SetFeature(phost, FEATURE_SELECTOR_REMOTEWAKEUP);
 638:Middlewares/ST/STM32_USB_Host_Library/Core/Src/usbh_core.c **** 
 639:Middlewares/ST/STM32_USB_Host_Library/Core/Src/usbh_core.c ****         if (status == USBH_OK)
 640:Middlewares/ST/STM32_USB_Host_Library/Core/Src/usbh_core.c ****         {
 641:Middlewares/ST/STM32_USB_Host_Library/Core/Src/usbh_core.c ****           USBH_UsrLog("Device remote wakeup enabled");
 642:Middlewares/ST/STM32_USB_Host_Library/Core/Src/usbh_core.c ****           phost->gState = HOST_CHECK_CLASS;
 643:Middlewares/ST/STM32_USB_Host_Library/Core/Src/usbh_core.c ****         }
 644:Middlewares/ST/STM32_USB_Host_Library/Core/Src/usbh_core.c ****         else if (status == USBH_NOT_SUPPORTED)
 645:Middlewares/ST/STM32_USB_Host_Library/Core/Src/usbh_core.c ****         {
 646:Middlewares/ST/STM32_USB_Host_Library/Core/Src/usbh_core.c ****           USBH_UsrLog("Remote wakeup not supported by the device");
 647:Middlewares/ST/STM32_USB_Host_Library/Core/Src/usbh_core.c ****           phost->gState = HOST_CHECK_CLASS;
 648:Middlewares/ST/STM32_USB_Host_Library/Core/Src/usbh_core.c ****         }
 649:Middlewares/ST/STM32_USB_Host_Library/Core/Src/usbh_core.c ****         else
 650:Middlewares/ST/STM32_USB_Host_Library/Core/Src/usbh_core.c ****         {
 651:Middlewares/ST/STM32_USB_Host_Library/Core/Src/usbh_core.c ****           /* .. */
 652:Middlewares/ST/STM32_USB_Host_Library/Core/Src/usbh_core.c ****         }
 653:Middlewares/ST/STM32_USB_Host_Library/Core/Src/usbh_core.c ****       }
 654:Middlewares/ST/STM32_USB_Host_Library/Core/Src/usbh_core.c ****       else
 655:Middlewares/ST/STM32_USB_Host_Library/Core/Src/usbh_core.c ****       {
 656:Middlewares/ST/STM32_USB_Host_Library/Core/Src/usbh_core.c ****         phost->gState = HOST_CHECK_CLASS;
 657:Middlewares/ST/STM32_USB_Host_Library/Core/Src/usbh_core.c ****       }
ARM GAS  C:\Users\moham\AppData\Local\Temp\ccR7RLkT.s 			page 13


 658:Middlewares/ST/STM32_USB_Host_Library/Core/Src/usbh_core.c **** 
 659:Middlewares/ST/STM32_USB_Host_Library/Core/Src/usbh_core.c **** #if (USBH_USE_OS == 1U)
 660:Middlewares/ST/STM32_USB_Host_Library/Core/Src/usbh_core.c ****       USBH_OS_PutMessage(phost, USBH_PORT_EVENT, 0U, 0U);
 661:Middlewares/ST/STM32_USB_Host_Library/Core/Src/usbh_core.c **** #endif /* (USBH_USE_OS == 1U) */
 662:Middlewares/ST/STM32_USB_Host_Library/Core/Src/usbh_core.c ****       break;
 663:Middlewares/ST/STM32_USB_Host_Library/Core/Src/usbh_core.c **** 
 664:Middlewares/ST/STM32_USB_Host_Library/Core/Src/usbh_core.c ****     case HOST_CHECK_CLASS:
 665:Middlewares/ST/STM32_USB_Host_Library/Core/Src/usbh_core.c **** 
 666:Middlewares/ST/STM32_USB_Host_Library/Core/Src/usbh_core.c ****       if (phost->ClassNumber == 0U)
 667:Middlewares/ST/STM32_USB_Host_Library/Core/Src/usbh_core.c ****       {
 668:Middlewares/ST/STM32_USB_Host_Library/Core/Src/usbh_core.c ****         USBH_UsrLog("No Class has been registered.");
 669:Middlewares/ST/STM32_USB_Host_Library/Core/Src/usbh_core.c ****       }
 670:Middlewares/ST/STM32_USB_Host_Library/Core/Src/usbh_core.c ****       else
 671:Middlewares/ST/STM32_USB_Host_Library/Core/Src/usbh_core.c ****       {
 672:Middlewares/ST/STM32_USB_Host_Library/Core/Src/usbh_core.c ****         phost->pActiveClass = NULL;
 673:Middlewares/ST/STM32_USB_Host_Library/Core/Src/usbh_core.c **** 
 674:Middlewares/ST/STM32_USB_Host_Library/Core/Src/usbh_core.c ****         for (idx = 0U; idx < USBH_MAX_NUM_SUPPORTED_CLASS; idx++)
 675:Middlewares/ST/STM32_USB_Host_Library/Core/Src/usbh_core.c ****         {
 676:Middlewares/ST/STM32_USB_Host_Library/Core/Src/usbh_core.c ****           if (phost->pClass[idx]->ClassCode == phost->device.CfgDesc.Itf_Desc[0].bInterfaceClass)
 677:Middlewares/ST/STM32_USB_Host_Library/Core/Src/usbh_core.c ****           {
 678:Middlewares/ST/STM32_USB_Host_Library/Core/Src/usbh_core.c ****             phost->pActiveClass = phost->pClass[idx];
 679:Middlewares/ST/STM32_USB_Host_Library/Core/Src/usbh_core.c ****             break;
 680:Middlewares/ST/STM32_USB_Host_Library/Core/Src/usbh_core.c ****           }
 681:Middlewares/ST/STM32_USB_Host_Library/Core/Src/usbh_core.c ****         }
 682:Middlewares/ST/STM32_USB_Host_Library/Core/Src/usbh_core.c **** 
 683:Middlewares/ST/STM32_USB_Host_Library/Core/Src/usbh_core.c ****         if (phost->pActiveClass != NULL)
 684:Middlewares/ST/STM32_USB_Host_Library/Core/Src/usbh_core.c ****         {
 685:Middlewares/ST/STM32_USB_Host_Library/Core/Src/usbh_core.c ****           if (phost->pActiveClass->Init(phost) == USBH_OK)
 686:Middlewares/ST/STM32_USB_Host_Library/Core/Src/usbh_core.c ****           {
 687:Middlewares/ST/STM32_USB_Host_Library/Core/Src/usbh_core.c ****             phost->gState = HOST_CLASS_REQUEST;
 688:Middlewares/ST/STM32_USB_Host_Library/Core/Src/usbh_core.c ****             USBH_UsrLog("%s class started.", phost->pActiveClass->Name);
 689:Middlewares/ST/STM32_USB_Host_Library/Core/Src/usbh_core.c **** 
 690:Middlewares/ST/STM32_USB_Host_Library/Core/Src/usbh_core.c ****             /* Inform user that a class has been activated */
 691:Middlewares/ST/STM32_USB_Host_Library/Core/Src/usbh_core.c ****             phost->pUser(phost, HOST_USER_CLASS_SELECTED);
 692:Middlewares/ST/STM32_USB_Host_Library/Core/Src/usbh_core.c ****           }
 693:Middlewares/ST/STM32_USB_Host_Library/Core/Src/usbh_core.c ****           else
 694:Middlewares/ST/STM32_USB_Host_Library/Core/Src/usbh_core.c ****           {
 695:Middlewares/ST/STM32_USB_Host_Library/Core/Src/usbh_core.c ****             phost->gState = HOST_ABORT_STATE;
 696:Middlewares/ST/STM32_USB_Host_Library/Core/Src/usbh_core.c ****             USBH_UsrLog("Device not supporting %s class.", phost->pActiveClass->Name);
 697:Middlewares/ST/STM32_USB_Host_Library/Core/Src/usbh_core.c ****           }
 698:Middlewares/ST/STM32_USB_Host_Library/Core/Src/usbh_core.c ****         }
 699:Middlewares/ST/STM32_USB_Host_Library/Core/Src/usbh_core.c ****         else
 700:Middlewares/ST/STM32_USB_Host_Library/Core/Src/usbh_core.c ****         {
 701:Middlewares/ST/STM32_USB_Host_Library/Core/Src/usbh_core.c ****           phost->gState = HOST_ABORT_STATE;
 702:Middlewares/ST/STM32_USB_Host_Library/Core/Src/usbh_core.c ****           USBH_UsrLog("No registered class for this device.");
 703:Middlewares/ST/STM32_USB_Host_Library/Core/Src/usbh_core.c ****         }
 704:Middlewares/ST/STM32_USB_Host_Library/Core/Src/usbh_core.c ****       }
 705:Middlewares/ST/STM32_USB_Host_Library/Core/Src/usbh_core.c **** 
 706:Middlewares/ST/STM32_USB_Host_Library/Core/Src/usbh_core.c **** #if (USBH_USE_OS == 1U)
 707:Middlewares/ST/STM32_USB_Host_Library/Core/Src/usbh_core.c ****       USBH_OS_PutMessage(phost, USBH_STATE_CHANGED_EVENT, 0U, 0U);
 708:Middlewares/ST/STM32_USB_Host_Library/Core/Src/usbh_core.c **** #endif /* (USBH_USE_OS == 1U) */
 709:Middlewares/ST/STM32_USB_Host_Library/Core/Src/usbh_core.c ****       break;
 710:Middlewares/ST/STM32_USB_Host_Library/Core/Src/usbh_core.c **** 
 711:Middlewares/ST/STM32_USB_Host_Library/Core/Src/usbh_core.c ****     case HOST_CLASS_REQUEST:
 712:Middlewares/ST/STM32_USB_Host_Library/Core/Src/usbh_core.c ****       /* process class standard control requests state machine */
 713:Middlewares/ST/STM32_USB_Host_Library/Core/Src/usbh_core.c ****       if (phost->pActiveClass != NULL)
 714:Middlewares/ST/STM32_USB_Host_Library/Core/Src/usbh_core.c ****       {
ARM GAS  C:\Users\moham\AppData\Local\Temp\ccR7RLkT.s 			page 14


 715:Middlewares/ST/STM32_USB_Host_Library/Core/Src/usbh_core.c ****         status = phost->pActiveClass->Requests(phost);
 716:Middlewares/ST/STM32_USB_Host_Library/Core/Src/usbh_core.c **** 
 717:Middlewares/ST/STM32_USB_Host_Library/Core/Src/usbh_core.c ****         if (status == USBH_OK)
 718:Middlewares/ST/STM32_USB_Host_Library/Core/Src/usbh_core.c ****         {
 719:Middlewares/ST/STM32_USB_Host_Library/Core/Src/usbh_core.c ****           phost->gState = HOST_CLASS;
 720:Middlewares/ST/STM32_USB_Host_Library/Core/Src/usbh_core.c ****         }
 721:Middlewares/ST/STM32_USB_Host_Library/Core/Src/usbh_core.c ****         else if (status == USBH_FAIL)
 722:Middlewares/ST/STM32_USB_Host_Library/Core/Src/usbh_core.c ****         {
 723:Middlewares/ST/STM32_USB_Host_Library/Core/Src/usbh_core.c ****           phost->gState = HOST_ABORT_STATE;
 724:Middlewares/ST/STM32_USB_Host_Library/Core/Src/usbh_core.c ****           USBH_ErrLog("Device not responding Please Unplug.");
 725:Middlewares/ST/STM32_USB_Host_Library/Core/Src/usbh_core.c ****         }
 726:Middlewares/ST/STM32_USB_Host_Library/Core/Src/usbh_core.c ****         else
 727:Middlewares/ST/STM32_USB_Host_Library/Core/Src/usbh_core.c ****         {
 728:Middlewares/ST/STM32_USB_Host_Library/Core/Src/usbh_core.c ****           /* .. */
 729:Middlewares/ST/STM32_USB_Host_Library/Core/Src/usbh_core.c ****         }
 730:Middlewares/ST/STM32_USB_Host_Library/Core/Src/usbh_core.c ****       }
 731:Middlewares/ST/STM32_USB_Host_Library/Core/Src/usbh_core.c ****       else
 732:Middlewares/ST/STM32_USB_Host_Library/Core/Src/usbh_core.c ****       {
 733:Middlewares/ST/STM32_USB_Host_Library/Core/Src/usbh_core.c ****         phost->gState = HOST_ABORT_STATE;
 734:Middlewares/ST/STM32_USB_Host_Library/Core/Src/usbh_core.c ****         USBH_ErrLog("Invalid Class Driver.");
 735:Middlewares/ST/STM32_USB_Host_Library/Core/Src/usbh_core.c ****       }
 736:Middlewares/ST/STM32_USB_Host_Library/Core/Src/usbh_core.c **** 
 737:Middlewares/ST/STM32_USB_Host_Library/Core/Src/usbh_core.c **** #if (USBH_USE_OS == 1U)
 738:Middlewares/ST/STM32_USB_Host_Library/Core/Src/usbh_core.c ****         USBH_OS_PutMessage(phost, USBH_STATE_CHANGED_EVENT, 0U, 0U);
 739:Middlewares/ST/STM32_USB_Host_Library/Core/Src/usbh_core.c **** #endif /* (USBH_USE_OS == 1U) */
 740:Middlewares/ST/STM32_USB_Host_Library/Core/Src/usbh_core.c ****       break;
 741:Middlewares/ST/STM32_USB_Host_Library/Core/Src/usbh_core.c **** 
 742:Middlewares/ST/STM32_USB_Host_Library/Core/Src/usbh_core.c ****     case HOST_CLASS:
 743:Middlewares/ST/STM32_USB_Host_Library/Core/Src/usbh_core.c ****       /* process class state machine */
 744:Middlewares/ST/STM32_USB_Host_Library/Core/Src/usbh_core.c ****       if (phost->pActiveClass != NULL)
 745:Middlewares/ST/STM32_USB_Host_Library/Core/Src/usbh_core.c ****       {
 746:Middlewares/ST/STM32_USB_Host_Library/Core/Src/usbh_core.c ****         phost->pActiveClass->BgndProcess(phost);
 747:Middlewares/ST/STM32_USB_Host_Library/Core/Src/usbh_core.c ****       }
 748:Middlewares/ST/STM32_USB_Host_Library/Core/Src/usbh_core.c ****       break;
 749:Middlewares/ST/STM32_USB_Host_Library/Core/Src/usbh_core.c **** 
 750:Middlewares/ST/STM32_USB_Host_Library/Core/Src/usbh_core.c ****     case HOST_DEV_DISCONNECTED :
 751:Middlewares/ST/STM32_USB_Host_Library/Core/Src/usbh_core.c ****       phost->device.is_disconnected = 0U;
 752:Middlewares/ST/STM32_USB_Host_Library/Core/Src/usbh_core.c **** 
 753:Middlewares/ST/STM32_USB_Host_Library/Core/Src/usbh_core.c ****       (void)DeInitStateMachine(phost);
 754:Middlewares/ST/STM32_USB_Host_Library/Core/Src/usbh_core.c **** 
 755:Middlewares/ST/STM32_USB_Host_Library/Core/Src/usbh_core.c ****       /* Re-Initilaize Host for new Enumeration */
 756:Middlewares/ST/STM32_USB_Host_Library/Core/Src/usbh_core.c ****       if (phost->pActiveClass != NULL)
 757:Middlewares/ST/STM32_USB_Host_Library/Core/Src/usbh_core.c ****       {
 758:Middlewares/ST/STM32_USB_Host_Library/Core/Src/usbh_core.c ****         phost->pActiveClass->DeInit(phost);
 759:Middlewares/ST/STM32_USB_Host_Library/Core/Src/usbh_core.c ****         phost->pActiveClass = NULL;
 760:Middlewares/ST/STM32_USB_Host_Library/Core/Src/usbh_core.c ****       }
 761:Middlewares/ST/STM32_USB_Host_Library/Core/Src/usbh_core.c **** 
 762:Middlewares/ST/STM32_USB_Host_Library/Core/Src/usbh_core.c ****       if (phost->pUser != NULL)
 763:Middlewares/ST/STM32_USB_Host_Library/Core/Src/usbh_core.c ****       {
 764:Middlewares/ST/STM32_USB_Host_Library/Core/Src/usbh_core.c ****         phost->pUser(phost, HOST_USER_DISCONNECTION);
 765:Middlewares/ST/STM32_USB_Host_Library/Core/Src/usbh_core.c ****       }
 766:Middlewares/ST/STM32_USB_Host_Library/Core/Src/usbh_core.c ****       USBH_UsrLog("USB Device disconnected");
 767:Middlewares/ST/STM32_USB_Host_Library/Core/Src/usbh_core.c **** 
 768:Middlewares/ST/STM32_USB_Host_Library/Core/Src/usbh_core.c ****       if (phost->device.is_ReEnumerated == 1U)
 769:Middlewares/ST/STM32_USB_Host_Library/Core/Src/usbh_core.c ****       {
 770:Middlewares/ST/STM32_USB_Host_Library/Core/Src/usbh_core.c ****         phost->device.is_ReEnumerated = 0U;
 771:Middlewares/ST/STM32_USB_Host_Library/Core/Src/usbh_core.c **** 
ARM GAS  C:\Users\moham\AppData\Local\Temp\ccR7RLkT.s 			page 15


 772:Middlewares/ST/STM32_USB_Host_Library/Core/Src/usbh_core.c ****         /* Start the host and re-enable Vbus */
 773:Middlewares/ST/STM32_USB_Host_Library/Core/Src/usbh_core.c ****         (void)USBH_Start(phost);
 774:Middlewares/ST/STM32_USB_Host_Library/Core/Src/usbh_core.c ****       }
 775:Middlewares/ST/STM32_USB_Host_Library/Core/Src/usbh_core.c ****       else
 776:Middlewares/ST/STM32_USB_Host_Library/Core/Src/usbh_core.c ****       {
 777:Middlewares/ST/STM32_USB_Host_Library/Core/Src/usbh_core.c ****         /* Device Disconnection Completed, start USB Driver */
 778:Middlewares/ST/STM32_USB_Host_Library/Core/Src/usbh_core.c ****         (void)USBH_LL_Start(phost);
 779:Middlewares/ST/STM32_USB_Host_Library/Core/Src/usbh_core.c ****       }
 780:Middlewares/ST/STM32_USB_Host_Library/Core/Src/usbh_core.c **** 
 781:Middlewares/ST/STM32_USB_Host_Library/Core/Src/usbh_core.c **** #if (USBH_USE_OS == 1U)
 782:Middlewares/ST/STM32_USB_Host_Library/Core/Src/usbh_core.c ****       USBH_OS_PutMessage(phost, USBH_PORT_EVENT, 0U, 0U);
 783:Middlewares/ST/STM32_USB_Host_Library/Core/Src/usbh_core.c **** #endif /* (USBH_USE_OS == 1U) */
 784:Middlewares/ST/STM32_USB_Host_Library/Core/Src/usbh_core.c ****       break;
 785:Middlewares/ST/STM32_USB_Host_Library/Core/Src/usbh_core.c **** 
 786:Middlewares/ST/STM32_USB_Host_Library/Core/Src/usbh_core.c ****     case HOST_ABORT_STATE:
 787:Middlewares/ST/STM32_USB_Host_Library/Core/Src/usbh_core.c ****     default :
 788:Middlewares/ST/STM32_USB_Host_Library/Core/Src/usbh_core.c ****       break;
 789:Middlewares/ST/STM32_USB_Host_Library/Core/Src/usbh_core.c ****   }
 790:Middlewares/ST/STM32_USB_Host_Library/Core/Src/usbh_core.c ****   return USBH_OK;
 791:Middlewares/ST/STM32_USB_Host_Library/Core/Src/usbh_core.c **** }
 792:Middlewares/ST/STM32_USB_Host_Library/Core/Src/usbh_core.c **** 
 793:Middlewares/ST/STM32_USB_Host_Library/Core/Src/usbh_core.c **** 
 794:Middlewares/ST/STM32_USB_Host_Library/Core/Src/usbh_core.c **** /**
 795:Middlewares/ST/STM32_USB_Host_Library/Core/Src/usbh_core.c ****   * @brief  USBH_HandleEnum
 796:Middlewares/ST/STM32_USB_Host_Library/Core/Src/usbh_core.c ****   *         This function includes the complete enumeration process
 797:Middlewares/ST/STM32_USB_Host_Library/Core/Src/usbh_core.c ****   * @param  phost: Host Handle
 798:Middlewares/ST/STM32_USB_Host_Library/Core/Src/usbh_core.c ****   * @retval USBH_Status
 799:Middlewares/ST/STM32_USB_Host_Library/Core/Src/usbh_core.c ****   */
 800:Middlewares/ST/STM32_USB_Host_Library/Core/Src/usbh_core.c **** static USBH_StatusTypeDef USBH_HandleEnum(USBH_HandleTypeDef *phost)
 801:Middlewares/ST/STM32_USB_Host_Library/Core/Src/usbh_core.c **** {
 802:Middlewares/ST/STM32_USB_Host_Library/Core/Src/usbh_core.c ****   USBH_StatusTypeDef Status = USBH_BUSY;
 803:Middlewares/ST/STM32_USB_Host_Library/Core/Src/usbh_core.c ****   USBH_StatusTypeDef ReqStatus = USBH_BUSY;
 804:Middlewares/ST/STM32_USB_Host_Library/Core/Src/usbh_core.c **** 
 805:Middlewares/ST/STM32_USB_Host_Library/Core/Src/usbh_core.c ****   switch (phost->EnumState)
 806:Middlewares/ST/STM32_USB_Host_Library/Core/Src/usbh_core.c ****   {
 807:Middlewares/ST/STM32_USB_Host_Library/Core/Src/usbh_core.c ****     case ENUM_IDLE:
 808:Middlewares/ST/STM32_USB_Host_Library/Core/Src/usbh_core.c ****       /* Get Device Desc for only 1st 8 bytes : To get EP0 MaxPacketSize */
 809:Middlewares/ST/STM32_USB_Host_Library/Core/Src/usbh_core.c ****       ReqStatus = USBH_Get_DevDesc(phost, 8U);
 810:Middlewares/ST/STM32_USB_Host_Library/Core/Src/usbh_core.c ****       if (ReqStatus == USBH_OK)
 811:Middlewares/ST/STM32_USB_Host_Library/Core/Src/usbh_core.c ****       {
 812:Middlewares/ST/STM32_USB_Host_Library/Core/Src/usbh_core.c ****         phost->Control.pipe_size = phost->device.DevDesc.bMaxPacketSize;
 813:Middlewares/ST/STM32_USB_Host_Library/Core/Src/usbh_core.c **** 
 814:Middlewares/ST/STM32_USB_Host_Library/Core/Src/usbh_core.c ****         phost->EnumState = ENUM_GET_FULL_DEV_DESC;
 815:Middlewares/ST/STM32_USB_Host_Library/Core/Src/usbh_core.c **** 
 816:Middlewares/ST/STM32_USB_Host_Library/Core/Src/usbh_core.c ****         /* modify control channels configuration for MaxPacket size */
 817:Middlewares/ST/STM32_USB_Host_Library/Core/Src/usbh_core.c ****         (void)USBH_OpenPipe(phost, phost->Control.pipe_in, 0x80U, phost->device.address,
 818:Middlewares/ST/STM32_USB_Host_Library/Core/Src/usbh_core.c ****                             phost->device.speed, USBH_EP_CONTROL,
 819:Middlewares/ST/STM32_USB_Host_Library/Core/Src/usbh_core.c ****                             (uint16_t)phost->Control.pipe_size);
 820:Middlewares/ST/STM32_USB_Host_Library/Core/Src/usbh_core.c **** 
 821:Middlewares/ST/STM32_USB_Host_Library/Core/Src/usbh_core.c ****         /* Open Control pipes */
 822:Middlewares/ST/STM32_USB_Host_Library/Core/Src/usbh_core.c ****         (void)USBH_OpenPipe(phost, phost->Control.pipe_out, 0x00U, phost->device.address,
 823:Middlewares/ST/STM32_USB_Host_Library/Core/Src/usbh_core.c ****                             phost->device.speed, USBH_EP_CONTROL,
 824:Middlewares/ST/STM32_USB_Host_Library/Core/Src/usbh_core.c ****                             (uint16_t)phost->Control.pipe_size);
 825:Middlewares/ST/STM32_USB_Host_Library/Core/Src/usbh_core.c ****       }
 826:Middlewares/ST/STM32_USB_Host_Library/Core/Src/usbh_core.c ****       else if (ReqStatus == USBH_NOT_SUPPORTED)
 827:Middlewares/ST/STM32_USB_Host_Library/Core/Src/usbh_core.c ****       {
 828:Middlewares/ST/STM32_USB_Host_Library/Core/Src/usbh_core.c ****         USBH_ErrLog("Control error: Get Device Descriptor request failed");
ARM GAS  C:\Users\moham\AppData\Local\Temp\ccR7RLkT.s 			page 16


 829:Middlewares/ST/STM32_USB_Host_Library/Core/Src/usbh_core.c ****         phost->device.EnumCnt++;
 830:Middlewares/ST/STM32_USB_Host_Library/Core/Src/usbh_core.c ****         if (phost->device.EnumCnt > 3U)
 831:Middlewares/ST/STM32_USB_Host_Library/Core/Src/usbh_core.c ****         {
 832:Middlewares/ST/STM32_USB_Host_Library/Core/Src/usbh_core.c ****           /* Buggy Device can't complete get device desc request */
 833:Middlewares/ST/STM32_USB_Host_Library/Core/Src/usbh_core.c ****           USBH_UsrLog("Control error, Device not Responding Please unplug the Device.");
 834:Middlewares/ST/STM32_USB_Host_Library/Core/Src/usbh_core.c ****           phost->gState = HOST_ABORT_STATE;
 835:Middlewares/ST/STM32_USB_Host_Library/Core/Src/usbh_core.c ****         }
 836:Middlewares/ST/STM32_USB_Host_Library/Core/Src/usbh_core.c ****         else
 837:Middlewares/ST/STM32_USB_Host_Library/Core/Src/usbh_core.c ****         {
 838:Middlewares/ST/STM32_USB_Host_Library/Core/Src/usbh_core.c ****           /* free control pipes */
 839:Middlewares/ST/STM32_USB_Host_Library/Core/Src/usbh_core.c ****           (void)USBH_FreePipe(phost, phost->Control.pipe_out);
 840:Middlewares/ST/STM32_USB_Host_Library/Core/Src/usbh_core.c ****           (void)USBH_FreePipe(phost, phost->Control.pipe_in);
 841:Middlewares/ST/STM32_USB_Host_Library/Core/Src/usbh_core.c **** 
 842:Middlewares/ST/STM32_USB_Host_Library/Core/Src/usbh_core.c ****           /* Reset the USB Device */
 843:Middlewares/ST/STM32_USB_Host_Library/Core/Src/usbh_core.c ****           phost->gState = HOST_IDLE;
 844:Middlewares/ST/STM32_USB_Host_Library/Core/Src/usbh_core.c ****         }
 845:Middlewares/ST/STM32_USB_Host_Library/Core/Src/usbh_core.c ****       }
 846:Middlewares/ST/STM32_USB_Host_Library/Core/Src/usbh_core.c ****       else
 847:Middlewares/ST/STM32_USB_Host_Library/Core/Src/usbh_core.c ****       {
 848:Middlewares/ST/STM32_USB_Host_Library/Core/Src/usbh_core.c ****         /* .. */
 849:Middlewares/ST/STM32_USB_Host_Library/Core/Src/usbh_core.c ****       }
 850:Middlewares/ST/STM32_USB_Host_Library/Core/Src/usbh_core.c ****       break;
 851:Middlewares/ST/STM32_USB_Host_Library/Core/Src/usbh_core.c **** 
 852:Middlewares/ST/STM32_USB_Host_Library/Core/Src/usbh_core.c ****     case ENUM_GET_FULL_DEV_DESC:
 853:Middlewares/ST/STM32_USB_Host_Library/Core/Src/usbh_core.c ****       /* Get FULL Device Desc  */
 854:Middlewares/ST/STM32_USB_Host_Library/Core/Src/usbh_core.c ****       ReqStatus = USBH_Get_DevDesc(phost, USB_DEVICE_DESC_SIZE);
 855:Middlewares/ST/STM32_USB_Host_Library/Core/Src/usbh_core.c ****       if (ReqStatus == USBH_OK)
 856:Middlewares/ST/STM32_USB_Host_Library/Core/Src/usbh_core.c ****       {
 857:Middlewares/ST/STM32_USB_Host_Library/Core/Src/usbh_core.c ****         USBH_UsrLog("PID: %xh", phost->device.DevDesc.idProduct);
 858:Middlewares/ST/STM32_USB_Host_Library/Core/Src/usbh_core.c ****         USBH_UsrLog("VID: %xh", phost->device.DevDesc.idVendor);
 859:Middlewares/ST/STM32_USB_Host_Library/Core/Src/usbh_core.c **** 
 860:Middlewares/ST/STM32_USB_Host_Library/Core/Src/usbh_core.c ****         phost->EnumState = ENUM_SET_ADDR;
 861:Middlewares/ST/STM32_USB_Host_Library/Core/Src/usbh_core.c ****       }
 862:Middlewares/ST/STM32_USB_Host_Library/Core/Src/usbh_core.c ****       else if (ReqStatus == USBH_NOT_SUPPORTED)
 863:Middlewares/ST/STM32_USB_Host_Library/Core/Src/usbh_core.c ****       {
 864:Middlewares/ST/STM32_USB_Host_Library/Core/Src/usbh_core.c ****         USBH_ErrLog("Control error: Get Full Device Descriptor request failed");
 865:Middlewares/ST/STM32_USB_Host_Library/Core/Src/usbh_core.c ****         phost->device.EnumCnt++;
 866:Middlewares/ST/STM32_USB_Host_Library/Core/Src/usbh_core.c ****         if (phost->device.EnumCnt > 3U)
 867:Middlewares/ST/STM32_USB_Host_Library/Core/Src/usbh_core.c ****         {
 868:Middlewares/ST/STM32_USB_Host_Library/Core/Src/usbh_core.c ****           /* Buggy Device can't complete get device desc request */
 869:Middlewares/ST/STM32_USB_Host_Library/Core/Src/usbh_core.c ****           USBH_UsrLog("Control error, Device not Responding Please unplug the Device.");
 870:Middlewares/ST/STM32_USB_Host_Library/Core/Src/usbh_core.c ****           phost->gState = HOST_ABORT_STATE;
 871:Middlewares/ST/STM32_USB_Host_Library/Core/Src/usbh_core.c ****         }
 872:Middlewares/ST/STM32_USB_Host_Library/Core/Src/usbh_core.c ****         else
 873:Middlewares/ST/STM32_USB_Host_Library/Core/Src/usbh_core.c ****         {
 874:Middlewares/ST/STM32_USB_Host_Library/Core/Src/usbh_core.c ****           /* Free control pipes */
 875:Middlewares/ST/STM32_USB_Host_Library/Core/Src/usbh_core.c ****           (void)USBH_FreePipe(phost, phost->Control.pipe_out);
 876:Middlewares/ST/STM32_USB_Host_Library/Core/Src/usbh_core.c ****           (void)USBH_FreePipe(phost, phost->Control.pipe_in);
 877:Middlewares/ST/STM32_USB_Host_Library/Core/Src/usbh_core.c **** 
 878:Middlewares/ST/STM32_USB_Host_Library/Core/Src/usbh_core.c ****           /* Reset the USB Device */
 879:Middlewares/ST/STM32_USB_Host_Library/Core/Src/usbh_core.c ****           phost->EnumState = ENUM_IDLE;
 880:Middlewares/ST/STM32_USB_Host_Library/Core/Src/usbh_core.c ****           phost->gState = HOST_IDLE;
 881:Middlewares/ST/STM32_USB_Host_Library/Core/Src/usbh_core.c ****         }
 882:Middlewares/ST/STM32_USB_Host_Library/Core/Src/usbh_core.c ****       }
 883:Middlewares/ST/STM32_USB_Host_Library/Core/Src/usbh_core.c ****       else
 884:Middlewares/ST/STM32_USB_Host_Library/Core/Src/usbh_core.c ****       {
 885:Middlewares/ST/STM32_USB_Host_Library/Core/Src/usbh_core.c ****         /* .. */
ARM GAS  C:\Users\moham\AppData\Local\Temp\ccR7RLkT.s 			page 17


 886:Middlewares/ST/STM32_USB_Host_Library/Core/Src/usbh_core.c ****       }
 887:Middlewares/ST/STM32_USB_Host_Library/Core/Src/usbh_core.c ****       break;
 888:Middlewares/ST/STM32_USB_Host_Library/Core/Src/usbh_core.c **** 
 889:Middlewares/ST/STM32_USB_Host_Library/Core/Src/usbh_core.c ****     case ENUM_SET_ADDR:
 890:Middlewares/ST/STM32_USB_Host_Library/Core/Src/usbh_core.c ****       /* set address */
 891:Middlewares/ST/STM32_USB_Host_Library/Core/Src/usbh_core.c ****       ReqStatus = USBH_SetAddress(phost, USBH_DEVICE_ADDRESS);
 892:Middlewares/ST/STM32_USB_Host_Library/Core/Src/usbh_core.c ****       if (ReqStatus == USBH_OK)
 893:Middlewares/ST/STM32_USB_Host_Library/Core/Src/usbh_core.c ****       {
 894:Middlewares/ST/STM32_USB_Host_Library/Core/Src/usbh_core.c ****         USBH_Delay(2U);
 895:Middlewares/ST/STM32_USB_Host_Library/Core/Src/usbh_core.c ****         phost->device.address = USBH_DEVICE_ADDRESS;
 896:Middlewares/ST/STM32_USB_Host_Library/Core/Src/usbh_core.c **** 
 897:Middlewares/ST/STM32_USB_Host_Library/Core/Src/usbh_core.c ****         /* user callback for device address assigned */
 898:Middlewares/ST/STM32_USB_Host_Library/Core/Src/usbh_core.c ****         USBH_UsrLog("Address (#%d) assigned.", phost->device.address);
 899:Middlewares/ST/STM32_USB_Host_Library/Core/Src/usbh_core.c ****         phost->EnumState = ENUM_GET_CFG_DESC;
 900:Middlewares/ST/STM32_USB_Host_Library/Core/Src/usbh_core.c **** 
 901:Middlewares/ST/STM32_USB_Host_Library/Core/Src/usbh_core.c ****         /* modify control channels to update device address */
 902:Middlewares/ST/STM32_USB_Host_Library/Core/Src/usbh_core.c ****         (void)USBH_OpenPipe(phost, phost->Control.pipe_in, 0x80U,  phost->device.address,
 903:Middlewares/ST/STM32_USB_Host_Library/Core/Src/usbh_core.c ****                             phost->device.speed, USBH_EP_CONTROL,
 904:Middlewares/ST/STM32_USB_Host_Library/Core/Src/usbh_core.c ****                             (uint16_t)phost->Control.pipe_size);
 905:Middlewares/ST/STM32_USB_Host_Library/Core/Src/usbh_core.c **** 
 906:Middlewares/ST/STM32_USB_Host_Library/Core/Src/usbh_core.c ****         /* Open Control pipes */
 907:Middlewares/ST/STM32_USB_Host_Library/Core/Src/usbh_core.c ****         (void)USBH_OpenPipe(phost, phost->Control.pipe_out, 0x00U, phost->device.address,
 908:Middlewares/ST/STM32_USB_Host_Library/Core/Src/usbh_core.c ****                             phost->device.speed, USBH_EP_CONTROL,
 909:Middlewares/ST/STM32_USB_Host_Library/Core/Src/usbh_core.c ****                             (uint16_t)phost->Control.pipe_size);
 910:Middlewares/ST/STM32_USB_Host_Library/Core/Src/usbh_core.c ****       }
 911:Middlewares/ST/STM32_USB_Host_Library/Core/Src/usbh_core.c ****       else if (ReqStatus == USBH_NOT_SUPPORTED)
 912:Middlewares/ST/STM32_USB_Host_Library/Core/Src/usbh_core.c ****       {
 913:Middlewares/ST/STM32_USB_Host_Library/Core/Src/usbh_core.c ****         USBH_ErrLog("Control error: Device Set Address request failed");
 914:Middlewares/ST/STM32_USB_Host_Library/Core/Src/usbh_core.c **** 
 915:Middlewares/ST/STM32_USB_Host_Library/Core/Src/usbh_core.c ****         /* Buggy Device can't complete get device desc request */
 916:Middlewares/ST/STM32_USB_Host_Library/Core/Src/usbh_core.c ****         USBH_UsrLog("Control error, Device not Responding Please unplug the Device.");
 917:Middlewares/ST/STM32_USB_Host_Library/Core/Src/usbh_core.c ****         phost->gState = HOST_ABORT_STATE;
 918:Middlewares/ST/STM32_USB_Host_Library/Core/Src/usbh_core.c ****         phost->EnumState = ENUM_IDLE;
 919:Middlewares/ST/STM32_USB_Host_Library/Core/Src/usbh_core.c ****       }
 920:Middlewares/ST/STM32_USB_Host_Library/Core/Src/usbh_core.c ****       else
 921:Middlewares/ST/STM32_USB_Host_Library/Core/Src/usbh_core.c ****       {
 922:Middlewares/ST/STM32_USB_Host_Library/Core/Src/usbh_core.c ****         /* .. */
 923:Middlewares/ST/STM32_USB_Host_Library/Core/Src/usbh_core.c ****       }
 924:Middlewares/ST/STM32_USB_Host_Library/Core/Src/usbh_core.c ****       break;
 925:Middlewares/ST/STM32_USB_Host_Library/Core/Src/usbh_core.c **** 
 926:Middlewares/ST/STM32_USB_Host_Library/Core/Src/usbh_core.c ****     case ENUM_GET_CFG_DESC:
 927:Middlewares/ST/STM32_USB_Host_Library/Core/Src/usbh_core.c ****       /* get standard configuration descriptor */
 928:Middlewares/ST/STM32_USB_Host_Library/Core/Src/usbh_core.c ****       ReqStatus = USBH_Get_CfgDesc(phost, USB_CONFIGURATION_DESC_SIZE);
 929:Middlewares/ST/STM32_USB_Host_Library/Core/Src/usbh_core.c ****       if (ReqStatus == USBH_OK)
 930:Middlewares/ST/STM32_USB_Host_Library/Core/Src/usbh_core.c ****       {
 931:Middlewares/ST/STM32_USB_Host_Library/Core/Src/usbh_core.c ****         phost->EnumState = ENUM_GET_FULL_CFG_DESC;
 932:Middlewares/ST/STM32_USB_Host_Library/Core/Src/usbh_core.c ****       }
 933:Middlewares/ST/STM32_USB_Host_Library/Core/Src/usbh_core.c ****       else if (ReqStatus == USBH_NOT_SUPPORTED)
 934:Middlewares/ST/STM32_USB_Host_Library/Core/Src/usbh_core.c ****       {
 935:Middlewares/ST/STM32_USB_Host_Library/Core/Src/usbh_core.c ****         USBH_ErrLog("Control error: Get Device configuration descriptor request failed");
 936:Middlewares/ST/STM32_USB_Host_Library/Core/Src/usbh_core.c ****         phost->device.EnumCnt++;
 937:Middlewares/ST/STM32_USB_Host_Library/Core/Src/usbh_core.c ****         if (phost->device.EnumCnt > 3U)
 938:Middlewares/ST/STM32_USB_Host_Library/Core/Src/usbh_core.c ****         {
 939:Middlewares/ST/STM32_USB_Host_Library/Core/Src/usbh_core.c ****           /* Buggy Device can't complete get device desc request */
 940:Middlewares/ST/STM32_USB_Host_Library/Core/Src/usbh_core.c ****           USBH_UsrLog("Control error, Device not Responding Please unplug the Device.");
 941:Middlewares/ST/STM32_USB_Host_Library/Core/Src/usbh_core.c ****           phost->gState = HOST_ABORT_STATE;
 942:Middlewares/ST/STM32_USB_Host_Library/Core/Src/usbh_core.c ****         }
ARM GAS  C:\Users\moham\AppData\Local\Temp\ccR7RLkT.s 			page 18


 943:Middlewares/ST/STM32_USB_Host_Library/Core/Src/usbh_core.c ****         else
 944:Middlewares/ST/STM32_USB_Host_Library/Core/Src/usbh_core.c ****         {
 945:Middlewares/ST/STM32_USB_Host_Library/Core/Src/usbh_core.c ****           /* Free control pipes */
 946:Middlewares/ST/STM32_USB_Host_Library/Core/Src/usbh_core.c ****           (void)USBH_FreePipe(phost, phost->Control.pipe_out);
 947:Middlewares/ST/STM32_USB_Host_Library/Core/Src/usbh_core.c ****           (void)USBH_FreePipe(phost, phost->Control.pipe_in);
 948:Middlewares/ST/STM32_USB_Host_Library/Core/Src/usbh_core.c **** 
 949:Middlewares/ST/STM32_USB_Host_Library/Core/Src/usbh_core.c ****           /* Reset the USB Device */
 950:Middlewares/ST/STM32_USB_Host_Library/Core/Src/usbh_core.c ****           phost->EnumState = ENUM_IDLE;
 951:Middlewares/ST/STM32_USB_Host_Library/Core/Src/usbh_core.c ****           phost->gState = HOST_IDLE;
 952:Middlewares/ST/STM32_USB_Host_Library/Core/Src/usbh_core.c ****         }
 953:Middlewares/ST/STM32_USB_Host_Library/Core/Src/usbh_core.c ****       }
 954:Middlewares/ST/STM32_USB_Host_Library/Core/Src/usbh_core.c ****       else
 955:Middlewares/ST/STM32_USB_Host_Library/Core/Src/usbh_core.c ****       {
 956:Middlewares/ST/STM32_USB_Host_Library/Core/Src/usbh_core.c ****         /* .. */
 957:Middlewares/ST/STM32_USB_Host_Library/Core/Src/usbh_core.c ****       }
 958:Middlewares/ST/STM32_USB_Host_Library/Core/Src/usbh_core.c ****       break;
 959:Middlewares/ST/STM32_USB_Host_Library/Core/Src/usbh_core.c **** 
 960:Middlewares/ST/STM32_USB_Host_Library/Core/Src/usbh_core.c ****     case ENUM_GET_FULL_CFG_DESC:
 961:Middlewares/ST/STM32_USB_Host_Library/Core/Src/usbh_core.c ****       /* get FULL config descriptor (config, interface, endpoints) */
 962:Middlewares/ST/STM32_USB_Host_Library/Core/Src/usbh_core.c ****       ReqStatus = USBH_Get_CfgDesc(phost, phost->device.CfgDesc.wTotalLength);
 963:Middlewares/ST/STM32_USB_Host_Library/Core/Src/usbh_core.c ****       if (ReqStatus == USBH_OK)
 964:Middlewares/ST/STM32_USB_Host_Library/Core/Src/usbh_core.c ****       {
 965:Middlewares/ST/STM32_USB_Host_Library/Core/Src/usbh_core.c ****         phost->EnumState = ENUM_GET_MFC_STRING_DESC;
 966:Middlewares/ST/STM32_USB_Host_Library/Core/Src/usbh_core.c ****       }
 967:Middlewares/ST/STM32_USB_Host_Library/Core/Src/usbh_core.c ****       else if (ReqStatus == USBH_NOT_SUPPORTED)
 968:Middlewares/ST/STM32_USB_Host_Library/Core/Src/usbh_core.c ****       {
 969:Middlewares/ST/STM32_USB_Host_Library/Core/Src/usbh_core.c ****         USBH_ErrLog("Control error: Get Device configuration descriptor request failed");
 970:Middlewares/ST/STM32_USB_Host_Library/Core/Src/usbh_core.c ****         phost->device.EnumCnt++;
 971:Middlewares/ST/STM32_USB_Host_Library/Core/Src/usbh_core.c ****         if (phost->device.EnumCnt > 3U)
 972:Middlewares/ST/STM32_USB_Host_Library/Core/Src/usbh_core.c ****         {
 973:Middlewares/ST/STM32_USB_Host_Library/Core/Src/usbh_core.c ****           /* Buggy Device can't complete get device desc request */
 974:Middlewares/ST/STM32_USB_Host_Library/Core/Src/usbh_core.c ****           USBH_UsrLog("Control error, Device not Responding Please unplug the Device.");
 975:Middlewares/ST/STM32_USB_Host_Library/Core/Src/usbh_core.c ****           phost->gState = HOST_ABORT_STATE;
 976:Middlewares/ST/STM32_USB_Host_Library/Core/Src/usbh_core.c ****         }
 977:Middlewares/ST/STM32_USB_Host_Library/Core/Src/usbh_core.c ****         else
 978:Middlewares/ST/STM32_USB_Host_Library/Core/Src/usbh_core.c ****         {
 979:Middlewares/ST/STM32_USB_Host_Library/Core/Src/usbh_core.c ****           /* Free control pipes */
 980:Middlewares/ST/STM32_USB_Host_Library/Core/Src/usbh_core.c ****           (void)USBH_FreePipe(phost, phost->Control.pipe_out);
 981:Middlewares/ST/STM32_USB_Host_Library/Core/Src/usbh_core.c ****           (void)USBH_FreePipe(phost, phost->Control.pipe_in);
 982:Middlewares/ST/STM32_USB_Host_Library/Core/Src/usbh_core.c **** 
 983:Middlewares/ST/STM32_USB_Host_Library/Core/Src/usbh_core.c ****           /* Reset the USB Device */
 984:Middlewares/ST/STM32_USB_Host_Library/Core/Src/usbh_core.c ****           phost->EnumState = ENUM_IDLE;
 985:Middlewares/ST/STM32_USB_Host_Library/Core/Src/usbh_core.c ****           phost->gState = HOST_IDLE;
 986:Middlewares/ST/STM32_USB_Host_Library/Core/Src/usbh_core.c ****         }
 987:Middlewares/ST/STM32_USB_Host_Library/Core/Src/usbh_core.c ****       }
 988:Middlewares/ST/STM32_USB_Host_Library/Core/Src/usbh_core.c ****       else
 989:Middlewares/ST/STM32_USB_Host_Library/Core/Src/usbh_core.c ****       {
 990:Middlewares/ST/STM32_USB_Host_Library/Core/Src/usbh_core.c ****         /* .. */
 991:Middlewares/ST/STM32_USB_Host_Library/Core/Src/usbh_core.c ****       }
 992:Middlewares/ST/STM32_USB_Host_Library/Core/Src/usbh_core.c ****       break;
 993:Middlewares/ST/STM32_USB_Host_Library/Core/Src/usbh_core.c **** 
 994:Middlewares/ST/STM32_USB_Host_Library/Core/Src/usbh_core.c ****     case ENUM_GET_MFC_STRING_DESC:
 995:Middlewares/ST/STM32_USB_Host_Library/Core/Src/usbh_core.c ****       if (phost->device.DevDesc.iManufacturer != 0U)
 996:Middlewares/ST/STM32_USB_Host_Library/Core/Src/usbh_core.c ****       {
 997:Middlewares/ST/STM32_USB_Host_Library/Core/Src/usbh_core.c ****         /* Check that Manufacturer String is available */
 998:Middlewares/ST/STM32_USB_Host_Library/Core/Src/usbh_core.c ****         ReqStatus = USBH_Get_StringDesc(phost, phost->device.DevDesc.iManufacturer,
 999:Middlewares/ST/STM32_USB_Host_Library/Core/Src/usbh_core.c ****                                         phost->device.Data, 0xFFU);
ARM GAS  C:\Users\moham\AppData\Local\Temp\ccR7RLkT.s 			page 19


1000:Middlewares/ST/STM32_USB_Host_Library/Core/Src/usbh_core.c ****         if (ReqStatus == USBH_OK)
1001:Middlewares/ST/STM32_USB_Host_Library/Core/Src/usbh_core.c ****         {
1002:Middlewares/ST/STM32_USB_Host_Library/Core/Src/usbh_core.c ****           /* User callback for Manufacturing string */
1003:Middlewares/ST/STM32_USB_Host_Library/Core/Src/usbh_core.c ****           USBH_UsrLog("Manufacturer : %s", (char *)(void *)phost->device.Data);
1004:Middlewares/ST/STM32_USB_Host_Library/Core/Src/usbh_core.c ****           phost->EnumState = ENUM_GET_PRODUCT_STRING_DESC;
1005:Middlewares/ST/STM32_USB_Host_Library/Core/Src/usbh_core.c **** 
1006:Middlewares/ST/STM32_USB_Host_Library/Core/Src/usbh_core.c **** #if (USBH_USE_OS == 1U)
1007:Middlewares/ST/STM32_USB_Host_Library/Core/Src/usbh_core.c ****           USBH_OS_PutMessage(phost, USBH_STATE_CHANGED_EVENT, 0U, 0U);
1008:Middlewares/ST/STM32_USB_Host_Library/Core/Src/usbh_core.c **** #endif /* (USBH_USE_OS == 1U) */
1009:Middlewares/ST/STM32_USB_Host_Library/Core/Src/usbh_core.c ****         }
1010:Middlewares/ST/STM32_USB_Host_Library/Core/Src/usbh_core.c ****         else if (ReqStatus == USBH_NOT_SUPPORTED)
1011:Middlewares/ST/STM32_USB_Host_Library/Core/Src/usbh_core.c ****         {
1012:Middlewares/ST/STM32_USB_Host_Library/Core/Src/usbh_core.c ****           USBH_UsrLog("Manufacturer : N/A");
1013:Middlewares/ST/STM32_USB_Host_Library/Core/Src/usbh_core.c ****           phost->EnumState = ENUM_GET_PRODUCT_STRING_DESC;
1014:Middlewares/ST/STM32_USB_Host_Library/Core/Src/usbh_core.c **** 
1015:Middlewares/ST/STM32_USB_Host_Library/Core/Src/usbh_core.c **** #if (USBH_USE_OS == 1U)
1016:Middlewares/ST/STM32_USB_Host_Library/Core/Src/usbh_core.c ****           USBH_OS_PutMessage(phost, USBH_STATE_CHANGED_EVENT, 0U, 0U);
1017:Middlewares/ST/STM32_USB_Host_Library/Core/Src/usbh_core.c **** #endif /* (USBH_USE_OS == 1U) */
1018:Middlewares/ST/STM32_USB_Host_Library/Core/Src/usbh_core.c ****         }
1019:Middlewares/ST/STM32_USB_Host_Library/Core/Src/usbh_core.c ****         else
1020:Middlewares/ST/STM32_USB_Host_Library/Core/Src/usbh_core.c ****         {
1021:Middlewares/ST/STM32_USB_Host_Library/Core/Src/usbh_core.c ****           /* .. */
1022:Middlewares/ST/STM32_USB_Host_Library/Core/Src/usbh_core.c ****         }
1023:Middlewares/ST/STM32_USB_Host_Library/Core/Src/usbh_core.c ****       }
1024:Middlewares/ST/STM32_USB_Host_Library/Core/Src/usbh_core.c ****       else
1025:Middlewares/ST/STM32_USB_Host_Library/Core/Src/usbh_core.c ****       {
1026:Middlewares/ST/STM32_USB_Host_Library/Core/Src/usbh_core.c ****         USBH_UsrLog("Manufacturer : N/A");
1027:Middlewares/ST/STM32_USB_Host_Library/Core/Src/usbh_core.c ****         phost->EnumState = ENUM_GET_PRODUCT_STRING_DESC;
1028:Middlewares/ST/STM32_USB_Host_Library/Core/Src/usbh_core.c **** 
1029:Middlewares/ST/STM32_USB_Host_Library/Core/Src/usbh_core.c **** #if (USBH_USE_OS == 1U)
1030:Middlewares/ST/STM32_USB_Host_Library/Core/Src/usbh_core.c ****         USBH_OS_PutMessage(phost, USBH_STATE_CHANGED_EVENT, 0U, 0U);
1031:Middlewares/ST/STM32_USB_Host_Library/Core/Src/usbh_core.c **** #endif /* (USBH_USE_OS == 1U) */
1032:Middlewares/ST/STM32_USB_Host_Library/Core/Src/usbh_core.c ****       }
1033:Middlewares/ST/STM32_USB_Host_Library/Core/Src/usbh_core.c ****       break;
1034:Middlewares/ST/STM32_USB_Host_Library/Core/Src/usbh_core.c **** 
1035:Middlewares/ST/STM32_USB_Host_Library/Core/Src/usbh_core.c ****     case ENUM_GET_PRODUCT_STRING_DESC:
1036:Middlewares/ST/STM32_USB_Host_Library/Core/Src/usbh_core.c ****       if (phost->device.DevDesc.iProduct != 0U)
1037:Middlewares/ST/STM32_USB_Host_Library/Core/Src/usbh_core.c ****       {
1038:Middlewares/ST/STM32_USB_Host_Library/Core/Src/usbh_core.c ****         /* Check that Product string is available */
1039:Middlewares/ST/STM32_USB_Host_Library/Core/Src/usbh_core.c ****         ReqStatus = USBH_Get_StringDesc(phost, phost->device.DevDesc.iProduct,
1040:Middlewares/ST/STM32_USB_Host_Library/Core/Src/usbh_core.c ****                                         phost->device.Data, 0xFFU);
1041:Middlewares/ST/STM32_USB_Host_Library/Core/Src/usbh_core.c ****         if (ReqStatus == USBH_OK)
1042:Middlewares/ST/STM32_USB_Host_Library/Core/Src/usbh_core.c ****         {
1043:Middlewares/ST/STM32_USB_Host_Library/Core/Src/usbh_core.c ****           /* User callback for Product string */
1044:Middlewares/ST/STM32_USB_Host_Library/Core/Src/usbh_core.c ****           USBH_UsrLog("Product : %s", (char *)(void *)phost->device.Data);
1045:Middlewares/ST/STM32_USB_Host_Library/Core/Src/usbh_core.c ****           phost->EnumState = ENUM_GET_SERIALNUM_STRING_DESC;
1046:Middlewares/ST/STM32_USB_Host_Library/Core/Src/usbh_core.c ****         }
1047:Middlewares/ST/STM32_USB_Host_Library/Core/Src/usbh_core.c ****         else if (ReqStatus == USBH_NOT_SUPPORTED)
1048:Middlewares/ST/STM32_USB_Host_Library/Core/Src/usbh_core.c ****         {
1049:Middlewares/ST/STM32_USB_Host_Library/Core/Src/usbh_core.c ****           USBH_UsrLog("Product : N/A");
1050:Middlewares/ST/STM32_USB_Host_Library/Core/Src/usbh_core.c ****           phost->EnumState = ENUM_GET_SERIALNUM_STRING_DESC;
1051:Middlewares/ST/STM32_USB_Host_Library/Core/Src/usbh_core.c **** 
1052:Middlewares/ST/STM32_USB_Host_Library/Core/Src/usbh_core.c **** #if (USBH_USE_OS == 1U)
1053:Middlewares/ST/STM32_USB_Host_Library/Core/Src/usbh_core.c ****           USBH_OS_PutMessage(phost, USBH_STATE_CHANGED_EVENT, 0U, 0U);
1054:Middlewares/ST/STM32_USB_Host_Library/Core/Src/usbh_core.c **** #endif /* (USBH_USE_OS == 1U) */
1055:Middlewares/ST/STM32_USB_Host_Library/Core/Src/usbh_core.c ****         }
1056:Middlewares/ST/STM32_USB_Host_Library/Core/Src/usbh_core.c ****         else
ARM GAS  C:\Users\moham\AppData\Local\Temp\ccR7RLkT.s 			page 20


1057:Middlewares/ST/STM32_USB_Host_Library/Core/Src/usbh_core.c ****         {
1058:Middlewares/ST/STM32_USB_Host_Library/Core/Src/usbh_core.c ****           /* .. */
1059:Middlewares/ST/STM32_USB_Host_Library/Core/Src/usbh_core.c ****         }
1060:Middlewares/ST/STM32_USB_Host_Library/Core/Src/usbh_core.c ****       }
1061:Middlewares/ST/STM32_USB_Host_Library/Core/Src/usbh_core.c ****       else
1062:Middlewares/ST/STM32_USB_Host_Library/Core/Src/usbh_core.c ****       {
1063:Middlewares/ST/STM32_USB_Host_Library/Core/Src/usbh_core.c ****         USBH_UsrLog("Product : N/A");
1064:Middlewares/ST/STM32_USB_Host_Library/Core/Src/usbh_core.c ****         phost->EnumState = ENUM_GET_SERIALNUM_STRING_DESC;
1065:Middlewares/ST/STM32_USB_Host_Library/Core/Src/usbh_core.c **** 
1066:Middlewares/ST/STM32_USB_Host_Library/Core/Src/usbh_core.c **** #if (USBH_USE_OS == 1U)
1067:Middlewares/ST/STM32_USB_Host_Library/Core/Src/usbh_core.c ****         USBH_OS_PutMessage(phost, USBH_STATE_CHANGED_EVENT, 0U, 0U);
1068:Middlewares/ST/STM32_USB_Host_Library/Core/Src/usbh_core.c **** #endif /* (USBH_USE_OS == 1U) */
1069:Middlewares/ST/STM32_USB_Host_Library/Core/Src/usbh_core.c ****       }
1070:Middlewares/ST/STM32_USB_Host_Library/Core/Src/usbh_core.c ****       break;
1071:Middlewares/ST/STM32_USB_Host_Library/Core/Src/usbh_core.c **** 
1072:Middlewares/ST/STM32_USB_Host_Library/Core/Src/usbh_core.c ****     case ENUM_GET_SERIALNUM_STRING_DESC:
1073:Middlewares/ST/STM32_USB_Host_Library/Core/Src/usbh_core.c ****       if (phost->device.DevDesc.iSerialNumber != 0U)
1074:Middlewares/ST/STM32_USB_Host_Library/Core/Src/usbh_core.c ****       {
1075:Middlewares/ST/STM32_USB_Host_Library/Core/Src/usbh_core.c ****         /* Check that Serial number string is available */
1076:Middlewares/ST/STM32_USB_Host_Library/Core/Src/usbh_core.c ****         ReqStatus = USBH_Get_StringDesc(phost, phost->device.DevDesc.iSerialNumber,
1077:Middlewares/ST/STM32_USB_Host_Library/Core/Src/usbh_core.c ****                                         phost->device.Data, 0xFFU);
1078:Middlewares/ST/STM32_USB_Host_Library/Core/Src/usbh_core.c ****         if (ReqStatus == USBH_OK)
1079:Middlewares/ST/STM32_USB_Host_Library/Core/Src/usbh_core.c ****         {
1080:Middlewares/ST/STM32_USB_Host_Library/Core/Src/usbh_core.c ****           /* User callback for Serial number string */
1081:Middlewares/ST/STM32_USB_Host_Library/Core/Src/usbh_core.c ****           USBH_UsrLog("Serial Number : %s", (char *)(void *)phost->device.Data);
1082:Middlewares/ST/STM32_USB_Host_Library/Core/Src/usbh_core.c ****           Status = USBH_OK;
1083:Middlewares/ST/STM32_USB_Host_Library/Core/Src/usbh_core.c ****         }
1084:Middlewares/ST/STM32_USB_Host_Library/Core/Src/usbh_core.c ****         else if (ReqStatus == USBH_NOT_SUPPORTED)
1085:Middlewares/ST/STM32_USB_Host_Library/Core/Src/usbh_core.c ****         {
1086:Middlewares/ST/STM32_USB_Host_Library/Core/Src/usbh_core.c ****           USBH_UsrLog("Serial Number : N/A");
1087:Middlewares/ST/STM32_USB_Host_Library/Core/Src/usbh_core.c ****           Status = USBH_OK;
1088:Middlewares/ST/STM32_USB_Host_Library/Core/Src/usbh_core.c ****         }
1089:Middlewares/ST/STM32_USB_Host_Library/Core/Src/usbh_core.c ****         else
1090:Middlewares/ST/STM32_USB_Host_Library/Core/Src/usbh_core.c ****         {
1091:Middlewares/ST/STM32_USB_Host_Library/Core/Src/usbh_core.c ****           /* .. */
1092:Middlewares/ST/STM32_USB_Host_Library/Core/Src/usbh_core.c ****         }
1093:Middlewares/ST/STM32_USB_Host_Library/Core/Src/usbh_core.c ****       }
1094:Middlewares/ST/STM32_USB_Host_Library/Core/Src/usbh_core.c ****       else
1095:Middlewares/ST/STM32_USB_Host_Library/Core/Src/usbh_core.c ****       {
1096:Middlewares/ST/STM32_USB_Host_Library/Core/Src/usbh_core.c ****         USBH_UsrLog("Serial Number : N/A");
1097:Middlewares/ST/STM32_USB_Host_Library/Core/Src/usbh_core.c ****         Status = USBH_OK;
1098:Middlewares/ST/STM32_USB_Host_Library/Core/Src/usbh_core.c ****       }
1099:Middlewares/ST/STM32_USB_Host_Library/Core/Src/usbh_core.c ****       break;
1100:Middlewares/ST/STM32_USB_Host_Library/Core/Src/usbh_core.c **** 
1101:Middlewares/ST/STM32_USB_Host_Library/Core/Src/usbh_core.c ****     default:
1102:Middlewares/ST/STM32_USB_Host_Library/Core/Src/usbh_core.c ****       break;
1103:Middlewares/ST/STM32_USB_Host_Library/Core/Src/usbh_core.c ****   }
1104:Middlewares/ST/STM32_USB_Host_Library/Core/Src/usbh_core.c ****   return Status;
1105:Middlewares/ST/STM32_USB_Host_Library/Core/Src/usbh_core.c **** }
1106:Middlewares/ST/STM32_USB_Host_Library/Core/Src/usbh_core.c **** 
1107:Middlewares/ST/STM32_USB_Host_Library/Core/Src/usbh_core.c **** 
1108:Middlewares/ST/STM32_USB_Host_Library/Core/Src/usbh_core.c **** /**
1109:Middlewares/ST/STM32_USB_Host_Library/Core/Src/usbh_core.c ****   * @brief  USBH_LL_SetTimer
1110:Middlewares/ST/STM32_USB_Host_Library/Core/Src/usbh_core.c ****   *         Set the initial Host Timer tick
1111:Middlewares/ST/STM32_USB_Host_Library/Core/Src/usbh_core.c ****   * @param  phost: Host Handle
1112:Middlewares/ST/STM32_USB_Host_Library/Core/Src/usbh_core.c ****   * @retval None
1113:Middlewares/ST/STM32_USB_Host_Library/Core/Src/usbh_core.c ****   */
ARM GAS  C:\Users\moham\AppData\Local\Temp\ccR7RLkT.s 			page 21


1114:Middlewares/ST/STM32_USB_Host_Library/Core/Src/usbh_core.c **** void USBH_LL_SetTimer(USBH_HandleTypeDef *phost, uint32_t time)
1115:Middlewares/ST/STM32_USB_Host_Library/Core/Src/usbh_core.c **** {
1116:Middlewares/ST/STM32_USB_Host_Library/Core/Src/usbh_core.c ****   phost->Timer = time;
1117:Middlewares/ST/STM32_USB_Host_Library/Core/Src/usbh_core.c **** }
1118:Middlewares/ST/STM32_USB_Host_Library/Core/Src/usbh_core.c **** 
1119:Middlewares/ST/STM32_USB_Host_Library/Core/Src/usbh_core.c **** 
1120:Middlewares/ST/STM32_USB_Host_Library/Core/Src/usbh_core.c **** /**
1121:Middlewares/ST/STM32_USB_Host_Library/Core/Src/usbh_core.c ****   * @brief  USBH_LL_IncTimer
1122:Middlewares/ST/STM32_USB_Host_Library/Core/Src/usbh_core.c ****   *         Increment Host Timer tick
1123:Middlewares/ST/STM32_USB_Host_Library/Core/Src/usbh_core.c ****   * @param  phost: Host Handle
1124:Middlewares/ST/STM32_USB_Host_Library/Core/Src/usbh_core.c ****   * @retval None
1125:Middlewares/ST/STM32_USB_Host_Library/Core/Src/usbh_core.c ****   */
1126:Middlewares/ST/STM32_USB_Host_Library/Core/Src/usbh_core.c **** void USBH_LL_IncTimer(USBH_HandleTypeDef *phost)
1127:Middlewares/ST/STM32_USB_Host_Library/Core/Src/usbh_core.c **** {
1128:Middlewares/ST/STM32_USB_Host_Library/Core/Src/usbh_core.c ****   phost->Timer++;
1129:Middlewares/ST/STM32_USB_Host_Library/Core/Src/usbh_core.c ****   USBH_HandleSof(phost);
1130:Middlewares/ST/STM32_USB_Host_Library/Core/Src/usbh_core.c **** }
1131:Middlewares/ST/STM32_USB_Host_Library/Core/Src/usbh_core.c **** 
1132:Middlewares/ST/STM32_USB_Host_Library/Core/Src/usbh_core.c **** 
1133:Middlewares/ST/STM32_USB_Host_Library/Core/Src/usbh_core.c **** /**
1134:Middlewares/ST/STM32_USB_Host_Library/Core/Src/usbh_core.c ****   * @brief  USBH_HandleSof
1135:Middlewares/ST/STM32_USB_Host_Library/Core/Src/usbh_core.c ****   *         Call SOF process
1136:Middlewares/ST/STM32_USB_Host_Library/Core/Src/usbh_core.c ****   * @param  phost: Host Handle
1137:Middlewares/ST/STM32_USB_Host_Library/Core/Src/usbh_core.c ****   * @retval None
1138:Middlewares/ST/STM32_USB_Host_Library/Core/Src/usbh_core.c ****   */
1139:Middlewares/ST/STM32_USB_Host_Library/Core/Src/usbh_core.c **** static void USBH_HandleSof(USBH_HandleTypeDef *phost)
1140:Middlewares/ST/STM32_USB_Host_Library/Core/Src/usbh_core.c **** {
  29              		.loc 1 1140 1 view -0
  30              		.cfi_startproc
  31              		@ args = 0, pretend = 0, frame = 0
  32              		@ frame_needed = 0, uses_anonymous_args = 0
  33              		.loc 1 1140 1 is_stmt 0 view .LVU1
  34 0000 08B5     		push	{r3, lr}
  35              	.LCFI0:
  36              		.cfi_def_cfa_offset 8
  37              		.cfi_offset 3, -8
  38              		.cfi_offset 14, -4
1141:Middlewares/ST/STM32_USB_Host_Library/Core/Src/usbh_core.c ****   if ((phost->gState == HOST_CLASS) && (phost->pActiveClass != NULL))
  39              		.loc 1 1141 3 is_stmt 1 view .LVU2
  40              		.loc 1 1141 13 is_stmt 0 view .LVU3
  41 0002 0378     		ldrb	r3, [r0]	@ zero_extendqisi2
  42              		.loc 1 1141 6 view .LVU4
  43 0004 0B2B     		cmp	r3, #11
  44 0006 00D0     		beq	.L4
  45              	.LVL1:
  46              	.L1:
1142:Middlewares/ST/STM32_USB_Host_Library/Core/Src/usbh_core.c ****   {
1143:Middlewares/ST/STM32_USB_Host_Library/Core/Src/usbh_core.c ****     phost->pActiveClass->SOFProcess(phost);
1144:Middlewares/ST/STM32_USB_Host_Library/Core/Src/usbh_core.c ****   }
1145:Middlewares/ST/STM32_USB_Host_Library/Core/Src/usbh_core.c **** }
  47              		.loc 1 1145 1 view .LVU5
  48 0008 08BD     		pop	{r3, pc}
  49              	.LVL2:
  50              	.L4:
1141:Middlewares/ST/STM32_USB_Host_Library/Core/Src/usbh_core.c ****   if ((phost->gState == HOST_CLASS) && (phost->pActiveClass != NULL))
  51              		.loc 1 1141 46 discriminator 1 view .LVU6
  52 000a D0F87C33 		ldr	r3, [r0, #892]
ARM GAS  C:\Users\moham\AppData\Local\Temp\ccR7RLkT.s 			page 22


1141:Middlewares/ST/STM32_USB_Host_Library/Core/Src/usbh_core.c ****   if ((phost->gState == HOST_CLASS) && (phost->pActiveClass != NULL))
  53              		.loc 1 1141 37 discriminator 1 view .LVU7
  54 000e 002B     		cmp	r3, #0
  55 0010 FAD0     		beq	.L1
1143:Middlewares/ST/STM32_USB_Host_Library/Core/Src/usbh_core.c ****   }
  56              		.loc 1 1143 5 is_stmt 1 view .LVU8
1143:Middlewares/ST/STM32_USB_Host_Library/Core/Src/usbh_core.c ****   }
  57              		.loc 1 1143 24 is_stmt 0 view .LVU9
  58 0012 9B69     		ldr	r3, [r3, #24]
1143:Middlewares/ST/STM32_USB_Host_Library/Core/Src/usbh_core.c ****   }
  59              		.loc 1 1143 5 view .LVU10
  60 0014 9847     		blx	r3
  61              	.LVL3:
  62              		.loc 1 1145 1 view .LVU11
  63 0016 F7E7     		b	.L1
  64              		.cfi_endproc
  65              	.LFE262:
  67              		.section	.text.DeInitStateMachine,"ax",%progbits
  68              		.align	1
  69              		.syntax unified
  70              		.thumb
  71              		.thumb_func
  73              	DeInitStateMachine:
  74              	.LVL4:
  75              	.LFB249:
 221:Middlewares/ST/STM32_USB_Host_Library/Core/Src/usbh_core.c ****   uint32_t i;
  76              		.loc 1 221 1 is_stmt 1 view -0
  77              		.cfi_startproc
  78              		@ args = 0, pretend = 0, frame = 0
  79              		@ frame_needed = 0, uses_anonymous_args = 0
 221:Middlewares/ST/STM32_USB_Host_Library/Core/Src/usbh_core.c ****   uint32_t i;
  80              		.loc 1 221 1 is_stmt 0 view .LVU13
  81 0000 38B5     		push	{r3, r4, r5, lr}
  82              	.LCFI1:
  83              		.cfi_def_cfa_offset 16
  84              		.cfi_offset 3, -16
  85              		.cfi_offset 4, -12
  86              		.cfi_offset 5, -8
  87              		.cfi_offset 14, -4
  88 0002 0446     		mov	r4, r0
 222:Middlewares/ST/STM32_USB_Host_Library/Core/Src/usbh_core.c **** 
  89              		.loc 1 222 3 is_stmt 1 view .LVU14
 225:Middlewares/ST/STM32_USB_Host_Library/Core/Src/usbh_core.c ****   {
  90              		.loc 1 225 3 view .LVU15
  91              	.LVL5:
 225:Middlewares/ST/STM32_USB_Host_Library/Core/Src/usbh_core.c ****   {
  92              		.loc 1 225 10 is_stmt 0 view .LVU16
  93 0004 0023     		movs	r3, #0
 225:Middlewares/ST/STM32_USB_Host_Library/Core/Src/usbh_core.c ****   {
  94              		.loc 1 225 3 view .LVU17
  95 0006 06E0     		b	.L6
  96              	.LVL6:
  97              	.L7:
 227:Middlewares/ST/STM32_USB_Host_Library/Core/Src/usbh_core.c ****   }
  98              		.loc 1 227 5 is_stmt 1 view .LVU18
 227:Middlewares/ST/STM32_USB_Host_Library/Core/Src/usbh_core.c ****   }
  99              		.loc 1 227 21 is_stmt 0 view .LVU19
ARM GAS  C:\Users\moham\AppData\Local\Temp\ccR7RLkT.s 			page 23


 100 0008 03F1E002 		add	r2, r3, #224
 101 000c 04EB8202 		add	r2, r4, r2, lsl #2
 102 0010 0021     		movs	r1, #0
 103 0012 5160     		str	r1, [r2, #4]
 225:Middlewares/ST/STM32_USB_Host_Library/Core/Src/usbh_core.c ****   {
 104              		.loc 1 225 41 is_stmt 1 discriminator 3 view .LVU20
 105 0014 0133     		adds	r3, r3, #1
 106              	.LVL7:
 107              	.L6:
 225:Middlewares/ST/STM32_USB_Host_Library/Core/Src/usbh_core.c ****   {
 108              		.loc 1 225 18 discriminator 1 view .LVU21
 109 0016 0F2B     		cmp	r3, #15
 110 0018 F6D9     		bls	.L7
 230:Middlewares/ST/STM32_USB_Host_Library/Core/Src/usbh_core.c ****   {
 111              		.loc 1 230 10 is_stmt 0 view .LVU22
 112 001a 0023     		movs	r3, #0
 113              	.LVL8:
 230:Middlewares/ST/STM32_USB_Host_Library/Core/Src/usbh_core.c ****   {
 114              		.loc 1 230 10 view .LVU23
 115 001c 04E0     		b	.L8
 116              	.LVL9:
 117              	.L9:
 232:Middlewares/ST/STM32_USB_Host_Library/Core/Src/usbh_core.c ****   }
 118              		.loc 1 232 5 is_stmt 1 view .LVU24
 232:Middlewares/ST/STM32_USB_Host_Library/Core/Src/usbh_core.c ****   }
 119              		.loc 1 232 27 is_stmt 0 view .LVU25
 120 001e E218     		adds	r2, r4, r3
 121 0020 0021     		movs	r1, #0
 122 0022 82F81C11 		strb	r1, [r2, #284]
 230:Middlewares/ST/STM32_USB_Host_Library/Core/Src/usbh_core.c ****   {
 123              		.loc 1 230 43 is_stmt 1 discriminator 3 view .LVU26
 124 0026 0133     		adds	r3, r3, #1
 125              	.LVL10:
 126              	.L8:
 230:Middlewares/ST/STM32_USB_Host_Library/Core/Src/usbh_core.c ****   {
 127              		.loc 1 230 18 discriminator 1 view .LVU27
 128 0028 B3F5007F 		cmp	r3, #512
 129 002c F7D3     		bcc	.L9
 235:Middlewares/ST/STM32_USB_Host_Library/Core/Src/usbh_core.c ****   phost->EnumState = ENUM_IDLE;
 130              		.loc 1 235 3 view .LVU28
 235:Middlewares/ST/STM32_USB_Host_Library/Core/Src/usbh_core.c ****   phost->EnumState = ENUM_IDLE;
 131              		.loc 1 235 17 is_stmt 0 view .LVU29
 132 002e 0025     		movs	r5, #0
 133 0030 2570     		strb	r5, [r4]
 236:Middlewares/ST/STM32_USB_Host_Library/Core/Src/usbh_core.c ****   phost->RequestState = CMD_SEND;
 134              		.loc 1 236 3 is_stmt 1 view .LVU30
 236:Middlewares/ST/STM32_USB_Host_Library/Core/Src/usbh_core.c ****   phost->RequestState = CMD_SEND;
 135              		.loc 1 236 20 is_stmt 0 view .LVU31
 136 0032 6570     		strb	r5, [r4, #1]
 237:Middlewares/ST/STM32_USB_Host_Library/Core/Src/usbh_core.c ****   phost->Timer = 0U;
 137              		.loc 1 237 3 is_stmt 1 view .LVU32
 237:Middlewares/ST/STM32_USB_Host_Library/Core/Src/usbh_core.c ****   phost->Timer = 0U;
 138              		.loc 1 237 23 is_stmt 0 view .LVU33
 139 0034 0123     		movs	r3, #1
 140              	.LVL11:
 237:Middlewares/ST/STM32_USB_Host_Library/Core/Src/usbh_core.c ****   phost->Timer = 0U;
 141              		.loc 1 237 23 view .LVU34
ARM GAS  C:\Users\moham\AppData\Local\Temp\ccR7RLkT.s 			page 24


 142 0036 A370     		strb	r3, [r4, #2]
 238:Middlewares/ST/STM32_USB_Host_Library/Core/Src/usbh_core.c **** 
 143              		.loc 1 238 3 is_stmt 1 view .LVU35
 238:Middlewares/ST/STM32_USB_Host_Library/Core/Src/usbh_core.c **** 
 144              		.loc 1 238 16 is_stmt 0 view .LVU36
 145 0038 C4F8C453 		str	r5, [r4, #964]
 240:Middlewares/ST/STM32_USB_Host_Library/Core/Src/usbh_core.c ****   phost->Control.pipe_size = USBH_MPS_DEFAULT;
 146              		.loc 1 240 3 is_stmt 1 view .LVU37
 240:Middlewares/ST/STM32_USB_Host_Library/Core/Src/usbh_core.c ****   phost->Control.pipe_size = USBH_MPS_DEFAULT;
 147              		.loc 1 240 24 is_stmt 0 view .LVU38
 148 003c 2376     		strb	r3, [r4, #24]
 241:Middlewares/ST/STM32_USB_Host_Library/Core/Src/usbh_core.c ****   phost->Control.errorcount = 0U;
 149              		.loc 1 241 3 is_stmt 1 view .LVU39
 241:Middlewares/ST/STM32_USB_Host_Library/Core/Src/usbh_core.c ****   phost->Control.errorcount = 0U;
 150              		.loc 1 241 28 is_stmt 0 view .LVU40
 151 003e 4022     		movs	r2, #64
 152 0040 A271     		strb	r2, [r4, #6]
 242:Middlewares/ST/STM32_USB_Host_Library/Core/Src/usbh_core.c **** 
 153              		.loc 1 242 3 is_stmt 1 view .LVU41
 242:Middlewares/ST/STM32_USB_Host_Library/Core/Src/usbh_core.c **** 
 154              		.loc 1 242 29 is_stmt 0 view .LVU42
 155 0042 6576     		strb	r5, [r4, #25]
 244:Middlewares/ST/STM32_USB_Host_Library/Core/Src/usbh_core.c ****   phost->device.speed = (uint8_t)USBH_SPEED_FULL;
 156              		.loc 1 244 3 is_stmt 1 view .LVU43
 244:Middlewares/ST/STM32_USB_Host_Library/Core/Src/usbh_core.c ****   phost->device.speed = (uint8_t)USBH_SPEED_FULL;
 157              		.loc 1 244 25 is_stmt 0 view .LVU44
 158 0044 84F81C53 		strb	r5, [r4, #796]
 245:Middlewares/ST/STM32_USB_Host_Library/Core/Src/usbh_core.c ****   phost->device.RstCnt = 0U;
 159              		.loc 1 245 3 is_stmt 1 view .LVU45
 245:Middlewares/ST/STM32_USB_Host_Library/Core/Src/usbh_core.c ****   phost->device.RstCnt = 0U;
 160              		.loc 1 245 23 is_stmt 0 view .LVU46
 161 0048 84F81D33 		strb	r3, [r4, #797]
 246:Middlewares/ST/STM32_USB_Host_Library/Core/Src/usbh_core.c ****   phost->device.EnumCnt = 0U;
 162              		.loc 1 246 3 is_stmt 1 view .LVU47
 246:Middlewares/ST/STM32_USB_Host_Library/Core/Src/usbh_core.c ****   phost->device.EnumCnt = 0U;
 163              		.loc 1 246 24 is_stmt 0 view .LVU48
 164 004c 84F81F53 		strb	r5, [r4, #799]
 247:Middlewares/ST/STM32_USB_Host_Library/Core/Src/usbh_core.c **** 
 165              		.loc 1 247 3 is_stmt 1 view .LVU49
 247:Middlewares/ST/STM32_USB_Host_Library/Core/Src/usbh_core.c **** 
 166              		.loc 1 247 25 is_stmt 0 view .LVU50
 167 0050 84F81E53 		strb	r5, [r4, #798]
 250:Middlewares/ST/STM32_USB_Host_Library/Core/Src/usbh_core.c ****   USBH_memset(&phost->device.Data, 0, sizeof(phost->device.Data));
 168              		.loc 1 250 3 is_stmt 1 view .LVU51
 169 0054 4FF48072 		mov	r2, #256
 170 0058 2946     		mov	r1, r5
 171 005a 04F11C00 		add	r0, r4, #28
 172              	.LVL12:
 250:Middlewares/ST/STM32_USB_Host_Library/Core/Src/usbh_core.c ****   USBH_memset(&phost->device.Data, 0, sizeof(phost->device.Data));
 173              		.loc 1 250 3 is_stmt 0 view .LVU52
 174 005e FFF7FEFF 		bl	memset
 175              	.LVL13:
 251:Middlewares/ST/STM32_USB_Host_Library/Core/Src/usbh_core.c ****   USBH_memset(&phost->device.DevDesc, 0, sizeof(phost->device.DevDesc));
 176              		.loc 1 251 3 is_stmt 1 view .LVU53
 177 0062 4FF40072 		mov	r2, #512
 178 0066 2946     		mov	r1, r5
 179 0068 04F58E70 		add	r0, r4, #284
ARM GAS  C:\Users\moham\AppData\Local\Temp\ccR7RLkT.s 			page 25


 180 006c FFF7FEFF 		bl	memset
 181              	.LVL14:
 252:Middlewares/ST/STM32_USB_Host_Library/Core/Src/usbh_core.c ****   USBH_memset(&phost->device.CfgDesc, 0, sizeof(phost->device.CfgDesc));
 182              		.loc 1 252 3 view .LVU54
 183 0070 C4F82653 		str	r5, [r4, #806]	@ unaligned
 184 0074 C4F82A53 		str	r5, [r4, #810]	@ unaligned
 185 0078 C4F82E53 		str	r5, [r4, #814]	@ unaligned
 186 007c C4F83253 		str	r5, [r4, #818]	@ unaligned
 187 0080 A4F83653 		strh	r5, [r4, #822]	@ unaligned
 253:Middlewares/ST/STM32_USB_Host_Library/Core/Src/usbh_core.c **** 
 188              		.loc 1 253 3 view .LVU55
 189 0084 3E22     		movs	r2, #62
 190 0086 2946     		mov	r1, r5
 191 0088 04F54E70 		add	r0, r4, #824
 192 008c FFF7FEFF 		bl	memset
 193              	.LVL15:
 255:Middlewares/ST/STM32_USB_Host_Library/Core/Src/usbh_core.c **** }
 194              		.loc 1 255 3 view .LVU56
 256:Middlewares/ST/STM32_USB_Host_Library/Core/Src/usbh_core.c **** 
 195              		.loc 1 256 1 is_stmt 0 view .LVU57
 196 0090 2846     		mov	r0, r5
 197 0092 38BD     		pop	{r3, r4, r5, pc}
 256:Middlewares/ST/STM32_USB_Host_Library/Core/Src/usbh_core.c **** 
 198              		.loc 1 256 1 view .LVU58
 199              		.cfi_endproc
 200              	.LFE249:
 202              		.section	.text.USBH_Init,"ax",%progbits
 203              		.align	1
 204              		.global	USBH_Init
 205              		.syntax unified
 206              		.thumb
 207              		.thumb_func
 209              	USBH_Init:
 210              	.LVL16:
 211              	.LFB247:
  98:Middlewares/ST/STM32_USB_Host_Library/Core/Src/usbh_core.c ****   /* Check whether the USB Host handle is valid */
 212              		.loc 1 98 1 is_stmt 1 view -0
 213              		.cfi_startproc
 214              		@ args = 0, pretend = 0, frame = 48
 215              		@ frame_needed = 0, uses_anonymous_args = 0
 100:Middlewares/ST/STM32_USB_Host_Library/Core/Src/usbh_core.c ****   {
 216              		.loc 1 100 3 view .LVU60
 100:Middlewares/ST/STM32_USB_Host_Library/Core/Src/usbh_core.c ****   {
 217              		.loc 1 100 6 is_stmt 0 view .LVU61
 218 0000 0028     		cmp	r0, #0
 219 0002 3CD0     		beq	.L14
  98:Middlewares/ST/STM32_USB_Host_Library/Core/Src/usbh_core.c ****   /* Check whether the USB Host handle is valid */
 220              		.loc 1 98 1 view .LVU62
 221 0004 70B5     		push	{r4, r5, r6, lr}
 222              	.LCFI2:
 223              		.cfi_def_cfa_offset 16
 224              		.cfi_offset 4, -16
 225              		.cfi_offset 5, -12
 226              		.cfi_offset 6, -8
 227              		.cfi_offset 14, -4
 228 0006 8CB0     		sub	sp, sp, #48
 229              	.LCFI3:
ARM GAS  C:\Users\moham\AppData\Local\Temp\ccR7RLkT.s 			page 26


 230              		.cfi_def_cfa_offset 64
 231 0008 0E46     		mov	r6, r1
 232 000a 0546     		mov	r5, r0
 107:Middlewares/ST/STM32_USB_Host_Library/Core/Src/usbh_core.c **** 
 233              		.loc 1 107 3 is_stmt 1 view .LVU63
 107:Middlewares/ST/STM32_USB_Host_Library/Core/Src/usbh_core.c **** 
 234              		.loc 1 107 13 is_stmt 0 view .LVU64
 235 000c 80F8CC23 		strb	r2, [r0, #972]
 110:Middlewares/ST/STM32_USB_Host_Library/Core/Src/usbh_core.c ****   phost->ClassNumber = 0U;
 236              		.loc 1 110 3 is_stmt 1 view .LVU65
 110:Middlewares/ST/STM32_USB_Host_Library/Core/Src/usbh_core.c ****   phost->ClassNumber = 0U;
 237              		.loc 1 110 23 is_stmt 0 view .LVU66
 238 0010 0024     		movs	r4, #0
 239 0012 C0F87C43 		str	r4, [r0, #892]
 111:Middlewares/ST/STM32_USB_Host_Library/Core/Src/usbh_core.c **** 
 240              		.loc 1 111 3 is_stmt 1 view .LVU67
 111:Middlewares/ST/STM32_USB_Host_Library/Core/Src/usbh_core.c **** 
 241              		.loc 1 111 22 is_stmt 0 view .LVU68
 242 0016 C0F88043 		str	r4, [r0, #896]
 114:Middlewares/ST/STM32_USB_Host_Library/Core/Src/usbh_core.c **** 
 243              		.loc 1 114 3 is_stmt 1 view .LVU69
 114:Middlewares/ST/STM32_USB_Host_Library/Core/Src/usbh_core.c **** 
 244              		.loc 1 114 9 is_stmt 0 view .LVU70
 245 001a FFF7FEFF 		bl	DeInitStateMachine
 246              	.LVL17:
 117:Middlewares/ST/STM32_USB_Host_Library/Core/Src/usbh_core.c ****   phost->device.is_connected = 0U;
 247              		.loc 1 117 3 is_stmt 1 view .LVU71
 117:Middlewares/ST/STM32_USB_Host_Library/Core/Src/usbh_core.c ****   phost->device.is_connected = 0U;
 248              		.loc 1 117 29 is_stmt 0 view .LVU72
 249 001e 85F82343 		strb	r4, [r5, #803]
 118:Middlewares/ST/STM32_USB_Host_Library/Core/Src/usbh_core.c ****   phost->device.is_disconnected = 0U;
 250              		.loc 1 118 3 is_stmt 1 view .LVU73
 118:Middlewares/ST/STM32_USB_Host_Library/Core/Src/usbh_core.c ****   phost->device.is_disconnected = 0U;
 251              		.loc 1 118 30 is_stmt 0 view .LVU74
 252 0022 85F82043 		strb	r4, [r5, #800]
 119:Middlewares/ST/STM32_USB_Host_Library/Core/Src/usbh_core.c ****   phost->device.is_ReEnumerated = 0U;
 253              		.loc 1 119 3 is_stmt 1 view .LVU75
 119:Middlewares/ST/STM32_USB_Host_Library/Core/Src/usbh_core.c ****   phost->device.is_ReEnumerated = 0U;
 254              		.loc 1 119 33 is_stmt 0 view .LVU76
 255 0026 85F82143 		strb	r4, [r5, #801]
 120:Middlewares/ST/STM32_USB_Host_Library/Core/Src/usbh_core.c **** 
 256              		.loc 1 120 3 is_stmt 1 view .LVU77
 120:Middlewares/ST/STM32_USB_Host_Library/Core/Src/usbh_core.c **** 
 257              		.loc 1 120 33 is_stmt 0 view .LVU78
 258 002a 85F82243 		strb	r4, [r5, #802]
 123:Middlewares/ST/STM32_USB_Host_Library/Core/Src/usbh_core.c ****   {
 259              		.loc 1 123 3 is_stmt 1 view .LVU79
 123:Middlewares/ST/STM32_USB_Host_Library/Core/Src/usbh_core.c ****   {
 260              		.loc 1 123 6 is_stmt 0 view .LVU80
 261 002e 0EB1     		cbz	r6, .L13
 125:Middlewares/ST/STM32_USB_Host_Library/Core/Src/usbh_core.c ****   }
 262              		.loc 1 125 5 is_stmt 1 view .LVU81
 125:Middlewares/ST/STM32_USB_Host_Library/Core/Src/usbh_core.c ****   }
 263              		.loc 1 125 18 is_stmt 0 view .LVU82
 264 0030 C5F8D463 		str	r6, [r5, #980]
 265              	.L13:
 132:Middlewares/ST/STM32_USB_Host_Library/Core/Src/usbh_core.c ****   phost->os_event = osMessageCreate(osMessageQ(USBH_Queue), NULL);
ARM GAS  C:\Users\moham\AppData\Local\Temp\ccR7RLkT.s 			page 27


 266              		.loc 1 132 3 is_stmt 1 view .LVU83
 267 0034 134C     		ldr	r4, .L19
 268 0036 0DF1200C 		add	ip, sp, #32
 269 003a 94E80F00 		ldm	r4, {r0, r1, r2, r3}
 270 003e 8CE80F00 		stm	ip, {r0, r1, r2, r3}
 133:Middlewares/ST/STM32_USB_Host_Library/Core/Src/usbh_core.c **** 
 271              		.loc 1 133 3 view .LVU84
 133:Middlewares/ST/STM32_USB_Host_Library/Core/Src/usbh_core.c **** 
 272              		.loc 1 133 21 is_stmt 0 view .LVU85
 273 0042 0021     		movs	r1, #0
 274 0044 6046     		mov	r0, ip
 275 0046 FFF7FEFF 		bl	osMessageCreate
 276              	.LVL18:
 133:Middlewares/ST/STM32_USB_Host_Library/Core/Src/usbh_core.c **** 
 277              		.loc 1 133 19 discriminator 1 view .LVU86
 278 004a C5F8D803 		str	r0, [r5, #984]
 137:Middlewares/ST/STM32_USB_Host_Library/Core/Src/usbh_core.c **** #else
 279              		.loc 1 137 3 is_stmt 1 view .LVU87
 280 004e 0DF1040E 		add	lr, sp, #4
 281 0052 04F1100C 		add	ip, r4, #16
 282 0056 BCE80F00 		ldmia	ip!, {r0, r1, r2, r3}
 283 005a AEE80F00 		stmia	lr!, {r0, r1, r2, r3}
 284 005e 9CE80700 		ldm	ip, {r0, r1, r2}
 285 0062 8EE80700 		stm	lr, {r0, r1, r2}
 142:Middlewares/ST/STM32_USB_Host_Library/Core/Src/usbh_core.c **** 
 286              		.loc 1 142 3 view .LVU88
 142:Middlewares/ST/STM32_USB_Host_Library/Core/Src/usbh_core.c **** 
 287              		.loc 1 142 19 is_stmt 0 view .LVU89
 288 0066 2946     		mov	r1, r5
 289 0068 01A8     		add	r0, sp, #4
 290 006a FFF7FEFF 		bl	osThreadCreate
 291              	.LVL19:
 142:Middlewares/ST/STM32_USB_Host_Library/Core/Src/usbh_core.c **** 
 292              		.loc 1 142 17 discriminator 1 view .LVU90
 293 006e C5F8DC03 		str	r0, [r5, #988]
 165:Middlewares/ST/STM32_USB_Host_Library/Core/Src/usbh_core.c **** 
 294              		.loc 1 165 3 is_stmt 1 view .LVU91
 165:Middlewares/ST/STM32_USB_Host_Library/Core/Src/usbh_core.c **** 
 295              		.loc 1 165 9 is_stmt 0 view .LVU92
 296 0072 2846     		mov	r0, r5
 297 0074 FFF7FEFF 		bl	USBH_LL_Init
 298              	.LVL20:
 167:Middlewares/ST/STM32_USB_Host_Library/Core/Src/usbh_core.c **** }
 299              		.loc 1 167 3 is_stmt 1 view .LVU93
 167:Middlewares/ST/STM32_USB_Host_Library/Core/Src/usbh_core.c **** }
 300              		.loc 1 167 10 is_stmt 0 view .LVU94
 301 0078 0020     		movs	r0, #0
 168:Middlewares/ST/STM32_USB_Host_Library/Core/Src/usbh_core.c **** 
 302              		.loc 1 168 1 view .LVU95
 303 007a 0CB0     		add	sp, sp, #48
 304              	.LCFI4:
 305              		.cfi_def_cfa_offset 16
 306              		@ sp needed
 307 007c 70BD     		pop	{r4, r5, r6, pc}
 308              	.LVL21:
 309              	.L14:
 310              	.LCFI5:
ARM GAS  C:\Users\moham\AppData\Local\Temp\ccR7RLkT.s 			page 28


 311              		.cfi_def_cfa_offset 0
 312              		.cfi_restore 4
 313              		.cfi_restore 5
 314              		.cfi_restore 6
 315              		.cfi_restore 14
 103:Middlewares/ST/STM32_USB_Host_Library/Core/Src/usbh_core.c ****   }
 316              		.loc 1 103 12 view .LVU96
 317 007e 0220     		movs	r0, #2
 318              	.LVL22:
 168:Middlewares/ST/STM32_USB_Host_Library/Core/Src/usbh_core.c **** 
 319              		.loc 1 168 1 view .LVU97
 320 0080 7047     		bx	lr
 321              	.L20:
 322 0082 00BF     		.align	2
 323              	.L19:
 324 0084 00000000 		.word	.LANCHOR0
 325              		.cfi_endproc
 326              	.LFE247:
 328              		.section	.text.USBH_DeInit,"ax",%progbits
 329              		.align	1
 330              		.global	USBH_DeInit
 331              		.syntax unified
 332              		.thumb
 333              		.thumb_func
 335              	USBH_DeInit:
 336              	.LVL23:
 337              	.LFB248:
 178:Middlewares/ST/STM32_USB_Host_Library/Core/Src/usbh_core.c ****   (void)DeInitStateMachine(phost);
 338              		.loc 1 178 1 is_stmt 1 view -0
 339              		.cfi_startproc
 340              		@ args = 0, pretend = 0, frame = 0
 341              		@ frame_needed = 0, uses_anonymous_args = 0
 178:Middlewares/ST/STM32_USB_Host_Library/Core/Src/usbh_core.c ****   (void)DeInitStateMachine(phost);
 342              		.loc 1 178 1 is_stmt 0 view .LVU99
 343 0000 10B5     		push	{r4, lr}
 344              	.LCFI6:
 345              		.cfi_def_cfa_offset 8
 346              		.cfi_offset 4, -8
 347              		.cfi_offset 14, -4
 348 0002 0446     		mov	r4, r0
 179:Middlewares/ST/STM32_USB_Host_Library/Core/Src/usbh_core.c **** 
 349              		.loc 1 179 3 is_stmt 1 view .LVU100
 179:Middlewares/ST/STM32_USB_Host_Library/Core/Src/usbh_core.c **** 
 350              		.loc 1 179 9 is_stmt 0 view .LVU101
 351 0004 FFF7FEFF 		bl	DeInitStateMachine
 352              	.LVL24:
 182:Middlewares/ST/STM32_USB_Host_Library/Core/Src/usbh_core.c ****   phost->device.is_connected = 0U;
 353              		.loc 1 182 3 is_stmt 1 view .LVU102
 182:Middlewares/ST/STM32_USB_Host_Library/Core/Src/usbh_core.c ****   phost->device.is_connected = 0U;
 354              		.loc 1 182 29 is_stmt 0 view .LVU103
 355 0008 0023     		movs	r3, #0
 356 000a 84F82333 		strb	r3, [r4, #803]
 183:Middlewares/ST/STM32_USB_Host_Library/Core/Src/usbh_core.c ****   phost->device.is_disconnected = 0U;
 357              		.loc 1 183 3 is_stmt 1 view .LVU104
 183:Middlewares/ST/STM32_USB_Host_Library/Core/Src/usbh_core.c ****   phost->device.is_disconnected = 0U;
 358              		.loc 1 183 30 is_stmt 0 view .LVU105
 359 000e 84F82033 		strb	r3, [r4, #800]
ARM GAS  C:\Users\moham\AppData\Local\Temp\ccR7RLkT.s 			page 29


 184:Middlewares/ST/STM32_USB_Host_Library/Core/Src/usbh_core.c ****   phost->device.is_ReEnumerated = 0U;
 360              		.loc 1 184 3 is_stmt 1 view .LVU106
 184:Middlewares/ST/STM32_USB_Host_Library/Core/Src/usbh_core.c ****   phost->device.is_ReEnumerated = 0U;
 361              		.loc 1 184 33 is_stmt 0 view .LVU107
 362 0012 84F82133 		strb	r3, [r4, #801]
 185:Middlewares/ST/STM32_USB_Host_Library/Core/Src/usbh_core.c ****   phost->device.RstCnt = 0U;
 363              		.loc 1 185 3 is_stmt 1 view .LVU108
 185:Middlewares/ST/STM32_USB_Host_Library/Core/Src/usbh_core.c ****   phost->device.RstCnt = 0U;
 364              		.loc 1 185 33 is_stmt 0 view .LVU109
 365 0016 84F82233 		strb	r3, [r4, #802]
 186:Middlewares/ST/STM32_USB_Host_Library/Core/Src/usbh_core.c ****   phost->device.EnumCnt = 0U;
 366              		.loc 1 186 3 is_stmt 1 view .LVU110
 186:Middlewares/ST/STM32_USB_Host_Library/Core/Src/usbh_core.c ****   phost->device.EnumCnt = 0U;
 367              		.loc 1 186 24 is_stmt 0 view .LVU111
 368 001a 84F81F33 		strb	r3, [r4, #799]
 187:Middlewares/ST/STM32_USB_Host_Library/Core/Src/usbh_core.c **** 
 369              		.loc 1 187 3 is_stmt 1 view .LVU112
 187:Middlewares/ST/STM32_USB_Host_Library/Core/Src/usbh_core.c **** 
 370              		.loc 1 187 25 is_stmt 0 view .LVU113
 371 001e 84F81E33 		strb	r3, [r4, #798]
 189:Middlewares/ST/STM32_USB_Host_Library/Core/Src/usbh_core.c ****   {
 372              		.loc 1 189 3 is_stmt 1 view .LVU114
 189:Middlewares/ST/STM32_USB_Host_Library/Core/Src/usbh_core.c ****   {
 373              		.loc 1 189 12 is_stmt 0 view .LVU115
 374 0022 D4F8D033 		ldr	r3, [r4, #976]
 189:Middlewares/ST/STM32_USB_Host_Library/Core/Src/usbh_core.c ****   {
 375              		.loc 1 189 6 view .LVU116
 376 0026 13B1     		cbz	r3, .L22
 191:Middlewares/ST/STM32_USB_Host_Library/Core/Src/usbh_core.c ****   }
 377              		.loc 1 191 5 is_stmt 1 view .LVU117
 191:Middlewares/ST/STM32_USB_Host_Library/Core/Src/usbh_core.c ****   }
 378              		.loc 1 191 11 is_stmt 0 view .LVU118
 379 0028 2046     		mov	r0, r4
 380 002a FFF7FEFF 		bl	USBH_LL_Stop
 381              	.LVL25:
 382              	.L22:
 198:Middlewares/ST/STM32_USB_Host_Library/Core/Src/usbh_core.c ****   (void)osMessageDelete(phost->os_event);
 383              		.loc 1 198 3 is_stmt 1 view .LVU119
 198:Middlewares/ST/STM32_USB_Host_Library/Core/Src/usbh_core.c ****   (void)osMessageDelete(phost->os_event);
 384              		.loc 1 198 9 is_stmt 0 view .LVU120
 385 002e D4F8DC03 		ldr	r0, [r4, #988]
 386 0032 FFF7FEFF 		bl	osThreadTerminate
 387              	.LVL26:
 199:Middlewares/ST/STM32_USB_Host_Library/Core/Src/usbh_core.c **** 
 388              		.loc 1 199 3 is_stmt 1 view .LVU121
 199:Middlewares/ST/STM32_USB_Host_Library/Core/Src/usbh_core.c **** 
 389              		.loc 1 199 9 is_stmt 0 view .LVU122
 390 0036 D4F8D803 		ldr	r0, [r4, #984]
 391 003a FFF7FEFF 		bl	osMessageDelete
 392              	.LVL27:
 210:Middlewares/ST/STM32_USB_Host_Library/Core/Src/usbh_core.c **** }
 393              		.loc 1 210 3 is_stmt 1 view .LVU123
 211:Middlewares/ST/STM32_USB_Host_Library/Core/Src/usbh_core.c **** 
 394              		.loc 1 211 1 is_stmt 0 view .LVU124
 395 003e 0020     		movs	r0, #0
 396 0040 10BD     		pop	{r4, pc}
 211:Middlewares/ST/STM32_USB_Host_Library/Core/Src/usbh_core.c **** 
ARM GAS  C:\Users\moham\AppData\Local\Temp\ccR7RLkT.s 			page 30


 397              		.loc 1 211 1 view .LVU125
 398              		.cfi_endproc
 399              	.LFE248:
 401              		.section	.text.USBH_RegisterClass,"ax",%progbits
 402              		.align	1
 403              		.global	USBH_RegisterClass
 404              		.syntax unified
 405              		.thumb
 406              		.thumb_func
 408              	USBH_RegisterClass:
 409              	.LVL28:
 410              	.LFB250:
 267:Middlewares/ST/STM32_USB_Host_Library/Core/Src/usbh_core.c ****   USBH_StatusTypeDef status = USBH_OK;
 411              		.loc 1 267 1 is_stmt 1 view -0
 412              		.cfi_startproc
 413              		@ args = 0, pretend = 0, frame = 0
 414              		@ frame_needed = 0, uses_anonymous_args = 0
 415              		@ link register save eliminated.
 268:Middlewares/ST/STM32_USB_Host_Library/Core/Src/usbh_core.c **** 
 416              		.loc 1 268 3 view .LVU127
 270:Middlewares/ST/STM32_USB_Host_Library/Core/Src/usbh_core.c ****   {
 417              		.loc 1 270 3 view .LVU128
 270:Middlewares/ST/STM32_USB_Host_Library/Core/Src/usbh_core.c ****   {
 418              		.loc 1 270 6 is_stmt 0 view .LVU129
 419 0000 0A46     		mov	r2, r1
 420 0002 51B1     		cbz	r1, .L26
 272:Middlewares/ST/STM32_USB_Host_Library/Core/Src/usbh_core.c ****     {
 421              		.loc 1 272 5 is_stmt 1 view .LVU130
 272:Middlewares/ST/STM32_USB_Host_Library/Core/Src/usbh_core.c ****     {
 422              		.loc 1 272 14 is_stmt 0 view .LVU131
 423 0004 D0F88033 		ldr	r3, [r0, #896]
 272:Middlewares/ST/STM32_USB_Host_Library/Core/Src/usbh_core.c ****     {
 424              		.loc 1 272 8 view .LVU132
 425 0008 4BB9     		cbnz	r3, .L27
 275:Middlewares/ST/STM32_USB_Host_Library/Core/Src/usbh_core.c ****       status = USBH_OK;
 426              		.loc 1 275 7 is_stmt 1 view .LVU133
 275:Middlewares/ST/STM32_USB_Host_Library/Core/Src/usbh_core.c ****       status = USBH_OK;
 427              		.loc 1 275 39 is_stmt 0 view .LVU134
 428 000a 591C     		adds	r1, r3, #1
 429              	.LVL29:
 275:Middlewares/ST/STM32_USB_Host_Library/Core/Src/usbh_core.c ****       status = USBH_OK;
 430              		.loc 1 275 39 view .LVU135
 431 000c C0F88013 		str	r1, [r0, #896]
 275:Middlewares/ST/STM32_USB_Host_Library/Core/Src/usbh_core.c ****       status = USBH_OK;
 432              		.loc 1 275 43 view .LVU136
 433 0010 DE33     		adds	r3, r3, #222
 434 0012 40F82320 		str	r2, [r0, r3, lsl #2]
 276:Middlewares/ST/STM32_USB_Host_Library/Core/Src/usbh_core.c ****     }
 435              		.loc 1 276 7 is_stmt 1 view .LVU137
 276:Middlewares/ST/STM32_USB_Host_Library/Core/Src/usbh_core.c ****     }
 436              		.loc 1 276 14 is_stmt 0 view .LVU138
 437 0016 0020     		movs	r0, #0
 438              	.LVL30:
 276:Middlewares/ST/STM32_USB_Host_Library/Core/Src/usbh_core.c ****     }
 439              		.loc 1 276 14 view .LVU139
 440 0018 7047     		bx	lr
 441              	.LVL31:
ARM GAS  C:\Users\moham\AppData\Local\Temp\ccR7RLkT.s 			page 31


 442              	.L26:
 287:Middlewares/ST/STM32_USB_Host_Library/Core/Src/usbh_core.c ****   }
 443              		.loc 1 287 12 view .LVU140
 444 001a 0220     		movs	r0, #2
 445              	.LVL32:
 287:Middlewares/ST/STM32_USB_Host_Library/Core/Src/usbh_core.c ****   }
 446              		.loc 1 287 12 view .LVU141
 447 001c 7047     		bx	lr
 448              	.LVL33:
 449              	.L27:
 281:Middlewares/ST/STM32_USB_Host_Library/Core/Src/usbh_core.c ****     }
 450              		.loc 1 281 14 view .LVU142
 451 001e 0220     		movs	r0, #2
 452              	.LVL34:
 290:Middlewares/ST/STM32_USB_Host_Library/Core/Src/usbh_core.c **** }
 453              		.loc 1 290 3 is_stmt 1 view .LVU143
 291:Middlewares/ST/STM32_USB_Host_Library/Core/Src/usbh_core.c **** 
 454              		.loc 1 291 1 is_stmt 0 view .LVU144
 455 0020 7047     		bx	lr
 456              		.cfi_endproc
 457              	.LFE250:
 459              		.section	.text.USBH_SelectInterface,"ax",%progbits
 460              		.align	1
 461              		.global	USBH_SelectInterface
 462              		.syntax unified
 463              		.thumb
 464              		.thumb_func
 466              	USBH_SelectInterface:
 467              	.LVL35:
 468              	.LFB251:
 302:Middlewares/ST/STM32_USB_Host_Library/Core/Src/usbh_core.c ****   USBH_StatusTypeDef status = USBH_OK;
 469              		.loc 1 302 1 is_stmt 1 view -0
 470              		.cfi_startproc
 471              		@ args = 0, pretend = 0, frame = 0
 472              		@ frame_needed = 0, uses_anonymous_args = 0
 473              		@ link register save eliminated.
 303:Middlewares/ST/STM32_USB_Host_Library/Core/Src/usbh_core.c **** 
 474              		.loc 1 303 3 view .LVU146
 305:Middlewares/ST/STM32_USB_Host_Library/Core/Src/usbh_core.c ****   {
 475              		.loc 1 305 3 view .LVU147
 305:Middlewares/ST/STM32_USB_Host_Library/Core/Src/usbh_core.c ****   {
 476              		.loc 1 305 40 is_stmt 0 view .LVU148
 477 0000 90F83C33 		ldrb	r3, [r0, #828]	@ zero_extendqisi2
 305:Middlewares/ST/STM32_USB_Host_Library/Core/Src/usbh_core.c ****   {
 478              		.loc 1 305 6 view .LVU149
 479 0004 8B42     		cmp	r3, r1
 480 0006 03D9     		bls	.L30
 307:Middlewares/ST/STM32_USB_Host_Library/Core/Src/usbh_core.c ****     USBH_UsrLog("Switching to Interface (#%d)", interface);
 481              		.loc 1 307 5 is_stmt 1 view .LVU150
 307:Middlewares/ST/STM32_USB_Host_Library/Core/Src/usbh_core.c ****     USBH_UsrLog("Switching to Interface (#%d)", interface);
 482              		.loc 1 307 37 is_stmt 0 view .LVU151
 483 0008 80F82413 		strb	r1, [r0, #804]
 308:Middlewares/ST/STM32_USB_Host_Library/Core/Src/usbh_core.c ****     USBH_UsrLog("Class    : %xh", phost->device.CfgDesc.Itf_Desc[interface].bInterfaceClass);
 484              		.loc 1 308 5 is_stmt 1 view .LVU152
 308:Middlewares/ST/STM32_USB_Host_Library/Core/Src/usbh_core.c ****     USBH_UsrLog("Class    : %xh", phost->device.CfgDesc.Itf_Desc[interface].bInterfaceClass);
 485              		.loc 1 308 5 view .LVU153
 308:Middlewares/ST/STM32_USB_Host_Library/Core/Src/usbh_core.c ****     USBH_UsrLog("Class    : %xh", phost->device.CfgDesc.Itf_Desc[interface].bInterfaceClass);
ARM GAS  C:\Users\moham\AppData\Local\Temp\ccR7RLkT.s 			page 32


 486              		.loc 1 308 5 view .LVU154
 309:Middlewares/ST/STM32_USB_Host_Library/Core/Src/usbh_core.c ****     USBH_UsrLog("SubClass : %xh", phost->device.CfgDesc.Itf_Desc[interface].bInterfaceSubClass);
 487              		.loc 1 309 5 view .LVU155
 309:Middlewares/ST/STM32_USB_Host_Library/Core/Src/usbh_core.c ****     USBH_UsrLog("SubClass : %xh", phost->device.CfgDesc.Itf_Desc[interface].bInterfaceSubClass);
 488              		.loc 1 309 5 view .LVU156
 309:Middlewares/ST/STM32_USB_Host_Library/Core/Src/usbh_core.c ****     USBH_UsrLog("SubClass : %xh", phost->device.CfgDesc.Itf_Desc[interface].bInterfaceSubClass);
 489              		.loc 1 309 5 view .LVU157
 310:Middlewares/ST/STM32_USB_Host_Library/Core/Src/usbh_core.c ****     USBH_UsrLog("Protocol : %xh", phost->device.CfgDesc.Itf_Desc[interface].bInterfaceProtocol);
 490              		.loc 1 310 5 view .LVU158
 310:Middlewares/ST/STM32_USB_Host_Library/Core/Src/usbh_core.c ****     USBH_UsrLog("Protocol : %xh", phost->device.CfgDesc.Itf_Desc[interface].bInterfaceProtocol);
 491              		.loc 1 310 5 view .LVU159
 310:Middlewares/ST/STM32_USB_Host_Library/Core/Src/usbh_core.c ****     USBH_UsrLog("Protocol : %xh", phost->device.CfgDesc.Itf_Desc[interface].bInterfaceProtocol);
 492              		.loc 1 310 5 view .LVU160
 311:Middlewares/ST/STM32_USB_Host_Library/Core/Src/usbh_core.c ****   }
 493              		.loc 1 311 5 view .LVU161
 311:Middlewares/ST/STM32_USB_Host_Library/Core/Src/usbh_core.c ****   }
 494              		.loc 1 311 5 view .LVU162
 311:Middlewares/ST/STM32_USB_Host_Library/Core/Src/usbh_core.c ****   }
 495              		.loc 1 311 5 view .LVU163
 303:Middlewares/ST/STM32_USB_Host_Library/Core/Src/usbh_core.c **** 
 496              		.loc 1 303 22 is_stmt 0 view .LVU164
 497 000c 0020     		movs	r0, #0
 498              	.LVL36:
 303:Middlewares/ST/STM32_USB_Host_Library/Core/Src/usbh_core.c **** 
 499              		.loc 1 303 22 view .LVU165
 500 000e 7047     		bx	lr
 501              	.LVL37:
 502              	.L30:
 316:Middlewares/ST/STM32_USB_Host_Library/Core/Src/usbh_core.c ****   }
 503              		.loc 1 316 12 view .LVU166
 504 0010 0220     		movs	r0, #2
 505              	.LVL38:
 319:Middlewares/ST/STM32_USB_Host_Library/Core/Src/usbh_core.c **** }
 506              		.loc 1 319 3 is_stmt 1 view .LVU167
 320:Middlewares/ST/STM32_USB_Host_Library/Core/Src/usbh_core.c **** 
 507              		.loc 1 320 1 is_stmt 0 view .LVU168
 508 0012 7047     		bx	lr
 509              		.cfi_endproc
 510              	.LFE251:
 512              		.section	.text.USBH_GetActiveClass,"ax",%progbits
 513              		.align	1
 514              		.global	USBH_GetActiveClass
 515              		.syntax unified
 516              		.thumb
 517              		.thumb_func
 519              	USBH_GetActiveClass:
 520              	.LVL39:
 521              	.LFB252:
 331:Middlewares/ST/STM32_USB_Host_Library/Core/Src/usbh_core.c ****   return (phost->device.CfgDesc.Itf_Desc[0].bInterfaceClass);
 522              		.loc 1 331 1 is_stmt 1 view -0
 523              		.cfi_startproc
 524              		@ args = 0, pretend = 0, frame = 0
 525              		@ frame_needed = 0, uses_anonymous_args = 0
 526              		@ link register save eliminated.
 332:Middlewares/ST/STM32_USB_Host_Library/Core/Src/usbh_core.c **** }
 527              		.loc 1 332 3 view .LVU170
 333:Middlewares/ST/STM32_USB_Host_Library/Core/Src/usbh_core.c **** 
ARM GAS  C:\Users\moham\AppData\Local\Temp\ccR7RLkT.s 			page 33


 528              		.loc 1 333 1 is_stmt 0 view .LVU171
 529 0000 90F84703 		ldrb	r0, [r0, #839]	@ zero_extendqisi2
 530              	.LVL40:
 333:Middlewares/ST/STM32_USB_Host_Library/Core/Src/usbh_core.c **** 
 531              		.loc 1 333 1 view .LVU172
 532 0004 7047     		bx	lr
 533              		.cfi_endproc
 534              	.LFE252:
 536              		.section	.text.USBH_FindInterface,"ax",%progbits
 537              		.align	1
 538              		.global	USBH_FindInterface
 539              		.syntax unified
 540              		.thumb
 541              		.thumb_func
 543              	USBH_FindInterface:
 544              	.LVL41:
 545              	.LFB253:
 347:Middlewares/ST/STM32_USB_Host_Library/Core/Src/usbh_core.c ****   USBH_InterfaceDescTypeDef *pif;
 546              		.loc 1 347 1 is_stmt 1 view -0
 547              		.cfi_startproc
 548              		@ args = 0, pretend = 0, frame = 0
 549              		@ frame_needed = 0, uses_anonymous_args = 0
 347:Middlewares/ST/STM32_USB_Host_Library/Core/Src/usbh_core.c ****   USBH_InterfaceDescTypeDef *pif;
 550              		.loc 1 347 1 is_stmt 0 view .LVU174
 551 0000 10B5     		push	{r4, lr}
 552              	.LCFI7:
 553              		.cfi_def_cfa_offset 8
 554              		.cfi_offset 4, -8
 555              		.cfi_offset 14, -4
 556 0002 0446     		mov	r4, r0
 348:Middlewares/ST/STM32_USB_Host_Library/Core/Src/usbh_core.c ****   USBH_CfgDescTypeDef *pcfg;
 557              		.loc 1 348 3 is_stmt 1 view .LVU175
 349:Middlewares/ST/STM32_USB_Host_Library/Core/Src/usbh_core.c ****   uint8_t if_ix = 0U;
 558              		.loc 1 349 3 view .LVU176
 350:Middlewares/ST/STM32_USB_Host_Library/Core/Src/usbh_core.c **** 
 559              		.loc 1 350 3 view .LVU177
 560              	.LVL42:
 352:Middlewares/ST/STM32_USB_Host_Library/Core/Src/usbh_core.c ****   pcfg = &phost->device.CfgDesc;
 561              		.loc 1 352 3 view .LVU178
 353:Middlewares/ST/STM32_USB_Host_Library/Core/Src/usbh_core.c **** 
 562              		.loc 1 353 3 view .LVU179
 355:Middlewares/ST/STM32_USB_Host_Library/Core/Src/usbh_core.c ****   {
 563              		.loc 1 355 3 view .LVU180
 350:Middlewares/ST/STM32_USB_Host_Library/Core/Src/usbh_core.c **** 
 564              		.loc 1 350 11 is_stmt 0 view .LVU181
 565 0004 0020     		movs	r0, #0
 566              	.LVL43:
 355:Middlewares/ST/STM32_USB_Host_Library/Core/Src/usbh_core.c ****   {
 567              		.loc 1 355 9 view .LVU182
 568 0006 0BE0     		b	.L33
 569              	.LVL44:
 570              	.L36:
 360:Middlewares/ST/STM32_USB_Host_Library/Core/Src/usbh_core.c ****     {
 571              		.loc 1 360 14 view .LVU183
 572 0008 4FF01A0C 		mov	ip, #26
 573 000c 0CFB0E4E 		mla	lr, ip, lr, r4
 574 0010 9EF849C3 		ldrb	ip, [lr, #841]	@ zero_extendqisi2
ARM GAS  C:\Users\moham\AppData\Local\Temp\ccR7RLkT.s 			page 34


 359:Middlewares/ST/STM32_USB_Host_Library/Core/Src/usbh_core.c ****         ((pif->bInterfaceProtocol == Protocol) || (Protocol == 0xFFU)))
 575              		.loc 1 359 72 discriminator 1 view .LVU184
 576 0014 9C45     		cmp	ip, r3
 577 0016 1CD0     		beq	.L37
 360:Middlewares/ST/STM32_USB_Host_Library/Core/Src/usbh_core.c ****     {
 578              		.loc 1 360 48 view .LVU185
 579 0018 FF2B     		cmp	r3, #255
 580 001a 1AD0     		beq	.L37
 581              	.L35:
 364:Middlewares/ST/STM32_USB_Host_Library/Core/Src/usbh_core.c ****   }
 582              		.loc 1 364 5 is_stmt 1 view .LVU186
 364:Middlewares/ST/STM32_USB_Host_Library/Core/Src/usbh_core.c ****   }
 583              		.loc 1 364 10 is_stmt 0 view .LVU187
 584 001c 0130     		adds	r0, r0, #1
 585              	.LVL45:
 364:Middlewares/ST/STM32_USB_Host_Library/Core/Src/usbh_core.c ****   }
 586              		.loc 1 364 10 view .LVU188
 587 001e C0B2     		uxtb	r0, r0
 588              	.LVL46:
 589              	.L33:
 355:Middlewares/ST/STM32_USB_Host_Library/Core/Src/usbh_core.c ****   {
 590              		.loc 1 355 16 is_stmt 1 view .LVU189
 591 0020 0128     		cmp	r0, #1
 592 0022 15D8     		bhi	.L40
 357:Middlewares/ST/STM32_USB_Host_Library/Core/Src/usbh_core.c ****     if (((pif->bInterfaceClass == Class) || (Class == 0xFFU)) &&
 593              		.loc 1 357 5 view .LVU190
 357:Middlewares/ST/STM32_USB_Host_Library/Core/Src/usbh_core.c ****     if (((pif->bInterfaceClass == Class) || (Class == 0xFFU)) &&
 594              		.loc 1 357 26 is_stmt 0 view .LVU191
 595 0024 8646     		mov	lr, r0
 596              	.LVL47:
 358:Middlewares/ST/STM32_USB_Host_Library/Core/Src/usbh_core.c ****         ((pif->bInterfaceSubClass == SubClass) || (SubClass == 0xFFU)) &&
 597              		.loc 1 358 5 is_stmt 1 view .LVU192
 358:Middlewares/ST/STM32_USB_Host_Library/Core/Src/usbh_core.c ****         ((pif->bInterfaceSubClass == SubClass) || (SubClass == 0xFFU)) &&
 598              		.loc 1 358 14 is_stmt 0 view .LVU193
 599 0026 4FF01A0C 		mov	ip, #26
 600 002a 0CFB004C 		mla	ip, ip, r0, r4
 601 002e 9CF847C3 		ldrb	ip, [ip, #839]	@ zero_extendqisi2
 358:Middlewares/ST/STM32_USB_Host_Library/Core/Src/usbh_core.c ****         ((pif->bInterfaceSubClass == SubClass) || (SubClass == 0xFFU)) &&
 602              		.loc 1 358 8 view .LVU194
 603 0032 8C45     		cmp	ip, r1
 604 0034 01D0     		beq	.L34
 358:Middlewares/ST/STM32_USB_Host_Library/Core/Src/usbh_core.c ****         ((pif->bInterfaceSubClass == SubClass) || (SubClass == 0xFFU)) &&
 605              		.loc 1 358 42 discriminator 2 view .LVU195
 606 0036 FF29     		cmp	r1, #255
 607 0038 F0D1     		bne	.L35
 608              	.L34:
 359:Middlewares/ST/STM32_USB_Host_Library/Core/Src/usbh_core.c ****         ((pif->bInterfaceProtocol == Protocol) || (Protocol == 0xFFU)))
 609              		.loc 1 359 14 view .LVU196
 610 003a 4FF01A0C 		mov	ip, #26
 611 003e 0CFB0E4C 		mla	ip, ip, lr, r4
 612 0042 9CF848C3 		ldrb	ip, [ip, #840]	@ zero_extendqisi2
 358:Middlewares/ST/STM32_USB_Host_Library/Core/Src/usbh_core.c ****         ((pif->bInterfaceSubClass == SubClass) || (SubClass == 0xFFU)) &&
 613              		.loc 1 358 63 discriminator 3 view .LVU197
 614 0046 9445     		cmp	ip, r2
 615 0048 DED0     		beq	.L36
 359:Middlewares/ST/STM32_USB_Host_Library/Core/Src/usbh_core.c ****         ((pif->bInterfaceProtocol == Protocol) || (Protocol == 0xFFU)))
 616              		.loc 1 359 48 view .LVU198
ARM GAS  C:\Users\moham\AppData\Local\Temp\ccR7RLkT.s 			page 35


 617 004a FF2A     		cmp	r2, #255
 618 004c E6D1     		bne	.L35
 619 004e DBE7     		b	.L36
 620              	.LVL48:
 621              	.L40:
 366:Middlewares/ST/STM32_USB_Host_Library/Core/Src/usbh_core.c **** }
 622              		.loc 1 366 10 view .LVU199
 623 0050 FF20     		movs	r0, #255
 624              	.LVL49:
 625              	.L37:
 367:Middlewares/ST/STM32_USB_Host_Library/Core/Src/usbh_core.c **** 
 626              		.loc 1 367 1 view .LVU200
 627 0052 10BD     		pop	{r4, pc}
 367:Middlewares/ST/STM32_USB_Host_Library/Core/Src/usbh_core.c **** 
 628              		.loc 1 367 1 view .LVU201
 629              		.cfi_endproc
 630              	.LFE253:
 632              		.section	.text.USBH_FindInterfaceIndex,"ax",%progbits
 633              		.align	1
 634              		.global	USBH_FindInterfaceIndex
 635              		.syntax unified
 636              		.thumb
 637              		.thumb_func
 639              	USBH_FindInterfaceIndex:
 640              	.LVL50:
 641              	.LFB254:
 380:Middlewares/ST/STM32_USB_Host_Library/Core/Src/usbh_core.c ****   USBH_InterfaceDescTypeDef *pif;
 642              		.loc 1 380 1 is_stmt 1 view -0
 643              		.cfi_startproc
 644              		@ args = 0, pretend = 0, frame = 0
 645              		@ frame_needed = 0, uses_anonymous_args = 0
 646              		@ link register save eliminated.
 380:Middlewares/ST/STM32_USB_Host_Library/Core/Src/usbh_core.c ****   USBH_InterfaceDescTypeDef *pif;
 647              		.loc 1 380 1 is_stmt 0 view .LVU203
 648 0000 8446     		mov	ip, r0
 381:Middlewares/ST/STM32_USB_Host_Library/Core/Src/usbh_core.c ****   USBH_CfgDescTypeDef *pcfg;
 649              		.loc 1 381 3 is_stmt 1 view .LVU204
 382:Middlewares/ST/STM32_USB_Host_Library/Core/Src/usbh_core.c ****   uint8_t if_ix = 0U;
 650              		.loc 1 382 3 view .LVU205
 383:Middlewares/ST/STM32_USB_Host_Library/Core/Src/usbh_core.c **** 
 651              		.loc 1 383 3 view .LVU206
 652              	.LVL51:
 385:Middlewares/ST/STM32_USB_Host_Library/Core/Src/usbh_core.c ****   pcfg = &phost->device.CfgDesc;
 653              		.loc 1 385 3 view .LVU207
 386:Middlewares/ST/STM32_USB_Host_Library/Core/Src/usbh_core.c **** 
 654              		.loc 1 386 3 view .LVU208
 388:Middlewares/ST/STM32_USB_Host_Library/Core/Src/usbh_core.c ****   {
 655              		.loc 1 388 3 view .LVU209
 383:Middlewares/ST/STM32_USB_Host_Library/Core/Src/usbh_core.c **** 
 656              		.loc 1 383 11 is_stmt 0 view .LVU210
 657 0002 0020     		movs	r0, #0
 658              	.LVL52:
 388:Middlewares/ST/STM32_USB_Host_Library/Core/Src/usbh_core.c ****   {
 659              		.loc 1 388 9 view .LVU211
 660 0004 01E0     		b	.L42
 661              	.LVL53:
 662              	.L43:
ARM GAS  C:\Users\moham\AppData\Local\Temp\ccR7RLkT.s 			page 36


 395:Middlewares/ST/STM32_USB_Host_Library/Core/Src/usbh_core.c ****   }
 663              		.loc 1 395 5 is_stmt 1 view .LVU212
 395:Middlewares/ST/STM32_USB_Host_Library/Core/Src/usbh_core.c ****   }
 664              		.loc 1 395 10 is_stmt 0 view .LVU213
 665 0006 0130     		adds	r0, r0, #1
 666              	.LVL54:
 395:Middlewares/ST/STM32_USB_Host_Library/Core/Src/usbh_core.c ****   }
 667              		.loc 1 395 10 view .LVU214
 668 0008 C0B2     		uxtb	r0, r0
 669              	.LVL55:
 670              	.L42:
 388:Middlewares/ST/STM32_USB_Host_Library/Core/Src/usbh_core.c ****   {
 671              		.loc 1 388 16 is_stmt 1 view .LVU215
 672 000a 0128     		cmp	r0, #1
 673 000c 0ED8     		bhi	.L46
 390:Middlewares/ST/STM32_USB_Host_Library/Core/Src/usbh_core.c ****     if ((pif->bInterfaceNumber == interface_number) && (pif->bAlternateSetting == alt_settings))
 674              		.loc 1 390 5 view .LVU216
 675              	.LVL56:
 391:Middlewares/ST/STM32_USB_Host_Library/Core/Src/usbh_core.c ****     {
 676              		.loc 1 391 5 view .LVU217
 391:Middlewares/ST/STM32_USB_Host_Library/Core/Src/usbh_core.c ****     {
 677              		.loc 1 391 13 is_stmt 0 view .LVU218
 678 000e 1A23     		movs	r3, #26
 679 0010 03FB00C3 		mla	r3, r3, r0, ip
 680 0014 93F84433 		ldrb	r3, [r3, #836]	@ zero_extendqisi2
 391:Middlewares/ST/STM32_USB_Host_Library/Core/Src/usbh_core.c ****     {
 681              		.loc 1 391 8 view .LVU219
 682 0018 8B42     		cmp	r3, r1
 683 001a F4D1     		bne	.L43
 391:Middlewares/ST/STM32_USB_Host_Library/Core/Src/usbh_core.c ****     {
 684              		.loc 1 391 60 discriminator 1 view .LVU220
 685 001c 1A23     		movs	r3, #26
 686 001e 03FB00C3 		mla	r3, r3, r0, ip
 687 0022 93F84533 		ldrb	r3, [r3, #837]	@ zero_extendqisi2
 391:Middlewares/ST/STM32_USB_Host_Library/Core/Src/usbh_core.c ****     {
 688              		.loc 1 391 53 discriminator 1 view .LVU221
 689 0026 9342     		cmp	r3, r2
 690 0028 EDD1     		bne	.L43
 691 002a 00E0     		b	.L44
 692              	.LVL57:
 693              	.L46:
 397:Middlewares/ST/STM32_USB_Host_Library/Core/Src/usbh_core.c **** }
 694              		.loc 1 397 10 view .LVU222
 695 002c FF20     		movs	r0, #255
 696              	.LVL58:
 697              	.L44:
 398:Middlewares/ST/STM32_USB_Host_Library/Core/Src/usbh_core.c **** 
 698              		.loc 1 398 1 view .LVU223
 699 002e 7047     		bx	lr
 700              		.cfi_endproc
 701              	.LFE254:
 703              		.section	.text.USBH_Start,"ax",%progbits
 704              		.align	1
 705              		.global	USBH_Start
 706              		.syntax unified
 707              		.thumb
 708              		.thumb_func
ARM GAS  C:\Users\moham\AppData\Local\Temp\ccR7RLkT.s 			page 37


 710              	USBH_Start:
 711              	.LVL59:
 712              	.LFB255:
 408:Middlewares/ST/STM32_USB_Host_Library/Core/Src/usbh_core.c ****   /* Start the low level driver  */
 713              		.loc 1 408 1 is_stmt 1 view -0
 714              		.cfi_startproc
 715              		@ args = 0, pretend = 0, frame = 0
 716              		@ frame_needed = 0, uses_anonymous_args = 0
 408:Middlewares/ST/STM32_USB_Host_Library/Core/Src/usbh_core.c ****   /* Start the low level driver  */
 717              		.loc 1 408 1 is_stmt 0 view .LVU225
 718 0000 10B5     		push	{r4, lr}
 719              	.LCFI8:
 720              		.cfi_def_cfa_offset 8
 721              		.cfi_offset 4, -8
 722              		.cfi_offset 14, -4
 723 0002 0446     		mov	r4, r0
 410:Middlewares/ST/STM32_USB_Host_Library/Core/Src/usbh_core.c **** 
 724              		.loc 1 410 3 is_stmt 1 view .LVU226
 410:Middlewares/ST/STM32_USB_Host_Library/Core/Src/usbh_core.c **** 
 725              		.loc 1 410 9 is_stmt 0 view .LVU227
 726 0004 FFF7FEFF 		bl	USBH_LL_Start
 727              	.LVL60:
 413:Middlewares/ST/STM32_USB_Host_Library/Core/Src/usbh_core.c **** 
 728              		.loc 1 413 3 is_stmt 1 view .LVU228
 413:Middlewares/ST/STM32_USB_Host_Library/Core/Src/usbh_core.c **** 
 729              		.loc 1 413 9 is_stmt 0 view .LVU229
 730 0008 0121     		movs	r1, #1
 731 000a 2046     		mov	r0, r4
 732 000c FFF7FEFF 		bl	USBH_LL_DriverVBUS
 733              	.LVL61:
 415:Middlewares/ST/STM32_USB_Host_Library/Core/Src/usbh_core.c **** }
 734              		.loc 1 415 3 is_stmt 1 view .LVU230
 416:Middlewares/ST/STM32_USB_Host_Library/Core/Src/usbh_core.c **** 
 735              		.loc 1 416 1 is_stmt 0 view .LVU231
 736 0010 0020     		movs	r0, #0
 737 0012 10BD     		pop	{r4, pc}
 416:Middlewares/ST/STM32_USB_Host_Library/Core/Src/usbh_core.c **** 
 738              		.loc 1 416 1 view .LVU232
 739              		.cfi_endproc
 740              	.LFE255:
 742              		.section	.text.USBH_Stop,"ax",%progbits
 743              		.align	1
 744              		.global	USBH_Stop
 745              		.syntax unified
 746              		.thumb
 747              		.thumb_func
 749              	USBH_Stop:
 750              	.LVL62:
 751              	.LFB256:
 426:Middlewares/ST/STM32_USB_Host_Library/Core/Src/usbh_core.c ****   /* DeActivate VBUS on the port */
 752              		.loc 1 426 1 is_stmt 1 view -0
 753              		.cfi_startproc
 754              		@ args = 0, pretend = 0, frame = 0
 755              		@ frame_needed = 0, uses_anonymous_args = 0
 426:Middlewares/ST/STM32_USB_Host_Library/Core/Src/usbh_core.c ****   /* DeActivate VBUS on the port */
 756              		.loc 1 426 1 is_stmt 0 view .LVU234
 757 0000 10B5     		push	{r4, lr}
ARM GAS  C:\Users\moham\AppData\Local\Temp\ccR7RLkT.s 			page 38


 758              	.LCFI9:
 759              		.cfi_def_cfa_offset 8
 760              		.cfi_offset 4, -8
 761              		.cfi_offset 14, -4
 762 0002 0446     		mov	r4, r0
 428:Middlewares/ST/STM32_USB_Host_Library/Core/Src/usbh_core.c **** 
 763              		.loc 1 428 3 is_stmt 1 view .LVU235
 428:Middlewares/ST/STM32_USB_Host_Library/Core/Src/usbh_core.c **** 
 764              		.loc 1 428 9 is_stmt 0 view .LVU236
 765 0004 0021     		movs	r1, #0
 766 0006 FFF7FEFF 		bl	USBH_LL_DriverVBUS
 767              	.LVL63:
 431:Middlewares/ST/STM32_USB_Host_Library/Core/Src/usbh_core.c **** 
 768              		.loc 1 431 3 is_stmt 1 view .LVU237
 431:Middlewares/ST/STM32_USB_Host_Library/Core/Src/usbh_core.c **** 
 769              		.loc 1 431 9 is_stmt 0 view .LVU238
 770 000a 2046     		mov	r0, r4
 771 000c FFF7FEFF 		bl	USBH_LL_Stop
 772              	.LVL64:
 434:Middlewares/ST/STM32_USB_Host_Library/Core/Src/usbh_core.c ****   (void)USBH_FreePipe(phost, phost->Control.pipe_out);
 773              		.loc 1 434 3 is_stmt 1 view .LVU239
 434:Middlewares/ST/STM32_USB_Host_Library/Core/Src/usbh_core.c ****   (void)USBH_FreePipe(phost, phost->Control.pipe_out);
 774              		.loc 1 434 9 is_stmt 0 view .LVU240
 775 0010 2179     		ldrb	r1, [r4, #4]	@ zero_extendqisi2
 776 0012 2046     		mov	r0, r4
 777 0014 FFF7FEFF 		bl	USBH_FreePipe
 778              	.LVL65:
 435:Middlewares/ST/STM32_USB_Host_Library/Core/Src/usbh_core.c **** 
 779              		.loc 1 435 3 is_stmt 1 view .LVU241
 435:Middlewares/ST/STM32_USB_Host_Library/Core/Src/usbh_core.c **** 
 780              		.loc 1 435 9 is_stmt 0 view .LVU242
 781 0018 6179     		ldrb	r1, [r4, #5]	@ zero_extendqisi2
 782 001a 2046     		mov	r0, r4
 783 001c FFF7FEFF 		bl	USBH_FreePipe
 784              	.LVL66:
 437:Middlewares/ST/STM32_USB_Host_Library/Core/Src/usbh_core.c **** }
 785              		.loc 1 437 3 is_stmt 1 view .LVU243
 438:Middlewares/ST/STM32_USB_Host_Library/Core/Src/usbh_core.c **** 
 786              		.loc 1 438 1 is_stmt 0 view .LVU244
 787 0020 0020     		movs	r0, #0
 788 0022 10BD     		pop	{r4, pc}
 438:Middlewares/ST/STM32_USB_Host_Library/Core/Src/usbh_core.c **** 
 789              		.loc 1 438 1 view .LVU245
 790              		.cfi_endproc
 791              	.LFE256:
 793              		.section	.text.USBH_LL_SetTimer,"ax",%progbits
 794              		.align	1
 795              		.global	USBH_LL_SetTimer
 796              		.syntax unified
 797              		.thumb
 798              		.thumb_func
 800              	USBH_LL_SetTimer:
 801              	.LVL67:
 802              	.LFB260:
1115:Middlewares/ST/STM32_USB_Host_Library/Core/Src/usbh_core.c ****   phost->Timer = time;
 803              		.loc 1 1115 1 is_stmt 1 view -0
 804              		.cfi_startproc
ARM GAS  C:\Users\moham\AppData\Local\Temp\ccR7RLkT.s 			page 39


 805              		@ args = 0, pretend = 0, frame = 0
 806              		@ frame_needed = 0, uses_anonymous_args = 0
 807              		@ link register save eliminated.
1116:Middlewares/ST/STM32_USB_Host_Library/Core/Src/usbh_core.c **** }
 808              		.loc 1 1116 3 view .LVU247
1116:Middlewares/ST/STM32_USB_Host_Library/Core/Src/usbh_core.c **** }
 809              		.loc 1 1116 16 is_stmt 0 view .LVU248
 810 0000 C0F8C413 		str	r1, [r0, #964]
1117:Middlewares/ST/STM32_USB_Host_Library/Core/Src/usbh_core.c **** 
 811              		.loc 1 1117 1 view .LVU249
 812 0004 7047     		bx	lr
 813              		.cfi_endproc
 814              	.LFE260:
 816              		.section	.text.USBH_LL_IncTimer,"ax",%progbits
 817              		.align	1
 818              		.global	USBH_LL_IncTimer
 819              		.syntax unified
 820              		.thumb
 821              		.thumb_func
 823              	USBH_LL_IncTimer:
 824              	.LVL68:
 825              	.LFB261:
1127:Middlewares/ST/STM32_USB_Host_Library/Core/Src/usbh_core.c ****   phost->Timer++;
 826              		.loc 1 1127 1 is_stmt 1 view -0
 827              		.cfi_startproc
 828              		@ args = 0, pretend = 0, frame = 0
 829              		@ frame_needed = 0, uses_anonymous_args = 0
1127:Middlewares/ST/STM32_USB_Host_Library/Core/Src/usbh_core.c ****   phost->Timer++;
 830              		.loc 1 1127 1 is_stmt 0 view .LVU251
 831 0000 08B5     		push	{r3, lr}
 832              	.LCFI10:
 833              		.cfi_def_cfa_offset 8
 834              		.cfi_offset 3, -8
 835              		.cfi_offset 14, -4
1128:Middlewares/ST/STM32_USB_Host_Library/Core/Src/usbh_core.c ****   USBH_HandleSof(phost);
 836              		.loc 1 1128 3 is_stmt 1 view .LVU252
1128:Middlewares/ST/STM32_USB_Host_Library/Core/Src/usbh_core.c ****   USBH_HandleSof(phost);
 837              		.loc 1 1128 8 is_stmt 0 view .LVU253
 838 0002 D0F8C423 		ldr	r2, [r0, #964]
1128:Middlewares/ST/STM32_USB_Host_Library/Core/Src/usbh_core.c ****   USBH_HandleSof(phost);
 839              		.loc 1 1128 15 view .LVU254
 840 0006 0132     		adds	r2, r2, #1
 841 0008 C0F8C423 		str	r2, [r0, #964]
1129:Middlewares/ST/STM32_USB_Host_Library/Core/Src/usbh_core.c **** }
 842              		.loc 1 1129 3 is_stmt 1 view .LVU255
 843 000c FFF7FEFF 		bl	USBH_HandleSof
 844              	.LVL69:
1130:Middlewares/ST/STM32_USB_Host_Library/Core/Src/usbh_core.c **** 
 845              		.loc 1 1130 1 is_stmt 0 view .LVU256
 846 0010 08BD     		pop	{r3, pc}
 847              		.cfi_endproc
 848              	.LFE261:
 850              		.section	.text.USBH_LL_PortDisabled,"ax",%progbits
 851              		.align	1
 852              		.global	USBH_LL_PortDisabled
 853              		.syntax unified
 854              		.thumb
ARM GAS  C:\Users\moham\AppData\Local\Temp\ccR7RLkT.s 			page 40


 855              		.thumb_func
 857              	USBH_LL_PortDisabled:
 858              	.LVL70:
 859              	.LFB264:
1146:Middlewares/ST/STM32_USB_Host_Library/Core/Src/usbh_core.c **** 
1147:Middlewares/ST/STM32_USB_Host_Library/Core/Src/usbh_core.c **** 
1148:Middlewares/ST/STM32_USB_Host_Library/Core/Src/usbh_core.c **** /**
1149:Middlewares/ST/STM32_USB_Host_Library/Core/Src/usbh_core.c ****   * @brief  USBH_PortEnabled
1150:Middlewares/ST/STM32_USB_Host_Library/Core/Src/usbh_core.c ****   *         Port Enabled
1151:Middlewares/ST/STM32_USB_Host_Library/Core/Src/usbh_core.c ****   * @param  phost: Host Handle
1152:Middlewares/ST/STM32_USB_Host_Library/Core/Src/usbh_core.c ****   * @retval None
1153:Middlewares/ST/STM32_USB_Host_Library/Core/Src/usbh_core.c ****   */
1154:Middlewares/ST/STM32_USB_Host_Library/Core/Src/usbh_core.c **** void USBH_LL_PortEnabled(USBH_HandleTypeDef *phost)
1155:Middlewares/ST/STM32_USB_Host_Library/Core/Src/usbh_core.c **** {
1156:Middlewares/ST/STM32_USB_Host_Library/Core/Src/usbh_core.c ****   phost->device.PortEnabled = 1U;
1157:Middlewares/ST/STM32_USB_Host_Library/Core/Src/usbh_core.c **** 
1158:Middlewares/ST/STM32_USB_Host_Library/Core/Src/usbh_core.c **** #if (USBH_USE_OS == 1U)
1159:Middlewares/ST/STM32_USB_Host_Library/Core/Src/usbh_core.c ****   USBH_OS_PutMessage(phost, USBH_PORT_EVENT, 0U, 0U);
1160:Middlewares/ST/STM32_USB_Host_Library/Core/Src/usbh_core.c **** #endif /* (USBH_USE_OS == 1U) */
1161:Middlewares/ST/STM32_USB_Host_Library/Core/Src/usbh_core.c **** 
1162:Middlewares/ST/STM32_USB_Host_Library/Core/Src/usbh_core.c ****   return;
1163:Middlewares/ST/STM32_USB_Host_Library/Core/Src/usbh_core.c **** }
1164:Middlewares/ST/STM32_USB_Host_Library/Core/Src/usbh_core.c **** 
1165:Middlewares/ST/STM32_USB_Host_Library/Core/Src/usbh_core.c **** 
1166:Middlewares/ST/STM32_USB_Host_Library/Core/Src/usbh_core.c **** /**
1167:Middlewares/ST/STM32_USB_Host_Library/Core/Src/usbh_core.c ****   * @brief  USBH_LL_PortDisabled
1168:Middlewares/ST/STM32_USB_Host_Library/Core/Src/usbh_core.c ****   *         Port Disabled
1169:Middlewares/ST/STM32_USB_Host_Library/Core/Src/usbh_core.c ****   * @param  phost: Host Handle
1170:Middlewares/ST/STM32_USB_Host_Library/Core/Src/usbh_core.c ****   * @retval None
1171:Middlewares/ST/STM32_USB_Host_Library/Core/Src/usbh_core.c ****   */
1172:Middlewares/ST/STM32_USB_Host_Library/Core/Src/usbh_core.c **** void USBH_LL_PortDisabled(USBH_HandleTypeDef *phost)
1173:Middlewares/ST/STM32_USB_Host_Library/Core/Src/usbh_core.c **** {
 860              		.loc 1 1173 1 is_stmt 1 view -0
 861              		.cfi_startproc
 862              		@ args = 0, pretend = 0, frame = 0
 863              		@ frame_needed = 0, uses_anonymous_args = 0
 864              		@ link register save eliminated.
1174:Middlewares/ST/STM32_USB_Host_Library/Core/Src/usbh_core.c ****   phost->device.PortEnabled = 0U;
 865              		.loc 1 1174 3 view .LVU258
 866              		.loc 1 1174 29 is_stmt 0 view .LVU259
 867 0000 0023     		movs	r3, #0
 868 0002 80F82333 		strb	r3, [r0, #803]
1175:Middlewares/ST/STM32_USB_Host_Library/Core/Src/usbh_core.c ****   phost->device.is_disconnected = 1U;
 869              		.loc 1 1175 3 is_stmt 1 view .LVU260
 870              		.loc 1 1175 33 is_stmt 0 view .LVU261
 871 0006 0123     		movs	r3, #1
 872 0008 80F82133 		strb	r3, [r0, #801]
1176:Middlewares/ST/STM32_USB_Host_Library/Core/Src/usbh_core.c **** 
1177:Middlewares/ST/STM32_USB_Host_Library/Core/Src/usbh_core.c ****   return;
 873              		.loc 1 1177 3 is_stmt 1 view .LVU262
1178:Middlewares/ST/STM32_USB_Host_Library/Core/Src/usbh_core.c **** }
 874              		.loc 1 1178 1 is_stmt 0 view .LVU263
 875 000c 7047     		bx	lr
 876              		.cfi_endproc
 877              	.LFE264:
 879              		.section	.text.USBH_IsPortEnabled,"ax",%progbits
 880              		.align	1
ARM GAS  C:\Users\moham\AppData\Local\Temp\ccR7RLkT.s 			page 41


 881              		.global	USBH_IsPortEnabled
 882              		.syntax unified
 883              		.thumb
 884              		.thumb_func
 886              	USBH_IsPortEnabled:
 887              	.LVL71:
 888              	.LFB265:
1179:Middlewares/ST/STM32_USB_Host_Library/Core/Src/usbh_core.c **** 
1180:Middlewares/ST/STM32_USB_Host_Library/Core/Src/usbh_core.c **** 
1181:Middlewares/ST/STM32_USB_Host_Library/Core/Src/usbh_core.c **** /**
1182:Middlewares/ST/STM32_USB_Host_Library/Core/Src/usbh_core.c ****   * @brief  HCD_IsPortEnabled
1183:Middlewares/ST/STM32_USB_Host_Library/Core/Src/usbh_core.c ****   *         Is Port Enabled
1184:Middlewares/ST/STM32_USB_Host_Library/Core/Src/usbh_core.c ****   * @param  phost: Host Handle
1185:Middlewares/ST/STM32_USB_Host_Library/Core/Src/usbh_core.c ****   * @retval None
1186:Middlewares/ST/STM32_USB_Host_Library/Core/Src/usbh_core.c ****   */
1187:Middlewares/ST/STM32_USB_Host_Library/Core/Src/usbh_core.c **** uint8_t USBH_IsPortEnabled(USBH_HandleTypeDef *phost)
1188:Middlewares/ST/STM32_USB_Host_Library/Core/Src/usbh_core.c **** {
 889              		.loc 1 1188 1 is_stmt 1 view -0
 890              		.cfi_startproc
 891              		@ args = 0, pretend = 0, frame = 0
 892              		@ frame_needed = 0, uses_anonymous_args = 0
 893              		@ link register save eliminated.
1189:Middlewares/ST/STM32_USB_Host_Library/Core/Src/usbh_core.c ****   return (phost->device.PortEnabled);
 894              		.loc 1 1189 3 view .LVU265
 895              		.loc 1 1189 24 is_stmt 0 view .LVU266
 896 0000 90F82303 		ldrb	r0, [r0, #803]	@ zero_extendqisi2
 897              	.LVL72:
1190:Middlewares/ST/STM32_USB_Host_Library/Core/Src/usbh_core.c **** }
 898              		.loc 1 1190 1 view .LVU267
 899 0004 7047     		bx	lr
 900              		.cfi_endproc
 901              	.LFE265:
 903              		.section	.text.USBH_OS_PutMessage,"ax",%progbits
 904              		.align	1
 905              		.global	USBH_OS_PutMessage
 906              		.syntax unified
 907              		.thumb
 908              		.thumb_func
 910              	USBH_OS_PutMessage:
 911              	.LVL73:
 912              	.LFB268:
1191:Middlewares/ST/STM32_USB_Host_Library/Core/Src/usbh_core.c **** 
1192:Middlewares/ST/STM32_USB_Host_Library/Core/Src/usbh_core.c **** 
1193:Middlewares/ST/STM32_USB_Host_Library/Core/Src/usbh_core.c **** /**
1194:Middlewares/ST/STM32_USB_Host_Library/Core/Src/usbh_core.c ****   * @brief  USBH_LL_Connect
1195:Middlewares/ST/STM32_USB_Host_Library/Core/Src/usbh_core.c ****   *         Handle USB Host connection event
1196:Middlewares/ST/STM32_USB_Host_Library/Core/Src/usbh_core.c ****   * @param  phost: Host Handle
1197:Middlewares/ST/STM32_USB_Host_Library/Core/Src/usbh_core.c ****   * @retval USBH_Status
1198:Middlewares/ST/STM32_USB_Host_Library/Core/Src/usbh_core.c ****   */
1199:Middlewares/ST/STM32_USB_Host_Library/Core/Src/usbh_core.c **** USBH_StatusTypeDef USBH_LL_Connect(USBH_HandleTypeDef *phost)
1200:Middlewares/ST/STM32_USB_Host_Library/Core/Src/usbh_core.c **** {
1201:Middlewares/ST/STM32_USB_Host_Library/Core/Src/usbh_core.c ****   phost->device.is_connected = 1U;
1202:Middlewares/ST/STM32_USB_Host_Library/Core/Src/usbh_core.c ****   phost->device.is_disconnected = 0U;
1203:Middlewares/ST/STM32_USB_Host_Library/Core/Src/usbh_core.c ****   phost->device.is_ReEnumerated = 0U;
1204:Middlewares/ST/STM32_USB_Host_Library/Core/Src/usbh_core.c **** 
1205:Middlewares/ST/STM32_USB_Host_Library/Core/Src/usbh_core.c **** #if (USBH_USE_OS == 1U)
1206:Middlewares/ST/STM32_USB_Host_Library/Core/Src/usbh_core.c ****   USBH_OS_PutMessage(phost, USBH_PORT_EVENT, 0U, 0U);
ARM GAS  C:\Users\moham\AppData\Local\Temp\ccR7RLkT.s 			page 42


1207:Middlewares/ST/STM32_USB_Host_Library/Core/Src/usbh_core.c **** #endif /* (USBH_USE_OS == 1U) */
1208:Middlewares/ST/STM32_USB_Host_Library/Core/Src/usbh_core.c **** 
1209:Middlewares/ST/STM32_USB_Host_Library/Core/Src/usbh_core.c ****   return USBH_OK;
1210:Middlewares/ST/STM32_USB_Host_Library/Core/Src/usbh_core.c **** }
1211:Middlewares/ST/STM32_USB_Host_Library/Core/Src/usbh_core.c **** 
1212:Middlewares/ST/STM32_USB_Host_Library/Core/Src/usbh_core.c **** 
1213:Middlewares/ST/STM32_USB_Host_Library/Core/Src/usbh_core.c **** /**
1214:Middlewares/ST/STM32_USB_Host_Library/Core/Src/usbh_core.c ****   * @brief  USBH_LL_Disconnect
1215:Middlewares/ST/STM32_USB_Host_Library/Core/Src/usbh_core.c ****   *         Handle USB Host disconnection event
1216:Middlewares/ST/STM32_USB_Host_Library/Core/Src/usbh_core.c ****   * @param  phost: Host Handle
1217:Middlewares/ST/STM32_USB_Host_Library/Core/Src/usbh_core.c ****   * @retval USBH_Status
1218:Middlewares/ST/STM32_USB_Host_Library/Core/Src/usbh_core.c ****   */
1219:Middlewares/ST/STM32_USB_Host_Library/Core/Src/usbh_core.c **** USBH_StatusTypeDef USBH_LL_Disconnect(USBH_HandleTypeDef *phost)
1220:Middlewares/ST/STM32_USB_Host_Library/Core/Src/usbh_core.c **** {
1221:Middlewares/ST/STM32_USB_Host_Library/Core/Src/usbh_core.c ****   /* update device connection states */
1222:Middlewares/ST/STM32_USB_Host_Library/Core/Src/usbh_core.c ****   phost->device.is_disconnected = 1U;
1223:Middlewares/ST/STM32_USB_Host_Library/Core/Src/usbh_core.c ****   phost->device.is_connected = 0U;
1224:Middlewares/ST/STM32_USB_Host_Library/Core/Src/usbh_core.c ****   phost->device.PortEnabled = 0U;
1225:Middlewares/ST/STM32_USB_Host_Library/Core/Src/usbh_core.c **** 
1226:Middlewares/ST/STM32_USB_Host_Library/Core/Src/usbh_core.c ****   /* Stop Host */
1227:Middlewares/ST/STM32_USB_Host_Library/Core/Src/usbh_core.c ****   (void)USBH_LL_Stop(phost);
1228:Middlewares/ST/STM32_USB_Host_Library/Core/Src/usbh_core.c **** 
1229:Middlewares/ST/STM32_USB_Host_Library/Core/Src/usbh_core.c ****   /* FRee Control Pipes */
1230:Middlewares/ST/STM32_USB_Host_Library/Core/Src/usbh_core.c ****   (void)USBH_FreePipe(phost, phost->Control.pipe_in);
1231:Middlewares/ST/STM32_USB_Host_Library/Core/Src/usbh_core.c ****   (void)USBH_FreePipe(phost, phost->Control.pipe_out);
1232:Middlewares/ST/STM32_USB_Host_Library/Core/Src/usbh_core.c **** 
1233:Middlewares/ST/STM32_USB_Host_Library/Core/Src/usbh_core.c **** #if (USBH_USE_OS == 1U)
1234:Middlewares/ST/STM32_USB_Host_Library/Core/Src/usbh_core.c ****   USBH_OS_PutMessage(phost, USBH_PORT_EVENT, 0U, 0U);
1235:Middlewares/ST/STM32_USB_Host_Library/Core/Src/usbh_core.c **** #endif /* (USBH_USE_OS == 1U) */
1236:Middlewares/ST/STM32_USB_Host_Library/Core/Src/usbh_core.c **** 
1237:Middlewares/ST/STM32_USB_Host_Library/Core/Src/usbh_core.c ****   return USBH_OK;
1238:Middlewares/ST/STM32_USB_Host_Library/Core/Src/usbh_core.c **** }
1239:Middlewares/ST/STM32_USB_Host_Library/Core/Src/usbh_core.c **** 
1240:Middlewares/ST/STM32_USB_Host_Library/Core/Src/usbh_core.c **** #if (USBH_USE_OS == 1U)
1241:Middlewares/ST/STM32_USB_Host_Library/Core/Src/usbh_core.c **** /**
1242:Middlewares/ST/STM32_USB_Host_Library/Core/Src/usbh_core.c ****   * @brief USBH_OS_PutMessage
1243:Middlewares/ST/STM32_USB_Host_Library/Core/Src/usbh_core.c ****   *        USB Host put message event to OS message queue
1244:Middlewares/ST/STM32_USB_Host_Library/Core/Src/usbh_core.c ****   * @param  phost Host Handle
1245:Middlewares/ST/STM32_USB_Host_Library/Core/Src/usbh_core.c ****   * @param  message message event
1246:Middlewares/ST/STM32_USB_Host_Library/Core/Src/usbh_core.c ****   * @param  timeout message event timeout
1247:Middlewares/ST/STM32_USB_Host_Library/Core/Src/usbh_core.c ****   * @param  priority message event priority
1248:Middlewares/ST/STM32_USB_Host_Library/Core/Src/usbh_core.c ****   * @retval None
1249:Middlewares/ST/STM32_USB_Host_Library/Core/Src/usbh_core.c ****   */
1250:Middlewares/ST/STM32_USB_Host_Library/Core/Src/usbh_core.c **** void USBH_OS_PutMessage(USBH_HandleTypeDef *phost, USBH_OSEventTypeDef message, uint32_t timeout, u
1251:Middlewares/ST/STM32_USB_Host_Library/Core/Src/usbh_core.c **** {
 913              		.loc 1 1251 1 is_stmt 1 view -0
 914              		.cfi_startproc
 915              		@ args = 0, pretend = 0, frame = 0
 916              		@ frame_needed = 0, uses_anonymous_args = 0
 917              		.loc 1 1251 1 is_stmt 0 view .LVU269
 918 0000 38B5     		push	{r3, r4, r5, lr}
 919              	.LCFI11:
 920              		.cfi_def_cfa_offset 16
 921              		.cfi_offset 3, -16
 922              		.cfi_offset 4, -12
 923              		.cfi_offset 5, -8
 924              		.cfi_offset 14, -4
ARM GAS  C:\Users\moham\AppData\Local\Temp\ccR7RLkT.s 			page 43


 925 0002 0446     		mov	r4, r0
 926 0004 1546     		mov	r5, r2
1252:Middlewares/ST/STM32_USB_Host_Library/Core/Src/usbh_core.c ****   phost->os_msg = (uint32_t)message;
 927              		.loc 1 1252 3 is_stmt 1 view .LVU270
 928              		.loc 1 1252 17 is_stmt 0 view .LVU271
 929 0006 C0F8E013 		str	r1, [r0, #992]
1253:Middlewares/ST/STM32_USB_Host_Library/Core/Src/usbh_core.c **** 
1254:Middlewares/ST/STM32_USB_Host_Library/Core/Src/usbh_core.c **** #if (osCMSIS < 0x20000U)
1255:Middlewares/ST/STM32_USB_Host_Library/Core/Src/usbh_core.c ****   UNUSED(priority);
 930              		.loc 1 1255 3 is_stmt 1 view .LVU272
1256:Middlewares/ST/STM32_USB_Host_Library/Core/Src/usbh_core.c **** 
1257:Middlewares/ST/STM32_USB_Host_Library/Core/Src/usbh_core.c ****   /* Calculate the number of available spaces */
1258:Middlewares/ST/STM32_USB_Host_Library/Core/Src/usbh_core.c ****   uint32_t available_spaces = MSGQUEUE_OBJECTS - osMessageWaiting(phost->os_event);
 931              		.loc 1 1258 3 view .LVU273
 932              		.loc 1 1258 50 is_stmt 0 view .LVU274
 933 000a D0F8D803 		ldr	r0, [r0, #984]
 934              	.LVL74:
 935              		.loc 1 1258 50 view .LVU275
 936 000e FFF7FEFF 		bl	osMessageWaiting
 937              	.LVL75:
1259:Middlewares/ST/STM32_USB_Host_Library/Core/Src/usbh_core.c **** 
1260:Middlewares/ST/STM32_USB_Host_Library/Core/Src/usbh_core.c ****   if (available_spaces != 0U)
 938              		.loc 1 1260 3 is_stmt 1 view .LVU276
 939              		.loc 1 1260 6 is_stmt 0 view .LVU277
 940 0012 1028     		cmp	r0, #16
 941 0014 00D1     		bne	.L59
 942              	.LVL76:
 943              	.L56:
1261:Middlewares/ST/STM32_USB_Host_Library/Core/Src/usbh_core.c ****   {
1262:Middlewares/ST/STM32_USB_Host_Library/Core/Src/usbh_core.c ****     (void)osMessagePut(phost->os_event, phost->os_msg, timeout);
1263:Middlewares/ST/STM32_USB_Host_Library/Core/Src/usbh_core.c ****   }
1264:Middlewares/ST/STM32_USB_Host_Library/Core/Src/usbh_core.c **** #else
1265:Middlewares/ST/STM32_USB_Host_Library/Core/Src/usbh_core.c ****   if (osMessageQueueGetSpace(phost->os_event) != 0U)
1266:Middlewares/ST/STM32_USB_Host_Library/Core/Src/usbh_core.c ****   {
1267:Middlewares/ST/STM32_USB_Host_Library/Core/Src/usbh_core.c ****     (void)osMessageQueuePut(phost->os_event, &phost->os_msg, priority, timeout);
1268:Middlewares/ST/STM32_USB_Host_Library/Core/Src/usbh_core.c ****   }
1269:Middlewares/ST/STM32_USB_Host_Library/Core/Src/usbh_core.c **** #endif /* (osCMSIS < 0x20000U) */
1270:Middlewares/ST/STM32_USB_Host_Library/Core/Src/usbh_core.c **** }
 944              		.loc 1 1270 1 view .LVU278
 945 0016 38BD     		pop	{r3, r4, r5, pc}
 946              	.LVL77:
 947              	.L59:
1262:Middlewares/ST/STM32_USB_Host_Library/Core/Src/usbh_core.c ****   }
 948              		.loc 1 1262 5 is_stmt 1 view .LVU279
1262:Middlewares/ST/STM32_USB_Host_Library/Core/Src/usbh_core.c ****   }
 949              		.loc 1 1262 11 is_stmt 0 view .LVU280
 950 0018 2A46     		mov	r2, r5
 951 001a D4F8E013 		ldr	r1, [r4, #992]
 952 001e D4F8D803 		ldr	r0, [r4, #984]
 953              	.LVL78:
1262:Middlewares/ST/STM32_USB_Host_Library/Core/Src/usbh_core.c ****   }
 954              		.loc 1 1262 11 view .LVU281
 955 0022 FFF7FEFF 		bl	osMessagePut
 956              	.LVL79:
 957              		.loc 1 1270 1 view .LVU282
 958 0026 F6E7     		b	.L56
 959              		.cfi_endproc
ARM GAS  C:\Users\moham\AppData\Local\Temp\ccR7RLkT.s 			page 44


 960              	.LFE268:
 962              		.section	.text.USBH_ReEnumerate,"ax",%progbits
 963              		.align	1
 964              		.global	USBH_ReEnumerate
 965              		.syntax unified
 966              		.thumb
 967              		.thumb_func
 969              	USBH_ReEnumerate:
 970              	.LVL80:
 971              	.LFB257:
 448:Middlewares/ST/STM32_USB_Host_Library/Core/Src/usbh_core.c ****   if (USBH_IsPortEnabled(phost) != 0U)
 972              		.loc 1 448 1 is_stmt 1 view -0
 973              		.cfi_startproc
 974              		@ args = 0, pretend = 0, frame = 0
 975              		@ frame_needed = 0, uses_anonymous_args = 0
 448:Middlewares/ST/STM32_USB_Host_Library/Core/Src/usbh_core.c ****   if (USBH_IsPortEnabled(phost) != 0U)
 976              		.loc 1 448 1 is_stmt 0 view .LVU284
 977 0000 38B5     		push	{r3, r4, r5, lr}
 978              	.LCFI12:
 979              		.cfi_def_cfa_offset 16
 980              		.cfi_offset 3, -16
 981              		.cfi_offset 4, -12
 982              		.cfi_offset 5, -8
 983              		.cfi_offset 14, -4
 984 0002 0446     		mov	r4, r0
 449:Middlewares/ST/STM32_USB_Host_Library/Core/Src/usbh_core.c ****   {
 985              		.loc 1 449 3 is_stmt 1 view .LVU285
 449:Middlewares/ST/STM32_USB_Host_Library/Core/Src/usbh_core.c ****   {
 986              		.loc 1 449 7 is_stmt 0 view .LVU286
 987 0004 FFF7FEFF 		bl	USBH_IsPortEnabled
 988              	.LVL81:
 449:Middlewares/ST/STM32_USB_Host_Library/Core/Src/usbh_core.c ****   {
 989              		.loc 1 449 6 discriminator 1 view .LVU287
 990 0008 38B9     		cbnz	r0, .L63
 991              	.L61:
 460:Middlewares/ST/STM32_USB_Host_Library/Core/Src/usbh_core.c **** #endif /* (USBH_USE_OS == 1U) */
 992              		.loc 1 460 3 is_stmt 1 view .LVU288
 993 000a 0023     		movs	r3, #0
 994 000c 1A46     		mov	r2, r3
 995 000e 0121     		movs	r1, #1
 996 0010 2046     		mov	r0, r4
 997 0012 FFF7FEFF 		bl	USBH_OS_PutMessage
 998              	.LVL82:
 463:Middlewares/ST/STM32_USB_Host_Library/Core/Src/usbh_core.c **** }
 999              		.loc 1 463 3 view .LVU289
 464:Middlewares/ST/STM32_USB_Host_Library/Core/Src/usbh_core.c **** 
 1000              		.loc 1 464 1 is_stmt 0 view .LVU290
 1001 0016 0020     		movs	r0, #0
 1002 0018 38BD     		pop	{r3, r4, r5, pc}
 1003              	.LVL83:
 1004              	.L63:
 451:Middlewares/ST/STM32_USB_Host_Library/Core/Src/usbh_core.c **** 
 1005              		.loc 1 451 5 is_stmt 1 view .LVU291
 451:Middlewares/ST/STM32_USB_Host_Library/Core/Src/usbh_core.c **** 
 1006              		.loc 1 451 35 is_stmt 0 view .LVU292
 1007 001a 0125     		movs	r5, #1
 1008 001c 84F82253 		strb	r5, [r4, #802]
ARM GAS  C:\Users\moham\AppData\Local\Temp\ccR7RLkT.s 			page 45


 454:Middlewares/ST/STM32_USB_Host_Library/Core/Src/usbh_core.c **** 
 1009              		.loc 1 454 5 is_stmt 1 view .LVU293
 454:Middlewares/ST/STM32_USB_Host_Library/Core/Src/usbh_core.c **** 
 1010              		.loc 1 454 11 is_stmt 0 view .LVU294
 1011 0020 2046     		mov	r0, r4
 1012 0022 FFF7FEFF 		bl	USBH_Stop
 1013              	.LVL84:
 456:Middlewares/ST/STM32_USB_Host_Library/Core/Src/usbh_core.c ****   }
 1014              		.loc 1 456 5 is_stmt 1 view .LVU295
 456:Middlewares/ST/STM32_USB_Host_Library/Core/Src/usbh_core.c ****   }
 1015              		.loc 1 456 35 is_stmt 0 view .LVU296
 1016 0026 84F82153 		strb	r5, [r4, #801]
 1017 002a EEE7     		b	.L61
 1018              		.cfi_endproc
 1019              	.LFE257:
 1021              		.section	.text.USBH_HandleEnum,"ax",%progbits
 1022              		.align	1
 1023              		.syntax unified
 1024              		.thumb
 1025              		.thumb_func
 1027              	USBH_HandleEnum:
 1028              	.LVL85:
 1029              	.LFB259:
 801:Middlewares/ST/STM32_USB_Host_Library/Core/Src/usbh_core.c ****   USBH_StatusTypeDef Status = USBH_BUSY;
 1030              		.loc 1 801 1 is_stmt 1 view -0
 1031              		.cfi_startproc
 1032              		@ args = 0, pretend = 0, frame = 0
 1033              		@ frame_needed = 0, uses_anonymous_args = 0
 801:Middlewares/ST/STM32_USB_Host_Library/Core/Src/usbh_core.c ****   USBH_StatusTypeDef Status = USBH_BUSY;
 1034              		.loc 1 801 1 is_stmt 0 view .LVU298
 1035 0000 70B5     		push	{r4, r5, r6, lr}
 1036              	.LCFI13:
 1037              		.cfi_def_cfa_offset 16
 1038              		.cfi_offset 4, -16
 1039              		.cfi_offset 5, -12
 1040              		.cfi_offset 6, -8
 1041              		.cfi_offset 14, -4
 1042 0002 84B0     		sub	sp, sp, #16
 1043              	.LCFI14:
 1044              		.cfi_def_cfa_offset 32
 1045 0004 0446     		mov	r4, r0
 802:Middlewares/ST/STM32_USB_Host_Library/Core/Src/usbh_core.c ****   USBH_StatusTypeDef ReqStatus = USBH_BUSY;
 1046              		.loc 1 802 3 is_stmt 1 view .LVU299
 1047              	.LVL86:
 803:Middlewares/ST/STM32_USB_Host_Library/Core/Src/usbh_core.c **** 
 1048              		.loc 1 803 3 view .LVU300
 805:Middlewares/ST/STM32_USB_Host_Library/Core/Src/usbh_core.c ****   {
 1049              		.loc 1 805 3 view .LVU301
 805:Middlewares/ST/STM32_USB_Host_Library/Core/Src/usbh_core.c ****   {
 1050              		.loc 1 805 16 is_stmt 0 view .LVU302
 1051 0006 4578     		ldrb	r5, [r0, #1]	@ zero_extendqisi2
 805:Middlewares/ST/STM32_USB_Host_Library/Core/Src/usbh_core.c ****   {
 1052              		.loc 1 805 3 view .LVU303
 1053 0008 072D     		cmp	r5, #7
 1054 000a 00F24881 		bhi	.L88
 1055 000e DFE815F0 		tbh	[pc, r5, lsl #1]
 1056              	.L67:
ARM GAS  C:\Users\moham\AppData\Local\Temp\ccR7RLkT.s 			page 46


 1057 0012 0800     		.2byte	(.L74-.L67)/2
 1058 0014 4800     		.2byte	(.L73-.L67)/2
 1059 0016 6900     		.2byte	(.L72-.L67)/2
 1060 0018 9A00     		.2byte	(.L71-.L67)/2
 1061 001a BF00     		.2byte	(.L70-.L67)/2
 1062 001c E500     		.2byte	(.L69-.L67)/2
 1063 001e 0F01     		.2byte	(.L68-.L67)/2
 1064 0020 3301     		.2byte	(.L66-.L67)/2
 1065              		.p2align 1
 1066              	.L74:
 809:Middlewares/ST/STM32_USB_Host_Library/Core/Src/usbh_core.c ****       if (ReqStatus == USBH_OK)
 1067              		.loc 1 809 7 is_stmt 1 view .LVU304
 809:Middlewares/ST/STM32_USB_Host_Library/Core/Src/usbh_core.c ****       if (ReqStatus == USBH_OK)
 1068              		.loc 1 809 19 is_stmt 0 view .LVU305
 1069 0022 0821     		movs	r1, #8
 1070 0024 FFF7FEFF 		bl	USBH_Get_DevDesc
 1071              	.LVL87:
 810:Middlewares/ST/STM32_USB_Host_Library/Core/Src/usbh_core.c ****       {
 1072              		.loc 1 810 7 is_stmt 1 view .LVU306
 810:Middlewares/ST/STM32_USB_Host_Library/Core/Src/usbh_core.c ****       {
 1073              		.loc 1 810 10 is_stmt 0 view .LVU307
 1074 0028 18B1     		cbz	r0, .L97
 826:Middlewares/ST/STM32_USB_Host_Library/Core/Src/usbh_core.c ****       {
 1075              		.loc 1 826 12 is_stmt 1 view .LVU308
 826:Middlewares/ST/STM32_USB_Host_Library/Core/Src/usbh_core.c ****       {
 1076              		.loc 1 826 15 is_stmt 0 view .LVU309
 1077 002a 0328     		cmp	r0, #3
 1078 002c 21D0     		beq	.L98
 802:Middlewares/ST/STM32_USB_Host_Library/Core/Src/usbh_core.c ****   USBH_StatusTypeDef ReqStatus = USBH_BUSY;
 1079              		.loc 1 802 22 view .LVU310
 1080 002e 0125     		movs	r5, #1
 1081 0030 25E1     		b	.L65
 1082              	.L97:
 812:Middlewares/ST/STM32_USB_Host_Library/Core/Src/usbh_core.c **** 
 1083              		.loc 1 812 9 is_stmt 1 view .LVU311
 812:Middlewares/ST/STM32_USB_Host_Library/Core/Src/usbh_core.c **** 
 1084              		.loc 1 812 57 is_stmt 0 view .LVU312
 1085 0032 94F82D33 		ldrb	r3, [r4, #813]	@ zero_extendqisi2
 812:Middlewares/ST/STM32_USB_Host_Library/Core/Src/usbh_core.c **** 
 1086              		.loc 1 812 34 view .LVU313
 1087 0036 A371     		strb	r3, [r4, #6]
 814:Middlewares/ST/STM32_USB_Host_Library/Core/Src/usbh_core.c **** 
 1088              		.loc 1 814 9 is_stmt 1 view .LVU314
 814:Middlewares/ST/STM32_USB_Host_Library/Core/Src/usbh_core.c **** 
 1089              		.loc 1 814 26 is_stmt 0 view .LVU315
 1090 0038 0125     		movs	r5, #1
 1091 003a 6570     		strb	r5, [r4, #1]
 817:Middlewares/ST/STM32_USB_Host_Library/Core/Src/usbh_core.c ****                             phost->device.speed, USBH_EP_CONTROL,
 1092              		.loc 1 817 9 is_stmt 1 view .LVU316
 817:Middlewares/ST/STM32_USB_Host_Library/Core/Src/usbh_core.c ****                             phost->device.speed, USBH_EP_CONTROL,
 1093              		.loc 1 817 15 is_stmt 0 view .LVU317
 1094 003c 0293     		str	r3, [sp, #8]
 1095 003e 0026     		movs	r6, #0
 1096 0040 0196     		str	r6, [sp, #4]
 1097 0042 94F81D33 		ldrb	r3, [r4, #797]	@ zero_extendqisi2
 1098 0046 0093     		str	r3, [sp]
 1099 0048 94F81C33 		ldrb	r3, [r4, #796]	@ zero_extendqisi2
ARM GAS  C:\Users\moham\AppData\Local\Temp\ccR7RLkT.s 			page 47


 1100 004c 8022     		movs	r2, #128
 1101 004e 2179     		ldrb	r1, [r4, #4]	@ zero_extendqisi2
 1102 0050 2046     		mov	r0, r4
 1103              	.LVL88:
 817:Middlewares/ST/STM32_USB_Host_Library/Core/Src/usbh_core.c ****                             phost->device.speed, USBH_EP_CONTROL,
 1104              		.loc 1 817 15 view .LVU318
 1105 0052 FFF7FEFF 		bl	USBH_OpenPipe
 1106              	.LVL89:
 822:Middlewares/ST/STM32_USB_Host_Library/Core/Src/usbh_core.c ****                             phost->device.speed, USBH_EP_CONTROL,
 1107              		.loc 1 822 9 is_stmt 1 view .LVU319
 824:Middlewares/ST/STM32_USB_Host_Library/Core/Src/usbh_core.c ****       }
 1108              		.loc 1 824 53 is_stmt 0 view .LVU320
 1109 0056 A379     		ldrb	r3, [r4, #6]	@ zero_extendqisi2
 822:Middlewares/ST/STM32_USB_Host_Library/Core/Src/usbh_core.c ****                             phost->device.speed, USBH_EP_CONTROL,
 1110              		.loc 1 822 15 view .LVU321
 1111 0058 0293     		str	r3, [sp, #8]
 1112 005a 0196     		str	r6, [sp, #4]
 1113 005c 94F81D33 		ldrb	r3, [r4, #797]	@ zero_extendqisi2
 1114 0060 0093     		str	r3, [sp]
 1115 0062 94F81C33 		ldrb	r3, [r4, #796]	@ zero_extendqisi2
 1116 0066 3246     		mov	r2, r6
 1117 0068 6179     		ldrb	r1, [r4, #5]	@ zero_extendqisi2
 1118 006a 2046     		mov	r0, r4
 1119 006c FFF7FEFF 		bl	USBH_OpenPipe
 1120              	.LVL90:
 1121 0070 05E1     		b	.L65
 1122              	.LVL91:
 1123              	.L98:
 828:Middlewares/ST/STM32_USB_Host_Library/Core/Src/usbh_core.c ****         phost->device.EnumCnt++;
 1124              		.loc 1 828 9 is_stmt 1 view .LVU322
 828:Middlewares/ST/STM32_USB_Host_Library/Core/Src/usbh_core.c ****         phost->device.EnumCnt++;
 1125              		.loc 1 828 9 view .LVU323
 828:Middlewares/ST/STM32_USB_Host_Library/Core/Src/usbh_core.c ****         phost->device.EnumCnt++;
 1126              		.loc 1 828 9 view .LVU324
 829:Middlewares/ST/STM32_USB_Host_Library/Core/Src/usbh_core.c ****         if (phost->device.EnumCnt > 3U)
 1127              		.loc 1 829 9 view .LVU325
 829:Middlewares/ST/STM32_USB_Host_Library/Core/Src/usbh_core.c ****         if (phost->device.EnumCnt > 3U)
 1128              		.loc 1 829 22 is_stmt 0 view .LVU326
 1129 0072 94F81E33 		ldrb	r3, [r4, #798]	@ zero_extendqisi2
 829:Middlewares/ST/STM32_USB_Host_Library/Core/Src/usbh_core.c ****         if (phost->device.EnumCnt > 3U)
 1130              		.loc 1 829 30 view .LVU327
 1131 0076 0133     		adds	r3, r3, #1
 1132 0078 DBB2     		uxtb	r3, r3
 1133 007a 84F81E33 		strb	r3, [r4, #798]
 830:Middlewares/ST/STM32_USB_Host_Library/Core/Src/usbh_core.c ****         {
 1134              		.loc 1 830 9 is_stmt 1 view .LVU328
 830:Middlewares/ST/STM32_USB_Host_Library/Core/Src/usbh_core.c ****         {
 1135              		.loc 1 830 12 is_stmt 0 view .LVU329
 1136 007e 032B     		cmp	r3, #3
 1137 0080 03D9     		bls	.L76
 833:Middlewares/ST/STM32_USB_Host_Library/Core/Src/usbh_core.c ****           phost->gState = HOST_ABORT_STATE;
 1138              		.loc 1 833 11 is_stmt 1 view .LVU330
 833:Middlewares/ST/STM32_USB_Host_Library/Core/Src/usbh_core.c ****           phost->gState = HOST_ABORT_STATE;
 1139              		.loc 1 833 11 view .LVU331
 833:Middlewares/ST/STM32_USB_Host_Library/Core/Src/usbh_core.c ****           phost->gState = HOST_ABORT_STATE;
 1140              		.loc 1 833 11 view .LVU332
 834:Middlewares/ST/STM32_USB_Host_Library/Core/Src/usbh_core.c ****         }
ARM GAS  C:\Users\moham\AppData\Local\Temp\ccR7RLkT.s 			page 48


 1141              		.loc 1 834 11 view .LVU333
 834:Middlewares/ST/STM32_USB_Host_Library/Core/Src/usbh_core.c ****         }
 1142              		.loc 1 834 25 is_stmt 0 view .LVU334
 1143 0082 0D23     		movs	r3, #13
 1144 0084 2370     		strb	r3, [r4]
 802:Middlewares/ST/STM32_USB_Host_Library/Core/Src/usbh_core.c ****   USBH_StatusTypeDef ReqStatus = USBH_BUSY;
 1145              		.loc 1 802 22 view .LVU335
 1146 0086 0125     		movs	r5, #1
 1147 0088 F9E0     		b	.L65
 1148              	.L76:
 839:Middlewares/ST/STM32_USB_Host_Library/Core/Src/usbh_core.c ****           (void)USBH_FreePipe(phost, phost->Control.pipe_in);
 1149              		.loc 1 839 11 is_stmt 1 view .LVU336
 839:Middlewares/ST/STM32_USB_Host_Library/Core/Src/usbh_core.c ****           (void)USBH_FreePipe(phost, phost->Control.pipe_in);
 1150              		.loc 1 839 17 is_stmt 0 view .LVU337
 1151 008a 6179     		ldrb	r1, [r4, #5]	@ zero_extendqisi2
 1152 008c 2046     		mov	r0, r4
 1153              	.LVL92:
 839:Middlewares/ST/STM32_USB_Host_Library/Core/Src/usbh_core.c ****           (void)USBH_FreePipe(phost, phost->Control.pipe_in);
 1154              		.loc 1 839 17 view .LVU338
 1155 008e FFF7FEFF 		bl	USBH_FreePipe
 1156              	.LVL93:
 840:Middlewares/ST/STM32_USB_Host_Library/Core/Src/usbh_core.c **** 
 1157              		.loc 1 840 11 is_stmt 1 view .LVU339
 840:Middlewares/ST/STM32_USB_Host_Library/Core/Src/usbh_core.c **** 
 1158              		.loc 1 840 17 is_stmt 0 view .LVU340
 1159 0092 2179     		ldrb	r1, [r4, #4]	@ zero_extendqisi2
 1160 0094 2046     		mov	r0, r4
 1161 0096 FFF7FEFF 		bl	USBH_FreePipe
 1162              	.LVL94:
 843:Middlewares/ST/STM32_USB_Host_Library/Core/Src/usbh_core.c ****         }
 1163              		.loc 1 843 11 is_stmt 1 view .LVU341
 843:Middlewares/ST/STM32_USB_Host_Library/Core/Src/usbh_core.c ****         }
 1164              		.loc 1 843 25 is_stmt 0 view .LVU342
 1165 009a 0023     		movs	r3, #0
 1166 009c 2370     		strb	r3, [r4]
 802:Middlewares/ST/STM32_USB_Host_Library/Core/Src/usbh_core.c ****   USBH_StatusTypeDef ReqStatus = USBH_BUSY;
 1167              		.loc 1 802 22 view .LVU343
 1168 009e 0125     		movs	r5, #1
 1169 00a0 EDE0     		b	.L65
 1170              	.LVL95:
 1171              	.L73:
 854:Middlewares/ST/STM32_USB_Host_Library/Core/Src/usbh_core.c ****       if (ReqStatus == USBH_OK)
 1172              		.loc 1 854 7 is_stmt 1 view .LVU344
 854:Middlewares/ST/STM32_USB_Host_Library/Core/Src/usbh_core.c ****       if (ReqStatus == USBH_OK)
 1173              		.loc 1 854 19 is_stmt 0 view .LVU345
 1174 00a2 1221     		movs	r1, #18
 1175 00a4 FFF7FEFF 		bl	USBH_Get_DevDesc
 1176              	.LVL96:
 855:Middlewares/ST/STM32_USB_Host_Library/Core/Src/usbh_core.c ****       {
 1177              		.loc 1 855 7 is_stmt 1 view .LVU346
 855:Middlewares/ST/STM32_USB_Host_Library/Core/Src/usbh_core.c ****       {
 1178              		.loc 1 855 10 is_stmt 0 view .LVU347
 1179 00a8 10B9     		cbnz	r0, .L77
 857:Middlewares/ST/STM32_USB_Host_Library/Core/Src/usbh_core.c ****         USBH_UsrLog("VID: %xh", phost->device.DevDesc.idVendor);
 1180              		.loc 1 857 9 is_stmt 1 view .LVU348
 857:Middlewares/ST/STM32_USB_Host_Library/Core/Src/usbh_core.c ****         USBH_UsrLog("VID: %xh", phost->device.DevDesc.idVendor);
 1181              		.loc 1 857 9 view .LVU349
ARM GAS  C:\Users\moham\AppData\Local\Temp\ccR7RLkT.s 			page 49


 857:Middlewares/ST/STM32_USB_Host_Library/Core/Src/usbh_core.c ****         USBH_UsrLog("VID: %xh", phost->device.DevDesc.idVendor);
 1182              		.loc 1 857 9 view .LVU350
 858:Middlewares/ST/STM32_USB_Host_Library/Core/Src/usbh_core.c **** 
 1183              		.loc 1 858 9 view .LVU351
 858:Middlewares/ST/STM32_USB_Host_Library/Core/Src/usbh_core.c **** 
 1184              		.loc 1 858 9 view .LVU352
 858:Middlewares/ST/STM32_USB_Host_Library/Core/Src/usbh_core.c **** 
 1185              		.loc 1 858 9 view .LVU353
 860:Middlewares/ST/STM32_USB_Host_Library/Core/Src/usbh_core.c ****       }
 1186              		.loc 1 860 9 view .LVU354
 860:Middlewares/ST/STM32_USB_Host_Library/Core/Src/usbh_core.c ****       }
 1187              		.loc 1 860 26 is_stmt 0 view .LVU355
 1188 00aa 0223     		movs	r3, #2
 1189 00ac 6370     		strb	r3, [r4, #1]
 1190 00ae E6E0     		b	.L65
 1191              	.L77:
 862:Middlewares/ST/STM32_USB_Host_Library/Core/Src/usbh_core.c ****       {
 1192              		.loc 1 862 12 is_stmt 1 view .LVU356
 862:Middlewares/ST/STM32_USB_Host_Library/Core/Src/usbh_core.c ****       {
 1193              		.loc 1 862 15 is_stmt 0 view .LVU357
 1194 00b0 0328     		cmp	r0, #3
 1195 00b2 40F0E480 		bne	.L65
 864:Middlewares/ST/STM32_USB_Host_Library/Core/Src/usbh_core.c ****         phost->device.EnumCnt++;
 1196              		.loc 1 864 9 is_stmt 1 view .LVU358
 864:Middlewares/ST/STM32_USB_Host_Library/Core/Src/usbh_core.c ****         phost->device.EnumCnt++;
 1197              		.loc 1 864 9 view .LVU359
 864:Middlewares/ST/STM32_USB_Host_Library/Core/Src/usbh_core.c ****         phost->device.EnumCnt++;
 1198              		.loc 1 864 9 view .LVU360
 865:Middlewares/ST/STM32_USB_Host_Library/Core/Src/usbh_core.c ****         if (phost->device.EnumCnt > 3U)
 1199              		.loc 1 865 9 view .LVU361
 865:Middlewares/ST/STM32_USB_Host_Library/Core/Src/usbh_core.c ****         if (phost->device.EnumCnt > 3U)
 1200              		.loc 1 865 22 is_stmt 0 view .LVU362
 1201 00b6 94F81E33 		ldrb	r3, [r4, #798]	@ zero_extendqisi2
 865:Middlewares/ST/STM32_USB_Host_Library/Core/Src/usbh_core.c ****         if (phost->device.EnumCnt > 3U)
 1202              		.loc 1 865 30 view .LVU363
 1203 00ba 0133     		adds	r3, r3, #1
 1204 00bc DBB2     		uxtb	r3, r3
 1205 00be 84F81E33 		strb	r3, [r4, #798]
 866:Middlewares/ST/STM32_USB_Host_Library/Core/Src/usbh_core.c ****         {
 1206              		.loc 1 866 9 is_stmt 1 view .LVU364
 866:Middlewares/ST/STM32_USB_Host_Library/Core/Src/usbh_core.c ****         {
 1207              		.loc 1 866 12 is_stmt 0 view .LVU365
 1208 00c2 032B     		cmp	r3, #3
 1209 00c4 02D9     		bls	.L78
 869:Middlewares/ST/STM32_USB_Host_Library/Core/Src/usbh_core.c ****           phost->gState = HOST_ABORT_STATE;
 1210              		.loc 1 869 11 is_stmt 1 view .LVU366
 869:Middlewares/ST/STM32_USB_Host_Library/Core/Src/usbh_core.c ****           phost->gState = HOST_ABORT_STATE;
 1211              		.loc 1 869 11 view .LVU367
 869:Middlewares/ST/STM32_USB_Host_Library/Core/Src/usbh_core.c ****           phost->gState = HOST_ABORT_STATE;
 1212              		.loc 1 869 11 view .LVU368
 870:Middlewares/ST/STM32_USB_Host_Library/Core/Src/usbh_core.c ****         }
 1213              		.loc 1 870 11 view .LVU369
 870:Middlewares/ST/STM32_USB_Host_Library/Core/Src/usbh_core.c ****         }
 1214              		.loc 1 870 25 is_stmt 0 view .LVU370
 1215 00c6 0D23     		movs	r3, #13
 1216 00c8 2370     		strb	r3, [r4]
 1217 00ca D8E0     		b	.L65
ARM GAS  C:\Users\moham\AppData\Local\Temp\ccR7RLkT.s 			page 50


 1218              	.L78:
 875:Middlewares/ST/STM32_USB_Host_Library/Core/Src/usbh_core.c ****           (void)USBH_FreePipe(phost, phost->Control.pipe_in);
 1219              		.loc 1 875 11 is_stmt 1 view .LVU371
 875:Middlewares/ST/STM32_USB_Host_Library/Core/Src/usbh_core.c ****           (void)USBH_FreePipe(phost, phost->Control.pipe_in);
 1220              		.loc 1 875 17 is_stmt 0 view .LVU372
 1221 00cc 6179     		ldrb	r1, [r4, #5]	@ zero_extendqisi2
 1222 00ce 2046     		mov	r0, r4
 1223              	.LVL97:
 875:Middlewares/ST/STM32_USB_Host_Library/Core/Src/usbh_core.c ****           (void)USBH_FreePipe(phost, phost->Control.pipe_in);
 1224              		.loc 1 875 17 view .LVU373
 1225 00d0 FFF7FEFF 		bl	USBH_FreePipe
 1226              	.LVL98:
 876:Middlewares/ST/STM32_USB_Host_Library/Core/Src/usbh_core.c **** 
 1227              		.loc 1 876 11 is_stmt 1 view .LVU374
 876:Middlewares/ST/STM32_USB_Host_Library/Core/Src/usbh_core.c **** 
 1228              		.loc 1 876 17 is_stmt 0 view .LVU375
 1229 00d4 2179     		ldrb	r1, [r4, #4]	@ zero_extendqisi2
 1230 00d6 2046     		mov	r0, r4
 1231 00d8 FFF7FEFF 		bl	USBH_FreePipe
 1232              	.LVL99:
 879:Middlewares/ST/STM32_USB_Host_Library/Core/Src/usbh_core.c ****           phost->gState = HOST_IDLE;
 1233              		.loc 1 879 11 is_stmt 1 view .LVU376
 879:Middlewares/ST/STM32_USB_Host_Library/Core/Src/usbh_core.c ****           phost->gState = HOST_IDLE;
 1234              		.loc 1 879 28 is_stmt 0 view .LVU377
 1235 00dc 0023     		movs	r3, #0
 1236 00de 6370     		strb	r3, [r4, #1]
 880:Middlewares/ST/STM32_USB_Host_Library/Core/Src/usbh_core.c ****         }
 1237              		.loc 1 880 11 is_stmt 1 view .LVU378
 880:Middlewares/ST/STM32_USB_Host_Library/Core/Src/usbh_core.c ****         }
 1238              		.loc 1 880 25 is_stmt 0 view .LVU379
 1239 00e0 2370     		strb	r3, [r4]
 1240 00e2 CCE0     		b	.L65
 1241              	.LVL100:
 1242              	.L72:
 891:Middlewares/ST/STM32_USB_Host_Library/Core/Src/usbh_core.c ****       if (ReqStatus == USBH_OK)
 1243              		.loc 1 891 7 is_stmt 1 view .LVU380
 891:Middlewares/ST/STM32_USB_Host_Library/Core/Src/usbh_core.c ****       if (ReqStatus == USBH_OK)
 1244              		.loc 1 891 19 is_stmt 0 view .LVU381
 1245 00e4 0121     		movs	r1, #1
 1246 00e6 FFF7FEFF 		bl	USBH_SetAddress
 1247              	.LVL101:
 892:Middlewares/ST/STM32_USB_Host_Library/Core/Src/usbh_core.c ****       {
 1248              		.loc 1 892 7 is_stmt 1 view .LVU382
 892:Middlewares/ST/STM32_USB_Host_Library/Core/Src/usbh_core.c ****       {
 1249              		.loc 1 892 10 is_stmt 0 view .LVU383
 1250 00ea 18B1     		cbz	r0, .L99
 911:Middlewares/ST/STM32_USB_Host_Library/Core/Src/usbh_core.c ****       {
 1251              		.loc 1 911 12 is_stmt 1 view .LVU384
 911:Middlewares/ST/STM32_USB_Host_Library/Core/Src/usbh_core.c ****       {
 1252              		.loc 1 911 15 is_stmt 0 view .LVU385
 1253 00ec 0328     		cmp	r0, #3
 1254 00ee 24D0     		beq	.L100
 802:Middlewares/ST/STM32_USB_Host_Library/Core/Src/usbh_core.c ****   USBH_StatusTypeDef ReqStatus = USBH_BUSY;
 1255              		.loc 1 802 22 view .LVU386
 1256 00f0 0125     		movs	r5, #1
 1257 00f2 C4E0     		b	.L65
 1258              	.L99:
ARM GAS  C:\Users\moham\AppData\Local\Temp\ccR7RLkT.s 			page 51


 894:Middlewares/ST/STM32_USB_Host_Library/Core/Src/usbh_core.c ****         phost->device.address = USBH_DEVICE_ADDRESS;
 1259              		.loc 1 894 9 is_stmt 1 view .LVU387
 1260 00f4 0220     		movs	r0, #2
 1261              	.LVL102:
 894:Middlewares/ST/STM32_USB_Host_Library/Core/Src/usbh_core.c ****         phost->device.address = USBH_DEVICE_ADDRESS;
 1262              		.loc 1 894 9 is_stmt 0 view .LVU388
 1263 00f6 FFF7FEFF 		bl	USBH_Delay
 1264              	.LVL103:
 895:Middlewares/ST/STM32_USB_Host_Library/Core/Src/usbh_core.c **** 
 1265              		.loc 1 895 9 is_stmt 1 view .LVU389
 895:Middlewares/ST/STM32_USB_Host_Library/Core/Src/usbh_core.c **** 
 1266              		.loc 1 895 31 is_stmt 0 view .LVU390
 1267 00fa 0125     		movs	r5, #1
 1268 00fc 84F81C53 		strb	r5, [r4, #796]
 898:Middlewares/ST/STM32_USB_Host_Library/Core/Src/usbh_core.c ****         phost->EnumState = ENUM_GET_CFG_DESC;
 1269              		.loc 1 898 9 is_stmt 1 view .LVU391
 898:Middlewares/ST/STM32_USB_Host_Library/Core/Src/usbh_core.c ****         phost->EnumState = ENUM_GET_CFG_DESC;
 1270              		.loc 1 898 9 view .LVU392
 898:Middlewares/ST/STM32_USB_Host_Library/Core/Src/usbh_core.c ****         phost->EnumState = ENUM_GET_CFG_DESC;
 1271              		.loc 1 898 9 view .LVU393
 899:Middlewares/ST/STM32_USB_Host_Library/Core/Src/usbh_core.c **** 
 1272              		.loc 1 899 9 view .LVU394
 899:Middlewares/ST/STM32_USB_Host_Library/Core/Src/usbh_core.c **** 
 1273              		.loc 1 899 26 is_stmt 0 view .LVU395
 1274 0100 0323     		movs	r3, #3
 1275 0102 6370     		strb	r3, [r4, #1]
 902:Middlewares/ST/STM32_USB_Host_Library/Core/Src/usbh_core.c ****                             phost->device.speed, USBH_EP_CONTROL,
 1276              		.loc 1 902 9 is_stmt 1 view .LVU396
 904:Middlewares/ST/STM32_USB_Host_Library/Core/Src/usbh_core.c **** 
 1277              		.loc 1 904 53 is_stmt 0 view .LVU397
 1278 0104 A379     		ldrb	r3, [r4, #6]	@ zero_extendqisi2
 902:Middlewares/ST/STM32_USB_Host_Library/Core/Src/usbh_core.c ****                             phost->device.speed, USBH_EP_CONTROL,
 1279              		.loc 1 902 15 view .LVU398
 1280 0106 0293     		str	r3, [sp, #8]
 1281 0108 0026     		movs	r6, #0
 1282 010a 0196     		str	r6, [sp, #4]
 1283 010c 94F81D33 		ldrb	r3, [r4, #797]	@ zero_extendqisi2
 1284 0110 0093     		str	r3, [sp]
 1285 0112 2B46     		mov	r3, r5
 1286 0114 8022     		movs	r2, #128
 1287 0116 2179     		ldrb	r1, [r4, #4]	@ zero_extendqisi2
 1288 0118 2046     		mov	r0, r4
 1289 011a FFF7FEFF 		bl	USBH_OpenPipe
 1290              	.LVL104:
 907:Middlewares/ST/STM32_USB_Host_Library/Core/Src/usbh_core.c ****                             phost->device.speed, USBH_EP_CONTROL,
 1291              		.loc 1 907 9 is_stmt 1 view .LVU399
 909:Middlewares/ST/STM32_USB_Host_Library/Core/Src/usbh_core.c ****       }
 1292              		.loc 1 909 53 is_stmt 0 view .LVU400
 1293 011e A379     		ldrb	r3, [r4, #6]	@ zero_extendqisi2
 907:Middlewares/ST/STM32_USB_Host_Library/Core/Src/usbh_core.c ****                             phost->device.speed, USBH_EP_CONTROL,
 1294              		.loc 1 907 15 view .LVU401
 1295 0120 0293     		str	r3, [sp, #8]
 1296 0122 0196     		str	r6, [sp, #4]
 1297 0124 94F81D33 		ldrb	r3, [r4, #797]	@ zero_extendqisi2
 1298 0128 0093     		str	r3, [sp]
 1299 012a 94F81C33 		ldrb	r3, [r4, #796]	@ zero_extendqisi2
 1300 012e 3246     		mov	r2, r6
ARM GAS  C:\Users\moham\AppData\Local\Temp\ccR7RLkT.s 			page 52


 1301 0130 6179     		ldrb	r1, [r4, #5]	@ zero_extendqisi2
 1302 0132 2046     		mov	r0, r4
 1303 0134 FFF7FEFF 		bl	USBH_OpenPipe
 1304              	.LVL105:
 1305 0138 A1E0     		b	.L65
 1306              	.LVL106:
 1307              	.L100:
 913:Middlewares/ST/STM32_USB_Host_Library/Core/Src/usbh_core.c **** 
 1308              		.loc 1 913 9 is_stmt 1 view .LVU402
 913:Middlewares/ST/STM32_USB_Host_Library/Core/Src/usbh_core.c **** 
 1309              		.loc 1 913 9 view .LVU403
 913:Middlewares/ST/STM32_USB_Host_Library/Core/Src/usbh_core.c **** 
 1310              		.loc 1 913 9 view .LVU404
 916:Middlewares/ST/STM32_USB_Host_Library/Core/Src/usbh_core.c ****         phost->gState = HOST_ABORT_STATE;
 1311              		.loc 1 916 9 view .LVU405
 916:Middlewares/ST/STM32_USB_Host_Library/Core/Src/usbh_core.c ****         phost->gState = HOST_ABORT_STATE;
 1312              		.loc 1 916 9 view .LVU406
 916:Middlewares/ST/STM32_USB_Host_Library/Core/Src/usbh_core.c ****         phost->gState = HOST_ABORT_STATE;
 1313              		.loc 1 916 9 view .LVU407
 917:Middlewares/ST/STM32_USB_Host_Library/Core/Src/usbh_core.c ****         phost->EnumState = ENUM_IDLE;
 1314              		.loc 1 917 9 view .LVU408
 917:Middlewares/ST/STM32_USB_Host_Library/Core/Src/usbh_core.c ****         phost->EnumState = ENUM_IDLE;
 1315              		.loc 1 917 23 is_stmt 0 view .LVU409
 1316 013a 0D23     		movs	r3, #13
 1317 013c 2370     		strb	r3, [r4]
 918:Middlewares/ST/STM32_USB_Host_Library/Core/Src/usbh_core.c ****       }
 1318              		.loc 1 918 9 is_stmt 1 view .LVU410
 918:Middlewares/ST/STM32_USB_Host_Library/Core/Src/usbh_core.c ****       }
 1319              		.loc 1 918 26 is_stmt 0 view .LVU411
 1320 013e 0023     		movs	r3, #0
 1321 0140 6370     		strb	r3, [r4, #1]
 802:Middlewares/ST/STM32_USB_Host_Library/Core/Src/usbh_core.c ****   USBH_StatusTypeDef ReqStatus = USBH_BUSY;
 1322              		.loc 1 802 22 view .LVU412
 1323 0142 0125     		movs	r5, #1
 1324 0144 9BE0     		b	.L65
 1325              	.LVL107:
 1326              	.L71:
 928:Middlewares/ST/STM32_USB_Host_Library/Core/Src/usbh_core.c ****       if (ReqStatus == USBH_OK)
 1327              		.loc 1 928 7 is_stmt 1 view .LVU413
 928:Middlewares/ST/STM32_USB_Host_Library/Core/Src/usbh_core.c ****       if (ReqStatus == USBH_OK)
 1328              		.loc 1 928 19 is_stmt 0 view .LVU414
 1329 0146 0921     		movs	r1, #9
 1330 0148 FFF7FEFF 		bl	USBH_Get_CfgDesc
 1331              	.LVL108:
 929:Middlewares/ST/STM32_USB_Host_Library/Core/Src/usbh_core.c ****       {
 1332              		.loc 1 929 7 is_stmt 1 view .LVU415
 929:Middlewares/ST/STM32_USB_Host_Library/Core/Src/usbh_core.c ****       {
 1333              		.loc 1 929 10 is_stmt 0 view .LVU416
 1334 014c 18B9     		cbnz	r0, .L80
 931:Middlewares/ST/STM32_USB_Host_Library/Core/Src/usbh_core.c ****       }
 1335              		.loc 1 931 9 is_stmt 1 view .LVU417
 931:Middlewares/ST/STM32_USB_Host_Library/Core/Src/usbh_core.c ****       }
 1336              		.loc 1 931 26 is_stmt 0 view .LVU418
 1337 014e 0423     		movs	r3, #4
 1338 0150 6370     		strb	r3, [r4, #1]
 802:Middlewares/ST/STM32_USB_Host_Library/Core/Src/usbh_core.c ****   USBH_StatusTypeDef ReqStatus = USBH_BUSY;
 1339              		.loc 1 802 22 view .LVU419
ARM GAS  C:\Users\moham\AppData\Local\Temp\ccR7RLkT.s 			page 53


 1340 0152 0125     		movs	r5, #1
 1341 0154 93E0     		b	.L65
 1342              	.L80:
 933:Middlewares/ST/STM32_USB_Host_Library/Core/Src/usbh_core.c ****       {
 1343              		.loc 1 933 12 is_stmt 1 view .LVU420
 933:Middlewares/ST/STM32_USB_Host_Library/Core/Src/usbh_core.c ****       {
 1344              		.loc 1 933 15 is_stmt 0 view .LVU421
 1345 0156 0328     		cmp	r0, #3
 1346 0158 01D0     		beq	.L101
 802:Middlewares/ST/STM32_USB_Host_Library/Core/Src/usbh_core.c ****   USBH_StatusTypeDef ReqStatus = USBH_BUSY;
 1347              		.loc 1 802 22 view .LVU422
 1348 015a 0125     		movs	r5, #1
 1349 015c 8FE0     		b	.L65
 1350              	.L101:
 935:Middlewares/ST/STM32_USB_Host_Library/Core/Src/usbh_core.c ****         phost->device.EnumCnt++;
 1351              		.loc 1 935 9 is_stmt 1 view .LVU423
 935:Middlewares/ST/STM32_USB_Host_Library/Core/Src/usbh_core.c ****         phost->device.EnumCnt++;
 1352              		.loc 1 935 9 view .LVU424
 935:Middlewares/ST/STM32_USB_Host_Library/Core/Src/usbh_core.c ****         phost->device.EnumCnt++;
 1353              		.loc 1 935 9 view .LVU425
 936:Middlewares/ST/STM32_USB_Host_Library/Core/Src/usbh_core.c ****         if (phost->device.EnumCnt > 3U)
 1354              		.loc 1 936 9 view .LVU426
 936:Middlewares/ST/STM32_USB_Host_Library/Core/Src/usbh_core.c ****         if (phost->device.EnumCnt > 3U)
 1355              		.loc 1 936 22 is_stmt 0 view .LVU427
 1356 015e 94F81E33 		ldrb	r3, [r4, #798]	@ zero_extendqisi2
 936:Middlewares/ST/STM32_USB_Host_Library/Core/Src/usbh_core.c ****         if (phost->device.EnumCnt > 3U)
 1357              		.loc 1 936 30 view .LVU428
 1358 0162 0133     		adds	r3, r3, #1
 1359 0164 DBB2     		uxtb	r3, r3
 1360 0166 84F81E33 		strb	r3, [r4, #798]
 937:Middlewares/ST/STM32_USB_Host_Library/Core/Src/usbh_core.c ****         {
 1361              		.loc 1 937 9 is_stmt 1 view .LVU429
 937:Middlewares/ST/STM32_USB_Host_Library/Core/Src/usbh_core.c ****         {
 1362              		.loc 1 937 12 is_stmt 0 view .LVU430
 1363 016a 032B     		cmp	r3, #3
 1364 016c 03D9     		bls	.L81
 940:Middlewares/ST/STM32_USB_Host_Library/Core/Src/usbh_core.c ****           phost->gState = HOST_ABORT_STATE;
 1365              		.loc 1 940 11 is_stmt 1 view .LVU431
 940:Middlewares/ST/STM32_USB_Host_Library/Core/Src/usbh_core.c ****           phost->gState = HOST_ABORT_STATE;
 1366              		.loc 1 940 11 view .LVU432
 940:Middlewares/ST/STM32_USB_Host_Library/Core/Src/usbh_core.c ****           phost->gState = HOST_ABORT_STATE;
 1367              		.loc 1 940 11 view .LVU433
 941:Middlewares/ST/STM32_USB_Host_Library/Core/Src/usbh_core.c ****         }
 1368              		.loc 1 941 11 view .LVU434
 941:Middlewares/ST/STM32_USB_Host_Library/Core/Src/usbh_core.c ****         }
 1369              		.loc 1 941 25 is_stmt 0 view .LVU435
 1370 016e 0D23     		movs	r3, #13
 1371 0170 2370     		strb	r3, [r4]
 802:Middlewares/ST/STM32_USB_Host_Library/Core/Src/usbh_core.c ****   USBH_StatusTypeDef ReqStatus = USBH_BUSY;
 1372              		.loc 1 802 22 view .LVU436
 1373 0172 0125     		movs	r5, #1
 1374 0174 83E0     		b	.L65
 1375              	.L81:
 946:Middlewares/ST/STM32_USB_Host_Library/Core/Src/usbh_core.c ****           (void)USBH_FreePipe(phost, phost->Control.pipe_in);
 1376              		.loc 1 946 11 is_stmt 1 view .LVU437
 946:Middlewares/ST/STM32_USB_Host_Library/Core/Src/usbh_core.c ****           (void)USBH_FreePipe(phost, phost->Control.pipe_in);
 1377              		.loc 1 946 17 is_stmt 0 view .LVU438
ARM GAS  C:\Users\moham\AppData\Local\Temp\ccR7RLkT.s 			page 54


 1378 0176 6179     		ldrb	r1, [r4, #5]	@ zero_extendqisi2
 1379 0178 2046     		mov	r0, r4
 1380              	.LVL109:
 946:Middlewares/ST/STM32_USB_Host_Library/Core/Src/usbh_core.c ****           (void)USBH_FreePipe(phost, phost->Control.pipe_in);
 1381              		.loc 1 946 17 view .LVU439
 1382 017a FFF7FEFF 		bl	USBH_FreePipe
 1383              	.LVL110:
 947:Middlewares/ST/STM32_USB_Host_Library/Core/Src/usbh_core.c **** 
 1384              		.loc 1 947 11 is_stmt 1 view .LVU440
 947:Middlewares/ST/STM32_USB_Host_Library/Core/Src/usbh_core.c **** 
 1385              		.loc 1 947 17 is_stmt 0 view .LVU441
 1386 017e 2179     		ldrb	r1, [r4, #4]	@ zero_extendqisi2
 1387 0180 2046     		mov	r0, r4
 1388 0182 FFF7FEFF 		bl	USBH_FreePipe
 1389              	.LVL111:
 950:Middlewares/ST/STM32_USB_Host_Library/Core/Src/usbh_core.c ****           phost->gState = HOST_IDLE;
 1390              		.loc 1 950 11 is_stmt 1 view .LVU442
 950:Middlewares/ST/STM32_USB_Host_Library/Core/Src/usbh_core.c ****           phost->gState = HOST_IDLE;
 1391              		.loc 1 950 28 is_stmt 0 view .LVU443
 1392 0186 0023     		movs	r3, #0
 1393 0188 6370     		strb	r3, [r4, #1]
 951:Middlewares/ST/STM32_USB_Host_Library/Core/Src/usbh_core.c ****         }
 1394              		.loc 1 951 11 is_stmt 1 view .LVU444
 951:Middlewares/ST/STM32_USB_Host_Library/Core/Src/usbh_core.c ****         }
 1395              		.loc 1 951 25 is_stmt 0 view .LVU445
 1396 018a 2370     		strb	r3, [r4]
 802:Middlewares/ST/STM32_USB_Host_Library/Core/Src/usbh_core.c ****   USBH_StatusTypeDef ReqStatus = USBH_BUSY;
 1397              		.loc 1 802 22 view .LVU446
 1398 018c 0125     		movs	r5, #1
 1399 018e 76E0     		b	.L65
 1400              	.LVL112:
 1401              	.L70:
 962:Middlewares/ST/STM32_USB_Host_Library/Core/Src/usbh_core.c ****       if (ReqStatus == USBH_OK)
 1402              		.loc 1 962 7 is_stmt 1 view .LVU447
 962:Middlewares/ST/STM32_USB_Host_Library/Core/Src/usbh_core.c ****       if (ReqStatus == USBH_OK)
 1403              		.loc 1 962 19 is_stmt 0 view .LVU448
 1404 0190 B0F83A13 		ldrh	r1, [r0, #826]
 1405 0194 FFF7FEFF 		bl	USBH_Get_CfgDesc
 1406              	.LVL113:
 963:Middlewares/ST/STM32_USB_Host_Library/Core/Src/usbh_core.c ****       {
 1407              		.loc 1 963 7 is_stmt 1 view .LVU449
 963:Middlewares/ST/STM32_USB_Host_Library/Core/Src/usbh_core.c ****       {
 1408              		.loc 1 963 10 is_stmt 0 view .LVU450
 1409 0198 18B9     		cbnz	r0, .L82
 965:Middlewares/ST/STM32_USB_Host_Library/Core/Src/usbh_core.c ****       }
 1410              		.loc 1 965 9 is_stmt 1 view .LVU451
 965:Middlewares/ST/STM32_USB_Host_Library/Core/Src/usbh_core.c ****       }
 1411              		.loc 1 965 26 is_stmt 0 view .LVU452
 1412 019a 0523     		movs	r3, #5
 1413 019c 6370     		strb	r3, [r4, #1]
 802:Middlewares/ST/STM32_USB_Host_Library/Core/Src/usbh_core.c ****   USBH_StatusTypeDef ReqStatus = USBH_BUSY;
 1414              		.loc 1 802 22 view .LVU453
 1415 019e 0125     		movs	r5, #1
 1416 01a0 6DE0     		b	.L65
 1417              	.L82:
 967:Middlewares/ST/STM32_USB_Host_Library/Core/Src/usbh_core.c ****       {
 1418              		.loc 1 967 12 is_stmt 1 view .LVU454
ARM GAS  C:\Users\moham\AppData\Local\Temp\ccR7RLkT.s 			page 55


 967:Middlewares/ST/STM32_USB_Host_Library/Core/Src/usbh_core.c ****       {
 1419              		.loc 1 967 15 is_stmt 0 view .LVU455
 1420 01a2 0328     		cmp	r0, #3
 1421 01a4 01D0     		beq	.L102
 802:Middlewares/ST/STM32_USB_Host_Library/Core/Src/usbh_core.c ****   USBH_StatusTypeDef ReqStatus = USBH_BUSY;
 1422              		.loc 1 802 22 view .LVU456
 1423 01a6 0125     		movs	r5, #1
 1424 01a8 69E0     		b	.L65
 1425              	.L102:
 969:Middlewares/ST/STM32_USB_Host_Library/Core/Src/usbh_core.c ****         phost->device.EnumCnt++;
 1426              		.loc 1 969 9 is_stmt 1 view .LVU457
 969:Middlewares/ST/STM32_USB_Host_Library/Core/Src/usbh_core.c ****         phost->device.EnumCnt++;
 1427              		.loc 1 969 9 view .LVU458
 969:Middlewares/ST/STM32_USB_Host_Library/Core/Src/usbh_core.c ****         phost->device.EnumCnt++;
 1428              		.loc 1 969 9 view .LVU459
 970:Middlewares/ST/STM32_USB_Host_Library/Core/Src/usbh_core.c ****         if (phost->device.EnumCnt > 3U)
 1429              		.loc 1 970 9 view .LVU460
 970:Middlewares/ST/STM32_USB_Host_Library/Core/Src/usbh_core.c ****         if (phost->device.EnumCnt > 3U)
 1430              		.loc 1 970 22 is_stmt 0 view .LVU461
 1431 01aa 94F81E33 		ldrb	r3, [r4, #798]	@ zero_extendqisi2
 970:Middlewares/ST/STM32_USB_Host_Library/Core/Src/usbh_core.c ****         if (phost->device.EnumCnt > 3U)
 1432              		.loc 1 970 30 view .LVU462
 1433 01ae 0133     		adds	r3, r3, #1
 1434 01b0 DBB2     		uxtb	r3, r3
 1435 01b2 84F81E33 		strb	r3, [r4, #798]
 971:Middlewares/ST/STM32_USB_Host_Library/Core/Src/usbh_core.c ****         {
 1436              		.loc 1 971 9 is_stmt 1 view .LVU463
 971:Middlewares/ST/STM32_USB_Host_Library/Core/Src/usbh_core.c ****         {
 1437              		.loc 1 971 12 is_stmt 0 view .LVU464
 1438 01b6 032B     		cmp	r3, #3
 1439 01b8 03D9     		bls	.L83
 974:Middlewares/ST/STM32_USB_Host_Library/Core/Src/usbh_core.c ****           phost->gState = HOST_ABORT_STATE;
 1440              		.loc 1 974 11 is_stmt 1 view .LVU465
 974:Middlewares/ST/STM32_USB_Host_Library/Core/Src/usbh_core.c ****           phost->gState = HOST_ABORT_STATE;
 1441              		.loc 1 974 11 view .LVU466
 974:Middlewares/ST/STM32_USB_Host_Library/Core/Src/usbh_core.c ****           phost->gState = HOST_ABORT_STATE;
 1442              		.loc 1 974 11 view .LVU467
 975:Middlewares/ST/STM32_USB_Host_Library/Core/Src/usbh_core.c ****         }
 1443              		.loc 1 975 11 view .LVU468
 975:Middlewares/ST/STM32_USB_Host_Library/Core/Src/usbh_core.c ****         }
 1444              		.loc 1 975 25 is_stmt 0 view .LVU469
 1445 01ba 0D23     		movs	r3, #13
 1446 01bc 2370     		strb	r3, [r4]
 802:Middlewares/ST/STM32_USB_Host_Library/Core/Src/usbh_core.c ****   USBH_StatusTypeDef ReqStatus = USBH_BUSY;
 1447              		.loc 1 802 22 view .LVU470
 1448 01be 0125     		movs	r5, #1
 1449 01c0 5DE0     		b	.L65
 1450              	.L83:
 980:Middlewares/ST/STM32_USB_Host_Library/Core/Src/usbh_core.c ****           (void)USBH_FreePipe(phost, phost->Control.pipe_in);
 1451              		.loc 1 980 11 is_stmt 1 view .LVU471
 980:Middlewares/ST/STM32_USB_Host_Library/Core/Src/usbh_core.c ****           (void)USBH_FreePipe(phost, phost->Control.pipe_in);
 1452              		.loc 1 980 17 is_stmt 0 view .LVU472
 1453 01c2 6179     		ldrb	r1, [r4, #5]	@ zero_extendqisi2
 1454 01c4 2046     		mov	r0, r4
 1455              	.LVL114:
 980:Middlewares/ST/STM32_USB_Host_Library/Core/Src/usbh_core.c ****           (void)USBH_FreePipe(phost, phost->Control.pipe_in);
 1456              		.loc 1 980 17 view .LVU473
ARM GAS  C:\Users\moham\AppData\Local\Temp\ccR7RLkT.s 			page 56


 1457 01c6 FFF7FEFF 		bl	USBH_FreePipe
 1458              	.LVL115:
 981:Middlewares/ST/STM32_USB_Host_Library/Core/Src/usbh_core.c **** 
 1459              		.loc 1 981 11 is_stmt 1 view .LVU474
 981:Middlewares/ST/STM32_USB_Host_Library/Core/Src/usbh_core.c **** 
 1460              		.loc 1 981 17 is_stmt 0 view .LVU475
 1461 01ca 2179     		ldrb	r1, [r4, #4]	@ zero_extendqisi2
 1462 01cc 2046     		mov	r0, r4
 1463 01ce FFF7FEFF 		bl	USBH_FreePipe
 1464              	.LVL116:
 984:Middlewares/ST/STM32_USB_Host_Library/Core/Src/usbh_core.c ****           phost->gState = HOST_IDLE;
 1465              		.loc 1 984 11 is_stmt 1 view .LVU476
 984:Middlewares/ST/STM32_USB_Host_Library/Core/Src/usbh_core.c ****           phost->gState = HOST_IDLE;
 1466              		.loc 1 984 28 is_stmt 0 view .LVU477
 1467 01d2 0023     		movs	r3, #0
 1468 01d4 6370     		strb	r3, [r4, #1]
 985:Middlewares/ST/STM32_USB_Host_Library/Core/Src/usbh_core.c ****         }
 1469              		.loc 1 985 11 is_stmt 1 view .LVU478
 985:Middlewares/ST/STM32_USB_Host_Library/Core/Src/usbh_core.c ****         }
 1470              		.loc 1 985 25 is_stmt 0 view .LVU479
 1471 01d6 2370     		strb	r3, [r4]
 802:Middlewares/ST/STM32_USB_Host_Library/Core/Src/usbh_core.c ****   USBH_StatusTypeDef ReqStatus = USBH_BUSY;
 1472              		.loc 1 802 22 view .LVU480
 1473 01d8 0125     		movs	r5, #1
 1474 01da 50E0     		b	.L65
 1475              	.LVL117:
 1476              	.L69:
 995:Middlewares/ST/STM32_USB_Host_Library/Core/Src/usbh_core.c ****       {
 1477              		.loc 1 995 7 is_stmt 1 view .LVU481
 995:Middlewares/ST/STM32_USB_Host_Library/Core/Src/usbh_core.c ****       {
 1478              		.loc 1 995 32 is_stmt 0 view .LVU482
 1479 01dc 90F83413 		ldrb	r1, [r0, #820]	@ zero_extendqisi2
 995:Middlewares/ST/STM32_USB_Host_Library/Core/Src/usbh_core.c ****       {
 1480              		.loc 1 995 10 view .LVU483
 1481 01e0 E9B1     		cbz	r1, .L84
 998:Middlewares/ST/STM32_USB_Host_Library/Core/Src/usbh_core.c ****                                         phost->device.Data, 0xFFU);
 1482              		.loc 1 998 9 is_stmt 1 view .LVU484
 998:Middlewares/ST/STM32_USB_Host_Library/Core/Src/usbh_core.c ****                                         phost->device.Data, 0xFFU);
 1483              		.loc 1 998 21 is_stmt 0 view .LVU485
 1484 01e2 FF23     		movs	r3, #255
 1485 01e4 00F58E72 		add	r2, r0, #284
 1486 01e8 FFF7FEFF 		bl	USBH_Get_StringDesc
 1487              	.LVL118:
1000:Middlewares/ST/STM32_USB_Host_Library/Core/Src/usbh_core.c ****         {
 1488              		.loc 1 1000 9 is_stmt 1 view .LVU486
1000:Middlewares/ST/STM32_USB_Host_Library/Core/Src/usbh_core.c ****         {
 1489              		.loc 1 1000 12 is_stmt 0 view .LVU487
 1490 01ec 18B1     		cbz	r0, .L103
1010:Middlewares/ST/STM32_USB_Host_Library/Core/Src/usbh_core.c ****         {
 1491              		.loc 1 1010 14 is_stmt 1 view .LVU488
1010:Middlewares/ST/STM32_USB_Host_Library/Core/Src/usbh_core.c ****         {
 1492              		.loc 1 1010 17 is_stmt 0 view .LVU489
 1493 01ee 0328     		cmp	r0, #3
 1494 01f0 0BD0     		beq	.L104
 802:Middlewares/ST/STM32_USB_Host_Library/Core/Src/usbh_core.c ****   USBH_StatusTypeDef ReqStatus = USBH_BUSY;
 1495              		.loc 1 802 22 view .LVU490
 1496 01f2 0125     		movs	r5, #1
ARM GAS  C:\Users\moham\AppData\Local\Temp\ccR7RLkT.s 			page 57


 1497 01f4 43E0     		b	.L65
 1498              	.L103:
1003:Middlewares/ST/STM32_USB_Host_Library/Core/Src/usbh_core.c ****           phost->EnumState = ENUM_GET_PRODUCT_STRING_DESC;
 1499              		.loc 1 1003 11 is_stmt 1 view .LVU491
1003:Middlewares/ST/STM32_USB_Host_Library/Core/Src/usbh_core.c ****           phost->EnumState = ENUM_GET_PRODUCT_STRING_DESC;
 1500              		.loc 1 1003 11 view .LVU492
1003:Middlewares/ST/STM32_USB_Host_Library/Core/Src/usbh_core.c ****           phost->EnumState = ENUM_GET_PRODUCT_STRING_DESC;
 1501              		.loc 1 1003 11 view .LVU493
1004:Middlewares/ST/STM32_USB_Host_Library/Core/Src/usbh_core.c **** 
 1502              		.loc 1 1004 11 view .LVU494
1004:Middlewares/ST/STM32_USB_Host_Library/Core/Src/usbh_core.c **** 
 1503              		.loc 1 1004 28 is_stmt 0 view .LVU495
 1504 01f6 0623     		movs	r3, #6
 1505 01f8 6370     		strb	r3, [r4, #1]
1007:Middlewares/ST/STM32_USB_Host_Library/Core/Src/usbh_core.c **** #endif /* (USBH_USE_OS == 1U) */
 1506              		.loc 1 1007 11 is_stmt 1 view .LVU496
 1507 01fa 0023     		movs	r3, #0
 1508 01fc 1A46     		mov	r2, r3
 1509 01fe 0521     		movs	r1, #5
 1510 0200 2046     		mov	r0, r4
 1511              	.LVL119:
1007:Middlewares/ST/STM32_USB_Host_Library/Core/Src/usbh_core.c **** #endif /* (USBH_USE_OS == 1U) */
 1512              		.loc 1 1007 11 is_stmt 0 view .LVU497
 1513 0202 FFF7FEFF 		bl	USBH_OS_PutMessage
 1514              	.LVL120:
 802:Middlewares/ST/STM32_USB_Host_Library/Core/Src/usbh_core.c ****   USBH_StatusTypeDef ReqStatus = USBH_BUSY;
 1515              		.loc 1 802 22 view .LVU498
 1516 0206 0125     		movs	r5, #1
 1517 0208 39E0     		b	.L65
 1518              	.LVL121:
 1519              	.L104:
1012:Middlewares/ST/STM32_USB_Host_Library/Core/Src/usbh_core.c ****           phost->EnumState = ENUM_GET_PRODUCT_STRING_DESC;
 1520              		.loc 1 1012 11 is_stmt 1 view .LVU499
1012:Middlewares/ST/STM32_USB_Host_Library/Core/Src/usbh_core.c ****           phost->EnumState = ENUM_GET_PRODUCT_STRING_DESC;
 1521              		.loc 1 1012 11 view .LVU500
1012:Middlewares/ST/STM32_USB_Host_Library/Core/Src/usbh_core.c ****           phost->EnumState = ENUM_GET_PRODUCT_STRING_DESC;
 1522              		.loc 1 1012 11 view .LVU501
1013:Middlewares/ST/STM32_USB_Host_Library/Core/Src/usbh_core.c **** 
 1523              		.loc 1 1013 11 view .LVU502
1013:Middlewares/ST/STM32_USB_Host_Library/Core/Src/usbh_core.c **** 
 1524              		.loc 1 1013 28 is_stmt 0 view .LVU503
 1525 020a 0623     		movs	r3, #6
 1526 020c 6370     		strb	r3, [r4, #1]
1016:Middlewares/ST/STM32_USB_Host_Library/Core/Src/usbh_core.c **** #endif /* (USBH_USE_OS == 1U) */
 1527              		.loc 1 1016 11 is_stmt 1 view .LVU504
 1528 020e 0023     		movs	r3, #0
 1529 0210 1A46     		mov	r2, r3
 1530 0212 0521     		movs	r1, #5
 1531 0214 2046     		mov	r0, r4
 1532              	.LVL122:
1016:Middlewares/ST/STM32_USB_Host_Library/Core/Src/usbh_core.c **** #endif /* (USBH_USE_OS == 1U) */
 1533              		.loc 1 1016 11 is_stmt 0 view .LVU505
 1534 0216 FFF7FEFF 		bl	USBH_OS_PutMessage
 1535              	.LVL123:
 802:Middlewares/ST/STM32_USB_Host_Library/Core/Src/usbh_core.c ****   USBH_StatusTypeDef ReqStatus = USBH_BUSY;
 1536              		.loc 1 802 22 view .LVU506
 1537 021a 0125     		movs	r5, #1
ARM GAS  C:\Users\moham\AppData\Local\Temp\ccR7RLkT.s 			page 58


 1538 021c 2FE0     		b	.L65
 1539              	.LVL124:
 1540              	.L84:
1026:Middlewares/ST/STM32_USB_Host_Library/Core/Src/usbh_core.c ****         phost->EnumState = ENUM_GET_PRODUCT_STRING_DESC;
 1541              		.loc 1 1026 9 is_stmt 1 view .LVU507
1026:Middlewares/ST/STM32_USB_Host_Library/Core/Src/usbh_core.c ****         phost->EnumState = ENUM_GET_PRODUCT_STRING_DESC;
 1542              		.loc 1 1026 9 view .LVU508
1026:Middlewares/ST/STM32_USB_Host_Library/Core/Src/usbh_core.c ****         phost->EnumState = ENUM_GET_PRODUCT_STRING_DESC;
 1543              		.loc 1 1026 9 view .LVU509
1027:Middlewares/ST/STM32_USB_Host_Library/Core/Src/usbh_core.c **** 
 1544              		.loc 1 1027 9 view .LVU510
1027:Middlewares/ST/STM32_USB_Host_Library/Core/Src/usbh_core.c **** 
 1545              		.loc 1 1027 26 is_stmt 0 view .LVU511
 1546 021e 0623     		movs	r3, #6
 1547 0220 4370     		strb	r3, [r0, #1]
1030:Middlewares/ST/STM32_USB_Host_Library/Core/Src/usbh_core.c **** #endif /* (USBH_USE_OS == 1U) */
 1548              		.loc 1 1030 9 is_stmt 1 view .LVU512
 1549 0222 0023     		movs	r3, #0
 1550 0224 1A46     		mov	r2, r3
 1551 0226 0521     		movs	r1, #5
 1552 0228 FFF7FEFF 		bl	USBH_OS_PutMessage
 1553              	.LVL125:
 802:Middlewares/ST/STM32_USB_Host_Library/Core/Src/usbh_core.c ****   USBH_StatusTypeDef ReqStatus = USBH_BUSY;
 1554              		.loc 1 802 22 is_stmt 0 view .LVU513
 1555 022c 0125     		movs	r5, #1
 1556 022e 26E0     		b	.L65
 1557              	.LVL126:
 1558              	.L68:
1036:Middlewares/ST/STM32_USB_Host_Library/Core/Src/usbh_core.c ****       {
 1559              		.loc 1 1036 7 is_stmt 1 view .LVU514
1036:Middlewares/ST/STM32_USB_Host_Library/Core/Src/usbh_core.c ****       {
 1560              		.loc 1 1036 32 is_stmt 0 view .LVU515
 1561 0230 90F83513 		ldrb	r1, [r0, #821]	@ zero_extendqisi2
1036:Middlewares/ST/STM32_USB_Host_Library/Core/Src/usbh_core.c ****       {
 1562              		.loc 1 1036 10 view .LVU516
 1563 0234 B9B1     		cbz	r1, .L86
1039:Middlewares/ST/STM32_USB_Host_Library/Core/Src/usbh_core.c ****                                         phost->device.Data, 0xFFU);
 1564              		.loc 1 1039 9 is_stmt 1 view .LVU517
1039:Middlewares/ST/STM32_USB_Host_Library/Core/Src/usbh_core.c ****                                         phost->device.Data, 0xFFU);
 1565              		.loc 1 1039 21 is_stmt 0 view .LVU518
 1566 0236 FF23     		movs	r3, #255
 1567 0238 00F58E72 		add	r2, r0, #284
 1568 023c FFF7FEFF 		bl	USBH_Get_StringDesc
 1569              	.LVL127:
1041:Middlewares/ST/STM32_USB_Host_Library/Core/Src/usbh_core.c ****         {
 1570              		.loc 1 1041 9 is_stmt 1 view .LVU519
1041:Middlewares/ST/STM32_USB_Host_Library/Core/Src/usbh_core.c ****         {
 1571              		.loc 1 1041 12 is_stmt 0 view .LVU520
 1572 0240 18B9     		cbnz	r0, .L87
1044:Middlewares/ST/STM32_USB_Host_Library/Core/Src/usbh_core.c ****           phost->EnumState = ENUM_GET_SERIALNUM_STRING_DESC;
 1573              		.loc 1 1044 11 is_stmt 1 view .LVU521
1044:Middlewares/ST/STM32_USB_Host_Library/Core/Src/usbh_core.c ****           phost->EnumState = ENUM_GET_SERIALNUM_STRING_DESC;
 1574              		.loc 1 1044 11 view .LVU522
1044:Middlewares/ST/STM32_USB_Host_Library/Core/Src/usbh_core.c ****           phost->EnumState = ENUM_GET_SERIALNUM_STRING_DESC;
 1575              		.loc 1 1044 11 view .LVU523
1045:Middlewares/ST/STM32_USB_Host_Library/Core/Src/usbh_core.c ****         }
 1576              		.loc 1 1045 11 view .LVU524
ARM GAS  C:\Users\moham\AppData\Local\Temp\ccR7RLkT.s 			page 59


1045:Middlewares/ST/STM32_USB_Host_Library/Core/Src/usbh_core.c ****         }
 1577              		.loc 1 1045 28 is_stmt 0 view .LVU525
 1578 0242 0723     		movs	r3, #7
 1579 0244 6370     		strb	r3, [r4, #1]
 802:Middlewares/ST/STM32_USB_Host_Library/Core/Src/usbh_core.c ****   USBH_StatusTypeDef ReqStatus = USBH_BUSY;
 1580              		.loc 1 802 22 view .LVU526
 1581 0246 0125     		movs	r5, #1
 1582 0248 19E0     		b	.L65
 1583              	.L87:
1047:Middlewares/ST/STM32_USB_Host_Library/Core/Src/usbh_core.c ****         {
 1584              		.loc 1 1047 14 is_stmt 1 view .LVU527
1047:Middlewares/ST/STM32_USB_Host_Library/Core/Src/usbh_core.c ****         {
 1585              		.loc 1 1047 17 is_stmt 0 view .LVU528
 1586 024a 0328     		cmp	r0, #3
 1587 024c 01D0     		beq	.L105
 802:Middlewares/ST/STM32_USB_Host_Library/Core/Src/usbh_core.c ****   USBH_StatusTypeDef ReqStatus = USBH_BUSY;
 1588              		.loc 1 802 22 view .LVU529
 1589 024e 0125     		movs	r5, #1
 1590 0250 15E0     		b	.L65
 1591              	.L105:
1049:Middlewares/ST/STM32_USB_Host_Library/Core/Src/usbh_core.c ****           phost->EnumState = ENUM_GET_SERIALNUM_STRING_DESC;
 1592              		.loc 1 1049 11 is_stmt 1 view .LVU530
1049:Middlewares/ST/STM32_USB_Host_Library/Core/Src/usbh_core.c ****           phost->EnumState = ENUM_GET_SERIALNUM_STRING_DESC;
 1593              		.loc 1 1049 11 view .LVU531
1049:Middlewares/ST/STM32_USB_Host_Library/Core/Src/usbh_core.c ****           phost->EnumState = ENUM_GET_SERIALNUM_STRING_DESC;
 1594              		.loc 1 1049 11 view .LVU532
1050:Middlewares/ST/STM32_USB_Host_Library/Core/Src/usbh_core.c **** 
 1595              		.loc 1 1050 11 view .LVU533
1050:Middlewares/ST/STM32_USB_Host_Library/Core/Src/usbh_core.c **** 
 1596              		.loc 1 1050 28 is_stmt 0 view .LVU534
 1597 0252 0723     		movs	r3, #7
 1598 0254 6370     		strb	r3, [r4, #1]
1053:Middlewares/ST/STM32_USB_Host_Library/Core/Src/usbh_core.c **** #endif /* (USBH_USE_OS == 1U) */
 1599              		.loc 1 1053 11 is_stmt 1 view .LVU535
 1600 0256 0023     		movs	r3, #0
 1601 0258 1A46     		mov	r2, r3
 1602 025a 0521     		movs	r1, #5
 1603 025c 2046     		mov	r0, r4
 1604              	.LVL128:
1053:Middlewares/ST/STM32_USB_Host_Library/Core/Src/usbh_core.c **** #endif /* (USBH_USE_OS == 1U) */
 1605              		.loc 1 1053 11 is_stmt 0 view .LVU536
 1606 025e FFF7FEFF 		bl	USBH_OS_PutMessage
 1607              	.LVL129:
 802:Middlewares/ST/STM32_USB_Host_Library/Core/Src/usbh_core.c ****   USBH_StatusTypeDef ReqStatus = USBH_BUSY;
 1608              		.loc 1 802 22 view .LVU537
 1609 0262 0125     		movs	r5, #1
 1610 0264 0BE0     		b	.L65
 1611              	.LVL130:
 1612              	.L86:
1063:Middlewares/ST/STM32_USB_Host_Library/Core/Src/usbh_core.c ****         phost->EnumState = ENUM_GET_SERIALNUM_STRING_DESC;
 1613              		.loc 1 1063 9 is_stmt 1 view .LVU538
1063:Middlewares/ST/STM32_USB_Host_Library/Core/Src/usbh_core.c ****         phost->EnumState = ENUM_GET_SERIALNUM_STRING_DESC;
 1614              		.loc 1 1063 9 view .LVU539
1063:Middlewares/ST/STM32_USB_Host_Library/Core/Src/usbh_core.c ****         phost->EnumState = ENUM_GET_SERIALNUM_STRING_DESC;
 1615              		.loc 1 1063 9 view .LVU540
1064:Middlewares/ST/STM32_USB_Host_Library/Core/Src/usbh_core.c **** 
 1616              		.loc 1 1064 9 view .LVU541
ARM GAS  C:\Users\moham\AppData\Local\Temp\ccR7RLkT.s 			page 60


1064:Middlewares/ST/STM32_USB_Host_Library/Core/Src/usbh_core.c **** 
 1617              		.loc 1 1064 26 is_stmt 0 view .LVU542
 1618 0266 0723     		movs	r3, #7
 1619 0268 4370     		strb	r3, [r0, #1]
1067:Middlewares/ST/STM32_USB_Host_Library/Core/Src/usbh_core.c **** #endif /* (USBH_USE_OS == 1U) */
 1620              		.loc 1 1067 9 is_stmt 1 view .LVU543
 1621 026a 0023     		movs	r3, #0
 1622 026c 1A46     		mov	r2, r3
 1623 026e 0521     		movs	r1, #5
 1624 0270 FFF7FEFF 		bl	USBH_OS_PutMessage
 1625              	.LVL131:
 802:Middlewares/ST/STM32_USB_Host_Library/Core/Src/usbh_core.c ****   USBH_StatusTypeDef ReqStatus = USBH_BUSY;
 1626              		.loc 1 802 22 is_stmt 0 view .LVU544
 1627 0274 0125     		movs	r5, #1
 1628 0276 02E0     		b	.L65
 1629              	.LVL132:
 1630              	.L66:
1073:Middlewares/ST/STM32_USB_Host_Library/Core/Src/usbh_core.c ****       {
 1631              		.loc 1 1073 7 is_stmt 1 view .LVU545
1073:Middlewares/ST/STM32_USB_Host_Library/Core/Src/usbh_core.c ****       {
 1632              		.loc 1 1073 32 is_stmt 0 view .LVU546
 1633 0278 90F83653 		ldrb	r5, [r0, #822]	@ zero_extendqisi2
1073:Middlewares/ST/STM32_USB_Host_Library/Core/Src/usbh_core.c ****       {
 1634              		.loc 1 1073 10 view .LVU547
 1635 027c 15B9     		cbnz	r5, .L106
 1636              	.LVL133:
 1637              	.L65:
1104:Middlewares/ST/STM32_USB_Host_Library/Core/Src/usbh_core.c **** }
 1638              		.loc 1 1104 3 is_stmt 1 view .LVU548
1105:Middlewares/ST/STM32_USB_Host_Library/Core/Src/usbh_core.c **** 
 1639              		.loc 1 1105 1 is_stmt 0 view .LVU549
 1640 027e 2846     		mov	r0, r5
 1641 0280 04B0     		add	sp, sp, #16
 1642              	.LCFI15:
 1643              		.cfi_remember_state
 1644              		.cfi_def_cfa_offset 16
 1645              		@ sp needed
 1646 0282 70BD     		pop	{r4, r5, r6, pc}
 1647              	.LVL134:
 1648              	.L106:
 1649              	.LCFI16:
 1650              		.cfi_restore_state
1076:Middlewares/ST/STM32_USB_Host_Library/Core/Src/usbh_core.c ****                                         phost->device.Data, 0xFFU);
 1651              		.loc 1 1076 9 is_stmt 1 view .LVU550
1076:Middlewares/ST/STM32_USB_Host_Library/Core/Src/usbh_core.c ****                                         phost->device.Data, 0xFFU);
 1652              		.loc 1 1076 21 is_stmt 0 view .LVU551
 1653 0284 FF23     		movs	r3, #255
 1654 0286 00F58E72 		add	r2, r0, #284
 1655 028a 2946     		mov	r1, r5
 1656 028c FFF7FEFF 		bl	USBH_Get_StringDesc
 1657              	.LVL135:
1078:Middlewares/ST/STM32_USB_Host_Library/Core/Src/usbh_core.c ****         {
 1658              		.loc 1 1078 9 is_stmt 1 view .LVU552
1078:Middlewares/ST/STM32_USB_Host_Library/Core/Src/usbh_core.c ****         {
 1659              		.loc 1 1078 12 is_stmt 0 view .LVU553
 1660 0290 0546     		mov	r5, r0
 1661 0292 0028     		cmp	r0, #0
ARM GAS  C:\Users\moham\AppData\Local\Temp\ccR7RLkT.s 			page 61


 1662 0294 F3D0     		beq	.L65
1084:Middlewares/ST/STM32_USB_Host_Library/Core/Src/usbh_core.c ****         {
 1663              		.loc 1 1084 14 is_stmt 1 view .LVU554
1084:Middlewares/ST/STM32_USB_Host_Library/Core/Src/usbh_core.c ****         {
 1664              		.loc 1 1084 17 is_stmt 0 view .LVU555
 1665 0296 0328     		cmp	r0, #3
 1666 0298 03D0     		beq	.L95
 802:Middlewares/ST/STM32_USB_Host_Library/Core/Src/usbh_core.c ****   USBH_StatusTypeDef ReqStatus = USBH_BUSY;
 1667              		.loc 1 802 22 view .LVU556
 1668 029a 0125     		movs	r5, #1
 1669 029c EFE7     		b	.L65
 1670              	.LVL136:
 1671              	.L88:
 805:Middlewares/ST/STM32_USB_Host_Library/Core/Src/usbh_core.c ****   {
 1672              		.loc 1 805 3 view .LVU557
 1673 029e 0125     		movs	r5, #1
 1674 02a0 EDE7     		b	.L65
 1675              	.LVL137:
 1676              	.L95:
1087:Middlewares/ST/STM32_USB_Host_Library/Core/Src/usbh_core.c ****         }
 1677              		.loc 1 1087 18 view .LVU558
 1678 02a2 0025     		movs	r5, #0
 1679 02a4 EBE7     		b	.L65
 1680              		.cfi_endproc
 1681              	.LFE259:
 1683              		.section	.text.USBH_Process,"ax",%progbits
 1684              		.align	1
 1685              		.global	USBH_Process
 1686              		.syntax unified
 1687              		.thumb
 1688              		.thumb_func
 1690              	USBH_Process:
 1691              	.LVL138:
 1692              	.LFB258:
 474:Middlewares/ST/STM32_USB_Host_Library/Core/Src/usbh_core.c ****   __IO USBH_StatusTypeDef status = USBH_FAIL;
 1693              		.loc 1 474 1 is_stmt 1 view -0
 1694              		.cfi_startproc
 1695              		@ args = 0, pretend = 0, frame = 8
 1696              		@ frame_needed = 0, uses_anonymous_args = 0
 474:Middlewares/ST/STM32_USB_Host_Library/Core/Src/usbh_core.c ****   __IO USBH_StatusTypeDef status = USBH_FAIL;
 1697              		.loc 1 474 1 is_stmt 0 view .LVU560
 1698 0000 30B5     		push	{r4, r5, lr}
 1699              	.LCFI17:
 1700              		.cfi_def_cfa_offset 12
 1701              		.cfi_offset 4, -12
 1702              		.cfi_offset 5, -8
 1703              		.cfi_offset 14, -4
 1704 0002 87B0     		sub	sp, sp, #28
 1705              	.LCFI18:
 1706              		.cfi_def_cfa_offset 40
 1707 0004 0446     		mov	r4, r0
 475:Middlewares/ST/STM32_USB_Host_Library/Core/Src/usbh_core.c ****   uint8_t idx = 0U;
 1708              		.loc 1 475 3 is_stmt 1 view .LVU561
 475:Middlewares/ST/STM32_USB_Host_Library/Core/Src/usbh_core.c ****   uint8_t idx = 0U;
 1709              		.loc 1 475 27 is_stmt 0 view .LVU562
 1710 0006 0223     		movs	r3, #2
 1711 0008 8DF81730 		strb	r3, [sp, #23]
ARM GAS  C:\Users\moham\AppData\Local\Temp\ccR7RLkT.s 			page 62


 476:Middlewares/ST/STM32_USB_Host_Library/Core/Src/usbh_core.c **** 
 1712              		.loc 1 476 3 is_stmt 1 view .LVU563
 1713              	.LVL139:
 479:Middlewares/ST/STM32_USB_Host_Library/Core/Src/usbh_core.c ****   {
 1714              		.loc 1 479 3 view .LVU564
 479:Middlewares/ST/STM32_USB_Host_Library/Core/Src/usbh_core.c ****   {
 1715              		.loc 1 479 20 is_stmt 0 view .LVU565
 1716 000c 90F82133 		ldrb	r3, [r0, #801]	@ zero_extendqisi2
 479:Middlewares/ST/STM32_USB_Host_Library/Core/Src/usbh_core.c ****   {
 1717              		.loc 1 479 6 view .LVU566
 1718 0010 012B     		cmp	r3, #1
 1719 0012 11D0     		beq	.L149
 1720              	.L108:
 484:Middlewares/ST/STM32_USB_Host_Library/Core/Src/usbh_core.c ****   {
 1721              		.loc 1 484 3 is_stmt 1 view .LVU567
 484:Middlewares/ST/STM32_USB_Host_Library/Core/Src/usbh_core.c ****   {
 1722              		.loc 1 484 16 is_stmt 0 view .LVU568
 1723 0014 2378     		ldrb	r3, [r4]	@ zero_extendqisi2
 484:Middlewares/ST/STM32_USB_Host_Library/Core/Src/usbh_core.c ****   {
 1724              		.loc 1 484 3 view .LVU569
 1725 0016 0B2B     		cmp	r3, #11
 1726 0018 00F2D480 		bhi	.L109
 1727 001c DFE813F0 		tbh	[pc, r3, lsl #1]
 1728              	.L111:
 1729 0020 0F00     		.2byte	(.L121-.L111)/2
 1730 0022 2700     		.2byte	(.L120-.L111)/2
 1731 0024 5100     		.2byte	(.L119-.L111)/2
 1732 0026 3F01     		.2byte	(.L118-.L111)/2
 1733 0028 D200     		.2byte	(.L109-.L111)/2
 1734 002a 8D00     		.2byte	(.L117-.L111)/2
 1735 002c 1901     		.2byte	(.L116-.L111)/2
 1736 002e A700     		.2byte	(.L115-.L111)/2
 1737 0030 B600     		.2byte	(.L114-.L111)/2
 1738 0032 C500     		.2byte	(.L113-.L111)/2
 1739 0034 E800     		.2byte	(.L112-.L111)/2
 1740 0036 3701     		.2byte	(.L110-.L111)/2
 1741              		.p2align 1
 1742              	.L149:
 481:Middlewares/ST/STM32_USB_Host_Library/Core/Src/usbh_core.c ****   }
 1743              		.loc 1 481 5 is_stmt 1 view .LVU570
 481:Middlewares/ST/STM32_USB_Host_Library/Core/Src/usbh_core.c ****   }
 1744              		.loc 1 481 19 is_stmt 0 view .LVU571
 1745 0038 0323     		movs	r3, #3
 1746 003a 0370     		strb	r3, [r0]
 1747 003c EAE7     		b	.L108
 1748              	.L121:
 488:Middlewares/ST/STM32_USB_Host_Library/Core/Src/usbh_core.c ****       {
 1749              		.loc 1 488 7 is_stmt 1 view .LVU572
 488:Middlewares/ST/STM32_USB_Host_Library/Core/Src/usbh_core.c ****       {
 1750              		.loc 1 488 25 is_stmt 0 view .LVU573
 1751 003e 94F82033 		ldrb	r3, [r4, #800]	@ zero_extendqisi2
 488:Middlewares/ST/STM32_USB_Host_Library/Core/Src/usbh_core.c ****       {
 1752              		.loc 1 488 10 view .LVU574
 1753 0042 002B     		cmp	r3, #0
 1754 0044 00F0BE80 		beq	.L109
 490:Middlewares/ST/STM32_USB_Host_Library/Core/Src/usbh_core.c **** 
 1755              		.loc 1 490 9 is_stmt 1 view .LVU575
ARM GAS  C:\Users\moham\AppData\Local\Temp\ccR7RLkT.s 			page 63


 490:Middlewares/ST/STM32_USB_Host_Library/Core/Src/usbh_core.c **** 
 1756              		.loc 1 490 9 view .LVU576
 490:Middlewares/ST/STM32_USB_Host_Library/Core/Src/usbh_core.c **** 
 1757              		.loc 1 490 9 view .LVU577
 493:Middlewares/ST/STM32_USB_Host_Library/Core/Src/usbh_core.c ****         USBH_Delay(200U);
 1758              		.loc 1 493 9 view .LVU578
 493:Middlewares/ST/STM32_USB_Host_Library/Core/Src/usbh_core.c ****         USBH_Delay(200U);
 1759              		.loc 1 493 23 is_stmt 0 view .LVU579
 1760 0048 0125     		movs	r5, #1
 1761 004a 2570     		strb	r5, [r4]
 494:Middlewares/ST/STM32_USB_Host_Library/Core/Src/usbh_core.c ****         (void)USBH_LL_ResetPort(phost);
 1762              		.loc 1 494 9 is_stmt 1 view .LVU580
 1763 004c C820     		movs	r0, #200
 1764              	.LVL140:
 494:Middlewares/ST/STM32_USB_Host_Library/Core/Src/usbh_core.c ****         (void)USBH_LL_ResetPort(phost);
 1765              		.loc 1 494 9 is_stmt 0 view .LVU581
 1766 004e FFF7FEFF 		bl	USBH_Delay
 1767              	.LVL141:
 495:Middlewares/ST/STM32_USB_Host_Library/Core/Src/usbh_core.c **** 
 1768              		.loc 1 495 9 is_stmt 1 view .LVU582
 495:Middlewares/ST/STM32_USB_Host_Library/Core/Src/usbh_core.c **** 
 1769              		.loc 1 495 15 is_stmt 0 view .LVU583
 1770 0052 2046     		mov	r0, r4
 1771 0054 FFF7FEFF 		bl	USBH_LL_ResetPort
 1772              	.LVL142:
 498:Middlewares/ST/STM32_USB_Host_Library/Core/Src/usbh_core.c ****         phost->Timeout = 0U;
 1773              		.loc 1 498 9 is_stmt 1 view .LVU584
 498:Middlewares/ST/STM32_USB_Host_Library/Core/Src/usbh_core.c ****         phost->Timeout = 0U;
 1774              		.loc 1 498 31 is_stmt 0 view .LVU585
 1775 0058 0022     		movs	r2, #0
 1776 005a 84F81C23 		strb	r2, [r4, #796]
 499:Middlewares/ST/STM32_USB_Host_Library/Core/Src/usbh_core.c **** 
 1777              		.loc 1 499 9 is_stmt 1 view .LVU586
 499:Middlewares/ST/STM32_USB_Host_Library/Core/Src/usbh_core.c **** 
 1778              		.loc 1 499 24 is_stmt 0 view .LVU587
 1779 005e C4F8C823 		str	r2, [r4, #968]
 502:Middlewares/ST/STM32_USB_Host_Library/Core/Src/usbh_core.c **** #endif /* (USBH_USE_OS == 1U) */
 1780              		.loc 1 502 9 is_stmt 1 view .LVU588
 1781 0062 1346     		mov	r3, r2
 1782 0064 2946     		mov	r1, r5
 1783 0066 2046     		mov	r0, r4
 1784 0068 FFF7FEFF 		bl	USBH_OS_PutMessage
 1785              	.LVL143:
 1786 006c AAE0     		b	.L109
 1787              	.LVL144:
 1788              	.L120:
 509:Middlewares/ST/STM32_USB_Host_Library/Core/Src/usbh_core.c ****       {
 1789              		.loc 1 509 7 view .LVU589
 509:Middlewares/ST/STM32_USB_Host_Library/Core/Src/usbh_core.c ****       {
 1790              		.loc 1 509 24 is_stmt 0 view .LVU590
 1791 006e 94F82333 		ldrb	r3, [r4, #803]	@ zero_extendqisi2
 509:Middlewares/ST/STM32_USB_Host_Library/Core/Src/usbh_core.c ****       {
 1792              		.loc 1 509 10 view .LVU591
 1793 0072 012B     		cmp	r3, #1
 1794 0074 0FD0     		beq	.L150
 517:Middlewares/ST/STM32_USB_Host_Library/Core/Src/usbh_core.c ****         {
 1795              		.loc 1 517 9 is_stmt 1 view .LVU592
ARM GAS  C:\Users\moham\AppData\Local\Temp\ccR7RLkT.s 			page 64


 517:Middlewares/ST/STM32_USB_Host_Library/Core/Src/usbh_core.c ****         {
 1796              		.loc 1 517 18 is_stmt 0 view .LVU593
 1797 0076 D4F8C833 		ldr	r3, [r4, #968]
 517:Middlewares/ST/STM32_USB_Host_Library/Core/Src/usbh_core.c ****         {
 1798              		.loc 1 517 12 view .LVU594
 1799 007a B3F57A7F 		cmp	r3, #1000
 1800 007e 19D9     		bls	.L124
 519:Middlewares/ST/STM32_USB_Host_Library/Core/Src/usbh_core.c ****           if (phost->device.RstCnt > 3U)
 1801              		.loc 1 519 11 is_stmt 1 view .LVU595
 519:Middlewares/ST/STM32_USB_Host_Library/Core/Src/usbh_core.c ****           if (phost->device.RstCnt > 3U)
 1802              		.loc 1 519 24 is_stmt 0 view .LVU596
 1803 0080 94F81F33 		ldrb	r3, [r4, #799]	@ zero_extendqisi2
 519:Middlewares/ST/STM32_USB_Host_Library/Core/Src/usbh_core.c ****           if (phost->device.RstCnt > 3U)
 1804              		.loc 1 519 31 view .LVU597
 1805 0084 0133     		adds	r3, r3, #1
 1806 0086 DBB2     		uxtb	r3, r3
 1807 0088 84F81F33 		strb	r3, [r4, #799]
 520:Middlewares/ST/STM32_USB_Host_Library/Core/Src/usbh_core.c ****           {
 1808              		.loc 1 520 11 is_stmt 1 view .LVU598
 520:Middlewares/ST/STM32_USB_Host_Library/Core/Src/usbh_core.c ****           {
 1809              		.loc 1 520 14 is_stmt 0 view .LVU599
 1810 008c 032B     		cmp	r3, #3
 1811 008e 0ED9     		bls	.L125
 523:Middlewares/ST/STM32_USB_Host_Library/Core/Src/usbh_core.c ****             phost->gState = HOST_ABORT_STATE;
 1812              		.loc 1 523 13 is_stmt 1 view .LVU600
 523:Middlewares/ST/STM32_USB_Host_Library/Core/Src/usbh_core.c ****             phost->gState = HOST_ABORT_STATE;
 1813              		.loc 1 523 13 view .LVU601
 523:Middlewares/ST/STM32_USB_Host_Library/Core/Src/usbh_core.c ****             phost->gState = HOST_ABORT_STATE;
 1814              		.loc 1 523 13 view .LVU602
 524:Middlewares/ST/STM32_USB_Host_Library/Core/Src/usbh_core.c ****           }
 1815              		.loc 1 524 13 view .LVU603
 524:Middlewares/ST/STM32_USB_Host_Library/Core/Src/usbh_core.c ****           }
 1816              		.loc 1 524 27 is_stmt 0 view .LVU604
 1817 0090 0D23     		movs	r3, #13
 1818 0092 2370     		strb	r3, [r4]
 1819 0094 04E0     		b	.L123
 1820              	.L150:
 511:Middlewares/ST/STM32_USB_Host_Library/Core/Src/usbh_core.c ****         phost->device.RstCnt = 0U;
 1821              		.loc 1 511 9 is_stmt 1 view .LVU605
 511:Middlewares/ST/STM32_USB_Host_Library/Core/Src/usbh_core.c ****         phost->device.RstCnt = 0U;
 1822              		.loc 1 511 9 view .LVU606
 511:Middlewares/ST/STM32_USB_Host_Library/Core/Src/usbh_core.c ****         phost->device.RstCnt = 0U;
 1823              		.loc 1 511 9 view .LVU607
 512:Middlewares/ST/STM32_USB_Host_Library/Core/Src/usbh_core.c ****         phost->gState = HOST_DEV_ATTACHED;
 1824              		.loc 1 512 9 view .LVU608
 512:Middlewares/ST/STM32_USB_Host_Library/Core/Src/usbh_core.c ****         phost->gState = HOST_DEV_ATTACHED;
 1825              		.loc 1 512 30 is_stmt 0 view .LVU609
 1826 0096 0023     		movs	r3, #0
 1827 0098 84F81F33 		strb	r3, [r4, #799]
 513:Middlewares/ST/STM32_USB_Host_Library/Core/Src/usbh_core.c ****       }
 1828              		.loc 1 513 9 is_stmt 1 view .LVU610
 513:Middlewares/ST/STM32_USB_Host_Library/Core/Src/usbh_core.c ****       }
 1829              		.loc 1 513 23 is_stmt 0 view .LVU611
 1830 009c 0223     		movs	r3, #2
 1831 009e 2370     		strb	r3, [r4]
 1832              	.LVL145:
 1833              	.L123:
ARM GAS  C:\Users\moham\AppData\Local\Temp\ccR7RLkT.s 			page 65


 539:Middlewares/ST/STM32_USB_Host_Library/Core/Src/usbh_core.c **** #endif /* (USBH_USE_OS == 1U) */
 1834              		.loc 1 539 7 is_stmt 1 view .LVU612
 1835 00a0 0023     		movs	r3, #0
 1836 00a2 1A46     		mov	r2, r3
 1837 00a4 0121     		movs	r1, #1
 1838 00a6 2046     		mov	r0, r4
 1839 00a8 FFF7FEFF 		bl	USBH_OS_PutMessage
 1840              	.LVL146:
 541:Middlewares/ST/STM32_USB_Host_Library/Core/Src/usbh_core.c **** 
 1841              		.loc 1 541 7 view .LVU613
 1842 00ac 8AE0     		b	.L109
 1843              	.LVL147:
 1844              	.L125:
 528:Middlewares/ST/STM32_USB_Host_Library/Core/Src/usbh_core.c ****           }
 1845              		.loc 1 528 13 view .LVU614
 528:Middlewares/ST/STM32_USB_Host_Library/Core/Src/usbh_core.c ****           }
 1846              		.loc 1 528 27 is_stmt 0 view .LVU615
 1847 00ae 0023     		movs	r3, #0
 1848 00b0 2370     		strb	r3, [r4]
 1849 00b2 F5E7     		b	.L123
 1850              	.L124:
 533:Middlewares/ST/STM32_USB_Host_Library/Core/Src/usbh_core.c ****           USBH_Delay(10U);
 1851              		.loc 1 533 11 is_stmt 1 view .LVU616
 533:Middlewares/ST/STM32_USB_Host_Library/Core/Src/usbh_core.c ****           USBH_Delay(10U);
 1852              		.loc 1 533 26 is_stmt 0 view .LVU617
 1853 00b4 0A33     		adds	r3, r3, #10
 1854 00b6 C4F8C833 		str	r3, [r4, #968]
 534:Middlewares/ST/STM32_USB_Host_Library/Core/Src/usbh_core.c ****         }
 1855              		.loc 1 534 11 is_stmt 1 view .LVU618
 1856 00ba 0A20     		movs	r0, #10
 1857              	.LVL148:
 534:Middlewares/ST/STM32_USB_Host_Library/Core/Src/usbh_core.c ****         }
 1858              		.loc 1 534 11 is_stmt 0 view .LVU619
 1859 00bc FFF7FEFF 		bl	USBH_Delay
 1860              	.LVL149:
 1861 00c0 EEE7     		b	.L123
 1862              	.LVL150:
 1863              	.L119:
 545:Middlewares/ST/STM32_USB_Host_Library/Core/Src/usbh_core.c ****       {
 1864              		.loc 1 545 7 is_stmt 1 view .LVU620
 545:Middlewares/ST/STM32_USB_Host_Library/Core/Src/usbh_core.c ****       {
 1865              		.loc 1 545 16 is_stmt 0 view .LVU621
 1866 00c2 D4F8D433 		ldr	r3, [r4, #980]
 545:Middlewares/ST/STM32_USB_Host_Library/Core/Src/usbh_core.c ****       {
 1867              		.loc 1 545 10 view .LVU622
 1868 00c6 13B1     		cbz	r3, .L126
 547:Middlewares/ST/STM32_USB_Host_Library/Core/Src/usbh_core.c ****       }
 1869              		.loc 1 547 9 is_stmt 1 view .LVU623
 1870 00c8 0421     		movs	r1, #4
 1871 00ca 2046     		mov	r0, r4
 1872              	.LVL151:
 547:Middlewares/ST/STM32_USB_Host_Library/Core/Src/usbh_core.c ****       }
 1873              		.loc 1 547 9 is_stmt 0 view .LVU624
 1874 00cc 9847     		blx	r3
 1875              	.LVL152:
 1876              	.L126:
 551:Middlewares/ST/STM32_USB_Host_Library/Core/Src/usbh_core.c **** 
ARM GAS  C:\Users\moham\AppData\Local\Temp\ccR7RLkT.s 			page 66


 1877              		.loc 1 551 7 is_stmt 1 view .LVU625
 1878 00ce 6420     		movs	r0, #100
 1879 00d0 FFF7FEFF 		bl	USBH_Delay
 1880              	.LVL153:
 553:Middlewares/ST/STM32_USB_Host_Library/Core/Src/usbh_core.c **** 
 1881              		.loc 1 553 7 view .LVU626
 553:Middlewares/ST/STM32_USB_Host_Library/Core/Src/usbh_core.c **** 
 1882              		.loc 1 553 38 is_stmt 0 view .LVU627
 1883 00d4 2046     		mov	r0, r4
 1884 00d6 FFF7FEFF 		bl	USBH_LL_GetSpeed
 1885              	.LVL154:
 553:Middlewares/ST/STM32_USB_Host_Library/Core/Src/usbh_core.c **** 
 1886              		.loc 1 553 27 discriminator 1 view .LVU628
 1887 00da 84F81D03 		strb	r0, [r4, #797]
 559:Middlewares/ST/STM32_USB_Host_Library/Core/Src/usbh_core.c **** 
 1888              		.loc 1 559 7 is_stmt 1 view .LVU629
 559:Middlewares/ST/STM32_USB_Host_Library/Core/Src/usbh_core.c **** 
 1889              		.loc 1 559 21 is_stmt 0 view .LVU630
 1890 00de 0523     		movs	r3, #5
 1891 00e0 2370     		strb	r3, [r4]
 561:Middlewares/ST/STM32_USB_Host_Library/Core/Src/usbh_core.c ****       phost->Control.pipe_in  = USBH_AllocPipe(phost, 0x80U);
 1892              		.loc 1 561 7 is_stmt 1 view .LVU631
 561:Middlewares/ST/STM32_USB_Host_Library/Core/Src/usbh_core.c ****       phost->Control.pipe_in  = USBH_AllocPipe(phost, 0x80U);
 1893              		.loc 1 561 33 is_stmt 0 view .LVU632
 1894 00e2 0021     		movs	r1, #0
 1895 00e4 2046     		mov	r0, r4
 1896 00e6 FFF7FEFF 		bl	USBH_AllocPipe
 1897              	.LVL155:
 561:Middlewares/ST/STM32_USB_Host_Library/Core/Src/usbh_core.c ****       phost->Control.pipe_in  = USBH_AllocPipe(phost, 0x80U);
 1898              		.loc 1 561 31 discriminator 1 view .LVU633
 1899 00ea 6071     		strb	r0, [r4, #5]
 562:Middlewares/ST/STM32_USB_Host_Library/Core/Src/usbh_core.c **** 
 1900              		.loc 1 562 7 is_stmt 1 view .LVU634
 562:Middlewares/ST/STM32_USB_Host_Library/Core/Src/usbh_core.c **** 
 1901              		.loc 1 562 33 is_stmt 0 view .LVU635
 1902 00ec 8021     		movs	r1, #128
 1903 00ee 2046     		mov	r0, r4
 1904 00f0 FFF7FEFF 		bl	USBH_AllocPipe
 1905              	.LVL156:
 1906 00f4 0146     		mov	r1, r0
 562:Middlewares/ST/STM32_USB_Host_Library/Core/Src/usbh_core.c **** 
 1907              		.loc 1 562 31 discriminator 1 view .LVU636
 1908 00f6 2071     		strb	r0, [r4, #4]
 565:Middlewares/ST/STM32_USB_Host_Library/Core/Src/usbh_core.c ****                           phost->device.address, phost->device.speed,
 1909              		.loc 1 565 7 is_stmt 1 view .LVU637
 567:Middlewares/ST/STM32_USB_Host_Library/Core/Src/usbh_core.c **** 
 1910              		.loc 1 567 68 is_stmt 0 view .LVU638
 1911 00f8 A379     		ldrb	r3, [r4, #6]	@ zero_extendqisi2
 565:Middlewares/ST/STM32_USB_Host_Library/Core/Src/usbh_core.c ****                           phost->device.address, phost->device.speed,
 1912              		.loc 1 565 13 view .LVU639
 1913 00fa 0293     		str	r3, [sp, #8]
 1914 00fc 0025     		movs	r5, #0
 1915 00fe 0195     		str	r5, [sp, #4]
 1916 0100 94F81D33 		ldrb	r3, [r4, #797]	@ zero_extendqisi2
 1917 0104 0093     		str	r3, [sp]
 1918 0106 94F81C33 		ldrb	r3, [r4, #796]	@ zero_extendqisi2
 1919 010a 8022     		movs	r2, #128
ARM GAS  C:\Users\moham\AppData\Local\Temp\ccR7RLkT.s 			page 67


 1920 010c 2046     		mov	r0, r4
 1921 010e FFF7FEFF 		bl	USBH_OpenPipe
 1922              	.LVL157:
 570:Middlewares/ST/STM32_USB_Host_Library/Core/Src/usbh_core.c ****                           phost->device.address, phost->device.speed,
 1923              		.loc 1 570 7 is_stmt 1 view .LVU640
 572:Middlewares/ST/STM32_USB_Host_Library/Core/Src/usbh_core.c **** 
 1924              		.loc 1 572 68 is_stmt 0 view .LVU641
 1925 0112 A379     		ldrb	r3, [r4, #6]	@ zero_extendqisi2
 570:Middlewares/ST/STM32_USB_Host_Library/Core/Src/usbh_core.c ****                           phost->device.address, phost->device.speed,
 1926              		.loc 1 570 13 view .LVU642
 1927 0114 0293     		str	r3, [sp, #8]
 1928 0116 0195     		str	r5, [sp, #4]
 1929 0118 94F81D33 		ldrb	r3, [r4, #797]	@ zero_extendqisi2
 1930 011c 0093     		str	r3, [sp]
 1931 011e 94F81C33 		ldrb	r3, [r4, #796]	@ zero_extendqisi2
 1932 0122 2A46     		mov	r2, r5
 1933 0124 6179     		ldrb	r1, [r4, #5]	@ zero_extendqisi2
 1934 0126 2046     		mov	r0, r4
 1935 0128 FFF7FEFF 		bl	USBH_OpenPipe
 1936              	.LVL158:
 575:Middlewares/ST/STM32_USB_Host_Library/Core/Src/usbh_core.c **** #endif /* (USBH_USE_OS == 1U) */
 1937              		.loc 1 575 7 is_stmt 1 view .LVU643
 1938 012c 2B46     		mov	r3, r5
 1939 012e 2A46     		mov	r2, r5
 1940 0130 0121     		movs	r1, #1
 1941 0132 2046     		mov	r0, r4
 1942 0134 FFF7FEFF 		bl	USBH_OS_PutMessage
 1943              	.LVL159:
 577:Middlewares/ST/STM32_USB_Host_Library/Core/Src/usbh_core.c **** 
 1944              		.loc 1 577 7 view .LVU644
 1945 0138 44E0     		b	.L109
 1946              	.LVL160:
 1947              	.L117:
 581:Middlewares/ST/STM32_USB_Host_Library/Core/Src/usbh_core.c ****       if (status == USBH_OK)
 1948              		.loc 1 581 7 view .LVU645
 581:Middlewares/ST/STM32_USB_Host_Library/Core/Src/usbh_core.c ****       if (status == USBH_OK)
 1949              		.loc 1 581 16 is_stmt 0 view .LVU646
 1950 013a 2046     		mov	r0, r4
 1951              	.LVL161:
 581:Middlewares/ST/STM32_USB_Host_Library/Core/Src/usbh_core.c ****       if (status == USBH_OK)
 1952              		.loc 1 581 16 view .LVU647
 1953 013c FFF7FEFF 		bl	USBH_HandleEnum
 1954              	.LVL162:
 581:Middlewares/ST/STM32_USB_Host_Library/Core/Src/usbh_core.c ****       if (status == USBH_OK)
 1955              		.loc 1 581 14 discriminator 1 view .LVU648
 1956 0140 8DF81700 		strb	r0, [sp, #23]
 582:Middlewares/ST/STM32_USB_Host_Library/Core/Src/usbh_core.c ****       {
 1957              		.loc 1 582 7 is_stmt 1 view .LVU649
 582:Middlewares/ST/STM32_USB_Host_Library/Core/Src/usbh_core.c ****       {
 1958              		.loc 1 582 18 is_stmt 0 view .LVU650
 1959 0144 9DF81730 		ldrb	r3, [sp, #23]	@ zero_extendqisi2
 582:Middlewares/ST/STM32_USB_Host_Library/Core/Src/usbh_core.c ****       {
 1960              		.loc 1 582 10 view .LVU651
 1961 0148 E3BB     		cbnz	r3, .L109
 585:Middlewares/ST/STM32_USB_Host_Library/Core/Src/usbh_core.c **** 
 1962              		.loc 1 585 9 is_stmt 1 view .LVU652
 585:Middlewares/ST/STM32_USB_Host_Library/Core/Src/usbh_core.c **** 
ARM GAS  C:\Users\moham\AppData\Local\Temp\ccR7RLkT.s 			page 68


 1963              		.loc 1 585 9 view .LVU653
 585:Middlewares/ST/STM32_USB_Host_Library/Core/Src/usbh_core.c **** 
 1964              		.loc 1 585 9 view .LVU654
 587:Middlewares/ST/STM32_USB_Host_Library/Core/Src/usbh_core.c **** 
 1965              		.loc 1 587 9 view .LVU655
 587:Middlewares/ST/STM32_USB_Host_Library/Core/Src/usbh_core.c **** 
 1966              		.loc 1 587 41 is_stmt 0 view .LVU656
 1967 014a 84F82433 		strb	r3, [r4, #804]
 589:Middlewares/ST/STM32_USB_Host_Library/Core/Src/usbh_core.c ****         {
 1968              		.loc 1 589 9 is_stmt 1 view .LVU657
 589:Middlewares/ST/STM32_USB_Host_Library/Core/Src/usbh_core.c ****         {
 1969              		.loc 1 589 34 is_stmt 0 view .LVU658
 1970 014e 94F83733 		ldrb	r3, [r4, #823]	@ zero_extendqisi2
 589:Middlewares/ST/STM32_USB_Host_Library/Core/Src/usbh_core.c ****         {
 1971              		.loc 1 589 12 view .LVU659
 1972 0152 012B     		cmp	r3, #1
 1973 0154 08D0     		beq	.L151
 596:Middlewares/ST/STM32_USB_Host_Library/Core/Src/usbh_core.c ****         }
 1974              		.loc 1 596 11 is_stmt 1 view .LVU660
 596:Middlewares/ST/STM32_USB_Host_Library/Core/Src/usbh_core.c ****         }
 1975              		.loc 1 596 25 is_stmt 0 view .LVU661
 1976 0156 0723     		movs	r3, #7
 1977 0158 2370     		strb	r3, [r4]
 1978              	.L128:
 600:Middlewares/ST/STM32_USB_Host_Library/Core/Src/usbh_core.c **** #endif /* (USBH_USE_OS == 1U) */
 1979              		.loc 1 600 9 is_stmt 1 view .LVU662
 1980 015a 0023     		movs	r3, #0
 1981 015c 1A46     		mov	r2, r3
 1982 015e 0521     		movs	r1, #5
 1983 0160 2046     		mov	r0, r4
 1984 0162 FFF7FEFF 		bl	USBH_OS_PutMessage
 1985              	.LVL163:
 1986 0166 2DE0     		b	.L109
 1987              	.L151:
 591:Middlewares/ST/STM32_USB_Host_Library/Core/Src/usbh_core.c ****           phost->gState = HOST_SET_CONFIGURATION;
 1988              		.loc 1 591 11 view .LVU663
 591:Middlewares/ST/STM32_USB_Host_Library/Core/Src/usbh_core.c ****           phost->gState = HOST_SET_CONFIGURATION;
 1989              		.loc 1 591 11 view .LVU664
 591:Middlewares/ST/STM32_USB_Host_Library/Core/Src/usbh_core.c ****           phost->gState = HOST_SET_CONFIGURATION;
 1990              		.loc 1 591 11 view .LVU665
 592:Middlewares/ST/STM32_USB_Host_Library/Core/Src/usbh_core.c ****         }
 1991              		.loc 1 592 11 view .LVU666
 592:Middlewares/ST/STM32_USB_Host_Library/Core/Src/usbh_core.c ****         }
 1992              		.loc 1 592 25 is_stmt 0 view .LVU667
 1993 0168 0823     		movs	r3, #8
 1994 016a 2370     		strb	r3, [r4]
 1995 016c F5E7     		b	.L128
 1996              	.LVL164:
 1997              	.L115:
 608:Middlewares/ST/STM32_USB_Host_Library/Core/Src/usbh_core.c ****       {
 1998              		.loc 1 608 7 is_stmt 1 view .LVU668
 608:Middlewares/ST/STM32_USB_Host_Library/Core/Src/usbh_core.c ****       {
 1999              		.loc 1 608 16 is_stmt 0 view .LVU669
 2000 016e D4F8D433 		ldr	r3, [r4, #980]
 608:Middlewares/ST/STM32_USB_Host_Library/Core/Src/usbh_core.c ****       {
 2001              		.loc 1 608 10 view .LVU670
 2002 0172 3BB3     		cbz	r3, .L109
ARM GAS  C:\Users\moham\AppData\Local\Temp\ccR7RLkT.s 			page 69


 610:Middlewares/ST/STM32_USB_Host_Library/Core/Src/usbh_core.c ****         phost->gState = HOST_SET_CONFIGURATION;
 2003              		.loc 1 610 9 is_stmt 1 view .LVU671
 2004 0174 0121     		movs	r1, #1
 2005 0176 2046     		mov	r0, r4
 2006              	.LVL165:
 610:Middlewares/ST/STM32_USB_Host_Library/Core/Src/usbh_core.c ****         phost->gState = HOST_SET_CONFIGURATION;
 2007              		.loc 1 610 9 is_stmt 0 view .LVU672
 2008 0178 9847     		blx	r3
 2009              	.LVL166:
 611:Middlewares/ST/STM32_USB_Host_Library/Core/Src/usbh_core.c **** 
 2010              		.loc 1 611 9 is_stmt 1 view .LVU673
 611:Middlewares/ST/STM32_USB_Host_Library/Core/Src/usbh_core.c **** 
 2011              		.loc 1 611 23 is_stmt 0 view .LVU674
 2012 017a 0823     		movs	r3, #8
 2013 017c 2370     		strb	r3, [r4]
 614:Middlewares/ST/STM32_USB_Host_Library/Core/Src/usbh_core.c **** #endif /* (USBH_USE_OS == 1U) */
 2014              		.loc 1 614 9 is_stmt 1 view .LVU675
 2015 017e 0023     		movs	r3, #0
 2016 0180 1A46     		mov	r2, r3
 2017 0182 0521     		movs	r1, #5
 2018 0184 2046     		mov	r0, r4
 2019 0186 FFF7FEFF 		bl	USBH_OS_PutMessage
 2020              	.LVL167:
 2021 018a 1BE0     		b	.L109
 2022              	.LVL168:
 2023              	.L114:
 622:Middlewares/ST/STM32_USB_Host_Library/Core/Src/usbh_core.c ****       {
 2024              		.loc 1 622 7 view .LVU676
 622:Middlewares/ST/STM32_USB_Host_Library/Core/Src/usbh_core.c ****       {
 2025              		.loc 1 622 11 is_stmt 0 view .LVU677
 2026 018c 94F83D13 		ldrb	r1, [r4, #829]	@ zero_extendqisi2
 2027 0190 2046     		mov	r0, r4
 2028              	.LVL169:
 622:Middlewares/ST/STM32_USB_Host_Library/Core/Src/usbh_core.c ****       {
 2029              		.loc 1 622 11 view .LVU678
 2030 0192 FFF7FEFF 		bl	USBH_SetCfg
 2031              	.LVL170:
 622:Middlewares/ST/STM32_USB_Host_Library/Core/Src/usbh_core.c ****       {
 2032              		.loc 1 622 10 discriminator 1 view .LVU679
 2033 0196 08B9     		cbnz	r0, .L129
 624:Middlewares/ST/STM32_USB_Host_Library/Core/Src/usbh_core.c ****         USBH_UsrLog("Default configuration set.");
 2034              		.loc 1 624 9 is_stmt 1 view .LVU680
 624:Middlewares/ST/STM32_USB_Host_Library/Core/Src/usbh_core.c ****         USBH_UsrLog("Default configuration set.");
 2035              		.loc 1 624 23 is_stmt 0 view .LVU681
 2036 0198 0923     		movs	r3, #9
 2037 019a 2370     		strb	r3, [r4]
 2038              	.L129:
 625:Middlewares/ST/STM32_USB_Host_Library/Core/Src/usbh_core.c ****       }
 2039              		.loc 1 625 9 is_stmt 1 view .LVU682
 625:Middlewares/ST/STM32_USB_Host_Library/Core/Src/usbh_core.c ****       }
 2040              		.loc 1 625 9 view .LVU683
 625:Middlewares/ST/STM32_USB_Host_Library/Core/Src/usbh_core.c ****       }
 2041              		.loc 1 625 9 view .LVU684
 629:Middlewares/ST/STM32_USB_Host_Library/Core/Src/usbh_core.c **** #endif /* (USBH_USE_OS == 1U) */
 2042              		.loc 1 629 7 view .LVU685
 2043 019c 0023     		movs	r3, #0
 2044 019e 1A46     		mov	r2, r3
ARM GAS  C:\Users\moham\AppData\Local\Temp\ccR7RLkT.s 			page 70


 2045 01a0 0121     		movs	r1, #1
 2046 01a2 2046     		mov	r0, r4
 2047 01a4 FFF7FEFF 		bl	USBH_OS_PutMessage
 2048              	.LVL171:
 631:Middlewares/ST/STM32_USB_Host_Library/Core/Src/usbh_core.c **** 
 2049              		.loc 1 631 7 view .LVU686
 2050 01a8 0CE0     		b	.L109
 2051              	.LVL172:
 2052              	.L113:
 635:Middlewares/ST/STM32_USB_Host_Library/Core/Src/usbh_core.c ****       {
 2053              		.loc 1 635 7 view .LVU687
 635:Middlewares/ST/STM32_USB_Host_Library/Core/Src/usbh_core.c ****       {
 2054              		.loc 1 635 34 is_stmt 0 view .LVU688
 2055 01aa 94F83F33 		ldrb	r3, [r4, #831]	@ zero_extendqisi2
 635:Middlewares/ST/STM32_USB_Host_Library/Core/Src/usbh_core.c ****       {
 2056              		.loc 1 635 10 view .LVU689
 2057 01ae 13F0200F 		tst	r3, #32
 2058 01b2 0AD1     		bne	.L152
 656:Middlewares/ST/STM32_USB_Host_Library/Core/Src/usbh_core.c ****       }
 2059              		.loc 1 656 9 is_stmt 1 view .LVU690
 656:Middlewares/ST/STM32_USB_Host_Library/Core/Src/usbh_core.c ****       }
 2060              		.loc 1 656 23 is_stmt 0 view .LVU691
 2061 01b4 0A23     		movs	r3, #10
 2062 01b6 2370     		strb	r3, [r4]
 2063              	.LVL173:
 2064              	.L132:
 660:Middlewares/ST/STM32_USB_Host_Library/Core/Src/usbh_core.c **** #endif /* (USBH_USE_OS == 1U) */
 2065              		.loc 1 660 7 is_stmt 1 view .LVU692
 2066 01b8 0023     		movs	r3, #0
 2067 01ba 1A46     		mov	r2, r3
 2068 01bc 0121     		movs	r1, #1
 2069 01be 2046     		mov	r0, r4
 2070 01c0 FFF7FEFF 		bl	USBH_OS_PutMessage
 2071              	.LVL174:
 662:Middlewares/ST/STM32_USB_Host_Library/Core/Src/usbh_core.c **** 
 2072              		.loc 1 662 7 view .LVU693
 2073              	.L109:
 790:Middlewares/ST/STM32_USB_Host_Library/Core/Src/usbh_core.c **** }
 2074              		.loc 1 790 3 view .LVU694
 791:Middlewares/ST/STM32_USB_Host_Library/Core/Src/usbh_core.c **** 
 2075              		.loc 1 791 1 is_stmt 0 view .LVU695
 2076 01c4 0020     		movs	r0, #0
 2077 01c6 07B0     		add	sp, sp, #28
 2078              	.LCFI19:
 2079              		.cfi_remember_state
 2080              		.cfi_def_cfa_offset 12
 2081              		@ sp needed
 2082 01c8 30BD     		pop	{r4, r5, pc}
 2083              	.LVL175:
 2084              	.L152:
 2085              	.LCFI20:
 2086              		.cfi_restore_state
 637:Middlewares/ST/STM32_USB_Host_Library/Core/Src/usbh_core.c **** 
 2087              		.loc 1 637 9 is_stmt 1 view .LVU696
 637:Middlewares/ST/STM32_USB_Host_Library/Core/Src/usbh_core.c **** 
 2088              		.loc 1 637 18 is_stmt 0 view .LVU697
 2089 01ca 0121     		movs	r1, #1
ARM GAS  C:\Users\moham\AppData\Local\Temp\ccR7RLkT.s 			page 71


 2090 01cc 2046     		mov	r0, r4
 2091              	.LVL176:
 637:Middlewares/ST/STM32_USB_Host_Library/Core/Src/usbh_core.c **** 
 2092              		.loc 1 637 18 view .LVU698
 2093 01ce FFF7FEFF 		bl	USBH_SetFeature
 2094              	.LVL177:
 637:Middlewares/ST/STM32_USB_Host_Library/Core/Src/usbh_core.c **** 
 2095              		.loc 1 637 16 discriminator 1 view .LVU699
 2096 01d2 8DF81700 		strb	r0, [sp, #23]
 639:Middlewares/ST/STM32_USB_Host_Library/Core/Src/usbh_core.c ****         {
 2097              		.loc 1 639 9 is_stmt 1 view .LVU700
 639:Middlewares/ST/STM32_USB_Host_Library/Core/Src/usbh_core.c ****         {
 2098              		.loc 1 639 20 is_stmt 0 view .LVU701
 2099 01d6 9DF81730 		ldrb	r3, [sp, #23]	@ zero_extendqisi2
 639:Middlewares/ST/STM32_USB_Host_Library/Core/Src/usbh_core.c ****         {
 2100              		.loc 1 639 12 view .LVU702
 2101 01da 13B9     		cbnz	r3, .L131
 641:Middlewares/ST/STM32_USB_Host_Library/Core/Src/usbh_core.c ****           phost->gState = HOST_CHECK_CLASS;
 2102              		.loc 1 641 11 is_stmt 1 view .LVU703
 641:Middlewares/ST/STM32_USB_Host_Library/Core/Src/usbh_core.c ****           phost->gState = HOST_CHECK_CLASS;
 2103              		.loc 1 641 11 view .LVU704
 641:Middlewares/ST/STM32_USB_Host_Library/Core/Src/usbh_core.c ****           phost->gState = HOST_CHECK_CLASS;
 2104              		.loc 1 641 11 view .LVU705
 642:Middlewares/ST/STM32_USB_Host_Library/Core/Src/usbh_core.c ****         }
 2105              		.loc 1 642 11 view .LVU706
 642:Middlewares/ST/STM32_USB_Host_Library/Core/Src/usbh_core.c ****         }
 2106              		.loc 1 642 25 is_stmt 0 view .LVU707
 2107 01dc 0A23     		movs	r3, #10
 2108 01de 2370     		strb	r3, [r4]
 2109 01e0 EAE7     		b	.L132
 2110              	.L131:
 644:Middlewares/ST/STM32_USB_Host_Library/Core/Src/usbh_core.c ****         {
 2111              		.loc 1 644 14 is_stmt 1 view .LVU708
 644:Middlewares/ST/STM32_USB_Host_Library/Core/Src/usbh_core.c ****         {
 2112              		.loc 1 644 25 is_stmt 0 view .LVU709
 2113 01e2 9DF81730 		ldrb	r3, [sp, #23]	@ zero_extendqisi2
 644:Middlewares/ST/STM32_USB_Host_Library/Core/Src/usbh_core.c ****         {
 2114              		.loc 1 644 17 view .LVU710
 2115 01e6 032B     		cmp	r3, #3
 2116 01e8 E6D1     		bne	.L132
 646:Middlewares/ST/STM32_USB_Host_Library/Core/Src/usbh_core.c ****           phost->gState = HOST_CHECK_CLASS;
 2117              		.loc 1 646 11 is_stmt 1 view .LVU711
 646:Middlewares/ST/STM32_USB_Host_Library/Core/Src/usbh_core.c ****           phost->gState = HOST_CHECK_CLASS;
 2118              		.loc 1 646 11 view .LVU712
 646:Middlewares/ST/STM32_USB_Host_Library/Core/Src/usbh_core.c ****           phost->gState = HOST_CHECK_CLASS;
 2119              		.loc 1 646 11 view .LVU713
 647:Middlewares/ST/STM32_USB_Host_Library/Core/Src/usbh_core.c ****         }
 2120              		.loc 1 647 11 view .LVU714
 647:Middlewares/ST/STM32_USB_Host_Library/Core/Src/usbh_core.c ****         }
 2121              		.loc 1 647 25 is_stmt 0 view .LVU715
 2122 01ea 0A23     		movs	r3, #10
 2123 01ec 2370     		strb	r3, [r4]
 2124 01ee E3E7     		b	.L132
 2125              	.LVL178:
 2126              	.L112:
 666:Middlewares/ST/STM32_USB_Host_Library/Core/Src/usbh_core.c ****       {
 2127              		.loc 1 666 7 is_stmt 1 view .LVU716
ARM GAS  C:\Users\moham\AppData\Local\Temp\ccR7RLkT.s 			page 72


 666:Middlewares/ST/STM32_USB_Host_Library/Core/Src/usbh_core.c ****       {
 2128              		.loc 1 666 16 is_stmt 0 view .LVU717
 2129 01f0 D4F88033 		ldr	r3, [r4, #896]
 666:Middlewares/ST/STM32_USB_Host_Library/Core/Src/usbh_core.c ****       {
 2130              		.loc 1 666 10 view .LVU718
 2131 01f4 8BB1     		cbz	r3, .L133
 672:Middlewares/ST/STM32_USB_Host_Library/Core/Src/usbh_core.c **** 
 2132              		.loc 1 672 9 is_stmt 1 view .LVU719
 672:Middlewares/ST/STM32_USB_Host_Library/Core/Src/usbh_core.c **** 
 2133              		.loc 1 672 29 is_stmt 0 view .LVU720
 2134 01f6 0023     		movs	r3, #0
 2135 01f8 C4F87C33 		str	r3, [r4, #892]
 674:Middlewares/ST/STM32_USB_Host_Library/Core/Src/usbh_core.c ****         {
 2136              		.loc 1 674 9 is_stmt 1 view .LVU721
 2137              	.LVL179:
 2138              	.L134:
 674:Middlewares/ST/STM32_USB_Host_Library/Core/Src/usbh_core.c ****         {
 2139              		.loc 1 674 28 discriminator 1 view .LVU722
 2140 01fc A3B1     		cbz	r3, .L137
 2141              	.L136:
 683:Middlewares/ST/STM32_USB_Host_Library/Core/Src/usbh_core.c ****         {
 2142              		.loc 1 683 9 view .LVU723
 683:Middlewares/ST/STM32_USB_Host_Library/Core/Src/usbh_core.c ****         {
 2143              		.loc 1 683 18 is_stmt 0 view .LVU724
 2144 01fe D4F87C33 		ldr	r3, [r4, #892]
 2145              	.LVL180:
 683:Middlewares/ST/STM32_USB_Host_Library/Core/Src/usbh_core.c ****         {
 2146              		.loc 1 683 12 view .LVU725
 2147 0202 1BB3     		cbz	r3, .L138
 685:Middlewares/ST/STM32_USB_Host_Library/Core/Src/usbh_core.c ****           {
 2148              		.loc 1 685 11 is_stmt 1 view .LVU726
 685:Middlewares/ST/STM32_USB_Host_Library/Core/Src/usbh_core.c ****           {
 2149              		.loc 1 685 34 is_stmt 0 view .LVU727
 2150 0204 9B68     		ldr	r3, [r3, #8]
 685:Middlewares/ST/STM32_USB_Host_Library/Core/Src/usbh_core.c ****           {
 2151              		.loc 1 685 15 view .LVU728
 2152 0206 2046     		mov	r0, r4
 2153 0208 9847     		blx	r3
 2154              	.LVL181:
 685:Middlewares/ST/STM32_USB_Host_Library/Core/Src/usbh_core.c ****           {
 2155              		.loc 1 685 14 discriminator 1 view .LVU729
 2156 020a E0B9     		cbnz	r0, .L139
 687:Middlewares/ST/STM32_USB_Host_Library/Core/Src/usbh_core.c ****             USBH_UsrLog("%s class started.", phost->pActiveClass->Name);
 2157              		.loc 1 687 13 is_stmt 1 view .LVU730
 687:Middlewares/ST/STM32_USB_Host_Library/Core/Src/usbh_core.c ****             USBH_UsrLog("%s class started.", phost->pActiveClass->Name);
 2158              		.loc 1 687 27 is_stmt 0 view .LVU731
 2159 020c 0623     		movs	r3, #6
 2160 020e 2370     		strb	r3, [r4]
 688:Middlewares/ST/STM32_USB_Host_Library/Core/Src/usbh_core.c **** 
 2161              		.loc 1 688 13 is_stmt 1 view .LVU732
 688:Middlewares/ST/STM32_USB_Host_Library/Core/Src/usbh_core.c **** 
 2162              		.loc 1 688 13 view .LVU733
 688:Middlewares/ST/STM32_USB_Host_Library/Core/Src/usbh_core.c **** 
 2163              		.loc 1 688 13 view .LVU734
 691:Middlewares/ST/STM32_USB_Host_Library/Core/Src/usbh_core.c ****           }
 2164              		.loc 1 691 13 view .LVU735
 691:Middlewares/ST/STM32_USB_Host_Library/Core/Src/usbh_core.c ****           }
ARM GAS  C:\Users\moham\AppData\Local\Temp\ccR7RLkT.s 			page 73


 2165              		.loc 1 691 18 is_stmt 0 view .LVU736
 2166 0210 D4F8D433 		ldr	r3, [r4, #980]
 691:Middlewares/ST/STM32_USB_Host_Library/Core/Src/usbh_core.c ****           }
 2167              		.loc 1 691 13 view .LVU737
 2168 0214 0321     		movs	r1, #3
 2169 0216 2046     		mov	r0, r4
 2170 0218 9847     		blx	r3
 2171              	.LVL182:
 2172              	.L133:
 702:Middlewares/ST/STM32_USB_Host_Library/Core/Src/usbh_core.c ****         }
 2173              		.loc 1 702 11 is_stmt 1 view .LVU738
 702:Middlewares/ST/STM32_USB_Host_Library/Core/Src/usbh_core.c ****         }
 2174              		.loc 1 702 11 view .LVU739
 702:Middlewares/ST/STM32_USB_Host_Library/Core/Src/usbh_core.c ****         }
 2175              		.loc 1 702 11 view .LVU740
 707:Middlewares/ST/STM32_USB_Host_Library/Core/Src/usbh_core.c **** #endif /* (USBH_USE_OS == 1U) */
 2176              		.loc 1 707 7 view .LVU741
 2177 021a 0023     		movs	r3, #0
 2178 021c 1A46     		mov	r2, r3
 2179 021e 0521     		movs	r1, #5
 2180 0220 2046     		mov	r0, r4
 2181 0222 FFF7FEFF 		bl	USBH_OS_PutMessage
 2182              	.LVL183:
 709:Middlewares/ST/STM32_USB_Host_Library/Core/Src/usbh_core.c **** 
 2183              		.loc 1 709 7 view .LVU742
 2184 0226 CDE7     		b	.L109
 2185              	.LVL184:
 2186              	.L137:
 676:Middlewares/ST/STM32_USB_Host_Library/Core/Src/usbh_core.c ****           {
 2187              		.loc 1 676 11 view .LVU743
 676:Middlewares/ST/STM32_USB_Host_Library/Core/Src/usbh_core.c ****           {
 2188              		.loc 1 676 28 is_stmt 0 view .LVU744
 2189 0228 03F1DE02 		add	r2, r3, #222
 2190 022c 54F82220 		ldr	r2, [r4, r2, lsl #2]
 676:Middlewares/ST/STM32_USB_Host_Library/Core/Src/usbh_core.c ****           {
 2191              		.loc 1 676 33 view .LVU745
 2192 0230 1079     		ldrb	r0, [r2, #4]	@ zero_extendqisi2
 676:Middlewares/ST/STM32_USB_Host_Library/Core/Src/usbh_core.c ****           {
 2193              		.loc 1 676 81 view .LVU746
 2194 0232 94F84713 		ldrb	r1, [r4, #839]	@ zero_extendqisi2
 676:Middlewares/ST/STM32_USB_Host_Library/Core/Src/usbh_core.c ****           {
 2195              		.loc 1 676 14 view .LVU747
 2196 0236 8842     		cmp	r0, r1
 2197 0238 02D0     		beq	.L153
 674:Middlewares/ST/STM32_USB_Host_Library/Core/Src/usbh_core.c ****         {
 2198              		.loc 1 674 63 is_stmt 1 discriminator 2 view .LVU748
 2199 023a 0133     		adds	r3, r3, #1
 2200              	.LVL185:
 674:Middlewares/ST/STM32_USB_Host_Library/Core/Src/usbh_core.c ****         {
 2201              		.loc 1 674 63 is_stmt 0 discriminator 2 view .LVU749
 2202 023c DBB2     		uxtb	r3, r3
 2203 023e DDE7     		b	.L134
 2204              	.LVL186:
 2205              	.L153:
 678:Middlewares/ST/STM32_USB_Host_Library/Core/Src/usbh_core.c ****             break;
 2206              		.loc 1 678 13 is_stmt 1 view .LVU750
 678:Middlewares/ST/STM32_USB_Host_Library/Core/Src/usbh_core.c ****             break;
ARM GAS  C:\Users\moham\AppData\Local\Temp\ccR7RLkT.s 			page 74


 2207              		.loc 1 678 33 is_stmt 0 view .LVU751
 2208 0240 C4F87C23 		str	r2, [r4, #892]
 679:Middlewares/ST/STM32_USB_Host_Library/Core/Src/usbh_core.c ****           }
 2209              		.loc 1 679 13 is_stmt 1 view .LVU752
 2210 0244 DBE7     		b	.L136
 2211              	.LVL187:
 2212              	.L139:
 695:Middlewares/ST/STM32_USB_Host_Library/Core/Src/usbh_core.c ****             USBH_UsrLog("Device not supporting %s class.", phost->pActiveClass->Name);
 2213              		.loc 1 695 13 view .LVU753
 695:Middlewares/ST/STM32_USB_Host_Library/Core/Src/usbh_core.c ****             USBH_UsrLog("Device not supporting %s class.", phost->pActiveClass->Name);
 2214              		.loc 1 695 27 is_stmt 0 view .LVU754
 2215 0246 0D23     		movs	r3, #13
 2216 0248 2370     		strb	r3, [r4]
 2217 024a E6E7     		b	.L133
 2218              	.L138:
 701:Middlewares/ST/STM32_USB_Host_Library/Core/Src/usbh_core.c ****           USBH_UsrLog("No registered class for this device.");
 2219              		.loc 1 701 11 is_stmt 1 view .LVU755
 701:Middlewares/ST/STM32_USB_Host_Library/Core/Src/usbh_core.c ****           USBH_UsrLog("No registered class for this device.");
 2220              		.loc 1 701 25 is_stmt 0 view .LVU756
 2221 024c 0D23     		movs	r3, #13
 2222 024e 2370     		strb	r3, [r4]
 2223 0250 E3E7     		b	.L133
 2224              	.LVL188:
 2225              	.L116:
 713:Middlewares/ST/STM32_USB_Host_Library/Core/Src/usbh_core.c ****       {
 2226              		.loc 1 713 7 is_stmt 1 view .LVU757
 713:Middlewares/ST/STM32_USB_Host_Library/Core/Src/usbh_core.c ****       {
 2227              		.loc 1 713 16 is_stmt 0 view .LVU758
 2228 0252 D4F87C33 		ldr	r3, [r4, #892]
 713:Middlewares/ST/STM32_USB_Host_Library/Core/Src/usbh_core.c ****       {
 2229              		.loc 1 713 10 view .LVU759
 2230 0256 BBB1     		cbz	r3, .L140
 715:Middlewares/ST/STM32_USB_Host_Library/Core/Src/usbh_core.c **** 
 2231              		.loc 1 715 9 is_stmt 1 view .LVU760
 715:Middlewares/ST/STM32_USB_Host_Library/Core/Src/usbh_core.c **** 
 2232              		.loc 1 715 37 is_stmt 0 view .LVU761
 2233 0258 1B69     		ldr	r3, [r3, #16]
 715:Middlewares/ST/STM32_USB_Host_Library/Core/Src/usbh_core.c **** 
 2234              		.loc 1 715 18 view .LVU762
 2235 025a 2046     		mov	r0, r4
 2236              	.LVL189:
 715:Middlewares/ST/STM32_USB_Host_Library/Core/Src/usbh_core.c **** 
 2237              		.loc 1 715 18 view .LVU763
 2238 025c 9847     		blx	r3
 2239              	.LVL190:
 715:Middlewares/ST/STM32_USB_Host_Library/Core/Src/usbh_core.c **** 
 2240              		.loc 1 715 16 discriminator 1 view .LVU764
 2241 025e 8DF81700 		strb	r0, [sp, #23]
 717:Middlewares/ST/STM32_USB_Host_Library/Core/Src/usbh_core.c ****         {
 2242              		.loc 1 717 9 is_stmt 1 view .LVU765
 717:Middlewares/ST/STM32_USB_Host_Library/Core/Src/usbh_core.c ****         {
 2243              		.loc 1 717 20 is_stmt 0 view .LVU766
 2244 0262 9DF81730 		ldrb	r3, [sp, #23]	@ zero_extendqisi2
 717:Middlewares/ST/STM32_USB_Host_Library/Core/Src/usbh_core.c ****         {
 2245              		.loc 1 717 12 view .LVU767
 2246 0266 43B9     		cbnz	r3, .L141
 719:Middlewares/ST/STM32_USB_Host_Library/Core/Src/usbh_core.c ****         }
ARM GAS  C:\Users\moham\AppData\Local\Temp\ccR7RLkT.s 			page 75


 2247              		.loc 1 719 11 is_stmt 1 view .LVU768
 719:Middlewares/ST/STM32_USB_Host_Library/Core/Src/usbh_core.c ****         }
 2248              		.loc 1 719 25 is_stmt 0 view .LVU769
 2249 0268 0B23     		movs	r3, #11
 2250 026a 2370     		strb	r3, [r4]
 2251              	.L142:
 734:Middlewares/ST/STM32_USB_Host_Library/Core/Src/usbh_core.c ****       }
 2252              		.loc 1 734 9 is_stmt 1 view .LVU770
 734:Middlewares/ST/STM32_USB_Host_Library/Core/Src/usbh_core.c ****       }
 2253              		.loc 1 734 9 view .LVU771
 734:Middlewares/ST/STM32_USB_Host_Library/Core/Src/usbh_core.c ****       }
 2254              		.loc 1 734 9 view .LVU772
 738:Middlewares/ST/STM32_USB_Host_Library/Core/Src/usbh_core.c **** #endif /* (USBH_USE_OS == 1U) */
 2255              		.loc 1 738 9 view .LVU773
 2256 026c 0023     		movs	r3, #0
 2257 026e 1A46     		mov	r2, r3
 2258 0270 0521     		movs	r1, #5
 2259 0272 2046     		mov	r0, r4
 2260 0274 FFF7FEFF 		bl	USBH_OS_PutMessage
 2261              	.LVL191:
 740:Middlewares/ST/STM32_USB_Host_Library/Core/Src/usbh_core.c **** 
 2262              		.loc 1 740 7 view .LVU774
 2263 0278 A4E7     		b	.L109
 2264              	.L141:
 721:Middlewares/ST/STM32_USB_Host_Library/Core/Src/usbh_core.c ****         {
 2265              		.loc 1 721 14 view .LVU775
 721:Middlewares/ST/STM32_USB_Host_Library/Core/Src/usbh_core.c ****         {
 2266              		.loc 1 721 25 is_stmt 0 view .LVU776
 2267 027a 9DF81730 		ldrb	r3, [sp, #23]	@ zero_extendqisi2
 721:Middlewares/ST/STM32_USB_Host_Library/Core/Src/usbh_core.c ****         {
 2268              		.loc 1 721 17 view .LVU777
 2269 027e 022B     		cmp	r3, #2
 2270 0280 F4D1     		bne	.L142
 723:Middlewares/ST/STM32_USB_Host_Library/Core/Src/usbh_core.c ****           USBH_ErrLog("Device not responding Please Unplug.");
 2271              		.loc 1 723 11 is_stmt 1 view .LVU778
 723:Middlewares/ST/STM32_USB_Host_Library/Core/Src/usbh_core.c ****           USBH_ErrLog("Device not responding Please Unplug.");
 2272              		.loc 1 723 25 is_stmt 0 view .LVU779
 2273 0282 0D23     		movs	r3, #13
 2274 0284 2370     		strb	r3, [r4]
 724:Middlewares/ST/STM32_USB_Host_Library/Core/Src/usbh_core.c ****         }
 2275              		.loc 1 724 11 is_stmt 1 view .LVU780
 724:Middlewares/ST/STM32_USB_Host_Library/Core/Src/usbh_core.c ****         }
 2276              		.loc 1 724 11 view .LVU781
 724:Middlewares/ST/STM32_USB_Host_Library/Core/Src/usbh_core.c ****         }
 2277              		.loc 1 724 11 view .LVU782
 2278 0286 F1E7     		b	.L142
 2279              	.LVL192:
 2280              	.L140:
 733:Middlewares/ST/STM32_USB_Host_Library/Core/Src/usbh_core.c ****         USBH_ErrLog("Invalid Class Driver.");
 2281              		.loc 1 733 9 view .LVU783
 733:Middlewares/ST/STM32_USB_Host_Library/Core/Src/usbh_core.c ****         USBH_ErrLog("Invalid Class Driver.");
 2282              		.loc 1 733 23 is_stmt 0 view .LVU784
 2283 0288 0D23     		movs	r3, #13
 2284 028a 2370     		strb	r3, [r4]
 2285 028c EEE7     		b	.L142
 2286              	.L110:
 744:Middlewares/ST/STM32_USB_Host_Library/Core/Src/usbh_core.c ****       {
ARM GAS  C:\Users\moham\AppData\Local\Temp\ccR7RLkT.s 			page 76


 2287              		.loc 1 744 7 is_stmt 1 view .LVU785
 744:Middlewares/ST/STM32_USB_Host_Library/Core/Src/usbh_core.c ****       {
 2288              		.loc 1 744 16 is_stmt 0 view .LVU786
 2289 028e D4F87C33 		ldr	r3, [r4, #892]
 744:Middlewares/ST/STM32_USB_Host_Library/Core/Src/usbh_core.c ****       {
 2290              		.loc 1 744 10 view .LVU787
 2291 0292 002B     		cmp	r3, #0
 2292 0294 96D0     		beq	.L109
 746:Middlewares/ST/STM32_USB_Host_Library/Core/Src/usbh_core.c ****       }
 2293              		.loc 1 746 9 is_stmt 1 view .LVU788
 746:Middlewares/ST/STM32_USB_Host_Library/Core/Src/usbh_core.c ****       }
 2294              		.loc 1 746 28 is_stmt 0 view .LVU789
 2295 0296 5B69     		ldr	r3, [r3, #20]
 746:Middlewares/ST/STM32_USB_Host_Library/Core/Src/usbh_core.c ****       }
 2296              		.loc 1 746 9 view .LVU790
 2297 0298 2046     		mov	r0, r4
 2298              	.LVL193:
 746:Middlewares/ST/STM32_USB_Host_Library/Core/Src/usbh_core.c ****       }
 2299              		.loc 1 746 9 view .LVU791
 2300 029a 9847     		blx	r3
 2301              	.LVL194:
 2302 029c 92E7     		b	.L109
 2303              	.LVL195:
 2304              	.L118:
 751:Middlewares/ST/STM32_USB_Host_Library/Core/Src/usbh_core.c **** 
 2305              		.loc 1 751 7 is_stmt 1 view .LVU792
 751:Middlewares/ST/STM32_USB_Host_Library/Core/Src/usbh_core.c **** 
 2306              		.loc 1 751 37 is_stmt 0 view .LVU793
 2307 029e 0023     		movs	r3, #0
 2308 02a0 84F82133 		strb	r3, [r4, #801]
 753:Middlewares/ST/STM32_USB_Host_Library/Core/Src/usbh_core.c **** 
 2309              		.loc 1 753 7 is_stmt 1 view .LVU794
 753:Middlewares/ST/STM32_USB_Host_Library/Core/Src/usbh_core.c **** 
 2310              		.loc 1 753 13 is_stmt 0 view .LVU795
 2311 02a4 2046     		mov	r0, r4
 2312              	.LVL196:
 753:Middlewares/ST/STM32_USB_Host_Library/Core/Src/usbh_core.c **** 
 2313              		.loc 1 753 13 view .LVU796
 2314 02a6 FFF7FEFF 		bl	DeInitStateMachine
 2315              	.LVL197:
 756:Middlewares/ST/STM32_USB_Host_Library/Core/Src/usbh_core.c ****       {
 2316              		.loc 1 756 7 is_stmt 1 view .LVU797
 756:Middlewares/ST/STM32_USB_Host_Library/Core/Src/usbh_core.c ****       {
 2317              		.loc 1 756 16 is_stmt 0 view .LVU798
 2318 02aa D4F87C33 		ldr	r3, [r4, #892]
 756:Middlewares/ST/STM32_USB_Host_Library/Core/Src/usbh_core.c ****       {
 2319              		.loc 1 756 10 view .LVU799
 2320 02ae 2BB1     		cbz	r3, .L143
 758:Middlewares/ST/STM32_USB_Host_Library/Core/Src/usbh_core.c ****         phost->pActiveClass = NULL;
 2321              		.loc 1 758 9 is_stmt 1 view .LVU800
 758:Middlewares/ST/STM32_USB_Host_Library/Core/Src/usbh_core.c ****         phost->pActiveClass = NULL;
 2322              		.loc 1 758 28 is_stmt 0 view .LVU801
 2323 02b0 DB68     		ldr	r3, [r3, #12]
 758:Middlewares/ST/STM32_USB_Host_Library/Core/Src/usbh_core.c ****         phost->pActiveClass = NULL;
 2324              		.loc 1 758 9 view .LVU802
 2325 02b2 2046     		mov	r0, r4
 2326 02b4 9847     		blx	r3
ARM GAS  C:\Users\moham\AppData\Local\Temp\ccR7RLkT.s 			page 77


 2327              	.LVL198:
 759:Middlewares/ST/STM32_USB_Host_Library/Core/Src/usbh_core.c ****       }
 2328              		.loc 1 759 9 is_stmt 1 view .LVU803
 759:Middlewares/ST/STM32_USB_Host_Library/Core/Src/usbh_core.c ****       }
 2329              		.loc 1 759 29 is_stmt 0 view .LVU804
 2330 02b6 0023     		movs	r3, #0
 2331 02b8 C4F87C33 		str	r3, [r4, #892]
 2332              	.L143:
 762:Middlewares/ST/STM32_USB_Host_Library/Core/Src/usbh_core.c ****       {
 2333              		.loc 1 762 7 is_stmt 1 view .LVU805
 762:Middlewares/ST/STM32_USB_Host_Library/Core/Src/usbh_core.c ****       {
 2334              		.loc 1 762 16 is_stmt 0 view .LVU806
 2335 02bc D4F8D433 		ldr	r3, [r4, #980]
 762:Middlewares/ST/STM32_USB_Host_Library/Core/Src/usbh_core.c ****       {
 2336              		.loc 1 762 10 view .LVU807
 2337 02c0 13B1     		cbz	r3, .L144
 764:Middlewares/ST/STM32_USB_Host_Library/Core/Src/usbh_core.c ****       }
 2338              		.loc 1 764 9 is_stmt 1 view .LVU808
 2339 02c2 0521     		movs	r1, #5
 2340 02c4 2046     		mov	r0, r4
 2341 02c6 9847     		blx	r3
 2342              	.LVL199:
 2343              	.L144:
 766:Middlewares/ST/STM32_USB_Host_Library/Core/Src/usbh_core.c **** 
 2344              		.loc 1 766 7 view .LVU809
 766:Middlewares/ST/STM32_USB_Host_Library/Core/Src/usbh_core.c **** 
 2345              		.loc 1 766 7 view .LVU810
 766:Middlewares/ST/STM32_USB_Host_Library/Core/Src/usbh_core.c **** 
 2346              		.loc 1 766 7 view .LVU811
 768:Middlewares/ST/STM32_USB_Host_Library/Core/Src/usbh_core.c ****       {
 2347              		.loc 1 768 7 view .LVU812
 768:Middlewares/ST/STM32_USB_Host_Library/Core/Src/usbh_core.c ****       {
 2348              		.loc 1 768 24 is_stmt 0 view .LVU813
 2349 02c8 94F82233 		ldrb	r3, [r4, #802]	@ zero_extendqisi2
 768:Middlewares/ST/STM32_USB_Host_Library/Core/Src/usbh_core.c ****       {
 2350              		.loc 1 768 10 view .LVU814
 2351 02cc 012B     		cmp	r3, #1
 2352 02ce 09D0     		beq	.L154
 778:Middlewares/ST/STM32_USB_Host_Library/Core/Src/usbh_core.c ****       }
 2353              		.loc 1 778 9 is_stmt 1 view .LVU815
 778:Middlewares/ST/STM32_USB_Host_Library/Core/Src/usbh_core.c ****       }
 2354              		.loc 1 778 15 is_stmt 0 view .LVU816
 2355 02d0 2046     		mov	r0, r4
 2356 02d2 FFF7FEFF 		bl	USBH_LL_Start
 2357              	.LVL200:
 2358              	.L146:
 782:Middlewares/ST/STM32_USB_Host_Library/Core/Src/usbh_core.c **** #endif /* (USBH_USE_OS == 1U) */
 2359              		.loc 1 782 7 is_stmt 1 view .LVU817
 2360 02d6 0023     		movs	r3, #0
 2361 02d8 1A46     		mov	r2, r3
 2362 02da 0121     		movs	r1, #1
 2363 02dc 2046     		mov	r0, r4
 2364 02de FFF7FEFF 		bl	USBH_OS_PutMessage
 2365              	.LVL201:
 784:Middlewares/ST/STM32_USB_Host_Library/Core/Src/usbh_core.c **** 
 2366              		.loc 1 784 7 view .LVU818
 2367 02e2 6FE7     		b	.L109
ARM GAS  C:\Users\moham\AppData\Local\Temp\ccR7RLkT.s 			page 78


 2368              	.L154:
 770:Middlewares/ST/STM32_USB_Host_Library/Core/Src/usbh_core.c **** 
 2369              		.loc 1 770 9 view .LVU819
 770:Middlewares/ST/STM32_USB_Host_Library/Core/Src/usbh_core.c **** 
 2370              		.loc 1 770 39 is_stmt 0 view .LVU820
 2371 02e4 0023     		movs	r3, #0
 2372 02e6 84F82233 		strb	r3, [r4, #802]
 773:Middlewares/ST/STM32_USB_Host_Library/Core/Src/usbh_core.c ****       }
 2373              		.loc 1 773 9 is_stmt 1 view .LVU821
 773:Middlewares/ST/STM32_USB_Host_Library/Core/Src/usbh_core.c ****       }
 2374              		.loc 1 773 15 is_stmt 0 view .LVU822
 2375 02ea 2046     		mov	r0, r4
 2376 02ec FFF7FEFF 		bl	USBH_Start
 2377              	.LVL202:
 2378 02f0 F1E7     		b	.L146
 2379              		.cfi_endproc
 2380              	.LFE258:
 2382              		.section	.text.USBH_Process_OS,"ax",%progbits
 2383              		.align	1
 2384              		.syntax unified
 2385              		.thumb
 2386              		.thumb_func
 2388              	USBH_Process_OS:
 2389              	.LVL203:
 2390              	.LFB269:
1271:Middlewares/ST/STM32_USB_Host_Library/Core/Src/usbh_core.c **** 
1272:Middlewares/ST/STM32_USB_Host_Library/Core/Src/usbh_core.c **** /**
1273:Middlewares/ST/STM32_USB_Host_Library/Core/Src/usbh_core.c ****   * @brief  USB Host Thread task
1274:Middlewares/ST/STM32_USB_Host_Library/Core/Src/usbh_core.c ****   * @param  pvParameters not used
1275:Middlewares/ST/STM32_USB_Host_Library/Core/Src/usbh_core.c ****   * @retval None
1276:Middlewares/ST/STM32_USB_Host_Library/Core/Src/usbh_core.c ****   */
1277:Middlewares/ST/STM32_USB_Host_Library/Core/Src/usbh_core.c **** #if (osCMSIS < 0x20000U)
1278:Middlewares/ST/STM32_USB_Host_Library/Core/Src/usbh_core.c **** static void USBH_Process_OS(void const *argument)
1279:Middlewares/ST/STM32_USB_Host_Library/Core/Src/usbh_core.c **** {
 2391              		.loc 1 1279 1 is_stmt 1 view -0
 2392              		.cfi_startproc
 2393              		@ Volatile: function does not return.
 2394              		@ args = 0, pretend = 0, frame = 16
 2395              		@ frame_needed = 0, uses_anonymous_args = 0
 2396              		.loc 1 1279 1 is_stmt 0 view .LVU824
 2397 0000 00B5     		push	{lr}
 2398              	.LCFI21:
 2399              		.cfi_def_cfa_offset 4
 2400              		.cfi_offset 14, -4
 2401 0002 85B0     		sub	sp, sp, #20
 2402              	.LCFI22:
 2403              		.cfi_def_cfa_offset 24
 2404 0004 0446     		mov	r4, r0
 2405              	.LVL204:
 2406              	.L156:
1280:Middlewares/ST/STM32_USB_Host_Library/Core/Src/usbh_core.c ****   osEvent event;
 2407              		.loc 1 1280 3 is_stmt 1 view .LVU825
1281:Middlewares/ST/STM32_USB_Host_Library/Core/Src/usbh_core.c **** 
1282:Middlewares/ST/STM32_USB_Host_Library/Core/Src/usbh_core.c ****   for (;;)
 2408              		.loc 1 1282 3 view .LVU826
1283:Middlewares/ST/STM32_USB_Host_Library/Core/Src/usbh_core.c ****   {
1284:Middlewares/ST/STM32_USB_Host_Library/Core/Src/usbh_core.c ****     event = osMessageGet(((USBH_HandleTypeDef *)argument)->os_event, osWaitForever);
ARM GAS  C:\Users\moham\AppData\Local\Temp\ccR7RLkT.s 			page 79


 2409              		.loc 1 1284 5 view .LVU827
 2410              		.loc 1 1284 13 is_stmt 0 view .LVU828
 2411 0006 4FF0FF32 		mov	r2, #-1
 2412 000a D4F8D813 		ldr	r1, [r4, #984]
 2413 000e 01A8     		add	r0, sp, #4
 2414 0010 FFF7FEFF 		bl	osMessageGet
 2415              	.LVL205:
1285:Middlewares/ST/STM32_USB_Host_Library/Core/Src/usbh_core.c ****     if (event.status == osEventMessage)
 2416              		.loc 1 1285 5 is_stmt 1 view .LVU829
 2417              		.loc 1 1285 14 is_stmt 0 view .LVU830
 2418 0014 019B     		ldr	r3, [sp, #4]
 2419              		.loc 1 1285 8 view .LVU831
 2420 0016 102B     		cmp	r3, #16
 2421 0018 F5D1     		bne	.L156
1286:Middlewares/ST/STM32_USB_Host_Library/Core/Src/usbh_core.c ****     {
1287:Middlewares/ST/STM32_USB_Host_Library/Core/Src/usbh_core.c ****       USBH_Process((USBH_HandleTypeDef *)argument);
 2422              		.loc 1 1287 7 is_stmt 1 view .LVU832
 2423 001a 2046     		mov	r0, r4
 2424 001c FFF7FEFF 		bl	USBH_Process
 2425              	.LVL206:
 2426 0020 F1E7     		b	.L156
 2427              		.cfi_endproc
 2428              	.LFE269:
 2430              		.section	.text.USBH_LL_PortEnabled,"ax",%progbits
 2431              		.align	1
 2432              		.global	USBH_LL_PortEnabled
 2433              		.syntax unified
 2434              		.thumb
 2435              		.thumb_func
 2437              	USBH_LL_PortEnabled:
 2438              	.LVL207:
 2439              	.LFB263:
1155:Middlewares/ST/STM32_USB_Host_Library/Core/Src/usbh_core.c ****   phost->device.PortEnabled = 1U;
 2440              		.loc 1 1155 1 view -0
 2441              		.cfi_startproc
 2442              		@ args = 0, pretend = 0, frame = 0
 2443              		@ frame_needed = 0, uses_anonymous_args = 0
1155:Middlewares/ST/STM32_USB_Host_Library/Core/Src/usbh_core.c ****   phost->device.PortEnabled = 1U;
 2444              		.loc 1 1155 1 is_stmt 0 view .LVU834
 2445 0000 08B5     		push	{r3, lr}
 2446              	.LCFI23:
 2447              		.cfi_def_cfa_offset 8
 2448              		.cfi_offset 3, -8
 2449              		.cfi_offset 14, -4
1156:Middlewares/ST/STM32_USB_Host_Library/Core/Src/usbh_core.c **** 
 2450              		.loc 1 1156 3 is_stmt 1 view .LVU835
1156:Middlewares/ST/STM32_USB_Host_Library/Core/Src/usbh_core.c **** 
 2451              		.loc 1 1156 29 is_stmt 0 view .LVU836
 2452 0002 0121     		movs	r1, #1
 2453 0004 80F82313 		strb	r1, [r0, #803]
1159:Middlewares/ST/STM32_USB_Host_Library/Core/Src/usbh_core.c **** #endif /* (USBH_USE_OS == 1U) */
 2454              		.loc 1 1159 3 is_stmt 1 view .LVU837
 2455 0008 0023     		movs	r3, #0
 2456 000a 1A46     		mov	r2, r3
 2457 000c FFF7FEFF 		bl	USBH_OS_PutMessage
 2458              	.LVL208:
1162:Middlewares/ST/STM32_USB_Host_Library/Core/Src/usbh_core.c **** }
ARM GAS  C:\Users\moham\AppData\Local\Temp\ccR7RLkT.s 			page 80


 2459              		.loc 1 1162 3 view .LVU838
1163:Middlewares/ST/STM32_USB_Host_Library/Core/Src/usbh_core.c **** 
 2460              		.loc 1 1163 1 is_stmt 0 view .LVU839
 2461 0010 08BD     		pop	{r3, pc}
 2462              		.cfi_endproc
 2463              	.LFE263:
 2465              		.section	.text.USBH_LL_Connect,"ax",%progbits
 2466              		.align	1
 2467              		.global	USBH_LL_Connect
 2468              		.syntax unified
 2469              		.thumb
 2470              		.thumb_func
 2472              	USBH_LL_Connect:
 2473              	.LVL209:
 2474              	.LFB266:
1200:Middlewares/ST/STM32_USB_Host_Library/Core/Src/usbh_core.c ****   phost->device.is_connected = 1U;
 2475              		.loc 1 1200 1 is_stmt 1 view -0
 2476              		.cfi_startproc
 2477              		@ args = 0, pretend = 0, frame = 0
 2478              		@ frame_needed = 0, uses_anonymous_args = 0
1200:Middlewares/ST/STM32_USB_Host_Library/Core/Src/usbh_core.c ****   phost->device.is_connected = 1U;
 2479              		.loc 1 1200 1 is_stmt 0 view .LVU841
 2480 0000 10B5     		push	{r4, lr}
 2481              	.LCFI24:
 2482              		.cfi_def_cfa_offset 8
 2483              		.cfi_offset 4, -8
 2484              		.cfi_offset 14, -4
1201:Middlewares/ST/STM32_USB_Host_Library/Core/Src/usbh_core.c ****   phost->device.is_disconnected = 0U;
 2485              		.loc 1 1201 3 is_stmt 1 view .LVU842
1201:Middlewares/ST/STM32_USB_Host_Library/Core/Src/usbh_core.c ****   phost->device.is_disconnected = 0U;
 2486              		.loc 1 1201 30 is_stmt 0 view .LVU843
 2487 0002 0121     		movs	r1, #1
 2488 0004 80F82013 		strb	r1, [r0, #800]
1202:Middlewares/ST/STM32_USB_Host_Library/Core/Src/usbh_core.c ****   phost->device.is_ReEnumerated = 0U;
 2489              		.loc 1 1202 3 is_stmt 1 view .LVU844
1202:Middlewares/ST/STM32_USB_Host_Library/Core/Src/usbh_core.c ****   phost->device.is_ReEnumerated = 0U;
 2490              		.loc 1 1202 33 is_stmt 0 view .LVU845
 2491 0008 0024     		movs	r4, #0
 2492 000a 80F82143 		strb	r4, [r0, #801]
1203:Middlewares/ST/STM32_USB_Host_Library/Core/Src/usbh_core.c **** 
 2493              		.loc 1 1203 3 is_stmt 1 view .LVU846
1203:Middlewares/ST/STM32_USB_Host_Library/Core/Src/usbh_core.c **** 
 2494              		.loc 1 1203 33 is_stmt 0 view .LVU847
 2495 000e 80F82243 		strb	r4, [r0, #802]
1206:Middlewares/ST/STM32_USB_Host_Library/Core/Src/usbh_core.c **** #endif /* (USBH_USE_OS == 1U) */
 2496              		.loc 1 1206 3 is_stmt 1 view .LVU848
 2497 0012 2346     		mov	r3, r4
 2498 0014 2246     		mov	r2, r4
 2499 0016 FFF7FEFF 		bl	USBH_OS_PutMessage
 2500              	.LVL210:
1209:Middlewares/ST/STM32_USB_Host_Library/Core/Src/usbh_core.c **** }
 2501              		.loc 1 1209 3 view .LVU849
1210:Middlewares/ST/STM32_USB_Host_Library/Core/Src/usbh_core.c **** 
 2502              		.loc 1 1210 1 is_stmt 0 view .LVU850
 2503 001a 2046     		mov	r0, r4
 2504 001c 10BD     		pop	{r4, pc}
 2505              		.cfi_endproc
ARM GAS  C:\Users\moham\AppData\Local\Temp\ccR7RLkT.s 			page 81


 2506              	.LFE266:
 2508              		.section	.text.USBH_LL_Disconnect,"ax",%progbits
 2509              		.align	1
 2510              		.global	USBH_LL_Disconnect
 2511              		.syntax unified
 2512              		.thumb
 2513              		.thumb_func
 2515              	USBH_LL_Disconnect:
 2516              	.LVL211:
 2517              	.LFB267:
1220:Middlewares/ST/STM32_USB_Host_Library/Core/Src/usbh_core.c ****   /* update device connection states */
 2518              		.loc 1 1220 1 is_stmt 1 view -0
 2519              		.cfi_startproc
 2520              		@ args = 0, pretend = 0, frame = 0
 2521              		@ frame_needed = 0, uses_anonymous_args = 0
1220:Middlewares/ST/STM32_USB_Host_Library/Core/Src/usbh_core.c ****   /* update device connection states */
 2522              		.loc 1 1220 1 is_stmt 0 view .LVU852
 2523 0000 70B5     		push	{r4, r5, r6, lr}
 2524              	.LCFI25:
 2525              		.cfi_def_cfa_offset 16
 2526              		.cfi_offset 4, -16
 2527              		.cfi_offset 5, -12
 2528              		.cfi_offset 6, -8
 2529              		.cfi_offset 14, -4
 2530 0002 0446     		mov	r4, r0
1222:Middlewares/ST/STM32_USB_Host_Library/Core/Src/usbh_core.c ****   phost->device.is_connected = 0U;
 2531              		.loc 1 1222 3 is_stmt 1 view .LVU853
1222:Middlewares/ST/STM32_USB_Host_Library/Core/Src/usbh_core.c ****   phost->device.is_connected = 0U;
 2532              		.loc 1 1222 33 is_stmt 0 view .LVU854
 2533 0004 0126     		movs	r6, #1
 2534 0006 80F82163 		strb	r6, [r0, #801]
1223:Middlewares/ST/STM32_USB_Host_Library/Core/Src/usbh_core.c ****   phost->device.PortEnabled = 0U;
 2535              		.loc 1 1223 3 is_stmt 1 view .LVU855
1223:Middlewares/ST/STM32_USB_Host_Library/Core/Src/usbh_core.c ****   phost->device.PortEnabled = 0U;
 2536              		.loc 1 1223 30 is_stmt 0 view .LVU856
 2537 000a 0025     		movs	r5, #0
 2538 000c 80F82053 		strb	r5, [r0, #800]
1224:Middlewares/ST/STM32_USB_Host_Library/Core/Src/usbh_core.c **** 
 2539              		.loc 1 1224 3 is_stmt 1 view .LVU857
1224:Middlewares/ST/STM32_USB_Host_Library/Core/Src/usbh_core.c **** 
 2540              		.loc 1 1224 29 is_stmt 0 view .LVU858
 2541 0010 80F82353 		strb	r5, [r0, #803]
1227:Middlewares/ST/STM32_USB_Host_Library/Core/Src/usbh_core.c **** 
 2542              		.loc 1 1227 3 is_stmt 1 view .LVU859
1227:Middlewares/ST/STM32_USB_Host_Library/Core/Src/usbh_core.c **** 
 2543              		.loc 1 1227 9 is_stmt 0 view .LVU860
 2544 0014 FFF7FEFF 		bl	USBH_LL_Stop
 2545              	.LVL212:
1230:Middlewares/ST/STM32_USB_Host_Library/Core/Src/usbh_core.c ****   (void)USBH_FreePipe(phost, phost->Control.pipe_out);
 2546              		.loc 1 1230 3 is_stmt 1 view .LVU861
1230:Middlewares/ST/STM32_USB_Host_Library/Core/Src/usbh_core.c ****   (void)USBH_FreePipe(phost, phost->Control.pipe_out);
 2547              		.loc 1 1230 9 is_stmt 0 view .LVU862
 2548 0018 2179     		ldrb	r1, [r4, #4]	@ zero_extendqisi2
 2549 001a 2046     		mov	r0, r4
 2550 001c FFF7FEFF 		bl	USBH_FreePipe
 2551              	.LVL213:
1231:Middlewares/ST/STM32_USB_Host_Library/Core/Src/usbh_core.c **** 
ARM GAS  C:\Users\moham\AppData\Local\Temp\ccR7RLkT.s 			page 82


 2552              		.loc 1 1231 3 is_stmt 1 view .LVU863
1231:Middlewares/ST/STM32_USB_Host_Library/Core/Src/usbh_core.c **** 
 2553              		.loc 1 1231 9 is_stmt 0 view .LVU864
 2554 0020 6179     		ldrb	r1, [r4, #5]	@ zero_extendqisi2
 2555 0022 2046     		mov	r0, r4
 2556 0024 FFF7FEFF 		bl	USBH_FreePipe
 2557              	.LVL214:
1234:Middlewares/ST/STM32_USB_Host_Library/Core/Src/usbh_core.c **** #endif /* (USBH_USE_OS == 1U) */
 2558              		.loc 1 1234 3 is_stmt 1 view .LVU865
 2559 0028 2B46     		mov	r3, r5
 2560 002a 2A46     		mov	r2, r5
 2561 002c 3146     		mov	r1, r6
 2562 002e 2046     		mov	r0, r4
 2563 0030 FFF7FEFF 		bl	USBH_OS_PutMessage
 2564              	.LVL215:
1237:Middlewares/ST/STM32_USB_Host_Library/Core/Src/usbh_core.c **** }
 2565              		.loc 1 1237 3 view .LVU866
1238:Middlewares/ST/STM32_USB_Host_Library/Core/Src/usbh_core.c **** 
 2566              		.loc 1 1238 1 is_stmt 0 view .LVU867
 2567 0034 2846     		mov	r0, r5
 2568 0036 70BD     		pop	{r4, r5, r6, pc}
1238:Middlewares/ST/STM32_USB_Host_Library/Core/Src/usbh_core.c **** 
 2569              		.loc 1 1238 1 view .LVU868
 2570              		.cfi_endproc
 2571              	.LFE267:
 2573              		.section	.text.USBH_LL_NotifyURBChange,"ax",%progbits
 2574              		.align	1
 2575              		.global	USBH_LL_NotifyURBChange
 2576              		.syntax unified
 2577              		.thumb
 2578              		.thumb_func
 2580              	USBH_LL_NotifyURBChange:
 2581              	.LVL216:
 2582              	.LFB270:
1288:Middlewares/ST/STM32_USB_Host_Library/Core/Src/usbh_core.c ****     }
1289:Middlewares/ST/STM32_USB_Host_Library/Core/Src/usbh_core.c ****   }
1290:Middlewares/ST/STM32_USB_Host_Library/Core/Src/usbh_core.c **** }
1291:Middlewares/ST/STM32_USB_Host_Library/Core/Src/usbh_core.c **** #else
1292:Middlewares/ST/STM32_USB_Host_Library/Core/Src/usbh_core.c **** static void USBH_Process_OS(void *argument)
1293:Middlewares/ST/STM32_USB_Host_Library/Core/Src/usbh_core.c **** {
1294:Middlewares/ST/STM32_USB_Host_Library/Core/Src/usbh_core.c ****   osStatus_t status;
1295:Middlewares/ST/STM32_USB_Host_Library/Core/Src/usbh_core.c **** 
1296:Middlewares/ST/STM32_USB_Host_Library/Core/Src/usbh_core.c ****   for (;;)
1297:Middlewares/ST/STM32_USB_Host_Library/Core/Src/usbh_core.c ****   {
1298:Middlewares/ST/STM32_USB_Host_Library/Core/Src/usbh_core.c ****     status = osMessageQueueGet(((USBH_HandleTypeDef *)argument)->os_event,
1299:Middlewares/ST/STM32_USB_Host_Library/Core/Src/usbh_core.c ****                                &((USBH_HandleTypeDef *)argument)->os_msg, NULL, osWaitForever);
1300:Middlewares/ST/STM32_USB_Host_Library/Core/Src/usbh_core.c ****     if (status == osOK)
1301:Middlewares/ST/STM32_USB_Host_Library/Core/Src/usbh_core.c ****     {
1302:Middlewares/ST/STM32_USB_Host_Library/Core/Src/usbh_core.c ****       USBH_Process((USBH_HandleTypeDef *)argument);
1303:Middlewares/ST/STM32_USB_Host_Library/Core/Src/usbh_core.c ****     }
1304:Middlewares/ST/STM32_USB_Host_Library/Core/Src/usbh_core.c ****   }
1305:Middlewares/ST/STM32_USB_Host_Library/Core/Src/usbh_core.c **** }
1306:Middlewares/ST/STM32_USB_Host_Library/Core/Src/usbh_core.c **** #endif /* (osCMSIS < 0x20000U) */
1307:Middlewares/ST/STM32_USB_Host_Library/Core/Src/usbh_core.c **** 
1308:Middlewares/ST/STM32_USB_Host_Library/Core/Src/usbh_core.c **** /**
1309:Middlewares/ST/STM32_USB_Host_Library/Core/Src/usbh_core.c ****   * @brief  USBH_LL_NotifyURBChange
1310:Middlewares/ST/STM32_USB_Host_Library/Core/Src/usbh_core.c ****   *         Notify URB state Change
ARM GAS  C:\Users\moham\AppData\Local\Temp\ccR7RLkT.s 			page 83


1311:Middlewares/ST/STM32_USB_Host_Library/Core/Src/usbh_core.c ****   * @param  phost: Host handle
1312:Middlewares/ST/STM32_USB_Host_Library/Core/Src/usbh_core.c ****   * @retval USBH Status
1313:Middlewares/ST/STM32_USB_Host_Library/Core/Src/usbh_core.c ****   */
1314:Middlewares/ST/STM32_USB_Host_Library/Core/Src/usbh_core.c **** USBH_StatusTypeDef USBH_LL_NotifyURBChange(USBH_HandleTypeDef *phost)
1315:Middlewares/ST/STM32_USB_Host_Library/Core/Src/usbh_core.c **** {
 2583              		.loc 1 1315 1 is_stmt 1 view -0
 2584              		.cfi_startproc
 2585              		@ args = 0, pretend = 0, frame = 0
 2586              		@ frame_needed = 0, uses_anonymous_args = 0
 2587              		.loc 1 1315 1 is_stmt 0 view .LVU870
 2588 0000 08B5     		push	{r3, lr}
 2589              	.LCFI26:
 2590              		.cfi_def_cfa_offset 8
 2591              		.cfi_offset 3, -8
 2592              		.cfi_offset 14, -4
1316:Middlewares/ST/STM32_USB_Host_Library/Core/Src/usbh_core.c **** #if (USBH_USE_OS == 1U)
1317:Middlewares/ST/STM32_USB_Host_Library/Core/Src/usbh_core.c ****   USBH_OS_PutMessage(phost, USBH_PORT_EVENT, 0U, 0U);
 2593              		.loc 1 1317 3 is_stmt 1 view .LVU871
 2594 0002 0023     		movs	r3, #0
 2595 0004 1A46     		mov	r2, r3
 2596 0006 0121     		movs	r1, #1
 2597 0008 FFF7FEFF 		bl	USBH_OS_PutMessage
 2598              	.LVL217:
1318:Middlewares/ST/STM32_USB_Host_Library/Core/Src/usbh_core.c **** #endif /* (USBH_USE_OS == 1U) */
1319:Middlewares/ST/STM32_USB_Host_Library/Core/Src/usbh_core.c **** 
1320:Middlewares/ST/STM32_USB_Host_Library/Core/Src/usbh_core.c ****   return USBH_OK;
 2599              		.loc 1 1320 3 view .LVU872
1321:Middlewares/ST/STM32_USB_Host_Library/Core/Src/usbh_core.c **** }
 2600              		.loc 1 1321 1 is_stmt 0 view .LVU873
 2601 000c 0020     		movs	r0, #0
 2602 000e 08BD     		pop	{r3, pc}
 2603              		.cfi_endproc
 2604              	.LFE270:
 2606              		.section	.rodata.str1.4,"aMS",%progbits,1
 2607              		.align	2
 2608              	.LC1:
 2609 0000 55534248 		.ascii	"USBH_Thread\000"
 2609      5F546872 
 2609      65616400 
 2610              		.section	.rodata
 2611              		.align	2
 2612              		.set	.LANCHOR0,. + 0
 2613              	.LC0:
 2614 0000 10000000 		.word	16
 2615 0004 02000000 		.word	2
 2616 0008 00000000 		.word	0
 2617 000c 00000000 		.word	0
 2618              	.LC3:
 2619 0010 00000000 		.word	.LC1
 2620 0014 00000000 		.word	USBH_Process_OS
 2621 0018 0000     		.short	0
 2622 001a 0000     		.space	2
 2623 001c 00000000 		.word	0
 2624 0020 80000000 		.word	128
 2625 0024 00000000 		.word	0
 2626 0028 00000000 		.word	0
 2627              		.text
ARM GAS  C:\Users\moham\AppData\Local\Temp\ccR7RLkT.s 			page 84


 2628              	.Letext0:
 2629              		.file 2 "C:/Program Files (x86)/Arm GNU Toolchain arm-none-eabi/14.3 rel1/arm-none-eabi/include/ma
 2630              		.file 3 "C:/Program Files (x86)/Arm GNU Toolchain arm-none-eabi/14.3 rel1/arm-none-eabi/include/sy
 2631              		.file 4 "Middlewares/Third_Party/FreeRTOS/Source/portable/GCC/ARM_CM4F/portmacro.h"
 2632              		.file 5 "Middlewares/Third_Party/FreeRTOS/Source/include/FreeRTOS.h"
 2633              		.file 6 "Middlewares/Third_Party/FreeRTOS/Source/include/task.h"
 2634              		.file 7 "Middlewares/Third_Party/FreeRTOS/Source/include/queue.h"
 2635              		.file 8 "Middlewares/Third_Party/FreeRTOS/Source/CMSIS_RTOS/cmsis_os.h"
 2636              		.file 9 "Middlewares/ST/STM32_USB_Host_Library/Core/Inc/usbh_def.h"
 2637              		.file 10 "Middlewares/ST/STM32_USB_Host_Library/Core/Inc/usbh_ctlreq.h"
 2638              		.file 11 "Middlewares/ST/STM32_USB_Host_Library/Core/Inc/usbh_pipes.h"
 2639              		.file 12 "Middlewares/ST/STM32_USB_Host_Library/Core/Inc/usbh_core.h"
 2640              		.file 13 "C:/Program Files (x86)/Arm GNU Toolchain arm-none-eabi/14.3 rel1/arm-none-eabi/include/s
 2641              		.file 14 "<built-in>"
ARM GAS  C:\Users\moham\AppData\Local\Temp\ccR7RLkT.s 			page 85


DEFINED SYMBOLS
                            *ABS*:00000000 usbh_core.c
C:\Users\moham\AppData\Local\Temp\ccR7RLkT.s:21     .text.USBH_HandleSof:00000000 $t
C:\Users\moham\AppData\Local\Temp\ccR7RLkT.s:26     .text.USBH_HandleSof:00000000 USBH_HandleSof
C:\Users\moham\AppData\Local\Temp\ccR7RLkT.s:68     .text.DeInitStateMachine:00000000 $t
C:\Users\moham\AppData\Local\Temp\ccR7RLkT.s:73     .text.DeInitStateMachine:00000000 DeInitStateMachine
C:\Users\moham\AppData\Local\Temp\ccR7RLkT.s:203    .text.USBH_Init:00000000 $t
C:\Users\moham\AppData\Local\Temp\ccR7RLkT.s:209    .text.USBH_Init:00000000 USBH_Init
C:\Users\moham\AppData\Local\Temp\ccR7RLkT.s:324    .text.USBH_Init:00000084 $d
C:\Users\moham\AppData\Local\Temp\ccR7RLkT.s:329    .text.USBH_DeInit:00000000 $t
C:\Users\moham\AppData\Local\Temp\ccR7RLkT.s:335    .text.USBH_DeInit:00000000 USBH_DeInit
C:\Users\moham\AppData\Local\Temp\ccR7RLkT.s:402    .text.USBH_RegisterClass:00000000 $t
C:\Users\moham\AppData\Local\Temp\ccR7RLkT.s:408    .text.USBH_RegisterClass:00000000 USBH_RegisterClass
C:\Users\moham\AppData\Local\Temp\ccR7RLkT.s:460    .text.USBH_SelectInterface:00000000 $t
C:\Users\moham\AppData\Local\Temp\ccR7RLkT.s:466    .text.USBH_SelectInterface:00000000 USBH_SelectInterface
C:\Users\moham\AppData\Local\Temp\ccR7RLkT.s:513    .text.USBH_GetActiveClass:00000000 $t
C:\Users\moham\AppData\Local\Temp\ccR7RLkT.s:519    .text.USBH_GetActiveClass:00000000 USBH_GetActiveClass
C:\Users\moham\AppData\Local\Temp\ccR7RLkT.s:537    .text.USBH_FindInterface:00000000 $t
C:\Users\moham\AppData\Local\Temp\ccR7RLkT.s:543    .text.USBH_FindInterface:00000000 USBH_FindInterface
C:\Users\moham\AppData\Local\Temp\ccR7RLkT.s:633    .text.USBH_FindInterfaceIndex:00000000 $t
C:\Users\moham\AppData\Local\Temp\ccR7RLkT.s:639    .text.USBH_FindInterfaceIndex:00000000 USBH_FindInterfaceIndex
C:\Users\moham\AppData\Local\Temp\ccR7RLkT.s:704    .text.USBH_Start:00000000 $t
C:\Users\moham\AppData\Local\Temp\ccR7RLkT.s:710    .text.USBH_Start:00000000 USBH_Start
C:\Users\moham\AppData\Local\Temp\ccR7RLkT.s:743    .text.USBH_Stop:00000000 $t
C:\Users\moham\AppData\Local\Temp\ccR7RLkT.s:749    .text.USBH_Stop:00000000 USBH_Stop
C:\Users\moham\AppData\Local\Temp\ccR7RLkT.s:794    .text.USBH_LL_SetTimer:00000000 $t
C:\Users\moham\AppData\Local\Temp\ccR7RLkT.s:800    .text.USBH_LL_SetTimer:00000000 USBH_LL_SetTimer
C:\Users\moham\AppData\Local\Temp\ccR7RLkT.s:817    .text.USBH_LL_IncTimer:00000000 $t
C:\Users\moham\AppData\Local\Temp\ccR7RLkT.s:823    .text.USBH_LL_IncTimer:00000000 USBH_LL_IncTimer
C:\Users\moham\AppData\Local\Temp\ccR7RLkT.s:851    .text.USBH_LL_PortDisabled:00000000 $t
C:\Users\moham\AppData\Local\Temp\ccR7RLkT.s:857    .text.USBH_LL_PortDisabled:00000000 USBH_LL_PortDisabled
C:\Users\moham\AppData\Local\Temp\ccR7RLkT.s:880    .text.USBH_IsPortEnabled:00000000 $t
C:\Users\moham\AppData\Local\Temp\ccR7RLkT.s:886    .text.USBH_IsPortEnabled:00000000 USBH_IsPortEnabled
C:\Users\moham\AppData\Local\Temp\ccR7RLkT.s:904    .text.USBH_OS_PutMessage:00000000 $t
C:\Users\moham\AppData\Local\Temp\ccR7RLkT.s:910    .text.USBH_OS_PutMessage:00000000 USBH_OS_PutMessage
C:\Users\moham\AppData\Local\Temp\ccR7RLkT.s:963    .text.USBH_ReEnumerate:00000000 $t
C:\Users\moham\AppData\Local\Temp\ccR7RLkT.s:969    .text.USBH_ReEnumerate:00000000 USBH_ReEnumerate
C:\Users\moham\AppData\Local\Temp\ccR7RLkT.s:1022   .text.USBH_HandleEnum:00000000 $t
C:\Users\moham\AppData\Local\Temp\ccR7RLkT.s:1027   .text.USBH_HandleEnum:00000000 USBH_HandleEnum
C:\Users\moham\AppData\Local\Temp\ccR7RLkT.s:1057   .text.USBH_HandleEnum:00000012 $d
C:\Users\moham\AppData\Local\Temp\ccR7RLkT.s:1065   .text.USBH_HandleEnum:00000022 $t
C:\Users\moham\AppData\Local\Temp\ccR7RLkT.s:1684   .text.USBH_Process:00000000 $t
C:\Users\moham\AppData\Local\Temp\ccR7RLkT.s:1690   .text.USBH_Process:00000000 USBH_Process
C:\Users\moham\AppData\Local\Temp\ccR7RLkT.s:1729   .text.USBH_Process:00000020 $d
C:\Users\moham\AppData\Local\Temp\ccR7RLkT.s:1741   .text.USBH_Process:00000038 $t
C:\Users\moham\AppData\Local\Temp\ccR7RLkT.s:2383   .text.USBH_Process_OS:00000000 $t
C:\Users\moham\AppData\Local\Temp\ccR7RLkT.s:2388   .text.USBH_Process_OS:00000000 USBH_Process_OS
C:\Users\moham\AppData\Local\Temp\ccR7RLkT.s:2431   .text.USBH_LL_PortEnabled:00000000 $t
C:\Users\moham\AppData\Local\Temp\ccR7RLkT.s:2437   .text.USBH_LL_PortEnabled:00000000 USBH_LL_PortEnabled
C:\Users\moham\AppData\Local\Temp\ccR7RLkT.s:2466   .text.USBH_LL_Connect:00000000 $t
C:\Users\moham\AppData\Local\Temp\ccR7RLkT.s:2472   .text.USBH_LL_Connect:00000000 USBH_LL_Connect
C:\Users\moham\AppData\Local\Temp\ccR7RLkT.s:2509   .text.USBH_LL_Disconnect:00000000 $t
C:\Users\moham\AppData\Local\Temp\ccR7RLkT.s:2515   .text.USBH_LL_Disconnect:00000000 USBH_LL_Disconnect
C:\Users\moham\AppData\Local\Temp\ccR7RLkT.s:2574   .text.USBH_LL_NotifyURBChange:00000000 $t
C:\Users\moham\AppData\Local\Temp\ccR7RLkT.s:2580   .text.USBH_LL_NotifyURBChange:00000000 USBH_LL_NotifyURBChange
C:\Users\moham\AppData\Local\Temp\ccR7RLkT.s:2607   .rodata.str1.4:00000000 $d
C:\Users\moham\AppData\Local\Temp\ccR7RLkT.s:2611   .rodata:00000000 $d
ARM GAS  C:\Users\moham\AppData\Local\Temp\ccR7RLkT.s 			page 86



UNDEFINED SYMBOLS
memset
osMessageCreate
osThreadCreate
USBH_LL_Init
USBH_LL_Stop
osThreadTerminate
osMessageDelete
USBH_LL_Start
USBH_LL_DriverVBUS
USBH_FreePipe
osMessageWaiting
osMessagePut
USBH_Get_DevDesc
USBH_OpenPipe
USBH_SetAddress
USBH_Delay
USBH_Get_CfgDesc
USBH_Get_StringDesc
USBH_LL_ResetPort
USBH_LL_GetSpeed
USBH_AllocPipe
USBH_SetCfg
USBH_SetFeature
osMessageGet
