ARM GAS  /var/folders/qx/2_175_4n2s19vhvtspjhb3qh0000gn/T//ccX1btdS.s 			page 1


   1              		.cpu cortex-m4
   2              		.arch armv7e-m
   3              		.fpu fpv4-sp-d16
   4              		.eabi_attribute 27, 1
   5              		.eabi_attribute 28, 1
   6              		.eabi_attribute 20, 1
   7              		.eabi_attribute 21, 1
   8              		.eabi_attribute 23, 3
   9              		.eabi_attribute 24, 1
  10              		.eabi_attribute 25, 1
  11              		.eabi_attribute 26, 1
  12              		.eabi_attribute 30, 1
  13              		.eabi_attribute 34, 1
  14              		.eabi_attribute 18, 4
  15              		.file	"lv_cache_entry.c"
  16              		.text
  17              	.Ltext0:
  18              		.cfi_sections	.debug_frame
  19              		.file 1 "Drivers/lvgl/src/misc/cache/lv_cache_entry.c"
  20              		.section	.text.lv_cache_entry_reset_ref,"ax",%progbits
  21              		.align	1
  22              		.global	lv_cache_entry_reset_ref
  23              		.syntax unified
  24              		.thumb
  25              		.thumb_func
  27              	lv_cache_entry_reset_ref:
  28              	.LVL0:
  29              	.LFB2:
   1:Drivers/lvgl/src/misc/cache/lv_cache_entry.c **** /**
   2:Drivers/lvgl/src/misc/cache/lv_cache_entry.c **** * @file lv_cache_entry.c
   3:Drivers/lvgl/src/misc/cache/lv_cache_entry.c **** *
   4:Drivers/lvgl/src/misc/cache/lv_cache_entry.c ****  */
   5:Drivers/lvgl/src/misc/cache/lv_cache_entry.c **** 
   6:Drivers/lvgl/src/misc/cache/lv_cache_entry.c **** /*********************
   7:Drivers/lvgl/src/misc/cache/lv_cache_entry.c ****  *      INCLUDES
   8:Drivers/lvgl/src/misc/cache/lv_cache_entry.c ****  *********************/
   9:Drivers/lvgl/src/misc/cache/lv_cache_entry.c **** #include "lv_cache_entry.h"
  10:Drivers/lvgl/src/misc/cache/lv_cache_entry.c **** #include "../../stdlib/lv_sprintf.h"
  11:Drivers/lvgl/src/misc/cache/lv_cache_entry.c **** #include "../lv_assert.h"
  12:Drivers/lvgl/src/misc/cache/lv_cache_entry.c **** #include "lv_cache_entry_private.h"
  13:Drivers/lvgl/src/misc/cache/lv_cache_entry.c **** 
  14:Drivers/lvgl/src/misc/cache/lv_cache_entry.c **** /*********************
  15:Drivers/lvgl/src/misc/cache/lv_cache_entry.c ****  *      DEFINES
  16:Drivers/lvgl/src/misc/cache/lv_cache_entry.c ****  *********************/
  17:Drivers/lvgl/src/misc/cache/lv_cache_entry.c **** 
  18:Drivers/lvgl/src/misc/cache/lv_cache_entry.c **** /**********************
  19:Drivers/lvgl/src/misc/cache/lv_cache_entry.c ****  *      TYPEDEFS
  20:Drivers/lvgl/src/misc/cache/lv_cache_entry.c ****  **********************/
  21:Drivers/lvgl/src/misc/cache/lv_cache_entry.c **** 
  22:Drivers/lvgl/src/misc/cache/lv_cache_entry.c **** /**********************
  23:Drivers/lvgl/src/misc/cache/lv_cache_entry.c ****  *  STATIC PROTOTYPES
  24:Drivers/lvgl/src/misc/cache/lv_cache_entry.c ****  **********************/
  25:Drivers/lvgl/src/misc/cache/lv_cache_entry.c **** 
  26:Drivers/lvgl/src/misc/cache/lv_cache_entry.c **** /**********************
  27:Drivers/lvgl/src/misc/cache/lv_cache_entry.c ****  *  GLOBAL VARIABLES
  28:Drivers/lvgl/src/misc/cache/lv_cache_entry.c ****  **********************/
  29:Drivers/lvgl/src/misc/cache/lv_cache_entry.c **** 
ARM GAS  /var/folders/qx/2_175_4n2s19vhvtspjhb3qh0000gn/T//ccX1btdS.s 			page 2


  30:Drivers/lvgl/src/misc/cache/lv_cache_entry.c **** /**********************
  31:Drivers/lvgl/src/misc/cache/lv_cache_entry.c ****  *  STATIC VARIABLES
  32:Drivers/lvgl/src/misc/cache/lv_cache_entry.c ****  **********************/
  33:Drivers/lvgl/src/misc/cache/lv_cache_entry.c **** 
  34:Drivers/lvgl/src/misc/cache/lv_cache_entry.c **** /**********************
  35:Drivers/lvgl/src/misc/cache/lv_cache_entry.c ****  *      MACROS
  36:Drivers/lvgl/src/misc/cache/lv_cache_entry.c ****  **********************/
  37:Drivers/lvgl/src/misc/cache/lv_cache_entry.c **** 
  38:Drivers/lvgl/src/misc/cache/lv_cache_entry.c **** /**********************
  39:Drivers/lvgl/src/misc/cache/lv_cache_entry.c ****  *   GLOBAL FUNCTIONS
  40:Drivers/lvgl/src/misc/cache/lv_cache_entry.c ****  **********************/
  41:Drivers/lvgl/src/misc/cache/lv_cache_entry.c **** 
  42:Drivers/lvgl/src/misc/cache/lv_cache_entry.c **** void lv_cache_entry_reset_ref(lv_cache_entry_t * entry)
  43:Drivers/lvgl/src/misc/cache/lv_cache_entry.c **** {
  30              		.loc 1 43 1 view -0
  31              		.cfi_startproc
  32              		@ args = 0, pretend = 0, frame = 0
  33              		@ frame_needed = 0, uses_anonymous_args = 0
  34              		@ link register save eliminated.
  44:Drivers/lvgl/src/misc/cache/lv_cache_entry.c ****     LV_ASSERT_NULL(entry);
  35              		.loc 1 44 5 view .LVU1
  36              		.loc 1 44 5 view .LVU2
  37 0000 10B1     		cbz	r0, .L3
  38              		.loc 1 44 5 view .LVU3
  39              		.loc 1 44 26 view .LVU4
  45:Drivers/lvgl/src/misc/cache/lv_cache_entry.c ****     entry->ref_cnt = 0;
  40              		.loc 1 45 5 view .LVU5
  41              		.loc 1 45 20 is_stmt 0 view .LVU6
  42 0002 0022     		movs	r2, #0
  43 0004 4260     		str	r2, [r0, #4]
  46:Drivers/lvgl/src/misc/cache/lv_cache_entry.c **** }
  44              		.loc 1 46 1 view .LVU7
  45 0006 7047     		bx	lr
  46              	.L3:
  44:Drivers/lvgl/src/misc/cache/lv_cache_entry.c ****     LV_ASSERT_NULL(entry);
  47              		.loc 1 44 5 is_stmt 1 view .LVU8
  44:Drivers/lvgl/src/misc/cache/lv_cache_entry.c ****     LV_ASSERT_NULL(entry);
  48              		.loc 1 44 5 view .LVU9
  44:Drivers/lvgl/src/misc/cache/lv_cache_entry.c ****     LV_ASSERT_NULL(entry);
  49              		.loc 1 44 5 view .LVU10
  44:Drivers/lvgl/src/misc/cache/lv_cache_entry.c ****     LV_ASSERT_NULL(entry);
  50              		.loc 1 44 5 view .LVU11
  44:Drivers/lvgl/src/misc/cache/lv_cache_entry.c ****     LV_ASSERT_NULL(entry);
  51              		.loc 1 44 5 view .LVU12
  52 0008 FEE7     		b	.L3
  53              		.cfi_endproc
  54              	.LFE2:
  56              		.section	.text.lv_cache_entry_inc_ref,"ax",%progbits
  57              		.align	1
  58              		.global	lv_cache_entry_inc_ref
  59              		.syntax unified
  60              		.thumb
  61              		.thumb_func
  63              	lv_cache_entry_inc_ref:
  64              	.LVL1:
  65              	.LFB3:
  47:Drivers/lvgl/src/misc/cache/lv_cache_entry.c **** 
ARM GAS  /var/folders/qx/2_175_4n2s19vhvtspjhb3qh0000gn/T//ccX1btdS.s 			page 3


  48:Drivers/lvgl/src/misc/cache/lv_cache_entry.c **** void lv_cache_entry_inc_ref(lv_cache_entry_t * entry)
  49:Drivers/lvgl/src/misc/cache/lv_cache_entry.c **** {
  66              		.loc 1 49 1 view -0
  67              		.cfi_startproc
  68              		@ args = 0, pretend = 0, frame = 0
  69              		@ frame_needed = 0, uses_anonymous_args = 0
  70              		@ link register save eliminated.
  50:Drivers/lvgl/src/misc/cache/lv_cache_entry.c ****     LV_ASSERT_NULL(entry);
  71              		.loc 1 50 5 view .LVU14
  72              		.loc 1 50 5 view .LVU15
  73 0000 18B1     		cbz	r0, .L6
  74              		.loc 1 50 5 view .LVU16
  75              		.loc 1 50 26 view .LVU17
  51:Drivers/lvgl/src/misc/cache/lv_cache_entry.c ****     entry->ref_cnt++;
  76              		.loc 1 51 5 view .LVU18
  77              		.loc 1 51 10 is_stmt 0 view .LVU19
  78 0002 4368     		ldr	r3, [r0, #4]
  79              		.loc 1 51 19 view .LVU20
  80 0004 0133     		adds	r3, r3, #1
  81 0006 4360     		str	r3, [r0, #4]
  52:Drivers/lvgl/src/misc/cache/lv_cache_entry.c **** }
  82              		.loc 1 52 1 view .LVU21
  83 0008 7047     		bx	lr
  84              	.L6:
  50:Drivers/lvgl/src/misc/cache/lv_cache_entry.c ****     LV_ASSERT_NULL(entry);
  85              		.loc 1 50 5 is_stmt 1 view .LVU22
  50:Drivers/lvgl/src/misc/cache/lv_cache_entry.c ****     LV_ASSERT_NULL(entry);
  86              		.loc 1 50 5 view .LVU23
  50:Drivers/lvgl/src/misc/cache/lv_cache_entry.c ****     LV_ASSERT_NULL(entry);
  87              		.loc 1 50 5 view .LVU24
  50:Drivers/lvgl/src/misc/cache/lv_cache_entry.c ****     LV_ASSERT_NULL(entry);
  88              		.loc 1 50 5 view .LVU25
  50:Drivers/lvgl/src/misc/cache/lv_cache_entry.c ****     LV_ASSERT_NULL(entry);
  89              		.loc 1 50 5 view .LVU26
  90 000a FEE7     		b	.L6
  91              		.cfi_endproc
  92              	.LFE3:
  94              		.section	.text.lv_cache_entry_dec_ref,"ax",%progbits
  95              		.align	1
  96              		.global	lv_cache_entry_dec_ref
  97              		.syntax unified
  98              		.thumb
  99              		.thumb_func
 101              	lv_cache_entry_dec_ref:
 102              	.LVL2:
 103              	.LFB4:
  53:Drivers/lvgl/src/misc/cache/lv_cache_entry.c **** 
  54:Drivers/lvgl/src/misc/cache/lv_cache_entry.c **** void lv_cache_entry_dec_ref(lv_cache_entry_t * entry)
  55:Drivers/lvgl/src/misc/cache/lv_cache_entry.c **** {
 104              		.loc 1 55 1 view -0
 105              		.cfi_startproc
 106              		@ args = 0, pretend = 0, frame = 0
 107              		@ frame_needed = 0, uses_anonymous_args = 0
 108              		@ link register save eliminated.
  56:Drivers/lvgl/src/misc/cache/lv_cache_entry.c ****     LV_ASSERT_NULL(entry);
 109              		.loc 1 56 5 view .LVU28
 110              		.loc 1 56 5 view .LVU29
ARM GAS  /var/folders/qx/2_175_4n2s19vhvtspjhb3qh0000gn/T//ccX1btdS.s 			page 4


 111 0000 28B1     		cbz	r0, .L9
 112              		.loc 1 56 5 view .LVU30
 113              		.loc 1 56 26 view .LVU31
  57:Drivers/lvgl/src/misc/cache/lv_cache_entry.c ****     entry->ref_cnt--;
 114              		.loc 1 57 5 view .LVU32
 115              		.loc 1 57 10 is_stmt 0 view .LVU33
 116 0002 4368     		ldr	r3, [r0, #4]
 117              		.loc 1 57 19 view .LVU34
 118 0004 013B     		subs	r3, r3, #1
 119 0006 4360     		str	r3, [r0, #4]
  58:Drivers/lvgl/src/misc/cache/lv_cache_entry.c ****     if(entry->ref_cnt < 0) {
 120              		.loc 1 58 5 is_stmt 1 view .LVU35
 121              		.loc 1 58 7 is_stmt 0 view .LVU36
 122 0008 002B     		cmp	r3, #0
 123 000a 01DB     		blt	.L11
 124              	.L7:
  59:Drivers/lvgl/src/misc/cache/lv_cache_entry.c ****         LV_LOG_WARN("ref_cnt(%" LV_PRIu32 ") < 0", entry->ref_cnt);
  60:Drivers/lvgl/src/misc/cache/lv_cache_entry.c ****         entry->ref_cnt = 0;
  61:Drivers/lvgl/src/misc/cache/lv_cache_entry.c ****     }
  62:Drivers/lvgl/src/misc/cache/lv_cache_entry.c **** }
 125              		.loc 1 62 1 view .LVU37
 126 000c 7047     		bx	lr
 127              	.L9:
  56:Drivers/lvgl/src/misc/cache/lv_cache_entry.c ****     entry->ref_cnt--;
 128              		.loc 1 56 5 is_stmt 1 view .LVU38
  56:Drivers/lvgl/src/misc/cache/lv_cache_entry.c ****     entry->ref_cnt--;
 129              		.loc 1 56 5 view .LVU39
  56:Drivers/lvgl/src/misc/cache/lv_cache_entry.c ****     entry->ref_cnt--;
 130              		.loc 1 56 5 view .LVU40
  56:Drivers/lvgl/src/misc/cache/lv_cache_entry.c ****     entry->ref_cnt--;
 131              		.loc 1 56 5 view .LVU41
  56:Drivers/lvgl/src/misc/cache/lv_cache_entry.c ****     entry->ref_cnt--;
 132              		.loc 1 56 5 view .LVU42
 133 000e FEE7     		b	.L9
 134              	.L11:
  59:Drivers/lvgl/src/misc/cache/lv_cache_entry.c ****         LV_LOG_WARN("ref_cnt(%" LV_PRIu32 ") < 0", entry->ref_cnt);
 135              		.loc 1 59 9 view .LVU43
  59:Drivers/lvgl/src/misc/cache/lv_cache_entry.c ****         LV_LOG_WARN("ref_cnt(%" LV_PRIu32 ") < 0", entry->ref_cnt);
 136              		.loc 1 59 9 view .LVU44
  59:Drivers/lvgl/src/misc/cache/lv_cache_entry.c ****         LV_LOG_WARN("ref_cnt(%" LV_PRIu32 ") < 0", entry->ref_cnt);
 137              		.loc 1 59 9 view .LVU45
  60:Drivers/lvgl/src/misc/cache/lv_cache_entry.c ****     }
 138              		.loc 1 60 9 view .LVU46
  60:Drivers/lvgl/src/misc/cache/lv_cache_entry.c ****     }
 139              		.loc 1 60 24 is_stmt 0 view .LVU47
 140 0010 0023     		movs	r3, #0
 141 0012 4360     		str	r3, [r0, #4]
 142              		.loc 1 62 1 view .LVU48
 143 0014 FAE7     		b	.L7
 144              		.cfi_endproc
 145              	.LFE4:
 147              		.section	.text.lv_cache_entry_get_ref,"ax",%progbits
 148              		.align	1
 149              		.global	lv_cache_entry_get_ref
 150              		.syntax unified
 151              		.thumb
 152              		.thumb_func
ARM GAS  /var/folders/qx/2_175_4n2s19vhvtspjhb3qh0000gn/T//ccX1btdS.s 			page 5


 154              	lv_cache_entry_get_ref:
 155              	.LVL3:
 156              	.LFB5:
  63:Drivers/lvgl/src/misc/cache/lv_cache_entry.c **** 
  64:Drivers/lvgl/src/misc/cache/lv_cache_entry.c **** int32_t lv_cache_entry_get_ref(lv_cache_entry_t * entry)
  65:Drivers/lvgl/src/misc/cache/lv_cache_entry.c **** {
 157              		.loc 1 65 1 is_stmt 1 view -0
 158              		.cfi_startproc
 159              		@ args = 0, pretend = 0, frame = 0
 160              		@ frame_needed = 0, uses_anonymous_args = 0
 161              		@ link register save eliminated.
  66:Drivers/lvgl/src/misc/cache/lv_cache_entry.c ****     LV_ASSERT_NULL(entry);
 162              		.loc 1 66 5 view .LVU50
 163              		.loc 1 66 5 view .LVU51
 164 0000 08B1     		cbz	r0, .L14
 165              		.loc 1 66 5 view .LVU52
 166              		.loc 1 66 26 view .LVU53
  67:Drivers/lvgl/src/misc/cache/lv_cache_entry.c ****     return entry->ref_cnt;
 167              		.loc 1 67 5 view .LVU54
  68:Drivers/lvgl/src/misc/cache/lv_cache_entry.c **** }
 168              		.loc 1 68 1 is_stmt 0 view .LVU55
 169 0002 4068     		ldr	r0, [r0, #4]
 170              	.LVL4:
 171              		.loc 1 68 1 view .LVU56
 172 0004 7047     		bx	lr
 173              	.LVL5:
 174              	.L14:
  66:Drivers/lvgl/src/misc/cache/lv_cache_entry.c ****     LV_ASSERT_NULL(entry);
 175              		.loc 1 66 5 is_stmt 1 view .LVU57
  66:Drivers/lvgl/src/misc/cache/lv_cache_entry.c ****     LV_ASSERT_NULL(entry);
 176              		.loc 1 66 5 view .LVU58
  66:Drivers/lvgl/src/misc/cache/lv_cache_entry.c ****     LV_ASSERT_NULL(entry);
 177              		.loc 1 66 5 view .LVU59
  66:Drivers/lvgl/src/misc/cache/lv_cache_entry.c ****     LV_ASSERT_NULL(entry);
 178              		.loc 1 66 5 view .LVU60
  66:Drivers/lvgl/src/misc/cache/lv_cache_entry.c ****     LV_ASSERT_NULL(entry);
 179              		.loc 1 66 5 view .LVU61
 180 0006 FEE7     		b	.L14
 181              		.cfi_endproc
 182              	.LFE5:
 184              		.section	.text.lv_cache_entry_get_node_size,"ax",%progbits
 185              		.align	1
 186              		.global	lv_cache_entry_get_node_size
 187              		.syntax unified
 188              		.thumb
 189              		.thumb_func
 191              	lv_cache_entry_get_node_size:
 192              	.LVL6:
 193              	.LFB6:
  69:Drivers/lvgl/src/misc/cache/lv_cache_entry.c **** 
  70:Drivers/lvgl/src/misc/cache/lv_cache_entry.c **** uint32_t lv_cache_entry_get_node_size(lv_cache_entry_t * entry)
  71:Drivers/lvgl/src/misc/cache/lv_cache_entry.c **** {
 194              		.loc 1 71 1 view -0
 195              		.cfi_startproc
 196              		@ args = 0, pretend = 0, frame = 0
 197              		@ frame_needed = 0, uses_anonymous_args = 0
 198              		@ link register save eliminated.
ARM GAS  /var/folders/qx/2_175_4n2s19vhvtspjhb3qh0000gn/T//ccX1btdS.s 			page 6


  72:Drivers/lvgl/src/misc/cache/lv_cache_entry.c ****     return entry->node_size;
 199              		.loc 1 72 5 view .LVU63
  73:Drivers/lvgl/src/misc/cache/lv_cache_entry.c **** }
 200              		.loc 1 73 1 is_stmt 0 view .LVU64
 201 0000 8068     		ldr	r0, [r0, #8]
 202              	.LVL7:
 203              		.loc 1 73 1 view .LVU65
 204 0002 7047     		bx	lr
 205              		.cfi_endproc
 206              	.LFE6:
 208              		.section	.text.lv_cache_entry_set_node_size,"ax",%progbits
 209              		.align	1
 210              		.global	lv_cache_entry_set_node_size
 211              		.syntax unified
 212              		.thumb
 213              		.thumb_func
 215              	lv_cache_entry_set_node_size:
 216              	.LVL8:
 217              	.LFB7:
  74:Drivers/lvgl/src/misc/cache/lv_cache_entry.c **** 
  75:Drivers/lvgl/src/misc/cache/lv_cache_entry.c **** void lv_cache_entry_set_node_size(lv_cache_entry_t * entry, uint32_t node_size)
  76:Drivers/lvgl/src/misc/cache/lv_cache_entry.c **** {
 218              		.loc 1 76 1 is_stmt 1 view -0
 219              		.cfi_startproc
 220              		@ args = 0, pretend = 0, frame = 0
 221              		@ frame_needed = 0, uses_anonymous_args = 0
 222              		@ link register save eliminated.
  77:Drivers/lvgl/src/misc/cache/lv_cache_entry.c ****     LV_ASSERT_NULL(entry);
 223              		.loc 1 77 5 view .LVU67
 224              		.loc 1 77 5 view .LVU68
 225 0000 08B1     		cbz	r0, .L18
 226              		.loc 1 77 5 view .LVU69
 227              		.loc 1 77 26 view .LVU70
  78:Drivers/lvgl/src/misc/cache/lv_cache_entry.c ****     entry->node_size = node_size;
 228              		.loc 1 78 5 view .LVU71
 229              		.loc 1 78 22 is_stmt 0 view .LVU72
 230 0002 8160     		str	r1, [r0, #8]
  79:Drivers/lvgl/src/misc/cache/lv_cache_entry.c **** }
 231              		.loc 1 79 1 view .LVU73
 232 0004 7047     		bx	lr
 233              	.L18:
  77:Drivers/lvgl/src/misc/cache/lv_cache_entry.c ****     LV_ASSERT_NULL(entry);
 234              		.loc 1 77 5 is_stmt 1 view .LVU74
  77:Drivers/lvgl/src/misc/cache/lv_cache_entry.c ****     LV_ASSERT_NULL(entry);
 235              		.loc 1 77 5 view .LVU75
  77:Drivers/lvgl/src/misc/cache/lv_cache_entry.c ****     LV_ASSERT_NULL(entry);
 236              		.loc 1 77 5 view .LVU76
  77:Drivers/lvgl/src/misc/cache/lv_cache_entry.c ****     LV_ASSERT_NULL(entry);
 237              		.loc 1 77 5 view .LVU77
  77:Drivers/lvgl/src/misc/cache/lv_cache_entry.c ****     LV_ASSERT_NULL(entry);
 238              		.loc 1 77 5 view .LVU78
 239 0006 FEE7     		b	.L18
 240              		.cfi_endproc
 241              	.LFE7:
 243              		.section	.text.lv_cache_entry_is_invalid,"ax",%progbits
 244              		.align	1
 245              		.global	lv_cache_entry_is_invalid
ARM GAS  /var/folders/qx/2_175_4n2s19vhvtspjhb3qh0000gn/T//ccX1btdS.s 			page 7


 246              		.syntax unified
 247              		.thumb
 248              		.thumb_func
 250              	lv_cache_entry_is_invalid:
 251              	.LVL9:
 252              	.LFB8:
  80:Drivers/lvgl/src/misc/cache/lv_cache_entry.c **** 
  81:Drivers/lvgl/src/misc/cache/lv_cache_entry.c **** bool lv_cache_entry_is_invalid(lv_cache_entry_t * entry)
  82:Drivers/lvgl/src/misc/cache/lv_cache_entry.c **** {
 253              		.loc 1 82 1 view -0
 254              		.cfi_startproc
 255              		@ args = 0, pretend = 0, frame = 0
 256              		@ frame_needed = 0, uses_anonymous_args = 0
 257              		@ link register save eliminated.
  83:Drivers/lvgl/src/misc/cache/lv_cache_entry.c ****     LV_ASSERT_NULL(entry);
 258              		.loc 1 83 5 view .LVU80
 259              		.loc 1 83 5 view .LVU81
 260 0000 18B1     		cbz	r0, .L21
 261              		.loc 1 83 5 view .LVU82
 262              		.loc 1 83 26 view .LVU83
  84:Drivers/lvgl/src/misc/cache/lv_cache_entry.c ****     return entry->flags & LV_CACHE_ENTRY_FLAG_INVALID;
 263              		.loc 1 84 5 view .LVU84
 264              		.loc 1 84 17 is_stmt 0 view .LVU85
 265 0002 007B     		ldrb	r0, [r0, #12]	@ zero_extendqisi2
 266              	.LVL10:
  85:Drivers/lvgl/src/misc/cache/lv_cache_entry.c **** }
 267              		.loc 1 85 1 view .LVU86
 268 0004 00F00100 		and	r0, r0, #1
 269 0008 7047     		bx	lr
 270              	.LVL11:
 271              	.L21:
  83:Drivers/lvgl/src/misc/cache/lv_cache_entry.c ****     LV_ASSERT_NULL(entry);
 272              		.loc 1 83 5 is_stmt 1 view .LVU87
  83:Drivers/lvgl/src/misc/cache/lv_cache_entry.c ****     LV_ASSERT_NULL(entry);
 273              		.loc 1 83 5 view .LVU88
  83:Drivers/lvgl/src/misc/cache/lv_cache_entry.c ****     LV_ASSERT_NULL(entry);
 274              		.loc 1 83 5 view .LVU89
  83:Drivers/lvgl/src/misc/cache/lv_cache_entry.c ****     LV_ASSERT_NULL(entry);
 275              		.loc 1 83 5 view .LVU90
  83:Drivers/lvgl/src/misc/cache/lv_cache_entry.c ****     LV_ASSERT_NULL(entry);
 276              		.loc 1 83 5 view .LVU91
 277 000a FEE7     		b	.L21
 278              		.cfi_endproc
 279              	.LFE8:
 281              		.section	.text.lv_cache_entry_get_data,"ax",%progbits
 282              		.align	1
 283              		.global	lv_cache_entry_get_data
 284              		.syntax unified
 285              		.thumb
 286              		.thumb_func
 288              	lv_cache_entry_get_data:
 289              	.LVL12:
 290              	.LFB9:
  86:Drivers/lvgl/src/misc/cache/lv_cache_entry.c **** 
  87:Drivers/lvgl/src/misc/cache/lv_cache_entry.c **** void * lv_cache_entry_get_data(lv_cache_entry_t * entry)
  88:Drivers/lvgl/src/misc/cache/lv_cache_entry.c **** {
 291              		.loc 1 88 1 view -0
ARM GAS  /var/folders/qx/2_175_4n2s19vhvtspjhb3qh0000gn/T//ccX1btdS.s 			page 8


 292              		.cfi_startproc
 293              		@ args = 0, pretend = 0, frame = 0
 294              		@ frame_needed = 0, uses_anonymous_args = 0
 295              		@ link register save eliminated.
  89:Drivers/lvgl/src/misc/cache/lv_cache_entry.c ****     LV_ASSERT_NULL(entry);
 296              		.loc 1 89 5 view .LVU93
 297              		.loc 1 89 5 view .LVU94
 298 0000 0346     		mov	r3, r0
 299 0002 10B1     		cbz	r0, .L24
 300              		.loc 1 89 5 view .LVU95
 301              		.loc 1 89 26 view .LVU96
  90:Drivers/lvgl/src/misc/cache/lv_cache_entry.c ****     return (uint8_t *)entry - entry->node_size;
 302              		.loc 1 90 5 view .LVU97
 303              		.loc 1 90 36 is_stmt 0 view .LVU98
 304 0004 8068     		ldr	r0, [r0, #8]
 305              	.LVL13:
  91:Drivers/lvgl/src/misc/cache/lv_cache_entry.c **** }
 306              		.loc 1 91 1 view .LVU99
 307 0006 181A     		subs	r0, r3, r0
 308 0008 7047     		bx	lr
 309              	.LVL14:
 310              	.L24:
  89:Drivers/lvgl/src/misc/cache/lv_cache_entry.c ****     LV_ASSERT_NULL(entry);
 311              		.loc 1 89 5 is_stmt 1 view .LVU100
  89:Drivers/lvgl/src/misc/cache/lv_cache_entry.c ****     LV_ASSERT_NULL(entry);
 312              		.loc 1 89 5 view .LVU101
  89:Drivers/lvgl/src/misc/cache/lv_cache_entry.c ****     LV_ASSERT_NULL(entry);
 313              		.loc 1 89 5 view .LVU102
  89:Drivers/lvgl/src/misc/cache/lv_cache_entry.c ****     LV_ASSERT_NULL(entry);
 314              		.loc 1 89 5 view .LVU103
  89:Drivers/lvgl/src/misc/cache/lv_cache_entry.c ****     LV_ASSERT_NULL(entry);
 315              		.loc 1 89 5 view .LVU104
 316 000a FEE7     		b	.L24
 317              		.cfi_endproc
 318              	.LFE9:
 320              		.section	.text.lv_cache_entry_acquire_data,"ax",%progbits
 321              		.align	1
 322              		.global	lv_cache_entry_acquire_data
 323              		.syntax unified
 324              		.thumb
 325              		.thumb_func
 327              	lv_cache_entry_acquire_data:
 328              	.LVL15:
 329              	.LFB10:
  92:Drivers/lvgl/src/misc/cache/lv_cache_entry.c **** 
  93:Drivers/lvgl/src/misc/cache/lv_cache_entry.c **** void * lv_cache_entry_acquire_data(lv_cache_entry_t * entry)
  94:Drivers/lvgl/src/misc/cache/lv_cache_entry.c **** {
 330              		.loc 1 94 1 view -0
 331              		.cfi_startproc
 332              		@ args = 0, pretend = 0, frame = 0
 333              		@ frame_needed = 0, uses_anonymous_args = 0
  95:Drivers/lvgl/src/misc/cache/lv_cache_entry.c ****     LV_ASSERT_NULL(entry);
 334              		.loc 1 95 5 view .LVU106
 335              		.loc 1 95 5 view .LVU107
 336 0000 38B1     		cbz	r0, .L27
  94:Drivers/lvgl/src/misc/cache/lv_cache_entry.c ****     LV_ASSERT_NULL(entry);
 337              		.loc 1 94 1 is_stmt 0 view .LVU108
ARM GAS  /var/folders/qx/2_175_4n2s19vhvtspjhb3qh0000gn/T//ccX1btdS.s 			page 9


 338 0002 10B5     		push	{r4, lr}
 339              	.LCFI0:
 340              		.cfi_def_cfa_offset 8
 341              		.cfi_offset 4, -8
 342              		.cfi_offset 14, -4
 343 0004 0446     		mov	r4, r0
 344              		.loc 1 95 5 is_stmt 1 view .LVU109
 345              		.loc 1 95 26 view .LVU110
  96:Drivers/lvgl/src/misc/cache/lv_cache_entry.c **** 
  97:Drivers/lvgl/src/misc/cache/lv_cache_entry.c ****     lv_cache_entry_inc_ref(entry);
 346              		.loc 1 97 5 view .LVU111
 347 0006 FFF7FEFF 		bl	lv_cache_entry_inc_ref
 348              	.LVL16:
  98:Drivers/lvgl/src/misc/cache/lv_cache_entry.c ****     return lv_cache_entry_get_data(entry);
 349              		.loc 1 98 5 view .LVU112
 350              		.loc 1 98 12 is_stmt 0 view .LVU113
 351 000a 2046     		mov	r0, r4
 352 000c FFF7FEFF 		bl	lv_cache_entry_get_data
 353              	.LVL17:
  99:Drivers/lvgl/src/misc/cache/lv_cache_entry.c **** }
 354              		.loc 1 99 1 view .LVU114
 355 0010 10BD     		pop	{r4, pc}
 356              	.LVL18:
 357              	.L27:
 358              	.LCFI1:
 359              		.cfi_def_cfa_offset 0
 360              		.cfi_restore 4
 361              		.cfi_restore 14
  95:Drivers/lvgl/src/misc/cache/lv_cache_entry.c **** 
 362              		.loc 1 95 5 is_stmt 1 view .LVU115
  95:Drivers/lvgl/src/misc/cache/lv_cache_entry.c **** 
 363              		.loc 1 95 5 view .LVU116
  95:Drivers/lvgl/src/misc/cache/lv_cache_entry.c **** 
 364              		.loc 1 95 5 view .LVU117
  95:Drivers/lvgl/src/misc/cache/lv_cache_entry.c **** 
 365              		.loc 1 95 5 view .LVU118
  95:Drivers/lvgl/src/misc/cache/lv_cache_entry.c **** 
 366              		.loc 1 95 5 view .LVU119
 367 0012 FEE7     		b	.L27
 368              		.cfi_endproc
 369              	.LFE10:
 371              		.section	.text.lv_cache_entry_release_data,"ax",%progbits
 372              		.align	1
 373              		.global	lv_cache_entry_release_data
 374              		.syntax unified
 375              		.thumb
 376              		.thumb_func
 378              	lv_cache_entry_release_data:
 379              	.LVL19:
 380              	.LFB11:
 100:Drivers/lvgl/src/misc/cache/lv_cache_entry.c **** 
 101:Drivers/lvgl/src/misc/cache/lv_cache_entry.c **** void lv_cache_entry_release_data(lv_cache_entry_t * entry, void * user_data)
 102:Drivers/lvgl/src/misc/cache/lv_cache_entry.c **** {
 381              		.loc 1 102 1 view -0
 382              		.cfi_startproc
 383              		@ args = 0, pretend = 0, frame = 0
 384              		@ frame_needed = 0, uses_anonymous_args = 0
ARM GAS  /var/folders/qx/2_175_4n2s19vhvtspjhb3qh0000gn/T//ccX1btdS.s 			page 10


 103:Drivers/lvgl/src/misc/cache/lv_cache_entry.c ****     LV_UNUSED(user_data);
 385              		.loc 1 103 5 view .LVU121
 104:Drivers/lvgl/src/misc/cache/lv_cache_entry.c **** 
 105:Drivers/lvgl/src/misc/cache/lv_cache_entry.c ****     LV_ASSERT_NULL(entry);
 386              		.loc 1 105 5 view .LVU122
 387              		.loc 1 105 5 view .LVU123
 388 0000 28B1     		cbz	r0, .L32
 102:Drivers/lvgl/src/misc/cache/lv_cache_entry.c ****     LV_UNUSED(user_data);
 389              		.loc 1 102 1 is_stmt 0 view .LVU124
 390 0002 10B5     		push	{r4, lr}
 391              	.LCFI2:
 392              		.cfi_def_cfa_offset 8
 393              		.cfi_offset 4, -8
 394              		.cfi_offset 14, -4
 395 0004 0446     		mov	r4, r0
 396              		.loc 1 105 5 is_stmt 1 view .LVU125
 397              		.loc 1 105 26 view .LVU126
 106:Drivers/lvgl/src/misc/cache/lv_cache_entry.c ****     if(lv_cache_entry_get_ref(entry) == 0) {
 398              		.loc 1 106 5 view .LVU127
 399              		.loc 1 106 8 is_stmt 0 view .LVU128
 400 0006 FFF7FEFF 		bl	lv_cache_entry_get_ref
 401              	.LVL20:
 402              		.loc 1 106 7 discriminator 1 view .LVU129
 403 000a 08B9     		cbnz	r0, .L36
 404              	.L30:
 107:Drivers/lvgl/src/misc/cache/lv_cache_entry.c ****         LV_LOG_ERROR("ref_cnt(%" LV_PRIu32 ") == 0", entry->ref_cnt);
 108:Drivers/lvgl/src/misc/cache/lv_cache_entry.c ****         return;
 109:Drivers/lvgl/src/misc/cache/lv_cache_entry.c ****     }
 110:Drivers/lvgl/src/misc/cache/lv_cache_entry.c **** 
 111:Drivers/lvgl/src/misc/cache/lv_cache_entry.c ****     lv_cache_entry_dec_ref(entry);
 112:Drivers/lvgl/src/misc/cache/lv_cache_entry.c **** }
 405              		.loc 1 112 1 view .LVU130
 406 000c 10BD     		pop	{r4, pc}
 407              	.LVL21:
 408              	.L32:
 409              	.LCFI3:
 410              		.cfi_def_cfa_offset 0
 411              		.cfi_restore 4
 412              		.cfi_restore 14
 105:Drivers/lvgl/src/misc/cache/lv_cache_entry.c ****     if(lv_cache_entry_get_ref(entry) == 0) {
 413              		.loc 1 105 5 is_stmt 1 view .LVU131
 105:Drivers/lvgl/src/misc/cache/lv_cache_entry.c ****     if(lv_cache_entry_get_ref(entry) == 0) {
 414              		.loc 1 105 5 view .LVU132
 105:Drivers/lvgl/src/misc/cache/lv_cache_entry.c ****     if(lv_cache_entry_get_ref(entry) == 0) {
 415              		.loc 1 105 5 view .LVU133
 105:Drivers/lvgl/src/misc/cache/lv_cache_entry.c ****     if(lv_cache_entry_get_ref(entry) == 0) {
 416              		.loc 1 105 5 view .LVU134
 105:Drivers/lvgl/src/misc/cache/lv_cache_entry.c ****     if(lv_cache_entry_get_ref(entry) == 0) {
 417              		.loc 1 105 5 view .LVU135
 418 000e FEE7     		b	.L32
 419              	.LVL22:
 420              	.L36:
 421              	.LCFI4:
 422              		.cfi_def_cfa_offset 8
 423              		.cfi_offset 4, -8
 424              		.cfi_offset 14, -4
 111:Drivers/lvgl/src/misc/cache/lv_cache_entry.c **** }
ARM GAS  /var/folders/qx/2_175_4n2s19vhvtspjhb3qh0000gn/T//ccX1btdS.s 			page 11


 425              		.loc 1 111 5 view .LVU136
 426 0010 2046     		mov	r0, r4
 427 0012 FFF7FEFF 		bl	lv_cache_entry_dec_ref
 428              	.LVL23:
 429 0016 F9E7     		b	.L30
 430              		.cfi_endproc
 431              	.LFE11:
 433              		.section	.text.lv_cache_entry_get_entry,"ax",%progbits
 434              		.align	1
 435              		.global	lv_cache_entry_get_entry
 436              		.syntax unified
 437              		.thumb
 438              		.thumb_func
 440              	lv_cache_entry_get_entry:
 441              	.LVL24:
 442              	.LFB12:
 113:Drivers/lvgl/src/misc/cache/lv_cache_entry.c **** 
 114:Drivers/lvgl/src/misc/cache/lv_cache_entry.c **** lv_cache_entry_t * lv_cache_entry_get_entry(void * data, const uint32_t node_size)
 115:Drivers/lvgl/src/misc/cache/lv_cache_entry.c **** {
 443              		.loc 1 115 1 view -0
 444              		.cfi_startproc
 445              		@ args = 0, pretend = 0, frame = 0
 446              		@ frame_needed = 0, uses_anonymous_args = 0
 447              		@ link register save eliminated.
 116:Drivers/lvgl/src/misc/cache/lv_cache_entry.c ****     LV_ASSERT_NULL(data);
 448              		.loc 1 116 5 view .LVU138
 449              		.loc 1 116 5 view .LVU139
 450 0000 08B1     		cbz	r0, .L39
 451              		.loc 1 116 5 view .LVU140
 452              		.loc 1 116 25 view .LVU141
 117:Drivers/lvgl/src/misc/cache/lv_cache_entry.c ****     return (lv_cache_entry_t *)((uint8_t *)data + node_size);
 453              		.loc 1 117 5 view .LVU142
 118:Drivers/lvgl/src/misc/cache/lv_cache_entry.c **** }
 454              		.loc 1 118 1 is_stmt 0 view .LVU143
 455 0002 0844     		add	r0, r0, r1
 456              	.LVL25:
 457              		.loc 1 118 1 view .LVU144
 458 0004 7047     		bx	lr
 459              	.LVL26:
 460              	.L39:
 116:Drivers/lvgl/src/misc/cache/lv_cache_entry.c ****     LV_ASSERT_NULL(data);
 461              		.loc 1 116 5 is_stmt 1 view .LVU145
 116:Drivers/lvgl/src/misc/cache/lv_cache_entry.c ****     LV_ASSERT_NULL(data);
 462              		.loc 1 116 5 view .LVU146
 116:Drivers/lvgl/src/misc/cache/lv_cache_entry.c ****     LV_ASSERT_NULL(data);
 463              		.loc 1 116 5 view .LVU147
 116:Drivers/lvgl/src/misc/cache/lv_cache_entry.c ****     LV_ASSERT_NULL(data);
 464              		.loc 1 116 5 view .LVU148
 116:Drivers/lvgl/src/misc/cache/lv_cache_entry.c ****     LV_ASSERT_NULL(data);
 465              		.loc 1 116 5 view .LVU149
 466 0006 FEE7     		b	.L39
 467              		.cfi_endproc
 468              	.LFE12:
 470              		.section	.text.lv_cache_entry_set_cache,"ax",%progbits
 471              		.align	1
 472              		.global	lv_cache_entry_set_cache
 473              		.syntax unified
ARM GAS  /var/folders/qx/2_175_4n2s19vhvtspjhb3qh0000gn/T//ccX1btdS.s 			page 12


 474              		.thumb
 475              		.thumb_func
 477              	lv_cache_entry_set_cache:
 478              	.LVL27:
 479              	.LFB13:
 119:Drivers/lvgl/src/misc/cache/lv_cache_entry.c **** 
 120:Drivers/lvgl/src/misc/cache/lv_cache_entry.c **** void lv_cache_entry_set_cache(lv_cache_entry_t * entry, const lv_cache_t * cache)
 121:Drivers/lvgl/src/misc/cache/lv_cache_entry.c **** {
 480              		.loc 1 121 1 view -0
 481              		.cfi_startproc
 482              		@ args = 0, pretend = 0, frame = 0
 483              		@ frame_needed = 0, uses_anonymous_args = 0
 484              		@ link register save eliminated.
 122:Drivers/lvgl/src/misc/cache/lv_cache_entry.c ****     LV_ASSERT_NULL(entry);
 485              		.loc 1 122 5 view .LVU151
 486              		.loc 1 122 5 view .LVU152
 487 0000 08B1     		cbz	r0, .L42
 488              		.loc 1 122 5 view .LVU153
 489              		.loc 1 122 26 view .LVU154
 123:Drivers/lvgl/src/misc/cache/lv_cache_entry.c ****     entry->cache = cache;
 490              		.loc 1 123 5 view .LVU155
 491              		.loc 1 123 18 is_stmt 0 view .LVU156
 492 0002 0160     		str	r1, [r0]
 124:Drivers/lvgl/src/misc/cache/lv_cache_entry.c **** }
 493              		.loc 1 124 1 view .LVU157
 494 0004 7047     		bx	lr
 495              	.L42:
 122:Drivers/lvgl/src/misc/cache/lv_cache_entry.c ****     LV_ASSERT_NULL(entry);
 496              		.loc 1 122 5 is_stmt 1 view .LVU158
 122:Drivers/lvgl/src/misc/cache/lv_cache_entry.c ****     LV_ASSERT_NULL(entry);
 497              		.loc 1 122 5 view .LVU159
 122:Drivers/lvgl/src/misc/cache/lv_cache_entry.c ****     LV_ASSERT_NULL(entry);
 498              		.loc 1 122 5 view .LVU160
 122:Drivers/lvgl/src/misc/cache/lv_cache_entry.c ****     LV_ASSERT_NULL(entry);
 499              		.loc 1 122 5 view .LVU161
 122:Drivers/lvgl/src/misc/cache/lv_cache_entry.c ****     LV_ASSERT_NULL(entry);
 500              		.loc 1 122 5 view .LVU162
 501 0006 FEE7     		b	.L42
 502              		.cfi_endproc
 503              	.LFE13:
 505              		.section	.text.lv_cache_entry_get_cache,"ax",%progbits
 506              		.align	1
 507              		.global	lv_cache_entry_get_cache
 508              		.syntax unified
 509              		.thumb
 510              		.thumb_func
 512              	lv_cache_entry_get_cache:
 513              	.LVL28:
 514              	.LFB14:
 125:Drivers/lvgl/src/misc/cache/lv_cache_entry.c **** 
 126:Drivers/lvgl/src/misc/cache/lv_cache_entry.c **** const lv_cache_t * lv_cache_entry_get_cache(const lv_cache_entry_t * entry)
 127:Drivers/lvgl/src/misc/cache/lv_cache_entry.c **** {
 515              		.loc 1 127 1 view -0
 516              		.cfi_startproc
 517              		@ args = 0, pretend = 0, frame = 0
 518              		@ frame_needed = 0, uses_anonymous_args = 0
 519              		@ link register save eliminated.
ARM GAS  /var/folders/qx/2_175_4n2s19vhvtspjhb3qh0000gn/T//ccX1btdS.s 			page 13


 128:Drivers/lvgl/src/misc/cache/lv_cache_entry.c ****     LV_ASSERT_NULL(entry);
 520              		.loc 1 128 5 view .LVU164
 521              		.loc 1 128 5 view .LVU165
 522 0000 08B1     		cbz	r0, .L45
 523              		.loc 1 128 5 view .LVU166
 524              		.loc 1 128 26 view .LVU167
 129:Drivers/lvgl/src/misc/cache/lv_cache_entry.c ****     return entry->cache;
 525              		.loc 1 129 5 view .LVU168
 130:Drivers/lvgl/src/misc/cache/lv_cache_entry.c **** }
 526              		.loc 1 130 1 is_stmt 0 view .LVU169
 527 0002 0068     		ldr	r0, [r0]
 528              	.LVL29:
 529              		.loc 1 130 1 view .LVU170
 530 0004 7047     		bx	lr
 531              	.LVL30:
 532              	.L45:
 128:Drivers/lvgl/src/misc/cache/lv_cache_entry.c ****     LV_ASSERT_NULL(entry);
 533              		.loc 1 128 5 is_stmt 1 view .LVU171
 128:Drivers/lvgl/src/misc/cache/lv_cache_entry.c ****     LV_ASSERT_NULL(entry);
 534              		.loc 1 128 5 view .LVU172
 128:Drivers/lvgl/src/misc/cache/lv_cache_entry.c ****     LV_ASSERT_NULL(entry);
 535              		.loc 1 128 5 view .LVU173
 128:Drivers/lvgl/src/misc/cache/lv_cache_entry.c ****     LV_ASSERT_NULL(entry);
 536              		.loc 1 128 5 view .LVU174
 128:Drivers/lvgl/src/misc/cache/lv_cache_entry.c ****     LV_ASSERT_NULL(entry);
 537              		.loc 1 128 5 view .LVU175
 538 0006 FEE7     		b	.L45
 539              		.cfi_endproc
 540              	.LFE14:
 542              		.section	.text.lv_cache_entry_get_size,"ax",%progbits
 543              		.align	1
 544              		.global	lv_cache_entry_get_size
 545              		.syntax unified
 546              		.thumb
 547              		.thumb_func
 549              	lv_cache_entry_get_size:
 550              	.LVL31:
 551              	.LFB15:
 131:Drivers/lvgl/src/misc/cache/lv_cache_entry.c **** 
 132:Drivers/lvgl/src/misc/cache/lv_cache_entry.c **** uint32_t lv_cache_entry_get_size(const uint32_t node_size)
 133:Drivers/lvgl/src/misc/cache/lv_cache_entry.c **** {
 552              		.loc 1 133 1 view -0
 553              		.cfi_startproc
 554              		@ args = 0, pretend = 0, frame = 0
 555              		@ frame_needed = 0, uses_anonymous_args = 0
 556              		@ link register save eliminated.
 134:Drivers/lvgl/src/misc/cache/lv_cache_entry.c ****     return node_size + sizeof(lv_cache_entry_t);
 557              		.loc 1 134 5 view .LVU177
 135:Drivers/lvgl/src/misc/cache/lv_cache_entry.c **** }
 558              		.loc 1 135 1 is_stmt 0 view .LVU178
 559 0000 1030     		adds	r0, r0, #16
 560              	.LVL32:
 561              		.loc 1 135 1 view .LVU179
 562 0002 7047     		bx	lr
 563              		.cfi_endproc
 564              	.LFE15:
 566              		.section	.text.lv_cache_entry_init,"ax",%progbits
ARM GAS  /var/folders/qx/2_175_4n2s19vhvtspjhb3qh0000gn/T//ccX1btdS.s 			page 14


 567              		.align	1
 568              		.global	lv_cache_entry_init
 569              		.syntax unified
 570              		.thumb
 571              		.thumb_func
 573              	lv_cache_entry_init:
 574              	.LVL33:
 575              	.LFB17:
 136:Drivers/lvgl/src/misc/cache/lv_cache_entry.c **** 
 137:Drivers/lvgl/src/misc/cache/lv_cache_entry.c **** lv_cache_entry_t * lv_cache_entry_alloc(const uint32_t node_size, const lv_cache_t * cache)
 138:Drivers/lvgl/src/misc/cache/lv_cache_entry.c **** {
 139:Drivers/lvgl/src/misc/cache/lv_cache_entry.c ****     void * res = lv_malloc_zeroed(lv_cache_entry_get_size(node_size));
 140:Drivers/lvgl/src/misc/cache/lv_cache_entry.c ****     LV_ASSERT_MALLOC(res)
 141:Drivers/lvgl/src/misc/cache/lv_cache_entry.c ****     if(res == NULL) {
 142:Drivers/lvgl/src/misc/cache/lv_cache_entry.c ****         LV_LOG_ERROR("malloc failed");
 143:Drivers/lvgl/src/misc/cache/lv_cache_entry.c ****         return NULL;
 144:Drivers/lvgl/src/misc/cache/lv_cache_entry.c ****     }
 145:Drivers/lvgl/src/misc/cache/lv_cache_entry.c ****     lv_cache_entry_t * entry = (lv_cache_entry_t *)((uint8_t *)res + node_size);
 146:Drivers/lvgl/src/misc/cache/lv_cache_entry.c ****     lv_cache_entry_init(entry, cache, node_size);
 147:Drivers/lvgl/src/misc/cache/lv_cache_entry.c ****     return entry;
 148:Drivers/lvgl/src/misc/cache/lv_cache_entry.c **** }
 149:Drivers/lvgl/src/misc/cache/lv_cache_entry.c **** 
 150:Drivers/lvgl/src/misc/cache/lv_cache_entry.c **** void lv_cache_entry_init(lv_cache_entry_t * entry, const lv_cache_t * cache, const uint32_t node_si
 151:Drivers/lvgl/src/misc/cache/lv_cache_entry.c **** {
 576              		.loc 1 151 1 is_stmt 1 view -0
 577              		.cfi_startproc
 578              		@ args = 0, pretend = 0, frame = 0
 579              		@ frame_needed = 0, uses_anonymous_args = 0
 580              		@ link register save eliminated.
 152:Drivers/lvgl/src/misc/cache/lv_cache_entry.c ****     LV_ASSERT_NULL(entry);
 581              		.loc 1 152 5 view .LVU181
 582              		.loc 1 152 5 view .LVU182
 583 0000 30B1     		cbz	r0, .L49
 584              		.loc 1 152 5 view .LVU183
 585              		.loc 1 152 26 view .LVU184
 153:Drivers/lvgl/src/misc/cache/lv_cache_entry.c ****     LV_ASSERT_NULL(cache);
 586              		.loc 1 153 5 view .LVU185
 587              		.loc 1 153 5 view .LVU186
 588 0002 31B1     		cbz	r1, .L51
 589              		.loc 1 153 5 view .LVU187
 590              		.loc 1 153 26 view .LVU188
 154:Drivers/lvgl/src/misc/cache/lv_cache_entry.c **** 
 155:Drivers/lvgl/src/misc/cache/lv_cache_entry.c ****     entry->cache = cache;
 591              		.loc 1 155 5 view .LVU189
 592              		.loc 1 155 18 is_stmt 0 view .LVU190
 593 0004 0160     		str	r1, [r0]
 156:Drivers/lvgl/src/misc/cache/lv_cache_entry.c ****     entry->node_size = node_size;
 594              		.loc 1 156 5 is_stmt 1 view .LVU191
 595              		.loc 1 156 22 is_stmt 0 view .LVU192
 596 0006 8260     		str	r2, [r0, #8]
 157:Drivers/lvgl/src/misc/cache/lv_cache_entry.c ****     entry->ref_cnt = 0;
 597              		.loc 1 157 5 is_stmt 1 view .LVU193
 598              		.loc 1 157 20 is_stmt 0 view .LVU194
 599 0008 0022     		movs	r2, #0
 600              	.LVL34:
 601              		.loc 1 157 20 view .LVU195
 602 000a 4260     		str	r2, [r0, #4]
ARM GAS  /var/folders/qx/2_175_4n2s19vhvtspjhb3qh0000gn/T//ccX1btdS.s 			page 15


 158:Drivers/lvgl/src/misc/cache/lv_cache_entry.c ****     entry->flags = 0;
 603              		.loc 1 158 5 is_stmt 1 view .LVU196
 604              		.loc 1 158 18 is_stmt 0 view .LVU197
 605 000c 0273     		strb	r2, [r0, #12]
 159:Drivers/lvgl/src/misc/cache/lv_cache_entry.c **** }
 606              		.loc 1 159 1 view .LVU198
 607 000e 7047     		bx	lr
 608              	.LVL35:
 609              	.L49:
 152:Drivers/lvgl/src/misc/cache/lv_cache_entry.c ****     LV_ASSERT_NULL(cache);
 610              		.loc 1 152 5 is_stmt 1 view .LVU199
 152:Drivers/lvgl/src/misc/cache/lv_cache_entry.c ****     LV_ASSERT_NULL(cache);
 611              		.loc 1 152 5 view .LVU200
 152:Drivers/lvgl/src/misc/cache/lv_cache_entry.c ****     LV_ASSERT_NULL(cache);
 612              		.loc 1 152 5 view .LVU201
 152:Drivers/lvgl/src/misc/cache/lv_cache_entry.c ****     LV_ASSERT_NULL(cache);
 613              		.loc 1 152 5 view .LVU202
 152:Drivers/lvgl/src/misc/cache/lv_cache_entry.c ****     LV_ASSERT_NULL(cache);
 614              		.loc 1 152 5 view .LVU203
 615 0010 FEE7     		b	.L49
 616              	.L51:
 153:Drivers/lvgl/src/misc/cache/lv_cache_entry.c **** 
 617              		.loc 1 153 5 view .LVU204
 153:Drivers/lvgl/src/misc/cache/lv_cache_entry.c **** 
 618              		.loc 1 153 5 view .LVU205
 153:Drivers/lvgl/src/misc/cache/lv_cache_entry.c **** 
 619              		.loc 1 153 5 view .LVU206
 153:Drivers/lvgl/src/misc/cache/lv_cache_entry.c **** 
 620              		.loc 1 153 5 view .LVU207
 153:Drivers/lvgl/src/misc/cache/lv_cache_entry.c **** 
 621              		.loc 1 153 5 view .LVU208
 622 0012 FEE7     		b	.L51
 623              		.cfi_endproc
 624              	.LFE17:
 626              		.section	.text.lv_cache_entry_alloc,"ax",%progbits
 627              		.align	1
 628              		.global	lv_cache_entry_alloc
 629              		.syntax unified
 630              		.thumb
 631              		.thumb_func
 633              	lv_cache_entry_alloc:
 634              	.LVL36:
 635              	.LFB16:
 138:Drivers/lvgl/src/misc/cache/lv_cache_entry.c ****     void * res = lv_malloc_zeroed(lv_cache_entry_get_size(node_size));
 636              		.loc 1 138 1 view -0
 637              		.cfi_startproc
 638              		@ args = 0, pretend = 0, frame = 0
 639              		@ frame_needed = 0, uses_anonymous_args = 0
 138:Drivers/lvgl/src/misc/cache/lv_cache_entry.c ****     void * res = lv_malloc_zeroed(lv_cache_entry_get_size(node_size));
 640              		.loc 1 138 1 is_stmt 0 view .LVU210
 641 0000 70B5     		push	{r4, r5, r6, lr}
 642              	.LCFI5:
 643              		.cfi_def_cfa_offset 16
 644              		.cfi_offset 4, -16
 645              		.cfi_offset 5, -12
 646              		.cfi_offset 6, -8
 647              		.cfi_offset 14, -4
ARM GAS  /var/folders/qx/2_175_4n2s19vhvtspjhb3qh0000gn/T//ccX1btdS.s 			page 16


 648 0002 0446     		mov	r4, r0
 649 0004 0D46     		mov	r5, r1
 139:Drivers/lvgl/src/misc/cache/lv_cache_entry.c ****     LV_ASSERT_MALLOC(res)
 650              		.loc 1 139 5 is_stmt 1 view .LVU211
 139:Drivers/lvgl/src/misc/cache/lv_cache_entry.c ****     LV_ASSERT_MALLOC(res)
 651              		.loc 1 139 35 is_stmt 0 view .LVU212
 652 0006 FFF7FEFF 		bl	lv_cache_entry_get_size
 653              	.LVL37:
 139:Drivers/lvgl/src/misc/cache/lv_cache_entry.c ****     LV_ASSERT_MALLOC(res)
 654              		.loc 1 139 18 discriminator 1 view .LVU213
 655 000a FFF7FEFF 		bl	lv_malloc_zeroed
 656              	.LVL38:
 140:Drivers/lvgl/src/misc/cache/lv_cache_entry.c ****     if(res == NULL) {
 657              		.loc 1 140 5 is_stmt 1 view .LVU214
 140:Drivers/lvgl/src/misc/cache/lv_cache_entry.c ****     if(res == NULL) {
 658              		.loc 1 140 5 view .LVU215
 659 000e 40B1     		cbz	r0, .L54
 660 0010 0646     		mov	r6, r0
 140:Drivers/lvgl/src/misc/cache/lv_cache_entry.c ****     if(res == NULL) {
 661              		.loc 1 140 5 view .LVU216
 141:Drivers/lvgl/src/misc/cache/lv_cache_entry.c ****         LV_LOG_ERROR("malloc failed");
 662              		.loc 1 141 5 view .LVU217
 145:Drivers/lvgl/src/misc/cache/lv_cache_entry.c ****     lv_cache_entry_init(entry, cache, node_size);
 663              		.loc 1 145 5 view .LVU218
 145:Drivers/lvgl/src/misc/cache/lv_cache_entry.c ****     lv_cache_entry_init(entry, cache, node_size);
 664              		.loc 1 145 24 is_stmt 0 view .LVU219
 665 0012 2644     		add	r6, r6, r4
 666              	.LVL39:
 146:Drivers/lvgl/src/misc/cache/lv_cache_entry.c ****     return entry;
 667              		.loc 1 146 5 is_stmt 1 view .LVU220
 668 0014 2246     		mov	r2, r4
 669 0016 2946     		mov	r1, r5
 670 0018 3046     		mov	r0, r6
 671              	.LVL40:
 146:Drivers/lvgl/src/misc/cache/lv_cache_entry.c ****     return entry;
 672              		.loc 1 146 5 is_stmt 0 view .LVU221
 673 001a FFF7FEFF 		bl	lv_cache_entry_init
 674              	.LVL41:
 147:Drivers/lvgl/src/misc/cache/lv_cache_entry.c **** }
 675              		.loc 1 147 5 is_stmt 1 view .LVU222
 148:Drivers/lvgl/src/misc/cache/lv_cache_entry.c **** 
 676              		.loc 1 148 1 is_stmt 0 view .LVU223
 677 001e 3046     		mov	r0, r6
 678 0020 70BD     		pop	{r4, r5, r6, pc}
 679              	.LVL42:
 680              	.L54:
 140:Drivers/lvgl/src/misc/cache/lv_cache_entry.c ****     if(res == NULL) {
 681              		.loc 1 140 5 is_stmt 1 view .LVU224
 140:Drivers/lvgl/src/misc/cache/lv_cache_entry.c ****     if(res == NULL) {
 682              		.loc 1 140 5 view .LVU225
 140:Drivers/lvgl/src/misc/cache/lv_cache_entry.c ****     if(res == NULL) {
 683              		.loc 1 140 5 view .LVU226
 140:Drivers/lvgl/src/misc/cache/lv_cache_entry.c ****     if(res == NULL) {
 684              		.loc 1 140 5 view .LVU227
 140:Drivers/lvgl/src/misc/cache/lv_cache_entry.c ****     if(res == NULL) {
 685              		.loc 1 140 5 view .LVU228
 686 0022 FEE7     		b	.L54
ARM GAS  /var/folders/qx/2_175_4n2s19vhvtspjhb3qh0000gn/T//ccX1btdS.s 			page 17


 687              		.cfi_endproc
 688              	.LFE16:
 690              		.section	.text.lv_cache_entry_delete,"ax",%progbits
 691              		.align	1
 692              		.global	lv_cache_entry_delete
 693              		.syntax unified
 694              		.thumb
 695              		.thumb_func
 697              	lv_cache_entry_delete:
 698              	.LVL43:
 699              	.LFB18:
 160:Drivers/lvgl/src/misc/cache/lv_cache_entry.c **** 
 161:Drivers/lvgl/src/misc/cache/lv_cache_entry.c **** void lv_cache_entry_delete(lv_cache_entry_t * entry)
 162:Drivers/lvgl/src/misc/cache/lv_cache_entry.c **** {
 700              		.loc 1 162 1 view -0
 701              		.cfi_startproc
 702              		@ args = 0, pretend = 0, frame = 0
 703              		@ frame_needed = 0, uses_anonymous_args = 0
 163:Drivers/lvgl/src/misc/cache/lv_cache_entry.c ****     LV_ASSERT_NULL(entry);
 704              		.loc 1 163 5 view .LVU230
 705              		.loc 1 163 5 view .LVU231
 706 0000 28B1     		cbz	r0, .L58
 162:Drivers/lvgl/src/misc/cache/lv_cache_entry.c ****     LV_ASSERT_NULL(entry);
 707              		.loc 1 162 1 is_stmt 0 view .LVU232
 708 0002 08B5     		push	{r3, lr}
 709              	.LCFI6:
 710              		.cfi_def_cfa_offset 8
 711              		.cfi_offset 3, -8
 712              		.cfi_offset 14, -4
 713              		.loc 1 163 5 is_stmt 1 view .LVU233
 714              		.loc 1 163 26 view .LVU234
 164:Drivers/lvgl/src/misc/cache/lv_cache_entry.c **** 
 165:Drivers/lvgl/src/misc/cache/lv_cache_entry.c ****     if(entry->flags & LV_CACHE_ENTRY_FLAG_DISABLE_DELETE) {
 715              		.loc 1 165 5 view .LVU235
 716              		.loc 1 165 13 is_stmt 0 view .LVU236
 717 0004 027B     		ldrb	r2, [r0, #12]	@ zero_extendqisi2
 718              		.loc 1 165 7 view .LVU237
 719 0006 12F0020F 		tst	r2, #2
 720 000a 01D0     		beq	.L62
 721              	.LVL44:
 722              	.L56:
 166:Drivers/lvgl/src/misc/cache/lv_cache_entry.c ****         return;
 167:Drivers/lvgl/src/misc/cache/lv_cache_entry.c ****     }
 168:Drivers/lvgl/src/misc/cache/lv_cache_entry.c **** 
 169:Drivers/lvgl/src/misc/cache/lv_cache_entry.c ****     void * data = lv_cache_entry_get_data(entry);
 170:Drivers/lvgl/src/misc/cache/lv_cache_entry.c ****     lv_free(data);
 171:Drivers/lvgl/src/misc/cache/lv_cache_entry.c **** }
 723              		.loc 1 171 1 view .LVU238
 724 000c 08BD     		pop	{r3, pc}
 725              	.LVL45:
 726              	.L58:
 727              	.LCFI7:
 728              		.cfi_def_cfa_offset 0
 729              		.cfi_restore 3
 730              		.cfi_restore 14
 163:Drivers/lvgl/src/misc/cache/lv_cache_entry.c **** 
 731              		.loc 1 163 5 is_stmt 1 view .LVU239
ARM GAS  /var/folders/qx/2_175_4n2s19vhvtspjhb3qh0000gn/T//ccX1btdS.s 			page 18


 163:Drivers/lvgl/src/misc/cache/lv_cache_entry.c **** 
 732              		.loc 1 163 5 view .LVU240
 163:Drivers/lvgl/src/misc/cache/lv_cache_entry.c **** 
 733              		.loc 1 163 5 view .LVU241
 163:Drivers/lvgl/src/misc/cache/lv_cache_entry.c **** 
 734              		.loc 1 163 5 view .LVU242
 163:Drivers/lvgl/src/misc/cache/lv_cache_entry.c **** 
 735              		.loc 1 163 5 view .LVU243
 736 000e FEE7     		b	.L58
 737              	.L62:
 738              	.LCFI8:
 739              		.cfi_def_cfa_offset 8
 740              		.cfi_offset 3, -8
 741              		.cfi_offset 14, -4
 169:Drivers/lvgl/src/misc/cache/lv_cache_entry.c ****     lv_free(data);
 742              		.loc 1 169 5 view .LVU244
 169:Drivers/lvgl/src/misc/cache/lv_cache_entry.c ****     lv_free(data);
 743              		.loc 1 169 19 is_stmt 0 view .LVU245
 744 0010 FFF7FEFF 		bl	lv_cache_entry_get_data
 745              	.LVL46:
 170:Drivers/lvgl/src/misc/cache/lv_cache_entry.c **** }
 746              		.loc 1 170 5 is_stmt 1 view .LVU246
 747 0014 FFF7FEFF 		bl	lv_free
 748              	.LVL47:
 170:Drivers/lvgl/src/misc/cache/lv_cache_entry.c **** }
 749              		.loc 1 170 5 is_stmt 0 view .LVU247
 750 0018 F8E7     		b	.L56
 751              		.cfi_endproc
 752              	.LFE18:
 754              		.section	.text.lv_cache_entry_set_flag,"ax",%progbits
 755              		.align	1
 756              		.global	lv_cache_entry_set_flag
 757              		.syntax unified
 758              		.thumb
 759              		.thumb_func
 761              	lv_cache_entry_set_flag:
 762              	.LVL48:
 763              	.LFB19:
 172:Drivers/lvgl/src/misc/cache/lv_cache_entry.c **** 
 173:Drivers/lvgl/src/misc/cache/lv_cache_entry.c **** void lv_cache_entry_set_flag(lv_cache_entry_t * entry, uint8_t flags)
 174:Drivers/lvgl/src/misc/cache/lv_cache_entry.c **** {
 764              		.loc 1 174 1 is_stmt 1 view -0
 765              		.cfi_startproc
 766              		@ args = 0, pretend = 0, frame = 0
 767              		@ frame_needed = 0, uses_anonymous_args = 0
 768              		@ link register save eliminated.
 175:Drivers/lvgl/src/misc/cache/lv_cache_entry.c ****     LV_ASSERT_NULL(entry);
 769              		.loc 1 175 5 view .LVU249
 770              		.loc 1 175 5 view .LVU250
 771 0000 18B1     		cbz	r0, .L65
 772              		.loc 1 175 5 view .LVU251
 773              		.loc 1 175 26 view .LVU252
 176:Drivers/lvgl/src/misc/cache/lv_cache_entry.c ****     entry->flags |= flags;
 774              		.loc 1 176 5 view .LVU253
 775              		.loc 1 176 10 is_stmt 0 view .LVU254
 776 0002 037B     		ldrb	r3, [r0, #12]	@ zero_extendqisi2
 777              		.loc 1 176 18 view .LVU255
ARM GAS  /var/folders/qx/2_175_4n2s19vhvtspjhb3qh0000gn/T//ccX1btdS.s 			page 19


 778 0004 0B43     		orrs	r3, r3, r1
 779 0006 0373     		strb	r3, [r0, #12]
 177:Drivers/lvgl/src/misc/cache/lv_cache_entry.c **** }
 780              		.loc 1 177 1 view .LVU256
 781 0008 7047     		bx	lr
 782              	.L65:
 175:Drivers/lvgl/src/misc/cache/lv_cache_entry.c ****     LV_ASSERT_NULL(entry);
 783              		.loc 1 175 5 is_stmt 1 view .LVU257
 175:Drivers/lvgl/src/misc/cache/lv_cache_entry.c ****     LV_ASSERT_NULL(entry);
 784              		.loc 1 175 5 view .LVU258
 175:Drivers/lvgl/src/misc/cache/lv_cache_entry.c ****     LV_ASSERT_NULL(entry);
 785              		.loc 1 175 5 view .LVU259
 175:Drivers/lvgl/src/misc/cache/lv_cache_entry.c ****     LV_ASSERT_NULL(entry);
 786              		.loc 1 175 5 view .LVU260
 175:Drivers/lvgl/src/misc/cache/lv_cache_entry.c ****     LV_ASSERT_NULL(entry);
 787              		.loc 1 175 5 view .LVU261
 788 000a FEE7     		b	.L65
 789              		.cfi_endproc
 790              	.LFE19:
 792              		.section	.text.lv_cache_entry_remove_flag,"ax",%progbits
 793              		.align	1
 794              		.global	lv_cache_entry_remove_flag
 795              		.syntax unified
 796              		.thumb
 797              		.thumb_func
 799              	lv_cache_entry_remove_flag:
 800              	.LVL49:
 801              	.LFB20:
 178:Drivers/lvgl/src/misc/cache/lv_cache_entry.c **** 
 179:Drivers/lvgl/src/misc/cache/lv_cache_entry.c **** void lv_cache_entry_remove_flag(lv_cache_entry_t * entry, uint8_t flags)
 180:Drivers/lvgl/src/misc/cache/lv_cache_entry.c **** {
 802              		.loc 1 180 1 view -0
 803              		.cfi_startproc
 804              		@ args = 0, pretend = 0, frame = 0
 805              		@ frame_needed = 0, uses_anonymous_args = 0
 806              		@ link register save eliminated.
 181:Drivers/lvgl/src/misc/cache/lv_cache_entry.c ****     LV_ASSERT_NULL(entry);
 807              		.loc 1 181 5 view .LVU263
 808              		.loc 1 181 5 view .LVU264
 809 0000 28B1     		cbz	r0, .L68
 810              		.loc 1 181 5 view .LVU265
 811              		.loc 1 181 26 view .LVU266
 182:Drivers/lvgl/src/misc/cache/lv_cache_entry.c ****     entry->flags &= (~flags);
 812              		.loc 1 182 5 view .LVU267
 813              		.loc 1 182 10 is_stmt 0 view .LVU268
 814 0002 037B     		ldrb	r3, [r0, #12]	@ zero_extendqisi2
 815              		.loc 1 182 18 view .LVU269
 816 0004 C943     		mvns	r1, r1
 817              	.LVL50:
 818              		.loc 1 182 18 view .LVU270
 819 0006 49B2     		sxtb	r1, r1
 820              	.LVL51:
 821              		.loc 1 182 18 view .LVU271
 822 0008 0B40     		ands	r3, r3, r1
 823 000a 0373     		strb	r3, [r0, #12]
 183:Drivers/lvgl/src/misc/cache/lv_cache_entry.c **** }
 824              		.loc 1 183 1 view .LVU272
ARM GAS  /var/folders/qx/2_175_4n2s19vhvtspjhb3qh0000gn/T//ccX1btdS.s 			page 20


 825 000c 7047     		bx	lr
 826              	.LVL52:
 827              	.L68:
 181:Drivers/lvgl/src/misc/cache/lv_cache_entry.c ****     LV_ASSERT_NULL(entry);
 828              		.loc 1 181 5 is_stmt 1 view .LVU273
 181:Drivers/lvgl/src/misc/cache/lv_cache_entry.c ****     LV_ASSERT_NULL(entry);
 829              		.loc 1 181 5 view .LVU274
 181:Drivers/lvgl/src/misc/cache/lv_cache_entry.c ****     LV_ASSERT_NULL(entry);
 830              		.loc 1 181 5 view .LVU275
 181:Drivers/lvgl/src/misc/cache/lv_cache_entry.c ****     LV_ASSERT_NULL(entry);
 831              		.loc 1 181 5 view .LVU276
 181:Drivers/lvgl/src/misc/cache/lv_cache_entry.c ****     LV_ASSERT_NULL(entry);
 832              		.loc 1 181 5 view .LVU277
 833 000e FEE7     		b	.L68
 834              		.cfi_endproc
 835              	.LFE20:
 837              		.section	.text.lv_cache_entry_has_flag,"ax",%progbits
 838              		.align	1
 839              		.global	lv_cache_entry_has_flag
 840              		.syntax unified
 841              		.thumb
 842              		.thumb_func
 844              	lv_cache_entry_has_flag:
 845              	.LVL53:
 846              	.LFB21:
 184:Drivers/lvgl/src/misc/cache/lv_cache_entry.c **** 
 185:Drivers/lvgl/src/misc/cache/lv_cache_entry.c **** bool lv_cache_entry_has_flag(lv_cache_entry_t * entry, uint8_t flags)
 186:Drivers/lvgl/src/misc/cache/lv_cache_entry.c **** {
 847              		.loc 1 186 1 view -0
 848              		.cfi_startproc
 849              		@ args = 0, pretend = 0, frame = 0
 850              		@ frame_needed = 0, uses_anonymous_args = 0
 851              		@ link register save eliminated.
 187:Drivers/lvgl/src/misc/cache/lv_cache_entry.c ****     LV_ASSERT_NULL(entry);
 852              		.loc 1 187 5 view .LVU279
 853              		.loc 1 187 5 view .LVU280
 854 0000 28B1     		cbz	r0, .L71
 855              		.loc 1 187 5 view .LVU281
 856              		.loc 1 187 26 view .LVU282
 188:Drivers/lvgl/src/misc/cache/lv_cache_entry.c ****     return (entry->flags & flags) == flags;
 857              		.loc 1 188 5 view .LVU283
 858              		.loc 1 188 18 is_stmt 0 view .LVU284
 859 0002 037B     		ldrb	r3, [r0, #12]	@ zero_extendqisi2
 860              		.loc 1 188 35 view .LVU285
 861 0004 9943     		bics	r1, r1, r3
 862              	.LVL54:
 189:Drivers/lvgl/src/misc/cache/lv_cache_entry.c **** }
 863              		.loc 1 189 1 view .LVU286
 864 0006 0CBF     		ite	eq
 865 0008 0120     		moveq	r0, #1
 866              	.LVL55:
 867              		.loc 1 189 1 view .LVU287
 868 000a 0020     		movne	r0, #0
 869 000c 7047     		bx	lr
 870              	.LVL56:
 871              	.L71:
 187:Drivers/lvgl/src/misc/cache/lv_cache_entry.c ****     LV_ASSERT_NULL(entry);
ARM GAS  /var/folders/qx/2_175_4n2s19vhvtspjhb3qh0000gn/T//ccX1btdS.s 			page 21


 872              		.loc 1 187 5 is_stmt 1 view .LVU288
 187:Drivers/lvgl/src/misc/cache/lv_cache_entry.c ****     LV_ASSERT_NULL(entry);
 873              		.loc 1 187 5 view .LVU289
 187:Drivers/lvgl/src/misc/cache/lv_cache_entry.c ****     LV_ASSERT_NULL(entry);
 874              		.loc 1 187 5 view .LVU290
 187:Drivers/lvgl/src/misc/cache/lv_cache_entry.c ****     LV_ASSERT_NULL(entry);
 875              		.loc 1 187 5 view .LVU291
 187:Drivers/lvgl/src/misc/cache/lv_cache_entry.c ****     LV_ASSERT_NULL(entry);
 876              		.loc 1 187 5 view .LVU292
 877 000e FEE7     		b	.L71
 878              		.cfi_endproc
 879              	.LFE21:
 881              		.text
 882              	.Letext0:
 883              		.file 2 "/Applications/ArmGNUToolchain/14.3.rel1/arm-none-eabi/arm-none-eabi/include/machine/_defa
 884              		.file 3 "/Applications/ArmGNUToolchain/14.3.rel1/arm-none-eabi/arm-none-eabi/include/sys/_stdint.h
 885              		.file 4 "/Applications/ArmGNUToolchain/14.3.rel1/arm-none-eabi/lib/gcc/arm-none-eabi/14.3.1/includ
 886              		.file 5 "Drivers/lvgl/src/misc/cache/../lv_types.h"
 887              		.file 6 "Drivers/lvgl/src/misc/cache/lv_cache_entry_private.h"
 888              		.file 7 "Drivers/lvgl/src/misc/cache/../../stdlib/lv_mem.h"
ARM GAS  /var/folders/qx/2_175_4n2s19vhvtspjhb3qh0000gn/T//ccX1btdS.s 			page 22

