ARM GAS  /var/folders/qx/2_175_4n2s19vhvtspjhb3qh0000gn/T//ccwB3AuM.s 			page 1


   1              		.cpu cortex-m4
   2              		.arch armv7e-m
   3              		.fpu fpv4-sp-d16
   4              		.eabi_attribute 27, 1
   5              		.eabi_attribute 28, 1
   6              		.eabi_attribute 20, 1
   7              		.eabi_attribute 21, 1
   8              		.eabi_attribute 23, 3
   9              		.eabi_attribute 24, 1
  10              		.eabi_attribute 25, 1
  11              		.eabi_attribute 26, 1
  12              		.eabi_attribute 30, 1
  13              		.eabi_attribute 34, 1
  14              		.eabi_attribute 18, 4
  15              		.file	"decomp_raw.c"
  16              		.text
  17              	.Ltext0:
  18              		.cfi_sections	.debug_frame
  19              		.file 1 "Drivers/lvgl/src/libs/frogfs/src/decomp_raw.c"
  20              		.section	.text.seek_raw,"ax",%progbits
  21              		.align	1
  22              		.syntax unified
  23              		.thumb
  24              		.thumb_func
  26              	seek_raw:
  27              	.LVL0:
  28              	.LFB3:
   1:Drivers/lvgl/src/libs/frogfs/src/decomp_raw.c **** /* This Source Code Form is subject to the terms of the Mozilla Public
   2:Drivers/lvgl/src/libs/frogfs/src/decomp_raw.c ****  * License, v. 2.0. If a copy of the MPL was not distributed with this
   3:Drivers/lvgl/src/libs/frogfs/src/decomp_raw.c ****  * file, You can obtain one at http://mozilla.org/MPL/2.0/. */
   4:Drivers/lvgl/src/libs/frogfs/src/decomp_raw.c **** 
   5:Drivers/lvgl/src/libs/frogfs/src/decomp_raw.c **** #include "../../../lv_conf_internal.h"
   6:Drivers/lvgl/src/libs/frogfs/src/decomp_raw.c **** #include LV_STDDEF_INCLUDE
   7:Drivers/lvgl/src/libs/frogfs/src/decomp_raw.c **** #include LV_STDINT_INCLUDE
   8:Drivers/lvgl/src/libs/frogfs/src/decomp_raw.c **** #include "../../../stdlib/lv_string.h"
   9:Drivers/lvgl/src/libs/frogfs/src/decomp_raw.c **** #include "../../../misc/lv_fs.h"
  10:Drivers/lvgl/src/libs/frogfs/src/decomp_raw.c **** 
  11:Drivers/lvgl/src/libs/frogfs/src/decomp_raw.c **** #include "frogfs_priv.h"
  12:Drivers/lvgl/src/libs/frogfs/src/decomp_raw.c **** #include "frogfs_format.h"
  13:Drivers/lvgl/src/libs/frogfs/src/decomp_raw.c **** #include "../include/frogfs/frogfs.h"
  14:Drivers/lvgl/src/libs/frogfs/src/decomp_raw.c **** 
  15:Drivers/lvgl/src/libs/frogfs/src/decomp_raw.c **** 
  16:Drivers/lvgl/src/libs/frogfs/src/decomp_raw.c **** static ssize_t read_raw(frogfs_fh_t *f, void *buf, size_t len)
  17:Drivers/lvgl/src/libs/frogfs/src/decomp_raw.c **** {
  18:Drivers/lvgl/src/libs/frogfs/src/decomp_raw.c ****     size_t remaining = f->data_sz - ((char *)f->data_ptr - (char *)f->data_start);
  19:Drivers/lvgl/src/libs/frogfs/src/decomp_raw.c **** 
  20:Drivers/lvgl/src/libs/frogfs/src/decomp_raw.c ****     if (len > remaining) {
  21:Drivers/lvgl/src/libs/frogfs/src/decomp_raw.c ****         len = remaining;
  22:Drivers/lvgl/src/libs/frogfs/src/decomp_raw.c ****     }
  23:Drivers/lvgl/src/libs/frogfs/src/decomp_raw.c **** 
  24:Drivers/lvgl/src/libs/frogfs/src/decomp_raw.c ****     if (buf) {
  25:Drivers/lvgl/src/libs/frogfs/src/decomp_raw.c ****         lv_memcpy(buf, f->data_ptr, len);
  26:Drivers/lvgl/src/libs/frogfs/src/decomp_raw.c ****     }
  27:Drivers/lvgl/src/libs/frogfs/src/decomp_raw.c ****     f->data_ptr = (char *)f->data_ptr + len;
  28:Drivers/lvgl/src/libs/frogfs/src/decomp_raw.c **** 
  29:Drivers/lvgl/src/libs/frogfs/src/decomp_raw.c ****     return len;
  30:Drivers/lvgl/src/libs/frogfs/src/decomp_raw.c **** }
ARM GAS  /var/folders/qx/2_175_4n2s19vhvtspjhb3qh0000gn/T//ccwB3AuM.s 			page 2


  31:Drivers/lvgl/src/libs/frogfs/src/decomp_raw.c **** 
  32:Drivers/lvgl/src/libs/frogfs/src/decomp_raw.c **** static ssize_t seek_raw(frogfs_fh_t *f, long offset, int mode)
  33:Drivers/lvgl/src/libs/frogfs/src/decomp_raw.c **** {
  29              		.loc 1 33 1 view -0
  30              		.cfi_startproc
  31              		@ args = 0, pretend = 0, frame = 0
  32              		@ frame_needed = 0, uses_anonymous_args = 0
  33              		@ link register save eliminated.
  34              		.loc 1 33 1 is_stmt 0 view .LVU1
  35 0000 10B4     		push	{r4}
  36              	.LCFI0:
  37              		.cfi_def_cfa_offset 4
  38              		.cfi_offset 4, -4
  39 0002 0346     		mov	r3, r0
  34:Drivers/lvgl/src/libs/frogfs/src/decomp_raw.c ****     ssize_t new_pos = (char *)f->data_ptr - (char *)f->data_start;
  40              		.loc 1 34 5 is_stmt 1 view .LVU2
  41              		.loc 1 34 32 is_stmt 0 view .LVU3
  42 0004 C068     		ldr	r0, [r0, #12]
  43              	.LVL1:
  44              		.loc 1 34 54 view .LVU4
  45 0006 9C68     		ldr	r4, [r3, #8]
  46              		.loc 1 34 13 view .LVU5
  47 0008 A0EB040C 		sub	ip, r0, r4
  48              	.LVL2:
  35:Drivers/lvgl/src/libs/frogfs/src/decomp_raw.c **** 
  36:Drivers/lvgl/src/libs/frogfs/src/decomp_raw.c ****     if (mode == LV_FS_SEEK_SET) {
  49              		.loc 1 36 5 is_stmt 1 view .LVU6
  50              		.loc 1 36 8 is_stmt 0 view .LVU7
  51 000c 32B9     		cbnz	r2, .L2
  37:Drivers/lvgl/src/libs/frogfs/src/decomp_raw.c ****         if (offset < 0) {
  52              		.loc 1 37 9 is_stmt 1 view .LVU8
  53              		.loc 1 37 12 is_stmt 0 view .LVU9
  54 000e 0029     		cmp	r1, #0
  55 0010 1FDB     		blt	.L7
  38:Drivers/lvgl/src/libs/frogfs/src/decomp_raw.c ****             return -1;
  39:Drivers/lvgl/src/libs/frogfs/src/decomp_raw.c ****         }
  40:Drivers/lvgl/src/libs/frogfs/src/decomp_raw.c ****         if ((size_t)offset > f->data_sz) {
  56              		.loc 1 40 9 is_stmt 1 view .LVU10
  57              		.loc 1 40 31 is_stmt 0 view .LVU11
  58 0012 1869     		ldr	r0, [r3, #16]
  59              		.loc 1 40 12 view .LVU12
  60 0014 8842     		cmp	r0, r1
  61 0016 0DD3     		bcc	.L4
  62 0018 0846     		mov	r0, r1
  63 001a 0BE0     		b	.L4
  64              	.L2:
  41:Drivers/lvgl/src/libs/frogfs/src/decomp_raw.c ****             offset = f->data_sz;
  42:Drivers/lvgl/src/libs/frogfs/src/decomp_raw.c ****         }
  43:Drivers/lvgl/src/libs/frogfs/src/decomp_raw.c ****         new_pos = offset;
  44:Drivers/lvgl/src/libs/frogfs/src/decomp_raw.c ****     } else if (mode == LV_FS_SEEK_CUR) {
  65              		.loc 1 44 12 is_stmt 1 view .LVU13
  66              		.loc 1 44 15 is_stmt 0 view .LVU14
  67 001c 012A     		cmp	r2, #1
  68 001e 0ED0     		beq	.L14
  45:Drivers/lvgl/src/libs/frogfs/src/decomp_raw.c ****         if (new_pos + offset < 0) {
  46:Drivers/lvgl/src/libs/frogfs/src/decomp_raw.c ****             new_pos = 0;
  47:Drivers/lvgl/src/libs/frogfs/src/decomp_raw.c ****         } else if ((size_t)new_pos > f->data_sz) {
ARM GAS  /var/folders/qx/2_175_4n2s19vhvtspjhb3qh0000gn/T//ccwB3AuM.s 			page 3


  48:Drivers/lvgl/src/libs/frogfs/src/decomp_raw.c ****             new_pos = f->data_sz;
  49:Drivers/lvgl/src/libs/frogfs/src/decomp_raw.c ****         } else {
  50:Drivers/lvgl/src/libs/frogfs/src/decomp_raw.c ****             new_pos += offset;
  51:Drivers/lvgl/src/libs/frogfs/src/decomp_raw.c ****         }
  52:Drivers/lvgl/src/libs/frogfs/src/decomp_raw.c ****     } else if (mode == LV_FS_SEEK_END) {
  69              		.loc 1 52 12 is_stmt 1 view .LVU15
  70              		.loc 1 52 15 is_stmt 0 view .LVU16
  71 0020 022A     		cmp	r2, #2
  72 0022 19D1     		bne	.L10
  53:Drivers/lvgl/src/libs/frogfs/src/decomp_raw.c ****         if (offset > 0) {
  73              		.loc 1 53 9 is_stmt 1 view .LVU17
  74              		.loc 1 53 12 is_stmt 0 view .LVU18
  75 0024 0029     		cmp	r1, #0
  76 0026 1ADC     		bgt	.L11
  54:Drivers/lvgl/src/libs/frogfs/src/decomp_raw.c ****             return -1;
  55:Drivers/lvgl/src/libs/frogfs/src/decomp_raw.c ****         }
  56:Drivers/lvgl/src/libs/frogfs/src/decomp_raw.c ****         if (offset < -(ssize_t) f->data_sz) {
  77              		.loc 1 56 9 is_stmt 1 view .LVU19
  78              		.loc 1 56 34 is_stmt 0 view .LVU20
  79 0028 1A69     		ldr	r2, [r3, #16]
  80              	.LVL3:
  81              		.loc 1 56 22 view .LVU21
  82 002a 5042     		rsbs	r0, r2, #0
  83              		.loc 1 56 12 view .LVU22
  84 002c 8842     		cmp	r0, r1
  85 002e 00DD     		ble	.L6
  57:Drivers/lvgl/src/libs/frogfs/src/decomp_raw.c ****             offset = 0;
  86              		.loc 1 57 20 view .LVU23
  87 0030 0021     		movs	r1, #0
  88              	.LVL4:
  89              	.L6:
  58:Drivers/lvgl/src/libs/frogfs/src/decomp_raw.c ****         }
  59:Drivers/lvgl/src/libs/frogfs/src/decomp_raw.c ****         new_pos = f->data_sz + offset;
  90              		.loc 1 59 9 is_stmt 1 view .LVU24
  91              		.loc 1 59 30 is_stmt 0 view .LVU25
  92 0032 8818     		adds	r0, r1, r2
  93              	.LVL5:
  94              	.L4:
  60:Drivers/lvgl/src/libs/frogfs/src/decomp_raw.c ****     } else {
  61:Drivers/lvgl/src/libs/frogfs/src/decomp_raw.c ****         return -1;
  62:Drivers/lvgl/src/libs/frogfs/src/decomp_raw.c ****     }
  63:Drivers/lvgl/src/libs/frogfs/src/decomp_raw.c **** 
  64:Drivers/lvgl/src/libs/frogfs/src/decomp_raw.c ****     f->data_ptr = (char *)f->data_start + new_pos;
  95              		.loc 1 64 5 is_stmt 1 view .LVU26
  96              		.loc 1 64 41 is_stmt 0 view .LVU27
  97 0034 0444     		add	r4, r4, r0
  98              		.loc 1 64 17 view .LVU28
  99 0036 DC60     		str	r4, [r3, #12]
  65:Drivers/lvgl/src/libs/frogfs/src/decomp_raw.c ****     return new_pos;
 100              		.loc 1 65 5 is_stmt 1 view .LVU29
 101              	.LVL6:
 102              	.L1:
  66:Drivers/lvgl/src/libs/frogfs/src/decomp_raw.c **** }
 103              		.loc 1 66 1 is_stmt 0 view .LVU30
 104 0038 5DF8044B 		ldr	r4, [sp], #4
 105              	.LCFI1:
 106              		.cfi_remember_state
ARM GAS  /var/folders/qx/2_175_4n2s19vhvtspjhb3qh0000gn/T//ccwB3AuM.s 			page 4


 107              		.cfi_restore 4
 108              		.cfi_def_cfa_offset 0
 109 003c 7047     		bx	lr
 110              	.LVL7:
 111              	.L14:
 112              	.LCFI2:
 113              		.cfi_restore_state
  45:Drivers/lvgl/src/libs/frogfs/src/decomp_raw.c ****             new_pos = 0;
 114              		.loc 1 45 9 is_stmt 1 view .LVU31
  45:Drivers/lvgl/src/libs/frogfs/src/decomp_raw.c ****             new_pos = 0;
 115              		.loc 1 45 12 is_stmt 0 view .LVU32
 116 003e 1CEB0100 		adds	r0, ip, r1
 117 0042 04D4     		bmi	.L9
  47:Drivers/lvgl/src/libs/frogfs/src/decomp_raw.c ****             new_pos = f->data_sz;
 118              		.loc 1 47 16 is_stmt 1 view .LVU33
  47:Drivers/lvgl/src/libs/frogfs/src/decomp_raw.c ****             new_pos = f->data_sz;
 119              		.loc 1 47 39 is_stmt 0 view .LVU34
 120 0044 1A69     		ldr	r2, [r3, #16]
 121              	.LVL8:
  47:Drivers/lvgl/src/libs/frogfs/src/decomp_raw.c ****             new_pos = f->data_sz;
 122              		.loc 1 47 19 view .LVU35
 123 0046 6245     		cmp	r2, ip
 124 0048 F4D2     		bcs	.L4
  48:Drivers/lvgl/src/libs/frogfs/src/decomp_raw.c ****         } else {
 125              		.loc 1 48 13 is_stmt 1 view .LVU36
  48:Drivers/lvgl/src/libs/frogfs/src/decomp_raw.c ****         } else {
 126              		.loc 1 48 21 is_stmt 0 view .LVU37
 127 004a 1046     		mov	r0, r2
 128              	.LVL9:
  48:Drivers/lvgl/src/libs/frogfs/src/decomp_raw.c ****         } else {
 129              		.loc 1 48 21 view .LVU38
 130 004c F2E7     		b	.L4
 131              	.LVL10:
 132              	.L9:
  46:Drivers/lvgl/src/libs/frogfs/src/decomp_raw.c ****         } else if ((size_t)new_pos > f->data_sz) {
 133              		.loc 1 46 21 view .LVU39
 134 004e 0020     		movs	r0, #0
 135 0050 F0E7     		b	.L4
 136              	.L7:
  38:Drivers/lvgl/src/libs/frogfs/src/decomp_raw.c ****         }
 137              		.loc 1 38 20 view .LVU40
 138 0052 4FF0FF30 		mov	r0, #-1
 139 0056 EFE7     		b	.L1
 140              	.L10:
  61:Drivers/lvgl/src/libs/frogfs/src/decomp_raw.c ****     }
 141              		.loc 1 61 16 view .LVU41
 142 0058 4FF0FF30 		mov	r0, #-1
 143 005c ECE7     		b	.L1
 144              	.L11:
  54:Drivers/lvgl/src/libs/frogfs/src/decomp_raw.c ****         }
 145              		.loc 1 54 20 view .LVU42
 146 005e 4FF0FF30 		mov	r0, #-1
 147 0062 E9E7     		b	.L1
 148              		.cfi_endproc
 149              	.LFE3:
 151              		.section	.text.tell_raw,"ax",%progbits
 152              		.align	1
ARM GAS  /var/folders/qx/2_175_4n2s19vhvtspjhb3qh0000gn/T//ccwB3AuM.s 			page 5


 153              		.syntax unified
 154              		.thumb
 155              		.thumb_func
 157              	tell_raw:
 158              	.LVL11:
 159              	.LFB4:
  67:Drivers/lvgl/src/libs/frogfs/src/decomp_raw.c **** 
  68:Drivers/lvgl/src/libs/frogfs/src/decomp_raw.c **** static size_t tell_raw(frogfs_fh_t *f)
  69:Drivers/lvgl/src/libs/frogfs/src/decomp_raw.c **** {
 160              		.loc 1 69 1 is_stmt 1 view -0
 161              		.cfi_startproc
 162              		@ args = 0, pretend = 0, frame = 0
 163              		@ frame_needed = 0, uses_anonymous_args = 0
 164              		@ link register save eliminated.
  70:Drivers/lvgl/src/libs/frogfs/src/decomp_raw.c ****     return (char *)f->data_ptr - (char *)f->data_start;
 165              		.loc 1 70 5 view .LVU44
 166              		.loc 1 70 21 is_stmt 0 view .LVU45
 167 0000 C268     		ldr	r2, [r0, #12]
 168              		.loc 1 70 43 view .LVU46
 169 0002 8068     		ldr	r0, [r0, #8]
 170              	.LVL12:
  71:Drivers/lvgl/src/libs/frogfs/src/decomp_raw.c **** }
 171              		.loc 1 71 1 view .LVU47
 172 0004 101A     		subs	r0, r2, r0
 173 0006 7047     		bx	lr
 174              		.cfi_endproc
 175              	.LFE4:
 177              		.section	.text.read_raw,"ax",%progbits
 178              		.align	1
 179              		.syntax unified
 180              		.thumb
 181              		.thumb_func
 183              	read_raw:
 184              	.LVL13:
 185              	.LFB2:
  17:Drivers/lvgl/src/libs/frogfs/src/decomp_raw.c ****     size_t remaining = f->data_sz - ((char *)f->data_ptr - (char *)f->data_start);
 186              		.loc 1 17 1 is_stmt 1 view -0
 187              		.cfi_startproc
 188              		@ args = 0, pretend = 0, frame = 0
 189              		@ frame_needed = 0, uses_anonymous_args = 0
  17:Drivers/lvgl/src/libs/frogfs/src/decomp_raw.c ****     size_t remaining = f->data_sz - ((char *)f->data_ptr - (char *)f->data_start);
 190              		.loc 1 17 1 is_stmt 0 view .LVU49
 191 0000 38B5     		push	{r3, r4, r5, lr}
 192              	.LCFI3:
 193              		.cfi_def_cfa_offset 16
 194              		.cfi_offset 3, -16
 195              		.cfi_offset 4, -12
 196              		.cfi_offset 5, -8
 197              		.cfi_offset 14, -4
 198 0002 0446     		mov	r4, r0
 199 0004 0846     		mov	r0, r1
 200              	.LVL14:
  18:Drivers/lvgl/src/libs/frogfs/src/decomp_raw.c **** 
 201              		.loc 1 18 5 is_stmt 1 view .LVU50
  18:Drivers/lvgl/src/libs/frogfs/src/decomp_raw.c **** 
 202              		.loc 1 18 25 is_stmt 0 view .LVU51
 203 0006 2569     		ldr	r5, [r4, #16]
ARM GAS  /var/folders/qx/2_175_4n2s19vhvtspjhb3qh0000gn/T//ccwB3AuM.s 			page 6


  18:Drivers/lvgl/src/libs/frogfs/src/decomp_raw.c **** 
 204              		.loc 1 18 47 view .LVU52
 205 0008 E168     		ldr	r1, [r4, #12]
 206              	.LVL15:
  18:Drivers/lvgl/src/libs/frogfs/src/decomp_raw.c **** 
 207              		.loc 1 18 69 view .LVU53
 208 000a A368     		ldr	r3, [r4, #8]
  18:Drivers/lvgl/src/libs/frogfs/src/decomp_raw.c **** 
 209              		.loc 1 18 58 view .LVU54
 210 000c CB1A     		subs	r3, r1, r3
  18:Drivers/lvgl/src/libs/frogfs/src/decomp_raw.c **** 
 211              		.loc 1 18 12 view .LVU55
 212 000e ED1A     		subs	r5, r5, r3
 213              	.LVL16:
  20:Drivers/lvgl/src/libs/frogfs/src/decomp_raw.c ****         len = remaining;
 214              		.loc 1 20 5 is_stmt 1 view .LVU56
  20:Drivers/lvgl/src/libs/frogfs/src/decomp_raw.c ****         len = remaining;
 215              		.loc 1 20 8 is_stmt 0 view .LVU57
 216 0010 9542     		cmp	r5, r2
 217 0012 00D3     		bcc	.L17
 218 0014 1546     		mov	r5, r2
 219              	.LVL17:
 220              	.L17:
  24:Drivers/lvgl/src/libs/frogfs/src/decomp_raw.c ****         lv_memcpy(buf, f->data_ptr, len);
 221              		.loc 1 24 5 is_stmt 1 view .LVU58
  24:Drivers/lvgl/src/libs/frogfs/src/decomp_raw.c ****         lv_memcpy(buf, f->data_ptr, len);
 222              		.loc 1 24 8 is_stmt 0 view .LVU59
 223 0016 10B1     		cbz	r0, .L18
  25:Drivers/lvgl/src/libs/frogfs/src/decomp_raw.c ****     }
 224              		.loc 1 25 9 is_stmt 1 view .LVU60
 225 0018 2A46     		mov	r2, r5
 226 001a FFF7FEFF 		bl	lv_memcpy
 227              	.LVL18:
 228              	.L18:
  27:Drivers/lvgl/src/libs/frogfs/src/decomp_raw.c **** 
 229              		.loc 1 27 5 view .LVU61
  27:Drivers/lvgl/src/libs/frogfs/src/decomp_raw.c **** 
 230              		.loc 1 27 28 is_stmt 0 view .LVU62
 231 001e E368     		ldr	r3, [r4, #12]
  27:Drivers/lvgl/src/libs/frogfs/src/decomp_raw.c **** 
 232              		.loc 1 27 39 view .LVU63
 233 0020 2B44     		add	r3, r3, r5
  27:Drivers/lvgl/src/libs/frogfs/src/decomp_raw.c **** 
 234              		.loc 1 27 17 view .LVU64
 235 0022 E360     		str	r3, [r4, #12]
  29:Drivers/lvgl/src/libs/frogfs/src/decomp_raw.c **** }
 236              		.loc 1 29 5 is_stmt 1 view .LVU65
  30:Drivers/lvgl/src/libs/frogfs/src/decomp_raw.c **** 
 237              		.loc 1 30 1 is_stmt 0 view .LVU66
 238 0024 2846     		mov	r0, r5
 239 0026 38BD     		pop	{r3, r4, r5, pc}
  30:Drivers/lvgl/src/libs/frogfs/src/decomp_raw.c **** 
 240              		.loc 1 30 1 view .LVU67
 241              		.cfi_endproc
 242              	.LFE2:
 244              		.global	frogfs_decomp_raw
 245              		.section	.rodata.frogfs_decomp_raw,"a"
ARM GAS  /var/folders/qx/2_175_4n2s19vhvtspjhb3qh0000gn/T//ccwB3AuM.s 			page 7


 246              		.align	2
 249              	frogfs_decomp_raw:
 250 0000 00000000 		.space	8
 250      00000000 
 251 0008 00000000 		.word	read_raw
 252 000c 00000000 		.word	seek_raw
 253 0010 00000000 		.word	tell_raw
 254              		.text
 255              	.Letext0:
 256              		.file 2 "/Applications/ArmGNUToolchain/14.3.rel1/arm-none-eabi/lib/gcc/arm-none-eabi/14.3.1/includ
 257              		.file 3 "/Applications/ArmGNUToolchain/14.3.rel1/arm-none-eabi/arm-none-eabi/include/machine/_defa
 258              		.file 4 "/Applications/ArmGNUToolchain/14.3.rel1/arm-none-eabi/arm-none-eabi/include/sys/_stdint.h
 259              		.file 5 "Drivers/lvgl/src/libs/frogfs/src/../include/frogfs/frogfs_types.h"
 260              		.file 6 "Drivers/lvgl/src/libs/frogfs/src/../include/frogfs/frogfs.h"
 261              		.file 7 "Drivers/lvgl/src/libs/frogfs/src/frogfs_format.h"
 262              		.file 8 "Drivers/lvgl/src/libs/frogfs/src/frogfs_priv.h"
 263              		.file 9 "Drivers/lvgl/src/libs/frogfs/src/../../../misc/lv_fs.h"
 264              		.file 10 "Drivers/lvgl/src/libs/frogfs/src/../../../stdlib/lv_string.h"
ARM GAS  /var/folders/qx/2_175_4n2s19vhvtspjhb3qh0000gn/T//ccwB3AuM.s 			page 8


DEFINED SYMBOLS
                            *ABS*:00000000 decomp_raw.c
/var/folders/qx/2_175_4n2s19vhvtspjhb3qh0000gn/T//ccwB3AuM.s:21     .text.seek_raw:00000000 $t
/var/folders/qx/2_175_4n2s19vhvtspjhb3qh0000gn/T//ccwB3AuM.s:26     .text.seek_raw:00000000 seek_raw
/var/folders/qx/2_175_4n2s19vhvtspjhb3qh0000gn/T//ccwB3AuM.s:152    .text.tell_raw:00000000 $t
/var/folders/qx/2_175_4n2s19vhvtspjhb3qh0000gn/T//ccwB3AuM.s:157    .text.tell_raw:00000000 tell_raw
/var/folders/qx/2_175_4n2s19vhvtspjhb3qh0000gn/T//ccwB3AuM.s:178    .text.read_raw:00000000 $t
/var/folders/qx/2_175_4n2s19vhvtspjhb3qh0000gn/T//ccwB3AuM.s:183    .text.read_raw:00000000 read_raw
/var/folders/qx/2_175_4n2s19vhvtspjhb3qh0000gn/T//ccwB3AuM.s:249    .rodata.frogfs_decomp_raw:00000000 frogfs_decomp_raw
/var/folders/qx/2_175_4n2s19vhvtspjhb3qh0000gn/T//ccwB3AuM.s:246    .rodata.frogfs_decomp_raw:00000000 $d

UNDEFINED SYMBOLS
lv_memcpy
