ARM GAS  /var/folders/qx/2_175_4n2s19vhvtspjhb3qh0000gn/T//ccePDbYF.s 			page 1


   1              		.cpu cortex-m4
   2              		.arch armv7e-m
   3              		.fpu fpv4-sp-d16
   4              		.eabi_attribute 27, 1
   5              		.eabi_attribute 28, 1
   6              		.eabi_attribute 20, 1
   7              		.eabi_attribute 21, 1
   8              		.eabi_attribute 23, 3
   9              		.eabi_attribute 24, 1
  10              		.eabi_attribute 25, 1
  11              		.eabi_attribute 26, 1
  12              		.eabi_attribute 30, 1
  13              		.eabi_attribute 34, 1
  14              		.eabi_attribute 18, 4
  15              		.file	"lv_image.c"
  16              		.text
  17              	.Ltext0:
  18              		.cfi_sections	.debug_frame
  19              		.file 1 "Drivers/lvgl/src/widgets/image/lv_image.c"
  20              		.section	.text.lv_image_destructor,"ax",%progbits
  21              		.align	1
  22              		.syntax unified
  23              		.thumb
  24              		.thumb_func
  26              	lv_image_destructor:
  27              	.LVL0:
  28              	.LFB229:
   1:Drivers/lvgl/src/widgets/image/lv_image.c **** /**
   2:Drivers/lvgl/src/widgets/image/lv_image.c ****  * @file lv_image.c
   3:Drivers/lvgl/src/widgets/image/lv_image.c ****  *
   4:Drivers/lvgl/src/widgets/image/lv_image.c ****  */
   5:Drivers/lvgl/src/widgets/image/lv_image.c **** 
   6:Drivers/lvgl/src/widgets/image/lv_image.c **** /*********************
   7:Drivers/lvgl/src/widgets/image/lv_image.c ****  *      INCLUDES
   8:Drivers/lvgl/src/widgets/image/lv_image.c ****  *********************/
   9:Drivers/lvgl/src/widgets/image/lv_image.c **** #include "lv_image_private.h"
  10:Drivers/lvgl/src/widgets/image/lv_image.c **** #include "../../misc/lv_area_private.h"
  11:Drivers/lvgl/src/widgets/image/lv_image.c **** #include "../../misc/lv_text_private.h"
  12:Drivers/lvgl/src/widgets/image/lv_image.c **** #include "../../draw/lv_draw_image_private.h"
  13:Drivers/lvgl/src/widgets/image/lv_image.c **** #include "../../draw/lv_draw_private.h"
  14:Drivers/lvgl/src/widgets/image/lv_image.c **** #include "../../core/lv_obj_event_private.h"
  15:Drivers/lvgl/src/widgets/image/lv_image.c **** #include "../../core/lv_obj_class_private.h"
  16:Drivers/lvgl/src/widgets/image/lv_image.c **** #include "../../core/lv_obj_draw_private.h"
  17:Drivers/lvgl/src/widgets/image/lv_image.c **** #include "../../core/lv_obj_class_private.h"
  18:Drivers/lvgl/src/widgets/image/lv_image.c **** #include "../../core/lv_observer_private.h"
  19:Drivers/lvgl/src/widgets/image/lv_image.c **** 
  20:Drivers/lvgl/src/widgets/image/lv_image.c **** #if LV_USE_IMAGE != 0
  21:Drivers/lvgl/src/widgets/image/lv_image.c **** 
  22:Drivers/lvgl/src/widgets/image/lv_image.c **** #include "../../stdlib/lv_string.h"
  23:Drivers/lvgl/src/widgets/image/lv_image.c **** 
  24:Drivers/lvgl/src/widgets/image/lv_image.c **** /*********************
  25:Drivers/lvgl/src/widgets/image/lv_image.c ****  *      DEFINES
  26:Drivers/lvgl/src/widgets/image/lv_image.c ****  *********************/
  27:Drivers/lvgl/src/widgets/image/lv_image.c **** #define MY_CLASS (&lv_image_class)
  28:Drivers/lvgl/src/widgets/image/lv_image.c **** 
  29:Drivers/lvgl/src/widgets/image/lv_image.c **** /**********************
  30:Drivers/lvgl/src/widgets/image/lv_image.c ****  *      TYPEDEFS
ARM GAS  /var/folders/qx/2_175_4n2s19vhvtspjhb3qh0000gn/T//ccePDbYF.s 			page 2


  31:Drivers/lvgl/src/widgets/image/lv_image.c ****  **********************/
  32:Drivers/lvgl/src/widgets/image/lv_image.c **** 
  33:Drivers/lvgl/src/widgets/image/lv_image.c **** /**********************
  34:Drivers/lvgl/src/widgets/image/lv_image.c ****  *  STATIC PROTOTYPES
  35:Drivers/lvgl/src/widgets/image/lv_image.c ****  **********************/
  36:Drivers/lvgl/src/widgets/image/lv_image.c **** static void lv_image_constructor(const lv_obj_class_t * class_p, lv_obj_t * obj);
  37:Drivers/lvgl/src/widgets/image/lv_image.c **** static void lv_image_destructor(const lv_obj_class_t * class_p, lv_obj_t * obj);
  38:Drivers/lvgl/src/widgets/image/lv_image.c **** static void lv_image_event(const lv_obj_class_t * class_p, lv_event_t * e);
  39:Drivers/lvgl/src/widgets/image/lv_image.c **** static void draw_image(lv_event_t * e);
  40:Drivers/lvgl/src/widgets/image/lv_image.c **** static void scale_update(lv_obj_t * obj, int32_t scale_x, int32_t scale_y);
  41:Drivers/lvgl/src/widgets/image/lv_image.c **** static void update_align(lv_obj_t * obj);
  42:Drivers/lvgl/src/widgets/image/lv_image.c **** static void reset_image_attributes(lv_obj_t * obj);
  43:Drivers/lvgl/src/widgets/image/lv_image.c **** 
  44:Drivers/lvgl/src/widgets/image/lv_image.c **** #if LV_USE_OBSERVER
  45:Drivers/lvgl/src/widgets/image/lv_image.c ****     static void image_src_observer_cb(lv_observer_t * observer, lv_subject_t * subject);
  46:Drivers/lvgl/src/widgets/image/lv_image.c **** #endif /*LV_USE_OBSERVER*/
  47:Drivers/lvgl/src/widgets/image/lv_image.c **** 
  48:Drivers/lvgl/src/widgets/image/lv_image.c **** #if LV_USE_OBJ_PROPERTY
  49:Drivers/lvgl/src/widgets/image/lv_image.c ****     static void lv_image_set_pivot_helper(lv_obj_t * obj, lv_point_t * pivot);
  50:Drivers/lvgl/src/widgets/image/lv_image.c ****     static lv_point_t lv_image_get_pivot_helper(lv_obj_t * obj);
  51:Drivers/lvgl/src/widgets/image/lv_image.c **** #endif
  52:Drivers/lvgl/src/widgets/image/lv_image.c **** 
  53:Drivers/lvgl/src/widgets/image/lv_image.c **** #if LV_USE_OBJ_PROPERTY
  54:Drivers/lvgl/src/widgets/image/lv_image.c **** static const lv_property_ops_t lv_image_properties[] = {
  55:Drivers/lvgl/src/widgets/image/lv_image.c ****     {
  56:Drivers/lvgl/src/widgets/image/lv_image.c ****         .id = LV_PROPERTY_IMAGE_SRC,
  57:Drivers/lvgl/src/widgets/image/lv_image.c ****         .setter = lv_image_set_src,
  58:Drivers/lvgl/src/widgets/image/lv_image.c ****         .getter = lv_image_get_src,
  59:Drivers/lvgl/src/widgets/image/lv_image.c ****     },
  60:Drivers/lvgl/src/widgets/image/lv_image.c ****     {
  61:Drivers/lvgl/src/widgets/image/lv_image.c ****         .id = LV_PROPERTY_IMAGE_OFFSET_X,
  62:Drivers/lvgl/src/widgets/image/lv_image.c ****         .setter = lv_image_set_offset_x,
  63:Drivers/lvgl/src/widgets/image/lv_image.c ****         .getter = lv_image_get_offset_x,
  64:Drivers/lvgl/src/widgets/image/lv_image.c ****     },
  65:Drivers/lvgl/src/widgets/image/lv_image.c ****     {
  66:Drivers/lvgl/src/widgets/image/lv_image.c ****         .id = LV_PROPERTY_IMAGE_OFFSET_Y,
  67:Drivers/lvgl/src/widgets/image/lv_image.c ****         .setter = lv_image_set_offset_y,
  68:Drivers/lvgl/src/widgets/image/lv_image.c ****         .getter = lv_image_get_offset_y,
  69:Drivers/lvgl/src/widgets/image/lv_image.c ****     },
  70:Drivers/lvgl/src/widgets/image/lv_image.c ****     {
  71:Drivers/lvgl/src/widgets/image/lv_image.c ****         .id = LV_PROPERTY_IMAGE_ROTATION,
  72:Drivers/lvgl/src/widgets/image/lv_image.c ****         .setter = lv_image_set_rotation,
  73:Drivers/lvgl/src/widgets/image/lv_image.c ****         .getter = lv_image_get_rotation,
  74:Drivers/lvgl/src/widgets/image/lv_image.c ****     },
  75:Drivers/lvgl/src/widgets/image/lv_image.c ****     {
  76:Drivers/lvgl/src/widgets/image/lv_image.c ****         .id = LV_PROPERTY_IMAGE_PIVOT,
  77:Drivers/lvgl/src/widgets/image/lv_image.c ****         .setter = lv_image_set_pivot_helper,
  78:Drivers/lvgl/src/widgets/image/lv_image.c ****         .getter = lv_image_get_pivot_helper,
  79:Drivers/lvgl/src/widgets/image/lv_image.c ****     },
  80:Drivers/lvgl/src/widgets/image/lv_image.c ****     {
  81:Drivers/lvgl/src/widgets/image/lv_image.c ****         .id = LV_PROPERTY_IMAGE_SCALE,
  82:Drivers/lvgl/src/widgets/image/lv_image.c ****         .setter = lv_image_set_scale,
  83:Drivers/lvgl/src/widgets/image/lv_image.c ****         .getter = lv_image_get_scale,
  84:Drivers/lvgl/src/widgets/image/lv_image.c ****     },
  85:Drivers/lvgl/src/widgets/image/lv_image.c ****     {
  86:Drivers/lvgl/src/widgets/image/lv_image.c ****         .id = LV_PROPERTY_IMAGE_SCALE_X,
  87:Drivers/lvgl/src/widgets/image/lv_image.c ****         .setter = lv_image_set_scale_x,
ARM GAS  /var/folders/qx/2_175_4n2s19vhvtspjhb3qh0000gn/T//ccePDbYF.s 			page 3


  88:Drivers/lvgl/src/widgets/image/lv_image.c ****         .getter = lv_image_get_scale_x,
  89:Drivers/lvgl/src/widgets/image/lv_image.c ****     },
  90:Drivers/lvgl/src/widgets/image/lv_image.c ****     {
  91:Drivers/lvgl/src/widgets/image/lv_image.c ****         .id = LV_PROPERTY_IMAGE_SCALE_Y,
  92:Drivers/lvgl/src/widgets/image/lv_image.c ****         .setter = lv_image_set_scale_y,
  93:Drivers/lvgl/src/widgets/image/lv_image.c ****         .getter = lv_image_get_scale_y,
  94:Drivers/lvgl/src/widgets/image/lv_image.c ****     },
  95:Drivers/lvgl/src/widgets/image/lv_image.c ****     {
  96:Drivers/lvgl/src/widgets/image/lv_image.c ****         .id = LV_PROPERTY_IMAGE_BLEND_MODE,
  97:Drivers/lvgl/src/widgets/image/lv_image.c ****         .setter = lv_image_set_blend_mode,
  98:Drivers/lvgl/src/widgets/image/lv_image.c ****         .getter = lv_image_get_blend_mode,
  99:Drivers/lvgl/src/widgets/image/lv_image.c ****     },
 100:Drivers/lvgl/src/widgets/image/lv_image.c ****     {
 101:Drivers/lvgl/src/widgets/image/lv_image.c ****         .id = LV_PROPERTY_IMAGE_ANTIALIAS,
 102:Drivers/lvgl/src/widgets/image/lv_image.c ****         .setter = lv_image_set_antialias,
 103:Drivers/lvgl/src/widgets/image/lv_image.c ****         .getter = lv_image_get_antialias,
 104:Drivers/lvgl/src/widgets/image/lv_image.c ****     },
 105:Drivers/lvgl/src/widgets/image/lv_image.c ****     {
 106:Drivers/lvgl/src/widgets/image/lv_image.c ****         .id = LV_PROPERTY_IMAGE_INNER_ALIGN,
 107:Drivers/lvgl/src/widgets/image/lv_image.c ****         .setter = lv_image_set_inner_align,
 108:Drivers/lvgl/src/widgets/image/lv_image.c ****         .getter = lv_image_get_inner_align,
 109:Drivers/lvgl/src/widgets/image/lv_image.c ****     },
 110:Drivers/lvgl/src/widgets/image/lv_image.c **** };
 111:Drivers/lvgl/src/widgets/image/lv_image.c **** #endif
 112:Drivers/lvgl/src/widgets/image/lv_image.c **** 
 113:Drivers/lvgl/src/widgets/image/lv_image.c **** /**********************
 114:Drivers/lvgl/src/widgets/image/lv_image.c ****  *  STATIC VARIABLES
 115:Drivers/lvgl/src/widgets/image/lv_image.c ****  **********************/
 116:Drivers/lvgl/src/widgets/image/lv_image.c **** const lv_obj_class_t lv_image_class = {
 117:Drivers/lvgl/src/widgets/image/lv_image.c ****     .constructor_cb = lv_image_constructor,
 118:Drivers/lvgl/src/widgets/image/lv_image.c ****     .destructor_cb = lv_image_destructor,
 119:Drivers/lvgl/src/widgets/image/lv_image.c ****     .event_cb = lv_image_event,
 120:Drivers/lvgl/src/widgets/image/lv_image.c ****     .width_def = LV_SIZE_CONTENT,
 121:Drivers/lvgl/src/widgets/image/lv_image.c ****     .height_def = LV_SIZE_CONTENT,
 122:Drivers/lvgl/src/widgets/image/lv_image.c ****     .instance_size = sizeof(lv_image_t),
 123:Drivers/lvgl/src/widgets/image/lv_image.c ****     .base_class = &lv_obj_class,
 124:Drivers/lvgl/src/widgets/image/lv_image.c ****     .name = "lv_image",
 125:Drivers/lvgl/src/widgets/image/lv_image.c ****     LV_PROPERTY_CLASS_FIELDS(image, IMAGE)
 126:Drivers/lvgl/src/widgets/image/lv_image.c **** };
 127:Drivers/lvgl/src/widgets/image/lv_image.c **** 
 128:Drivers/lvgl/src/widgets/image/lv_image.c **** /**********************
 129:Drivers/lvgl/src/widgets/image/lv_image.c ****  *      MACROS
 130:Drivers/lvgl/src/widgets/image/lv_image.c ****  **********************/
 131:Drivers/lvgl/src/widgets/image/lv_image.c **** 
 132:Drivers/lvgl/src/widgets/image/lv_image.c **** /**********************
 133:Drivers/lvgl/src/widgets/image/lv_image.c ****  *   GLOBAL FUNCTIONS
 134:Drivers/lvgl/src/widgets/image/lv_image.c ****  **********************/
 135:Drivers/lvgl/src/widgets/image/lv_image.c **** 
 136:Drivers/lvgl/src/widgets/image/lv_image.c **** lv_obj_t * lv_image_create(lv_obj_t * parent)
 137:Drivers/lvgl/src/widgets/image/lv_image.c **** {
 138:Drivers/lvgl/src/widgets/image/lv_image.c ****     LV_LOG_INFO("begin");
 139:Drivers/lvgl/src/widgets/image/lv_image.c ****     lv_obj_t * obj = lv_obj_class_create_obj(MY_CLASS, parent);
 140:Drivers/lvgl/src/widgets/image/lv_image.c ****     lv_obj_class_init_obj(obj);
 141:Drivers/lvgl/src/widgets/image/lv_image.c ****     return obj;
 142:Drivers/lvgl/src/widgets/image/lv_image.c **** }
 143:Drivers/lvgl/src/widgets/image/lv_image.c **** 
 144:Drivers/lvgl/src/widgets/image/lv_image.c **** /*=====================
ARM GAS  /var/folders/qx/2_175_4n2s19vhvtspjhb3qh0000gn/T//ccePDbYF.s 			page 4


 145:Drivers/lvgl/src/widgets/image/lv_image.c ****  * Setter functions
 146:Drivers/lvgl/src/widgets/image/lv_image.c ****  *====================*/
 147:Drivers/lvgl/src/widgets/image/lv_image.c **** 
 148:Drivers/lvgl/src/widgets/image/lv_image.c **** void lv_image_set_src(lv_obj_t * obj, const void * src)
 149:Drivers/lvgl/src/widgets/image/lv_image.c **** {
 150:Drivers/lvgl/src/widgets/image/lv_image.c ****     LV_ASSERT_OBJ(obj, MY_CLASS);
 151:Drivers/lvgl/src/widgets/image/lv_image.c **** 
 152:Drivers/lvgl/src/widgets/image/lv_image.c ****     lv_obj_invalidate(obj);
 153:Drivers/lvgl/src/widgets/image/lv_image.c **** 
 154:Drivers/lvgl/src/widgets/image/lv_image.c ****     lv_image_src_t src_type = lv_image_src_get_type(src);
 155:Drivers/lvgl/src/widgets/image/lv_image.c ****     lv_image_t * img = (lv_image_t *)obj;
 156:Drivers/lvgl/src/widgets/image/lv_image.c **** 
 157:Drivers/lvgl/src/widgets/image/lv_image.c **** #if LV_USE_LOG && LV_LOG_LEVEL <= LV_LOG_LEVEL_INFO
 158:Drivers/lvgl/src/widgets/image/lv_image.c ****     switch(src_type) {
 159:Drivers/lvgl/src/widgets/image/lv_image.c ****         case LV_IMAGE_SRC_FILE:
 160:Drivers/lvgl/src/widgets/image/lv_image.c ****             LV_LOG_TRACE("`LV_IMAGE_SRC_FILE` type found");
 161:Drivers/lvgl/src/widgets/image/lv_image.c ****             break;
 162:Drivers/lvgl/src/widgets/image/lv_image.c ****         case LV_IMAGE_SRC_VARIABLE:
 163:Drivers/lvgl/src/widgets/image/lv_image.c ****             LV_LOG_TRACE("`LV_IMAGE_SRC_VARIABLE` type found");
 164:Drivers/lvgl/src/widgets/image/lv_image.c ****             break;
 165:Drivers/lvgl/src/widgets/image/lv_image.c ****         case LV_IMAGE_SRC_SYMBOL:
 166:Drivers/lvgl/src/widgets/image/lv_image.c ****             LV_LOG_TRACE("`LV_IMAGE_SRC_SYMBOL` type found");
 167:Drivers/lvgl/src/widgets/image/lv_image.c ****             break;
 168:Drivers/lvgl/src/widgets/image/lv_image.c ****         default:
 169:Drivers/lvgl/src/widgets/image/lv_image.c ****             LV_LOG_WARN("unknown type");
 170:Drivers/lvgl/src/widgets/image/lv_image.c ****     }
 171:Drivers/lvgl/src/widgets/image/lv_image.c **** #endif
 172:Drivers/lvgl/src/widgets/image/lv_image.c **** 
 173:Drivers/lvgl/src/widgets/image/lv_image.c ****     /*If the new source type is unknown free the memories of the old source*/
 174:Drivers/lvgl/src/widgets/image/lv_image.c ****     if(src_type == LV_IMAGE_SRC_UNKNOWN) {
 175:Drivers/lvgl/src/widgets/image/lv_image.c ****         if(src) LV_LOG_WARN("unknown image type");
 176:Drivers/lvgl/src/widgets/image/lv_image.c ****         reset_image_attributes(obj);
 177:Drivers/lvgl/src/widgets/image/lv_image.c ****         return;
 178:Drivers/lvgl/src/widgets/image/lv_image.c ****     }
 179:Drivers/lvgl/src/widgets/image/lv_image.c **** 
 180:Drivers/lvgl/src/widgets/image/lv_image.c ****     lv_image_header_t header;
 181:Drivers/lvgl/src/widgets/image/lv_image.c ****     lv_result_t res = lv_image_decoder_get_info(src, &header);
 182:Drivers/lvgl/src/widgets/image/lv_image.c ****     if(res != LV_RESULT_OK) {
 183:Drivers/lvgl/src/widgets/image/lv_image.c ****         if(src_type == LV_IMAGE_SRC_FILE) {
 184:Drivers/lvgl/src/widgets/image/lv_image.c ****             LV_LOG_WARN("failed to get image info: %s", (const char *)src);
 185:Drivers/lvgl/src/widgets/image/lv_image.c ****         }
 186:Drivers/lvgl/src/widgets/image/lv_image.c ****         else {
 187:Drivers/lvgl/src/widgets/image/lv_image.c ****             LV_LOG_WARN("failed to get image info: %p", src);
 188:Drivers/lvgl/src/widgets/image/lv_image.c ****         }
 189:Drivers/lvgl/src/widgets/image/lv_image.c ****         reset_image_attributes(obj);
 190:Drivers/lvgl/src/widgets/image/lv_image.c ****         return;
 191:Drivers/lvgl/src/widgets/image/lv_image.c ****     }
 192:Drivers/lvgl/src/widgets/image/lv_image.c **** 
 193:Drivers/lvgl/src/widgets/image/lv_image.c ****     /*Save the source*/
 194:Drivers/lvgl/src/widgets/image/lv_image.c ****     if(src_type == LV_IMAGE_SRC_VARIABLE) {
 195:Drivers/lvgl/src/widgets/image/lv_image.c ****         if(header.flags & LV_IMAGE_FLAGS_ALLOCATED) {
 196:Drivers/lvgl/src/widgets/image/lv_image.c ****             lv_draw_buf_t * buf = (lv_draw_buf_t *)src;
 197:Drivers/lvgl/src/widgets/image/lv_image.c ****             if(!buf->unaligned_data || !buf->handlers) {
 198:Drivers/lvgl/src/widgets/image/lv_image.c ****                 LV_LOG_ERROR("Invalid draw buffer, unaligned_data: %p, handlers: %p",
 199:Drivers/lvgl/src/widgets/image/lv_image.c ****                              buf->unaligned_data, (void *)buf->handlers);
 200:Drivers/lvgl/src/widgets/image/lv_image.c ****                 return;
 201:Drivers/lvgl/src/widgets/image/lv_image.c ****             }
ARM GAS  /var/folders/qx/2_175_4n2s19vhvtspjhb3qh0000gn/T//ccePDbYF.s 			page 5


 202:Drivers/lvgl/src/widgets/image/lv_image.c ****         }
 203:Drivers/lvgl/src/widgets/image/lv_image.c **** 
 204:Drivers/lvgl/src/widgets/image/lv_image.c ****         /*If memory was allocated because of the previous `src_type` then free it*/
 205:Drivers/lvgl/src/widgets/image/lv_image.c ****         if(img->src_type == LV_IMAGE_SRC_FILE || img->src_type == LV_IMAGE_SRC_SYMBOL) {
 206:Drivers/lvgl/src/widgets/image/lv_image.c ****             lv_free((void *)img->src);
 207:Drivers/lvgl/src/widgets/image/lv_image.c ****         }
 208:Drivers/lvgl/src/widgets/image/lv_image.c ****         img->src = src;
 209:Drivers/lvgl/src/widgets/image/lv_image.c ****     }
 210:Drivers/lvgl/src/widgets/image/lv_image.c ****     else if(src_type == LV_IMAGE_SRC_FILE || src_type == LV_IMAGE_SRC_SYMBOL) {
 211:Drivers/lvgl/src/widgets/image/lv_image.c ****         /*If the new and the old src are the same then it was only a refresh.*/
 212:Drivers/lvgl/src/widgets/image/lv_image.c ****         if(img->src != src) {
 213:Drivers/lvgl/src/widgets/image/lv_image.c ****             const void * old_src = NULL;
 214:Drivers/lvgl/src/widgets/image/lv_image.c ****             /*If memory was allocated because of the previous `src_type` then save its pointer and 
 215:Drivers/lvgl/src/widgets/image/lv_image.c ****              *It's important to allocate first to be sure the new data will be on a new address.
 216:Drivers/lvgl/src/widgets/image/lv_image.c ****              *Else `img_cache` wouldn't see the change in source.*/
 217:Drivers/lvgl/src/widgets/image/lv_image.c ****             if(img->src_type == LV_IMAGE_SRC_FILE || img->src_type == LV_IMAGE_SRC_SYMBOL) {
 218:Drivers/lvgl/src/widgets/image/lv_image.c ****                 old_src = img->src;
 219:Drivers/lvgl/src/widgets/image/lv_image.c ****             }
 220:Drivers/lvgl/src/widgets/image/lv_image.c ****             char * new_str = lv_strdup(src);
 221:Drivers/lvgl/src/widgets/image/lv_image.c ****             LV_ASSERT_MALLOC(new_str);
 222:Drivers/lvgl/src/widgets/image/lv_image.c ****             if(new_str == NULL) return;
 223:Drivers/lvgl/src/widgets/image/lv_image.c ****             img->src = new_str;
 224:Drivers/lvgl/src/widgets/image/lv_image.c **** 
 225:Drivers/lvgl/src/widgets/image/lv_image.c ****             if(old_src) lv_free((void *)old_src);
 226:Drivers/lvgl/src/widgets/image/lv_image.c ****         }
 227:Drivers/lvgl/src/widgets/image/lv_image.c ****     }
 228:Drivers/lvgl/src/widgets/image/lv_image.c **** 
 229:Drivers/lvgl/src/widgets/image/lv_image.c ****     if(src_type == LV_IMAGE_SRC_SYMBOL) {
 230:Drivers/lvgl/src/widgets/image/lv_image.c ****         /*`lv_image_dsc_get_info` couldn't set the width and height of a font so set it here*/
 231:Drivers/lvgl/src/widgets/image/lv_image.c ****         const lv_font_t * font = lv_obj_get_style_text_font(obj, LV_PART_MAIN);
 232:Drivers/lvgl/src/widgets/image/lv_image.c ****         lv_text_attributes_t attributes = {0};
 233:Drivers/lvgl/src/widgets/image/lv_image.c **** 
 234:Drivers/lvgl/src/widgets/image/lv_image.c ****         attributes.letter_space = lv_obj_get_style_text_letter_space(obj, LV_PART_MAIN);
 235:Drivers/lvgl/src/widgets/image/lv_image.c ****         attributes.line_space = lv_obj_get_style_text_line_space(obj, LV_PART_MAIN);
 236:Drivers/lvgl/src/widgets/image/lv_image.c ****         attributes.max_width = LV_COORD_MAX;
 237:Drivers/lvgl/src/widgets/image/lv_image.c ****         attributes.text_flags = LV_TEXT_FLAG_NONE;
 238:Drivers/lvgl/src/widgets/image/lv_image.c **** 
 239:Drivers/lvgl/src/widgets/image/lv_image.c ****         lv_point_t size;
 240:Drivers/lvgl/src/widgets/image/lv_image.c ****         lv_text_get_size_attributes(&size, src, font, &attributes);
 241:Drivers/lvgl/src/widgets/image/lv_image.c ****         header.w = size.x;
 242:Drivers/lvgl/src/widgets/image/lv_image.c ****         header.h = size.y;
 243:Drivers/lvgl/src/widgets/image/lv_image.c ****     }
 244:Drivers/lvgl/src/widgets/image/lv_image.c **** 
 245:Drivers/lvgl/src/widgets/image/lv_image.c ****     img->src_type = src_type;
 246:Drivers/lvgl/src/widgets/image/lv_image.c ****     img->w        = header.w;
 247:Drivers/lvgl/src/widgets/image/lv_image.c ****     img->h        = header.h;
 248:Drivers/lvgl/src/widgets/image/lv_image.c ****     img->cf       = header.cf;
 249:Drivers/lvgl/src/widgets/image/lv_image.c **** 
 250:Drivers/lvgl/src/widgets/image/lv_image.c ****     lv_obj_refresh_self_size(obj);
 251:Drivers/lvgl/src/widgets/image/lv_image.c **** 
 252:Drivers/lvgl/src/widgets/image/lv_image.c ****     update_align(obj);
 253:Drivers/lvgl/src/widgets/image/lv_image.c **** 
 254:Drivers/lvgl/src/widgets/image/lv_image.c ****     /*Provide enough room for the rotated corners*/
 255:Drivers/lvgl/src/widgets/image/lv_image.c ****     if(img->rotation || img->scale_x != LV_SCALE_NONE || img->scale_y != LV_SCALE_NONE) {
 256:Drivers/lvgl/src/widgets/image/lv_image.c ****         lv_obj_refresh_ext_draw_size(obj);
 257:Drivers/lvgl/src/widgets/image/lv_image.c ****     }
 258:Drivers/lvgl/src/widgets/image/lv_image.c **** 
ARM GAS  /var/folders/qx/2_175_4n2s19vhvtspjhb3qh0000gn/T//ccePDbYF.s 			page 6


 259:Drivers/lvgl/src/widgets/image/lv_image.c ****     lv_obj_invalidate(obj);
 260:Drivers/lvgl/src/widgets/image/lv_image.c **** }
 261:Drivers/lvgl/src/widgets/image/lv_image.c **** 
 262:Drivers/lvgl/src/widgets/image/lv_image.c **** void lv_image_set_offset_x(lv_obj_t * obj, int32_t x)
 263:Drivers/lvgl/src/widgets/image/lv_image.c **** {
 264:Drivers/lvgl/src/widgets/image/lv_image.c ****     LV_ASSERT_OBJ(obj, MY_CLASS);
 265:Drivers/lvgl/src/widgets/image/lv_image.c **** 
 266:Drivers/lvgl/src/widgets/image/lv_image.c ****     lv_image_t * img = (lv_image_t *)obj;
 267:Drivers/lvgl/src/widgets/image/lv_image.c **** 
 268:Drivers/lvgl/src/widgets/image/lv_image.c ****     img->offset.x = x;
 269:Drivers/lvgl/src/widgets/image/lv_image.c ****     lv_obj_invalidate(obj);
 270:Drivers/lvgl/src/widgets/image/lv_image.c **** }
 271:Drivers/lvgl/src/widgets/image/lv_image.c **** 
 272:Drivers/lvgl/src/widgets/image/lv_image.c **** void lv_image_set_offset_y(lv_obj_t * obj, int32_t y)
 273:Drivers/lvgl/src/widgets/image/lv_image.c **** {
 274:Drivers/lvgl/src/widgets/image/lv_image.c ****     LV_ASSERT_OBJ(obj, MY_CLASS);
 275:Drivers/lvgl/src/widgets/image/lv_image.c **** 
 276:Drivers/lvgl/src/widgets/image/lv_image.c ****     lv_image_t * img = (lv_image_t *)obj;
 277:Drivers/lvgl/src/widgets/image/lv_image.c **** 
 278:Drivers/lvgl/src/widgets/image/lv_image.c ****     img->offset.y = y;
 279:Drivers/lvgl/src/widgets/image/lv_image.c ****     lv_obj_invalidate(obj);
 280:Drivers/lvgl/src/widgets/image/lv_image.c **** }
 281:Drivers/lvgl/src/widgets/image/lv_image.c **** 
 282:Drivers/lvgl/src/widgets/image/lv_image.c **** void lv_image_set_rotation(lv_obj_t * obj, int32_t angle)
 283:Drivers/lvgl/src/widgets/image/lv_image.c **** {
 284:Drivers/lvgl/src/widgets/image/lv_image.c ****     LV_ASSERT_OBJ(obj, MY_CLASS);
 285:Drivers/lvgl/src/widgets/image/lv_image.c **** 
 286:Drivers/lvgl/src/widgets/image/lv_image.c ****     lv_image_t * img = (lv_image_t *)obj;
 287:Drivers/lvgl/src/widgets/image/lv_image.c ****     if(img->align > _LV_IMAGE_ALIGN_AUTO_TRANSFORM) {
 288:Drivers/lvgl/src/widgets/image/lv_image.c ****         angle = 0;
 289:Drivers/lvgl/src/widgets/image/lv_image.c ****     }
 290:Drivers/lvgl/src/widgets/image/lv_image.c ****     else {
 291:Drivers/lvgl/src/widgets/image/lv_image.c ****         while(angle >= 3600) angle -= 3600;
 292:Drivers/lvgl/src/widgets/image/lv_image.c ****         while(angle < 0) angle += 3600;
 293:Drivers/lvgl/src/widgets/image/lv_image.c ****     }
 294:Drivers/lvgl/src/widgets/image/lv_image.c **** 
 295:Drivers/lvgl/src/widgets/image/lv_image.c ****     if((uint32_t)angle == img->rotation) return;
 296:Drivers/lvgl/src/widgets/image/lv_image.c **** 
 297:Drivers/lvgl/src/widgets/image/lv_image.c ****     lv_obj_update_layout(obj);  /*Be sure the object's size is calculated*/
 298:Drivers/lvgl/src/widgets/image/lv_image.c ****     int32_t w = lv_obj_get_width(obj);
 299:Drivers/lvgl/src/widgets/image/lv_image.c ****     int32_t h = lv_obj_get_height(obj);
 300:Drivers/lvgl/src/widgets/image/lv_image.c ****     lv_area_t a;
 301:Drivers/lvgl/src/widgets/image/lv_image.c ****     lv_point_t pivot_px;
 302:Drivers/lvgl/src/widgets/image/lv_image.c ****     lv_image_get_pivot(obj, &pivot_px);
 303:Drivers/lvgl/src/widgets/image/lv_image.c ****     lv_image_buf_get_transformed_area(&a, w, h, img->rotation, img->scale_x, img->scale_y, &pivot_p
 304:Drivers/lvgl/src/widgets/image/lv_image.c ****     a.x1 += obj->coords.x1;
 305:Drivers/lvgl/src/widgets/image/lv_image.c ****     a.y1 += obj->coords.y1;
 306:Drivers/lvgl/src/widgets/image/lv_image.c ****     a.x2 += obj->coords.x1;
 307:Drivers/lvgl/src/widgets/image/lv_image.c ****     a.y2 += obj->coords.y1;
 308:Drivers/lvgl/src/widgets/image/lv_image.c ****     lv_obj_invalidate_area(obj, &a);
 309:Drivers/lvgl/src/widgets/image/lv_image.c **** 
 310:Drivers/lvgl/src/widgets/image/lv_image.c ****     img->rotation = angle;
 311:Drivers/lvgl/src/widgets/image/lv_image.c **** 
 312:Drivers/lvgl/src/widgets/image/lv_image.c ****     /* Disable invalidations because lv_obj_refresh_ext_draw_size would invalidate
 313:Drivers/lvgl/src/widgets/image/lv_image.c ****      * the whole ext draw area */
 314:Drivers/lvgl/src/widgets/image/lv_image.c ****     lv_display_t * disp = lv_obj_get_display(obj);
 315:Drivers/lvgl/src/widgets/image/lv_image.c ****     lv_display_enable_invalidation(disp, false);
ARM GAS  /var/folders/qx/2_175_4n2s19vhvtspjhb3qh0000gn/T//ccePDbYF.s 			page 7


 316:Drivers/lvgl/src/widgets/image/lv_image.c ****     lv_obj_refresh_ext_draw_size(obj);
 317:Drivers/lvgl/src/widgets/image/lv_image.c ****     lv_display_enable_invalidation(disp, true);
 318:Drivers/lvgl/src/widgets/image/lv_image.c **** 
 319:Drivers/lvgl/src/widgets/image/lv_image.c ****     lv_image_buf_get_transformed_area(&a, w, h, img->rotation, img->scale_x, img->scale_y, &pivot_p
 320:Drivers/lvgl/src/widgets/image/lv_image.c ****     a.x1 += obj->coords.x1;
 321:Drivers/lvgl/src/widgets/image/lv_image.c ****     a.y1 += obj->coords.y1;
 322:Drivers/lvgl/src/widgets/image/lv_image.c ****     a.x2 += obj->coords.x1;
 323:Drivers/lvgl/src/widgets/image/lv_image.c ****     a.y2 += obj->coords.y1;
 324:Drivers/lvgl/src/widgets/image/lv_image.c ****     lv_obj_invalidate_area(obj, &a);
 325:Drivers/lvgl/src/widgets/image/lv_image.c **** }
 326:Drivers/lvgl/src/widgets/image/lv_image.c **** 
 327:Drivers/lvgl/src/widgets/image/lv_image.c **** void lv_image_set_pivot(lv_obj_t * obj, int32_t x, int32_t y)
 328:Drivers/lvgl/src/widgets/image/lv_image.c **** {
 329:Drivers/lvgl/src/widgets/image/lv_image.c ****     LV_ASSERT_OBJ(obj, MY_CLASS);
 330:Drivers/lvgl/src/widgets/image/lv_image.c **** 
 331:Drivers/lvgl/src/widgets/image/lv_image.c ****     lv_image_t * img = (lv_image_t *)obj;
 332:Drivers/lvgl/src/widgets/image/lv_image.c ****     if(img->align > _LV_IMAGE_ALIGN_AUTO_TRANSFORM) {
 333:Drivers/lvgl/src/widgets/image/lv_image.c ****         x = 0;
 334:Drivers/lvgl/src/widgets/image/lv_image.c ****         y = 0;
 335:Drivers/lvgl/src/widgets/image/lv_image.c ****     }
 336:Drivers/lvgl/src/widgets/image/lv_image.c **** 
 337:Drivers/lvgl/src/widgets/image/lv_image.c ****     if(img->pivot.x == x && img->pivot.y == y) return;
 338:Drivers/lvgl/src/widgets/image/lv_image.c **** 
 339:Drivers/lvgl/src/widgets/image/lv_image.c ****     lv_obj_update_layout(obj);  /*Be sure the object's size is calculated*/
 340:Drivers/lvgl/src/widgets/image/lv_image.c ****     int32_t w = lv_obj_get_width(obj);
 341:Drivers/lvgl/src/widgets/image/lv_image.c ****     int32_t h = lv_obj_get_height(obj);
 342:Drivers/lvgl/src/widgets/image/lv_image.c ****     lv_area_t a;
 343:Drivers/lvgl/src/widgets/image/lv_image.c ****     lv_point_t pivot_px;
 344:Drivers/lvgl/src/widgets/image/lv_image.c ****     lv_image_get_pivot(obj, &pivot_px);
 345:Drivers/lvgl/src/widgets/image/lv_image.c ****     lv_image_buf_get_transformed_area(&a, w, h, img->rotation, img->scale_x, img->scale_y, &pivot_p
 346:Drivers/lvgl/src/widgets/image/lv_image.c ****     a.x1 += obj->coords.x1;
 347:Drivers/lvgl/src/widgets/image/lv_image.c ****     a.y1 += obj->coords.y1;
 348:Drivers/lvgl/src/widgets/image/lv_image.c ****     a.x2 += obj->coords.x1;
 349:Drivers/lvgl/src/widgets/image/lv_image.c ****     a.y2 += obj->coords.y1;
 350:Drivers/lvgl/src/widgets/image/lv_image.c ****     lv_obj_invalidate_area(obj, &a);
 351:Drivers/lvgl/src/widgets/image/lv_image.c **** 
 352:Drivers/lvgl/src/widgets/image/lv_image.c ****     lv_point_set(&img->pivot, x, y);
 353:Drivers/lvgl/src/widgets/image/lv_image.c **** 
 354:Drivers/lvgl/src/widgets/image/lv_image.c ****     /* Disable invalidations because lv_obj_refresh_ext_draw_size would invalidate
 355:Drivers/lvgl/src/widgets/image/lv_image.c ****      * the whole ext draw area */
 356:Drivers/lvgl/src/widgets/image/lv_image.c ****     lv_display_t * disp = lv_obj_get_display(obj);
 357:Drivers/lvgl/src/widgets/image/lv_image.c ****     lv_display_enable_invalidation(disp, false);
 358:Drivers/lvgl/src/widgets/image/lv_image.c ****     lv_obj_refresh_ext_draw_size(obj);
 359:Drivers/lvgl/src/widgets/image/lv_image.c ****     lv_display_enable_invalidation(disp, true);
 360:Drivers/lvgl/src/widgets/image/lv_image.c **** 
 361:Drivers/lvgl/src/widgets/image/lv_image.c ****     lv_image_get_pivot(obj, &pivot_px);
 362:Drivers/lvgl/src/widgets/image/lv_image.c ****     lv_image_buf_get_transformed_area(&a, w, h, img->rotation, img->scale_x, img->scale_y, &pivot_p
 363:Drivers/lvgl/src/widgets/image/lv_image.c ****     a.x1 += obj->coords.x1;
 364:Drivers/lvgl/src/widgets/image/lv_image.c ****     a.y1 += obj->coords.y1;
 365:Drivers/lvgl/src/widgets/image/lv_image.c ****     a.x2 += obj->coords.x1;
 366:Drivers/lvgl/src/widgets/image/lv_image.c ****     a.y2 += obj->coords.y1;
 367:Drivers/lvgl/src/widgets/image/lv_image.c ****     lv_obj_invalidate_area(obj, &a);
 368:Drivers/lvgl/src/widgets/image/lv_image.c **** }
 369:Drivers/lvgl/src/widgets/image/lv_image.c **** 
 370:Drivers/lvgl/src/widgets/image/lv_image.c **** void lv_image_set_pivot_x(lv_obj_t * obj, int32_t x)
 371:Drivers/lvgl/src/widgets/image/lv_image.c **** {
 372:Drivers/lvgl/src/widgets/image/lv_image.c ****     LV_ASSERT_OBJ(obj, MY_CLASS);
ARM GAS  /var/folders/qx/2_175_4n2s19vhvtspjhb3qh0000gn/T//ccePDbYF.s 			page 8


 373:Drivers/lvgl/src/widgets/image/lv_image.c **** 
 374:Drivers/lvgl/src/widgets/image/lv_image.c ****     lv_image_t * img = (lv_image_t *)obj;
 375:Drivers/lvgl/src/widgets/image/lv_image.c ****     lv_image_set_pivot(obj, x, img->pivot.y);
 376:Drivers/lvgl/src/widgets/image/lv_image.c **** }
 377:Drivers/lvgl/src/widgets/image/lv_image.c **** 
 378:Drivers/lvgl/src/widgets/image/lv_image.c **** void lv_image_set_pivot_y(lv_obj_t * obj, int32_t y)
 379:Drivers/lvgl/src/widgets/image/lv_image.c **** {
 380:Drivers/lvgl/src/widgets/image/lv_image.c ****     LV_ASSERT_OBJ(obj, MY_CLASS);
 381:Drivers/lvgl/src/widgets/image/lv_image.c **** 
 382:Drivers/lvgl/src/widgets/image/lv_image.c ****     lv_image_t * img = (lv_image_t *)obj;
 383:Drivers/lvgl/src/widgets/image/lv_image.c ****     lv_image_set_pivot(obj, img->pivot.x, y);
 384:Drivers/lvgl/src/widgets/image/lv_image.c **** }
 385:Drivers/lvgl/src/widgets/image/lv_image.c **** 
 386:Drivers/lvgl/src/widgets/image/lv_image.c **** void lv_image_set_scale(lv_obj_t * obj, uint32_t zoom)
 387:Drivers/lvgl/src/widgets/image/lv_image.c **** {
 388:Drivers/lvgl/src/widgets/image/lv_image.c ****     LV_ASSERT_OBJ(obj, MY_CLASS);
 389:Drivers/lvgl/src/widgets/image/lv_image.c **** 
 390:Drivers/lvgl/src/widgets/image/lv_image.c ****     lv_image_t * img = (lv_image_t *)obj;
 391:Drivers/lvgl/src/widgets/image/lv_image.c **** 
 392:Drivers/lvgl/src/widgets/image/lv_image.c ****     /*If scale is set internally, do no overwrite it*/
 393:Drivers/lvgl/src/widgets/image/lv_image.c ****     if(img->align > _LV_IMAGE_ALIGN_AUTO_TRANSFORM) return;
 394:Drivers/lvgl/src/widgets/image/lv_image.c **** 
 395:Drivers/lvgl/src/widgets/image/lv_image.c ****     if(zoom == img->scale_x && zoom == img->scale_y) return;
 396:Drivers/lvgl/src/widgets/image/lv_image.c **** 
 397:Drivers/lvgl/src/widgets/image/lv_image.c ****     if(zoom == 0) zoom = 1;
 398:Drivers/lvgl/src/widgets/image/lv_image.c **** 
 399:Drivers/lvgl/src/widgets/image/lv_image.c ****     scale_update(obj, zoom, zoom);
 400:Drivers/lvgl/src/widgets/image/lv_image.c **** }
 401:Drivers/lvgl/src/widgets/image/lv_image.c **** 
 402:Drivers/lvgl/src/widgets/image/lv_image.c **** void lv_image_set_scale_x(lv_obj_t * obj, uint32_t zoom)
 403:Drivers/lvgl/src/widgets/image/lv_image.c **** {
 404:Drivers/lvgl/src/widgets/image/lv_image.c ****     LV_ASSERT_OBJ(obj, MY_CLASS);
 405:Drivers/lvgl/src/widgets/image/lv_image.c **** 
 406:Drivers/lvgl/src/widgets/image/lv_image.c ****     lv_image_t * img = (lv_image_t *)obj;
 407:Drivers/lvgl/src/widgets/image/lv_image.c **** 
 408:Drivers/lvgl/src/widgets/image/lv_image.c ****     /*If scale is set internally, do no overwrite it*/
 409:Drivers/lvgl/src/widgets/image/lv_image.c ****     if(img->align > _LV_IMAGE_ALIGN_AUTO_TRANSFORM) return;
 410:Drivers/lvgl/src/widgets/image/lv_image.c **** 
 411:Drivers/lvgl/src/widgets/image/lv_image.c ****     if(zoom == img->scale_x) return;
 412:Drivers/lvgl/src/widgets/image/lv_image.c **** 
 413:Drivers/lvgl/src/widgets/image/lv_image.c ****     if(zoom == 0) zoom = 1;
 414:Drivers/lvgl/src/widgets/image/lv_image.c **** 
 415:Drivers/lvgl/src/widgets/image/lv_image.c ****     scale_update(obj, zoom, img->scale_y);
 416:Drivers/lvgl/src/widgets/image/lv_image.c **** }
 417:Drivers/lvgl/src/widgets/image/lv_image.c **** 
 418:Drivers/lvgl/src/widgets/image/lv_image.c **** void lv_image_set_scale_y(lv_obj_t * obj, uint32_t zoom)
 419:Drivers/lvgl/src/widgets/image/lv_image.c **** {
 420:Drivers/lvgl/src/widgets/image/lv_image.c ****     LV_ASSERT_OBJ(obj, MY_CLASS);
 421:Drivers/lvgl/src/widgets/image/lv_image.c **** 
 422:Drivers/lvgl/src/widgets/image/lv_image.c ****     lv_image_t * img = (lv_image_t *)obj;
 423:Drivers/lvgl/src/widgets/image/lv_image.c **** 
 424:Drivers/lvgl/src/widgets/image/lv_image.c ****     /*If scale is set internally, do no overwrite it*/
 425:Drivers/lvgl/src/widgets/image/lv_image.c ****     if(img->align > _LV_IMAGE_ALIGN_AUTO_TRANSFORM) return;
 426:Drivers/lvgl/src/widgets/image/lv_image.c **** 
 427:Drivers/lvgl/src/widgets/image/lv_image.c ****     if(zoom == img->scale_y) return;
 428:Drivers/lvgl/src/widgets/image/lv_image.c **** 
 429:Drivers/lvgl/src/widgets/image/lv_image.c ****     if(zoom == 0) zoom = 1;
ARM GAS  /var/folders/qx/2_175_4n2s19vhvtspjhb3qh0000gn/T//ccePDbYF.s 			page 9


 430:Drivers/lvgl/src/widgets/image/lv_image.c **** 
 431:Drivers/lvgl/src/widgets/image/lv_image.c ****     scale_update(obj, img->scale_x, zoom);
 432:Drivers/lvgl/src/widgets/image/lv_image.c **** }
 433:Drivers/lvgl/src/widgets/image/lv_image.c **** 
 434:Drivers/lvgl/src/widgets/image/lv_image.c **** void lv_image_set_blend_mode(lv_obj_t * obj, lv_blend_mode_t blend_mode)
 435:Drivers/lvgl/src/widgets/image/lv_image.c **** {
 436:Drivers/lvgl/src/widgets/image/lv_image.c ****     LV_ASSERT_OBJ(obj, MY_CLASS);
 437:Drivers/lvgl/src/widgets/image/lv_image.c **** 
 438:Drivers/lvgl/src/widgets/image/lv_image.c ****     lv_image_t * img = (lv_image_t *)obj;
 439:Drivers/lvgl/src/widgets/image/lv_image.c **** 
 440:Drivers/lvgl/src/widgets/image/lv_image.c ****     /*If scale is set internally, do no overwrite it*/
 441:Drivers/lvgl/src/widgets/image/lv_image.c ****     if(img->blend_mode == blend_mode) return;
 442:Drivers/lvgl/src/widgets/image/lv_image.c **** 
 443:Drivers/lvgl/src/widgets/image/lv_image.c ****     img->blend_mode = blend_mode;
 444:Drivers/lvgl/src/widgets/image/lv_image.c **** 
 445:Drivers/lvgl/src/widgets/image/lv_image.c ****     lv_obj_invalidate(obj);
 446:Drivers/lvgl/src/widgets/image/lv_image.c **** }
 447:Drivers/lvgl/src/widgets/image/lv_image.c **** 
 448:Drivers/lvgl/src/widgets/image/lv_image.c **** void lv_image_set_antialias(lv_obj_t * obj, bool antialias)
 449:Drivers/lvgl/src/widgets/image/lv_image.c **** {
 450:Drivers/lvgl/src/widgets/image/lv_image.c ****     LV_ASSERT_OBJ(obj, MY_CLASS);
 451:Drivers/lvgl/src/widgets/image/lv_image.c **** 
 452:Drivers/lvgl/src/widgets/image/lv_image.c ****     lv_image_t * img = (lv_image_t *)obj;
 453:Drivers/lvgl/src/widgets/image/lv_image.c ****     if(antialias == img->antialias) return;
 454:Drivers/lvgl/src/widgets/image/lv_image.c **** 
 455:Drivers/lvgl/src/widgets/image/lv_image.c ****     img->antialias = antialias;
 456:Drivers/lvgl/src/widgets/image/lv_image.c ****     lv_obj_invalidate(obj);
 457:Drivers/lvgl/src/widgets/image/lv_image.c **** }
 458:Drivers/lvgl/src/widgets/image/lv_image.c **** 
 459:Drivers/lvgl/src/widgets/image/lv_image.c **** void lv_image_set_inner_align(lv_obj_t * obj, lv_image_align_t align)
 460:Drivers/lvgl/src/widgets/image/lv_image.c **** {
 461:Drivers/lvgl/src/widgets/image/lv_image.c ****     LV_ASSERT_OBJ(obj, MY_CLASS);
 462:Drivers/lvgl/src/widgets/image/lv_image.c **** 
 463:Drivers/lvgl/src/widgets/image/lv_image.c ****     lv_image_t * img = (lv_image_t *)obj;
 464:Drivers/lvgl/src/widgets/image/lv_image.c ****     if(align == img->align) return;
 465:Drivers/lvgl/src/widgets/image/lv_image.c **** 
 466:Drivers/lvgl/src/widgets/image/lv_image.c ****     /*If we're removing STRETCH, reset the scale*/
 467:Drivers/lvgl/src/widgets/image/lv_image.c ****     if(img->align == LV_IMAGE_ALIGN_STRETCH || img->align == LV_IMAGE_ALIGN_CONTAIN ||
 468:Drivers/lvgl/src/widgets/image/lv_image.c ****        img->align == LV_IMAGE_ALIGN_COVER) {
 469:Drivers/lvgl/src/widgets/image/lv_image.c ****         lv_image_set_scale(obj, LV_SCALE_NONE);
 470:Drivers/lvgl/src/widgets/image/lv_image.c ****     }
 471:Drivers/lvgl/src/widgets/image/lv_image.c **** 
 472:Drivers/lvgl/src/widgets/image/lv_image.c ****     img->align = align;
 473:Drivers/lvgl/src/widgets/image/lv_image.c ****     update_align(obj);
 474:Drivers/lvgl/src/widgets/image/lv_image.c **** 
 475:Drivers/lvgl/src/widgets/image/lv_image.c ****     lv_obj_invalidate(obj);
 476:Drivers/lvgl/src/widgets/image/lv_image.c **** }
 477:Drivers/lvgl/src/widgets/image/lv_image.c **** 
 478:Drivers/lvgl/src/widgets/image/lv_image.c **** void lv_image_set_bitmap_map_src(lv_obj_t * obj, const lv_image_dsc_t * src)
 479:Drivers/lvgl/src/widgets/image/lv_image.c **** {
 480:Drivers/lvgl/src/widgets/image/lv_image.c ****     LV_ASSERT_OBJ(obj, MY_CLASS);
 481:Drivers/lvgl/src/widgets/image/lv_image.c ****     lv_image_t * img = (lv_image_t *)obj;
 482:Drivers/lvgl/src/widgets/image/lv_image.c ****     img->bitmap_mask_src = src;
 483:Drivers/lvgl/src/widgets/image/lv_image.c ****     lv_obj_invalidate(obj);
 484:Drivers/lvgl/src/widgets/image/lv_image.c **** }
 485:Drivers/lvgl/src/widgets/image/lv_image.c **** 
 486:Drivers/lvgl/src/widgets/image/lv_image.c **** /*=====================
ARM GAS  /var/folders/qx/2_175_4n2s19vhvtspjhb3qh0000gn/T//ccePDbYF.s 			page 10


 487:Drivers/lvgl/src/widgets/image/lv_image.c ****  * Getter functions
 488:Drivers/lvgl/src/widgets/image/lv_image.c ****  *====================*/
 489:Drivers/lvgl/src/widgets/image/lv_image.c **** 
 490:Drivers/lvgl/src/widgets/image/lv_image.c **** const void * lv_image_get_src(lv_obj_t * obj)
 491:Drivers/lvgl/src/widgets/image/lv_image.c **** {
 492:Drivers/lvgl/src/widgets/image/lv_image.c ****     LV_ASSERT_OBJ(obj, MY_CLASS);
 493:Drivers/lvgl/src/widgets/image/lv_image.c **** 
 494:Drivers/lvgl/src/widgets/image/lv_image.c ****     lv_image_t * img = (lv_image_t *)obj;
 495:Drivers/lvgl/src/widgets/image/lv_image.c **** 
 496:Drivers/lvgl/src/widgets/image/lv_image.c ****     return img->src;
 497:Drivers/lvgl/src/widgets/image/lv_image.c **** }
 498:Drivers/lvgl/src/widgets/image/lv_image.c **** 
 499:Drivers/lvgl/src/widgets/image/lv_image.c **** int32_t lv_image_get_offset_x(lv_obj_t * obj)
 500:Drivers/lvgl/src/widgets/image/lv_image.c **** {
 501:Drivers/lvgl/src/widgets/image/lv_image.c ****     LV_ASSERT_OBJ(obj, MY_CLASS);
 502:Drivers/lvgl/src/widgets/image/lv_image.c **** 
 503:Drivers/lvgl/src/widgets/image/lv_image.c ****     lv_image_t * img = (lv_image_t *)obj;
 504:Drivers/lvgl/src/widgets/image/lv_image.c **** 
 505:Drivers/lvgl/src/widgets/image/lv_image.c ****     return img->offset.x;
 506:Drivers/lvgl/src/widgets/image/lv_image.c **** }
 507:Drivers/lvgl/src/widgets/image/lv_image.c **** 
 508:Drivers/lvgl/src/widgets/image/lv_image.c **** int32_t lv_image_get_offset_y(lv_obj_t * obj)
 509:Drivers/lvgl/src/widgets/image/lv_image.c **** {
 510:Drivers/lvgl/src/widgets/image/lv_image.c ****     LV_ASSERT_OBJ(obj, MY_CLASS);
 511:Drivers/lvgl/src/widgets/image/lv_image.c **** 
 512:Drivers/lvgl/src/widgets/image/lv_image.c ****     lv_image_t * img = (lv_image_t *)obj;
 513:Drivers/lvgl/src/widgets/image/lv_image.c **** 
 514:Drivers/lvgl/src/widgets/image/lv_image.c ****     return img->offset.y;
 515:Drivers/lvgl/src/widgets/image/lv_image.c **** }
 516:Drivers/lvgl/src/widgets/image/lv_image.c **** 
 517:Drivers/lvgl/src/widgets/image/lv_image.c **** int32_t lv_image_get_rotation(lv_obj_t * obj)
 518:Drivers/lvgl/src/widgets/image/lv_image.c **** {
 519:Drivers/lvgl/src/widgets/image/lv_image.c ****     LV_ASSERT_OBJ(obj, MY_CLASS);
 520:Drivers/lvgl/src/widgets/image/lv_image.c **** 
 521:Drivers/lvgl/src/widgets/image/lv_image.c ****     lv_image_t * img = (lv_image_t *)obj;
 522:Drivers/lvgl/src/widgets/image/lv_image.c **** 
 523:Drivers/lvgl/src/widgets/image/lv_image.c ****     return img->rotation;
 524:Drivers/lvgl/src/widgets/image/lv_image.c **** }
 525:Drivers/lvgl/src/widgets/image/lv_image.c **** 
 526:Drivers/lvgl/src/widgets/image/lv_image.c **** void lv_image_get_pivot(lv_obj_t * obj, lv_point_t * pivot)
 527:Drivers/lvgl/src/widgets/image/lv_image.c **** {
 528:Drivers/lvgl/src/widgets/image/lv_image.c ****     LV_ASSERT_OBJ(obj, MY_CLASS);
 529:Drivers/lvgl/src/widgets/image/lv_image.c **** 
 530:Drivers/lvgl/src/widgets/image/lv_image.c ****     lv_image_t * img = (lv_image_t *)obj;
 531:Drivers/lvgl/src/widgets/image/lv_image.c **** 
 532:Drivers/lvgl/src/widgets/image/lv_image.c ****     pivot->x = lv_pct_to_px(img->pivot.x, img->w);
 533:Drivers/lvgl/src/widgets/image/lv_image.c ****     pivot->y = lv_pct_to_px(img->pivot.y, img->h);
 534:Drivers/lvgl/src/widgets/image/lv_image.c **** }
 535:Drivers/lvgl/src/widgets/image/lv_image.c **** 
 536:Drivers/lvgl/src/widgets/image/lv_image.c **** int32_t lv_image_get_scale(lv_obj_t * obj)
 537:Drivers/lvgl/src/widgets/image/lv_image.c **** {
 538:Drivers/lvgl/src/widgets/image/lv_image.c ****     LV_ASSERT_OBJ(obj, MY_CLASS);
 539:Drivers/lvgl/src/widgets/image/lv_image.c **** 
 540:Drivers/lvgl/src/widgets/image/lv_image.c ****     lv_image_t * img = (lv_image_t *)obj;
 541:Drivers/lvgl/src/widgets/image/lv_image.c **** 
 542:Drivers/lvgl/src/widgets/image/lv_image.c ****     return img->scale_x;
 543:Drivers/lvgl/src/widgets/image/lv_image.c **** }
ARM GAS  /var/folders/qx/2_175_4n2s19vhvtspjhb3qh0000gn/T//ccePDbYF.s 			page 11


 544:Drivers/lvgl/src/widgets/image/lv_image.c **** 
 545:Drivers/lvgl/src/widgets/image/lv_image.c **** int32_t lv_image_get_scale_x(lv_obj_t * obj)
 546:Drivers/lvgl/src/widgets/image/lv_image.c **** {
 547:Drivers/lvgl/src/widgets/image/lv_image.c ****     LV_ASSERT_OBJ(obj, MY_CLASS);
 548:Drivers/lvgl/src/widgets/image/lv_image.c **** 
 549:Drivers/lvgl/src/widgets/image/lv_image.c ****     lv_image_t * img = (lv_image_t *)obj;
 550:Drivers/lvgl/src/widgets/image/lv_image.c **** 
 551:Drivers/lvgl/src/widgets/image/lv_image.c ****     return img->scale_x;
 552:Drivers/lvgl/src/widgets/image/lv_image.c **** }
 553:Drivers/lvgl/src/widgets/image/lv_image.c **** 
 554:Drivers/lvgl/src/widgets/image/lv_image.c **** int32_t lv_image_get_scale_y(lv_obj_t * obj)
 555:Drivers/lvgl/src/widgets/image/lv_image.c **** {
 556:Drivers/lvgl/src/widgets/image/lv_image.c ****     LV_ASSERT_OBJ(obj, MY_CLASS);
 557:Drivers/lvgl/src/widgets/image/lv_image.c **** 
 558:Drivers/lvgl/src/widgets/image/lv_image.c ****     lv_image_t * img = (lv_image_t *)obj;
 559:Drivers/lvgl/src/widgets/image/lv_image.c **** 
 560:Drivers/lvgl/src/widgets/image/lv_image.c ****     return img->scale_y;
 561:Drivers/lvgl/src/widgets/image/lv_image.c **** }
 562:Drivers/lvgl/src/widgets/image/lv_image.c **** 
 563:Drivers/lvgl/src/widgets/image/lv_image.c **** int32_t lv_image_get_src_width(lv_obj_t * obj)
 564:Drivers/lvgl/src/widgets/image/lv_image.c **** {
 565:Drivers/lvgl/src/widgets/image/lv_image.c ****     LV_ASSERT_OBJ(obj, MY_CLASS);
 566:Drivers/lvgl/src/widgets/image/lv_image.c **** 
 567:Drivers/lvgl/src/widgets/image/lv_image.c ****     lv_image_t * img = (lv_image_t *)obj;
 568:Drivers/lvgl/src/widgets/image/lv_image.c ****     update_align(obj);
 569:Drivers/lvgl/src/widgets/image/lv_image.c **** 
 570:Drivers/lvgl/src/widgets/image/lv_image.c ****     return img->w;
 571:Drivers/lvgl/src/widgets/image/lv_image.c **** }
 572:Drivers/lvgl/src/widgets/image/lv_image.c **** 
 573:Drivers/lvgl/src/widgets/image/lv_image.c **** int32_t lv_image_get_src_height(lv_obj_t * obj)
 574:Drivers/lvgl/src/widgets/image/lv_image.c **** {
 575:Drivers/lvgl/src/widgets/image/lv_image.c ****     LV_ASSERT_OBJ(obj, MY_CLASS);
 576:Drivers/lvgl/src/widgets/image/lv_image.c **** 
 577:Drivers/lvgl/src/widgets/image/lv_image.c ****     lv_image_t * img = (lv_image_t *)obj;
 578:Drivers/lvgl/src/widgets/image/lv_image.c ****     update_align(obj);
 579:Drivers/lvgl/src/widgets/image/lv_image.c **** 
 580:Drivers/lvgl/src/widgets/image/lv_image.c ****     return img->h;
 581:Drivers/lvgl/src/widgets/image/lv_image.c **** }
 582:Drivers/lvgl/src/widgets/image/lv_image.c **** 
 583:Drivers/lvgl/src/widgets/image/lv_image.c **** int32_t lv_image_get_transformed_width(lv_obj_t * obj)
 584:Drivers/lvgl/src/widgets/image/lv_image.c **** {
 585:Drivers/lvgl/src/widgets/image/lv_image.c ****     LV_ASSERT_OBJ(obj, MY_CLASS);
 586:Drivers/lvgl/src/widgets/image/lv_image.c **** 
 587:Drivers/lvgl/src/widgets/image/lv_image.c ****     lv_image_t * img = (lv_image_t *)obj;
 588:Drivers/lvgl/src/widgets/image/lv_image.c ****     update_align(obj);
 589:Drivers/lvgl/src/widgets/image/lv_image.c **** 
 590:Drivers/lvgl/src/widgets/image/lv_image.c ****     lv_point_t pivot_px;
 591:Drivers/lvgl/src/widgets/image/lv_image.c ****     lv_image_get_pivot(obj, &pivot_px);
 592:Drivers/lvgl/src/widgets/image/lv_image.c **** 
 593:Drivers/lvgl/src/widgets/image/lv_image.c ****     lv_area_t a;
 594:Drivers/lvgl/src/widgets/image/lv_image.c ****     lv_image_buf_get_transformed_area(&a, img->w, img->h, img->rotation, img->scale_x, img->scale_y
 595:Drivers/lvgl/src/widgets/image/lv_image.c **** 
 596:Drivers/lvgl/src/widgets/image/lv_image.c ****     return lv_area_get_width(&a);
 597:Drivers/lvgl/src/widgets/image/lv_image.c **** }
 598:Drivers/lvgl/src/widgets/image/lv_image.c **** 
 599:Drivers/lvgl/src/widgets/image/lv_image.c **** int32_t lv_image_get_transformed_height(lv_obj_t * obj)
 600:Drivers/lvgl/src/widgets/image/lv_image.c **** {
ARM GAS  /var/folders/qx/2_175_4n2s19vhvtspjhb3qh0000gn/T//ccePDbYF.s 			page 12


 601:Drivers/lvgl/src/widgets/image/lv_image.c ****     LV_ASSERT_OBJ(obj, MY_CLASS);
 602:Drivers/lvgl/src/widgets/image/lv_image.c **** 
 603:Drivers/lvgl/src/widgets/image/lv_image.c ****     lv_image_t * img = (lv_image_t *)obj;
 604:Drivers/lvgl/src/widgets/image/lv_image.c ****     update_align(obj);
 605:Drivers/lvgl/src/widgets/image/lv_image.c **** 
 606:Drivers/lvgl/src/widgets/image/lv_image.c ****     lv_point_t pivot_px;
 607:Drivers/lvgl/src/widgets/image/lv_image.c ****     lv_image_get_pivot(obj, &pivot_px);
 608:Drivers/lvgl/src/widgets/image/lv_image.c **** 
 609:Drivers/lvgl/src/widgets/image/lv_image.c ****     lv_area_t a;
 610:Drivers/lvgl/src/widgets/image/lv_image.c ****     lv_image_buf_get_transformed_area(&a, img->w, img->h, img->rotation, img->scale_x, img->scale_y
 611:Drivers/lvgl/src/widgets/image/lv_image.c **** 
 612:Drivers/lvgl/src/widgets/image/lv_image.c ****     return lv_area_get_height(&a);
 613:Drivers/lvgl/src/widgets/image/lv_image.c **** }
 614:Drivers/lvgl/src/widgets/image/lv_image.c **** 
 615:Drivers/lvgl/src/widgets/image/lv_image.c **** lv_blend_mode_t lv_image_get_blend_mode(lv_obj_t * obj)
 616:Drivers/lvgl/src/widgets/image/lv_image.c **** {
 617:Drivers/lvgl/src/widgets/image/lv_image.c ****     LV_ASSERT_OBJ(obj, MY_CLASS);
 618:Drivers/lvgl/src/widgets/image/lv_image.c **** 
 619:Drivers/lvgl/src/widgets/image/lv_image.c ****     lv_image_t * img = (lv_image_t *)obj;
 620:Drivers/lvgl/src/widgets/image/lv_image.c **** 
 621:Drivers/lvgl/src/widgets/image/lv_image.c ****     return img->blend_mode;
 622:Drivers/lvgl/src/widgets/image/lv_image.c **** }
 623:Drivers/lvgl/src/widgets/image/lv_image.c **** 
 624:Drivers/lvgl/src/widgets/image/lv_image.c **** bool lv_image_get_antialias(lv_obj_t * obj)
 625:Drivers/lvgl/src/widgets/image/lv_image.c **** {
 626:Drivers/lvgl/src/widgets/image/lv_image.c ****     LV_ASSERT_OBJ(obj, MY_CLASS);
 627:Drivers/lvgl/src/widgets/image/lv_image.c **** 
 628:Drivers/lvgl/src/widgets/image/lv_image.c ****     lv_image_t * img = (lv_image_t *)obj;
 629:Drivers/lvgl/src/widgets/image/lv_image.c **** 
 630:Drivers/lvgl/src/widgets/image/lv_image.c ****     return img->antialias ? true : false;
 631:Drivers/lvgl/src/widgets/image/lv_image.c **** }
 632:Drivers/lvgl/src/widgets/image/lv_image.c **** 
 633:Drivers/lvgl/src/widgets/image/lv_image.c **** lv_image_align_t lv_image_get_inner_align(lv_obj_t * obj)
 634:Drivers/lvgl/src/widgets/image/lv_image.c **** {
 635:Drivers/lvgl/src/widgets/image/lv_image.c ****     LV_ASSERT_OBJ(obj, MY_CLASS);
 636:Drivers/lvgl/src/widgets/image/lv_image.c **** 
 637:Drivers/lvgl/src/widgets/image/lv_image.c ****     lv_image_t * img = (lv_image_t *)obj;
 638:Drivers/lvgl/src/widgets/image/lv_image.c **** 
 639:Drivers/lvgl/src/widgets/image/lv_image.c ****     return img->align;
 640:Drivers/lvgl/src/widgets/image/lv_image.c **** }
 641:Drivers/lvgl/src/widgets/image/lv_image.c **** 
 642:Drivers/lvgl/src/widgets/image/lv_image.c **** const lv_image_dsc_t * lv_image_get_bitmap_map_src(lv_obj_t * obj)
 643:Drivers/lvgl/src/widgets/image/lv_image.c **** {
 644:Drivers/lvgl/src/widgets/image/lv_image.c ****     LV_ASSERT_OBJ(obj, MY_CLASS);
 645:Drivers/lvgl/src/widgets/image/lv_image.c **** 
 646:Drivers/lvgl/src/widgets/image/lv_image.c ****     lv_image_t * img = (lv_image_t *)obj;
 647:Drivers/lvgl/src/widgets/image/lv_image.c **** 
 648:Drivers/lvgl/src/widgets/image/lv_image.c ****     return img->bitmap_mask_src;
 649:Drivers/lvgl/src/widgets/image/lv_image.c **** }
 650:Drivers/lvgl/src/widgets/image/lv_image.c **** 
 651:Drivers/lvgl/src/widgets/image/lv_image.c **** 
 652:Drivers/lvgl/src/widgets/image/lv_image.c **** #if LV_USE_OBSERVER
 653:Drivers/lvgl/src/widgets/image/lv_image.c **** lv_observer_t * lv_image_bind_src(lv_obj_t * obj, lv_subject_t * subject)
 654:Drivers/lvgl/src/widgets/image/lv_image.c **** {
 655:Drivers/lvgl/src/widgets/image/lv_image.c ****     LV_ASSERT_NULL(subject);
 656:Drivers/lvgl/src/widgets/image/lv_image.c ****     LV_ASSERT_OBJ(obj, MY_CLASS);
 657:Drivers/lvgl/src/widgets/image/lv_image.c **** 
ARM GAS  /var/folders/qx/2_175_4n2s19vhvtspjhb3qh0000gn/T//ccePDbYF.s 			page 13


 658:Drivers/lvgl/src/widgets/image/lv_image.c ****     if(subject->type != LV_SUBJECT_TYPE_POINTER) {
 659:Drivers/lvgl/src/widgets/image/lv_image.c ****         LV_LOG_WARN("Incompatible subject type: %d", subject->type);
 660:Drivers/lvgl/src/widgets/image/lv_image.c ****         return NULL;
 661:Drivers/lvgl/src/widgets/image/lv_image.c ****     }
 662:Drivers/lvgl/src/widgets/image/lv_image.c **** 
 663:Drivers/lvgl/src/widgets/image/lv_image.c ****     lv_observer_t * observer = lv_subject_add_observer_obj(subject, image_src_observer_cb, obj, NUL
 664:Drivers/lvgl/src/widgets/image/lv_image.c ****     return observer;
 665:Drivers/lvgl/src/widgets/image/lv_image.c **** }
 666:Drivers/lvgl/src/widgets/image/lv_image.c **** #endif /*LV_USE_OBSERVER*/
 667:Drivers/lvgl/src/widgets/image/lv_image.c **** 
 668:Drivers/lvgl/src/widgets/image/lv_image.c **** 
 669:Drivers/lvgl/src/widgets/image/lv_image.c **** /**********************
 670:Drivers/lvgl/src/widgets/image/lv_image.c ****  *   STATIC FUNCTIONS
 671:Drivers/lvgl/src/widgets/image/lv_image.c ****  **********************/
 672:Drivers/lvgl/src/widgets/image/lv_image.c **** 
 673:Drivers/lvgl/src/widgets/image/lv_image.c **** static void lv_image_constructor(const lv_obj_class_t * class_p, lv_obj_t * obj)
 674:Drivers/lvgl/src/widgets/image/lv_image.c **** {
 675:Drivers/lvgl/src/widgets/image/lv_image.c ****     LV_UNUSED(class_p);
 676:Drivers/lvgl/src/widgets/image/lv_image.c ****     LV_TRACE_OBJ_CREATE("begin");
 677:Drivers/lvgl/src/widgets/image/lv_image.c **** 
 678:Drivers/lvgl/src/widgets/image/lv_image.c ****     lv_image_t * img = (lv_image_t *)obj;
 679:Drivers/lvgl/src/widgets/image/lv_image.c **** 
 680:Drivers/lvgl/src/widgets/image/lv_image.c ****     img->src       = NULL;
 681:Drivers/lvgl/src/widgets/image/lv_image.c ****     img->src_type  = LV_IMAGE_SRC_UNKNOWN;
 682:Drivers/lvgl/src/widgets/image/lv_image.c ****     img->cf        = LV_COLOR_FORMAT_UNKNOWN;
 683:Drivers/lvgl/src/widgets/image/lv_image.c ****     img->w         = lv_obj_get_width(obj);
 684:Drivers/lvgl/src/widgets/image/lv_image.c ****     img->h         = lv_obj_get_height(obj);
 685:Drivers/lvgl/src/widgets/image/lv_image.c ****     img->rotation     = 0;
 686:Drivers/lvgl/src/widgets/image/lv_image.c ****     img->scale_x      = LV_SCALE_NONE;
 687:Drivers/lvgl/src/widgets/image/lv_image.c ****     img->scale_y      = LV_SCALE_NONE;
 688:Drivers/lvgl/src/widgets/image/lv_image.c ****     img->antialias = LV_COLOR_DEPTH > 8 ? 1 : 0;
 689:Drivers/lvgl/src/widgets/image/lv_image.c ****     lv_point_set(&img->offset, 0, 0);
 690:Drivers/lvgl/src/widgets/image/lv_image.c ****     lv_point_set(&img->pivot, LV_PCT(50), LV_PCT(50)); /*Default pivot to image center*/
 691:Drivers/lvgl/src/widgets/image/lv_image.c ****     img->align     = LV_IMAGE_ALIGN_CENTER;
 692:Drivers/lvgl/src/widgets/image/lv_image.c **** 
 693:Drivers/lvgl/src/widgets/image/lv_image.c ****     lv_obj_remove_flag(obj, LV_OBJ_FLAG_CLICKABLE);
 694:Drivers/lvgl/src/widgets/image/lv_image.c ****     lv_obj_add_flag(obj, LV_OBJ_FLAG_ADV_HITTEST);
 695:Drivers/lvgl/src/widgets/image/lv_image.c **** 
 696:Drivers/lvgl/src/widgets/image/lv_image.c ****     LV_TRACE_OBJ_CREATE("finished");
 697:Drivers/lvgl/src/widgets/image/lv_image.c **** }
 698:Drivers/lvgl/src/widgets/image/lv_image.c **** 
 699:Drivers/lvgl/src/widgets/image/lv_image.c **** static void lv_image_destructor(const lv_obj_class_t * class_p, lv_obj_t * obj)
 700:Drivers/lvgl/src/widgets/image/lv_image.c **** {
  29              		.loc 1 700 1 view -0
  30              		.cfi_startproc
  31              		@ args = 0, pretend = 0, frame = 0
  32              		@ frame_needed = 0, uses_anonymous_args = 0
 701:Drivers/lvgl/src/widgets/image/lv_image.c ****     LV_UNUSED(class_p);
  33              		.loc 1 701 5 view .LVU1
 702:Drivers/lvgl/src/widgets/image/lv_image.c ****     lv_image_t * img = (lv_image_t *)obj;
  34              		.loc 1 702 5 view .LVU2
 703:Drivers/lvgl/src/widgets/image/lv_image.c ****     if(img->src_type == LV_IMAGE_SRC_FILE || img->src_type == LV_IMAGE_SRC_SYMBOL) {
  35              		.loc 1 703 5 view .LVU3
  36              		.loc 1 703 22 is_stmt 0 view .LVU4
  37 0000 91F85830 		ldrb	r3, [r1, #88]	@ zero_extendqisi2
  38              		.loc 1 703 43 view .LVU5
  39 0004 03F00303 		and	r3, r3, #3
ARM GAS  /var/folders/qx/2_175_4n2s19vhvtspjhb3qh0000gn/T//ccePDbYF.s 			page 14


  40 0008 013B     		subs	r3, r3, #1
  41 000a DBB2     		uxtb	r3, r3
  42              		.loc 1 703 7 view .LVU6
  43 000c 012B     		cmp	r3, #1
  44 000e 00D9     		bls	.L7
  45 0010 7047     		bx	lr
  46              	.L7:
 700:Drivers/lvgl/src/widgets/image/lv_image.c ****     LV_UNUSED(class_p);
  47              		.loc 1 700 1 view .LVU7
  48 0012 10B5     		push	{r4, lr}
  49              	.LCFI0:
  50              		.cfi_def_cfa_offset 8
  51              		.cfi_offset 4, -8
  52              		.cfi_offset 14, -4
  53 0014 0C46     		mov	r4, r1
 704:Drivers/lvgl/src/widgets/image/lv_image.c ****         lv_free((void *)img->src);
  54              		.loc 1 704 9 is_stmt 1 view .LVU8
  55 0016 C86A     		ldr	r0, [r1, #44]
  56              	.LVL1:
  57              		.loc 1 704 9 is_stmt 0 view .LVU9
  58 0018 FFF7FEFF 		bl	lv_free
  59              	.LVL2:
 705:Drivers/lvgl/src/widgets/image/lv_image.c ****         img->src      = NULL;
  60              		.loc 1 705 9 is_stmt 1 view .LVU10
  61              		.loc 1 705 23 is_stmt 0 view .LVU11
  62 001c 0023     		movs	r3, #0
  63 001e E362     		str	r3, [r4, #44]
 706:Drivers/lvgl/src/widgets/image/lv_image.c ****         img->src_type = LV_IMAGE_SRC_UNKNOWN;
  64              		.loc 1 706 9 is_stmt 1 view .LVU12
  65              		.loc 1 706 23 is_stmt 0 view .LVU13
  66 0020 94F85830 		ldrb	r3, [r4, #88]	@ zero_extendqisi2
  67 0024 43F00303 		orr	r3, r3, #3
  68 0028 84F85830 		strb	r3, [r4, #88]
 707:Drivers/lvgl/src/widgets/image/lv_image.c ****     }
 708:Drivers/lvgl/src/widgets/image/lv_image.c **** }
  69              		.loc 1 708 1 view .LVU14
  70 002c 10BD     		pop	{r4, pc}
  71              		.loc 1 708 1 view .LVU15
  72              		.cfi_endproc
  73              	.LFE229:
  75              		.section	.text.lv_image_constructor,"ax",%progbits
  76              		.align	1
  77              		.syntax unified
  78              		.thumb
  79              		.thumb_func
  81              	lv_image_constructor:
  82              	.LVL3:
  83              	.LFB228:
 674:Drivers/lvgl/src/widgets/image/lv_image.c ****     LV_UNUSED(class_p);
  84              		.loc 1 674 1 is_stmt 1 view -0
  85              		.cfi_startproc
  86              		@ args = 0, pretend = 0, frame = 0
  87              		@ frame_needed = 0, uses_anonymous_args = 0
 674:Drivers/lvgl/src/widgets/image/lv_image.c ****     LV_UNUSED(class_p);
  88              		.loc 1 674 1 is_stmt 0 view .LVU17
  89 0000 38B5     		push	{r3, r4, r5, lr}
  90              	.LCFI1:
ARM GAS  /var/folders/qx/2_175_4n2s19vhvtspjhb3qh0000gn/T//ccePDbYF.s 			page 15


  91              		.cfi_def_cfa_offset 16
  92              		.cfi_offset 3, -16
  93              		.cfi_offset 4, -12
  94              		.cfi_offset 5, -8
  95              		.cfi_offset 14, -4
  96 0002 0C46     		mov	r4, r1
 675:Drivers/lvgl/src/widgets/image/lv_image.c ****     LV_TRACE_OBJ_CREATE("begin");
  97              		.loc 1 675 5 is_stmt 1 view .LVU18
 676:Drivers/lvgl/src/widgets/image/lv_image.c **** 
  98              		.loc 1 676 33 view .LVU19
 678:Drivers/lvgl/src/widgets/image/lv_image.c **** 
  99              		.loc 1 678 5 view .LVU20
 100              	.LVL4:
 680:Drivers/lvgl/src/widgets/image/lv_image.c ****     img->src_type  = LV_IMAGE_SRC_UNKNOWN;
 101              		.loc 1 680 5 view .LVU21
 680:Drivers/lvgl/src/widgets/image/lv_image.c ****     img->src_type  = LV_IMAGE_SRC_UNKNOWN;
 102              		.loc 1 680 20 is_stmt 0 view .LVU22
 103 0004 0025     		movs	r5, #0
 104 0006 CD62     		str	r5, [r1, #44]
 681:Drivers/lvgl/src/widgets/image/lv_image.c ****     img->cf        = LV_COLOR_FORMAT_UNKNOWN;
 105              		.loc 1 681 5 is_stmt 1 view .LVU23
 681:Drivers/lvgl/src/widgets/image/lv_image.c ****     img->cf        = LV_COLOR_FORMAT_UNKNOWN;
 106              		.loc 1 681 20 is_stmt 0 view .LVU24
 107 0008 91F85830 		ldrb	r3, [r1, #88]	@ zero_extendqisi2
 108 000c 43F00303 		orr	r3, r3, #3
 109 0010 81F85830 		strb	r3, [r1, #88]
 682:Drivers/lvgl/src/widgets/image/lv_image.c ****     img->w         = lv_obj_get_width(obj);
 110              		.loc 1 682 5 is_stmt 1 view .LVU25
 682:Drivers/lvgl/src/widgets/image/lv_image.c ****     img->w         = lv_obj_get_width(obj);
 111              		.loc 1 682 20 is_stmt 0 view .LVU26
 112 0014 DBB2     		uxtb	r3, r3
 113 0016 65F38603 		bfi	r3, r5, #2, #5
 114 001a 81F85830 		strb	r3, [r1, #88]
 683:Drivers/lvgl/src/widgets/image/lv_image.c ****     img->h         = lv_obj_get_height(obj);
 115              		.loc 1 683 5 is_stmt 1 view .LVU27
 683:Drivers/lvgl/src/widgets/image/lv_image.c ****     img->h         = lv_obj_get_height(obj);
 116              		.loc 1 683 22 is_stmt 0 view .LVU28
 117 001e 0846     		mov	r0, r1
 118              	.LVL5:
 683:Drivers/lvgl/src/widgets/image/lv_image.c ****     img->h         = lv_obj_get_height(obj);
 119              		.loc 1 683 22 view .LVU29
 120 0020 FFF7FEFF 		bl	lv_obj_get_width
 121              	.LVL6:
 683:Drivers/lvgl/src/widgets/image/lv_image.c ****     img->h         = lv_obj_get_height(obj);
 122              		.loc 1 683 20 discriminator 1 view .LVU30
 123 0024 E063     		str	r0, [r4, #60]
 684:Drivers/lvgl/src/widgets/image/lv_image.c ****     img->rotation     = 0;
 124              		.loc 1 684 5 is_stmt 1 view .LVU31
 684:Drivers/lvgl/src/widgets/image/lv_image.c ****     img->rotation     = 0;
 125              		.loc 1 684 22 is_stmt 0 view .LVU32
 126 0026 2046     		mov	r0, r4
 127 0028 FFF7FEFF 		bl	lv_obj_get_height
 128              	.LVL7:
 684:Drivers/lvgl/src/widgets/image/lv_image.c ****     img->rotation     = 0;
 129              		.loc 1 684 20 discriminator 1 view .LVU33
 130 002c 2064     		str	r0, [r4, #64]
 685:Drivers/lvgl/src/widgets/image/lv_image.c ****     img->scale_x      = LV_SCALE_NONE;
ARM GAS  /var/folders/qx/2_175_4n2s19vhvtspjhb3qh0000gn/T//ccePDbYF.s 			page 16


 131              		.loc 1 685 5 is_stmt 1 view .LVU34
 685:Drivers/lvgl/src/widgets/image/lv_image.c ****     img->scale_x      = LV_SCALE_NONE;
 132              		.loc 1 685 23 is_stmt 0 view .LVU35
 133 002e 6564     		str	r5, [r4, #68]
 686:Drivers/lvgl/src/widgets/image/lv_image.c ****     img->scale_y      = LV_SCALE_NONE;
 134              		.loc 1 686 5 is_stmt 1 view .LVU36
 686:Drivers/lvgl/src/widgets/image/lv_image.c ****     img->scale_y      = LV_SCALE_NONE;
 135              		.loc 1 686 23 is_stmt 0 view .LVU37
 136 0030 4FF48073 		mov	r3, #256
 137 0034 A364     		str	r3, [r4, #72]
 687:Drivers/lvgl/src/widgets/image/lv_image.c ****     img->antialias = LV_COLOR_DEPTH > 8 ? 1 : 0;
 138              		.loc 1 687 5 is_stmt 1 view .LVU38
 687:Drivers/lvgl/src/widgets/image/lv_image.c ****     img->antialias = LV_COLOR_DEPTH > 8 ? 1 : 0;
 139              		.loc 1 687 23 is_stmt 0 view .LVU39
 140 0036 E364     		str	r3, [r4, #76]
 688:Drivers/lvgl/src/widgets/image/lv_image.c ****     lv_point_set(&img->offset, 0, 0);
 141              		.loc 1 688 5 is_stmt 1 view .LVU40
 688:Drivers/lvgl/src/widgets/image/lv_image.c ****     lv_point_set(&img->offset, 0, 0);
 142              		.loc 1 688 20 is_stmt 0 view .LVU41
 143 0038 94F85830 		ldrb	r3, [r4, #88]	@ zero_extendqisi2
 144 003c 43F08003 		orr	r3, r3, #128
 145 0040 84F85830 		strb	r3, [r4, #88]
 689:Drivers/lvgl/src/widgets/image/lv_image.c ****     lv_point_set(&img->pivot, LV_PCT(50), LV_PCT(50)); /*Default pivot to image center*/
 146              		.loc 1 689 5 is_stmt 1 view .LVU42
 147 0044 2A46     		mov	r2, r5
 148 0046 2946     		mov	r1, r5
 149 0048 04F13400 		add	r0, r4, #52
 150 004c FFF7FEFF 		bl	lv_point_set
 151              	.LVL8:
 690:Drivers/lvgl/src/widgets/image/lv_image.c ****     img->align     = LV_IMAGE_ALIGN_CENTER;
 152              		.loc 1 690 5 view .LVU43
 153 0050 0B49     		ldr	r1, .L10
 154 0052 0A46     		mov	r2, r1
 155 0054 04F15000 		add	r0, r4, #80
 156 0058 FFF7FEFF 		bl	lv_point_set
 157              	.LVL9:
 691:Drivers/lvgl/src/widgets/image/lv_image.c **** 
 158              		.loc 1 691 5 view .LVU44
 691:Drivers/lvgl/src/widgets/image/lv_image.c **** 
 159              		.loc 1 691 20 is_stmt 0 view .LVU45
 160 005c 94F85930 		ldrb	r3, [r4, #89]	@ zero_extendqisi2
 161 0060 0922     		movs	r2, #9
 162 0062 62F30303 		bfi	r3, r2, #0, #4
 163 0066 84F85930 		strb	r3, [r4, #89]
 693:Drivers/lvgl/src/widgets/image/lv_image.c ****     lv_obj_add_flag(obj, LV_OBJ_FLAG_ADV_HITTEST);
 164              		.loc 1 693 5 is_stmt 1 view .LVU46
 165 006a 0221     		movs	r1, #2
 166 006c 2046     		mov	r0, r4
 167 006e FFF7FEFF 		bl	lv_obj_remove_flag
 168              	.LVL10:
 694:Drivers/lvgl/src/widgets/image/lv_image.c **** 
 169              		.loc 1 694 5 view .LVU47
 170 0072 4FF48031 		mov	r1, #65536
 171 0076 2046     		mov	r0, r4
 172 0078 FFF7FEFF 		bl	lv_obj_add_flag
 173              	.LVL11:
 696:Drivers/lvgl/src/widgets/image/lv_image.c **** }
ARM GAS  /var/folders/qx/2_175_4n2s19vhvtspjhb3qh0000gn/T//ccePDbYF.s 			page 17


 174              		.loc 1 696 36 view .LVU48
 697:Drivers/lvgl/src/widgets/image/lv_image.c **** 
 175              		.loc 1 697 1 is_stmt 0 view .LVU49
 176 007c 38BD     		pop	{r3, r4, r5, pc}
 177              	.LVL12:
 178              	.L11:
 697:Drivers/lvgl/src/widgets/image/lv_image.c **** 
 179              		.loc 1 697 1 view .LVU50
 180 007e 00BF     		.align	2
 181              	.L10:
 182 0080 32000020 		.word	536870962
 183              		.cfi_endproc
 184              	.LFE228:
 186              		.section	.text.reset_image_attributes,"ax",%progbits
 187              		.align	1
 188              		.syntax unified
 189              		.thumb
 190              		.thumb_func
 192              	reset_image_attributes:
 193              	.LVL13:
 194              	.LFB234:
 709:Drivers/lvgl/src/widgets/image/lv_image.c **** 
 710:Drivers/lvgl/src/widgets/image/lv_image.c **** static void lv_image_event(const lv_obj_class_t * class_p, lv_event_t * e)
 711:Drivers/lvgl/src/widgets/image/lv_image.c **** {
 712:Drivers/lvgl/src/widgets/image/lv_image.c ****     LV_UNUSED(class_p);
 713:Drivers/lvgl/src/widgets/image/lv_image.c **** 
 714:Drivers/lvgl/src/widgets/image/lv_image.c ****     lv_event_code_t code = lv_event_get_code(e);
 715:Drivers/lvgl/src/widgets/image/lv_image.c **** 
 716:Drivers/lvgl/src/widgets/image/lv_image.c ****     /*Call the ancestor's event handler*/
 717:Drivers/lvgl/src/widgets/image/lv_image.c ****     lv_result_t res = lv_obj_event_base(MY_CLASS, e);
 718:Drivers/lvgl/src/widgets/image/lv_image.c ****     if(res != LV_RESULT_OK) return;
 719:Drivers/lvgl/src/widgets/image/lv_image.c **** 
 720:Drivers/lvgl/src/widgets/image/lv_image.c ****     lv_obj_t * obj = lv_event_get_current_target(e);
 721:Drivers/lvgl/src/widgets/image/lv_image.c ****     lv_image_t * img = (lv_image_t *)obj;
 722:Drivers/lvgl/src/widgets/image/lv_image.c ****     lv_point_t pivot_px;
 723:Drivers/lvgl/src/widgets/image/lv_image.c ****     lv_image_get_pivot(obj, &pivot_px);
 724:Drivers/lvgl/src/widgets/image/lv_image.c **** 
 725:Drivers/lvgl/src/widgets/image/lv_image.c ****     if(code == LV_EVENT_STYLE_CHANGED) {
 726:Drivers/lvgl/src/widgets/image/lv_image.c ****         /*Refresh the file name to refresh the symbol text size*/
 727:Drivers/lvgl/src/widgets/image/lv_image.c ****         if(img->src_type == LV_IMAGE_SRC_SYMBOL) {
 728:Drivers/lvgl/src/widgets/image/lv_image.c ****             lv_image_set_src(obj, img->src);
 729:Drivers/lvgl/src/widgets/image/lv_image.c ****         }
 730:Drivers/lvgl/src/widgets/image/lv_image.c ****         else {
 731:Drivers/lvgl/src/widgets/image/lv_image.c ****             /*With transformation it might change*/
 732:Drivers/lvgl/src/widgets/image/lv_image.c ****             lv_obj_refresh_ext_draw_size(obj);
 733:Drivers/lvgl/src/widgets/image/lv_image.c ****         }
 734:Drivers/lvgl/src/widgets/image/lv_image.c ****     }
 735:Drivers/lvgl/src/widgets/image/lv_image.c ****     else if(code == LV_EVENT_REFR_EXT_DRAW_SIZE) {
 736:Drivers/lvgl/src/widgets/image/lv_image.c **** 
 737:Drivers/lvgl/src/widgets/image/lv_image.c ****         int32_t * s = lv_event_get_param(e);
 738:Drivers/lvgl/src/widgets/image/lv_image.c **** 
 739:Drivers/lvgl/src/widgets/image/lv_image.c ****         /*If the image has angle provide enough room for the rotated corners*/
 740:Drivers/lvgl/src/widgets/image/lv_image.c ****         if(img->rotation || img->scale_x != LV_SCALE_NONE || img->scale_y != LV_SCALE_NONE) {
 741:Drivers/lvgl/src/widgets/image/lv_image.c ****             lv_area_t a;
 742:Drivers/lvgl/src/widgets/image/lv_image.c ****             int32_t w = lv_obj_get_width(obj);
 743:Drivers/lvgl/src/widgets/image/lv_image.c ****             int32_t h = lv_obj_get_height(obj);
 744:Drivers/lvgl/src/widgets/image/lv_image.c ****             lv_image_buf_get_transformed_area(&a, w, h, img->rotation, img->scale_x, img->scale_y, 
ARM GAS  /var/folders/qx/2_175_4n2s19vhvtspjhb3qh0000gn/T//ccePDbYF.s 			page 18


 745:Drivers/lvgl/src/widgets/image/lv_image.c ****             *s = LV_MAX(*s, -a.x1);
 746:Drivers/lvgl/src/widgets/image/lv_image.c ****             *s = LV_MAX(*s, -a.y1);
 747:Drivers/lvgl/src/widgets/image/lv_image.c ****             *s = LV_MAX(*s, a.x2 - w);
 748:Drivers/lvgl/src/widgets/image/lv_image.c ****             *s = LV_MAX(*s, a.y2 - h);
 749:Drivers/lvgl/src/widgets/image/lv_image.c ****         }
 750:Drivers/lvgl/src/widgets/image/lv_image.c ****     }
 751:Drivers/lvgl/src/widgets/image/lv_image.c ****     else if(code == LV_EVENT_SIZE_CHANGED) {
 752:Drivers/lvgl/src/widgets/image/lv_image.c ****         if(img->align == LV_IMAGE_ALIGN_STRETCH || img->align == LV_IMAGE_ALIGN_CONTAIN ||
 753:Drivers/lvgl/src/widgets/image/lv_image.c ****            img->align == LV_IMAGE_ALIGN_COVER) {
 754:Drivers/lvgl/src/widgets/image/lv_image.c ****             update_align(obj);
 755:Drivers/lvgl/src/widgets/image/lv_image.c ****             if(img->rotation || img->scale_x != LV_SCALE_NONE || img->scale_y != LV_SCALE_NONE) {
 756:Drivers/lvgl/src/widgets/image/lv_image.c ****                 lv_obj_refresh_ext_draw_size(obj);
 757:Drivers/lvgl/src/widgets/image/lv_image.c ****             }
 758:Drivers/lvgl/src/widgets/image/lv_image.c ****         }
 759:Drivers/lvgl/src/widgets/image/lv_image.c ****     }
 760:Drivers/lvgl/src/widgets/image/lv_image.c ****     else if(code == LV_EVENT_HIT_TEST) {
 761:Drivers/lvgl/src/widgets/image/lv_image.c ****         lv_hit_test_info_t * info = lv_event_get_param(e);
 762:Drivers/lvgl/src/widgets/image/lv_image.c **** 
 763:Drivers/lvgl/src/widgets/image/lv_image.c ****         /*If the object is exactly image sized (not cropped, not mosaic) and transformed
 764:Drivers/lvgl/src/widgets/image/lv_image.c ****          *perform hit test on its transformed area*/
 765:Drivers/lvgl/src/widgets/image/lv_image.c ****         if(img->w == lv_obj_get_width(obj) && img->h == lv_obj_get_height(obj) &&
 766:Drivers/lvgl/src/widgets/image/lv_image.c ****            (img->scale_x != LV_SCALE_NONE || img->scale_y != LV_SCALE_NONE ||
 767:Drivers/lvgl/src/widgets/image/lv_image.c ****             img->rotation != 0)) {
 768:Drivers/lvgl/src/widgets/image/lv_image.c **** 
 769:Drivers/lvgl/src/widgets/image/lv_image.c ****             int32_t w = lv_obj_get_width(obj);
 770:Drivers/lvgl/src/widgets/image/lv_image.c ****             int32_t h = lv_obj_get_height(obj);
 771:Drivers/lvgl/src/widgets/image/lv_image.c ****             lv_area_t coords;
 772:Drivers/lvgl/src/widgets/image/lv_image.c ****             lv_image_buf_get_transformed_area(&coords, w, h, img->rotation, img->scale_x, img->scal
 773:Drivers/lvgl/src/widgets/image/lv_image.c ****             coords.x1 += obj->coords.x1;
 774:Drivers/lvgl/src/widgets/image/lv_image.c ****             coords.y1 += obj->coords.y1;
 775:Drivers/lvgl/src/widgets/image/lv_image.c ****             coords.x2 += obj->coords.x1;
 776:Drivers/lvgl/src/widgets/image/lv_image.c ****             coords.y2 += obj->coords.y1;
 777:Drivers/lvgl/src/widgets/image/lv_image.c **** 
 778:Drivers/lvgl/src/widgets/image/lv_image.c ****             info->res = lv_area_is_point_on(&coords, info->point, 0);
 779:Drivers/lvgl/src/widgets/image/lv_image.c ****         }
 780:Drivers/lvgl/src/widgets/image/lv_image.c ****         else {
 781:Drivers/lvgl/src/widgets/image/lv_image.c ****             lv_area_t a;
 782:Drivers/lvgl/src/widgets/image/lv_image.c ****             lv_obj_get_click_area(obj, &a);
 783:Drivers/lvgl/src/widgets/image/lv_image.c ****             info->res = lv_area_is_point_on(&a, info->point, 0);
 784:Drivers/lvgl/src/widgets/image/lv_image.c ****         }
 785:Drivers/lvgl/src/widgets/image/lv_image.c ****     }
 786:Drivers/lvgl/src/widgets/image/lv_image.c ****     else if(code == LV_EVENT_GET_SELF_SIZE) {
 787:Drivers/lvgl/src/widgets/image/lv_image.c ****         lv_point_t * p = lv_event_get_param(e);
 788:Drivers/lvgl/src/widgets/image/lv_image.c ****         p->x = img->w;
 789:Drivers/lvgl/src/widgets/image/lv_image.c ****         p->y = img->h;
 790:Drivers/lvgl/src/widgets/image/lv_image.c ****     }
 791:Drivers/lvgl/src/widgets/image/lv_image.c ****     else if(code == LV_EVENT_DRAW_MAIN || code == LV_EVENT_DRAW_POST || code == LV_EVENT_COVER_CHEC
 792:Drivers/lvgl/src/widgets/image/lv_image.c ****         draw_image(e);
 793:Drivers/lvgl/src/widgets/image/lv_image.c ****     }
 794:Drivers/lvgl/src/widgets/image/lv_image.c **** }
 795:Drivers/lvgl/src/widgets/image/lv_image.c **** 
 796:Drivers/lvgl/src/widgets/image/lv_image.c **** static void draw_image(lv_event_t * e)
 797:Drivers/lvgl/src/widgets/image/lv_image.c **** {
 798:Drivers/lvgl/src/widgets/image/lv_image.c ****     lv_event_code_t code = lv_event_get_code(e);
 799:Drivers/lvgl/src/widgets/image/lv_image.c ****     lv_obj_t * obj = lv_event_get_current_target(e);
 800:Drivers/lvgl/src/widgets/image/lv_image.c ****     lv_image_t * img = (lv_image_t *)obj;
 801:Drivers/lvgl/src/widgets/image/lv_image.c ****     if(code == LV_EVENT_COVER_CHECK) {
ARM GAS  /var/folders/qx/2_175_4n2s19vhvtspjhb3qh0000gn/T//ccePDbYF.s 			page 19


 802:Drivers/lvgl/src/widgets/image/lv_image.c ****         lv_cover_check_info_t * info = lv_event_get_param(e);
 803:Drivers/lvgl/src/widgets/image/lv_image.c ****         if(info->res == LV_COVER_RES_MASKED) return;
 804:Drivers/lvgl/src/widgets/image/lv_image.c ****         if(img->src_type == LV_IMAGE_SRC_UNKNOWN || img->src_type == LV_IMAGE_SRC_SYMBOL) {
 805:Drivers/lvgl/src/widgets/image/lv_image.c ****             info->res = LV_COVER_RES_NOT_COVER;
 806:Drivers/lvgl/src/widgets/image/lv_image.c ****             return;
 807:Drivers/lvgl/src/widgets/image/lv_image.c ****         }
 808:Drivers/lvgl/src/widgets/image/lv_image.c **** 
 809:Drivers/lvgl/src/widgets/image/lv_image.c ****         /*Non true color format might have "holes"*/
 810:Drivers/lvgl/src/widgets/image/lv_image.c ****         if(lv_color_format_has_alpha(img->cf)) {
 811:Drivers/lvgl/src/widgets/image/lv_image.c ****             info->res = LV_COVER_RES_NOT_COVER;
 812:Drivers/lvgl/src/widgets/image/lv_image.c ****             return;
 813:Drivers/lvgl/src/widgets/image/lv_image.c ****         }
 814:Drivers/lvgl/src/widgets/image/lv_image.c **** 
 815:Drivers/lvgl/src/widgets/image/lv_image.c ****         /*With not LV_OPA_COVER images can't cover an area */
 816:Drivers/lvgl/src/widgets/image/lv_image.c ****         if(lv_obj_get_style_image_opa(obj, LV_PART_MAIN) != LV_OPA_COVER) {
 817:Drivers/lvgl/src/widgets/image/lv_image.c ****             info->res = LV_COVER_RES_NOT_COVER;
 818:Drivers/lvgl/src/widgets/image/lv_image.c ****             return;
 819:Drivers/lvgl/src/widgets/image/lv_image.c ****         }
 820:Drivers/lvgl/src/widgets/image/lv_image.c **** 
 821:Drivers/lvgl/src/widgets/image/lv_image.c ****         if(img->rotation != 0) {
 822:Drivers/lvgl/src/widgets/image/lv_image.c ****             info->res = LV_COVER_RES_NOT_COVER;
 823:Drivers/lvgl/src/widgets/image/lv_image.c ****             return;
 824:Drivers/lvgl/src/widgets/image/lv_image.c ****         }
 825:Drivers/lvgl/src/widgets/image/lv_image.c **** 
 826:Drivers/lvgl/src/widgets/image/lv_image.c ****         if(img->scale_x == LV_SCALE_NONE && img->scale_y == LV_SCALE_NONE) {
 827:Drivers/lvgl/src/widgets/image/lv_image.c ****             if(lv_area_is_in(info->area, &obj->coords, 0) == false) {
 828:Drivers/lvgl/src/widgets/image/lv_image.c ****                 info->res = LV_COVER_RES_NOT_COVER;
 829:Drivers/lvgl/src/widgets/image/lv_image.c ****                 return;
 830:Drivers/lvgl/src/widgets/image/lv_image.c ****             }
 831:Drivers/lvgl/src/widgets/image/lv_image.c ****         }
 832:Drivers/lvgl/src/widgets/image/lv_image.c ****         else {
 833:Drivers/lvgl/src/widgets/image/lv_image.c ****             lv_area_t a;
 834:Drivers/lvgl/src/widgets/image/lv_image.c ****             lv_point_t pivot_px;
 835:Drivers/lvgl/src/widgets/image/lv_image.c ****             lv_image_get_pivot(obj, &pivot_px);
 836:Drivers/lvgl/src/widgets/image/lv_image.c ****             lv_image_buf_get_transformed_area(&a, lv_obj_get_width(obj), lv_obj_get_height(obj), 0,
 837:Drivers/lvgl/src/widgets/image/lv_image.c ****                                               &pivot_px);
 838:Drivers/lvgl/src/widgets/image/lv_image.c ****             a.x1 += obj->coords.x1;
 839:Drivers/lvgl/src/widgets/image/lv_image.c ****             a.y1 += obj->coords.y1;
 840:Drivers/lvgl/src/widgets/image/lv_image.c ****             a.x2 += obj->coords.x1;
 841:Drivers/lvgl/src/widgets/image/lv_image.c ****             a.y2 += obj->coords.y1;
 842:Drivers/lvgl/src/widgets/image/lv_image.c **** 
 843:Drivers/lvgl/src/widgets/image/lv_image.c ****             if(lv_area_is_in(info->area, &a, 0) == false) {
 844:Drivers/lvgl/src/widgets/image/lv_image.c ****                 info->res = LV_COVER_RES_NOT_COVER;
 845:Drivers/lvgl/src/widgets/image/lv_image.c ****                 return;
 846:Drivers/lvgl/src/widgets/image/lv_image.c ****             }
 847:Drivers/lvgl/src/widgets/image/lv_image.c ****         }
 848:Drivers/lvgl/src/widgets/image/lv_image.c ****         if(img->bitmap_mask_src) {
 849:Drivers/lvgl/src/widgets/image/lv_image.c ****             info->res = LV_COVER_RES_NOT_COVER;
 850:Drivers/lvgl/src/widgets/image/lv_image.c ****             return;
 851:Drivers/lvgl/src/widgets/image/lv_image.c ****         }
 852:Drivers/lvgl/src/widgets/image/lv_image.c ****     }
 853:Drivers/lvgl/src/widgets/image/lv_image.c ****     else if(code == LV_EVENT_DRAW_MAIN) {
 854:Drivers/lvgl/src/widgets/image/lv_image.c **** 
 855:Drivers/lvgl/src/widgets/image/lv_image.c ****         if(img->h == 0 || img->w == 0) return;
 856:Drivers/lvgl/src/widgets/image/lv_image.c ****         if(img->scale_x == 0 || img->scale_y == 0) return;
 857:Drivers/lvgl/src/widgets/image/lv_image.c ****         if(img->src == NULL) {
 858:Drivers/lvgl/src/widgets/image/lv_image.c ****             /*Do not need to draw image when src is NULL*/
ARM GAS  /var/folders/qx/2_175_4n2s19vhvtspjhb3qh0000gn/T//ccePDbYF.s 			page 20


 859:Drivers/lvgl/src/widgets/image/lv_image.c ****             LV_LOG_TRACE("image source is NULL");
 860:Drivers/lvgl/src/widgets/image/lv_image.c ****             return;
 861:Drivers/lvgl/src/widgets/image/lv_image.c ****         }
 862:Drivers/lvgl/src/widgets/image/lv_image.c **** 
 863:Drivers/lvgl/src/widgets/image/lv_image.c ****         lv_layer_t * layer = lv_event_get_layer(e);
 864:Drivers/lvgl/src/widgets/image/lv_image.c **** 
 865:Drivers/lvgl/src/widgets/image/lv_image.c ****         if(img->src_type == LV_IMAGE_SRC_FILE || img->src_type == LV_IMAGE_SRC_VARIABLE) {
 866:Drivers/lvgl/src/widgets/image/lv_image.c ****             lv_draw_image_dsc_t draw_dsc;
 867:Drivers/lvgl/src/widgets/image/lv_image.c ****             lv_draw_image_dsc_init(&draw_dsc);
 868:Drivers/lvgl/src/widgets/image/lv_image.c ****             draw_dsc.base.layer = layer;
 869:Drivers/lvgl/src/widgets/image/lv_image.c ****             lv_obj_init_draw_image_dsc(obj, LV_PART_MAIN, &draw_dsc);
 870:Drivers/lvgl/src/widgets/image/lv_image.c **** 
 871:Drivers/lvgl/src/widgets/image/lv_image.c ****             lv_area_t clip_area_ori = layer->_clip_area;
 872:Drivers/lvgl/src/widgets/image/lv_image.c **** 
 873:Drivers/lvgl/src/widgets/image/lv_image.c ****             lv_image_get_pivot(obj, &draw_dsc.pivot);
 874:Drivers/lvgl/src/widgets/image/lv_image.c ****             draw_dsc.scale_x = img->scale_x;
 875:Drivers/lvgl/src/widgets/image/lv_image.c ****             draw_dsc.scale_y = img->scale_y;
 876:Drivers/lvgl/src/widgets/image/lv_image.c ****             draw_dsc.rotation = img->rotation;
 877:Drivers/lvgl/src/widgets/image/lv_image.c ****             draw_dsc.antialias = img->antialias;
 878:Drivers/lvgl/src/widgets/image/lv_image.c ****             draw_dsc.blend_mode = img->blend_mode;
 879:Drivers/lvgl/src/widgets/image/lv_image.c ****             draw_dsc.bitmap_mask_src = img->bitmap_mask_src;
 880:Drivers/lvgl/src/widgets/image/lv_image.c ****             draw_dsc.src = img->src;
 881:Drivers/lvgl/src/widgets/image/lv_image.c **** 
 882:Drivers/lvgl/src/widgets/image/lv_image.c ****             lv_area_set(&draw_dsc.image_area, obj->coords.x1,
 883:Drivers/lvgl/src/widgets/image/lv_image.c ****                         obj->coords.y1,
 884:Drivers/lvgl/src/widgets/image/lv_image.c ****                         obj->coords.x1 + img->w - 1,
 885:Drivers/lvgl/src/widgets/image/lv_image.c ****                         obj->coords.y1 + img->h - 1);
 886:Drivers/lvgl/src/widgets/image/lv_image.c **** 
 887:Drivers/lvgl/src/widgets/image/lv_image.c ****             draw_dsc.clip_radius = lv_obj_get_style_radius(obj, LV_PART_MAIN);
 888:Drivers/lvgl/src/widgets/image/lv_image.c **** 
 889:Drivers/lvgl/src/widgets/image/lv_image.c ****             lv_area_t coords;
 890:Drivers/lvgl/src/widgets/image/lv_image.c ****             if(img->align < _LV_IMAGE_ALIGN_AUTO_TRANSFORM) {
 891:Drivers/lvgl/src/widgets/image/lv_image.c ****                 lv_area_align(&obj->coords, &draw_dsc.image_area, img->align, img->offset.x, img->o
 892:Drivers/lvgl/src/widgets/image/lv_image.c ****                 coords = draw_dsc.image_area;
 893:Drivers/lvgl/src/widgets/image/lv_image.c ****             }
 894:Drivers/lvgl/src/widgets/image/lv_image.c ****             else if(img->align == LV_IMAGE_ALIGN_CONTAIN || img->align == LV_IMAGE_ALIGN_COVER) {
 895:Drivers/lvgl/src/widgets/image/lv_image.c ****                 int32_t scale = lv_image_get_scale(obj);
 896:Drivers/lvgl/src/widgets/image/lv_image.c ****                 lv_point_t offset;
 897:Drivers/lvgl/src/widgets/image/lv_image.c ****                 offset.x = (lv_obj_get_width(obj) - img->w * scale / LV_SCALE_NONE) / 2;
 898:Drivers/lvgl/src/widgets/image/lv_image.c ****                 offset.y = (lv_obj_get_height(obj) - img->h * scale / LV_SCALE_NONE) / 2;
 899:Drivers/lvgl/src/widgets/image/lv_image.c ****                 lv_area_move(&draw_dsc.image_area, offset.x, offset.y);
 900:Drivers/lvgl/src/widgets/image/lv_image.c ****                 lv_area_move(&draw_dsc.image_area, img->offset.x, img->offset.y);
 901:Drivers/lvgl/src/widgets/image/lv_image.c ****                 coords = draw_dsc.image_area;
 902:Drivers/lvgl/src/widgets/image/lv_image.c ****             }
 903:Drivers/lvgl/src/widgets/image/lv_image.c ****             else if(img->align == LV_IMAGE_ALIGN_TILE) {
 904:Drivers/lvgl/src/widgets/image/lv_image.c ****                 lv_area_intersect(&layer->_clip_area, &layer->_clip_area, &obj->coords);
 905:Drivers/lvgl/src/widgets/image/lv_image.c ****                 lv_area_move(&draw_dsc.image_area, img->offset.x, img->offset.y);
 906:Drivers/lvgl/src/widgets/image/lv_image.c **** 
 907:Drivers/lvgl/src/widgets/image/lv_image.c ****                 lv_area_move(&draw_dsc.image_area,
 908:Drivers/lvgl/src/widgets/image/lv_image.c ****                              ((layer->_clip_area.x1 - draw_dsc.image_area.x1 - (img->w - 1)) / img-
 909:Drivers/lvgl/src/widgets/image/lv_image.c ****                              ((layer->_clip_area.y1 - draw_dsc.image_area.y1 - (img->h - 1)) / img-
 910:Drivers/lvgl/src/widgets/image/lv_image.c ****                 coords = layer->_clip_area;
 911:Drivers/lvgl/src/widgets/image/lv_image.c ****                 draw_dsc.tile = 1;
 912:Drivers/lvgl/src/widgets/image/lv_image.c ****             }
 913:Drivers/lvgl/src/widgets/image/lv_image.c ****             else {
 914:Drivers/lvgl/src/widgets/image/lv_image.c ****                 coords = draw_dsc.image_area;
 915:Drivers/lvgl/src/widgets/image/lv_image.c ****             }
ARM GAS  /var/folders/qx/2_175_4n2s19vhvtspjhb3qh0000gn/T//ccePDbYF.s 			page 21


 916:Drivers/lvgl/src/widgets/image/lv_image.c **** 
 917:Drivers/lvgl/src/widgets/image/lv_image.c ****             lv_draw_image(layer, &draw_dsc, &coords);
 918:Drivers/lvgl/src/widgets/image/lv_image.c ****             layer->_clip_area = clip_area_ori;
 919:Drivers/lvgl/src/widgets/image/lv_image.c ****         }
 920:Drivers/lvgl/src/widgets/image/lv_image.c ****         else if(img->src_type == LV_IMAGE_SRC_SYMBOL) {
 921:Drivers/lvgl/src/widgets/image/lv_image.c ****             lv_draw_label_dsc_t label_dsc;
 922:Drivers/lvgl/src/widgets/image/lv_image.c ****             lv_draw_label_dsc_init(&label_dsc);
 923:Drivers/lvgl/src/widgets/image/lv_image.c ****             label_dsc.base.layer = layer;
 924:Drivers/lvgl/src/widgets/image/lv_image.c ****             lv_obj_init_draw_label_dsc(obj, LV_PART_MAIN, &label_dsc);
 925:Drivers/lvgl/src/widgets/image/lv_image.c ****             label_dsc.text = img->src;
 926:Drivers/lvgl/src/widgets/image/lv_image.c ****             lv_area_t * coords;
 927:Drivers/lvgl/src/widgets/image/lv_image.c ****             lv_area_t aligned_coords;
 928:Drivers/lvgl/src/widgets/image/lv_image.c ****             const bool image_area_is_same_as_coords = img->w == lv_area_get_width(&obj->coords)
 929:Drivers/lvgl/src/widgets/image/lv_image.c ****                                                       && img->h == lv_area_get_height(&obj->coords)
 930:Drivers/lvgl/src/widgets/image/lv_image.c ****             const bool needs_inner_alignment = img->align > LV_IMAGE_ALIGN_TOP_LEFT
 931:Drivers/lvgl/src/widgets/image/lv_image.c ****                                                && !image_area_is_same_as_coords;
 932:Drivers/lvgl/src/widgets/image/lv_image.c ****             const bool has_offset = img->offset.x || img->offset.y;
 933:Drivers/lvgl/src/widgets/image/lv_image.c ****             const bool inner_alignment_is_transforming = img->align >= _LV_IMAGE_ALIGN_AUTO_TRANSFO
 934:Drivers/lvgl/src/widgets/image/lv_image.c ****             if((needs_inner_alignment || has_offset) && !inner_alignment_is_transforming) {
 935:Drivers/lvgl/src/widgets/image/lv_image.c ****                 lv_point_t text_size;
 936:Drivers/lvgl/src/widgets/image/lv_image.c **** 
 937:Drivers/lvgl/src/widgets/image/lv_image.c ****                 lv_text_attributes_t attributes;
 938:Drivers/lvgl/src/widgets/image/lv_image.c ****                 attributes.letter_space = label_dsc.letter_space;
 939:Drivers/lvgl/src/widgets/image/lv_image.c ****                 attributes.line_space = label_dsc.line_space;
 940:Drivers/lvgl/src/widgets/image/lv_image.c ****                 attributes.max_width = LV_COORD_MAX;
 941:Drivers/lvgl/src/widgets/image/lv_image.c ****                 attributes.text_flags = LV_TEXT_FLAG_NONE;
 942:Drivers/lvgl/src/widgets/image/lv_image.c **** 
 943:Drivers/lvgl/src/widgets/image/lv_image.c ****                 lv_text_get_size_attributes(&text_size, label_dsc.text, label_dsc.font, &attributes
 944:Drivers/lvgl/src/widgets/image/lv_image.c ****                 lv_area_set(&aligned_coords, 0, 0, text_size.x, text_size.y);
 945:Drivers/lvgl/src/widgets/image/lv_image.c ****                 lv_area_align(&obj->coords, &aligned_coords, img->align, img->offset.x, img->offset
 946:Drivers/lvgl/src/widgets/image/lv_image.c ****                 coords = &aligned_coords;
 947:Drivers/lvgl/src/widgets/image/lv_image.c ****             }
 948:Drivers/lvgl/src/widgets/image/lv_image.c ****             else {
 949:Drivers/lvgl/src/widgets/image/lv_image.c ****                 coords = &obj->coords;
 950:Drivers/lvgl/src/widgets/image/lv_image.c ****             }
 951:Drivers/lvgl/src/widgets/image/lv_image.c ****             lv_draw_label(layer, &label_dsc, coords);
 952:Drivers/lvgl/src/widgets/image/lv_image.c ****         }
 953:Drivers/lvgl/src/widgets/image/lv_image.c ****         else {
 954:Drivers/lvgl/src/widgets/image/lv_image.c ****             /*Trigger the error handler of image draw*/
 955:Drivers/lvgl/src/widgets/image/lv_image.c ****             LV_LOG_WARN("image source type is unknown");
 956:Drivers/lvgl/src/widgets/image/lv_image.c ****         }
 957:Drivers/lvgl/src/widgets/image/lv_image.c ****     }
 958:Drivers/lvgl/src/widgets/image/lv_image.c **** }
 959:Drivers/lvgl/src/widgets/image/lv_image.c **** 
 960:Drivers/lvgl/src/widgets/image/lv_image.c **** static void scale_update(lv_obj_t * obj, int32_t scale_x, int32_t scale_y)
 961:Drivers/lvgl/src/widgets/image/lv_image.c **** {
 962:Drivers/lvgl/src/widgets/image/lv_image.c ****     lv_image_t * img = (lv_image_t *)obj;
 963:Drivers/lvgl/src/widgets/image/lv_image.c **** 
 964:Drivers/lvgl/src/widgets/image/lv_image.c ****     lv_obj_update_layout(obj);  /*Be sure the object's size is calculated*/
 965:Drivers/lvgl/src/widgets/image/lv_image.c ****     int32_t w = lv_obj_get_width(obj);
 966:Drivers/lvgl/src/widgets/image/lv_image.c ****     int32_t h = lv_obj_get_height(obj);
 967:Drivers/lvgl/src/widgets/image/lv_image.c ****     lv_area_t a;
 968:Drivers/lvgl/src/widgets/image/lv_image.c ****     lv_point_t pivot_px;
 969:Drivers/lvgl/src/widgets/image/lv_image.c ****     lv_image_get_pivot(obj, &pivot_px);
 970:Drivers/lvgl/src/widgets/image/lv_image.c ****     lv_image_buf_get_transformed_area(&a, w, h, img->rotation, img->scale_x, img->scale_y, &pivot_p
 971:Drivers/lvgl/src/widgets/image/lv_image.c ****     a.x1 += obj->coords.x1 - 1;
 972:Drivers/lvgl/src/widgets/image/lv_image.c ****     a.y1 += obj->coords.y1 - 1;
ARM GAS  /var/folders/qx/2_175_4n2s19vhvtspjhb3qh0000gn/T//ccePDbYF.s 			page 22


 973:Drivers/lvgl/src/widgets/image/lv_image.c ****     a.x2 += obj->coords.x1 + 1;
 974:Drivers/lvgl/src/widgets/image/lv_image.c ****     a.y2 += obj->coords.y1 + 1;
 975:Drivers/lvgl/src/widgets/image/lv_image.c ****     lv_obj_invalidate_area(obj, &a);
 976:Drivers/lvgl/src/widgets/image/lv_image.c **** 
 977:Drivers/lvgl/src/widgets/image/lv_image.c ****     img->scale_x = scale_x;
 978:Drivers/lvgl/src/widgets/image/lv_image.c ****     img->scale_y = scale_y;
 979:Drivers/lvgl/src/widgets/image/lv_image.c **** 
 980:Drivers/lvgl/src/widgets/image/lv_image.c ****     /* Disable invalidations because lv_obj_refresh_ext_draw_size would invalidate
 981:Drivers/lvgl/src/widgets/image/lv_image.c ****      * the whole ext draw area */
 982:Drivers/lvgl/src/widgets/image/lv_image.c ****     lv_display_t * disp = lv_obj_get_display(obj);
 983:Drivers/lvgl/src/widgets/image/lv_image.c ****     lv_display_enable_invalidation(disp, false);
 984:Drivers/lvgl/src/widgets/image/lv_image.c ****     lv_obj_refresh_ext_draw_size(obj);
 985:Drivers/lvgl/src/widgets/image/lv_image.c ****     lv_display_enable_invalidation(disp, true);
 986:Drivers/lvgl/src/widgets/image/lv_image.c **** 
 987:Drivers/lvgl/src/widgets/image/lv_image.c ****     lv_image_buf_get_transformed_area(&a, w, h, img->rotation, img->scale_x, img->scale_y, &pivot_p
 988:Drivers/lvgl/src/widgets/image/lv_image.c ****     a.x1 += obj->coords.x1 - 1;
 989:Drivers/lvgl/src/widgets/image/lv_image.c ****     a.y1 += obj->coords.y1 - 1;
 990:Drivers/lvgl/src/widgets/image/lv_image.c ****     a.x2 += obj->coords.x1 + 1;
 991:Drivers/lvgl/src/widgets/image/lv_image.c ****     a.y2 += obj->coords.y1 + 1;
 992:Drivers/lvgl/src/widgets/image/lv_image.c ****     lv_obj_invalidate_area(obj, &a);
 993:Drivers/lvgl/src/widgets/image/lv_image.c **** }
 994:Drivers/lvgl/src/widgets/image/lv_image.c **** 
 995:Drivers/lvgl/src/widgets/image/lv_image.c **** static void update_align(lv_obj_t * obj)
 996:Drivers/lvgl/src/widgets/image/lv_image.c **** {
 997:Drivers/lvgl/src/widgets/image/lv_image.c ****     lv_image_t * img = (lv_image_t *)obj;
 998:Drivers/lvgl/src/widgets/image/lv_image.c ****     if(img->align == LV_IMAGE_ALIGN_STRETCH) {
 999:Drivers/lvgl/src/widgets/image/lv_image.c ****         lv_image_set_rotation(obj, 0);
1000:Drivers/lvgl/src/widgets/image/lv_image.c ****         lv_image_set_pivot(obj, 0, 0);
1001:Drivers/lvgl/src/widgets/image/lv_image.c ****         if(img->w != 0 && img->h != 0) {
1002:Drivers/lvgl/src/widgets/image/lv_image.c ****             lv_obj_update_layout(obj);
1003:Drivers/lvgl/src/widgets/image/lv_image.c ****             int32_t scale_x = lv_obj_get_width(obj) * LV_SCALE_NONE / img->w;
1004:Drivers/lvgl/src/widgets/image/lv_image.c ****             int32_t scale_y = lv_obj_get_height(obj) * LV_SCALE_NONE / img->h;
1005:Drivers/lvgl/src/widgets/image/lv_image.c ****             scale_update(obj, scale_x, scale_y);
1006:Drivers/lvgl/src/widgets/image/lv_image.c ****         }
1007:Drivers/lvgl/src/widgets/image/lv_image.c ****     }
1008:Drivers/lvgl/src/widgets/image/lv_image.c ****     else if(img->align == LV_IMAGE_ALIGN_CONTAIN) {
1009:Drivers/lvgl/src/widgets/image/lv_image.c ****         lv_image_set_rotation(obj, 0);
1010:Drivers/lvgl/src/widgets/image/lv_image.c ****         lv_image_set_pivot(obj, 0, 0);
1011:Drivers/lvgl/src/widgets/image/lv_image.c ****         if(img->w != 0 && img->h != 0) {
1012:Drivers/lvgl/src/widgets/image/lv_image.c ****             lv_obj_update_layout(obj);
1013:Drivers/lvgl/src/widgets/image/lv_image.c ****             int32_t scale_x = lv_obj_get_width(obj) * LV_SCALE_NONE / img->w;
1014:Drivers/lvgl/src/widgets/image/lv_image.c ****             int32_t scale_y = lv_obj_get_height(obj) * LV_SCALE_NONE / img->h;
1015:Drivers/lvgl/src/widgets/image/lv_image.c ****             int32_t scale = LV_MIN(scale_x, scale_y);
1016:Drivers/lvgl/src/widgets/image/lv_image.c ****             scale_update(obj, scale, scale);
1017:Drivers/lvgl/src/widgets/image/lv_image.c ****         }
1018:Drivers/lvgl/src/widgets/image/lv_image.c ****     }
1019:Drivers/lvgl/src/widgets/image/lv_image.c ****     else if(img->align == LV_IMAGE_ALIGN_COVER) {
1020:Drivers/lvgl/src/widgets/image/lv_image.c ****         lv_image_set_rotation(obj, 0);
1021:Drivers/lvgl/src/widgets/image/lv_image.c ****         lv_image_set_pivot(obj, 0, 0);
1022:Drivers/lvgl/src/widgets/image/lv_image.c ****         if(img->w != 0 && img->h != 0) {
1023:Drivers/lvgl/src/widgets/image/lv_image.c ****             lv_obj_update_layout(obj);
1024:Drivers/lvgl/src/widgets/image/lv_image.c ****             int32_t scale_x = lv_obj_get_width(obj) * LV_SCALE_NONE / img->w;
1025:Drivers/lvgl/src/widgets/image/lv_image.c ****             int32_t scale_y = lv_obj_get_height(obj) * LV_SCALE_NONE / img->h;
1026:Drivers/lvgl/src/widgets/image/lv_image.c ****             int32_t scale = LV_MAX(scale_x, scale_y);
1027:Drivers/lvgl/src/widgets/image/lv_image.c ****             scale_update(obj, scale, scale);
1028:Drivers/lvgl/src/widgets/image/lv_image.c ****         }
1029:Drivers/lvgl/src/widgets/image/lv_image.c ****     }
ARM GAS  /var/folders/qx/2_175_4n2s19vhvtspjhb3qh0000gn/T//ccePDbYF.s 			page 23


1030:Drivers/lvgl/src/widgets/image/lv_image.c ****     else if(img->align == LV_IMAGE_ALIGN_TILE) {
1031:Drivers/lvgl/src/widgets/image/lv_image.c ****         lv_image_set_rotation(obj, 0);
1032:Drivers/lvgl/src/widgets/image/lv_image.c ****         lv_image_set_pivot(obj, 0, 0);
1033:Drivers/lvgl/src/widgets/image/lv_image.c ****         scale_update(obj, LV_SCALE_NONE, LV_SCALE_NONE);
1034:Drivers/lvgl/src/widgets/image/lv_image.c ****     }
1035:Drivers/lvgl/src/widgets/image/lv_image.c **** }
1036:Drivers/lvgl/src/widgets/image/lv_image.c **** 
1037:Drivers/lvgl/src/widgets/image/lv_image.c **** static void reset_image_attributes(lv_obj_t * obj)
1038:Drivers/lvgl/src/widgets/image/lv_image.c **** {
 195              		.loc 1 1038 1 is_stmt 1 view -0
 196              		.cfi_startproc
 197              		@ args = 0, pretend = 0, frame = 0
 198              		@ frame_needed = 0, uses_anonymous_args = 0
 199              		.loc 1 1038 1 is_stmt 0 view .LVU52
 200 0000 10B5     		push	{r4, lr}
 201              	.LCFI2:
 202              		.cfi_def_cfa_offset 8
 203              		.cfi_offset 4, -8
 204              		.cfi_offset 14, -4
 205 0002 0446     		mov	r4, r0
1039:Drivers/lvgl/src/widgets/image/lv_image.c ****     lv_image_t * img = (lv_image_t *)obj;
 206              		.loc 1 1039 5 is_stmt 1 view .LVU53
 207              	.LVL14:
1040:Drivers/lvgl/src/widgets/image/lv_image.c ****     if(img->src_type == LV_IMAGE_SRC_SYMBOL || img->src_type == LV_IMAGE_SRC_FILE) {
 208              		.loc 1 1040 5 view .LVU54
 209              		.loc 1 1040 22 is_stmt 0 view .LVU55
 210 0004 90F85830 		ldrb	r3, [r0, #88]	@ zero_extendqisi2
 211              		.loc 1 1040 45 view .LVU56
 212 0008 03F00303 		and	r3, r3, #3
 213 000c 013B     		subs	r3, r3, #1
 214 000e DBB2     		uxtb	r3, r3
 215              		.loc 1 1040 7 view .LVU57
 216 0010 012B     		cmp	r3, #1
 217 0012 12D9     		bls	.L15
 218              	.LVL15:
 219              	.L13:
1041:Drivers/lvgl/src/widgets/image/lv_image.c ****         lv_free((void *)img->src);
1042:Drivers/lvgl/src/widgets/image/lv_image.c ****     }
1043:Drivers/lvgl/src/widgets/image/lv_image.c ****     img->src = NULL;
 220              		.loc 1 1043 5 is_stmt 1 view .LVU58
 221              		.loc 1 1043 14 is_stmt 0 view .LVU59
 222 0014 0023     		movs	r3, #0
 223 0016 E362     		str	r3, [r4, #44]
1044:Drivers/lvgl/src/widgets/image/lv_image.c ****     img->src_type = LV_IMAGE_SRC_UNKNOWN;
 224              		.loc 1 1044 5 is_stmt 1 view .LVU60
 225              		.loc 1 1044 19 is_stmt 0 view .LVU61
 226 0018 94F85820 		ldrb	r2, [r4, #88]	@ zero_extendqisi2
 227 001c 42F00302 		orr	r2, r2, #3
 228 0020 84F85820 		strb	r2, [r4, #88]
1045:Drivers/lvgl/src/widgets/image/lv_image.c ****     img->w = 0;
 229              		.loc 1 1045 5 is_stmt 1 view .LVU62
 230              		.loc 1 1045 12 is_stmt 0 view .LVU63
 231 0024 E363     		str	r3, [r4, #60]
1046:Drivers/lvgl/src/widgets/image/lv_image.c ****     img->h = 0;
 232              		.loc 1 1046 5 is_stmt 1 view .LVU64
 233              		.loc 1 1046 12 is_stmt 0 view .LVU65
 234 0026 2364     		str	r3, [r4, #64]
ARM GAS  /var/folders/qx/2_175_4n2s19vhvtspjhb3qh0000gn/T//ccePDbYF.s 			page 24


1047:Drivers/lvgl/src/widgets/image/lv_image.c ****     img->cf = LV_COLOR_FORMAT_UNKNOWN;
 235              		.loc 1 1047 5 is_stmt 1 view .LVU66
 236              		.loc 1 1047 13 is_stmt 0 view .LVU67
 237 0028 D2B2     		uxtb	r2, r2
 238 002a 63F38602 		bfi	r2, r3, #2, #5
 239 002e 84F85820 		strb	r2, [r4, #88]
1048:Drivers/lvgl/src/widgets/image/lv_image.c ****     lv_obj_refresh_self_size(obj);
 240              		.loc 1 1048 5 is_stmt 1 view .LVU68
 241 0032 2046     		mov	r0, r4
 242 0034 FFF7FEFF 		bl	lv_obj_refresh_self_size
 243              	.LVL16:
1049:Drivers/lvgl/src/widgets/image/lv_image.c **** }
 244              		.loc 1 1049 1 is_stmt 0 view .LVU69
 245 0038 10BD     		pop	{r4, pc}
 246              	.LVL17:
 247              	.L15:
1041:Drivers/lvgl/src/widgets/image/lv_image.c ****     }
 248              		.loc 1 1041 9 is_stmt 1 view .LVU70
 249 003a C06A     		ldr	r0, [r0, #44]
 250              	.LVL18:
1041:Drivers/lvgl/src/widgets/image/lv_image.c ****     }
 251              		.loc 1 1041 9 is_stmt 0 view .LVU71
 252 003c FFF7FEFF 		bl	lv_free
 253              	.LVL19:
 254 0040 E8E7     		b	.L13
 255              		.cfi_endproc
 256              	.LFE234:
 258              		.section	.text.lv_image_create,"ax",%progbits
 259              		.align	1
 260              		.global	lv_image_create
 261              		.syntax unified
 262              		.thumb
 263              		.thumb_func
 265              	lv_image_create:
 266              	.LVL20:
 267              	.LFB196:
 137:Drivers/lvgl/src/widgets/image/lv_image.c ****     LV_LOG_INFO("begin");
 268              		.loc 1 137 1 is_stmt 1 view -0
 269              		.cfi_startproc
 270              		@ args = 0, pretend = 0, frame = 0
 271              		@ frame_needed = 0, uses_anonymous_args = 0
 137:Drivers/lvgl/src/widgets/image/lv_image.c ****     LV_LOG_INFO("begin");
 272              		.loc 1 137 1 is_stmt 0 view .LVU73
 273 0000 10B5     		push	{r4, lr}
 274              	.LCFI3:
 275              		.cfi_def_cfa_offset 8
 276              		.cfi_offset 4, -8
 277              		.cfi_offset 14, -4
 278 0002 0146     		mov	r1, r0
 138:Drivers/lvgl/src/widgets/image/lv_image.c ****     lv_obj_t * obj = lv_obj_class_create_obj(MY_CLASS, parent);
 279              		.loc 1 138 5 is_stmt 1 view .LVU74
 138:Drivers/lvgl/src/widgets/image/lv_image.c ****     lv_obj_t * obj = lv_obj_class_create_obj(MY_CLASS, parent);
 280              		.loc 1 138 5 view .LVU75
 138:Drivers/lvgl/src/widgets/image/lv_image.c ****     lv_obj_t * obj = lv_obj_class_create_obj(MY_CLASS, parent);
 281              		.loc 1 138 5 view .LVU76
 139:Drivers/lvgl/src/widgets/image/lv_image.c ****     lv_obj_class_init_obj(obj);
 282              		.loc 1 139 5 view .LVU77
ARM GAS  /var/folders/qx/2_175_4n2s19vhvtspjhb3qh0000gn/T//ccePDbYF.s 			page 25


 139:Drivers/lvgl/src/widgets/image/lv_image.c ****     lv_obj_class_init_obj(obj);
 283              		.loc 1 139 22 is_stmt 0 view .LVU78
 284 0004 0348     		ldr	r0, .L18
 285              	.LVL21:
 139:Drivers/lvgl/src/widgets/image/lv_image.c ****     lv_obj_class_init_obj(obj);
 286              		.loc 1 139 22 view .LVU79
 287 0006 FFF7FEFF 		bl	lv_obj_class_create_obj
 288              	.LVL22:
 139:Drivers/lvgl/src/widgets/image/lv_image.c ****     lv_obj_class_init_obj(obj);
 289              		.loc 1 139 22 view .LVU80
 290 000a 0446     		mov	r4, r0
 291              	.LVL23:
 140:Drivers/lvgl/src/widgets/image/lv_image.c ****     return obj;
 292              		.loc 1 140 5 is_stmt 1 view .LVU81
 293 000c FFF7FEFF 		bl	lv_obj_class_init_obj
 294              	.LVL24:
 141:Drivers/lvgl/src/widgets/image/lv_image.c **** }
 295              		.loc 1 141 5 view .LVU82
 142:Drivers/lvgl/src/widgets/image/lv_image.c **** 
 296              		.loc 1 142 1 is_stmt 0 view .LVU83
 297 0010 2046     		mov	r0, r4
 298 0012 10BD     		pop	{r4, pc}
 299              	.LVL25:
 300              	.L19:
 142:Drivers/lvgl/src/widgets/image/lv_image.c **** 
 301              		.loc 1 142 1 view .LVU84
 302              		.align	2
 303              	.L18:
 304 0014 00000000 		.word	lv_image_class
 305              		.cfi_endproc
 306              	.LFE196:
 308              		.section	.text.lv_image_set_offset_x,"ax",%progbits
 309              		.align	1
 310              		.global	lv_image_set_offset_x
 311              		.syntax unified
 312              		.thumb
 313              		.thumb_func
 315              	lv_image_set_offset_x:
 316              	.LVL26:
 317              	.LFB198:
 263:Drivers/lvgl/src/widgets/image/lv_image.c ****     LV_ASSERT_OBJ(obj, MY_CLASS);
 318              		.loc 1 263 1 is_stmt 1 view -0
 319              		.cfi_startproc
 320              		@ args = 0, pretend = 0, frame = 0
 321              		@ frame_needed = 0, uses_anonymous_args = 0
 264:Drivers/lvgl/src/widgets/image/lv_image.c **** 
 322              		.loc 1 264 5 view .LVU86
 264:Drivers/lvgl/src/widgets/image/lv_image.c **** 
 323              		.loc 1 264 5 view .LVU87
 324 0000 20B1     		cbz	r0, .L22
 263:Drivers/lvgl/src/widgets/image/lv_image.c ****     LV_ASSERT_OBJ(obj, MY_CLASS);
 325              		.loc 1 263 1 is_stmt 0 view .LVU88
 326 0002 08B5     		push	{r3, lr}
 327              	.LCFI4:
 328              		.cfi_def_cfa_offset 8
 329              		.cfi_offset 3, -8
 330              		.cfi_offset 14, -4
ARM GAS  /var/folders/qx/2_175_4n2s19vhvtspjhb3qh0000gn/T//ccePDbYF.s 			page 26


 264:Drivers/lvgl/src/widgets/image/lv_image.c **** 
 331              		.loc 1 264 5 is_stmt 1 view .LVU89
 264:Drivers/lvgl/src/widgets/image/lv_image.c **** 
 332              		.loc 1 264 33 view .LVU90
 266:Drivers/lvgl/src/widgets/image/lv_image.c **** 
 333              		.loc 1 266 5 view .LVU91
 334              	.LVL27:
 268:Drivers/lvgl/src/widgets/image/lv_image.c ****     lv_obj_invalidate(obj);
 335              		.loc 1 268 5 view .LVU92
 268:Drivers/lvgl/src/widgets/image/lv_image.c ****     lv_obj_invalidate(obj);
 336              		.loc 1 268 19 is_stmt 0 view .LVU93
 337 0004 4163     		str	r1, [r0, #52]
 269:Drivers/lvgl/src/widgets/image/lv_image.c **** }
 338              		.loc 1 269 5 is_stmt 1 view .LVU94
 339 0006 FFF7FEFF 		bl	lv_obj_invalidate
 340              	.LVL28:
 270:Drivers/lvgl/src/widgets/image/lv_image.c **** 
 341              		.loc 1 270 1 is_stmt 0 view .LVU95
 342 000a 08BD     		pop	{r3, pc}
 343              	.LVL29:
 344              	.L22:
 345              	.LCFI5:
 346              		.cfi_def_cfa_offset 0
 347              		.cfi_restore 3
 348              		.cfi_restore 14
 264:Drivers/lvgl/src/widgets/image/lv_image.c **** 
 349              		.loc 1 264 5 is_stmt 1 view .LVU96
 264:Drivers/lvgl/src/widgets/image/lv_image.c **** 
 350              		.loc 1 264 5 view .LVU97
 264:Drivers/lvgl/src/widgets/image/lv_image.c **** 
 351              		.loc 1 264 5 view .LVU98
 264:Drivers/lvgl/src/widgets/image/lv_image.c **** 
 352              		.loc 1 264 5 view .LVU99
 264:Drivers/lvgl/src/widgets/image/lv_image.c **** 
 353              		.loc 1 264 5 view .LVU100
 354 000c FEE7     		b	.L22
 355              		.cfi_endproc
 356              	.LFE198:
 358              		.section	.text.lv_image_set_offset_y,"ax",%progbits
 359              		.align	1
 360              		.global	lv_image_set_offset_y
 361              		.syntax unified
 362              		.thumb
 363              		.thumb_func
 365              	lv_image_set_offset_y:
 366              	.LVL30:
 367              	.LFB199:
 273:Drivers/lvgl/src/widgets/image/lv_image.c ****     LV_ASSERT_OBJ(obj, MY_CLASS);
 368              		.loc 1 273 1 view -0
 369              		.cfi_startproc
 370              		@ args = 0, pretend = 0, frame = 0
 371              		@ frame_needed = 0, uses_anonymous_args = 0
 274:Drivers/lvgl/src/widgets/image/lv_image.c **** 
 372              		.loc 1 274 5 view .LVU102
 274:Drivers/lvgl/src/widgets/image/lv_image.c **** 
 373              		.loc 1 274 5 view .LVU103
 374 0000 20B1     		cbz	r0, .L27
ARM GAS  /var/folders/qx/2_175_4n2s19vhvtspjhb3qh0000gn/T//ccePDbYF.s 			page 27


 273:Drivers/lvgl/src/widgets/image/lv_image.c ****     LV_ASSERT_OBJ(obj, MY_CLASS);
 375              		.loc 1 273 1 is_stmt 0 view .LVU104
 376 0002 08B5     		push	{r3, lr}
 377              	.LCFI6:
 378              		.cfi_def_cfa_offset 8
 379              		.cfi_offset 3, -8
 380              		.cfi_offset 14, -4
 274:Drivers/lvgl/src/widgets/image/lv_image.c **** 
 381              		.loc 1 274 5 is_stmt 1 view .LVU105
 274:Drivers/lvgl/src/widgets/image/lv_image.c **** 
 382              		.loc 1 274 33 view .LVU106
 276:Drivers/lvgl/src/widgets/image/lv_image.c **** 
 383              		.loc 1 276 5 view .LVU107
 384              	.LVL31:
 278:Drivers/lvgl/src/widgets/image/lv_image.c ****     lv_obj_invalidate(obj);
 385              		.loc 1 278 5 view .LVU108
 278:Drivers/lvgl/src/widgets/image/lv_image.c ****     lv_obj_invalidate(obj);
 386              		.loc 1 278 19 is_stmt 0 view .LVU109
 387 0004 8163     		str	r1, [r0, #56]
 279:Drivers/lvgl/src/widgets/image/lv_image.c **** }
 388              		.loc 1 279 5 is_stmt 1 view .LVU110
 389 0006 FFF7FEFF 		bl	lv_obj_invalidate
 390              	.LVL32:
 280:Drivers/lvgl/src/widgets/image/lv_image.c **** 
 391              		.loc 1 280 1 is_stmt 0 view .LVU111
 392 000a 08BD     		pop	{r3, pc}
 393              	.LVL33:
 394              	.L27:
 395              	.LCFI7:
 396              		.cfi_def_cfa_offset 0
 397              		.cfi_restore 3
 398              		.cfi_restore 14
 274:Drivers/lvgl/src/widgets/image/lv_image.c **** 
 399              		.loc 1 274 5 is_stmt 1 view .LVU112
 274:Drivers/lvgl/src/widgets/image/lv_image.c **** 
 400              		.loc 1 274 5 view .LVU113
 274:Drivers/lvgl/src/widgets/image/lv_image.c **** 
 401              		.loc 1 274 5 view .LVU114
 274:Drivers/lvgl/src/widgets/image/lv_image.c **** 
 402              		.loc 1 274 5 view .LVU115
 274:Drivers/lvgl/src/widgets/image/lv_image.c **** 
 403              		.loc 1 274 5 view .LVU116
 404 000c FEE7     		b	.L27
 405              		.cfi_endproc
 406              	.LFE199:
 408              		.section	.text.lv_image_set_blend_mode,"ax",%progbits
 409              		.align	1
 410              		.global	lv_image_set_blend_mode
 411              		.syntax unified
 412              		.thumb
 413              		.thumb_func
 415              	lv_image_set_blend_mode:
 416              	.LVL34:
 417              	.LFB207:
 435:Drivers/lvgl/src/widgets/image/lv_image.c ****     LV_ASSERT_OBJ(obj, MY_CLASS);
 418              		.loc 1 435 1 view -0
 419              		.cfi_startproc
ARM GAS  /var/folders/qx/2_175_4n2s19vhvtspjhb3qh0000gn/T//ccePDbYF.s 			page 28


 420              		@ args = 0, pretend = 0, frame = 0
 421              		@ frame_needed = 0, uses_anonymous_args = 0
 436:Drivers/lvgl/src/widgets/image/lv_image.c **** 
 422              		.loc 1 436 5 view .LVU118
 436:Drivers/lvgl/src/widgets/image/lv_image.c **** 
 423              		.loc 1 436 5 view .LVU119
 424 0000 70B1     		cbz	r0, .L32
 435:Drivers/lvgl/src/widgets/image/lv_image.c ****     LV_ASSERT_OBJ(obj, MY_CLASS);
 425              		.loc 1 435 1 is_stmt 0 view .LVU120
 426 0002 08B5     		push	{r3, lr}
 427              	.LCFI8:
 428              		.cfi_def_cfa_offset 8
 429              		.cfi_offset 3, -8
 430              		.cfi_offset 14, -4
 436:Drivers/lvgl/src/widgets/image/lv_image.c **** 
 431              		.loc 1 436 5 is_stmt 1 view .LVU121
 436:Drivers/lvgl/src/widgets/image/lv_image.c **** 
 432              		.loc 1 436 33 view .LVU122
 438:Drivers/lvgl/src/widgets/image/lv_image.c **** 
 433              		.loc 1 438 5 view .LVU123
 434              	.LVL35:
 441:Drivers/lvgl/src/widgets/image/lv_image.c **** 
 435              		.loc 1 441 5 view .LVU124
 441:Drivers/lvgl/src/widgets/image/lv_image.c **** 
 436              		.loc 1 441 11 is_stmt 0 view .LVU125
 437 0004 90F85920 		ldrb	r2, [r0, #89]	@ zero_extendqisi2
 441:Drivers/lvgl/src/widgets/image/lv_image.c **** 
 438              		.loc 1 441 7 view .LVU126
 439 0008 B1EB121F 		cmp	r1, r2, lsr #4
 440 000c 07D0     		beq	.L30
 443:Drivers/lvgl/src/widgets/image/lv_image.c **** 
 441              		.loc 1 443 5 is_stmt 1 view .LVU127
 443:Drivers/lvgl/src/widgets/image/lv_image.c **** 
 442              		.loc 1 443 21 is_stmt 0 view .LVU128
 443 000e 90F85920 		ldrb	r2, [r0, #89]	@ zero_extendqisi2
 444 0012 61F30712 		bfi	r2, r1, #4, #4
 445              	.LVL36:
 443:Drivers/lvgl/src/widgets/image/lv_image.c **** 
 446              		.loc 1 443 21 view .LVU129
 447 0016 80F85920 		strb	r2, [r0, #89]
 445:Drivers/lvgl/src/widgets/image/lv_image.c **** }
 448              		.loc 1 445 5 is_stmt 1 view .LVU130
 449 001a FFF7FEFF 		bl	lv_obj_invalidate
 450              	.LVL37:
 451              	.L30:
 446:Drivers/lvgl/src/widgets/image/lv_image.c **** 
 452              		.loc 1 446 1 is_stmt 0 view .LVU131
 453 001e 08BD     		pop	{r3, pc}
 454              	.LVL38:
 455              	.L32:
 456              	.LCFI9:
 457              		.cfi_def_cfa_offset 0
 458              		.cfi_restore 3
 459              		.cfi_restore 14
 436:Drivers/lvgl/src/widgets/image/lv_image.c **** 
 460              		.loc 1 436 5 is_stmt 1 view .LVU132
 436:Drivers/lvgl/src/widgets/image/lv_image.c **** 
ARM GAS  /var/folders/qx/2_175_4n2s19vhvtspjhb3qh0000gn/T//ccePDbYF.s 			page 29


 461              		.loc 1 436 5 view .LVU133
 436:Drivers/lvgl/src/widgets/image/lv_image.c **** 
 462              		.loc 1 436 5 view .LVU134
 436:Drivers/lvgl/src/widgets/image/lv_image.c **** 
 463              		.loc 1 436 5 view .LVU135
 436:Drivers/lvgl/src/widgets/image/lv_image.c **** 
 464              		.loc 1 436 5 view .LVU136
 465 0020 FEE7     		b	.L32
 466              		.cfi_endproc
 467              	.LFE207:
 469              		.section	.text.lv_image_set_antialias,"ax",%progbits
 470              		.align	1
 471              		.global	lv_image_set_antialias
 472              		.syntax unified
 473              		.thumb
 474              		.thumb_func
 476              	lv_image_set_antialias:
 477              	.LVL39:
 478              	.LFB208:
 449:Drivers/lvgl/src/widgets/image/lv_image.c ****     LV_ASSERT_OBJ(obj, MY_CLASS);
 479              		.loc 1 449 1 view -0
 480              		.cfi_startproc
 481              		@ args = 0, pretend = 0, frame = 0
 482              		@ frame_needed = 0, uses_anonymous_args = 0
 450:Drivers/lvgl/src/widgets/image/lv_image.c **** 
 483              		.loc 1 450 5 view .LVU138
 450:Drivers/lvgl/src/widgets/image/lv_image.c **** 
 484              		.loc 1 450 5 view .LVU139
 485 0000 70B1     		cbz	r0, .L38
 449:Drivers/lvgl/src/widgets/image/lv_image.c ****     LV_ASSERT_OBJ(obj, MY_CLASS);
 486              		.loc 1 449 1 is_stmt 0 view .LVU140
 487 0002 08B5     		push	{r3, lr}
 488              	.LCFI10:
 489              		.cfi_def_cfa_offset 8
 490              		.cfi_offset 3, -8
 491              		.cfi_offset 14, -4
 450:Drivers/lvgl/src/widgets/image/lv_image.c **** 
 492              		.loc 1 450 5 is_stmt 1 view .LVU141
 450:Drivers/lvgl/src/widgets/image/lv_image.c **** 
 493              		.loc 1 450 33 view .LVU142
 452:Drivers/lvgl/src/widgets/image/lv_image.c ****     if(antialias == img->antialias) return;
 494              		.loc 1 452 5 view .LVU143
 495              	.LVL40:
 453:Drivers/lvgl/src/widgets/image/lv_image.c **** 
 496              		.loc 1 453 5 view .LVU144
 453:Drivers/lvgl/src/widgets/image/lv_image.c **** 
 497              		.loc 1 453 24 is_stmt 0 view .LVU145
 498 0004 90F85820 		ldrb	r2, [r0, #88]	@ zero_extendqisi2
 453:Drivers/lvgl/src/widgets/image/lv_image.c **** 
 499              		.loc 1 453 7 view .LVU146
 500 0008 B1EBD21F 		cmp	r1, r2, lsr #7
 501 000c 07D0     		beq	.L36
 455:Drivers/lvgl/src/widgets/image/lv_image.c ****     lv_obj_invalidate(obj);
 502              		.loc 1 455 5 is_stmt 1 view .LVU147
 455:Drivers/lvgl/src/widgets/image/lv_image.c ****     lv_obj_invalidate(obj);
 503              		.loc 1 455 20 is_stmt 0 view .LVU148
 504 000e 90F85820 		ldrb	r2, [r0, #88]	@ zero_extendqisi2
ARM GAS  /var/folders/qx/2_175_4n2s19vhvtspjhb3qh0000gn/T//ccePDbYF.s 			page 30


 505 0012 61F3C712 		bfi	r2, r1, #7, #1
 506 0016 80F85820 		strb	r2, [r0, #88]
 456:Drivers/lvgl/src/widgets/image/lv_image.c **** }
 507              		.loc 1 456 5 is_stmt 1 view .LVU149
 508 001a FFF7FEFF 		bl	lv_obj_invalidate
 509              	.LVL41:
 510              	.L36:
 457:Drivers/lvgl/src/widgets/image/lv_image.c **** 
 511              		.loc 1 457 1 is_stmt 0 view .LVU150
 512 001e 08BD     		pop	{r3, pc}
 513              	.LVL42:
 514              	.L38:
 515              	.LCFI11:
 516              		.cfi_def_cfa_offset 0
 517              		.cfi_restore 3
 518              		.cfi_restore 14
 450:Drivers/lvgl/src/widgets/image/lv_image.c **** 
 519              		.loc 1 450 5 is_stmt 1 view .LVU151
 450:Drivers/lvgl/src/widgets/image/lv_image.c **** 
 520              		.loc 1 450 5 view .LVU152
 450:Drivers/lvgl/src/widgets/image/lv_image.c **** 
 521              		.loc 1 450 5 view .LVU153
 450:Drivers/lvgl/src/widgets/image/lv_image.c **** 
 522              		.loc 1 450 5 view .LVU154
 450:Drivers/lvgl/src/widgets/image/lv_image.c **** 
 523              		.loc 1 450 5 view .LVU155
 524 0020 FEE7     		b	.L38
 525              		.cfi_endproc
 526              	.LFE208:
 528              		.section	.text.lv_image_set_bitmap_map_src,"ax",%progbits
 529              		.align	1
 530              		.global	lv_image_set_bitmap_map_src
 531              		.syntax unified
 532              		.thumb
 533              		.thumb_func
 535              	lv_image_set_bitmap_map_src:
 536              	.LVL43:
 537              	.LFB210:
 479:Drivers/lvgl/src/widgets/image/lv_image.c ****     LV_ASSERT_OBJ(obj, MY_CLASS);
 538              		.loc 1 479 1 view -0
 539              		.cfi_startproc
 540              		@ args = 0, pretend = 0, frame = 0
 541              		@ frame_needed = 0, uses_anonymous_args = 0
 480:Drivers/lvgl/src/widgets/image/lv_image.c ****     lv_image_t * img = (lv_image_t *)obj;
 542              		.loc 1 480 5 view .LVU157
 480:Drivers/lvgl/src/widgets/image/lv_image.c ****     lv_image_t * img = (lv_image_t *)obj;
 543              		.loc 1 480 5 view .LVU158
 544 0000 20B1     		cbz	r0, .L44
 479:Drivers/lvgl/src/widgets/image/lv_image.c ****     LV_ASSERT_OBJ(obj, MY_CLASS);
 545              		.loc 1 479 1 is_stmt 0 view .LVU159
 546 0002 08B5     		push	{r3, lr}
 547              	.LCFI12:
 548              		.cfi_def_cfa_offset 8
 549              		.cfi_offset 3, -8
 550              		.cfi_offset 14, -4
 480:Drivers/lvgl/src/widgets/image/lv_image.c ****     lv_image_t * img = (lv_image_t *)obj;
 551              		.loc 1 480 5 is_stmt 1 view .LVU160
ARM GAS  /var/folders/qx/2_175_4n2s19vhvtspjhb3qh0000gn/T//ccePDbYF.s 			page 31


 480:Drivers/lvgl/src/widgets/image/lv_image.c ****     lv_image_t * img = (lv_image_t *)obj;
 552              		.loc 1 480 33 view .LVU161
 481:Drivers/lvgl/src/widgets/image/lv_image.c ****     img->bitmap_mask_src = src;
 553              		.loc 1 481 5 view .LVU162
 554              	.LVL44:
 482:Drivers/lvgl/src/widgets/image/lv_image.c ****     lv_obj_invalidate(obj);
 555              		.loc 1 482 5 view .LVU163
 482:Drivers/lvgl/src/widgets/image/lv_image.c ****     lv_obj_invalidate(obj);
 556              		.loc 1 482 26 is_stmt 0 view .LVU164
 557 0004 0163     		str	r1, [r0, #48]
 483:Drivers/lvgl/src/widgets/image/lv_image.c **** }
 558              		.loc 1 483 5 is_stmt 1 view .LVU165
 559 0006 FFF7FEFF 		bl	lv_obj_invalidate
 560              	.LVL45:
 484:Drivers/lvgl/src/widgets/image/lv_image.c **** 
 561              		.loc 1 484 1 is_stmt 0 view .LVU166
 562 000a 08BD     		pop	{r3, pc}
 563              	.LVL46:
 564              	.L44:
 565              	.LCFI13:
 566              		.cfi_def_cfa_offset 0
 567              		.cfi_restore 3
 568              		.cfi_restore 14
 480:Drivers/lvgl/src/widgets/image/lv_image.c ****     lv_image_t * img = (lv_image_t *)obj;
 569              		.loc 1 480 5 is_stmt 1 view .LVU167
 480:Drivers/lvgl/src/widgets/image/lv_image.c ****     lv_image_t * img = (lv_image_t *)obj;
 570              		.loc 1 480 5 view .LVU168
 480:Drivers/lvgl/src/widgets/image/lv_image.c ****     lv_image_t * img = (lv_image_t *)obj;
 571              		.loc 1 480 5 view .LVU169
 480:Drivers/lvgl/src/widgets/image/lv_image.c ****     lv_image_t * img = (lv_image_t *)obj;
 572              		.loc 1 480 5 view .LVU170
 480:Drivers/lvgl/src/widgets/image/lv_image.c ****     lv_image_t * img = (lv_image_t *)obj;
 573              		.loc 1 480 5 view .LVU171
 574 000c FEE7     		b	.L44
 575              		.cfi_endproc
 576              	.LFE210:
 578              		.section	.text.lv_image_get_src,"ax",%progbits
 579              		.align	1
 580              		.global	lv_image_get_src
 581              		.syntax unified
 582              		.thumb
 583              		.thumb_func
 585              	lv_image_get_src:
 586              	.LVL47:
 587              	.LFB211:
 491:Drivers/lvgl/src/widgets/image/lv_image.c ****     LV_ASSERT_OBJ(obj, MY_CLASS);
 588              		.loc 1 491 1 view -0
 589              		.cfi_startproc
 590              		@ args = 0, pretend = 0, frame = 0
 591              		@ frame_needed = 0, uses_anonymous_args = 0
 592              		@ link register save eliminated.
 492:Drivers/lvgl/src/widgets/image/lv_image.c **** 
 593              		.loc 1 492 5 view .LVU173
 492:Drivers/lvgl/src/widgets/image/lv_image.c **** 
 594              		.loc 1 492 5 view .LVU174
 595 0000 08B1     		cbz	r0, .L49
 492:Drivers/lvgl/src/widgets/image/lv_image.c **** 
ARM GAS  /var/folders/qx/2_175_4n2s19vhvtspjhb3qh0000gn/T//ccePDbYF.s 			page 32


 596              		.loc 1 492 5 view .LVU175
 492:Drivers/lvgl/src/widgets/image/lv_image.c **** 
 597              		.loc 1 492 33 view .LVU176
 494:Drivers/lvgl/src/widgets/image/lv_image.c **** 
 598              		.loc 1 494 5 view .LVU177
 599              	.LVL48:
 496:Drivers/lvgl/src/widgets/image/lv_image.c **** }
 600              		.loc 1 496 5 view .LVU178
 497:Drivers/lvgl/src/widgets/image/lv_image.c **** 
 601              		.loc 1 497 1 is_stmt 0 view .LVU179
 602 0002 C06A     		ldr	r0, [r0, #44]
 603              	.LVL49:
 497:Drivers/lvgl/src/widgets/image/lv_image.c **** 
 604              		.loc 1 497 1 view .LVU180
 605 0004 7047     		bx	lr
 606              	.LVL50:
 607              	.L49:
 492:Drivers/lvgl/src/widgets/image/lv_image.c **** 
 608              		.loc 1 492 5 is_stmt 1 view .LVU181
 492:Drivers/lvgl/src/widgets/image/lv_image.c **** 
 609              		.loc 1 492 5 view .LVU182
 492:Drivers/lvgl/src/widgets/image/lv_image.c **** 
 610              		.loc 1 492 5 view .LVU183
 492:Drivers/lvgl/src/widgets/image/lv_image.c **** 
 611              		.loc 1 492 5 view .LVU184
 492:Drivers/lvgl/src/widgets/image/lv_image.c **** 
 612              		.loc 1 492 5 view .LVU185
 613 0006 FEE7     		b	.L49
 614              		.cfi_endproc
 615              	.LFE211:
 617              		.section	.text.lv_image_get_offset_x,"ax",%progbits
 618              		.align	1
 619              		.global	lv_image_get_offset_x
 620              		.syntax unified
 621              		.thumb
 622              		.thumb_func
 624              	lv_image_get_offset_x:
 625              	.LVL51:
 626              	.LFB212:
 500:Drivers/lvgl/src/widgets/image/lv_image.c ****     LV_ASSERT_OBJ(obj, MY_CLASS);
 627              		.loc 1 500 1 view -0
 628              		.cfi_startproc
 629              		@ args = 0, pretend = 0, frame = 0
 630              		@ frame_needed = 0, uses_anonymous_args = 0
 631              		@ link register save eliminated.
 501:Drivers/lvgl/src/widgets/image/lv_image.c **** 
 632              		.loc 1 501 5 view .LVU187
 501:Drivers/lvgl/src/widgets/image/lv_image.c **** 
 633              		.loc 1 501 5 view .LVU188
 634 0000 08B1     		cbz	r0, .L52
 501:Drivers/lvgl/src/widgets/image/lv_image.c **** 
 635              		.loc 1 501 5 view .LVU189
 501:Drivers/lvgl/src/widgets/image/lv_image.c **** 
 636              		.loc 1 501 33 view .LVU190
 503:Drivers/lvgl/src/widgets/image/lv_image.c **** 
 637              		.loc 1 503 5 view .LVU191
 638              	.LVL52:
ARM GAS  /var/folders/qx/2_175_4n2s19vhvtspjhb3qh0000gn/T//ccePDbYF.s 			page 33


 505:Drivers/lvgl/src/widgets/image/lv_image.c **** }
 639              		.loc 1 505 5 view .LVU192
 506:Drivers/lvgl/src/widgets/image/lv_image.c **** 
 640              		.loc 1 506 1 is_stmt 0 view .LVU193
 641 0002 406B     		ldr	r0, [r0, #52]
 642              	.LVL53:
 506:Drivers/lvgl/src/widgets/image/lv_image.c **** 
 643              		.loc 1 506 1 view .LVU194
 644 0004 7047     		bx	lr
 645              	.LVL54:
 646              	.L52:
 501:Drivers/lvgl/src/widgets/image/lv_image.c **** 
 647              		.loc 1 501 5 is_stmt 1 view .LVU195
 501:Drivers/lvgl/src/widgets/image/lv_image.c **** 
 648              		.loc 1 501 5 view .LVU196
 501:Drivers/lvgl/src/widgets/image/lv_image.c **** 
 649              		.loc 1 501 5 view .LVU197
 501:Drivers/lvgl/src/widgets/image/lv_image.c **** 
 650              		.loc 1 501 5 view .LVU198
 501:Drivers/lvgl/src/widgets/image/lv_image.c **** 
 651              		.loc 1 501 5 view .LVU199
 652 0006 FEE7     		b	.L52
 653              		.cfi_endproc
 654              	.LFE212:
 656              		.section	.text.lv_image_get_offset_y,"ax",%progbits
 657              		.align	1
 658              		.global	lv_image_get_offset_y
 659              		.syntax unified
 660              		.thumb
 661              		.thumb_func
 663              	lv_image_get_offset_y:
 664              	.LVL55:
 665              	.LFB213:
 509:Drivers/lvgl/src/widgets/image/lv_image.c ****     LV_ASSERT_OBJ(obj, MY_CLASS);
 666              		.loc 1 509 1 view -0
 667              		.cfi_startproc
 668              		@ args = 0, pretend = 0, frame = 0
 669              		@ frame_needed = 0, uses_anonymous_args = 0
 670              		@ link register save eliminated.
 510:Drivers/lvgl/src/widgets/image/lv_image.c **** 
 671              		.loc 1 510 5 view .LVU201
 510:Drivers/lvgl/src/widgets/image/lv_image.c **** 
 672              		.loc 1 510 5 view .LVU202
 673 0000 08B1     		cbz	r0, .L55
 510:Drivers/lvgl/src/widgets/image/lv_image.c **** 
 674              		.loc 1 510 5 view .LVU203
 510:Drivers/lvgl/src/widgets/image/lv_image.c **** 
 675              		.loc 1 510 33 view .LVU204
 512:Drivers/lvgl/src/widgets/image/lv_image.c **** 
 676              		.loc 1 512 5 view .LVU205
 677              	.LVL56:
 514:Drivers/lvgl/src/widgets/image/lv_image.c **** }
 678              		.loc 1 514 5 view .LVU206
 515:Drivers/lvgl/src/widgets/image/lv_image.c **** 
 679              		.loc 1 515 1 is_stmt 0 view .LVU207
 680 0002 806B     		ldr	r0, [r0, #56]
 681              	.LVL57:
ARM GAS  /var/folders/qx/2_175_4n2s19vhvtspjhb3qh0000gn/T//ccePDbYF.s 			page 34


 515:Drivers/lvgl/src/widgets/image/lv_image.c **** 
 682              		.loc 1 515 1 view .LVU208
 683 0004 7047     		bx	lr
 684              	.LVL58:
 685              	.L55:
 510:Drivers/lvgl/src/widgets/image/lv_image.c **** 
 686              		.loc 1 510 5 is_stmt 1 view .LVU209
 510:Drivers/lvgl/src/widgets/image/lv_image.c **** 
 687              		.loc 1 510 5 view .LVU210
 510:Drivers/lvgl/src/widgets/image/lv_image.c **** 
 688              		.loc 1 510 5 view .LVU211
 510:Drivers/lvgl/src/widgets/image/lv_image.c **** 
 689              		.loc 1 510 5 view .LVU212
 510:Drivers/lvgl/src/widgets/image/lv_image.c **** 
 690              		.loc 1 510 5 view .LVU213
 691 0006 FEE7     		b	.L55
 692              		.cfi_endproc
 693              	.LFE213:
 695              		.section	.text.lv_image_get_rotation,"ax",%progbits
 696              		.align	1
 697              		.global	lv_image_get_rotation
 698              		.syntax unified
 699              		.thumb
 700              		.thumb_func
 702              	lv_image_get_rotation:
 703              	.LVL59:
 704              	.LFB214:
 518:Drivers/lvgl/src/widgets/image/lv_image.c ****     LV_ASSERT_OBJ(obj, MY_CLASS);
 705              		.loc 1 518 1 view -0
 706              		.cfi_startproc
 707              		@ args = 0, pretend = 0, frame = 0
 708              		@ frame_needed = 0, uses_anonymous_args = 0
 709              		@ link register save eliminated.
 519:Drivers/lvgl/src/widgets/image/lv_image.c **** 
 710              		.loc 1 519 5 view .LVU215
 519:Drivers/lvgl/src/widgets/image/lv_image.c **** 
 711              		.loc 1 519 5 view .LVU216
 712 0000 08B1     		cbz	r0, .L58
 519:Drivers/lvgl/src/widgets/image/lv_image.c **** 
 713              		.loc 1 519 5 view .LVU217
 519:Drivers/lvgl/src/widgets/image/lv_image.c **** 
 714              		.loc 1 519 33 view .LVU218
 521:Drivers/lvgl/src/widgets/image/lv_image.c **** 
 715              		.loc 1 521 5 view .LVU219
 716              	.LVL60:
 523:Drivers/lvgl/src/widgets/image/lv_image.c **** }
 717              		.loc 1 523 5 view .LVU220
 524:Drivers/lvgl/src/widgets/image/lv_image.c **** 
 718              		.loc 1 524 1 is_stmt 0 view .LVU221
 719 0002 406C     		ldr	r0, [r0, #68]
 720              	.LVL61:
 524:Drivers/lvgl/src/widgets/image/lv_image.c **** 
 721              		.loc 1 524 1 view .LVU222
 722 0004 7047     		bx	lr
 723              	.LVL62:
 724              	.L58:
 519:Drivers/lvgl/src/widgets/image/lv_image.c **** 
ARM GAS  /var/folders/qx/2_175_4n2s19vhvtspjhb3qh0000gn/T//ccePDbYF.s 			page 35


 725              		.loc 1 519 5 is_stmt 1 view .LVU223
 519:Drivers/lvgl/src/widgets/image/lv_image.c **** 
 726              		.loc 1 519 5 view .LVU224
 519:Drivers/lvgl/src/widgets/image/lv_image.c **** 
 727              		.loc 1 519 5 view .LVU225
 519:Drivers/lvgl/src/widgets/image/lv_image.c **** 
 728              		.loc 1 519 5 view .LVU226
 519:Drivers/lvgl/src/widgets/image/lv_image.c **** 
 729              		.loc 1 519 5 view .LVU227
 730 0006 FEE7     		b	.L58
 731              		.cfi_endproc
 732              	.LFE214:
 734              		.section	.text.lv_image_get_pivot,"ax",%progbits
 735              		.align	1
 736              		.global	lv_image_get_pivot
 737              		.syntax unified
 738              		.thumb
 739              		.thumb_func
 741              	lv_image_get_pivot:
 742              	.LVL63:
 743              	.LFB215:
 527:Drivers/lvgl/src/widgets/image/lv_image.c ****     LV_ASSERT_OBJ(obj, MY_CLASS);
 744              		.loc 1 527 1 view -0
 745              		.cfi_startproc
 746              		@ args = 0, pretend = 0, frame = 0
 747              		@ frame_needed = 0, uses_anonymous_args = 0
 528:Drivers/lvgl/src/widgets/image/lv_image.c **** 
 748              		.loc 1 528 5 view .LVU229
 528:Drivers/lvgl/src/widgets/image/lv_image.c **** 
 749              		.loc 1 528 5 view .LVU230
 750 0000 68B1     		cbz	r0, .L61
 527:Drivers/lvgl/src/widgets/image/lv_image.c ****     LV_ASSERT_OBJ(obj, MY_CLASS);
 751              		.loc 1 527 1 is_stmt 0 view .LVU231
 752 0002 38B5     		push	{r3, r4, r5, lr}
 753              	.LCFI14:
 754              		.cfi_def_cfa_offset 16
 755              		.cfi_offset 3, -16
 756              		.cfi_offset 4, -12
 757              		.cfi_offset 5, -8
 758              		.cfi_offset 14, -4
 759 0004 0C46     		mov	r4, r1
 760 0006 0546     		mov	r5, r0
 528:Drivers/lvgl/src/widgets/image/lv_image.c **** 
 761              		.loc 1 528 5 is_stmt 1 view .LVU232
 528:Drivers/lvgl/src/widgets/image/lv_image.c **** 
 762              		.loc 1 528 33 view .LVU233
 530:Drivers/lvgl/src/widgets/image/lv_image.c **** 
 763              		.loc 1 530 5 view .LVU234
 764              	.LVL64:
 532:Drivers/lvgl/src/widgets/image/lv_image.c ****     pivot->y = lv_pct_to_px(img->pivot.y, img->h);
 765              		.loc 1 532 5 view .LVU235
 532:Drivers/lvgl/src/widgets/image/lv_image.c ****     pivot->y = lv_pct_to_px(img->pivot.y, img->h);
 766              		.loc 1 532 16 is_stmt 0 view .LVU236
 767 0008 C16B     		ldr	r1, [r0, #60]
 768              	.LVL65:
 532:Drivers/lvgl/src/widgets/image/lv_image.c ****     pivot->y = lv_pct_to_px(img->pivot.y, img->h);
 769              		.loc 1 532 16 view .LVU237
ARM GAS  /var/folders/qx/2_175_4n2s19vhvtspjhb3qh0000gn/T//ccePDbYF.s 			page 36


 770 000a 006D     		ldr	r0, [r0, #80]
 771              	.LVL66:
 532:Drivers/lvgl/src/widgets/image/lv_image.c ****     pivot->y = lv_pct_to_px(img->pivot.y, img->h);
 772              		.loc 1 532 16 view .LVU238
 773 000c FFF7FEFF 		bl	lv_pct_to_px
 774              	.LVL67:
 532:Drivers/lvgl/src/widgets/image/lv_image.c ****     pivot->y = lv_pct_to_px(img->pivot.y, img->h);
 775              		.loc 1 532 14 discriminator 1 view .LVU239
 776 0010 2060     		str	r0, [r4]
 533:Drivers/lvgl/src/widgets/image/lv_image.c **** }
 777              		.loc 1 533 5 is_stmt 1 view .LVU240
 533:Drivers/lvgl/src/widgets/image/lv_image.c **** }
 778              		.loc 1 533 16 is_stmt 0 view .LVU241
 779 0012 296C     		ldr	r1, [r5, #64]
 780 0014 686D     		ldr	r0, [r5, #84]
 781 0016 FFF7FEFF 		bl	lv_pct_to_px
 782              	.LVL68:
 533:Drivers/lvgl/src/widgets/image/lv_image.c **** }
 783              		.loc 1 533 14 discriminator 1 view .LVU242
 784 001a 6060     		str	r0, [r4, #4]
 534:Drivers/lvgl/src/widgets/image/lv_image.c **** 
 785              		.loc 1 534 1 view .LVU243
 786 001c 38BD     		pop	{r3, r4, r5, pc}
 787              	.LVL69:
 788              	.L61:
 789              	.LCFI15:
 790              		.cfi_def_cfa_offset 0
 791              		.cfi_restore 3
 792              		.cfi_restore 4
 793              		.cfi_restore 5
 794              		.cfi_restore 14
 528:Drivers/lvgl/src/widgets/image/lv_image.c **** 
 795              		.loc 1 528 5 is_stmt 1 view .LVU244
 528:Drivers/lvgl/src/widgets/image/lv_image.c **** 
 796              		.loc 1 528 5 view .LVU245
 528:Drivers/lvgl/src/widgets/image/lv_image.c **** 
 797              		.loc 1 528 5 view .LVU246
 528:Drivers/lvgl/src/widgets/image/lv_image.c **** 
 798              		.loc 1 528 5 view .LVU247
 528:Drivers/lvgl/src/widgets/image/lv_image.c **** 
 799              		.loc 1 528 5 view .LVU248
 800 001e FEE7     		b	.L61
 801              		.cfi_endproc
 802              	.LFE215:
 804              		.section	.text.scale_update,"ax",%progbits
 805              		.align	1
 806              		.syntax unified
 807              		.thumb
 808              		.thumb_func
 810              	scale_update:
 811              	.LVL70:
 812              	.LFB232:
 961:Drivers/lvgl/src/widgets/image/lv_image.c ****     lv_image_t * img = (lv_image_t *)obj;
 813              		.loc 1 961 1 view -0
 814              		.cfi_startproc
 815              		@ args = 0, pretend = 0, frame = 24
 816              		@ frame_needed = 0, uses_anonymous_args = 0
ARM GAS  /var/folders/qx/2_175_4n2s19vhvtspjhb3qh0000gn/T//ccePDbYF.s 			page 37


 961:Drivers/lvgl/src/widgets/image/lv_image.c ****     lv_image_t * img = (lv_image_t *)obj;
 817              		.loc 1 961 1 is_stmt 0 view .LVU250
 818 0000 2DE9F047 		push	{r4, r5, r6, r7, r8, r9, r10, lr}
 819              	.LCFI16:
 820              		.cfi_def_cfa_offset 32
 821              		.cfi_offset 4, -32
 822              		.cfi_offset 5, -28
 823              		.cfi_offset 6, -24
 824              		.cfi_offset 7, -20
 825              		.cfi_offset 8, -16
 826              		.cfi_offset 9, -12
 827              		.cfi_offset 10, -8
 828              		.cfi_offset 14, -4
 829 0004 8AB0     		sub	sp, sp, #40
 830              	.LCFI17:
 831              		.cfi_def_cfa_offset 72
 832 0006 0446     		mov	r4, r0
 833 0008 8A46     		mov	r10, r1
 834 000a 9146     		mov	r9, r2
 962:Drivers/lvgl/src/widgets/image/lv_image.c **** 
 835              		.loc 1 962 5 is_stmt 1 view .LVU251
 836              	.LVL71:
 964:Drivers/lvgl/src/widgets/image/lv_image.c ****     int32_t w = lv_obj_get_width(obj);
 837              		.loc 1 964 5 view .LVU252
 838 000c FFF7FEFF 		bl	lv_obj_update_layout
 839              	.LVL72:
 965:Drivers/lvgl/src/widgets/image/lv_image.c ****     int32_t h = lv_obj_get_height(obj);
 840              		.loc 1 965 5 view .LVU253
 965:Drivers/lvgl/src/widgets/image/lv_image.c ****     int32_t h = lv_obj_get_height(obj);
 841              		.loc 1 965 17 is_stmt 0 view .LVU254
 842 0010 2046     		mov	r0, r4
 843 0012 FFF7FEFF 		bl	lv_obj_get_width
 844              	.LVL73:
 845 0016 0646     		mov	r6, r0
 846              	.LVL74:
 966:Drivers/lvgl/src/widgets/image/lv_image.c ****     lv_area_t a;
 847              		.loc 1 966 5 is_stmt 1 view .LVU255
 966:Drivers/lvgl/src/widgets/image/lv_image.c ****     lv_area_t a;
 848              		.loc 1 966 17 is_stmt 0 view .LVU256
 849 0018 2046     		mov	r0, r4
 850              	.LVL75:
 966:Drivers/lvgl/src/widgets/image/lv_image.c ****     lv_area_t a;
 851              		.loc 1 966 17 view .LVU257
 852 001a FFF7FEFF 		bl	lv_obj_get_height
 853              	.LVL76:
 854 001e 0746     		mov	r7, r0
 855              	.LVL77:
 967:Drivers/lvgl/src/widgets/image/lv_image.c ****     lv_point_t pivot_px;
 856              		.loc 1 967 5 is_stmt 1 view .LVU258
 968:Drivers/lvgl/src/widgets/image/lv_image.c ****     lv_image_get_pivot(obj, &pivot_px);
 857              		.loc 1 968 5 view .LVU259
 969:Drivers/lvgl/src/widgets/image/lv_image.c ****     lv_image_buf_get_transformed_area(&a, w, h, img->rotation, img->scale_x, img->scale_y, &pivot_p
 858              		.loc 1 969 5 view .LVU260
 859 0020 0DF11008 		add	r8, sp, #16
 860 0024 4146     		mov	r1, r8
 861 0026 2046     		mov	r0, r4
 862              	.LVL78:
ARM GAS  /var/folders/qx/2_175_4n2s19vhvtspjhb3qh0000gn/T//ccePDbYF.s 			page 38


 969:Drivers/lvgl/src/widgets/image/lv_image.c ****     lv_image_buf_get_transformed_area(&a, w, h, img->rotation, img->scale_x, img->scale_y, &pivot_p
 863              		.loc 1 969 5 is_stmt 0 view .LVU261
 864 0028 FFF7FEFF 		bl	lv_image_get_pivot
 865              	.LVL79:
 970:Drivers/lvgl/src/widgets/image/lv_image.c ****     a.x1 += obj->coords.x1 - 1;
 866              		.loc 1 970 5 is_stmt 1 view .LVU262
 867 002c 06AD     		add	r5, sp, #24
 868 002e CDF80880 		str	r8, [sp, #8]
 869 0032 B4F84C30 		ldrh	r3, [r4, #76]
 870 0036 0193     		str	r3, [sp, #4]
 871 0038 B4F84830 		ldrh	r3, [r4, #72]
 872 003c 0093     		str	r3, [sp]
 873 003e 636C     		ldr	r3, [r4, #68]
 874 0040 3A46     		mov	r2, r7
 875 0042 3146     		mov	r1, r6
 876 0044 2846     		mov	r0, r5
 877 0046 FFF7FEFF 		bl	lv_image_buf_get_transformed_area
 878              	.LVL80:
 971:Drivers/lvgl/src/widgets/image/lv_image.c ****     a.y1 += obj->coords.y1 - 1;
 879              		.loc 1 971 5 view .LVU263
 971:Drivers/lvgl/src/widgets/image/lv_image.c ****     a.y1 += obj->coords.y1 - 1;
 880              		.loc 1 971 24 is_stmt 0 view .LVU264
 881 004a 6269     		ldr	r2, [r4, #20]
 971:Drivers/lvgl/src/widgets/image/lv_image.c ****     a.y1 += obj->coords.y1 - 1;
 882              		.loc 1 971 28 view .LVU265
 883 004c 511E     		subs	r1, r2, #1
 971:Drivers/lvgl/src/widgets/image/lv_image.c ****     a.y1 += obj->coords.y1 - 1;
 884              		.loc 1 971 10 view .LVU266
 885 004e 069B     		ldr	r3, [sp, #24]
 886 0050 0B44     		add	r3, r3, r1
 887 0052 0693     		str	r3, [sp, #24]
 972:Drivers/lvgl/src/widgets/image/lv_image.c ****     a.x2 += obj->coords.x1 + 1;
 888              		.loc 1 972 5 is_stmt 1 view .LVU267
 972:Drivers/lvgl/src/widgets/image/lv_image.c ****     a.x2 += obj->coords.x1 + 1;
 889              		.loc 1 972 24 is_stmt 0 view .LVU268
 890 0054 A369     		ldr	r3, [r4, #24]
 972:Drivers/lvgl/src/widgets/image/lv_image.c ****     a.x2 += obj->coords.x1 + 1;
 891              		.loc 1 972 28 view .LVU269
 892 0056 581E     		subs	r0, r3, #1
 972:Drivers/lvgl/src/widgets/image/lv_image.c ****     a.x2 += obj->coords.x1 + 1;
 893              		.loc 1 972 10 view .LVU270
 894 0058 0799     		ldr	r1, [sp, #28]
 895 005a 0144     		add	r1, r1, r0
 896 005c 0791     		str	r1, [sp, #28]
 973:Drivers/lvgl/src/widgets/image/lv_image.c ****     a.y2 += obj->coords.y1 + 1;
 897              		.loc 1 973 5 is_stmt 1 view .LVU271
 973:Drivers/lvgl/src/widgets/image/lv_image.c ****     a.y2 += obj->coords.y1 + 1;
 898              		.loc 1 973 28 is_stmt 0 view .LVU272
 899 005e 0132     		adds	r2, r2, #1
 973:Drivers/lvgl/src/widgets/image/lv_image.c ****     a.y2 += obj->coords.y1 + 1;
 900              		.loc 1 973 10 view .LVU273
 901 0060 0899     		ldr	r1, [sp, #32]
 902 0062 1144     		add	r1, r1, r2
 903 0064 0891     		str	r1, [sp, #32]
 974:Drivers/lvgl/src/widgets/image/lv_image.c ****     lv_obj_invalidate_area(obj, &a);
 904              		.loc 1 974 5 is_stmt 1 view .LVU274
 974:Drivers/lvgl/src/widgets/image/lv_image.c ****     lv_obj_invalidate_area(obj, &a);
ARM GAS  /var/folders/qx/2_175_4n2s19vhvtspjhb3qh0000gn/T//ccePDbYF.s 			page 39


 905              		.loc 1 974 28 is_stmt 0 view .LVU275
 906 0066 0133     		adds	r3, r3, #1
 974:Drivers/lvgl/src/widgets/image/lv_image.c ****     lv_obj_invalidate_area(obj, &a);
 907              		.loc 1 974 10 view .LVU276
 908 0068 099A     		ldr	r2, [sp, #36]
 909 006a 1A44     		add	r2, r2, r3
 910 006c 0992     		str	r2, [sp, #36]
 975:Drivers/lvgl/src/widgets/image/lv_image.c **** 
 911              		.loc 1 975 5 is_stmt 1 view .LVU277
 912 006e 2946     		mov	r1, r5
 913 0070 2046     		mov	r0, r4
 914 0072 FFF7FEFF 		bl	lv_obj_invalidate_area
 915              	.LVL81:
 977:Drivers/lvgl/src/widgets/image/lv_image.c ****     img->scale_y = scale_y;
 916              		.loc 1 977 5 view .LVU278
 977:Drivers/lvgl/src/widgets/image/lv_image.c ****     img->scale_y = scale_y;
 917              		.loc 1 977 18 is_stmt 0 view .LVU279
 918 0076 C4F848A0 		str	r10, [r4, #72]
 978:Drivers/lvgl/src/widgets/image/lv_image.c **** 
 919              		.loc 1 978 5 is_stmt 1 view .LVU280
 978:Drivers/lvgl/src/widgets/image/lv_image.c **** 
 920              		.loc 1 978 18 is_stmt 0 view .LVU281
 921 007a C4F84C90 		str	r9, [r4, #76]
 982:Drivers/lvgl/src/widgets/image/lv_image.c ****     lv_display_enable_invalidation(disp, false);
 922              		.loc 1 982 5 is_stmt 1 view .LVU282
 982:Drivers/lvgl/src/widgets/image/lv_image.c ****     lv_display_enable_invalidation(disp, false);
 923              		.loc 1 982 27 is_stmt 0 view .LVU283
 924 007e 2046     		mov	r0, r4
 925 0080 FFF7FEFF 		bl	lv_obj_get_display
 926              	.LVL82:
 927 0084 8146     		mov	r9, r0
 928              	.LVL83:
 983:Drivers/lvgl/src/widgets/image/lv_image.c ****     lv_obj_refresh_ext_draw_size(obj);
 929              		.loc 1 983 5 is_stmt 1 view .LVU284
 930 0086 0021     		movs	r1, #0
 931 0088 FFF7FEFF 		bl	lv_display_enable_invalidation
 932              	.LVL84:
 984:Drivers/lvgl/src/widgets/image/lv_image.c ****     lv_display_enable_invalidation(disp, true);
 933              		.loc 1 984 5 view .LVU285
 934 008c 2046     		mov	r0, r4
 935 008e FFF7FEFF 		bl	lv_obj_refresh_ext_draw_size
 936              	.LVL85:
 985:Drivers/lvgl/src/widgets/image/lv_image.c **** 
 937              		.loc 1 985 5 view .LVU286
 938 0092 0121     		movs	r1, #1
 939 0094 4846     		mov	r0, r9
 940 0096 FFF7FEFF 		bl	lv_display_enable_invalidation
 941              	.LVL86:
 987:Drivers/lvgl/src/widgets/image/lv_image.c ****     a.x1 += obj->coords.x1 - 1;
 942              		.loc 1 987 5 view .LVU287
 943 009a CDF80880 		str	r8, [sp, #8]
 944 009e B4F84C30 		ldrh	r3, [r4, #76]
 945 00a2 0193     		str	r3, [sp, #4]
 946 00a4 B4F84830 		ldrh	r3, [r4, #72]
 947 00a8 0093     		str	r3, [sp]
 948 00aa 636C     		ldr	r3, [r4, #68]
 949 00ac 3A46     		mov	r2, r7
ARM GAS  /var/folders/qx/2_175_4n2s19vhvtspjhb3qh0000gn/T//ccePDbYF.s 			page 40


 950 00ae 3146     		mov	r1, r6
 951 00b0 2846     		mov	r0, r5
 952 00b2 FFF7FEFF 		bl	lv_image_buf_get_transformed_area
 953              	.LVL87:
 988:Drivers/lvgl/src/widgets/image/lv_image.c ****     a.y1 += obj->coords.y1 - 1;
 954              		.loc 1 988 5 view .LVU288
 988:Drivers/lvgl/src/widgets/image/lv_image.c ****     a.y1 += obj->coords.y1 - 1;
 955              		.loc 1 988 24 is_stmt 0 view .LVU289
 956 00b6 6269     		ldr	r2, [r4, #20]
 988:Drivers/lvgl/src/widgets/image/lv_image.c ****     a.y1 += obj->coords.y1 - 1;
 957              		.loc 1 988 28 view .LVU290
 958 00b8 511E     		subs	r1, r2, #1
 988:Drivers/lvgl/src/widgets/image/lv_image.c ****     a.y1 += obj->coords.y1 - 1;
 959              		.loc 1 988 10 view .LVU291
 960 00ba 069B     		ldr	r3, [sp, #24]
 961 00bc 0B44     		add	r3, r3, r1
 962 00be 0693     		str	r3, [sp, #24]
 989:Drivers/lvgl/src/widgets/image/lv_image.c ****     a.x2 += obj->coords.x1 + 1;
 963              		.loc 1 989 5 is_stmt 1 view .LVU292
 989:Drivers/lvgl/src/widgets/image/lv_image.c ****     a.x2 += obj->coords.x1 + 1;
 964              		.loc 1 989 24 is_stmt 0 view .LVU293
 965 00c0 A369     		ldr	r3, [r4, #24]
 989:Drivers/lvgl/src/widgets/image/lv_image.c ****     a.x2 += obj->coords.x1 + 1;
 966              		.loc 1 989 28 view .LVU294
 967 00c2 581E     		subs	r0, r3, #1
 989:Drivers/lvgl/src/widgets/image/lv_image.c ****     a.x2 += obj->coords.x1 + 1;
 968              		.loc 1 989 10 view .LVU295
 969 00c4 0799     		ldr	r1, [sp, #28]
 970 00c6 0144     		add	r1, r1, r0
 971 00c8 0791     		str	r1, [sp, #28]
 990:Drivers/lvgl/src/widgets/image/lv_image.c ****     a.y2 += obj->coords.y1 + 1;
 972              		.loc 1 990 5 is_stmt 1 view .LVU296
 990:Drivers/lvgl/src/widgets/image/lv_image.c ****     a.y2 += obj->coords.y1 + 1;
 973              		.loc 1 990 28 is_stmt 0 view .LVU297
 974 00ca 0132     		adds	r2, r2, #1
 990:Drivers/lvgl/src/widgets/image/lv_image.c ****     a.y2 += obj->coords.y1 + 1;
 975              		.loc 1 990 10 view .LVU298
 976 00cc 0899     		ldr	r1, [sp, #32]
 977 00ce 1144     		add	r1, r1, r2
 978 00d0 0891     		str	r1, [sp, #32]
 991:Drivers/lvgl/src/widgets/image/lv_image.c ****     lv_obj_invalidate_area(obj, &a);
 979              		.loc 1 991 5 is_stmt 1 view .LVU299
 991:Drivers/lvgl/src/widgets/image/lv_image.c ****     lv_obj_invalidate_area(obj, &a);
 980              		.loc 1 991 28 is_stmt 0 view .LVU300
 981 00d2 0133     		adds	r3, r3, #1
 991:Drivers/lvgl/src/widgets/image/lv_image.c ****     lv_obj_invalidate_area(obj, &a);
 982              		.loc 1 991 10 view .LVU301
 983 00d4 099A     		ldr	r2, [sp, #36]
 984 00d6 1A44     		add	r2, r2, r3
 985 00d8 0992     		str	r2, [sp, #36]
 992:Drivers/lvgl/src/widgets/image/lv_image.c **** }
 986              		.loc 1 992 5 is_stmt 1 view .LVU302
 987 00da 2946     		mov	r1, r5
 988 00dc 2046     		mov	r0, r4
 989 00de FFF7FEFF 		bl	lv_obj_invalidate_area
 990              	.LVL88:
 993:Drivers/lvgl/src/widgets/image/lv_image.c **** 
ARM GAS  /var/folders/qx/2_175_4n2s19vhvtspjhb3qh0000gn/T//ccePDbYF.s 			page 41


 991              		.loc 1 993 1 is_stmt 0 view .LVU303
 992 00e2 0AB0     		add	sp, sp, #40
 993              	.LCFI18:
 994              		.cfi_def_cfa_offset 32
 995              		@ sp needed
 996 00e4 BDE8F087 		pop	{r4, r5, r6, r7, r8, r9, r10, pc}
 993:Drivers/lvgl/src/widgets/image/lv_image.c **** 
 997              		.loc 1 993 1 view .LVU304
 998              		.cfi_endproc
 999              	.LFE232:
 1001              		.section	.text.lv_image_set_scale,"ax",%progbits
 1002              		.align	1
 1003              		.global	lv_image_set_scale
 1004              		.syntax unified
 1005              		.thumb
 1006              		.thumb_func
 1008              	lv_image_set_scale:
 1009              	.LVL89:
 1010              	.LFB204:
 387:Drivers/lvgl/src/widgets/image/lv_image.c ****     LV_ASSERT_OBJ(obj, MY_CLASS);
 1011              		.loc 1 387 1 is_stmt 1 view -0
 1012              		.cfi_startproc
 1013              		@ args = 0, pretend = 0, frame = 0
 1014              		@ frame_needed = 0, uses_anonymous_args = 0
 388:Drivers/lvgl/src/widgets/image/lv_image.c **** 
 1015              		.loc 1 388 5 view .LVU306
 388:Drivers/lvgl/src/widgets/image/lv_image.c **** 
 1016              		.loc 1 388 5 view .LVU307
 1017 0000 88B1     		cbz	r0, .L68
 387:Drivers/lvgl/src/widgets/image/lv_image.c ****     LV_ASSERT_OBJ(obj, MY_CLASS);
 1018              		.loc 1 387 1 is_stmt 0 view .LVU308
 1019 0002 08B5     		push	{r3, lr}
 1020              	.LCFI19:
 1021              		.cfi_def_cfa_offset 8
 1022              		.cfi_offset 3, -8
 1023              		.cfi_offset 14, -4
 1024 0004 8446     		mov	ip, r0
 388:Drivers/lvgl/src/widgets/image/lv_image.c **** 
 1025              		.loc 1 388 5 is_stmt 1 view .LVU309
 388:Drivers/lvgl/src/widgets/image/lv_image.c **** 
 1026              		.loc 1 388 33 view .LVU310
 390:Drivers/lvgl/src/widgets/image/lv_image.c **** 
 1027              		.loc 1 390 5 view .LVU311
 1028              	.LVL90:
 393:Drivers/lvgl/src/widgets/image/lv_image.c **** 
 1029              		.loc 1 393 5 view .LVU312
 393:Drivers/lvgl/src/widgets/image/lv_image.c **** 
 1030              		.loc 1 393 11 is_stmt 0 view .LVU313
 1031 0006 90F85930 		ldrb	r3, [r0, #89]	@ zero_extendqisi2
 1032 000a 03F00F03 		and	r3, r3, #15
 393:Drivers/lvgl/src/widgets/image/lv_image.c **** 
 1033              		.loc 1 393 7 view .LVU314
 1034 000e 0A2B     		cmp	r3, #10
 1035 0010 08D8     		bhi	.L66
 395:Drivers/lvgl/src/widgets/image/lv_image.c **** 
 1036              		.loc 1 395 5 is_stmt 1 view .LVU315
 395:Drivers/lvgl/src/widgets/image/lv_image.c **** 
ARM GAS  /var/folders/qx/2_175_4n2s19vhvtspjhb3qh0000gn/T//ccePDbYF.s 			page 42


 1037              		.loc 1 395 19 is_stmt 0 view .LVU316
 1038 0012 836C     		ldr	r3, [r0, #72]
 395:Drivers/lvgl/src/widgets/image/lv_image.c **** 
 1039              		.loc 1 395 7 view .LVU317
 1040 0014 8B42     		cmp	r3, r1
 1041 0016 07D0     		beq	.L75
 1042              	.L70:
 397:Drivers/lvgl/src/widgets/image/lv_image.c **** 
 1043              		.loc 1 397 5 is_stmt 1 view .LVU318
 397:Drivers/lvgl/src/widgets/image/lv_image.c **** 
 1044              		.loc 1 397 7 is_stmt 0 view .LVU319
 1045 0018 01B9     		cbnz	r1, .L71
 397:Drivers/lvgl/src/widgets/image/lv_image.c **** 
 1046              		.loc 1 397 24 discriminator 1 view .LVU320
 1047 001a 0121     		movs	r1, #1
 1048              	.LVL91:
 1049              	.L71:
 399:Drivers/lvgl/src/widgets/image/lv_image.c **** }
 1050              		.loc 1 399 5 is_stmt 1 view .LVU321
 1051 001c 0A46     		mov	r2, r1
 1052 001e 6046     		mov	r0, ip
 1053              	.LVL92:
 399:Drivers/lvgl/src/widgets/image/lv_image.c **** }
 1054              		.loc 1 399 5 is_stmt 0 view .LVU322
 1055 0020 FFF7FEFF 		bl	scale_update
 1056              	.LVL93:
 1057              	.L66:
 400:Drivers/lvgl/src/widgets/image/lv_image.c **** 
 1058              		.loc 1 400 1 view .LVU323
 1059 0024 08BD     		pop	{r3, pc}
 1060              	.LVL94:
 1061              	.L68:
 1062              	.LCFI20:
 1063              		.cfi_def_cfa_offset 0
 1064              		.cfi_restore 3
 1065              		.cfi_restore 14
 388:Drivers/lvgl/src/widgets/image/lv_image.c **** 
 1066              		.loc 1 388 5 is_stmt 1 view .LVU324
 388:Drivers/lvgl/src/widgets/image/lv_image.c **** 
 1067              		.loc 1 388 5 view .LVU325
 388:Drivers/lvgl/src/widgets/image/lv_image.c **** 
 1068              		.loc 1 388 5 view .LVU326
 388:Drivers/lvgl/src/widgets/image/lv_image.c **** 
 1069              		.loc 1 388 5 view .LVU327
 388:Drivers/lvgl/src/widgets/image/lv_image.c **** 
 1070              		.loc 1 388 5 view .LVU328
 1071 0026 FEE7     		b	.L68
 1072              	.LVL95:
 1073              	.L75:
 1074              	.LCFI21:
 1075              		.cfi_def_cfa_offset 8
 1076              		.cfi_offset 3, -8
 1077              		.cfi_offset 14, -4
 395:Drivers/lvgl/src/widgets/image/lv_image.c **** 
 1078              		.loc 1 395 43 is_stmt 0 discriminator 1 view .LVU329
 1079 0028 C36C     		ldr	r3, [r0, #76]
 395:Drivers/lvgl/src/widgets/image/lv_image.c **** 
ARM GAS  /var/folders/qx/2_175_4n2s19vhvtspjhb3qh0000gn/T//ccePDbYF.s 			page 43


 1080              		.loc 1 395 29 discriminator 1 view .LVU330
 1081 002a 8B42     		cmp	r3, r1
 1082 002c F4D1     		bne	.L70
 1083 002e F9E7     		b	.L66
 1084              		.cfi_endproc
 1085              	.LFE204:
 1087              		.section	.text.lv_image_set_scale_x,"ax",%progbits
 1088              		.align	1
 1089              		.global	lv_image_set_scale_x
 1090              		.syntax unified
 1091              		.thumb
 1092              		.thumb_func
 1094              	lv_image_set_scale_x:
 1095              	.LVL96:
 1096              	.LFB205:
 403:Drivers/lvgl/src/widgets/image/lv_image.c ****     LV_ASSERT_OBJ(obj, MY_CLASS);
 1097              		.loc 1 403 1 is_stmt 1 view -0
 1098              		.cfi_startproc
 1099              		@ args = 0, pretend = 0, frame = 0
 1100              		@ frame_needed = 0, uses_anonymous_args = 0
 404:Drivers/lvgl/src/widgets/image/lv_image.c **** 
 1101              		.loc 1 404 5 view .LVU332
 404:Drivers/lvgl/src/widgets/image/lv_image.c **** 
 1102              		.loc 1 404 5 view .LVU333
 1103 0000 88B1     		cbz	r0, .L78
 403:Drivers/lvgl/src/widgets/image/lv_image.c ****     LV_ASSERT_OBJ(obj, MY_CLASS);
 1104              		.loc 1 403 1 is_stmt 0 view .LVU334
 1105 0002 08B5     		push	{r3, lr}
 1106              	.LCFI22:
 1107              		.cfi_def_cfa_offset 8
 1108              		.cfi_offset 3, -8
 1109              		.cfi_offset 14, -4
 1110 0004 0346     		mov	r3, r0
 404:Drivers/lvgl/src/widgets/image/lv_image.c **** 
 1111              		.loc 1 404 5 is_stmt 1 view .LVU335
 404:Drivers/lvgl/src/widgets/image/lv_image.c **** 
 1112              		.loc 1 404 33 view .LVU336
 406:Drivers/lvgl/src/widgets/image/lv_image.c **** 
 1113              		.loc 1 406 5 view .LVU337
 1114              	.LVL97:
 409:Drivers/lvgl/src/widgets/image/lv_image.c **** 
 1115              		.loc 1 409 5 view .LVU338
 409:Drivers/lvgl/src/widgets/image/lv_image.c **** 
 1116              		.loc 1 409 11 is_stmt 0 view .LVU339
 1117 0006 90F85920 		ldrb	r2, [r0, #89]	@ zero_extendqisi2
 1118 000a 02F00F02 		and	r2, r2, #15
 409:Drivers/lvgl/src/widgets/image/lv_image.c **** 
 1119              		.loc 1 409 7 view .LVU340
 1120 000e 0A2A     		cmp	r2, #10
 1121 0010 08D8     		bhi	.L76
 411:Drivers/lvgl/src/widgets/image/lv_image.c **** 
 1122              		.loc 1 411 5 is_stmt 1 view .LVU341
 411:Drivers/lvgl/src/widgets/image/lv_image.c **** 
 1123              		.loc 1 411 19 is_stmt 0 view .LVU342
 1124 0012 826C     		ldr	r2, [r0, #72]
 411:Drivers/lvgl/src/widgets/image/lv_image.c **** 
 1125              		.loc 1 411 7 view .LVU343
ARM GAS  /var/folders/qx/2_175_4n2s19vhvtspjhb3qh0000gn/T//ccePDbYF.s 			page 44


 1126 0014 8A42     		cmp	r2, r1
 1127 0016 05D0     		beq	.L76
 413:Drivers/lvgl/src/widgets/image/lv_image.c **** 
 1128              		.loc 1 413 5 is_stmt 1 view .LVU344
 413:Drivers/lvgl/src/widgets/image/lv_image.c **** 
 1129              		.loc 1 413 7 is_stmt 0 view .LVU345
 1130 0018 01B9     		cbnz	r1, .L80
 413:Drivers/lvgl/src/widgets/image/lv_image.c **** 
 1131              		.loc 1 413 24 discriminator 1 view .LVU346
 1132 001a 0121     		movs	r1, #1
 1133              	.LVL98:
 1134              	.L80:
 415:Drivers/lvgl/src/widgets/image/lv_image.c **** }
 1135              		.loc 1 415 5 is_stmt 1 view .LVU347
 1136 001c DA6C     		ldr	r2, [r3, #76]
 1137 001e 1846     		mov	r0, r3
 1138              	.LVL99:
 415:Drivers/lvgl/src/widgets/image/lv_image.c **** }
 1139              		.loc 1 415 5 is_stmt 0 view .LVU348
 1140 0020 FFF7FEFF 		bl	scale_update
 1141              	.LVL100:
 1142              	.L76:
 416:Drivers/lvgl/src/widgets/image/lv_image.c **** 
 1143              		.loc 1 416 1 view .LVU349
 1144 0024 08BD     		pop	{r3, pc}
 1145              	.LVL101:
 1146              	.L78:
 1147              	.LCFI23:
 1148              		.cfi_def_cfa_offset 0
 1149              		.cfi_restore 3
 1150              		.cfi_restore 14
 404:Drivers/lvgl/src/widgets/image/lv_image.c **** 
 1151              		.loc 1 404 5 is_stmt 1 view .LVU350
 404:Drivers/lvgl/src/widgets/image/lv_image.c **** 
 1152              		.loc 1 404 5 view .LVU351
 404:Drivers/lvgl/src/widgets/image/lv_image.c **** 
 1153              		.loc 1 404 5 view .LVU352
 404:Drivers/lvgl/src/widgets/image/lv_image.c **** 
 1154              		.loc 1 404 5 view .LVU353
 404:Drivers/lvgl/src/widgets/image/lv_image.c **** 
 1155              		.loc 1 404 5 view .LVU354
 1156 0026 FEE7     		b	.L78
 1157              		.cfi_endproc
 1158              	.LFE205:
 1160              		.section	.text.lv_image_set_scale_y,"ax",%progbits
 1161              		.align	1
 1162              		.global	lv_image_set_scale_y
 1163              		.syntax unified
 1164              		.thumb
 1165              		.thumb_func
 1167              	lv_image_set_scale_y:
 1168              	.LVL102:
 1169              	.LFB206:
 419:Drivers/lvgl/src/widgets/image/lv_image.c ****     LV_ASSERT_OBJ(obj, MY_CLASS);
 1170              		.loc 1 419 1 view -0
 1171              		.cfi_startproc
 1172              		@ args = 0, pretend = 0, frame = 0
ARM GAS  /var/folders/qx/2_175_4n2s19vhvtspjhb3qh0000gn/T//ccePDbYF.s 			page 45


 1173              		@ frame_needed = 0, uses_anonymous_args = 0
 420:Drivers/lvgl/src/widgets/image/lv_image.c **** 
 1174              		.loc 1 420 5 view .LVU356
 420:Drivers/lvgl/src/widgets/image/lv_image.c **** 
 1175              		.loc 1 420 5 view .LVU357
 1176 0000 90B1     		cbz	r0, .L86
 419:Drivers/lvgl/src/widgets/image/lv_image.c ****     LV_ASSERT_OBJ(obj, MY_CLASS);
 1177              		.loc 1 419 1 is_stmt 0 view .LVU358
 1178 0002 08B5     		push	{r3, lr}
 1179              	.LCFI24:
 1180              		.cfi_def_cfa_offset 8
 1181              		.cfi_offset 3, -8
 1182              		.cfi_offset 14, -4
 1183 0004 0A46     		mov	r2, r1
 1184 0006 0346     		mov	r3, r0
 420:Drivers/lvgl/src/widgets/image/lv_image.c **** 
 1185              		.loc 1 420 5 is_stmt 1 view .LVU359
 420:Drivers/lvgl/src/widgets/image/lv_image.c **** 
 1186              		.loc 1 420 33 view .LVU360
 422:Drivers/lvgl/src/widgets/image/lv_image.c **** 
 1187              		.loc 1 422 5 view .LVU361
 1188              	.LVL103:
 425:Drivers/lvgl/src/widgets/image/lv_image.c **** 
 1189              		.loc 1 425 5 view .LVU362
 425:Drivers/lvgl/src/widgets/image/lv_image.c **** 
 1190              		.loc 1 425 11 is_stmt 0 view .LVU363
 1191 0008 90F85910 		ldrb	r1, [r0, #89]	@ zero_extendqisi2
 1192              	.LVL104:
 425:Drivers/lvgl/src/widgets/image/lv_image.c **** 
 1193              		.loc 1 425 11 view .LVU364
 1194 000c 01F00F01 		and	r1, r1, #15
 425:Drivers/lvgl/src/widgets/image/lv_image.c **** 
 1195              		.loc 1 425 7 view .LVU365
 1196 0010 0A29     		cmp	r1, #10
 1197 0012 08D8     		bhi	.L84
 427:Drivers/lvgl/src/widgets/image/lv_image.c **** 
 1198              		.loc 1 427 5 is_stmt 1 view .LVU366
 427:Drivers/lvgl/src/widgets/image/lv_image.c **** 
 1199              		.loc 1 427 19 is_stmt 0 view .LVU367
 1200 0014 C16C     		ldr	r1, [r0, #76]
 427:Drivers/lvgl/src/widgets/image/lv_image.c **** 
 1201              		.loc 1 427 7 view .LVU368
 1202 0016 9142     		cmp	r1, r2
 1203 0018 05D0     		beq	.L84
 429:Drivers/lvgl/src/widgets/image/lv_image.c **** 
 1204              		.loc 1 429 5 is_stmt 1 view .LVU369
 429:Drivers/lvgl/src/widgets/image/lv_image.c **** 
 1205              		.loc 1 429 7 is_stmt 0 view .LVU370
 1206 001a 02B9     		cbnz	r2, .L88
 429:Drivers/lvgl/src/widgets/image/lv_image.c **** 
 1207              		.loc 1 429 24 discriminator 1 view .LVU371
 1208 001c 0122     		movs	r2, #1
 1209              	.LVL105:
 1210              	.L88:
 431:Drivers/lvgl/src/widgets/image/lv_image.c **** }
 1211              		.loc 1 431 5 is_stmt 1 view .LVU372
 1212 001e 996C     		ldr	r1, [r3, #72]
ARM GAS  /var/folders/qx/2_175_4n2s19vhvtspjhb3qh0000gn/T//ccePDbYF.s 			page 46


 1213 0020 1846     		mov	r0, r3
 1214              	.LVL106:
 431:Drivers/lvgl/src/widgets/image/lv_image.c **** }
 1215              		.loc 1 431 5 is_stmt 0 view .LVU373
 1216 0022 FFF7FEFF 		bl	scale_update
 1217              	.LVL107:
 1218              	.L84:
 432:Drivers/lvgl/src/widgets/image/lv_image.c **** 
 1219              		.loc 1 432 1 view .LVU374
 1220 0026 08BD     		pop	{r3, pc}
 1221              	.LVL108:
 1222              	.L86:
 1223              	.LCFI25:
 1224              		.cfi_def_cfa_offset 0
 1225              		.cfi_restore 3
 1226              		.cfi_restore 14
 420:Drivers/lvgl/src/widgets/image/lv_image.c **** 
 1227              		.loc 1 420 5 is_stmt 1 view .LVU375
 420:Drivers/lvgl/src/widgets/image/lv_image.c **** 
 1228              		.loc 1 420 5 view .LVU376
 420:Drivers/lvgl/src/widgets/image/lv_image.c **** 
 1229              		.loc 1 420 5 view .LVU377
 420:Drivers/lvgl/src/widgets/image/lv_image.c **** 
 1230              		.loc 1 420 5 view .LVU378
 420:Drivers/lvgl/src/widgets/image/lv_image.c **** 
 1231              		.loc 1 420 5 view .LVU379
 1232 0028 FEE7     		b	.L86
 1233              		.cfi_endproc
 1234              	.LFE206:
 1236              		.section	.text.lv_image_set_rotation,"ax",%progbits
 1237              		.align	1
 1238              		.global	lv_image_set_rotation
 1239              		.syntax unified
 1240              		.thumb
 1241              		.thumb_func
 1243              	lv_image_set_rotation:
 1244              	.LVL109:
 1245              	.LFB200:
 283:Drivers/lvgl/src/widgets/image/lv_image.c ****     LV_ASSERT_OBJ(obj, MY_CLASS);
 1246              		.loc 1 283 1 view -0
 1247              		.cfi_startproc
 1248              		@ args = 0, pretend = 0, frame = 24
 1249              		@ frame_needed = 0, uses_anonymous_args = 0
 284:Drivers/lvgl/src/widgets/image/lv_image.c **** 
 1250              		.loc 1 284 5 view .LVU381
 284:Drivers/lvgl/src/widgets/image/lv_image.c **** 
 1251              		.loc 1 284 5 view .LVU382
 1252 0000 60B1     		cbz	r0, .L94
 283:Drivers/lvgl/src/widgets/image/lv_image.c ****     LV_ASSERT_OBJ(obj, MY_CLASS);
 1253              		.loc 1 283 1 is_stmt 0 view .LVU383
 1254 0002 2DE9F043 		push	{r4, r5, r6, r7, r8, r9, lr}
 1255              	.LCFI26:
 1256              		.cfi_def_cfa_offset 28
 1257              		.cfi_offset 4, -28
 1258              		.cfi_offset 5, -24
 1259              		.cfi_offset 6, -20
 1260              		.cfi_offset 7, -16
ARM GAS  /var/folders/qx/2_175_4n2s19vhvtspjhb3qh0000gn/T//ccePDbYF.s 			page 47


 1261              		.cfi_offset 8, -12
 1262              		.cfi_offset 9, -8
 1263              		.cfi_offset 14, -4
 1264 0006 8BB0     		sub	sp, sp, #44
 1265              	.LCFI27:
 1266              		.cfi_def_cfa_offset 72
 1267 0008 0C46     		mov	r4, r1
 1268 000a 0546     		mov	r5, r0
 284:Drivers/lvgl/src/widgets/image/lv_image.c **** 
 1269              		.loc 1 284 5 is_stmt 1 view .LVU384
 284:Drivers/lvgl/src/widgets/image/lv_image.c **** 
 1270              		.loc 1 284 33 view .LVU385
 286:Drivers/lvgl/src/widgets/image/lv_image.c ****     if(img->align > _LV_IMAGE_ALIGN_AUTO_TRANSFORM) {
 1271              		.loc 1 286 5 view .LVU386
 1272              	.LVL110:
 287:Drivers/lvgl/src/widgets/image/lv_image.c ****         angle = 0;
 1273              		.loc 1 287 5 view .LVU387
 287:Drivers/lvgl/src/widgets/image/lv_image.c ****         angle = 0;
 1274              		.loc 1 287 11 is_stmt 0 view .LVU388
 1275 000c 90F85930 		ldrb	r3, [r0, #89]	@ zero_extendqisi2
 1276 0010 03F00F03 		and	r3, r3, #15
 287:Drivers/lvgl/src/widgets/image/lv_image.c ****         angle = 0;
 1277              		.loc 1 287 7 view .LVU389
 1278 0014 0A2B     		cmp	r3, #10
 1279 0016 04D9     		bls	.L96
 288:Drivers/lvgl/src/widgets/image/lv_image.c ****     }
 1280              		.loc 1 288 15 view .LVU390
 1281 0018 0024     		movs	r4, #0
 1282 001a 0AE0     		b	.L95
 1283              	.LVL111:
 1284              	.L94:
 1285              	.LCFI28:
 1286              		.cfi_def_cfa_offset 0
 1287              		.cfi_restore 4
 1288              		.cfi_restore 5
 1289              		.cfi_restore 6
 1290              		.cfi_restore 7
 1291              		.cfi_restore 8
 1292              		.cfi_restore 9
 1293              		.cfi_restore 14
 284:Drivers/lvgl/src/widgets/image/lv_image.c **** 
 1294              		.loc 1 284 5 is_stmt 1 view .LVU391
 284:Drivers/lvgl/src/widgets/image/lv_image.c **** 
 1295              		.loc 1 284 5 view .LVU392
 284:Drivers/lvgl/src/widgets/image/lv_image.c **** 
 1296              		.loc 1 284 5 view .LVU393
 284:Drivers/lvgl/src/widgets/image/lv_image.c **** 
 1297              		.loc 1 284 5 view .LVU394
 284:Drivers/lvgl/src/widgets/image/lv_image.c **** 
 1298              		.loc 1 284 5 view .LVU395
 1299 001c FEE7     		b	.L94
 1300              	.LVL112:
 1301              	.L97:
 1302              	.LCFI29:
 1303              		.cfi_def_cfa_offset 72
 1304              		.cfi_offset 4, -28
 1305              		.cfi_offset 5, -24
ARM GAS  /var/folders/qx/2_175_4n2s19vhvtspjhb3qh0000gn/T//ccePDbYF.s 			page 48


 1306              		.cfi_offset 6, -20
 1307              		.cfi_offset 7, -16
 1308              		.cfi_offset 8, -12
 1309              		.cfi_offset 9, -8
 1310              		.cfi_offset 14, -4
 291:Drivers/lvgl/src/widgets/image/lv_image.c ****         while(angle < 0) angle += 3600;
 1311              		.loc 1 291 30 discriminator 2 view .LVU396
 291:Drivers/lvgl/src/widgets/image/lv_image.c ****         while(angle < 0) angle += 3600;
 1312              		.loc 1 291 36 is_stmt 0 discriminator 2 view .LVU397
 1313 001e A4F56164 		sub	r4, r4, #3600
 1314              	.LVL113:
 1315              	.L96:
 291:Drivers/lvgl/src/widgets/image/lv_image.c ****         while(angle < 0) angle += 3600;
 1316              		.loc 1 291 21 is_stmt 1 discriminator 1 view .LVU398
 1317 0022 B4F5616F 		cmp	r4, #3600
 1318 0026 FADA     		bge	.L97
 1319 0028 01E0     		b	.L98
 1320              	.L99:
 292:Drivers/lvgl/src/widgets/image/lv_image.c ****     }
 1321              		.loc 1 292 26 discriminator 2 view .LVU399
 292:Drivers/lvgl/src/widgets/image/lv_image.c ****     }
 1322              		.loc 1 292 32 is_stmt 0 discriminator 2 view .LVU400
 1323 002a 04F56164 		add	r4, r4, #3600
 1324              	.LVL114:
 1325              	.L98:
 292:Drivers/lvgl/src/widgets/image/lv_image.c ****     }
 1326              		.loc 1 292 21 is_stmt 1 discriminator 1 view .LVU401
 1327 002e 002C     		cmp	r4, #0
 1328 0030 FBDB     		blt	.L99
 1329              	.LVL115:
 1330              	.L95:
 295:Drivers/lvgl/src/widgets/image/lv_image.c **** 
 1331              		.loc 1 295 5 view .LVU402
 295:Drivers/lvgl/src/widgets/image/lv_image.c **** 
 1332              		.loc 1 295 30 is_stmt 0 view .LVU403
 1333 0032 6B6C     		ldr	r3, [r5, #68]
 295:Drivers/lvgl/src/widgets/image/lv_image.c **** 
 1334              		.loc 1 295 7 view .LVU404
 1335 0034 A342     		cmp	r3, r4
 1336 0036 60D0     		beq	.L92
 297:Drivers/lvgl/src/widgets/image/lv_image.c ****     int32_t w = lv_obj_get_width(obj);
 1337              		.loc 1 297 5 is_stmt 1 view .LVU405
 1338 0038 2846     		mov	r0, r5
 1339              	.LVL116:
 297:Drivers/lvgl/src/widgets/image/lv_image.c ****     int32_t w = lv_obj_get_width(obj);
 1340              		.loc 1 297 5 is_stmt 0 view .LVU406
 1341 003a FFF7FEFF 		bl	lv_obj_update_layout
 1342              	.LVL117:
 298:Drivers/lvgl/src/widgets/image/lv_image.c ****     int32_t h = lv_obj_get_height(obj);
 1343              		.loc 1 298 5 is_stmt 1 view .LVU407
 298:Drivers/lvgl/src/widgets/image/lv_image.c ****     int32_t h = lv_obj_get_height(obj);
 1344              		.loc 1 298 17 is_stmt 0 view .LVU408
 1345 003e 2846     		mov	r0, r5
 1346 0040 FFF7FEFF 		bl	lv_obj_get_width
 1347              	.LVL118:
 1348 0044 0746     		mov	r7, r0
 1349              	.LVL119:
ARM GAS  /var/folders/qx/2_175_4n2s19vhvtspjhb3qh0000gn/T//ccePDbYF.s 			page 49


 299:Drivers/lvgl/src/widgets/image/lv_image.c ****     lv_area_t a;
 1350              		.loc 1 299 5 is_stmt 1 view .LVU409
 299:Drivers/lvgl/src/widgets/image/lv_image.c ****     lv_area_t a;
 1351              		.loc 1 299 17 is_stmt 0 view .LVU410
 1352 0046 2846     		mov	r0, r5
 1353              	.LVL120:
 299:Drivers/lvgl/src/widgets/image/lv_image.c ****     lv_area_t a;
 1354              		.loc 1 299 17 view .LVU411
 1355 0048 FFF7FEFF 		bl	lv_obj_get_height
 1356              	.LVL121:
 1357 004c 8046     		mov	r8, r0
 1358              	.LVL122:
 300:Drivers/lvgl/src/widgets/image/lv_image.c ****     lv_point_t pivot_px;
 1359              		.loc 1 300 5 is_stmt 1 view .LVU412
 301:Drivers/lvgl/src/widgets/image/lv_image.c ****     lv_image_get_pivot(obj, &pivot_px);
 1360              		.loc 1 301 5 view .LVU413
 302:Drivers/lvgl/src/widgets/image/lv_image.c ****     lv_image_buf_get_transformed_area(&a, w, h, img->rotation, img->scale_x, img->scale_y, &pivot_p
 1361              		.loc 1 302 5 view .LVU414
 1362 004e 0DF11009 		add	r9, sp, #16
 1363 0052 4946     		mov	r1, r9
 1364 0054 2846     		mov	r0, r5
 1365              	.LVL123:
 302:Drivers/lvgl/src/widgets/image/lv_image.c ****     lv_image_buf_get_transformed_area(&a, w, h, img->rotation, img->scale_x, img->scale_y, &pivot_p
 1366              		.loc 1 302 5 is_stmt 0 view .LVU415
 1367 0056 FFF7FEFF 		bl	lv_image_get_pivot
 1368              	.LVL124:
 303:Drivers/lvgl/src/widgets/image/lv_image.c ****     a.x1 += obj->coords.x1;
 1369              		.loc 1 303 5 is_stmt 1 view .LVU416
 1370 005a 06AE     		add	r6, sp, #24
 1371 005c CDF80890 		str	r9, [sp, #8]
 1372 0060 B5F84C30 		ldrh	r3, [r5, #76]
 1373 0064 0193     		str	r3, [sp, #4]
 1374 0066 B5F84830 		ldrh	r3, [r5, #72]
 1375 006a 0093     		str	r3, [sp]
 1376 006c 6B6C     		ldr	r3, [r5, #68]
 1377 006e 4246     		mov	r2, r8
 1378 0070 3946     		mov	r1, r7
 1379 0072 3046     		mov	r0, r6
 1380 0074 FFF7FEFF 		bl	lv_image_buf_get_transformed_area
 1381              	.LVL125:
 304:Drivers/lvgl/src/widgets/image/lv_image.c ****     a.y1 += obj->coords.y1;
 1382              		.loc 1 304 5 view .LVU417
 304:Drivers/lvgl/src/widgets/image/lv_image.c ****     a.y1 += obj->coords.y1;
 1383              		.loc 1 304 24 is_stmt 0 view .LVU418
 1384 0078 6A69     		ldr	r2, [r5, #20]
 304:Drivers/lvgl/src/widgets/image/lv_image.c ****     a.y1 += obj->coords.y1;
 1385              		.loc 1 304 10 view .LVU419
 1386 007a 069B     		ldr	r3, [sp, #24]
 1387 007c 1344     		add	r3, r3, r2
 1388 007e 0693     		str	r3, [sp, #24]
 305:Drivers/lvgl/src/widgets/image/lv_image.c ****     a.x2 += obj->coords.x1;
 1389              		.loc 1 305 5 is_stmt 1 view .LVU420
 305:Drivers/lvgl/src/widgets/image/lv_image.c ****     a.x2 += obj->coords.x1;
 1390              		.loc 1 305 24 is_stmt 0 view .LVU421
 1391 0080 AB69     		ldr	r3, [r5, #24]
 305:Drivers/lvgl/src/widgets/image/lv_image.c ****     a.x2 += obj->coords.x1;
 1392              		.loc 1 305 10 view .LVU422
ARM GAS  /var/folders/qx/2_175_4n2s19vhvtspjhb3qh0000gn/T//ccePDbYF.s 			page 50


 1393 0082 0799     		ldr	r1, [sp, #28]
 1394 0084 1944     		add	r1, r1, r3
 1395 0086 0791     		str	r1, [sp, #28]
 306:Drivers/lvgl/src/widgets/image/lv_image.c ****     a.y2 += obj->coords.y1;
 1396              		.loc 1 306 5 is_stmt 1 view .LVU423
 306:Drivers/lvgl/src/widgets/image/lv_image.c ****     a.y2 += obj->coords.y1;
 1397              		.loc 1 306 6 is_stmt 0 view .LVU424
 1398 0088 0899     		ldr	r1, [sp, #32]
 306:Drivers/lvgl/src/widgets/image/lv_image.c ****     a.y2 += obj->coords.y1;
 1399              		.loc 1 306 10 view .LVU425
 1400 008a 0A44     		add	r2, r2, r1
 1401 008c 0892     		str	r2, [sp, #32]
 307:Drivers/lvgl/src/widgets/image/lv_image.c ****     lv_obj_invalidate_area(obj, &a);
 1402              		.loc 1 307 5 is_stmt 1 view .LVU426
 307:Drivers/lvgl/src/widgets/image/lv_image.c ****     lv_obj_invalidate_area(obj, &a);
 1403              		.loc 1 307 6 is_stmt 0 view .LVU427
 1404 008e 099A     		ldr	r2, [sp, #36]
 307:Drivers/lvgl/src/widgets/image/lv_image.c ****     lv_obj_invalidate_area(obj, &a);
 1405              		.loc 1 307 10 view .LVU428
 1406 0090 1344     		add	r3, r3, r2
 1407 0092 0993     		str	r3, [sp, #36]
 308:Drivers/lvgl/src/widgets/image/lv_image.c **** 
 1408              		.loc 1 308 5 is_stmt 1 view .LVU429
 1409 0094 3146     		mov	r1, r6
 1410 0096 2846     		mov	r0, r5
 1411 0098 FFF7FEFF 		bl	lv_obj_invalidate_area
 1412              	.LVL126:
 310:Drivers/lvgl/src/widgets/image/lv_image.c **** 
 1413              		.loc 1 310 5 view .LVU430
 310:Drivers/lvgl/src/widgets/image/lv_image.c **** 
 1414              		.loc 1 310 19 is_stmt 0 view .LVU431
 1415 009c 6C64     		str	r4, [r5, #68]
 314:Drivers/lvgl/src/widgets/image/lv_image.c ****     lv_display_enable_invalidation(disp, false);
 1416              		.loc 1 314 5 is_stmt 1 view .LVU432
 314:Drivers/lvgl/src/widgets/image/lv_image.c ****     lv_display_enable_invalidation(disp, false);
 1417              		.loc 1 314 27 is_stmt 0 view .LVU433
 1418 009e 2846     		mov	r0, r5
 1419 00a0 FFF7FEFF 		bl	lv_obj_get_display
 1420              	.LVL127:
 1421 00a4 0446     		mov	r4, r0
 1422              	.LVL128:
 315:Drivers/lvgl/src/widgets/image/lv_image.c ****     lv_obj_refresh_ext_draw_size(obj);
 1423              		.loc 1 315 5 is_stmt 1 view .LVU434
 1424 00a6 0021     		movs	r1, #0
 1425 00a8 FFF7FEFF 		bl	lv_display_enable_invalidation
 1426              	.LVL129:
 316:Drivers/lvgl/src/widgets/image/lv_image.c ****     lv_display_enable_invalidation(disp, true);
 1427              		.loc 1 316 5 view .LVU435
 1428 00ac 2846     		mov	r0, r5
 1429 00ae FFF7FEFF 		bl	lv_obj_refresh_ext_draw_size
 1430              	.LVL130:
 317:Drivers/lvgl/src/widgets/image/lv_image.c **** 
 1431              		.loc 1 317 5 view .LVU436
 1432 00b2 0121     		movs	r1, #1
 1433 00b4 2046     		mov	r0, r4
 1434 00b6 FFF7FEFF 		bl	lv_display_enable_invalidation
 1435              	.LVL131:
ARM GAS  /var/folders/qx/2_175_4n2s19vhvtspjhb3qh0000gn/T//ccePDbYF.s 			page 51


 319:Drivers/lvgl/src/widgets/image/lv_image.c ****     a.x1 += obj->coords.x1;
 1436              		.loc 1 319 5 view .LVU437
 1437 00ba CDF80890 		str	r9, [sp, #8]
 1438 00be B5F84C30 		ldrh	r3, [r5, #76]
 1439 00c2 0193     		str	r3, [sp, #4]
 1440 00c4 B5F84830 		ldrh	r3, [r5, #72]
 1441 00c8 0093     		str	r3, [sp]
 1442 00ca 6B6C     		ldr	r3, [r5, #68]
 1443 00cc 4246     		mov	r2, r8
 1444 00ce 3946     		mov	r1, r7
 1445 00d0 3046     		mov	r0, r6
 1446 00d2 FFF7FEFF 		bl	lv_image_buf_get_transformed_area
 1447              	.LVL132:
 320:Drivers/lvgl/src/widgets/image/lv_image.c ****     a.y1 += obj->coords.y1;
 1448              		.loc 1 320 5 view .LVU438
 320:Drivers/lvgl/src/widgets/image/lv_image.c ****     a.y1 += obj->coords.y1;
 1449              		.loc 1 320 24 is_stmt 0 view .LVU439
 1450 00d6 6A69     		ldr	r2, [r5, #20]
 320:Drivers/lvgl/src/widgets/image/lv_image.c ****     a.y1 += obj->coords.y1;
 1451              		.loc 1 320 10 view .LVU440
 1452 00d8 069B     		ldr	r3, [sp, #24]
 1453 00da 1344     		add	r3, r3, r2
 1454 00dc 0693     		str	r3, [sp, #24]
 321:Drivers/lvgl/src/widgets/image/lv_image.c ****     a.x2 += obj->coords.x1;
 1455              		.loc 1 321 5 is_stmt 1 view .LVU441
 321:Drivers/lvgl/src/widgets/image/lv_image.c ****     a.x2 += obj->coords.x1;
 1456              		.loc 1 321 24 is_stmt 0 view .LVU442
 1457 00de AB69     		ldr	r3, [r5, #24]
 321:Drivers/lvgl/src/widgets/image/lv_image.c ****     a.x2 += obj->coords.x1;
 1458              		.loc 1 321 10 view .LVU443
 1459 00e0 0799     		ldr	r1, [sp, #28]
 1460 00e2 1944     		add	r1, r1, r3
 1461 00e4 0791     		str	r1, [sp, #28]
 322:Drivers/lvgl/src/widgets/image/lv_image.c ****     a.y2 += obj->coords.y1;
 1462              		.loc 1 322 5 is_stmt 1 view .LVU444
 322:Drivers/lvgl/src/widgets/image/lv_image.c ****     a.y2 += obj->coords.y1;
 1463              		.loc 1 322 6 is_stmt 0 view .LVU445
 1464 00e6 0899     		ldr	r1, [sp, #32]
 322:Drivers/lvgl/src/widgets/image/lv_image.c ****     a.y2 += obj->coords.y1;
 1465              		.loc 1 322 10 view .LVU446
 1466 00e8 0A44     		add	r2, r2, r1
 1467 00ea 0892     		str	r2, [sp, #32]
 323:Drivers/lvgl/src/widgets/image/lv_image.c ****     lv_obj_invalidate_area(obj, &a);
 1468              		.loc 1 323 5 is_stmt 1 view .LVU447
 323:Drivers/lvgl/src/widgets/image/lv_image.c ****     lv_obj_invalidate_area(obj, &a);
 1469              		.loc 1 323 6 is_stmt 0 view .LVU448
 1470 00ec 099A     		ldr	r2, [sp, #36]
 323:Drivers/lvgl/src/widgets/image/lv_image.c ****     lv_obj_invalidate_area(obj, &a);
 1471              		.loc 1 323 10 view .LVU449
 1472 00ee 1344     		add	r3, r3, r2
 1473 00f0 0993     		str	r3, [sp, #36]
 324:Drivers/lvgl/src/widgets/image/lv_image.c **** }
 1474              		.loc 1 324 5 is_stmt 1 view .LVU450
 1475 00f2 3146     		mov	r1, r6
 1476 00f4 2846     		mov	r0, r5
 1477 00f6 FFF7FEFF 		bl	lv_obj_invalidate_area
 1478              	.LVL133:
ARM GAS  /var/folders/qx/2_175_4n2s19vhvtspjhb3qh0000gn/T//ccePDbYF.s 			page 52


 1479              	.L92:
 325:Drivers/lvgl/src/widgets/image/lv_image.c **** 
 1480              		.loc 1 325 1 is_stmt 0 view .LVU451
 1481 00fa 0BB0     		add	sp, sp, #44
 1482              	.LCFI30:
 1483              		.cfi_def_cfa_offset 28
 1484              		@ sp needed
 1485 00fc BDE8F083 		pop	{r4, r5, r6, r7, r8, r9, pc}
 325:Drivers/lvgl/src/widgets/image/lv_image.c **** 
 1486              		.loc 1 325 1 view .LVU452
 1487              		.cfi_endproc
 1488              	.LFE200:
 1490              		.section	.text.lv_image_set_pivot,"ax",%progbits
 1491              		.align	1
 1492              		.global	lv_image_set_pivot
 1493              		.syntax unified
 1494              		.thumb
 1495              		.thumb_func
 1497              	lv_image_set_pivot:
 1498              	.LVL134:
 1499              	.LFB201:
 328:Drivers/lvgl/src/widgets/image/lv_image.c ****     LV_ASSERT_OBJ(obj, MY_CLASS);
 1500              		.loc 1 328 1 is_stmt 1 view -0
 1501              		.cfi_startproc
 1502              		@ args = 0, pretend = 0, frame = 24
 1503              		@ frame_needed = 0, uses_anonymous_args = 0
 329:Drivers/lvgl/src/widgets/image/lv_image.c **** 
 1504              		.loc 1 329 5 view .LVU454
 329:Drivers/lvgl/src/widgets/image/lv_image.c **** 
 1505              		.loc 1 329 5 view .LVU455
 1506 0000 0028     		cmp	r0, #0
 1507 0002 00F08180 		beq	.L107
 328:Drivers/lvgl/src/widgets/image/lv_image.c ****     LV_ASSERT_OBJ(obj, MY_CLASS);
 1508              		.loc 1 328 1 is_stmt 0 view .LVU456
 1509 0006 2DE9F047 		push	{r4, r5, r6, r7, r8, r9, r10, lr}
 1510              	.LCFI31:
 1511              		.cfi_def_cfa_offset 32
 1512              		.cfi_offset 4, -32
 1513              		.cfi_offset 5, -28
 1514              		.cfi_offset 6, -24
 1515              		.cfi_offset 7, -20
 1516              		.cfi_offset 8, -16
 1517              		.cfi_offset 9, -12
 1518              		.cfi_offset 10, -8
 1519              		.cfi_offset 14, -4
 1520 000a 8AB0     		sub	sp, sp, #40
 1521              	.LCFI32:
 1522              		.cfi_def_cfa_offset 72
 1523 000c 0D46     		mov	r5, r1
 1524 000e 1646     		mov	r6, r2
 1525 0010 0446     		mov	r4, r0
 329:Drivers/lvgl/src/widgets/image/lv_image.c **** 
 1526              		.loc 1 329 5 is_stmt 1 view .LVU457
 329:Drivers/lvgl/src/widgets/image/lv_image.c **** 
 1527              		.loc 1 329 33 view .LVU458
 331:Drivers/lvgl/src/widgets/image/lv_image.c ****     if(img->align > _LV_IMAGE_ALIGN_AUTO_TRANSFORM) {
 1528              		.loc 1 331 5 view .LVU459
ARM GAS  /var/folders/qx/2_175_4n2s19vhvtspjhb3qh0000gn/T//ccePDbYF.s 			page 53


 1529              	.LVL135:
 332:Drivers/lvgl/src/widgets/image/lv_image.c ****         x = 0;
 1530              		.loc 1 332 5 view .LVU460
 332:Drivers/lvgl/src/widgets/image/lv_image.c ****         x = 0;
 1531              		.loc 1 332 11 is_stmt 0 view .LVU461
 1532 0012 90F85930 		ldrb	r3, [r0, #89]	@ zero_extendqisi2
 1533 0016 03F00F03 		and	r3, r3, #15
 332:Drivers/lvgl/src/widgets/image/lv_image.c ****         x = 0;
 1534              		.loc 1 332 7 view .LVU462
 1535 001a 0A2B     		cmp	r3, #10
 1536 001c 01D9     		bls	.L108
 334:Drivers/lvgl/src/widgets/image/lv_image.c ****     }
 1537              		.loc 1 334 11 view .LVU463
 1538 001e 0026     		movs	r6, #0
 333:Drivers/lvgl/src/widgets/image/lv_image.c ****         y = 0;
 1539              		.loc 1 333 11 view .LVU464
 1540 0020 3546     		mov	r5, r6
 1541              	.L108:
 1542              	.LVL136:
 337:Drivers/lvgl/src/widgets/image/lv_image.c **** 
 1543              		.loc 1 337 5 is_stmt 1 view .LVU465
 337:Drivers/lvgl/src/widgets/image/lv_image.c **** 
 1544              		.loc 1 337 18 is_stmt 0 view .LVU466
 1545 0022 236D     		ldr	r3, [r4, #80]
 337:Drivers/lvgl/src/widgets/image/lv_image.c **** 
 1546              		.loc 1 337 7 view .LVU467
 1547 0024 AB42     		cmp	r3, r5
 1548 0026 02D1     		bne	.L109
 337:Drivers/lvgl/src/widgets/image/lv_image.c **** 
 1549              		.loc 1 337 39 discriminator 1 view .LVU468
 1550 0028 636D     		ldr	r3, [r4, #84]
 337:Drivers/lvgl/src/widgets/image/lv_image.c **** 
 1551              		.loc 1 337 26 discriminator 1 view .LVU469
 1552 002a B342     		cmp	r3, r6
 1553 002c 69D0     		beq	.L105
 1554              	.L109:
 339:Drivers/lvgl/src/widgets/image/lv_image.c ****     int32_t w = lv_obj_get_width(obj);
 1555              		.loc 1 339 5 is_stmt 1 view .LVU470
 1556 002e 2046     		mov	r0, r4
 1557              	.LVL137:
 339:Drivers/lvgl/src/widgets/image/lv_image.c ****     int32_t w = lv_obj_get_width(obj);
 1558              		.loc 1 339 5 is_stmt 0 view .LVU471
 1559 0030 FFF7FEFF 		bl	lv_obj_update_layout
 1560              	.LVL138:
 340:Drivers/lvgl/src/widgets/image/lv_image.c ****     int32_t h = lv_obj_get_height(obj);
 1561              		.loc 1 340 5 is_stmt 1 view .LVU472
 340:Drivers/lvgl/src/widgets/image/lv_image.c ****     int32_t h = lv_obj_get_height(obj);
 1562              		.loc 1 340 17 is_stmt 0 view .LVU473
 1563 0034 2046     		mov	r0, r4
 1564 0036 FFF7FEFF 		bl	lv_obj_get_width
 1565              	.LVL139:
 1566 003a 8046     		mov	r8, r0
 1567              	.LVL140:
 341:Drivers/lvgl/src/widgets/image/lv_image.c ****     lv_area_t a;
 1568              		.loc 1 341 5 is_stmt 1 view .LVU474
 341:Drivers/lvgl/src/widgets/image/lv_image.c ****     lv_area_t a;
 1569              		.loc 1 341 17 is_stmt 0 view .LVU475
ARM GAS  /var/folders/qx/2_175_4n2s19vhvtspjhb3qh0000gn/T//ccePDbYF.s 			page 54


 1570 003c 2046     		mov	r0, r4
 1571              	.LVL141:
 341:Drivers/lvgl/src/widgets/image/lv_image.c ****     lv_area_t a;
 1572              		.loc 1 341 17 view .LVU476
 1573 003e FFF7FEFF 		bl	lv_obj_get_height
 1574              	.LVL142:
 1575 0042 8146     		mov	r9, r0
 1576              	.LVL143:
 342:Drivers/lvgl/src/widgets/image/lv_image.c ****     lv_point_t pivot_px;
 1577              		.loc 1 342 5 is_stmt 1 view .LVU477
 343:Drivers/lvgl/src/widgets/image/lv_image.c ****     lv_image_get_pivot(obj, &pivot_px);
 1578              		.loc 1 343 5 view .LVU478
 344:Drivers/lvgl/src/widgets/image/lv_image.c ****     lv_image_buf_get_transformed_area(&a, w, h, img->rotation, img->scale_x, img->scale_y, &pivot_p
 1579              		.loc 1 344 5 view .LVU479
 1580 0044 0DF1100A 		add	r10, sp, #16
 1581 0048 5146     		mov	r1, r10
 1582 004a 2046     		mov	r0, r4
 1583              	.LVL144:
 344:Drivers/lvgl/src/widgets/image/lv_image.c ****     lv_image_buf_get_transformed_area(&a, w, h, img->rotation, img->scale_x, img->scale_y, &pivot_p
 1584              		.loc 1 344 5 is_stmt 0 view .LVU480
 1585 004c FFF7FEFF 		bl	lv_image_get_pivot
 1586              	.LVL145:
 345:Drivers/lvgl/src/widgets/image/lv_image.c ****     a.x1 += obj->coords.x1;
 1587              		.loc 1 345 5 is_stmt 1 view .LVU481
 1588 0050 06AF     		add	r7, sp, #24
 1589 0052 CDF808A0 		str	r10, [sp, #8]
 1590 0056 B4F84C30 		ldrh	r3, [r4, #76]
 1591 005a 0193     		str	r3, [sp, #4]
 1592 005c B4F84830 		ldrh	r3, [r4, #72]
 1593 0060 0093     		str	r3, [sp]
 1594 0062 636C     		ldr	r3, [r4, #68]
 1595 0064 4A46     		mov	r2, r9
 1596 0066 4146     		mov	r1, r8
 1597 0068 3846     		mov	r0, r7
 1598 006a FFF7FEFF 		bl	lv_image_buf_get_transformed_area
 1599              	.LVL146:
 346:Drivers/lvgl/src/widgets/image/lv_image.c ****     a.y1 += obj->coords.y1;
 1600              		.loc 1 346 5 view .LVU482
 346:Drivers/lvgl/src/widgets/image/lv_image.c ****     a.y1 += obj->coords.y1;
 1601              		.loc 1 346 24 is_stmt 0 view .LVU483
 1602 006e 6269     		ldr	r2, [r4, #20]
 346:Drivers/lvgl/src/widgets/image/lv_image.c ****     a.y1 += obj->coords.y1;
 1603              		.loc 1 346 10 view .LVU484
 1604 0070 069B     		ldr	r3, [sp, #24]
 1605 0072 1344     		add	r3, r3, r2
 1606 0074 0693     		str	r3, [sp, #24]
 347:Drivers/lvgl/src/widgets/image/lv_image.c ****     a.x2 += obj->coords.x1;
 1607              		.loc 1 347 5 is_stmt 1 view .LVU485
 347:Drivers/lvgl/src/widgets/image/lv_image.c ****     a.x2 += obj->coords.x1;
 1608              		.loc 1 347 24 is_stmt 0 view .LVU486
 1609 0076 A369     		ldr	r3, [r4, #24]
 347:Drivers/lvgl/src/widgets/image/lv_image.c ****     a.x2 += obj->coords.x1;
 1610              		.loc 1 347 10 view .LVU487
 1611 0078 0799     		ldr	r1, [sp, #28]
 1612 007a 1944     		add	r1, r1, r3
 1613 007c 0791     		str	r1, [sp, #28]
 348:Drivers/lvgl/src/widgets/image/lv_image.c ****     a.y2 += obj->coords.y1;
ARM GAS  /var/folders/qx/2_175_4n2s19vhvtspjhb3qh0000gn/T//ccePDbYF.s 			page 55


 1614              		.loc 1 348 5 is_stmt 1 view .LVU488
 348:Drivers/lvgl/src/widgets/image/lv_image.c ****     a.y2 += obj->coords.y1;
 1615              		.loc 1 348 6 is_stmt 0 view .LVU489
 1616 007e 0899     		ldr	r1, [sp, #32]
 348:Drivers/lvgl/src/widgets/image/lv_image.c ****     a.y2 += obj->coords.y1;
 1617              		.loc 1 348 10 view .LVU490
 1618 0080 0A44     		add	r2, r2, r1
 1619 0082 0892     		str	r2, [sp, #32]
 349:Drivers/lvgl/src/widgets/image/lv_image.c ****     lv_obj_invalidate_area(obj, &a);
 1620              		.loc 1 349 5 is_stmt 1 view .LVU491
 349:Drivers/lvgl/src/widgets/image/lv_image.c ****     lv_obj_invalidate_area(obj, &a);
 1621              		.loc 1 349 6 is_stmt 0 view .LVU492
 1622 0084 099A     		ldr	r2, [sp, #36]
 349:Drivers/lvgl/src/widgets/image/lv_image.c ****     lv_obj_invalidate_area(obj, &a);
 1623              		.loc 1 349 10 view .LVU493
 1624 0086 1344     		add	r3, r3, r2
 1625 0088 0993     		str	r3, [sp, #36]
 350:Drivers/lvgl/src/widgets/image/lv_image.c **** 
 1626              		.loc 1 350 5 is_stmt 1 view .LVU494
 1627 008a 3946     		mov	r1, r7
 1628 008c 2046     		mov	r0, r4
 1629 008e FFF7FEFF 		bl	lv_obj_invalidate_area
 1630              	.LVL147:
 352:Drivers/lvgl/src/widgets/image/lv_image.c **** 
 1631              		.loc 1 352 5 view .LVU495
 1632 0092 3246     		mov	r2, r6
 1633 0094 2946     		mov	r1, r5
 1634 0096 04F15000 		add	r0, r4, #80
 1635 009a FFF7FEFF 		bl	lv_point_set
 1636              	.LVL148:
 356:Drivers/lvgl/src/widgets/image/lv_image.c ****     lv_display_enable_invalidation(disp, false);
 1637              		.loc 1 356 5 view .LVU496
 356:Drivers/lvgl/src/widgets/image/lv_image.c ****     lv_display_enable_invalidation(disp, false);
 1638              		.loc 1 356 27 is_stmt 0 view .LVU497
 1639 009e 2046     		mov	r0, r4
 1640 00a0 FFF7FEFF 		bl	lv_obj_get_display
 1641              	.LVL149:
 1642 00a4 0546     		mov	r5, r0
 1643              	.LVL150:
 357:Drivers/lvgl/src/widgets/image/lv_image.c ****     lv_obj_refresh_ext_draw_size(obj);
 1644              		.loc 1 357 5 is_stmt 1 view .LVU498
 1645 00a6 0021     		movs	r1, #0
 1646 00a8 FFF7FEFF 		bl	lv_display_enable_invalidation
 1647              	.LVL151:
 358:Drivers/lvgl/src/widgets/image/lv_image.c ****     lv_display_enable_invalidation(disp, true);
 1648              		.loc 1 358 5 view .LVU499
 1649 00ac 2046     		mov	r0, r4
 1650 00ae FFF7FEFF 		bl	lv_obj_refresh_ext_draw_size
 1651              	.LVL152:
 359:Drivers/lvgl/src/widgets/image/lv_image.c **** 
 1652              		.loc 1 359 5 view .LVU500
 1653 00b2 0121     		movs	r1, #1
 1654 00b4 2846     		mov	r0, r5
 1655 00b6 FFF7FEFF 		bl	lv_display_enable_invalidation
 1656              	.LVL153:
 361:Drivers/lvgl/src/widgets/image/lv_image.c ****     lv_image_buf_get_transformed_area(&a, w, h, img->rotation, img->scale_x, img->scale_y, &pivot_p
 1657              		.loc 1 361 5 view .LVU501
ARM GAS  /var/folders/qx/2_175_4n2s19vhvtspjhb3qh0000gn/T//ccePDbYF.s 			page 56


 1658 00ba 5146     		mov	r1, r10
 1659 00bc 2046     		mov	r0, r4
 1660 00be FFF7FEFF 		bl	lv_image_get_pivot
 1661              	.LVL154:
 362:Drivers/lvgl/src/widgets/image/lv_image.c ****     a.x1 += obj->coords.x1;
 1662              		.loc 1 362 5 view .LVU502
 1663 00c2 CDF808A0 		str	r10, [sp, #8]
 1664 00c6 B4F84C30 		ldrh	r3, [r4, #76]
 1665 00ca 0193     		str	r3, [sp, #4]
 1666 00cc B4F84830 		ldrh	r3, [r4, #72]
 1667 00d0 0093     		str	r3, [sp]
 1668 00d2 636C     		ldr	r3, [r4, #68]
 1669 00d4 4A46     		mov	r2, r9
 1670 00d6 4146     		mov	r1, r8
 1671 00d8 3846     		mov	r0, r7
 1672 00da FFF7FEFF 		bl	lv_image_buf_get_transformed_area
 1673              	.LVL155:
 363:Drivers/lvgl/src/widgets/image/lv_image.c ****     a.y1 += obj->coords.y1;
 1674              		.loc 1 363 5 view .LVU503
 363:Drivers/lvgl/src/widgets/image/lv_image.c ****     a.y1 += obj->coords.y1;
 1675              		.loc 1 363 24 is_stmt 0 view .LVU504
 1676 00de 6269     		ldr	r2, [r4, #20]
 363:Drivers/lvgl/src/widgets/image/lv_image.c ****     a.y1 += obj->coords.y1;
 1677              		.loc 1 363 10 view .LVU505
 1678 00e0 069B     		ldr	r3, [sp, #24]
 1679 00e2 1344     		add	r3, r3, r2
 1680 00e4 0693     		str	r3, [sp, #24]
 364:Drivers/lvgl/src/widgets/image/lv_image.c ****     a.x2 += obj->coords.x1;
 1681              		.loc 1 364 5 is_stmt 1 view .LVU506
 364:Drivers/lvgl/src/widgets/image/lv_image.c ****     a.x2 += obj->coords.x1;
 1682              		.loc 1 364 24 is_stmt 0 view .LVU507
 1683 00e6 A369     		ldr	r3, [r4, #24]
 364:Drivers/lvgl/src/widgets/image/lv_image.c ****     a.x2 += obj->coords.x1;
 1684              		.loc 1 364 10 view .LVU508
 1685 00e8 0799     		ldr	r1, [sp, #28]
 1686 00ea 1944     		add	r1, r1, r3
 1687 00ec 0791     		str	r1, [sp, #28]
 365:Drivers/lvgl/src/widgets/image/lv_image.c ****     a.y2 += obj->coords.y1;
 1688              		.loc 1 365 5 is_stmt 1 view .LVU509
 365:Drivers/lvgl/src/widgets/image/lv_image.c ****     a.y2 += obj->coords.y1;
 1689              		.loc 1 365 6 is_stmt 0 view .LVU510
 1690 00ee 0899     		ldr	r1, [sp, #32]
 365:Drivers/lvgl/src/widgets/image/lv_image.c ****     a.y2 += obj->coords.y1;
 1691              		.loc 1 365 10 view .LVU511
 1692 00f0 0A44     		add	r2, r2, r1
 1693 00f2 0892     		str	r2, [sp, #32]
 366:Drivers/lvgl/src/widgets/image/lv_image.c ****     lv_obj_invalidate_area(obj, &a);
 1694              		.loc 1 366 5 is_stmt 1 view .LVU512
 366:Drivers/lvgl/src/widgets/image/lv_image.c ****     lv_obj_invalidate_area(obj, &a);
 1695              		.loc 1 366 6 is_stmt 0 view .LVU513
 1696 00f4 099A     		ldr	r2, [sp, #36]
 366:Drivers/lvgl/src/widgets/image/lv_image.c ****     lv_obj_invalidate_area(obj, &a);
 1697              		.loc 1 366 10 view .LVU514
 1698 00f6 1344     		add	r3, r3, r2
 1699 00f8 0993     		str	r3, [sp, #36]
 367:Drivers/lvgl/src/widgets/image/lv_image.c **** }
 1700              		.loc 1 367 5 is_stmt 1 view .LVU515
ARM GAS  /var/folders/qx/2_175_4n2s19vhvtspjhb3qh0000gn/T//ccePDbYF.s 			page 57


 1701 00fa 3946     		mov	r1, r7
 1702 00fc 2046     		mov	r0, r4
 1703 00fe FFF7FEFF 		bl	lv_obj_invalidate_area
 1704              	.LVL156:
 1705              	.L105:
 368:Drivers/lvgl/src/widgets/image/lv_image.c **** 
 1706              		.loc 1 368 1 is_stmt 0 view .LVU516
 1707 0102 0AB0     		add	sp, sp, #40
 1708              	.LCFI33:
 1709              		.cfi_def_cfa_offset 32
 1710              		@ sp needed
 1711 0104 BDE8F087 		pop	{r4, r5, r6, r7, r8, r9, r10, pc}
 1712              	.LVL157:
 1713              	.L107:
 1714              	.LCFI34:
 1715              		.cfi_def_cfa_offset 0
 1716              		.cfi_restore 4
 1717              		.cfi_restore 5
 1718              		.cfi_restore 6
 1719              		.cfi_restore 7
 1720              		.cfi_restore 8
 1721              		.cfi_restore 9
 1722              		.cfi_restore 10
 1723              		.cfi_restore 14
 329:Drivers/lvgl/src/widgets/image/lv_image.c **** 
 1724              		.loc 1 329 5 is_stmt 1 view .LVU517
 329:Drivers/lvgl/src/widgets/image/lv_image.c **** 
 1725              		.loc 1 329 5 view .LVU518
 329:Drivers/lvgl/src/widgets/image/lv_image.c **** 
 1726              		.loc 1 329 5 view .LVU519
 329:Drivers/lvgl/src/widgets/image/lv_image.c **** 
 1727              		.loc 1 329 5 view .LVU520
 329:Drivers/lvgl/src/widgets/image/lv_image.c **** 
 1728              		.loc 1 329 5 view .LVU521
 1729 0108 FEE7     		b	.L107
 1730              		.cfi_endproc
 1731              	.LFE201:
 1733              		.section	.text.update_align,"ax",%progbits
 1734              		.align	1
 1735              		.syntax unified
 1736              		.thumb
 1737              		.thumb_func
 1739              	update_align:
 1740              	.LVL158:
 1741              	.LFB233:
 996:Drivers/lvgl/src/widgets/image/lv_image.c ****     lv_image_t * img = (lv_image_t *)obj;
 1742              		.loc 1 996 1 view -0
 1743              		.cfi_startproc
 1744              		@ args = 0, pretend = 0, frame = 0
 1745              		@ frame_needed = 0, uses_anonymous_args = 0
 996:Drivers/lvgl/src/widgets/image/lv_image.c ****     lv_image_t * img = (lv_image_t *)obj;
 1746              		.loc 1 996 1 is_stmt 0 view .LVU523
 1747 0000 38B5     		push	{r3, r4, r5, lr}
 1748              	.LCFI35:
 1749              		.cfi_def_cfa_offset 16
 1750              		.cfi_offset 3, -16
 1751              		.cfi_offset 4, -12
ARM GAS  /var/folders/qx/2_175_4n2s19vhvtspjhb3qh0000gn/T//ccePDbYF.s 			page 58


 1752              		.cfi_offset 5, -8
 1753              		.cfi_offset 14, -4
 1754 0002 0446     		mov	r4, r0
 997:Drivers/lvgl/src/widgets/image/lv_image.c ****     if(img->align == LV_IMAGE_ALIGN_STRETCH) {
 1755              		.loc 1 997 5 is_stmt 1 view .LVU524
 1756              	.LVL159:
 998:Drivers/lvgl/src/widgets/image/lv_image.c ****         lv_image_set_rotation(obj, 0);
 1757              		.loc 1 998 5 view .LVU525
 998:Drivers/lvgl/src/widgets/image/lv_image.c ****         lv_image_set_rotation(obj, 0);
 1758              		.loc 1 998 19 is_stmt 0 view .LVU526
 1759 0004 90F85930 		ldrb	r3, [r0, #89]	@ zero_extendqisi2
 1760 0008 03F00F03 		and	r3, r3, #15
 1761 000c 0B3B     		subs	r3, r3, #11
 1762 000e 032B     		cmp	r3, #3
 1763 0010 00F28480 		bhi	.L114
 1764 0014 DFE803F0 		tbb	[pc, r3]
 1765              	.L117:
 1766 0018 02       		.byte	(.L120-.L117)/2
 1767 0019 74       		.byte	(.L119-.L117)/2
 1768 001a 26       		.byte	(.L118-.L117)/2
 1769 001b 4E       		.byte	(.L116-.L117)/2
 1770              		.p2align 1
 1771              	.L120:
 999:Drivers/lvgl/src/widgets/image/lv_image.c ****         lv_image_set_pivot(obj, 0, 0);
 1772              		.loc 1 999 9 is_stmt 1 view .LVU527
 1773 001c 0021     		movs	r1, #0
 1774 001e FFF7FEFF 		bl	lv_image_set_rotation
 1775              	.LVL160:
1000:Drivers/lvgl/src/widgets/image/lv_image.c ****         if(img->w != 0 && img->h != 0) {
 1776              		.loc 1 1000 9 view .LVU528
 1777 0022 0022     		movs	r2, #0
 1778 0024 1146     		mov	r1, r2
 1779 0026 2046     		mov	r0, r4
 1780 0028 FFF7FEFF 		bl	lv_image_set_pivot
 1781              	.LVL161:
1001:Drivers/lvgl/src/widgets/image/lv_image.c ****             lv_obj_update_layout(obj);
 1782              		.loc 1 1001 9 view .LVU529
1001:Drivers/lvgl/src/widgets/image/lv_image.c ****             lv_obj_update_layout(obj);
 1783              		.loc 1 1001 15 is_stmt 0 view .LVU530
 1784 002c E36B     		ldr	r3, [r4, #60]
1001:Drivers/lvgl/src/widgets/image/lv_image.c ****             lv_obj_update_layout(obj);
 1785              		.loc 1 1001 11 view .LVU531
 1786 002e 002B     		cmp	r3, #0
 1787 0030 74D0     		beq	.L114
1001:Drivers/lvgl/src/widgets/image/lv_image.c ****             lv_obj_update_layout(obj);
 1788              		.loc 1 1001 30 discriminator 1 view .LVU532
 1789 0032 236C     		ldr	r3, [r4, #64]
1001:Drivers/lvgl/src/widgets/image/lv_image.c ****             lv_obj_update_layout(obj);
 1790              		.loc 1 1001 24 discriminator 1 view .LVU533
 1791 0034 002B     		cmp	r3, #0
 1792 0036 71D0     		beq	.L114
 1793              	.LBB22:
1002:Drivers/lvgl/src/widgets/image/lv_image.c ****             int32_t scale_x = lv_obj_get_width(obj) * LV_SCALE_NONE / img->w;
 1794              		.loc 1 1002 13 is_stmt 1 view .LVU534
 1795 0038 2046     		mov	r0, r4
 1796 003a FFF7FEFF 		bl	lv_obj_update_layout
 1797              	.LVL162:
ARM GAS  /var/folders/qx/2_175_4n2s19vhvtspjhb3qh0000gn/T//ccePDbYF.s 			page 59


1003:Drivers/lvgl/src/widgets/image/lv_image.c ****             int32_t scale_y = lv_obj_get_height(obj) * LV_SCALE_NONE / img->h;
 1798              		.loc 1 1003 13 view .LVU535
1003:Drivers/lvgl/src/widgets/image/lv_image.c ****             int32_t scale_y = lv_obj_get_height(obj) * LV_SCALE_NONE / img->h;
 1799              		.loc 1 1003 31 is_stmt 0 view .LVU536
 1800 003e 2046     		mov	r0, r4
 1801 0040 FFF7FEFF 		bl	lv_obj_get_width
 1802              	.LVL163:
1003:Drivers/lvgl/src/widgets/image/lv_image.c ****             int32_t scale_y = lv_obj_get_height(obj) * LV_SCALE_NONE / img->h;
 1803              		.loc 1 1003 53 discriminator 1 view .LVU537
 1804 0044 0502     		lsls	r5, r0, #8
1003:Drivers/lvgl/src/widgets/image/lv_image.c ****             int32_t scale_y = lv_obj_get_height(obj) * LV_SCALE_NONE / img->h;
 1805              		.loc 1 1003 74 discriminator 1 view .LVU538
 1806 0046 E36B     		ldr	r3, [r4, #60]
1003:Drivers/lvgl/src/widgets/image/lv_image.c ****             int32_t scale_y = lv_obj_get_height(obj) * LV_SCALE_NONE / img->h;
 1807              		.loc 1 1003 21 discriminator 1 view .LVU539
 1808 0048 95FBF3F5 		sdiv	r5, r5, r3
 1809              	.LVL164:
1004:Drivers/lvgl/src/widgets/image/lv_image.c ****             scale_update(obj, scale_x, scale_y);
 1810              		.loc 1 1004 13 is_stmt 1 view .LVU540
1004:Drivers/lvgl/src/widgets/image/lv_image.c ****             scale_update(obj, scale_x, scale_y);
 1811              		.loc 1 1004 31 is_stmt 0 view .LVU541
 1812 004c 2046     		mov	r0, r4
 1813 004e FFF7FEFF 		bl	lv_obj_get_height
 1814              	.LVL165:
1004:Drivers/lvgl/src/widgets/image/lv_image.c ****             scale_update(obj, scale_x, scale_y);
 1815              		.loc 1 1004 54 discriminator 1 view .LVU542
 1816 0052 0002     		lsls	r0, r0, #8
1004:Drivers/lvgl/src/widgets/image/lv_image.c ****             scale_update(obj, scale_x, scale_y);
 1817              		.loc 1 1004 75 discriminator 1 view .LVU543
 1818 0054 226C     		ldr	r2, [r4, #64]
 1819              	.LVL166:
1005:Drivers/lvgl/src/widgets/image/lv_image.c ****         }
 1820              		.loc 1 1005 13 is_stmt 1 view .LVU544
 1821 0056 90FBF2F2 		sdiv	r2, r0, r2
 1822              	.LVL167:
1005:Drivers/lvgl/src/widgets/image/lv_image.c ****         }
 1823              		.loc 1 1005 13 is_stmt 0 view .LVU545
 1824 005a 2946     		mov	r1, r5
 1825 005c 2046     		mov	r0, r4
 1826 005e FFF7FEFF 		bl	scale_update
 1827              	.LVL168:
1005:Drivers/lvgl/src/widgets/image/lv_image.c ****         }
 1828              		.loc 1 1005 13 view .LVU546
 1829 0062 5BE0     		b	.L114
 1830              	.LVL169:
 1831              	.L118:
1005:Drivers/lvgl/src/widgets/image/lv_image.c ****         }
 1832              		.loc 1 1005 13 view .LVU547
 1833              	.LBE22:
1009:Drivers/lvgl/src/widgets/image/lv_image.c ****         lv_image_set_pivot(obj, 0, 0);
 1834              		.loc 1 1009 9 is_stmt 1 view .LVU548
 1835 0064 0021     		movs	r1, #0
 1836 0066 FFF7FEFF 		bl	lv_image_set_rotation
 1837              	.LVL170:
1010:Drivers/lvgl/src/widgets/image/lv_image.c ****         if(img->w != 0 && img->h != 0) {
 1838              		.loc 1 1010 9 view .LVU549
 1839 006a 0022     		movs	r2, #0
ARM GAS  /var/folders/qx/2_175_4n2s19vhvtspjhb3qh0000gn/T//ccePDbYF.s 			page 60


 1840 006c 1146     		mov	r1, r2
 1841 006e 2046     		mov	r0, r4
 1842 0070 FFF7FEFF 		bl	lv_image_set_pivot
 1843              	.LVL171:
1011:Drivers/lvgl/src/widgets/image/lv_image.c ****             lv_obj_update_layout(obj);
 1844              		.loc 1 1011 9 view .LVU550
1011:Drivers/lvgl/src/widgets/image/lv_image.c ****             lv_obj_update_layout(obj);
 1845              		.loc 1 1011 15 is_stmt 0 view .LVU551
 1846 0074 E36B     		ldr	r3, [r4, #60]
1011:Drivers/lvgl/src/widgets/image/lv_image.c ****             lv_obj_update_layout(obj);
 1847              		.loc 1 1011 11 view .LVU552
 1848 0076 002B     		cmp	r3, #0
 1849 0078 50D0     		beq	.L114
1011:Drivers/lvgl/src/widgets/image/lv_image.c ****             lv_obj_update_layout(obj);
 1850              		.loc 1 1011 30 discriminator 1 view .LVU553
 1851 007a 236C     		ldr	r3, [r4, #64]
1011:Drivers/lvgl/src/widgets/image/lv_image.c ****             lv_obj_update_layout(obj);
 1852              		.loc 1 1011 24 discriminator 1 view .LVU554
 1853 007c 002B     		cmp	r3, #0
 1854 007e 4DD0     		beq	.L114
 1855              	.LBB23:
1012:Drivers/lvgl/src/widgets/image/lv_image.c ****             int32_t scale_x = lv_obj_get_width(obj) * LV_SCALE_NONE / img->w;
 1856              		.loc 1 1012 13 is_stmt 1 view .LVU555
 1857 0080 2046     		mov	r0, r4
 1858 0082 FFF7FEFF 		bl	lv_obj_update_layout
 1859              	.LVL172:
1013:Drivers/lvgl/src/widgets/image/lv_image.c ****             int32_t scale_y = lv_obj_get_height(obj) * LV_SCALE_NONE / img->h;
 1860              		.loc 1 1013 13 view .LVU556
1013:Drivers/lvgl/src/widgets/image/lv_image.c ****             int32_t scale_y = lv_obj_get_height(obj) * LV_SCALE_NONE / img->h;
 1861              		.loc 1 1013 31 is_stmt 0 view .LVU557
 1862 0086 2046     		mov	r0, r4
 1863 0088 FFF7FEFF 		bl	lv_obj_get_width
 1864              	.LVL173:
1013:Drivers/lvgl/src/widgets/image/lv_image.c ****             int32_t scale_y = lv_obj_get_height(obj) * LV_SCALE_NONE / img->h;
 1865              		.loc 1 1013 53 discriminator 1 view .LVU558
 1866 008c 0102     		lsls	r1, r0, #8
1013:Drivers/lvgl/src/widgets/image/lv_image.c ****             int32_t scale_y = lv_obj_get_height(obj) * LV_SCALE_NONE / img->h;
 1867              		.loc 1 1013 74 discriminator 1 view .LVU559
 1868 008e E36B     		ldr	r3, [r4, #60]
1013:Drivers/lvgl/src/widgets/image/lv_image.c ****             int32_t scale_y = lv_obj_get_height(obj) * LV_SCALE_NONE / img->h;
 1869              		.loc 1 1013 21 discriminator 1 view .LVU560
 1870 0090 91FBF3F5 		sdiv	r5, r1, r3
 1871              	.LVL174:
1014:Drivers/lvgl/src/widgets/image/lv_image.c ****             int32_t scale = LV_MIN(scale_x, scale_y);
 1872              		.loc 1 1014 13 is_stmt 1 view .LVU561
1014:Drivers/lvgl/src/widgets/image/lv_image.c ****             int32_t scale = LV_MIN(scale_x, scale_y);
 1873              		.loc 1 1014 31 is_stmt 0 view .LVU562
 1874 0094 2046     		mov	r0, r4
 1875 0096 FFF7FEFF 		bl	lv_obj_get_height
 1876              	.LVL175:
1014:Drivers/lvgl/src/widgets/image/lv_image.c ****             int32_t scale = LV_MIN(scale_x, scale_y);
 1877              		.loc 1 1014 54 discriminator 1 view .LVU563
 1878 009a 0302     		lsls	r3, r0, #8
1014:Drivers/lvgl/src/widgets/image/lv_image.c ****             int32_t scale = LV_MIN(scale_x, scale_y);
 1879              		.loc 1 1014 75 discriminator 1 view .LVU564
 1880 009c 226C     		ldr	r2, [r4, #64]
1014:Drivers/lvgl/src/widgets/image/lv_image.c ****             int32_t scale = LV_MIN(scale_x, scale_y);
ARM GAS  /var/folders/qx/2_175_4n2s19vhvtspjhb3qh0000gn/T//ccePDbYF.s 			page 61


 1881              		.loc 1 1014 21 discriminator 1 view .LVU565
 1882 009e 93FBF2F3 		sdiv	r3, r3, r2
 1883              	.LVL176:
1015:Drivers/lvgl/src/widgets/image/lv_image.c ****             scale_update(obj, scale, scale);
 1884              		.loc 1 1015 13 is_stmt 1 view .LVU566
1015:Drivers/lvgl/src/widgets/image/lv_image.c ****             scale_update(obj, scale, scale);
 1885              		.loc 1 1015 21 is_stmt 0 view .LVU567
 1886 00a2 2946     		mov	r1, r5
 1887 00a4 9D42     		cmp	r5, r3
 1888 00a6 A8BF     		it	ge
 1889 00a8 1946     		movge	r1, r3
 1890              	.LVL177:
1016:Drivers/lvgl/src/widgets/image/lv_image.c ****         }
 1891              		.loc 1 1016 13 is_stmt 1 view .LVU568
 1892 00aa 0A46     		mov	r2, r1
 1893 00ac 2046     		mov	r0, r4
 1894 00ae FFF7FEFF 		bl	scale_update
 1895              	.LVL178:
1016:Drivers/lvgl/src/widgets/image/lv_image.c ****         }
 1896              		.loc 1 1016 13 is_stmt 0 view .LVU569
 1897 00b2 33E0     		b	.L114
 1898              	.LVL179:
 1899              	.L116:
1016:Drivers/lvgl/src/widgets/image/lv_image.c ****         }
 1900              		.loc 1 1016 13 view .LVU570
 1901              	.LBE23:
1020:Drivers/lvgl/src/widgets/image/lv_image.c ****         lv_image_set_pivot(obj, 0, 0);
 1902              		.loc 1 1020 9 is_stmt 1 view .LVU571
 1903 00b4 0021     		movs	r1, #0
 1904 00b6 FFF7FEFF 		bl	lv_image_set_rotation
 1905              	.LVL180:
1021:Drivers/lvgl/src/widgets/image/lv_image.c ****         if(img->w != 0 && img->h != 0) {
 1906              		.loc 1 1021 9 view .LVU572
 1907 00ba 0022     		movs	r2, #0
 1908 00bc 1146     		mov	r1, r2
 1909 00be 2046     		mov	r0, r4
 1910 00c0 FFF7FEFF 		bl	lv_image_set_pivot
 1911              	.LVL181:
1022:Drivers/lvgl/src/widgets/image/lv_image.c ****             lv_obj_update_layout(obj);
 1912              		.loc 1 1022 9 view .LVU573
1022:Drivers/lvgl/src/widgets/image/lv_image.c ****             lv_obj_update_layout(obj);
 1913              		.loc 1 1022 15 is_stmt 0 view .LVU574
 1914 00c4 E36B     		ldr	r3, [r4, #60]
1022:Drivers/lvgl/src/widgets/image/lv_image.c ****             lv_obj_update_layout(obj);
 1915              		.loc 1 1022 11 view .LVU575
 1916 00c6 4BB3     		cbz	r3, .L114
1022:Drivers/lvgl/src/widgets/image/lv_image.c ****             lv_obj_update_layout(obj);
 1917              		.loc 1 1022 30 discriminator 1 view .LVU576
 1918 00c8 236C     		ldr	r3, [r4, #64]
1022:Drivers/lvgl/src/widgets/image/lv_image.c ****             lv_obj_update_layout(obj);
 1919              		.loc 1 1022 24 discriminator 1 view .LVU577
 1920 00ca 3BB3     		cbz	r3, .L114
 1921              	.LBB24:
1023:Drivers/lvgl/src/widgets/image/lv_image.c ****             int32_t scale_x = lv_obj_get_width(obj) * LV_SCALE_NONE / img->w;
 1922              		.loc 1 1023 13 is_stmt 1 view .LVU578
 1923 00cc 2046     		mov	r0, r4
 1924 00ce FFF7FEFF 		bl	lv_obj_update_layout
ARM GAS  /var/folders/qx/2_175_4n2s19vhvtspjhb3qh0000gn/T//ccePDbYF.s 			page 62


 1925              	.LVL182:
1024:Drivers/lvgl/src/widgets/image/lv_image.c ****             int32_t scale_y = lv_obj_get_height(obj) * LV_SCALE_NONE / img->h;
 1926              		.loc 1 1024 13 view .LVU579
1024:Drivers/lvgl/src/widgets/image/lv_image.c ****             int32_t scale_y = lv_obj_get_height(obj) * LV_SCALE_NONE / img->h;
 1927              		.loc 1 1024 31 is_stmt 0 view .LVU580
 1928 00d2 2046     		mov	r0, r4
 1929 00d4 FFF7FEFF 		bl	lv_obj_get_width
 1930              	.LVL183:
1024:Drivers/lvgl/src/widgets/image/lv_image.c ****             int32_t scale_y = lv_obj_get_height(obj) * LV_SCALE_NONE / img->h;
 1931              		.loc 1 1024 53 discriminator 1 view .LVU581
 1932 00d8 0102     		lsls	r1, r0, #8
1024:Drivers/lvgl/src/widgets/image/lv_image.c ****             int32_t scale_y = lv_obj_get_height(obj) * LV_SCALE_NONE / img->h;
 1933              		.loc 1 1024 74 discriminator 1 view .LVU582
 1934 00da E36B     		ldr	r3, [r4, #60]
1024:Drivers/lvgl/src/widgets/image/lv_image.c ****             int32_t scale_y = lv_obj_get_height(obj) * LV_SCALE_NONE / img->h;
 1935              		.loc 1 1024 21 discriminator 1 view .LVU583
 1936 00dc 91FBF3F5 		sdiv	r5, r1, r3
 1937              	.LVL184:
1025:Drivers/lvgl/src/widgets/image/lv_image.c ****             int32_t scale = LV_MAX(scale_x, scale_y);
 1938              		.loc 1 1025 13 is_stmt 1 view .LVU584
1025:Drivers/lvgl/src/widgets/image/lv_image.c ****             int32_t scale = LV_MAX(scale_x, scale_y);
 1939              		.loc 1 1025 31 is_stmt 0 view .LVU585
 1940 00e0 2046     		mov	r0, r4
 1941 00e2 FFF7FEFF 		bl	lv_obj_get_height
 1942              	.LVL185:
1025:Drivers/lvgl/src/widgets/image/lv_image.c ****             int32_t scale = LV_MAX(scale_x, scale_y);
 1943              		.loc 1 1025 54 discriminator 1 view .LVU586
 1944 00e6 0302     		lsls	r3, r0, #8
1025:Drivers/lvgl/src/widgets/image/lv_image.c ****             int32_t scale = LV_MAX(scale_x, scale_y);
 1945              		.loc 1 1025 75 discriminator 1 view .LVU587
 1946 00e8 226C     		ldr	r2, [r4, #64]
1025:Drivers/lvgl/src/widgets/image/lv_image.c ****             int32_t scale = LV_MAX(scale_x, scale_y);
 1947              		.loc 1 1025 21 discriminator 1 view .LVU588
 1948 00ea 93FBF2F3 		sdiv	r3, r3, r2
 1949              	.LVL186:
1026:Drivers/lvgl/src/widgets/image/lv_image.c ****             scale_update(obj, scale, scale);
 1950              		.loc 1 1026 13 is_stmt 1 view .LVU589
1026:Drivers/lvgl/src/widgets/image/lv_image.c ****             scale_update(obj, scale, scale);
 1951              		.loc 1 1026 21 is_stmt 0 view .LVU590
 1952 00ee 2946     		mov	r1, r5
 1953 00f0 9D42     		cmp	r5, r3
 1954 00f2 B8BF     		it	lt
 1955 00f4 1946     		movlt	r1, r3
 1956              	.LVL187:
1027:Drivers/lvgl/src/widgets/image/lv_image.c ****         }
 1957              		.loc 1 1027 13 is_stmt 1 view .LVU591
 1958 00f6 0A46     		mov	r2, r1
 1959 00f8 2046     		mov	r0, r4
 1960 00fa FFF7FEFF 		bl	scale_update
 1961              	.LVL188:
1027:Drivers/lvgl/src/widgets/image/lv_image.c ****         }
 1962              		.loc 1 1027 13 is_stmt 0 view .LVU592
 1963 00fe 0DE0     		b	.L114
 1964              	.LVL189:
 1965              	.L119:
1027:Drivers/lvgl/src/widgets/image/lv_image.c ****         }
 1966              		.loc 1 1027 13 view .LVU593
ARM GAS  /var/folders/qx/2_175_4n2s19vhvtspjhb3qh0000gn/T//ccePDbYF.s 			page 63


 1967              	.LBE24:
1031:Drivers/lvgl/src/widgets/image/lv_image.c ****         lv_image_set_pivot(obj, 0, 0);
 1968              		.loc 1 1031 9 is_stmt 1 view .LVU594
 1969 0100 0021     		movs	r1, #0
 1970 0102 FFF7FEFF 		bl	lv_image_set_rotation
 1971              	.LVL190:
1032:Drivers/lvgl/src/widgets/image/lv_image.c ****         scale_update(obj, LV_SCALE_NONE, LV_SCALE_NONE);
 1972              		.loc 1 1032 9 view .LVU595
 1973 0106 0022     		movs	r2, #0
 1974 0108 1146     		mov	r1, r2
 1975 010a 2046     		mov	r0, r4
 1976 010c FFF7FEFF 		bl	lv_image_set_pivot
 1977              	.LVL191:
1033:Drivers/lvgl/src/widgets/image/lv_image.c ****     }
 1978              		.loc 1 1033 9 view .LVU596
 1979 0110 4FF48072 		mov	r2, #256
 1980 0114 1146     		mov	r1, r2
 1981 0116 2046     		mov	r0, r4
 1982 0118 FFF7FEFF 		bl	scale_update
 1983              	.LVL192:
 1984              	.L114:
1035:Drivers/lvgl/src/widgets/image/lv_image.c **** 
 1985              		.loc 1 1035 1 is_stmt 0 view .LVU597
 1986 011c 38BD     		pop	{r3, r4, r5, pc}
1035:Drivers/lvgl/src/widgets/image/lv_image.c **** 
 1987              		.loc 1 1035 1 view .LVU598
 1988              		.cfi_endproc
 1989              	.LFE233:
 1991              		.section	.text.lv_image_set_src,"ax",%progbits
 1992              		.align	1
 1993              		.global	lv_image_set_src
 1994              		.syntax unified
 1995              		.thumb
 1996              		.thumb_func
 1998              	lv_image_set_src:
 1999              	.LVL193:
 2000              	.LFB197:
 149:Drivers/lvgl/src/widgets/image/lv_image.c ****     LV_ASSERT_OBJ(obj, MY_CLASS);
 2001              		.loc 1 149 1 is_stmt 1 view -0
 2002              		.cfi_startproc
 2003              		@ args = 0, pretend = 0, frame = 48
 2004              		@ frame_needed = 0, uses_anonymous_args = 0
 150:Drivers/lvgl/src/widgets/image/lv_image.c **** 
 2005              		.loc 1 150 5 view .LVU600
 150:Drivers/lvgl/src/widgets/image/lv_image.c **** 
 2006              		.loc 1 150 5 view .LVU601
 2007 0000 0028     		cmp	r0, #0
 2008 0002 51D0     		beq	.L125
 149:Drivers/lvgl/src/widgets/image/lv_image.c ****     LV_ASSERT_OBJ(obj, MY_CLASS);
 2009              		.loc 1 149 1 is_stmt 0 view .LVU602
 2010 0004 2DE9F041 		push	{r4, r5, r6, r7, r8, lr}
 2011              	.LCFI36:
 2012              		.cfi_def_cfa_offset 24
 2013              		.cfi_offset 4, -24
 2014              		.cfi_offset 5, -20
 2015              		.cfi_offset 6, -16
 2016              		.cfi_offset 7, -12
ARM GAS  /var/folders/qx/2_175_4n2s19vhvtspjhb3qh0000gn/T//ccePDbYF.s 			page 64


 2017              		.cfi_offset 8, -8
 2018              		.cfi_offset 14, -4
 2019 0008 8CB0     		sub	sp, sp, #48
 2020              	.LCFI37:
 2021              		.cfi_def_cfa_offset 72
 2022 000a 0D46     		mov	r5, r1
 2023 000c 0446     		mov	r4, r0
 150:Drivers/lvgl/src/widgets/image/lv_image.c **** 
 2024              		.loc 1 150 5 is_stmt 1 view .LVU603
 150:Drivers/lvgl/src/widgets/image/lv_image.c **** 
 2025              		.loc 1 150 33 view .LVU604
 152:Drivers/lvgl/src/widgets/image/lv_image.c **** 
 2026              		.loc 1 152 5 view .LVU605
 2027 000e FFF7FEFF 		bl	lv_obj_invalidate
 2028              	.LVL194:
 154:Drivers/lvgl/src/widgets/image/lv_image.c ****     lv_image_t * img = (lv_image_t *)obj;
 2029              		.loc 1 154 5 view .LVU606
 154:Drivers/lvgl/src/widgets/image/lv_image.c ****     lv_image_t * img = (lv_image_t *)obj;
 2030              		.loc 1 154 31 is_stmt 0 view .LVU607
 2031 0012 2846     		mov	r0, r5
 2032 0014 FFF7FEFF 		bl	lv_image_src_get_type
 2033              	.LVL195:
 2034 0018 0646     		mov	r6, r0
 2035              	.LVL196:
 155:Drivers/lvgl/src/widgets/image/lv_image.c **** 
 2036              		.loc 1 155 5 is_stmt 1 view .LVU608
 174:Drivers/lvgl/src/widgets/image/lv_image.c ****         if(src) LV_LOG_WARN("unknown image type");
 2037              		.loc 1 174 5 view .LVU609
 174:Drivers/lvgl/src/widgets/image/lv_image.c ****         if(src) LV_LOG_WARN("unknown image type");
 2038              		.loc 1 174 7 is_stmt 0 view .LVU610
 2039 001a 0328     		cmp	r0, #3
 2040 001c 45D0     		beq	.L142
 180:Drivers/lvgl/src/widgets/image/lv_image.c ****     lv_result_t res = lv_image_decoder_get_info(src, &header);
 2041              		.loc 1 180 5 is_stmt 1 view .LVU611
 181:Drivers/lvgl/src/widgets/image/lv_image.c ****     if(res != LV_RESULT_OK) {
 2042              		.loc 1 181 5 view .LVU612
 181:Drivers/lvgl/src/widgets/image/lv_image.c ****     if(res != LV_RESULT_OK) {
 2043              		.loc 1 181 23 is_stmt 0 view .LVU613
 2044 001e 09A9     		add	r1, sp, #36
 2045 0020 2846     		mov	r0, r5
 2046              	.LVL197:
 181:Drivers/lvgl/src/widgets/image/lv_image.c ****     if(res != LV_RESULT_OK) {
 2047              		.loc 1 181 23 view .LVU614
 2048 0022 FFF7FEFF 		bl	lv_image_decoder_get_info
 2049              	.LVL198:
 182:Drivers/lvgl/src/widgets/image/lv_image.c ****         if(src_type == LV_IMAGE_SRC_FILE) {
 2050              		.loc 1 182 5 is_stmt 1 view .LVU615
 182:Drivers/lvgl/src/widgets/image/lv_image.c ****         if(src_type == LV_IMAGE_SRC_FILE) {
 2051              		.loc 1 182 7 is_stmt 0 view .LVU616
 2052 0026 0128     		cmp	r0, #1
 2053 0028 43D1     		bne	.L143
 194:Drivers/lvgl/src/widgets/image/lv_image.c ****         if(header.flags & LV_IMAGE_FLAGS_ALLOCATED) {
 2054              		.loc 1 194 5 is_stmt 1 view .LVU617
 194:Drivers/lvgl/src/widgets/image/lv_image.c ****         if(header.flags & LV_IMAGE_FLAGS_ALLOCATED) {
 2055              		.loc 1 194 7 is_stmt 0 view .LVU618
 2056 002a 002E     		cmp	r6, #0
 2057 002c 49D1     		bne	.L129
ARM GAS  /var/folders/qx/2_175_4n2s19vhvtspjhb3qh0000gn/T//ccePDbYF.s 			page 65


 195:Drivers/lvgl/src/widgets/image/lv_image.c ****             lv_draw_buf_t * buf = (lv_draw_buf_t *)src;
 2058              		.loc 1 195 9 is_stmt 1 view .LVU619
 195:Drivers/lvgl/src/widgets/image/lv_image.c ****             lv_draw_buf_t * buf = (lv_draw_buf_t *)src;
 2059              		.loc 1 195 18 is_stmt 0 view .LVU620
 2060 002e BDF82630 		ldrh	r3, [sp, #38]
 195:Drivers/lvgl/src/widgets/image/lv_image.c ****             lv_draw_buf_t * buf = (lv_draw_buf_t *)src;
 2061              		.loc 1 195 11 view .LVU621
 2062 0032 13F0100F 		tst	r3, #16
 2063 0036 03D0     		beq	.L130
 2064              	.LBB25:
 196:Drivers/lvgl/src/widgets/image/lv_image.c ****             if(!buf->unaligned_data || !buf->handlers) {
 2065              		.loc 1 196 13 is_stmt 1 view .LVU622
 2066              	.LVL199:
 197:Drivers/lvgl/src/widgets/image/lv_image.c ****                 LV_LOG_ERROR("Invalid draw buffer, unaligned_data: %p, handlers: %p",
 2067              		.loc 1 197 13 view .LVU623
 197:Drivers/lvgl/src/widgets/image/lv_image.c ****                 LV_LOG_ERROR("Invalid draw buffer, unaligned_data: %p, handlers: %p",
 2068              		.loc 1 197 20 is_stmt 0 view .LVU624
 2069 0038 6B69     		ldr	r3, [r5, #20]
 197:Drivers/lvgl/src/widgets/image/lv_image.c ****                 LV_LOG_ERROR("Invalid draw buffer, unaligned_data: %p, handlers: %p",
 2070              		.loc 1 197 15 view .LVU625
 2071 003a 93B3     		cbz	r3, .L123
 197:Drivers/lvgl/src/widgets/image/lv_image.c ****                 LV_LOG_ERROR("Invalid draw buffer, unaligned_data: %p, handlers: %p",
 2072              		.loc 1 197 44 discriminator 1 view .LVU626
 2073 003c AB69     		ldr	r3, [r5, #24]
 197:Drivers/lvgl/src/widgets/image/lv_image.c ****                 LV_LOG_ERROR("Invalid draw buffer, unaligned_data: %p, handlers: %p",
 2074              		.loc 1 197 37 discriminator 1 view .LVU627
 2075 003e 83B3     		cbz	r3, .L123
 2076              	.LVL200:
 2077              	.L130:
 197:Drivers/lvgl/src/widgets/image/lv_image.c ****                 LV_LOG_ERROR("Invalid draw buffer, unaligned_data: %p, handlers: %p",
 2078              		.loc 1 197 37 discriminator 1 view .LVU628
 2079              	.LBE25:
 205:Drivers/lvgl/src/widgets/image/lv_image.c ****             lv_free((void *)img->src);
 2080              		.loc 1 205 9 is_stmt 1 view .LVU629
 205:Drivers/lvgl/src/widgets/image/lv_image.c ****             lv_free((void *)img->src);
 2081              		.loc 1 205 26 is_stmt 0 view .LVU630
 2082 0040 94F85830 		ldrb	r3, [r4, #88]	@ zero_extendqisi2
 205:Drivers/lvgl/src/widgets/image/lv_image.c ****             lv_free((void *)img->src);
 2083              		.loc 1 205 47 view .LVU631
 2084 0044 03F00303 		and	r3, r3, #3
 2085 0048 013B     		subs	r3, r3, #1
 2086 004a DBB2     		uxtb	r3, r3
 205:Drivers/lvgl/src/widgets/image/lv_image.c ****             lv_free((void *)img->src);
 2087              		.loc 1 205 11 view .LVU632
 2088 004c 012B     		cmp	r3, #1
 2089 004e 34D9     		bls	.L144
 2090              	.LVL201:
 2091              	.L131:
 208:Drivers/lvgl/src/widgets/image/lv_image.c ****     }
 2092              		.loc 1 208 9 is_stmt 1 view .LVU633
 208:Drivers/lvgl/src/widgets/image/lv_image.c ****     }
 2093              		.loc 1 208 18 is_stmt 0 view .LVU634
 2094 0050 E562     		str	r5, [r4, #44]
 2095              	.L132:
 229:Drivers/lvgl/src/widgets/image/lv_image.c ****         /*`lv_image_dsc_get_info` couldn't set the width and height of a font so set it here*/
 2096              		.loc 1 229 5 is_stmt 1 view .LVU635
 229:Drivers/lvgl/src/widgets/image/lv_image.c ****         /*`lv_image_dsc_get_info` couldn't set the width and height of a font so set it here*/
ARM GAS  /var/folders/qx/2_175_4n2s19vhvtspjhb3qh0000gn/T//ccePDbYF.s 			page 66


 2097              		.loc 1 229 7 is_stmt 0 view .LVU636
 2098 0052 022E     		cmp	r6, #2
 2099 0054 51D0     		beq	.L145
 2100              	.L133:
 245:Drivers/lvgl/src/widgets/image/lv_image.c ****     img->w        = header.w;
 2101              		.loc 1 245 5 is_stmt 1 view .LVU637
 245:Drivers/lvgl/src/widgets/image/lv_image.c ****     img->w        = header.w;
 2102              		.loc 1 245 19 is_stmt 0 view .LVU638
 2103 0056 94F85830 		ldrb	r3, [r4, #88]	@ zero_extendqisi2
 2104 005a 66F30103 		bfi	r3, r6, #0, #2
 2105 005e 84F85830 		strb	r3, [r4, #88]
 246:Drivers/lvgl/src/widgets/image/lv_image.c ****     img->h        = header.h;
 2106              		.loc 1 246 5 is_stmt 1 view .LVU639
 246:Drivers/lvgl/src/widgets/image/lv_image.c ****     img->h        = header.h;
 2107              		.loc 1 246 27 is_stmt 0 view .LVU640
 2108 0062 BDF82830 		ldrh	r3, [sp, #40]
 246:Drivers/lvgl/src/widgets/image/lv_image.c ****     img->h        = header.h;
 2109              		.loc 1 246 19 view .LVU641
 2110 0066 E363     		str	r3, [r4, #60]
 247:Drivers/lvgl/src/widgets/image/lv_image.c ****     img->cf       = header.cf;
 2111              		.loc 1 247 5 is_stmt 1 view .LVU642
 247:Drivers/lvgl/src/widgets/image/lv_image.c ****     img->cf       = header.cf;
 2112              		.loc 1 247 27 is_stmt 0 view .LVU643
 2113 0068 BDF82A30 		ldrh	r3, [sp, #42]
 247:Drivers/lvgl/src/widgets/image/lv_image.c ****     img->cf       = header.cf;
 2114              		.loc 1 247 19 view .LVU644
 2115 006c 2364     		str	r3, [r4, #64]
 248:Drivers/lvgl/src/widgets/image/lv_image.c **** 
 2116              		.loc 1 248 5 is_stmt 1 view .LVU645
 248:Drivers/lvgl/src/widgets/image/lv_image.c **** 
 2117              		.loc 1 248 27 is_stmt 0 view .LVU646
 2118 006e 9DF82520 		ldrb	r2, [sp, #37]	@ zero_extendqisi2
 248:Drivers/lvgl/src/widgets/image/lv_image.c **** 
 2119              		.loc 1 248 19 view .LVU647
 2120 0072 94F85830 		ldrb	r3, [r4, #88]	@ zero_extendqisi2
 2121 0076 62F38603 		bfi	r3, r2, #2, #5
 2122 007a 84F85830 		strb	r3, [r4, #88]
 250:Drivers/lvgl/src/widgets/image/lv_image.c **** 
 2123              		.loc 1 250 5 is_stmt 1 view .LVU648
 2124 007e 2046     		mov	r0, r4
 2125 0080 FFF7FEFF 		bl	lv_obj_refresh_self_size
 2126              	.LVL202:
 252:Drivers/lvgl/src/widgets/image/lv_image.c **** 
 2127              		.loc 1 252 5 view .LVU649
 2128 0084 2046     		mov	r0, r4
 2129 0086 FFF7FEFF 		bl	update_align
 2130              	.LVL203:
 255:Drivers/lvgl/src/widgets/image/lv_image.c ****         lv_obj_refresh_ext_draw_size(obj);
 2131              		.loc 1 255 5 view .LVU650
 255:Drivers/lvgl/src/widgets/image/lv_image.c ****         lv_obj_refresh_ext_draw_size(obj);
 2132              		.loc 1 255 11 is_stmt 0 view .LVU651
 2133 008a 636C     		ldr	r3, [r4, #68]
 255:Drivers/lvgl/src/widgets/image/lv_image.c ****         lv_obj_refresh_ext_draw_size(obj);
 2134              		.loc 1 255 7 view .LVU652
 2135 008c 1BB9     		cbnz	r3, .L137
 255:Drivers/lvgl/src/widgets/image/lv_image.c ****         lv_obj_refresh_ext_draw_size(obj);
 2136              		.loc 1 255 28 discriminator 1 view .LVU653
ARM GAS  /var/folders/qx/2_175_4n2s19vhvtspjhb3qh0000gn/T//ccePDbYF.s 			page 67


 2137 008e A36C     		ldr	r3, [r4, #72]
 255:Drivers/lvgl/src/widgets/image/lv_image.c ****         lv_obj_refresh_ext_draw_size(obj);
 2138              		.loc 1 255 22 discriminator 1 view .LVU654
 2139 0090 B3F5807F 		cmp	r3, #256
 2140 0094 5FD0     		beq	.L146
 2141              	.L137:
 256:Drivers/lvgl/src/widgets/image/lv_image.c ****     }
 2142              		.loc 1 256 9 is_stmt 1 view .LVU655
 2143 0096 2046     		mov	r0, r4
 2144 0098 FFF7FEFF 		bl	lv_obj_refresh_ext_draw_size
 2145              	.LVL204:
 2146              	.L138:
 259:Drivers/lvgl/src/widgets/image/lv_image.c **** }
 2147              		.loc 1 259 5 view .LVU656
 2148 009c 2046     		mov	r0, r4
 2149 009e FFF7FEFF 		bl	lv_obj_invalidate
 2150              	.LVL205:
 2151              	.L123:
 260:Drivers/lvgl/src/widgets/image/lv_image.c **** 
 2152              		.loc 1 260 1 is_stmt 0 view .LVU657
 2153 00a2 0CB0     		add	sp, sp, #48
 2154              	.LCFI38:
 2155              		.cfi_def_cfa_offset 24
 2156              		@ sp needed
 2157 00a4 BDE8F081 		pop	{r4, r5, r6, r7, r8, pc}
 2158              	.LVL206:
 2159              	.L125:
 2160              	.LCFI39:
 2161              		.cfi_def_cfa_offset 0
 2162              		.cfi_restore 4
 2163              		.cfi_restore 5
 2164              		.cfi_restore 6
 2165              		.cfi_restore 7
 2166              		.cfi_restore 8
 2167              		.cfi_restore 14
 150:Drivers/lvgl/src/widgets/image/lv_image.c **** 
 2168              		.loc 1 150 5 is_stmt 1 view .LVU658
 150:Drivers/lvgl/src/widgets/image/lv_image.c **** 
 2169              		.loc 1 150 5 view .LVU659
 150:Drivers/lvgl/src/widgets/image/lv_image.c **** 
 2170              		.loc 1 150 5 view .LVU660
 150:Drivers/lvgl/src/widgets/image/lv_image.c **** 
 2171              		.loc 1 150 5 view .LVU661
 150:Drivers/lvgl/src/widgets/image/lv_image.c **** 
 2172              		.loc 1 150 5 view .LVU662
 2173 00a8 FEE7     		b	.L125
 2174              	.LVL207:
 2175              	.L142:
 2176              	.LCFI40:
 2177              		.cfi_def_cfa_offset 72
 2178              		.cfi_offset 4, -24
 2179              		.cfi_offset 5, -20
 2180              		.cfi_offset 6, -16
 2181              		.cfi_offset 7, -12
 2182              		.cfi_offset 8, -8
 2183              		.cfi_offset 14, -4
 175:Drivers/lvgl/src/widgets/image/lv_image.c ****         reset_image_attributes(obj);
ARM GAS  /var/folders/qx/2_175_4n2s19vhvtspjhb3qh0000gn/T//ccePDbYF.s 			page 68


 2184              		.loc 1 175 9 view .LVU663
 175:Drivers/lvgl/src/widgets/image/lv_image.c ****         reset_image_attributes(obj);
 2185              		.loc 1 175 17 view .LVU664
 175:Drivers/lvgl/src/widgets/image/lv_image.c ****         reset_image_attributes(obj);
 2186              		.loc 1 175 17 view .LVU665
 175:Drivers/lvgl/src/widgets/image/lv_image.c ****         reset_image_attributes(obj);
 2187              		.loc 1 175 17 view .LVU666
 176:Drivers/lvgl/src/widgets/image/lv_image.c ****         return;
 2188              		.loc 1 176 9 view .LVU667
 2189 00aa 2046     		mov	r0, r4
 2190              	.LVL208:
 176:Drivers/lvgl/src/widgets/image/lv_image.c ****         return;
 2191              		.loc 1 176 9 is_stmt 0 view .LVU668
 2192 00ac FFF7FEFF 		bl	reset_image_attributes
 2193              	.LVL209:
 177:Drivers/lvgl/src/widgets/image/lv_image.c ****     }
 2194              		.loc 1 177 9 is_stmt 1 view .LVU669
 2195 00b0 F7E7     		b	.L123
 2196              	.LVL210:
 2197              	.L143:
 183:Drivers/lvgl/src/widgets/image/lv_image.c ****             LV_LOG_WARN("failed to get image info: %s", (const char *)src);
 2198              		.loc 1 183 9 view .LVU670
 184:Drivers/lvgl/src/widgets/image/lv_image.c ****         }
 2199              		.loc 1 184 13 view .LVU671
 184:Drivers/lvgl/src/widgets/image/lv_image.c ****         }
 2200              		.loc 1 184 13 view .LVU672
 184:Drivers/lvgl/src/widgets/image/lv_image.c ****         }
 2201              		.loc 1 184 13 view .LVU673
 187:Drivers/lvgl/src/widgets/image/lv_image.c ****         }
 2202              		.loc 1 187 13 view .LVU674
 187:Drivers/lvgl/src/widgets/image/lv_image.c ****         }
 2203              		.loc 1 187 13 view .LVU675
 187:Drivers/lvgl/src/widgets/image/lv_image.c ****         }
 2204              		.loc 1 187 13 view .LVU676
 189:Drivers/lvgl/src/widgets/image/lv_image.c ****         return;
 2205              		.loc 1 189 9 view .LVU677
 2206 00b2 2046     		mov	r0, r4
 2207              	.LVL211:
 189:Drivers/lvgl/src/widgets/image/lv_image.c ****         return;
 2208              		.loc 1 189 9 is_stmt 0 view .LVU678
 2209 00b4 FFF7FEFF 		bl	reset_image_attributes
 2210              	.LVL212:
 190:Drivers/lvgl/src/widgets/image/lv_image.c ****     }
 2211              		.loc 1 190 9 is_stmt 1 view .LVU679
 2212 00b8 F3E7     		b	.L123
 2213              	.LVL213:
 2214              	.L144:
 206:Drivers/lvgl/src/widgets/image/lv_image.c ****         }
 2215              		.loc 1 206 13 view .LVU680
 2216 00ba E06A     		ldr	r0, [r4, #44]
 2217              	.LVL214:
 206:Drivers/lvgl/src/widgets/image/lv_image.c ****         }
 2218              		.loc 1 206 13 is_stmt 0 view .LVU681
 2219 00bc FFF7FEFF 		bl	lv_free
 2220              	.LVL215:
 2221 00c0 C6E7     		b	.L131
 2222              	.LVL216:
ARM GAS  /var/folders/qx/2_175_4n2s19vhvtspjhb3qh0000gn/T//ccePDbYF.s 			page 69


 2223              	.L129:
 210:Drivers/lvgl/src/widgets/image/lv_image.c ****         /*If the new and the old src are the same then it was only a refresh.*/
 2224              		.loc 1 210 10 is_stmt 1 view .LVU682
 210:Drivers/lvgl/src/widgets/image/lv_image.c ****         /*If the new and the old src are the same then it was only a refresh.*/
 2225              		.loc 1 210 43 is_stmt 0 view .LVU683
 2226 00c2 731E     		subs	r3, r6, #1
 2227 00c4 DBB2     		uxtb	r3, r3
 210:Drivers/lvgl/src/widgets/image/lv_image.c ****         /*If the new and the old src are the same then it was only a refresh.*/
 2228              		.loc 1 210 12 view .LVU684
 2229 00c6 012B     		cmp	r3, #1
 2230 00c8 C5D8     		bhi	.L133
 212:Drivers/lvgl/src/widgets/image/lv_image.c ****             const void * old_src = NULL;
 2231              		.loc 1 212 9 is_stmt 1 view .LVU685
 212:Drivers/lvgl/src/widgets/image/lv_image.c ****             const void * old_src = NULL;
 2232              		.loc 1 212 15 is_stmt 0 view .LVU686
 2233 00ca E76A     		ldr	r7, [r4, #44]
 212:Drivers/lvgl/src/widgets/image/lv_image.c ****             const void * old_src = NULL;
 2234              		.loc 1 212 11 view .LVU687
 2235 00cc AF42     		cmp	r7, r5
 2236 00ce C0D0     		beq	.L132
 2237              	.LBB26:
 213:Drivers/lvgl/src/widgets/image/lv_image.c ****             /*If memory was allocated because of the previous `src_type` then save its pointer and 
 2238              		.loc 1 213 13 is_stmt 1 view .LVU688
 2239              	.LVL217:
 217:Drivers/lvgl/src/widgets/image/lv_image.c ****                 old_src = img->src;
 2240              		.loc 1 217 13 view .LVU689
 217:Drivers/lvgl/src/widgets/image/lv_image.c ****                 old_src = img->src;
 2241              		.loc 1 217 30 is_stmt 0 view .LVU690
 2242 00d0 94F85830 		ldrb	r3, [r4, #88]	@ zero_extendqisi2
 217:Drivers/lvgl/src/widgets/image/lv_image.c ****                 old_src = img->src;
 2243              		.loc 1 217 51 view .LVU691
 2244 00d4 03F00303 		and	r3, r3, #3
 2245 00d8 013B     		subs	r3, r3, #1
 2246 00da DBB2     		uxtb	r3, r3
 217:Drivers/lvgl/src/widgets/image/lv_image.c ****                 old_src = img->src;
 2247              		.loc 1 217 15 view .LVU692
 2248 00dc 012B     		cmp	r3, #1
 2249 00de 00D9     		bls	.L134
 213:Drivers/lvgl/src/widgets/image/lv_image.c ****             /*If memory was allocated because of the previous `src_type` then save its pointer and 
 2250              		.loc 1 213 26 view .LVU693
 2251 00e0 0027     		movs	r7, #0
 2252              	.L134:
 2253              	.LVL218:
 220:Drivers/lvgl/src/widgets/image/lv_image.c ****             LV_ASSERT_MALLOC(new_str);
 2254              		.loc 1 220 13 is_stmt 1 view .LVU694
 220:Drivers/lvgl/src/widgets/image/lv_image.c ****             LV_ASSERT_MALLOC(new_str);
 2255              		.loc 1 220 30 is_stmt 0 view .LVU695
 2256 00e2 2846     		mov	r0, r5
 2257              	.LVL219:
 220:Drivers/lvgl/src/widgets/image/lv_image.c ****             LV_ASSERT_MALLOC(new_str);
 2258              		.loc 1 220 30 view .LVU696
 2259 00e4 FFF7FEFF 		bl	lv_strdup
 2260              	.LVL220:
 221:Drivers/lvgl/src/widgets/image/lv_image.c ****             if(new_str == NULL) return;
 2261              		.loc 1 221 13 is_stmt 1 view .LVU697
 221:Drivers/lvgl/src/widgets/image/lv_image.c ****             if(new_str == NULL) return;
 2262              		.loc 1 221 13 view .LVU698
ARM GAS  /var/folders/qx/2_175_4n2s19vhvtspjhb3qh0000gn/T//ccePDbYF.s 			page 70


 2263 00e8 30B1     		cbz	r0, .L136
 221:Drivers/lvgl/src/widgets/image/lv_image.c ****             if(new_str == NULL) return;
 2264              		.loc 1 221 13 view .LVU699
 221:Drivers/lvgl/src/widgets/image/lv_image.c ****             if(new_str == NULL) return;
 2265              		.loc 1 221 38 view .LVU700
 222:Drivers/lvgl/src/widgets/image/lv_image.c ****             img->src = new_str;
 2266              		.loc 1 222 13 view .LVU701
 223:Drivers/lvgl/src/widgets/image/lv_image.c **** 
 2267              		.loc 1 223 13 view .LVU702
 223:Drivers/lvgl/src/widgets/image/lv_image.c **** 
 2268              		.loc 1 223 22 is_stmt 0 view .LVU703
 2269 00ea E062     		str	r0, [r4, #44]
 225:Drivers/lvgl/src/widgets/image/lv_image.c ****         }
 2270              		.loc 1 225 13 is_stmt 1 view .LVU704
 225:Drivers/lvgl/src/widgets/image/lv_image.c ****         }
 2271              		.loc 1 225 15 is_stmt 0 view .LVU705
 2272 00ec 002F     		cmp	r7, #0
 2273 00ee B0D0     		beq	.L132
 225:Drivers/lvgl/src/widgets/image/lv_image.c ****         }
 2274              		.loc 1 225 25 is_stmt 1 discriminator 1 view .LVU706
 2275 00f0 3846     		mov	r0, r7
 2276              	.LVL221:
 225:Drivers/lvgl/src/widgets/image/lv_image.c ****         }
 2277              		.loc 1 225 25 is_stmt 0 discriminator 1 view .LVU707
 2278 00f2 FFF7FEFF 		bl	lv_free
 2279              	.LVL222:
 225:Drivers/lvgl/src/widgets/image/lv_image.c ****         }
 2280              		.loc 1 225 25 discriminator 1 view .LVU708
 2281 00f6 ACE7     		b	.L132
 2282              	.LVL223:
 2283              	.L136:
 221:Drivers/lvgl/src/widgets/image/lv_image.c ****             if(new_str == NULL) return;
 2284              		.loc 1 221 13 is_stmt 1 view .LVU709
 221:Drivers/lvgl/src/widgets/image/lv_image.c ****             if(new_str == NULL) return;
 2285              		.loc 1 221 13 view .LVU710
 221:Drivers/lvgl/src/widgets/image/lv_image.c ****             if(new_str == NULL) return;
 2286              		.loc 1 221 13 view .LVU711
 221:Drivers/lvgl/src/widgets/image/lv_image.c ****             if(new_str == NULL) return;
 2287              		.loc 1 221 13 view .LVU712
 221:Drivers/lvgl/src/widgets/image/lv_image.c ****             if(new_str == NULL) return;
 2288              		.loc 1 221 13 view .LVU713
 2289 00f8 FEE7     		b	.L136
 2290              	.LVL224:
 2291              	.L145:
 221:Drivers/lvgl/src/widgets/image/lv_image.c ****             if(new_str == NULL) return;
 2292              		.loc 1 221 13 is_stmt 0 view .LVU714
 2293              	.LBE26:
 2294              	.LBB27:
 231:Drivers/lvgl/src/widgets/image/lv_image.c ****         lv_text_attributes_t attributes = {0};
 2295              		.loc 1 231 9 is_stmt 1 view .LVU715
 2296              	.LBB28:
 2297              	.LBI28:
 2298              		.file 2 "Drivers/lvgl/src/widgets/image/../../core/lv_obj_style_gen.h"
   1:Drivers/lvgl/src/widgets/image/../../core/lv_obj_style_gen.h **** 
   2:Drivers/lvgl/src/widgets/image/../../core/lv_obj_style_gen.h **** /*
   3:Drivers/lvgl/src/widgets/image/../../core/lv_obj_style_gen.h ****  **********************************************************************
   4:Drivers/lvgl/src/widgets/image/../../core/lv_obj_style_gen.h ****  *                            DO NOT EDIT
ARM GAS  /var/folders/qx/2_175_4n2s19vhvtspjhb3qh0000gn/T//ccePDbYF.s 			page 71


   5:Drivers/lvgl/src/widgets/image/../../core/lv_obj_style_gen.h ****  * This file is automatically generated by "style_api_gen.py"
   6:Drivers/lvgl/src/widgets/image/../../core/lv_obj_style_gen.h ****  **********************************************************************
   7:Drivers/lvgl/src/widgets/image/../../core/lv_obj_style_gen.h ****  */
   8:Drivers/lvgl/src/widgets/image/../../core/lv_obj_style_gen.h **** 
   9:Drivers/lvgl/src/widgets/image/../../core/lv_obj_style_gen.h **** 
  10:Drivers/lvgl/src/widgets/image/../../core/lv_obj_style_gen.h **** #ifndef LV_OBJ_STYLE_GEN_H
  11:Drivers/lvgl/src/widgets/image/../../core/lv_obj_style_gen.h **** #define LV_OBJ_STYLE_GEN_H
  12:Drivers/lvgl/src/widgets/image/../../core/lv_obj_style_gen.h **** 
  13:Drivers/lvgl/src/widgets/image/../../core/lv_obj_style_gen.h **** #ifdef __cplusplus
  14:Drivers/lvgl/src/widgets/image/../../core/lv_obj_style_gen.h **** extern "C" {
  15:Drivers/lvgl/src/widgets/image/../../core/lv_obj_style_gen.h **** #endif
  16:Drivers/lvgl/src/widgets/image/../../core/lv_obj_style_gen.h **** 
  17:Drivers/lvgl/src/widgets/image/../../core/lv_obj_style_gen.h **** #include "../misc/lv_area.h"
  18:Drivers/lvgl/src/widgets/image/../../core/lv_obj_style_gen.h **** #include "../misc/lv_style.h"
  19:Drivers/lvgl/src/widgets/image/../../core/lv_obj_style_gen.h **** #include "../core/lv_obj_style.h"
  20:Drivers/lvgl/src/widgets/image/../../core/lv_obj_style_gen.h **** #include "../misc/lv_types.h"
  21:Drivers/lvgl/src/widgets/image/../../core/lv_obj_style_gen.h **** 
  22:Drivers/lvgl/src/widgets/image/../../core/lv_obj_style_gen.h **** static inline int32_t lv_obj_get_style_width(const lv_obj_t * obj, lv_part_t part)
  23:Drivers/lvgl/src/widgets/image/../../core/lv_obj_style_gen.h **** {
  24:Drivers/lvgl/src/widgets/image/../../core/lv_obj_style_gen.h ****     lv_style_value_t v = lv_obj_get_style_prop(obj, part, LV_STYLE_WIDTH);
  25:Drivers/lvgl/src/widgets/image/../../core/lv_obj_style_gen.h ****     return (int32_t)v.num;
  26:Drivers/lvgl/src/widgets/image/../../core/lv_obj_style_gen.h **** }
  27:Drivers/lvgl/src/widgets/image/../../core/lv_obj_style_gen.h **** 
  28:Drivers/lvgl/src/widgets/image/../../core/lv_obj_style_gen.h **** static inline int32_t lv_obj_get_style_min_width(const lv_obj_t * obj, lv_part_t part)
  29:Drivers/lvgl/src/widgets/image/../../core/lv_obj_style_gen.h **** {
  30:Drivers/lvgl/src/widgets/image/../../core/lv_obj_style_gen.h ****     lv_style_value_t v = lv_obj_get_style_prop(obj, part, LV_STYLE_MIN_WIDTH);
  31:Drivers/lvgl/src/widgets/image/../../core/lv_obj_style_gen.h ****     return (int32_t)v.num;
  32:Drivers/lvgl/src/widgets/image/../../core/lv_obj_style_gen.h **** }
  33:Drivers/lvgl/src/widgets/image/../../core/lv_obj_style_gen.h **** 
  34:Drivers/lvgl/src/widgets/image/../../core/lv_obj_style_gen.h **** static inline int32_t lv_obj_get_style_max_width(const lv_obj_t * obj, lv_part_t part)
  35:Drivers/lvgl/src/widgets/image/../../core/lv_obj_style_gen.h **** {
  36:Drivers/lvgl/src/widgets/image/../../core/lv_obj_style_gen.h ****     lv_style_value_t v = lv_obj_get_style_prop(obj, part, LV_STYLE_MAX_WIDTH);
  37:Drivers/lvgl/src/widgets/image/../../core/lv_obj_style_gen.h ****     return (int32_t)v.num;
  38:Drivers/lvgl/src/widgets/image/../../core/lv_obj_style_gen.h **** }
  39:Drivers/lvgl/src/widgets/image/../../core/lv_obj_style_gen.h **** 
  40:Drivers/lvgl/src/widgets/image/../../core/lv_obj_style_gen.h **** static inline int32_t lv_obj_get_style_height(const lv_obj_t * obj, lv_part_t part)
  41:Drivers/lvgl/src/widgets/image/../../core/lv_obj_style_gen.h **** {
  42:Drivers/lvgl/src/widgets/image/../../core/lv_obj_style_gen.h ****     lv_style_value_t v = lv_obj_get_style_prop(obj, part, LV_STYLE_HEIGHT);
  43:Drivers/lvgl/src/widgets/image/../../core/lv_obj_style_gen.h ****     return (int32_t)v.num;
  44:Drivers/lvgl/src/widgets/image/../../core/lv_obj_style_gen.h **** }
  45:Drivers/lvgl/src/widgets/image/../../core/lv_obj_style_gen.h **** 
  46:Drivers/lvgl/src/widgets/image/../../core/lv_obj_style_gen.h **** static inline int32_t lv_obj_get_style_min_height(const lv_obj_t * obj, lv_part_t part)
  47:Drivers/lvgl/src/widgets/image/../../core/lv_obj_style_gen.h **** {
  48:Drivers/lvgl/src/widgets/image/../../core/lv_obj_style_gen.h ****     lv_style_value_t v = lv_obj_get_style_prop(obj, part, LV_STYLE_MIN_HEIGHT);
  49:Drivers/lvgl/src/widgets/image/../../core/lv_obj_style_gen.h ****     return (int32_t)v.num;
  50:Drivers/lvgl/src/widgets/image/../../core/lv_obj_style_gen.h **** }
  51:Drivers/lvgl/src/widgets/image/../../core/lv_obj_style_gen.h **** 
  52:Drivers/lvgl/src/widgets/image/../../core/lv_obj_style_gen.h **** static inline int32_t lv_obj_get_style_max_height(const lv_obj_t * obj, lv_part_t part)
  53:Drivers/lvgl/src/widgets/image/../../core/lv_obj_style_gen.h **** {
  54:Drivers/lvgl/src/widgets/image/../../core/lv_obj_style_gen.h ****     lv_style_value_t v = lv_obj_get_style_prop(obj, part, LV_STYLE_MAX_HEIGHT);
  55:Drivers/lvgl/src/widgets/image/../../core/lv_obj_style_gen.h ****     return (int32_t)v.num;
  56:Drivers/lvgl/src/widgets/image/../../core/lv_obj_style_gen.h **** }
  57:Drivers/lvgl/src/widgets/image/../../core/lv_obj_style_gen.h **** 
  58:Drivers/lvgl/src/widgets/image/../../core/lv_obj_style_gen.h **** static inline int32_t lv_obj_get_style_length(const lv_obj_t * obj, lv_part_t part)
  59:Drivers/lvgl/src/widgets/image/../../core/lv_obj_style_gen.h **** {
  60:Drivers/lvgl/src/widgets/image/../../core/lv_obj_style_gen.h ****     lv_style_value_t v = lv_obj_get_style_prop(obj, part, LV_STYLE_LENGTH);
  61:Drivers/lvgl/src/widgets/image/../../core/lv_obj_style_gen.h ****     return (int32_t)v.num;
ARM GAS  /var/folders/qx/2_175_4n2s19vhvtspjhb3qh0000gn/T//ccePDbYF.s 			page 72


  62:Drivers/lvgl/src/widgets/image/../../core/lv_obj_style_gen.h **** }
  63:Drivers/lvgl/src/widgets/image/../../core/lv_obj_style_gen.h **** 
  64:Drivers/lvgl/src/widgets/image/../../core/lv_obj_style_gen.h **** static inline int32_t lv_obj_get_style_x(const lv_obj_t * obj, lv_part_t part)
  65:Drivers/lvgl/src/widgets/image/../../core/lv_obj_style_gen.h **** {
  66:Drivers/lvgl/src/widgets/image/../../core/lv_obj_style_gen.h ****     lv_style_value_t v = lv_obj_get_style_prop(obj, part, LV_STYLE_X);
  67:Drivers/lvgl/src/widgets/image/../../core/lv_obj_style_gen.h ****     return (int32_t)v.num;
  68:Drivers/lvgl/src/widgets/image/../../core/lv_obj_style_gen.h **** }
  69:Drivers/lvgl/src/widgets/image/../../core/lv_obj_style_gen.h **** 
  70:Drivers/lvgl/src/widgets/image/../../core/lv_obj_style_gen.h **** static inline int32_t lv_obj_get_style_y(const lv_obj_t * obj, lv_part_t part)
  71:Drivers/lvgl/src/widgets/image/../../core/lv_obj_style_gen.h **** {
  72:Drivers/lvgl/src/widgets/image/../../core/lv_obj_style_gen.h ****     lv_style_value_t v = lv_obj_get_style_prop(obj, part, LV_STYLE_Y);
  73:Drivers/lvgl/src/widgets/image/../../core/lv_obj_style_gen.h ****     return (int32_t)v.num;
  74:Drivers/lvgl/src/widgets/image/../../core/lv_obj_style_gen.h **** }
  75:Drivers/lvgl/src/widgets/image/../../core/lv_obj_style_gen.h **** 
  76:Drivers/lvgl/src/widgets/image/../../core/lv_obj_style_gen.h **** static inline lv_align_t lv_obj_get_style_align(const lv_obj_t * obj, lv_part_t part)
  77:Drivers/lvgl/src/widgets/image/../../core/lv_obj_style_gen.h **** {
  78:Drivers/lvgl/src/widgets/image/../../core/lv_obj_style_gen.h ****     lv_style_value_t v = lv_obj_get_style_prop(obj, part, LV_STYLE_ALIGN);
  79:Drivers/lvgl/src/widgets/image/../../core/lv_obj_style_gen.h ****     return (lv_align_t)v.num;
  80:Drivers/lvgl/src/widgets/image/../../core/lv_obj_style_gen.h **** }
  81:Drivers/lvgl/src/widgets/image/../../core/lv_obj_style_gen.h **** 
  82:Drivers/lvgl/src/widgets/image/../../core/lv_obj_style_gen.h **** static inline int32_t lv_obj_get_style_transform_width(const lv_obj_t * obj, lv_part_t part)
  83:Drivers/lvgl/src/widgets/image/../../core/lv_obj_style_gen.h **** {
  84:Drivers/lvgl/src/widgets/image/../../core/lv_obj_style_gen.h ****     lv_style_value_t v = lv_obj_get_style_prop(obj, part, LV_STYLE_TRANSFORM_WIDTH);
  85:Drivers/lvgl/src/widgets/image/../../core/lv_obj_style_gen.h ****     return (int32_t)v.num;
  86:Drivers/lvgl/src/widgets/image/../../core/lv_obj_style_gen.h **** }
  87:Drivers/lvgl/src/widgets/image/../../core/lv_obj_style_gen.h **** 
  88:Drivers/lvgl/src/widgets/image/../../core/lv_obj_style_gen.h **** static inline int32_t lv_obj_get_style_transform_height(const lv_obj_t * obj, lv_part_t part)
  89:Drivers/lvgl/src/widgets/image/../../core/lv_obj_style_gen.h **** {
  90:Drivers/lvgl/src/widgets/image/../../core/lv_obj_style_gen.h ****     lv_style_value_t v = lv_obj_get_style_prop(obj, part, LV_STYLE_TRANSFORM_HEIGHT);
  91:Drivers/lvgl/src/widgets/image/../../core/lv_obj_style_gen.h ****     return (int32_t)v.num;
  92:Drivers/lvgl/src/widgets/image/../../core/lv_obj_style_gen.h **** }
  93:Drivers/lvgl/src/widgets/image/../../core/lv_obj_style_gen.h **** 
  94:Drivers/lvgl/src/widgets/image/../../core/lv_obj_style_gen.h **** static inline int32_t lv_obj_get_style_translate_x(const lv_obj_t * obj, lv_part_t part)
  95:Drivers/lvgl/src/widgets/image/../../core/lv_obj_style_gen.h **** {
  96:Drivers/lvgl/src/widgets/image/../../core/lv_obj_style_gen.h ****     lv_style_value_t v = lv_obj_get_style_prop(obj, part, LV_STYLE_TRANSLATE_X);
  97:Drivers/lvgl/src/widgets/image/../../core/lv_obj_style_gen.h ****     return (int32_t)v.num;
  98:Drivers/lvgl/src/widgets/image/../../core/lv_obj_style_gen.h **** }
  99:Drivers/lvgl/src/widgets/image/../../core/lv_obj_style_gen.h **** 
 100:Drivers/lvgl/src/widgets/image/../../core/lv_obj_style_gen.h **** static inline int32_t lv_obj_get_style_translate_y(const lv_obj_t * obj, lv_part_t part)
 101:Drivers/lvgl/src/widgets/image/../../core/lv_obj_style_gen.h **** {
 102:Drivers/lvgl/src/widgets/image/../../core/lv_obj_style_gen.h ****     lv_style_value_t v = lv_obj_get_style_prop(obj, part, LV_STYLE_TRANSLATE_Y);
 103:Drivers/lvgl/src/widgets/image/../../core/lv_obj_style_gen.h ****     return (int32_t)v.num;
 104:Drivers/lvgl/src/widgets/image/../../core/lv_obj_style_gen.h **** }
 105:Drivers/lvgl/src/widgets/image/../../core/lv_obj_style_gen.h **** 
 106:Drivers/lvgl/src/widgets/image/../../core/lv_obj_style_gen.h **** static inline int32_t lv_obj_get_style_translate_radial(const lv_obj_t * obj, lv_part_t part)
 107:Drivers/lvgl/src/widgets/image/../../core/lv_obj_style_gen.h **** {
 108:Drivers/lvgl/src/widgets/image/../../core/lv_obj_style_gen.h ****     lv_style_value_t v = lv_obj_get_style_prop(obj, part, LV_STYLE_TRANSLATE_RADIAL);
 109:Drivers/lvgl/src/widgets/image/../../core/lv_obj_style_gen.h ****     return (int32_t)v.num;
 110:Drivers/lvgl/src/widgets/image/../../core/lv_obj_style_gen.h **** }
 111:Drivers/lvgl/src/widgets/image/../../core/lv_obj_style_gen.h **** 
 112:Drivers/lvgl/src/widgets/image/../../core/lv_obj_style_gen.h **** static inline int32_t lv_obj_get_style_transform_scale_x(const lv_obj_t * obj, lv_part_t part)
 113:Drivers/lvgl/src/widgets/image/../../core/lv_obj_style_gen.h **** {
 114:Drivers/lvgl/src/widgets/image/../../core/lv_obj_style_gen.h ****     lv_style_value_t v = lv_obj_get_style_prop(obj, part, LV_STYLE_TRANSFORM_SCALE_X);
 115:Drivers/lvgl/src/widgets/image/../../core/lv_obj_style_gen.h ****     return (int32_t)v.num;
 116:Drivers/lvgl/src/widgets/image/../../core/lv_obj_style_gen.h **** }
