ARM GAS  /var/folders/qx/2_175_4n2s19vhvtspjhb3qh0000gn/T//ccFV8cem.s 			page 1


   1              		.cpu cortex-m4
   2              		.arch armv7e-m
   3              		.fpu fpv4-sp-d16
   4              		.eabi_attribute 27, 1
   5              		.eabi_attribute 28, 1
   6              		.eabi_attribute 20, 1
   7              		.eabi_attribute 21, 1
   8              		.eabi_attribute 23, 3
   9              		.eabi_attribute 24, 1
  10              		.eabi_attribute 25, 1
  11              		.eabi_attribute 26, 1
  12              		.eabi_attribute 30, 1
  13              		.eabi_attribute 34, 1
  14              		.eabi_attribute 18, 4
  15              		.file	"lv_theme_default.c"
  16              		.text
  17              	.Ltext0:
  18              		.cfi_sections	.debug_frame
  19              		.file 1 "Drivers/lvgl/src/themes/default/lv_theme_default.c"
  20              		.section	.text.theme_apply,"ax",%progbits
  21              		.align	1
  22              		.syntax unified
  23              		.thumb
  24              		.thumb_func
  26              	theme_apply:
  27              	.LVL0:
  28              	.LFB207:
   1:Drivers/lvgl/src/themes/default/lv_theme_default.c **** /**
   2:Drivers/lvgl/src/themes/default/lv_theme_default.c ****  * @file lv_theme_default.c
   3:Drivers/lvgl/src/themes/default/lv_theme_default.c ****  *
   4:Drivers/lvgl/src/themes/default/lv_theme_default.c ****  */
   5:Drivers/lvgl/src/themes/default/lv_theme_default.c **** 
   6:Drivers/lvgl/src/themes/default/lv_theme_default.c **** /*********************
   7:Drivers/lvgl/src/themes/default/lv_theme_default.c ****  *      INCLUDES
   8:Drivers/lvgl/src/themes/default/lv_theme_default.c ****  *********************/
   9:Drivers/lvgl/src/themes/default/lv_theme_default.c **** #include "../../../lvgl.h" /*To see all the widgets*/
  10:Drivers/lvgl/src/themes/default/lv_theme_default.c **** 
  11:Drivers/lvgl/src/themes/default/lv_theme_default.c **** #if LV_USE_THEME_DEFAULT
  12:Drivers/lvgl/src/themes/default/lv_theme_default.c **** 
  13:Drivers/lvgl/src/themes/default/lv_theme_default.c **** #include "../lv_theme_private.h"
  14:Drivers/lvgl/src/themes/default/lv_theme_default.c **** #include "../../misc/lv_color.h"
  15:Drivers/lvgl/src/themes/default/lv_theme_default.c **** #include "../../core/lv_global.h"
  16:Drivers/lvgl/src/themes/default/lv_theme_default.c **** 
  17:Drivers/lvgl/src/themes/default/lv_theme_default.c **** /*********************
  18:Drivers/lvgl/src/themes/default/lv_theme_default.c ****  *      DEFINES
  19:Drivers/lvgl/src/themes/default/lv_theme_default.c ****  *********************/
  20:Drivers/lvgl/src/themes/default/lv_theme_default.c **** 
  21:Drivers/lvgl/src/themes/default/lv_theme_default.c **** struct _my_theme_t;
  22:Drivers/lvgl/src/themes/default/lv_theme_default.c **** typedef struct _my_theme_t my_theme_t;
  23:Drivers/lvgl/src/themes/default/lv_theme_default.c **** 
  24:Drivers/lvgl/src/themes/default/lv_theme_default.c **** #define theme_def (*(my_theme_t **)(&LV_GLOBAL_DEFAULT()->theme_default))
  25:Drivers/lvgl/src/themes/default/lv_theme_default.c **** 
  26:Drivers/lvgl/src/themes/default/lv_theme_default.c **** #define MODE_DARK 1
  27:Drivers/lvgl/src/themes/default/lv_theme_default.c **** #define RADIUS_DEFAULT LV_DPX_CALC(theme->disp_dpi, theme->disp_size == DISP_LARGE ? 12 : 8)
  28:Drivers/lvgl/src/themes/default/lv_theme_default.c **** 
  29:Drivers/lvgl/src/themes/default/lv_theme_default.c **** /*SCREEN*/
  30:Drivers/lvgl/src/themes/default/lv_theme_default.c **** #define LIGHT_COLOR_SCR        lv_palette_lighten(LV_PALETTE_GREY, 4)
ARM GAS  /var/folders/qx/2_175_4n2s19vhvtspjhb3qh0000gn/T//ccFV8cem.s 			page 2


  31:Drivers/lvgl/src/themes/default/lv_theme_default.c **** #define LIGHT_COLOR_CARD       lv_color_white()
  32:Drivers/lvgl/src/themes/default/lv_theme_default.c **** #define LIGHT_COLOR_TEXT       lv_palette_darken(LV_PALETTE_GREY, 4)
  33:Drivers/lvgl/src/themes/default/lv_theme_default.c **** #define LIGHT_COLOR_GREY       lv_palette_lighten(LV_PALETTE_GREY, 2)
  34:Drivers/lvgl/src/themes/default/lv_theme_default.c **** #define DARK_COLOR_SCR         lv_color_hex(0x15171A)
  35:Drivers/lvgl/src/themes/default/lv_theme_default.c **** #define DARK_COLOR_CARD        lv_color_hex(0x282b30)
  36:Drivers/lvgl/src/themes/default/lv_theme_default.c **** #define DARK_COLOR_TEXT        lv_palette_lighten(LV_PALETTE_GREY, 5)
  37:Drivers/lvgl/src/themes/default/lv_theme_default.c **** #define DARK_COLOR_GREY        lv_color_hex(0x2f3237)
  38:Drivers/lvgl/src/themes/default/lv_theme_default.c **** 
  39:Drivers/lvgl/src/themes/default/lv_theme_default.c **** #define TRANSITION_TIME         LV_THEME_DEFAULT_TRANSITION_TIME
  40:Drivers/lvgl/src/themes/default/lv_theme_default.c **** #define BORDER_WIDTH            LV_DPX_CALC(theme->disp_dpi, 2)
  41:Drivers/lvgl/src/themes/default/lv_theme_default.c **** #define OUTLINE_WIDTH           LV_DPX_CALC(theme->disp_dpi, 3)
  42:Drivers/lvgl/src/themes/default/lv_theme_default.c **** 
  43:Drivers/lvgl/src/themes/default/lv_theme_default.c **** #define PAD_DEF     LV_DPX_CALC(theme->disp_dpi, theme->disp_size == DISP_LARGE ? 24 : theme->disp_
  44:Drivers/lvgl/src/themes/default/lv_theme_default.c **** #define PAD_SMALL   LV_DPX_CALC(theme->disp_dpi, theme->disp_size == DISP_LARGE ? 14 : theme->disp_
  45:Drivers/lvgl/src/themes/default/lv_theme_default.c **** #define PAD_TINY    LV_DPX_CALC(theme->disp_dpi, theme->disp_size == DISP_LARGE ? 8 : theme->disp_s
  46:Drivers/lvgl/src/themes/default/lv_theme_default.c **** 
  47:Drivers/lvgl/src/themes/default/lv_theme_default.c **** /**********************
  48:Drivers/lvgl/src/themes/default/lv_theme_default.c ****  *      TYPEDEFS
  49:Drivers/lvgl/src/themes/default/lv_theme_default.c ****  **********************/
  50:Drivers/lvgl/src/themes/default/lv_theme_default.c **** typedef struct {
  51:Drivers/lvgl/src/themes/default/lv_theme_default.c ****     lv_style_t scr;
  52:Drivers/lvgl/src/themes/default/lv_theme_default.c ****     lv_style_t scrollbar;
  53:Drivers/lvgl/src/themes/default/lv_theme_default.c ****     lv_style_t scrollbar_scrolled;
  54:Drivers/lvgl/src/themes/default/lv_theme_default.c ****     lv_style_t card;
  55:Drivers/lvgl/src/themes/default/lv_theme_default.c ****     lv_style_t btn;
  56:Drivers/lvgl/src/themes/default/lv_theme_default.c **** 
  57:Drivers/lvgl/src/themes/default/lv_theme_default.c ****     /*Utility*/
  58:Drivers/lvgl/src/themes/default/lv_theme_default.c ****     lv_style_t bg_color_primary;
  59:Drivers/lvgl/src/themes/default/lv_theme_default.c ****     lv_style_t bg_color_primary_muted;
  60:Drivers/lvgl/src/themes/default/lv_theme_default.c ****     lv_style_t bg_color_secondary;
  61:Drivers/lvgl/src/themes/default/lv_theme_default.c ****     lv_style_t bg_color_secondary_muted;
  62:Drivers/lvgl/src/themes/default/lv_theme_default.c ****     lv_style_t bg_color_grey;
  63:Drivers/lvgl/src/themes/default/lv_theme_default.c ****     lv_style_t bg_color_white;
  64:Drivers/lvgl/src/themes/default/lv_theme_default.c ****     lv_style_t pressed;
  65:Drivers/lvgl/src/themes/default/lv_theme_default.c ****     lv_style_t disabled;
  66:Drivers/lvgl/src/themes/default/lv_theme_default.c ****     lv_style_t pad_zero;
  67:Drivers/lvgl/src/themes/default/lv_theme_default.c ****     lv_style_t pad_tiny;
  68:Drivers/lvgl/src/themes/default/lv_theme_default.c ****     lv_style_t pad_small;
  69:Drivers/lvgl/src/themes/default/lv_theme_default.c ****     lv_style_t pad_normal;
  70:Drivers/lvgl/src/themes/default/lv_theme_default.c ****     lv_style_t pad_gap;
  71:Drivers/lvgl/src/themes/default/lv_theme_default.c ****     lv_style_t line_space_large;
  72:Drivers/lvgl/src/themes/default/lv_theme_default.c ****     lv_style_t text_align_center;
  73:Drivers/lvgl/src/themes/default/lv_theme_default.c ****     lv_style_t outline_primary;
  74:Drivers/lvgl/src/themes/default/lv_theme_default.c ****     lv_style_t outline_secondary;
  75:Drivers/lvgl/src/themes/default/lv_theme_default.c ****     lv_style_t circle;
  76:Drivers/lvgl/src/themes/default/lv_theme_default.c ****     lv_style_t no_radius;
  77:Drivers/lvgl/src/themes/default/lv_theme_default.c ****     lv_style_t clip_corner;
  78:Drivers/lvgl/src/themes/default/lv_theme_default.c ****     lv_style_t rotary_scroll;
  79:Drivers/lvgl/src/themes/default/lv_theme_default.c **** #if LV_THEME_DEFAULT_GROW
  80:Drivers/lvgl/src/themes/default/lv_theme_default.c ****     lv_style_t grow;
  81:Drivers/lvgl/src/themes/default/lv_theme_default.c **** #endif
  82:Drivers/lvgl/src/themes/default/lv_theme_default.c ****     lv_style_t transition_delayed;
  83:Drivers/lvgl/src/themes/default/lv_theme_default.c ****     lv_style_t transition_normal;
  84:Drivers/lvgl/src/themes/default/lv_theme_default.c ****     lv_style_t anim;
  85:Drivers/lvgl/src/themes/default/lv_theme_default.c ****     lv_style_t anim_fast;
  86:Drivers/lvgl/src/themes/default/lv_theme_default.c **** 
  87:Drivers/lvgl/src/themes/default/lv_theme_default.c ****     /*Parts*/
ARM GAS  /var/folders/qx/2_175_4n2s19vhvtspjhb3qh0000gn/T//ccFV8cem.s 			page 3


  88:Drivers/lvgl/src/themes/default/lv_theme_default.c ****     lv_style_t knob;
  89:Drivers/lvgl/src/themes/default/lv_theme_default.c **** 
  90:Drivers/lvgl/src/themes/default/lv_theme_default.c **** #if LV_USE_ARC
  91:Drivers/lvgl/src/themes/default/lv_theme_default.c ****     lv_style_t arc_indic;
  92:Drivers/lvgl/src/themes/default/lv_theme_default.c ****     lv_style_t arc_indic_primary;
  93:Drivers/lvgl/src/themes/default/lv_theme_default.c **** #endif
  94:Drivers/lvgl/src/themes/default/lv_theme_default.c **** 
  95:Drivers/lvgl/src/themes/default/lv_theme_default.c **** #if LV_USE_CHART
  96:Drivers/lvgl/src/themes/default/lv_theme_default.c ****     lv_style_t chart_series, chart_indic, chart_bg;
  97:Drivers/lvgl/src/themes/default/lv_theme_default.c **** #endif
  98:Drivers/lvgl/src/themes/default/lv_theme_default.c **** 
  99:Drivers/lvgl/src/themes/default/lv_theme_default.c **** #if LV_USE_DROPDOWN
 100:Drivers/lvgl/src/themes/default/lv_theme_default.c ****     lv_style_t dropdown_list;
 101:Drivers/lvgl/src/themes/default/lv_theme_default.c **** #endif
 102:Drivers/lvgl/src/themes/default/lv_theme_default.c **** 
 103:Drivers/lvgl/src/themes/default/lv_theme_default.c **** #if LV_USE_CHECKBOX
 104:Drivers/lvgl/src/themes/default/lv_theme_default.c ****     lv_style_t cb_marker, cb_marker_checked;
 105:Drivers/lvgl/src/themes/default/lv_theme_default.c **** #endif
 106:Drivers/lvgl/src/themes/default/lv_theme_default.c **** 
 107:Drivers/lvgl/src/themes/default/lv_theme_default.c **** #if LV_USE_SWITCH
 108:Drivers/lvgl/src/themes/default/lv_theme_default.c ****     lv_style_t switch_knob;
 109:Drivers/lvgl/src/themes/default/lv_theme_default.c **** #endif
 110:Drivers/lvgl/src/themes/default/lv_theme_default.c **** 
 111:Drivers/lvgl/src/themes/default/lv_theme_default.c **** #if LV_USE_LINE
 112:Drivers/lvgl/src/themes/default/lv_theme_default.c ****     lv_style_t line;
 113:Drivers/lvgl/src/themes/default/lv_theme_default.c **** #endif
 114:Drivers/lvgl/src/themes/default/lv_theme_default.c **** 
 115:Drivers/lvgl/src/themes/default/lv_theme_default.c **** #if LV_USE_TABLE
 116:Drivers/lvgl/src/themes/default/lv_theme_default.c ****     lv_style_t table_cell;
 117:Drivers/lvgl/src/themes/default/lv_theme_default.c **** #endif
 118:Drivers/lvgl/src/themes/default/lv_theme_default.c **** 
 119:Drivers/lvgl/src/themes/default/lv_theme_default.c **** #if LV_USE_TEXTAREA
 120:Drivers/lvgl/src/themes/default/lv_theme_default.c ****     lv_style_t ta_cursor, ta_placeholder;
 121:Drivers/lvgl/src/themes/default/lv_theme_default.c **** #endif
 122:Drivers/lvgl/src/themes/default/lv_theme_default.c **** 
 123:Drivers/lvgl/src/themes/default/lv_theme_default.c **** #if LV_USE_CALENDAR
 124:Drivers/lvgl/src/themes/default/lv_theme_default.c ****     lv_style_t calendar_btnm_bg, calendar_btnm_day, calendar_header;
 125:Drivers/lvgl/src/themes/default/lv_theme_default.c **** #endif
 126:Drivers/lvgl/src/themes/default/lv_theme_default.c **** 
 127:Drivers/lvgl/src/themes/default/lv_theme_default.c **** #if LV_USE_MENU
 128:Drivers/lvgl/src/themes/default/lv_theme_default.c ****     lv_style_t menu_bg, menu_cont, menu_sidebar_cont, menu_main_cont, menu_page, menu_header_cont, 
 129:Drivers/lvgl/src/themes/default/lv_theme_default.c ****                menu_section, menu_pressed, menu_separator;
 130:Drivers/lvgl/src/themes/default/lv_theme_default.c **** #endif
 131:Drivers/lvgl/src/themes/default/lv_theme_default.c **** 
 132:Drivers/lvgl/src/themes/default/lv_theme_default.c **** #if LV_USE_MSGBOX
 133:Drivers/lvgl/src/themes/default/lv_theme_default.c ****     lv_style_t msgbox_backdrop_bg;
 134:Drivers/lvgl/src/themes/default/lv_theme_default.c **** #endif
 135:Drivers/lvgl/src/themes/default/lv_theme_default.c **** 
 136:Drivers/lvgl/src/themes/default/lv_theme_default.c **** #if LV_USE_KEYBOARD
 137:Drivers/lvgl/src/themes/default/lv_theme_default.c ****     lv_style_t keyboard_button_bg;
 138:Drivers/lvgl/src/themes/default/lv_theme_default.c **** #endif
 139:Drivers/lvgl/src/themes/default/lv_theme_default.c **** 
 140:Drivers/lvgl/src/themes/default/lv_theme_default.c **** #if LV_USE_LIST
 141:Drivers/lvgl/src/themes/default/lv_theme_default.c ****     lv_style_t list_bg, list_btn, list_item_grow;
 142:Drivers/lvgl/src/themes/default/lv_theme_default.c **** #endif
 143:Drivers/lvgl/src/themes/default/lv_theme_default.c **** 
 144:Drivers/lvgl/src/themes/default/lv_theme_default.c **** #if LV_USE_TABVIEW
ARM GAS  /var/folders/qx/2_175_4n2s19vhvtspjhb3qh0000gn/T//ccFV8cem.s 			page 4


 145:Drivers/lvgl/src/themes/default/lv_theme_default.c ****     lv_style_t tab_bg_focus, tab_btn;
 146:Drivers/lvgl/src/themes/default/lv_theme_default.c **** #endif
 147:Drivers/lvgl/src/themes/default/lv_theme_default.c **** #if LV_USE_LED
 148:Drivers/lvgl/src/themes/default/lv_theme_default.c ****     lv_style_t led;
 149:Drivers/lvgl/src/themes/default/lv_theme_default.c **** #endif
 150:Drivers/lvgl/src/themes/default/lv_theme_default.c **** 
 151:Drivers/lvgl/src/themes/default/lv_theme_default.c **** #if LV_USE_SCALE
 152:Drivers/lvgl/src/themes/default/lv_theme_default.c ****     lv_style_t scale;
 153:Drivers/lvgl/src/themes/default/lv_theme_default.c **** #endif
 154:Drivers/lvgl/src/themes/default/lv_theme_default.c **** } my_theme_styles_t;
 155:Drivers/lvgl/src/themes/default/lv_theme_default.c **** 
 156:Drivers/lvgl/src/themes/default/lv_theme_default.c **** typedef enum {
 157:Drivers/lvgl/src/themes/default/lv_theme_default.c ****     DISP_SMALL = 3,
 158:Drivers/lvgl/src/themes/default/lv_theme_default.c ****     DISP_MEDIUM = 2,
 159:Drivers/lvgl/src/themes/default/lv_theme_default.c ****     DISP_LARGE = 1,
 160:Drivers/lvgl/src/themes/default/lv_theme_default.c **** } disp_size_t;
 161:Drivers/lvgl/src/themes/default/lv_theme_default.c **** 
 162:Drivers/lvgl/src/themes/default/lv_theme_default.c **** struct _my_theme_t {
 163:Drivers/lvgl/src/themes/default/lv_theme_default.c ****     lv_theme_t base;
 164:Drivers/lvgl/src/themes/default/lv_theme_default.c ****     disp_size_t disp_size;
 165:Drivers/lvgl/src/themes/default/lv_theme_default.c ****     int32_t disp_dpi;
 166:Drivers/lvgl/src/themes/default/lv_theme_default.c ****     lv_color_t color_scr;
 167:Drivers/lvgl/src/themes/default/lv_theme_default.c ****     lv_color_t color_text;
 168:Drivers/lvgl/src/themes/default/lv_theme_default.c ****     lv_color_t color_card;
 169:Drivers/lvgl/src/themes/default/lv_theme_default.c ****     lv_color_t color_grey;
 170:Drivers/lvgl/src/themes/default/lv_theme_default.c ****     bool inited;
 171:Drivers/lvgl/src/themes/default/lv_theme_default.c ****     my_theme_styles_t styles;
 172:Drivers/lvgl/src/themes/default/lv_theme_default.c **** 
 173:Drivers/lvgl/src/themes/default/lv_theme_default.c **** #if LV_THEME_DEFAULT_TRANSITION_TIME
 174:Drivers/lvgl/src/themes/default/lv_theme_default.c ****     lv_style_transition_dsc_t trans_delayed;
 175:Drivers/lvgl/src/themes/default/lv_theme_default.c ****     lv_style_transition_dsc_t trans_normal;
 176:Drivers/lvgl/src/themes/default/lv_theme_default.c **** #endif
 177:Drivers/lvgl/src/themes/default/lv_theme_default.c **** };
 178:Drivers/lvgl/src/themes/default/lv_theme_default.c **** 
 179:Drivers/lvgl/src/themes/default/lv_theme_default.c **** /**********************
 180:Drivers/lvgl/src/themes/default/lv_theme_default.c ****  *  STATIC PROTOTYPES
 181:Drivers/lvgl/src/themes/default/lv_theme_default.c ****  **********************/
 182:Drivers/lvgl/src/themes/default/lv_theme_default.c **** static void style_init_reset(lv_style_t * style);
 183:Drivers/lvgl/src/themes/default/lv_theme_default.c **** static void theme_apply(lv_theme_t * th, lv_obj_t * obj);
 184:Drivers/lvgl/src/themes/default/lv_theme_default.c **** static void resolution_change_event_cb(lv_event_t * e);
 185:Drivers/lvgl/src/themes/default/lv_theme_default.c **** 
 186:Drivers/lvgl/src/themes/default/lv_theme_default.c **** /**********************
 187:Drivers/lvgl/src/themes/default/lv_theme_default.c ****  *  STATIC VARIABLES
 188:Drivers/lvgl/src/themes/default/lv_theme_default.c ****  **********************/
 189:Drivers/lvgl/src/themes/default/lv_theme_default.c **** 
 190:Drivers/lvgl/src/themes/default/lv_theme_default.c **** /**********************
 191:Drivers/lvgl/src/themes/default/lv_theme_default.c ****  *      MACROS
 192:Drivers/lvgl/src/themes/default/lv_theme_default.c ****  **********************/
 193:Drivers/lvgl/src/themes/default/lv_theme_default.c **** 
 194:Drivers/lvgl/src/themes/default/lv_theme_default.c **** /**********************
 195:Drivers/lvgl/src/themes/default/lv_theme_default.c ****  *   STATIC FUNCTIONS
 196:Drivers/lvgl/src/themes/default/lv_theme_default.c ****  **********************/
 197:Drivers/lvgl/src/themes/default/lv_theme_default.c **** 
 198:Drivers/lvgl/src/themes/default/lv_theme_default.c **** static void style_init(my_theme_t * theme)
 199:Drivers/lvgl/src/themes/default/lv_theme_default.c **** {
 200:Drivers/lvgl/src/themes/default/lv_theme_default.c **** #if TRANSITION_TIME
 201:Drivers/lvgl/src/themes/default/lv_theme_default.c ****     static const lv_style_prop_t trans_props[] = {
ARM GAS  /var/folders/qx/2_175_4n2s19vhvtspjhb3qh0000gn/T//ccFV8cem.s 			page 5


 202:Drivers/lvgl/src/themes/default/lv_theme_default.c ****         LV_STYLE_BG_OPA, LV_STYLE_BG_COLOR,
 203:Drivers/lvgl/src/themes/default/lv_theme_default.c ****         LV_STYLE_TRANSFORM_WIDTH, LV_STYLE_TRANSFORM_HEIGHT,
 204:Drivers/lvgl/src/themes/default/lv_theme_default.c ****         LV_STYLE_TRANSLATE_Y, LV_STYLE_TRANSLATE_X,
 205:Drivers/lvgl/src/themes/default/lv_theme_default.c ****         LV_STYLE_TRANSFORM_ROTATION,
 206:Drivers/lvgl/src/themes/default/lv_theme_default.c ****         LV_STYLE_TRANSFORM_SCALE_X, LV_STYLE_TRANSFORM_SCALE_Y,
 207:Drivers/lvgl/src/themes/default/lv_theme_default.c ****         LV_STYLE_RECOLOR_OPA, LV_STYLE_RECOLOR,
 208:Drivers/lvgl/src/themes/default/lv_theme_default.c ****         0
 209:Drivers/lvgl/src/themes/default/lv_theme_default.c ****     };
 210:Drivers/lvgl/src/themes/default/lv_theme_default.c **** #endif
 211:Drivers/lvgl/src/themes/default/lv_theme_default.c **** 
 212:Drivers/lvgl/src/themes/default/lv_theme_default.c ****     theme->color_scr = theme->base.flags & MODE_DARK ? DARK_COLOR_SCR : LIGHT_COLOR_SCR;
 213:Drivers/lvgl/src/themes/default/lv_theme_default.c ****     theme->color_text = theme->base.flags & MODE_DARK ? DARK_COLOR_TEXT : LIGHT_COLOR_TEXT;
 214:Drivers/lvgl/src/themes/default/lv_theme_default.c ****     theme->color_card = theme->base.flags & MODE_DARK ? DARK_COLOR_CARD : LIGHT_COLOR_CARD;
 215:Drivers/lvgl/src/themes/default/lv_theme_default.c ****     theme->color_grey = theme->base.flags & MODE_DARK ? DARK_COLOR_GREY : LIGHT_COLOR_GREY;
 216:Drivers/lvgl/src/themes/default/lv_theme_default.c **** 
 217:Drivers/lvgl/src/themes/default/lv_theme_default.c ****     style_init_reset(&theme->styles.transition_delayed);
 218:Drivers/lvgl/src/themes/default/lv_theme_default.c ****     style_init_reset(&theme->styles.transition_normal);
 219:Drivers/lvgl/src/themes/default/lv_theme_default.c **** #if TRANSITION_TIME
 220:Drivers/lvgl/src/themes/default/lv_theme_default.c ****     lv_style_transition_dsc_init(&theme->trans_delayed, trans_props, lv_anim_path_linear, TRANSITIO
 221:Drivers/lvgl/src/themes/default/lv_theme_default.c ****     lv_style_transition_dsc_init(&theme->trans_normal, trans_props, lv_anim_path_linear, TRANSITION
 222:Drivers/lvgl/src/themes/default/lv_theme_default.c **** 
 223:Drivers/lvgl/src/themes/default/lv_theme_default.c ****     lv_style_set_transition(&theme->styles.transition_delayed,
 224:Drivers/lvgl/src/themes/default/lv_theme_default.c ****                             &theme->trans_delayed); /*Go back to default state with delay*/
 225:Drivers/lvgl/src/themes/default/lv_theme_default.c **** 
 226:Drivers/lvgl/src/themes/default/lv_theme_default.c ****     lv_style_set_transition(&theme->styles.transition_normal, &theme->trans_normal); /*Go back to d
 227:Drivers/lvgl/src/themes/default/lv_theme_default.c **** #endif
 228:Drivers/lvgl/src/themes/default/lv_theme_default.c **** 
 229:Drivers/lvgl/src/themes/default/lv_theme_default.c ****     style_init_reset(&theme->styles.scrollbar);
 230:Drivers/lvgl/src/themes/default/lv_theme_default.c ****     lv_color_t sb_color = (theme->base.flags & MODE_DARK) ? lv_palette_darken(LV_PALETTE_GREY,
 231:Drivers/lvgl/src/themes/default/lv_theme_default.c ****                                                                               2) : lv_palette_main(
 232:Drivers/lvgl/src/themes/default/lv_theme_default.c ****     lv_style_set_bg_color(&theme->styles.scrollbar, sb_color);
 233:Drivers/lvgl/src/themes/default/lv_theme_default.c **** 
 234:Drivers/lvgl/src/themes/default/lv_theme_default.c ****     lv_style_set_radius(&theme->styles.scrollbar, LV_RADIUS_CIRCLE);
 235:Drivers/lvgl/src/themes/default/lv_theme_default.c ****     lv_style_set_pad_all(&theme->styles.scrollbar, LV_DPX_CALC(theme->disp_dpi, 7));
 236:Drivers/lvgl/src/themes/default/lv_theme_default.c ****     lv_style_set_width(&theme->styles.scrollbar,  LV_DPX_CALC(theme->disp_dpi, 5));
 237:Drivers/lvgl/src/themes/default/lv_theme_default.c ****     lv_style_set_bg_opa(&theme->styles.scrollbar,  LV_OPA_40);
 238:Drivers/lvgl/src/themes/default/lv_theme_default.c **** #if TRANSITION_TIME
 239:Drivers/lvgl/src/themes/default/lv_theme_default.c ****     lv_style_set_transition(&theme->styles.scrollbar, &theme->trans_normal);
 240:Drivers/lvgl/src/themes/default/lv_theme_default.c **** #endif
 241:Drivers/lvgl/src/themes/default/lv_theme_default.c **** 
 242:Drivers/lvgl/src/themes/default/lv_theme_default.c ****     style_init_reset(&theme->styles.scrollbar_scrolled);
 243:Drivers/lvgl/src/themes/default/lv_theme_default.c ****     lv_style_set_bg_opa(&theme->styles.scrollbar_scrolled,  LV_OPA_COVER);
 244:Drivers/lvgl/src/themes/default/lv_theme_default.c **** 
 245:Drivers/lvgl/src/themes/default/lv_theme_default.c ****     style_init_reset(&theme->styles.scr);
 246:Drivers/lvgl/src/themes/default/lv_theme_default.c ****     lv_style_set_bg_opa(&theme->styles.scr, LV_OPA_COVER);
 247:Drivers/lvgl/src/themes/default/lv_theme_default.c ****     lv_style_set_bg_color(&theme->styles.scr, theme->color_scr);
 248:Drivers/lvgl/src/themes/default/lv_theme_default.c ****     lv_style_set_text_color(&theme->styles.scr, theme->color_text);
 249:Drivers/lvgl/src/themes/default/lv_theme_default.c ****     lv_style_set_text_font(&theme->styles.scr, theme->base.font_normal);
 250:Drivers/lvgl/src/themes/default/lv_theme_default.c ****     lv_style_set_pad_row(&theme->styles.scr, PAD_SMALL);
 251:Drivers/lvgl/src/themes/default/lv_theme_default.c ****     lv_style_set_pad_column(&theme->styles.scr, PAD_SMALL);
 252:Drivers/lvgl/src/themes/default/lv_theme_default.c ****     lv_style_set_rotary_sensitivity(&theme->styles.scr, theme->disp_dpi / 4 * 256);
 253:Drivers/lvgl/src/themes/default/lv_theme_default.c **** 
 254:Drivers/lvgl/src/themes/default/lv_theme_default.c ****     style_init_reset(&theme->styles.card);
 255:Drivers/lvgl/src/themes/default/lv_theme_default.c ****     lv_style_set_radius(&theme->styles.card, RADIUS_DEFAULT);
 256:Drivers/lvgl/src/themes/default/lv_theme_default.c ****     lv_style_set_bg_opa(&theme->styles.card, LV_OPA_COVER);
 257:Drivers/lvgl/src/themes/default/lv_theme_default.c ****     lv_style_set_bg_color(&theme->styles.card, theme->color_card);
 258:Drivers/lvgl/src/themes/default/lv_theme_default.c ****     lv_style_set_border_color(&theme->styles.card, theme->color_grey);
ARM GAS  /var/folders/qx/2_175_4n2s19vhvtspjhb3qh0000gn/T//ccFV8cem.s 			page 6


 259:Drivers/lvgl/src/themes/default/lv_theme_default.c ****     lv_style_set_border_width(&theme->styles.card, BORDER_WIDTH);
 260:Drivers/lvgl/src/themes/default/lv_theme_default.c ****     lv_style_set_border_post(&theme->styles.card, true);
 261:Drivers/lvgl/src/themes/default/lv_theme_default.c ****     lv_style_set_text_color(&theme->styles.card, theme->color_text);
 262:Drivers/lvgl/src/themes/default/lv_theme_default.c ****     lv_style_set_pad_all(&theme->styles.card, PAD_DEF);
 263:Drivers/lvgl/src/themes/default/lv_theme_default.c ****     lv_style_set_pad_row(&theme->styles.card, PAD_SMALL);
 264:Drivers/lvgl/src/themes/default/lv_theme_default.c ****     lv_style_set_pad_column(&theme->styles.card, PAD_SMALL);
 265:Drivers/lvgl/src/themes/default/lv_theme_default.c ****     lv_style_set_line_color(&theme->styles.card, lv_palette_main(LV_PALETTE_GREY));
 266:Drivers/lvgl/src/themes/default/lv_theme_default.c ****     lv_style_set_line_width(&theme->styles.card, LV_DPX_CALC(theme->disp_dpi, 1));
 267:Drivers/lvgl/src/themes/default/lv_theme_default.c **** 
 268:Drivers/lvgl/src/themes/default/lv_theme_default.c ****     style_init_reset(&theme->styles.outline_primary);
 269:Drivers/lvgl/src/themes/default/lv_theme_default.c ****     lv_style_set_outline_color(&theme->styles.outline_primary, theme->base.color_primary);
 270:Drivers/lvgl/src/themes/default/lv_theme_default.c ****     lv_style_set_outline_width(&theme->styles.outline_primary, OUTLINE_WIDTH);
 271:Drivers/lvgl/src/themes/default/lv_theme_default.c ****     lv_style_set_outline_pad(&theme->styles.outline_primary, OUTLINE_WIDTH);
 272:Drivers/lvgl/src/themes/default/lv_theme_default.c ****     lv_style_set_outline_opa(&theme->styles.outline_primary, LV_OPA_50);
 273:Drivers/lvgl/src/themes/default/lv_theme_default.c **** 
 274:Drivers/lvgl/src/themes/default/lv_theme_default.c ****     style_init_reset(&theme->styles.outline_secondary);
 275:Drivers/lvgl/src/themes/default/lv_theme_default.c ****     lv_style_set_outline_color(&theme->styles.outline_secondary, theme->base.color_secondary);
 276:Drivers/lvgl/src/themes/default/lv_theme_default.c ****     lv_style_set_outline_width(&theme->styles.outline_secondary, OUTLINE_WIDTH);
 277:Drivers/lvgl/src/themes/default/lv_theme_default.c ****     lv_style_set_outline_opa(&theme->styles.outline_secondary, LV_OPA_50);
 278:Drivers/lvgl/src/themes/default/lv_theme_default.c **** 
 279:Drivers/lvgl/src/themes/default/lv_theme_default.c ****     style_init_reset(&theme->styles.btn);
 280:Drivers/lvgl/src/themes/default/lv_theme_default.c ****     lv_style_set_radius(&theme->styles.btn,
 281:Drivers/lvgl/src/themes/default/lv_theme_default.c ****                         LV_DPX_CALC(theme->disp_dpi, theme->disp_size == DISP_LARGE ? 16 : theme->d
 282:Drivers/lvgl/src/themes/default/lv_theme_default.c ****     lv_style_set_bg_opa(&theme->styles.btn, LV_OPA_COVER);
 283:Drivers/lvgl/src/themes/default/lv_theme_default.c ****     lv_style_set_bg_color(&theme->styles.btn, theme->color_grey);
 284:Drivers/lvgl/src/themes/default/lv_theme_default.c ****     if(!(theme->base.flags & MODE_DARK)) {
 285:Drivers/lvgl/src/themes/default/lv_theme_default.c ****         lv_style_set_shadow_color(&theme->styles.btn, lv_palette_main(LV_PALETTE_GREY));
 286:Drivers/lvgl/src/themes/default/lv_theme_default.c ****         lv_style_set_shadow_width(&theme->styles.btn, LV_DPX(3));
 287:Drivers/lvgl/src/themes/default/lv_theme_default.c ****         lv_style_set_shadow_opa(&theme->styles.btn, LV_OPA_50);
 288:Drivers/lvgl/src/themes/default/lv_theme_default.c ****         lv_style_set_shadow_offset_y(&theme->styles.btn, LV_DPX_CALC(theme->disp_dpi, LV_DPX(4)));
 289:Drivers/lvgl/src/themes/default/lv_theme_default.c ****     }
 290:Drivers/lvgl/src/themes/default/lv_theme_default.c ****     lv_style_set_text_color(&theme->styles.btn, theme->color_text);
 291:Drivers/lvgl/src/themes/default/lv_theme_default.c ****     lv_style_set_pad_hor(&theme->styles.btn, PAD_DEF);
 292:Drivers/lvgl/src/themes/default/lv_theme_default.c ****     lv_style_set_pad_ver(&theme->styles.btn, PAD_SMALL);
 293:Drivers/lvgl/src/themes/default/lv_theme_default.c ****     lv_style_set_pad_column(&theme->styles.btn, LV_DPX_CALC(theme->disp_dpi, 5));
 294:Drivers/lvgl/src/themes/default/lv_theme_default.c ****     lv_style_set_pad_row(&theme->styles.btn, LV_DPX_CALC(theme->disp_dpi, 5));
 295:Drivers/lvgl/src/themes/default/lv_theme_default.c **** 
 296:Drivers/lvgl/src/themes/default/lv_theme_default.c ****     style_init_reset(&theme->styles.pressed);
 297:Drivers/lvgl/src/themes/default/lv_theme_default.c ****     lv_style_set_recolor(&theme->styles.pressed, lv_color_black());
 298:Drivers/lvgl/src/themes/default/lv_theme_default.c ****     lv_style_set_recolor_opa(&theme->styles.pressed, 35);
 299:Drivers/lvgl/src/themes/default/lv_theme_default.c **** 
 300:Drivers/lvgl/src/themes/default/lv_theme_default.c ****     style_init_reset(&theme->styles.disabled);
 301:Drivers/lvgl/src/themes/default/lv_theme_default.c ****     if(theme_def->base.flags & MODE_DARK)
 302:Drivers/lvgl/src/themes/default/lv_theme_default.c ****         lv_style_set_recolor(&theme->styles.disabled, lv_palette_darken(LV_PALETTE_GREY, 2));
 303:Drivers/lvgl/src/themes/default/lv_theme_default.c ****     else
 304:Drivers/lvgl/src/themes/default/lv_theme_default.c ****         lv_style_set_recolor(&theme->styles.disabled, lv_palette_lighten(LV_PALETTE_GREY, 2));
 305:Drivers/lvgl/src/themes/default/lv_theme_default.c ****     lv_style_set_recolor_opa(&theme->styles.disabled, LV_OPA_50);
 306:Drivers/lvgl/src/themes/default/lv_theme_default.c **** 
 307:Drivers/lvgl/src/themes/default/lv_theme_default.c ****     style_init_reset(&theme->styles.clip_corner);
 308:Drivers/lvgl/src/themes/default/lv_theme_default.c ****     lv_style_set_clip_corner(&theme->styles.clip_corner, true);
 309:Drivers/lvgl/src/themes/default/lv_theme_default.c ****     lv_style_set_border_post(&theme->styles.clip_corner, true);
 310:Drivers/lvgl/src/themes/default/lv_theme_default.c **** 
 311:Drivers/lvgl/src/themes/default/lv_theme_default.c ****     style_init_reset(&theme->styles.pad_normal);
 312:Drivers/lvgl/src/themes/default/lv_theme_default.c ****     lv_style_set_pad_all(&theme->styles.pad_normal, PAD_DEF);
 313:Drivers/lvgl/src/themes/default/lv_theme_default.c ****     lv_style_set_pad_row(&theme->styles.pad_normal, PAD_DEF);
 314:Drivers/lvgl/src/themes/default/lv_theme_default.c ****     lv_style_set_pad_column(&theme->styles.pad_normal, PAD_DEF);
 315:Drivers/lvgl/src/themes/default/lv_theme_default.c **** 
ARM GAS  /var/folders/qx/2_175_4n2s19vhvtspjhb3qh0000gn/T//ccFV8cem.s 			page 7


 316:Drivers/lvgl/src/themes/default/lv_theme_default.c ****     style_init_reset(&theme->styles.pad_small);
 317:Drivers/lvgl/src/themes/default/lv_theme_default.c ****     lv_style_set_pad_all(&theme->styles.pad_small, PAD_SMALL);
 318:Drivers/lvgl/src/themes/default/lv_theme_default.c ****     lv_style_set_pad_gap(&theme->styles.pad_small, PAD_SMALL);
 319:Drivers/lvgl/src/themes/default/lv_theme_default.c **** 
 320:Drivers/lvgl/src/themes/default/lv_theme_default.c ****     style_init_reset(&theme->styles.pad_gap);
 321:Drivers/lvgl/src/themes/default/lv_theme_default.c ****     lv_style_set_pad_row(&theme->styles.pad_gap, LV_DPX_CALC(theme->disp_dpi, 10));
 322:Drivers/lvgl/src/themes/default/lv_theme_default.c ****     lv_style_set_pad_column(&theme->styles.pad_gap, LV_DPX_CALC(theme->disp_dpi, 10));
 323:Drivers/lvgl/src/themes/default/lv_theme_default.c **** 
 324:Drivers/lvgl/src/themes/default/lv_theme_default.c ****     style_init_reset(&theme->styles.line_space_large);
 325:Drivers/lvgl/src/themes/default/lv_theme_default.c ****     lv_style_set_text_line_space(&theme->styles.line_space_large, LV_DPX_CALC(theme->disp_dpi, 20))
 326:Drivers/lvgl/src/themes/default/lv_theme_default.c **** 
 327:Drivers/lvgl/src/themes/default/lv_theme_default.c ****     style_init_reset(&theme->styles.text_align_center);
 328:Drivers/lvgl/src/themes/default/lv_theme_default.c ****     lv_style_set_text_align(&theme->styles.text_align_center, LV_TEXT_ALIGN_CENTER);
 329:Drivers/lvgl/src/themes/default/lv_theme_default.c **** 
 330:Drivers/lvgl/src/themes/default/lv_theme_default.c ****     style_init_reset(&theme->styles.pad_zero);
 331:Drivers/lvgl/src/themes/default/lv_theme_default.c ****     lv_style_set_pad_all(&theme->styles.pad_zero, 0);
 332:Drivers/lvgl/src/themes/default/lv_theme_default.c ****     lv_style_set_pad_row(&theme->styles.pad_zero, 0);
 333:Drivers/lvgl/src/themes/default/lv_theme_default.c ****     lv_style_set_pad_column(&theme->styles.pad_zero, 0);
 334:Drivers/lvgl/src/themes/default/lv_theme_default.c **** 
 335:Drivers/lvgl/src/themes/default/lv_theme_default.c ****     style_init_reset(&theme->styles.pad_tiny);
 336:Drivers/lvgl/src/themes/default/lv_theme_default.c ****     lv_style_set_pad_all(&theme->styles.pad_tiny, PAD_TINY);
 337:Drivers/lvgl/src/themes/default/lv_theme_default.c ****     lv_style_set_pad_row(&theme->styles.pad_tiny, PAD_TINY);
 338:Drivers/lvgl/src/themes/default/lv_theme_default.c ****     lv_style_set_pad_column(&theme->styles.pad_tiny, PAD_TINY);
 339:Drivers/lvgl/src/themes/default/lv_theme_default.c **** 
 340:Drivers/lvgl/src/themes/default/lv_theme_default.c ****     style_init_reset(&theme->styles.bg_color_primary);
 341:Drivers/lvgl/src/themes/default/lv_theme_default.c ****     lv_style_set_bg_color(&theme->styles.bg_color_primary, theme->base.color_primary);
 342:Drivers/lvgl/src/themes/default/lv_theme_default.c ****     lv_style_set_text_color(&theme->styles.bg_color_primary, lv_color_white());
 343:Drivers/lvgl/src/themes/default/lv_theme_default.c ****     lv_style_set_bg_opa(&theme->styles.bg_color_primary, LV_OPA_COVER);
 344:Drivers/lvgl/src/themes/default/lv_theme_default.c **** 
 345:Drivers/lvgl/src/themes/default/lv_theme_default.c ****     style_init_reset(&theme->styles.bg_color_primary_muted);
 346:Drivers/lvgl/src/themes/default/lv_theme_default.c ****     lv_style_set_bg_color(&theme->styles.bg_color_primary_muted, theme->base.color_primary);
 347:Drivers/lvgl/src/themes/default/lv_theme_default.c ****     lv_style_set_text_color(&theme->styles.bg_color_primary_muted, theme->base.color_primary);
 348:Drivers/lvgl/src/themes/default/lv_theme_default.c ****     lv_style_set_bg_opa(&theme->styles.bg_color_primary_muted, LV_OPA_20);
 349:Drivers/lvgl/src/themes/default/lv_theme_default.c **** 
 350:Drivers/lvgl/src/themes/default/lv_theme_default.c ****     style_init_reset(&theme->styles.bg_color_secondary);
 351:Drivers/lvgl/src/themes/default/lv_theme_default.c ****     lv_style_set_bg_color(&theme->styles.bg_color_secondary, theme->base.color_secondary);
 352:Drivers/lvgl/src/themes/default/lv_theme_default.c ****     lv_style_set_text_color(&theme->styles.bg_color_secondary, lv_color_white());
 353:Drivers/lvgl/src/themes/default/lv_theme_default.c ****     lv_style_set_bg_opa(&theme->styles.bg_color_secondary, LV_OPA_COVER);
 354:Drivers/lvgl/src/themes/default/lv_theme_default.c **** 
 355:Drivers/lvgl/src/themes/default/lv_theme_default.c ****     style_init_reset(&theme->styles.bg_color_secondary_muted);
 356:Drivers/lvgl/src/themes/default/lv_theme_default.c ****     lv_style_set_bg_color(&theme->styles.bg_color_secondary_muted, theme->base.color_secondary);
 357:Drivers/lvgl/src/themes/default/lv_theme_default.c ****     lv_style_set_text_color(&theme->styles.bg_color_secondary_muted, theme->base.color_secondary);
 358:Drivers/lvgl/src/themes/default/lv_theme_default.c ****     lv_style_set_bg_opa(&theme->styles.bg_color_secondary_muted, LV_OPA_20);
 359:Drivers/lvgl/src/themes/default/lv_theme_default.c **** 
 360:Drivers/lvgl/src/themes/default/lv_theme_default.c ****     style_init_reset(&theme->styles.bg_color_grey);
 361:Drivers/lvgl/src/themes/default/lv_theme_default.c ****     lv_style_set_bg_color(&theme->styles.bg_color_grey, theme->color_grey);
 362:Drivers/lvgl/src/themes/default/lv_theme_default.c ****     lv_style_set_bg_opa(&theme->styles.bg_color_grey, LV_OPA_COVER);
 363:Drivers/lvgl/src/themes/default/lv_theme_default.c ****     lv_style_set_text_color(&theme->styles.bg_color_grey, theme->color_text);
 364:Drivers/lvgl/src/themes/default/lv_theme_default.c **** 
 365:Drivers/lvgl/src/themes/default/lv_theme_default.c ****     style_init_reset(&theme->styles.bg_color_white);
 366:Drivers/lvgl/src/themes/default/lv_theme_default.c ****     lv_style_set_bg_color(&theme->styles.bg_color_white, theme->color_card);
 367:Drivers/lvgl/src/themes/default/lv_theme_default.c ****     lv_style_set_bg_opa(&theme->styles.bg_color_white, LV_OPA_COVER);
 368:Drivers/lvgl/src/themes/default/lv_theme_default.c ****     lv_style_set_text_color(&theme->styles.bg_color_white, theme->color_text);
 369:Drivers/lvgl/src/themes/default/lv_theme_default.c **** 
 370:Drivers/lvgl/src/themes/default/lv_theme_default.c ****     style_init_reset(&theme->styles.circle);
 371:Drivers/lvgl/src/themes/default/lv_theme_default.c ****     lv_style_set_radius(&theme->styles.circle, LV_RADIUS_CIRCLE);
 372:Drivers/lvgl/src/themes/default/lv_theme_default.c **** 
ARM GAS  /var/folders/qx/2_175_4n2s19vhvtspjhb3qh0000gn/T//ccFV8cem.s 			page 8


 373:Drivers/lvgl/src/themes/default/lv_theme_default.c ****     style_init_reset(&theme->styles.no_radius);
 374:Drivers/lvgl/src/themes/default/lv_theme_default.c ****     lv_style_set_radius(&theme->styles.no_radius, 0);
 375:Drivers/lvgl/src/themes/default/lv_theme_default.c **** 
 376:Drivers/lvgl/src/themes/default/lv_theme_default.c ****     style_init_reset(&theme->styles.rotary_scroll);
 377:Drivers/lvgl/src/themes/default/lv_theme_default.c ****     lv_style_set_rotary_sensitivity(&theme->styles.rotary_scroll, theme->disp_dpi / 4 * 256);
 378:Drivers/lvgl/src/themes/default/lv_theme_default.c **** 
 379:Drivers/lvgl/src/themes/default/lv_theme_default.c **** #if LV_THEME_DEFAULT_GROW
 380:Drivers/lvgl/src/themes/default/lv_theme_default.c ****     style_init_reset(&theme->styles.grow);
 381:Drivers/lvgl/src/themes/default/lv_theme_default.c ****     lv_style_set_transform_width(&theme->styles.grow, LV_DPX_CALC(theme->disp_dpi, 3));
 382:Drivers/lvgl/src/themes/default/lv_theme_default.c ****     lv_style_set_transform_height(&theme->styles.grow, LV_DPX_CALC(theme->disp_dpi, 3));
 383:Drivers/lvgl/src/themes/default/lv_theme_default.c **** #endif
 384:Drivers/lvgl/src/themes/default/lv_theme_default.c **** 
 385:Drivers/lvgl/src/themes/default/lv_theme_default.c ****     style_init_reset(&theme->styles.knob);
 386:Drivers/lvgl/src/themes/default/lv_theme_default.c ****     lv_style_set_bg_color(&theme->styles.knob, theme->base.color_primary);
 387:Drivers/lvgl/src/themes/default/lv_theme_default.c ****     lv_style_set_bg_opa(&theme->styles.knob, LV_OPA_COVER);
 388:Drivers/lvgl/src/themes/default/lv_theme_default.c ****     lv_style_set_pad_all(&theme->styles.knob, LV_DPX_CALC(theme->disp_dpi, 6));
 389:Drivers/lvgl/src/themes/default/lv_theme_default.c ****     lv_style_set_radius(&theme->styles.knob, LV_RADIUS_CIRCLE);
 390:Drivers/lvgl/src/themes/default/lv_theme_default.c **** 
 391:Drivers/lvgl/src/themes/default/lv_theme_default.c ****     style_init_reset(&theme->styles.anim);
 392:Drivers/lvgl/src/themes/default/lv_theme_default.c ****     lv_style_set_anim_duration(&theme->styles.anim, 200);
 393:Drivers/lvgl/src/themes/default/lv_theme_default.c **** 
 394:Drivers/lvgl/src/themes/default/lv_theme_default.c ****     style_init_reset(&theme->styles.anim_fast);
 395:Drivers/lvgl/src/themes/default/lv_theme_default.c ****     lv_style_set_anim_duration(&theme->styles.anim_fast, 120);
 396:Drivers/lvgl/src/themes/default/lv_theme_default.c **** 
 397:Drivers/lvgl/src/themes/default/lv_theme_default.c **** #if LV_USE_ARC
 398:Drivers/lvgl/src/themes/default/lv_theme_default.c ****     style_init_reset(&theme->styles.arc_indic);
 399:Drivers/lvgl/src/themes/default/lv_theme_default.c ****     lv_style_set_arc_color(&theme->styles.arc_indic, theme->color_grey);
 400:Drivers/lvgl/src/themes/default/lv_theme_default.c ****     lv_style_set_arc_width(&theme->styles.arc_indic, LV_DPX_CALC(theme->disp_dpi, 15));
 401:Drivers/lvgl/src/themes/default/lv_theme_default.c ****     lv_style_set_arc_rounded(&theme->styles.arc_indic, true);
 402:Drivers/lvgl/src/themes/default/lv_theme_default.c **** 
 403:Drivers/lvgl/src/themes/default/lv_theme_default.c ****     style_init_reset(&theme->styles.arc_indic_primary);
 404:Drivers/lvgl/src/themes/default/lv_theme_default.c ****     lv_style_set_arc_color(&theme->styles.arc_indic_primary, theme->base.color_primary);
 405:Drivers/lvgl/src/themes/default/lv_theme_default.c **** #endif
 406:Drivers/lvgl/src/themes/default/lv_theme_default.c **** 
 407:Drivers/lvgl/src/themes/default/lv_theme_default.c **** #if LV_USE_DROPDOWN
 408:Drivers/lvgl/src/themes/default/lv_theme_default.c ****     style_init_reset(&theme->styles.dropdown_list);
 409:Drivers/lvgl/src/themes/default/lv_theme_default.c ****     lv_style_set_max_height(&theme->styles.dropdown_list, LV_DPI_DEF * 2);
 410:Drivers/lvgl/src/themes/default/lv_theme_default.c **** #endif
 411:Drivers/lvgl/src/themes/default/lv_theme_default.c **** #if LV_USE_CHECKBOX
 412:Drivers/lvgl/src/themes/default/lv_theme_default.c ****     style_init_reset(&theme->styles.cb_marker);
 413:Drivers/lvgl/src/themes/default/lv_theme_default.c ****     lv_style_set_pad_all(&theme->styles.cb_marker, LV_DPX_CALC(theme->disp_dpi, 3));
 414:Drivers/lvgl/src/themes/default/lv_theme_default.c ****     lv_style_set_border_width(&theme->styles.cb_marker, BORDER_WIDTH);
 415:Drivers/lvgl/src/themes/default/lv_theme_default.c ****     lv_style_set_border_color(&theme->styles.cb_marker, theme->base.color_primary);
 416:Drivers/lvgl/src/themes/default/lv_theme_default.c ****     lv_style_set_bg_color(&theme->styles.cb_marker, theme->color_card);
 417:Drivers/lvgl/src/themes/default/lv_theme_default.c ****     lv_style_set_bg_opa(&theme->styles.cb_marker, LV_OPA_COVER);
 418:Drivers/lvgl/src/themes/default/lv_theme_default.c ****     lv_style_set_radius(&theme->styles.cb_marker, RADIUS_DEFAULT / 2);
 419:Drivers/lvgl/src/themes/default/lv_theme_default.c ****     lv_style_set_text_font(&theme->styles.cb_marker, theme->base.font_small);
 420:Drivers/lvgl/src/themes/default/lv_theme_default.c ****     lv_style_set_text_color(&theme->styles.cb_marker, lv_color_white());
 421:Drivers/lvgl/src/themes/default/lv_theme_default.c **** 
 422:Drivers/lvgl/src/themes/default/lv_theme_default.c ****     style_init_reset(&theme->styles.cb_marker_checked);
 423:Drivers/lvgl/src/themes/default/lv_theme_default.c ****     lv_style_set_bg_image_src(&theme->styles.cb_marker_checked, LV_SYMBOL_OK);
 424:Drivers/lvgl/src/themes/default/lv_theme_default.c **** #endif
 425:Drivers/lvgl/src/themes/default/lv_theme_default.c **** 
 426:Drivers/lvgl/src/themes/default/lv_theme_default.c **** #if LV_USE_SWITCH
 427:Drivers/lvgl/src/themes/default/lv_theme_default.c ****     style_init_reset(&theme->styles.switch_knob);
 428:Drivers/lvgl/src/themes/default/lv_theme_default.c ****     lv_style_set_pad_all(&theme->styles.switch_knob, - LV_DPX_CALC(theme->disp_dpi, 4));
 429:Drivers/lvgl/src/themes/default/lv_theme_default.c ****     lv_style_set_bg_color(&theme->styles.switch_knob, lv_color_white());
ARM GAS  /var/folders/qx/2_175_4n2s19vhvtspjhb3qh0000gn/T//ccFV8cem.s 			page 9


 430:Drivers/lvgl/src/themes/default/lv_theme_default.c **** #endif
 431:Drivers/lvgl/src/themes/default/lv_theme_default.c **** 
 432:Drivers/lvgl/src/themes/default/lv_theme_default.c **** #if LV_USE_LINE
 433:Drivers/lvgl/src/themes/default/lv_theme_default.c ****     style_init_reset(&theme->styles.line);
 434:Drivers/lvgl/src/themes/default/lv_theme_default.c ****     lv_style_set_line_width(&theme->styles.line, 1);
 435:Drivers/lvgl/src/themes/default/lv_theme_default.c ****     lv_style_set_line_color(&theme->styles.line, theme->color_text);
 436:Drivers/lvgl/src/themes/default/lv_theme_default.c **** #endif
 437:Drivers/lvgl/src/themes/default/lv_theme_default.c **** 
 438:Drivers/lvgl/src/themes/default/lv_theme_default.c **** #if LV_USE_CHART
 439:Drivers/lvgl/src/themes/default/lv_theme_default.c ****     style_init_reset(&theme->styles.chart_bg);
 440:Drivers/lvgl/src/themes/default/lv_theme_default.c ****     lv_style_set_border_post(&theme->styles.chart_bg, false);
 441:Drivers/lvgl/src/themes/default/lv_theme_default.c ****     lv_style_set_pad_column(&theme->styles.chart_bg, LV_DPX_CALC(theme->disp_dpi, 10));
 442:Drivers/lvgl/src/themes/default/lv_theme_default.c ****     lv_style_set_line_color(&theme->styles.chart_bg, theme->color_grey);
 443:Drivers/lvgl/src/themes/default/lv_theme_default.c **** 
 444:Drivers/lvgl/src/themes/default/lv_theme_default.c ****     style_init_reset(&theme->styles.chart_series);
 445:Drivers/lvgl/src/themes/default/lv_theme_default.c ****     lv_style_set_line_width(&theme->styles.chart_series, LV_DPX_CALC(theme->disp_dpi, 3));
 446:Drivers/lvgl/src/themes/default/lv_theme_default.c ****     lv_style_set_radius(&theme->styles.chart_series, LV_DPX_CALC(theme->disp_dpi, 3));
 447:Drivers/lvgl/src/themes/default/lv_theme_default.c **** 
 448:Drivers/lvgl/src/themes/default/lv_theme_default.c ****     int32_t chart_size = LV_DPX_CALC(theme->disp_dpi, 8);
 449:Drivers/lvgl/src/themes/default/lv_theme_default.c ****     lv_style_set_size(&theme->styles.chart_series, chart_size, chart_size);
 450:Drivers/lvgl/src/themes/default/lv_theme_default.c ****     lv_style_set_pad_column(&theme->styles.chart_series, LV_DPX_CALC(theme->disp_dpi, 2));
 451:Drivers/lvgl/src/themes/default/lv_theme_default.c **** 
 452:Drivers/lvgl/src/themes/default/lv_theme_default.c ****     style_init_reset(&theme->styles.chart_indic);
 453:Drivers/lvgl/src/themes/default/lv_theme_default.c ****     lv_style_set_radius(&theme->styles.chart_indic, LV_RADIUS_CIRCLE);
 454:Drivers/lvgl/src/themes/default/lv_theme_default.c ****     lv_style_set_size(&theme->styles.chart_indic, chart_size, chart_size);
 455:Drivers/lvgl/src/themes/default/lv_theme_default.c ****     lv_style_set_bg_color(&theme->styles.chart_indic, theme->base.color_primary);
 456:Drivers/lvgl/src/themes/default/lv_theme_default.c ****     lv_style_set_bg_opa(&theme->styles.chart_indic, LV_OPA_COVER);
 457:Drivers/lvgl/src/themes/default/lv_theme_default.c **** #endif
 458:Drivers/lvgl/src/themes/default/lv_theme_default.c **** 
 459:Drivers/lvgl/src/themes/default/lv_theme_default.c **** #if LV_USE_MENU
 460:Drivers/lvgl/src/themes/default/lv_theme_default.c ****     style_init_reset(&theme->styles.menu_bg);
 461:Drivers/lvgl/src/themes/default/lv_theme_default.c ****     lv_style_set_pad_all(&theme->styles.menu_bg, 0);
 462:Drivers/lvgl/src/themes/default/lv_theme_default.c ****     lv_style_set_pad_gap(&theme->styles.menu_bg, 0);
 463:Drivers/lvgl/src/themes/default/lv_theme_default.c ****     lv_style_set_radius(&theme->styles.menu_bg, 0);
 464:Drivers/lvgl/src/themes/default/lv_theme_default.c ****     lv_style_set_clip_corner(&theme->styles.menu_bg, true);
 465:Drivers/lvgl/src/themes/default/lv_theme_default.c ****     lv_style_set_border_side(&theme->styles.menu_bg, LV_BORDER_SIDE_NONE);
 466:Drivers/lvgl/src/themes/default/lv_theme_default.c **** 
 467:Drivers/lvgl/src/themes/default/lv_theme_default.c ****     style_init_reset(&theme->styles.menu_section);
 468:Drivers/lvgl/src/themes/default/lv_theme_default.c ****     lv_style_set_radius(&theme->styles.menu_section, RADIUS_DEFAULT);
 469:Drivers/lvgl/src/themes/default/lv_theme_default.c ****     lv_style_set_clip_corner(&theme->styles.menu_section, true);
 470:Drivers/lvgl/src/themes/default/lv_theme_default.c ****     lv_style_set_bg_opa(&theme->styles.menu_section, LV_OPA_COVER);
 471:Drivers/lvgl/src/themes/default/lv_theme_default.c ****     lv_style_set_bg_color(&theme->styles.menu_section, theme->color_card);
 472:Drivers/lvgl/src/themes/default/lv_theme_default.c ****     lv_style_set_text_color(&theme->styles.menu_section, theme->color_text);
 473:Drivers/lvgl/src/themes/default/lv_theme_default.c **** 
 474:Drivers/lvgl/src/themes/default/lv_theme_default.c ****     style_init_reset(&theme->styles.menu_cont);
 475:Drivers/lvgl/src/themes/default/lv_theme_default.c ****     lv_style_set_pad_hor(&theme->styles.menu_cont, PAD_SMALL);
 476:Drivers/lvgl/src/themes/default/lv_theme_default.c ****     lv_style_set_pad_ver(&theme->styles.menu_cont, PAD_SMALL);
 477:Drivers/lvgl/src/themes/default/lv_theme_default.c ****     lv_style_set_pad_gap(&theme->styles.menu_cont, PAD_SMALL);
 478:Drivers/lvgl/src/themes/default/lv_theme_default.c ****     lv_style_set_border_width(&theme->styles.menu_cont, LV_DPX_CALC(theme->disp_dpi, 1));
 479:Drivers/lvgl/src/themes/default/lv_theme_default.c ****     lv_style_set_border_opa(&theme->styles.menu_cont, LV_OPA_10);
 480:Drivers/lvgl/src/themes/default/lv_theme_default.c ****     lv_style_set_border_color(&theme->styles.menu_cont, theme->color_text);
 481:Drivers/lvgl/src/themes/default/lv_theme_default.c ****     lv_style_set_border_side(&theme->styles.menu_cont, LV_BORDER_SIDE_NONE);
 482:Drivers/lvgl/src/themes/default/lv_theme_default.c **** 
 483:Drivers/lvgl/src/themes/default/lv_theme_default.c ****     style_init_reset(&theme->styles.menu_sidebar_cont);
 484:Drivers/lvgl/src/themes/default/lv_theme_default.c ****     lv_style_set_pad_all(&theme->styles.menu_sidebar_cont, 0);
 485:Drivers/lvgl/src/themes/default/lv_theme_default.c ****     lv_style_set_pad_gap(&theme->styles.menu_sidebar_cont, 0);
 486:Drivers/lvgl/src/themes/default/lv_theme_default.c ****     lv_style_set_border_width(&theme->styles.menu_sidebar_cont, LV_DPX_CALC(theme->disp_dpi, 1));
ARM GAS  /var/folders/qx/2_175_4n2s19vhvtspjhb3qh0000gn/T//ccFV8cem.s 			page 10


 487:Drivers/lvgl/src/themes/default/lv_theme_default.c ****     lv_style_set_border_opa(&theme->styles.menu_sidebar_cont, LV_OPA_10);
 488:Drivers/lvgl/src/themes/default/lv_theme_default.c ****     lv_style_set_border_color(&theme->styles.menu_sidebar_cont, theme->color_text);
 489:Drivers/lvgl/src/themes/default/lv_theme_default.c ****     lv_style_set_border_side(&theme->styles.menu_sidebar_cont, LV_BORDER_SIDE_RIGHT);
 490:Drivers/lvgl/src/themes/default/lv_theme_default.c **** 
 491:Drivers/lvgl/src/themes/default/lv_theme_default.c ****     style_init_reset(&theme->styles.menu_main_cont);
 492:Drivers/lvgl/src/themes/default/lv_theme_default.c ****     lv_style_set_pad_all(&theme->styles.menu_main_cont, 0);
 493:Drivers/lvgl/src/themes/default/lv_theme_default.c ****     lv_style_set_pad_gap(&theme->styles.menu_main_cont, 0);
 494:Drivers/lvgl/src/themes/default/lv_theme_default.c **** 
 495:Drivers/lvgl/src/themes/default/lv_theme_default.c ****     style_init_reset(&theme->styles.menu_header_cont);
 496:Drivers/lvgl/src/themes/default/lv_theme_default.c ****     lv_style_set_pad_hor(&theme->styles.menu_header_cont, PAD_SMALL);
 497:Drivers/lvgl/src/themes/default/lv_theme_default.c ****     lv_style_set_pad_ver(&theme->styles.menu_header_cont, PAD_TINY);
 498:Drivers/lvgl/src/themes/default/lv_theme_default.c ****     lv_style_set_pad_gap(&theme->styles.menu_header_cont, PAD_SMALL);
 499:Drivers/lvgl/src/themes/default/lv_theme_default.c **** 
 500:Drivers/lvgl/src/themes/default/lv_theme_default.c ****     style_init_reset(&theme->styles.menu_header_btn);
 501:Drivers/lvgl/src/themes/default/lv_theme_default.c ****     lv_style_set_pad_hor(&theme->styles.menu_header_btn, PAD_TINY);
 502:Drivers/lvgl/src/themes/default/lv_theme_default.c ****     lv_style_set_pad_ver(&theme->styles.menu_header_btn, PAD_TINY);
 503:Drivers/lvgl/src/themes/default/lv_theme_default.c ****     lv_style_set_shadow_opa(&theme->styles.menu_header_btn, LV_OPA_TRANSP);
 504:Drivers/lvgl/src/themes/default/lv_theme_default.c ****     lv_style_set_bg_opa(&theme->styles.menu_header_btn, LV_OPA_TRANSP);
 505:Drivers/lvgl/src/themes/default/lv_theme_default.c ****     lv_style_set_text_color(&theme->styles.menu_header_btn, theme->color_text);
 506:Drivers/lvgl/src/themes/default/lv_theme_default.c **** 
 507:Drivers/lvgl/src/themes/default/lv_theme_default.c ****     style_init_reset(&theme->styles.menu_page);
 508:Drivers/lvgl/src/themes/default/lv_theme_default.c ****     lv_style_set_pad_hor(&theme->styles.menu_page, 0);
 509:Drivers/lvgl/src/themes/default/lv_theme_default.c ****     lv_style_set_pad_gap(&theme->styles.menu_page, 0);
 510:Drivers/lvgl/src/themes/default/lv_theme_default.c **** 
 511:Drivers/lvgl/src/themes/default/lv_theme_default.c ****     style_init_reset(&theme->styles.menu_pressed);
 512:Drivers/lvgl/src/themes/default/lv_theme_default.c ****     lv_style_set_bg_opa(&theme->styles.menu_pressed, LV_OPA_20);
 513:Drivers/lvgl/src/themes/default/lv_theme_default.c ****     lv_style_set_bg_color(&theme->styles.menu_pressed, lv_palette_main(LV_PALETTE_GREY));
 514:Drivers/lvgl/src/themes/default/lv_theme_default.c **** 
 515:Drivers/lvgl/src/themes/default/lv_theme_default.c ****     style_init_reset(&theme->styles.menu_separator);
 516:Drivers/lvgl/src/themes/default/lv_theme_default.c ****     lv_style_set_bg_opa(&theme->styles.menu_separator, LV_OPA_TRANSP);
 517:Drivers/lvgl/src/themes/default/lv_theme_default.c ****     lv_style_set_pad_ver(&theme->styles.menu_separator, PAD_TINY);
 518:Drivers/lvgl/src/themes/default/lv_theme_default.c **** #endif
 519:Drivers/lvgl/src/themes/default/lv_theme_default.c **** 
 520:Drivers/lvgl/src/themes/default/lv_theme_default.c **** #if LV_USE_TABLE
 521:Drivers/lvgl/src/themes/default/lv_theme_default.c ****     style_init_reset(&theme->styles.table_cell);
 522:Drivers/lvgl/src/themes/default/lv_theme_default.c ****     lv_style_set_border_width(&theme->styles.table_cell, LV_DPX_CALC(theme->disp_dpi, 1));
 523:Drivers/lvgl/src/themes/default/lv_theme_default.c ****     lv_style_set_border_color(&theme->styles.table_cell, theme->color_grey);
 524:Drivers/lvgl/src/themes/default/lv_theme_default.c ****     lv_style_set_border_side(&theme->styles.table_cell, LV_BORDER_SIDE_TOP | LV_BORDER_SIDE_BOTTOM)
 525:Drivers/lvgl/src/themes/default/lv_theme_default.c **** #endif
 526:Drivers/lvgl/src/themes/default/lv_theme_default.c **** 
 527:Drivers/lvgl/src/themes/default/lv_theme_default.c **** #if LV_USE_TEXTAREA
 528:Drivers/lvgl/src/themes/default/lv_theme_default.c ****     style_init_reset(&theme->styles.ta_cursor);
 529:Drivers/lvgl/src/themes/default/lv_theme_default.c ****     lv_style_set_border_color(&theme->styles.ta_cursor, theme->color_text);
 530:Drivers/lvgl/src/themes/default/lv_theme_default.c ****     lv_style_set_border_width(&theme->styles.ta_cursor, LV_DPX_CALC(theme->disp_dpi, 2));
 531:Drivers/lvgl/src/themes/default/lv_theme_default.c ****     lv_style_set_pad_left(&theme->styles.ta_cursor, - LV_DPX_CALC(theme->disp_dpi, 1));
 532:Drivers/lvgl/src/themes/default/lv_theme_default.c ****     lv_style_set_border_side(&theme->styles.ta_cursor, LV_BORDER_SIDE_LEFT);
 533:Drivers/lvgl/src/themes/default/lv_theme_default.c ****     lv_style_set_anim_duration(&theme->styles.ta_cursor, 400);
 534:Drivers/lvgl/src/themes/default/lv_theme_default.c **** 
 535:Drivers/lvgl/src/themes/default/lv_theme_default.c ****     style_init_reset(&theme->styles.ta_placeholder);
 536:Drivers/lvgl/src/themes/default/lv_theme_default.c ****     lv_style_set_text_color(&theme->styles.ta_placeholder,
 537:Drivers/lvgl/src/themes/default/lv_theme_default.c ****                             (theme->base.flags & MODE_DARK) ? lv_palette_darken(LV_PALETTE_GREY,
 538:Drivers/lvgl/src/themes/default/lv_theme_default.c ****                                                                                 2) : lv_palette_lig
 539:Drivers/lvgl/src/themes/default/lv_theme_default.c **** #endif
 540:Drivers/lvgl/src/themes/default/lv_theme_default.c **** 
 541:Drivers/lvgl/src/themes/default/lv_theme_default.c **** #if LV_USE_CALENDAR
 542:Drivers/lvgl/src/themes/default/lv_theme_default.c ****     style_init_reset(&theme->styles.calendar_btnm_bg);
 543:Drivers/lvgl/src/themes/default/lv_theme_default.c ****     lv_style_set_pad_all(&theme->styles.calendar_btnm_bg, PAD_SMALL);
ARM GAS  /var/folders/qx/2_175_4n2s19vhvtspjhb3qh0000gn/T//ccFV8cem.s 			page 11


 544:Drivers/lvgl/src/themes/default/lv_theme_default.c ****     lv_style_set_pad_gap(&theme->styles.calendar_btnm_bg, PAD_SMALL / 2);
 545:Drivers/lvgl/src/themes/default/lv_theme_default.c **** 
 546:Drivers/lvgl/src/themes/default/lv_theme_default.c ****     style_init_reset(&theme->styles.calendar_btnm_day);
 547:Drivers/lvgl/src/themes/default/lv_theme_default.c ****     lv_style_set_border_width(&theme->styles.calendar_btnm_day, LV_DPX_CALC(theme->disp_dpi, 1));
 548:Drivers/lvgl/src/themes/default/lv_theme_default.c ****     lv_style_set_border_color(&theme->styles.calendar_btnm_day, theme->color_grey);
 549:Drivers/lvgl/src/themes/default/lv_theme_default.c ****     lv_style_set_bg_color(&theme->styles.calendar_btnm_day, theme->color_card);
 550:Drivers/lvgl/src/themes/default/lv_theme_default.c ****     lv_style_set_bg_opa(&theme->styles.calendar_btnm_day, LV_OPA_20);
 551:Drivers/lvgl/src/themes/default/lv_theme_default.c **** 
 552:Drivers/lvgl/src/themes/default/lv_theme_default.c ****     style_init_reset(&theme->styles.calendar_header);
 553:Drivers/lvgl/src/themes/default/lv_theme_default.c ****     lv_style_set_pad_hor(&theme->styles.calendar_header, PAD_SMALL);
 554:Drivers/lvgl/src/themes/default/lv_theme_default.c ****     lv_style_set_pad_top(&theme->styles.calendar_header, PAD_SMALL);
 555:Drivers/lvgl/src/themes/default/lv_theme_default.c ****     lv_style_set_pad_bottom(&theme->styles.calendar_header, PAD_TINY);
 556:Drivers/lvgl/src/themes/default/lv_theme_default.c ****     lv_style_set_pad_gap(&theme->styles.calendar_header, PAD_SMALL);
 557:Drivers/lvgl/src/themes/default/lv_theme_default.c **** #endif
 558:Drivers/lvgl/src/themes/default/lv_theme_default.c **** 
 559:Drivers/lvgl/src/themes/default/lv_theme_default.c **** #if LV_USE_MSGBOX
 560:Drivers/lvgl/src/themes/default/lv_theme_default.c ****     style_init_reset(&theme->styles.msgbox_backdrop_bg);
 561:Drivers/lvgl/src/themes/default/lv_theme_default.c ****     lv_style_set_bg_color(&theme->styles.msgbox_backdrop_bg, lv_palette_main(LV_PALETTE_GREY));
 562:Drivers/lvgl/src/themes/default/lv_theme_default.c ****     lv_style_set_bg_opa(&theme->styles.msgbox_backdrop_bg, LV_OPA_50);
 563:Drivers/lvgl/src/themes/default/lv_theme_default.c **** #endif
 564:Drivers/lvgl/src/themes/default/lv_theme_default.c **** #if LV_USE_KEYBOARD
 565:Drivers/lvgl/src/themes/default/lv_theme_default.c ****     style_init_reset(&theme->styles.keyboard_button_bg);
 566:Drivers/lvgl/src/themes/default/lv_theme_default.c ****     lv_style_set_shadow_width(&theme->styles.keyboard_button_bg, 0);
 567:Drivers/lvgl/src/themes/default/lv_theme_default.c ****     lv_style_set_radius(&theme->styles.keyboard_button_bg,
 568:Drivers/lvgl/src/themes/default/lv_theme_default.c ****                         theme->disp_size == DISP_SMALL ? RADIUS_DEFAULT / 2 : RADIUS_DEFAULT);
 569:Drivers/lvgl/src/themes/default/lv_theme_default.c **** #endif
 570:Drivers/lvgl/src/themes/default/lv_theme_default.c **** 
 571:Drivers/lvgl/src/themes/default/lv_theme_default.c **** #if LV_USE_TABVIEW
 572:Drivers/lvgl/src/themes/default/lv_theme_default.c ****     style_init_reset(&theme->styles.tab_btn);
 573:Drivers/lvgl/src/themes/default/lv_theme_default.c ****     lv_style_set_border_color(&theme->styles.tab_btn, theme->base.color_primary);
 574:Drivers/lvgl/src/themes/default/lv_theme_default.c ****     lv_style_set_border_width(&theme->styles.tab_btn, BORDER_WIDTH * 2);
 575:Drivers/lvgl/src/themes/default/lv_theme_default.c ****     lv_style_set_border_side(&theme->styles.tab_btn, LV_BORDER_SIDE_BOTTOM);
 576:Drivers/lvgl/src/themes/default/lv_theme_default.c ****     lv_style_set_pad_top(&theme->styles.tab_btn, BORDER_WIDTH * 2);
 577:Drivers/lvgl/src/themes/default/lv_theme_default.c **** 
 578:Drivers/lvgl/src/themes/default/lv_theme_default.c ****     style_init_reset(&theme->styles.tab_bg_focus);
 579:Drivers/lvgl/src/themes/default/lv_theme_default.c ****     lv_style_set_outline_pad(&theme->styles.tab_bg_focus, -BORDER_WIDTH);
 580:Drivers/lvgl/src/themes/default/lv_theme_default.c **** #endif
 581:Drivers/lvgl/src/themes/default/lv_theme_default.c **** 
 582:Drivers/lvgl/src/themes/default/lv_theme_default.c **** #if LV_USE_LIST
 583:Drivers/lvgl/src/themes/default/lv_theme_default.c ****     style_init_reset(&theme->styles.list_bg);
 584:Drivers/lvgl/src/themes/default/lv_theme_default.c ****     lv_style_set_pad_hor(&theme->styles.list_bg, PAD_DEF);
 585:Drivers/lvgl/src/themes/default/lv_theme_default.c ****     lv_style_set_pad_ver(&theme->styles.list_bg, 0);
 586:Drivers/lvgl/src/themes/default/lv_theme_default.c ****     lv_style_set_pad_gap(&theme->styles.list_bg, 0);
 587:Drivers/lvgl/src/themes/default/lv_theme_default.c ****     lv_style_set_clip_corner(&theme->styles.list_bg, true);
 588:Drivers/lvgl/src/themes/default/lv_theme_default.c **** 
 589:Drivers/lvgl/src/themes/default/lv_theme_default.c ****     style_init_reset(&theme->styles.list_btn);
 590:Drivers/lvgl/src/themes/default/lv_theme_default.c ****     lv_style_set_border_width(&theme->styles.list_btn, LV_DPX_CALC(theme->disp_dpi, 1));
 591:Drivers/lvgl/src/themes/default/lv_theme_default.c ****     lv_style_set_border_color(&theme->styles.list_btn, theme->color_grey);
 592:Drivers/lvgl/src/themes/default/lv_theme_default.c ****     lv_style_set_border_side(&theme->styles.list_btn, LV_BORDER_SIDE_BOTTOM);
 593:Drivers/lvgl/src/themes/default/lv_theme_default.c ****     lv_style_set_pad_all(&theme->styles.list_btn, PAD_SMALL);
 594:Drivers/lvgl/src/themes/default/lv_theme_default.c ****     lv_style_set_pad_column(&theme->styles.list_btn, PAD_SMALL);
 595:Drivers/lvgl/src/themes/default/lv_theme_default.c **** 
 596:Drivers/lvgl/src/themes/default/lv_theme_default.c ****     style_init_reset(&theme->styles.list_item_grow);
 597:Drivers/lvgl/src/themes/default/lv_theme_default.c ****     lv_style_set_transform_width(&theme->styles.list_item_grow, PAD_DEF);
 598:Drivers/lvgl/src/themes/default/lv_theme_default.c **** #endif
 599:Drivers/lvgl/src/themes/default/lv_theme_default.c **** 
 600:Drivers/lvgl/src/themes/default/lv_theme_default.c **** #if LV_USE_LED
ARM GAS  /var/folders/qx/2_175_4n2s19vhvtspjhb3qh0000gn/T//ccFV8cem.s 			page 12


 601:Drivers/lvgl/src/themes/default/lv_theme_default.c ****     style_init_reset(&theme->styles.led);
 602:Drivers/lvgl/src/themes/default/lv_theme_default.c ****     lv_style_set_bg_opa(&theme->styles.led, LV_OPA_COVER);
 603:Drivers/lvgl/src/themes/default/lv_theme_default.c ****     lv_style_set_bg_color(&theme->styles.led, lv_color_white());
 604:Drivers/lvgl/src/themes/default/lv_theme_default.c ****     lv_style_set_bg_grad_color(&theme->styles.led, lv_palette_main(LV_PALETTE_GREY));
 605:Drivers/lvgl/src/themes/default/lv_theme_default.c ****     lv_style_set_radius(&theme->styles.led, LV_RADIUS_CIRCLE);
 606:Drivers/lvgl/src/themes/default/lv_theme_default.c ****     lv_style_set_shadow_width(&theme->styles.led, LV_DPX_CALC(theme->disp_dpi, 15));
 607:Drivers/lvgl/src/themes/default/lv_theme_default.c ****     lv_style_set_shadow_color(&theme->styles.led, lv_color_white());
 608:Drivers/lvgl/src/themes/default/lv_theme_default.c ****     lv_style_set_shadow_spread(&theme->styles.led, LV_DPX_CALC(theme->disp_dpi, 5));
 609:Drivers/lvgl/src/themes/default/lv_theme_default.c **** #endif
 610:Drivers/lvgl/src/themes/default/lv_theme_default.c **** 
 611:Drivers/lvgl/src/themes/default/lv_theme_default.c **** #if LV_USE_SCALE
 612:Drivers/lvgl/src/themes/default/lv_theme_default.c ****     style_init_reset(&theme->styles.scale);
 613:Drivers/lvgl/src/themes/default/lv_theme_default.c ****     lv_style_set_line_color(&theme->styles.scale, theme->color_text);
 614:Drivers/lvgl/src/themes/default/lv_theme_default.c ****     lv_style_set_line_width(&theme->styles.scale, LV_DPX(2));
 615:Drivers/lvgl/src/themes/default/lv_theme_default.c ****     lv_style_set_arc_color(&theme->styles.scale, theme->color_text);
 616:Drivers/lvgl/src/themes/default/lv_theme_default.c ****     lv_style_set_arc_width(&theme->styles.scale, LV_DPX(2));
 617:Drivers/lvgl/src/themes/default/lv_theme_default.c ****     lv_style_set_length(&theme->styles.scale, LV_DPX(6));
 618:Drivers/lvgl/src/themes/default/lv_theme_default.c **** #endif
 619:Drivers/lvgl/src/themes/default/lv_theme_default.c **** }
 620:Drivers/lvgl/src/themes/default/lv_theme_default.c **** 
 621:Drivers/lvgl/src/themes/default/lv_theme_default.c **** /**********************
 622:Drivers/lvgl/src/themes/default/lv_theme_default.c ****  *   GLOBAL FUNCTIONS
 623:Drivers/lvgl/src/themes/default/lv_theme_default.c ****  **********************/
 624:Drivers/lvgl/src/themes/default/lv_theme_default.c **** 
 625:Drivers/lvgl/src/themes/default/lv_theme_default.c **** lv_theme_t * lv_theme_default_init(lv_display_t * disp, lv_color_t color_primary, lv_color_t color_
 626:Drivers/lvgl/src/themes/default/lv_theme_default.c ****                                    const lv_font_t * font)
 627:Drivers/lvgl/src/themes/default/lv_theme_default.c **** {
 628:Drivers/lvgl/src/themes/default/lv_theme_default.c ****     /*This trick is required only to avoid the garbage collection of
 629:Drivers/lvgl/src/themes/default/lv_theme_default.c ****      *styles' data if LVGL is used in a binding (e.g. MicroPython)
 630:Drivers/lvgl/src/themes/default/lv_theme_default.c ****      *In a general case styles could be in a simple `static lv_style_t my_style...` variables*/
 631:Drivers/lvgl/src/themes/default/lv_theme_default.c **** 
 632:Drivers/lvgl/src/themes/default/lv_theme_default.c ****     if(!lv_theme_default_is_inited()) {
 633:Drivers/lvgl/src/themes/default/lv_theme_default.c ****         theme_def = lv_malloc_zeroed(sizeof(my_theme_t));
 634:Drivers/lvgl/src/themes/default/lv_theme_default.c ****         LV_ASSERT_MALLOC(theme_def);
 635:Drivers/lvgl/src/themes/default/lv_theme_default.c ****     }
 636:Drivers/lvgl/src/themes/default/lv_theme_default.c **** 
 637:Drivers/lvgl/src/themes/default/lv_theme_default.c ****     my_theme_t * theme = theme_def;
 638:Drivers/lvgl/src/themes/default/lv_theme_default.c **** 
 639:Drivers/lvgl/src/themes/default/lv_theme_default.c ****     lv_display_t * new_disp = disp == NULL ? lv_display_get_default() : disp;
 640:Drivers/lvgl/src/themes/default/lv_theme_default.c ****     int32_t new_dpi = lv_display_get_dpi(new_disp);
 641:Drivers/lvgl/src/themes/default/lv_theme_default.c ****     int32_t hor_res = lv_display_get_horizontal_resolution(new_disp);
 642:Drivers/lvgl/src/themes/default/lv_theme_default.c ****     int32_t ver_res = lv_display_get_vertical_resolution(new_disp);
 643:Drivers/lvgl/src/themes/default/lv_theme_default.c ****     int32_t greater_res = LV_MAX(hor_res, ver_res);
 644:Drivers/lvgl/src/themes/default/lv_theme_default.c ****     disp_size_t new_size;
 645:Drivers/lvgl/src/themes/default/lv_theme_default.c **** 
 646:Drivers/lvgl/src/themes/default/lv_theme_default.c ****     if(greater_res <= 320) new_size = DISP_SMALL;
 647:Drivers/lvgl/src/themes/default/lv_theme_default.c ****     else if(greater_res < 720) new_size = DISP_MEDIUM;
 648:Drivers/lvgl/src/themes/default/lv_theme_default.c ****     else new_size = DISP_LARGE;
 649:Drivers/lvgl/src/themes/default/lv_theme_default.c **** 
 650:Drivers/lvgl/src/themes/default/lv_theme_default.c ****     /* check theme information whether will change or not*/
 651:Drivers/lvgl/src/themes/default/lv_theme_default.c ****     if(theme->inited && theme->disp_dpi == new_dpi &&
 652:Drivers/lvgl/src/themes/default/lv_theme_default.c ****        theme->disp_size == new_size &&
 653:Drivers/lvgl/src/themes/default/lv_theme_default.c ****        lv_color_eq(theme->base.color_primary, color_primary) &&
 654:Drivers/lvgl/src/themes/default/lv_theme_default.c ****        lv_color_eq(theme->base.color_secondary, color_secondary) &&
 655:Drivers/lvgl/src/themes/default/lv_theme_default.c ****        (theme->base.flags == (dark ? MODE_DARK : 0)) &&
 656:Drivers/lvgl/src/themes/default/lv_theme_default.c ****        theme->base.font_small == font) {
 657:Drivers/lvgl/src/themes/default/lv_theme_default.c ****         return (lv_theme_t *) theme;
ARM GAS  /var/folders/qx/2_175_4n2s19vhvtspjhb3qh0000gn/T//ccFV8cem.s 			page 13


 658:Drivers/lvgl/src/themes/default/lv_theme_default.c ****     }
 659:Drivers/lvgl/src/themes/default/lv_theme_default.c **** 
 660:Drivers/lvgl/src/themes/default/lv_theme_default.c ****     theme->disp_size = new_size;
 661:Drivers/lvgl/src/themes/default/lv_theme_default.c ****     theme->disp_dpi = new_dpi;
 662:Drivers/lvgl/src/themes/default/lv_theme_default.c ****     theme->base.disp = new_disp;
 663:Drivers/lvgl/src/themes/default/lv_theme_default.c ****     theme->base.color_primary = color_primary;
 664:Drivers/lvgl/src/themes/default/lv_theme_default.c ****     theme->base.color_secondary = color_secondary;
 665:Drivers/lvgl/src/themes/default/lv_theme_default.c ****     theme->base.font_small = font;
 666:Drivers/lvgl/src/themes/default/lv_theme_default.c ****     theme->base.font_normal = font;
 667:Drivers/lvgl/src/themes/default/lv_theme_default.c ****     theme->base.font_large = font;
 668:Drivers/lvgl/src/themes/default/lv_theme_default.c ****     theme->base.apply_cb = theme_apply;
 669:Drivers/lvgl/src/themes/default/lv_theme_default.c ****     theme->base.flags = dark ? MODE_DARK : 0;
 670:Drivers/lvgl/src/themes/default/lv_theme_default.c **** #if LV_USE_EXT_DATA
 671:Drivers/lvgl/src/themes/default/lv_theme_default.c ****     theme->base.ext_data.free_cb = NULL;
 672:Drivers/lvgl/src/themes/default/lv_theme_default.c ****     theme->base.ext_data.data = NULL;
 673:Drivers/lvgl/src/themes/default/lv_theme_default.c **** #endif
 674:Drivers/lvgl/src/themes/default/lv_theme_default.c **** 
 675:Drivers/lvgl/src/themes/default/lv_theme_default.c ****     style_init(theme);
 676:Drivers/lvgl/src/themes/default/lv_theme_default.c **** 
 677:Drivers/lvgl/src/themes/default/lv_theme_default.c ****     if(disp == NULL || lv_display_get_theme(disp) == (lv_theme_t *)theme) {
 678:Drivers/lvgl/src/themes/default/lv_theme_default.c ****         lv_obj_report_style_change(NULL);
 679:Drivers/lvgl/src/themes/default/lv_theme_default.c ****     }
 680:Drivers/lvgl/src/themes/default/lv_theme_default.c **** 
 681:Drivers/lvgl/src/themes/default/lv_theme_default.c ****     theme->inited = true;
 682:Drivers/lvgl/src/themes/default/lv_theme_default.c **** 
 683:Drivers/lvgl/src/themes/default/lv_theme_default.c ****     /*Re-initialize the styles if the resolution changes as a different display size might
 684:Drivers/lvgl/src/themes/default/lv_theme_default.c ****      *result in different paddings */
 685:Drivers/lvgl/src/themes/default/lv_theme_default.c ****     lv_display_remove_event_cb_with_user_data(new_disp, resolution_change_event_cb, theme);
 686:Drivers/lvgl/src/themes/default/lv_theme_default.c ****     lv_display_add_event_cb(new_disp, resolution_change_event_cb, LV_EVENT_RESOLUTION_CHANGED, them
 687:Drivers/lvgl/src/themes/default/lv_theme_default.c **** 
 688:Drivers/lvgl/src/themes/default/lv_theme_default.c ****     return (lv_theme_t *) theme;
 689:Drivers/lvgl/src/themes/default/lv_theme_default.c **** }
 690:Drivers/lvgl/src/themes/default/lv_theme_default.c **** 
 691:Drivers/lvgl/src/themes/default/lv_theme_default.c **** bool lv_theme_default_is_inited(void)
 692:Drivers/lvgl/src/themes/default/lv_theme_default.c **** {
 693:Drivers/lvgl/src/themes/default/lv_theme_default.c ****     my_theme_t * theme = theme_def;
 694:Drivers/lvgl/src/themes/default/lv_theme_default.c ****     if(theme == NULL) return false;
 695:Drivers/lvgl/src/themes/default/lv_theme_default.c ****     return theme->inited;
 696:Drivers/lvgl/src/themes/default/lv_theme_default.c **** }
 697:Drivers/lvgl/src/themes/default/lv_theme_default.c **** 
 698:Drivers/lvgl/src/themes/default/lv_theme_default.c **** lv_theme_t * lv_theme_default_get(void)
 699:Drivers/lvgl/src/themes/default/lv_theme_default.c **** {
 700:Drivers/lvgl/src/themes/default/lv_theme_default.c ****     if(!lv_theme_default_is_inited()) {
 701:Drivers/lvgl/src/themes/default/lv_theme_default.c ****         return NULL;
 702:Drivers/lvgl/src/themes/default/lv_theme_default.c ****     }
 703:Drivers/lvgl/src/themes/default/lv_theme_default.c **** 
 704:Drivers/lvgl/src/themes/default/lv_theme_default.c ****     return (lv_theme_t *)theme_def;
 705:Drivers/lvgl/src/themes/default/lv_theme_default.c **** }
 706:Drivers/lvgl/src/themes/default/lv_theme_default.c **** 
 707:Drivers/lvgl/src/themes/default/lv_theme_default.c **** void lv_theme_default_deinit(void)
 708:Drivers/lvgl/src/themes/default/lv_theme_default.c **** {
 709:Drivers/lvgl/src/themes/default/lv_theme_default.c ****     my_theme_t * theme = theme_def;
 710:Drivers/lvgl/src/themes/default/lv_theme_default.c ****     if(theme) {
 711:Drivers/lvgl/src/themes/default/lv_theme_default.c ****         if(theme->inited) {
 712:Drivers/lvgl/src/themes/default/lv_theme_default.c ****             lv_style_t * theme_styles = (lv_style_t *)(&(theme->styles));
 713:Drivers/lvgl/src/themes/default/lv_theme_default.c ****             uint32_t i;
 714:Drivers/lvgl/src/themes/default/lv_theme_default.c ****             for(i = 0; i < sizeof(my_theme_styles_t) / sizeof(lv_style_t); i++) {
ARM GAS  /var/folders/qx/2_175_4n2s19vhvtspjhb3qh0000gn/T//ccFV8cem.s 			page 14


 715:Drivers/lvgl/src/themes/default/lv_theme_default.c ****                 lv_style_reset(theme_styles + i);
 716:Drivers/lvgl/src/themes/default/lv_theme_default.c ****             }
 717:Drivers/lvgl/src/themes/default/lv_theme_default.c ****         }
 718:Drivers/lvgl/src/themes/default/lv_theme_default.c **** #if LV_USE_EXT_DATA
 719:Drivers/lvgl/src/themes/default/lv_theme_default.c ****         if(theme->base.ext_data.free_cb) {
 720:Drivers/lvgl/src/themes/default/lv_theme_default.c ****             theme->base.ext_data.free_cb(theme->base.ext_data.data);
 721:Drivers/lvgl/src/themes/default/lv_theme_default.c ****             theme->base.ext_data.data = NULL;
 722:Drivers/lvgl/src/themes/default/lv_theme_default.c ****         }
 723:Drivers/lvgl/src/themes/default/lv_theme_default.c **** #endif
 724:Drivers/lvgl/src/themes/default/lv_theme_default.c ****         lv_free(theme_def);
 725:Drivers/lvgl/src/themes/default/lv_theme_default.c ****         theme_def = NULL;
 726:Drivers/lvgl/src/themes/default/lv_theme_default.c ****     }
 727:Drivers/lvgl/src/themes/default/lv_theme_default.c **** }
 728:Drivers/lvgl/src/themes/default/lv_theme_default.c **** 
 729:Drivers/lvgl/src/themes/default/lv_theme_default.c **** /**********************
 730:Drivers/lvgl/src/themes/default/lv_theme_default.c ****  *   STATIC FUNCTIONS
 731:Drivers/lvgl/src/themes/default/lv_theme_default.c ****  **********************/
 732:Drivers/lvgl/src/themes/default/lv_theme_default.c **** 
 733:Drivers/lvgl/src/themes/default/lv_theme_default.c **** static void theme_apply(lv_theme_t * th, lv_obj_t * obj)
 734:Drivers/lvgl/src/themes/default/lv_theme_default.c **** {
  29              		.loc 1 734 1 view -0
  30              		.cfi_startproc
  31              		@ args = 0, pretend = 0, frame = 0
  32              		@ frame_needed = 0, uses_anonymous_args = 0
  33              		.loc 1 734 1 is_stmt 0 view .LVU1
  34 0000 F8B5     		push	{r3, r4, r5, r6, r7, lr}
  35              	.LCFI0:
  36              		.cfi_def_cfa_offset 24
  37              		.cfi_offset 3, -24
  38              		.cfi_offset 4, -20
  39              		.cfi_offset 5, -16
  40              		.cfi_offset 6, -12
  41              		.cfi_offset 7, -8
  42              		.cfi_offset 14, -4
  43 0002 0C46     		mov	r4, r1
 735:Drivers/lvgl/src/themes/default/lv_theme_default.c ****     LV_UNUSED(th);
  44              		.loc 1 735 5 is_stmt 1 view .LVU2
 736:Drivers/lvgl/src/themes/default/lv_theme_default.c **** 
 737:Drivers/lvgl/src/themes/default/lv_theme_default.c ****     my_theme_t * theme = theme_def;
  45              		.loc 1 737 5 view .LVU3
  46              		.loc 1 737 18 is_stmt 0 view .LVU4
  47 0004 D04B     		ldr	r3, .L71
  48 0006 D3F8CC51 		ldr	r5, [r3, #460]
  49              	.LVL1:
 738:Drivers/lvgl/src/themes/default/lv_theme_default.c ****     lv_obj_t * parent = lv_obj_get_parent(obj);
  50              		.loc 1 738 5 is_stmt 1 view .LVU5
  51              		.loc 1 738 25 is_stmt 0 view .LVU6
  52 000a 0846     		mov	r0, r1
  53              	.LVL2:
  54              		.loc 1 738 25 view .LVU7
  55 000c FFF7FEFF 		bl	lv_obj_get_parent
  56              	.LVL3:
 739:Drivers/lvgl/src/themes/default/lv_theme_default.c **** 
 740:Drivers/lvgl/src/themes/default/lv_theme_default.c ****     if(parent == NULL) {
  57              		.loc 1 740 5 is_stmt 1 view .LVU8
  58              		.loc 1 740 7 is_stmt 0 view .LVU9
  59 0010 0028     		cmp	r0, #0
ARM GAS  /var/folders/qx/2_175_4n2s19vhvtspjhb3qh0000gn/T//ccFV8cem.s 			page 15


  60 0012 54D0     		beq	.L61
  61 0014 0646     		mov	r6, r0
 741:Drivers/lvgl/src/themes/default/lv_theme_default.c ****         lv_obj_add_style(obj, &theme->styles.scr, 0);
 742:Drivers/lvgl/src/themes/default/lv_theme_default.c ****         lv_obj_add_style(obj, &theme->styles.scrollbar, LV_PART_SCROLLBAR);
 743:Drivers/lvgl/src/themes/default/lv_theme_default.c ****         lv_obj_add_style(obj, &theme->styles.scrollbar_scrolled, LV_PART_SCROLLBAR | LV_STATE_SCROL
 744:Drivers/lvgl/src/themes/default/lv_theme_default.c ****         return;
 745:Drivers/lvgl/src/themes/default/lv_theme_default.c ****     }
 746:Drivers/lvgl/src/themes/default/lv_theme_default.c **** 
 747:Drivers/lvgl/src/themes/default/lv_theme_default.c ****     if(lv_obj_check_type(obj, &lv_obj_class)) {
  62              		.loc 1 747 5 is_stmt 1 view .LVU10
  63              		.loc 1 747 8 is_stmt 0 view .LVU11
  64 0016 CD49     		ldr	r1, .L71+4
  65 0018 2046     		mov	r0, r4
  66              	.LVL4:
  67              		.loc 1 747 8 view .LVU12
  68 001a FFF7FEFF 		bl	lv_obj_check_type
  69              	.LVL5:
  70              		.loc 1 747 7 discriminator 1 view .LVU13
  71 001e 0028     		cmp	r0, #0
  72 0020 00F0B580 		beq	.L4
 748:Drivers/lvgl/src/themes/default/lv_theme_default.c **** #if LV_USE_TABVIEW
 749:Drivers/lvgl/src/themes/default/lv_theme_default.c ****         /*Tabview content area*/
 750:Drivers/lvgl/src/themes/default/lv_theme_default.c ****         if(lv_obj_check_type(parent, &lv_tabview_class) && lv_obj_get_child(parent, 1) == obj) {
  73              		.loc 1 750 9 is_stmt 1 view .LVU14
  74              		.loc 1 750 12 is_stmt 0 view .LVU15
  75 0024 CA49     		ldr	r1, .L71+8
  76 0026 3046     		mov	r0, r6
  77 0028 FFF7FEFF 		bl	lv_obj_check_type
  78              	.LVL6:
  79              		.loc 1 750 11 discriminator 1 view .LVU16
  80 002c 28B1     		cbz	r0, .L5
  81              		.loc 1 750 60 discriminator 1 view .LVU17
  82 002e 0121     		movs	r1, #1
  83 0030 3046     		mov	r0, r6
  84 0032 FFF7FEFF 		bl	lv_obj_get_child
  85              	.LVL7:
  86              		.loc 1 750 57 discriminator 1 view .LVU18
  87 0036 8442     		cmp	r4, r0
  88 0038 54D0     		beq	.L1
  89              	.L5:
 751:Drivers/lvgl/src/themes/default/lv_theme_default.c ****             return;
 752:Drivers/lvgl/src/themes/default/lv_theme_default.c ****         }
 753:Drivers/lvgl/src/themes/default/lv_theme_default.c ****         /*Tabview button container*/
 754:Drivers/lvgl/src/themes/default/lv_theme_default.c ****         else if(lv_obj_check_type(parent, &lv_tabview_class) && lv_obj_get_child(parent, 0) == obj)
  90              		.loc 1 754 14 is_stmt 1 view .LVU19
  91              		.loc 1 754 17 is_stmt 0 view .LVU20
  92 003a C549     		ldr	r1, .L71+8
  93 003c 3046     		mov	r0, r6
  94 003e FFF7FEFF 		bl	lv_obj_check_type
  95              	.LVL8:
  96              		.loc 1 754 16 discriminator 1 view .LVU21
  97 0042 28B1     		cbz	r0, .L6
  98              		.loc 1 754 65 discriminator 1 view .LVU22
  99 0044 0021     		movs	r1, #0
 100 0046 3046     		mov	r0, r6
 101 0048 FFF7FEFF 		bl	lv_obj_get_child
 102              	.LVL9:
ARM GAS  /var/folders/qx/2_175_4n2s19vhvtspjhb3qh0000gn/T//ccFV8cem.s 			page 16


 103              		.loc 1 754 62 discriminator 1 view .LVU23
 104 004c 8442     		cmp	r4, r0
 105 004e 4AD0     		beq	.L62
 106              	.L6:
 755:Drivers/lvgl/src/themes/default/lv_theme_default.c ****             lv_obj_add_style(obj, &theme->styles.bg_color_white, 0);
 756:Drivers/lvgl/src/themes/default/lv_theme_default.c ****             lv_obj_add_style(obj, &theme->styles.outline_primary, LV_STATE_FOCUS_KEY);
 757:Drivers/lvgl/src/themes/default/lv_theme_default.c ****             lv_obj_add_style(obj, &theme->styles.tab_bg_focus, LV_STATE_FOCUS_KEY);
 758:Drivers/lvgl/src/themes/default/lv_theme_default.c ****             return;
 759:Drivers/lvgl/src/themes/default/lv_theme_default.c ****         }
 760:Drivers/lvgl/src/themes/default/lv_theme_default.c ****         /*Tabview pages*/
 761:Drivers/lvgl/src/themes/default/lv_theme_default.c ****         else if(lv_obj_check_type(lv_obj_get_parent(parent), &lv_tabview_class)) {
 107              		.loc 1 761 14 is_stmt 1 view .LVU24
 108              		.loc 1 761 35 is_stmt 0 view .LVU25
 109 0050 3046     		mov	r0, r6
 110 0052 FFF7FEFF 		bl	lv_obj_get_parent
 111              	.LVL10:
 112              		.loc 1 761 17 discriminator 1 view .LVU26
 113 0056 BE49     		ldr	r1, .L71+8
 114 0058 FFF7FEFF 		bl	lv_obj_check_type
 115              	.LVL11:
 116              		.loc 1 761 16 discriminator 2 view .LVU27
 117 005c 0028     		cmp	r0, #0
 118 005e 55D1     		bne	.L63
 762:Drivers/lvgl/src/themes/default/lv_theme_default.c ****             lv_obj_add_style(obj, &theme->styles.pad_normal, 0);
 763:Drivers/lvgl/src/themes/default/lv_theme_default.c ****             lv_obj_add_style(obj, &theme->styles.rotary_scroll, 0);
 764:Drivers/lvgl/src/themes/default/lv_theme_default.c ****             lv_obj_add_style(obj, &theme->styles.scrollbar, LV_PART_SCROLLBAR);
 765:Drivers/lvgl/src/themes/default/lv_theme_default.c ****             lv_obj_add_style(obj, &theme->styles.scrollbar_scrolled, LV_PART_SCROLLBAR | LV_STATE_S
 766:Drivers/lvgl/src/themes/default/lv_theme_default.c ****             return;
 767:Drivers/lvgl/src/themes/default/lv_theme_default.c ****         }
 768:Drivers/lvgl/src/themes/default/lv_theme_default.c **** #endif
 769:Drivers/lvgl/src/themes/default/lv_theme_default.c **** 
 770:Drivers/lvgl/src/themes/default/lv_theme_default.c **** #if LV_USE_WIN
 771:Drivers/lvgl/src/themes/default/lv_theme_default.c ****         /*Header*/
 772:Drivers/lvgl/src/themes/default/lv_theme_default.c ****         if(lv_obj_check_type(parent, &lv_win_class) && lv_obj_get_child(parent, 0) == obj) {
 119              		.loc 1 772 9 is_stmt 1 view .LVU28
 120              		.loc 1 772 12 is_stmt 0 view .LVU29
 121 0060 BC49     		ldr	r1, .L71+12
 122 0062 3046     		mov	r0, r6
 123 0064 FFF7FEFF 		bl	lv_obj_check_type
 124              	.LVL12:
 125              		.loc 1 772 11 discriminator 1 view .LVU30
 126 0068 28B1     		cbz	r0, .L8
 127              		.loc 1 772 56 discriminator 1 view .LVU31
 128 006a 0021     		movs	r1, #0
 129 006c 3046     		mov	r0, r6
 130 006e FFF7FEFF 		bl	lv_obj_get_child
 131              	.LVL13:
 132              		.loc 1 772 53 discriminator 1 view .LVU32
 133 0072 8442     		cmp	r4, r0
 134 0074 64D0     		beq	.L64
 135              	.L8:
 773:Drivers/lvgl/src/themes/default/lv_theme_default.c ****             lv_obj_add_style(obj, &theme->styles.bg_color_grey, 0);
 774:Drivers/lvgl/src/themes/default/lv_theme_default.c ****             lv_obj_add_style(obj, &theme->styles.pad_tiny, 0);
 775:Drivers/lvgl/src/themes/default/lv_theme_default.c ****             return;
 776:Drivers/lvgl/src/themes/default/lv_theme_default.c ****         }
 777:Drivers/lvgl/src/themes/default/lv_theme_default.c ****         /*Content*/
 778:Drivers/lvgl/src/themes/default/lv_theme_default.c ****         else if(lv_obj_check_type(parent, &lv_win_class) && lv_obj_get_child(parent, 1) == obj) {
ARM GAS  /var/folders/qx/2_175_4n2s19vhvtspjhb3qh0000gn/T//ccFV8cem.s 			page 17


 136              		.loc 1 778 14 is_stmt 1 view .LVU33
 137              		.loc 1 778 17 is_stmt 0 view .LVU34
 138 0076 B749     		ldr	r1, .L71+12
 139 0078 3046     		mov	r0, r6
 140 007a FFF7FEFF 		bl	lv_obj_check_type
 141              	.LVL14:
 142              		.loc 1 778 16 discriminator 1 view .LVU35
 143 007e 28B1     		cbz	r0, .L9
 144              		.loc 1 778 61 discriminator 1 view .LVU36
 145 0080 0121     		movs	r1, #1
 146 0082 3046     		mov	r0, r6
 147 0084 FFF7FEFF 		bl	lv_obj_get_child
 148              	.LVL15:
 149              		.loc 1 778 58 discriminator 1 view .LVU37
 150 0088 8442     		cmp	r4, r0
 151 008a 66D0     		beq	.L65
 152              	.L9:
 779:Drivers/lvgl/src/themes/default/lv_theme_default.c ****             lv_obj_add_style(obj, &theme->styles.scr, 0);
 780:Drivers/lvgl/src/themes/default/lv_theme_default.c ****             lv_obj_add_style(obj, &theme->styles.pad_normal, 0);
 781:Drivers/lvgl/src/themes/default/lv_theme_default.c ****             lv_obj_add_style(obj, &theme->styles.scrollbar, LV_PART_SCROLLBAR);
 782:Drivers/lvgl/src/themes/default/lv_theme_default.c ****             lv_obj_add_style(obj, &theme->styles.scrollbar_scrolled, LV_PART_SCROLLBAR | LV_STATE_S
 783:Drivers/lvgl/src/themes/default/lv_theme_default.c ****             return;
 784:Drivers/lvgl/src/themes/default/lv_theme_default.c ****         }
 785:Drivers/lvgl/src/themes/default/lv_theme_default.c **** #endif
 786:Drivers/lvgl/src/themes/default/lv_theme_default.c **** 
 787:Drivers/lvgl/src/themes/default/lv_theme_default.c **** #if LV_USE_CALENDAR
 788:Drivers/lvgl/src/themes/default/lv_theme_default.c ****         if(lv_obj_check_type(parent, &lv_calendar_class)) {
 153              		.loc 1 788 9 is_stmt 1 view .LVU38
 154              		.loc 1 788 12 is_stmt 0 view .LVU39
 155 008c B249     		ldr	r1, .L71+16
 156 008e 3046     		mov	r0, r6
 157 0090 FFF7FEFF 		bl	lv_obj_check_type
 158              	.LVL16:
 159              		.loc 1 788 11 discriminator 1 view .LVU40
 160 0094 30BB     		cbnz	r0, .L1
 789:Drivers/lvgl/src/themes/default/lv_theme_default.c ****             /*No style*/
 790:Drivers/lvgl/src/themes/default/lv_theme_default.c ****             return;
 791:Drivers/lvgl/src/themes/default/lv_theme_default.c ****         }
 792:Drivers/lvgl/src/themes/default/lv_theme_default.c **** #endif
 793:Drivers/lvgl/src/themes/default/lv_theme_default.c **** 
 794:Drivers/lvgl/src/themes/default/lv_theme_default.c ****         lv_obj_add_style(obj, &theme->styles.card, 0);
 161              		.loc 1 794 9 is_stmt 1 view .LVU41
 162 0096 0022     		movs	r2, #0
 163 0098 05F16401 		add	r1, r5, #100
 164 009c 2046     		mov	r0, r4
 165 009e FFF7FEFF 		bl	lv_obj_add_style
 166              	.LVL17:
 795:Drivers/lvgl/src/themes/default/lv_theme_default.c ****         lv_obj_add_style(obj, &theme->styles.scrollbar, LV_PART_SCROLLBAR);
 167              		.loc 1 795 9 view .LVU42
 168 00a2 4FF48032 		mov	r2, #65536
 169 00a6 05F14C01 		add	r1, r5, #76
 170 00aa 2046     		mov	r0, r4
 171 00ac FFF7FEFF 		bl	lv_obj_add_style
 172              	.LVL18:
 796:Drivers/lvgl/src/themes/default/lv_theme_default.c ****         lv_obj_add_style(obj, &theme->styles.scrollbar_scrolled, LV_PART_SCROLLBAR | LV_STATE_SCROL
 173              		.loc 1 796 9 view .LVU43
 174 00b0 AA4A     		ldr	r2, .L71+20
ARM GAS  /var/folders/qx/2_175_4n2s19vhvtspjhb3qh0000gn/T//ccFV8cem.s 			page 18


 175 00b2 05F15801 		add	r1, r5, #88
 176 00b6 2046     		mov	r0, r4
 177 00b8 FFF7FEFF 		bl	lv_obj_add_style
 178              	.LVL19:
 179 00bc 12E0     		b	.L1
 180              	.LVL20:
 181              	.L61:
 741:Drivers/lvgl/src/themes/default/lv_theme_default.c ****         lv_obj_add_style(obj, &theme->styles.scrollbar, LV_PART_SCROLLBAR);
 182              		.loc 1 741 9 view .LVU44
 183 00be 0022     		movs	r2, #0
 184 00c0 05F14001 		add	r1, r5, #64
 185 00c4 2046     		mov	r0, r4
 186              	.LVL21:
 741:Drivers/lvgl/src/themes/default/lv_theme_default.c ****         lv_obj_add_style(obj, &theme->styles.scrollbar, LV_PART_SCROLLBAR);
 187              		.loc 1 741 9 is_stmt 0 view .LVU45
 188 00c6 FFF7FEFF 		bl	lv_obj_add_style
 189              	.LVL22:
 742:Drivers/lvgl/src/themes/default/lv_theme_default.c ****         lv_obj_add_style(obj, &theme->styles.scrollbar_scrolled, LV_PART_SCROLLBAR | LV_STATE_SCROL
 190              		.loc 1 742 9 is_stmt 1 view .LVU46
 191 00ca 4FF48032 		mov	r2, #65536
 192 00ce 05F14C01 		add	r1, r5, #76
 193 00d2 2046     		mov	r0, r4
 194 00d4 FFF7FEFF 		bl	lv_obj_add_style
 195              	.LVL23:
 743:Drivers/lvgl/src/themes/default/lv_theme_default.c ****         return;
 196              		.loc 1 743 9 view .LVU47
 197 00d8 A04A     		ldr	r2, .L71+20
 198 00da 05F15801 		add	r1, r5, #88
 199 00de 2046     		mov	r0, r4
 200 00e0 FFF7FEFF 		bl	lv_obj_add_style
 201              	.LVL24:
 744:Drivers/lvgl/src/themes/default/lv_theme_default.c ****     }
 202              		.loc 1 744 9 view .LVU48
 203              	.L1:
 797:Drivers/lvgl/src/themes/default/lv_theme_default.c ****     }
 798:Drivers/lvgl/src/themes/default/lv_theme_default.c **** #if LV_USE_BUTTON
 799:Drivers/lvgl/src/themes/default/lv_theme_default.c ****     else if(lv_obj_check_type(obj, &lv_button_class)) {
 800:Drivers/lvgl/src/themes/default/lv_theme_default.c **** 
 801:Drivers/lvgl/src/themes/default/lv_theme_default.c **** #if LV_USE_TABVIEW
 802:Drivers/lvgl/src/themes/default/lv_theme_default.c ****         lv_obj_t * tv = lv_obj_get_parent(parent); /*parent is the tabview header*/
 803:Drivers/lvgl/src/themes/default/lv_theme_default.c ****         if(tv && lv_obj_get_child(tv, 0) == parent) { /*The button is on the tab view header*/
 804:Drivers/lvgl/src/themes/default/lv_theme_default.c ****             if(lv_obj_check_type(tv, &lv_tabview_class)) {
 805:Drivers/lvgl/src/themes/default/lv_theme_default.c ****                 lv_obj_add_style(obj, &theme->styles.pressed, LV_STATE_PRESSED);
 806:Drivers/lvgl/src/themes/default/lv_theme_default.c ****                 lv_obj_add_style(obj, &theme->styles.bg_color_primary_muted, LV_STATE_CHECKED);
 807:Drivers/lvgl/src/themes/default/lv_theme_default.c ****                 lv_obj_add_style(obj, &theme->styles.tab_btn, LV_STATE_CHECKED);
 808:Drivers/lvgl/src/themes/default/lv_theme_default.c ****                 lv_obj_add_style(obj, &theme->styles.outline_primary, LV_STATE_FOCUS_KEY);
 809:Drivers/lvgl/src/themes/default/lv_theme_default.c ****                 lv_obj_add_style(obj, &theme->styles.outline_secondary, LV_STATE_EDITED);
 810:Drivers/lvgl/src/themes/default/lv_theme_default.c ****                 lv_obj_add_style(obj, &theme->styles.tab_bg_focus, LV_STATE_FOCUS_KEY);
 811:Drivers/lvgl/src/themes/default/lv_theme_default.c ****                 return;
 812:Drivers/lvgl/src/themes/default/lv_theme_default.c ****             }
 813:Drivers/lvgl/src/themes/default/lv_theme_default.c ****         }
 814:Drivers/lvgl/src/themes/default/lv_theme_default.c **** #endif
 815:Drivers/lvgl/src/themes/default/lv_theme_default.c ****         lv_obj_add_style(obj, &theme->styles.btn, 0);
 816:Drivers/lvgl/src/themes/default/lv_theme_default.c ****         lv_obj_add_style(obj, &theme->styles.bg_color_primary, 0);
 817:Drivers/lvgl/src/themes/default/lv_theme_default.c ****         lv_obj_add_style(obj, &theme->styles.transition_delayed, 0);
 818:Drivers/lvgl/src/themes/default/lv_theme_default.c ****         lv_obj_add_style(obj, &theme->styles.pressed, LV_STATE_PRESSED);
 819:Drivers/lvgl/src/themes/default/lv_theme_default.c ****         lv_obj_add_style(obj, &theme->styles.transition_normal, LV_STATE_PRESSED);
ARM GAS  /var/folders/qx/2_175_4n2s19vhvtspjhb3qh0000gn/T//ccFV8cem.s 			page 19


 820:Drivers/lvgl/src/themes/default/lv_theme_default.c ****         lv_obj_add_style(obj, &theme->styles.outline_primary, LV_STATE_FOCUS_KEY);
 821:Drivers/lvgl/src/themes/default/lv_theme_default.c **** #if LV_THEME_DEFAULT_GROW
 822:Drivers/lvgl/src/themes/default/lv_theme_default.c ****         lv_obj_add_style(obj, &theme->styles.grow, LV_STATE_PRESSED);
 823:Drivers/lvgl/src/themes/default/lv_theme_default.c **** #endif
 824:Drivers/lvgl/src/themes/default/lv_theme_default.c ****         lv_obj_add_style(obj, &theme->styles.bg_color_secondary, LV_STATE_CHECKED);
 825:Drivers/lvgl/src/themes/default/lv_theme_default.c ****         lv_obj_add_style(obj, &theme->styles.disabled, LV_STATE_DISABLED);
 826:Drivers/lvgl/src/themes/default/lv_theme_default.c **** 
 827:Drivers/lvgl/src/themes/default/lv_theme_default.c **** #if LV_USE_MENU
 828:Drivers/lvgl/src/themes/default/lv_theme_default.c ****         if(lv_obj_check_type(parent, &lv_menu_sidebar_header_cont_class) ||
 829:Drivers/lvgl/src/themes/default/lv_theme_default.c ****            lv_obj_check_type(parent, &lv_menu_main_header_cont_class)) {
 830:Drivers/lvgl/src/themes/default/lv_theme_default.c ****             lv_obj_add_style(obj, &theme->styles.menu_header_btn, 0);
 831:Drivers/lvgl/src/themes/default/lv_theme_default.c ****             lv_obj_add_style(obj, &theme->styles.menu_pressed, LV_STATE_PRESSED);
 832:Drivers/lvgl/src/themes/default/lv_theme_default.c ****         }
 833:Drivers/lvgl/src/themes/default/lv_theme_default.c **** #endif
 834:Drivers/lvgl/src/themes/default/lv_theme_default.c ****     }
 835:Drivers/lvgl/src/themes/default/lv_theme_default.c **** #endif
 836:Drivers/lvgl/src/themes/default/lv_theme_default.c **** 
 837:Drivers/lvgl/src/themes/default/lv_theme_default.c **** #if LV_USE_LINE
 838:Drivers/lvgl/src/themes/default/lv_theme_default.c ****     else if(lv_obj_check_type(obj, &lv_line_class)) {
 839:Drivers/lvgl/src/themes/default/lv_theme_default.c ****         lv_obj_add_style(obj, &theme->styles.line, 0);
 840:Drivers/lvgl/src/themes/default/lv_theme_default.c ****     }
 841:Drivers/lvgl/src/themes/default/lv_theme_default.c **** #endif
 842:Drivers/lvgl/src/themes/default/lv_theme_default.c **** 
 843:Drivers/lvgl/src/themes/default/lv_theme_default.c **** #if LV_USE_BUTTONMATRIX
 844:Drivers/lvgl/src/themes/default/lv_theme_default.c ****     else if(lv_obj_check_type(obj, &lv_buttonmatrix_class)) {
 845:Drivers/lvgl/src/themes/default/lv_theme_default.c **** 
 846:Drivers/lvgl/src/themes/default/lv_theme_default.c **** #if LV_USE_CALENDAR
 847:Drivers/lvgl/src/themes/default/lv_theme_default.c ****         if(lv_obj_check_type(parent, &lv_calendar_class)) {
 848:Drivers/lvgl/src/themes/default/lv_theme_default.c ****             lv_obj_add_style(obj, &theme->styles.calendar_btnm_bg, 0);
 849:Drivers/lvgl/src/themes/default/lv_theme_default.c ****             lv_obj_add_style(obj, &theme->styles.outline_primary, LV_STATE_FOCUS_KEY);
 850:Drivers/lvgl/src/themes/default/lv_theme_default.c ****             lv_obj_add_style(obj, &theme->styles.outline_secondary, LV_STATE_EDITED);
 851:Drivers/lvgl/src/themes/default/lv_theme_default.c ****             lv_obj_add_style(obj, &theme->styles.calendar_btnm_day, LV_PART_ITEMS);
 852:Drivers/lvgl/src/themes/default/lv_theme_default.c ****             lv_obj_add_style(obj, &theme->styles.pressed, LV_PART_ITEMS | LV_STATE_PRESSED);
 853:Drivers/lvgl/src/themes/default/lv_theme_default.c ****             lv_obj_add_style(obj, &theme->styles.disabled, LV_PART_ITEMS | LV_STATE_DISABLED);
 854:Drivers/lvgl/src/themes/default/lv_theme_default.c ****             lv_obj_add_style(obj, &theme->styles.outline_primary, LV_PART_ITEMS | LV_STATE_FOCUS_KE
 855:Drivers/lvgl/src/themes/default/lv_theme_default.c ****             lv_obj_add_style(obj, &theme->styles.outline_secondary, LV_PART_ITEMS | LV_STATE_EDITED
 856:Drivers/lvgl/src/themes/default/lv_theme_default.c ****             return;
 857:Drivers/lvgl/src/themes/default/lv_theme_default.c ****         }
 858:Drivers/lvgl/src/themes/default/lv_theme_default.c **** #endif
 859:Drivers/lvgl/src/themes/default/lv_theme_default.c ****         lv_obj_add_style(obj, &theme->styles.card, 0);
 860:Drivers/lvgl/src/themes/default/lv_theme_default.c ****         lv_obj_add_style(obj, &theme->styles.outline_primary, LV_STATE_FOCUS_KEY);
 861:Drivers/lvgl/src/themes/default/lv_theme_default.c ****         lv_obj_add_style(obj, &theme->styles.outline_secondary, LV_STATE_EDITED);
 862:Drivers/lvgl/src/themes/default/lv_theme_default.c ****         lv_obj_add_style(obj, &theme->styles.btn, LV_PART_ITEMS);
 863:Drivers/lvgl/src/themes/default/lv_theme_default.c ****         lv_obj_add_style(obj, &theme->styles.disabled, LV_PART_ITEMS | LV_STATE_DISABLED);
 864:Drivers/lvgl/src/themes/default/lv_theme_default.c ****         lv_obj_add_style(obj, &theme->styles.pressed, LV_PART_ITEMS | LV_STATE_PRESSED);
 865:Drivers/lvgl/src/themes/default/lv_theme_default.c ****         lv_obj_add_style(obj, &theme->styles.bg_color_primary, LV_PART_ITEMS | LV_STATE_CHECKED);
 866:Drivers/lvgl/src/themes/default/lv_theme_default.c ****         lv_obj_add_style(obj, &theme->styles.outline_primary, LV_PART_ITEMS | LV_STATE_FOCUS_KEY);
 867:Drivers/lvgl/src/themes/default/lv_theme_default.c ****         lv_obj_add_style(obj, &theme->styles.outline_secondary, LV_PART_ITEMS | LV_STATE_EDITED);
 868:Drivers/lvgl/src/themes/default/lv_theme_default.c ****     }
 869:Drivers/lvgl/src/themes/default/lv_theme_default.c **** #endif
 870:Drivers/lvgl/src/themes/default/lv_theme_default.c **** 
 871:Drivers/lvgl/src/themes/default/lv_theme_default.c **** #if LV_USE_BAR
 872:Drivers/lvgl/src/themes/default/lv_theme_default.c ****     else if(lv_obj_check_type(obj, &lv_bar_class)) {
 873:Drivers/lvgl/src/themes/default/lv_theme_default.c ****         lv_obj_add_style(obj, &theme->styles.bg_color_primary_muted, 0);
 874:Drivers/lvgl/src/themes/default/lv_theme_default.c ****         lv_obj_add_style(obj, &theme->styles.circle, 0);
 875:Drivers/lvgl/src/themes/default/lv_theme_default.c ****         lv_obj_add_style(obj, &theme->styles.outline_primary, LV_STATE_FOCUS_KEY);
 876:Drivers/lvgl/src/themes/default/lv_theme_default.c ****         lv_obj_add_style(obj, &theme->styles.outline_secondary, LV_STATE_EDITED);
ARM GAS  /var/folders/qx/2_175_4n2s19vhvtspjhb3qh0000gn/T//ccFV8cem.s 			page 20


 877:Drivers/lvgl/src/themes/default/lv_theme_default.c ****         lv_obj_add_style(obj, &theme->styles.bg_color_primary, LV_PART_INDICATOR);
 878:Drivers/lvgl/src/themes/default/lv_theme_default.c ****         lv_obj_add_style(obj, &theme->styles.circle, LV_PART_INDICATOR);
 879:Drivers/lvgl/src/themes/default/lv_theme_default.c ****     }
 880:Drivers/lvgl/src/themes/default/lv_theme_default.c **** #endif
 881:Drivers/lvgl/src/themes/default/lv_theme_default.c **** 
 882:Drivers/lvgl/src/themes/default/lv_theme_default.c **** #if LV_USE_SLIDER
 883:Drivers/lvgl/src/themes/default/lv_theme_default.c ****     else if(lv_obj_check_type(obj, &lv_slider_class)) {
 884:Drivers/lvgl/src/themes/default/lv_theme_default.c ****         lv_obj_add_style(obj, &theme->styles.bg_color_primary_muted, 0);
 885:Drivers/lvgl/src/themes/default/lv_theme_default.c ****         lv_obj_add_style(obj, &theme->styles.circle, 0);
 886:Drivers/lvgl/src/themes/default/lv_theme_default.c ****         lv_obj_add_style(obj, &theme->styles.outline_primary, LV_STATE_FOCUS_KEY);
 887:Drivers/lvgl/src/themes/default/lv_theme_default.c ****         lv_obj_add_style(obj, &theme->styles.outline_secondary, LV_STATE_EDITED);
 888:Drivers/lvgl/src/themes/default/lv_theme_default.c ****         lv_obj_add_style(obj, &theme->styles.bg_color_primary, LV_PART_INDICATOR);
 889:Drivers/lvgl/src/themes/default/lv_theme_default.c ****         lv_obj_add_style(obj, &theme->styles.circle, LV_PART_INDICATOR);
 890:Drivers/lvgl/src/themes/default/lv_theme_default.c ****         lv_obj_add_style(obj, &theme->styles.knob, LV_PART_KNOB);
 891:Drivers/lvgl/src/themes/default/lv_theme_default.c **** #if LV_THEME_DEFAULT_GROW
 892:Drivers/lvgl/src/themes/default/lv_theme_default.c ****         lv_obj_add_style(obj, &theme->styles.grow, LV_PART_KNOB | LV_STATE_PRESSED);
 893:Drivers/lvgl/src/themes/default/lv_theme_default.c **** #endif
 894:Drivers/lvgl/src/themes/default/lv_theme_default.c ****         lv_obj_add_style(obj, &theme->styles.transition_delayed, LV_PART_KNOB);
 895:Drivers/lvgl/src/themes/default/lv_theme_default.c ****         lv_obj_add_style(obj, &theme->styles.transition_normal, LV_PART_KNOB | LV_STATE_PRESSED);
 896:Drivers/lvgl/src/themes/default/lv_theme_default.c ****     }
 897:Drivers/lvgl/src/themes/default/lv_theme_default.c **** #endif
 898:Drivers/lvgl/src/themes/default/lv_theme_default.c **** 
 899:Drivers/lvgl/src/themes/default/lv_theme_default.c **** #if LV_USE_TABLE
 900:Drivers/lvgl/src/themes/default/lv_theme_default.c ****     else if(lv_obj_check_type(obj, &lv_table_class)) {
 901:Drivers/lvgl/src/themes/default/lv_theme_default.c ****         lv_obj_add_style(obj, &theme->styles.card, 0);
 902:Drivers/lvgl/src/themes/default/lv_theme_default.c ****         lv_obj_add_style(obj, &theme->styles.pad_zero, 0);
 903:Drivers/lvgl/src/themes/default/lv_theme_default.c ****         lv_obj_add_style(obj, &theme->styles.no_radius, 0);
 904:Drivers/lvgl/src/themes/default/lv_theme_default.c ****         lv_obj_add_style(obj, &theme->styles.outline_primary, LV_STATE_FOCUS_KEY);
 905:Drivers/lvgl/src/themes/default/lv_theme_default.c ****         lv_obj_add_style(obj, &theme->styles.outline_secondary, LV_STATE_EDITED);
 906:Drivers/lvgl/src/themes/default/lv_theme_default.c ****         lv_obj_add_style(obj, &theme->styles.scrollbar, LV_PART_SCROLLBAR);
 907:Drivers/lvgl/src/themes/default/lv_theme_default.c ****         lv_obj_add_style(obj, &theme->styles.scrollbar_scrolled, LV_PART_SCROLLBAR | LV_STATE_SCROL
 908:Drivers/lvgl/src/themes/default/lv_theme_default.c ****         lv_obj_add_style(obj, &theme->styles.bg_color_white, LV_PART_ITEMS);
 909:Drivers/lvgl/src/themes/default/lv_theme_default.c ****         lv_obj_add_style(obj, &theme->styles.table_cell, LV_PART_ITEMS);
 910:Drivers/lvgl/src/themes/default/lv_theme_default.c ****         lv_obj_add_style(obj, &theme->styles.pad_normal, LV_PART_ITEMS);
 911:Drivers/lvgl/src/themes/default/lv_theme_default.c ****         lv_obj_add_style(obj, &theme->styles.pressed, LV_PART_ITEMS | LV_STATE_PRESSED);
 912:Drivers/lvgl/src/themes/default/lv_theme_default.c ****         lv_obj_add_style(obj, &theme->styles.bg_color_primary, LV_PART_ITEMS | LV_STATE_FOCUS_KEY);
 913:Drivers/lvgl/src/themes/default/lv_theme_default.c ****         lv_obj_add_style(obj, &theme->styles.bg_color_secondary, LV_PART_ITEMS | LV_STATE_EDITED);
 914:Drivers/lvgl/src/themes/default/lv_theme_default.c ****     }
 915:Drivers/lvgl/src/themes/default/lv_theme_default.c **** #endif
 916:Drivers/lvgl/src/themes/default/lv_theme_default.c **** 
 917:Drivers/lvgl/src/themes/default/lv_theme_default.c **** #if LV_USE_CHECKBOX
 918:Drivers/lvgl/src/themes/default/lv_theme_default.c ****     else if(lv_obj_check_type(obj, &lv_checkbox_class)) {
 919:Drivers/lvgl/src/themes/default/lv_theme_default.c ****         lv_obj_add_style(obj, &theme->styles.pad_gap, 0);
 920:Drivers/lvgl/src/themes/default/lv_theme_default.c ****         lv_obj_add_style(obj, &theme->styles.outline_primary, LV_STATE_FOCUS_KEY);
 921:Drivers/lvgl/src/themes/default/lv_theme_default.c ****         lv_obj_add_style(obj, &theme->styles.disabled, LV_PART_INDICATOR | LV_STATE_DISABLED);
 922:Drivers/lvgl/src/themes/default/lv_theme_default.c ****         lv_obj_add_style(obj, &theme->styles.cb_marker, LV_PART_INDICATOR);
 923:Drivers/lvgl/src/themes/default/lv_theme_default.c ****         lv_obj_add_style(obj, &theme->styles.bg_color_primary, LV_PART_INDICATOR | LV_STATE_CHECKED
 924:Drivers/lvgl/src/themes/default/lv_theme_default.c ****         lv_obj_add_style(obj, &theme->styles.cb_marker_checked, LV_PART_INDICATOR | LV_STATE_CHECKE
 925:Drivers/lvgl/src/themes/default/lv_theme_default.c ****         lv_obj_add_style(obj, &theme->styles.pressed, LV_PART_INDICATOR | LV_STATE_PRESSED);
 926:Drivers/lvgl/src/themes/default/lv_theme_default.c **** #if LV_THEME_DEFAULT_GROW
 927:Drivers/lvgl/src/themes/default/lv_theme_default.c ****         lv_obj_add_style(obj, &theme->styles.grow, LV_PART_INDICATOR | LV_STATE_PRESSED);
 928:Drivers/lvgl/src/themes/default/lv_theme_default.c **** #endif
 929:Drivers/lvgl/src/themes/default/lv_theme_default.c ****         lv_obj_add_style(obj, &theme->styles.transition_normal, LV_PART_INDICATOR | LV_STATE_PRESSE
 930:Drivers/lvgl/src/themes/default/lv_theme_default.c ****         lv_obj_add_style(obj, &theme->styles.transition_delayed, LV_PART_INDICATOR);
 931:Drivers/lvgl/src/themes/default/lv_theme_default.c ****     }
 932:Drivers/lvgl/src/themes/default/lv_theme_default.c **** #endif
 933:Drivers/lvgl/src/themes/default/lv_theme_default.c **** 
ARM GAS  /var/folders/qx/2_175_4n2s19vhvtspjhb3qh0000gn/T//ccFV8cem.s 			page 21


 934:Drivers/lvgl/src/themes/default/lv_theme_default.c **** #if LV_USE_SWITCH
 935:Drivers/lvgl/src/themes/default/lv_theme_default.c ****     else if(lv_obj_check_type(obj, &lv_switch_class)) {
 936:Drivers/lvgl/src/themes/default/lv_theme_default.c ****         lv_obj_add_style(obj, &theme->styles.bg_color_grey, 0);
 937:Drivers/lvgl/src/themes/default/lv_theme_default.c ****         lv_obj_add_style(obj, &theme->styles.circle, 0);
 938:Drivers/lvgl/src/themes/default/lv_theme_default.c ****         lv_obj_add_style(obj, &theme->styles.anim_fast, 0);
 939:Drivers/lvgl/src/themes/default/lv_theme_default.c ****         lv_obj_add_style(obj, &theme->styles.disabled, LV_STATE_DISABLED);
 940:Drivers/lvgl/src/themes/default/lv_theme_default.c ****         lv_obj_add_style(obj, &theme->styles.outline_primary, LV_STATE_FOCUS_KEY);
 941:Drivers/lvgl/src/themes/default/lv_theme_default.c ****         lv_obj_add_style(obj, &theme->styles.bg_color_primary, LV_PART_INDICATOR | LV_STATE_CHECKED
 942:Drivers/lvgl/src/themes/default/lv_theme_default.c ****         lv_obj_add_style(obj, &theme->styles.circle, LV_PART_INDICATOR);
 943:Drivers/lvgl/src/themes/default/lv_theme_default.c ****         lv_obj_add_style(obj, &theme->styles.knob, LV_PART_KNOB);
 944:Drivers/lvgl/src/themes/default/lv_theme_default.c ****         lv_obj_add_style(obj, &theme->styles.bg_color_white, LV_PART_KNOB);
 945:Drivers/lvgl/src/themes/default/lv_theme_default.c ****         lv_obj_add_style(obj, &theme->styles.switch_knob, LV_PART_KNOB);
 946:Drivers/lvgl/src/themes/default/lv_theme_default.c **** 
 947:Drivers/lvgl/src/themes/default/lv_theme_default.c ****         lv_obj_add_style(obj, &theme->styles.transition_normal, LV_PART_INDICATOR | LV_STATE_CHECKE
 948:Drivers/lvgl/src/themes/default/lv_theme_default.c ****         lv_obj_add_style(obj, &theme->styles.transition_normal, LV_PART_INDICATOR);
 949:Drivers/lvgl/src/themes/default/lv_theme_default.c ****     }
 950:Drivers/lvgl/src/themes/default/lv_theme_default.c **** #endif
 951:Drivers/lvgl/src/themes/default/lv_theme_default.c **** 
 952:Drivers/lvgl/src/themes/default/lv_theme_default.c **** #if LV_USE_CHART
 953:Drivers/lvgl/src/themes/default/lv_theme_default.c ****     else if(lv_obj_check_type(obj, &lv_chart_class)) {
 954:Drivers/lvgl/src/themes/default/lv_theme_default.c ****         lv_obj_add_style(obj, &theme->styles.card, 0);
 955:Drivers/lvgl/src/themes/default/lv_theme_default.c ****         lv_obj_add_style(obj, &theme->styles.pad_small, 0);
 956:Drivers/lvgl/src/themes/default/lv_theme_default.c ****         lv_obj_add_style(obj, &theme->styles.chart_bg, 0);
 957:Drivers/lvgl/src/themes/default/lv_theme_default.c ****         lv_obj_add_style(obj, &theme->styles.scrollbar, LV_PART_SCROLLBAR);
 958:Drivers/lvgl/src/themes/default/lv_theme_default.c ****         lv_obj_add_style(obj, &theme->styles.scrollbar_scrolled, LV_PART_SCROLLBAR | LV_STATE_SCROL
 959:Drivers/lvgl/src/themes/default/lv_theme_default.c ****         lv_obj_add_style(obj, &theme->styles.chart_series, LV_PART_ITEMS);
 960:Drivers/lvgl/src/themes/default/lv_theme_default.c ****         lv_obj_add_style(obj, &theme->styles.chart_indic, LV_PART_INDICATOR);
 961:Drivers/lvgl/src/themes/default/lv_theme_default.c ****         lv_obj_add_style(obj, &theme->styles.chart_series, LV_PART_CURSOR);
 962:Drivers/lvgl/src/themes/default/lv_theme_default.c ****     }
 963:Drivers/lvgl/src/themes/default/lv_theme_default.c **** #endif
 964:Drivers/lvgl/src/themes/default/lv_theme_default.c **** 
 965:Drivers/lvgl/src/themes/default/lv_theme_default.c **** #if LV_USE_ROLLER
 966:Drivers/lvgl/src/themes/default/lv_theme_default.c ****     else if(lv_obj_check_type(obj, &lv_roller_class)) {
 967:Drivers/lvgl/src/themes/default/lv_theme_default.c ****         lv_obj_add_style(obj, &theme->styles.card, 0);
 968:Drivers/lvgl/src/themes/default/lv_theme_default.c ****         lv_obj_add_style(obj, &theme->styles.anim, 0);
 969:Drivers/lvgl/src/themes/default/lv_theme_default.c ****         lv_obj_add_style(obj, &theme->styles.line_space_large, 0);
 970:Drivers/lvgl/src/themes/default/lv_theme_default.c ****         lv_obj_add_style(obj, &theme->styles.text_align_center, 0);
 971:Drivers/lvgl/src/themes/default/lv_theme_default.c ****         lv_obj_add_style(obj, &theme->styles.outline_primary, LV_STATE_FOCUS_KEY);
 972:Drivers/lvgl/src/themes/default/lv_theme_default.c ****         lv_obj_add_style(obj, &theme->styles.outline_secondary, LV_STATE_EDITED);
 973:Drivers/lvgl/src/themes/default/lv_theme_default.c ****         lv_obj_add_style(obj, &theme->styles.bg_color_primary, LV_PART_SELECTED);
 974:Drivers/lvgl/src/themes/default/lv_theme_default.c ****     }
 975:Drivers/lvgl/src/themes/default/lv_theme_default.c **** #endif
 976:Drivers/lvgl/src/themes/default/lv_theme_default.c **** 
 977:Drivers/lvgl/src/themes/default/lv_theme_default.c **** #if LV_USE_DROPDOWN
 978:Drivers/lvgl/src/themes/default/lv_theme_default.c ****     else if(lv_obj_check_type(obj, &lv_dropdown_class)) {
 979:Drivers/lvgl/src/themes/default/lv_theme_default.c ****         lv_obj_add_style(obj, &theme->styles.card, 0);
 980:Drivers/lvgl/src/themes/default/lv_theme_default.c ****         lv_obj_add_style(obj, &theme->styles.pad_small, 0);
 981:Drivers/lvgl/src/themes/default/lv_theme_default.c ****         lv_obj_add_style(obj, &theme->styles.transition_delayed, 0);
 982:Drivers/lvgl/src/themes/default/lv_theme_default.c ****         lv_obj_add_style(obj, &theme->styles.transition_normal, LV_STATE_PRESSED);
 983:Drivers/lvgl/src/themes/default/lv_theme_default.c ****         lv_obj_add_style(obj, &theme->styles.pressed, LV_STATE_PRESSED);
 984:Drivers/lvgl/src/themes/default/lv_theme_default.c ****         lv_obj_add_style(obj, &theme->styles.outline_primary, LV_STATE_FOCUS_KEY);
 985:Drivers/lvgl/src/themes/default/lv_theme_default.c ****         lv_obj_add_style(obj, &theme->styles.outline_secondary, LV_STATE_EDITED);
 986:Drivers/lvgl/src/themes/default/lv_theme_default.c ****         lv_obj_add_style(obj, &theme->styles.transition_normal, LV_PART_INDICATOR);
 987:Drivers/lvgl/src/themes/default/lv_theme_default.c ****         lv_obj_add_style(obj, &theme->styles.disabled, LV_STATE_DISABLED);
 988:Drivers/lvgl/src/themes/default/lv_theme_default.c ****     }
 989:Drivers/lvgl/src/themes/default/lv_theme_default.c ****     else if(lv_obj_check_type(obj, &lv_dropdownlist_class)) {
 990:Drivers/lvgl/src/themes/default/lv_theme_default.c ****         lv_obj_add_style(obj, &theme->styles.card, 0);
ARM GAS  /var/folders/qx/2_175_4n2s19vhvtspjhb3qh0000gn/T//ccFV8cem.s 			page 22


 991:Drivers/lvgl/src/themes/default/lv_theme_default.c ****         lv_obj_add_style(obj, &theme->styles.line_space_large, 0);
 992:Drivers/lvgl/src/themes/default/lv_theme_default.c ****         lv_obj_add_style(obj, &theme->styles.dropdown_list, 0);
 993:Drivers/lvgl/src/themes/default/lv_theme_default.c ****         lv_obj_add_style(obj, &theme->styles.scrollbar, LV_PART_SCROLLBAR);
 994:Drivers/lvgl/src/themes/default/lv_theme_default.c ****         lv_obj_add_style(obj, &theme->styles.scrollbar_scrolled, LV_PART_SCROLLBAR | LV_STATE_SCROL
 995:Drivers/lvgl/src/themes/default/lv_theme_default.c ****         lv_obj_add_style(obj, &theme->styles.bg_color_white, LV_PART_SELECTED);
 996:Drivers/lvgl/src/themes/default/lv_theme_default.c ****         lv_obj_add_style(obj, &theme->styles.bg_color_primary, LV_PART_SELECTED | LV_STATE_CHECKED)
 997:Drivers/lvgl/src/themes/default/lv_theme_default.c ****         lv_obj_add_style(obj, &theme->styles.pressed, LV_PART_SELECTED | LV_STATE_PRESSED);
 998:Drivers/lvgl/src/themes/default/lv_theme_default.c ****     }
 999:Drivers/lvgl/src/themes/default/lv_theme_default.c **** #endif
1000:Drivers/lvgl/src/themes/default/lv_theme_default.c **** 
1001:Drivers/lvgl/src/themes/default/lv_theme_default.c **** #if LV_USE_ARC
1002:Drivers/lvgl/src/themes/default/lv_theme_default.c ****     else if(lv_obj_check_type(obj, &lv_arc_class)) {
1003:Drivers/lvgl/src/themes/default/lv_theme_default.c ****         lv_obj_add_style(obj, &theme->styles.arc_indic, 0);
1004:Drivers/lvgl/src/themes/default/lv_theme_default.c ****         lv_obj_add_style(obj, &theme->styles.arc_indic, LV_PART_INDICATOR);
1005:Drivers/lvgl/src/themes/default/lv_theme_default.c ****         lv_obj_add_style(obj, &theme->styles.arc_indic_primary, LV_PART_INDICATOR);
1006:Drivers/lvgl/src/themes/default/lv_theme_default.c ****         lv_obj_add_style(obj, &theme->styles.knob, LV_PART_KNOB);
1007:Drivers/lvgl/src/themes/default/lv_theme_default.c ****     }
1008:Drivers/lvgl/src/themes/default/lv_theme_default.c **** #endif
1009:Drivers/lvgl/src/themes/default/lv_theme_default.c **** 
1010:Drivers/lvgl/src/themes/default/lv_theme_default.c **** #if LV_USE_SPINNER
1011:Drivers/lvgl/src/themes/default/lv_theme_default.c ****     else if(lv_obj_check_type(obj, &lv_spinner_class)) {
1012:Drivers/lvgl/src/themes/default/lv_theme_default.c ****         lv_obj_add_style(obj, &theme->styles.arc_indic, 0);
1013:Drivers/lvgl/src/themes/default/lv_theme_default.c ****         lv_obj_add_style(obj, &theme->styles.arc_indic, LV_PART_INDICATOR);
1014:Drivers/lvgl/src/themes/default/lv_theme_default.c ****         lv_obj_add_style(obj, &theme->styles.arc_indic_primary, LV_PART_INDICATOR);
1015:Drivers/lvgl/src/themes/default/lv_theme_default.c ****     }
1016:Drivers/lvgl/src/themes/default/lv_theme_default.c **** #endif
1017:Drivers/lvgl/src/themes/default/lv_theme_default.c **** 
1018:Drivers/lvgl/src/themes/default/lv_theme_default.c **** #if LV_USE_TEXTAREA
1019:Drivers/lvgl/src/themes/default/lv_theme_default.c ****     else if(lv_obj_check_type(obj, &lv_textarea_class)) {
1020:Drivers/lvgl/src/themes/default/lv_theme_default.c ****         lv_obj_add_style(obj, &theme->styles.card, 0);
1021:Drivers/lvgl/src/themes/default/lv_theme_default.c ****         lv_obj_add_style(obj, &theme->styles.pad_small, 0);
1022:Drivers/lvgl/src/themes/default/lv_theme_default.c ****         lv_obj_add_style(obj, &theme->styles.disabled, LV_STATE_DISABLED);
1023:Drivers/lvgl/src/themes/default/lv_theme_default.c ****         lv_obj_add_style(obj, &theme->styles.outline_primary, LV_STATE_FOCUS_KEY);
1024:Drivers/lvgl/src/themes/default/lv_theme_default.c ****         lv_obj_add_style(obj, &theme->styles.outline_secondary, LV_STATE_EDITED);
1025:Drivers/lvgl/src/themes/default/lv_theme_default.c ****         lv_obj_add_style(obj, &theme->styles.scrollbar, LV_PART_SCROLLBAR);
1026:Drivers/lvgl/src/themes/default/lv_theme_default.c ****         lv_obj_add_style(obj, &theme->styles.scrollbar_scrolled, LV_PART_SCROLLBAR | LV_STATE_SCROL
1027:Drivers/lvgl/src/themes/default/lv_theme_default.c ****         lv_obj_add_style(obj, &theme->styles.ta_cursor, LV_PART_CURSOR | LV_STATE_FOCUSED);
1028:Drivers/lvgl/src/themes/default/lv_theme_default.c ****         lv_obj_add_style(obj, &theme->styles.ta_placeholder, LV_PART_TEXTAREA_PLACEHOLDER);
1029:Drivers/lvgl/src/themes/default/lv_theme_default.c ****     }
1030:Drivers/lvgl/src/themes/default/lv_theme_default.c **** #endif
1031:Drivers/lvgl/src/themes/default/lv_theme_default.c **** 
1032:Drivers/lvgl/src/themes/default/lv_theme_default.c **** #if LV_USE_CALENDAR
1033:Drivers/lvgl/src/themes/default/lv_theme_default.c ****     else if(lv_obj_check_type(obj, &lv_calendar_class)) {
1034:Drivers/lvgl/src/themes/default/lv_theme_default.c ****         lv_obj_add_style(obj, &theme->styles.card, 0);
1035:Drivers/lvgl/src/themes/default/lv_theme_default.c ****         lv_obj_add_style(obj, &theme->styles.pad_zero, 0);
1036:Drivers/lvgl/src/themes/default/lv_theme_default.c ****     }
1037:Drivers/lvgl/src/themes/default/lv_theme_default.c **** 
1038:Drivers/lvgl/src/themes/default/lv_theme_default.c **** #if LV_USE_CALENDAR_HEADER_ARROW
1039:Drivers/lvgl/src/themes/default/lv_theme_default.c ****     else if(lv_obj_check_type(obj, &lv_calendar_header_arrow_class)) {
1040:Drivers/lvgl/src/themes/default/lv_theme_default.c ****         lv_obj_add_style(obj, &theme->styles.calendar_header, 0);
1041:Drivers/lvgl/src/themes/default/lv_theme_default.c ****     }
1042:Drivers/lvgl/src/themes/default/lv_theme_default.c **** #endif
1043:Drivers/lvgl/src/themes/default/lv_theme_default.c **** 
1044:Drivers/lvgl/src/themes/default/lv_theme_default.c **** #if LV_USE_CALENDAR_HEADER_DROPDOWN
1045:Drivers/lvgl/src/themes/default/lv_theme_default.c ****     else if(lv_obj_check_type(obj, &lv_calendar_header_dropdown_class)) {
1046:Drivers/lvgl/src/themes/default/lv_theme_default.c ****         lv_obj_add_style(obj, &theme->styles.calendar_header, 0);
1047:Drivers/lvgl/src/themes/default/lv_theme_default.c ****     }
ARM GAS  /var/folders/qx/2_175_4n2s19vhvtspjhb3qh0000gn/T//ccFV8cem.s 			page 23


1048:Drivers/lvgl/src/themes/default/lv_theme_default.c **** #endif
1049:Drivers/lvgl/src/themes/default/lv_theme_default.c **** #endif
1050:Drivers/lvgl/src/themes/default/lv_theme_default.c **** 
1051:Drivers/lvgl/src/themes/default/lv_theme_default.c **** #if LV_USE_KEYBOARD
1052:Drivers/lvgl/src/themes/default/lv_theme_default.c ****     else if(lv_obj_check_type(obj, &lv_keyboard_class)) {
1053:Drivers/lvgl/src/themes/default/lv_theme_default.c ****         lv_obj_add_style(obj, &theme->styles.scr, 0);
1054:Drivers/lvgl/src/themes/default/lv_theme_default.c ****         lv_obj_add_style(obj, theme->disp_size == DISP_LARGE ? &theme->styles.pad_small : &theme->s
1055:Drivers/lvgl/src/themes/default/lv_theme_default.c ****         lv_obj_add_style(obj, &theme->styles.outline_primary, LV_STATE_FOCUS_KEY);
1056:Drivers/lvgl/src/themes/default/lv_theme_default.c ****         lv_obj_add_style(obj, &theme->styles.outline_secondary, LV_STATE_EDITED);
1057:Drivers/lvgl/src/themes/default/lv_theme_default.c ****         lv_obj_add_style(obj, &theme->styles.btn, LV_PART_ITEMS);
1058:Drivers/lvgl/src/themes/default/lv_theme_default.c ****         lv_obj_add_style(obj, &theme->styles.disabled, LV_PART_ITEMS | LV_STATE_DISABLED);
1059:Drivers/lvgl/src/themes/default/lv_theme_default.c ****         lv_obj_add_style(obj, &theme->styles.bg_color_white, LV_PART_ITEMS);
1060:Drivers/lvgl/src/themes/default/lv_theme_default.c ****         lv_obj_add_style(obj, &theme->styles.keyboard_button_bg, LV_PART_ITEMS);
1061:Drivers/lvgl/src/themes/default/lv_theme_default.c ****         lv_obj_add_style(obj, &theme->styles.pressed, LV_PART_ITEMS | LV_STATE_PRESSED);
1062:Drivers/lvgl/src/themes/default/lv_theme_default.c ****         lv_obj_add_style(obj, &theme->styles.bg_color_grey, LV_PART_ITEMS | LV_STATE_CHECKED);
1063:Drivers/lvgl/src/themes/default/lv_theme_default.c ****         lv_obj_add_style(obj, &theme->styles.bg_color_primary_muted, LV_PART_ITEMS | LV_STATE_FOCUS
1064:Drivers/lvgl/src/themes/default/lv_theme_default.c ****         lv_obj_add_style(obj, &theme->styles.bg_color_secondary_muted, LV_PART_ITEMS | LV_STATE_EDI
1065:Drivers/lvgl/src/themes/default/lv_theme_default.c ****     }
1066:Drivers/lvgl/src/themes/default/lv_theme_default.c **** #endif
1067:Drivers/lvgl/src/themes/default/lv_theme_default.c **** 
1068:Drivers/lvgl/src/themes/default/lv_theme_default.c **** #if LV_USE_LABEL && LV_USE_TEXTAREA
1069:Drivers/lvgl/src/themes/default/lv_theme_default.c ****     else if(lv_obj_check_type(obj, &lv_label_class) && lv_obj_check_type(parent, &lv_textarea_class
1070:Drivers/lvgl/src/themes/default/lv_theme_default.c ****         lv_obj_add_style(obj, &theme->styles.bg_color_primary, LV_PART_SELECTED);
1071:Drivers/lvgl/src/themes/default/lv_theme_default.c ****     }
1072:Drivers/lvgl/src/themes/default/lv_theme_default.c **** #endif
1073:Drivers/lvgl/src/themes/default/lv_theme_default.c **** 
1074:Drivers/lvgl/src/themes/default/lv_theme_default.c **** #if LV_USE_LIST
1075:Drivers/lvgl/src/themes/default/lv_theme_default.c ****     else if(lv_obj_check_type(obj, &lv_list_class)) {
1076:Drivers/lvgl/src/themes/default/lv_theme_default.c ****         lv_obj_add_style(obj, &theme->styles.card, 0);
1077:Drivers/lvgl/src/themes/default/lv_theme_default.c ****         lv_obj_add_style(obj, &theme->styles.list_bg, 0);
1078:Drivers/lvgl/src/themes/default/lv_theme_default.c ****         lv_obj_add_style(obj, &theme->styles.scrollbar, LV_PART_SCROLLBAR);
1079:Drivers/lvgl/src/themes/default/lv_theme_default.c ****         lv_obj_add_style(obj, &theme->styles.scrollbar_scrolled, LV_PART_SCROLLBAR | LV_STATE_SCROL
1080:Drivers/lvgl/src/themes/default/lv_theme_default.c ****         return;
1081:Drivers/lvgl/src/themes/default/lv_theme_default.c ****     }
1082:Drivers/lvgl/src/themes/default/lv_theme_default.c ****     else if(lv_obj_check_type(obj, &lv_list_text_class)) {
1083:Drivers/lvgl/src/themes/default/lv_theme_default.c ****         lv_obj_add_style(obj, &theme->styles.bg_color_grey, 0);
1084:Drivers/lvgl/src/themes/default/lv_theme_default.c ****         lv_obj_add_style(obj, &theme->styles.list_item_grow, 0);
1085:Drivers/lvgl/src/themes/default/lv_theme_default.c ****     }
1086:Drivers/lvgl/src/themes/default/lv_theme_default.c ****     else if(lv_obj_check_type(obj, &lv_list_button_class)) {
1087:Drivers/lvgl/src/themes/default/lv_theme_default.c ****         lv_obj_add_style(obj, &theme->styles.bg_color_white, 0);
1088:Drivers/lvgl/src/themes/default/lv_theme_default.c ****         lv_obj_add_style(obj, &theme->styles.list_btn, 0);
1089:Drivers/lvgl/src/themes/default/lv_theme_default.c ****         lv_obj_add_style(obj, &theme->styles.bg_color_primary, LV_STATE_FOCUS_KEY);
1090:Drivers/lvgl/src/themes/default/lv_theme_default.c ****         lv_obj_add_style(obj, &theme->styles.list_item_grow, LV_STATE_FOCUS_KEY);
1091:Drivers/lvgl/src/themes/default/lv_theme_default.c ****         lv_obj_add_style(obj, &theme->styles.list_item_grow, LV_STATE_PRESSED);
1092:Drivers/lvgl/src/themes/default/lv_theme_default.c ****         lv_obj_add_style(obj, &theme->styles.pressed, LV_STATE_PRESSED);
1093:Drivers/lvgl/src/themes/default/lv_theme_default.c ****     }
1094:Drivers/lvgl/src/themes/default/lv_theme_default.c **** #endif
1095:Drivers/lvgl/src/themes/default/lv_theme_default.c **** #if LV_USE_MENU
1096:Drivers/lvgl/src/themes/default/lv_theme_default.c ****     else if(lv_obj_check_type(obj, &lv_menu_class)) {
1097:Drivers/lvgl/src/themes/default/lv_theme_default.c ****         lv_obj_add_style(obj, &theme->styles.card, 0);
1098:Drivers/lvgl/src/themes/default/lv_theme_default.c ****         lv_obj_add_style(obj, &theme->styles.menu_bg, 0);
1099:Drivers/lvgl/src/themes/default/lv_theme_default.c ****     }
1100:Drivers/lvgl/src/themes/default/lv_theme_default.c ****     else if(lv_obj_check_type(obj, &lv_menu_sidebar_cont_class)) {
1101:Drivers/lvgl/src/themes/default/lv_theme_default.c ****         lv_obj_add_style(obj, &theme->styles.menu_sidebar_cont, 0);
1102:Drivers/lvgl/src/themes/default/lv_theme_default.c ****         lv_obj_add_style(obj, &theme->styles.scrollbar, LV_PART_SCROLLBAR);
1103:Drivers/lvgl/src/themes/default/lv_theme_default.c ****         lv_obj_add_style(obj, &theme->styles.scrollbar_scrolled, LV_PART_SCROLLBAR | LV_STATE_SCROL
1104:Drivers/lvgl/src/themes/default/lv_theme_default.c ****     }
ARM GAS  /var/folders/qx/2_175_4n2s19vhvtspjhb3qh0000gn/T//ccFV8cem.s 			page 24


1105:Drivers/lvgl/src/themes/default/lv_theme_default.c ****     else if(lv_obj_check_type(obj, &lv_menu_main_cont_class)) {
1106:Drivers/lvgl/src/themes/default/lv_theme_default.c ****         lv_obj_add_style(obj, &theme->styles.menu_main_cont, 0);
1107:Drivers/lvgl/src/themes/default/lv_theme_default.c ****         lv_obj_add_style(obj, &theme->styles.scrollbar, LV_PART_SCROLLBAR);
1108:Drivers/lvgl/src/themes/default/lv_theme_default.c ****         lv_obj_add_style(obj, &theme->styles.scrollbar_scrolled, LV_PART_SCROLLBAR | LV_STATE_SCROL
1109:Drivers/lvgl/src/themes/default/lv_theme_default.c ****     }
1110:Drivers/lvgl/src/themes/default/lv_theme_default.c ****     else if(lv_obj_check_type(obj, &lv_menu_cont_class)) {
1111:Drivers/lvgl/src/themes/default/lv_theme_default.c ****         lv_obj_add_style(obj, &theme->styles.menu_cont, 0);
1112:Drivers/lvgl/src/themes/default/lv_theme_default.c ****         lv_obj_add_style(obj, &theme->styles.menu_pressed, LV_STATE_PRESSED);
1113:Drivers/lvgl/src/themes/default/lv_theme_default.c ****         lv_obj_add_style(obj, &theme->styles.bg_color_primary_muted, LV_STATE_PRESSED | LV_STATE_CH
1114:Drivers/lvgl/src/themes/default/lv_theme_default.c ****         lv_obj_add_style(obj, &theme->styles.bg_color_primary_muted, LV_STATE_CHECKED);
1115:Drivers/lvgl/src/themes/default/lv_theme_default.c ****         lv_obj_add_style(obj, &theme->styles.bg_color_primary, LV_STATE_FOCUS_KEY);
1116:Drivers/lvgl/src/themes/default/lv_theme_default.c ****     }
1117:Drivers/lvgl/src/themes/default/lv_theme_default.c ****     else if(lv_obj_check_type(obj, &lv_menu_sidebar_header_cont_class) ||
1118:Drivers/lvgl/src/themes/default/lv_theme_default.c ****             lv_obj_check_type(obj, &lv_menu_main_header_cont_class)) {
1119:Drivers/lvgl/src/themes/default/lv_theme_default.c ****         lv_obj_add_style(obj, &theme->styles.menu_header_cont, 0);
1120:Drivers/lvgl/src/themes/default/lv_theme_default.c ****     }
1121:Drivers/lvgl/src/themes/default/lv_theme_default.c ****     else if(lv_obj_check_type(obj, &lv_menu_page_class)) {
1122:Drivers/lvgl/src/themes/default/lv_theme_default.c ****         lv_obj_add_style(obj, &theme->styles.menu_page, 0);
1123:Drivers/lvgl/src/themes/default/lv_theme_default.c ****         lv_obj_add_style(obj, &theme->styles.scrollbar, LV_PART_SCROLLBAR);
1124:Drivers/lvgl/src/themes/default/lv_theme_default.c ****         lv_obj_add_style(obj, &theme->styles.scrollbar_scrolled, LV_PART_SCROLLBAR | LV_STATE_SCROL
1125:Drivers/lvgl/src/themes/default/lv_theme_default.c ****     }
1126:Drivers/lvgl/src/themes/default/lv_theme_default.c ****     else if(lv_obj_check_type(obj, &lv_menu_section_class)) {
1127:Drivers/lvgl/src/themes/default/lv_theme_default.c ****         lv_obj_add_style(obj, &theme->styles.menu_section, 0);
1128:Drivers/lvgl/src/themes/default/lv_theme_default.c ****     }
1129:Drivers/lvgl/src/themes/default/lv_theme_default.c ****     else if(lv_obj_check_type(obj, &lv_menu_separator_class)) {
1130:Drivers/lvgl/src/themes/default/lv_theme_default.c ****         lv_obj_add_style(obj, &theme->styles.menu_separator, 0);
1131:Drivers/lvgl/src/themes/default/lv_theme_default.c ****     }
1132:Drivers/lvgl/src/themes/default/lv_theme_default.c **** #endif
1133:Drivers/lvgl/src/themes/default/lv_theme_default.c **** #if LV_USE_MSGBOX
1134:Drivers/lvgl/src/themes/default/lv_theme_default.c ****     else if(lv_obj_check_type(obj, &lv_msgbox_class)) {
1135:Drivers/lvgl/src/themes/default/lv_theme_default.c ****         lv_obj_add_style(obj, &theme->styles.card, 0);
1136:Drivers/lvgl/src/themes/default/lv_theme_default.c ****         lv_obj_add_style(obj, &theme->styles.pad_zero, 0);
1137:Drivers/lvgl/src/themes/default/lv_theme_default.c ****         lv_obj_add_style(obj, &theme->styles.clip_corner, 0);
1138:Drivers/lvgl/src/themes/default/lv_theme_default.c ****         return;
1139:Drivers/lvgl/src/themes/default/lv_theme_default.c ****     }
1140:Drivers/lvgl/src/themes/default/lv_theme_default.c ****     else if(lv_obj_check_type(obj, &lv_msgbox_backdrop_class)) {
1141:Drivers/lvgl/src/themes/default/lv_theme_default.c ****         lv_obj_add_style(obj, &theme->styles.msgbox_backdrop_bg, 0);
1142:Drivers/lvgl/src/themes/default/lv_theme_default.c ****         return;
1143:Drivers/lvgl/src/themes/default/lv_theme_default.c ****     }
1144:Drivers/lvgl/src/themes/default/lv_theme_default.c ****     else if(lv_obj_check_type(obj, &lv_msgbox_header_class)) {
1145:Drivers/lvgl/src/themes/default/lv_theme_default.c ****         lv_obj_add_style(obj, &theme->styles.pad_small, 0);
1146:Drivers/lvgl/src/themes/default/lv_theme_default.c ****         lv_obj_add_style(obj, &theme->styles.bg_color_grey, 0);
1147:Drivers/lvgl/src/themes/default/lv_theme_default.c ****         return;
1148:Drivers/lvgl/src/themes/default/lv_theme_default.c ****     }
1149:Drivers/lvgl/src/themes/default/lv_theme_default.c ****     else if(lv_obj_check_type(obj, &lv_msgbox_footer_class)) {
1150:Drivers/lvgl/src/themes/default/lv_theme_default.c ****         lv_obj_add_style(obj, &theme->styles.pad_small, 0);
1151:Drivers/lvgl/src/themes/default/lv_theme_default.c ****         return;
1152:Drivers/lvgl/src/themes/default/lv_theme_default.c ****     }
1153:Drivers/lvgl/src/themes/default/lv_theme_default.c ****     else if(lv_obj_check_type(obj, &lv_msgbox_content_class)) {
1154:Drivers/lvgl/src/themes/default/lv_theme_default.c ****         lv_obj_add_style(obj, &theme->styles.scrollbar, LV_PART_SCROLLBAR);
1155:Drivers/lvgl/src/themes/default/lv_theme_default.c ****         lv_obj_add_style(obj, &theme->styles.scrollbar_scrolled, LV_PART_SCROLLBAR | LV_STATE_SCROL
1156:Drivers/lvgl/src/themes/default/lv_theme_default.c ****         lv_obj_add_style(obj, &theme->styles.pad_small, 0);
1157:Drivers/lvgl/src/themes/default/lv_theme_default.c ****         return;
1158:Drivers/lvgl/src/themes/default/lv_theme_default.c ****     }
1159:Drivers/lvgl/src/themes/default/lv_theme_default.c ****     else if(lv_obj_check_type(obj, &lv_msgbox_header_button_class) ||
1160:Drivers/lvgl/src/themes/default/lv_theme_default.c ****             lv_obj_check_type(obj, &lv_msgbox_footer_button_class)) {
1161:Drivers/lvgl/src/themes/default/lv_theme_default.c ****         lv_obj_add_style(obj, &theme->styles.btn, 0);
ARM GAS  /var/folders/qx/2_175_4n2s19vhvtspjhb3qh0000gn/T//ccFV8cem.s 			page 25


1162:Drivers/lvgl/src/themes/default/lv_theme_default.c ****         lv_obj_add_style(obj, &theme->styles.bg_color_primary, 0);
1163:Drivers/lvgl/src/themes/default/lv_theme_default.c ****         lv_obj_add_style(obj, &theme->styles.transition_delayed, 0);
1164:Drivers/lvgl/src/themes/default/lv_theme_default.c ****         lv_obj_add_style(obj, &theme->styles.pressed, LV_STATE_PRESSED);
1165:Drivers/lvgl/src/themes/default/lv_theme_default.c ****         lv_obj_add_style(obj, &theme->styles.transition_normal, LV_STATE_PRESSED);
1166:Drivers/lvgl/src/themes/default/lv_theme_default.c ****         lv_obj_add_style(obj, &theme->styles.outline_primary, LV_STATE_FOCUS_KEY);
1167:Drivers/lvgl/src/themes/default/lv_theme_default.c ****         lv_obj_add_style(obj, &theme->styles.bg_color_secondary, LV_STATE_CHECKED);
1168:Drivers/lvgl/src/themes/default/lv_theme_default.c ****         lv_obj_add_style(obj, &theme->styles.disabled, LV_STATE_DISABLED);
1169:Drivers/lvgl/src/themes/default/lv_theme_default.c ****         return;
1170:Drivers/lvgl/src/themes/default/lv_theme_default.c ****     }
1171:Drivers/lvgl/src/themes/default/lv_theme_default.c **** #endif
1172:Drivers/lvgl/src/themes/default/lv_theme_default.c **** 
1173:Drivers/lvgl/src/themes/default/lv_theme_default.c **** #if LV_USE_SPINBOX
1174:Drivers/lvgl/src/themes/default/lv_theme_default.c ****     else if(lv_obj_check_type(obj, &lv_spinbox_class)) {
1175:Drivers/lvgl/src/themes/default/lv_theme_default.c ****         lv_obj_add_style(obj, &theme->styles.card, 0);
1176:Drivers/lvgl/src/themes/default/lv_theme_default.c ****         lv_obj_add_style(obj, &theme->styles.pad_small, 0);
1177:Drivers/lvgl/src/themes/default/lv_theme_default.c ****         lv_obj_add_style(obj, &theme->styles.outline_primary, LV_STATE_FOCUS_KEY);
1178:Drivers/lvgl/src/themes/default/lv_theme_default.c ****         lv_obj_add_style(obj, &theme->styles.outline_secondary, LV_STATE_EDITED);
1179:Drivers/lvgl/src/themes/default/lv_theme_default.c ****         lv_obj_add_style(obj, &theme->styles.bg_color_primary, LV_PART_CURSOR);
1180:Drivers/lvgl/src/themes/default/lv_theme_default.c ****     }
1181:Drivers/lvgl/src/themes/default/lv_theme_default.c **** #endif
1182:Drivers/lvgl/src/themes/default/lv_theme_default.c **** #if LV_USE_TILEVIEW
1183:Drivers/lvgl/src/themes/default/lv_theme_default.c ****     else if(lv_obj_check_type(obj, &lv_tileview_class)) {
1184:Drivers/lvgl/src/themes/default/lv_theme_default.c ****         lv_obj_add_style(obj, &theme->styles.scr, 0);
1185:Drivers/lvgl/src/themes/default/lv_theme_default.c ****         lv_obj_add_style(obj, &theme->styles.scrollbar, LV_PART_SCROLLBAR);
1186:Drivers/lvgl/src/themes/default/lv_theme_default.c ****         lv_obj_add_style(obj, &theme->styles.scrollbar_scrolled, LV_PART_SCROLLBAR | LV_STATE_SCROL
1187:Drivers/lvgl/src/themes/default/lv_theme_default.c ****     }
1188:Drivers/lvgl/src/themes/default/lv_theme_default.c ****     else if(lv_obj_check_type(obj, &lv_tileview_tile_class)) {
1189:Drivers/lvgl/src/themes/default/lv_theme_default.c ****         lv_obj_add_style(obj, &theme->styles.scrollbar, LV_PART_SCROLLBAR);
1190:Drivers/lvgl/src/themes/default/lv_theme_default.c ****         lv_obj_add_style(obj, &theme->styles.scrollbar_scrolled, LV_PART_SCROLLBAR | LV_STATE_SCROL
1191:Drivers/lvgl/src/themes/default/lv_theme_default.c ****     }
1192:Drivers/lvgl/src/themes/default/lv_theme_default.c **** #endif
1193:Drivers/lvgl/src/themes/default/lv_theme_default.c **** 
1194:Drivers/lvgl/src/themes/default/lv_theme_default.c **** #if LV_USE_TABVIEW
1195:Drivers/lvgl/src/themes/default/lv_theme_default.c ****     else if(lv_obj_check_type(obj, &lv_tabview_class)) {
1196:Drivers/lvgl/src/themes/default/lv_theme_default.c ****         lv_obj_add_style(obj, &theme->styles.scr, 0);
1197:Drivers/lvgl/src/themes/default/lv_theme_default.c ****         lv_obj_add_style(obj, &theme->styles.pad_zero, 0);
1198:Drivers/lvgl/src/themes/default/lv_theme_default.c ****     }
1199:Drivers/lvgl/src/themes/default/lv_theme_default.c **** #endif
1200:Drivers/lvgl/src/themes/default/lv_theme_default.c **** 
1201:Drivers/lvgl/src/themes/default/lv_theme_default.c **** #if LV_USE_WIN
1202:Drivers/lvgl/src/themes/default/lv_theme_default.c ****     else if(lv_obj_check_type(obj, &lv_win_class)) {
1203:Drivers/lvgl/src/themes/default/lv_theme_default.c ****         lv_obj_add_style(obj, &theme->styles.clip_corner, 0);
1204:Drivers/lvgl/src/themes/default/lv_theme_default.c ****     }
1205:Drivers/lvgl/src/themes/default/lv_theme_default.c **** #endif
1206:Drivers/lvgl/src/themes/default/lv_theme_default.c **** 
1207:Drivers/lvgl/src/themes/default/lv_theme_default.c **** #if LV_USE_LED
1208:Drivers/lvgl/src/themes/default/lv_theme_default.c ****     else if(lv_obj_check_type(obj, &lv_led_class)) {
1209:Drivers/lvgl/src/themes/default/lv_theme_default.c ****         lv_obj_add_style(obj, &theme->styles.led, 0);
1210:Drivers/lvgl/src/themes/default/lv_theme_default.c ****     }
1211:Drivers/lvgl/src/themes/default/lv_theme_default.c **** #endif
1212:Drivers/lvgl/src/themes/default/lv_theme_default.c **** 
1213:Drivers/lvgl/src/themes/default/lv_theme_default.c **** #if LV_USE_SCALE
1214:Drivers/lvgl/src/themes/default/lv_theme_default.c ****     else if(lv_obj_check_type(obj, &lv_scale_class)) {
1215:Drivers/lvgl/src/themes/default/lv_theme_default.c ****         lv_obj_add_style(obj, &theme->styles.scale, LV_PART_MAIN);
1216:Drivers/lvgl/src/themes/default/lv_theme_default.c ****         lv_obj_add_style(obj, &theme->styles.scale, LV_PART_INDICATOR);
1217:Drivers/lvgl/src/themes/default/lv_theme_default.c ****         lv_obj_add_style(obj, &theme->styles.scale, LV_PART_ITEMS);
1218:Drivers/lvgl/src/themes/default/lv_theme_default.c ****     }
ARM GAS  /var/folders/qx/2_175_4n2s19vhvtspjhb3qh0000gn/T//ccFV8cem.s 			page 26


1219:Drivers/lvgl/src/themes/default/lv_theme_default.c **** #endif
1220:Drivers/lvgl/src/themes/default/lv_theme_default.c **** }
 204              		.loc 1 1220 1 is_stmt 0 view .LVU49
 205 00e4 F8BD     		pop	{r3, r4, r5, r6, r7, pc}
 206              	.LVL25:
 207              	.L62:
 755:Drivers/lvgl/src/themes/default/lv_theme_default.c ****             lv_obj_add_style(obj, &theme->styles.outline_primary, LV_STATE_FOCUS_KEY);
 208              		.loc 1 755 13 is_stmt 1 view .LVU50
 209 00e6 0022     		movs	r2, #0
 210 00e8 05F1B801 		add	r1, r5, #184
 211 00ec 2046     		mov	r0, r4
 212 00ee FFF7FEFF 		bl	lv_obj_add_style
 213              	.LVL26:
 756:Drivers/lvgl/src/themes/default/lv_theme_default.c ****             lv_obj_add_style(obj, &theme->styles.tab_bg_focus, LV_STATE_FOCUS_KEY);
 214              		.loc 1 756 13 view .LVU51
 215 00f2 0422     		movs	r2, #4
 216 00f4 05F59871 		add	r1, r5, #304
 217 00f8 2046     		mov	r0, r4
 218 00fa FFF7FEFF 		bl	lv_obj_add_style
 219              	.LVL27:
 757:Drivers/lvgl/src/themes/default/lv_theme_default.c ****             return;
 220              		.loc 1 757 13 view .LVU52
 221 00fe 0422     		movs	r2, #4
 222 0100 05F54D71 		add	r1, r5, #820
 223 0104 2046     		mov	r0, r4
 224 0106 FFF7FEFF 		bl	lv_obj_add_style
 225              	.LVL28:
 758:Drivers/lvgl/src/themes/default/lv_theme_default.c ****         }
 226              		.loc 1 758 13 view .LVU53
 227 010a EBE7     		b	.L1
 228              	.L63:
 762:Drivers/lvgl/src/themes/default/lv_theme_default.c ****             lv_obj_add_style(obj, &theme->styles.rotary_scroll, 0);
 229              		.loc 1 762 13 view .LVU54
 230 010c 0022     		movs	r2, #0
 231 010e 05F58071 		add	r1, r5, #256
 232 0112 2046     		mov	r0, r4
 233 0114 FFF7FEFF 		bl	lv_obj_add_style
 234              	.LVL29:
 763:Drivers/lvgl/src/themes/default/lv_theme_default.c ****             lv_obj_add_style(obj, &theme->styles.scrollbar, LV_PART_SCROLLBAR);
 235              		.loc 1 763 13 view .LVU55
 236 0118 0022     		movs	r2, #0
 237 011a 05F5B671 		add	r1, r5, #364
 238 011e 2046     		mov	r0, r4
 239 0120 FFF7FEFF 		bl	lv_obj_add_style
 240              	.LVL30:
 764:Drivers/lvgl/src/themes/default/lv_theme_default.c ****             lv_obj_add_style(obj, &theme->styles.scrollbar_scrolled, LV_PART_SCROLLBAR | LV_STATE_S
 241              		.loc 1 764 13 view .LVU56
 242 0124 4FF48032 		mov	r2, #65536
 243 0128 05F14C01 		add	r1, r5, #76
 244 012c 2046     		mov	r0, r4
 245 012e FFF7FEFF 		bl	lv_obj_add_style
 246              	.LVL31:
 765:Drivers/lvgl/src/themes/default/lv_theme_default.c ****             return;
 247              		.loc 1 765 13 view .LVU57
 248 0132 8A4A     		ldr	r2, .L71+20
 249 0134 05F15801 		add	r1, r5, #88
 250 0138 2046     		mov	r0, r4
ARM GAS  /var/folders/qx/2_175_4n2s19vhvtspjhb3qh0000gn/T//ccFV8cem.s 			page 27


 251 013a FFF7FEFF 		bl	lv_obj_add_style
 252              	.LVL32:
 766:Drivers/lvgl/src/themes/default/lv_theme_default.c ****         }
 253              		.loc 1 766 13 view .LVU58
 254 013e D1E7     		b	.L1
 255              	.L64:
 773:Drivers/lvgl/src/themes/default/lv_theme_default.c ****             lv_obj_add_style(obj, &theme->styles.pad_tiny, 0);
 256              		.loc 1 773 13 view .LVU59
 257 0140 0022     		movs	r2, #0
 258 0142 05F1AC01 		add	r1, r5, #172
 259 0146 2046     		mov	r0, r4
 260 0148 FFF7FEFF 		bl	lv_obj_add_style
 261              	.LVL33:
 774:Drivers/lvgl/src/themes/default/lv_theme_default.c ****             return;
 262              		.loc 1 774 13 view .LVU60
 263 014c 0022     		movs	r2, #0
 264 014e 05F1E801 		add	r1, r5, #232
 265 0152 2046     		mov	r0, r4
 266 0154 FFF7FEFF 		bl	lv_obj_add_style
 267              	.LVL34:
 775:Drivers/lvgl/src/themes/default/lv_theme_default.c ****         }
 268              		.loc 1 775 13 view .LVU61
 269 0158 C4E7     		b	.L1
 270              	.L65:
 779:Drivers/lvgl/src/themes/default/lv_theme_default.c ****             lv_obj_add_style(obj, &theme->styles.pad_normal, 0);
 271              		.loc 1 779 13 view .LVU62
 272 015a 0022     		movs	r2, #0
 273 015c 05F14001 		add	r1, r5, #64
 274 0160 2046     		mov	r0, r4
 275 0162 FFF7FEFF 		bl	lv_obj_add_style
 276              	.LVL35:
 780:Drivers/lvgl/src/themes/default/lv_theme_default.c ****             lv_obj_add_style(obj, &theme->styles.scrollbar, LV_PART_SCROLLBAR);
 277              		.loc 1 780 13 view .LVU63
 278 0166 0022     		movs	r2, #0
 279 0168 05F58071 		add	r1, r5, #256
 280 016c 2046     		mov	r0, r4
 281 016e FFF7FEFF 		bl	lv_obj_add_style
 282              	.LVL36:
 781:Drivers/lvgl/src/themes/default/lv_theme_default.c ****             lv_obj_add_style(obj, &theme->styles.scrollbar_scrolled, LV_PART_SCROLLBAR | LV_STATE_S
 283              		.loc 1 781 13 view .LVU64
 284 0172 4FF48032 		mov	r2, #65536
 285 0176 05F14C01 		add	r1, r5, #76
 286 017a 2046     		mov	r0, r4
 287 017c FFF7FEFF 		bl	lv_obj_add_style
 288              	.LVL37:
 782:Drivers/lvgl/src/themes/default/lv_theme_default.c ****             return;
 289              		.loc 1 782 13 view .LVU65
 290 0180 764A     		ldr	r2, .L71+20
 291 0182 05F15801 		add	r1, r5, #88
 292 0186 2046     		mov	r0, r4
 293 0188 FFF7FEFF 		bl	lv_obj_add_style
 294              	.LVL38:
 783:Drivers/lvgl/src/themes/default/lv_theme_default.c ****         }
 295              		.loc 1 783 13 view .LVU66
 296 018c AAE7     		b	.L1
 297              	.L4:
 799:Drivers/lvgl/src/themes/default/lv_theme_default.c **** 
ARM GAS  /var/folders/qx/2_175_4n2s19vhvtspjhb3qh0000gn/T//ccFV8cem.s 			page 28


 298              		.loc 1 799 10 view .LVU67
 799:Drivers/lvgl/src/themes/default/lv_theme_default.c **** 
 299              		.loc 1 799 13 is_stmt 0 view .LVU68
 300 018e 7449     		ldr	r1, .L71+24
 301 0190 2046     		mov	r0, r4
 302 0192 FFF7FEFF 		bl	lv_obj_check_type
 303              	.LVL39:
 799:Drivers/lvgl/src/themes/default/lv_theme_default.c **** 
 304              		.loc 1 799 12 discriminator 1 view .LVU69
 305 0196 0028     		cmp	r0, #0
 306 0198 00F08480 		beq	.L10
 307              	.LBB6:
 802:Drivers/lvgl/src/themes/default/lv_theme_default.c ****         if(tv && lv_obj_get_child(tv, 0) == parent) { /*The button is on the tab view header*/
 308              		.loc 1 802 9 is_stmt 1 view .LVU70
 802:Drivers/lvgl/src/themes/default/lv_theme_default.c ****         if(tv && lv_obj_get_child(tv, 0) == parent) { /*The button is on the tab view header*/
 309              		.loc 1 802 25 is_stmt 0 view .LVU71
 310 019c 3046     		mov	r0, r6
 311 019e FFF7FEFF 		bl	lv_obj_get_parent
 312              	.LVL40:
 803:Drivers/lvgl/src/themes/default/lv_theme_default.c ****             if(lv_obj_check_type(tv, &lv_tabview_class)) {
 313              		.loc 1 803 9 is_stmt 1 view .LVU72
 803:Drivers/lvgl/src/themes/default/lv_theme_default.c ****             if(lv_obj_check_type(tv, &lv_tabview_class)) {
 314              		.loc 1 803 11 is_stmt 0 view .LVU73
 315 01a2 0746     		mov	r7, r0
 316 01a4 20B1     		cbz	r0, .L11
 803:Drivers/lvgl/src/themes/default/lv_theme_default.c ****             if(lv_obj_check_type(tv, &lv_tabview_class)) {
 317              		.loc 1 803 18 discriminator 1 view .LVU74
 318 01a6 0021     		movs	r1, #0
 319 01a8 FFF7FEFF 		bl	lv_obj_get_child
 320              	.LVL41:
 803:Drivers/lvgl/src/themes/default/lv_theme_default.c ****             if(lv_obj_check_type(tv, &lv_tabview_class)) {
 321              		.loc 1 803 15 discriminator 1 view .LVU75
 322 01ac 8642     		cmp	r6, r0
 323 01ae 4ED0     		beq	.L66
 324              	.L11:
 815:Drivers/lvgl/src/themes/default/lv_theme_default.c ****         lv_obj_add_style(obj, &theme->styles.bg_color_primary, 0);
 325              		.loc 1 815 9 is_stmt 1 view .LVU76
 326 01b0 0022     		movs	r2, #0
 327 01b2 05F17001 		add	r1, r5, #112
 328 01b6 2046     		mov	r0, r4
 329 01b8 FFF7FEFF 		bl	lv_obj_add_style
 330              	.LVL42:
 816:Drivers/lvgl/src/themes/default/lv_theme_default.c ****         lv_obj_add_style(obj, &theme->styles.transition_delayed, 0);
 331              		.loc 1 816 9 view .LVU77
 332 01bc 0022     		movs	r2, #0
 333 01be 05F17C01 		add	r1, r5, #124
 334 01c2 2046     		mov	r0, r4
 335 01c4 FFF7FEFF 		bl	lv_obj_add_style
 336              	.LVL43:
 817:Drivers/lvgl/src/themes/default/lv_theme_default.c ****         lv_obj_add_style(obj, &theme->styles.pressed, LV_STATE_PRESSED);
 337              		.loc 1 817 9 view .LVU78
 338 01c8 0022     		movs	r2, #0
 339 01ca 05F5C271 		add	r1, r5, #388
 340 01ce 2046     		mov	r0, r4
 341 01d0 FFF7FEFF 		bl	lv_obj_add_style
 342              	.LVL44:
 818:Drivers/lvgl/src/themes/default/lv_theme_default.c ****         lv_obj_add_style(obj, &theme->styles.transition_normal, LV_STATE_PRESSED);
ARM GAS  /var/folders/qx/2_175_4n2s19vhvtspjhb3qh0000gn/T//ccFV8cem.s 			page 29


 343              		.loc 1 818 9 view .LVU79
 344 01d4 2022     		movs	r2, #32
 345 01d6 05F1C401 		add	r1, r5, #196
 346 01da 2046     		mov	r0, r4
 347 01dc FFF7FEFF 		bl	lv_obj_add_style
 348              	.LVL45:
 819:Drivers/lvgl/src/themes/default/lv_theme_default.c ****         lv_obj_add_style(obj, &theme->styles.outline_primary, LV_STATE_FOCUS_KEY);
 349              		.loc 1 819 9 view .LVU80
 350 01e0 2022     		movs	r2, #32
 351 01e2 05F5C871 		add	r1, r5, #400
 352 01e6 2046     		mov	r0, r4
 353 01e8 FFF7FEFF 		bl	lv_obj_add_style
 354              	.LVL46:
 820:Drivers/lvgl/src/themes/default/lv_theme_default.c **** #if LV_THEME_DEFAULT_GROW
 355              		.loc 1 820 9 view .LVU81
 356 01ec 0422     		movs	r2, #4
 357 01ee 05F59871 		add	r1, r5, #304
 358 01f2 2046     		mov	r0, r4
 359 01f4 FFF7FEFF 		bl	lv_obj_add_style
 360              	.LVL47:
 822:Drivers/lvgl/src/themes/default/lv_theme_default.c **** #endif
 361              		.loc 1 822 9 view .LVU82
 362 01f8 2022     		movs	r2, #32
 363 01fa 05F5BC71 		add	r1, r5, #376
 364 01fe 2046     		mov	r0, r4
 365 0200 FFF7FEFF 		bl	lv_obj_add_style
 366              	.LVL48:
 824:Drivers/lvgl/src/themes/default/lv_theme_default.c ****         lv_obj_add_style(obj, &theme->styles.disabled, LV_STATE_DISABLED);
 367              		.loc 1 824 9 view .LVU83
 368 0204 0122     		movs	r2, #1
 369 0206 05F19401 		add	r1, r5, #148
 370 020a 2046     		mov	r0, r4
 371 020c FFF7FEFF 		bl	lv_obj_add_style
 372              	.LVL49:
 825:Drivers/lvgl/src/themes/default/lv_theme_default.c **** 
 373              		.loc 1 825 9 view .LVU84
 374 0210 8022     		movs	r2, #128
 375 0212 05F1D001 		add	r1, r5, #208
 376 0216 2046     		mov	r0, r4
 377 0218 FFF7FEFF 		bl	lv_obj_add_style
 378              	.LVL50:
 828:Drivers/lvgl/src/themes/default/lv_theme_default.c ****            lv_obj_check_type(parent, &lv_menu_main_header_cont_class)) {
 379              		.loc 1 828 9 view .LVU85
 828:Drivers/lvgl/src/themes/default/lv_theme_default.c ****            lv_obj_check_type(parent, &lv_menu_main_header_cont_class)) {
 380              		.loc 1 828 12 is_stmt 0 view .LVU86
 381 021c 5149     		ldr	r1, .L71+28
 382 021e 3046     		mov	r0, r6
 383 0220 FFF7FEFF 		bl	lv_obj_check_type
 384              	.LVL51:
 828:Drivers/lvgl/src/themes/default/lv_theme_default.c ****            lv_obj_check_type(parent, &lv_menu_main_header_cont_class)) {
 385              		.loc 1 828 11 discriminator 1 view .LVU87
 386 0224 30B9     		cbnz	r0, .L12
 829:Drivers/lvgl/src/themes/default/lv_theme_default.c ****             lv_obj_add_style(obj, &theme->styles.menu_header_btn, 0);
 387              		.loc 1 829 12 view .LVU88
 388 0226 5049     		ldr	r1, .L71+32
 389 0228 3046     		mov	r0, r6
 390 022a FFF7FEFF 		bl	lv_obj_check_type
ARM GAS  /var/folders/qx/2_175_4n2s19vhvtspjhb3qh0000gn/T//ccFV8cem.s 			page 30


 391              	.LVL52:
 828:Drivers/lvgl/src/themes/default/lv_theme_default.c ****            lv_obj_check_type(parent, &lv_menu_main_header_cont_class)) {
 392              		.loc 1 828 74 discriminator 1 view .LVU89
 393 022e 0028     		cmp	r0, #0
 394 0230 3FF458AF 		beq	.L1
 395              	.L12:
 830:Drivers/lvgl/src/themes/default/lv_theme_default.c ****             lv_obj_add_style(obj, &theme->styles.menu_pressed, LV_STATE_PRESSED);
 396              		.loc 1 830 13 is_stmt 1 view .LVU90
 397 0234 0022     		movs	r2, #0
 398 0236 05F53271 		add	r1, r5, #712
 399 023a 2046     		mov	r0, r4
 400 023c FFF7FEFF 		bl	lv_obj_add_style
 401              	.LVL53:
 831:Drivers/lvgl/src/themes/default/lv_theme_default.c ****         }
 402              		.loc 1 831 13 view .LVU91
 403 0240 2022     		movs	r2, #32
 404 0242 05F53871 		add	r1, r5, #736
 405 0246 2046     		mov	r0, r4
 406 0248 FFF7FEFF 		bl	lv_obj_add_style
 407              	.LVL54:
 408 024c 4AE7     		b	.L1
 409              	.L66:
 804:Drivers/lvgl/src/themes/default/lv_theme_default.c ****                 lv_obj_add_style(obj, &theme->styles.pressed, LV_STATE_PRESSED);
 410              		.loc 1 804 13 view .LVU92
 804:Drivers/lvgl/src/themes/default/lv_theme_default.c ****                 lv_obj_add_style(obj, &theme->styles.pressed, LV_STATE_PRESSED);
 411              		.loc 1 804 16 is_stmt 0 view .LVU93
 412 024e 4049     		ldr	r1, .L71+8
 413 0250 3846     		mov	r0, r7
 414 0252 FFF7FEFF 		bl	lv_obj_check_type
 415              	.LVL55:
 804:Drivers/lvgl/src/themes/default/lv_theme_default.c ****                 lv_obj_add_style(obj, &theme->styles.pressed, LV_STATE_PRESSED);
 416              		.loc 1 804 15 discriminator 1 view .LVU94
 417 0256 0028     		cmp	r0, #0
 418 0258 AAD0     		beq	.L11
 805:Drivers/lvgl/src/themes/default/lv_theme_default.c ****                 lv_obj_add_style(obj, &theme->styles.bg_color_primary_muted, LV_STATE_CHECKED);
 419              		.loc 1 805 17 is_stmt 1 view .LVU95
 420 025a 2022     		movs	r2, #32
 421 025c 05F1C401 		add	r1, r5, #196
 422 0260 2046     		mov	r0, r4
 423 0262 FFF7FEFF 		bl	lv_obj_add_style
 424              	.LVL56:
 806:Drivers/lvgl/src/themes/default/lv_theme_default.c ****                 lv_obj_add_style(obj, &theme->styles.tab_btn, LV_STATE_CHECKED);
 425              		.loc 1 806 17 view .LVU96
 426 0266 0122     		movs	r2, #1
 427 0268 05F18801 		add	r1, r5, #136
 428 026c 2046     		mov	r0, r4
 429 026e FFF7FEFF 		bl	lv_obj_add_style
 430              	.LVL57:
 807:Drivers/lvgl/src/themes/default/lv_theme_default.c ****                 lv_obj_add_style(obj, &theme->styles.outline_primary, LV_STATE_FOCUS_KEY);
 431              		.loc 1 807 17 view .LVU97
 432 0272 0122     		movs	r2, #1
 433 0274 05F55071 		add	r1, r5, #832
 434 0278 2046     		mov	r0, r4
 435 027a FFF7FEFF 		bl	lv_obj_add_style
 436              	.LVL58:
 808:Drivers/lvgl/src/themes/default/lv_theme_default.c ****                 lv_obj_add_style(obj, &theme->styles.outline_secondary, LV_STATE_EDITED);
 437              		.loc 1 808 17 view .LVU98
ARM GAS  /var/folders/qx/2_175_4n2s19vhvtspjhb3qh0000gn/T//ccFV8cem.s 			page 31


 438 027e 0422     		movs	r2, #4
 439 0280 05F59871 		add	r1, r5, #304
 440 0284 2046     		mov	r0, r4
 441 0286 FFF7FEFF 		bl	lv_obj_add_style
 442              	.LVL59:
 809:Drivers/lvgl/src/themes/default/lv_theme_default.c ****                 lv_obj_add_style(obj, &theme->styles.tab_bg_focus, LV_STATE_FOCUS_KEY);
 443              		.loc 1 809 17 view .LVU99
 444 028a 0822     		movs	r2, #8
 445 028c 05F59E71 		add	r1, r5, #316
 446 0290 2046     		mov	r0, r4
 447 0292 FFF7FEFF 		bl	lv_obj_add_style
 448              	.LVL60:
 810:Drivers/lvgl/src/themes/default/lv_theme_default.c ****                 return;
 449              		.loc 1 810 17 view .LVU100
 450 0296 0422     		movs	r2, #4
 451 0298 05F54D71 		add	r1, r5, #820
 452 029c 2046     		mov	r0, r4
 453 029e FFF7FEFF 		bl	lv_obj_add_style
 454              	.LVL61:
 811:Drivers/lvgl/src/themes/default/lv_theme_default.c ****             }
 455              		.loc 1 811 17 view .LVU101
 456 02a2 1FE7     		b	.L1
 457              	.LVL62:
 458              	.L10:
 811:Drivers/lvgl/src/themes/default/lv_theme_default.c ****             }
 459              		.loc 1 811 17 is_stmt 0 view .LVU102
 460              	.LBE6:
 838:Drivers/lvgl/src/themes/default/lv_theme_default.c ****         lv_obj_add_style(obj, &theme->styles.line, 0);
 461              		.loc 1 838 10 is_stmt 1 view .LVU103
 838:Drivers/lvgl/src/themes/default/lv_theme_default.c ****         lv_obj_add_style(obj, &theme->styles.line, 0);
 462              		.loc 1 838 13 is_stmt 0 view .LVU104
 463 02a4 3149     		ldr	r1, .L71+36
 464 02a6 2046     		mov	r0, r4
 465 02a8 FFF7FEFF 		bl	lv_obj_check_type
 466              	.LVL63:
 838:Drivers/lvgl/src/themes/default/lv_theme_default.c ****         lv_obj_add_style(obj, &theme->styles.line, 0);
 467              		.loc 1 838 12 discriminator 1 view .LVU105
 468 02ac 30B1     		cbz	r0, .L13
 839:Drivers/lvgl/src/themes/default/lv_theme_default.c ****     }
 469              		.loc 1 839 9 is_stmt 1 view .LVU106
 470 02ae 0022     		movs	r2, #0
 471 02b0 05F50B71 		add	r1, r5, #556
 472 02b4 2046     		mov	r0, r4
 473 02b6 FFF7FEFF 		bl	lv_obj_add_style
 474              	.LVL64:
 475 02ba 13E7     		b	.L1
 476              	.L13:
 844:Drivers/lvgl/src/themes/default/lv_theme_default.c **** 
 477              		.loc 1 844 10 view .LVU107
 844:Drivers/lvgl/src/themes/default/lv_theme_default.c **** 
 478              		.loc 1 844 13 is_stmt 0 view .LVU108
 479 02bc 2C49     		ldr	r1, .L71+40
 480 02be 2046     		mov	r0, r4
 481 02c0 FFF7FEFF 		bl	lv_obj_check_type
 482              	.LVL65:
 844:Drivers/lvgl/src/themes/default/lv_theme_default.c **** 
 483              		.loc 1 844 12 discriminator 1 view .LVU109
ARM GAS  /var/folders/qx/2_175_4n2s19vhvtspjhb3qh0000gn/T//ccFV8cem.s 			page 32


 484 02c4 0028     		cmp	r0, #0
 485 02c6 00F09180 		beq	.L14
 847:Drivers/lvgl/src/themes/default/lv_theme_default.c ****             lv_obj_add_style(obj, &theme->styles.calendar_btnm_bg, 0);
 486              		.loc 1 847 9 is_stmt 1 view .LVU110
 847:Drivers/lvgl/src/themes/default/lv_theme_default.c ****             lv_obj_add_style(obj, &theme->styles.calendar_btnm_bg, 0);
 487              		.loc 1 847 12 is_stmt 0 view .LVU111
 488 02ca 2349     		ldr	r1, .L71+16
 489 02cc 3046     		mov	r0, r6
 490 02ce FFF7FEFF 		bl	lv_obj_check_type
 491              	.LVL66:
 847:Drivers/lvgl/src/themes/default/lv_theme_default.c ****             lv_obj_add_style(obj, &theme->styles.calendar_btnm_bg, 0);
 492              		.loc 1 847 11 discriminator 1 view .LVU112
 493 02d2 0028     		cmp	r0, #0
 494 02d4 58D1     		bne	.L67
 859:Drivers/lvgl/src/themes/default/lv_theme_default.c ****         lv_obj_add_style(obj, &theme->styles.outline_primary, LV_STATE_FOCUS_KEY);
 495              		.loc 1 859 9 is_stmt 1 view .LVU113
 496 02d6 0022     		movs	r2, #0
 497 02d8 05F16401 		add	r1, r5, #100
 498 02dc 2046     		mov	r0, r4
 499 02de FFF7FEFF 		bl	lv_obj_add_style
 500              	.LVL67:
 860:Drivers/lvgl/src/themes/default/lv_theme_default.c ****         lv_obj_add_style(obj, &theme->styles.outline_secondary, LV_STATE_EDITED);
 501              		.loc 1 860 9 view .LVU114
 860:Drivers/lvgl/src/themes/default/lv_theme_default.c ****         lv_obj_add_style(obj, &theme->styles.outline_secondary, LV_STATE_EDITED);
 502              		.loc 1 860 31 is_stmt 0 view .LVU115
 503 02e2 05F59877 		add	r7, r5, #304
 860:Drivers/lvgl/src/themes/default/lv_theme_default.c ****         lv_obj_add_style(obj, &theme->styles.outline_secondary, LV_STATE_EDITED);
 504              		.loc 1 860 9 view .LVU116
 505 02e6 0422     		movs	r2, #4
 506 02e8 3946     		mov	r1, r7
 507 02ea 2046     		mov	r0, r4
 508 02ec FFF7FEFF 		bl	lv_obj_add_style
 509              	.LVL68:
 861:Drivers/lvgl/src/themes/default/lv_theme_default.c ****         lv_obj_add_style(obj, &theme->styles.btn, LV_PART_ITEMS);
 510              		.loc 1 861 9 is_stmt 1 view .LVU117
 861:Drivers/lvgl/src/themes/default/lv_theme_default.c ****         lv_obj_add_style(obj, &theme->styles.btn, LV_PART_ITEMS);
 511              		.loc 1 861 31 is_stmt 0 view .LVU118
 512 02f0 05F59E76 		add	r6, r5, #316
 513              	.LVL69:
 861:Drivers/lvgl/src/themes/default/lv_theme_default.c ****         lv_obj_add_style(obj, &theme->styles.btn, LV_PART_ITEMS);
 514              		.loc 1 861 9 view .LVU119
 515 02f4 0822     		movs	r2, #8
 516 02f6 3146     		mov	r1, r6
 517 02f8 2046     		mov	r0, r4
 518 02fa FFF7FEFF 		bl	lv_obj_add_style
 519              	.LVL70:
 862:Drivers/lvgl/src/themes/default/lv_theme_default.c ****         lv_obj_add_style(obj, &theme->styles.disabled, LV_PART_ITEMS | LV_STATE_DISABLED);
 520              		.loc 1 862 9 is_stmt 1 view .LVU120
 521 02fe 4FF4A022 		mov	r2, #327680
 522 0302 05F17001 		add	r1, r5, #112
 523 0306 2046     		mov	r0, r4
 524 0308 FFF7FEFF 		bl	lv_obj_add_style
 525              	.LVL71:
 863:Drivers/lvgl/src/themes/default/lv_theme_default.c ****         lv_obj_add_style(obj, &theme->styles.pressed, LV_PART_ITEMS | LV_STATE_PRESSED);
 526              		.loc 1 863 9 view .LVU121
 527 030c 194A     		ldr	r2, .L71+44
 528 030e 05F1D001 		add	r1, r5, #208
ARM GAS  /var/folders/qx/2_175_4n2s19vhvtspjhb3qh0000gn/T//ccFV8cem.s 			page 33


 529 0312 2046     		mov	r0, r4
 530 0314 FFF7FEFF 		bl	lv_obj_add_style
 531              	.LVL72:
 864:Drivers/lvgl/src/themes/default/lv_theme_default.c ****         lv_obj_add_style(obj, &theme->styles.bg_color_primary, LV_PART_ITEMS | LV_STATE_CHECKED);
 532              		.loc 1 864 9 view .LVU122
 533 0318 174A     		ldr	r2, .L71+48
 534 031a 05F1C401 		add	r1, r5, #196
 535 031e 2046     		mov	r0, r4
 536 0320 FFF7FEFF 		bl	lv_obj_add_style
 537              	.LVL73:
 865:Drivers/lvgl/src/themes/default/lv_theme_default.c ****         lv_obj_add_style(obj, &theme->styles.outline_primary, LV_PART_ITEMS | LV_STATE_FOCUS_KEY);
 538              		.loc 1 865 9 view .LVU123
 539 0324 154A     		ldr	r2, .L71+52
 540 0326 05F17C01 		add	r1, r5, #124
 541 032a 2046     		mov	r0, r4
 542 032c FFF7FEFF 		bl	lv_obj_add_style
 543              	.LVL74:
 866:Drivers/lvgl/src/themes/default/lv_theme_default.c ****         lv_obj_add_style(obj, &theme->styles.outline_secondary, LV_PART_ITEMS | LV_STATE_EDITED);
 544              		.loc 1 866 9 view .LVU124
 545 0330 134A     		ldr	r2, .L71+56
 546 0332 3946     		mov	r1, r7
 547 0334 2046     		mov	r0, r4
 548 0336 FFF7FEFF 		bl	lv_obj_add_style
 549              	.LVL75:
 867:Drivers/lvgl/src/themes/default/lv_theme_default.c ****     }
 550              		.loc 1 867 9 view .LVU125
 551 033a 124A     		ldr	r2, .L71+60
 552 033c 3146     		mov	r1, r6
 553 033e 2046     		mov	r0, r4
 554 0340 FFF7FEFF 		bl	lv_obj_add_style
 555              	.LVL76:
 556 0344 CEE6     		b	.L1
 557              	.L72:
 558 0346 00BF     		.align	2
 559              	.L71:
 560 0348 00000000 		.word	lv_global
 561 034c 00000000 		.word	lv_obj_class
 562 0350 00000000 		.word	lv_tabview_class
 563 0354 00000000 		.word	lv_win_class
 564 0358 00000000 		.word	lv_calendar_class
 565 035c 40000100 		.word	65600
 566 0360 00000000 		.word	lv_button_class
 567 0364 00000000 		.word	lv_menu_sidebar_header_cont_class
 568 0368 00000000 		.word	lv_menu_main_header_cont_class
 569 036c 00000000 		.word	lv_line_class
 570 0370 00000000 		.word	lv_buttonmatrix_class
 571 0374 80000500 		.word	327808
 572 0378 20000500 		.word	327712
 573 037c 01000500 		.word	327681
 574 0380 04000500 		.word	327684
 575 0384 08000500 		.word	327688
 576              	.LVL77:
 577              	.L67:
 848:Drivers/lvgl/src/themes/default/lv_theme_default.c ****             lv_obj_add_style(obj, &theme->styles.outline_primary, LV_STATE_FOCUS_KEY);
 578              		.loc 1 848 13 view .LVU126
 579 0388 0022     		movs	r2, #0
 580 038a 05F51771 		add	r1, r5, #604
ARM GAS  /var/folders/qx/2_175_4n2s19vhvtspjhb3qh0000gn/T//ccFV8cem.s 			page 34


 581 038e 2046     		mov	r0, r4
 582 0390 FFF7FEFF 		bl	lv_obj_add_style
 583              	.LVL78:
 849:Drivers/lvgl/src/themes/default/lv_theme_default.c ****             lv_obj_add_style(obj, &theme->styles.outline_secondary, LV_STATE_EDITED);
 584              		.loc 1 849 13 view .LVU127
 849:Drivers/lvgl/src/themes/default/lv_theme_default.c ****             lv_obj_add_style(obj, &theme->styles.outline_secondary, LV_STATE_EDITED);
 585              		.loc 1 849 35 is_stmt 0 view .LVU128
 586 0394 05F59877 		add	r7, r5, #304
 849:Drivers/lvgl/src/themes/default/lv_theme_default.c ****             lv_obj_add_style(obj, &theme->styles.outline_secondary, LV_STATE_EDITED);
 587              		.loc 1 849 13 view .LVU129
 588 0398 0422     		movs	r2, #4
 589 039a 3946     		mov	r1, r7
 590 039c 2046     		mov	r0, r4
 591 039e FFF7FEFF 		bl	lv_obj_add_style
 592              	.LVL79:
 850:Drivers/lvgl/src/themes/default/lv_theme_default.c ****             lv_obj_add_style(obj, &theme->styles.calendar_btnm_day, LV_PART_ITEMS);
 593              		.loc 1 850 13 is_stmt 1 view .LVU130
 850:Drivers/lvgl/src/themes/default/lv_theme_default.c ****             lv_obj_add_style(obj, &theme->styles.calendar_btnm_day, LV_PART_ITEMS);
 594              		.loc 1 850 35 is_stmt 0 view .LVU131
 595 03a2 05F59E76 		add	r6, r5, #316
 596              	.LVL80:
 850:Drivers/lvgl/src/themes/default/lv_theme_default.c ****             lv_obj_add_style(obj, &theme->styles.calendar_btnm_day, LV_PART_ITEMS);
 597              		.loc 1 850 13 view .LVU132
 598 03a6 0822     		movs	r2, #8
 599 03a8 3146     		mov	r1, r6
 600 03aa 2046     		mov	r0, r4
 601 03ac FFF7FEFF 		bl	lv_obj_add_style
 602              	.LVL81:
 851:Drivers/lvgl/src/themes/default/lv_theme_default.c ****             lv_obj_add_style(obj, &theme->styles.pressed, LV_PART_ITEMS | LV_STATE_PRESSED);
 603              		.loc 1 851 13 is_stmt 1 view .LVU133
 604 03b0 4FF4A022 		mov	r2, #327680
 605 03b4 05F51A71 		add	r1, r5, #616
 606 03b8 2046     		mov	r0, r4
 607 03ba FFF7FEFF 		bl	lv_obj_add_style
 608              	.LVL82:
 852:Drivers/lvgl/src/themes/default/lv_theme_default.c ****             lv_obj_add_style(obj, &theme->styles.disabled, LV_PART_ITEMS | LV_STATE_DISABLED);
 609              		.loc 1 852 13 view .LVU134
 610 03be DD4A     		ldr	r2, .L73
 611 03c0 05F1C401 		add	r1, r5, #196
 612 03c4 2046     		mov	r0, r4
 613 03c6 FFF7FEFF 		bl	lv_obj_add_style
 614              	.LVL83:
 853:Drivers/lvgl/src/themes/default/lv_theme_default.c ****             lv_obj_add_style(obj, &theme->styles.outline_primary, LV_PART_ITEMS | LV_STATE_FOCUS_KE
 615              		.loc 1 853 13 view .LVU135
 616 03ca DB4A     		ldr	r2, .L73+4
 617 03cc 05F1D001 		add	r1, r5, #208
 618 03d0 2046     		mov	r0, r4
 619 03d2 FFF7FEFF 		bl	lv_obj_add_style
 620              	.LVL84:
 854:Drivers/lvgl/src/themes/default/lv_theme_default.c ****             lv_obj_add_style(obj, &theme->styles.outline_secondary, LV_PART_ITEMS | LV_STATE_EDITED
 621              		.loc 1 854 13 view .LVU136
 622 03d6 D94A     		ldr	r2, .L73+8
 623 03d8 3946     		mov	r1, r7
 624 03da 2046     		mov	r0, r4
 625 03dc FFF7FEFF 		bl	lv_obj_add_style
 626              	.LVL85:
 855:Drivers/lvgl/src/themes/default/lv_theme_default.c ****             return;
ARM GAS  /var/folders/qx/2_175_4n2s19vhvtspjhb3qh0000gn/T//ccFV8cem.s 			page 35


 627              		.loc 1 855 13 view .LVU137
 628 03e0 D74A     		ldr	r2, .L73+12
 629 03e2 3146     		mov	r1, r6
 630 03e4 2046     		mov	r0, r4
 631 03e6 FFF7FEFF 		bl	lv_obj_add_style
 632              	.LVL86:
 856:Drivers/lvgl/src/themes/default/lv_theme_default.c ****         }
 633              		.loc 1 856 13 view .LVU138
 634 03ea 7BE6     		b	.L1
 635              	.LVL87:
 636              	.L14:
 872:Drivers/lvgl/src/themes/default/lv_theme_default.c ****         lv_obj_add_style(obj, &theme->styles.bg_color_primary_muted, 0);
 637              		.loc 1 872 10 view .LVU139
 872:Drivers/lvgl/src/themes/default/lv_theme_default.c ****         lv_obj_add_style(obj, &theme->styles.bg_color_primary_muted, 0);
 638              		.loc 1 872 13 is_stmt 0 view .LVU140
 639 03ec D549     		ldr	r1, .L73+16
 640 03ee 2046     		mov	r0, r4
 641 03f0 FFF7FEFF 		bl	lv_obj_check_type
 642              	.LVL88:
 872:Drivers/lvgl/src/themes/default/lv_theme_default.c ****         lv_obj_add_style(obj, &theme->styles.bg_color_primary_muted, 0);
 643              		.loc 1 872 12 discriminator 1 view .LVU141
 644 03f4 30B3     		cbz	r0, .L16
 873:Drivers/lvgl/src/themes/default/lv_theme_default.c ****         lv_obj_add_style(obj, &theme->styles.circle, 0);
 645              		.loc 1 873 9 is_stmt 1 view .LVU142
 646 03f6 0022     		movs	r2, #0
 647 03f8 05F18801 		add	r1, r5, #136
 648 03fc 2046     		mov	r0, r4
 649 03fe FFF7FEFF 		bl	lv_obj_add_style
 650              	.LVL89:
 874:Drivers/lvgl/src/themes/default/lv_theme_default.c ****         lv_obj_add_style(obj, &theme->styles.outline_primary, LV_STATE_FOCUS_KEY);
 651              		.loc 1 874 9 view .LVU143
 874:Drivers/lvgl/src/themes/default/lv_theme_default.c ****         lv_obj_add_style(obj, &theme->styles.outline_primary, LV_STATE_FOCUS_KEY);
 652              		.loc 1 874 31 is_stmt 0 view .LVU144
 653 0402 05F5A476 		add	r6, r5, #328
 654              	.LVL90:
 874:Drivers/lvgl/src/themes/default/lv_theme_default.c ****         lv_obj_add_style(obj, &theme->styles.outline_primary, LV_STATE_FOCUS_KEY);
 655              		.loc 1 874 9 view .LVU145
 656 0406 0022     		movs	r2, #0
 657 0408 3146     		mov	r1, r6
 658 040a 2046     		mov	r0, r4
 659 040c FFF7FEFF 		bl	lv_obj_add_style
 660              	.LVL91:
 875:Drivers/lvgl/src/themes/default/lv_theme_default.c ****         lv_obj_add_style(obj, &theme->styles.outline_secondary, LV_STATE_EDITED);
 661              		.loc 1 875 9 is_stmt 1 view .LVU146
 662 0410 0422     		movs	r2, #4
 663 0412 05F59871 		add	r1, r5, #304
 664 0416 2046     		mov	r0, r4
 665 0418 FFF7FEFF 		bl	lv_obj_add_style
 666              	.LVL92:
 876:Drivers/lvgl/src/themes/default/lv_theme_default.c ****         lv_obj_add_style(obj, &theme->styles.bg_color_primary, LV_PART_INDICATOR);
 667              		.loc 1 876 9 view .LVU147
 668 041c 0822     		movs	r2, #8
 669 041e 05F59E71 		add	r1, r5, #316
 670 0422 2046     		mov	r0, r4
 671 0424 FFF7FEFF 		bl	lv_obj_add_style
 672              	.LVL93:
 877:Drivers/lvgl/src/themes/default/lv_theme_default.c ****         lv_obj_add_style(obj, &theme->styles.circle, LV_PART_INDICATOR);
ARM GAS  /var/folders/qx/2_175_4n2s19vhvtspjhb3qh0000gn/T//ccFV8cem.s 			page 36


 673              		.loc 1 877 9 view .LVU148
 674 0428 4FF40032 		mov	r2, #131072
 675 042c 05F17C01 		add	r1, r5, #124
 676 0430 2046     		mov	r0, r4
 677 0432 FFF7FEFF 		bl	lv_obj_add_style
 678              	.LVL94:
 878:Drivers/lvgl/src/themes/default/lv_theme_default.c ****     }
 679              		.loc 1 878 9 view .LVU149
 680 0436 4FF40032 		mov	r2, #131072
 681 043a 3146     		mov	r1, r6
 682 043c 2046     		mov	r0, r4
 683 043e FFF7FEFF 		bl	lv_obj_add_style
 684              	.LVL95:
 685 0442 4FE6     		b	.L1
 686              	.LVL96:
 687              	.L16:
 883:Drivers/lvgl/src/themes/default/lv_theme_default.c ****         lv_obj_add_style(obj, &theme->styles.bg_color_primary_muted, 0);
 688              		.loc 1 883 10 view .LVU150
 883:Drivers/lvgl/src/themes/default/lv_theme_default.c ****         lv_obj_add_style(obj, &theme->styles.bg_color_primary_muted, 0);
 689              		.loc 1 883 13 is_stmt 0 view .LVU151
 690 0444 C049     		ldr	r1, .L73+20
 691 0446 2046     		mov	r0, r4
 692 0448 FFF7FEFF 		bl	lv_obj_check_type
 693              	.LVL97:
 883:Drivers/lvgl/src/themes/default/lv_theme_default.c ****         lv_obj_add_style(obj, &theme->styles.bg_color_primary_muted, 0);
 694              		.loc 1 883 12 discriminator 1 view .LVU152
 695 044c 0028     		cmp	r0, #0
 696 044e 41D0     		beq	.L17
 884:Drivers/lvgl/src/themes/default/lv_theme_default.c ****         lv_obj_add_style(obj, &theme->styles.circle, 0);
 697              		.loc 1 884 9 is_stmt 1 view .LVU153
 698 0450 0022     		movs	r2, #0
 699 0452 05F18801 		add	r1, r5, #136
 700 0456 2046     		mov	r0, r4
 701 0458 FFF7FEFF 		bl	lv_obj_add_style
 702              	.LVL98:
 885:Drivers/lvgl/src/themes/default/lv_theme_default.c ****         lv_obj_add_style(obj, &theme->styles.outline_primary, LV_STATE_FOCUS_KEY);
 703              		.loc 1 885 9 view .LVU154
 885:Drivers/lvgl/src/themes/default/lv_theme_default.c ****         lv_obj_add_style(obj, &theme->styles.outline_primary, LV_STATE_FOCUS_KEY);
 704              		.loc 1 885 31 is_stmt 0 view .LVU155
 705 045c 05F5A476 		add	r6, r5, #328
 706              	.LVL99:
 885:Drivers/lvgl/src/themes/default/lv_theme_default.c ****         lv_obj_add_style(obj, &theme->styles.outline_primary, LV_STATE_FOCUS_KEY);
 707              		.loc 1 885 9 view .LVU156
 708 0460 0022     		movs	r2, #0
 709 0462 3146     		mov	r1, r6
 710 0464 2046     		mov	r0, r4
 711 0466 FFF7FEFF 		bl	lv_obj_add_style
 712              	.LVL100:
 886:Drivers/lvgl/src/themes/default/lv_theme_default.c ****         lv_obj_add_style(obj, &theme->styles.outline_secondary, LV_STATE_EDITED);
 713              		.loc 1 886 9 is_stmt 1 view .LVU157
 714 046a 0422     		movs	r2, #4
 715 046c 05F59871 		add	r1, r5, #304
 716 0470 2046     		mov	r0, r4
 717 0472 FFF7FEFF 		bl	lv_obj_add_style
 718              	.LVL101:
 887:Drivers/lvgl/src/themes/default/lv_theme_default.c ****         lv_obj_add_style(obj, &theme->styles.bg_color_primary, LV_PART_INDICATOR);
 719              		.loc 1 887 9 view .LVU158
ARM GAS  /var/folders/qx/2_175_4n2s19vhvtspjhb3qh0000gn/T//ccFV8cem.s 			page 37


 720 0476 0822     		movs	r2, #8
 721 0478 05F59E71 		add	r1, r5, #316
 722 047c 2046     		mov	r0, r4
 723 047e FFF7FEFF 		bl	lv_obj_add_style
 724              	.LVL102:
 888:Drivers/lvgl/src/themes/default/lv_theme_default.c ****         lv_obj_add_style(obj, &theme->styles.circle, LV_PART_INDICATOR);
 725              		.loc 1 888 9 view .LVU159
 726 0482 4FF40032 		mov	r2, #131072
 727 0486 05F17C01 		add	r1, r5, #124
 728 048a 2046     		mov	r0, r4
 729 048c FFF7FEFF 		bl	lv_obj_add_style
 730              	.LVL103:
 889:Drivers/lvgl/src/themes/default/lv_theme_default.c ****         lv_obj_add_style(obj, &theme->styles.knob, LV_PART_KNOB);
 731              		.loc 1 889 9 view .LVU160
 732 0490 4FF40032 		mov	r2, #131072
 733 0494 3146     		mov	r1, r6
 734 0496 2046     		mov	r0, r4
 735 0498 FFF7FEFF 		bl	lv_obj_add_style
 736              	.LVL104:
 890:Drivers/lvgl/src/themes/default/lv_theme_default.c **** #if LV_THEME_DEFAULT_GROW
 737              		.loc 1 890 9 view .LVU161
 738 049c 4FF44032 		mov	r2, #196608
 739 04a0 05F5DA71 		add	r1, r5, #436
 740 04a4 2046     		mov	r0, r4
 741 04a6 FFF7FEFF 		bl	lv_obj_add_style
 742              	.LVL105:
 892:Drivers/lvgl/src/themes/default/lv_theme_default.c **** #endif
 743              		.loc 1 892 9 view .LVU162
 744 04aa A84E     		ldr	r6, .L73+24
 745 04ac 3246     		mov	r2, r6
 746 04ae 05F5BC71 		add	r1, r5, #376
 747 04b2 2046     		mov	r0, r4
 748 04b4 FFF7FEFF 		bl	lv_obj_add_style
 749              	.LVL106:
 894:Drivers/lvgl/src/themes/default/lv_theme_default.c ****         lv_obj_add_style(obj, &theme->styles.transition_normal, LV_PART_KNOB | LV_STATE_PRESSED);
 750              		.loc 1 894 9 view .LVU163
 751 04b8 4FF44032 		mov	r2, #196608
 752 04bc 05F5C271 		add	r1, r5, #388
 753 04c0 2046     		mov	r0, r4
 754 04c2 FFF7FEFF 		bl	lv_obj_add_style
 755              	.LVL107:
 895:Drivers/lvgl/src/themes/default/lv_theme_default.c ****     }
 756              		.loc 1 895 9 view .LVU164
 757 04c6 3246     		mov	r2, r6
 758 04c8 05F5C871 		add	r1, r5, #400
 759 04cc 2046     		mov	r0, r4
 760 04ce FFF7FEFF 		bl	lv_obj_add_style
 761              	.LVL108:
 762 04d2 07E6     		b	.L1
 763              	.LVL109:
 764              	.L17:
 900:Drivers/lvgl/src/themes/default/lv_theme_default.c ****         lv_obj_add_style(obj, &theme->styles.card, 0);
 765              		.loc 1 900 10 view .LVU165
 900:Drivers/lvgl/src/themes/default/lv_theme_default.c ****         lv_obj_add_style(obj, &theme->styles.card, 0);
 766              		.loc 1 900 13 is_stmt 0 view .LVU166
 767 04d4 9E49     		ldr	r1, .L73+28
 768 04d6 2046     		mov	r0, r4
ARM GAS  /var/folders/qx/2_175_4n2s19vhvtspjhb3qh0000gn/T//ccFV8cem.s 			page 38


 769 04d8 FFF7FEFF 		bl	lv_obj_check_type
 770              	.LVL110:
 900:Drivers/lvgl/src/themes/default/lv_theme_default.c ****         lv_obj_add_style(obj, &theme->styles.card, 0);
 771              		.loc 1 900 12 discriminator 1 view .LVU167
 772 04dc 0028     		cmp	r0, #0
 773 04de 52D0     		beq	.L18
 901:Drivers/lvgl/src/themes/default/lv_theme_default.c ****         lv_obj_add_style(obj, &theme->styles.pad_zero, 0);
 774              		.loc 1 901 9 is_stmt 1 view .LVU168
 775 04e0 0022     		movs	r2, #0
 776 04e2 05F16401 		add	r1, r5, #100
 777 04e6 2046     		mov	r0, r4
 778 04e8 FFF7FEFF 		bl	lv_obj_add_style
 779              	.LVL111:
 902:Drivers/lvgl/src/themes/default/lv_theme_default.c ****         lv_obj_add_style(obj, &theme->styles.no_radius, 0);
 780              		.loc 1 902 9 view .LVU169
 781 04ec 0022     		movs	r2, #0
 782 04ee 05F1DC01 		add	r1, r5, #220
 783 04f2 2046     		mov	r0, r4
 784 04f4 FFF7FEFF 		bl	lv_obj_add_style
 785              	.LVL112:
 903:Drivers/lvgl/src/themes/default/lv_theme_default.c ****         lv_obj_add_style(obj, &theme->styles.outline_primary, LV_STATE_FOCUS_KEY);
 786              		.loc 1 903 9 view .LVU170
 787 04f8 0022     		movs	r2, #0
 788 04fa 05F5AA71 		add	r1, r5, #340
 789 04fe 2046     		mov	r0, r4
 790 0500 FFF7FEFF 		bl	lv_obj_add_style
 791              	.LVL113:
 904:Drivers/lvgl/src/themes/default/lv_theme_default.c ****         lv_obj_add_style(obj, &theme->styles.outline_secondary, LV_STATE_EDITED);
 792              		.loc 1 904 9 view .LVU171
 793 0504 0422     		movs	r2, #4
 794 0506 05F59871 		add	r1, r5, #304
 795 050a 2046     		mov	r0, r4
 796 050c FFF7FEFF 		bl	lv_obj_add_style
 797              	.LVL114:
 905:Drivers/lvgl/src/themes/default/lv_theme_default.c ****         lv_obj_add_style(obj, &theme->styles.scrollbar, LV_PART_SCROLLBAR);
 798              		.loc 1 905 9 view .LVU172
 799 0510 0822     		movs	r2, #8
 800 0512 05F59E71 		add	r1, r5, #316
 801 0516 2046     		mov	r0, r4
 802 0518 FFF7FEFF 		bl	lv_obj_add_style
 803              	.LVL115:
 906:Drivers/lvgl/src/themes/default/lv_theme_default.c ****         lv_obj_add_style(obj, &theme->styles.scrollbar_scrolled, LV_PART_SCROLLBAR | LV_STATE_SCROL
 804              		.loc 1 906 9 view .LVU173
 805 051c 4FF48032 		mov	r2, #65536
 806 0520 05F14C01 		add	r1, r5, #76
 807 0524 2046     		mov	r0, r4
 808 0526 FFF7FEFF 		bl	lv_obj_add_style
 809              	.LVL116:
 907:Drivers/lvgl/src/themes/default/lv_theme_default.c ****         lv_obj_add_style(obj, &theme->styles.bg_color_white, LV_PART_ITEMS);
 810              		.loc 1 907 9 view .LVU174
 811 052a 8A4A     		ldr	r2, .L73+32
 812 052c 05F15801 		add	r1, r5, #88
 813 0530 2046     		mov	r0, r4
 814 0532 FFF7FEFF 		bl	lv_obj_add_style
 815              	.LVL117:
 908:Drivers/lvgl/src/themes/default/lv_theme_default.c ****         lv_obj_add_style(obj, &theme->styles.table_cell, LV_PART_ITEMS);
 816              		.loc 1 908 9 view .LVU175
ARM GAS  /var/folders/qx/2_175_4n2s19vhvtspjhb3qh0000gn/T//ccFV8cem.s 			page 39


 817 0536 4FF4A022 		mov	r2, #327680
 818 053a 05F1B801 		add	r1, r5, #184
 819 053e 2046     		mov	r0, r4
 820 0540 FFF7FEFF 		bl	lv_obj_add_style
 821              	.LVL118:
 909:Drivers/lvgl/src/themes/default/lv_theme_default.c ****         lv_obj_add_style(obj, &theme->styles.pad_normal, LV_PART_ITEMS);
 822              		.loc 1 909 9 view .LVU176
 823 0544 4FF4A022 		mov	r2, #327680
 824 0548 05F50E71 		add	r1, r5, #568
 825 054c 2046     		mov	r0, r4
 826 054e FFF7FEFF 		bl	lv_obj_add_style
 827              	.LVL119:
 910:Drivers/lvgl/src/themes/default/lv_theme_default.c ****         lv_obj_add_style(obj, &theme->styles.pressed, LV_PART_ITEMS | LV_STATE_PRESSED);
 828              		.loc 1 910 9 view .LVU177
 829 0552 4FF4A022 		mov	r2, #327680
 830 0556 05F58071 		add	r1, r5, #256
 831 055a 2046     		mov	r0, r4
 832 055c FFF7FEFF 		bl	lv_obj_add_style
 833              	.LVL120:
 911:Drivers/lvgl/src/themes/default/lv_theme_default.c ****         lv_obj_add_style(obj, &theme->styles.bg_color_primary, LV_PART_ITEMS | LV_STATE_FOCUS_KEY);
 834              		.loc 1 911 9 view .LVU178
 835 0560 744A     		ldr	r2, .L73
 836 0562 05F1C401 		add	r1, r5, #196
 837 0566 2046     		mov	r0, r4
 838 0568 FFF7FEFF 		bl	lv_obj_add_style
 839              	.LVL121:
 912:Drivers/lvgl/src/themes/default/lv_theme_default.c ****         lv_obj_add_style(obj, &theme->styles.bg_color_secondary, LV_PART_ITEMS | LV_STATE_EDITED);
 840              		.loc 1 912 9 view .LVU179
 841 056c 734A     		ldr	r2, .L73+8
 842 056e 05F17C01 		add	r1, r5, #124
 843 0572 2046     		mov	r0, r4
 844 0574 FFF7FEFF 		bl	lv_obj_add_style
 845              	.LVL122:
 913:Drivers/lvgl/src/themes/default/lv_theme_default.c ****     }
 846              		.loc 1 913 9 view .LVU180
 847 0578 714A     		ldr	r2, .L73+12
 848 057a 05F19401 		add	r1, r5, #148
 849 057e 2046     		mov	r0, r4
 850 0580 FFF7FEFF 		bl	lv_obj_add_style
 851              	.LVL123:
 852 0584 AEE5     		b	.L1
 853              	.L18:
 918:Drivers/lvgl/src/themes/default/lv_theme_default.c ****         lv_obj_add_style(obj, &theme->styles.pad_gap, 0);
 854              		.loc 1 918 10 view .LVU181
 918:Drivers/lvgl/src/themes/default/lv_theme_default.c ****         lv_obj_add_style(obj, &theme->styles.pad_gap, 0);
 855              		.loc 1 918 13 is_stmt 0 view .LVU182
 856 0586 7449     		ldr	r1, .L73+36
 857 0588 2046     		mov	r0, r4
 858 058a FFF7FEFF 		bl	lv_obj_check_type
 859              	.LVL124:
 918:Drivers/lvgl/src/themes/default/lv_theme_default.c ****         lv_obj_add_style(obj, &theme->styles.pad_gap, 0);
 860              		.loc 1 918 12 discriminator 1 view .LVU183
 861 058e 0028     		cmp	r0, #0
 862 0590 40D0     		beq	.L19
 919:Drivers/lvgl/src/themes/default/lv_theme_default.c ****         lv_obj_add_style(obj, &theme->styles.outline_primary, LV_STATE_FOCUS_KEY);
 863              		.loc 1 919 9 is_stmt 1 view .LVU184
 864 0592 0022     		movs	r2, #0
ARM GAS  /var/folders/qx/2_175_4n2s19vhvtspjhb3qh0000gn/T//ccFV8cem.s 			page 40


 865 0594 05F58671 		add	r1, r5, #268
 866 0598 2046     		mov	r0, r4
 867 059a FFF7FEFF 		bl	lv_obj_add_style
 868              	.LVL125:
 920:Drivers/lvgl/src/themes/default/lv_theme_default.c ****         lv_obj_add_style(obj, &theme->styles.disabled, LV_PART_INDICATOR | LV_STATE_DISABLED);
 869              		.loc 1 920 9 view .LVU185
 870 059e 0422     		movs	r2, #4
 871 05a0 05F59871 		add	r1, r5, #304
 872 05a4 2046     		mov	r0, r4
 873 05a6 FFF7FEFF 		bl	lv_obj_add_style
 874              	.LVL126:
 921:Drivers/lvgl/src/themes/default/lv_theme_default.c ****         lv_obj_add_style(obj, &theme->styles.cb_marker, LV_PART_INDICATOR);
 875              		.loc 1 921 9 view .LVU186
 876 05aa 6C4A     		ldr	r2, .L73+40
 877 05ac 05F1D001 		add	r1, r5, #208
 878 05b0 2046     		mov	r0, r4
 879 05b2 FFF7FEFF 		bl	lv_obj_add_style
 880              	.LVL127:
 922:Drivers/lvgl/src/themes/default/lv_theme_default.c ****         lv_obj_add_style(obj, &theme->styles.bg_color_primary, LV_PART_INDICATOR | LV_STATE_CHECKED
 881              		.loc 1 922 9 view .LVU187
 882 05b6 4FF40032 		mov	r2, #131072
 883 05ba 05F50271 		add	r1, r5, #520
 884 05be 2046     		mov	r0, r4
 885 05c0 FFF7FEFF 		bl	lv_obj_add_style
 886              	.LVL128:
 923:Drivers/lvgl/src/themes/default/lv_theme_default.c ****         lv_obj_add_style(obj, &theme->styles.cb_marker_checked, LV_PART_INDICATOR | LV_STATE_CHECKE
 887              		.loc 1 923 9 view .LVU188
 888 05c4 664E     		ldr	r6, .L73+44
 889              	.LVL129:
 923:Drivers/lvgl/src/themes/default/lv_theme_default.c ****         lv_obj_add_style(obj, &theme->styles.cb_marker_checked, LV_PART_INDICATOR | LV_STATE_CHECKE
 890              		.loc 1 923 9 is_stmt 0 view .LVU189
 891 05c6 3246     		mov	r2, r6
 892 05c8 05F17C01 		add	r1, r5, #124
 893 05cc 2046     		mov	r0, r4
 894 05ce FFF7FEFF 		bl	lv_obj_add_style
 895              	.LVL130:
 924:Drivers/lvgl/src/themes/default/lv_theme_default.c ****         lv_obj_add_style(obj, &theme->styles.pressed, LV_PART_INDICATOR | LV_STATE_PRESSED);
 896              		.loc 1 924 9 is_stmt 1 view .LVU190
 897 05d2 3246     		mov	r2, r6
 898 05d4 05F50571 		add	r1, r5, #532
 899 05d8 2046     		mov	r0, r4
 900 05da FFF7FEFF 		bl	lv_obj_add_style
 901              	.LVL131:
 925:Drivers/lvgl/src/themes/default/lv_theme_default.c **** #if LV_THEME_DEFAULT_GROW
 902              		.loc 1 925 9 view .LVU191
 903 05de 1F36     		adds	r6, r6, #31
 904 05e0 3246     		mov	r2, r6
 905 05e2 05F1C401 		add	r1, r5, #196
 906 05e6 2046     		mov	r0, r4
 907 05e8 FFF7FEFF 		bl	lv_obj_add_style
 908              	.LVL132:
 927:Drivers/lvgl/src/themes/default/lv_theme_default.c **** #endif
 909              		.loc 1 927 9 view .LVU192
 910 05ec 3246     		mov	r2, r6
 911 05ee 05F5BC71 		add	r1, r5, #376
 912 05f2 2046     		mov	r0, r4
 913 05f4 FFF7FEFF 		bl	lv_obj_add_style
ARM GAS  /var/folders/qx/2_175_4n2s19vhvtspjhb3qh0000gn/T//ccFV8cem.s 			page 41


 914              	.LVL133:
 929:Drivers/lvgl/src/themes/default/lv_theme_default.c ****         lv_obj_add_style(obj, &theme->styles.transition_delayed, LV_PART_INDICATOR);
 915              		.loc 1 929 9 view .LVU193
 916 05f8 3246     		mov	r2, r6
 917 05fa 05F5C871 		add	r1, r5, #400
 918 05fe 2046     		mov	r0, r4
 919 0600 FFF7FEFF 		bl	lv_obj_add_style
 920              	.LVL134:
 930:Drivers/lvgl/src/themes/default/lv_theme_default.c ****     }
 921              		.loc 1 930 9 view .LVU194
 922 0604 4FF40032 		mov	r2, #131072
 923 0608 05F5C271 		add	r1, r5, #388
 924 060c 2046     		mov	r0, r4
 925 060e FFF7FEFF 		bl	lv_obj_add_style
 926              	.LVL135:
 927 0612 67E5     		b	.L1
 928              	.LVL136:
 929              	.L19:
 935:Drivers/lvgl/src/themes/default/lv_theme_default.c ****         lv_obj_add_style(obj, &theme->styles.bg_color_grey, 0);
 930              		.loc 1 935 10 view .LVU195
 935:Drivers/lvgl/src/themes/default/lv_theme_default.c ****         lv_obj_add_style(obj, &theme->styles.bg_color_grey, 0);
 931              		.loc 1 935 13 is_stmt 0 view .LVU196
 932 0614 5349     		ldr	r1, .L73+48
 933 0616 2046     		mov	r0, r4
 934 0618 FFF7FEFF 		bl	lv_obj_check_type
 935              	.LVL137:
 935:Drivers/lvgl/src/themes/default/lv_theme_default.c ****         lv_obj_add_style(obj, &theme->styles.bg_color_grey, 0);
 936              		.loc 1 935 12 discriminator 1 view .LVU197
 937 061c 0028     		cmp	r0, #0
 938 061e 4ED0     		beq	.L20
 936:Drivers/lvgl/src/themes/default/lv_theme_default.c ****         lv_obj_add_style(obj, &theme->styles.circle, 0);
 939              		.loc 1 936 9 is_stmt 1 view .LVU198
 940 0620 0022     		movs	r2, #0
 941 0622 05F1AC01 		add	r1, r5, #172
 942 0626 2046     		mov	r0, r4
 943 0628 FFF7FEFF 		bl	lv_obj_add_style
 944              	.LVL138:
 937:Drivers/lvgl/src/themes/default/lv_theme_default.c ****         lv_obj_add_style(obj, &theme->styles.anim_fast, 0);
 945              		.loc 1 937 9 view .LVU199
 937:Drivers/lvgl/src/themes/default/lv_theme_default.c ****         lv_obj_add_style(obj, &theme->styles.anim_fast, 0);
 946              		.loc 1 937 31 is_stmt 0 view .LVU200
 947 062c 05F5A477 		add	r7, r5, #328
 937:Drivers/lvgl/src/themes/default/lv_theme_default.c ****         lv_obj_add_style(obj, &theme->styles.anim_fast, 0);
 948              		.loc 1 937 9 view .LVU201
 949 0630 0022     		movs	r2, #0
 950 0632 3946     		mov	r1, r7
 951 0634 2046     		mov	r0, r4
 952 0636 FFF7FEFF 		bl	lv_obj_add_style
 953              	.LVL139:
 938:Drivers/lvgl/src/themes/default/lv_theme_default.c ****         lv_obj_add_style(obj, &theme->styles.disabled, LV_STATE_DISABLED);
 954              		.loc 1 938 9 is_stmt 1 view .LVU202
 955 063a 0022     		movs	r2, #0
 956 063c 05F5D471 		add	r1, r5, #424
 957 0640 2046     		mov	r0, r4
 958 0642 FFF7FEFF 		bl	lv_obj_add_style
 959              	.LVL140:
 939:Drivers/lvgl/src/themes/default/lv_theme_default.c ****         lv_obj_add_style(obj, &theme->styles.outline_primary, LV_STATE_FOCUS_KEY);
ARM GAS  /var/folders/qx/2_175_4n2s19vhvtspjhb3qh0000gn/T//ccFV8cem.s 			page 42


 960              		.loc 1 939 9 view .LVU203
 961 0646 8022     		movs	r2, #128
 962 0648 05F1D001 		add	r1, r5, #208
 963 064c 2046     		mov	r0, r4
 964 064e FFF7FEFF 		bl	lv_obj_add_style
 965              	.LVL141:
 940:Drivers/lvgl/src/themes/default/lv_theme_default.c ****         lv_obj_add_style(obj, &theme->styles.bg_color_primary, LV_PART_INDICATOR | LV_STATE_CHECKED
 966              		.loc 1 940 9 view .LVU204
 967 0652 0422     		movs	r2, #4
 968 0654 05F59871 		add	r1, r5, #304
 969 0658 2046     		mov	r0, r4
 970 065a FFF7FEFF 		bl	lv_obj_add_style
 971              	.LVL142:
 941:Drivers/lvgl/src/themes/default/lv_theme_default.c ****         lv_obj_add_style(obj, &theme->styles.circle, LV_PART_INDICATOR);
 972              		.loc 1 941 9 view .LVU205
 973 065e 404E     		ldr	r6, .L73+44
 974              	.LVL143:
 941:Drivers/lvgl/src/themes/default/lv_theme_default.c ****         lv_obj_add_style(obj, &theme->styles.circle, LV_PART_INDICATOR);
 975              		.loc 1 941 9 is_stmt 0 view .LVU206
 976 0660 3246     		mov	r2, r6
 977 0662 05F17C01 		add	r1, r5, #124
 978 0666 2046     		mov	r0, r4
 979 0668 FFF7FEFF 		bl	lv_obj_add_style
 980              	.LVL144:
 942:Drivers/lvgl/src/themes/default/lv_theme_default.c ****         lv_obj_add_style(obj, &theme->styles.knob, LV_PART_KNOB);
 981              		.loc 1 942 9 is_stmt 1 view .LVU207
 982 066c 4FF40032 		mov	r2, #131072
 983 0670 3946     		mov	r1, r7
 984 0672 2046     		mov	r0, r4
 985 0674 FFF7FEFF 		bl	lv_obj_add_style
 986              	.LVL145:
 943:Drivers/lvgl/src/themes/default/lv_theme_default.c ****         lv_obj_add_style(obj, &theme->styles.bg_color_white, LV_PART_KNOB);
 987              		.loc 1 943 9 view .LVU208
 988 0678 4FF44032 		mov	r2, #196608
 989 067c 05F5DA71 		add	r1, r5, #436
 990 0680 2046     		mov	r0, r4
 991 0682 FFF7FEFF 		bl	lv_obj_add_style
 992              	.LVL146:
 944:Drivers/lvgl/src/themes/default/lv_theme_default.c ****         lv_obj_add_style(obj, &theme->styles.switch_knob, LV_PART_KNOB);
 993              		.loc 1 944 9 view .LVU209
 994 0686 4FF44032 		mov	r2, #196608
 995 068a 05F1B801 		add	r1, r5, #184
 996 068e 2046     		mov	r0, r4
 997 0690 FFF7FEFF 		bl	lv_obj_add_style
 998              	.LVL147:
 945:Drivers/lvgl/src/themes/default/lv_theme_default.c **** 
 999              		.loc 1 945 9 view .LVU210
 1000 0694 4FF44032 		mov	r2, #196608
 1001 0698 05F50871 		add	r1, r5, #544
 1002 069c 2046     		mov	r0, r4
 1003 069e FFF7FEFF 		bl	lv_obj_add_style
 1004              	.LVL148:
 947:Drivers/lvgl/src/themes/default/lv_theme_default.c ****         lv_obj_add_style(obj, &theme->styles.transition_normal, LV_PART_INDICATOR);
 1005              		.loc 1 947 9 view .LVU211
 947:Drivers/lvgl/src/themes/default/lv_theme_default.c ****         lv_obj_add_style(obj, &theme->styles.transition_normal, LV_PART_INDICATOR);
 1006              		.loc 1 947 31 is_stmt 0 view .LVU212
 1007 06a2 05F5C875 		add	r5, r5, #400
ARM GAS  /var/folders/qx/2_175_4n2s19vhvtspjhb3qh0000gn/T//ccFV8cem.s 			page 43


 1008              	.LVL149:
 947:Drivers/lvgl/src/themes/default/lv_theme_default.c ****         lv_obj_add_style(obj, &theme->styles.transition_normal, LV_PART_INDICATOR);
 1009              		.loc 1 947 9 view .LVU213
 1010 06a6 3246     		mov	r2, r6
 1011 06a8 2946     		mov	r1, r5
 1012 06aa 2046     		mov	r0, r4
 1013 06ac FFF7FEFF 		bl	lv_obj_add_style
 1014              	.LVL150:
 948:Drivers/lvgl/src/themes/default/lv_theme_default.c ****     }
 1015              		.loc 1 948 9 is_stmt 1 view .LVU214
 1016 06b0 4FF40032 		mov	r2, #131072
 1017 06b4 2946     		mov	r1, r5
 1018 06b6 2046     		mov	r0, r4
 1019 06b8 FFF7FEFF 		bl	lv_obj_add_style
 1020              	.LVL151:
 1021 06bc 12E5     		b	.L1
 1022              	.LVL152:
 1023              	.L20:
 953:Drivers/lvgl/src/themes/default/lv_theme_default.c ****         lv_obj_add_style(obj, &theme->styles.card, 0);
 1024              		.loc 1 953 10 view .LVU215
 953:Drivers/lvgl/src/themes/default/lv_theme_default.c ****         lv_obj_add_style(obj, &theme->styles.card, 0);
 1025              		.loc 1 953 13 is_stmt 0 view .LVU216
 1026 06be 2A49     		ldr	r1, .L73+52
 1027 06c0 2046     		mov	r0, r4
 1028 06c2 FFF7FEFF 		bl	lv_obj_check_type
 1029              	.LVL153:
 953:Drivers/lvgl/src/themes/default/lv_theme_default.c ****         lv_obj_add_style(obj, &theme->styles.card, 0);
 1030              		.loc 1 953 12 discriminator 1 view .LVU217
 1031 06c6 0028     		cmp	r0, #0
 1032 06c8 50D0     		beq	.L21
 954:Drivers/lvgl/src/themes/default/lv_theme_default.c ****         lv_obj_add_style(obj, &theme->styles.pad_small, 0);
 1033              		.loc 1 954 9 is_stmt 1 view .LVU218
 1034 06ca 0022     		movs	r2, #0
 1035 06cc 05F16401 		add	r1, r5, #100
 1036 06d0 2046     		mov	r0, r4
 1037 06d2 FFF7FEFF 		bl	lv_obj_add_style
 1038              	.LVL154:
 955:Drivers/lvgl/src/themes/default/lv_theme_default.c ****         lv_obj_add_style(obj, &theme->styles.chart_bg, 0);
 1039              		.loc 1 955 9 view .LVU219
 1040 06d6 0022     		movs	r2, #0
 1041 06d8 05F1F401 		add	r1, r5, #244
 1042 06dc 2046     		mov	r0, r4
 1043 06de FFF7FEFF 		bl	lv_obj_add_style
 1044              	.LVL155:
 956:Drivers/lvgl/src/themes/default/lv_theme_default.c ****         lv_obj_add_style(obj, &theme->styles.scrollbar, LV_PART_SCROLLBAR);
 1045              		.loc 1 956 9 view .LVU220
 1046 06e2 0022     		movs	r2, #0
 1047 06e4 05F5F871 		add	r1, r5, #496
 1048 06e8 2046     		mov	r0, r4
 1049 06ea FFF7FEFF 		bl	lv_obj_add_style
 1050              	.LVL156:
 957:Drivers/lvgl/src/themes/default/lv_theme_default.c ****         lv_obj_add_style(obj, &theme->styles.scrollbar_scrolled, LV_PART_SCROLLBAR | LV_STATE_SCROL
 1051              		.loc 1 957 9 view .LVU221
 1052 06ee 4FF48032 		mov	r2, #65536
 1053 06f2 05F14C01 		add	r1, r5, #76
 1054 06f6 2046     		mov	r0, r4
 1055 06f8 FFF7FEFF 		bl	lv_obj_add_style
ARM GAS  /var/folders/qx/2_175_4n2s19vhvtspjhb3qh0000gn/T//ccFV8cem.s 			page 44


 1056              	.LVL157:
 958:Drivers/lvgl/src/themes/default/lv_theme_default.c ****         lv_obj_add_style(obj, &theme->styles.chart_series, LV_PART_ITEMS);
 1057              		.loc 1 958 9 view .LVU222
 1058 06fc 154A     		ldr	r2, .L73+32
 1059 06fe 05F15801 		add	r1, r5, #88
 1060 0702 2046     		mov	r0, r4
 1061 0704 FFF7FEFF 		bl	lv_obj_add_style
 1062              	.LVL158:
 959:Drivers/lvgl/src/themes/default/lv_theme_default.c ****         lv_obj_add_style(obj, &theme->styles.chart_indic, LV_PART_INDICATOR);
 1063              		.loc 1 959 9 view .LVU223
 959:Drivers/lvgl/src/themes/default/lv_theme_default.c ****         lv_obj_add_style(obj, &theme->styles.chart_indic, LV_PART_INDICATOR);
 1064              		.loc 1 959 31 is_stmt 0 view .LVU224
 1065 0708 05F5EC76 		add	r6, r5, #472
 1066              	.LVL159:
 959:Drivers/lvgl/src/themes/default/lv_theme_default.c ****         lv_obj_add_style(obj, &theme->styles.chart_indic, LV_PART_INDICATOR);
 1067              		.loc 1 959 9 view .LVU225
 1068 070c 4FF4A022 		mov	r2, #327680
 1069 0710 3146     		mov	r1, r6
 1070 0712 2046     		mov	r0, r4
 1071 0714 FFF7FEFF 		bl	lv_obj_add_style
 1072              	.LVL160:
 960:Drivers/lvgl/src/themes/default/lv_theme_default.c ****         lv_obj_add_style(obj, &theme->styles.chart_series, LV_PART_CURSOR);
 1073              		.loc 1 960 9 is_stmt 1 view .LVU226
 1074 0718 4FF40032 		mov	r2, #131072
 1075 071c 05F5F271 		add	r1, r5, #484
 1076 0720 2046     		mov	r0, r4
 1077 0722 FFF7FEFF 		bl	lv_obj_add_style
 1078              	.LVL161:
 961:Drivers/lvgl/src/themes/default/lv_theme_default.c ****     }
 1079              		.loc 1 961 9 view .LVU227
 1080 0726 4FF4C022 		mov	r2, #393216
 1081 072a 3146     		mov	r1, r6
 1082 072c 2046     		mov	r0, r4
 1083 072e FFF7FEFF 		bl	lv_obj_add_style
 1084              	.LVL162:
 1085 0732 D7E4     		b	.L1
 1086              	.L74:
 1087              		.align	2
 1088              	.L73:
 1089 0734 20000500 		.word	327712
 1090 0738 80000500 		.word	327808
 1091 073c 04000500 		.word	327684
 1092 0740 08000500 		.word	327688
 1093 0744 00000000 		.word	lv_bar_class
 1094 0748 00000000 		.word	lv_slider_class
 1095 074c 20000300 		.word	196640
 1096 0750 00000000 		.word	lv_table_class
 1097 0754 40000100 		.word	65600
 1098 0758 00000000 		.word	lv_checkbox_class
 1099 075c 80000200 		.word	131200
 1100 0760 01000200 		.word	131073
 1101 0764 00000000 		.word	lv_switch_class
 1102 0768 00000000 		.word	lv_chart_class
 1103              	.LVL163:
 1104              	.L21:
 966:Drivers/lvgl/src/themes/default/lv_theme_default.c ****         lv_obj_add_style(obj, &theme->styles.card, 0);
 1105              		.loc 1 966 10 view .LVU228
ARM GAS  /var/folders/qx/2_175_4n2s19vhvtspjhb3qh0000gn/T//ccFV8cem.s 			page 45


 966:Drivers/lvgl/src/themes/default/lv_theme_default.c ****         lv_obj_add_style(obj, &theme->styles.card, 0);
 1106              		.loc 1 966 13 is_stmt 0 view .LVU229
 1107 076c D449     		ldr	r1, .L75
 1108 076e 2046     		mov	r0, r4
 1109 0770 FFF7FEFF 		bl	lv_obj_check_type
 1110              	.LVL164:
 966:Drivers/lvgl/src/themes/default/lv_theme_default.c ****         lv_obj_add_style(obj, &theme->styles.card, 0);
 1111              		.loc 1 966 12 discriminator 1 view .LVU230
 1112 0774 58B3     		cbz	r0, .L22
 967:Drivers/lvgl/src/themes/default/lv_theme_default.c ****         lv_obj_add_style(obj, &theme->styles.anim, 0);
 1113              		.loc 1 967 9 is_stmt 1 view .LVU231
 1114 0776 0022     		movs	r2, #0
 1115 0778 05F16401 		add	r1, r5, #100
 1116 077c 2046     		mov	r0, r4
 1117 077e FFF7FEFF 		bl	lv_obj_add_style
 1118              	.LVL165:
 968:Drivers/lvgl/src/themes/default/lv_theme_default.c ****         lv_obj_add_style(obj, &theme->styles.line_space_large, 0);
 1119              		.loc 1 968 9 view .LVU232
 1120 0782 0022     		movs	r2, #0
 1121 0784 05F5CE71 		add	r1, r5, #412
 1122 0788 2046     		mov	r0, r4
 1123 078a FFF7FEFF 		bl	lv_obj_add_style
 1124              	.LVL166:
 969:Drivers/lvgl/src/themes/default/lv_theme_default.c ****         lv_obj_add_style(obj, &theme->styles.text_align_center, 0);
 1125              		.loc 1 969 9 view .LVU233
 1126 078e 0022     		movs	r2, #0
 1127 0790 05F58C71 		add	r1, r5, #280
 1128 0794 2046     		mov	r0, r4
 1129 0796 FFF7FEFF 		bl	lv_obj_add_style
 1130              	.LVL167:
 970:Drivers/lvgl/src/themes/default/lv_theme_default.c ****         lv_obj_add_style(obj, &theme->styles.outline_primary, LV_STATE_FOCUS_KEY);
 1131              		.loc 1 970 9 view .LVU234
 1132 079a 0022     		movs	r2, #0
 1133 079c 05F59271 		add	r1, r5, #292
 1134 07a0 2046     		mov	r0, r4
 1135 07a2 FFF7FEFF 		bl	lv_obj_add_style
 1136              	.LVL168:
 971:Drivers/lvgl/src/themes/default/lv_theme_default.c ****         lv_obj_add_style(obj, &theme->styles.outline_secondary, LV_STATE_EDITED);
 1137              		.loc 1 971 9 view .LVU235
 1138 07a6 0422     		movs	r2, #4
 1139 07a8 05F59871 		add	r1, r5, #304
 1140 07ac 2046     		mov	r0, r4
 1141 07ae FFF7FEFF 		bl	lv_obj_add_style
 1142              	.LVL169:
 972:Drivers/lvgl/src/themes/default/lv_theme_default.c ****         lv_obj_add_style(obj, &theme->styles.bg_color_primary, LV_PART_SELECTED);
 1143              		.loc 1 972 9 view .LVU236
 1144 07b2 0822     		movs	r2, #8
 1145 07b4 05F59E71 		add	r1, r5, #316
 1146 07b8 2046     		mov	r0, r4
 1147 07ba FFF7FEFF 		bl	lv_obj_add_style
 1148              	.LVL170:
 973:Drivers/lvgl/src/themes/default/lv_theme_default.c ****     }
 1149              		.loc 1 973 9 view .LVU237
 1150 07be 4FF48022 		mov	r2, #262144
 1151 07c2 05F17C01 		add	r1, r5, #124
 1152 07c6 2046     		mov	r0, r4
 1153 07c8 FFF7FEFF 		bl	lv_obj_add_style
ARM GAS  /var/folders/qx/2_175_4n2s19vhvtspjhb3qh0000gn/T//ccFV8cem.s 			page 46


 1154              	.LVL171:
 1155 07cc 8AE4     		b	.L1
 1156              	.L22:
 978:Drivers/lvgl/src/themes/default/lv_theme_default.c ****         lv_obj_add_style(obj, &theme->styles.card, 0);
 1157              		.loc 1 978 10 view .LVU238
 978:Drivers/lvgl/src/themes/default/lv_theme_default.c ****         lv_obj_add_style(obj, &theme->styles.card, 0);
 1158              		.loc 1 978 13 is_stmt 0 view .LVU239
 1159 07ce BD49     		ldr	r1, .L75+4
 1160 07d0 2046     		mov	r0, r4
 1161 07d2 FFF7FEFF 		bl	lv_obj_check_type
 1162              	.LVL172:
 978:Drivers/lvgl/src/themes/default/lv_theme_default.c ****         lv_obj_add_style(obj, &theme->styles.card, 0);
 1163              		.loc 1 978 12 discriminator 1 view .LVU240
 1164 07d6 B8B3     		cbz	r0, .L23
 979:Drivers/lvgl/src/themes/default/lv_theme_default.c ****         lv_obj_add_style(obj, &theme->styles.pad_small, 0);
 1165              		.loc 1 979 9 is_stmt 1 view .LVU241
 1166 07d8 0022     		movs	r2, #0
 1167 07da 05F16401 		add	r1, r5, #100
 1168 07de 2046     		mov	r0, r4
 1169 07e0 FFF7FEFF 		bl	lv_obj_add_style
 1170              	.LVL173:
 980:Drivers/lvgl/src/themes/default/lv_theme_default.c ****         lv_obj_add_style(obj, &theme->styles.transition_delayed, 0);
 1171              		.loc 1 980 9 view .LVU242
 1172 07e4 0022     		movs	r2, #0
 1173 07e6 05F1F401 		add	r1, r5, #244
 1174 07ea 2046     		mov	r0, r4
 1175 07ec FFF7FEFF 		bl	lv_obj_add_style
 1176              	.LVL174:
 981:Drivers/lvgl/src/themes/default/lv_theme_default.c ****         lv_obj_add_style(obj, &theme->styles.transition_normal, LV_STATE_PRESSED);
 1177              		.loc 1 981 9 view .LVU243
 1178 07f0 0022     		movs	r2, #0
 1179 07f2 05F5C271 		add	r1, r5, #388
 1180 07f6 2046     		mov	r0, r4
 1181 07f8 FFF7FEFF 		bl	lv_obj_add_style
 1182              	.LVL175:
 982:Drivers/lvgl/src/themes/default/lv_theme_default.c ****         lv_obj_add_style(obj, &theme->styles.pressed, LV_STATE_PRESSED);
 1183              		.loc 1 982 9 view .LVU244
 982:Drivers/lvgl/src/themes/default/lv_theme_default.c ****         lv_obj_add_style(obj, &theme->styles.pressed, LV_STATE_PRESSED);
 1184              		.loc 1 982 31 is_stmt 0 view .LVU245
 1185 07fc 05F5C876 		add	r6, r5, #400
 1186              	.LVL176:
 982:Drivers/lvgl/src/themes/default/lv_theme_default.c ****         lv_obj_add_style(obj, &theme->styles.pressed, LV_STATE_PRESSED);
 1187              		.loc 1 982 9 view .LVU246
 1188 0800 2022     		movs	r2, #32
 1189 0802 3146     		mov	r1, r6
 1190 0804 2046     		mov	r0, r4
 1191 0806 FFF7FEFF 		bl	lv_obj_add_style
 1192              	.LVL177:
 983:Drivers/lvgl/src/themes/default/lv_theme_default.c ****         lv_obj_add_style(obj, &theme->styles.outline_primary, LV_STATE_FOCUS_KEY);
 1193              		.loc 1 983 9 is_stmt 1 view .LVU247
 1194 080a 2022     		movs	r2, #32
 1195 080c 05F1C401 		add	r1, r5, #196
 1196 0810 2046     		mov	r0, r4
 1197 0812 FFF7FEFF 		bl	lv_obj_add_style
 1198              	.LVL178:
 984:Drivers/lvgl/src/themes/default/lv_theme_default.c ****         lv_obj_add_style(obj, &theme->styles.outline_secondary, LV_STATE_EDITED);
 1199              		.loc 1 984 9 view .LVU248
ARM GAS  /var/folders/qx/2_175_4n2s19vhvtspjhb3qh0000gn/T//ccFV8cem.s 			page 47


 1200 0816 0422     		movs	r2, #4
 1201 0818 05F59871 		add	r1, r5, #304
 1202 081c 2046     		mov	r0, r4
 1203 081e FFF7FEFF 		bl	lv_obj_add_style
 1204              	.LVL179:
 985:Drivers/lvgl/src/themes/default/lv_theme_default.c ****         lv_obj_add_style(obj, &theme->styles.transition_normal, LV_PART_INDICATOR);
 1205              		.loc 1 985 9 view .LVU249
 1206 0822 0822     		movs	r2, #8
 1207 0824 05F59E71 		add	r1, r5, #316
 1208 0828 2046     		mov	r0, r4
 1209 082a FFF7FEFF 		bl	lv_obj_add_style
 1210              	.LVL180:
 986:Drivers/lvgl/src/themes/default/lv_theme_default.c ****         lv_obj_add_style(obj, &theme->styles.disabled, LV_STATE_DISABLED);
 1211              		.loc 1 986 9 view .LVU250
 1212 082e 4FF40032 		mov	r2, #131072
 1213 0832 3146     		mov	r1, r6
 1214 0834 2046     		mov	r0, r4
 1215 0836 FFF7FEFF 		bl	lv_obj_add_style
 1216              	.LVL181:
 987:Drivers/lvgl/src/themes/default/lv_theme_default.c ****     }
 1217              		.loc 1 987 9 view .LVU251
 1218 083a 8022     		movs	r2, #128
 1219 083c 05F1D001 		add	r1, r5, #208
 1220 0840 2046     		mov	r0, r4
 1221 0842 FFF7FEFF 		bl	lv_obj_add_style
 1222              	.LVL182:
 1223 0846 4DE4     		b	.L1
 1224              	.LVL183:
 1225              	.L23:
 989:Drivers/lvgl/src/themes/default/lv_theme_default.c ****         lv_obj_add_style(obj, &theme->styles.card, 0);
 1226              		.loc 1 989 10 view .LVU252
 989:Drivers/lvgl/src/themes/default/lv_theme_default.c ****         lv_obj_add_style(obj, &theme->styles.card, 0);
 1227              		.loc 1 989 13 is_stmt 0 view .LVU253
 1228 0848 9F49     		ldr	r1, .L75+8
 1229 084a 2046     		mov	r0, r4
 1230 084c FFF7FEFF 		bl	lv_obj_check_type
 1231              	.LVL184:
 989:Drivers/lvgl/src/themes/default/lv_theme_default.c ****         lv_obj_add_style(obj, &theme->styles.card, 0);
 1232              		.loc 1 989 12 discriminator 1 view .LVU254
 1233 0850 90B3     		cbz	r0, .L24
 990:Drivers/lvgl/src/themes/default/lv_theme_default.c ****         lv_obj_add_style(obj, &theme->styles.line_space_large, 0);
 1234              		.loc 1 990 9 is_stmt 1 view .LVU255
 1235 0852 0022     		movs	r2, #0
 1236 0854 05F16401 		add	r1, r5, #100
 1237 0858 2046     		mov	r0, r4
 1238 085a FFF7FEFF 		bl	lv_obj_add_style
 1239              	.LVL185:
 991:Drivers/lvgl/src/themes/default/lv_theme_default.c ****         lv_obj_add_style(obj, &theme->styles.dropdown_list, 0);
 1240              		.loc 1 991 9 view .LVU256
 1241 085e 0022     		movs	r2, #0
 1242 0860 05F58C71 		add	r1, r5, #280
 1243 0864 2046     		mov	r0, r4
 1244 0866 FFF7FEFF 		bl	lv_obj_add_style
 1245              	.LVL186:
 992:Drivers/lvgl/src/themes/default/lv_theme_default.c ****         lv_obj_add_style(obj, &theme->styles.scrollbar, LV_PART_SCROLLBAR);
 1246              		.loc 1 992 9 view .LVU257
 1247 086a 0022     		movs	r2, #0
ARM GAS  /var/folders/qx/2_175_4n2s19vhvtspjhb3qh0000gn/T//ccFV8cem.s 			page 48


 1248 086c 05F5FE71 		add	r1, r5, #508
 1249 0870 2046     		mov	r0, r4
 1250 0872 FFF7FEFF 		bl	lv_obj_add_style
 1251              	.LVL187:
 993:Drivers/lvgl/src/themes/default/lv_theme_default.c ****         lv_obj_add_style(obj, &theme->styles.scrollbar_scrolled, LV_PART_SCROLLBAR | LV_STATE_SCROL
 1252              		.loc 1 993 9 view .LVU258
 1253 0876 4FF48032 		mov	r2, #65536
 1254 087a 05F14C01 		add	r1, r5, #76
 1255 087e 2046     		mov	r0, r4
 1256 0880 FFF7FEFF 		bl	lv_obj_add_style
 1257              	.LVL188:
 994:Drivers/lvgl/src/themes/default/lv_theme_default.c ****         lv_obj_add_style(obj, &theme->styles.bg_color_white, LV_PART_SELECTED);
 1258              		.loc 1 994 9 view .LVU259
 1259 0884 914A     		ldr	r2, .L75+12
 1260 0886 05F15801 		add	r1, r5, #88
 1261 088a 2046     		mov	r0, r4
 1262 088c FFF7FEFF 		bl	lv_obj_add_style
 1263              	.LVL189:
 995:Drivers/lvgl/src/themes/default/lv_theme_default.c ****         lv_obj_add_style(obj, &theme->styles.bg_color_primary, LV_PART_SELECTED | LV_STATE_CHECKED)
 1264              		.loc 1 995 9 view .LVU260
 1265 0890 4FF48022 		mov	r2, #262144
 1266 0894 05F1B801 		add	r1, r5, #184
 1267 0898 2046     		mov	r0, r4
 1268 089a FFF7FEFF 		bl	lv_obj_add_style
 1269              	.LVL190:
 996:Drivers/lvgl/src/themes/default/lv_theme_default.c ****         lv_obj_add_style(obj, &theme->styles.pressed, LV_PART_SELECTED | LV_STATE_PRESSED);
 1270              		.loc 1 996 9 view .LVU261
 1271 089e 8C4A     		ldr	r2, .L75+16
 1272 08a0 05F17C01 		add	r1, r5, #124
 1273 08a4 2046     		mov	r0, r4
 1274 08a6 FFF7FEFF 		bl	lv_obj_add_style
 1275              	.LVL191:
 997:Drivers/lvgl/src/themes/default/lv_theme_default.c ****     }
 1276              		.loc 1 997 9 view .LVU262
 1277 08aa 8A4A     		ldr	r2, .L75+20
 1278 08ac 05F1C401 		add	r1, r5, #196
 1279 08b0 2046     		mov	r0, r4
 1280 08b2 FFF7FEFF 		bl	lv_obj_add_style
 1281              	.LVL192:
 1282 08b6 15E4     		b	.L1
 1283              	.L24:
1002:Drivers/lvgl/src/themes/default/lv_theme_default.c ****         lv_obj_add_style(obj, &theme->styles.arc_indic, 0);
 1284              		.loc 1 1002 10 view .LVU263
1002:Drivers/lvgl/src/themes/default/lv_theme_default.c ****         lv_obj_add_style(obj, &theme->styles.arc_indic, 0);
 1285              		.loc 1 1002 13 is_stmt 0 view .LVU264
 1286 08b8 8749     		ldr	r1, .L75+24
 1287 08ba 2046     		mov	r0, r4
 1288 08bc FFF7FEFF 		bl	lv_obj_check_type
 1289              	.LVL193:
1002:Drivers/lvgl/src/themes/default/lv_theme_default.c ****         lv_obj_add_style(obj, &theme->styles.arc_indic, 0);
 1290              		.loc 1 1002 12 discriminator 1 view .LVU265
 1291 08c0 E0B1     		cbz	r0, .L25
1003:Drivers/lvgl/src/themes/default/lv_theme_default.c ****         lv_obj_add_style(obj, &theme->styles.arc_indic, LV_PART_INDICATOR);
 1292              		.loc 1 1003 9 is_stmt 1 view .LVU266
1003:Drivers/lvgl/src/themes/default/lv_theme_default.c ****         lv_obj_add_style(obj, &theme->styles.arc_indic, LV_PART_INDICATOR);
 1293              		.loc 1 1003 31 is_stmt 0 view .LVU267
 1294 08c2 05F5E076 		add	r6, r5, #448
ARM GAS  /var/folders/qx/2_175_4n2s19vhvtspjhb3qh0000gn/T//ccFV8cem.s 			page 49


 1295              	.LVL194:
1003:Drivers/lvgl/src/themes/default/lv_theme_default.c ****         lv_obj_add_style(obj, &theme->styles.arc_indic, LV_PART_INDICATOR);
 1296              		.loc 1 1003 9 view .LVU268
 1297 08c6 0022     		movs	r2, #0
 1298 08c8 3146     		mov	r1, r6
 1299 08ca 2046     		mov	r0, r4
 1300 08cc FFF7FEFF 		bl	lv_obj_add_style
 1301              	.LVL195:
1004:Drivers/lvgl/src/themes/default/lv_theme_default.c ****         lv_obj_add_style(obj, &theme->styles.arc_indic_primary, LV_PART_INDICATOR);
 1302              		.loc 1 1004 9 is_stmt 1 view .LVU269
 1303 08d0 4FF40032 		mov	r2, #131072
 1304 08d4 3146     		mov	r1, r6
 1305 08d6 2046     		mov	r0, r4
 1306 08d8 FFF7FEFF 		bl	lv_obj_add_style
 1307              	.LVL196:
1005:Drivers/lvgl/src/themes/default/lv_theme_default.c ****         lv_obj_add_style(obj, &theme->styles.knob, LV_PART_KNOB);
 1308              		.loc 1 1005 9 view .LVU270
 1309 08dc 4FF40032 		mov	r2, #131072
 1310 08e0 05F5E671 		add	r1, r5, #460
 1311 08e4 2046     		mov	r0, r4
 1312 08e6 FFF7FEFF 		bl	lv_obj_add_style
 1313              	.LVL197:
1006:Drivers/lvgl/src/themes/default/lv_theme_default.c ****     }
 1314              		.loc 1 1006 9 view .LVU271
 1315 08ea 4FF44032 		mov	r2, #196608
 1316 08ee 05F5DA71 		add	r1, r5, #436
 1317 08f2 2046     		mov	r0, r4
 1318 08f4 FFF7FEFF 		bl	lv_obj_add_style
 1319              	.LVL198:
 1320 08f8 FFF7F4BB 		b	.L1
 1321              	.LVL199:
 1322              	.L25:
1011:Drivers/lvgl/src/themes/default/lv_theme_default.c ****         lv_obj_add_style(obj, &theme->styles.arc_indic, 0);
 1323              		.loc 1 1011 10 view .LVU272
1011:Drivers/lvgl/src/themes/default/lv_theme_default.c ****         lv_obj_add_style(obj, &theme->styles.arc_indic, 0);
 1324              		.loc 1 1011 13 is_stmt 0 view .LVU273
 1325 08fc 7749     		ldr	r1, .L75+28
 1326 08fe 2046     		mov	r0, r4
 1327 0900 FFF7FEFF 		bl	lv_obj_check_type
 1328              	.LVL200:
1011:Drivers/lvgl/src/themes/default/lv_theme_default.c ****         lv_obj_add_style(obj, &theme->styles.arc_indic, 0);
 1329              		.loc 1 1011 12 discriminator 1 view .LVU274
 1330 0904 A8B1     		cbz	r0, .L26
1012:Drivers/lvgl/src/themes/default/lv_theme_default.c ****         lv_obj_add_style(obj, &theme->styles.arc_indic, LV_PART_INDICATOR);
 1331              		.loc 1 1012 9 is_stmt 1 view .LVU275
1012:Drivers/lvgl/src/themes/default/lv_theme_default.c ****         lv_obj_add_style(obj, &theme->styles.arc_indic, LV_PART_INDICATOR);
 1332              		.loc 1 1012 31 is_stmt 0 view .LVU276
 1333 0906 05F5E076 		add	r6, r5, #448
 1334              	.LVL201:
1012:Drivers/lvgl/src/themes/default/lv_theme_default.c ****         lv_obj_add_style(obj, &theme->styles.arc_indic, LV_PART_INDICATOR);
 1335              		.loc 1 1012 9 view .LVU277
 1336 090a 0022     		movs	r2, #0
 1337 090c 3146     		mov	r1, r6
 1338 090e 2046     		mov	r0, r4
 1339 0910 FFF7FEFF 		bl	lv_obj_add_style
 1340              	.LVL202:
1013:Drivers/lvgl/src/themes/default/lv_theme_default.c ****         lv_obj_add_style(obj, &theme->styles.arc_indic_primary, LV_PART_INDICATOR);
ARM GAS  /var/folders/qx/2_175_4n2s19vhvtspjhb3qh0000gn/T//ccFV8cem.s 			page 50


 1341              		.loc 1 1013 9 is_stmt 1 view .LVU278
 1342 0914 4FF40032 		mov	r2, #131072
 1343 0918 3146     		mov	r1, r6
 1344 091a 2046     		mov	r0, r4
 1345 091c FFF7FEFF 		bl	lv_obj_add_style
 1346              	.LVL203:
1014:Drivers/lvgl/src/themes/default/lv_theme_default.c ****     }
 1347              		.loc 1 1014 9 view .LVU279
 1348 0920 4FF40032 		mov	r2, #131072
 1349 0924 05F5E671 		add	r1, r5, #460
 1350 0928 2046     		mov	r0, r4
 1351 092a FFF7FEFF 		bl	lv_obj_add_style
 1352              	.LVL204:
 1353 092e FFF7D9BB 		b	.L1
 1354              	.LVL205:
 1355              	.L26:
1019:Drivers/lvgl/src/themes/default/lv_theme_default.c ****         lv_obj_add_style(obj, &theme->styles.card, 0);
 1356              		.loc 1 1019 10 view .LVU280
1019:Drivers/lvgl/src/themes/default/lv_theme_default.c ****         lv_obj_add_style(obj, &theme->styles.card, 0);
 1357              		.loc 1 1019 13 is_stmt 0 view .LVU281
 1358 0932 6B49     		ldr	r1, .L75+32
 1359 0934 2046     		mov	r0, r4
 1360 0936 FFF7FEFF 		bl	lv_obj_check_type
 1361              	.LVL206:
1019:Drivers/lvgl/src/themes/default/lv_theme_default.c ****         lv_obj_add_style(obj, &theme->styles.card, 0);
 1362              		.loc 1 1019 12 discriminator 1 view .LVU282
 1363 093a C8B3     		cbz	r0, .L27
1020:Drivers/lvgl/src/themes/default/lv_theme_default.c ****         lv_obj_add_style(obj, &theme->styles.pad_small, 0);
 1364              		.loc 1 1020 9 is_stmt 1 view .LVU283
 1365 093c 0022     		movs	r2, #0
 1366 093e 05F16401 		add	r1, r5, #100
 1367 0942 2046     		mov	r0, r4
 1368 0944 FFF7FEFF 		bl	lv_obj_add_style
 1369              	.LVL207:
1021:Drivers/lvgl/src/themes/default/lv_theme_default.c ****         lv_obj_add_style(obj, &theme->styles.disabled, LV_STATE_DISABLED);
 1370              		.loc 1 1021 9 view .LVU284
 1371 0948 0022     		movs	r2, #0
 1372 094a 05F1F401 		add	r1, r5, #244
 1373 094e 2046     		mov	r0, r4
 1374 0950 FFF7FEFF 		bl	lv_obj_add_style
 1375              	.LVL208:
1022:Drivers/lvgl/src/themes/default/lv_theme_default.c ****         lv_obj_add_style(obj, &theme->styles.outline_primary, LV_STATE_FOCUS_KEY);
 1376              		.loc 1 1022 9 view .LVU285
 1377 0954 8022     		movs	r2, #128
 1378 0956 05F1D001 		add	r1, r5, #208
 1379 095a 2046     		mov	r0, r4
 1380 095c FFF7FEFF 		bl	lv_obj_add_style
 1381              	.LVL209:
1023:Drivers/lvgl/src/themes/default/lv_theme_default.c ****         lv_obj_add_style(obj, &theme->styles.outline_secondary, LV_STATE_EDITED);
 1382              		.loc 1 1023 9 view .LVU286
 1383 0960 0422     		movs	r2, #4
 1384 0962 05F59871 		add	r1, r5, #304
 1385 0966 2046     		mov	r0, r4
 1386 0968 FFF7FEFF 		bl	lv_obj_add_style
 1387              	.LVL210:
1024:Drivers/lvgl/src/themes/default/lv_theme_default.c ****         lv_obj_add_style(obj, &theme->styles.scrollbar, LV_PART_SCROLLBAR);
 1388              		.loc 1 1024 9 view .LVU287
ARM GAS  /var/folders/qx/2_175_4n2s19vhvtspjhb3qh0000gn/T//ccFV8cem.s 			page 51


 1389 096c 0822     		movs	r2, #8
 1390 096e 05F59E71 		add	r1, r5, #316
 1391 0972 2046     		mov	r0, r4
 1392 0974 FFF7FEFF 		bl	lv_obj_add_style
 1393              	.LVL211:
1025:Drivers/lvgl/src/themes/default/lv_theme_default.c ****         lv_obj_add_style(obj, &theme->styles.scrollbar_scrolled, LV_PART_SCROLLBAR | LV_STATE_SCROL
 1394              		.loc 1 1025 9 view .LVU288
 1395 0978 4FF48032 		mov	r2, #65536
 1396 097c 05F14C01 		add	r1, r5, #76
 1397 0980 2046     		mov	r0, r4
 1398 0982 FFF7FEFF 		bl	lv_obj_add_style
 1399              	.LVL212:
1026:Drivers/lvgl/src/themes/default/lv_theme_default.c ****         lv_obj_add_style(obj, &theme->styles.ta_cursor, LV_PART_CURSOR | LV_STATE_FOCUSED);
 1400              		.loc 1 1026 9 view .LVU289
 1401 0986 514A     		ldr	r2, .L75+12
 1402 0988 05F15801 		add	r1, r5, #88
 1403 098c 2046     		mov	r0, r4
 1404 098e FFF7FEFF 		bl	lv_obj_add_style
 1405              	.LVL213:
1027:Drivers/lvgl/src/themes/default/lv_theme_default.c ****         lv_obj_add_style(obj, &theme->styles.ta_placeholder, LV_PART_TEXTAREA_PLACEHOLDER);
 1406              		.loc 1 1027 9 view .LVU290
 1407 0992 544A     		ldr	r2, .L75+36
 1408 0994 05F51171 		add	r1, r5, #580
 1409 0998 2046     		mov	r0, r4
 1410 099a FFF7FEFF 		bl	lv_obj_add_style
 1411              	.LVL214:
1028:Drivers/lvgl/src/themes/default/lv_theme_default.c ****     }
 1412              		.loc 1 1028 9 view .LVU291
 1413 099e 4FF40022 		mov	r2, #524288
 1414 09a2 05F51471 		add	r1, r5, #592
 1415 09a6 2046     		mov	r0, r4
 1416 09a8 FFF7FEFF 		bl	lv_obj_add_style
 1417              	.LVL215:
 1418 09ac FFF79ABB 		b	.L1
 1419              	.L27:
1033:Drivers/lvgl/src/themes/default/lv_theme_default.c ****         lv_obj_add_style(obj, &theme->styles.card, 0);
 1420              		.loc 1 1033 10 view .LVU292
1033:Drivers/lvgl/src/themes/default/lv_theme_default.c ****         lv_obj_add_style(obj, &theme->styles.card, 0);
 1421              		.loc 1 1033 13 is_stmt 0 view .LVU293
 1422 09b0 4D49     		ldr	r1, .L75+40
 1423 09b2 2046     		mov	r0, r4
 1424 09b4 FFF7FEFF 		bl	lv_obj_check_type
 1425              	.LVL216:
1033:Drivers/lvgl/src/themes/default/lv_theme_default.c ****         lv_obj_add_style(obj, &theme->styles.card, 0);
 1426              		.loc 1 1033 12 discriminator 1 view .LVU294
 1427 09b8 68B1     		cbz	r0, .L28
1034:Drivers/lvgl/src/themes/default/lv_theme_default.c ****         lv_obj_add_style(obj, &theme->styles.pad_zero, 0);
 1428              		.loc 1 1034 9 is_stmt 1 view .LVU295
 1429 09ba 0022     		movs	r2, #0
 1430 09bc 05F16401 		add	r1, r5, #100
 1431 09c0 2046     		mov	r0, r4
 1432 09c2 FFF7FEFF 		bl	lv_obj_add_style
 1433              	.LVL217:
1035:Drivers/lvgl/src/themes/default/lv_theme_default.c ****     }
 1434              		.loc 1 1035 9 view .LVU296
 1435 09c6 0022     		movs	r2, #0
 1436 09c8 05F1DC01 		add	r1, r5, #220
ARM GAS  /var/folders/qx/2_175_4n2s19vhvtspjhb3qh0000gn/T//ccFV8cem.s 			page 52


 1437 09cc 2046     		mov	r0, r4
 1438 09ce FFF7FEFF 		bl	lv_obj_add_style
 1439              	.LVL218:
 1440 09d2 FFF787BB 		b	.L1
 1441              	.L28:
1039:Drivers/lvgl/src/themes/default/lv_theme_default.c ****         lv_obj_add_style(obj, &theme->styles.calendar_header, 0);
 1442              		.loc 1 1039 10 view .LVU297
1039:Drivers/lvgl/src/themes/default/lv_theme_default.c ****         lv_obj_add_style(obj, &theme->styles.calendar_header, 0);
 1443              		.loc 1 1039 13 is_stmt 0 view .LVU298
 1444 09d6 4549     		ldr	r1, .L75+44
 1445 09d8 2046     		mov	r0, r4
 1446 09da FFF7FEFF 		bl	lv_obj_check_type
 1447              	.LVL219:
1039:Drivers/lvgl/src/themes/default/lv_theme_default.c ****         lv_obj_add_style(obj, &theme->styles.calendar_header, 0);
 1448              		.loc 1 1039 12 discriminator 1 view .LVU299
 1449 09de 38B1     		cbz	r0, .L29
1040:Drivers/lvgl/src/themes/default/lv_theme_default.c ****     }
 1450              		.loc 1 1040 9 is_stmt 1 view .LVU300
 1451 09e0 0022     		movs	r2, #0
 1452 09e2 05F51D71 		add	r1, r5, #628
 1453 09e6 2046     		mov	r0, r4
 1454 09e8 FFF7FEFF 		bl	lv_obj_add_style
 1455              	.LVL220:
 1456 09ec FFF77ABB 		b	.L1
 1457              	.L29:
1045:Drivers/lvgl/src/themes/default/lv_theme_default.c ****         lv_obj_add_style(obj, &theme->styles.calendar_header, 0);
 1458              		.loc 1 1045 10 view .LVU301
1045:Drivers/lvgl/src/themes/default/lv_theme_default.c ****         lv_obj_add_style(obj, &theme->styles.calendar_header, 0);
 1459              		.loc 1 1045 13 is_stmt 0 view .LVU302
 1460 09f0 3F49     		ldr	r1, .L75+48
 1461 09f2 2046     		mov	r0, r4
 1462 09f4 FFF7FEFF 		bl	lv_obj_check_type
 1463              	.LVL221:
1045:Drivers/lvgl/src/themes/default/lv_theme_default.c ****         lv_obj_add_style(obj, &theme->styles.calendar_header, 0);
 1464              		.loc 1 1045 12 discriminator 1 view .LVU303
 1465 09f8 38B1     		cbz	r0, .L30
1046:Drivers/lvgl/src/themes/default/lv_theme_default.c ****     }
 1466              		.loc 1 1046 9 is_stmt 1 view .LVU304
 1467 09fa 0022     		movs	r2, #0
 1468 09fc 05F51D71 		add	r1, r5, #628
 1469 0a00 2046     		mov	r0, r4
 1470 0a02 FFF7FEFF 		bl	lv_obj_add_style
 1471              	.LVL222:
 1472 0a06 FFF76DBB 		b	.L1
 1473              	.L30:
1052:Drivers/lvgl/src/themes/default/lv_theme_default.c ****         lv_obj_add_style(obj, &theme->styles.scr, 0);
 1474              		.loc 1 1052 10 view .LVU305
1052:Drivers/lvgl/src/themes/default/lv_theme_default.c ****         lv_obj_add_style(obj, &theme->styles.scr, 0);
 1475              		.loc 1 1052 13 is_stmt 0 view .LVU306
 1476 0a0a 3A49     		ldr	r1, .L75+52
 1477 0a0c 2046     		mov	r0, r4
 1478 0a0e FFF7FEFF 		bl	lv_obj_check_type
 1479              	.LVL223:
1052:Drivers/lvgl/src/themes/default/lv_theme_default.c ****         lv_obj_add_style(obj, &theme->styles.scr, 0);
 1480              		.loc 1 1052 12 discriminator 1 view .LVU307
 1481 0a12 0028     		cmp	r0, #0
 1482 0a14 7AD0     		beq	.L31
ARM GAS  /var/folders/qx/2_175_4n2s19vhvtspjhb3qh0000gn/T//ccFV8cem.s 			page 53


1053:Drivers/lvgl/src/themes/default/lv_theme_default.c ****         lv_obj_add_style(obj, theme->disp_size == DISP_LARGE ? &theme->styles.pad_small : &theme->s
 1483              		.loc 1 1053 9 is_stmt 1 view .LVU308
 1484 0a16 0022     		movs	r2, #0
 1485 0a18 05F14001 		add	r1, r5, #64
 1486 0a1c 2046     		mov	r0, r4
 1487 0a1e FFF7FEFF 		bl	lv_obj_add_style
 1488              	.LVL224:
1054:Drivers/lvgl/src/themes/default/lv_theme_default.c ****         lv_obj_add_style(obj, &theme->styles.outline_primary, LV_STATE_FOCUS_KEY);
 1489              		.loc 1 1054 9 view .LVU309
1054:Drivers/lvgl/src/themes/default/lv_theme_default.c ****         lv_obj_add_style(obj, &theme->styles.outline_primary, LV_STATE_FOCUS_KEY);
 1490              		.loc 1 1054 36 is_stmt 0 view .LVU310
 1491 0a22 95F82830 		ldrb	r3, [r5, #40]	@ zero_extendqisi2
1054:Drivers/lvgl/src/themes/default/lv_theme_default.c ****         lv_obj_add_style(obj, &theme->styles.outline_primary, LV_STATE_FOCUS_KEY);
 1492              		.loc 1 1054 9 view .LVU311
 1493 0a26 012B     		cmp	r3, #1
 1494 0a28 46D0     		beq	.L68
1054:Drivers/lvgl/src/themes/default/lv_theme_default.c ****         lv_obj_add_style(obj, &theme->styles.outline_primary, LV_STATE_FOCUS_KEY);
 1495              		.loc 1 1054 9 discriminator 2 view .LVU312
 1496 0a2a 05F1E801 		add	r1, r5, #232
 1497              	.L33:
1054:Drivers/lvgl/src/themes/default/lv_theme_default.c ****         lv_obj_add_style(obj, &theme->styles.outline_primary, LV_STATE_FOCUS_KEY);
 1498              		.loc 1 1054 9 discriminator 4 view .LVU313
 1499 0a2e 0022     		movs	r2, #0
 1500 0a30 2046     		mov	r0, r4
 1501 0a32 FFF7FEFF 		bl	lv_obj_add_style
 1502              	.LVL225:
1055:Drivers/lvgl/src/themes/default/lv_theme_default.c ****         lv_obj_add_style(obj, &theme->styles.outline_secondary, LV_STATE_EDITED);
 1503              		.loc 1 1055 9 is_stmt 1 view .LVU314
 1504 0a36 0422     		movs	r2, #4
 1505 0a38 05F59871 		add	r1, r5, #304
 1506 0a3c 2046     		mov	r0, r4
 1507 0a3e FFF7FEFF 		bl	lv_obj_add_style
 1508              	.LVL226:
1056:Drivers/lvgl/src/themes/default/lv_theme_default.c ****         lv_obj_add_style(obj, &theme->styles.btn, LV_PART_ITEMS);
 1509              		.loc 1 1056 9 view .LVU315
 1510 0a42 0822     		movs	r2, #8
 1511 0a44 05F59E71 		add	r1, r5, #316
 1512 0a48 2046     		mov	r0, r4
 1513 0a4a FFF7FEFF 		bl	lv_obj_add_style
 1514              	.LVL227:
1057:Drivers/lvgl/src/themes/default/lv_theme_default.c ****         lv_obj_add_style(obj, &theme->styles.disabled, LV_PART_ITEMS | LV_STATE_DISABLED);
 1515              		.loc 1 1057 9 view .LVU316
 1516 0a4e 4FF4A022 		mov	r2, #327680
 1517 0a52 05F17001 		add	r1, r5, #112
 1518 0a56 2046     		mov	r0, r4
 1519 0a58 FFF7FEFF 		bl	lv_obj_add_style
 1520              	.LVL228:
1058:Drivers/lvgl/src/themes/default/lv_theme_default.c ****         lv_obj_add_style(obj, &theme->styles.bg_color_white, LV_PART_ITEMS);
 1521              		.loc 1 1058 9 view .LVU317
 1522 0a5c 264A     		ldr	r2, .L75+56
 1523 0a5e 05F1D001 		add	r1, r5, #208
 1524 0a62 2046     		mov	r0, r4
 1525 0a64 FFF7FEFF 		bl	lv_obj_add_style
 1526              	.LVL229:
1059:Drivers/lvgl/src/themes/default/lv_theme_default.c ****         lv_obj_add_style(obj, &theme->styles.keyboard_button_bg, LV_PART_ITEMS);
 1527              		.loc 1 1059 9 view .LVU318
 1528 0a68 4FF4A022 		mov	r2, #327680
ARM GAS  /var/folders/qx/2_175_4n2s19vhvtspjhb3qh0000gn/T//ccFV8cem.s 			page 54


 1529 0a6c 05F1B801 		add	r1, r5, #184
 1530 0a70 2046     		mov	r0, r4
 1531 0a72 FFF7FEFF 		bl	lv_obj_add_style
 1532              	.LVL230:
1060:Drivers/lvgl/src/themes/default/lv_theme_default.c ****         lv_obj_add_style(obj, &theme->styles.pressed, LV_PART_ITEMS | LV_STATE_PRESSED);
 1533              		.loc 1 1060 9 view .LVU319
 1534 0a76 4FF4A022 		mov	r2, #327680
 1535 0a7a 05F54171 		add	r1, r5, #772
 1536 0a7e 2046     		mov	r0, r4
 1537 0a80 FFF7FEFF 		bl	lv_obj_add_style
 1538              	.LVL231:
1061:Drivers/lvgl/src/themes/default/lv_theme_default.c ****         lv_obj_add_style(obj, &theme->styles.bg_color_grey, LV_PART_ITEMS | LV_STATE_CHECKED);
 1539              		.loc 1 1061 9 view .LVU320
 1540 0a84 1D4A     		ldr	r2, .L75+60
 1541 0a86 05F1C401 		add	r1, r5, #196
 1542 0a8a 2046     		mov	r0, r4
 1543 0a8c FFF7FEFF 		bl	lv_obj_add_style
 1544              	.LVL232:
1062:Drivers/lvgl/src/themes/default/lv_theme_default.c ****         lv_obj_add_style(obj, &theme->styles.bg_color_primary_muted, LV_PART_ITEMS | LV_STATE_FOCUS
 1545              		.loc 1 1062 9 view .LVU321
 1546 0a90 1B4A     		ldr	r2, .L75+64
 1547 0a92 05F1AC01 		add	r1, r5, #172
 1548 0a96 2046     		mov	r0, r4
 1549 0a98 FFF7FEFF 		bl	lv_obj_add_style
 1550              	.LVL233:
1063:Drivers/lvgl/src/themes/default/lv_theme_default.c ****         lv_obj_add_style(obj, &theme->styles.bg_color_secondary_muted, LV_PART_ITEMS | LV_STATE_EDI
 1551              		.loc 1 1063 9 view .LVU322
 1552 0a9c 194A     		ldr	r2, .L75+68
 1553 0a9e 05F18801 		add	r1, r5, #136
 1554 0aa2 2046     		mov	r0, r4
 1555 0aa4 FFF7FEFF 		bl	lv_obj_add_style
 1556              	.LVL234:
1064:Drivers/lvgl/src/themes/default/lv_theme_default.c ****     }
 1557              		.loc 1 1064 9 view .LVU323
 1558 0aa8 174A     		ldr	r2, .L75+72
 1559 0aaa 05F1A001 		add	r1, r5, #160
 1560 0aae 2046     		mov	r0, r4
 1561 0ab0 FFF7FEFF 		bl	lv_obj_add_style
 1562              	.LVL235:
 1563 0ab4 FFF716BB 		b	.L1
 1564              	.L68:
1054:Drivers/lvgl/src/themes/default/lv_theme_default.c ****         lv_obj_add_style(obj, &theme->styles.outline_primary, LV_STATE_FOCUS_KEY);
 1565              		.loc 1 1054 9 is_stmt 0 discriminator 1 view .LVU324
 1566 0ab8 05F1F401 		add	r1, r5, #244
 1567 0abc B7E7     		b	.L33
 1568              	.L76:
 1569 0abe 00BF     		.align	2
 1570              	.L75:
 1571 0ac0 00000000 		.word	lv_roller_class
 1572 0ac4 00000000 		.word	lv_dropdown_class
 1573 0ac8 00000000 		.word	lv_dropdownlist_class
 1574 0acc 40000100 		.word	65600
 1575 0ad0 01000400 		.word	262145
 1576 0ad4 20000400 		.word	262176
 1577 0ad8 00000000 		.word	lv_arc_class
 1578 0adc 00000000 		.word	lv_spinner_class
 1579 0ae0 00000000 		.word	lv_textarea_class
ARM GAS  /var/folders/qx/2_175_4n2s19vhvtspjhb3qh0000gn/T//ccFV8cem.s 			page 55


 1580 0ae4 02000600 		.word	393218
 1581 0ae8 00000000 		.word	lv_calendar_class
 1582 0aec 00000000 		.word	lv_calendar_header_arrow_class
 1583 0af0 00000000 		.word	lv_calendar_header_dropdown_class
 1584 0af4 00000000 		.word	lv_keyboard_class
 1585 0af8 80000500 		.word	327808
 1586 0afc 20000500 		.word	327712
 1587 0b00 01000500 		.word	327681
 1588 0b04 04000500 		.word	327684
 1589 0b08 08000500 		.word	327688
 1590              	.L31:
1069:Drivers/lvgl/src/themes/default/lv_theme_default.c ****         lv_obj_add_style(obj, &theme->styles.bg_color_primary, LV_PART_SELECTED);
 1591              		.loc 1 1069 10 is_stmt 1 view .LVU325
1069:Drivers/lvgl/src/themes/default/lv_theme_default.c ****         lv_obj_add_style(obj, &theme->styles.bg_color_primary, LV_PART_SELECTED);
 1592              		.loc 1 1069 13 is_stmt 0 view .LVU326
 1593 0b0c C149     		ldr	r1, .L77
 1594 0b0e 2046     		mov	r0, r4
 1595 0b10 FFF7FEFF 		bl	lv_obj_check_type
 1596              	.LVL236:
1069:Drivers/lvgl/src/themes/default/lv_theme_default.c ****         lv_obj_add_style(obj, &theme->styles.bg_color_primary, LV_PART_SELECTED);
 1597              		.loc 1 1069 12 discriminator 1 view .LVU327
 1598 0b14 20B1     		cbz	r0, .L34
1069:Drivers/lvgl/src/themes/default/lv_theme_default.c ****         lv_obj_add_style(obj, &theme->styles.bg_color_primary, LV_PART_SELECTED);
 1599              		.loc 1 1069 56 discriminator 1 view .LVU328
 1600 0b16 C049     		ldr	r1, .L77+4
 1601 0b18 3046     		mov	r0, r6
 1602 0b1a FFF7FEFF 		bl	lv_obj_check_type
 1603              	.LVL237:
1069:Drivers/lvgl/src/themes/default/lv_theme_default.c ****         lv_obj_add_style(obj, &theme->styles.bg_color_primary, LV_PART_SELECTED);
 1604              		.loc 1 1069 53 discriminator 1 view .LVU329
 1605 0b1e B8B9     		cbnz	r0, .L69
 1606              	.L34:
1075:Drivers/lvgl/src/themes/default/lv_theme_default.c ****         lv_obj_add_style(obj, &theme->styles.card, 0);
 1607              		.loc 1 1075 10 is_stmt 1 view .LVU330
1075:Drivers/lvgl/src/themes/default/lv_theme_default.c ****         lv_obj_add_style(obj, &theme->styles.card, 0);
 1608              		.loc 1 1075 13 is_stmt 0 view .LVU331
 1609 0b20 BE49     		ldr	r1, .L77+8
 1610 0b22 2046     		mov	r0, r4
 1611 0b24 FFF7FEFF 		bl	lv_obj_check_type
 1612              	.LVL238:
1075:Drivers/lvgl/src/themes/default/lv_theme_default.c ****         lv_obj_add_style(obj, &theme->styles.card, 0);
 1613              		.loc 1 1075 12 discriminator 1 view .LVU332
 1614 0b28 D8B9     		cbnz	r0, .L70
1082:Drivers/lvgl/src/themes/default/lv_theme_default.c ****         lv_obj_add_style(obj, &theme->styles.bg_color_grey, 0);
 1615              		.loc 1 1082 10 is_stmt 1 view .LVU333
1082:Drivers/lvgl/src/themes/default/lv_theme_default.c ****         lv_obj_add_style(obj, &theme->styles.bg_color_grey, 0);
 1616              		.loc 1 1082 13 is_stmt 0 view .LVU334
 1617 0b2a BD49     		ldr	r1, .L77+12
 1618 0b2c 2046     		mov	r0, r4
 1619 0b2e FFF7FEFF 		bl	lv_obj_check_type
 1620              	.LVL239:
1082:Drivers/lvgl/src/themes/default/lv_theme_default.c ****         lv_obj_add_style(obj, &theme->styles.bg_color_grey, 0);
 1621              		.loc 1 1082 12 discriminator 1 view .LVU335
 1622 0b32 88B3     		cbz	r0, .L36
1083:Drivers/lvgl/src/themes/default/lv_theme_default.c ****         lv_obj_add_style(obj, &theme->styles.list_item_grow, 0);
 1623              		.loc 1 1083 9 is_stmt 1 view .LVU336
 1624 0b34 0022     		movs	r2, #0
ARM GAS  /var/folders/qx/2_175_4n2s19vhvtspjhb3qh0000gn/T//ccFV8cem.s 			page 56


 1625 0b36 05F1AC01 		add	r1, r5, #172
 1626 0b3a 2046     		mov	r0, r4
 1627 0b3c FFF7FEFF 		bl	lv_obj_add_style
 1628              	.LVL240:
1084:Drivers/lvgl/src/themes/default/lv_theme_default.c ****     }
 1629              		.loc 1 1084 9 view .LVU337
 1630 0b40 0022     		movs	r2, #0
 1631 0b42 05F54A71 		add	r1, r5, #808
 1632 0b46 2046     		mov	r0, r4
 1633 0b48 FFF7FEFF 		bl	lv_obj_add_style
 1634              	.LVL241:
 1635 0b4c FFF7CABA 		b	.L1
 1636              	.L69:
1070:Drivers/lvgl/src/themes/default/lv_theme_default.c ****     }
 1637              		.loc 1 1070 9 view .LVU338
 1638 0b50 4FF48022 		mov	r2, #262144
 1639 0b54 05F17C01 		add	r1, r5, #124
 1640 0b58 2046     		mov	r0, r4
 1641 0b5a FFF7FEFF 		bl	lv_obj_add_style
 1642              	.LVL242:
 1643 0b5e FFF7C1BA 		b	.L1
 1644              	.L70:
1076:Drivers/lvgl/src/themes/default/lv_theme_default.c ****         lv_obj_add_style(obj, &theme->styles.list_bg, 0);
 1645              		.loc 1 1076 9 view .LVU339
 1646 0b62 0022     		movs	r2, #0
 1647 0b64 05F16401 		add	r1, r5, #100
 1648 0b68 2046     		mov	r0, r4
 1649 0b6a FFF7FEFF 		bl	lv_obj_add_style
 1650              	.LVL243:
1077:Drivers/lvgl/src/themes/default/lv_theme_default.c ****         lv_obj_add_style(obj, &theme->styles.scrollbar, LV_PART_SCROLLBAR);
 1651              		.loc 1 1077 9 view .LVU340
 1652 0b6e 0022     		movs	r2, #0
 1653 0b70 05F54471 		add	r1, r5, #784
 1654 0b74 2046     		mov	r0, r4
 1655 0b76 FFF7FEFF 		bl	lv_obj_add_style
 1656              	.LVL244:
1078:Drivers/lvgl/src/themes/default/lv_theme_default.c ****         lv_obj_add_style(obj, &theme->styles.scrollbar_scrolled, LV_PART_SCROLLBAR | LV_STATE_SCROL
 1657              		.loc 1 1078 9 view .LVU341
 1658 0b7a 4FF48032 		mov	r2, #65536
 1659 0b7e 05F14C01 		add	r1, r5, #76
 1660 0b82 2046     		mov	r0, r4
 1661 0b84 FFF7FEFF 		bl	lv_obj_add_style
 1662              	.LVL245:
1079:Drivers/lvgl/src/themes/default/lv_theme_default.c ****         return;
 1663              		.loc 1 1079 9 view .LVU342
 1664 0b88 A64A     		ldr	r2, .L77+16
 1665 0b8a 05F15801 		add	r1, r5, #88
 1666 0b8e 2046     		mov	r0, r4
 1667 0b90 FFF7FEFF 		bl	lv_obj_add_style
 1668              	.LVL246:
1080:Drivers/lvgl/src/themes/default/lv_theme_default.c ****     }
 1669              		.loc 1 1080 9 view .LVU343
 1670 0b94 FFF7A6BA 		b	.L1
 1671              	.L36:
1086:Drivers/lvgl/src/themes/default/lv_theme_default.c ****         lv_obj_add_style(obj, &theme->styles.bg_color_white, 0);
 1672              		.loc 1 1086 10 view .LVU344
1086:Drivers/lvgl/src/themes/default/lv_theme_default.c ****         lv_obj_add_style(obj, &theme->styles.bg_color_white, 0);
ARM GAS  /var/folders/qx/2_175_4n2s19vhvtspjhb3qh0000gn/T//ccFV8cem.s 			page 57


 1673              		.loc 1 1086 13 is_stmt 0 view .LVU345
 1674 0b98 A349     		ldr	r1, .L77+20
 1675 0b9a 2046     		mov	r0, r4
 1676 0b9c FFF7FEFF 		bl	lv_obj_check_type
 1677              	.LVL247:
1086:Drivers/lvgl/src/themes/default/lv_theme_default.c ****         lv_obj_add_style(obj, &theme->styles.bg_color_white, 0);
 1678              		.loc 1 1086 12 discriminator 1 view .LVU346
 1679 0ba0 28B3     		cbz	r0, .L37
1087:Drivers/lvgl/src/themes/default/lv_theme_default.c ****         lv_obj_add_style(obj, &theme->styles.list_btn, 0);
 1680              		.loc 1 1087 9 is_stmt 1 view .LVU347
 1681 0ba2 0022     		movs	r2, #0
 1682 0ba4 05F1B801 		add	r1, r5, #184
 1683 0ba8 2046     		mov	r0, r4
 1684 0baa FFF7FEFF 		bl	lv_obj_add_style
 1685              	.LVL248:
1088:Drivers/lvgl/src/themes/default/lv_theme_default.c ****         lv_obj_add_style(obj, &theme->styles.bg_color_primary, LV_STATE_FOCUS_KEY);
 1686              		.loc 1 1088 9 view .LVU348
 1687 0bae 0022     		movs	r2, #0
 1688 0bb0 05F54771 		add	r1, r5, #796
 1689 0bb4 2046     		mov	r0, r4
 1690 0bb6 FFF7FEFF 		bl	lv_obj_add_style
 1691              	.LVL249:
1089:Drivers/lvgl/src/themes/default/lv_theme_default.c ****         lv_obj_add_style(obj, &theme->styles.list_item_grow, LV_STATE_FOCUS_KEY);
 1692              		.loc 1 1089 9 view .LVU349
 1693 0bba 0422     		movs	r2, #4
 1694 0bbc 05F17C01 		add	r1, r5, #124
 1695 0bc0 2046     		mov	r0, r4
 1696 0bc2 FFF7FEFF 		bl	lv_obj_add_style
 1697              	.LVL250:
1090:Drivers/lvgl/src/themes/default/lv_theme_default.c ****         lv_obj_add_style(obj, &theme->styles.list_item_grow, LV_STATE_PRESSED);
 1698              		.loc 1 1090 9 view .LVU350
1090:Drivers/lvgl/src/themes/default/lv_theme_default.c ****         lv_obj_add_style(obj, &theme->styles.list_item_grow, LV_STATE_PRESSED);
 1699              		.loc 1 1090 31 is_stmt 0 view .LVU351
 1700 0bc6 05F54A76 		add	r6, r5, #808
 1701              	.LVL251:
1090:Drivers/lvgl/src/themes/default/lv_theme_default.c ****         lv_obj_add_style(obj, &theme->styles.list_item_grow, LV_STATE_PRESSED);
 1702              		.loc 1 1090 9 view .LVU352
 1703 0bca 0422     		movs	r2, #4
 1704 0bcc 3146     		mov	r1, r6
 1705 0bce 2046     		mov	r0, r4
 1706 0bd0 FFF7FEFF 		bl	lv_obj_add_style
 1707              	.LVL252:
1091:Drivers/lvgl/src/themes/default/lv_theme_default.c ****         lv_obj_add_style(obj, &theme->styles.pressed, LV_STATE_PRESSED);
 1708              		.loc 1 1091 9 is_stmt 1 view .LVU353
 1709 0bd4 2022     		movs	r2, #32
 1710 0bd6 3146     		mov	r1, r6
 1711 0bd8 2046     		mov	r0, r4
 1712 0bda FFF7FEFF 		bl	lv_obj_add_style
 1713              	.LVL253:
1092:Drivers/lvgl/src/themes/default/lv_theme_default.c ****     }
 1714              		.loc 1 1092 9 view .LVU354
 1715 0bde 2022     		movs	r2, #32
 1716 0be0 05F1C401 		add	r1, r5, #196
 1717 0be4 2046     		mov	r0, r4
 1718 0be6 FFF7FEFF 		bl	lv_obj_add_style
 1719              	.LVL254:
 1720 0bea FFF77BBA 		b	.L1
ARM GAS  /var/folders/qx/2_175_4n2s19vhvtspjhb3qh0000gn/T//ccFV8cem.s 			page 58


 1721              	.LVL255:
 1722              	.L37:
1096:Drivers/lvgl/src/themes/default/lv_theme_default.c ****         lv_obj_add_style(obj, &theme->styles.card, 0);
 1723              		.loc 1 1096 10 view .LVU355
1096:Drivers/lvgl/src/themes/default/lv_theme_default.c ****         lv_obj_add_style(obj, &theme->styles.card, 0);
 1724              		.loc 1 1096 13 is_stmt 0 view .LVU356
 1725 0bee 8F49     		ldr	r1, .L77+24
 1726 0bf0 2046     		mov	r0, r4
 1727 0bf2 FFF7FEFF 		bl	lv_obj_check_type
 1728              	.LVL256:
1096:Drivers/lvgl/src/themes/default/lv_theme_default.c ****         lv_obj_add_style(obj, &theme->styles.card, 0);
 1729              		.loc 1 1096 12 discriminator 1 view .LVU357
 1730 0bf6 68B1     		cbz	r0, .L38
1097:Drivers/lvgl/src/themes/default/lv_theme_default.c ****         lv_obj_add_style(obj, &theme->styles.menu_bg, 0);
 1731              		.loc 1 1097 9 is_stmt 1 view .LVU358
 1732 0bf8 0022     		movs	r2, #0
 1733 0bfa 05F16401 		add	r1, r5, #100
 1734 0bfe 2046     		mov	r0, r4
 1735 0c00 FFF7FEFF 		bl	lv_obj_add_style
 1736              	.LVL257:
1098:Drivers/lvgl/src/themes/default/lv_theme_default.c ****     }
 1737              		.loc 1 1098 9 view .LVU359
 1738 0c04 0022     		movs	r2, #0
 1739 0c06 05F52071 		add	r1, r5, #640
 1740 0c0a 2046     		mov	r0, r4
 1741 0c0c FFF7FEFF 		bl	lv_obj_add_style
 1742              	.LVL258:
 1743 0c10 FFF768BA 		b	.L1
 1744              	.L38:
1100:Drivers/lvgl/src/themes/default/lv_theme_default.c ****         lv_obj_add_style(obj, &theme->styles.menu_sidebar_cont, 0);
 1745              		.loc 1 1100 10 view .LVU360
1100:Drivers/lvgl/src/themes/default/lv_theme_default.c ****         lv_obj_add_style(obj, &theme->styles.menu_sidebar_cont, 0);
 1746              		.loc 1 1100 13 is_stmt 0 view .LVU361
 1747 0c14 8649     		ldr	r1, .L77+28
 1748 0c16 2046     		mov	r0, r4
 1749 0c18 FFF7FEFF 		bl	lv_obj_check_type
 1750              	.LVL259:
1100:Drivers/lvgl/src/themes/default/lv_theme_default.c ****         lv_obj_add_style(obj, &theme->styles.menu_sidebar_cont, 0);
 1751              		.loc 1 1100 12 discriminator 1 view .LVU362
 1752 0c1c A0B1     		cbz	r0, .L39
1101:Drivers/lvgl/src/themes/default/lv_theme_default.c ****         lv_obj_add_style(obj, &theme->styles.scrollbar, LV_PART_SCROLLBAR);
 1753              		.loc 1 1101 9 is_stmt 1 view .LVU363
 1754 0c1e 0022     		movs	r2, #0
 1755 0c20 05F52671 		add	r1, r5, #664
 1756 0c24 2046     		mov	r0, r4
 1757 0c26 FFF7FEFF 		bl	lv_obj_add_style
 1758              	.LVL260:
1102:Drivers/lvgl/src/themes/default/lv_theme_default.c ****         lv_obj_add_style(obj, &theme->styles.scrollbar_scrolled, LV_PART_SCROLLBAR | LV_STATE_SCROL
 1759              		.loc 1 1102 9 view .LVU364
 1760 0c2a 4FF48032 		mov	r2, #65536
 1761 0c2e 05F14C01 		add	r1, r5, #76
 1762 0c32 2046     		mov	r0, r4
 1763 0c34 FFF7FEFF 		bl	lv_obj_add_style
 1764              	.LVL261:
1103:Drivers/lvgl/src/themes/default/lv_theme_default.c ****     }
 1765              		.loc 1 1103 9 view .LVU365
 1766 0c38 7A4A     		ldr	r2, .L77+16
ARM GAS  /var/folders/qx/2_175_4n2s19vhvtspjhb3qh0000gn/T//ccFV8cem.s 			page 59


 1767 0c3a 05F15801 		add	r1, r5, #88
 1768 0c3e 2046     		mov	r0, r4
 1769 0c40 FFF7FEFF 		bl	lv_obj_add_style
 1770              	.LVL262:
 1771 0c44 FFF74EBA 		b	.L1
 1772              	.L39:
1105:Drivers/lvgl/src/themes/default/lv_theme_default.c ****         lv_obj_add_style(obj, &theme->styles.menu_main_cont, 0);
 1773              		.loc 1 1105 10 view .LVU366
1105:Drivers/lvgl/src/themes/default/lv_theme_default.c ****         lv_obj_add_style(obj, &theme->styles.menu_main_cont, 0);
 1774              		.loc 1 1105 13 is_stmt 0 view .LVU367
 1775 0c48 7A49     		ldr	r1, .L77+32
 1776 0c4a 2046     		mov	r0, r4
 1777 0c4c FFF7FEFF 		bl	lv_obj_check_type
 1778              	.LVL263:
1105:Drivers/lvgl/src/themes/default/lv_theme_default.c ****         lv_obj_add_style(obj, &theme->styles.menu_main_cont, 0);
 1779              		.loc 1 1105 12 discriminator 1 view .LVU368
 1780 0c50 A0B1     		cbz	r0, .L40
1106:Drivers/lvgl/src/themes/default/lv_theme_default.c ****         lv_obj_add_style(obj, &theme->styles.scrollbar, LV_PART_SCROLLBAR);
 1781              		.loc 1 1106 9 is_stmt 1 view .LVU369
 1782 0c52 0022     		movs	r2, #0
 1783 0c54 05F52971 		add	r1, r5, #676
 1784 0c58 2046     		mov	r0, r4
 1785 0c5a FFF7FEFF 		bl	lv_obj_add_style
 1786              	.LVL264:
1107:Drivers/lvgl/src/themes/default/lv_theme_default.c ****         lv_obj_add_style(obj, &theme->styles.scrollbar_scrolled, LV_PART_SCROLLBAR | LV_STATE_SCROL
 1787              		.loc 1 1107 9 view .LVU370
 1788 0c5e 4FF48032 		mov	r2, #65536
 1789 0c62 05F14C01 		add	r1, r5, #76
 1790 0c66 2046     		mov	r0, r4
 1791 0c68 FFF7FEFF 		bl	lv_obj_add_style
 1792              	.LVL265:
1108:Drivers/lvgl/src/themes/default/lv_theme_default.c ****     }
 1793              		.loc 1 1108 9 view .LVU371
 1794 0c6c 6D4A     		ldr	r2, .L77+16
 1795 0c6e 05F15801 		add	r1, r5, #88
 1796 0c72 2046     		mov	r0, r4
 1797 0c74 FFF7FEFF 		bl	lv_obj_add_style
 1798              	.LVL266:
 1799 0c78 FFF734BA 		b	.L1
 1800              	.L40:
1110:Drivers/lvgl/src/themes/default/lv_theme_default.c ****         lv_obj_add_style(obj, &theme->styles.menu_cont, 0);
 1801              		.loc 1 1110 10 view .LVU372
1110:Drivers/lvgl/src/themes/default/lv_theme_default.c ****         lv_obj_add_style(obj, &theme->styles.menu_cont, 0);
 1802              		.loc 1 1110 13 is_stmt 0 view .LVU373
 1803 0c7c 6E49     		ldr	r1, .L77+36
 1804 0c7e 2046     		mov	r0, r4
 1805 0c80 FFF7FEFF 		bl	lv_obj_check_type
 1806              	.LVL267:
1110:Drivers/lvgl/src/themes/default/lv_theme_default.c ****         lv_obj_add_style(obj, &theme->styles.menu_cont, 0);
 1807              		.loc 1 1110 12 discriminator 1 view .LVU374
 1808 0c84 F8B1     		cbz	r0, .L41
1111:Drivers/lvgl/src/themes/default/lv_theme_default.c ****         lv_obj_add_style(obj, &theme->styles.menu_pressed, LV_STATE_PRESSED);
 1809              		.loc 1 1111 9 is_stmt 1 view .LVU375
 1810 0c86 0022     		movs	r2, #0
 1811 0c88 05F52371 		add	r1, r5, #652
 1812 0c8c 2046     		mov	r0, r4
 1813 0c8e FFF7FEFF 		bl	lv_obj_add_style
ARM GAS  /var/folders/qx/2_175_4n2s19vhvtspjhb3qh0000gn/T//ccFV8cem.s 			page 60


 1814              	.LVL268:
1112:Drivers/lvgl/src/themes/default/lv_theme_default.c ****         lv_obj_add_style(obj, &theme->styles.bg_color_primary_muted, LV_STATE_PRESSED | LV_STATE_CH
 1815              		.loc 1 1112 9 view .LVU376
 1816 0c92 2022     		movs	r2, #32
 1817 0c94 05F53871 		add	r1, r5, #736
 1818 0c98 2046     		mov	r0, r4
 1819 0c9a FFF7FEFF 		bl	lv_obj_add_style
 1820              	.LVL269:
1113:Drivers/lvgl/src/themes/default/lv_theme_default.c ****         lv_obj_add_style(obj, &theme->styles.bg_color_primary_muted, LV_STATE_CHECKED);
 1821              		.loc 1 1113 9 view .LVU377
1113:Drivers/lvgl/src/themes/default/lv_theme_default.c ****         lv_obj_add_style(obj, &theme->styles.bg_color_primary_muted, LV_STATE_CHECKED);
 1822              		.loc 1 1113 31 is_stmt 0 view .LVU378
 1823 0c9e 05F18806 		add	r6, r5, #136
 1824              	.LVL270:
1113:Drivers/lvgl/src/themes/default/lv_theme_default.c ****         lv_obj_add_style(obj, &theme->styles.bg_color_primary_muted, LV_STATE_CHECKED);
 1825              		.loc 1 1113 9 view .LVU379
 1826 0ca2 2122     		movs	r2, #33
 1827 0ca4 3146     		mov	r1, r6
 1828 0ca6 2046     		mov	r0, r4
 1829 0ca8 FFF7FEFF 		bl	lv_obj_add_style
 1830              	.LVL271:
1114:Drivers/lvgl/src/themes/default/lv_theme_default.c ****         lv_obj_add_style(obj, &theme->styles.bg_color_primary, LV_STATE_FOCUS_KEY);
 1831              		.loc 1 1114 9 is_stmt 1 view .LVU380
 1832 0cac 0122     		movs	r2, #1
 1833 0cae 3146     		mov	r1, r6
 1834 0cb0 2046     		mov	r0, r4
 1835 0cb2 FFF7FEFF 		bl	lv_obj_add_style
 1836              	.LVL272:
1115:Drivers/lvgl/src/themes/default/lv_theme_default.c ****     }
 1837              		.loc 1 1115 9 view .LVU381
 1838 0cb6 0422     		movs	r2, #4
 1839 0cb8 05F17C01 		add	r1, r5, #124
 1840 0cbc 2046     		mov	r0, r4
 1841 0cbe FFF7FEFF 		bl	lv_obj_add_style
 1842              	.LVL273:
 1843 0cc2 FFF70FBA 		b	.L1
 1844              	.LVL274:
 1845              	.L41:
1117:Drivers/lvgl/src/themes/default/lv_theme_default.c ****             lv_obj_check_type(obj, &lv_menu_main_header_cont_class)) {
 1846              		.loc 1 1117 10 view .LVU382
1117:Drivers/lvgl/src/themes/default/lv_theme_default.c ****             lv_obj_check_type(obj, &lv_menu_main_header_cont_class)) {
 1847              		.loc 1 1117 13 is_stmt 0 view .LVU383
 1848 0cc6 5D49     		ldr	r1, .L77+40
 1849 0cc8 2046     		mov	r0, r4
 1850 0cca FFF7FEFF 		bl	lv_obj_check_type
 1851              	.LVL275:
1117:Drivers/lvgl/src/themes/default/lv_theme_default.c ****             lv_obj_check_type(obj, &lv_menu_main_header_cont_class)) {
 1852              		.loc 1 1117 12 discriminator 1 view .LVU384
 1853 0cce 20B9     		cbnz	r0, .L42
1118:Drivers/lvgl/src/themes/default/lv_theme_default.c ****         lv_obj_add_style(obj, &theme->styles.menu_header_cont, 0);
 1854              		.loc 1 1118 13 view .LVU385
 1855 0cd0 5B49     		ldr	r1, .L77+44
 1856 0cd2 2046     		mov	r0, r4
 1857 0cd4 FFF7FEFF 		bl	lv_obj_check_type
 1858              	.LVL276:
1117:Drivers/lvgl/src/themes/default/lv_theme_default.c ****             lv_obj_check_type(obj, &lv_menu_main_header_cont_class)) {
 1859              		.loc 1 1117 72 discriminator 1 view .LVU386
ARM GAS  /var/folders/qx/2_175_4n2s19vhvtspjhb3qh0000gn/T//ccFV8cem.s 			page 61


 1860 0cd8 38B1     		cbz	r0, .L43
 1861              	.L42:
1119:Drivers/lvgl/src/themes/default/lv_theme_default.c ****     }
 1862              		.loc 1 1119 9 is_stmt 1 view .LVU387
 1863 0cda 0022     		movs	r2, #0
 1864 0cdc 05F52F71 		add	r1, r5, #700
 1865 0ce0 2046     		mov	r0, r4
 1866 0ce2 FFF7FEFF 		bl	lv_obj_add_style
 1867              	.LVL277:
 1868 0ce6 FFF7FDB9 		b	.L1
 1869              	.L43:
1121:Drivers/lvgl/src/themes/default/lv_theme_default.c ****         lv_obj_add_style(obj, &theme->styles.menu_page, 0);
 1870              		.loc 1 1121 10 view .LVU388
1121:Drivers/lvgl/src/themes/default/lv_theme_default.c ****         lv_obj_add_style(obj, &theme->styles.menu_page, 0);
 1871              		.loc 1 1121 13 is_stmt 0 view .LVU389
 1872 0cea 5649     		ldr	r1, .L77+48
 1873 0cec 2046     		mov	r0, r4
 1874 0cee FFF7FEFF 		bl	lv_obj_check_type
 1875              	.LVL278:
1121:Drivers/lvgl/src/themes/default/lv_theme_default.c ****         lv_obj_add_style(obj, &theme->styles.menu_page, 0);
 1876              		.loc 1 1121 12 discriminator 1 view .LVU390
 1877 0cf2 A0B1     		cbz	r0, .L44
1122:Drivers/lvgl/src/themes/default/lv_theme_default.c ****         lv_obj_add_style(obj, &theme->styles.scrollbar, LV_PART_SCROLLBAR);
 1878              		.loc 1 1122 9 is_stmt 1 view .LVU391
 1879 0cf4 0022     		movs	r2, #0
 1880 0cf6 05F52C71 		add	r1, r5, #688
 1881 0cfa 2046     		mov	r0, r4
 1882 0cfc FFF7FEFF 		bl	lv_obj_add_style
 1883              	.LVL279:
1123:Drivers/lvgl/src/themes/default/lv_theme_default.c ****         lv_obj_add_style(obj, &theme->styles.scrollbar_scrolled, LV_PART_SCROLLBAR | LV_STATE_SCROL
 1884              		.loc 1 1123 9 view .LVU392
 1885 0d00 4FF48032 		mov	r2, #65536
 1886 0d04 05F14C01 		add	r1, r5, #76
 1887 0d08 2046     		mov	r0, r4
 1888 0d0a FFF7FEFF 		bl	lv_obj_add_style
 1889              	.LVL280:
1124:Drivers/lvgl/src/themes/default/lv_theme_default.c ****     }
 1890              		.loc 1 1124 9 view .LVU393
 1891 0d0e 454A     		ldr	r2, .L77+16
 1892 0d10 05F15801 		add	r1, r5, #88
 1893 0d14 2046     		mov	r0, r4
 1894 0d16 FFF7FEFF 		bl	lv_obj_add_style
 1895              	.LVL281:
 1896 0d1a FFF7E3B9 		b	.L1
 1897              	.L44:
1126:Drivers/lvgl/src/themes/default/lv_theme_default.c ****         lv_obj_add_style(obj, &theme->styles.menu_section, 0);
 1898              		.loc 1 1126 10 view .LVU394
1126:Drivers/lvgl/src/themes/default/lv_theme_default.c ****         lv_obj_add_style(obj, &theme->styles.menu_section, 0);
 1899              		.loc 1 1126 13 is_stmt 0 view .LVU395
 1900 0d1e 4A49     		ldr	r1, .L77+52
 1901 0d20 2046     		mov	r0, r4
 1902 0d22 FFF7FEFF 		bl	lv_obj_check_type
 1903              	.LVL282:
1126:Drivers/lvgl/src/themes/default/lv_theme_default.c ****         lv_obj_add_style(obj, &theme->styles.menu_section, 0);
 1904              		.loc 1 1126 12 discriminator 1 view .LVU396
 1905 0d26 38B1     		cbz	r0, .L45
1127:Drivers/lvgl/src/themes/default/lv_theme_default.c ****     }
ARM GAS  /var/folders/qx/2_175_4n2s19vhvtspjhb3qh0000gn/T//ccFV8cem.s 			page 62


 1906              		.loc 1 1127 9 is_stmt 1 view .LVU397
 1907 0d28 0022     		movs	r2, #0
 1908 0d2a 05F53571 		add	r1, r5, #724
 1909 0d2e 2046     		mov	r0, r4
 1910 0d30 FFF7FEFF 		bl	lv_obj_add_style
 1911              	.LVL283:
 1912 0d34 FFF7D6B9 		b	.L1
 1913              	.L45:
1129:Drivers/lvgl/src/themes/default/lv_theme_default.c ****         lv_obj_add_style(obj, &theme->styles.menu_separator, 0);
 1914              		.loc 1 1129 10 view .LVU398
1129:Drivers/lvgl/src/themes/default/lv_theme_default.c ****         lv_obj_add_style(obj, &theme->styles.menu_separator, 0);
 1915              		.loc 1 1129 13 is_stmt 0 view .LVU399
 1916 0d38 4449     		ldr	r1, .L77+56
 1917 0d3a 2046     		mov	r0, r4
 1918 0d3c FFF7FEFF 		bl	lv_obj_check_type
 1919              	.LVL284:
1129:Drivers/lvgl/src/themes/default/lv_theme_default.c ****         lv_obj_add_style(obj, &theme->styles.menu_separator, 0);
 1920              		.loc 1 1129 12 discriminator 1 view .LVU400
 1921 0d40 38B1     		cbz	r0, .L46
1130:Drivers/lvgl/src/themes/default/lv_theme_default.c ****     }
 1922              		.loc 1 1130 9 is_stmt 1 view .LVU401
 1923 0d42 0022     		movs	r2, #0
 1924 0d44 05F53B71 		add	r1, r5, #748
 1925 0d48 2046     		mov	r0, r4
 1926 0d4a FFF7FEFF 		bl	lv_obj_add_style
 1927              	.LVL285:
 1928 0d4e FFF7C9B9 		b	.L1
 1929              	.L46:
1134:Drivers/lvgl/src/themes/default/lv_theme_default.c ****         lv_obj_add_style(obj, &theme->styles.card, 0);
 1930              		.loc 1 1134 10 view .LVU402
1134:Drivers/lvgl/src/themes/default/lv_theme_default.c ****         lv_obj_add_style(obj, &theme->styles.card, 0);
 1931              		.loc 1 1134 13 is_stmt 0 view .LVU403
 1932 0d52 3F49     		ldr	r1, .L77+60
 1933 0d54 2046     		mov	r0, r4
 1934 0d56 FFF7FEFF 		bl	lv_obj_check_type
 1935              	.LVL286:
1134:Drivers/lvgl/src/themes/default/lv_theme_default.c ****         lv_obj_add_style(obj, &theme->styles.card, 0);
 1936              		.loc 1 1134 12 discriminator 1 view .LVU404
 1937 0d5a 98B1     		cbz	r0, .L47
1135:Drivers/lvgl/src/themes/default/lv_theme_default.c ****         lv_obj_add_style(obj, &theme->styles.pad_zero, 0);
 1938              		.loc 1 1135 9 is_stmt 1 view .LVU405
 1939 0d5c 0022     		movs	r2, #0
 1940 0d5e 05F16401 		add	r1, r5, #100
 1941 0d62 2046     		mov	r0, r4
 1942 0d64 FFF7FEFF 		bl	lv_obj_add_style
 1943              	.LVL287:
1136:Drivers/lvgl/src/themes/default/lv_theme_default.c ****         lv_obj_add_style(obj, &theme->styles.clip_corner, 0);
 1944              		.loc 1 1136 9 view .LVU406
 1945 0d68 0022     		movs	r2, #0
 1946 0d6a 05F1DC01 		add	r1, r5, #220
 1947 0d6e 2046     		mov	r0, r4
 1948 0d70 FFF7FEFF 		bl	lv_obj_add_style
 1949              	.LVL288:
1137:Drivers/lvgl/src/themes/default/lv_theme_default.c ****         return;
 1950              		.loc 1 1137 9 view .LVU407
 1951 0d74 0022     		movs	r2, #0
 1952 0d76 05F5B071 		add	r1, r5, #352
ARM GAS  /var/folders/qx/2_175_4n2s19vhvtspjhb3qh0000gn/T//ccFV8cem.s 			page 63


 1953 0d7a 2046     		mov	r0, r4
 1954 0d7c FFF7FEFF 		bl	lv_obj_add_style
 1955              	.LVL289:
1138:Drivers/lvgl/src/themes/default/lv_theme_default.c ****     }
 1956              		.loc 1 1138 9 view .LVU408
 1957 0d80 FFF7B0B9 		b	.L1
 1958              	.L47:
1140:Drivers/lvgl/src/themes/default/lv_theme_default.c ****         lv_obj_add_style(obj, &theme->styles.msgbox_backdrop_bg, 0);
 1959              		.loc 1 1140 10 view .LVU409
1140:Drivers/lvgl/src/themes/default/lv_theme_default.c ****         lv_obj_add_style(obj, &theme->styles.msgbox_backdrop_bg, 0);
 1960              		.loc 1 1140 13 is_stmt 0 view .LVU410
 1961 0d84 3349     		ldr	r1, .L77+64
 1962 0d86 2046     		mov	r0, r4
 1963 0d88 FFF7FEFF 		bl	lv_obj_check_type
 1964              	.LVL290:
1140:Drivers/lvgl/src/themes/default/lv_theme_default.c ****         lv_obj_add_style(obj, &theme->styles.msgbox_backdrop_bg, 0);
 1965              		.loc 1 1140 12 discriminator 1 view .LVU411
 1966 0d8c 38B1     		cbz	r0, .L48
1141:Drivers/lvgl/src/themes/default/lv_theme_default.c ****         return;
 1967              		.loc 1 1141 9 is_stmt 1 view .LVU412
 1968 0d8e 0022     		movs	r2, #0
 1969 0d90 05F53E71 		add	r1, r5, #760
 1970 0d94 2046     		mov	r0, r4
 1971 0d96 FFF7FEFF 		bl	lv_obj_add_style
 1972              	.LVL291:
1142:Drivers/lvgl/src/themes/default/lv_theme_default.c ****     }
 1973              		.loc 1 1142 9 view .LVU413
 1974 0d9a FFF7A3B9 		b	.L1
 1975              	.L48:
1144:Drivers/lvgl/src/themes/default/lv_theme_default.c ****         lv_obj_add_style(obj, &theme->styles.pad_small, 0);
 1976              		.loc 1 1144 10 view .LVU414
1144:Drivers/lvgl/src/themes/default/lv_theme_default.c ****         lv_obj_add_style(obj, &theme->styles.pad_small, 0);
 1977              		.loc 1 1144 13 is_stmt 0 view .LVU415
 1978 0d9e 2E49     		ldr	r1, .L77+68
 1979 0da0 2046     		mov	r0, r4
 1980 0da2 FFF7FEFF 		bl	lv_obj_check_type
 1981              	.LVL292:
1144:Drivers/lvgl/src/themes/default/lv_theme_default.c ****         lv_obj_add_style(obj, &theme->styles.pad_small, 0);
 1982              		.loc 1 1144 12 discriminator 1 view .LVU416
 1983 0da6 68B1     		cbz	r0, .L49
1145:Drivers/lvgl/src/themes/default/lv_theme_default.c ****         lv_obj_add_style(obj, &theme->styles.bg_color_grey, 0);
 1984              		.loc 1 1145 9 is_stmt 1 view .LVU417
 1985 0da8 0022     		movs	r2, #0
 1986 0daa 05F1F401 		add	r1, r5, #244
 1987 0dae 2046     		mov	r0, r4
 1988 0db0 FFF7FEFF 		bl	lv_obj_add_style
 1989              	.LVL293:
1146:Drivers/lvgl/src/themes/default/lv_theme_default.c ****         return;
 1990              		.loc 1 1146 9 view .LVU418
 1991 0db4 0022     		movs	r2, #0
 1992 0db6 05F1AC01 		add	r1, r5, #172
 1993 0dba 2046     		mov	r0, r4
 1994 0dbc FFF7FEFF 		bl	lv_obj_add_style
 1995              	.LVL294:
1147:Drivers/lvgl/src/themes/default/lv_theme_default.c ****     }
 1996              		.loc 1 1147 9 view .LVU419
 1997 0dc0 FFF790B9 		b	.L1
ARM GAS  /var/folders/qx/2_175_4n2s19vhvtspjhb3qh0000gn/T//ccFV8cem.s 			page 64


 1998              	.L49:
1149:Drivers/lvgl/src/themes/default/lv_theme_default.c ****         lv_obj_add_style(obj, &theme->styles.pad_small, 0);
 1999              		.loc 1 1149 10 view .LVU420
1149:Drivers/lvgl/src/themes/default/lv_theme_default.c ****         lv_obj_add_style(obj, &theme->styles.pad_small, 0);
 2000              		.loc 1 1149 13 is_stmt 0 view .LVU421
 2001 0dc4 2549     		ldr	r1, .L77+72
 2002 0dc6 2046     		mov	r0, r4
 2003 0dc8 FFF7FEFF 		bl	lv_obj_check_type
 2004              	.LVL295:
1149:Drivers/lvgl/src/themes/default/lv_theme_default.c ****         lv_obj_add_style(obj, &theme->styles.pad_small, 0);
 2005              		.loc 1 1149 12 discriminator 1 view .LVU422
 2006 0dcc 38B1     		cbz	r0, .L50
1150:Drivers/lvgl/src/themes/default/lv_theme_default.c ****         return;
 2007              		.loc 1 1150 9 is_stmt 1 view .LVU423
 2008 0dce 0022     		movs	r2, #0
 2009 0dd0 05F1F401 		add	r1, r5, #244
 2010 0dd4 2046     		mov	r0, r4
 2011 0dd6 FFF7FEFF 		bl	lv_obj_add_style
 2012              	.LVL296:
1151:Drivers/lvgl/src/themes/default/lv_theme_default.c ****     }
 2013              		.loc 1 1151 9 view .LVU424
 2014 0dda FFF783B9 		b	.L1
 2015              	.L50:
1153:Drivers/lvgl/src/themes/default/lv_theme_default.c ****         lv_obj_add_style(obj, &theme->styles.scrollbar, LV_PART_SCROLLBAR);
 2016              		.loc 1 1153 10 view .LVU425
1153:Drivers/lvgl/src/themes/default/lv_theme_default.c ****         lv_obj_add_style(obj, &theme->styles.scrollbar, LV_PART_SCROLLBAR);
 2017              		.loc 1 1153 13 is_stmt 0 view .LVU426
 2018 0dde 2049     		ldr	r1, .L77+76
 2019 0de0 2046     		mov	r0, r4
 2020 0de2 FFF7FEFF 		bl	lv_obj_check_type
 2021              	.LVL297:
1153:Drivers/lvgl/src/themes/default/lv_theme_default.c ****         lv_obj_add_style(obj, &theme->styles.scrollbar, LV_PART_SCROLLBAR);
 2022              		.loc 1 1153 12 discriminator 1 view .LVU427
 2023 0de6 0028     		cmp	r0, #0
 2024 0de8 3CD0     		beq	.L51
1154:Drivers/lvgl/src/themes/default/lv_theme_default.c ****         lv_obj_add_style(obj, &theme->styles.scrollbar_scrolled, LV_PART_SCROLLBAR | LV_STATE_SCROL
 2025              		.loc 1 1154 9 is_stmt 1 view .LVU428
 2026 0dea 4FF48032 		mov	r2, #65536
 2027 0dee 05F14C01 		add	r1, r5, #76
 2028 0df2 2046     		mov	r0, r4
 2029 0df4 FFF7FEFF 		bl	lv_obj_add_style
 2030              	.LVL298:
1155:Drivers/lvgl/src/themes/default/lv_theme_default.c ****         lv_obj_add_style(obj, &theme->styles.pad_small, 0);
 2031              		.loc 1 1155 9 view .LVU429
 2032 0df8 0A4A     		ldr	r2, .L77+16
 2033 0dfa 05F15801 		add	r1, r5, #88
 2034 0dfe 2046     		mov	r0, r4
 2035 0e00 FFF7FEFF 		bl	lv_obj_add_style
 2036              	.LVL299:
1156:Drivers/lvgl/src/themes/default/lv_theme_default.c ****         return;
 2037              		.loc 1 1156 9 view .LVU430
 2038 0e04 0022     		movs	r2, #0
 2039 0e06 05F1F401 		add	r1, r5, #244
 2040 0e0a 2046     		mov	r0, r4
 2041 0e0c FFF7FEFF 		bl	lv_obj_add_style
 2042              	.LVL300:
1157:Drivers/lvgl/src/themes/default/lv_theme_default.c ****     }
ARM GAS  /var/folders/qx/2_175_4n2s19vhvtspjhb3qh0000gn/T//ccFV8cem.s 			page 65


 2043              		.loc 1 1157 9 view .LVU431
 2044 0e10 FFF768B9 		b	.L1
 2045              	.L78:
 2046              		.align	2
 2047              	.L77:
 2048 0e14 00000000 		.word	lv_label_class
 2049 0e18 00000000 		.word	lv_textarea_class
 2050 0e1c 00000000 		.word	lv_list_class
 2051 0e20 00000000 		.word	lv_list_text_class
 2052 0e24 40000100 		.word	65600
 2053 0e28 00000000 		.word	lv_list_button_class
 2054 0e2c 00000000 		.word	lv_menu_class
 2055 0e30 00000000 		.word	lv_menu_sidebar_cont_class
 2056 0e34 00000000 		.word	lv_menu_main_cont_class
 2057 0e38 00000000 		.word	lv_menu_cont_class
 2058 0e3c 00000000 		.word	lv_menu_sidebar_header_cont_class
 2059 0e40 00000000 		.word	lv_menu_main_header_cont_class
 2060 0e44 00000000 		.word	lv_menu_page_class
 2061 0e48 00000000 		.word	lv_menu_section_class
 2062 0e4c 00000000 		.word	lv_menu_separator_class
 2063 0e50 00000000 		.word	lv_msgbox_class
 2064 0e54 00000000 		.word	lv_msgbox_backdrop_class
 2065 0e58 00000000 		.word	lv_msgbox_header_class
 2066 0e5c 00000000 		.word	lv_msgbox_footer_class
 2067 0e60 00000000 		.word	lv_msgbox_content_class
 2068              	.L51:
1159:Drivers/lvgl/src/themes/default/lv_theme_default.c ****             lv_obj_check_type(obj, &lv_msgbox_footer_button_class)) {
 2069              		.loc 1 1159 10 view .LVU432
1159:Drivers/lvgl/src/themes/default/lv_theme_default.c ****             lv_obj_check_type(obj, &lv_msgbox_footer_button_class)) {
 2070              		.loc 1 1159 13 is_stmt 0 view .LVU433
 2071 0e64 6C49     		ldr	r1, .L79
 2072 0e66 2046     		mov	r0, r4
 2073 0e68 FFF7FEFF 		bl	lv_obj_check_type
 2074              	.LVL301:
1159:Drivers/lvgl/src/themes/default/lv_theme_default.c ****             lv_obj_check_type(obj, &lv_msgbox_footer_button_class)) {
 2075              		.loc 1 1159 12 discriminator 1 view .LVU434
 2076 0e6c 20B9     		cbnz	r0, .L52
1160:Drivers/lvgl/src/themes/default/lv_theme_default.c ****         lv_obj_add_style(obj, &theme->styles.btn, 0);
 2077              		.loc 1 1160 13 view .LVU435
 2078 0e6e 6B49     		ldr	r1, .L79+4
 2079 0e70 2046     		mov	r0, r4
 2080 0e72 FFF7FEFF 		bl	lv_obj_check_type
 2081              	.LVL302:
1159:Drivers/lvgl/src/themes/default/lv_theme_default.c ****             lv_obj_check_type(obj, &lv_msgbox_footer_button_class)) {
 2082              		.loc 1 1159 68 discriminator 1 view .LVU436
 2083 0e76 88B3     		cbz	r0, .L53
 2084              	.L52:
1161:Drivers/lvgl/src/themes/default/lv_theme_default.c ****         lv_obj_add_style(obj, &theme->styles.bg_color_primary, 0);
 2085              		.loc 1 1161 9 is_stmt 1 view .LVU437
 2086 0e78 0022     		movs	r2, #0
 2087 0e7a 05F17001 		add	r1, r5, #112
 2088 0e7e 2046     		mov	r0, r4
 2089 0e80 FFF7FEFF 		bl	lv_obj_add_style
 2090              	.LVL303:
1162:Drivers/lvgl/src/themes/default/lv_theme_default.c ****         lv_obj_add_style(obj, &theme->styles.transition_delayed, 0);
 2091              		.loc 1 1162 9 view .LVU438
 2092 0e84 0022     		movs	r2, #0
ARM GAS  /var/folders/qx/2_175_4n2s19vhvtspjhb3qh0000gn/T//ccFV8cem.s 			page 66


 2093 0e86 05F17C01 		add	r1, r5, #124
 2094 0e8a 2046     		mov	r0, r4
 2095 0e8c FFF7FEFF 		bl	lv_obj_add_style
 2096              	.LVL304:
1163:Drivers/lvgl/src/themes/default/lv_theme_default.c ****         lv_obj_add_style(obj, &theme->styles.pressed, LV_STATE_PRESSED);
 2097              		.loc 1 1163 9 view .LVU439
 2098 0e90 0022     		movs	r2, #0
 2099 0e92 05F5C271 		add	r1, r5, #388
 2100 0e96 2046     		mov	r0, r4
 2101 0e98 FFF7FEFF 		bl	lv_obj_add_style
 2102              	.LVL305:
1164:Drivers/lvgl/src/themes/default/lv_theme_default.c ****         lv_obj_add_style(obj, &theme->styles.transition_normal, LV_STATE_PRESSED);
 2103              		.loc 1 1164 9 view .LVU440
 2104 0e9c 2022     		movs	r2, #32
 2105 0e9e 05F1C401 		add	r1, r5, #196
 2106 0ea2 2046     		mov	r0, r4
 2107 0ea4 FFF7FEFF 		bl	lv_obj_add_style
 2108              	.LVL306:
1165:Drivers/lvgl/src/themes/default/lv_theme_default.c ****         lv_obj_add_style(obj, &theme->styles.outline_primary, LV_STATE_FOCUS_KEY);
 2109              		.loc 1 1165 9 view .LVU441
 2110 0ea8 2022     		movs	r2, #32
 2111 0eaa 05F5C871 		add	r1, r5, #400
 2112 0eae 2046     		mov	r0, r4
 2113 0eb0 FFF7FEFF 		bl	lv_obj_add_style
 2114              	.LVL307:
1166:Drivers/lvgl/src/themes/default/lv_theme_default.c ****         lv_obj_add_style(obj, &theme->styles.bg_color_secondary, LV_STATE_CHECKED);
 2115              		.loc 1 1166 9 view .LVU442
 2116 0eb4 0422     		movs	r2, #4
 2117 0eb6 05F59871 		add	r1, r5, #304
 2118 0eba 2046     		mov	r0, r4
 2119 0ebc FFF7FEFF 		bl	lv_obj_add_style
 2120              	.LVL308:
1167:Drivers/lvgl/src/themes/default/lv_theme_default.c ****         lv_obj_add_style(obj, &theme->styles.disabled, LV_STATE_DISABLED);
 2121              		.loc 1 1167 9 view .LVU443
 2122 0ec0 0122     		movs	r2, #1
 2123 0ec2 05F19401 		add	r1, r5, #148
 2124 0ec6 2046     		mov	r0, r4
 2125 0ec8 FFF7FEFF 		bl	lv_obj_add_style
 2126              	.LVL309:
1168:Drivers/lvgl/src/themes/default/lv_theme_default.c ****         return;
 2127              		.loc 1 1168 9 view .LVU444
 2128 0ecc 8022     		movs	r2, #128
 2129 0ece 05F1D001 		add	r1, r5, #208
 2130 0ed2 2046     		mov	r0, r4
 2131 0ed4 FFF7FEFF 		bl	lv_obj_add_style
 2132              	.LVL310:
1169:Drivers/lvgl/src/themes/default/lv_theme_default.c ****     }
 2133              		.loc 1 1169 9 view .LVU445
 2134 0ed8 FFF704B9 		b	.L1
 2135              	.L53:
1174:Drivers/lvgl/src/themes/default/lv_theme_default.c ****         lv_obj_add_style(obj, &theme->styles.card, 0);
 2136              		.loc 1 1174 10 view .LVU446
1174:Drivers/lvgl/src/themes/default/lv_theme_default.c ****         lv_obj_add_style(obj, &theme->styles.card, 0);
 2137              		.loc 1 1174 13 is_stmt 0 view .LVU447
 2138 0edc 5049     		ldr	r1, .L79+8
 2139 0ede 2046     		mov	r0, r4
 2140 0ee0 FFF7FEFF 		bl	lv_obj_check_type
ARM GAS  /var/folders/qx/2_175_4n2s19vhvtspjhb3qh0000gn/T//ccFV8cem.s 			page 67


 2141              	.LVL311:
1174:Drivers/lvgl/src/themes/default/lv_theme_default.c ****         lv_obj_add_style(obj, &theme->styles.card, 0);
 2142              		.loc 1 1174 12 discriminator 1 view .LVU448
 2143 0ee4 00B3     		cbz	r0, .L54
1175:Drivers/lvgl/src/themes/default/lv_theme_default.c ****         lv_obj_add_style(obj, &theme->styles.pad_small, 0);
 2144              		.loc 1 1175 9 is_stmt 1 view .LVU449
 2145 0ee6 0022     		movs	r2, #0
 2146 0ee8 05F16401 		add	r1, r5, #100
 2147 0eec 2046     		mov	r0, r4
 2148 0eee FFF7FEFF 		bl	lv_obj_add_style
 2149              	.LVL312:
1176:Drivers/lvgl/src/themes/default/lv_theme_default.c ****         lv_obj_add_style(obj, &theme->styles.outline_primary, LV_STATE_FOCUS_KEY);
 2150              		.loc 1 1176 9 view .LVU450
 2151 0ef2 0022     		movs	r2, #0
 2152 0ef4 05F1F401 		add	r1, r5, #244
 2153 0ef8 2046     		mov	r0, r4
 2154 0efa FFF7FEFF 		bl	lv_obj_add_style
 2155              	.LVL313:
1177:Drivers/lvgl/src/themes/default/lv_theme_default.c ****         lv_obj_add_style(obj, &theme->styles.outline_secondary, LV_STATE_EDITED);
 2156              		.loc 1 1177 9 view .LVU451
 2157 0efe 0422     		movs	r2, #4
 2158 0f00 05F59871 		add	r1, r5, #304
 2159 0f04 2046     		mov	r0, r4
 2160 0f06 FFF7FEFF 		bl	lv_obj_add_style
 2161              	.LVL314:
1178:Drivers/lvgl/src/themes/default/lv_theme_default.c ****         lv_obj_add_style(obj, &theme->styles.bg_color_primary, LV_PART_CURSOR);
 2162              		.loc 1 1178 9 view .LVU452
 2163 0f0a 0822     		movs	r2, #8
 2164 0f0c 05F59E71 		add	r1, r5, #316
 2165 0f10 2046     		mov	r0, r4
 2166 0f12 FFF7FEFF 		bl	lv_obj_add_style
 2167              	.LVL315:
1179:Drivers/lvgl/src/themes/default/lv_theme_default.c ****     }
 2168              		.loc 1 1179 9 view .LVU453
 2169 0f16 4FF4C022 		mov	r2, #393216
 2170 0f1a 05F17C01 		add	r1, r5, #124
 2171 0f1e 2046     		mov	r0, r4
 2172 0f20 FFF7FEFF 		bl	lv_obj_add_style
 2173              	.LVL316:
 2174 0f24 FFF7DEB8 		b	.L1
 2175              	.L54:
1183:Drivers/lvgl/src/themes/default/lv_theme_default.c ****         lv_obj_add_style(obj, &theme->styles.scr, 0);
 2176              		.loc 1 1183 10 view .LVU454
1183:Drivers/lvgl/src/themes/default/lv_theme_default.c ****         lv_obj_add_style(obj, &theme->styles.scr, 0);
 2177              		.loc 1 1183 13 is_stmt 0 view .LVU455
 2178 0f28 3E49     		ldr	r1, .L79+12
 2179 0f2a 2046     		mov	r0, r4
 2180 0f2c FFF7FEFF 		bl	lv_obj_check_type
 2181              	.LVL317:
1183:Drivers/lvgl/src/themes/default/lv_theme_default.c ****         lv_obj_add_style(obj, &theme->styles.scr, 0);
 2182              		.loc 1 1183 12 discriminator 1 view .LVU456
 2183 0f30 A0B1     		cbz	r0, .L55
1184:Drivers/lvgl/src/themes/default/lv_theme_default.c ****         lv_obj_add_style(obj, &theme->styles.scrollbar, LV_PART_SCROLLBAR);
 2184              		.loc 1 1184 9 is_stmt 1 view .LVU457
 2185 0f32 0022     		movs	r2, #0
 2186 0f34 05F14001 		add	r1, r5, #64
 2187 0f38 2046     		mov	r0, r4
ARM GAS  /var/folders/qx/2_175_4n2s19vhvtspjhb3qh0000gn/T//ccFV8cem.s 			page 68


 2188 0f3a FFF7FEFF 		bl	lv_obj_add_style
 2189              	.LVL318:
1185:Drivers/lvgl/src/themes/default/lv_theme_default.c ****         lv_obj_add_style(obj, &theme->styles.scrollbar_scrolled, LV_PART_SCROLLBAR | LV_STATE_SCROL
 2190              		.loc 1 1185 9 view .LVU458
 2191 0f3e 4FF48032 		mov	r2, #65536
 2192 0f42 05F14C01 		add	r1, r5, #76
 2193 0f46 2046     		mov	r0, r4
 2194 0f48 FFF7FEFF 		bl	lv_obj_add_style
 2195              	.LVL319:
1186:Drivers/lvgl/src/themes/default/lv_theme_default.c ****     }
 2196              		.loc 1 1186 9 view .LVU459
 2197 0f4c 364A     		ldr	r2, .L79+16
 2198 0f4e 05F15801 		add	r1, r5, #88
 2199 0f52 2046     		mov	r0, r4
 2200 0f54 FFF7FEFF 		bl	lv_obj_add_style
 2201              	.LVL320:
 2202 0f58 FFF7C4B8 		b	.L1
 2203              	.L55:
1188:Drivers/lvgl/src/themes/default/lv_theme_default.c ****         lv_obj_add_style(obj, &theme->styles.scrollbar, LV_PART_SCROLLBAR);
 2204              		.loc 1 1188 10 view .LVU460
1188:Drivers/lvgl/src/themes/default/lv_theme_default.c ****         lv_obj_add_style(obj, &theme->styles.scrollbar, LV_PART_SCROLLBAR);
 2205              		.loc 1 1188 13 is_stmt 0 view .LVU461
 2206 0f5c 3349     		ldr	r1, .L79+20
 2207 0f5e 2046     		mov	r0, r4
 2208 0f60 FFF7FEFF 		bl	lv_obj_check_type
 2209              	.LVL321:
1188:Drivers/lvgl/src/themes/default/lv_theme_default.c ****         lv_obj_add_style(obj, &theme->styles.scrollbar, LV_PART_SCROLLBAR);
 2210              		.loc 1 1188 12 discriminator 1 view .LVU462
 2211 0f64 70B1     		cbz	r0, .L56
1189:Drivers/lvgl/src/themes/default/lv_theme_default.c ****         lv_obj_add_style(obj, &theme->styles.scrollbar_scrolled, LV_PART_SCROLLBAR | LV_STATE_SCROL
 2212              		.loc 1 1189 9 is_stmt 1 view .LVU463
 2213 0f66 4FF48032 		mov	r2, #65536
 2214 0f6a 05F14C01 		add	r1, r5, #76
 2215 0f6e 2046     		mov	r0, r4
 2216 0f70 FFF7FEFF 		bl	lv_obj_add_style
 2217              	.LVL322:
1190:Drivers/lvgl/src/themes/default/lv_theme_default.c ****     }
 2218              		.loc 1 1190 9 view .LVU464
 2219 0f74 2C4A     		ldr	r2, .L79+16
 2220 0f76 05F15801 		add	r1, r5, #88
 2221 0f7a 2046     		mov	r0, r4
 2222 0f7c FFF7FEFF 		bl	lv_obj_add_style
 2223              	.LVL323:
 2224 0f80 FFF7B0B8 		b	.L1
 2225              	.L56:
1195:Drivers/lvgl/src/themes/default/lv_theme_default.c ****         lv_obj_add_style(obj, &theme->styles.scr, 0);
 2226              		.loc 1 1195 10 view .LVU465
1195:Drivers/lvgl/src/themes/default/lv_theme_default.c ****         lv_obj_add_style(obj, &theme->styles.scr, 0);
 2227              		.loc 1 1195 13 is_stmt 0 view .LVU466
 2228 0f84 2A49     		ldr	r1, .L79+24
 2229 0f86 2046     		mov	r0, r4
 2230 0f88 FFF7FEFF 		bl	lv_obj_check_type
 2231              	.LVL324:
1195:Drivers/lvgl/src/themes/default/lv_theme_default.c ****         lv_obj_add_style(obj, &theme->styles.scr, 0);
 2232              		.loc 1 1195 12 discriminator 1 view .LVU467
 2233 0f8c 68B1     		cbz	r0, .L57
1196:Drivers/lvgl/src/themes/default/lv_theme_default.c ****         lv_obj_add_style(obj, &theme->styles.pad_zero, 0);
ARM GAS  /var/folders/qx/2_175_4n2s19vhvtspjhb3qh0000gn/T//ccFV8cem.s 			page 69


 2234              		.loc 1 1196 9 is_stmt 1 view .LVU468
 2235 0f8e 0022     		movs	r2, #0
 2236 0f90 05F14001 		add	r1, r5, #64
 2237 0f94 2046     		mov	r0, r4
 2238 0f96 FFF7FEFF 		bl	lv_obj_add_style
 2239              	.LVL325:
1197:Drivers/lvgl/src/themes/default/lv_theme_default.c ****     }
 2240              		.loc 1 1197 9 view .LVU469
 2241 0f9a 0022     		movs	r2, #0
 2242 0f9c 05F1DC01 		add	r1, r5, #220
 2243 0fa0 2046     		mov	r0, r4
 2244 0fa2 FFF7FEFF 		bl	lv_obj_add_style
 2245              	.LVL326:
 2246 0fa6 FFF79DB8 		b	.L1
 2247              	.L57:
1202:Drivers/lvgl/src/themes/default/lv_theme_default.c ****         lv_obj_add_style(obj, &theme->styles.clip_corner, 0);
 2248              		.loc 1 1202 10 view .LVU470
1202:Drivers/lvgl/src/themes/default/lv_theme_default.c ****         lv_obj_add_style(obj, &theme->styles.clip_corner, 0);
 2249              		.loc 1 1202 13 is_stmt 0 view .LVU471
 2250 0faa 2249     		ldr	r1, .L79+28
 2251 0fac 2046     		mov	r0, r4
 2252 0fae FFF7FEFF 		bl	lv_obj_check_type
 2253              	.LVL327:
1202:Drivers/lvgl/src/themes/default/lv_theme_default.c ****         lv_obj_add_style(obj, &theme->styles.clip_corner, 0);
 2254              		.loc 1 1202 12 discriminator 1 view .LVU472
 2255 0fb2 38B1     		cbz	r0, .L58
1203:Drivers/lvgl/src/themes/default/lv_theme_default.c ****     }
 2256              		.loc 1 1203 9 is_stmt 1 view .LVU473
 2257 0fb4 0022     		movs	r2, #0
 2258 0fb6 05F5B071 		add	r1, r5, #352
 2259 0fba 2046     		mov	r0, r4
 2260 0fbc FFF7FEFF 		bl	lv_obj_add_style
 2261              	.LVL328:
 2262 0fc0 FFF790B8 		b	.L1
 2263              	.L58:
1208:Drivers/lvgl/src/themes/default/lv_theme_default.c ****         lv_obj_add_style(obj, &theme->styles.led, 0);
 2264              		.loc 1 1208 10 view .LVU474
1208:Drivers/lvgl/src/themes/default/lv_theme_default.c ****         lv_obj_add_style(obj, &theme->styles.led, 0);
 2265              		.loc 1 1208 13 is_stmt 0 view .LVU475
 2266 0fc4 1C49     		ldr	r1, .L79+32
 2267 0fc6 2046     		mov	r0, r4
 2268 0fc8 FFF7FEFF 		bl	lv_obj_check_type
 2269              	.LVL329:
1208:Drivers/lvgl/src/themes/default/lv_theme_default.c ****         lv_obj_add_style(obj, &theme->styles.led, 0);
 2270              		.loc 1 1208 12 discriminator 1 view .LVU476
 2271 0fcc 38B1     		cbz	r0, .L59
1209:Drivers/lvgl/src/themes/default/lv_theme_default.c ****     }
 2272              		.loc 1 1209 9 is_stmt 1 view .LVU477
 2273 0fce 0022     		movs	r2, #0
 2274 0fd0 05F55371 		add	r1, r5, #844
 2275 0fd4 2046     		mov	r0, r4
 2276 0fd6 FFF7FEFF 		bl	lv_obj_add_style
 2277              	.LVL330:
 2278 0fda FFF783B8 		b	.L1
 2279              	.L59:
1214:Drivers/lvgl/src/themes/default/lv_theme_default.c ****         lv_obj_add_style(obj, &theme->styles.scale, LV_PART_MAIN);
 2280              		.loc 1 1214 10 view .LVU478
ARM GAS  /var/folders/qx/2_175_4n2s19vhvtspjhb3qh0000gn/T//ccFV8cem.s 			page 70


1214:Drivers/lvgl/src/themes/default/lv_theme_default.c ****         lv_obj_add_style(obj, &theme->styles.scale, LV_PART_MAIN);
 2281              		.loc 1 1214 13 is_stmt 0 view .LVU479
 2282 0fde 1749     		ldr	r1, .L79+36
 2283 0fe0 2046     		mov	r0, r4
 2284 0fe2 FFF7FEFF 		bl	lv_obj_check_type
 2285              	.LVL331:
1214:Drivers/lvgl/src/themes/default/lv_theme_default.c ****         lv_obj_add_style(obj, &theme->styles.scale, LV_PART_MAIN);
 2286              		.loc 1 1214 12 discriminator 1 view .LVU480
 2287 0fe6 0028     		cmp	r0, #0
 2288 0fe8 3FF47CA8 		beq	.L1
1215:Drivers/lvgl/src/themes/default/lv_theme_default.c ****         lv_obj_add_style(obj, &theme->styles.scale, LV_PART_INDICATOR);
 2289              		.loc 1 1215 9 is_stmt 1 view .LVU481
1215:Drivers/lvgl/src/themes/default/lv_theme_default.c ****         lv_obj_add_style(obj, &theme->styles.scale, LV_PART_INDICATOR);
 2290              		.loc 1 1215 31 is_stmt 0 view .LVU482
 2291 0fec 05F55675 		add	r5, r5, #856
 2292              	.LVL332:
1215:Drivers/lvgl/src/themes/default/lv_theme_default.c ****         lv_obj_add_style(obj, &theme->styles.scale, LV_PART_INDICATOR);
 2293              		.loc 1 1215 9 view .LVU483
 2294 0ff0 0022     		movs	r2, #0
 2295 0ff2 2946     		mov	r1, r5
 2296 0ff4 2046     		mov	r0, r4
 2297 0ff6 FFF7FEFF 		bl	lv_obj_add_style
 2298              	.LVL333:
1216:Drivers/lvgl/src/themes/default/lv_theme_default.c ****         lv_obj_add_style(obj, &theme->styles.scale, LV_PART_ITEMS);
 2299              		.loc 1 1216 9 is_stmt 1 view .LVU484
 2300 0ffa 4FF40032 		mov	r2, #131072
 2301 0ffe 2946     		mov	r1, r5
 2302 1000 2046     		mov	r0, r4
 2303 1002 FFF7FEFF 		bl	lv_obj_add_style
 2304              	.LVL334:
1217:Drivers/lvgl/src/themes/default/lv_theme_default.c ****     }
 2305              		.loc 1 1217 9 view .LVU485
 2306 1006 4FF4A022 		mov	r2, #327680
 2307 100a 2946     		mov	r1, r5
 2308 100c 2046     		mov	r0, r4
 2309 100e FFF7FEFF 		bl	lv_obj_add_style
 2310              	.LVL335:
 2311 1012 FFF767B8 		b	.L1
 2312              	.L80:
 2313 1016 00BF     		.align	2
 2314              	.L79:
 2315 1018 00000000 		.word	lv_msgbox_header_button_class
 2316 101c 00000000 		.word	lv_msgbox_footer_button_class
 2317 1020 00000000 		.word	lv_spinbox_class
 2318 1024 00000000 		.word	lv_tileview_class
 2319 1028 40000100 		.word	65600
 2320 102c 00000000 		.word	lv_tileview_tile_class
 2321 1030 00000000 		.word	lv_tabview_class
 2322 1034 00000000 		.word	lv_win_class
 2323 1038 00000000 		.word	lv_led_class
 2324 103c 00000000 		.word	lv_scale_class
 2325              		.cfi_endproc
 2326              	.LFE207:
 2328              		.section	.text.lv_style_set_pad_gap,"ax",%progbits
 2329              		.align	1
 2330              		.syntax unified
 2331              		.thumb
ARM GAS  /var/folders/qx/2_175_4n2s19vhvtspjhb3qh0000gn/T//ccFV8cem.s 			page 71


 2332              		.thumb_func
 2334              	lv_style_set_pad_gap:
 2335              	.LVL336:
 2336              	.LFB27:
 2337              		.file 2 "Drivers/lvgl/src/themes/default/../../../src/core/../misc/lv_style.h"
   1:Drivers/lvgl/src/themes/default/../../../src/core/../misc/lv_style.h **** /**
   2:Drivers/lvgl/src/themes/default/../../../src/core/../misc/lv_style.h ****  * @file lv_style.h
   3:Drivers/lvgl/src/themes/default/../../../src/core/../misc/lv_style.h ****  *
   4:Drivers/lvgl/src/themes/default/../../../src/core/../misc/lv_style.h ****  */
   5:Drivers/lvgl/src/themes/default/../../../src/core/../misc/lv_style.h **** 
   6:Drivers/lvgl/src/themes/default/../../../src/core/../misc/lv_style.h **** #ifndef LV_STYLE_H
   7:Drivers/lvgl/src/themes/default/../../../src/core/../misc/lv_style.h **** #define LV_STYLE_H
   8:Drivers/lvgl/src/themes/default/../../../src/core/../misc/lv_style.h **** 
   9:Drivers/lvgl/src/themes/default/../../../src/core/../misc/lv_style.h **** #ifdef __cplusplus
  10:Drivers/lvgl/src/themes/default/../../../src/core/../misc/lv_style.h **** extern "C" {
  11:Drivers/lvgl/src/themes/default/../../../src/core/../misc/lv_style.h **** #endif
  12:Drivers/lvgl/src/themes/default/../../../src/core/../misc/lv_style.h **** 
  13:Drivers/lvgl/src/themes/default/../../../src/core/../misc/lv_style.h **** /*********************
  14:Drivers/lvgl/src/themes/default/../../../src/core/../misc/lv_style.h ****  *      INCLUDES
  15:Drivers/lvgl/src/themes/default/../../../src/core/../misc/lv_style.h ****  *********************/
  16:Drivers/lvgl/src/themes/default/../../../src/core/../misc/lv_style.h **** #include "../font/lv_font.h"
  17:Drivers/lvgl/src/themes/default/../../../src/core/../misc/lv_style.h **** #include "lv_color.h"
  18:Drivers/lvgl/src/themes/default/../../../src/core/../misc/lv_style.h **** #include "lv_area.h"
  19:Drivers/lvgl/src/themes/default/../../../src/core/../misc/lv_style.h **** #include "lv_anim.h"
  20:Drivers/lvgl/src/themes/default/../../../src/core/../misc/lv_style.h **** #include "lv_text.h"
  21:Drivers/lvgl/src/themes/default/../../../src/core/../misc/lv_style.h **** #include "lv_types.h"
  22:Drivers/lvgl/src/themes/default/../../../src/core/../misc/lv_style.h **** #include "lv_assert.h"
  23:Drivers/lvgl/src/themes/default/../../../src/core/../misc/lv_style.h **** #include "lv_bidi.h"
  24:Drivers/lvgl/src/themes/default/../../../src/core/../misc/lv_style.h **** #include "lv_grad.h"
  25:Drivers/lvgl/src/themes/default/../../../src/core/../misc/lv_style.h **** #include "../layouts/lv_layout.h"
  26:Drivers/lvgl/src/themes/default/../../../src/core/../misc/lv_style.h **** 
  27:Drivers/lvgl/src/themes/default/../../../src/core/../misc/lv_style.h **** /*********************
  28:Drivers/lvgl/src/themes/default/../../../src/core/../misc/lv_style.h ****  *      DEFINES
  29:Drivers/lvgl/src/themes/default/../../../src/core/../misc/lv_style.h ****  *********************/
  30:Drivers/lvgl/src/themes/default/../../../src/core/../misc/lv_style.h **** 
  31:Drivers/lvgl/src/themes/default/../../../src/core/../misc/lv_style.h **** #define LV_STYLE_SENTINEL_VALUE     0xAABBCCDD
  32:Drivers/lvgl/src/themes/default/../../../src/core/../misc/lv_style.h **** 
  33:Drivers/lvgl/src/themes/default/../../../src/core/../misc/lv_style.h **** /*
  34:Drivers/lvgl/src/themes/default/../../../src/core/../misc/lv_style.h ****  * Flags for style behavior
  35:Drivers/lvgl/src/themes/default/../../../src/core/../misc/lv_style.h ****  */
  36:Drivers/lvgl/src/themes/default/../../../src/core/../misc/lv_style.h **** #define LV_STYLE_PROP_FLAG_NONE                     (0)       /**< No special behavior */
  37:Drivers/lvgl/src/themes/default/../../../src/core/../misc/lv_style.h **** #define LV_STYLE_PROP_FLAG_INHERITABLE              (1 << 0)  /**< Inherited */
  38:Drivers/lvgl/src/themes/default/../../../src/core/../misc/lv_style.h **** #define LV_STYLE_PROP_FLAG_EXT_DRAW_UPDATE          (1 << 1)  /**< Requires ext. draw size update w
  39:Drivers/lvgl/src/themes/default/../../../src/core/../misc/lv_style.h **** #define LV_STYLE_PROP_FLAG_LAYOUT_UPDATE            (1 << 2)  /**< Requires layout update when chan
  40:Drivers/lvgl/src/themes/default/../../../src/core/../misc/lv_style.h **** #define LV_STYLE_PROP_FLAG_PARENT_LAYOUT_UPDATE     (1 << 3)  /**< Requires layout update on parent
  41:Drivers/lvgl/src/themes/default/../../../src/core/../misc/lv_style.h **** #define LV_STYLE_PROP_FLAG_LAYER_UPDATE             (1 << 4)  /**< Affects layer handling */
  42:Drivers/lvgl/src/themes/default/../../../src/core/../misc/lv_style.h **** #define LV_STYLE_PROP_FLAG_TRANSFORM                (1 << 5)  /**< Affects the object's transformat
  43:Drivers/lvgl/src/themes/default/../../../src/core/../misc/lv_style.h **** #define LV_STYLE_PROP_FLAG_ALL                      (0x3F)    /**< Indicating all flags */
  44:Drivers/lvgl/src/themes/default/../../../src/core/../misc/lv_style.h **** 
  45:Drivers/lvgl/src/themes/default/../../../src/core/../misc/lv_style.h **** /*
  46:Drivers/lvgl/src/themes/default/../../../src/core/../misc/lv_style.h ****  * Other constants
  47:Drivers/lvgl/src/themes/default/../../../src/core/../misc/lv_style.h ****  */
  48:Drivers/lvgl/src/themes/default/../../../src/core/../misc/lv_style.h **** #define LV_SCALE_NONE            256        /**< Value for not zooming the image */
  49:Drivers/lvgl/src/themes/default/../../../src/core/../misc/lv_style.h **** LV_EXPORT_CONST_INT(LV_SCALE_NONE);
  50:Drivers/lvgl/src/themes/default/../../../src/core/../misc/lv_style.h **** 
  51:Drivers/lvgl/src/themes/default/../../../src/core/../misc/lv_style.h **** // *INDENT-OFF*
  52:Drivers/lvgl/src/themes/default/../../../src/core/../misc/lv_style.h **** #if LV_USE_ASSERT_STYLE
ARM GAS  /var/folders/qx/2_175_4n2s19vhvtspjhb3qh0000gn/T//ccFV8cem.s 			page 72


  53:Drivers/lvgl/src/themes/default/../../../src/core/../misc/lv_style.h **** #define LV_STYLE_CONST_INIT(var_name, prop_array)                       \
  54:Drivers/lvgl/src/themes/default/../../../src/core/../misc/lv_style.h ****     const lv_style_t var_name = {                                       \
  55:Drivers/lvgl/src/themes/default/../../../src/core/../misc/lv_style.h ****         .sentinel = LV_STYLE_SENTINEL_VALUE,                            \
  56:Drivers/lvgl/src/themes/default/../../../src/core/../misc/lv_style.h ****         .values_and_props = (void*)prop_array,                          \
  57:Drivers/lvgl/src/themes/default/../../../src/core/../misc/lv_style.h ****         .has_group = 0xFFFFFFFF,                                        \
  58:Drivers/lvgl/src/themes/default/../../../src/core/../misc/lv_style.h ****         .prop_cnt = 255                                                 \
  59:Drivers/lvgl/src/themes/default/../../../src/core/../misc/lv_style.h ****     }
  60:Drivers/lvgl/src/themes/default/../../../src/core/../misc/lv_style.h **** #else
  61:Drivers/lvgl/src/themes/default/../../../src/core/../misc/lv_style.h **** #define LV_STYLE_CONST_INIT(var_name, prop_array)                       \
  62:Drivers/lvgl/src/themes/default/../../../src/core/../misc/lv_style.h ****     const lv_style_t var_name = {                                       \
  63:Drivers/lvgl/src/themes/default/../../../src/core/../misc/lv_style.h ****         .values_and_props = (void*)prop_array,                          \
  64:Drivers/lvgl/src/themes/default/../../../src/core/../misc/lv_style.h ****         .has_group = 0xFFFFFFFF,                                        \
  65:Drivers/lvgl/src/themes/default/../../../src/core/../misc/lv_style.h ****         .prop_cnt = 255,                                                \
  66:Drivers/lvgl/src/themes/default/../../../src/core/../misc/lv_style.h ****     }
  67:Drivers/lvgl/src/themes/default/../../../src/core/../misc/lv_style.h **** #endif
  68:Drivers/lvgl/src/themes/default/../../../src/core/../misc/lv_style.h **** // *INDENT-ON*
  69:Drivers/lvgl/src/themes/default/../../../src/core/../misc/lv_style.h **** 
  70:Drivers/lvgl/src/themes/default/../../../src/core/../misc/lv_style.h **** #define LV_STYLE_CONST_PROPS_END { .prop = LV_STYLE_PROP_INV, .value = { .num = 0 } }
  71:Drivers/lvgl/src/themes/default/../../../src/core/../misc/lv_style.h **** 
  72:Drivers/lvgl/src/themes/default/../../../src/core/../misc/lv_style.h **** #if LV_GRADIENT_MAX_STOPS < 2
  73:Drivers/lvgl/src/themes/default/../../../src/core/../misc/lv_style.h **** #error LVGL needs at least 2 stops for gradients. Please increase the LV_GRADIENT_MAX_STOPS
  74:Drivers/lvgl/src/themes/default/../../../src/core/../misc/lv_style.h **** #endif
  75:Drivers/lvgl/src/themes/default/../../../src/core/../misc/lv_style.h **** 
  76:Drivers/lvgl/src/themes/default/../../../src/core/../misc/lv_style.h **** #define LV_GRAD_LEFT    LV_PCT(0)
  77:Drivers/lvgl/src/themes/default/../../../src/core/../misc/lv_style.h **** #define LV_GRAD_RIGHT   LV_PCT(100)
  78:Drivers/lvgl/src/themes/default/../../../src/core/../misc/lv_style.h **** #define LV_GRAD_TOP     LV_PCT(0)
  79:Drivers/lvgl/src/themes/default/../../../src/core/../misc/lv_style.h **** #define LV_GRAD_BOTTOM  LV_PCT(100)
  80:Drivers/lvgl/src/themes/default/../../../src/core/../misc/lv_style.h **** #define LV_GRAD_CENTER  LV_PCT(50)
  81:Drivers/lvgl/src/themes/default/../../../src/core/../misc/lv_style.h **** 
  82:Drivers/lvgl/src/themes/default/../../../src/core/../misc/lv_style.h **** /**********************
  83:Drivers/lvgl/src/themes/default/../../../src/core/../misc/lv_style.h ****  *      TYPEDEFS
  84:Drivers/lvgl/src/themes/default/../../../src/core/../misc/lv_style.h ****  **********************/
  85:Drivers/lvgl/src/themes/default/../../../src/core/../misc/lv_style.h **** 
  86:Drivers/lvgl/src/themes/default/../../../src/core/../misc/lv_style.h **** /**
  87:Drivers/lvgl/src/themes/default/../../../src/core/../misc/lv_style.h ****  * Possible options for blending opaque drawings
  88:Drivers/lvgl/src/themes/default/../../../src/core/../misc/lv_style.h ****  */
  89:Drivers/lvgl/src/themes/default/../../../src/core/../misc/lv_style.h **** typedef enum {
  90:Drivers/lvgl/src/themes/default/../../../src/core/../misc/lv_style.h ****     LV_BLEND_MODE_NORMAL,     /**< Simply mix according to the opacity value*/
  91:Drivers/lvgl/src/themes/default/../../../src/core/../misc/lv_style.h ****     LV_BLEND_MODE_ADDITIVE,   /**< Add the respective color channels*/
  92:Drivers/lvgl/src/themes/default/../../../src/core/../misc/lv_style.h ****     LV_BLEND_MODE_SUBTRACTIVE,/**< Subtract the foreground from the background*/
  93:Drivers/lvgl/src/themes/default/../../../src/core/../misc/lv_style.h ****     LV_BLEND_MODE_MULTIPLY,   /**< Multiply the foreground and background*/
  94:Drivers/lvgl/src/themes/default/../../../src/core/../misc/lv_style.h ****     LV_BLEND_MODE_DIFFERENCE, /**< Absolute difference between foreground and background*/
  95:Drivers/lvgl/src/themes/default/../../../src/core/../misc/lv_style.h **** } lv_blend_mode_t;
  96:Drivers/lvgl/src/themes/default/../../../src/core/../misc/lv_style.h **** 
  97:Drivers/lvgl/src/themes/default/../../../src/core/../misc/lv_style.h **** /**
  98:Drivers/lvgl/src/themes/default/../../../src/core/../misc/lv_style.h ****  * Some options to apply decorations on texts.
  99:Drivers/lvgl/src/themes/default/../../../src/core/../misc/lv_style.h ****  * 'OR'ed values can be used.
 100:Drivers/lvgl/src/themes/default/../../../src/core/../misc/lv_style.h ****  */
 101:Drivers/lvgl/src/themes/default/../../../src/core/../misc/lv_style.h **** typedef enum {
 102:Drivers/lvgl/src/themes/default/../../../src/core/../misc/lv_style.h ****     LV_TEXT_DECOR_NONE          = 0x00,
 103:Drivers/lvgl/src/themes/default/../../../src/core/../misc/lv_style.h ****     LV_TEXT_DECOR_UNDERLINE     = 0x01,
 104:Drivers/lvgl/src/themes/default/../../../src/core/../misc/lv_style.h ****     LV_TEXT_DECOR_STRIKETHROUGH = 0x02,
 105:Drivers/lvgl/src/themes/default/../../../src/core/../misc/lv_style.h **** } lv_text_decor_t;
 106:Drivers/lvgl/src/themes/default/../../../src/core/../misc/lv_style.h **** 
 107:Drivers/lvgl/src/themes/default/../../../src/core/../misc/lv_style.h **** /**
 108:Drivers/lvgl/src/themes/default/../../../src/core/../misc/lv_style.h ****  * Selects on which sides border should be drawn
 109:Drivers/lvgl/src/themes/default/../../../src/core/../misc/lv_style.h ****  * 'OR'ed values can be used.
ARM GAS  /var/folders/qx/2_175_4n2s19vhvtspjhb3qh0000gn/T//ccFV8cem.s 			page 73


 110:Drivers/lvgl/src/themes/default/../../../src/core/../misc/lv_style.h ****  */
 111:Drivers/lvgl/src/themes/default/../../../src/core/../misc/lv_style.h **** typedef enum {
 112:Drivers/lvgl/src/themes/default/../../../src/core/../misc/lv_style.h ****     LV_BORDER_SIDE_NONE     = 0x00,
 113:Drivers/lvgl/src/themes/default/../../../src/core/../misc/lv_style.h ****     LV_BORDER_SIDE_BOTTOM   = 0x01,
 114:Drivers/lvgl/src/themes/default/../../../src/core/../misc/lv_style.h ****     LV_BORDER_SIDE_TOP      = 0x02,
 115:Drivers/lvgl/src/themes/default/../../../src/core/../misc/lv_style.h ****     LV_BORDER_SIDE_LEFT     = 0x04,
 116:Drivers/lvgl/src/themes/default/../../../src/core/../misc/lv_style.h ****     LV_BORDER_SIDE_RIGHT    = 0x08,
 117:Drivers/lvgl/src/themes/default/../../../src/core/../misc/lv_style.h ****     LV_BORDER_SIDE_FULL     = 0x0F,
 118:Drivers/lvgl/src/themes/default/../../../src/core/../misc/lv_style.h ****     LV_BORDER_SIDE_INTERNAL = 0x10, /**< FOR matrix-like objects (e.g. Button matrix)*/
 119:Drivers/lvgl/src/themes/default/../../../src/core/../misc/lv_style.h **** } lv_border_side_t;
 120:Drivers/lvgl/src/themes/default/../../../src/core/../misc/lv_style.h **** 
 121:Drivers/lvgl/src/themes/default/../../../src/core/../misc/lv_style.h **** typedef enum {
 122:Drivers/lvgl/src/themes/default/../../../src/core/../misc/lv_style.h ****     LV_BLUR_QUALITY_AUTO = 0,   /**< Set the quality automatically */
 123:Drivers/lvgl/src/themes/default/../../../src/core/../misc/lv_style.h ****     LV_BLUR_QUALITY_SPEED,      /**< Prefer speed over precision */
 124:Drivers/lvgl/src/themes/default/../../../src/core/../misc/lv_style.h ****     LV_BLUR_QUALITY_PRECISION,  /**< Prefer precision over speed*/
 125:Drivers/lvgl/src/themes/default/../../../src/core/../misc/lv_style.h **** } lv_blur_quality_t;
 126:Drivers/lvgl/src/themes/default/../../../src/core/../misc/lv_style.h **** 
 127:Drivers/lvgl/src/themes/default/../../../src/core/../misc/lv_style.h **** /** A image colorkey definition.
 128:Drivers/lvgl/src/themes/default/../../../src/core/../misc/lv_style.h ****  *  The transparency within the color range of [low, high] will be set to LV_OPA_TRANSP If the "ena
 129:Drivers/lvgl/src/themes/default/../../../src/core/../misc/lv_style.h ****  */
 130:Drivers/lvgl/src/themes/default/../../../src/core/../misc/lv_style.h **** typedef struct {
 131:Drivers/lvgl/src/themes/default/../../../src/core/../misc/lv_style.h ****     lv_color_t low;
 132:Drivers/lvgl/src/themes/default/../../../src/core/../misc/lv_style.h ****     lv_color_t high;
 133:Drivers/lvgl/src/themes/default/../../../src/core/../misc/lv_style.h **** } lv_image_colorkey_t;
 134:Drivers/lvgl/src/themes/default/../../../src/core/../misc/lv_style.h **** 
 135:Drivers/lvgl/src/themes/default/../../../src/core/../misc/lv_style.h **** /**
 136:Drivers/lvgl/src/themes/default/../../../src/core/../misc/lv_style.h ****  * A common type to handle all the property types in the same way.
 137:Drivers/lvgl/src/themes/default/../../../src/core/../misc/lv_style.h ****  */
 138:Drivers/lvgl/src/themes/default/../../../src/core/../misc/lv_style.h **** typedef union {
 139:Drivers/lvgl/src/themes/default/../../../src/core/../misc/lv_style.h ****     int32_t num;         /**< Number integer number (opacity, enums, booleans or "normal" numbers)*
 140:Drivers/lvgl/src/themes/default/../../../src/core/../misc/lv_style.h ****     const void * ptr;    /**< Constant pointers  (font, cone text, etc)*/
 141:Drivers/lvgl/src/themes/default/../../../src/core/../misc/lv_style.h ****     lv_color_t color;    /**< Colors*/
 142:Drivers/lvgl/src/themes/default/../../../src/core/../misc/lv_style.h **** } lv_style_value_t;
 143:Drivers/lvgl/src/themes/default/../../../src/core/../misc/lv_style.h **** 
 144:Drivers/lvgl/src/themes/default/../../../src/core/../misc/lv_style.h **** /**
 145:Drivers/lvgl/src/themes/default/../../../src/core/../misc/lv_style.h ****  * Enumeration of all built in style properties
 146:Drivers/lvgl/src/themes/default/../../../src/core/../misc/lv_style.h ****  *
 147:Drivers/lvgl/src/themes/default/../../../src/core/../misc/lv_style.h ****  * Props are split into groups of 16. When adding a new prop to a group, ensure it does not overflo
 148:Drivers/lvgl/src/themes/default/../../../src/core/../misc/lv_style.h ****  */
 149:Drivers/lvgl/src/themes/default/../../../src/core/../misc/lv_style.h **** enum _lv_style_id_t {
 150:Drivers/lvgl/src/themes/default/../../../src/core/../misc/lv_style.h ****     LV_STYLE_PROP_INV               = 0,
 151:Drivers/lvgl/src/themes/default/../../../src/core/../misc/lv_style.h **** 
 152:Drivers/lvgl/src/themes/default/../../../src/core/../misc/lv_style.h ****     /*Group 0*/
 153:Drivers/lvgl/src/themes/default/../../../src/core/../misc/lv_style.h ****     LV_STYLE_WIDTH                  = 1,
 154:Drivers/lvgl/src/themes/default/../../../src/core/../misc/lv_style.h ****     LV_STYLE_HEIGHT                 = 2,
 155:Drivers/lvgl/src/themes/default/../../../src/core/../misc/lv_style.h ****     LV_STYLE_LENGTH                 = 3,
 156:Drivers/lvgl/src/themes/default/../../../src/core/../misc/lv_style.h **** 
 157:Drivers/lvgl/src/themes/default/../../../src/core/../misc/lv_style.h ****     LV_STYLE_MIN_WIDTH              = 4,
 158:Drivers/lvgl/src/themes/default/../../../src/core/../misc/lv_style.h ****     LV_STYLE_MAX_WIDTH              = 5,
 159:Drivers/lvgl/src/themes/default/../../../src/core/../misc/lv_style.h ****     LV_STYLE_MIN_HEIGHT             = 6,
 160:Drivers/lvgl/src/themes/default/../../../src/core/../misc/lv_style.h ****     LV_STYLE_MAX_HEIGHT             = 7,
 161:Drivers/lvgl/src/themes/default/../../../src/core/../misc/lv_style.h **** 
 162:Drivers/lvgl/src/themes/default/../../../src/core/../misc/lv_style.h ****     LV_STYLE_X                      = 8,
 163:Drivers/lvgl/src/themes/default/../../../src/core/../misc/lv_style.h ****     LV_STYLE_Y                      = 9,
 164:Drivers/lvgl/src/themes/default/../../../src/core/../misc/lv_style.h ****     LV_STYLE_ALIGN                  = 10,
 165:Drivers/lvgl/src/themes/default/../../../src/core/../misc/lv_style.h **** 
 166:Drivers/lvgl/src/themes/default/../../../src/core/../misc/lv_style.h ****     LV_STYLE_RADIUS                 = 12,
ARM GAS  /var/folders/qx/2_175_4n2s19vhvtspjhb3qh0000gn/T//ccFV8cem.s 			page 74


 167:Drivers/lvgl/src/themes/default/../../../src/core/../misc/lv_style.h ****     LV_STYLE_RADIAL_OFFSET          = 13,
 168:Drivers/lvgl/src/themes/default/../../../src/core/../misc/lv_style.h ****     LV_STYLE_PAD_RADIAL             = 14,
 169:Drivers/lvgl/src/themes/default/../../../src/core/../misc/lv_style.h **** 
 170:Drivers/lvgl/src/themes/default/../../../src/core/../misc/lv_style.h ****     /*Group 1*/
 171:Drivers/lvgl/src/themes/default/../../../src/core/../misc/lv_style.h ****     LV_STYLE_PAD_TOP                = 16,
 172:Drivers/lvgl/src/themes/default/../../../src/core/../misc/lv_style.h ****     LV_STYLE_PAD_BOTTOM             = 17,
 173:Drivers/lvgl/src/themes/default/../../../src/core/../misc/lv_style.h ****     LV_STYLE_PAD_LEFT               = 18,
 174:Drivers/lvgl/src/themes/default/../../../src/core/../misc/lv_style.h ****     LV_STYLE_PAD_RIGHT              = 19,
 175:Drivers/lvgl/src/themes/default/../../../src/core/../misc/lv_style.h **** 
 176:Drivers/lvgl/src/themes/default/../../../src/core/../misc/lv_style.h ****     LV_STYLE_PAD_ROW                = 20,
 177:Drivers/lvgl/src/themes/default/../../../src/core/../misc/lv_style.h ****     LV_STYLE_PAD_COLUMN             = 21,
 178:Drivers/lvgl/src/themes/default/../../../src/core/../misc/lv_style.h ****     LV_STYLE_LAYOUT                 = 22,
 179:Drivers/lvgl/src/themes/default/../../../src/core/../misc/lv_style.h **** 
 180:Drivers/lvgl/src/themes/default/../../../src/core/../misc/lv_style.h ****     LV_STYLE_MARGIN_TOP             = 24,
 181:Drivers/lvgl/src/themes/default/../../../src/core/../misc/lv_style.h ****     LV_STYLE_MARGIN_BOTTOM          = 25,
 182:Drivers/lvgl/src/themes/default/../../../src/core/../misc/lv_style.h ****     LV_STYLE_MARGIN_LEFT            = 26,
 183:Drivers/lvgl/src/themes/default/../../../src/core/../misc/lv_style.h ****     LV_STYLE_MARGIN_RIGHT           = 27,
 184:Drivers/lvgl/src/themes/default/../../../src/core/../misc/lv_style.h **** 
 185:Drivers/lvgl/src/themes/default/../../../src/core/../misc/lv_style.h ****     /*Group 2*/
 186:Drivers/lvgl/src/themes/default/../../../src/core/../misc/lv_style.h ****     LV_STYLE_BG_COLOR               = 28,
 187:Drivers/lvgl/src/themes/default/../../../src/core/../misc/lv_style.h ****     LV_STYLE_BG_OPA                 = 29,
 188:Drivers/lvgl/src/themes/default/../../../src/core/../misc/lv_style.h **** 
 189:Drivers/lvgl/src/themes/default/../../../src/core/../misc/lv_style.h ****     LV_STYLE_BG_GRAD_DIR            = 32,
 190:Drivers/lvgl/src/themes/default/../../../src/core/../misc/lv_style.h ****     LV_STYLE_BG_MAIN_STOP           = 33,
 191:Drivers/lvgl/src/themes/default/../../../src/core/../misc/lv_style.h ****     LV_STYLE_BG_GRAD_STOP           = 34,
 192:Drivers/lvgl/src/themes/default/../../../src/core/../misc/lv_style.h ****     LV_STYLE_BG_GRAD_COLOR          = 35,
 193:Drivers/lvgl/src/themes/default/../../../src/core/../misc/lv_style.h **** 
 194:Drivers/lvgl/src/themes/default/../../../src/core/../misc/lv_style.h ****     LV_STYLE_BG_MAIN_OPA            = 36,
 195:Drivers/lvgl/src/themes/default/../../../src/core/../misc/lv_style.h ****     LV_STYLE_BG_GRAD_OPA            = 37,
 196:Drivers/lvgl/src/themes/default/../../../src/core/../misc/lv_style.h ****     LV_STYLE_BG_GRAD                = 38,
 197:Drivers/lvgl/src/themes/default/../../../src/core/../misc/lv_style.h ****     LV_STYLE_BASE_DIR               = 39,
 198:Drivers/lvgl/src/themes/default/../../../src/core/../misc/lv_style.h **** 
 199:Drivers/lvgl/src/themes/default/../../../src/core/../misc/lv_style.h ****     LV_STYLE_BG_IMAGE_SRC             = 40,
 200:Drivers/lvgl/src/themes/default/../../../src/core/../misc/lv_style.h ****     LV_STYLE_BG_IMAGE_OPA             = 41,
 201:Drivers/lvgl/src/themes/default/../../../src/core/../misc/lv_style.h ****     LV_STYLE_BG_IMAGE_RECOLOR         = 42,
 202:Drivers/lvgl/src/themes/default/../../../src/core/../misc/lv_style.h ****     LV_STYLE_BG_IMAGE_RECOLOR_OPA     = 43,
 203:Drivers/lvgl/src/themes/default/../../../src/core/../misc/lv_style.h **** 
 204:Drivers/lvgl/src/themes/default/../../../src/core/../misc/lv_style.h ****     LV_STYLE_BG_IMAGE_TILED           = 44,
 205:Drivers/lvgl/src/themes/default/../../../src/core/../misc/lv_style.h ****     LV_STYLE_CLIP_CORNER            = 45,
 206:Drivers/lvgl/src/themes/default/../../../src/core/../misc/lv_style.h **** 
 207:Drivers/lvgl/src/themes/default/../../../src/core/../misc/lv_style.h ****     /*Group 3*/
 208:Drivers/lvgl/src/themes/default/../../../src/core/../misc/lv_style.h ****     LV_STYLE_BORDER_WIDTH           = 48,
 209:Drivers/lvgl/src/themes/default/../../../src/core/../misc/lv_style.h ****     LV_STYLE_BORDER_COLOR           = 49,
 210:Drivers/lvgl/src/themes/default/../../../src/core/../misc/lv_style.h ****     LV_STYLE_BORDER_OPA             = 50,
 211:Drivers/lvgl/src/themes/default/../../../src/core/../misc/lv_style.h **** 
 212:Drivers/lvgl/src/themes/default/../../../src/core/../misc/lv_style.h ****     LV_STYLE_BORDER_SIDE            = 52,
 213:Drivers/lvgl/src/themes/default/../../../src/core/../misc/lv_style.h ****     LV_STYLE_BORDER_POST            = 53,
 214:Drivers/lvgl/src/themes/default/../../../src/core/../misc/lv_style.h **** 
 215:Drivers/lvgl/src/themes/default/../../../src/core/../misc/lv_style.h ****     LV_STYLE_OUTLINE_WIDTH          = 56,
 216:Drivers/lvgl/src/themes/default/../../../src/core/../misc/lv_style.h ****     LV_STYLE_OUTLINE_COLOR          = 57,
 217:Drivers/lvgl/src/themes/default/../../../src/core/../misc/lv_style.h ****     LV_STYLE_OUTLINE_OPA            = 58,
 218:Drivers/lvgl/src/themes/default/../../../src/core/../misc/lv_style.h ****     LV_STYLE_OUTLINE_PAD            = 59,
 219:Drivers/lvgl/src/themes/default/../../../src/core/../misc/lv_style.h **** 
 220:Drivers/lvgl/src/themes/default/../../../src/core/../misc/lv_style.h ****     /*Group 4*/
 221:Drivers/lvgl/src/themes/default/../../../src/core/../misc/lv_style.h ****     LV_STYLE_SHADOW_WIDTH           = 60,
 222:Drivers/lvgl/src/themes/default/../../../src/core/../misc/lv_style.h ****     LV_STYLE_SHADOW_COLOR           = 61,
 223:Drivers/lvgl/src/themes/default/../../../src/core/../misc/lv_style.h ****     LV_STYLE_SHADOW_OPA             = 62,
ARM GAS  /var/folders/qx/2_175_4n2s19vhvtspjhb3qh0000gn/T//ccFV8cem.s 			page 75


 224:Drivers/lvgl/src/themes/default/../../../src/core/../misc/lv_style.h **** 
 225:Drivers/lvgl/src/themes/default/../../../src/core/../misc/lv_style.h ****     LV_STYLE_SHADOW_OFFSET_X        = 64,
 226:Drivers/lvgl/src/themes/default/../../../src/core/../misc/lv_style.h ****     LV_STYLE_SHADOW_OFFSET_Y        = 65,
 227:Drivers/lvgl/src/themes/default/../../../src/core/../misc/lv_style.h ****     LV_STYLE_SHADOW_SPREAD          = 66,
 228:Drivers/lvgl/src/themes/default/../../../src/core/../misc/lv_style.h **** 
 229:Drivers/lvgl/src/themes/default/../../../src/core/../misc/lv_style.h ****     LV_STYLE_IMAGE_OPA                = 68,
 230:Drivers/lvgl/src/themes/default/../../../src/core/../misc/lv_style.h ****     LV_STYLE_IMAGE_RECOLOR            = 69,
 231:Drivers/lvgl/src/themes/default/../../../src/core/../misc/lv_style.h ****     LV_STYLE_IMAGE_RECOLOR_OPA        = 70,
 232:Drivers/lvgl/src/themes/default/../../../src/core/../misc/lv_style.h **** 
 233:Drivers/lvgl/src/themes/default/../../../src/core/../misc/lv_style.h ****     LV_STYLE_LINE_WIDTH             = 72,
 234:Drivers/lvgl/src/themes/default/../../../src/core/../misc/lv_style.h ****     LV_STYLE_LINE_DASH_WIDTH        = 73,
 235:Drivers/lvgl/src/themes/default/../../../src/core/../misc/lv_style.h ****     LV_STYLE_LINE_DASH_GAP          = 74,
 236:Drivers/lvgl/src/themes/default/../../../src/core/../misc/lv_style.h ****     LV_STYLE_LINE_ROUNDED           = 75,
 237:Drivers/lvgl/src/themes/default/../../../src/core/../misc/lv_style.h ****     LV_STYLE_LINE_COLOR             = 76,
 238:Drivers/lvgl/src/themes/default/../../../src/core/../misc/lv_style.h ****     LV_STYLE_LINE_OPA               = 77,
 239:Drivers/lvgl/src/themes/default/../../../src/core/../misc/lv_style.h **** 
 240:Drivers/lvgl/src/themes/default/../../../src/core/../misc/lv_style.h ****     /*Group 5*/
 241:Drivers/lvgl/src/themes/default/../../../src/core/../misc/lv_style.h ****     LV_STYLE_ARC_WIDTH              = 80,
 242:Drivers/lvgl/src/themes/default/../../../src/core/../misc/lv_style.h ****     LV_STYLE_ARC_ROUNDED            = 81,
 243:Drivers/lvgl/src/themes/default/../../../src/core/../misc/lv_style.h ****     LV_STYLE_ARC_COLOR              = 82,
 244:Drivers/lvgl/src/themes/default/../../../src/core/../misc/lv_style.h ****     LV_STYLE_ARC_OPA                = 83,
 245:Drivers/lvgl/src/themes/default/../../../src/core/../misc/lv_style.h ****     LV_STYLE_ARC_IMAGE_SRC            = 84,
 246:Drivers/lvgl/src/themes/default/../../../src/core/../misc/lv_style.h **** 
 247:Drivers/lvgl/src/themes/default/../../../src/core/../misc/lv_style.h ****     LV_STYLE_TEXT_COLOR             = 88,
 248:Drivers/lvgl/src/themes/default/../../../src/core/../misc/lv_style.h ****     LV_STYLE_TEXT_OPA               = 89,
 249:Drivers/lvgl/src/themes/default/../../../src/core/../misc/lv_style.h ****     LV_STYLE_TEXT_FONT              = 90,
 250:Drivers/lvgl/src/themes/default/../../../src/core/../misc/lv_style.h **** 
 251:Drivers/lvgl/src/themes/default/../../../src/core/../misc/lv_style.h ****     LV_STYLE_TEXT_LETTER_SPACE      = 91,
 252:Drivers/lvgl/src/themes/default/../../../src/core/../misc/lv_style.h ****     LV_STYLE_TEXT_LINE_SPACE        = 92,
 253:Drivers/lvgl/src/themes/default/../../../src/core/../misc/lv_style.h ****     LV_STYLE_TEXT_DECOR             = 93,
 254:Drivers/lvgl/src/themes/default/../../../src/core/../misc/lv_style.h ****     LV_STYLE_TEXT_ALIGN             = 94,
 255:Drivers/lvgl/src/themes/default/../../../src/core/../misc/lv_style.h ****     LV_STYLE_TEXT_OUTLINE_STROKE_WIDTH = 95,
 256:Drivers/lvgl/src/themes/default/../../../src/core/../misc/lv_style.h ****     LV_STYLE_TEXT_OUTLINE_STROKE_OPA   = 96,
 257:Drivers/lvgl/src/themes/default/../../../src/core/../misc/lv_style.h ****     LV_STYLE_TEXT_OUTLINE_STROKE_COLOR = 97,
 258:Drivers/lvgl/src/themes/default/../../../src/core/../misc/lv_style.h **** 
 259:Drivers/lvgl/src/themes/default/../../../src/core/../misc/lv_style.h ****     LV_STYLE_OPA                    = 98,
 260:Drivers/lvgl/src/themes/default/../../../src/core/../misc/lv_style.h ****     LV_STYLE_OPA_LAYERED            = 99,
 261:Drivers/lvgl/src/themes/default/../../../src/core/../misc/lv_style.h ****     LV_STYLE_COLOR_FILTER_DSC       = 100,
 262:Drivers/lvgl/src/themes/default/../../../src/core/../misc/lv_style.h ****     LV_STYLE_COLOR_FILTER_OPA       = 101,
 263:Drivers/lvgl/src/themes/default/../../../src/core/../misc/lv_style.h ****     LV_STYLE_ANIM                   = 102,
 264:Drivers/lvgl/src/themes/default/../../../src/core/../misc/lv_style.h ****     LV_STYLE_ANIM_DURATION          = 103,
 265:Drivers/lvgl/src/themes/default/../../../src/core/../misc/lv_style.h ****     LV_STYLE_TRANSITION             = 104,
 266:Drivers/lvgl/src/themes/default/../../../src/core/../misc/lv_style.h ****     LV_STYLE_BLEND_MODE             = 105,
 267:Drivers/lvgl/src/themes/default/../../../src/core/../misc/lv_style.h ****     LV_STYLE_TRANSFORM_WIDTH        = 106,
 268:Drivers/lvgl/src/themes/default/../../../src/core/../misc/lv_style.h ****     LV_STYLE_TRANSFORM_HEIGHT       = 107,
 269:Drivers/lvgl/src/themes/default/../../../src/core/../misc/lv_style.h ****     LV_STYLE_TRANSLATE_X            = 108,
 270:Drivers/lvgl/src/themes/default/../../../src/core/../misc/lv_style.h ****     LV_STYLE_TRANSLATE_Y            = 109,
 271:Drivers/lvgl/src/themes/default/../../../src/core/../misc/lv_style.h ****     LV_STYLE_TRANSFORM_SCALE_X      = 110,
 272:Drivers/lvgl/src/themes/default/../../../src/core/../misc/lv_style.h ****     LV_STYLE_TRANSFORM_SCALE_Y      = 111,
 273:Drivers/lvgl/src/themes/default/../../../src/core/../misc/lv_style.h ****     LV_STYLE_TRANSFORM_ROTATION     = 112,
 274:Drivers/lvgl/src/themes/default/../../../src/core/../misc/lv_style.h ****     LV_STYLE_TRANSFORM_PIVOT_X      = 113,
 275:Drivers/lvgl/src/themes/default/../../../src/core/../misc/lv_style.h ****     LV_STYLE_TRANSFORM_PIVOT_Y      = 114,
 276:Drivers/lvgl/src/themes/default/../../../src/core/../misc/lv_style.h ****     LV_STYLE_TRANSFORM_SKEW_X       = 115,
 277:Drivers/lvgl/src/themes/default/../../../src/core/../misc/lv_style.h ****     LV_STYLE_TRANSFORM_SKEW_Y       = 116,
 278:Drivers/lvgl/src/themes/default/../../../src/core/../misc/lv_style.h ****     LV_STYLE_BITMAP_MASK_SRC        = 117,
 279:Drivers/lvgl/src/themes/default/../../../src/core/../misc/lv_style.h ****     LV_STYLE_ROTARY_SENSITIVITY     = 118,
 280:Drivers/lvgl/src/themes/default/../../../src/core/../misc/lv_style.h ****     LV_STYLE_TRANSLATE_RADIAL       = 119,
ARM GAS  /var/folders/qx/2_175_4n2s19vhvtspjhb3qh0000gn/T//ccFV8cem.s 			page 76


 281:Drivers/lvgl/src/themes/default/../../../src/core/../misc/lv_style.h ****     LV_STYLE_RECOLOR                = 120,
 282:Drivers/lvgl/src/themes/default/../../../src/core/../misc/lv_style.h ****     LV_STYLE_RECOLOR_OPA            = 121,
 283:Drivers/lvgl/src/themes/default/../../../src/core/../misc/lv_style.h **** 
 284:Drivers/lvgl/src/themes/default/../../../src/core/../misc/lv_style.h ****     LV_STYLE_FLEX_FLOW              = 122,
 285:Drivers/lvgl/src/themes/default/../../../src/core/../misc/lv_style.h ****     LV_STYLE_FLEX_MAIN_PLACE        = 123,
 286:Drivers/lvgl/src/themes/default/../../../src/core/../misc/lv_style.h ****     LV_STYLE_FLEX_CROSS_PLACE       = 124,
 287:Drivers/lvgl/src/themes/default/../../../src/core/../misc/lv_style.h ****     LV_STYLE_FLEX_TRACK_PLACE       = 125,
 288:Drivers/lvgl/src/themes/default/../../../src/core/../misc/lv_style.h ****     LV_STYLE_FLEX_GROW              = 126,
 289:Drivers/lvgl/src/themes/default/../../../src/core/../misc/lv_style.h **** 
 290:Drivers/lvgl/src/themes/default/../../../src/core/../misc/lv_style.h ****     LV_STYLE_GRID_COLUMN_ALIGN      = 127,
 291:Drivers/lvgl/src/themes/default/../../../src/core/../misc/lv_style.h ****     LV_STYLE_GRID_ROW_ALIGN         = 128,
 292:Drivers/lvgl/src/themes/default/../../../src/core/../misc/lv_style.h ****     LV_STYLE_GRID_ROW_DSC_ARRAY     = 129,
 293:Drivers/lvgl/src/themes/default/../../../src/core/../misc/lv_style.h ****     LV_STYLE_GRID_COLUMN_DSC_ARRAY  = 130,
 294:Drivers/lvgl/src/themes/default/../../../src/core/../misc/lv_style.h ****     LV_STYLE_GRID_CELL_COLUMN_POS   = 131,
 295:Drivers/lvgl/src/themes/default/../../../src/core/../misc/lv_style.h ****     LV_STYLE_GRID_CELL_COLUMN_SPAN  = 132,
 296:Drivers/lvgl/src/themes/default/../../../src/core/../misc/lv_style.h ****     LV_STYLE_GRID_CELL_X_ALIGN      = 133,
 297:Drivers/lvgl/src/themes/default/../../../src/core/../misc/lv_style.h ****     LV_STYLE_GRID_CELL_ROW_POS      = 134,
 298:Drivers/lvgl/src/themes/default/../../../src/core/../misc/lv_style.h ****     LV_STYLE_GRID_CELL_ROW_SPAN     = 135,
 299:Drivers/lvgl/src/themes/default/../../../src/core/../misc/lv_style.h ****     LV_STYLE_GRID_CELL_Y_ALIGN      = 136,
 300:Drivers/lvgl/src/themes/default/../../../src/core/../misc/lv_style.h ****     LV_STYLE_IMAGE_COLORKEY         = 137,
 301:Drivers/lvgl/src/themes/default/../../../src/core/../misc/lv_style.h **** 
 302:Drivers/lvgl/src/themes/default/../../../src/core/../misc/lv_style.h ****     LV_STYLE_BLUR_RADIUS            = 138,
 303:Drivers/lvgl/src/themes/default/../../../src/core/../misc/lv_style.h ****     LV_STYLE_BLUR_BACKDROP          = 139,
 304:Drivers/lvgl/src/themes/default/../../../src/core/../misc/lv_style.h ****     LV_STYLE_BLUR_QUALITY           = 140,
 305:Drivers/lvgl/src/themes/default/../../../src/core/../misc/lv_style.h **** 
 306:Drivers/lvgl/src/themes/default/../../../src/core/../misc/lv_style.h ****     LV_STYLE_LAST_BUILT_IN_PROP,
 307:Drivers/lvgl/src/themes/default/../../../src/core/../misc/lv_style.h **** 
 308:Drivers/lvgl/src/themes/default/../../../src/core/../misc/lv_style.h ****     LV_STYLE_NUM_BUILT_IN_PROPS     = LV_STYLE_LAST_BUILT_IN_PROP + 1,
 309:Drivers/lvgl/src/themes/default/../../../src/core/../misc/lv_style.h **** 
 310:Drivers/lvgl/src/themes/default/../../../src/core/../misc/lv_style.h ****     LV_STYLE_PROP_ANY                = 0xFF,
 311:Drivers/lvgl/src/themes/default/../../../src/core/../misc/lv_style.h ****     LV_STYLE_PROP_CONST             = 0xFF /* magic value for const styles */
 312:Drivers/lvgl/src/themes/default/../../../src/core/../misc/lv_style.h **** };
 313:Drivers/lvgl/src/themes/default/../../../src/core/../misc/lv_style.h **** 
 314:Drivers/lvgl/src/themes/default/../../../src/core/../misc/lv_style.h **** typedef enum {
 315:Drivers/lvgl/src/themes/default/../../../src/core/../misc/lv_style.h ****     LV_STYLE_RES_NOT_FOUND,
 316:Drivers/lvgl/src/themes/default/../../../src/core/../misc/lv_style.h ****     LV_STYLE_RES_FOUND,
 317:Drivers/lvgl/src/themes/default/../../../src/core/../misc/lv_style.h **** } lv_style_res_t;
 318:Drivers/lvgl/src/themes/default/../../../src/core/../misc/lv_style.h **** 
 319:Drivers/lvgl/src/themes/default/../../../src/core/../misc/lv_style.h **** /**
 320:Drivers/lvgl/src/themes/default/../../../src/core/../misc/lv_style.h ****  * Descriptor for style transitions
 321:Drivers/lvgl/src/themes/default/../../../src/core/../misc/lv_style.h ****  */
 322:Drivers/lvgl/src/themes/default/../../../src/core/../misc/lv_style.h **** typedef struct {
 323:Drivers/lvgl/src/themes/default/../../../src/core/../misc/lv_style.h ****     const lv_style_prop_t * props; /**< An array with the properties to animate.*/
 324:Drivers/lvgl/src/themes/default/../../../src/core/../misc/lv_style.h ****     void * user_data;              /**< A custom user data that will be passed to the animation's u
 325:Drivers/lvgl/src/themes/default/../../../src/core/../misc/lv_style.h ****     lv_anim_path_cb_t path_xcb;    /**< A path for the animation.*/
 326:Drivers/lvgl/src/themes/default/../../../src/core/../misc/lv_style.h ****     uint32_t time;                 /**< Duration of the transition in [ms]*/
 327:Drivers/lvgl/src/themes/default/../../../src/core/../misc/lv_style.h ****     uint32_t delay;                /**< Delay before the transition in [ms]*/
 328:Drivers/lvgl/src/themes/default/../../../src/core/../misc/lv_style.h **** } lv_style_transition_dsc_t;
 329:Drivers/lvgl/src/themes/default/../../../src/core/../misc/lv_style.h **** 
 330:Drivers/lvgl/src/themes/default/../../../src/core/../misc/lv_style.h **** /**
 331:Drivers/lvgl/src/themes/default/../../../src/core/../misc/lv_style.h ****  * Descriptor of a constant style property.
 332:Drivers/lvgl/src/themes/default/../../../src/core/../misc/lv_style.h ****  */
 333:Drivers/lvgl/src/themes/default/../../../src/core/../misc/lv_style.h **** typedef struct {
 334:Drivers/lvgl/src/themes/default/../../../src/core/../misc/lv_style.h ****     lv_style_prop_t prop;
 335:Drivers/lvgl/src/themes/default/../../../src/core/../misc/lv_style.h ****     lv_style_value_t value;
 336:Drivers/lvgl/src/themes/default/../../../src/core/../misc/lv_style.h **** } lv_style_const_prop_t;
 337:Drivers/lvgl/src/themes/default/../../../src/core/../misc/lv_style.h **** 
ARM GAS  /var/folders/qx/2_175_4n2s19vhvtspjhb3qh0000gn/T//ccFV8cem.s 			page 77


 338:Drivers/lvgl/src/themes/default/../../../src/core/../misc/lv_style.h **** /**
 339:Drivers/lvgl/src/themes/default/../../../src/core/../misc/lv_style.h ****  * Descriptor of a style (a collection of properties and values).
 340:Drivers/lvgl/src/themes/default/../../../src/core/../misc/lv_style.h ****  */
 341:Drivers/lvgl/src/themes/default/../../../src/core/../misc/lv_style.h **** typedef struct {
 342:Drivers/lvgl/src/themes/default/../../../src/core/../misc/lv_style.h **** 
 343:Drivers/lvgl/src/themes/default/../../../src/core/../misc/lv_style.h **** #if LV_USE_ASSERT_STYLE
 344:Drivers/lvgl/src/themes/default/../../../src/core/../misc/lv_style.h ****     uint32_t sentinel;
 345:Drivers/lvgl/src/themes/default/../../../src/core/../misc/lv_style.h **** #endif
 346:Drivers/lvgl/src/themes/default/../../../src/core/../misc/lv_style.h **** 
 347:Drivers/lvgl/src/themes/default/../../../src/core/../misc/lv_style.h ****     void * values_and_props;
 348:Drivers/lvgl/src/themes/default/../../../src/core/../misc/lv_style.h **** 
 349:Drivers/lvgl/src/themes/default/../../../src/core/../misc/lv_style.h ****     uint32_t has_group;
 350:Drivers/lvgl/src/themes/default/../../../src/core/../misc/lv_style.h ****     uint8_t prop_cnt;   /**< 255 means it's a constant style*/
 351:Drivers/lvgl/src/themes/default/../../../src/core/../misc/lv_style.h **** } lv_style_t;
 352:Drivers/lvgl/src/themes/default/../../../src/core/../misc/lv_style.h **** 
 353:Drivers/lvgl/src/themes/default/../../../src/core/../misc/lv_style.h **** /**********************
 354:Drivers/lvgl/src/themes/default/../../../src/core/../misc/lv_style.h ****  * GLOBAL PROTOTYPES
 355:Drivers/lvgl/src/themes/default/../../../src/core/../misc/lv_style.h ****  **********************/
 356:Drivers/lvgl/src/themes/default/../../../src/core/../misc/lv_style.h **** 
 357:Drivers/lvgl/src/themes/default/../../../src/core/../misc/lv_style.h **** /**
 358:Drivers/lvgl/src/themes/default/../../../src/core/../misc/lv_style.h ****  * Initialize a style
 359:Drivers/lvgl/src/themes/default/../../../src/core/../misc/lv_style.h ****  * @param style pointer to a style to initialize
 360:Drivers/lvgl/src/themes/default/../../../src/core/../misc/lv_style.h ****  * @note Do not call `lv_style_init` on styles that already have some properties
 361:Drivers/lvgl/src/themes/default/../../../src/core/../misc/lv_style.h ****  *       because this function won't free the used memory, just sets a default state for the style.
 362:Drivers/lvgl/src/themes/default/../../../src/core/../misc/lv_style.h ****  *       In other words be sure to initialize styles only once!
 363:Drivers/lvgl/src/themes/default/../../../src/core/../misc/lv_style.h ****  */
 364:Drivers/lvgl/src/themes/default/../../../src/core/../misc/lv_style.h **** void lv_style_init(lv_style_t * style);
 365:Drivers/lvgl/src/themes/default/../../../src/core/../misc/lv_style.h **** 
 366:Drivers/lvgl/src/themes/default/../../../src/core/../misc/lv_style.h **** /**
 367:Drivers/lvgl/src/themes/default/../../../src/core/../misc/lv_style.h ****  * Clear all properties from a style and free all allocated memories.
 368:Drivers/lvgl/src/themes/default/../../../src/core/../misc/lv_style.h ****  * @param style pointer to a style
 369:Drivers/lvgl/src/themes/default/../../../src/core/../misc/lv_style.h ****  */
 370:Drivers/lvgl/src/themes/default/../../../src/core/../misc/lv_style.h **** void lv_style_reset(lv_style_t * style);
 371:Drivers/lvgl/src/themes/default/../../../src/core/../misc/lv_style.h **** 
 372:Drivers/lvgl/src/themes/default/../../../src/core/../misc/lv_style.h **** /**
 373:Drivers/lvgl/src/themes/default/../../../src/core/../misc/lv_style.h ****  * Copy all properties of a style to an other.
 374:Drivers/lvgl/src/themes/default/../../../src/core/../misc/lv_style.h ****  * It has the same affect callying the same `lv_set_style_...`
 375:Drivers/lvgl/src/themes/default/../../../src/core/../misc/lv_style.h ****  * functions on both styles.
 376:Drivers/lvgl/src/themes/default/../../../src/core/../misc/lv_style.h ****  * It means new memory will be allocated to store the properties in
 377:Drivers/lvgl/src/themes/default/../../../src/core/../misc/lv_style.h ****  * the destination style.
 378:Drivers/lvgl/src/themes/default/../../../src/core/../misc/lv_style.h ****  * After the copy the destination style is fully independent of the source
 379:Drivers/lvgl/src/themes/default/../../../src/core/../misc/lv_style.h ****  * and source can removed without affecting the destination style.
 380:Drivers/lvgl/src/themes/default/../../../src/core/../misc/lv_style.h ****  * @param dst   the destination to copy into (can not the a constant style)
 381:Drivers/lvgl/src/themes/default/../../../src/core/../misc/lv_style.h ****  * @param src   the source style to copy from.
 382:Drivers/lvgl/src/themes/default/../../../src/core/../misc/lv_style.h ****  */
 383:Drivers/lvgl/src/themes/default/../../../src/core/../misc/lv_style.h **** void lv_style_copy(lv_style_t * dst, const lv_style_t * src);
 384:Drivers/lvgl/src/themes/default/../../../src/core/../misc/lv_style.h **** 
 385:Drivers/lvgl/src/themes/default/../../../src/core/../misc/lv_style.h **** /**
 386:Drivers/lvgl/src/themes/default/../../../src/core/../misc/lv_style.h ****  * Copy all properties of a style to an other without resetting the dst style.
 387:Drivers/lvgl/src/themes/default/../../../src/core/../misc/lv_style.h ****  * It has the same effect as calling the same `lv_set_style_...`
 388:Drivers/lvgl/src/themes/default/../../../src/core/../misc/lv_style.h ****  * functions on both styles.
 389:Drivers/lvgl/src/themes/default/../../../src/core/../misc/lv_style.h ****  * It means new memory will be allocated to store the properties in
 390:Drivers/lvgl/src/themes/default/../../../src/core/../misc/lv_style.h ****  * the destination style.
 391:Drivers/lvgl/src/themes/default/../../../src/core/../misc/lv_style.h ****  * After the copy the destination style is fully independent of the source
 392:Drivers/lvgl/src/themes/default/../../../src/core/../misc/lv_style.h ****  * and source can removed without affecting the destination style.
 393:Drivers/lvgl/src/themes/default/../../../src/core/../misc/lv_style.h ****  * @param dst   the destination to copy into (cannot be a constant style)
 394:Drivers/lvgl/src/themes/default/../../../src/core/../misc/lv_style.h ****  * @param src   the source style to copy from.
ARM GAS  /var/folders/qx/2_175_4n2s19vhvtspjhb3qh0000gn/T//ccFV8cem.s 			page 78


 395:Drivers/lvgl/src/themes/default/../../../src/core/../misc/lv_style.h ****  */
 396:Drivers/lvgl/src/themes/default/../../../src/core/../misc/lv_style.h **** void lv_style_merge(lv_style_t * dst, const lv_style_t * src);
 397:Drivers/lvgl/src/themes/default/../../../src/core/../misc/lv_style.h **** 
 398:Drivers/lvgl/src/themes/default/../../../src/core/../misc/lv_style.h **** 
 399:Drivers/lvgl/src/themes/default/../../../src/core/../misc/lv_style.h **** /**
 400:Drivers/lvgl/src/themes/default/../../../src/core/../misc/lv_style.h ****  * Check if a style is constant
 401:Drivers/lvgl/src/themes/default/../../../src/core/../misc/lv_style.h ****  * @param style     pointer to a style
 402:Drivers/lvgl/src/themes/default/../../../src/core/../misc/lv_style.h ****  * @return          true: the style is constant
 403:Drivers/lvgl/src/themes/default/../../../src/core/../misc/lv_style.h ****  */
 404:Drivers/lvgl/src/themes/default/../../../src/core/../misc/lv_style.h **** static inline bool lv_style_is_const(const lv_style_t * style)
 405:Drivers/lvgl/src/themes/default/../../../src/core/../misc/lv_style.h **** {
 406:Drivers/lvgl/src/themes/default/../../../src/core/../misc/lv_style.h ****     if(style->prop_cnt == 255) return true;
 407:Drivers/lvgl/src/themes/default/../../../src/core/../misc/lv_style.h ****     return false;
 408:Drivers/lvgl/src/themes/default/../../../src/core/../misc/lv_style.h **** }
 409:Drivers/lvgl/src/themes/default/../../../src/core/../misc/lv_style.h **** 
 410:Drivers/lvgl/src/themes/default/../../../src/core/../misc/lv_style.h **** 
 411:Drivers/lvgl/src/themes/default/../../../src/core/../misc/lv_style.h **** /**
 412:Drivers/lvgl/src/themes/default/../../../src/core/../misc/lv_style.h ****  * Register a new style property for custom usage
 413:Drivers/lvgl/src/themes/default/../../../src/core/../misc/lv_style.h ****  * @return a new property ID, or LV_STYLE_PROP_INV if there are no more available.
 414:Drivers/lvgl/src/themes/default/../../../src/core/../misc/lv_style.h ****  *
 415:Drivers/lvgl/src/themes/default/../../../src/core/../misc/lv_style.h ****  * Example:
 416:Drivers/lvgl/src/themes/default/../../../src/core/../misc/lv_style.h ****  * @code
 417:Drivers/lvgl/src/themes/default/../../../src/core/../misc/lv_style.h ****  * lv_style_prop_t MY_PROP;
 418:Drivers/lvgl/src/themes/default/../../../src/core/../misc/lv_style.h ****  * static inline void lv_style_set_my_prop(lv_style_t * style, lv_color_t value) {
 419:Drivers/lvgl/src/themes/default/../../../src/core/../misc/lv_style.h ****  * lv_style_value_t v = {.color = value}; lv_style_set_prop(style, MY_PROP, v); }
 420:Drivers/lvgl/src/themes/default/../../../src/core/../misc/lv_style.h ****  *
 421:Drivers/lvgl/src/themes/default/../../../src/core/../misc/lv_style.h ****  * ...
 422:Drivers/lvgl/src/themes/default/../../../src/core/../misc/lv_style.h ****  * MY_PROP = lv_style_register_prop();
 423:Drivers/lvgl/src/themes/default/../../../src/core/../misc/lv_style.h ****  * ...
 424:Drivers/lvgl/src/themes/default/../../../src/core/../misc/lv_style.h ****  * lv_style_set_my_prop(&style1, lv_palette_main(LV_PALETTE_RED));
 425:Drivers/lvgl/src/themes/default/../../../src/core/../misc/lv_style.h ****  * @endcode
 426:Drivers/lvgl/src/themes/default/../../../src/core/../misc/lv_style.h ****  */
 427:Drivers/lvgl/src/themes/default/../../../src/core/../misc/lv_style.h **** lv_style_prop_t lv_style_register_prop(uint8_t flag);
 428:Drivers/lvgl/src/themes/default/../../../src/core/../misc/lv_style.h **** 
 429:Drivers/lvgl/src/themes/default/../../../src/core/../misc/lv_style.h **** /**
 430:Drivers/lvgl/src/themes/default/../../../src/core/../misc/lv_style.h ****  * Get the number of custom properties that have been registered thus far.
 431:Drivers/lvgl/src/themes/default/../../../src/core/../misc/lv_style.h ****  */
 432:Drivers/lvgl/src/themes/default/../../../src/core/../misc/lv_style.h **** lv_style_prop_t lv_style_get_num_custom_props(void);
 433:Drivers/lvgl/src/themes/default/../../../src/core/../misc/lv_style.h **** 
 434:Drivers/lvgl/src/themes/default/../../../src/core/../misc/lv_style.h **** /**
 435:Drivers/lvgl/src/themes/default/../../../src/core/../misc/lv_style.h ****  * Remove a property from a style
 436:Drivers/lvgl/src/themes/default/../../../src/core/../misc/lv_style.h ****  * @param style pointer to a style
 437:Drivers/lvgl/src/themes/default/../../../src/core/../misc/lv_style.h ****  * @param prop  a style property ORed with a state.
 438:Drivers/lvgl/src/themes/default/../../../src/core/../misc/lv_style.h ****  * @return true: the property was found and removed; false: the property wasn't found
 439:Drivers/lvgl/src/themes/default/../../../src/core/../misc/lv_style.h ****  */
 440:Drivers/lvgl/src/themes/default/../../../src/core/../misc/lv_style.h **** bool lv_style_remove_prop(lv_style_t * style, lv_style_prop_t prop);
 441:Drivers/lvgl/src/themes/default/../../../src/core/../misc/lv_style.h **** 
 442:Drivers/lvgl/src/themes/default/../../../src/core/../misc/lv_style.h **** /**
 443:Drivers/lvgl/src/themes/default/../../../src/core/../misc/lv_style.h ****  * Set the value of property in a style.
 444:Drivers/lvgl/src/themes/default/../../../src/core/../misc/lv_style.h ****  * This function shouldn't be used directly by the user.
 445:Drivers/lvgl/src/themes/default/../../../src/core/../misc/lv_style.h ****  * Instead use `lv_style_set_<prop_name>()`. E.g. `lv_style_set_bg_color()`
 446:Drivers/lvgl/src/themes/default/../../../src/core/../misc/lv_style.h ****  * @param style pointer to style
 447:Drivers/lvgl/src/themes/default/../../../src/core/../misc/lv_style.h ****  * @param prop the ID of a property (e.g. `LV_STYLE_BG_COLOR`)
 448:Drivers/lvgl/src/themes/default/../../../src/core/../misc/lv_style.h ****  * @param value `lv_style_value_t` variable in which a field is set according to the type of `prop`
 449:Drivers/lvgl/src/themes/default/../../../src/core/../misc/lv_style.h ****  */
 450:Drivers/lvgl/src/themes/default/../../../src/core/../misc/lv_style.h **** void lv_style_set_prop(lv_style_t * style, lv_style_prop_t prop, lv_style_value_t value);
 451:Drivers/lvgl/src/themes/default/../../../src/core/../misc/lv_style.h **** 
ARM GAS  /var/folders/qx/2_175_4n2s19vhvtspjhb3qh0000gn/T//ccFV8cem.s 			page 79


 452:Drivers/lvgl/src/themes/default/../../../src/core/../misc/lv_style.h **** /**
 453:Drivers/lvgl/src/themes/default/../../../src/core/../misc/lv_style.h ****  * Get the value of a property
 454:Drivers/lvgl/src/themes/default/../../../src/core/../misc/lv_style.h ****  * @param style pointer to a style
 455:Drivers/lvgl/src/themes/default/../../../src/core/../misc/lv_style.h ****  * @param prop  the ID of a property
 456:Drivers/lvgl/src/themes/default/../../../src/core/../misc/lv_style.h ****  * @param value pointer to a `lv_style_value_t` variable to store the value
 457:Drivers/lvgl/src/themes/default/../../../src/core/../misc/lv_style.h ****  * @return LV_RESULT_INVALID: the property wasn't found in the style (`value` is unchanged)
 458:Drivers/lvgl/src/themes/default/../../../src/core/../misc/lv_style.h ****  *         LV_RESULT_OK: the property was fond, and `value` is set accordingly
 459:Drivers/lvgl/src/themes/default/../../../src/core/../misc/lv_style.h ****  * @note For performance reasons there are no sanity check on `style`
 460:Drivers/lvgl/src/themes/default/../../../src/core/../misc/lv_style.h ****  */
 461:Drivers/lvgl/src/themes/default/../../../src/core/../misc/lv_style.h **** lv_style_res_t lv_style_get_prop(const lv_style_t * style, lv_style_prop_t prop, lv_style_value_t *
 462:Drivers/lvgl/src/themes/default/../../../src/core/../misc/lv_style.h **** 
 463:Drivers/lvgl/src/themes/default/../../../src/core/../misc/lv_style.h **** /**
 464:Drivers/lvgl/src/themes/default/../../../src/core/../misc/lv_style.h ****  * Initialize a transition descriptor.
 465:Drivers/lvgl/src/themes/default/../../../src/core/../misc/lv_style.h ****  * @param tr        pointer to a transition descriptor to initialize
 466:Drivers/lvgl/src/themes/default/../../../src/core/../misc/lv_style.h ****  * @param props     an array with the properties to transition. The last element must be zero.
 467:Drivers/lvgl/src/themes/default/../../../src/core/../misc/lv_style.h ****  * @param path_cb   an animation path (ease) callback. If `NULL` liner path will be used.
 468:Drivers/lvgl/src/themes/default/../../../src/core/../misc/lv_style.h ****  * @param time      duration of the transition in [ms]
 469:Drivers/lvgl/src/themes/default/../../../src/core/../misc/lv_style.h ****  * @param delay     delay before the transition in [ms]
 470:Drivers/lvgl/src/themes/default/../../../src/core/../misc/lv_style.h ****  * @param user_data any custom data that will be saved in the transition animation and will be avai
 471:Drivers/lvgl/src/themes/default/../../../src/core/../misc/lv_style.h ****  *
 472:Drivers/lvgl/src/themes/default/../../../src/core/../misc/lv_style.h ****  * Example:
 473:Drivers/lvgl/src/themes/default/../../../src/core/../misc/lv_style.h ****  * @code
 474:Drivers/lvgl/src/themes/default/../../../src/core/../misc/lv_style.h ****  * const static lv_style_prop_t trans_props[] = { LV_STYLE_BG_OPA, LV_STYLE_BG_COLOR, 0 };
 475:Drivers/lvgl/src/themes/default/../../../src/core/../misc/lv_style.h ****  * static lv_style_transition_dsc_t trans1;
 476:Drivers/lvgl/src/themes/default/../../../src/core/../misc/lv_style.h ****  * lv_style_transition_dsc_init(&trans1, trans_props, NULL, 300, 0, NULL);
 477:Drivers/lvgl/src/themes/default/../../../src/core/../misc/lv_style.h ****  * @endcode
 478:Drivers/lvgl/src/themes/default/../../../src/core/../misc/lv_style.h ****  */
 479:Drivers/lvgl/src/themes/default/../../../src/core/../misc/lv_style.h **** void lv_style_transition_dsc_init(lv_style_transition_dsc_t * tr, const lv_style_prop_t props[],
 480:Drivers/lvgl/src/themes/default/../../../src/core/../misc/lv_style.h ****                                   lv_anim_path_cb_t path_cb, uint32_t time, uint32_t delay, void * 
 481:Drivers/lvgl/src/themes/default/../../../src/core/../misc/lv_style.h **** 
 482:Drivers/lvgl/src/themes/default/../../../src/core/../misc/lv_style.h **** /**
 483:Drivers/lvgl/src/themes/default/../../../src/core/../misc/lv_style.h ****  * Get the default value of a property
 484:Drivers/lvgl/src/themes/default/../../../src/core/../misc/lv_style.h ****  * @param prop the ID of a property
 485:Drivers/lvgl/src/themes/default/../../../src/core/../misc/lv_style.h ****  * @return the default value
 486:Drivers/lvgl/src/themes/default/../../../src/core/../misc/lv_style.h ****  */
 487:Drivers/lvgl/src/themes/default/../../../src/core/../misc/lv_style.h **** lv_style_value_t lv_style_prop_get_default(lv_style_prop_t prop);
 488:Drivers/lvgl/src/themes/default/../../../src/core/../misc/lv_style.h **** 
 489:Drivers/lvgl/src/themes/default/../../../src/core/../misc/lv_style.h **** /**
 490:Drivers/lvgl/src/themes/default/../../../src/core/../misc/lv_style.h ****  * Get the value of a property
 491:Drivers/lvgl/src/themes/default/../../../src/core/../misc/lv_style.h ****  * @param style pointer to a style
 492:Drivers/lvgl/src/themes/default/../../../src/core/../misc/lv_style.h ****  * @param prop  the ID of a property
 493:Drivers/lvgl/src/themes/default/../../../src/core/../misc/lv_style.h ****  * @param value pointer to a `lv_style_value_t` variable to store the value
 494:Drivers/lvgl/src/themes/default/../../../src/core/../misc/lv_style.h ****  * @return LV_RESULT_INVALID: the property wasn't found in the style (`value` is unchanged)
 495:Drivers/lvgl/src/themes/default/../../../src/core/../misc/lv_style.h ****  *         LV_RESULT_OK: the property was fond, and `value` is set accordingly
 496:Drivers/lvgl/src/themes/default/../../../src/core/../misc/lv_style.h ****  * @note For performance reasons there are no sanity check on `style`
 497:Drivers/lvgl/src/themes/default/../../../src/core/../misc/lv_style.h ****  * @note This function is the same as ::lv_style_get_prop but inlined. Use it only on performance c
 498:Drivers/lvgl/src/themes/default/../../../src/core/../misc/lv_style.h ****  */
 499:Drivers/lvgl/src/themes/default/../../../src/core/../misc/lv_style.h **** static inline lv_style_res_t lv_style_get_prop_inlined(const lv_style_t * style, lv_style_prop_t pr
 500:Drivers/lvgl/src/themes/default/../../../src/core/../misc/lv_style.h ****                                                        lv_style_value_t * value)
 501:Drivers/lvgl/src/themes/default/../../../src/core/../misc/lv_style.h **** {
 502:Drivers/lvgl/src/themes/default/../../../src/core/../misc/lv_style.h ****     if(lv_style_is_const(style)) {
 503:Drivers/lvgl/src/themes/default/../../../src/core/../misc/lv_style.h ****         lv_style_const_prop_t * props = (lv_style_const_prop_t *)style->values_and_props;
 504:Drivers/lvgl/src/themes/default/../../../src/core/../misc/lv_style.h ****         uint32_t i;
 505:Drivers/lvgl/src/themes/default/../../../src/core/../misc/lv_style.h ****         for(i = 0; props[i].prop != LV_STYLE_PROP_INV; i++) {
 506:Drivers/lvgl/src/themes/default/../../../src/core/../misc/lv_style.h ****             if(props[i].prop == prop) {
 507:Drivers/lvgl/src/themes/default/../../../src/core/../misc/lv_style.h ****                 *value = props[i].value;
 508:Drivers/lvgl/src/themes/default/../../../src/core/../misc/lv_style.h ****                 return LV_STYLE_RES_FOUND;
ARM GAS  /var/folders/qx/2_175_4n2s19vhvtspjhb3qh0000gn/T//ccFV8cem.s 			page 80


 509:Drivers/lvgl/src/themes/default/../../../src/core/../misc/lv_style.h ****             }
 510:Drivers/lvgl/src/themes/default/../../../src/core/../misc/lv_style.h ****         }
 511:Drivers/lvgl/src/themes/default/../../../src/core/../misc/lv_style.h ****     }
 512:Drivers/lvgl/src/themes/default/../../../src/core/../misc/lv_style.h ****     else {
 513:Drivers/lvgl/src/themes/default/../../../src/core/../misc/lv_style.h ****         lv_style_prop_t * props = (lv_style_prop_t *)style->values_and_props + style->prop_cnt * si
 514:Drivers/lvgl/src/themes/default/../../../src/core/../misc/lv_style.h ****         uint32_t i;
 515:Drivers/lvgl/src/themes/default/../../../src/core/../misc/lv_style.h ****         for(i = 0; i < style->prop_cnt; i++) {
 516:Drivers/lvgl/src/themes/default/../../../src/core/../misc/lv_style.h ****             if(props[i] == prop) {
 517:Drivers/lvgl/src/themes/default/../../../src/core/../misc/lv_style.h ****                 lv_style_value_t * values = (lv_style_value_t *)style->values_and_props;
 518:Drivers/lvgl/src/themes/default/../../../src/core/../misc/lv_style.h ****                 *value = values[i];
 519:Drivers/lvgl/src/themes/default/../../../src/core/../misc/lv_style.h ****                 return LV_STYLE_RES_FOUND;
 520:Drivers/lvgl/src/themes/default/../../../src/core/../misc/lv_style.h ****             }
 521:Drivers/lvgl/src/themes/default/../../../src/core/../misc/lv_style.h ****         }
 522:Drivers/lvgl/src/themes/default/../../../src/core/../misc/lv_style.h ****     }
 523:Drivers/lvgl/src/themes/default/../../../src/core/../misc/lv_style.h ****     return LV_STYLE_RES_NOT_FOUND;
 524:Drivers/lvgl/src/themes/default/../../../src/core/../misc/lv_style.h **** }
 525:Drivers/lvgl/src/themes/default/../../../src/core/../misc/lv_style.h **** 
 526:Drivers/lvgl/src/themes/default/../../../src/core/../misc/lv_style.h **** /**
 527:Drivers/lvgl/src/themes/default/../../../src/core/../misc/lv_style.h ****  * Checks if a style is empty (has no properties)
 528:Drivers/lvgl/src/themes/default/../../../src/core/../misc/lv_style.h ****  * @param style pointer to a style
 529:Drivers/lvgl/src/themes/default/../../../src/core/../misc/lv_style.h ****  * @return true if the style is empty
 530:Drivers/lvgl/src/themes/default/../../../src/core/../misc/lv_style.h ****  */
 531:Drivers/lvgl/src/themes/default/../../../src/core/../misc/lv_style.h **** bool lv_style_is_empty(const lv_style_t * style);
 532:Drivers/lvgl/src/themes/default/../../../src/core/../misc/lv_style.h **** 
 533:Drivers/lvgl/src/themes/default/../../../src/core/../misc/lv_style.h **** /**
 534:Drivers/lvgl/src/themes/default/../../../src/core/../misc/lv_style.h ****  * Tell the group of a property. If the a property from a group is set in a style the (1 << group) 
 535:Drivers/lvgl/src/themes/default/../../../src/core/../misc/lv_style.h ****  * It allows early skipping the style if the property is not exists in the style at all.
 536:Drivers/lvgl/src/themes/default/../../../src/core/../misc/lv_style.h ****  * @param prop a style property
 537:Drivers/lvgl/src/themes/default/../../../src/core/../misc/lv_style.h ****  * @return the group [0..30] 30 means all the custom properties with index > 120
 538:Drivers/lvgl/src/themes/default/../../../src/core/../misc/lv_style.h ****  */
 539:Drivers/lvgl/src/themes/default/../../../src/core/../misc/lv_style.h **** static inline uint32_t lv_style_get_prop_group(lv_style_prop_t prop)
 540:Drivers/lvgl/src/themes/default/../../../src/core/../misc/lv_style.h **** {
 541:Drivers/lvgl/src/themes/default/../../../src/core/../misc/lv_style.h ****     uint32_t group = prop >> 2;
 542:Drivers/lvgl/src/themes/default/../../../src/core/../misc/lv_style.h ****     if(group > 30) group = 31;    /*The MSB marks all the custom properties*/
 543:Drivers/lvgl/src/themes/default/../../../src/core/../misc/lv_style.h ****     return group;
 544:Drivers/lvgl/src/themes/default/../../../src/core/../misc/lv_style.h **** 
 545:Drivers/lvgl/src/themes/default/../../../src/core/../misc/lv_style.h **** }
 546:Drivers/lvgl/src/themes/default/../../../src/core/../misc/lv_style.h **** 
 547:Drivers/lvgl/src/themes/default/../../../src/core/../misc/lv_style.h **** /**
 548:Drivers/lvgl/src/themes/default/../../../src/core/../misc/lv_style.h ****  * Get the flags of a built-in or custom property.
 549:Drivers/lvgl/src/themes/default/../../../src/core/../misc/lv_style.h ****  *
 550:Drivers/lvgl/src/themes/default/../../../src/core/../misc/lv_style.h ****  * @param prop a style property
 551:Drivers/lvgl/src/themes/default/../../../src/core/../misc/lv_style.h ****  * @return the flags of the property
 552:Drivers/lvgl/src/themes/default/../../../src/core/../misc/lv_style.h ****  */
 553:Drivers/lvgl/src/themes/default/../../../src/core/../misc/lv_style.h **** uint8_t lv_style_prop_lookup_flags(lv_style_prop_t prop);
 554:Drivers/lvgl/src/themes/default/../../../src/core/../misc/lv_style.h **** 
 555:Drivers/lvgl/src/themes/default/../../../src/core/../misc/lv_style.h **** #include "lv_style_gen.h"
 556:Drivers/lvgl/src/themes/default/../../../src/core/../misc/lv_style.h **** 
 557:Drivers/lvgl/src/themes/default/../../../src/core/../misc/lv_style.h **** static inline void lv_style_set_size(lv_style_t * style, int32_t width, int32_t height)
 558:Drivers/lvgl/src/themes/default/../../../src/core/../misc/lv_style.h **** {
 559:Drivers/lvgl/src/themes/default/../../../src/core/../misc/lv_style.h ****     lv_style_set_width(style, width);
 560:Drivers/lvgl/src/themes/default/../../../src/core/../misc/lv_style.h ****     lv_style_set_height(style, height);
 561:Drivers/lvgl/src/themes/default/../../../src/core/../misc/lv_style.h **** }
 562:Drivers/lvgl/src/themes/default/../../../src/core/../misc/lv_style.h **** 
 563:Drivers/lvgl/src/themes/default/../../../src/core/../misc/lv_style.h **** static inline void lv_style_set_pad_all(lv_style_t * style, int32_t value)
 564:Drivers/lvgl/src/themes/default/../../../src/core/../misc/lv_style.h **** {
 565:Drivers/lvgl/src/themes/default/../../../src/core/../misc/lv_style.h ****     lv_style_set_pad_left(style, value);
ARM GAS  /var/folders/qx/2_175_4n2s19vhvtspjhb3qh0000gn/T//ccFV8cem.s 			page 81


 566:Drivers/lvgl/src/themes/default/../../../src/core/../misc/lv_style.h ****     lv_style_set_pad_right(style, value);
 567:Drivers/lvgl/src/themes/default/../../../src/core/../misc/lv_style.h ****     lv_style_set_pad_top(style, value);
 568:Drivers/lvgl/src/themes/default/../../../src/core/../misc/lv_style.h ****     lv_style_set_pad_bottom(style, value);
 569:Drivers/lvgl/src/themes/default/../../../src/core/../misc/lv_style.h **** }
 570:Drivers/lvgl/src/themes/default/../../../src/core/../misc/lv_style.h **** 
 571:Drivers/lvgl/src/themes/default/../../../src/core/../misc/lv_style.h **** static inline void lv_style_set_pad_hor(lv_style_t * style, int32_t value)
 572:Drivers/lvgl/src/themes/default/../../../src/core/../misc/lv_style.h **** {
 573:Drivers/lvgl/src/themes/default/../../../src/core/../misc/lv_style.h ****     lv_style_set_pad_left(style, value);
 574:Drivers/lvgl/src/themes/default/../../../src/core/../misc/lv_style.h ****     lv_style_set_pad_right(style, value);
 575:Drivers/lvgl/src/themes/default/../../../src/core/../misc/lv_style.h **** }
 576:Drivers/lvgl/src/themes/default/../../../src/core/../misc/lv_style.h **** 
 577:Drivers/lvgl/src/themes/default/../../../src/core/../misc/lv_style.h **** static inline void lv_style_set_pad_ver(lv_style_t * style, int32_t value)
 578:Drivers/lvgl/src/themes/default/../../../src/core/../misc/lv_style.h **** {
 579:Drivers/lvgl/src/themes/default/../../../src/core/../misc/lv_style.h ****     lv_style_set_pad_top(style, value);
 580:Drivers/lvgl/src/themes/default/../../../src/core/../misc/lv_style.h ****     lv_style_set_pad_bottom(style, value);
 581:Drivers/lvgl/src/themes/default/../../../src/core/../misc/lv_style.h **** }
 582:Drivers/lvgl/src/themes/default/../../../src/core/../misc/lv_style.h **** 
 583:Drivers/lvgl/src/themes/default/../../../src/core/../misc/lv_style.h **** static inline void lv_style_set_pad_gap(lv_style_t * style, int32_t value)
 584:Drivers/lvgl/src/themes/default/../../../src/core/../misc/lv_style.h **** {
 2338              		.loc 2 584 1 view -0
 2339              		.cfi_startproc
 2340              		@ args = 0, pretend = 0, frame = 0
 2341              		@ frame_needed = 0, uses_anonymous_args = 0
 2342              		.loc 2 584 1 is_stmt 0 view .LVU487
 2343 0000 38B5     		push	{r3, r4, r5, lr}
 2344              	.LCFI1:
 2345              		.cfi_def_cfa_offset 16
 2346              		.cfi_offset 3, -16
 2347              		.cfi_offset 4, -12
 2348              		.cfi_offset 5, -8
 2349              		.cfi_offset 14, -4
 2350 0002 0446     		mov	r4, r0
 2351 0004 0D46     		mov	r5, r1
 585:Drivers/lvgl/src/themes/default/../../../src/core/../misc/lv_style.h ****     lv_style_set_pad_row(style, value);
 2352              		.loc 2 585 5 is_stmt 1 view .LVU488
 2353 0006 FFF7FEFF 		bl	lv_style_set_pad_row
 2354              	.LVL337:
 586:Drivers/lvgl/src/themes/default/../../../src/core/../misc/lv_style.h ****     lv_style_set_pad_column(style, value);
 2355              		.loc 2 586 5 view .LVU489
 2356 000a 2946     		mov	r1, r5
 2357 000c 2046     		mov	r0, r4
 2358 000e FFF7FEFF 		bl	lv_style_set_pad_column
 2359              	.LVL338:
 587:Drivers/lvgl/src/themes/default/../../../src/core/../misc/lv_style.h **** }
 2360              		.loc 2 587 1 is_stmt 0 view .LVU490
 2361 0012 38BD     		pop	{r3, r4, r5, pc}
 2362              		.loc 2 587 1 view .LVU491
 2363              		.cfi_endproc
 2364              	.LFE27:
 2366              		.section	.text.lv_style_set_pad_ver,"ax",%progbits
 2367              		.align	1
 2368              		.syntax unified
 2369              		.thumb
 2370              		.thumb_func
 2372              	lv_style_set_pad_ver:
 2373              	.LVL339:
 2374              	.LFB26:
ARM GAS  /var/folders/qx/2_175_4n2s19vhvtspjhb3qh0000gn/T//ccFV8cem.s 			page 82


 578:Drivers/lvgl/src/themes/default/../../../src/core/../misc/lv_style.h ****     lv_style_set_pad_top(style, value);
 2375              		.loc 2 578 1 is_stmt 1 view -0
 2376              		.cfi_startproc
 2377              		@ args = 0, pretend = 0, frame = 0
 2378              		@ frame_needed = 0, uses_anonymous_args = 0
 578:Drivers/lvgl/src/themes/default/../../../src/core/../misc/lv_style.h ****     lv_style_set_pad_top(style, value);
 2379              		.loc 2 578 1 is_stmt 0 view .LVU493
 2380 0000 38B5     		push	{r3, r4, r5, lr}
 2381              	.LCFI2:
 2382              		.cfi_def_cfa_offset 16
 2383              		.cfi_offset 3, -16
 2384              		.cfi_offset 4, -12
 2385              		.cfi_offset 5, -8
 2386              		.cfi_offset 14, -4
 2387 0002 0446     		mov	r4, r0
 2388 0004 0D46     		mov	r5, r1
 579:Drivers/lvgl/src/themes/default/../../../src/core/../misc/lv_style.h ****     lv_style_set_pad_bottom(style, value);
 2389              		.loc 2 579 5 is_stmt 1 view .LVU494
 2390 0006 FFF7FEFF 		bl	lv_style_set_pad_top
 2391              	.LVL340:
 580:Drivers/lvgl/src/themes/default/../../../src/core/../misc/lv_style.h **** }
 2392              		.loc 2 580 5 view .LVU495
 2393 000a 2946     		mov	r1, r5
 2394 000c 2046     		mov	r0, r4
 2395 000e FFF7FEFF 		bl	lv_style_set_pad_bottom
 2396              	.LVL341:
 581:Drivers/lvgl/src/themes/default/../../../src/core/../misc/lv_style.h **** 
 2397              		.loc 2 581 1 is_stmt 0 view .LVU496
 2398 0012 38BD     		pop	{r3, r4, r5, pc}
 581:Drivers/lvgl/src/themes/default/../../../src/core/../misc/lv_style.h **** 
 2399              		.loc 2 581 1 view .LVU497
 2400              		.cfi_endproc
 2401              	.LFE26:
 2403              		.section	.text.lv_style_set_pad_hor,"ax",%progbits
 2404              		.align	1
 2405              		.syntax unified
 2406              		.thumb
 2407              		.thumb_func
 2409              	lv_style_set_pad_hor:
 2410              	.LVL342:
 2411              	.LFB25:
 572:Drivers/lvgl/src/themes/default/../../../src/core/../misc/lv_style.h ****     lv_style_set_pad_left(style, value);
 2412              		.loc 2 572 1 is_stmt 1 view -0
 2413              		.cfi_startproc
 2414              		@ args = 0, pretend = 0, frame = 0
 2415              		@ frame_needed = 0, uses_anonymous_args = 0
 572:Drivers/lvgl/src/themes/default/../../../src/core/../misc/lv_style.h ****     lv_style_set_pad_left(style, value);
 2416              		.loc 2 572 1 is_stmt 0 view .LVU499
 2417 0000 38B5     		push	{r3, r4, r5, lr}
 2418              	.LCFI3:
 2419              		.cfi_def_cfa_offset 16
 2420              		.cfi_offset 3, -16
 2421              		.cfi_offset 4, -12
 2422              		.cfi_offset 5, -8
 2423              		.cfi_offset 14, -4
 2424 0002 0446     		mov	r4, r0
 2425 0004 0D46     		mov	r5, r1
ARM GAS  /var/folders/qx/2_175_4n2s19vhvtspjhb3qh0000gn/T//ccFV8cem.s 			page 83


 573:Drivers/lvgl/src/themes/default/../../../src/core/../misc/lv_style.h ****     lv_style_set_pad_right(style, value);
 2426              		.loc 2 573 5 is_stmt 1 view .LVU500
 2427 0006 FFF7FEFF 		bl	lv_style_set_pad_left
 2428              	.LVL343:
 574:Drivers/lvgl/src/themes/default/../../../src/core/../misc/lv_style.h **** }
 2429              		.loc 2 574 5 view .LVU501
 2430 000a 2946     		mov	r1, r5
 2431 000c 2046     		mov	r0, r4
 2432 000e FFF7FEFF 		bl	lv_style_set_pad_right
 2433              	.LVL344:
 575:Drivers/lvgl/src/themes/default/../../../src/core/../misc/lv_style.h **** 
 2434              		.loc 2 575 1 is_stmt 0 view .LVU502
 2435 0012 38BD     		pop	{r3, r4, r5, pc}
 575:Drivers/lvgl/src/themes/default/../../../src/core/../misc/lv_style.h **** 
 2436              		.loc 2 575 1 view .LVU503
 2437              		.cfi_endproc
 2438              	.LFE25:
 2440              		.section	.text.lv_style_set_pad_all,"ax",%progbits
 2441              		.align	1
 2442              		.syntax unified
 2443              		.thumb
 2444              		.thumb_func
 2446              	lv_style_set_pad_all:
 2447              	.LVL345:
 2448              	.LFB24:
 564:Drivers/lvgl/src/themes/default/../../../src/core/../misc/lv_style.h ****     lv_style_set_pad_left(style, value);
 2449              		.loc 2 564 1 is_stmt 1 view -0
 2450              		.cfi_startproc
 2451              		@ args = 0, pretend = 0, frame = 0
 2452              		@ frame_needed = 0, uses_anonymous_args = 0
 564:Drivers/lvgl/src/themes/default/../../../src/core/../misc/lv_style.h ****     lv_style_set_pad_left(style, value);
 2453              		.loc 2 564 1 is_stmt 0 view .LVU505
 2454 0000 38B5     		push	{r3, r4, r5, lr}
 2455              	.LCFI4:
 2456              		.cfi_def_cfa_offset 16
 2457              		.cfi_offset 3, -16
 2458              		.cfi_offset 4, -12
 2459              		.cfi_offset 5, -8
 2460              		.cfi_offset 14, -4
 2461 0002 0446     		mov	r4, r0
 2462 0004 0D46     		mov	r5, r1
 565:Drivers/lvgl/src/themes/default/../../../src/core/../misc/lv_style.h ****     lv_style_set_pad_right(style, value);
 2463              		.loc 2 565 5 is_stmt 1 view .LVU506
 2464 0006 FFF7FEFF 		bl	lv_style_set_pad_left
 2465              	.LVL346:
 566:Drivers/lvgl/src/themes/default/../../../src/core/../misc/lv_style.h ****     lv_style_set_pad_top(style, value);
 2466              		.loc 2 566 5 view .LVU507
 2467 000a 2946     		mov	r1, r5
 2468 000c 2046     		mov	r0, r4
 2469 000e FFF7FEFF 		bl	lv_style_set_pad_right
 2470              	.LVL347:
 567:Drivers/lvgl/src/themes/default/../../../src/core/../misc/lv_style.h ****     lv_style_set_pad_bottom(style, value);
 2471              		.loc 2 567 5 view .LVU508
 2472 0012 2946     		mov	r1, r5
 2473 0014 2046     		mov	r0, r4
 2474 0016 FFF7FEFF 		bl	lv_style_set_pad_top
 2475              	.LVL348:
ARM GAS  /var/folders/qx/2_175_4n2s19vhvtspjhb3qh0000gn/T//ccFV8cem.s 			page 84


 568:Drivers/lvgl/src/themes/default/../../../src/core/../misc/lv_style.h **** }
 2476              		.loc 2 568 5 view .LVU509
 2477 001a 2946     		mov	r1, r5
 2478 001c 2046     		mov	r0, r4
 2479 001e FFF7FEFF 		bl	lv_style_set_pad_bottom
 2480              	.LVL349:
 569:Drivers/lvgl/src/themes/default/../../../src/core/../misc/lv_style.h **** 
 2481              		.loc 2 569 1 is_stmt 0 view .LVU510
 2482 0022 38BD     		pop	{r3, r4, r5, pc}
 569:Drivers/lvgl/src/themes/default/../../../src/core/../misc/lv_style.h **** 
 2483              		.loc 2 569 1 view .LVU511
 2484              		.cfi_endproc
 2485              	.LFE24:
 2487              		.section	.text.lv_theme_default_is_inited,"ax",%progbits
 2488              		.align	1
 2489              		.global	lv_theme_default_is_inited
 2490              		.syntax unified
 2491              		.thumb
 2492              		.thumb_func
 2494              	lv_theme_default_is_inited:
 2495              	.LFB204:
 692:Drivers/lvgl/src/themes/default/lv_theme_default.c ****     my_theme_t * theme = theme_def;
 2496              		.loc 1 692 1 is_stmt 1 view -0
 2497              		.cfi_startproc
 2498              		@ args = 0, pretend = 0, frame = 0
 2499              		@ frame_needed = 0, uses_anonymous_args = 0
 2500              		@ link register save eliminated.
 693:Drivers/lvgl/src/themes/default/lv_theme_default.c ****     if(theme == NULL) return false;
 2501              		.loc 1 693 5 view .LVU513
 693:Drivers/lvgl/src/themes/default/lv_theme_default.c ****     if(theme == NULL) return false;
 2502              		.loc 1 693 18 is_stmt 0 view .LVU514
 2503 0000 044B     		ldr	r3, .L92
 2504 0002 D3F8CC31 		ldr	r3, [r3, #460]
 2505              	.LVL350:
 694:Drivers/lvgl/src/themes/default/lv_theme_default.c ****     return theme->inited;
 2506              		.loc 1 694 5 is_stmt 1 view .LVU515
 694:Drivers/lvgl/src/themes/default/lv_theme_default.c ****     return theme->inited;
 2507              		.loc 1 694 7 is_stmt 0 view .LVU516
 2508 0006 13B1     		cbz	r3, .L91
 695:Drivers/lvgl/src/themes/default/lv_theme_default.c **** }
 2509              		.loc 1 695 5 is_stmt 1 view .LVU517
 695:Drivers/lvgl/src/themes/default/lv_theme_default.c **** }
 2510              		.loc 1 695 17 is_stmt 0 view .LVU518
 2511 0008 93F83C00 		ldrb	r0, [r3, #60]	@ zero_extendqisi2
 2512 000c 7047     		bx	lr
 2513              	.L91:
 694:Drivers/lvgl/src/themes/default/lv_theme_default.c ****     return theme->inited;
 2514              		.loc 1 694 30 discriminator 1 view .LVU519
 2515 000e 0020     		movs	r0, #0
 696:Drivers/lvgl/src/themes/default/lv_theme_default.c **** 
 2516              		.loc 1 696 1 view .LVU520
 2517 0010 7047     		bx	lr
 2518              	.L93:
 2519 0012 00BF     		.align	2
 2520              	.L92:
 2521 0014 00000000 		.word	lv_global
 2522              		.cfi_endproc
ARM GAS  /var/folders/qx/2_175_4n2s19vhvtspjhb3qh0000gn/T//ccFV8cem.s 			page 85


 2523              	.LFE204:
 2525              		.section	.text.style_init_reset,"ax",%progbits
 2526              		.align	1
 2527              		.syntax unified
 2528              		.thumb
 2529              		.thumb_func
 2531              	style_init_reset:
 2532              	.LVL351:
 2533              	.LFB208:
1221:Drivers/lvgl/src/themes/default/lv_theme_default.c **** 
1222:Drivers/lvgl/src/themes/default/lv_theme_default.c **** static void style_init_reset(lv_style_t * style)
1223:Drivers/lvgl/src/themes/default/lv_theme_default.c **** {
 2534              		.loc 1 1223 1 is_stmt 1 view -0
 2535              		.cfi_startproc
 2536              		@ args = 0, pretend = 0, frame = 0
 2537              		@ frame_needed = 0, uses_anonymous_args = 0
 2538              		.loc 1 1223 1 is_stmt 0 view .LVU522
 2539 0000 10B5     		push	{r4, lr}
 2540              	.LCFI5:
 2541              		.cfi_def_cfa_offset 8
 2542              		.cfi_offset 4, -8
 2543              		.cfi_offset 14, -4
 2544 0002 0446     		mov	r4, r0
1224:Drivers/lvgl/src/themes/default/lv_theme_default.c ****     if(lv_theme_default_is_inited()) {
 2545              		.loc 1 1224 5 is_stmt 1 view .LVU523
 2546              		.loc 1 1224 8 is_stmt 0 view .LVU524
 2547 0004 FFF7FEFF 		bl	lv_theme_default_is_inited
 2548              	.LVL352:
 2549              		.loc 1 1224 7 discriminator 1 view .LVU525
 2550 0008 18B1     		cbz	r0, .L95
1225:Drivers/lvgl/src/themes/default/lv_theme_default.c ****         lv_style_reset(style);
 2551              		.loc 1 1225 9 is_stmt 1 view .LVU526
 2552 000a 2046     		mov	r0, r4
 2553 000c FFF7FEFF 		bl	lv_style_reset
 2554              	.LVL353:
 2555              	.L94:
1226:Drivers/lvgl/src/themes/default/lv_theme_default.c ****     }
1227:Drivers/lvgl/src/themes/default/lv_theme_default.c ****     else {
1228:Drivers/lvgl/src/themes/default/lv_theme_default.c ****         lv_style_init(style);
1229:Drivers/lvgl/src/themes/default/lv_theme_default.c ****     }
1230:Drivers/lvgl/src/themes/default/lv_theme_default.c **** }
 2556              		.loc 1 1230 1 is_stmt 0 view .LVU527
 2557 0010 10BD     		pop	{r4, pc}
 2558              	.LVL354:
 2559              	.L95:
1228:Drivers/lvgl/src/themes/default/lv_theme_default.c ****     }
 2560              		.loc 1 1228 9 is_stmt 1 view .LVU528
 2561 0012 2046     		mov	r0, r4
 2562 0014 FFF7FEFF 		bl	lv_style_init
 2563              	.LVL355:
 2564              		.loc 1 1230 1 is_stmt 0 view .LVU529
 2565 0018 FAE7     		b	.L94
 2566              		.cfi_endproc
 2567              	.LFE208:
 2569              		.section	.rodata.style_init.str1.4,"aMS",%progbits,1
 2570              		.align	2
 2571              	.LC0:
ARM GAS  /var/folders/qx/2_175_4n2s19vhvtspjhb3qh0000gn/T//ccFV8cem.s 			page 86


 2572 0000 EF808C00 		.ascii	"\357\200\214\000"
 2573              		.section	.text.style_init,"ax",%progbits
 2574              		.align	1
 2575              		.syntax unified
 2576              		.thumb
 2577              		.thumb_func
 2579              	style_init:
 2580              	.LVL356:
 2581              	.LFB202:
 199:Drivers/lvgl/src/themes/default/lv_theme_default.c **** #if TRANSITION_TIME
 2582              		.loc 1 199 1 is_stmt 1 view -0
 2583              		.cfi_startproc
 2584              		@ args = 0, pretend = 0, frame = 64
 2585              		@ frame_needed = 0, uses_anonymous_args = 0
 199:Drivers/lvgl/src/themes/default/lv_theme_default.c **** #if TRANSITION_TIME
 2586              		.loc 1 199 1 is_stmt 0 view .LVU531
 2587 0000 2DE9F04F 		push	{r4, r5, r6, r7, r8, r9, r10, fp, lr}
 2588              	.LCFI6:
 2589              		.cfi_def_cfa_offset 36
 2590              		.cfi_offset 4, -36
 2591              		.cfi_offset 5, -32
 2592              		.cfi_offset 6, -28
 2593              		.cfi_offset 7, -24
 2594              		.cfi_offset 8, -20
 2595              		.cfi_offset 9, -16
 2596              		.cfi_offset 10, -12
 2597              		.cfi_offset 11, -8
 2598              		.cfi_offset 14, -4
 2599 0004 93B0     		sub	sp, sp, #76
 2600              	.LCFI7:
 2601              		.cfi_def_cfa_offset 112
 2602 0006 0446     		mov	r4, r0
 201:Drivers/lvgl/src/themes/default/lv_theme_default.c ****         LV_STYLE_BG_OPA, LV_STYLE_BG_COLOR,
 2603              		.loc 1 201 5 is_stmt 1 view .LVU532
 212:Drivers/lvgl/src/themes/default/lv_theme_default.c ****     theme->color_text = theme->base.flags & MODE_DARK ? DARK_COLOR_TEXT : LIGHT_COLOR_TEXT;
 2604              		.loc 1 212 5 view .LVU533
 212:Drivers/lvgl/src/themes/default/lv_theme_default.c ****     theme->color_text = theme->base.flags & MODE_DARK ? DARK_COLOR_TEXT : LIGHT_COLOR_TEXT;
 2605              		.loc 1 212 35 is_stmt 0 view .LVU534
 2606 0008 436A     		ldr	r3, [r0, #36]
 212:Drivers/lvgl/src/themes/default/lv_theme_default.c ****     theme->color_text = theme->base.flags & MODE_DARK ? DARK_COLOR_TEXT : LIGHT_COLOR_TEXT;
 2607              		.loc 1 212 71 view .LVU535
 2608 000a 13F0010F 		tst	r3, #1
 2609 000e 01F0C083 		beq	.L99
 212:Drivers/lvgl/src/themes/default/lv_theme_default.c ****     theme->color_text = theme->base.flags & MODE_DARK ? DARK_COLOR_TEXT : LIGHT_COLOR_TEXT;
 2610              		.loc 1 212 56 discriminator 1 view .LVU536
 2611 0012 DB48     		ldr	r0, .L451
 2612              	.LVL357:
 212:Drivers/lvgl/src/themes/default/lv_theme_default.c ****     theme->color_text = theme->base.flags & MODE_DARK ? DARK_COLOR_TEXT : LIGHT_COLOR_TEXT;
 2613              		.loc 1 212 56 discriminator 1 view .LVU537
 2614 0014 FFF7FEFF 		bl	lv_color_hex
 2615              	.LVL358:
 2616 0018 84F83000 		strb	r0, [r4, #48]
 2617 001c C0F30723 		ubfx	r3, r0, #8, #8
 2618 0020 84F83130 		strb	r3, [r4, #49]
 2619 0024 C0F30740 		ubfx	r0, r0, #16, #8
 2620 0028 84F83200 		strb	r0, [r4, #50]
 2621              	.L100:
ARM GAS  /var/folders/qx/2_175_4n2s19vhvtspjhb3qh0000gn/T//ccFV8cem.s 			page 87


 213:Drivers/lvgl/src/themes/default/lv_theme_default.c ****     theme->color_card = theme->base.flags & MODE_DARK ? DARK_COLOR_CARD : LIGHT_COLOR_CARD;
 2622              		.loc 1 213 5 is_stmt 1 view .LVU538
 213:Drivers/lvgl/src/themes/default/lv_theme_default.c ****     theme->color_card = theme->base.flags & MODE_DARK ? DARK_COLOR_CARD : LIGHT_COLOR_CARD;
 2623              		.loc 1 213 36 is_stmt 0 view .LVU539
 2624 002c 636A     		ldr	r3, [r4, #36]
 213:Drivers/lvgl/src/themes/default/lv_theme_default.c ****     theme->color_card = theme->base.flags & MODE_DARK ? DARK_COLOR_CARD : LIGHT_COLOR_CARD;
 2625              		.loc 1 213 73 view .LVU540
 2626 002e 13F0010F 		tst	r3, #1
 2627 0032 01F0BE83 		beq	.L101
 213:Drivers/lvgl/src/themes/default/lv_theme_default.c ****     theme->color_card = theme->base.flags & MODE_DARK ? DARK_COLOR_CARD : LIGHT_COLOR_CARD;
 2628              		.loc 1 213 57 discriminator 1 view .LVU541
 2629 0036 0521     		movs	r1, #5
 2630 0038 1220     		movs	r0, #18
 2631 003a FFF7FEFF 		bl	lv_palette_lighten
 2632              	.LVL359:
 2633 003e 84F83300 		strb	r0, [r4, #51]
 2634 0042 C0F30723 		ubfx	r3, r0, #8, #8
 2635 0046 84F83430 		strb	r3, [r4, #52]
 2636 004a C0F30740 		ubfx	r0, r0, #16, #8
 2637 004e 84F83500 		strb	r0, [r4, #53]
 2638              	.L102:
 214:Drivers/lvgl/src/themes/default/lv_theme_default.c ****     theme->color_grey = theme->base.flags & MODE_DARK ? DARK_COLOR_GREY : LIGHT_COLOR_GREY;
 2639              		.loc 1 214 5 is_stmt 1 view .LVU542
 214:Drivers/lvgl/src/themes/default/lv_theme_default.c ****     theme->color_grey = theme->base.flags & MODE_DARK ? DARK_COLOR_GREY : LIGHT_COLOR_GREY;
 2640              		.loc 1 214 36 is_stmt 0 view .LVU543
 2641 0052 636A     		ldr	r3, [r4, #36]
 214:Drivers/lvgl/src/themes/default/lv_theme_default.c ****     theme->color_grey = theme->base.flags & MODE_DARK ? DARK_COLOR_GREY : LIGHT_COLOR_GREY;
 2642              		.loc 1 214 73 view .LVU544
 2643 0054 13F0010F 		tst	r3, #1
 2644 0058 01F0BB83 		beq	.L103
 214:Drivers/lvgl/src/themes/default/lv_theme_default.c ****     theme->color_grey = theme->base.flags & MODE_DARK ? DARK_COLOR_GREY : LIGHT_COLOR_GREY;
 2645              		.loc 1 214 57 discriminator 1 view .LVU545
 2646 005c C948     		ldr	r0, .L451+4
 2647 005e FFF7FEFF 		bl	lv_color_hex
 2648              	.LVL360:
 2649 0062 84F83600 		strb	r0, [r4, #54]
 2650 0066 C0F30723 		ubfx	r3, r0, #8, #8
 2651 006a 84F83730 		strb	r3, [r4, #55]
 2652 006e C0F30740 		ubfx	r0, r0, #16, #8
 2653 0072 84F83800 		strb	r0, [r4, #56]
 2654              	.L104:
 215:Drivers/lvgl/src/themes/default/lv_theme_default.c **** 
 2655              		.loc 1 215 5 is_stmt 1 view .LVU546
 215:Drivers/lvgl/src/themes/default/lv_theme_default.c **** 
 2656              		.loc 1 215 36 is_stmt 0 view .LVU547
 2657 0076 636A     		ldr	r3, [r4, #36]
 215:Drivers/lvgl/src/themes/default/lv_theme_default.c **** 
 2658              		.loc 1 215 73 view .LVU548
 2659 0078 13F0010F 		tst	r3, #1
 2660 007c 01F0B783 		beq	.L105
 215:Drivers/lvgl/src/themes/default/lv_theme_default.c **** 
 2661              		.loc 1 215 57 discriminator 1 view .LVU549
 2662 0080 C148     		ldr	r0, .L451+8
 2663 0082 FFF7FEFF 		bl	lv_color_hex
 2664              	.LVL361:
 2665 0086 84F83900 		strb	r0, [r4, #57]
 2666 008a C0F30723 		ubfx	r3, r0, #8, #8
ARM GAS  /var/folders/qx/2_175_4n2s19vhvtspjhb3qh0000gn/T//ccFV8cem.s 			page 88


 2667 008e 84F83A30 		strb	r3, [r4, #58]
 2668 0092 C0F30740 		ubfx	r0, r0, #16, #8
 2669 0096 84F83B00 		strb	r0, [r4, #59]
 2670              	.L106:
 217:Drivers/lvgl/src/themes/default/lv_theme_default.c ****     style_init_reset(&theme->styles.transition_normal);
 2671              		.loc 1 217 5 is_stmt 1 view .LVU550
 2672 009a 04F5C279 		add	r9, r4, #388
 2673 009e 4846     		mov	r0, r9
 2674 00a0 FFF7FEFF 		bl	style_init_reset
 2675              	.LVL362:
 218:Drivers/lvgl/src/themes/default/lv_theme_default.c **** #if TRANSITION_TIME
 2676              		.loc 1 218 5 view .LVU551
 2677 00a4 04F5C878 		add	r8, r4, #400
 2678 00a8 4046     		mov	r0, r8
 2679 00aa FFF7FEFF 		bl	style_init_reset
 2680              	.LVL363:
 220:Drivers/lvgl/src/themes/default/lv_theme_default.c ****     lv_style_transition_dsc_init(&theme->trans_normal, trans_props, lv_anim_path_linear, TRANSITION
 2681              		.loc 1 220 5 view .LVU552
 2682 00ae 04F55975 		add	r5, r4, #868
 2683 00b2 DFF8DCB2 		ldr	fp, .L451+16
 2684 00b6 DFF8DCA2 		ldr	r10, .L451+20
 2685 00ba 0027     		movs	r7, #0
 2686 00bc 0197     		str	r7, [sp, #4]
 2687 00be 4623     		movs	r3, #70
 2688 00c0 0093     		str	r3, [sp]
 2689 00c2 5023     		movs	r3, #80
 2690 00c4 5A46     		mov	r2, fp
 2691 00c6 5146     		mov	r1, r10
 2692 00c8 2846     		mov	r0, r5
 2693 00ca FFF7FEFF 		bl	lv_style_transition_dsc_init
 2694              	.LVL364:
 221:Drivers/lvgl/src/themes/default/lv_theme_default.c **** 
 2695              		.loc 1 221 5 view .LVU553
 2696 00ce 04F55E76 		add	r6, r4, #888
 2697 00d2 0197     		str	r7, [sp, #4]
 2698 00d4 0097     		str	r7, [sp]
 2699 00d6 5023     		movs	r3, #80
 2700 00d8 5A46     		mov	r2, fp
 2701 00da 5146     		mov	r1, r10
 2702 00dc 3046     		mov	r0, r6
 2703 00de FFF7FEFF 		bl	lv_style_transition_dsc_init
 2704              	.LVL365:
 223:Drivers/lvgl/src/themes/default/lv_theme_default.c ****                             &theme->trans_delayed); /*Go back to default state with delay*/
 2705              		.loc 1 223 5 view .LVU554
 2706 00e2 2946     		mov	r1, r5
 2707 00e4 4846     		mov	r0, r9
 2708 00e6 FFF7FEFF 		bl	lv_style_set_transition
 2709              	.LVL366:
 226:Drivers/lvgl/src/themes/default/lv_theme_default.c **** #endif
 2710              		.loc 1 226 5 view .LVU555
 2711 00ea 3146     		mov	r1, r6
 2712 00ec 4046     		mov	r0, r8
 2713 00ee FFF7FEFF 		bl	lv_style_set_transition
 2714              	.LVL367:
 229:Drivers/lvgl/src/themes/default/lv_theme_default.c ****     lv_color_t sb_color = (theme->base.flags & MODE_DARK) ? lv_palette_darken(LV_PALETTE_GREY,
 2715              		.loc 1 229 5 view .LVU556
 2716 00f2 04F14C05 		add	r5, r4, #76
ARM GAS  /var/folders/qx/2_175_4n2s19vhvtspjhb3qh0000gn/T//ccFV8cem.s 			page 89


 2717 00f6 2846     		mov	r0, r5
 2718 00f8 FFF7FEFF 		bl	style_init_reset
 2719              	.LVL368:
 230:Drivers/lvgl/src/themes/default/lv_theme_default.c ****                                                                               2) : lv_palette_main(
 2720              		.loc 1 230 5 view .LVU557
 230:Drivers/lvgl/src/themes/default/lv_theme_default.c ****                                                                               2) : lv_palette_main(
 2721              		.loc 1 230 39 is_stmt 0 view .LVU558
 2722 00fc 636A     		ldr	r3, [r4, #36]
 231:Drivers/lvgl/src/themes/default/lv_theme_default.c ****     lv_style_set_bg_color(&theme->styles.scrollbar, sb_color);
 2723              		.loc 1 231 82 view .LVU559
 2724 00fe 13F0010F 		tst	r3, #1
 2725 0102 01F08483 		beq	.L107
 230:Drivers/lvgl/src/themes/default/lv_theme_default.c ****                                                                               2) : lv_palette_main(
 2726              		.loc 1 230 61 view .LVU560
 2727 0106 0221     		movs	r1, #2
 2728 0108 1220     		movs	r0, #18
 2729 010a FFF7FEFF 		bl	lv_palette_darken
 2730              	.LVL369:
 2731 010e 8DF80800 		strb	r0, [sp, #8]
 2732 0112 C0F30723 		ubfx	r3, r0, #8, #8
 2733 0116 8DF80930 		strb	r3, [sp, #9]
 2734 011a C0F30740 		ubfx	r0, r0, #16, #8
 2735 011e 8DF80A00 		strb	r0, [sp, #10]
 2736              	.L108:
 232:Drivers/lvgl/src/themes/default/lv_theme_default.c **** 
 2737              		.loc 1 232 5 is_stmt 1 view .LVU561
 2738 0122 0299     		ldr	r1, [sp, #8]
 2739 0124 2846     		mov	r0, r5
 2740 0126 FFF7FEFF 		bl	lv_style_set_bg_color
 2741              	.LVL370:
 234:Drivers/lvgl/src/themes/default/lv_theme_default.c ****     lv_style_set_pad_all(&theme->styles.scrollbar, LV_DPX_CALC(theme->disp_dpi, 7));
 2742              		.loc 1 234 5 view .LVU562
 2743 012a 47F6FF71 		movw	r1, #32767
 2744 012e 2846     		mov	r0, r5
 2745 0130 FFF7FEFF 		bl	lv_style_set_radius
 2746              	.LVL371:
 235:Drivers/lvgl/src/themes/default/lv_theme_default.c ****     lv_style_set_width(&theme->styles.scrollbar,  LV_DPX_CALC(theme->disp_dpi, 5));
 2747              		.loc 1 235 5 view .LVU563
 235:Drivers/lvgl/src/themes/default/lv_theme_default.c ****     lv_style_set_width(&theme->styles.scrollbar,  LV_DPX_CALC(theme->disp_dpi, 5));
 2748              		.loc 1 235 52 is_stmt 0 view .LVU564
 2749 0134 E16A     		ldr	r1, [r4, #44]
 2750 0136 C1EBC101 		rsb	r1, r1, r1, lsl #3
 235:Drivers/lvgl/src/themes/default/lv_theme_default.c ****     lv_style_set_width(&theme->styles.scrollbar,  LV_DPX_CALC(theme->disp_dpi, 5));
 2751              		.loc 1 235 5 view .LVU565
 2752 013a EF29     		cmp	r1, #239
 2753 013c 41F37683 		ble	.L240
 235:Drivers/lvgl/src/themes/default/lv_theme_default.c ****     lv_style_set_width(&theme->styles.scrollbar,  LV_DPX_CALC(theme->disp_dpi, 5));
 2754              		.loc 1 235 52 discriminator 1 view .LVU566
 2755 0140 5031     		adds	r1, r1, #80
 235:Drivers/lvgl/src/themes/default/lv_theme_default.c ****     lv_style_set_width(&theme->styles.scrollbar,  LV_DPX_CALC(theme->disp_dpi, 5));
 2756              		.loc 1 235 5 discriminator 1 view .LVU567
 2757 0142 924B     		ldr	r3, .L451+12
 2758 0144 83FB0123 		smull	r2, r3, r3, r1
 2759 0148 C917     		asrs	r1, r1, #31
 2760 014a C1EBA311 		rsb	r1, r1, r3, asr #6
 2761              	.L109:
 235:Drivers/lvgl/src/themes/default/lv_theme_default.c ****     lv_style_set_width(&theme->styles.scrollbar,  LV_DPX_CALC(theme->disp_dpi, 5));
ARM GAS  /var/folders/qx/2_175_4n2s19vhvtspjhb3qh0000gn/T//ccFV8cem.s 			page 90


 2762              		.loc 1 235 5 discriminator 4 view .LVU568
 2763 014e 2846     		mov	r0, r5
 2764 0150 FFF7FEFF 		bl	lv_style_set_pad_all
 2765              	.LVL372:
 236:Drivers/lvgl/src/themes/default/lv_theme_default.c ****     lv_style_set_bg_opa(&theme->styles.scrollbar,  LV_OPA_40);
 2766              		.loc 1 236 5 is_stmt 1 view .LVU569
 236:Drivers/lvgl/src/themes/default/lv_theme_default.c ****     lv_style_set_bg_opa(&theme->styles.scrollbar,  LV_OPA_40);
 2767              		.loc 1 236 51 is_stmt 0 view .LVU570
 2768 0154 E16A     		ldr	r1, [r4, #44]
 2769 0156 01EB8101 		add	r1, r1, r1, lsl #2
 236:Drivers/lvgl/src/themes/default/lv_theme_default.c ****     lv_style_set_bg_opa(&theme->styles.scrollbar,  LV_OPA_40);
 2770              		.loc 1 236 5 view .LVU571
 2771 015a EF29     		cmp	r1, #239
 2772 015c 41F36983 		ble	.L241
 236:Drivers/lvgl/src/themes/default/lv_theme_default.c ****     lv_style_set_bg_opa(&theme->styles.scrollbar,  LV_OPA_40);
 2773              		.loc 1 236 51 discriminator 1 view .LVU572
 2774 0160 5031     		adds	r1, r1, #80
 236:Drivers/lvgl/src/themes/default/lv_theme_default.c ****     lv_style_set_bg_opa(&theme->styles.scrollbar,  LV_OPA_40);
 2775              		.loc 1 236 5 discriminator 1 view .LVU573
 2776 0162 8A4B     		ldr	r3, .L451+12
 2777 0164 83FB0123 		smull	r2, r3, r3, r1
 2778 0168 C917     		asrs	r1, r1, #31
 2779 016a C1EBA311 		rsb	r1, r1, r3, asr #6
 2780              	.L110:
 236:Drivers/lvgl/src/themes/default/lv_theme_default.c ****     lv_style_set_bg_opa(&theme->styles.scrollbar,  LV_OPA_40);
 2781              		.loc 1 236 5 discriminator 4 view .LVU574
 2782 016e 2846     		mov	r0, r5
 2783 0170 FFF7FEFF 		bl	lv_style_set_width
 2784              	.LVL373:
 237:Drivers/lvgl/src/themes/default/lv_theme_default.c **** #if TRANSITION_TIME
 2785              		.loc 1 237 5 is_stmt 1 view .LVU575
 2786 0174 6621     		movs	r1, #102
 2787 0176 2846     		mov	r0, r5
 2788 0178 FFF7FEFF 		bl	lv_style_set_bg_opa
 2789              	.LVL374:
 239:Drivers/lvgl/src/themes/default/lv_theme_default.c **** #endif
 2790              		.loc 1 239 5 view .LVU576
 2791 017c 3146     		mov	r1, r6
 2792 017e 2846     		mov	r0, r5
 2793 0180 FFF7FEFF 		bl	lv_style_set_transition
 2794              	.LVL375:
 242:Drivers/lvgl/src/themes/default/lv_theme_default.c ****     lv_style_set_bg_opa(&theme->styles.scrollbar_scrolled,  LV_OPA_COVER);
 2795              		.loc 1 242 5 view .LVU577
 2796 0184 04F15805 		add	r5, r4, #88
 2797 0188 2846     		mov	r0, r5
 2798 018a FFF7FEFF 		bl	style_init_reset
 2799              	.LVL376:
 243:Drivers/lvgl/src/themes/default/lv_theme_default.c **** 
 2800              		.loc 1 243 5 view .LVU578
 2801 018e FF21     		movs	r1, #255
 2802 0190 2846     		mov	r0, r5
 2803 0192 FFF7FEFF 		bl	lv_style_set_bg_opa
 2804              	.LVL377:
 245:Drivers/lvgl/src/themes/default/lv_theme_default.c ****     lv_style_set_bg_opa(&theme->styles.scr, LV_OPA_COVER);
 2805              		.loc 1 245 5 view .LVU579
 2806 0196 04F14005 		add	r5, r4, #64
 2807 019a 2846     		mov	r0, r5
ARM GAS  /var/folders/qx/2_175_4n2s19vhvtspjhb3qh0000gn/T//ccFV8cem.s 			page 91


 2808 019c FFF7FEFF 		bl	style_init_reset
 2809              	.LVL378:
 246:Drivers/lvgl/src/themes/default/lv_theme_default.c ****     lv_style_set_bg_color(&theme->styles.scr, theme->color_scr);
 2810              		.loc 1 246 5 view .LVU580
 2811 01a0 FF21     		movs	r1, #255
 2812 01a2 2846     		mov	r0, r5
 2813 01a4 FFF7FEFF 		bl	lv_style_set_bg_opa
 2814              	.LVL379:
 247:Drivers/lvgl/src/themes/default/lv_theme_default.c ****     lv_style_set_text_color(&theme->styles.scr, theme->color_text);
 2815              		.loc 1 247 5 view .LVU581
 2816 01a8 216B     		ldr	r1, [r4, #48]
 2817 01aa 2846     		mov	r0, r5
 2818 01ac FFF7FEFF 		bl	lv_style_set_bg_color
 2819              	.LVL380:
 248:Drivers/lvgl/src/themes/default/lv_theme_default.c ****     lv_style_set_text_font(&theme->styles.scr, theme->base.font_normal);
 2820              		.loc 1 248 5 view .LVU582
 2821 01b0 94F83330 		ldrb	r3, [r4, #51]	@ zero_extendqisi2
 2822 01b4 94F83420 		ldrb	r2, [r4, #52]	@ zero_extendqisi2
 2823 01b8 43EA0223 		orr	r3, r3, r2, lsl #8
 2824 01bc 94F83510 		ldrb	r1, [r4, #53]	@ zero_extendqisi2
 2825 01c0 43EA0141 		orr	r1, r3, r1, lsl #16
 2826 01c4 2846     		mov	r0, r5
 2827 01c6 FFF7FEFF 		bl	lv_style_set_text_color
 2828              	.LVL381:
 249:Drivers/lvgl/src/themes/default/lv_theme_default.c ****     lv_style_set_pad_row(&theme->styles.scr, PAD_SMALL);
 2829              		.loc 1 249 5 view .LVU583
 2830 01ca E169     		ldr	r1, [r4, #28]
 2831 01cc 2846     		mov	r0, r5
 2832 01ce FFF7FEFF 		bl	lv_style_set_text_font
 2833              	.LVL382:
 250:Drivers/lvgl/src/themes/default/lv_theme_default.c ****     lv_style_set_pad_column(&theme->styles.scr, PAD_SMALL);
 2834              		.loc 1 250 5 view .LVU584
 250:Drivers/lvgl/src/themes/default/lv_theme_default.c ****     lv_style_set_pad_column(&theme->styles.scr, PAD_SMALL);
 2835              		.loc 1 250 46 is_stmt 0 view .LVU585
 2836 01d2 E16A     		ldr	r1, [r4, #44]
 2837 01d4 94F82830 		ldrb	r3, [r4, #40]	@ zero_extendqisi2
 2838 01d8 012B     		cmp	r3, #1
 2839 01da 01F03083 		beq	.L242
 250:Drivers/lvgl/src/themes/default/lv_theme_default.c ****     lv_style_set_pad_column(&theme->styles.scr, PAD_SMALL);
 2840              		.loc 1 250 46 discriminator 1 view .LVU586
 2841 01de 022B     		cmp	r3, #2
 2842 01e0 01F02A83 		beq	.L400
 250:Drivers/lvgl/src/themes/default/lv_theme_default.c ****     lv_style_set_pad_column(&theme->styles.scr, PAD_SMALL);
 2843              		.loc 1 250 46 discriminator 4 view .LVU587
 2844 01e4 0A23     		movs	r3, #10
 2845              	.L111:
 250:Drivers/lvgl/src/themes/default/lv_theme_default.c ****     lv_style_set_pad_column(&theme->styles.scr, PAD_SMALL);
 2846              		.loc 1 250 46 discriminator 8 view .LVU588
 2847 01e6 03FB01F1 		mul	r1, r3, r1
 250:Drivers/lvgl/src/themes/default/lv_theme_default.c ****     lv_style_set_pad_column(&theme->styles.scr, PAD_SMALL);
 2848              		.loc 1 250 5 discriminator 8 view .LVU589
 2849 01ea EF29     		cmp	r1, #239
 2850 01ec 41F32A83 		ble	.L244
 250:Drivers/lvgl/src/themes/default/lv_theme_default.c ****     lv_style_set_pad_column(&theme->styles.scr, PAD_SMALL);
 2851              		.loc 1 250 46 discriminator 18 view .LVU590
 2852 01f0 5031     		adds	r1, r1, #80
 250:Drivers/lvgl/src/themes/default/lv_theme_default.c ****     lv_style_set_pad_column(&theme->styles.scr, PAD_SMALL);
ARM GAS  /var/folders/qx/2_175_4n2s19vhvtspjhb3qh0000gn/T//ccFV8cem.s 			page 92


 2853              		.loc 1 250 5 discriminator 18 view .LVU591
 2854 01f2 664B     		ldr	r3, .L451+12
 2855 01f4 83FB0123 		smull	r2, r3, r3, r1
 2856 01f8 C917     		asrs	r1, r1, #31
 2857 01fa C1EBA311 		rsb	r1, r1, r3, asr #6
 2858              	.L112:
 250:Drivers/lvgl/src/themes/default/lv_theme_default.c ****     lv_style_set_pad_column(&theme->styles.scr, PAD_SMALL);
 2859              		.loc 1 250 5 discriminator 20 view .LVU592
 2860 01fe 2846     		mov	r0, r5
 2861 0200 FFF7FEFF 		bl	lv_style_set_pad_row
 2862              	.LVL383:
 251:Drivers/lvgl/src/themes/default/lv_theme_default.c ****     lv_style_set_rotary_sensitivity(&theme->styles.scr, theme->disp_dpi / 4 * 256);
 2863              		.loc 1 251 5 is_stmt 1 view .LVU593
 251:Drivers/lvgl/src/themes/default/lv_theme_default.c ****     lv_style_set_rotary_sensitivity(&theme->styles.scr, theme->disp_dpi / 4 * 256);
 2864              		.loc 1 251 49 is_stmt 0 view .LVU594
 2865 0204 E16A     		ldr	r1, [r4, #44]
 2866 0206 94F82830 		ldrb	r3, [r4, #40]	@ zero_extendqisi2
 2867 020a 012B     		cmp	r3, #1
 2868 020c 01F02083 		beq	.L245
 251:Drivers/lvgl/src/themes/default/lv_theme_default.c ****     lv_style_set_rotary_sensitivity(&theme->styles.scr, theme->disp_dpi / 4 * 256);
 2869              		.loc 1 251 49 discriminator 1 view .LVU595
 2870 0210 022B     		cmp	r3, #2
 2871 0212 01F01A83 		beq	.L401
 251:Drivers/lvgl/src/themes/default/lv_theme_default.c ****     lv_style_set_rotary_sensitivity(&theme->styles.scr, theme->disp_dpi / 4 * 256);
 2872              		.loc 1 251 49 discriminator 4 view .LVU596
 2873 0216 0A23     		movs	r3, #10
 2874              	.L113:
 251:Drivers/lvgl/src/themes/default/lv_theme_default.c ****     lv_style_set_rotary_sensitivity(&theme->styles.scr, theme->disp_dpi / 4 * 256);
 2875              		.loc 1 251 49 discriminator 8 view .LVU597
 2876 0218 03FB01F1 		mul	r1, r3, r1
 251:Drivers/lvgl/src/themes/default/lv_theme_default.c ****     lv_style_set_rotary_sensitivity(&theme->styles.scr, theme->disp_dpi / 4 * 256);
 2877              		.loc 1 251 5 discriminator 8 view .LVU598
 2878 021c EF29     		cmp	r1, #239
 2879 021e 41F31A83 		ble	.L247
 251:Drivers/lvgl/src/themes/default/lv_theme_default.c ****     lv_style_set_rotary_sensitivity(&theme->styles.scr, theme->disp_dpi / 4 * 256);
 2880              		.loc 1 251 49 discriminator 18 view .LVU599
 2881 0222 5031     		adds	r1, r1, #80
 251:Drivers/lvgl/src/themes/default/lv_theme_default.c ****     lv_style_set_rotary_sensitivity(&theme->styles.scr, theme->disp_dpi / 4 * 256);
 2882              		.loc 1 251 5 discriminator 18 view .LVU600
 2883 0224 594B     		ldr	r3, .L451+12
 2884 0226 83FB0123 		smull	r2, r3, r3, r1
 2885 022a C917     		asrs	r1, r1, #31
 2886 022c C1EBA311 		rsb	r1, r1, r3, asr #6
 2887              	.L114:
 251:Drivers/lvgl/src/themes/default/lv_theme_default.c ****     lv_style_set_rotary_sensitivity(&theme->styles.scr, theme->disp_dpi / 4 * 256);
 2888              		.loc 1 251 5 discriminator 20 view .LVU601
 2889 0230 2846     		mov	r0, r5
 2890 0232 FFF7FEFF 		bl	lv_style_set_pad_column
 2891              	.LVL384:
 252:Drivers/lvgl/src/themes/default/lv_theme_default.c **** 
 2892              		.loc 1 252 5 is_stmt 1 view .LVU602
 252:Drivers/lvgl/src/themes/default/lv_theme_default.c **** 
 2893              		.loc 1 252 62 is_stmt 0 view .LVU603
 2894 0236 E16A     		ldr	r1, [r4, #44]
 252:Drivers/lvgl/src/themes/default/lv_theme_default.c **** 
 2895              		.loc 1 252 73 view .LVU604
 2896 0238 0029     		cmp	r1, #0
ARM GAS  /var/folders/qx/2_175_4n2s19vhvtspjhb3qh0000gn/T//ccFV8cem.s 			page 93


 2897 023a C1F20F83 		blt	.L402
 2898              	.L115:
 2899 023e 8910     		asrs	r1, r1, #2
 252:Drivers/lvgl/src/themes/default/lv_theme_default.c **** 
 2900              		.loc 1 252 5 view .LVU605
 2901 0240 0902     		lsls	r1, r1, #8
 2902 0242 2846     		mov	r0, r5
 2903 0244 FFF7FEFF 		bl	lv_style_set_rotary_sensitivity
 2904              	.LVL385:
 254:Drivers/lvgl/src/themes/default/lv_theme_default.c ****     lv_style_set_radius(&theme->styles.card, RADIUS_DEFAULT);
 2905              		.loc 1 254 5 is_stmt 1 view .LVU606
 2906 0248 04F16405 		add	r5, r4, #100
 2907 024c 2846     		mov	r0, r5
 2908 024e FFF7FEFF 		bl	style_init_reset
 2909              	.LVL386:
 255:Drivers/lvgl/src/themes/default/lv_theme_default.c ****     lv_style_set_bg_opa(&theme->styles.card, LV_OPA_COVER);
 2910              		.loc 1 255 5 view .LVU607
 255:Drivers/lvgl/src/themes/default/lv_theme_default.c ****     lv_style_set_bg_opa(&theme->styles.card, LV_OPA_COVER);
 2911              		.loc 1 255 46 is_stmt 0 view .LVU608
 2912 0252 E16A     		ldr	r1, [r4, #44]
 2913 0254 94F82830 		ldrb	r3, [r4, #40]	@ zero_extendqisi2
 2914 0258 012B     		cmp	r3, #1
 2915 025a 01F00283 		beq	.L403
 255:Drivers/lvgl/src/themes/default/lv_theme_default.c ****     lv_style_set_bg_opa(&theme->styles.card, LV_OPA_COVER);
 2916              		.loc 1 255 46 discriminator 2 view .LVU609
 2917 025e 0823     		movs	r3, #8
 2918              	.L116:
 255:Drivers/lvgl/src/themes/default/lv_theme_default.c ****     lv_style_set_bg_opa(&theme->styles.card, LV_OPA_COVER);
 2919              		.loc 1 255 46 discriminator 4 view .LVU610
 2920 0260 03FB01F1 		mul	r1, r3, r1
 255:Drivers/lvgl/src/themes/default/lv_theme_default.c ****     lv_style_set_bg_opa(&theme->styles.card, LV_OPA_COVER);
 2921              		.loc 1 255 5 discriminator 4 view .LVU611
 2922 0264 EF29     		cmp	r1, #239
 2923 0266 41F3FF82 		ble	.L249
 255:Drivers/lvgl/src/themes/default/lv_theme_default.c ****     lv_style_set_bg_opa(&theme->styles.card, LV_OPA_COVER);
 2924              		.loc 1 255 46 discriminator 10 view .LVU612
 2925 026a 5031     		adds	r1, r1, #80
 255:Drivers/lvgl/src/themes/default/lv_theme_default.c ****     lv_style_set_bg_opa(&theme->styles.card, LV_OPA_COVER);
 2926              		.loc 1 255 5 discriminator 10 view .LVU613
 2927 026c 474B     		ldr	r3, .L451+12
 2928 026e 83FB0123 		smull	r2, r3, r3, r1
 2929 0272 C917     		asrs	r1, r1, #31
 2930 0274 C1EBA311 		rsb	r1, r1, r3, asr #6
 2931              	.L117:
 255:Drivers/lvgl/src/themes/default/lv_theme_default.c ****     lv_style_set_bg_opa(&theme->styles.card, LV_OPA_COVER);
 2932              		.loc 1 255 5 discriminator 12 view .LVU614
 2933 0278 2846     		mov	r0, r5
 2934 027a FFF7FEFF 		bl	lv_style_set_radius
 2935              	.LVL387:
 256:Drivers/lvgl/src/themes/default/lv_theme_default.c ****     lv_style_set_bg_color(&theme->styles.card, theme->color_card);
 2936              		.loc 1 256 5 is_stmt 1 view .LVU615
 2937 027e FF21     		movs	r1, #255
 2938 0280 2846     		mov	r0, r5
 2939 0282 FFF7FEFF 		bl	lv_style_set_bg_opa
 2940              	.LVL388:
 257:Drivers/lvgl/src/themes/default/lv_theme_default.c ****     lv_style_set_border_color(&theme->styles.card, theme->color_grey);
 2941              		.loc 1 257 5 view .LVU616
ARM GAS  /var/folders/qx/2_175_4n2s19vhvtspjhb3qh0000gn/T//ccFV8cem.s 			page 94


 2942 0286 E38E     		ldrh	r3, [r4, #54]
 2943 0288 94F83810 		ldrb	r1, [r4, #56]	@ zero_extendqisi2
 2944 028c 43EA0141 		orr	r1, r3, r1, lsl #16
 2945 0290 2846     		mov	r0, r5
 2946 0292 FFF7FEFF 		bl	lv_style_set_bg_color
 2947              	.LVL389:
 258:Drivers/lvgl/src/themes/default/lv_theme_default.c ****     lv_style_set_border_width(&theme->styles.card, BORDER_WIDTH);
 2948              		.loc 1 258 5 view .LVU617
 2949 0296 94F83930 		ldrb	r3, [r4, #57]	@ zero_extendqisi2
 2950 029a 94F83A20 		ldrb	r2, [r4, #58]	@ zero_extendqisi2
 2951 029e 43EA0223 		orr	r3, r3, r2, lsl #8
 2952 02a2 94F83B10 		ldrb	r1, [r4, #59]	@ zero_extendqisi2
 2953 02a6 43EA0141 		orr	r1, r3, r1, lsl #16
 2954 02aa 2846     		mov	r0, r5
 2955 02ac FFF7FEFF 		bl	lv_style_set_border_color
 2956              	.LVL390:
 259:Drivers/lvgl/src/themes/default/lv_theme_default.c ****     lv_style_set_border_post(&theme->styles.card, true);
 2957              		.loc 1 259 5 view .LVU618
 259:Drivers/lvgl/src/themes/default/lv_theme_default.c ****     lv_style_set_border_post(&theme->styles.card, true);
 2958              		.loc 1 259 52 is_stmt 0 view .LVU619
 2959 02b0 E16A     		ldr	r1, [r4, #44]
 259:Drivers/lvgl/src/themes/default/lv_theme_default.c ****     lv_style_set_border_post(&theme->styles.card, true);
 2960              		.loc 1 259 5 view .LVU620
 2961 02b2 7729     		cmp	r1, #119
 2962 02b4 41F3DB82 		ble	.L250
 259:Drivers/lvgl/src/themes/default/lv_theme_default.c ****     lv_style_set_border_post(&theme->styles.card, true);
 2963              		.loc 1 259 52 discriminator 1 view .LVU621
 2964 02b8 2831     		adds	r1, r1, #40
 259:Drivers/lvgl/src/themes/default/lv_theme_default.c ****     lv_style_set_border_post(&theme->styles.card, true);
 2965              		.loc 1 259 5 discriminator 1 view .LVU622
 2966 02ba 344B     		ldr	r3, .L451+12
 2967 02bc 83FB0123 		smull	r2, r3, r3, r1
 2968 02c0 C917     		asrs	r1, r1, #31
 2969 02c2 C1EB6311 		rsb	r1, r1, r3, asr #5
 2970              	.L118:
 259:Drivers/lvgl/src/themes/default/lv_theme_default.c ****     lv_style_set_border_post(&theme->styles.card, true);
 2971              		.loc 1 259 5 discriminator 4 view .LVU623
 2972 02c6 2846     		mov	r0, r5
 2973 02c8 FFF7FEFF 		bl	lv_style_set_border_width
 2974              	.LVL391:
 260:Drivers/lvgl/src/themes/default/lv_theme_default.c ****     lv_style_set_text_color(&theme->styles.card, theme->color_text);
 2975              		.loc 1 260 5 is_stmt 1 view .LVU624
 2976 02cc 0121     		movs	r1, #1
 2977 02ce 2846     		mov	r0, r5
 2978 02d0 FFF7FEFF 		bl	lv_style_set_border_post
 2979              	.LVL392:
 261:Drivers/lvgl/src/themes/default/lv_theme_default.c ****     lv_style_set_pad_all(&theme->styles.card, PAD_DEF);
 2980              		.loc 1 261 5 view .LVU625
 2981 02d4 94F83330 		ldrb	r3, [r4, #51]	@ zero_extendqisi2
 2982 02d8 94F83420 		ldrb	r2, [r4, #52]	@ zero_extendqisi2
 2983 02dc 43EA0223 		orr	r3, r3, r2, lsl #8
 2984 02e0 94F83510 		ldrb	r1, [r4, #53]	@ zero_extendqisi2
 2985 02e4 43EA0141 		orr	r1, r3, r1, lsl #16
 2986 02e8 2846     		mov	r0, r5
 2987 02ea FFF7FEFF 		bl	lv_style_set_text_color
 2988              	.LVL393:
 262:Drivers/lvgl/src/themes/default/lv_theme_default.c ****     lv_style_set_pad_row(&theme->styles.card, PAD_SMALL);
ARM GAS  /var/folders/qx/2_175_4n2s19vhvtspjhb3qh0000gn/T//ccFV8cem.s 			page 95


 2989              		.loc 1 262 5 view .LVU626
 262:Drivers/lvgl/src/themes/default/lv_theme_default.c ****     lv_style_set_pad_row(&theme->styles.card, PAD_SMALL);
 2990              		.loc 1 262 47 is_stmt 0 view .LVU627
 2991 02ee E16A     		ldr	r1, [r4, #44]
 2992 02f0 94F82830 		ldrb	r3, [r4, #40]	@ zero_extendqisi2
 2993 02f4 012B     		cmp	r3, #1
 2994 02f6 01F0C082 		beq	.L251
 262:Drivers/lvgl/src/themes/default/lv_theme_default.c ****     lv_style_set_pad_row(&theme->styles.card, PAD_SMALL);
 2995              		.loc 1 262 47 discriminator 1 view .LVU628
 2996 02fa 022B     		cmp	r3, #2
 2997 02fc 01F0BA82 		beq	.L404
 262:Drivers/lvgl/src/themes/default/lv_theme_default.c ****     lv_style_set_pad_row(&theme->styles.card, PAD_SMALL);
 2998              		.loc 1 262 47 discriminator 4 view .LVU629
 2999 0300 1023     		movs	r3, #16
 3000              	.L119:
 262:Drivers/lvgl/src/themes/default/lv_theme_default.c ****     lv_style_set_pad_row(&theme->styles.card, PAD_SMALL);
 3001              		.loc 1 262 47 discriminator 8 view .LVU630
 3002 0302 03FB01F1 		mul	r1, r3, r1
 262:Drivers/lvgl/src/themes/default/lv_theme_default.c ****     lv_style_set_pad_row(&theme->styles.card, PAD_SMALL);
 3003              		.loc 1 262 5 discriminator 8 view .LVU631
 3004 0306 EF29     		cmp	r1, #239
 3005 0308 41F3BA82 		ble	.L253
 262:Drivers/lvgl/src/themes/default/lv_theme_default.c ****     lv_style_set_pad_row(&theme->styles.card, PAD_SMALL);
 3006              		.loc 1 262 47 discriminator 18 view .LVU632
 3007 030c 5031     		adds	r1, r1, #80
 262:Drivers/lvgl/src/themes/default/lv_theme_default.c ****     lv_style_set_pad_row(&theme->styles.card, PAD_SMALL);
 3008              		.loc 1 262 5 discriminator 18 view .LVU633
 3009 030e 1F4B     		ldr	r3, .L451+12
 3010 0310 83FB0123 		smull	r2, r3, r3, r1
 3011 0314 C917     		asrs	r1, r1, #31
 3012 0316 C1EBA311 		rsb	r1, r1, r3, asr #6
 3013              	.L120:
 262:Drivers/lvgl/src/themes/default/lv_theme_default.c ****     lv_style_set_pad_row(&theme->styles.card, PAD_SMALL);
 3014              		.loc 1 262 5 discriminator 20 view .LVU634
 3015 031a 2846     		mov	r0, r5
 3016 031c FFF7FEFF 		bl	lv_style_set_pad_all
 3017              	.LVL394:
 263:Drivers/lvgl/src/themes/default/lv_theme_default.c ****     lv_style_set_pad_column(&theme->styles.card, PAD_SMALL);
 3018              		.loc 1 263 5 is_stmt 1 view .LVU635
 263:Drivers/lvgl/src/themes/default/lv_theme_default.c ****     lv_style_set_pad_column(&theme->styles.card, PAD_SMALL);
 3019              		.loc 1 263 47 is_stmt 0 view .LVU636
 3020 0320 E16A     		ldr	r1, [r4, #44]
 3021 0322 94F82830 		ldrb	r3, [r4, #40]	@ zero_extendqisi2
 3022 0326 012B     		cmp	r3, #1
 3023 0328 01F0B082 		beq	.L254
 263:Drivers/lvgl/src/themes/default/lv_theme_default.c ****     lv_style_set_pad_column(&theme->styles.card, PAD_SMALL);
 3024              		.loc 1 263 47 discriminator 1 view .LVU637
 3025 032c 022B     		cmp	r3, #2
 3026 032e 01F0AA82 		beq	.L405
 263:Drivers/lvgl/src/themes/default/lv_theme_default.c ****     lv_style_set_pad_column(&theme->styles.card, PAD_SMALL);
 3027              		.loc 1 263 47 discriminator 4 view .LVU638
 3028 0332 0A23     		movs	r3, #10
 3029              	.L121:
 263:Drivers/lvgl/src/themes/default/lv_theme_default.c ****     lv_style_set_pad_column(&theme->styles.card, PAD_SMALL);
 3030              		.loc 1 263 47 discriminator 8 view .LVU639
 3031 0334 03FB01F1 		mul	r1, r3, r1
 263:Drivers/lvgl/src/themes/default/lv_theme_default.c ****     lv_style_set_pad_column(&theme->styles.card, PAD_SMALL);
ARM GAS  /var/folders/qx/2_175_4n2s19vhvtspjhb3qh0000gn/T//ccFV8cem.s 			page 96


 3032              		.loc 1 263 5 discriminator 8 view .LVU640
 3033 0338 EF29     		cmp	r1, #239
 3034 033a 41F3AA82 		ble	.L256
 263:Drivers/lvgl/src/themes/default/lv_theme_default.c ****     lv_style_set_pad_column(&theme->styles.card, PAD_SMALL);
 3035              		.loc 1 263 47 discriminator 18 view .LVU641
 3036 033e 5031     		adds	r1, r1, #80
 263:Drivers/lvgl/src/themes/default/lv_theme_default.c ****     lv_style_set_pad_column(&theme->styles.card, PAD_SMALL);
 3037              		.loc 1 263 5 discriminator 18 view .LVU642
 3038 0340 124B     		ldr	r3, .L451+12
 3039 0342 83FB0123 		smull	r2, r3, r3, r1
 3040 0346 C917     		asrs	r1, r1, #31
 3041 0348 C1EBA311 		rsb	r1, r1, r3, asr #6
 3042              	.L122:
 263:Drivers/lvgl/src/themes/default/lv_theme_default.c ****     lv_style_set_pad_column(&theme->styles.card, PAD_SMALL);
 3043              		.loc 1 263 5 discriminator 20 view .LVU643
 3044 034c 2846     		mov	r0, r5
 3045 034e FFF7FEFF 		bl	lv_style_set_pad_row
 3046              	.LVL395:
 264:Drivers/lvgl/src/themes/default/lv_theme_default.c ****     lv_style_set_line_color(&theme->styles.card, lv_palette_main(LV_PALETTE_GREY));
 3047              		.loc 1 264 5 is_stmt 1 view .LVU644
 264:Drivers/lvgl/src/themes/default/lv_theme_default.c ****     lv_style_set_line_color(&theme->styles.card, lv_palette_main(LV_PALETTE_GREY));
 3048              		.loc 1 264 50 is_stmt 0 view .LVU645
 3049 0352 E16A     		ldr	r1, [r4, #44]
 3050 0354 94F82830 		ldrb	r3, [r4, #40]	@ zero_extendqisi2
 3051 0358 012B     		cmp	r3, #1
 3052 035a 01F0A082 		beq	.L257
 264:Drivers/lvgl/src/themes/default/lv_theme_default.c ****     lv_style_set_line_color(&theme->styles.card, lv_palette_main(LV_PALETTE_GREY));
 3053              		.loc 1 264 50 discriminator 1 view .LVU646
 3054 035e 022B     		cmp	r3, #2
 3055 0360 01F09A82 		beq	.L406
 264:Drivers/lvgl/src/themes/default/lv_theme_default.c ****     lv_style_set_line_color(&theme->styles.card, lv_palette_main(LV_PALETTE_GREY));
 3056              		.loc 1 264 50 discriminator 4 view .LVU647
 3057 0364 0A23     		movs	r3, #10
 3058              	.L123:
 264:Drivers/lvgl/src/themes/default/lv_theme_default.c ****     lv_style_set_line_color(&theme->styles.card, lv_palette_main(LV_PALETTE_GREY));
 3059              		.loc 1 264 50 discriminator 8 view .LVU648
 3060 0366 03FB01F1 		mul	r1, r3, r1
 264:Drivers/lvgl/src/themes/default/lv_theme_default.c ****     lv_style_set_line_color(&theme->styles.card, lv_palette_main(LV_PALETTE_GREY));
 3061              		.loc 1 264 5 discriminator 8 view .LVU649
 3062 036a EF29     		cmp	r1, #239
 3063 036c 41F39A82 		ble	.L259
 264:Drivers/lvgl/src/themes/default/lv_theme_default.c ****     lv_style_set_line_color(&theme->styles.card, lv_palette_main(LV_PALETTE_GREY));
 3064              		.loc 1 264 50 discriminator 18 view .LVU650
 3065 0370 5031     		adds	r1, r1, #80
 264:Drivers/lvgl/src/themes/default/lv_theme_default.c ****     lv_style_set_line_color(&theme->styles.card, lv_palette_main(LV_PALETTE_GREY));
 3066              		.loc 1 264 5 discriminator 18 view .LVU651
 3067 0372 064B     		ldr	r3, .L451+12
 3068 0374 83FB0123 		smull	r2, r3, r3, r1
 3069 0378 C917     		asrs	r1, r1, #31
 3070 037a C1EBA311 		rsb	r1, r1, r3, asr #6
 3071 037e 0BE0     		b	.L452
 3072              	.L453:
 3073              		.align	2
 3074              	.L451:
 3075 0380 1A171500 		.word	1382170
 3076 0384 302B2800 		.word	2632496
 3077 0388 37322F00 		.word	3093047
ARM GAS  /var/folders/qx/2_175_4n2s19vhvtspjhb3qh0000gn/T//ccFV8cem.s 			page 97


 3078 038c 67666666 		.word	1717986919
 3079 0390 00000000 		.word	lv_anim_path_linear
 3080 0394 00000000 		.word	trans_props.0
 3081              	.L452:
 3082              	.L124:
 264:Drivers/lvgl/src/themes/default/lv_theme_default.c ****     lv_style_set_line_color(&theme->styles.card, lv_palette_main(LV_PALETTE_GREY));
 3083              		.loc 1 264 5 discriminator 20 view .LVU652
 3084 0398 2846     		mov	r0, r5
 3085 039a FFF7FEFF 		bl	lv_style_set_pad_column
 3086              	.LVL396:
 265:Drivers/lvgl/src/themes/default/lv_theme_default.c ****     lv_style_set_line_width(&theme->styles.card, LV_DPX_CALC(theme->disp_dpi, 1));
 3087              		.loc 1 265 5 is_stmt 1 view .LVU653
 3088 039e 1220     		movs	r0, #18
 3089 03a0 FFF7FEFF 		bl	lv_palette_main
 3090              	.LVL397:
 3091 03a4 8DF80C00 		strb	r0, [sp, #12]
 3092 03a8 C0F30723 		ubfx	r3, r0, #8, #8
 3093 03ac 8DF80D30 		strb	r3, [sp, #13]
 3094 03b0 C0F30740 		ubfx	r0, r0, #16, #8
 3095 03b4 8DF80E00 		strb	r0, [sp, #14]
 265:Drivers/lvgl/src/themes/default/lv_theme_default.c ****     lv_style_set_line_width(&theme->styles.card, LV_DPX_CALC(theme->disp_dpi, 1));
 3096              		.loc 1 265 5 is_stmt 0 discriminator 1 view .LVU654
 3097 03b8 0399     		ldr	r1, [sp, #12]
 3098 03ba 2846     		mov	r0, r5
 3099 03bc FFF7FEFF 		bl	lv_style_set_line_color
 3100              	.LVL398:
 266:Drivers/lvgl/src/themes/default/lv_theme_default.c **** 
 3101              		.loc 1 266 5 is_stmt 1 view .LVU655
 266:Drivers/lvgl/src/themes/default/lv_theme_default.c **** 
 3102              		.loc 1 266 50 is_stmt 0 view .LVU656
 3103 03c0 E16A     		ldr	r1, [r4, #44]
 266:Drivers/lvgl/src/themes/default/lv_theme_default.c **** 
 3104              		.loc 1 266 5 view .LVU657
 3105 03c2 EF29     		cmp	r1, #239
 3106 03c4 41F37182 		ble	.L260
 266:Drivers/lvgl/src/themes/default/lv_theme_default.c **** 
 3107              		.loc 1 266 50 discriminator 1 view .LVU658
 3108 03c8 5031     		adds	r1, r1, #80
 266:Drivers/lvgl/src/themes/default/lv_theme_default.c **** 
 3109              		.loc 1 266 5 discriminator 1 view .LVU659
 3110 03ca DD4B     		ldr	r3, .L454
 3111 03cc 83FB0123 		smull	r2, r3, r3, r1
 3112 03d0 C917     		asrs	r1, r1, #31
 3113 03d2 C1EBA311 		rsb	r1, r1, r3, asr #6
 3114              	.L125:
 266:Drivers/lvgl/src/themes/default/lv_theme_default.c **** 
 3115              		.loc 1 266 5 discriminator 4 view .LVU660
 3116 03d6 2846     		mov	r0, r5
 3117 03d8 FFF7FEFF 		bl	lv_style_set_line_width
 3118              	.LVL399:
 268:Drivers/lvgl/src/themes/default/lv_theme_default.c ****     lv_style_set_outline_color(&theme->styles.outline_primary, theme->base.color_primary);
 3119              		.loc 1 268 5 is_stmt 1 view .LVU661
 3120 03dc 04F59875 		add	r5, r4, #304
 3121 03e0 2846     		mov	r0, r5
 3122 03e2 FFF7FEFF 		bl	style_init_reset
 3123              	.LVL400:
 269:Drivers/lvgl/src/themes/default/lv_theme_default.c ****     lv_style_set_outline_width(&theme->styles.outline_primary, OUTLINE_WIDTH);
ARM GAS  /var/folders/qx/2_175_4n2s19vhvtspjhb3qh0000gn/T//ccFV8cem.s 			page 98


 3124              		.loc 1 269 5 view .LVU662
 3125 03e6 2169     		ldr	r1, [r4, #16]
 3126 03e8 2846     		mov	r0, r5
 3127 03ea FFF7FEFF 		bl	lv_style_set_outline_color
 3128              	.LVL401:
 270:Drivers/lvgl/src/themes/default/lv_theme_default.c ****     lv_style_set_outline_pad(&theme->styles.outline_primary, OUTLINE_WIDTH);
 3129              		.loc 1 270 5 view .LVU663
 270:Drivers/lvgl/src/themes/default/lv_theme_default.c ****     lv_style_set_outline_pad(&theme->styles.outline_primary, OUTLINE_WIDTH);
 3130              		.loc 1 270 64 is_stmt 0 view .LVU664
 3131 03ee E16A     		ldr	r1, [r4, #44]
 3132 03f0 01EB4101 		add	r1, r1, r1, lsl #1
 270:Drivers/lvgl/src/themes/default/lv_theme_default.c ****     lv_style_set_outline_pad(&theme->styles.outline_primary, OUTLINE_WIDTH);
 3133              		.loc 1 270 5 view .LVU665
 3134 03f4 EF29     		cmp	r1, #239
 3135 03f6 41F35B82 		ble	.L261
 270:Drivers/lvgl/src/themes/default/lv_theme_default.c ****     lv_style_set_outline_pad(&theme->styles.outline_primary, OUTLINE_WIDTH);
 3136              		.loc 1 270 64 discriminator 1 view .LVU666
 3137 03fa 5031     		adds	r1, r1, #80
 270:Drivers/lvgl/src/themes/default/lv_theme_default.c ****     lv_style_set_outline_pad(&theme->styles.outline_primary, OUTLINE_WIDTH);
 3138              		.loc 1 270 5 discriminator 1 view .LVU667
 3139 03fc D04B     		ldr	r3, .L454
 3140 03fe 83FB0123 		smull	r2, r3, r3, r1
 3141 0402 C917     		asrs	r1, r1, #31
 3142 0404 C1EBA311 		rsb	r1, r1, r3, asr #6
 3143              	.L126:
 270:Drivers/lvgl/src/themes/default/lv_theme_default.c ****     lv_style_set_outline_pad(&theme->styles.outline_primary, OUTLINE_WIDTH);
 3144              		.loc 1 270 5 discriminator 4 view .LVU668
 3145 0408 2846     		mov	r0, r5
 3146 040a FFF7FEFF 		bl	lv_style_set_outline_width
 3147              	.LVL402:
 271:Drivers/lvgl/src/themes/default/lv_theme_default.c ****     lv_style_set_outline_opa(&theme->styles.outline_primary, LV_OPA_50);
 3148              		.loc 1 271 5 is_stmt 1 view .LVU669
 271:Drivers/lvgl/src/themes/default/lv_theme_default.c ****     lv_style_set_outline_opa(&theme->styles.outline_primary, LV_OPA_50);
 3149              		.loc 1 271 62 is_stmt 0 view .LVU670
 3150 040e E16A     		ldr	r1, [r4, #44]
 3151 0410 01EB4101 		add	r1, r1, r1, lsl #1
 271:Drivers/lvgl/src/themes/default/lv_theme_default.c ****     lv_style_set_outline_opa(&theme->styles.outline_primary, LV_OPA_50);
 3152              		.loc 1 271 5 view .LVU671
 3153 0414 EF29     		cmp	r1, #239
 3154 0416 41F34E82 		ble	.L262
 271:Drivers/lvgl/src/themes/default/lv_theme_default.c ****     lv_style_set_outline_opa(&theme->styles.outline_primary, LV_OPA_50);
 3155              		.loc 1 271 62 discriminator 1 view .LVU672
 3156 041a 5031     		adds	r1, r1, #80
 271:Drivers/lvgl/src/themes/default/lv_theme_default.c ****     lv_style_set_outline_opa(&theme->styles.outline_primary, LV_OPA_50);
 3157              		.loc 1 271 5 discriminator 1 view .LVU673
 3158 041c C84B     		ldr	r3, .L454
 3159 041e 83FB0123 		smull	r2, r3, r3, r1
 3160 0422 C917     		asrs	r1, r1, #31
 3161 0424 C1EBA311 		rsb	r1, r1, r3, asr #6
 3162              	.L127:
 271:Drivers/lvgl/src/themes/default/lv_theme_default.c ****     lv_style_set_outline_opa(&theme->styles.outline_primary, LV_OPA_50);
 3163              		.loc 1 271 5 discriminator 4 view .LVU674
 3164 0428 2846     		mov	r0, r5
 3165 042a FFF7FEFF 		bl	lv_style_set_outline_pad
 3166              	.LVL403:
 272:Drivers/lvgl/src/themes/default/lv_theme_default.c **** 
 3167              		.loc 1 272 5 is_stmt 1 view .LVU675
ARM GAS  /var/folders/qx/2_175_4n2s19vhvtspjhb3qh0000gn/T//ccFV8cem.s 			page 99


 3168 042e 7F21     		movs	r1, #127
 3169 0430 2846     		mov	r0, r5
 3170 0432 FFF7FEFF 		bl	lv_style_set_outline_opa
 3171              	.LVL404:
 274:Drivers/lvgl/src/themes/default/lv_theme_default.c ****     lv_style_set_outline_color(&theme->styles.outline_secondary, theme->base.color_secondary);
 3172              		.loc 1 274 5 view .LVU676
 3173 0436 04F59E75 		add	r5, r4, #316
 3174 043a 2846     		mov	r0, r5
 3175 043c FFF7FEFF 		bl	style_init_reset
 3176              	.LVL405:
 275:Drivers/lvgl/src/themes/default/lv_theme_default.c ****     lv_style_set_outline_width(&theme->styles.outline_secondary, OUTLINE_WIDTH);
 3177              		.loc 1 275 5 view .LVU677
 3178 0440 E37C     		ldrb	r3, [r4, #19]	@ zero_extendqisi2
 3179 0442 227D     		ldrb	r2, [r4, #20]	@ zero_extendqisi2
 3180 0444 43EA0223 		orr	r3, r3, r2, lsl #8
 3181 0448 617D     		ldrb	r1, [r4, #21]	@ zero_extendqisi2
 3182 044a 43EA0141 		orr	r1, r3, r1, lsl #16
 3183 044e 2846     		mov	r0, r5
 3184 0450 FFF7FEFF 		bl	lv_style_set_outline_color
 3185              	.LVL406:
 276:Drivers/lvgl/src/themes/default/lv_theme_default.c ****     lv_style_set_outline_opa(&theme->styles.outline_secondary, LV_OPA_50);
 3186              		.loc 1 276 5 view .LVU678
 276:Drivers/lvgl/src/themes/default/lv_theme_default.c ****     lv_style_set_outline_opa(&theme->styles.outline_secondary, LV_OPA_50);
 3187              		.loc 1 276 66 is_stmt 0 view .LVU679
 3188 0454 E16A     		ldr	r1, [r4, #44]
 3189 0456 01EB4101 		add	r1, r1, r1, lsl #1
 276:Drivers/lvgl/src/themes/default/lv_theme_default.c ****     lv_style_set_outline_opa(&theme->styles.outline_secondary, LV_OPA_50);
 3190              		.loc 1 276 5 view .LVU680
 3191 045a EF29     		cmp	r1, #239
 3192 045c 41F32E82 		ble	.L263
 276:Drivers/lvgl/src/themes/default/lv_theme_default.c ****     lv_style_set_outline_opa(&theme->styles.outline_secondary, LV_OPA_50);
 3193              		.loc 1 276 66 discriminator 1 view .LVU681
 3194 0460 5031     		adds	r1, r1, #80
 276:Drivers/lvgl/src/themes/default/lv_theme_default.c ****     lv_style_set_outline_opa(&theme->styles.outline_secondary, LV_OPA_50);
 3195              		.loc 1 276 5 discriminator 1 view .LVU682
 3196 0462 B74B     		ldr	r3, .L454
 3197 0464 83FB0123 		smull	r2, r3, r3, r1
 3198 0468 C917     		asrs	r1, r1, #31
 3199 046a C1EBA311 		rsb	r1, r1, r3, asr #6
 3200              	.L128:
 276:Drivers/lvgl/src/themes/default/lv_theme_default.c ****     lv_style_set_outline_opa(&theme->styles.outline_secondary, LV_OPA_50);
 3201              		.loc 1 276 5 discriminator 4 view .LVU683
 3202 046e 2846     		mov	r0, r5
 3203 0470 FFF7FEFF 		bl	lv_style_set_outline_width
 3204              	.LVL407:
 277:Drivers/lvgl/src/themes/default/lv_theme_default.c **** 
 3205              		.loc 1 277 5 is_stmt 1 view .LVU684
 3206 0474 7F21     		movs	r1, #127
 3207 0476 2846     		mov	r0, r5
 3208 0478 FFF7FEFF 		bl	lv_style_set_outline_opa
 3209              	.LVL408:
 279:Drivers/lvgl/src/themes/default/lv_theme_default.c ****     lv_style_set_radius(&theme->styles.btn,
 3210              		.loc 1 279 5 view .LVU685
 3211 047c 04F17005 		add	r5, r4, #112
 3212 0480 2846     		mov	r0, r5
 3213 0482 FFF7FEFF 		bl	style_init_reset
 3214              	.LVL409:
ARM GAS  /var/folders/qx/2_175_4n2s19vhvtspjhb3qh0000gn/T//ccFV8cem.s 			page 100


 280:Drivers/lvgl/src/themes/default/lv_theme_default.c ****                         LV_DPX_CALC(theme->disp_dpi, theme->disp_size == DISP_LARGE ? 16 : theme->d
 3215              		.loc 1 280 5 view .LVU686
 281:Drivers/lvgl/src/themes/default/lv_theme_default.c ****     lv_style_set_bg_opa(&theme->styles.btn, LV_OPA_COVER);
 3216              		.loc 1 281 25 is_stmt 0 view .LVU687
 3217 0486 E16A     		ldr	r1, [r4, #44]
 3218 0488 94F82830 		ldrb	r3, [r4, #40]	@ zero_extendqisi2
 3219 048c 012B     		cmp	r3, #1
 3220 048e 01F01B82 		beq	.L264
 281:Drivers/lvgl/src/themes/default/lv_theme_default.c ****     lv_style_set_bg_opa(&theme->styles.btn, LV_OPA_COVER);
 3221              		.loc 1 281 25 discriminator 1 view .LVU688
 3222 0492 022B     		cmp	r3, #2
 3223 0494 01F01582 		beq	.L407
 281:Drivers/lvgl/src/themes/default/lv_theme_default.c ****     lv_style_set_bg_opa(&theme->styles.btn, LV_OPA_COVER);
 3224              		.loc 1 281 25 discriminator 4 view .LVU689
 3225 0498 0823     		movs	r3, #8
 3226              	.L129:
 281:Drivers/lvgl/src/themes/default/lv_theme_default.c ****     lv_style_set_bg_opa(&theme->styles.btn, LV_OPA_COVER);
 3227              		.loc 1 281 25 discriminator 8 view .LVU690
 3228 049a 03FB01F1 		mul	r1, r3, r1
 280:Drivers/lvgl/src/themes/default/lv_theme_default.c ****                         LV_DPX_CALC(theme->disp_dpi, theme->disp_size == DISP_LARGE ? 16 : theme->d
 3229              		.loc 1 280 5 view .LVU691
 3230 049e EF29     		cmp	r1, #239
 3231 04a0 41F31582 		ble	.L266
 281:Drivers/lvgl/src/themes/default/lv_theme_default.c ****     lv_style_set_bg_opa(&theme->styles.btn, LV_OPA_COVER);
 3232              		.loc 1 281 25 discriminator 16 view .LVU692
 3233 04a4 5031     		adds	r1, r1, #80
 280:Drivers/lvgl/src/themes/default/lv_theme_default.c ****                         LV_DPX_CALC(theme->disp_dpi, theme->disp_size == DISP_LARGE ? 16 : theme->d
 3234              		.loc 1 280 5 view .LVU693
 3235 04a6 A64B     		ldr	r3, .L454
 3236 04a8 83FB0123 		smull	r2, r3, r3, r1
 3237 04ac C917     		asrs	r1, r1, #31
 3238 04ae C1EBA311 		rsb	r1, r1, r3, asr #6
 3239              	.L130:
 280:Drivers/lvgl/src/themes/default/lv_theme_default.c ****                         LV_DPX_CALC(theme->disp_dpi, theme->disp_size == DISP_LARGE ? 16 : theme->d
 3240              		.loc 1 280 5 discriminator 3 view .LVU694
 3241 04b2 2846     		mov	r0, r5
 3242 04b4 FFF7FEFF 		bl	lv_style_set_radius
 3243              	.LVL410:
 282:Drivers/lvgl/src/themes/default/lv_theme_default.c ****     lv_style_set_bg_color(&theme->styles.btn, theme->color_grey);
 3244              		.loc 1 282 5 is_stmt 1 view .LVU695
 3245 04b8 FF21     		movs	r1, #255
 3246 04ba 2846     		mov	r0, r5
 3247 04bc FFF7FEFF 		bl	lv_style_set_bg_opa
 3248              	.LVL411:
 283:Drivers/lvgl/src/themes/default/lv_theme_default.c ****     if(!(theme->base.flags & MODE_DARK)) {
 3249              		.loc 1 283 5 view .LVU696
 3250 04c0 94F83930 		ldrb	r3, [r4, #57]	@ zero_extendqisi2
 3251 04c4 94F83A20 		ldrb	r2, [r4, #58]	@ zero_extendqisi2
 3252 04c8 43EA0223 		orr	r3, r3, r2, lsl #8
 3253 04cc 94F83B10 		ldrb	r1, [r4, #59]	@ zero_extendqisi2
 3254 04d0 43EA0141 		orr	r1, r3, r1, lsl #16
 3255 04d4 2846     		mov	r0, r5
 3256 04d6 FFF7FEFF 		bl	lv_style_set_bg_color
 3257              	.LVL412:
 284:Drivers/lvgl/src/themes/default/lv_theme_default.c ****         lv_style_set_shadow_color(&theme->styles.btn, lv_palette_main(LV_PALETTE_GREY));
 3258              		.loc 1 284 5 view .LVU697
 284:Drivers/lvgl/src/themes/default/lv_theme_default.c ****         lv_style_set_shadow_color(&theme->styles.btn, lv_palette_main(LV_PALETTE_GREY));
ARM GAS  /var/folders/qx/2_175_4n2s19vhvtspjhb3qh0000gn/T//ccFV8cem.s 			page 101


 3259              		.loc 1 284 21 is_stmt 0 view .LVU698
 3260 04da 636A     		ldr	r3, [r4, #36]
 284:Drivers/lvgl/src/themes/default/lv_theme_default.c ****         lv_style_set_shadow_color(&theme->styles.btn, lv_palette_main(LV_PALETTE_GREY));
 3261              		.loc 1 284 7 view .LVU699
 3262 04dc 13F0010F 		tst	r3, #1
 3263 04e0 01F0F881 		beq	.L408
 3264              	.L131:
 290:Drivers/lvgl/src/themes/default/lv_theme_default.c ****     lv_style_set_pad_hor(&theme->styles.btn, PAD_DEF);
 3265              		.loc 1 290 5 is_stmt 1 view .LVU700
 3266 04e4 94F83330 		ldrb	r3, [r4, #51]	@ zero_extendqisi2
 3267 04e8 94F83420 		ldrb	r2, [r4, #52]	@ zero_extendqisi2
 3268 04ec 43EA0223 		orr	r3, r3, r2, lsl #8
 3269 04f0 94F83510 		ldrb	r1, [r4, #53]	@ zero_extendqisi2
 3270 04f4 43EA0141 		orr	r1, r3, r1, lsl #16
 3271 04f8 2846     		mov	r0, r5
 3272 04fa FFF7FEFF 		bl	lv_style_set_text_color
 3273              	.LVL413:
 291:Drivers/lvgl/src/themes/default/lv_theme_default.c ****     lv_style_set_pad_ver(&theme->styles.btn, PAD_SMALL);
 3274              		.loc 1 291 5 view .LVU701
 291:Drivers/lvgl/src/themes/default/lv_theme_default.c ****     lv_style_set_pad_ver(&theme->styles.btn, PAD_SMALL);
 3275              		.loc 1 291 46 is_stmt 0 view .LVU702
 3276 04fe E16A     		ldr	r1, [r4, #44]
 3277 0500 94F82830 		ldrb	r3, [r4, #40]	@ zero_extendqisi2
 3278 0504 012B     		cmp	r3, #1
 3279 0506 01F05B82 		beq	.L272
 291:Drivers/lvgl/src/themes/default/lv_theme_default.c ****     lv_style_set_pad_ver(&theme->styles.btn, PAD_SMALL);
 3280              		.loc 1 291 46 discriminator 1 view .LVU703
 3281 050a 022B     		cmp	r3, #2
 3282 050c 01F05582 		beq	.L409
 291:Drivers/lvgl/src/themes/default/lv_theme_default.c ****     lv_style_set_pad_ver(&theme->styles.btn, PAD_SMALL);
 3283              		.loc 1 291 46 discriminator 4 view .LVU704
 3284 0510 1023     		movs	r3, #16
 3285              	.L137:
 291:Drivers/lvgl/src/themes/default/lv_theme_default.c ****     lv_style_set_pad_ver(&theme->styles.btn, PAD_SMALL);
 3286              		.loc 1 291 46 discriminator 8 view .LVU705
 3287 0512 03FB01F1 		mul	r1, r3, r1
 291:Drivers/lvgl/src/themes/default/lv_theme_default.c ****     lv_style_set_pad_ver(&theme->styles.btn, PAD_SMALL);
 3288              		.loc 1 291 5 discriminator 8 view .LVU706
 3289 0516 EF29     		cmp	r1, #239
 3290 0518 41F35582 		ble	.L274
 291:Drivers/lvgl/src/themes/default/lv_theme_default.c ****     lv_style_set_pad_ver(&theme->styles.btn, PAD_SMALL);
 3291              		.loc 1 291 46 discriminator 18 view .LVU707
 3292 051c 5031     		adds	r1, r1, #80
 291:Drivers/lvgl/src/themes/default/lv_theme_default.c ****     lv_style_set_pad_ver(&theme->styles.btn, PAD_SMALL);
 3293              		.loc 1 291 5 discriminator 18 view .LVU708
 3294 051e 884B     		ldr	r3, .L454
 3295 0520 83FB0123 		smull	r2, r3, r3, r1
 3296 0524 C917     		asrs	r1, r1, #31
 3297 0526 C1EBA311 		rsb	r1, r1, r3, asr #6
 3298              	.L138:
 291:Drivers/lvgl/src/themes/default/lv_theme_default.c ****     lv_style_set_pad_ver(&theme->styles.btn, PAD_SMALL);
 3299              		.loc 1 291 5 discriminator 20 view .LVU709
 3300 052a 2846     		mov	r0, r5
 3301 052c FFF7FEFF 		bl	lv_style_set_pad_hor
 3302              	.LVL414:
 292:Drivers/lvgl/src/themes/default/lv_theme_default.c ****     lv_style_set_pad_column(&theme->styles.btn, LV_DPX_CALC(theme->disp_dpi, 5));
 3303              		.loc 1 292 5 is_stmt 1 view .LVU710
ARM GAS  /var/folders/qx/2_175_4n2s19vhvtspjhb3qh0000gn/T//ccFV8cem.s 			page 102


 292:Drivers/lvgl/src/themes/default/lv_theme_default.c ****     lv_style_set_pad_column(&theme->styles.btn, LV_DPX_CALC(theme->disp_dpi, 5));
 3304              		.loc 1 292 46 is_stmt 0 view .LVU711
 3305 0530 E16A     		ldr	r1, [r4, #44]
 3306 0532 94F82830 		ldrb	r3, [r4, #40]	@ zero_extendqisi2
 3307 0536 012B     		cmp	r3, #1
 3308 0538 01F04B82 		beq	.L275
 292:Drivers/lvgl/src/themes/default/lv_theme_default.c ****     lv_style_set_pad_column(&theme->styles.btn, LV_DPX_CALC(theme->disp_dpi, 5));
 3309              		.loc 1 292 46 discriminator 1 view .LVU712
 3310 053c 022B     		cmp	r3, #2
 3311 053e 01F04582 		beq	.L410
 292:Drivers/lvgl/src/themes/default/lv_theme_default.c ****     lv_style_set_pad_column(&theme->styles.btn, LV_DPX_CALC(theme->disp_dpi, 5));
 3312              		.loc 1 292 46 discriminator 4 view .LVU713
 3313 0542 0A23     		movs	r3, #10
 3314              	.L139:
 292:Drivers/lvgl/src/themes/default/lv_theme_default.c ****     lv_style_set_pad_column(&theme->styles.btn, LV_DPX_CALC(theme->disp_dpi, 5));
 3315              		.loc 1 292 46 discriminator 8 view .LVU714
 3316 0544 03FB01F1 		mul	r1, r3, r1
 292:Drivers/lvgl/src/themes/default/lv_theme_default.c ****     lv_style_set_pad_column(&theme->styles.btn, LV_DPX_CALC(theme->disp_dpi, 5));
 3317              		.loc 1 292 5 discriminator 8 view .LVU715
 3318 0548 EF29     		cmp	r1, #239
 3319 054a 41F34582 		ble	.L277
 292:Drivers/lvgl/src/themes/default/lv_theme_default.c ****     lv_style_set_pad_column(&theme->styles.btn, LV_DPX_CALC(theme->disp_dpi, 5));
 3320              		.loc 1 292 46 discriminator 18 view .LVU716
 3321 054e 5031     		adds	r1, r1, #80
 292:Drivers/lvgl/src/themes/default/lv_theme_default.c ****     lv_style_set_pad_column(&theme->styles.btn, LV_DPX_CALC(theme->disp_dpi, 5));
 3322              		.loc 1 292 5 discriminator 18 view .LVU717
 3323 0550 7B4B     		ldr	r3, .L454
 3324 0552 83FB0123 		smull	r2, r3, r3, r1
 3325 0556 C917     		asrs	r1, r1, #31
 3326 0558 C1EBA311 		rsb	r1, r1, r3, asr #6
 3327              	.L140:
 292:Drivers/lvgl/src/themes/default/lv_theme_default.c ****     lv_style_set_pad_column(&theme->styles.btn, LV_DPX_CALC(theme->disp_dpi, 5));
 3328              		.loc 1 292 5 discriminator 20 view .LVU718
 3329 055c 2846     		mov	r0, r5
 3330 055e FFF7FEFF 		bl	lv_style_set_pad_ver
 3331              	.LVL415:
 293:Drivers/lvgl/src/themes/default/lv_theme_default.c ****     lv_style_set_pad_row(&theme->styles.btn, LV_DPX_CALC(theme->disp_dpi, 5));
 3332              		.loc 1 293 5 is_stmt 1 view .LVU719
 293:Drivers/lvgl/src/themes/default/lv_theme_default.c ****     lv_style_set_pad_row(&theme->styles.btn, LV_DPX_CALC(theme->disp_dpi, 5));
 3333              		.loc 1 293 49 is_stmt 0 view .LVU720
 3334 0562 E16A     		ldr	r1, [r4, #44]
 3335 0564 01EB8101 		add	r1, r1, r1, lsl #2
 293:Drivers/lvgl/src/themes/default/lv_theme_default.c ****     lv_style_set_pad_row(&theme->styles.btn, LV_DPX_CALC(theme->disp_dpi, 5));
 3336              		.loc 1 293 5 view .LVU721
 3337 0568 EF29     		cmp	r1, #239
 3338 056a 41F33882 		ble	.L278
 293:Drivers/lvgl/src/themes/default/lv_theme_default.c ****     lv_style_set_pad_row(&theme->styles.btn, LV_DPX_CALC(theme->disp_dpi, 5));
 3339              		.loc 1 293 49 discriminator 1 view .LVU722
 3340 056e 5031     		adds	r1, r1, #80
 293:Drivers/lvgl/src/themes/default/lv_theme_default.c ****     lv_style_set_pad_row(&theme->styles.btn, LV_DPX_CALC(theme->disp_dpi, 5));
 3341              		.loc 1 293 5 discriminator 1 view .LVU723
 3342 0570 734B     		ldr	r3, .L454
 3343 0572 83FB0123 		smull	r2, r3, r3, r1
 3344 0576 C917     		asrs	r1, r1, #31
 3345 0578 C1EBA311 		rsb	r1, r1, r3, asr #6
 3346              	.L141:
 293:Drivers/lvgl/src/themes/default/lv_theme_default.c ****     lv_style_set_pad_row(&theme->styles.btn, LV_DPX_CALC(theme->disp_dpi, 5));
ARM GAS  /var/folders/qx/2_175_4n2s19vhvtspjhb3qh0000gn/T//ccFV8cem.s 			page 103


 3347              		.loc 1 293 5 discriminator 4 view .LVU724
 3348 057c 2846     		mov	r0, r5
 3349 057e FFF7FEFF 		bl	lv_style_set_pad_column
 3350              	.LVL416:
 294:Drivers/lvgl/src/themes/default/lv_theme_default.c **** 
 3351              		.loc 1 294 5 is_stmt 1 view .LVU725
 294:Drivers/lvgl/src/themes/default/lv_theme_default.c **** 
 3352              		.loc 1 294 46 is_stmt 0 view .LVU726
 3353 0582 E16A     		ldr	r1, [r4, #44]
 3354 0584 01EB8101 		add	r1, r1, r1, lsl #2
 294:Drivers/lvgl/src/themes/default/lv_theme_default.c **** 
 3355              		.loc 1 294 5 view .LVU727
 3356 0588 EF29     		cmp	r1, #239
 3357 058a 41F32D82 		ble	.L279
 294:Drivers/lvgl/src/themes/default/lv_theme_default.c **** 
 3358              		.loc 1 294 46 discriminator 1 view .LVU728
 3359 058e 5031     		adds	r1, r1, #80
 294:Drivers/lvgl/src/themes/default/lv_theme_default.c **** 
 3360              		.loc 1 294 5 discriminator 1 view .LVU729
 3361 0590 6B4B     		ldr	r3, .L454
 3362 0592 83FB0123 		smull	r2, r3, r3, r1
 3363 0596 C917     		asrs	r1, r1, #31
 3364 0598 C1EBA311 		rsb	r1, r1, r3, asr #6
 3365              	.L142:
 294:Drivers/lvgl/src/themes/default/lv_theme_default.c **** 
 3366              		.loc 1 294 5 discriminator 4 view .LVU730
 3367 059c 2846     		mov	r0, r5
 3368 059e FFF7FEFF 		bl	lv_style_set_pad_row
 3369              	.LVL417:
 296:Drivers/lvgl/src/themes/default/lv_theme_default.c ****     lv_style_set_recolor(&theme->styles.pressed, lv_color_black());
 3370              		.loc 1 296 5 is_stmt 1 view .LVU731
 3371 05a2 04F1C405 		add	r5, r4, #196
 3372 05a6 2846     		mov	r0, r5
 3373 05a8 FFF7FEFF 		bl	style_init_reset
 3374              	.LVL418:
 297:Drivers/lvgl/src/themes/default/lv_theme_default.c ****     lv_style_set_recolor_opa(&theme->styles.pressed, 35);
 3375              		.loc 1 297 5 view .LVU732
 3376 05ac FFF7FEFF 		bl	lv_color_black
 3377              	.LVL419:
 3378 05b0 8DF81400 		strb	r0, [sp, #20]
 3379 05b4 C0F30723 		ubfx	r3, r0, #8, #8
 3380 05b8 8DF81530 		strb	r3, [sp, #21]
 3381 05bc C0F30740 		ubfx	r0, r0, #16, #8
 3382 05c0 8DF81600 		strb	r0, [sp, #22]
 297:Drivers/lvgl/src/themes/default/lv_theme_default.c ****     lv_style_set_recolor_opa(&theme->styles.pressed, 35);
 3383              		.loc 1 297 5 is_stmt 0 discriminator 1 view .LVU733
 3384 05c4 0599     		ldr	r1, [sp, #20]
 3385 05c6 2846     		mov	r0, r5
 3386 05c8 FFF7FEFF 		bl	lv_style_set_recolor
 3387              	.LVL420:
 298:Drivers/lvgl/src/themes/default/lv_theme_default.c **** 
 3388              		.loc 1 298 5 is_stmt 1 view .LVU734
 3389 05cc 2321     		movs	r1, #35
 3390 05ce 2846     		mov	r0, r5
 3391 05d0 FFF7FEFF 		bl	lv_style_set_recolor_opa
 3392              	.LVL421:
 300:Drivers/lvgl/src/themes/default/lv_theme_default.c ****     if(theme_def->base.flags & MODE_DARK)
ARM GAS  /var/folders/qx/2_175_4n2s19vhvtspjhb3qh0000gn/T//ccFV8cem.s 			page 104


 3393              		.loc 1 300 5 view .LVU735
 3394 05d4 04F1D005 		add	r5, r4, #208
 3395 05d8 2846     		mov	r0, r5
 3396 05da FFF7FEFF 		bl	style_init_reset
 3397              	.LVL422:
 301:Drivers/lvgl/src/themes/default/lv_theme_default.c ****         lv_style_set_recolor(&theme->styles.disabled, lv_palette_darken(LV_PALETTE_GREY, 2));
 3398              		.loc 1 301 5 view .LVU736
 301:Drivers/lvgl/src/themes/default/lv_theme_default.c ****         lv_style_set_recolor(&theme->styles.disabled, lv_palette_darken(LV_PALETTE_GREY, 2));
 3399              		.loc 1 301 8 is_stmt 0 view .LVU737
 3400 05de 594B     		ldr	r3, .L454+4
 3401 05e0 D3F8CC31 		ldr	r3, [r3, #460]
 301:Drivers/lvgl/src/themes/default/lv_theme_default.c ****         lv_style_set_recolor(&theme->styles.disabled, lv_palette_darken(LV_PALETTE_GREY, 2));
 3402              		.loc 1 301 23 view .LVU738
 3403 05e4 5B6A     		ldr	r3, [r3, #36]
 301:Drivers/lvgl/src/themes/default/lv_theme_default.c ****         lv_style_set_recolor(&theme->styles.disabled, lv_palette_darken(LV_PALETTE_GREY, 2));
 3404              		.loc 1 301 7 view .LVU739
 3405 05e6 13F0010F 		tst	r3, #1
 3406 05ea 01F00082 		beq	.L143
 302:Drivers/lvgl/src/themes/default/lv_theme_default.c ****     else
 3407              		.loc 1 302 9 is_stmt 1 view .LVU740
 3408 05ee 0221     		movs	r1, #2
 3409 05f0 1220     		movs	r0, #18
 3410 05f2 FFF7FEFF 		bl	lv_palette_darken
 3411              	.LVL423:
 3412 05f6 8DF81800 		strb	r0, [sp, #24]
 3413 05fa C0F30723 		ubfx	r3, r0, #8, #8
 3414 05fe 8DF81930 		strb	r3, [sp, #25]
 3415 0602 C0F30740 		ubfx	r0, r0, #16, #8
 3416 0606 8DF81A00 		strb	r0, [sp, #26]
 302:Drivers/lvgl/src/themes/default/lv_theme_default.c ****     else
 3417              		.loc 1 302 9 is_stmt 0 discriminator 1 view .LVU741
 3418 060a 0699     		ldr	r1, [sp, #24]
 3419 060c 2846     		mov	r0, r5
 3420 060e FFF7FEFF 		bl	lv_style_set_recolor
 3421              	.LVL424:
 3422              	.L144:
 305:Drivers/lvgl/src/themes/default/lv_theme_default.c **** 
 3423              		.loc 1 305 5 is_stmt 1 view .LVU742
 3424 0612 7F21     		movs	r1, #127
 3425 0614 2846     		mov	r0, r5
 3426 0616 FFF7FEFF 		bl	lv_style_set_recolor_opa
 3427              	.LVL425:
 307:Drivers/lvgl/src/themes/default/lv_theme_default.c ****     lv_style_set_clip_corner(&theme->styles.clip_corner, true);
 3428              		.loc 1 307 5 view .LVU743
 3429 061a 04F5B075 		add	r5, r4, #352
 3430 061e 2846     		mov	r0, r5
 3431 0620 FFF7FEFF 		bl	style_init_reset
 3432              	.LVL426:
 308:Drivers/lvgl/src/themes/default/lv_theme_default.c ****     lv_style_set_border_post(&theme->styles.clip_corner, true);
 3433              		.loc 1 308 5 view .LVU744
 3434 0624 0121     		movs	r1, #1
 3435 0626 2846     		mov	r0, r5
 3436 0628 FFF7FEFF 		bl	lv_style_set_clip_corner
 3437              	.LVL427:
 309:Drivers/lvgl/src/themes/default/lv_theme_default.c **** 
 3438              		.loc 1 309 5 view .LVU745
 3439 062c 0121     		movs	r1, #1
ARM GAS  /var/folders/qx/2_175_4n2s19vhvtspjhb3qh0000gn/T//ccFV8cem.s 			page 105


 3440 062e 2846     		mov	r0, r5
 3441 0630 FFF7FEFF 		bl	lv_style_set_border_post
 3442              	.LVL428:
 311:Drivers/lvgl/src/themes/default/lv_theme_default.c ****     lv_style_set_pad_all(&theme->styles.pad_normal, PAD_DEF);
 3443              		.loc 1 311 5 view .LVU746
 3444 0634 04F58075 		add	r5, r4, #256
 3445 0638 2846     		mov	r0, r5
 3446 063a FFF7FEFF 		bl	style_init_reset
 3447              	.LVL429:
 312:Drivers/lvgl/src/themes/default/lv_theme_default.c ****     lv_style_set_pad_row(&theme->styles.pad_normal, PAD_DEF);
 3448              		.loc 1 312 5 view .LVU747
 312:Drivers/lvgl/src/themes/default/lv_theme_default.c ****     lv_style_set_pad_row(&theme->styles.pad_normal, PAD_DEF);
 3449              		.loc 1 312 53 is_stmt 0 view .LVU748
 3450 063e E16A     		ldr	r1, [r4, #44]
 3451 0640 94F82830 		ldrb	r3, [r4, #40]	@ zero_extendqisi2
 3452 0644 012B     		cmp	r3, #1
 3453 0646 01F0E981 		beq	.L280
 312:Drivers/lvgl/src/themes/default/lv_theme_default.c ****     lv_style_set_pad_row(&theme->styles.pad_normal, PAD_DEF);
 3454              		.loc 1 312 53 discriminator 1 view .LVU749
 3455 064a 022B     		cmp	r3, #2
 3456 064c 01F0E381 		beq	.L411
 312:Drivers/lvgl/src/themes/default/lv_theme_default.c ****     lv_style_set_pad_row(&theme->styles.pad_normal, PAD_DEF);
 3457              		.loc 1 312 53 discriminator 4 view .LVU750
 3458 0650 1023     		movs	r3, #16
 3459              	.L145:
 312:Drivers/lvgl/src/themes/default/lv_theme_default.c ****     lv_style_set_pad_row(&theme->styles.pad_normal, PAD_DEF);
 3460              		.loc 1 312 53 discriminator 8 view .LVU751
 3461 0652 03FB01F1 		mul	r1, r3, r1
 312:Drivers/lvgl/src/themes/default/lv_theme_default.c ****     lv_style_set_pad_row(&theme->styles.pad_normal, PAD_DEF);
 3462              		.loc 1 312 5 discriminator 8 view .LVU752
 3463 0656 EF29     		cmp	r1, #239
 3464 0658 41F3E381 		ble	.L282
 312:Drivers/lvgl/src/themes/default/lv_theme_default.c ****     lv_style_set_pad_row(&theme->styles.pad_normal, PAD_DEF);
 3465              		.loc 1 312 53 discriminator 18 view .LVU753
 3466 065c 5031     		adds	r1, r1, #80
 312:Drivers/lvgl/src/themes/default/lv_theme_default.c ****     lv_style_set_pad_row(&theme->styles.pad_normal, PAD_DEF);
 3467              		.loc 1 312 5 discriminator 18 view .LVU754
 3468 065e 384B     		ldr	r3, .L454
 3469 0660 83FB0123 		smull	r2, r3, r3, r1
 3470 0664 C917     		asrs	r1, r1, #31
 3471 0666 C1EBA311 		rsb	r1, r1, r3, asr #6
 3472              	.L146:
 312:Drivers/lvgl/src/themes/default/lv_theme_default.c ****     lv_style_set_pad_row(&theme->styles.pad_normal, PAD_DEF);
 3473              		.loc 1 312 5 discriminator 20 view .LVU755
 3474 066a 2846     		mov	r0, r5
 3475 066c FFF7FEFF 		bl	lv_style_set_pad_all
 3476              	.LVL430:
 313:Drivers/lvgl/src/themes/default/lv_theme_default.c ****     lv_style_set_pad_column(&theme->styles.pad_normal, PAD_DEF);
 3477              		.loc 1 313 5 is_stmt 1 view .LVU756
 313:Drivers/lvgl/src/themes/default/lv_theme_default.c ****     lv_style_set_pad_column(&theme->styles.pad_normal, PAD_DEF);
 3478              		.loc 1 313 53 is_stmt 0 view .LVU757
 3479 0670 E16A     		ldr	r1, [r4, #44]
 3480 0672 94F82830 		ldrb	r3, [r4, #40]	@ zero_extendqisi2
 3481 0676 012B     		cmp	r3, #1
 3482 0678 01F0D981 		beq	.L283
 313:Drivers/lvgl/src/themes/default/lv_theme_default.c ****     lv_style_set_pad_column(&theme->styles.pad_normal, PAD_DEF);
 3483              		.loc 1 313 53 discriminator 1 view .LVU758
ARM GAS  /var/folders/qx/2_175_4n2s19vhvtspjhb3qh0000gn/T//ccFV8cem.s 			page 106


 3484 067c 022B     		cmp	r3, #2
 3485 067e 01F0D381 		beq	.L412
 313:Drivers/lvgl/src/themes/default/lv_theme_default.c ****     lv_style_set_pad_column(&theme->styles.pad_normal, PAD_DEF);
 3486              		.loc 1 313 53 discriminator 4 view .LVU759
 3487 0682 1023     		movs	r3, #16
 3488              	.L147:
 313:Drivers/lvgl/src/themes/default/lv_theme_default.c ****     lv_style_set_pad_column(&theme->styles.pad_normal, PAD_DEF);
 3489              		.loc 1 313 53 discriminator 8 view .LVU760
 3490 0684 03FB01F1 		mul	r1, r3, r1
 313:Drivers/lvgl/src/themes/default/lv_theme_default.c ****     lv_style_set_pad_column(&theme->styles.pad_normal, PAD_DEF);
 3491              		.loc 1 313 5 discriminator 8 view .LVU761
 3492 0688 EF29     		cmp	r1, #239
 3493 068a 41F3D381 		ble	.L285
 313:Drivers/lvgl/src/themes/default/lv_theme_default.c ****     lv_style_set_pad_column(&theme->styles.pad_normal, PAD_DEF);
 3494              		.loc 1 313 53 discriminator 18 view .LVU762
 3495 068e 5031     		adds	r1, r1, #80
 313:Drivers/lvgl/src/themes/default/lv_theme_default.c ****     lv_style_set_pad_column(&theme->styles.pad_normal, PAD_DEF);
 3496              		.loc 1 313 5 discriminator 18 view .LVU763
 3497 0690 2B4B     		ldr	r3, .L454
 3498 0692 83FB0123 		smull	r2, r3, r3, r1
 3499 0696 C917     		asrs	r1, r1, #31
 3500 0698 C1EBA311 		rsb	r1, r1, r3, asr #6
 3501              	.L148:
 313:Drivers/lvgl/src/themes/default/lv_theme_default.c ****     lv_style_set_pad_column(&theme->styles.pad_normal, PAD_DEF);
 3502              		.loc 1 313 5 discriminator 20 view .LVU764
 3503 069c 2846     		mov	r0, r5
 3504 069e FFF7FEFF 		bl	lv_style_set_pad_row
 3505              	.LVL431:
 314:Drivers/lvgl/src/themes/default/lv_theme_default.c **** 
 3506              		.loc 1 314 5 is_stmt 1 view .LVU765
 314:Drivers/lvgl/src/themes/default/lv_theme_default.c **** 
 3507              		.loc 1 314 56 is_stmt 0 view .LVU766
 3508 06a2 E16A     		ldr	r1, [r4, #44]
 3509 06a4 94F82830 		ldrb	r3, [r4, #40]	@ zero_extendqisi2
 3510 06a8 012B     		cmp	r3, #1
 3511 06aa 01F0C981 		beq	.L286
 314:Drivers/lvgl/src/themes/default/lv_theme_default.c **** 
 3512              		.loc 1 314 56 discriminator 1 view .LVU767
 3513 06ae 022B     		cmp	r3, #2
 3514 06b0 01F0C381 		beq	.L413
 314:Drivers/lvgl/src/themes/default/lv_theme_default.c **** 
 3515              		.loc 1 314 56 discriminator 4 view .LVU768
 3516 06b4 1023     		movs	r3, #16
 3517              	.L149:
 314:Drivers/lvgl/src/themes/default/lv_theme_default.c **** 
 3518              		.loc 1 314 56 discriminator 8 view .LVU769
 3519 06b6 03FB01F1 		mul	r1, r3, r1
 314:Drivers/lvgl/src/themes/default/lv_theme_default.c **** 
 3520              		.loc 1 314 5 discriminator 8 view .LVU770
 3521 06ba EF29     		cmp	r1, #239
 3522 06bc 41F3C381 		ble	.L288
 314:Drivers/lvgl/src/themes/default/lv_theme_default.c **** 
 3523              		.loc 1 314 56 discriminator 18 view .LVU771
 3524 06c0 5031     		adds	r1, r1, #80
 314:Drivers/lvgl/src/themes/default/lv_theme_default.c **** 
 3525              		.loc 1 314 5 discriminator 18 view .LVU772
 3526 06c2 1F4B     		ldr	r3, .L454
ARM GAS  /var/folders/qx/2_175_4n2s19vhvtspjhb3qh0000gn/T//ccFV8cem.s 			page 107


 3527 06c4 83FB0123 		smull	r2, r3, r3, r1
 3528 06c8 C917     		asrs	r1, r1, #31
 3529 06ca C1EBA311 		rsb	r1, r1, r3, asr #6
 3530              	.L150:
 314:Drivers/lvgl/src/themes/default/lv_theme_default.c **** 
 3531              		.loc 1 314 5 discriminator 20 view .LVU773
 3532 06ce 2846     		mov	r0, r5
 3533 06d0 FFF7FEFF 		bl	lv_style_set_pad_column
 3534              	.LVL432:
 316:Drivers/lvgl/src/themes/default/lv_theme_default.c ****     lv_style_set_pad_all(&theme->styles.pad_small, PAD_SMALL);
 3535              		.loc 1 316 5 is_stmt 1 view .LVU774
 3536 06d4 04F1F405 		add	r5, r4, #244
 3537 06d8 2846     		mov	r0, r5
 3538 06da FFF7FEFF 		bl	style_init_reset
 3539              	.LVL433:
 317:Drivers/lvgl/src/themes/default/lv_theme_default.c ****     lv_style_set_pad_gap(&theme->styles.pad_small, PAD_SMALL);
 3540              		.loc 1 317 5 view .LVU775
 317:Drivers/lvgl/src/themes/default/lv_theme_default.c ****     lv_style_set_pad_gap(&theme->styles.pad_small, PAD_SMALL);
 3541              		.loc 1 317 52 is_stmt 0 view .LVU776
 3542 06de E16A     		ldr	r1, [r4, #44]
 3543 06e0 94F82830 		ldrb	r3, [r4, #40]	@ zero_extendqisi2
 3544 06e4 012B     		cmp	r3, #1
 3545 06e6 01F0B481 		beq	.L289
 317:Drivers/lvgl/src/themes/default/lv_theme_default.c ****     lv_style_set_pad_gap(&theme->styles.pad_small, PAD_SMALL);
 3546              		.loc 1 317 52 discriminator 1 view .LVU777
 3547 06ea 022B     		cmp	r3, #2
 3548 06ec 01F0AE81 		beq	.L414
 317:Drivers/lvgl/src/themes/default/lv_theme_default.c ****     lv_style_set_pad_gap(&theme->styles.pad_small, PAD_SMALL);
 3549              		.loc 1 317 52 discriminator 4 view .LVU778
 3550 06f0 0A23     		movs	r3, #10
 3551              	.L151:
 317:Drivers/lvgl/src/themes/default/lv_theme_default.c ****     lv_style_set_pad_gap(&theme->styles.pad_small, PAD_SMALL);
 3552              		.loc 1 317 52 discriminator 8 view .LVU779
 3553 06f2 03FB01F1 		mul	r1, r3, r1
 317:Drivers/lvgl/src/themes/default/lv_theme_default.c ****     lv_style_set_pad_gap(&theme->styles.pad_small, PAD_SMALL);
 3554              		.loc 1 317 5 discriminator 8 view .LVU780
 3555 06f6 EF29     		cmp	r1, #239
 3556 06f8 41F3AE81 		ble	.L291
 317:Drivers/lvgl/src/themes/default/lv_theme_default.c ****     lv_style_set_pad_gap(&theme->styles.pad_small, PAD_SMALL);
 3557              		.loc 1 317 52 discriminator 18 view .LVU781
 3558 06fc 5031     		adds	r1, r1, #80
 317:Drivers/lvgl/src/themes/default/lv_theme_default.c ****     lv_style_set_pad_gap(&theme->styles.pad_small, PAD_SMALL);
 3559              		.loc 1 317 5 discriminator 18 view .LVU782
 3560 06fe 104B     		ldr	r3, .L454
 3561 0700 83FB0123 		smull	r2, r3, r3, r1
 3562 0704 C917     		asrs	r1, r1, #31
 3563 0706 C1EBA311 		rsb	r1, r1, r3, asr #6
 3564              	.L152:
 317:Drivers/lvgl/src/themes/default/lv_theme_default.c ****     lv_style_set_pad_gap(&theme->styles.pad_small, PAD_SMALL);
 3565              		.loc 1 317 5 discriminator 20 view .LVU783
 3566 070a 2846     		mov	r0, r5
 3567 070c FFF7FEFF 		bl	lv_style_set_pad_all
 3568              	.LVL434:
 318:Drivers/lvgl/src/themes/default/lv_theme_default.c **** 
 3569              		.loc 1 318 5 is_stmt 1 view .LVU784
 318:Drivers/lvgl/src/themes/default/lv_theme_default.c **** 
 3570              		.loc 1 318 52 is_stmt 0 view .LVU785
ARM GAS  /var/folders/qx/2_175_4n2s19vhvtspjhb3qh0000gn/T//ccFV8cem.s 			page 108


 3571 0710 E16A     		ldr	r1, [r4, #44]
 3572 0712 94F82830 		ldrb	r3, [r4, #40]	@ zero_extendqisi2
 3573 0716 012B     		cmp	r3, #1
 3574 0718 01F0A481 		beq	.L292
 318:Drivers/lvgl/src/themes/default/lv_theme_default.c **** 
 3575              		.loc 1 318 52 discriminator 1 view .LVU786
 3576 071c 022B     		cmp	r3, #2
 3577 071e 01F09E81 		beq	.L415
 318:Drivers/lvgl/src/themes/default/lv_theme_default.c **** 
 3578              		.loc 1 318 52 discriminator 4 view .LVU787
 3579 0722 0A23     		movs	r3, #10
 3580              	.L153:
 318:Drivers/lvgl/src/themes/default/lv_theme_default.c **** 
 3581              		.loc 1 318 52 discriminator 8 view .LVU788
 3582 0724 03FB01F1 		mul	r1, r3, r1
 318:Drivers/lvgl/src/themes/default/lv_theme_default.c **** 
 3583              		.loc 1 318 5 discriminator 8 view .LVU789
 3584 0728 EF29     		cmp	r1, #239
 3585 072a 41F39E81 		ble	.L294
 318:Drivers/lvgl/src/themes/default/lv_theme_default.c **** 
 3586              		.loc 1 318 52 discriminator 18 view .LVU790
 3587 072e 5031     		adds	r1, r1, #80
 318:Drivers/lvgl/src/themes/default/lv_theme_default.c **** 
 3588              		.loc 1 318 5 discriminator 18 view .LVU791
 3589 0730 034B     		ldr	r3, .L454
 3590 0732 83FB0123 		smull	r2, r3, r3, r1
 3591 0736 C917     		asrs	r1, r1, #31
 3592 0738 C1EBA311 		rsb	r1, r1, r3, asr #6
 3593 073c 04E0     		b	.L455
 3594              	.L456:
 3595 073e 00BF     		.align	2
 3596              	.L454:
 3597 0740 67666666 		.word	1717986919
 3598 0744 00000000 		.word	lv_global
 3599              	.L455:
 3600              	.L154:
 318:Drivers/lvgl/src/themes/default/lv_theme_default.c **** 
 3601              		.loc 1 318 5 discriminator 20 view .LVU792
 3602 0748 2846     		mov	r0, r5
 3603 074a FFF7FEFF 		bl	lv_style_set_pad_gap
 3604              	.LVL435:
 320:Drivers/lvgl/src/themes/default/lv_theme_default.c ****     lv_style_set_pad_row(&theme->styles.pad_gap, LV_DPX_CALC(theme->disp_dpi, 10));
 3605              		.loc 1 320 5 is_stmt 1 view .LVU793
 3606 074e 04F58675 		add	r5, r4, #268
 3607 0752 2846     		mov	r0, r5
 3608 0754 FFF7FEFF 		bl	style_init_reset
 3609              	.LVL436:
 321:Drivers/lvgl/src/themes/default/lv_theme_default.c ****     lv_style_set_pad_column(&theme->styles.pad_gap, LV_DPX_CALC(theme->disp_dpi, 10));
 3610              		.loc 1 321 5 view .LVU794
 321:Drivers/lvgl/src/themes/default/lv_theme_default.c ****     lv_style_set_pad_column(&theme->styles.pad_gap, LV_DPX_CALC(theme->disp_dpi, 10));
 3611              		.loc 1 321 50 is_stmt 0 view .LVU795
 3612 0758 E36A     		ldr	r3, [r4, #44]
 3613 075a 03EB8303 		add	r3, r3, r3, lsl #2
 3614 075e 5B00     		lsls	r3, r3, #1
 321:Drivers/lvgl/src/themes/default/lv_theme_default.c ****     lv_style_set_pad_column(&theme->styles.pad_gap, LV_DPX_CALC(theme->disp_dpi, 10));
 3615              		.loc 1 321 5 view .LVU796
 3616 0760 EF2B     		cmp	r3, #239
ARM GAS  /var/folders/qx/2_175_4n2s19vhvtspjhb3qh0000gn/T//ccFV8cem.s 			page 109


 3617 0762 41F38581 		ble	.L295
 321:Drivers/lvgl/src/themes/default/lv_theme_default.c ****     lv_style_set_pad_column(&theme->styles.pad_gap, LV_DPX_CALC(theme->disp_dpi, 10));
 3618              		.loc 1 321 50 discriminator 1 view .LVU797
 3619 0766 5033     		adds	r3, r3, #80
 321:Drivers/lvgl/src/themes/default/lv_theme_default.c ****     lv_style_set_pad_column(&theme->styles.pad_gap, LV_DPX_CALC(theme->disp_dpi, 10));
 3620              		.loc 1 321 5 discriminator 1 view .LVU798
 3621 0768 D54A     		ldr	r2, .L457
 3622 076a 82FB0312 		smull	r1, r2, r2, r3
 3623 076e DB17     		asrs	r3, r3, #31
 3624 0770 C3EBA211 		rsb	r1, r3, r2, asr #6
 3625              	.L155:
 321:Drivers/lvgl/src/themes/default/lv_theme_default.c ****     lv_style_set_pad_column(&theme->styles.pad_gap, LV_DPX_CALC(theme->disp_dpi, 10));
 3626              		.loc 1 321 5 discriminator 4 view .LVU799
 3627 0774 2846     		mov	r0, r5
 3628 0776 FFF7FEFF 		bl	lv_style_set_pad_row
 3629              	.LVL437:
 322:Drivers/lvgl/src/themes/default/lv_theme_default.c **** 
 3630              		.loc 1 322 5 is_stmt 1 view .LVU800
 322:Drivers/lvgl/src/themes/default/lv_theme_default.c **** 
 3631              		.loc 1 322 53 is_stmt 0 view .LVU801
 3632 077a E36A     		ldr	r3, [r4, #44]
 3633 077c 03EB8303 		add	r3, r3, r3, lsl #2
 3634 0780 5B00     		lsls	r3, r3, #1
 322:Drivers/lvgl/src/themes/default/lv_theme_default.c **** 
 3635              		.loc 1 322 5 view .LVU802
 3636 0782 EF2B     		cmp	r3, #239
 3637 0784 41F37781 		ble	.L296
 322:Drivers/lvgl/src/themes/default/lv_theme_default.c **** 
 3638              		.loc 1 322 53 discriminator 1 view .LVU803
 3639 0788 5033     		adds	r3, r3, #80
 322:Drivers/lvgl/src/themes/default/lv_theme_default.c **** 
 3640              		.loc 1 322 5 discriminator 1 view .LVU804
 3641 078a CD4A     		ldr	r2, .L457
 3642 078c 82FB0312 		smull	r1, r2, r2, r3
 3643 0790 DB17     		asrs	r3, r3, #31
 3644 0792 C3EBA211 		rsb	r1, r3, r2, asr #6
 3645              	.L156:
 322:Drivers/lvgl/src/themes/default/lv_theme_default.c **** 
 3646              		.loc 1 322 5 discriminator 4 view .LVU805
 3647 0796 2846     		mov	r0, r5
 3648 0798 FFF7FEFF 		bl	lv_style_set_pad_column
 3649              	.LVL438:
 324:Drivers/lvgl/src/themes/default/lv_theme_default.c ****     lv_style_set_text_line_space(&theme->styles.line_space_large, LV_DPX_CALC(theme->disp_dpi, 20))
 3650              		.loc 1 324 5 is_stmt 1 view .LVU806
 3651 079c 04F58C75 		add	r5, r4, #280
 3652 07a0 2846     		mov	r0, r5
 3653 07a2 FFF7FEFF 		bl	style_init_reset
 3654              	.LVL439:
 325:Drivers/lvgl/src/themes/default/lv_theme_default.c **** 
 3655              		.loc 1 325 5 view .LVU807
 325:Drivers/lvgl/src/themes/default/lv_theme_default.c **** 
 3656              		.loc 1 325 67 is_stmt 0 view .LVU808
 3657 07a6 E36A     		ldr	r3, [r4, #44]
 3658 07a8 03EB8303 		add	r3, r3, r3, lsl #2
 3659 07ac 9B00     		lsls	r3, r3, #2
 325:Drivers/lvgl/src/themes/default/lv_theme_default.c **** 
 3660              		.loc 1 325 5 view .LVU809
ARM GAS  /var/folders/qx/2_175_4n2s19vhvtspjhb3qh0000gn/T//ccFV8cem.s 			page 110


 3661 07ae EF2B     		cmp	r3, #239
 3662 07b0 41F36481 		ble	.L297
 325:Drivers/lvgl/src/themes/default/lv_theme_default.c **** 
 3663              		.loc 1 325 67 discriminator 1 view .LVU810
 3664 07b4 5033     		adds	r3, r3, #80
 325:Drivers/lvgl/src/themes/default/lv_theme_default.c **** 
 3665              		.loc 1 325 5 discriminator 1 view .LVU811
 3666 07b6 C24A     		ldr	r2, .L457
 3667 07b8 82FB0312 		smull	r1, r2, r2, r3
 3668 07bc DB17     		asrs	r3, r3, #31
 3669 07be C3EBA211 		rsb	r1, r3, r2, asr #6
 3670              	.L157:
 325:Drivers/lvgl/src/themes/default/lv_theme_default.c **** 
 3671              		.loc 1 325 5 discriminator 4 view .LVU812
 3672 07c2 2846     		mov	r0, r5
 3673 07c4 FFF7FEFF 		bl	lv_style_set_text_line_space
 3674              	.LVL440:
 327:Drivers/lvgl/src/themes/default/lv_theme_default.c ****     lv_style_set_text_align(&theme->styles.text_align_center, LV_TEXT_ALIGN_CENTER);
 3675              		.loc 1 327 5 is_stmt 1 view .LVU813
 3676 07c8 04F59275 		add	r5, r4, #292
 3677 07cc 2846     		mov	r0, r5
 3678 07ce FFF7FEFF 		bl	style_init_reset
 3679              	.LVL441:
 328:Drivers/lvgl/src/themes/default/lv_theme_default.c **** 
 3680              		.loc 1 328 5 view .LVU814
 3681 07d2 0221     		movs	r1, #2
 3682 07d4 2846     		mov	r0, r5
 3683 07d6 FFF7FEFF 		bl	lv_style_set_text_align
 3684              	.LVL442:
 330:Drivers/lvgl/src/themes/default/lv_theme_default.c ****     lv_style_set_pad_all(&theme->styles.pad_zero, 0);
 3685              		.loc 1 330 5 view .LVU815
 3686 07da 04F1DC05 		add	r5, r4, #220
 3687 07de 2846     		mov	r0, r5
 3688 07e0 FFF7FEFF 		bl	style_init_reset
 3689              	.LVL443:
 331:Drivers/lvgl/src/themes/default/lv_theme_default.c ****     lv_style_set_pad_row(&theme->styles.pad_zero, 0);
 3690              		.loc 1 331 5 view .LVU816
 3691 07e4 0021     		movs	r1, #0
 3692 07e6 2846     		mov	r0, r5
 3693 07e8 FFF7FEFF 		bl	lv_style_set_pad_all
 3694              	.LVL444:
 332:Drivers/lvgl/src/themes/default/lv_theme_default.c ****     lv_style_set_pad_column(&theme->styles.pad_zero, 0);
 3695              		.loc 1 332 5 view .LVU817
 3696 07ec 0021     		movs	r1, #0
 3697 07ee 2846     		mov	r0, r5
 3698 07f0 FFF7FEFF 		bl	lv_style_set_pad_row
 3699              	.LVL445:
 333:Drivers/lvgl/src/themes/default/lv_theme_default.c **** 
 3700              		.loc 1 333 5 view .LVU818
 3701 07f4 0021     		movs	r1, #0
 3702 07f6 2846     		mov	r0, r5
 3703 07f8 FFF7FEFF 		bl	lv_style_set_pad_column
 3704              	.LVL446:
 335:Drivers/lvgl/src/themes/default/lv_theme_default.c ****     lv_style_set_pad_all(&theme->styles.pad_tiny, PAD_TINY);
 3705              		.loc 1 335 5 view .LVU819
 3706 07fc 04F1E805 		add	r5, r4, #232
 3707 0800 2846     		mov	r0, r5
ARM GAS  /var/folders/qx/2_175_4n2s19vhvtspjhb3qh0000gn/T//ccFV8cem.s 			page 111


 3708 0802 FFF7FEFF 		bl	style_init_reset
 3709              	.LVL447:
 336:Drivers/lvgl/src/themes/default/lv_theme_default.c ****     lv_style_set_pad_row(&theme->styles.pad_tiny, PAD_TINY);
 3710              		.loc 1 336 5 view .LVU820
 336:Drivers/lvgl/src/themes/default/lv_theme_default.c ****     lv_style_set_pad_row(&theme->styles.pad_tiny, PAD_TINY);
 3711              		.loc 1 336 51 is_stmt 0 view .LVU821
 3712 0806 E16A     		ldr	r1, [r4, #44]
 3713 0808 94F82830 		ldrb	r3, [r4, #40]	@ zero_extendqisi2
 3714 080c 012B     		cmp	r3, #1
 3715 080e 01F03B81 		beq	.L298
 336:Drivers/lvgl/src/themes/default/lv_theme_default.c ****     lv_style_set_pad_row(&theme->styles.pad_tiny, PAD_TINY);
 3716              		.loc 1 336 51 discriminator 1 view .LVU822
 3717 0812 022B     		cmp	r3, #2
 3718 0814 01F03581 		beq	.L416
 336:Drivers/lvgl/src/themes/default/lv_theme_default.c ****     lv_style_set_pad_row(&theme->styles.pad_tiny, PAD_TINY);
 3719              		.loc 1 336 51 discriminator 4 view .LVU823
 3720 0818 0223     		movs	r3, #2
 3721              	.L158:
 336:Drivers/lvgl/src/themes/default/lv_theme_default.c ****     lv_style_set_pad_row(&theme->styles.pad_tiny, PAD_TINY);
 3722              		.loc 1 336 51 discriminator 8 view .LVU824
 3723 081a 03FB01F1 		mul	r1, r3, r1
 336:Drivers/lvgl/src/themes/default/lv_theme_default.c ****     lv_style_set_pad_row(&theme->styles.pad_tiny, PAD_TINY);
 3724              		.loc 1 336 5 discriminator 8 view .LVU825
 3725 081e EF29     		cmp	r1, #239
 3726 0820 41F33581 		ble	.L300
 336:Drivers/lvgl/src/themes/default/lv_theme_default.c ****     lv_style_set_pad_row(&theme->styles.pad_tiny, PAD_TINY);
 3727              		.loc 1 336 51 discriminator 18 view .LVU826
 3728 0824 5031     		adds	r1, r1, #80
 336:Drivers/lvgl/src/themes/default/lv_theme_default.c ****     lv_style_set_pad_row(&theme->styles.pad_tiny, PAD_TINY);
 3729              		.loc 1 336 5 discriminator 18 view .LVU827
 3730 0826 A64B     		ldr	r3, .L457
 3731 0828 83FB0123 		smull	r2, r3, r3, r1
 3732 082c C917     		asrs	r1, r1, #31
 3733 082e C1EBA311 		rsb	r1, r1, r3, asr #6
 3734              	.L159:
 336:Drivers/lvgl/src/themes/default/lv_theme_default.c ****     lv_style_set_pad_row(&theme->styles.pad_tiny, PAD_TINY);
 3735              		.loc 1 336 5 discriminator 20 view .LVU828
 3736 0832 2846     		mov	r0, r5
 3737 0834 FFF7FEFF 		bl	lv_style_set_pad_all
 3738              	.LVL448:
 337:Drivers/lvgl/src/themes/default/lv_theme_default.c ****     lv_style_set_pad_column(&theme->styles.pad_tiny, PAD_TINY);
 3739              		.loc 1 337 5 is_stmt 1 view .LVU829
 337:Drivers/lvgl/src/themes/default/lv_theme_default.c ****     lv_style_set_pad_column(&theme->styles.pad_tiny, PAD_TINY);
 3740              		.loc 1 337 51 is_stmt 0 view .LVU830
 3741 0838 E16A     		ldr	r1, [r4, #44]
 3742 083a 94F82830 		ldrb	r3, [r4, #40]	@ zero_extendqisi2
 3743 083e 012B     		cmp	r3, #1
 3744 0840 01F02B81 		beq	.L301
 337:Drivers/lvgl/src/themes/default/lv_theme_default.c ****     lv_style_set_pad_column(&theme->styles.pad_tiny, PAD_TINY);
 3745              		.loc 1 337 51 discriminator 1 view .LVU831
 3746 0844 022B     		cmp	r3, #2
 3747 0846 01F02581 		beq	.L417
 337:Drivers/lvgl/src/themes/default/lv_theme_default.c ****     lv_style_set_pad_column(&theme->styles.pad_tiny, PAD_TINY);
 3748              		.loc 1 337 51 discriminator 4 view .LVU832
 3749 084a 0223     		movs	r3, #2
 3750              	.L160:
 337:Drivers/lvgl/src/themes/default/lv_theme_default.c ****     lv_style_set_pad_column(&theme->styles.pad_tiny, PAD_TINY);
ARM GAS  /var/folders/qx/2_175_4n2s19vhvtspjhb3qh0000gn/T//ccFV8cem.s 			page 112


 3751              		.loc 1 337 51 discriminator 8 view .LVU833
 3752 084c 03FB01F1 		mul	r1, r3, r1
 337:Drivers/lvgl/src/themes/default/lv_theme_default.c ****     lv_style_set_pad_column(&theme->styles.pad_tiny, PAD_TINY);
 3753              		.loc 1 337 5 discriminator 8 view .LVU834
 3754 0850 EF29     		cmp	r1, #239
 3755 0852 41F32581 		ble	.L303
 337:Drivers/lvgl/src/themes/default/lv_theme_default.c ****     lv_style_set_pad_column(&theme->styles.pad_tiny, PAD_TINY);
 3756              		.loc 1 337 51 discriminator 18 view .LVU835
 3757 0856 5031     		adds	r1, r1, #80
 337:Drivers/lvgl/src/themes/default/lv_theme_default.c ****     lv_style_set_pad_column(&theme->styles.pad_tiny, PAD_TINY);
 3758              		.loc 1 337 5 discriminator 18 view .LVU836
 3759 0858 994B     		ldr	r3, .L457
 3760 085a 83FB0123 		smull	r2, r3, r3, r1
 3761 085e C917     		asrs	r1, r1, #31
 3762 0860 C1EBA311 		rsb	r1, r1, r3, asr #6
 3763              	.L161:
 337:Drivers/lvgl/src/themes/default/lv_theme_default.c ****     lv_style_set_pad_column(&theme->styles.pad_tiny, PAD_TINY);
 3764              		.loc 1 337 5 discriminator 20 view .LVU837
 3765 0864 2846     		mov	r0, r5
 3766 0866 FFF7FEFF 		bl	lv_style_set_pad_row
 3767              	.LVL449:
 338:Drivers/lvgl/src/themes/default/lv_theme_default.c **** 
 3768              		.loc 1 338 5 is_stmt 1 view .LVU838
 338:Drivers/lvgl/src/themes/default/lv_theme_default.c **** 
 3769              		.loc 1 338 54 is_stmt 0 view .LVU839
 3770 086a E16A     		ldr	r1, [r4, #44]
 3771 086c 94F82830 		ldrb	r3, [r4, #40]	@ zero_extendqisi2
 3772 0870 012B     		cmp	r3, #1
 3773 0872 01F01B81 		beq	.L304
 338:Drivers/lvgl/src/themes/default/lv_theme_default.c **** 
 3774              		.loc 1 338 54 discriminator 1 view .LVU840
 3775 0876 022B     		cmp	r3, #2
 3776 0878 01F01581 		beq	.L418
 338:Drivers/lvgl/src/themes/default/lv_theme_default.c **** 
 3777              		.loc 1 338 54 discriminator 4 view .LVU841
 3778 087c 0223     		movs	r3, #2
 3779              	.L162:
 338:Drivers/lvgl/src/themes/default/lv_theme_default.c **** 
 3780              		.loc 1 338 54 discriminator 8 view .LVU842
 3781 087e 03FB01F1 		mul	r1, r3, r1
 338:Drivers/lvgl/src/themes/default/lv_theme_default.c **** 
 3782              		.loc 1 338 5 discriminator 8 view .LVU843
 3783 0882 EF29     		cmp	r1, #239
 3784 0884 41F31581 		ble	.L306
 338:Drivers/lvgl/src/themes/default/lv_theme_default.c **** 
 3785              		.loc 1 338 54 discriminator 18 view .LVU844
 3786 0888 5031     		adds	r1, r1, #80
 338:Drivers/lvgl/src/themes/default/lv_theme_default.c **** 
 3787              		.loc 1 338 5 discriminator 18 view .LVU845
 3788 088a 8D4B     		ldr	r3, .L457
 3789 088c 83FB0123 		smull	r2, r3, r3, r1
 3790 0890 C917     		asrs	r1, r1, #31
 3791 0892 C1EBA311 		rsb	r1, r1, r3, asr #6
 3792              	.L163:
 338:Drivers/lvgl/src/themes/default/lv_theme_default.c **** 
 3793              		.loc 1 338 5 discriminator 20 view .LVU846
 3794 0896 2846     		mov	r0, r5
ARM GAS  /var/folders/qx/2_175_4n2s19vhvtspjhb3qh0000gn/T//ccFV8cem.s 			page 113


 3795 0898 FFF7FEFF 		bl	lv_style_set_pad_column
 3796              	.LVL450:
 340:Drivers/lvgl/src/themes/default/lv_theme_default.c ****     lv_style_set_bg_color(&theme->styles.bg_color_primary, theme->base.color_primary);
 3797              		.loc 1 340 5 is_stmt 1 view .LVU847
 3798 089c 04F17C05 		add	r5, r4, #124
 3799 08a0 2846     		mov	r0, r5
 3800 08a2 FFF7FEFF 		bl	style_init_reset
 3801              	.LVL451:
 341:Drivers/lvgl/src/themes/default/lv_theme_default.c ****     lv_style_set_text_color(&theme->styles.bg_color_primary, lv_color_white());
 3802              		.loc 1 341 5 view .LVU848
 3803 08a6 2169     		ldr	r1, [r4, #16]
 3804 08a8 2846     		mov	r0, r5
 3805 08aa FFF7FEFF 		bl	lv_style_set_bg_color
 3806              	.LVL452:
 342:Drivers/lvgl/src/themes/default/lv_theme_default.c ****     lv_style_set_bg_opa(&theme->styles.bg_color_primary, LV_OPA_COVER);
 3807              		.loc 1 342 5 view .LVU849
 3808 08ae FFF7FEFF 		bl	lv_color_white
 3809              	.LVL453:
 3810 08b2 8DF82000 		strb	r0, [sp, #32]
 3811 08b6 C0F30723 		ubfx	r3, r0, #8, #8
 3812 08ba 8DF82130 		strb	r3, [sp, #33]
 3813 08be C0F30740 		ubfx	r0, r0, #16, #8
 3814 08c2 8DF82200 		strb	r0, [sp, #34]
 342:Drivers/lvgl/src/themes/default/lv_theme_default.c ****     lv_style_set_bg_opa(&theme->styles.bg_color_primary, LV_OPA_COVER);
 3815              		.loc 1 342 5 is_stmt 0 discriminator 1 view .LVU850
 3816 08c6 0899     		ldr	r1, [sp, #32]
 3817 08c8 2846     		mov	r0, r5
 3818 08ca FFF7FEFF 		bl	lv_style_set_text_color
 3819              	.LVL454:
 343:Drivers/lvgl/src/themes/default/lv_theme_default.c **** 
 3820              		.loc 1 343 5 is_stmt 1 view .LVU851
 3821 08ce FF21     		movs	r1, #255
 3822 08d0 2846     		mov	r0, r5
 3823 08d2 FFF7FEFF 		bl	lv_style_set_bg_opa
 3824              	.LVL455:
 345:Drivers/lvgl/src/themes/default/lv_theme_default.c ****     lv_style_set_bg_color(&theme->styles.bg_color_primary_muted, theme->base.color_primary);
 3825              		.loc 1 345 5 view .LVU852
 3826 08d6 04F18805 		add	r5, r4, #136
 3827 08da 2846     		mov	r0, r5
 3828 08dc FFF7FEFF 		bl	style_init_reset
 3829              	.LVL456:
 346:Drivers/lvgl/src/themes/default/lv_theme_default.c ****     lv_style_set_text_color(&theme->styles.bg_color_primary_muted, theme->base.color_primary);
 3830              		.loc 1 346 5 view .LVU853
 3831 08e0 2169     		ldr	r1, [r4, #16]
 3832 08e2 2846     		mov	r0, r5
 3833 08e4 FFF7FEFF 		bl	lv_style_set_bg_color
 3834              	.LVL457:
 347:Drivers/lvgl/src/themes/default/lv_theme_default.c ****     lv_style_set_bg_opa(&theme->styles.bg_color_primary_muted, LV_OPA_20);
 3835              		.loc 1 347 5 view .LVU854
 3836 08e8 2169     		ldr	r1, [r4, #16]
 3837 08ea 2846     		mov	r0, r5
 3838 08ec FFF7FEFF 		bl	lv_style_set_text_color
 3839              	.LVL458:
 348:Drivers/lvgl/src/themes/default/lv_theme_default.c **** 
 3840              		.loc 1 348 5 view .LVU855
 3841 08f0 3321     		movs	r1, #51
 3842 08f2 2846     		mov	r0, r5
ARM GAS  /var/folders/qx/2_175_4n2s19vhvtspjhb3qh0000gn/T//ccFV8cem.s 			page 114


 3843 08f4 FFF7FEFF 		bl	lv_style_set_bg_opa
 3844              	.LVL459:
 350:Drivers/lvgl/src/themes/default/lv_theme_default.c ****     lv_style_set_bg_color(&theme->styles.bg_color_secondary, theme->base.color_secondary);
 3845              		.loc 1 350 5 view .LVU856
 3846 08f8 04F19405 		add	r5, r4, #148
 3847 08fc 2846     		mov	r0, r5
 3848 08fe FFF7FEFF 		bl	style_init_reset
 3849              	.LVL460:
 351:Drivers/lvgl/src/themes/default/lv_theme_default.c ****     lv_style_set_text_color(&theme->styles.bg_color_secondary, lv_color_white());
 3850              		.loc 1 351 5 view .LVU857
 3851 0902 E37C     		ldrb	r3, [r4, #19]	@ zero_extendqisi2
 3852 0904 227D     		ldrb	r2, [r4, #20]	@ zero_extendqisi2
 3853 0906 43EA0223 		orr	r3, r3, r2, lsl #8
 3854 090a 617D     		ldrb	r1, [r4, #21]	@ zero_extendqisi2
 3855 090c 43EA0141 		orr	r1, r3, r1, lsl #16
 3856 0910 2846     		mov	r0, r5
 3857 0912 FFF7FEFF 		bl	lv_style_set_bg_color
 3858              	.LVL461:
 352:Drivers/lvgl/src/themes/default/lv_theme_default.c ****     lv_style_set_bg_opa(&theme->styles.bg_color_secondary, LV_OPA_COVER);
 3859              		.loc 1 352 5 view .LVU858
 3860 0916 FFF7FEFF 		bl	lv_color_white
 3861              	.LVL462:
 3862 091a 8DF82400 		strb	r0, [sp, #36]
 3863 091e C0F30723 		ubfx	r3, r0, #8, #8
 3864 0922 8DF82530 		strb	r3, [sp, #37]
 3865 0926 C0F30740 		ubfx	r0, r0, #16, #8
 3866 092a 8DF82600 		strb	r0, [sp, #38]
 352:Drivers/lvgl/src/themes/default/lv_theme_default.c ****     lv_style_set_bg_opa(&theme->styles.bg_color_secondary, LV_OPA_COVER);
 3867              		.loc 1 352 5 is_stmt 0 discriminator 1 view .LVU859
 3868 092e 0999     		ldr	r1, [sp, #36]
 3869 0930 2846     		mov	r0, r5
 3870 0932 FFF7FEFF 		bl	lv_style_set_text_color
 3871              	.LVL463:
 353:Drivers/lvgl/src/themes/default/lv_theme_default.c **** 
 3872              		.loc 1 353 5 is_stmt 1 view .LVU860
 3873 0936 FF21     		movs	r1, #255
 3874 0938 2846     		mov	r0, r5
 3875 093a FFF7FEFF 		bl	lv_style_set_bg_opa
 3876              	.LVL464:
 355:Drivers/lvgl/src/themes/default/lv_theme_default.c ****     lv_style_set_bg_color(&theme->styles.bg_color_secondary_muted, theme->base.color_secondary);
 3877              		.loc 1 355 5 view .LVU861
 3878 093e 04F1A005 		add	r5, r4, #160
 3879 0942 2846     		mov	r0, r5
 3880 0944 FFF7FEFF 		bl	style_init_reset
 3881              	.LVL465:
 356:Drivers/lvgl/src/themes/default/lv_theme_default.c ****     lv_style_set_text_color(&theme->styles.bg_color_secondary_muted, theme->base.color_secondary);
 3882              		.loc 1 356 5 view .LVU862
 3883 0948 E37C     		ldrb	r3, [r4, #19]	@ zero_extendqisi2
 3884 094a 227D     		ldrb	r2, [r4, #20]	@ zero_extendqisi2
 3885 094c 43EA0223 		orr	r3, r3, r2, lsl #8
 3886 0950 617D     		ldrb	r1, [r4, #21]	@ zero_extendqisi2
 3887 0952 43EA0141 		orr	r1, r3, r1, lsl #16
 3888 0956 2846     		mov	r0, r5
 3889 0958 FFF7FEFF 		bl	lv_style_set_bg_color
 3890              	.LVL466:
 357:Drivers/lvgl/src/themes/default/lv_theme_default.c ****     lv_style_set_bg_opa(&theme->styles.bg_color_secondary_muted, LV_OPA_20);
 3891              		.loc 1 357 5 view .LVU863
ARM GAS  /var/folders/qx/2_175_4n2s19vhvtspjhb3qh0000gn/T//ccFV8cem.s 			page 115


 3892 095c E37C     		ldrb	r3, [r4, #19]	@ zero_extendqisi2
 3893 095e 227D     		ldrb	r2, [r4, #20]	@ zero_extendqisi2
 3894 0960 43EA0223 		orr	r3, r3, r2, lsl #8
 3895 0964 617D     		ldrb	r1, [r4, #21]	@ zero_extendqisi2
 3896 0966 43EA0141 		orr	r1, r3, r1, lsl #16
 3897 096a 2846     		mov	r0, r5
 3898 096c FFF7FEFF 		bl	lv_style_set_text_color
 3899              	.LVL467:
 358:Drivers/lvgl/src/themes/default/lv_theme_default.c **** 
 3900              		.loc 1 358 5 view .LVU864
 3901 0970 3321     		movs	r1, #51
 3902 0972 2846     		mov	r0, r5
 3903 0974 FFF7FEFF 		bl	lv_style_set_bg_opa
 3904              	.LVL468:
 360:Drivers/lvgl/src/themes/default/lv_theme_default.c ****     lv_style_set_bg_color(&theme->styles.bg_color_grey, theme->color_grey);
 3905              		.loc 1 360 5 view .LVU865
 3906 0978 04F1AC05 		add	r5, r4, #172
 3907 097c 2846     		mov	r0, r5
 3908 097e FFF7FEFF 		bl	style_init_reset
 3909              	.LVL469:
 361:Drivers/lvgl/src/themes/default/lv_theme_default.c ****     lv_style_set_bg_opa(&theme->styles.bg_color_grey, LV_OPA_COVER);
 3910              		.loc 1 361 5 view .LVU866
 3911 0982 94F83930 		ldrb	r3, [r4, #57]	@ zero_extendqisi2
 3912 0986 94F83A20 		ldrb	r2, [r4, #58]	@ zero_extendqisi2
 3913 098a 43EA0223 		orr	r3, r3, r2, lsl #8
 3914 098e 94F83B10 		ldrb	r1, [r4, #59]	@ zero_extendqisi2
 3915 0992 43EA0141 		orr	r1, r3, r1, lsl #16
 3916 0996 2846     		mov	r0, r5
 3917 0998 FFF7FEFF 		bl	lv_style_set_bg_color
 3918              	.LVL470:
 362:Drivers/lvgl/src/themes/default/lv_theme_default.c ****     lv_style_set_text_color(&theme->styles.bg_color_grey, theme->color_text);
 3919              		.loc 1 362 5 view .LVU867
 3920 099c FF21     		movs	r1, #255
 3921 099e 2846     		mov	r0, r5
 3922 09a0 FFF7FEFF 		bl	lv_style_set_bg_opa
 3923              	.LVL471:
 363:Drivers/lvgl/src/themes/default/lv_theme_default.c **** 
 3924              		.loc 1 363 5 view .LVU868
 3925 09a4 94F83330 		ldrb	r3, [r4, #51]	@ zero_extendqisi2
 3926 09a8 94F83420 		ldrb	r2, [r4, #52]	@ zero_extendqisi2
 3927 09ac 43EA0223 		orr	r3, r3, r2, lsl #8
 3928 09b0 94F83510 		ldrb	r1, [r4, #53]	@ zero_extendqisi2
 3929 09b4 43EA0141 		orr	r1, r3, r1, lsl #16
 3930 09b8 2846     		mov	r0, r5
 3931 09ba FFF7FEFF 		bl	lv_style_set_text_color
 3932              	.LVL472:
 365:Drivers/lvgl/src/themes/default/lv_theme_default.c ****     lv_style_set_bg_color(&theme->styles.bg_color_white, theme->color_card);
 3933              		.loc 1 365 5 view .LVU869
 3934 09be 04F1B805 		add	r5, r4, #184
 3935 09c2 2846     		mov	r0, r5
 3936 09c4 FFF7FEFF 		bl	style_init_reset
 3937              	.LVL473:
 366:Drivers/lvgl/src/themes/default/lv_theme_default.c ****     lv_style_set_bg_opa(&theme->styles.bg_color_white, LV_OPA_COVER);
 3938              		.loc 1 366 5 view .LVU870
 3939 09c8 E38E     		ldrh	r3, [r4, #54]
 3940 09ca 94F83810 		ldrb	r1, [r4, #56]	@ zero_extendqisi2
 3941 09ce 43EA0141 		orr	r1, r3, r1, lsl #16
ARM GAS  /var/folders/qx/2_175_4n2s19vhvtspjhb3qh0000gn/T//ccFV8cem.s 			page 116


 3942 09d2 2846     		mov	r0, r5
 3943 09d4 FFF7FEFF 		bl	lv_style_set_bg_color
 3944              	.LVL474:
 367:Drivers/lvgl/src/themes/default/lv_theme_default.c ****     lv_style_set_text_color(&theme->styles.bg_color_white, theme->color_text);
 3945              		.loc 1 367 5 view .LVU871
 3946 09d8 FF21     		movs	r1, #255
 3947 09da 2846     		mov	r0, r5
 3948 09dc FFF7FEFF 		bl	lv_style_set_bg_opa
 3949              	.LVL475:
 368:Drivers/lvgl/src/themes/default/lv_theme_default.c **** 
 3950              		.loc 1 368 5 view .LVU872
 3951 09e0 94F83330 		ldrb	r3, [r4, #51]	@ zero_extendqisi2
 3952 09e4 94F83420 		ldrb	r2, [r4, #52]	@ zero_extendqisi2
 3953 09e8 43EA0223 		orr	r3, r3, r2, lsl #8
 3954 09ec 94F83510 		ldrb	r1, [r4, #53]	@ zero_extendqisi2
 3955 09f0 43EA0141 		orr	r1, r3, r1, lsl #16
 3956 09f4 2846     		mov	r0, r5
 3957 09f6 FFF7FEFF 		bl	lv_style_set_text_color
 3958              	.LVL476:
 370:Drivers/lvgl/src/themes/default/lv_theme_default.c ****     lv_style_set_radius(&theme->styles.circle, LV_RADIUS_CIRCLE);
 3959              		.loc 1 370 5 view .LVU873
 3960 09fa 04F5A475 		add	r5, r4, #328
 3961 09fe 2846     		mov	r0, r5
 3962 0a00 FFF7FEFF 		bl	style_init_reset
 3963              	.LVL477:
 371:Drivers/lvgl/src/themes/default/lv_theme_default.c **** 
 3964              		.loc 1 371 5 view .LVU874
 3965 0a04 47F6FF71 		movw	r1, #32767
 3966 0a08 2846     		mov	r0, r5
 3967 0a0a FFF7FEFF 		bl	lv_style_set_radius
 3968              	.LVL478:
 373:Drivers/lvgl/src/themes/default/lv_theme_default.c ****     lv_style_set_radius(&theme->styles.no_radius, 0);
 3969              		.loc 1 373 5 view .LVU875
 3970 0a0e 04F5AA75 		add	r5, r4, #340
 3971 0a12 2846     		mov	r0, r5
 3972 0a14 FFF7FEFF 		bl	style_init_reset
 3973              	.LVL479:
 374:Drivers/lvgl/src/themes/default/lv_theme_default.c **** 
 3974              		.loc 1 374 5 view .LVU876
 3975 0a18 0021     		movs	r1, #0
 3976 0a1a 2846     		mov	r0, r5
 3977 0a1c FFF7FEFF 		bl	lv_style_set_radius
 3978              	.LVL480:
 376:Drivers/lvgl/src/themes/default/lv_theme_default.c ****     lv_style_set_rotary_sensitivity(&theme->styles.rotary_scroll, theme->disp_dpi / 4 * 256);
 3979              		.loc 1 376 5 view .LVU877
 3980 0a20 04F5B675 		add	r5, r4, #364
 3981 0a24 2846     		mov	r0, r5
 3982 0a26 FFF7FEFF 		bl	style_init_reset
 3983              	.LVL481:
 377:Drivers/lvgl/src/themes/default/lv_theme_default.c **** 
 3984              		.loc 1 377 5 view .LVU878
 377:Drivers/lvgl/src/themes/default/lv_theme_default.c **** 
 3985              		.loc 1 377 72 is_stmt 0 view .LVU879
 3986 0a2a E16A     		ldr	r1, [r4, #44]
 377:Drivers/lvgl/src/themes/default/lv_theme_default.c **** 
 3987              		.loc 1 377 83 view .LVU880
 3988 0a2c 0029     		cmp	r1, #0
ARM GAS  /var/folders/qx/2_175_4n2s19vhvtspjhb3qh0000gn/T//ccFV8cem.s 			page 117


 3989 0a2e C1F24380 		blt	.L419
 3990              	.L164:
 3991 0a32 8910     		asrs	r1, r1, #2
 377:Drivers/lvgl/src/themes/default/lv_theme_default.c **** 
 3992              		.loc 1 377 5 view .LVU881
 3993 0a34 0902     		lsls	r1, r1, #8
 3994 0a36 2846     		mov	r0, r5
 3995 0a38 FFF7FEFF 		bl	lv_style_set_rotary_sensitivity
 3996              	.LVL482:
 380:Drivers/lvgl/src/themes/default/lv_theme_default.c ****     lv_style_set_transform_width(&theme->styles.grow, LV_DPX_CALC(theme->disp_dpi, 3));
 3997              		.loc 1 380 5 is_stmt 1 view .LVU882
 3998 0a3c 04F5BC75 		add	r5, r4, #376
 3999 0a40 2846     		mov	r0, r5
 4000 0a42 FFF7FEFF 		bl	style_init_reset
 4001              	.LVL483:
 381:Drivers/lvgl/src/themes/default/lv_theme_default.c ****     lv_style_set_transform_height(&theme->styles.grow, LV_DPX_CALC(theme->disp_dpi, 3));
 4002              		.loc 1 381 5 view .LVU883
 381:Drivers/lvgl/src/themes/default/lv_theme_default.c ****     lv_style_set_transform_height(&theme->styles.grow, LV_DPX_CALC(theme->disp_dpi, 3));
 4003              		.loc 1 381 55 is_stmt 0 view .LVU884
 4004 0a46 E16A     		ldr	r1, [r4, #44]
 4005 0a48 01EB4101 		add	r1, r1, r1, lsl #1
 381:Drivers/lvgl/src/themes/default/lv_theme_default.c ****     lv_style_set_transform_height(&theme->styles.grow, LV_DPX_CALC(theme->disp_dpi, 3));
 4006              		.loc 1 381 5 view .LVU885
 4007 0a4c EF29     		cmp	r1, #239
 4008 0a4e 41F33680 		ble	.L307
 381:Drivers/lvgl/src/themes/default/lv_theme_default.c ****     lv_style_set_transform_height(&theme->styles.grow, LV_DPX_CALC(theme->disp_dpi, 3));
 4009              		.loc 1 381 55 discriminator 1 view .LVU886
 4010 0a52 5031     		adds	r1, r1, #80
 381:Drivers/lvgl/src/themes/default/lv_theme_default.c ****     lv_style_set_transform_height(&theme->styles.grow, LV_DPX_CALC(theme->disp_dpi, 3));
 4011              		.loc 1 381 5 discriminator 1 view .LVU887
 4012 0a54 1A4B     		ldr	r3, .L457
 4013 0a56 83FB0123 		smull	r2, r3, r3, r1
 4014 0a5a C917     		asrs	r1, r1, #31
 4015 0a5c C1EBA311 		rsb	r1, r1, r3, asr #6
 4016              	.L165:
 381:Drivers/lvgl/src/themes/default/lv_theme_default.c ****     lv_style_set_transform_height(&theme->styles.grow, LV_DPX_CALC(theme->disp_dpi, 3));
 4017              		.loc 1 381 5 discriminator 4 view .LVU888
 4018 0a60 2846     		mov	r0, r5
 4019 0a62 FFF7FEFF 		bl	lv_style_set_transform_width
 4020              	.LVL484:
 382:Drivers/lvgl/src/themes/default/lv_theme_default.c **** #endif
 4021              		.loc 1 382 5 is_stmt 1 view .LVU889
 382:Drivers/lvgl/src/themes/default/lv_theme_default.c **** #endif
 4022              		.loc 1 382 56 is_stmt 0 view .LVU890
 4023 0a66 E16A     		ldr	r1, [r4, #44]
 4024 0a68 01EB4101 		add	r1, r1, r1, lsl #1
 382:Drivers/lvgl/src/themes/default/lv_theme_default.c **** #endif
 4025              		.loc 1 382 5 view .LVU891
 4026 0a6c EF29     		cmp	r1, #239
 4027 0a6e 41F32980 		ble	.L308
 382:Drivers/lvgl/src/themes/default/lv_theme_default.c **** #endif
 4028              		.loc 1 382 56 discriminator 1 view .LVU892
 4029 0a72 5031     		adds	r1, r1, #80
 382:Drivers/lvgl/src/themes/default/lv_theme_default.c **** #endif
 4030              		.loc 1 382 5 discriminator 1 view .LVU893
 4031 0a74 124B     		ldr	r3, .L457
 4032 0a76 83FB0123 		smull	r2, r3, r3, r1
ARM GAS  /var/folders/qx/2_175_4n2s19vhvtspjhb3qh0000gn/T//ccFV8cem.s 			page 118


 4033 0a7a C917     		asrs	r1, r1, #31
 4034 0a7c C1EBA311 		rsb	r1, r1, r3, asr #6
 4035              	.L166:
 382:Drivers/lvgl/src/themes/default/lv_theme_default.c **** #endif
 4036              		.loc 1 382 5 discriminator 4 view .LVU894
 4037 0a80 2846     		mov	r0, r5
 4038 0a82 FFF7FEFF 		bl	lv_style_set_transform_height
 4039              	.LVL485:
 385:Drivers/lvgl/src/themes/default/lv_theme_default.c ****     lv_style_set_bg_color(&theme->styles.knob, theme->base.color_primary);
 4040              		.loc 1 385 5 is_stmt 1 view .LVU895
 4041 0a86 04F5DA75 		add	r5, r4, #436
 4042 0a8a 2846     		mov	r0, r5
 4043 0a8c FFF7FEFF 		bl	style_init_reset
 4044              	.LVL486:
 386:Drivers/lvgl/src/themes/default/lv_theme_default.c ****     lv_style_set_bg_opa(&theme->styles.knob, LV_OPA_COVER);
 4045              		.loc 1 386 5 view .LVU896
 4046 0a90 2169     		ldr	r1, [r4, #16]
 4047 0a92 2846     		mov	r0, r5
 4048 0a94 FFF7FEFF 		bl	lv_style_set_bg_color
 4049              	.LVL487:
 387:Drivers/lvgl/src/themes/default/lv_theme_default.c ****     lv_style_set_pad_all(&theme->styles.knob, LV_DPX_CALC(theme->disp_dpi, 6));
 4050              		.loc 1 387 5 view .LVU897
 4051 0a98 FF21     		movs	r1, #255
 4052 0a9a 2846     		mov	r0, r5
 4053 0a9c FFF7FEFF 		bl	lv_style_set_bg_opa
 4054              	.LVL488:
 388:Drivers/lvgl/src/themes/default/lv_theme_default.c ****     lv_style_set_radius(&theme->styles.knob, LV_RADIUS_CIRCLE);
 4055              		.loc 1 388 5 view .LVU898
 388:Drivers/lvgl/src/themes/default/lv_theme_default.c ****     lv_style_set_radius(&theme->styles.knob, LV_RADIUS_CIRCLE);
 4056              		.loc 1 388 47 is_stmt 0 view .LVU899
 4057 0aa0 E36A     		ldr	r3, [r4, #44]
 4058 0aa2 03EB4303 		add	r3, r3, r3, lsl #1
 4059 0aa6 5B00     		lsls	r3, r3, #1
 388:Drivers/lvgl/src/themes/default/lv_theme_default.c ****     lv_style_set_radius(&theme->styles.knob, LV_RADIUS_CIRCLE);
 4060              		.loc 1 388 5 view .LVU900
 4061 0aa8 EF2B     		cmp	r3, #239
 4062 0aaa 41F30E80 		ble	.L309
 388:Drivers/lvgl/src/themes/default/lv_theme_default.c ****     lv_style_set_radius(&theme->styles.knob, LV_RADIUS_CIRCLE);
 4063              		.loc 1 388 47 discriminator 1 view .LVU901
 4064 0aae 5033     		adds	r3, r3, #80
 388:Drivers/lvgl/src/themes/default/lv_theme_default.c ****     lv_style_set_radius(&theme->styles.knob, LV_RADIUS_CIRCLE);
 4065              		.loc 1 388 5 discriminator 1 view .LVU902
 4066 0ab0 034A     		ldr	r2, .L457
 4067 0ab2 82FB0312 		smull	r1, r2, r2, r3
 4068 0ab6 DB17     		asrs	r3, r3, #31
 4069 0ab8 C3EBA211 		rsb	r1, r3, r2, asr #6
 4070 0abc 02E0     		b	.L458
 4071              	.L459:
 4072 0abe 00BF     		.align	2
 4073              	.L457:
 4074 0ac0 67666666 		.word	1717986919
 4075              	.L458:
 4076              	.L167:
 388:Drivers/lvgl/src/themes/default/lv_theme_default.c ****     lv_style_set_radius(&theme->styles.knob, LV_RADIUS_CIRCLE);
 4077              		.loc 1 388 5 discriminator 4 view .LVU903
 4078 0ac4 2846     		mov	r0, r5
 4079 0ac6 FFF7FEFF 		bl	lv_style_set_pad_all
ARM GAS  /var/folders/qx/2_175_4n2s19vhvtspjhb3qh0000gn/T//ccFV8cem.s 			page 119


 4080              	.LVL489:
 389:Drivers/lvgl/src/themes/default/lv_theme_default.c **** 
 4081              		.loc 1 389 5 is_stmt 1 view .LVU904
 4082 0aca 47F6FF71 		movw	r1, #32767
 4083 0ace 2846     		mov	r0, r5
 4084 0ad0 FFF7FEFF 		bl	lv_style_set_radius
 4085              	.LVL490:
 391:Drivers/lvgl/src/themes/default/lv_theme_default.c ****     lv_style_set_anim_duration(&theme->styles.anim, 200);
 4086              		.loc 1 391 5 view .LVU905
 4087 0ad4 04F5CE75 		add	r5, r4, #412
 4088 0ad8 2846     		mov	r0, r5
 4089 0ada FFF7FEFF 		bl	style_init_reset
 4090              	.LVL491:
 392:Drivers/lvgl/src/themes/default/lv_theme_default.c **** 
 4091              		.loc 1 392 5 view .LVU906
 4092 0ade C821     		movs	r1, #200
 4093 0ae0 2846     		mov	r0, r5
 4094 0ae2 FFF7FEFF 		bl	lv_style_set_anim_duration
 4095              	.LVL492:
 394:Drivers/lvgl/src/themes/default/lv_theme_default.c ****     lv_style_set_anim_duration(&theme->styles.anim_fast, 120);
 4096              		.loc 1 394 5 view .LVU907
 4097 0ae6 04F5D475 		add	r5, r4, #424
 4098 0aea 2846     		mov	r0, r5
 4099 0aec FFF7FEFF 		bl	style_init_reset
 4100              	.LVL493:
 395:Drivers/lvgl/src/themes/default/lv_theme_default.c **** 
 4101              		.loc 1 395 5 view .LVU908
 4102 0af0 7821     		movs	r1, #120
 4103 0af2 2846     		mov	r0, r5
 4104 0af4 FFF7FEFF 		bl	lv_style_set_anim_duration
 4105              	.LVL494:
 398:Drivers/lvgl/src/themes/default/lv_theme_default.c ****     lv_style_set_arc_color(&theme->styles.arc_indic, theme->color_grey);
 4106              		.loc 1 398 5 view .LVU909
 4107 0af8 04F5E075 		add	r5, r4, #448
 4108 0afc 2846     		mov	r0, r5
 4109 0afe FFF7FEFF 		bl	style_init_reset
 4110              	.LVL495:
 399:Drivers/lvgl/src/themes/default/lv_theme_default.c ****     lv_style_set_arc_width(&theme->styles.arc_indic, LV_DPX_CALC(theme->disp_dpi, 15));
 4111              		.loc 1 399 5 view .LVU910
 4112 0b02 94F83930 		ldrb	r3, [r4, #57]	@ zero_extendqisi2
 4113 0b06 94F83A20 		ldrb	r2, [r4, #58]	@ zero_extendqisi2
 4114 0b0a 43EA0223 		orr	r3, r3, r2, lsl #8
 4115 0b0e 94F83B10 		ldrb	r1, [r4, #59]	@ zero_extendqisi2
 4116 0b12 43EA0141 		orr	r1, r3, r1, lsl #16
 4117 0b16 2846     		mov	r0, r5
 4118 0b18 FFF7FEFF 		bl	lv_style_set_arc_color
 4119              	.LVL496:
 400:Drivers/lvgl/src/themes/default/lv_theme_default.c ****     lv_style_set_arc_rounded(&theme->styles.arc_indic, true);
 4120              		.loc 1 400 5 view .LVU911
 400:Drivers/lvgl/src/themes/default/lv_theme_default.c ****     lv_style_set_arc_rounded(&theme->styles.arc_indic, true);
 4121              		.loc 1 400 54 is_stmt 0 view .LVU912
 4122 0b1c E16A     		ldr	r1, [r4, #44]
 4123 0b1e C1EB0111 		rsb	r1, r1, r1, lsl #4
 400:Drivers/lvgl/src/themes/default/lv_theme_default.c ****     lv_style_set_arc_rounded(&theme->styles.arc_indic, true);
 4124              		.loc 1 400 5 view .LVU913
 4125 0b22 EF29     		cmp	r1, #239
 4126 0b24 40F3D487 		ble	.L310
ARM GAS  /var/folders/qx/2_175_4n2s19vhvtspjhb3qh0000gn/T//ccFV8cem.s 			page 120


 400:Drivers/lvgl/src/themes/default/lv_theme_default.c ****     lv_style_set_arc_rounded(&theme->styles.arc_indic, true);
 4127              		.loc 1 400 54 discriminator 1 view .LVU914
 4128 0b28 5031     		adds	r1, r1, #80
 400:Drivers/lvgl/src/themes/default/lv_theme_default.c ****     lv_style_set_arc_rounded(&theme->styles.arc_indic, true);
 4129              		.loc 1 400 5 discriminator 1 view .LVU915
 4130 0b2a E44B     		ldr	r3, .L460
 4131 0b2c 83FB0123 		smull	r2, r3, r3, r1
 4132 0b30 C917     		asrs	r1, r1, #31
 4133 0b32 C1EBA311 		rsb	r1, r1, r3, asr #6
 4134              	.L168:
 400:Drivers/lvgl/src/themes/default/lv_theme_default.c ****     lv_style_set_arc_rounded(&theme->styles.arc_indic, true);
 4135              		.loc 1 400 5 discriminator 4 view .LVU916
 4136 0b36 2846     		mov	r0, r5
 4137 0b38 FFF7FEFF 		bl	lv_style_set_arc_width
 4138              	.LVL497:
 401:Drivers/lvgl/src/themes/default/lv_theme_default.c **** 
 4139              		.loc 1 401 5 is_stmt 1 view .LVU917
 4140 0b3c 0121     		movs	r1, #1
 4141 0b3e 2846     		mov	r0, r5
 4142 0b40 FFF7FEFF 		bl	lv_style_set_arc_rounded
 4143              	.LVL498:
 403:Drivers/lvgl/src/themes/default/lv_theme_default.c ****     lv_style_set_arc_color(&theme->styles.arc_indic_primary, theme->base.color_primary);
 4144              		.loc 1 403 5 view .LVU918
 4145 0b44 04F5E675 		add	r5, r4, #460
 4146 0b48 2846     		mov	r0, r5
 4147 0b4a FFF7FEFF 		bl	style_init_reset
 4148              	.LVL499:
 404:Drivers/lvgl/src/themes/default/lv_theme_default.c **** #endif
 4149              		.loc 1 404 5 view .LVU919
 4150 0b4e 2169     		ldr	r1, [r4, #16]
 4151 0b50 2846     		mov	r0, r5
 4152 0b52 FFF7FEFF 		bl	lv_style_set_arc_color
 4153              	.LVL500:
 408:Drivers/lvgl/src/themes/default/lv_theme_default.c ****     lv_style_set_max_height(&theme->styles.dropdown_list, LV_DPI_DEF * 2);
 4154              		.loc 1 408 5 view .LVU920
 4155 0b56 04F5FE75 		add	r5, r4, #508
 4156 0b5a 2846     		mov	r0, r5
 4157 0b5c FFF7FEFF 		bl	style_init_reset
 4158              	.LVL501:
 409:Drivers/lvgl/src/themes/default/lv_theme_default.c **** #endif
 4159              		.loc 1 409 5 view .LVU921
 4160 0b60 4FF48271 		mov	r1, #260
 4161 0b64 2846     		mov	r0, r5
 4162 0b66 FFF7FEFF 		bl	lv_style_set_max_height
 4163              	.LVL502:
 412:Drivers/lvgl/src/themes/default/lv_theme_default.c ****     lv_style_set_pad_all(&theme->styles.cb_marker, LV_DPX_CALC(theme->disp_dpi, 3));
 4164              		.loc 1 412 5 view .LVU922
 4165 0b6a 04F50275 		add	r5, r4, #520
 4166 0b6e 2846     		mov	r0, r5
 4167 0b70 FFF7FEFF 		bl	style_init_reset
 4168              	.LVL503:
 413:Drivers/lvgl/src/themes/default/lv_theme_default.c ****     lv_style_set_border_width(&theme->styles.cb_marker, BORDER_WIDTH);
 4169              		.loc 1 413 5 view .LVU923
 413:Drivers/lvgl/src/themes/default/lv_theme_default.c ****     lv_style_set_border_width(&theme->styles.cb_marker, BORDER_WIDTH);
 4170              		.loc 1 413 52 is_stmt 0 view .LVU924
 4171 0b74 E16A     		ldr	r1, [r4, #44]
 4172 0b76 01EB4101 		add	r1, r1, r1, lsl #1
ARM GAS  /var/folders/qx/2_175_4n2s19vhvtspjhb3qh0000gn/T//ccFV8cem.s 			page 121


 413:Drivers/lvgl/src/themes/default/lv_theme_default.c ****     lv_style_set_border_width(&theme->styles.cb_marker, BORDER_WIDTH);
 4173              		.loc 1 413 5 view .LVU925
 4174 0b7a EF29     		cmp	r1, #239
 4175 0b7c 40F3AB87 		ble	.L311
 413:Drivers/lvgl/src/themes/default/lv_theme_default.c ****     lv_style_set_border_width(&theme->styles.cb_marker, BORDER_WIDTH);
 4176              		.loc 1 413 52 discriminator 1 view .LVU926
 4177 0b80 5031     		adds	r1, r1, #80
 413:Drivers/lvgl/src/themes/default/lv_theme_default.c ****     lv_style_set_border_width(&theme->styles.cb_marker, BORDER_WIDTH);
 4178              		.loc 1 413 5 discriminator 1 view .LVU927
 4179 0b82 CE4B     		ldr	r3, .L460
 4180 0b84 83FB0123 		smull	r2, r3, r3, r1
 4181 0b88 C917     		asrs	r1, r1, #31
 4182 0b8a C1EBA311 		rsb	r1, r1, r3, asr #6
 4183              	.L169:
 413:Drivers/lvgl/src/themes/default/lv_theme_default.c ****     lv_style_set_border_width(&theme->styles.cb_marker, BORDER_WIDTH);
 4184              		.loc 1 413 5 discriminator 4 view .LVU928
 4185 0b8e 2846     		mov	r0, r5
 4186 0b90 FFF7FEFF 		bl	lv_style_set_pad_all
 4187              	.LVL504:
 414:Drivers/lvgl/src/themes/default/lv_theme_default.c ****     lv_style_set_border_color(&theme->styles.cb_marker, theme->base.color_primary);
 4188              		.loc 1 414 5 is_stmt 1 view .LVU929
 414:Drivers/lvgl/src/themes/default/lv_theme_default.c ****     lv_style_set_border_color(&theme->styles.cb_marker, theme->base.color_primary);
 4189              		.loc 1 414 57 is_stmt 0 view .LVU930
 4190 0b94 E16A     		ldr	r1, [r4, #44]
 414:Drivers/lvgl/src/themes/default/lv_theme_default.c ****     lv_style_set_border_color(&theme->styles.cb_marker, theme->base.color_primary);
 4191              		.loc 1 414 5 view .LVU931
 4192 0b96 7729     		cmp	r1, #119
 4193 0b98 40F3A087 		ble	.L312
 414:Drivers/lvgl/src/themes/default/lv_theme_default.c ****     lv_style_set_border_color(&theme->styles.cb_marker, theme->base.color_primary);
 4194              		.loc 1 414 57 discriminator 1 view .LVU932
 4195 0b9c 2831     		adds	r1, r1, #40
 414:Drivers/lvgl/src/themes/default/lv_theme_default.c ****     lv_style_set_border_color(&theme->styles.cb_marker, theme->base.color_primary);
 4196              		.loc 1 414 5 discriminator 1 view .LVU933
 4197 0b9e C74B     		ldr	r3, .L460
 4198 0ba0 83FB0123 		smull	r2, r3, r3, r1
 4199 0ba4 C917     		asrs	r1, r1, #31
 4200 0ba6 C1EB6311 		rsb	r1, r1, r3, asr #5
 4201              	.L170:
 414:Drivers/lvgl/src/themes/default/lv_theme_default.c ****     lv_style_set_border_color(&theme->styles.cb_marker, theme->base.color_primary);
 4202              		.loc 1 414 5 discriminator 4 view .LVU934
 4203 0baa 2846     		mov	r0, r5
 4204 0bac FFF7FEFF 		bl	lv_style_set_border_width
 4205              	.LVL505:
 415:Drivers/lvgl/src/themes/default/lv_theme_default.c ****     lv_style_set_bg_color(&theme->styles.cb_marker, theme->color_card);
 4206              		.loc 1 415 5 is_stmt 1 view .LVU935
 4207 0bb0 2169     		ldr	r1, [r4, #16]
 4208 0bb2 2846     		mov	r0, r5
 4209 0bb4 FFF7FEFF 		bl	lv_style_set_border_color
 4210              	.LVL506:
 416:Drivers/lvgl/src/themes/default/lv_theme_default.c ****     lv_style_set_bg_opa(&theme->styles.cb_marker, LV_OPA_COVER);
 4211              		.loc 1 416 5 view .LVU936
 4212 0bb8 E38E     		ldrh	r3, [r4, #54]
 4213 0bba 94F83810 		ldrb	r1, [r4, #56]	@ zero_extendqisi2
 4214 0bbe 43EA0141 		orr	r1, r3, r1, lsl #16
 4215 0bc2 2846     		mov	r0, r5
 4216 0bc4 FFF7FEFF 		bl	lv_style_set_bg_color
 4217              	.LVL507:
ARM GAS  /var/folders/qx/2_175_4n2s19vhvtspjhb3qh0000gn/T//ccFV8cem.s 			page 122


 417:Drivers/lvgl/src/themes/default/lv_theme_default.c ****     lv_style_set_radius(&theme->styles.cb_marker, RADIUS_DEFAULT / 2);
 4218              		.loc 1 417 5 view .LVU937
 4219 0bc8 FF21     		movs	r1, #255
 4220 0bca 2846     		mov	r0, r5
 4221 0bcc FFF7FEFF 		bl	lv_style_set_bg_opa
 4222              	.LVL508:
 418:Drivers/lvgl/src/themes/default/lv_theme_default.c ****     lv_style_set_text_font(&theme->styles.cb_marker, theme->base.font_small);
 4223              		.loc 1 418 5 view .LVU938
 418:Drivers/lvgl/src/themes/default/lv_theme_default.c ****     lv_style_set_text_font(&theme->styles.cb_marker, theme->base.font_small);
 4224              		.loc 1 418 51 is_stmt 0 view .LVU939
 4225 0bd0 E16A     		ldr	r1, [r4, #44]
 4226 0bd2 94F82830 		ldrb	r3, [r4, #40]	@ zero_extendqisi2
 4227 0bd6 012B     		cmp	r3, #1
 4228 0bd8 00F08387 		beq	.L420
 418:Drivers/lvgl/src/themes/default/lv_theme_default.c ****     lv_style_set_text_font(&theme->styles.cb_marker, theme->base.font_small);
 4229              		.loc 1 418 51 discriminator 2 view .LVU940
 4230 0bdc 0823     		movs	r3, #8
 4231              	.L171:
 418:Drivers/lvgl/src/themes/default/lv_theme_default.c ****     lv_style_set_text_font(&theme->styles.cb_marker, theme->base.font_small);
 4232              		.loc 1 418 51 discriminator 4 view .LVU941
 4233 0bde 03FB01F1 		mul	r1, r3, r1
 418:Drivers/lvgl/src/themes/default/lv_theme_default.c ****     lv_style_set_text_font(&theme->styles.cb_marker, theme->base.font_small);
 4234              		.loc 1 418 5 discriminator 4 view .LVU942
 4235 0be2 EF29     		cmp	r1, #239
 4236 0be4 40F38087 		ble	.L314
 418:Drivers/lvgl/src/themes/default/lv_theme_default.c ****     lv_style_set_text_font(&theme->styles.cb_marker, theme->base.font_small);
 4237              		.loc 1 418 51 discriminator 10 view .LVU943
 4238 0be8 5031     		adds	r1, r1, #80
 418:Drivers/lvgl/src/themes/default/lv_theme_default.c ****     lv_style_set_text_font(&theme->styles.cb_marker, theme->base.font_small);
 4239              		.loc 1 418 5 discriminator 10 view .LVU944
 4240 0bea B44B     		ldr	r3, .L460
 4241 0bec 83FB0123 		smull	r2, r3, r3, r1
 4242 0bf0 C917     		asrs	r1, r1, #31
 4243 0bf2 C1EBE311 		rsb	r1, r1, r3, asr #7
 4244              	.L172:
 418:Drivers/lvgl/src/themes/default/lv_theme_default.c ****     lv_style_set_text_font(&theme->styles.cb_marker, theme->base.font_small);
 4245              		.loc 1 418 5 discriminator 12 view .LVU945
 4246 0bf6 2846     		mov	r0, r5
 4247 0bf8 FFF7FEFF 		bl	lv_style_set_radius
 4248              	.LVL509:
 419:Drivers/lvgl/src/themes/default/lv_theme_default.c ****     lv_style_set_text_color(&theme->styles.cb_marker, lv_color_white());
 4249              		.loc 1 419 5 is_stmt 1 view .LVU946
 4250 0bfc A169     		ldr	r1, [r4, #24]
 4251 0bfe 2846     		mov	r0, r5
 4252 0c00 FFF7FEFF 		bl	lv_style_set_text_font
 4253              	.LVL510:
 420:Drivers/lvgl/src/themes/default/lv_theme_default.c **** 
 4254              		.loc 1 420 5 view .LVU947
 4255 0c04 FFF7FEFF 		bl	lv_color_white
 4256              	.LVL511:
 4257 0c08 8DF82800 		strb	r0, [sp, #40]
 4258 0c0c C0F30723 		ubfx	r3, r0, #8, #8
 4259 0c10 8DF82930 		strb	r3, [sp, #41]
 4260 0c14 C0F30740 		ubfx	r0, r0, #16, #8
 4261 0c18 8DF82A00 		strb	r0, [sp, #42]
 420:Drivers/lvgl/src/themes/default/lv_theme_default.c **** 
 4262              		.loc 1 420 5 is_stmt 0 discriminator 1 view .LVU948
ARM GAS  /var/folders/qx/2_175_4n2s19vhvtspjhb3qh0000gn/T//ccFV8cem.s 			page 123


 4263 0c1c 0A99     		ldr	r1, [sp, #40]
 4264 0c1e 2846     		mov	r0, r5
 4265 0c20 FFF7FEFF 		bl	lv_style_set_text_color
 4266              	.LVL512:
 422:Drivers/lvgl/src/themes/default/lv_theme_default.c ****     lv_style_set_bg_image_src(&theme->styles.cb_marker_checked, LV_SYMBOL_OK);
 4267              		.loc 1 422 5 is_stmt 1 view .LVU949
 4268 0c24 04F50575 		add	r5, r4, #532
 4269 0c28 2846     		mov	r0, r5
 4270 0c2a FFF7FEFF 		bl	style_init_reset
 4271              	.LVL513:
 423:Drivers/lvgl/src/themes/default/lv_theme_default.c **** #endif
 4272              		.loc 1 423 5 view .LVU950
 4273 0c2e A449     		ldr	r1, .L460+4
 4274 0c30 2846     		mov	r0, r5
 4275 0c32 FFF7FEFF 		bl	lv_style_set_bg_image_src
 4276              	.LVL514:
 427:Drivers/lvgl/src/themes/default/lv_theme_default.c ****     lv_style_set_pad_all(&theme->styles.switch_knob, - LV_DPX_CALC(theme->disp_dpi, 4));
 4277              		.loc 1 427 5 view .LVU951
 4278 0c36 04F50875 		add	r5, r4, #544
 4279 0c3a 2846     		mov	r0, r5
 4280 0c3c FFF7FEFF 		bl	style_init_reset
 4281              	.LVL515:
 428:Drivers/lvgl/src/themes/default/lv_theme_default.c ****     lv_style_set_bg_color(&theme->styles.switch_knob, lv_color_white());
 4282              		.loc 1 428 5 view .LVU952
 428:Drivers/lvgl/src/themes/default/lv_theme_default.c ****     lv_style_set_bg_color(&theme->styles.switch_knob, lv_color_white());
 4283              		.loc 1 428 56 is_stmt 0 view .LVU953
 4284 0c40 E16A     		ldr	r1, [r4, #44]
 428:Drivers/lvgl/src/themes/default/lv_theme_default.c ****     lv_style_set_bg_color(&theme->styles.switch_knob, lv_color_white());
 4285              		.loc 1 428 5 view .LVU954
 4286 0c42 3B29     		cmp	r1, #59
 4287 0c44 40F35387 		ble	.L315
 428:Drivers/lvgl/src/themes/default/lv_theme_default.c ****     lv_style_set_bg_color(&theme->styles.switch_knob, lv_color_white());
 4288              		.loc 1 428 56 discriminator 1 view .LVU955
 4289 0c48 1431     		adds	r1, r1, #20
 428:Drivers/lvgl/src/themes/default/lv_theme_default.c ****     lv_style_set_bg_color(&theme->styles.switch_knob, lv_color_white());
 4290              		.loc 1 428 5 discriminator 1 view .LVU956
 4291 0c4a 9C4B     		ldr	r3, .L460
 4292 0c4c 83FB0123 		smull	r2, r3, r3, r1
 4293 0c50 C917     		asrs	r1, r1, #31
 4294 0c52 A1EB2311 		sub	r1, r1, r3, asr #4
 4295              	.L173:
 428:Drivers/lvgl/src/themes/default/lv_theme_default.c ****     lv_style_set_bg_color(&theme->styles.switch_knob, lv_color_white());
 4296              		.loc 1 428 5 discriminator 4 view .LVU957
 4297 0c56 2846     		mov	r0, r5
 4298 0c58 FFF7FEFF 		bl	lv_style_set_pad_all
 4299              	.LVL516:
 429:Drivers/lvgl/src/themes/default/lv_theme_default.c **** #endif
 4300              		.loc 1 429 5 is_stmt 1 view .LVU958
 4301 0c5c FFF7FEFF 		bl	lv_color_white
 4302              	.LVL517:
 4303 0c60 8DF82C00 		strb	r0, [sp, #44]
 4304 0c64 C0F30723 		ubfx	r3, r0, #8, #8
 4305 0c68 8DF82D30 		strb	r3, [sp, #45]
 4306 0c6c C0F30740 		ubfx	r0, r0, #16, #8
 4307 0c70 8DF82E00 		strb	r0, [sp, #46]
 429:Drivers/lvgl/src/themes/default/lv_theme_default.c **** #endif
 4308              		.loc 1 429 5 is_stmt 0 discriminator 1 view .LVU959
ARM GAS  /var/folders/qx/2_175_4n2s19vhvtspjhb3qh0000gn/T//ccFV8cem.s 			page 124


 4309 0c74 0B99     		ldr	r1, [sp, #44]
 4310 0c76 2846     		mov	r0, r5
 4311 0c78 FFF7FEFF 		bl	lv_style_set_bg_color
 4312              	.LVL518:
 433:Drivers/lvgl/src/themes/default/lv_theme_default.c ****     lv_style_set_line_width(&theme->styles.line, 1);
 4313              		.loc 1 433 5 is_stmt 1 view .LVU960
 4314 0c7c 04F50B75 		add	r5, r4, #556
 4315 0c80 2846     		mov	r0, r5
 4316 0c82 FFF7FEFF 		bl	style_init_reset
 4317              	.LVL519:
 434:Drivers/lvgl/src/themes/default/lv_theme_default.c ****     lv_style_set_line_color(&theme->styles.line, theme->color_text);
 4318              		.loc 1 434 5 view .LVU961
 4319 0c86 0121     		movs	r1, #1
 4320 0c88 2846     		mov	r0, r5
 4321 0c8a FFF7FEFF 		bl	lv_style_set_line_width
 4322              	.LVL520:
 435:Drivers/lvgl/src/themes/default/lv_theme_default.c **** #endif
 4323              		.loc 1 435 5 view .LVU962
 4324 0c8e 94F83330 		ldrb	r3, [r4, #51]	@ zero_extendqisi2
 4325 0c92 94F83420 		ldrb	r2, [r4, #52]	@ zero_extendqisi2
 4326 0c96 43EA0223 		orr	r3, r3, r2, lsl #8
 4327 0c9a 94F83510 		ldrb	r1, [r4, #53]	@ zero_extendqisi2
 4328 0c9e 43EA0141 		orr	r1, r3, r1, lsl #16
 4329 0ca2 2846     		mov	r0, r5
 4330 0ca4 FFF7FEFF 		bl	lv_style_set_line_color
 4331              	.LVL521:
 439:Drivers/lvgl/src/themes/default/lv_theme_default.c ****     lv_style_set_border_post(&theme->styles.chart_bg, false);
 4332              		.loc 1 439 5 view .LVU963
 4333 0ca8 04F5F875 		add	r5, r4, #496
 4334 0cac 2846     		mov	r0, r5
 4335 0cae FFF7FEFF 		bl	style_init_reset
 4336              	.LVL522:
 440:Drivers/lvgl/src/themes/default/lv_theme_default.c ****     lv_style_set_pad_column(&theme->styles.chart_bg, LV_DPX_CALC(theme->disp_dpi, 10));
 4337              		.loc 1 440 5 view .LVU964
 4338 0cb2 0021     		movs	r1, #0
 4339 0cb4 2846     		mov	r0, r5
 4340 0cb6 FFF7FEFF 		bl	lv_style_set_border_post
 4341              	.LVL523:
 441:Drivers/lvgl/src/themes/default/lv_theme_default.c ****     lv_style_set_line_color(&theme->styles.chart_bg, theme->color_grey);
 4342              		.loc 1 441 5 view .LVU965
 441:Drivers/lvgl/src/themes/default/lv_theme_default.c ****     lv_style_set_line_color(&theme->styles.chart_bg, theme->color_grey);
 4343              		.loc 1 441 54 is_stmt 0 view .LVU966
 4344 0cba E36A     		ldr	r3, [r4, #44]
 4345 0cbc 03EB8303 		add	r3, r3, r3, lsl #2
 4346 0cc0 5B00     		lsls	r3, r3, #1
 441:Drivers/lvgl/src/themes/default/lv_theme_default.c ****     lv_style_set_line_color(&theme->styles.chart_bg, theme->color_grey);
 4347              		.loc 1 441 5 view .LVU967
 4348 0cc2 EF2B     		cmp	r3, #239
 4349 0cc4 40F31787 		ble	.L316
 441:Drivers/lvgl/src/themes/default/lv_theme_default.c ****     lv_style_set_line_color(&theme->styles.chart_bg, theme->color_grey);
 4350              		.loc 1 441 54 discriminator 1 view .LVU968
 4351 0cc8 5033     		adds	r3, r3, #80
 441:Drivers/lvgl/src/themes/default/lv_theme_default.c ****     lv_style_set_line_color(&theme->styles.chart_bg, theme->color_grey);
 4352              		.loc 1 441 5 discriminator 1 view .LVU969
 4353 0cca 7C4A     		ldr	r2, .L460
 4354 0ccc 82FB0312 		smull	r1, r2, r2, r3
 4355 0cd0 DB17     		asrs	r3, r3, #31
ARM GAS  /var/folders/qx/2_175_4n2s19vhvtspjhb3qh0000gn/T//ccFV8cem.s 			page 125


 4356 0cd2 C3EBA211 		rsb	r1, r3, r2, asr #6
 4357              	.L174:
 441:Drivers/lvgl/src/themes/default/lv_theme_default.c ****     lv_style_set_line_color(&theme->styles.chart_bg, theme->color_grey);
 4358              		.loc 1 441 5 discriminator 4 view .LVU970
 4359 0cd6 2846     		mov	r0, r5
 4360 0cd8 FFF7FEFF 		bl	lv_style_set_pad_column
 4361              	.LVL524:
 442:Drivers/lvgl/src/themes/default/lv_theme_default.c **** 
 4362              		.loc 1 442 5 is_stmt 1 view .LVU971
 4363 0cdc 94F83930 		ldrb	r3, [r4, #57]	@ zero_extendqisi2
 4364 0ce0 94F83A20 		ldrb	r2, [r4, #58]	@ zero_extendqisi2
 4365 0ce4 43EA0223 		orr	r3, r3, r2, lsl #8
 4366 0ce8 94F83B10 		ldrb	r1, [r4, #59]	@ zero_extendqisi2
 4367 0cec 43EA0141 		orr	r1, r3, r1, lsl #16
 4368 0cf0 2846     		mov	r0, r5
 4369 0cf2 FFF7FEFF 		bl	lv_style_set_line_color
 4370              	.LVL525:
 444:Drivers/lvgl/src/themes/default/lv_theme_default.c ****     lv_style_set_line_width(&theme->styles.chart_series, LV_DPX_CALC(theme->disp_dpi, 3));
 4371              		.loc 1 444 5 view .LVU972
 4372 0cf6 04F5EC76 		add	r6, r4, #472
 4373 0cfa 3046     		mov	r0, r6
 4374 0cfc FFF7FEFF 		bl	style_init_reset
 4375              	.LVL526:
 445:Drivers/lvgl/src/themes/default/lv_theme_default.c ****     lv_style_set_radius(&theme->styles.chart_series, LV_DPX_CALC(theme->disp_dpi, 3));
 4376              		.loc 1 445 5 view .LVU973
 445:Drivers/lvgl/src/themes/default/lv_theme_default.c ****     lv_style_set_radius(&theme->styles.chart_series, LV_DPX_CALC(theme->disp_dpi, 3));
 4377              		.loc 1 445 58 is_stmt 0 view .LVU974
 4378 0d00 E16A     		ldr	r1, [r4, #44]
 4379 0d02 01EB4101 		add	r1, r1, r1, lsl #1
 445:Drivers/lvgl/src/themes/default/lv_theme_default.c ****     lv_style_set_radius(&theme->styles.chart_series, LV_DPX_CALC(theme->disp_dpi, 3));
 4380              		.loc 1 445 5 view .LVU975
 4381 0d06 EF29     		cmp	r1, #239
 4382 0d08 40F3F886 		ble	.L317
 445:Drivers/lvgl/src/themes/default/lv_theme_default.c ****     lv_style_set_radius(&theme->styles.chart_series, LV_DPX_CALC(theme->disp_dpi, 3));
 4383              		.loc 1 445 58 discriminator 1 view .LVU976
 4384 0d0c 5031     		adds	r1, r1, #80
 445:Drivers/lvgl/src/themes/default/lv_theme_default.c ****     lv_style_set_radius(&theme->styles.chart_series, LV_DPX_CALC(theme->disp_dpi, 3));
 4385              		.loc 1 445 5 discriminator 1 view .LVU977
 4386 0d0e 6B4B     		ldr	r3, .L460
 4387 0d10 83FB0123 		smull	r2, r3, r3, r1
 4388 0d14 C917     		asrs	r1, r1, #31
 4389 0d16 C1EBA311 		rsb	r1, r1, r3, asr #6
 4390              	.L175:
 445:Drivers/lvgl/src/themes/default/lv_theme_default.c ****     lv_style_set_radius(&theme->styles.chart_series, LV_DPX_CALC(theme->disp_dpi, 3));
 4391              		.loc 1 445 5 discriminator 4 view .LVU978
 4392 0d1a 3046     		mov	r0, r6
 4393 0d1c FFF7FEFF 		bl	lv_style_set_line_width
 4394              	.LVL527:
 446:Drivers/lvgl/src/themes/default/lv_theme_default.c **** 
 4395              		.loc 1 446 5 is_stmt 1 view .LVU979
 446:Drivers/lvgl/src/themes/default/lv_theme_default.c **** 
 4396              		.loc 1 446 54 is_stmt 0 view .LVU980
 4397 0d20 E16A     		ldr	r1, [r4, #44]
 4398 0d22 01EB4101 		add	r1, r1, r1, lsl #1
 446:Drivers/lvgl/src/themes/default/lv_theme_default.c **** 
 4399              		.loc 1 446 5 view .LVU981
 4400 0d26 EF29     		cmp	r1, #239
ARM GAS  /var/folders/qx/2_175_4n2s19vhvtspjhb3qh0000gn/T//ccFV8cem.s 			page 126


 4401 0d28 40F3EB86 		ble	.L318
 446:Drivers/lvgl/src/themes/default/lv_theme_default.c **** 
 4402              		.loc 1 446 54 discriminator 1 view .LVU982
 4403 0d2c 5031     		adds	r1, r1, #80
 446:Drivers/lvgl/src/themes/default/lv_theme_default.c **** 
 4404              		.loc 1 446 5 discriminator 1 view .LVU983
 4405 0d2e 634B     		ldr	r3, .L460
 4406 0d30 83FB0123 		smull	r2, r3, r3, r1
 4407 0d34 C917     		asrs	r1, r1, #31
 4408 0d36 C1EBA311 		rsb	r1, r1, r3, asr #6
 4409              	.L176:
 446:Drivers/lvgl/src/themes/default/lv_theme_default.c **** 
 4410              		.loc 1 446 5 discriminator 4 view .LVU984
 4411 0d3a 3046     		mov	r0, r6
 4412 0d3c FFF7FEFF 		bl	lv_style_set_radius
 4413              	.LVL528:
 448:Drivers/lvgl/src/themes/default/lv_theme_default.c ****     lv_style_set_size(&theme->styles.chart_series, chart_size, chart_size);
 4414              		.loc 1 448 5 is_stmt 1 view .LVU985
 448:Drivers/lvgl/src/themes/default/lv_theme_default.c ****     lv_style_set_size(&theme->styles.chart_series, chart_size, chart_size);
 4415              		.loc 1 448 26 is_stmt 0 view .LVU986
 4416 0d40 E56A     		ldr	r5, [r4, #44]
 4417 0d42 1D2D     		cmp	r5, #29
 4418 0d44 40F3E086 		ble	.L319
 448:Drivers/lvgl/src/themes/default/lv_theme_default.c ****     lv_style_set_size(&theme->styles.chart_series, chart_size, chart_size);
 4419              		.loc 1 448 26 discriminator 1 view .LVU987
 4420 0d48 0A35     		adds	r5, r5, #10
 4421 0d4a 5C4B     		ldr	r3, .L460
 4422 0d4c 83FB0523 		smull	r2, r3, r3, r5
 4423 0d50 ED17     		asrs	r5, r5, #31
 4424 0d52 C5EBE305 		rsb	r5, r5, r3, asr #3
 4425              	.L177:
 4426              	.LVL529:
 449:Drivers/lvgl/src/themes/default/lv_theme_default.c ****     lv_style_set_pad_column(&theme->styles.chart_series, LV_DPX_CALC(theme->disp_dpi, 2));
 4427              		.loc 1 449 5 is_stmt 1 view .LVU988
 4428              	.LBB7:
 4429              	.LBI7:
 557:Drivers/lvgl/src/themes/default/../../../src/core/../misc/lv_style.h **** {
 4430              		.loc 2 557 20 view .LVU989
 4431              	.LBB8:
 559:Drivers/lvgl/src/themes/default/../../../src/core/../misc/lv_style.h ****     lv_style_set_height(style, height);
 4432              		.loc 2 559 5 view .LVU990
 4433 0d56 2946     		mov	r1, r5
 4434 0d58 3046     		mov	r0, r6
 4435 0d5a FFF7FEFF 		bl	lv_style_set_width
 4436              	.LVL530:
 560:Drivers/lvgl/src/themes/default/../../../src/core/../misc/lv_style.h **** }
 4437              		.loc 2 560 5 view .LVU991
 4438 0d5e 2946     		mov	r1, r5
 4439 0d60 3046     		mov	r0, r6
 4440 0d62 FFF7FEFF 		bl	lv_style_set_height
 4441              	.LVL531:
 560:Drivers/lvgl/src/themes/default/../../../src/core/../misc/lv_style.h **** }
 4442              		.loc 2 560 5 is_stmt 0 view .LVU992
 4443              	.LBE8:
 4444              	.LBE7:
 450:Drivers/lvgl/src/themes/default/lv_theme_default.c **** 
 4445              		.loc 1 450 5 is_stmt 1 view .LVU993
ARM GAS  /var/folders/qx/2_175_4n2s19vhvtspjhb3qh0000gn/T//ccFV8cem.s 			page 127


 450:Drivers/lvgl/src/themes/default/lv_theme_default.c **** 
 4446              		.loc 1 450 58 is_stmt 0 view .LVU994
 4447 0d66 E16A     		ldr	r1, [r4, #44]
 450:Drivers/lvgl/src/themes/default/lv_theme_default.c **** 
 4448              		.loc 1 450 5 view .LVU995
 4449 0d68 7729     		cmp	r1, #119
 4450 0d6a 40F3D086 		ble	.L320
 450:Drivers/lvgl/src/themes/default/lv_theme_default.c **** 
 4451              		.loc 1 450 58 discriminator 1 view .LVU996
 4452 0d6e 2831     		adds	r1, r1, #40
 450:Drivers/lvgl/src/themes/default/lv_theme_default.c **** 
 4453              		.loc 1 450 5 discriminator 1 view .LVU997
 4454 0d70 524B     		ldr	r3, .L460
 4455 0d72 83FB0123 		smull	r2, r3, r3, r1
 4456 0d76 C917     		asrs	r1, r1, #31
 4457 0d78 C1EB6311 		rsb	r1, r1, r3, asr #5
 4458              	.L178:
 450:Drivers/lvgl/src/themes/default/lv_theme_default.c **** 
 4459              		.loc 1 450 5 discriminator 4 view .LVU998
 4460 0d7c 3046     		mov	r0, r6
 4461 0d7e FFF7FEFF 		bl	lv_style_set_pad_column
 4462              	.LVL532:
 452:Drivers/lvgl/src/themes/default/lv_theme_default.c ****     lv_style_set_radius(&theme->styles.chart_indic, LV_RADIUS_CIRCLE);
 4463              		.loc 1 452 5 is_stmt 1 view .LVU999
 4464 0d82 04F5F276 		add	r6, r4, #484
 4465 0d86 3046     		mov	r0, r6
 4466 0d88 FFF7FEFF 		bl	style_init_reset
 4467              	.LVL533:
 453:Drivers/lvgl/src/themes/default/lv_theme_default.c ****     lv_style_set_size(&theme->styles.chart_indic, chart_size, chart_size);
 4468              		.loc 1 453 5 view .LVU1000
 4469 0d8c 47F6FF71 		movw	r1, #32767
 4470 0d90 3046     		mov	r0, r6
 4471 0d92 FFF7FEFF 		bl	lv_style_set_radius
 4472              	.LVL534:
 454:Drivers/lvgl/src/themes/default/lv_theme_default.c ****     lv_style_set_bg_color(&theme->styles.chart_indic, theme->base.color_primary);
 4473              		.loc 1 454 5 view .LVU1001
 4474              	.LBB9:
 4475              	.LBI9:
 557:Drivers/lvgl/src/themes/default/../../../src/core/../misc/lv_style.h **** {
 4476              		.loc 2 557 20 view .LVU1002
 4477              	.LBB10:
 559:Drivers/lvgl/src/themes/default/../../../src/core/../misc/lv_style.h ****     lv_style_set_height(style, height);
 4478              		.loc 2 559 5 view .LVU1003
 4479 0d96 2946     		mov	r1, r5
 4480 0d98 3046     		mov	r0, r6
 4481 0d9a FFF7FEFF 		bl	lv_style_set_width
 4482              	.LVL535:
 560:Drivers/lvgl/src/themes/default/../../../src/core/../misc/lv_style.h **** }
 4483              		.loc 2 560 5 view .LVU1004
 4484 0d9e 2946     		mov	r1, r5
 4485 0da0 3046     		mov	r0, r6
 4486 0da2 FFF7FEFF 		bl	lv_style_set_height
 4487              	.LVL536:
 560:Drivers/lvgl/src/themes/default/../../../src/core/../misc/lv_style.h **** }
 4488              		.loc 2 560 5 is_stmt 0 view .LVU1005
 4489              	.LBE10:
 4490              	.LBE9:
ARM GAS  /var/folders/qx/2_175_4n2s19vhvtspjhb3qh0000gn/T//ccFV8cem.s 			page 128


 455:Drivers/lvgl/src/themes/default/lv_theme_default.c ****     lv_style_set_bg_opa(&theme->styles.chart_indic, LV_OPA_COVER);
 4491              		.loc 1 455 5 is_stmt 1 view .LVU1006
 4492 0da6 2169     		ldr	r1, [r4, #16]
 4493 0da8 3046     		mov	r0, r6
 4494 0daa FFF7FEFF 		bl	lv_style_set_bg_color
 4495              	.LVL537:
 456:Drivers/lvgl/src/themes/default/lv_theme_default.c **** #endif
 4496              		.loc 1 456 5 view .LVU1007
 4497 0dae FF21     		movs	r1, #255
 4498 0db0 3046     		mov	r0, r6
 4499 0db2 FFF7FEFF 		bl	lv_style_set_bg_opa
 4500              	.LVL538:
 460:Drivers/lvgl/src/themes/default/lv_theme_default.c ****     lv_style_set_pad_all(&theme->styles.menu_bg, 0);
 4501              		.loc 1 460 5 view .LVU1008
 4502 0db6 04F52075 		add	r5, r4, #640
 4503              	.LVL539:
 460:Drivers/lvgl/src/themes/default/lv_theme_default.c ****     lv_style_set_pad_all(&theme->styles.menu_bg, 0);
 4504              		.loc 1 460 5 is_stmt 0 view .LVU1009
 4505 0dba 2846     		mov	r0, r5
 4506 0dbc FFF7FEFF 		bl	style_init_reset
 4507              	.LVL540:
 461:Drivers/lvgl/src/themes/default/lv_theme_default.c ****     lv_style_set_pad_gap(&theme->styles.menu_bg, 0);
 4508              		.loc 1 461 5 is_stmt 1 view .LVU1010
 4509 0dc0 0021     		movs	r1, #0
 4510 0dc2 2846     		mov	r0, r5
 4511 0dc4 FFF7FEFF 		bl	lv_style_set_pad_all
 4512              	.LVL541:
 462:Drivers/lvgl/src/themes/default/lv_theme_default.c ****     lv_style_set_radius(&theme->styles.menu_bg, 0);
 4513              		.loc 1 462 5 view .LVU1011
 4514 0dc8 0021     		movs	r1, #0
 4515 0dca 2846     		mov	r0, r5
 4516 0dcc FFF7FEFF 		bl	lv_style_set_pad_gap
 4517              	.LVL542:
 463:Drivers/lvgl/src/themes/default/lv_theme_default.c ****     lv_style_set_clip_corner(&theme->styles.menu_bg, true);
 4518              		.loc 1 463 5 view .LVU1012
 4519 0dd0 0021     		movs	r1, #0
 4520 0dd2 2846     		mov	r0, r5
 4521 0dd4 FFF7FEFF 		bl	lv_style_set_radius
 4522              	.LVL543:
 464:Drivers/lvgl/src/themes/default/lv_theme_default.c ****     lv_style_set_border_side(&theme->styles.menu_bg, LV_BORDER_SIDE_NONE);
 4523              		.loc 1 464 5 view .LVU1013
 4524 0dd8 0121     		movs	r1, #1
 4525 0dda 2846     		mov	r0, r5
 4526 0ddc FFF7FEFF 		bl	lv_style_set_clip_corner
 4527              	.LVL544:
 465:Drivers/lvgl/src/themes/default/lv_theme_default.c **** 
 4528              		.loc 1 465 5 view .LVU1014
 4529 0de0 0021     		movs	r1, #0
 4530 0de2 2846     		mov	r0, r5
 4531 0de4 FFF7FEFF 		bl	lv_style_set_border_side
 4532              	.LVL545:
 467:Drivers/lvgl/src/themes/default/lv_theme_default.c ****     lv_style_set_radius(&theme->styles.menu_section, RADIUS_DEFAULT);
 4533              		.loc 1 467 5 view .LVU1015
 4534 0de8 04F53575 		add	r5, r4, #724
 4535 0dec 2846     		mov	r0, r5
 4536 0dee FFF7FEFF 		bl	style_init_reset
 4537              	.LVL546:
ARM GAS  /var/folders/qx/2_175_4n2s19vhvtspjhb3qh0000gn/T//ccFV8cem.s 			page 129


 468:Drivers/lvgl/src/themes/default/lv_theme_default.c ****     lv_style_set_clip_corner(&theme->styles.menu_section, true);
 4538              		.loc 1 468 5 view .LVU1016
 468:Drivers/lvgl/src/themes/default/lv_theme_default.c ****     lv_style_set_clip_corner(&theme->styles.menu_section, true);
 4539              		.loc 1 468 54 is_stmt 0 view .LVU1017
 4540 0df2 E16A     		ldr	r1, [r4, #44]
 4541 0df4 94F82830 		ldrb	r3, [r4, #40]	@ zero_extendqisi2
 4542 0df8 012B     		cmp	r3, #1
 4543 0dfa 00F08B86 		beq	.L421
 468:Drivers/lvgl/src/themes/default/lv_theme_default.c ****     lv_style_set_clip_corner(&theme->styles.menu_section, true);
 4544              		.loc 1 468 54 discriminator 2 view .LVU1018
 4545 0dfe 0823     		movs	r3, #8
 4546              	.L179:
 468:Drivers/lvgl/src/themes/default/lv_theme_default.c ****     lv_style_set_clip_corner(&theme->styles.menu_section, true);
 4547              		.loc 1 468 54 discriminator 4 view .LVU1019
 4548 0e00 03FB01F1 		mul	r1, r3, r1
 468:Drivers/lvgl/src/themes/default/lv_theme_default.c ****     lv_style_set_clip_corner(&theme->styles.menu_section, true);
 4549              		.loc 1 468 5 discriminator 4 view .LVU1020
 4550 0e04 EF29     		cmp	r1, #239
 4551 0e06 40F38886 		ble	.L322
 468:Drivers/lvgl/src/themes/default/lv_theme_default.c ****     lv_style_set_clip_corner(&theme->styles.menu_section, true);
 4552              		.loc 1 468 54 discriminator 10 view .LVU1021
 4553 0e0a 5031     		adds	r1, r1, #80
 468:Drivers/lvgl/src/themes/default/lv_theme_default.c ****     lv_style_set_clip_corner(&theme->styles.menu_section, true);
 4554              		.loc 1 468 5 discriminator 10 view .LVU1022
 4555 0e0c 2B4B     		ldr	r3, .L460
 4556 0e0e 83FB0123 		smull	r2, r3, r3, r1
 4557 0e12 C917     		asrs	r1, r1, #31
 4558 0e14 C1EBA311 		rsb	r1, r1, r3, asr #6
 4559              	.L180:
 468:Drivers/lvgl/src/themes/default/lv_theme_default.c ****     lv_style_set_clip_corner(&theme->styles.menu_section, true);
 4560              		.loc 1 468 5 discriminator 12 view .LVU1023
 4561 0e18 2846     		mov	r0, r5
 4562 0e1a FFF7FEFF 		bl	lv_style_set_radius
 4563              	.LVL547:
 469:Drivers/lvgl/src/themes/default/lv_theme_default.c ****     lv_style_set_bg_opa(&theme->styles.menu_section, LV_OPA_COVER);
 4564              		.loc 1 469 5 is_stmt 1 view .LVU1024
 4565 0e1e 0121     		movs	r1, #1
 4566 0e20 2846     		mov	r0, r5
 4567 0e22 FFF7FEFF 		bl	lv_style_set_clip_corner
 4568              	.LVL548:
 470:Drivers/lvgl/src/themes/default/lv_theme_default.c ****     lv_style_set_bg_color(&theme->styles.menu_section, theme->color_card);
 4569              		.loc 1 470 5 view .LVU1025
 4570 0e26 FF21     		movs	r1, #255
 4571 0e28 2846     		mov	r0, r5
 4572 0e2a FFF7FEFF 		bl	lv_style_set_bg_opa
 4573              	.LVL549:
 471:Drivers/lvgl/src/themes/default/lv_theme_default.c ****     lv_style_set_text_color(&theme->styles.menu_section, theme->color_text);
 4574              		.loc 1 471 5 view .LVU1026
 4575 0e2e E38E     		ldrh	r3, [r4, #54]
 4576 0e30 94F83810 		ldrb	r1, [r4, #56]	@ zero_extendqisi2
 4577 0e34 43EA0141 		orr	r1, r3, r1, lsl #16
 4578 0e38 2846     		mov	r0, r5
 4579 0e3a FFF7FEFF 		bl	lv_style_set_bg_color
 4580              	.LVL550:
 472:Drivers/lvgl/src/themes/default/lv_theme_default.c **** 
 4581              		.loc 1 472 5 view .LVU1027
 4582 0e3e 94F83330 		ldrb	r3, [r4, #51]	@ zero_extendqisi2
ARM GAS  /var/folders/qx/2_175_4n2s19vhvtspjhb3qh0000gn/T//ccFV8cem.s 			page 130


 4583 0e42 94F83420 		ldrb	r2, [r4, #52]	@ zero_extendqisi2
 4584 0e46 43EA0223 		orr	r3, r3, r2, lsl #8
 4585 0e4a 94F83510 		ldrb	r1, [r4, #53]	@ zero_extendqisi2
 4586 0e4e 43EA0141 		orr	r1, r3, r1, lsl #16
 4587 0e52 2846     		mov	r0, r5
 4588 0e54 FFF7FEFF 		bl	lv_style_set_text_color
 4589              	.LVL551:
 474:Drivers/lvgl/src/themes/default/lv_theme_default.c ****     lv_style_set_pad_hor(&theme->styles.menu_cont, PAD_SMALL);
 4590              		.loc 1 474 5 view .LVU1028
 4591 0e58 04F52375 		add	r5, r4, #652
 4592 0e5c 2846     		mov	r0, r5
 4593 0e5e FFF7FEFF 		bl	style_init_reset
 4594              	.LVL552:
 475:Drivers/lvgl/src/themes/default/lv_theme_default.c ****     lv_style_set_pad_ver(&theme->styles.menu_cont, PAD_SMALL);
 4595              		.loc 1 475 5 view .LVU1029
 475:Drivers/lvgl/src/themes/default/lv_theme_default.c ****     lv_style_set_pad_ver(&theme->styles.menu_cont, PAD_SMALL);
 4596              		.loc 1 475 52 is_stmt 0 view .LVU1030
 4597 0e62 E16A     		ldr	r1, [r4, #44]
 4598 0e64 94F82830 		ldrb	r3, [r4, #40]	@ zero_extendqisi2
 4599 0e68 012B     		cmp	r3, #1
 4600 0e6a 00F05C86 		beq	.L323
 475:Drivers/lvgl/src/themes/default/lv_theme_default.c ****     lv_style_set_pad_ver(&theme->styles.menu_cont, PAD_SMALL);
 4601              		.loc 1 475 52 discriminator 1 view .LVU1031
 4602 0e6e 022B     		cmp	r3, #2
 4603 0e70 00F05686 		beq	.L422
 475:Drivers/lvgl/src/themes/default/lv_theme_default.c ****     lv_style_set_pad_ver(&theme->styles.menu_cont, PAD_SMALL);
 4604              		.loc 1 475 52 discriminator 4 view .LVU1032
 4605 0e74 0A23     		movs	r3, #10
 4606              	.L181:
 475:Drivers/lvgl/src/themes/default/lv_theme_default.c ****     lv_style_set_pad_ver(&theme->styles.menu_cont, PAD_SMALL);
 4607              		.loc 1 475 52 discriminator 8 view .LVU1033
 4608 0e76 03FB01F1 		mul	r1, r3, r1
 475:Drivers/lvgl/src/themes/default/lv_theme_default.c ****     lv_style_set_pad_ver(&theme->styles.menu_cont, PAD_SMALL);
 4609              		.loc 1 475 5 discriminator 8 view .LVU1034
 4610 0e7a EF29     		cmp	r1, #239
 4611 0e7c 40F35686 		ble	.L325
 475:Drivers/lvgl/src/themes/default/lv_theme_default.c ****     lv_style_set_pad_ver(&theme->styles.menu_cont, PAD_SMALL);
 4612              		.loc 1 475 52 discriminator 18 view .LVU1035
 4613 0e80 5031     		adds	r1, r1, #80
 475:Drivers/lvgl/src/themes/default/lv_theme_default.c ****     lv_style_set_pad_ver(&theme->styles.menu_cont, PAD_SMALL);
 4614              		.loc 1 475 5 discriminator 18 view .LVU1036
 4615 0e82 0E4B     		ldr	r3, .L460
 4616 0e84 83FB0123 		smull	r2, r3, r3, r1
 4617 0e88 C917     		asrs	r1, r1, #31
 4618 0e8a C1EBA311 		rsb	r1, r1, r3, asr #6
 4619              	.L182:
 475:Drivers/lvgl/src/themes/default/lv_theme_default.c ****     lv_style_set_pad_ver(&theme->styles.menu_cont, PAD_SMALL);
 4620              		.loc 1 475 5 discriminator 20 view .LVU1037
 4621 0e8e 2846     		mov	r0, r5
 4622 0e90 FFF7FEFF 		bl	lv_style_set_pad_hor
 4623              	.LVL553:
 476:Drivers/lvgl/src/themes/default/lv_theme_default.c ****     lv_style_set_pad_gap(&theme->styles.menu_cont, PAD_SMALL);
 4624              		.loc 1 476 5 is_stmt 1 view .LVU1038
 476:Drivers/lvgl/src/themes/default/lv_theme_default.c ****     lv_style_set_pad_gap(&theme->styles.menu_cont, PAD_SMALL);
 4625              		.loc 1 476 52 is_stmt 0 view .LVU1039
 4626 0e94 E16A     		ldr	r1, [r4, #44]
 4627 0e96 94F82830 		ldrb	r3, [r4, #40]	@ zero_extendqisi2
ARM GAS  /var/folders/qx/2_175_4n2s19vhvtspjhb3qh0000gn/T//ccFV8cem.s 			page 131


 4628 0e9a 012B     		cmp	r3, #1
 4629 0e9c 00F04C86 		beq	.L326
 476:Drivers/lvgl/src/themes/default/lv_theme_default.c ****     lv_style_set_pad_gap(&theme->styles.menu_cont, PAD_SMALL);
 4630              		.loc 1 476 52 discriminator 1 view .LVU1040
 4631 0ea0 022B     		cmp	r3, #2
 4632 0ea2 00F04686 		beq	.L423
 476:Drivers/lvgl/src/themes/default/lv_theme_default.c ****     lv_style_set_pad_gap(&theme->styles.menu_cont, PAD_SMALL);
 4633              		.loc 1 476 52 discriminator 4 view .LVU1041
 4634 0ea6 0A23     		movs	r3, #10
 4635              	.L183:
 476:Drivers/lvgl/src/themes/default/lv_theme_default.c ****     lv_style_set_pad_gap(&theme->styles.menu_cont, PAD_SMALL);
 4636              		.loc 1 476 52 discriminator 8 view .LVU1042
 4637 0ea8 03FB01F1 		mul	r1, r3, r1
 476:Drivers/lvgl/src/themes/default/lv_theme_default.c ****     lv_style_set_pad_gap(&theme->styles.menu_cont, PAD_SMALL);
 4638              		.loc 1 476 5 discriminator 8 view .LVU1043
 4639 0eac EF29     		cmp	r1, #239
 4640 0eae 40F34686 		ble	.L328
 476:Drivers/lvgl/src/themes/default/lv_theme_default.c ****     lv_style_set_pad_gap(&theme->styles.menu_cont, PAD_SMALL);
 4641              		.loc 1 476 52 discriminator 18 view .LVU1044
 4642 0eb2 5031     		adds	r1, r1, #80
 476:Drivers/lvgl/src/themes/default/lv_theme_default.c ****     lv_style_set_pad_gap(&theme->styles.menu_cont, PAD_SMALL);
 4643              		.loc 1 476 5 discriminator 18 view .LVU1045
 4644 0eb4 014B     		ldr	r3, .L460
 4645 0eb6 83FB0123 		smull	r2, r3, r3, r1
 4646 0eba 03E0     		b	.L461
 4647              	.L462:
 4648              		.align	2
 4649              	.L460:
 4650 0ebc 67666666 		.word	1717986919
 4651 0ec0 00000000 		.word	.LC0
 4652              	.L461:
 4653 0ec4 C917     		asrs	r1, r1, #31
 4654 0ec6 C1EBA311 		rsb	r1, r1, r3, asr #6
 4655              	.L184:
 476:Drivers/lvgl/src/themes/default/lv_theme_default.c ****     lv_style_set_pad_gap(&theme->styles.menu_cont, PAD_SMALL);
 4656              		.loc 1 476 5 discriminator 20 view .LVU1046
 4657 0eca 2846     		mov	r0, r5
 4658 0ecc FFF7FEFF 		bl	lv_style_set_pad_ver
 4659              	.LVL554:
 477:Drivers/lvgl/src/themes/default/lv_theme_default.c ****     lv_style_set_border_width(&theme->styles.menu_cont, LV_DPX_CALC(theme->disp_dpi, 1));
 4660              		.loc 1 477 5 is_stmt 1 view .LVU1047
 477:Drivers/lvgl/src/themes/default/lv_theme_default.c ****     lv_style_set_border_width(&theme->styles.menu_cont, LV_DPX_CALC(theme->disp_dpi, 1));
 4661              		.loc 1 477 52 is_stmt 0 view .LVU1048
 4662 0ed0 E16A     		ldr	r1, [r4, #44]
 4663 0ed2 94F82830 		ldrb	r3, [r4, #40]	@ zero_extendqisi2
 4664 0ed6 012B     		cmp	r3, #1
 4665 0ed8 00F03786 		beq	.L329
 477:Drivers/lvgl/src/themes/default/lv_theme_default.c ****     lv_style_set_border_width(&theme->styles.menu_cont, LV_DPX_CALC(theme->disp_dpi, 1));
 4666              		.loc 1 477 52 discriminator 1 view .LVU1049
 4667 0edc 022B     		cmp	r3, #2
 4668 0ede 00F03186 		beq	.L424
 477:Drivers/lvgl/src/themes/default/lv_theme_default.c ****     lv_style_set_border_width(&theme->styles.menu_cont, LV_DPX_CALC(theme->disp_dpi, 1));
 4669              		.loc 1 477 52 discriminator 4 view .LVU1050
 4670 0ee2 0A23     		movs	r3, #10
 4671              	.L185:
 477:Drivers/lvgl/src/themes/default/lv_theme_default.c ****     lv_style_set_border_width(&theme->styles.menu_cont, LV_DPX_CALC(theme->disp_dpi, 1));
 4672              		.loc 1 477 52 discriminator 8 view .LVU1051
ARM GAS  /var/folders/qx/2_175_4n2s19vhvtspjhb3qh0000gn/T//ccFV8cem.s 			page 132


 4673 0ee4 03FB01F1 		mul	r1, r3, r1
 477:Drivers/lvgl/src/themes/default/lv_theme_default.c ****     lv_style_set_border_width(&theme->styles.menu_cont, LV_DPX_CALC(theme->disp_dpi, 1));
 4674              		.loc 1 477 5 discriminator 8 view .LVU1052
 4675 0ee8 EF29     		cmp	r1, #239
 4676 0eea 40F33186 		ble	.L331
 477:Drivers/lvgl/src/themes/default/lv_theme_default.c ****     lv_style_set_border_width(&theme->styles.menu_cont, LV_DPX_CALC(theme->disp_dpi, 1));
 4677              		.loc 1 477 52 discriminator 18 view .LVU1053
 4678 0eee 5031     		adds	r1, r1, #80
 477:Drivers/lvgl/src/themes/default/lv_theme_default.c ****     lv_style_set_border_width(&theme->styles.menu_cont, LV_DPX_CALC(theme->disp_dpi, 1));
 4679              		.loc 1 477 5 discriminator 18 view .LVU1054
 4680 0ef0 E04B     		ldr	r3, .L463
 4681 0ef2 83FB0123 		smull	r2, r3, r3, r1
 4682 0ef6 C917     		asrs	r1, r1, #31
 4683 0ef8 C1EBA311 		rsb	r1, r1, r3, asr #6
 4684              	.L186:
 477:Drivers/lvgl/src/themes/default/lv_theme_default.c ****     lv_style_set_border_width(&theme->styles.menu_cont, LV_DPX_CALC(theme->disp_dpi, 1));
 4685              		.loc 1 477 5 discriminator 20 view .LVU1055
 4686 0efc 2846     		mov	r0, r5
 4687 0efe FFF7FEFF 		bl	lv_style_set_pad_gap
 4688              	.LVL555:
 478:Drivers/lvgl/src/themes/default/lv_theme_default.c ****     lv_style_set_border_opa(&theme->styles.menu_cont, LV_OPA_10);
 4689              		.loc 1 478 5 is_stmt 1 view .LVU1056
 478:Drivers/lvgl/src/themes/default/lv_theme_default.c ****     lv_style_set_border_opa(&theme->styles.menu_cont, LV_OPA_10);
 4690              		.loc 1 478 57 is_stmt 0 view .LVU1057
 4691 0f02 E16A     		ldr	r1, [r4, #44]
 478:Drivers/lvgl/src/themes/default/lv_theme_default.c ****     lv_style_set_border_opa(&theme->styles.menu_cont, LV_OPA_10);
 4692              		.loc 1 478 5 view .LVU1058
 4693 0f04 EF29     		cmp	r1, #239
 4694 0f06 40F32686 		ble	.L332
 478:Drivers/lvgl/src/themes/default/lv_theme_default.c ****     lv_style_set_border_opa(&theme->styles.menu_cont, LV_OPA_10);
 4695              		.loc 1 478 57 discriminator 1 view .LVU1059
 4696 0f0a 5031     		adds	r1, r1, #80
 478:Drivers/lvgl/src/themes/default/lv_theme_default.c ****     lv_style_set_border_opa(&theme->styles.menu_cont, LV_OPA_10);
 4697              		.loc 1 478 5 discriminator 1 view .LVU1060
 4698 0f0c D94B     		ldr	r3, .L463
 4699 0f0e 83FB0123 		smull	r2, r3, r3, r1
 4700 0f12 C917     		asrs	r1, r1, #31
 4701 0f14 C1EBA311 		rsb	r1, r1, r3, asr #6
 4702              	.L187:
 478:Drivers/lvgl/src/themes/default/lv_theme_default.c ****     lv_style_set_border_opa(&theme->styles.menu_cont, LV_OPA_10);
 4703              		.loc 1 478 5 discriminator 4 view .LVU1061
 4704 0f18 2846     		mov	r0, r5
 4705 0f1a FFF7FEFF 		bl	lv_style_set_border_width
 4706              	.LVL556:
 479:Drivers/lvgl/src/themes/default/lv_theme_default.c ****     lv_style_set_border_color(&theme->styles.menu_cont, theme->color_text);
 4707              		.loc 1 479 5 is_stmt 1 view .LVU1062
 4708 0f1e 1921     		movs	r1, #25
 4709 0f20 2846     		mov	r0, r5
 4710 0f22 FFF7FEFF 		bl	lv_style_set_border_opa
 4711              	.LVL557:
 480:Drivers/lvgl/src/themes/default/lv_theme_default.c ****     lv_style_set_border_side(&theme->styles.menu_cont, LV_BORDER_SIDE_NONE);
 4712              		.loc 1 480 5 view .LVU1063
 4713 0f26 94F83330 		ldrb	r3, [r4, #51]	@ zero_extendqisi2
 4714 0f2a 94F83420 		ldrb	r2, [r4, #52]	@ zero_extendqisi2
 4715 0f2e 43EA0223 		orr	r3, r3, r2, lsl #8
 4716 0f32 94F83510 		ldrb	r1, [r4, #53]	@ zero_extendqisi2
 4717 0f36 43EA0141 		orr	r1, r3, r1, lsl #16
ARM GAS  /var/folders/qx/2_175_4n2s19vhvtspjhb3qh0000gn/T//ccFV8cem.s 			page 133


 4718 0f3a 2846     		mov	r0, r5
 4719 0f3c FFF7FEFF 		bl	lv_style_set_border_color
 4720              	.LVL558:
 481:Drivers/lvgl/src/themes/default/lv_theme_default.c **** 
 4721              		.loc 1 481 5 view .LVU1064
 4722 0f40 0021     		movs	r1, #0
 4723 0f42 2846     		mov	r0, r5
 4724 0f44 FFF7FEFF 		bl	lv_style_set_border_side
 4725              	.LVL559:
 483:Drivers/lvgl/src/themes/default/lv_theme_default.c ****     lv_style_set_pad_all(&theme->styles.menu_sidebar_cont, 0);
 4726              		.loc 1 483 5 view .LVU1065
 4727 0f48 04F52675 		add	r5, r4, #664
 4728 0f4c 2846     		mov	r0, r5
 4729 0f4e FFF7FEFF 		bl	style_init_reset
 4730              	.LVL560:
 484:Drivers/lvgl/src/themes/default/lv_theme_default.c ****     lv_style_set_pad_gap(&theme->styles.menu_sidebar_cont, 0);
 4731              		.loc 1 484 5 view .LVU1066
 4732 0f52 0021     		movs	r1, #0
 4733 0f54 2846     		mov	r0, r5
 4734 0f56 FFF7FEFF 		bl	lv_style_set_pad_all
 4735              	.LVL561:
 485:Drivers/lvgl/src/themes/default/lv_theme_default.c ****     lv_style_set_border_width(&theme->styles.menu_sidebar_cont, LV_DPX_CALC(theme->disp_dpi, 1));
 4736              		.loc 1 485 5 view .LVU1067
 4737 0f5a 0021     		movs	r1, #0
 4738 0f5c 2846     		mov	r0, r5
 4739 0f5e FFF7FEFF 		bl	lv_style_set_pad_gap
 4740              	.LVL562:
 486:Drivers/lvgl/src/themes/default/lv_theme_default.c ****     lv_style_set_border_opa(&theme->styles.menu_sidebar_cont, LV_OPA_10);
 4741              		.loc 1 486 5 view .LVU1068
 486:Drivers/lvgl/src/themes/default/lv_theme_default.c ****     lv_style_set_border_opa(&theme->styles.menu_sidebar_cont, LV_OPA_10);
 4742              		.loc 1 486 65 is_stmt 0 view .LVU1069
 4743 0f62 E16A     		ldr	r1, [r4, #44]
 486:Drivers/lvgl/src/themes/default/lv_theme_default.c ****     lv_style_set_border_opa(&theme->styles.menu_sidebar_cont, LV_OPA_10);
 4744              		.loc 1 486 5 view .LVU1070
 4745 0f64 EF29     		cmp	r1, #239
 4746 0f66 40F3F985 		ble	.L333
 486:Drivers/lvgl/src/themes/default/lv_theme_default.c ****     lv_style_set_border_opa(&theme->styles.menu_sidebar_cont, LV_OPA_10);
 4747              		.loc 1 486 65 discriminator 1 view .LVU1071
 4748 0f6a 5031     		adds	r1, r1, #80
 486:Drivers/lvgl/src/themes/default/lv_theme_default.c ****     lv_style_set_border_opa(&theme->styles.menu_sidebar_cont, LV_OPA_10);
 4749              		.loc 1 486 5 discriminator 1 view .LVU1072
 4750 0f6c C14B     		ldr	r3, .L463
 4751 0f6e 83FB0123 		smull	r2, r3, r3, r1
 4752 0f72 C917     		asrs	r1, r1, #31
 4753 0f74 C1EBA311 		rsb	r1, r1, r3, asr #6
 4754              	.L188:
 486:Drivers/lvgl/src/themes/default/lv_theme_default.c ****     lv_style_set_border_opa(&theme->styles.menu_sidebar_cont, LV_OPA_10);
 4755              		.loc 1 486 5 discriminator 4 view .LVU1073
 4756 0f78 2846     		mov	r0, r5
 4757 0f7a FFF7FEFF 		bl	lv_style_set_border_width
 4758              	.LVL563:
 487:Drivers/lvgl/src/themes/default/lv_theme_default.c ****     lv_style_set_border_color(&theme->styles.menu_sidebar_cont, theme->color_text);
 4759              		.loc 1 487 5 is_stmt 1 view .LVU1074
 4760 0f7e 1921     		movs	r1, #25
 4761 0f80 2846     		mov	r0, r5
 4762 0f82 FFF7FEFF 		bl	lv_style_set_border_opa
 4763              	.LVL564:
ARM GAS  /var/folders/qx/2_175_4n2s19vhvtspjhb3qh0000gn/T//ccFV8cem.s 			page 134


 488:Drivers/lvgl/src/themes/default/lv_theme_default.c ****     lv_style_set_border_side(&theme->styles.menu_sidebar_cont, LV_BORDER_SIDE_RIGHT);
 4764              		.loc 1 488 5 view .LVU1075
 4765 0f86 94F83330 		ldrb	r3, [r4, #51]	@ zero_extendqisi2
 4766 0f8a 94F83420 		ldrb	r2, [r4, #52]	@ zero_extendqisi2
 4767 0f8e 43EA0223 		orr	r3, r3, r2, lsl #8
 4768 0f92 94F83510 		ldrb	r1, [r4, #53]	@ zero_extendqisi2
 4769 0f96 43EA0141 		orr	r1, r3, r1, lsl #16
 4770 0f9a 2846     		mov	r0, r5
 4771 0f9c FFF7FEFF 		bl	lv_style_set_border_color
 4772              	.LVL565:
 489:Drivers/lvgl/src/themes/default/lv_theme_default.c **** 
 4773              		.loc 1 489 5 view .LVU1076
 4774 0fa0 0821     		movs	r1, #8
 4775 0fa2 2846     		mov	r0, r5
 4776 0fa4 FFF7FEFF 		bl	lv_style_set_border_side
 4777              	.LVL566:
 491:Drivers/lvgl/src/themes/default/lv_theme_default.c ****     lv_style_set_pad_all(&theme->styles.menu_main_cont, 0);
 4778              		.loc 1 491 5 view .LVU1077
 4779 0fa8 04F52975 		add	r5, r4, #676
 4780 0fac 2846     		mov	r0, r5
 4781 0fae FFF7FEFF 		bl	style_init_reset
 4782              	.LVL567:
 492:Drivers/lvgl/src/themes/default/lv_theme_default.c ****     lv_style_set_pad_gap(&theme->styles.menu_main_cont, 0);
 4783              		.loc 1 492 5 view .LVU1078
 4784 0fb2 0021     		movs	r1, #0
 4785 0fb4 2846     		mov	r0, r5
 4786 0fb6 FFF7FEFF 		bl	lv_style_set_pad_all
 4787              	.LVL568:
 493:Drivers/lvgl/src/themes/default/lv_theme_default.c **** 
 4788              		.loc 1 493 5 view .LVU1079
 4789 0fba 0021     		movs	r1, #0
 4790 0fbc 2846     		mov	r0, r5
 4791 0fbe FFF7FEFF 		bl	lv_style_set_pad_gap
 4792              	.LVL569:
 495:Drivers/lvgl/src/themes/default/lv_theme_default.c ****     lv_style_set_pad_hor(&theme->styles.menu_header_cont, PAD_SMALL);
 4793              		.loc 1 495 5 view .LVU1080
 4794 0fc2 04F52F75 		add	r5, r4, #700
 4795 0fc6 2846     		mov	r0, r5
 4796 0fc8 FFF7FEFF 		bl	style_init_reset
 4797              	.LVL570:
 496:Drivers/lvgl/src/themes/default/lv_theme_default.c ****     lv_style_set_pad_ver(&theme->styles.menu_header_cont, PAD_TINY);
 4798              		.loc 1 496 5 view .LVU1081
 496:Drivers/lvgl/src/themes/default/lv_theme_default.c ****     lv_style_set_pad_ver(&theme->styles.menu_header_cont, PAD_TINY);
 4799              		.loc 1 496 59 is_stmt 0 view .LVU1082
 4800 0fcc E16A     		ldr	r1, [r4, #44]
 4801 0fce 94F82830 		ldrb	r3, [r4, #40]	@ zero_extendqisi2
 4802 0fd2 012B     		cmp	r3, #1
 4803 0fd4 00F0C885 		beq	.L334
 496:Drivers/lvgl/src/themes/default/lv_theme_default.c ****     lv_style_set_pad_ver(&theme->styles.menu_header_cont, PAD_TINY);
 4804              		.loc 1 496 59 discriminator 1 view .LVU1083
 4805 0fd8 022B     		cmp	r3, #2
 4806 0fda 00F0C285 		beq	.L425
 496:Drivers/lvgl/src/themes/default/lv_theme_default.c ****     lv_style_set_pad_ver(&theme->styles.menu_header_cont, PAD_TINY);
 4807              		.loc 1 496 59 discriminator 4 view .LVU1084
 4808 0fde 0A23     		movs	r3, #10
 4809              	.L189:
 496:Drivers/lvgl/src/themes/default/lv_theme_default.c ****     lv_style_set_pad_ver(&theme->styles.menu_header_cont, PAD_TINY);
ARM GAS  /var/folders/qx/2_175_4n2s19vhvtspjhb3qh0000gn/T//ccFV8cem.s 			page 135


 4810              		.loc 1 496 59 discriminator 8 view .LVU1085
 4811 0fe0 03FB01F1 		mul	r1, r3, r1
 496:Drivers/lvgl/src/themes/default/lv_theme_default.c ****     lv_style_set_pad_ver(&theme->styles.menu_header_cont, PAD_TINY);
 4812              		.loc 1 496 5 discriminator 8 view .LVU1086
 4813 0fe4 EF29     		cmp	r1, #239
 4814 0fe6 40F3C285 		ble	.L336
 496:Drivers/lvgl/src/themes/default/lv_theme_default.c ****     lv_style_set_pad_ver(&theme->styles.menu_header_cont, PAD_TINY);
 4815              		.loc 1 496 59 discriminator 18 view .LVU1087
 4816 0fea 5031     		adds	r1, r1, #80
 496:Drivers/lvgl/src/themes/default/lv_theme_default.c ****     lv_style_set_pad_ver(&theme->styles.menu_header_cont, PAD_TINY);
 4817              		.loc 1 496 5 discriminator 18 view .LVU1088
 4818 0fec A14B     		ldr	r3, .L463
 4819 0fee 83FB0123 		smull	r2, r3, r3, r1
 4820 0ff2 C917     		asrs	r1, r1, #31
 4821 0ff4 C1EBA311 		rsb	r1, r1, r3, asr #6
 4822              	.L190:
 496:Drivers/lvgl/src/themes/default/lv_theme_default.c ****     lv_style_set_pad_ver(&theme->styles.menu_header_cont, PAD_TINY);
 4823              		.loc 1 496 5 discriminator 20 view .LVU1089
 4824 0ff8 2846     		mov	r0, r5
 4825 0ffa FFF7FEFF 		bl	lv_style_set_pad_hor
 4826              	.LVL571:
 497:Drivers/lvgl/src/themes/default/lv_theme_default.c ****     lv_style_set_pad_gap(&theme->styles.menu_header_cont, PAD_SMALL);
 4827              		.loc 1 497 5 is_stmt 1 view .LVU1090
 497:Drivers/lvgl/src/themes/default/lv_theme_default.c ****     lv_style_set_pad_gap(&theme->styles.menu_header_cont, PAD_SMALL);
 4828              		.loc 1 497 59 is_stmt 0 view .LVU1091
 4829 0ffe E16A     		ldr	r1, [r4, #44]
 4830 1000 94F82830 		ldrb	r3, [r4, #40]	@ zero_extendqisi2
 4831 1004 012B     		cmp	r3, #1
 4832 1006 00F0B885 		beq	.L337
 497:Drivers/lvgl/src/themes/default/lv_theme_default.c ****     lv_style_set_pad_gap(&theme->styles.menu_header_cont, PAD_SMALL);
 4833              		.loc 1 497 59 discriminator 1 view .LVU1092
 4834 100a 022B     		cmp	r3, #2
 4835 100c 00F0B285 		beq	.L426
 497:Drivers/lvgl/src/themes/default/lv_theme_default.c ****     lv_style_set_pad_gap(&theme->styles.menu_header_cont, PAD_SMALL);
 4836              		.loc 1 497 59 discriminator 4 view .LVU1093
 4837 1010 0223     		movs	r3, #2
 4838              	.L191:
 497:Drivers/lvgl/src/themes/default/lv_theme_default.c ****     lv_style_set_pad_gap(&theme->styles.menu_header_cont, PAD_SMALL);
 4839              		.loc 1 497 59 discriminator 8 view .LVU1094
 4840 1012 03FB01F1 		mul	r1, r3, r1
 497:Drivers/lvgl/src/themes/default/lv_theme_default.c ****     lv_style_set_pad_gap(&theme->styles.menu_header_cont, PAD_SMALL);
 4841              		.loc 1 497 5 discriminator 8 view .LVU1095
 4842 1016 EF29     		cmp	r1, #239
 4843 1018 40F3B285 		ble	.L339
 497:Drivers/lvgl/src/themes/default/lv_theme_default.c ****     lv_style_set_pad_gap(&theme->styles.menu_header_cont, PAD_SMALL);
 4844              		.loc 1 497 59 discriminator 18 view .LVU1096
 4845 101c 5031     		adds	r1, r1, #80
 497:Drivers/lvgl/src/themes/default/lv_theme_default.c ****     lv_style_set_pad_gap(&theme->styles.menu_header_cont, PAD_SMALL);
 4846              		.loc 1 497 5 discriminator 18 view .LVU1097
 4847 101e 954B     		ldr	r3, .L463
 4848 1020 83FB0123 		smull	r2, r3, r3, r1
 4849 1024 C917     		asrs	r1, r1, #31
 4850 1026 C1EBA311 		rsb	r1, r1, r3, asr #6
 4851              	.L192:
 497:Drivers/lvgl/src/themes/default/lv_theme_default.c ****     lv_style_set_pad_gap(&theme->styles.menu_header_cont, PAD_SMALL);
 4852              		.loc 1 497 5 discriminator 20 view .LVU1098
 4853 102a 2846     		mov	r0, r5
ARM GAS  /var/folders/qx/2_175_4n2s19vhvtspjhb3qh0000gn/T//ccFV8cem.s 			page 136


 4854 102c FFF7FEFF 		bl	lv_style_set_pad_ver
 4855              	.LVL572:
 498:Drivers/lvgl/src/themes/default/lv_theme_default.c **** 
 4856              		.loc 1 498 5 is_stmt 1 view .LVU1099
 498:Drivers/lvgl/src/themes/default/lv_theme_default.c **** 
 4857              		.loc 1 498 59 is_stmt 0 view .LVU1100
 4858 1030 E16A     		ldr	r1, [r4, #44]
 4859 1032 94F82830 		ldrb	r3, [r4, #40]	@ zero_extendqisi2
 4860 1036 012B     		cmp	r3, #1
 4861 1038 00F0A885 		beq	.L340
 498:Drivers/lvgl/src/themes/default/lv_theme_default.c **** 
 4862              		.loc 1 498 59 discriminator 1 view .LVU1101
 4863 103c 022B     		cmp	r3, #2
 4864 103e 00F0A285 		beq	.L427
 498:Drivers/lvgl/src/themes/default/lv_theme_default.c **** 
 4865              		.loc 1 498 59 discriminator 4 view .LVU1102
 4866 1042 0A23     		movs	r3, #10
 4867              	.L193:
 498:Drivers/lvgl/src/themes/default/lv_theme_default.c **** 
 4868              		.loc 1 498 59 discriminator 8 view .LVU1103
 4869 1044 03FB01F1 		mul	r1, r3, r1
 498:Drivers/lvgl/src/themes/default/lv_theme_default.c **** 
 4870              		.loc 1 498 5 discriminator 8 view .LVU1104
 4871 1048 EF29     		cmp	r1, #239
 4872 104a 40F3A285 		ble	.L342
 498:Drivers/lvgl/src/themes/default/lv_theme_default.c **** 
 4873              		.loc 1 498 59 discriminator 18 view .LVU1105
 4874 104e 5031     		adds	r1, r1, #80
 498:Drivers/lvgl/src/themes/default/lv_theme_default.c **** 
 4875              		.loc 1 498 5 discriminator 18 view .LVU1106
 4876 1050 884B     		ldr	r3, .L463
 4877 1052 83FB0123 		smull	r2, r3, r3, r1
 4878 1056 C917     		asrs	r1, r1, #31
 4879 1058 C1EBA311 		rsb	r1, r1, r3, asr #6
 4880              	.L194:
 498:Drivers/lvgl/src/themes/default/lv_theme_default.c **** 
 4881              		.loc 1 498 5 discriminator 20 view .LVU1107
 4882 105c 2846     		mov	r0, r5
 4883 105e FFF7FEFF 		bl	lv_style_set_pad_gap
 4884              	.LVL573:
 500:Drivers/lvgl/src/themes/default/lv_theme_default.c ****     lv_style_set_pad_hor(&theme->styles.menu_header_btn, PAD_TINY);
 4885              		.loc 1 500 5 is_stmt 1 view .LVU1108
 4886 1062 04F53275 		add	r5, r4, #712
 4887 1066 2846     		mov	r0, r5
 4888 1068 FFF7FEFF 		bl	style_init_reset
 4889              	.LVL574:
 501:Drivers/lvgl/src/themes/default/lv_theme_default.c ****     lv_style_set_pad_ver(&theme->styles.menu_header_btn, PAD_TINY);
 4890              		.loc 1 501 5 view .LVU1109
 501:Drivers/lvgl/src/themes/default/lv_theme_default.c ****     lv_style_set_pad_ver(&theme->styles.menu_header_btn, PAD_TINY);
 4891              		.loc 1 501 58 is_stmt 0 view .LVU1110
 4892 106c E16A     		ldr	r1, [r4, #44]
 4893 106e 94F82830 		ldrb	r3, [r4, #40]	@ zero_extendqisi2
 4894 1072 012B     		cmp	r3, #1
 4895 1074 00F09385 		beq	.L343
 501:Drivers/lvgl/src/themes/default/lv_theme_default.c ****     lv_style_set_pad_ver(&theme->styles.menu_header_btn, PAD_TINY);
 4896              		.loc 1 501 58 discriminator 1 view .LVU1111
 4897 1078 022B     		cmp	r3, #2
ARM GAS  /var/folders/qx/2_175_4n2s19vhvtspjhb3qh0000gn/T//ccFV8cem.s 			page 137


 4898 107a 00F08D85 		beq	.L428
 501:Drivers/lvgl/src/themes/default/lv_theme_default.c ****     lv_style_set_pad_ver(&theme->styles.menu_header_btn, PAD_TINY);
 4899              		.loc 1 501 58 discriminator 4 view .LVU1112
 4900 107e 0223     		movs	r3, #2
 4901              	.L195:
 501:Drivers/lvgl/src/themes/default/lv_theme_default.c ****     lv_style_set_pad_ver(&theme->styles.menu_header_btn, PAD_TINY);
 4902              		.loc 1 501 58 discriminator 8 view .LVU1113
 4903 1080 03FB01F1 		mul	r1, r3, r1
 501:Drivers/lvgl/src/themes/default/lv_theme_default.c ****     lv_style_set_pad_ver(&theme->styles.menu_header_btn, PAD_TINY);
 4904              		.loc 1 501 5 discriminator 8 view .LVU1114
 4905 1084 EF29     		cmp	r1, #239
 4906 1086 40F38D85 		ble	.L345
 501:Drivers/lvgl/src/themes/default/lv_theme_default.c ****     lv_style_set_pad_ver(&theme->styles.menu_header_btn, PAD_TINY);
 4907              		.loc 1 501 58 discriminator 18 view .LVU1115
 4908 108a 5031     		adds	r1, r1, #80
 501:Drivers/lvgl/src/themes/default/lv_theme_default.c ****     lv_style_set_pad_ver(&theme->styles.menu_header_btn, PAD_TINY);
 4909              		.loc 1 501 5 discriminator 18 view .LVU1116
 4910 108c 794B     		ldr	r3, .L463
 4911 108e 83FB0123 		smull	r2, r3, r3, r1
 4912 1092 C917     		asrs	r1, r1, #31
 4913 1094 C1EBA311 		rsb	r1, r1, r3, asr #6
 4914              	.L196:
 501:Drivers/lvgl/src/themes/default/lv_theme_default.c ****     lv_style_set_pad_ver(&theme->styles.menu_header_btn, PAD_TINY);
 4915              		.loc 1 501 5 discriminator 20 view .LVU1117
 4916 1098 2846     		mov	r0, r5
 4917 109a FFF7FEFF 		bl	lv_style_set_pad_hor
 4918              	.LVL575:
 502:Drivers/lvgl/src/themes/default/lv_theme_default.c ****     lv_style_set_shadow_opa(&theme->styles.menu_header_btn, LV_OPA_TRANSP);
 4919              		.loc 1 502 5 is_stmt 1 view .LVU1118
 502:Drivers/lvgl/src/themes/default/lv_theme_default.c ****     lv_style_set_shadow_opa(&theme->styles.menu_header_btn, LV_OPA_TRANSP);
 4920              		.loc 1 502 58 is_stmt 0 view .LVU1119
 4921 109e E16A     		ldr	r1, [r4, #44]
 4922 10a0 94F82830 		ldrb	r3, [r4, #40]	@ zero_extendqisi2
 4923 10a4 012B     		cmp	r3, #1
 4924 10a6 00F08385 		beq	.L346
 502:Drivers/lvgl/src/themes/default/lv_theme_default.c ****     lv_style_set_shadow_opa(&theme->styles.menu_header_btn, LV_OPA_TRANSP);
 4925              		.loc 1 502 58 discriminator 1 view .LVU1120
 4926 10aa 022B     		cmp	r3, #2
 4927 10ac 00F07D85 		beq	.L429
 502:Drivers/lvgl/src/themes/default/lv_theme_default.c ****     lv_style_set_shadow_opa(&theme->styles.menu_header_btn, LV_OPA_TRANSP);
 4928              		.loc 1 502 58 discriminator 4 view .LVU1121
 4929 10b0 0223     		movs	r3, #2
 4930              	.L197:
 502:Drivers/lvgl/src/themes/default/lv_theme_default.c ****     lv_style_set_shadow_opa(&theme->styles.menu_header_btn, LV_OPA_TRANSP);
 4931              		.loc 1 502 58 discriminator 8 view .LVU1122
 4932 10b2 03FB01F1 		mul	r1, r3, r1
 502:Drivers/lvgl/src/themes/default/lv_theme_default.c ****     lv_style_set_shadow_opa(&theme->styles.menu_header_btn, LV_OPA_TRANSP);
 4933              		.loc 1 502 5 discriminator 8 view .LVU1123
 4934 10b6 EF29     		cmp	r1, #239
 4935 10b8 40F37D85 		ble	.L348
 502:Drivers/lvgl/src/themes/default/lv_theme_default.c ****     lv_style_set_shadow_opa(&theme->styles.menu_header_btn, LV_OPA_TRANSP);
 4936              		.loc 1 502 58 discriminator 18 view .LVU1124
 4937 10bc 5031     		adds	r1, r1, #80
 502:Drivers/lvgl/src/themes/default/lv_theme_default.c ****     lv_style_set_shadow_opa(&theme->styles.menu_header_btn, LV_OPA_TRANSP);
 4938              		.loc 1 502 5 discriminator 18 view .LVU1125
 4939 10be 6D4B     		ldr	r3, .L463
 4940 10c0 83FB0123 		smull	r2, r3, r3, r1
ARM GAS  /var/folders/qx/2_175_4n2s19vhvtspjhb3qh0000gn/T//ccFV8cem.s 			page 138


 4941 10c4 C917     		asrs	r1, r1, #31
 4942 10c6 C1EBA311 		rsb	r1, r1, r3, asr #6
 4943              	.L198:
 502:Drivers/lvgl/src/themes/default/lv_theme_default.c ****     lv_style_set_shadow_opa(&theme->styles.menu_header_btn, LV_OPA_TRANSP);
 4944              		.loc 1 502 5 discriminator 20 view .LVU1126
 4945 10ca 2846     		mov	r0, r5
 4946 10cc FFF7FEFF 		bl	lv_style_set_pad_ver
 4947              	.LVL576:
 503:Drivers/lvgl/src/themes/default/lv_theme_default.c ****     lv_style_set_bg_opa(&theme->styles.menu_header_btn, LV_OPA_TRANSP);
 4948              		.loc 1 503 5 is_stmt 1 view .LVU1127
 4949 10d0 0021     		movs	r1, #0
 4950 10d2 2846     		mov	r0, r5
 4951 10d4 FFF7FEFF 		bl	lv_style_set_shadow_opa
 4952              	.LVL577:
 504:Drivers/lvgl/src/themes/default/lv_theme_default.c ****     lv_style_set_text_color(&theme->styles.menu_header_btn, theme->color_text);
 4953              		.loc 1 504 5 view .LVU1128
 4954 10d8 0021     		movs	r1, #0
 4955 10da 2846     		mov	r0, r5
 4956 10dc FFF7FEFF 		bl	lv_style_set_bg_opa
 4957              	.LVL578:
 505:Drivers/lvgl/src/themes/default/lv_theme_default.c **** 
 4958              		.loc 1 505 5 view .LVU1129
 4959 10e0 94F83330 		ldrb	r3, [r4, #51]	@ zero_extendqisi2
 4960 10e4 94F83420 		ldrb	r2, [r4, #52]	@ zero_extendqisi2
 4961 10e8 43EA0223 		orr	r3, r3, r2, lsl #8
 4962 10ec 94F83510 		ldrb	r1, [r4, #53]	@ zero_extendqisi2
 4963 10f0 43EA0141 		orr	r1, r3, r1, lsl #16
 4964 10f4 2846     		mov	r0, r5
 4965 10f6 FFF7FEFF 		bl	lv_style_set_text_color
 4966              	.LVL579:
 507:Drivers/lvgl/src/themes/default/lv_theme_default.c ****     lv_style_set_pad_hor(&theme->styles.menu_page, 0);
 4967              		.loc 1 507 5 view .LVU1130
 4968 10fa 04F52C75 		add	r5, r4, #688
 4969 10fe 2846     		mov	r0, r5
 4970 1100 FFF7FEFF 		bl	style_init_reset
 4971              	.LVL580:
 508:Drivers/lvgl/src/themes/default/lv_theme_default.c ****     lv_style_set_pad_gap(&theme->styles.menu_page, 0);
 4972              		.loc 1 508 5 view .LVU1131
 4973 1104 0021     		movs	r1, #0
 4974 1106 2846     		mov	r0, r5
 4975 1108 FFF7FEFF 		bl	lv_style_set_pad_hor
 4976              	.LVL581:
 509:Drivers/lvgl/src/themes/default/lv_theme_default.c **** 
 4977              		.loc 1 509 5 view .LVU1132
 4978 110c 0021     		movs	r1, #0
 4979 110e 2846     		mov	r0, r5
 4980 1110 FFF7FEFF 		bl	lv_style_set_pad_gap
 4981              	.LVL582:
 511:Drivers/lvgl/src/themes/default/lv_theme_default.c ****     lv_style_set_bg_opa(&theme->styles.menu_pressed, LV_OPA_20);
 4982              		.loc 1 511 5 view .LVU1133
 4983 1114 04F53875 		add	r5, r4, #736
 4984 1118 2846     		mov	r0, r5
 4985 111a FFF7FEFF 		bl	style_init_reset
 4986              	.LVL583:
 512:Drivers/lvgl/src/themes/default/lv_theme_default.c ****     lv_style_set_bg_color(&theme->styles.menu_pressed, lv_palette_main(LV_PALETTE_GREY));
 4987              		.loc 1 512 5 view .LVU1134
 4988 111e 3321     		movs	r1, #51
ARM GAS  /var/folders/qx/2_175_4n2s19vhvtspjhb3qh0000gn/T//ccFV8cem.s 			page 139


 4989 1120 2846     		mov	r0, r5
 4990 1122 FFF7FEFF 		bl	lv_style_set_bg_opa
 4991              	.LVL584:
 513:Drivers/lvgl/src/themes/default/lv_theme_default.c **** 
 4992              		.loc 1 513 5 view .LVU1135
 4993 1126 1220     		movs	r0, #18
 4994 1128 FFF7FEFF 		bl	lv_palette_main
 4995              	.LVL585:
 4996 112c 8DF83000 		strb	r0, [sp, #48]
 4997 1130 C0F30723 		ubfx	r3, r0, #8, #8
 4998 1134 8DF83130 		strb	r3, [sp, #49]
 4999 1138 C0F30740 		ubfx	r0, r0, #16, #8
 5000 113c 8DF83200 		strb	r0, [sp, #50]
 513:Drivers/lvgl/src/themes/default/lv_theme_default.c **** 
 5001              		.loc 1 513 5 is_stmt 0 discriminator 1 view .LVU1136
 5002 1140 0C99     		ldr	r1, [sp, #48]
 5003 1142 2846     		mov	r0, r5
 5004 1144 FFF7FEFF 		bl	lv_style_set_bg_color
 5005              	.LVL586:
 515:Drivers/lvgl/src/themes/default/lv_theme_default.c ****     lv_style_set_bg_opa(&theme->styles.menu_separator, LV_OPA_TRANSP);
 5006              		.loc 1 515 5 is_stmt 1 view .LVU1137
 5007 1148 04F53B75 		add	r5, r4, #748
 5008 114c 2846     		mov	r0, r5
 5009 114e FFF7FEFF 		bl	style_init_reset
 5010              	.LVL587:
 516:Drivers/lvgl/src/themes/default/lv_theme_default.c ****     lv_style_set_pad_ver(&theme->styles.menu_separator, PAD_TINY);
 5011              		.loc 1 516 5 view .LVU1138
 5012 1152 0021     		movs	r1, #0
 5013 1154 2846     		mov	r0, r5
 5014 1156 FFF7FEFF 		bl	lv_style_set_bg_opa
 5015              	.LVL588:
 517:Drivers/lvgl/src/themes/default/lv_theme_default.c **** #endif
 5016              		.loc 1 517 5 view .LVU1139
 517:Drivers/lvgl/src/themes/default/lv_theme_default.c **** #endif
 5017              		.loc 1 517 57 is_stmt 0 view .LVU1140
 5018 115a E16A     		ldr	r1, [r4, #44]
 5019 115c 94F82830 		ldrb	r3, [r4, #40]	@ zero_extendqisi2
 5020 1160 012B     		cmp	r3, #1
 5021 1162 00F02E85 		beq	.L349
 517:Drivers/lvgl/src/themes/default/lv_theme_default.c **** #endif
 5022              		.loc 1 517 57 discriminator 1 view .LVU1141
 5023 1166 022B     		cmp	r3, #2
 5024 1168 00F02885 		beq	.L430
 517:Drivers/lvgl/src/themes/default/lv_theme_default.c **** #endif
 5025              		.loc 1 517 57 discriminator 4 view .LVU1142
 5026 116c 0223     		movs	r3, #2
 5027              	.L199:
 517:Drivers/lvgl/src/themes/default/lv_theme_default.c **** #endif
 5028              		.loc 1 517 57 discriminator 8 view .LVU1143
 5029 116e 03FB01F1 		mul	r1, r3, r1
 517:Drivers/lvgl/src/themes/default/lv_theme_default.c **** #endif
 5030              		.loc 1 517 5 discriminator 8 view .LVU1144
 5031 1172 EF29     		cmp	r1, #239
 5032 1174 40F32885 		ble	.L351
 517:Drivers/lvgl/src/themes/default/lv_theme_default.c **** #endif
 5033              		.loc 1 517 57 discriminator 18 view .LVU1145
 5034 1178 5031     		adds	r1, r1, #80
ARM GAS  /var/folders/qx/2_175_4n2s19vhvtspjhb3qh0000gn/T//ccFV8cem.s 			page 140


 517:Drivers/lvgl/src/themes/default/lv_theme_default.c **** #endif
 5035              		.loc 1 517 5 discriminator 18 view .LVU1146
 5036 117a 3E4B     		ldr	r3, .L463
 5037 117c 83FB0123 		smull	r2, r3, r3, r1
 5038 1180 C917     		asrs	r1, r1, #31
 5039 1182 C1EBA311 		rsb	r1, r1, r3, asr #6
 5040              	.L200:
 517:Drivers/lvgl/src/themes/default/lv_theme_default.c **** #endif
 5041              		.loc 1 517 5 discriminator 20 view .LVU1147
 5042 1186 2846     		mov	r0, r5
 5043 1188 FFF7FEFF 		bl	lv_style_set_pad_ver
 5044              	.LVL589:
 521:Drivers/lvgl/src/themes/default/lv_theme_default.c ****     lv_style_set_border_width(&theme->styles.table_cell, LV_DPX_CALC(theme->disp_dpi, 1));
 5045              		.loc 1 521 5 is_stmt 1 view .LVU1148
 5046 118c 04F50E75 		add	r5, r4, #568
 5047 1190 2846     		mov	r0, r5
 5048 1192 FFF7FEFF 		bl	style_init_reset
 5049              	.LVL590:
 522:Drivers/lvgl/src/themes/default/lv_theme_default.c ****     lv_style_set_border_color(&theme->styles.table_cell, theme->color_grey);
 5050              		.loc 1 522 5 view .LVU1149
 522:Drivers/lvgl/src/themes/default/lv_theme_default.c ****     lv_style_set_border_color(&theme->styles.table_cell, theme->color_grey);
 5051              		.loc 1 522 58 is_stmt 0 view .LVU1150
 5052 1196 E16A     		ldr	r1, [r4, #44]
 522:Drivers/lvgl/src/themes/default/lv_theme_default.c ****     lv_style_set_border_color(&theme->styles.table_cell, theme->color_grey);
 5053              		.loc 1 522 5 view .LVU1151
 5054 1198 EF29     		cmp	r1, #239
 5055 119a 40F31885 		ble	.L352
 522:Drivers/lvgl/src/themes/default/lv_theme_default.c ****     lv_style_set_border_color(&theme->styles.table_cell, theme->color_grey);
 5056              		.loc 1 522 58 discriminator 1 view .LVU1152
 5057 119e 5031     		adds	r1, r1, #80
 522:Drivers/lvgl/src/themes/default/lv_theme_default.c ****     lv_style_set_border_color(&theme->styles.table_cell, theme->color_grey);
 5058              		.loc 1 522 5 discriminator 1 view .LVU1153
 5059 11a0 344B     		ldr	r3, .L463
 5060 11a2 83FB0123 		smull	r2, r3, r3, r1
 5061 11a6 C917     		asrs	r1, r1, #31
 5062 11a8 C1EBA311 		rsb	r1, r1, r3, asr #6
 5063              	.L201:
 522:Drivers/lvgl/src/themes/default/lv_theme_default.c ****     lv_style_set_border_color(&theme->styles.table_cell, theme->color_grey);
 5064              		.loc 1 522 5 discriminator 4 view .LVU1154
 5065 11ac 2846     		mov	r0, r5
 5066 11ae FFF7FEFF 		bl	lv_style_set_border_width
 5067              	.LVL591:
 523:Drivers/lvgl/src/themes/default/lv_theme_default.c ****     lv_style_set_border_side(&theme->styles.table_cell, LV_BORDER_SIDE_TOP | LV_BORDER_SIDE_BOTTOM)
 5068              		.loc 1 523 5 is_stmt 1 view .LVU1155
 5069 11b2 94F83930 		ldrb	r3, [r4, #57]	@ zero_extendqisi2
 5070 11b6 94F83A20 		ldrb	r2, [r4, #58]	@ zero_extendqisi2
 5071 11ba 43EA0223 		orr	r3, r3, r2, lsl #8
 5072 11be 94F83B10 		ldrb	r1, [r4, #59]	@ zero_extendqisi2
 5073 11c2 43EA0141 		orr	r1, r3, r1, lsl #16
 5074 11c6 2846     		mov	r0, r5
 5075 11c8 FFF7FEFF 		bl	lv_style_set_border_color
 5076              	.LVL592:
 524:Drivers/lvgl/src/themes/default/lv_theme_default.c **** #endif
 5077              		.loc 1 524 5 view .LVU1156
 5078 11cc 0321     		movs	r1, #3
 5079 11ce 2846     		mov	r0, r5
 5080 11d0 FFF7FEFF 		bl	lv_style_set_border_side
ARM GAS  /var/folders/qx/2_175_4n2s19vhvtspjhb3qh0000gn/T//ccFV8cem.s 			page 141


 5081              	.LVL593:
 528:Drivers/lvgl/src/themes/default/lv_theme_default.c ****     lv_style_set_border_color(&theme->styles.ta_cursor, theme->color_text);
 5082              		.loc 1 528 5 view .LVU1157
 5083 11d4 04F51175 		add	r5, r4, #580
 5084 11d8 2846     		mov	r0, r5
 5085 11da FFF7FEFF 		bl	style_init_reset
 5086              	.LVL594:
 529:Drivers/lvgl/src/themes/default/lv_theme_default.c ****     lv_style_set_border_width(&theme->styles.ta_cursor, LV_DPX_CALC(theme->disp_dpi, 2));
 5087              		.loc 1 529 5 view .LVU1158
 5088 11de 94F83330 		ldrb	r3, [r4, #51]	@ zero_extendqisi2
 5089 11e2 94F83420 		ldrb	r2, [r4, #52]	@ zero_extendqisi2
 5090 11e6 43EA0223 		orr	r3, r3, r2, lsl #8
 5091 11ea 94F83510 		ldrb	r1, [r4, #53]	@ zero_extendqisi2
 5092 11ee 43EA0141 		orr	r1, r3, r1, lsl #16
 5093 11f2 2846     		mov	r0, r5
 5094 11f4 FFF7FEFF 		bl	lv_style_set_border_color
 5095              	.LVL595:
 530:Drivers/lvgl/src/themes/default/lv_theme_default.c ****     lv_style_set_pad_left(&theme->styles.ta_cursor, - LV_DPX_CALC(theme->disp_dpi, 1));
 5096              		.loc 1 530 5 view .LVU1159
 530:Drivers/lvgl/src/themes/default/lv_theme_default.c ****     lv_style_set_pad_left(&theme->styles.ta_cursor, - LV_DPX_CALC(theme->disp_dpi, 1));
 5097              		.loc 1 530 57 is_stmt 0 view .LVU1160
 5098 11f8 E16A     		ldr	r1, [r4, #44]
 530:Drivers/lvgl/src/themes/default/lv_theme_default.c ****     lv_style_set_pad_left(&theme->styles.ta_cursor, - LV_DPX_CALC(theme->disp_dpi, 1));
 5099              		.loc 1 530 5 view .LVU1161
 5100 11fa 7729     		cmp	r1, #119
 5101 11fc 40F3EA84 		ble	.L353
 530:Drivers/lvgl/src/themes/default/lv_theme_default.c ****     lv_style_set_pad_left(&theme->styles.ta_cursor, - LV_DPX_CALC(theme->disp_dpi, 1));
 5102              		.loc 1 530 57 discriminator 1 view .LVU1162
 5103 1200 2831     		adds	r1, r1, #40
 530:Drivers/lvgl/src/themes/default/lv_theme_default.c ****     lv_style_set_pad_left(&theme->styles.ta_cursor, - LV_DPX_CALC(theme->disp_dpi, 1));
 5104              		.loc 1 530 5 discriminator 1 view .LVU1163
 5105 1202 1C4B     		ldr	r3, .L463
 5106 1204 83FB0123 		smull	r2, r3, r3, r1
 5107 1208 C917     		asrs	r1, r1, #31
 5108 120a C1EB6311 		rsb	r1, r1, r3, asr #5
 5109              	.L202:
 530:Drivers/lvgl/src/themes/default/lv_theme_default.c ****     lv_style_set_pad_left(&theme->styles.ta_cursor, - LV_DPX_CALC(theme->disp_dpi, 1));
 5110              		.loc 1 530 5 discriminator 4 view .LVU1164
 5111 120e 2846     		mov	r0, r5
 5112 1210 FFF7FEFF 		bl	lv_style_set_border_width
 5113              	.LVL596:
 531:Drivers/lvgl/src/themes/default/lv_theme_default.c ****     lv_style_set_border_side(&theme->styles.ta_cursor, LV_BORDER_SIDE_LEFT);
 5114              		.loc 1 531 5 is_stmt 1 view .LVU1165
 531:Drivers/lvgl/src/themes/default/lv_theme_default.c ****     lv_style_set_border_side(&theme->styles.ta_cursor, LV_BORDER_SIDE_LEFT);
 5115              		.loc 1 531 55 is_stmt 0 view .LVU1166
 5116 1214 E16A     		ldr	r1, [r4, #44]
 531:Drivers/lvgl/src/themes/default/lv_theme_default.c ****     lv_style_set_border_side(&theme->styles.ta_cursor, LV_BORDER_SIDE_LEFT);
 5117              		.loc 1 531 5 view .LVU1167
 5118 1216 EF29     		cmp	r1, #239
 5119 1218 40F3DF84 		ble	.L354
 531:Drivers/lvgl/src/themes/default/lv_theme_default.c ****     lv_style_set_border_side(&theme->styles.ta_cursor, LV_BORDER_SIDE_LEFT);
 5120              		.loc 1 531 55 discriminator 1 view .LVU1168
 5121 121c 5031     		adds	r1, r1, #80
 531:Drivers/lvgl/src/themes/default/lv_theme_default.c ****     lv_style_set_border_side(&theme->styles.ta_cursor, LV_BORDER_SIDE_LEFT);
 5122              		.loc 1 531 5 discriminator 1 view .LVU1169
 5123 121e 154B     		ldr	r3, .L463
 5124 1220 83FB0123 		smull	r2, r3, r3, r1
ARM GAS  /var/folders/qx/2_175_4n2s19vhvtspjhb3qh0000gn/T//ccFV8cem.s 			page 142


 5125 1224 C917     		asrs	r1, r1, #31
 5126 1226 A1EBA311 		sub	r1, r1, r3, asr #6
 5127              	.L203:
 531:Drivers/lvgl/src/themes/default/lv_theme_default.c ****     lv_style_set_border_side(&theme->styles.ta_cursor, LV_BORDER_SIDE_LEFT);
 5128              		.loc 1 531 5 discriminator 4 view .LVU1170
 5129 122a 2846     		mov	r0, r5
 5130 122c FFF7FEFF 		bl	lv_style_set_pad_left
 5131              	.LVL597:
 532:Drivers/lvgl/src/themes/default/lv_theme_default.c ****     lv_style_set_anim_duration(&theme->styles.ta_cursor, 400);
 5132              		.loc 1 532 5 is_stmt 1 view .LVU1171
 5133 1230 0421     		movs	r1, #4
 5134 1232 2846     		mov	r0, r5
 5135 1234 FFF7FEFF 		bl	lv_style_set_border_side
 5136              	.LVL598:
 533:Drivers/lvgl/src/themes/default/lv_theme_default.c **** 
 5137              		.loc 1 533 5 view .LVU1172
 5138 1238 4FF4C871 		mov	r1, #400
 5139 123c 2846     		mov	r0, r5
 5140 123e FFF7FEFF 		bl	lv_style_set_anim_duration
 5141              	.LVL599:
 535:Drivers/lvgl/src/themes/default/lv_theme_default.c ****     lv_style_set_text_color(&theme->styles.ta_placeholder,
 5142              		.loc 1 535 5 view .LVU1173
 5143 1242 04F51475 		add	r5, r4, #592
 5144 1246 2846     		mov	r0, r5
 5145 1248 FFF7FEFF 		bl	style_init_reset
 5146              	.LVL600:
 536:Drivers/lvgl/src/themes/default/lv_theme_default.c ****                             (theme->base.flags & MODE_DARK) ? lv_palette_darken(LV_PALETTE_GREY,
 5147              		.loc 1 536 5 view .LVU1174
 537:Drivers/lvgl/src/themes/default/lv_theme_default.c ****                                                                                 2) : lv_palette_lig
 5148              		.loc 1 537 41 is_stmt 0 view .LVU1175
 5149 124c 636A     		ldr	r3, [r4, #36]
 536:Drivers/lvgl/src/themes/default/lv_theme_default.c ****                             (theme->base.flags & MODE_DARK) ? lv_palette_darken(LV_PALETTE_GREY,
 5150              		.loc 1 536 5 view .LVU1176
 5151 124e 13F0010F 		tst	r3, #1
 5152 1252 00F0C684 		beq	.L204
 537:Drivers/lvgl/src/themes/default/lv_theme_default.c ****                                                                                 2) : lv_palette_lig
 5153              		.loc 1 537 63 view .LVU1177
 5154 1256 0221     		movs	r1, #2
 5155 1258 1220     		movs	r0, #18
 5156 125a FFF7FEFF 		bl	lv_palette_darken
 5157              	.LVL601:
 5158 125e 8DF83400 		strb	r0, [sp, #52]
 5159 1262 C0F30723 		ubfx	r3, r0, #8, #8
 5160 1266 8DF83530 		strb	r3, [sp, #53]
 5161 126a C0F30740 		ubfx	r0, r0, #16, #8
 5162 126e 8DF83600 		strb	r0, [sp, #54]
 5163 1272 01E0     		b	.L464
 5164              	.L465:
 5165              		.align	2
 5166              	.L463:
 5167 1274 67666666 		.word	1717986919
 5168              	.L464:
 5169              	.L205:
 536:Drivers/lvgl/src/themes/default/lv_theme_default.c ****                             (theme->base.flags & MODE_DARK) ? lv_palette_darken(LV_PALETTE_GREY,
 5170              		.loc 1 536 5 view .LVU1178
 5171 1278 0D99     		ldr	r1, [sp, #52]
 5172 127a 2846     		mov	r0, r5
ARM GAS  /var/folders/qx/2_175_4n2s19vhvtspjhb3qh0000gn/T//ccFV8cem.s 			page 143


 5173 127c FFF7FEFF 		bl	lv_style_set_text_color
 5174              	.LVL602:
 542:Drivers/lvgl/src/themes/default/lv_theme_default.c ****     lv_style_set_pad_all(&theme->styles.calendar_btnm_bg, PAD_SMALL);
 5175              		.loc 1 542 5 is_stmt 1 view .LVU1179
 5176 1280 04F51775 		add	r5, r4, #604
 5177 1284 2846     		mov	r0, r5
 5178 1286 FFF7FEFF 		bl	style_init_reset
 5179              	.LVL603:
 543:Drivers/lvgl/src/themes/default/lv_theme_default.c ****     lv_style_set_pad_gap(&theme->styles.calendar_btnm_bg, PAD_SMALL / 2);
 5180              		.loc 1 543 5 view .LVU1180
 543:Drivers/lvgl/src/themes/default/lv_theme_default.c ****     lv_style_set_pad_gap(&theme->styles.calendar_btnm_bg, PAD_SMALL / 2);
 5181              		.loc 1 543 59 is_stmt 0 view .LVU1181
 5182 128a E16A     		ldr	r1, [r4, #44]
 5183 128c 94F82830 		ldrb	r3, [r4, #40]	@ zero_extendqisi2
 5184 1290 012B     		cmp	r3, #1
 5185 1292 00F0B984 		beq	.L355
 543:Drivers/lvgl/src/themes/default/lv_theme_default.c ****     lv_style_set_pad_gap(&theme->styles.calendar_btnm_bg, PAD_SMALL / 2);
 5186              		.loc 1 543 59 discriminator 1 view .LVU1182
 5187 1296 022B     		cmp	r3, #2
 5188 1298 00F0B384 		beq	.L431
 543:Drivers/lvgl/src/themes/default/lv_theme_default.c ****     lv_style_set_pad_gap(&theme->styles.calendar_btnm_bg, PAD_SMALL / 2);
 5189              		.loc 1 543 59 discriminator 4 view .LVU1183
 5190 129c 0A23     		movs	r3, #10
 5191              	.L206:
 543:Drivers/lvgl/src/themes/default/lv_theme_default.c ****     lv_style_set_pad_gap(&theme->styles.calendar_btnm_bg, PAD_SMALL / 2);
 5192              		.loc 1 543 59 discriminator 8 view .LVU1184
 5193 129e 03FB01F1 		mul	r1, r3, r1
 543:Drivers/lvgl/src/themes/default/lv_theme_default.c ****     lv_style_set_pad_gap(&theme->styles.calendar_btnm_bg, PAD_SMALL / 2);
 5194              		.loc 1 543 5 discriminator 8 view .LVU1185
 5195 12a2 EF29     		cmp	r1, #239
 5196 12a4 40F3B384 		ble	.L357
 543:Drivers/lvgl/src/themes/default/lv_theme_default.c ****     lv_style_set_pad_gap(&theme->styles.calendar_btnm_bg, PAD_SMALL / 2);
 5197              		.loc 1 543 59 discriminator 18 view .LVU1186
 5198 12a8 5031     		adds	r1, r1, #80
 543:Drivers/lvgl/src/themes/default/lv_theme_default.c ****     lv_style_set_pad_gap(&theme->styles.calendar_btnm_bg, PAD_SMALL / 2);
 5199              		.loc 1 543 5 discriminator 18 view .LVU1187
 5200 12aa D74B     		ldr	r3, .L466
 5201 12ac 83FB0123 		smull	r2, r3, r3, r1
 5202 12b0 C917     		asrs	r1, r1, #31
 5203 12b2 C1EBA311 		rsb	r1, r1, r3, asr #6
 5204              	.L207:
 543:Drivers/lvgl/src/themes/default/lv_theme_default.c ****     lv_style_set_pad_gap(&theme->styles.calendar_btnm_bg, PAD_SMALL / 2);
 5205              		.loc 1 543 5 discriminator 20 view .LVU1188
 5206 12b6 2846     		mov	r0, r5
 5207 12b8 FFF7FEFF 		bl	lv_style_set_pad_all
 5208              	.LVL604:
 544:Drivers/lvgl/src/themes/default/lv_theme_default.c **** 
 5209              		.loc 1 544 5 is_stmt 1 view .LVU1189
 544:Drivers/lvgl/src/themes/default/lv_theme_default.c **** 
 5210              		.loc 1 544 59 is_stmt 0 view .LVU1190
 5211 12bc E16A     		ldr	r1, [r4, #44]
 5212 12be 94F82830 		ldrb	r3, [r4, #40]	@ zero_extendqisi2
 5213 12c2 012B     		cmp	r3, #1
 5214 12c4 00F0A984 		beq	.L358
 544:Drivers/lvgl/src/themes/default/lv_theme_default.c **** 
 5215              		.loc 1 544 59 discriminator 1 view .LVU1191
 5216 12c8 022B     		cmp	r3, #2
ARM GAS  /var/folders/qx/2_175_4n2s19vhvtspjhb3qh0000gn/T//ccFV8cem.s 			page 144


 5217 12ca 00F0A384 		beq	.L432
 544:Drivers/lvgl/src/themes/default/lv_theme_default.c **** 
 5218              		.loc 1 544 59 discriminator 4 view .LVU1192
 5219 12ce 0A23     		movs	r3, #10
 5220              	.L208:
 544:Drivers/lvgl/src/themes/default/lv_theme_default.c **** 
 5221              		.loc 1 544 59 discriminator 8 view .LVU1193
 5222 12d0 03FB01F1 		mul	r1, r3, r1
 544:Drivers/lvgl/src/themes/default/lv_theme_default.c **** 
 5223              		.loc 1 544 5 discriminator 8 view .LVU1194
 5224 12d4 EF29     		cmp	r1, #239
 5225 12d6 40F3A384 		ble	.L360
 544:Drivers/lvgl/src/themes/default/lv_theme_default.c **** 
 5226              		.loc 1 544 59 discriminator 18 view .LVU1195
 5227 12da 5031     		adds	r1, r1, #80
 544:Drivers/lvgl/src/themes/default/lv_theme_default.c **** 
 5228              		.loc 1 544 5 discriminator 18 view .LVU1196
 5229 12dc CA4B     		ldr	r3, .L466
 5230 12de 83FB0123 		smull	r2, r3, r3, r1
 5231 12e2 C917     		asrs	r1, r1, #31
 5232 12e4 C1EBE311 		rsb	r1, r1, r3, asr #7
 5233              	.L209:
 544:Drivers/lvgl/src/themes/default/lv_theme_default.c **** 
 5234              		.loc 1 544 5 discriminator 20 view .LVU1197
 5235 12e8 2846     		mov	r0, r5
 5236 12ea FFF7FEFF 		bl	lv_style_set_pad_gap
 5237              	.LVL605:
 546:Drivers/lvgl/src/themes/default/lv_theme_default.c ****     lv_style_set_border_width(&theme->styles.calendar_btnm_day, LV_DPX_CALC(theme->disp_dpi, 1));
 5238              		.loc 1 546 5 is_stmt 1 view .LVU1198
 5239 12ee 04F51A75 		add	r5, r4, #616
 5240 12f2 2846     		mov	r0, r5
 5241 12f4 FFF7FEFF 		bl	style_init_reset
 5242              	.LVL606:
 547:Drivers/lvgl/src/themes/default/lv_theme_default.c ****     lv_style_set_border_color(&theme->styles.calendar_btnm_day, theme->color_grey);
 5243              		.loc 1 547 5 view .LVU1199
 547:Drivers/lvgl/src/themes/default/lv_theme_default.c ****     lv_style_set_border_color(&theme->styles.calendar_btnm_day, theme->color_grey);
 5244              		.loc 1 547 65 is_stmt 0 view .LVU1200
 5245 12f8 E16A     		ldr	r1, [r4, #44]
 547:Drivers/lvgl/src/themes/default/lv_theme_default.c ****     lv_style_set_border_color(&theme->styles.calendar_btnm_day, theme->color_grey);
 5246              		.loc 1 547 5 view .LVU1201
 5247 12fa EF29     		cmp	r1, #239
 5248 12fc 40F39384 		ble	.L361
 547:Drivers/lvgl/src/themes/default/lv_theme_default.c ****     lv_style_set_border_color(&theme->styles.calendar_btnm_day, theme->color_grey);
 5249              		.loc 1 547 65 discriminator 1 view .LVU1202
 5250 1300 5031     		adds	r1, r1, #80
 547:Drivers/lvgl/src/themes/default/lv_theme_default.c ****     lv_style_set_border_color(&theme->styles.calendar_btnm_day, theme->color_grey);
 5251              		.loc 1 547 5 discriminator 1 view .LVU1203
 5252 1302 C14B     		ldr	r3, .L466
 5253 1304 83FB0123 		smull	r2, r3, r3, r1
 5254 1308 C917     		asrs	r1, r1, #31
 5255 130a C1EBA311 		rsb	r1, r1, r3, asr #6
 5256              	.L210:
 547:Drivers/lvgl/src/themes/default/lv_theme_default.c ****     lv_style_set_border_color(&theme->styles.calendar_btnm_day, theme->color_grey);
 5257              		.loc 1 547 5 discriminator 4 view .LVU1204
 5258 130e 2846     		mov	r0, r5
 5259 1310 FFF7FEFF 		bl	lv_style_set_border_width
 5260              	.LVL607:
ARM GAS  /var/folders/qx/2_175_4n2s19vhvtspjhb3qh0000gn/T//ccFV8cem.s 			page 145


 548:Drivers/lvgl/src/themes/default/lv_theme_default.c ****     lv_style_set_bg_color(&theme->styles.calendar_btnm_day, theme->color_card);
 5261              		.loc 1 548 5 is_stmt 1 view .LVU1205
 5262 1314 94F83930 		ldrb	r3, [r4, #57]	@ zero_extendqisi2
 5263 1318 94F83A20 		ldrb	r2, [r4, #58]	@ zero_extendqisi2
 5264 131c 43EA0223 		orr	r3, r3, r2, lsl #8
 5265 1320 94F83B10 		ldrb	r1, [r4, #59]	@ zero_extendqisi2
 5266 1324 43EA0141 		orr	r1, r3, r1, lsl #16
 5267 1328 2846     		mov	r0, r5
 5268 132a FFF7FEFF 		bl	lv_style_set_border_color
 5269              	.LVL608:
 549:Drivers/lvgl/src/themes/default/lv_theme_default.c ****     lv_style_set_bg_opa(&theme->styles.calendar_btnm_day, LV_OPA_20);
 5270              		.loc 1 549 5 view .LVU1206
 5271 132e E38E     		ldrh	r3, [r4, #54]
 5272 1330 94F83810 		ldrb	r1, [r4, #56]	@ zero_extendqisi2
 5273 1334 43EA0141 		orr	r1, r3, r1, lsl #16
 5274 1338 2846     		mov	r0, r5
 5275 133a FFF7FEFF 		bl	lv_style_set_bg_color
 5276              	.LVL609:
 550:Drivers/lvgl/src/themes/default/lv_theme_default.c **** 
 5277              		.loc 1 550 5 view .LVU1207
 5278 133e 3321     		movs	r1, #51
 5279 1340 2846     		mov	r0, r5
 5280 1342 FFF7FEFF 		bl	lv_style_set_bg_opa
 5281              	.LVL610:
 552:Drivers/lvgl/src/themes/default/lv_theme_default.c ****     lv_style_set_pad_hor(&theme->styles.calendar_header, PAD_SMALL);
 5282              		.loc 1 552 5 view .LVU1208
 5283 1346 04F51D75 		add	r5, r4, #628
 5284 134a 2846     		mov	r0, r5
 5285 134c FFF7FEFF 		bl	style_init_reset
 5286              	.LVL611:
 553:Drivers/lvgl/src/themes/default/lv_theme_default.c ****     lv_style_set_pad_top(&theme->styles.calendar_header, PAD_SMALL);
 5287              		.loc 1 553 5 view .LVU1209
 553:Drivers/lvgl/src/themes/default/lv_theme_default.c ****     lv_style_set_pad_top(&theme->styles.calendar_header, PAD_SMALL);
 5288              		.loc 1 553 58 is_stmt 0 view .LVU1210
 5289 1350 E16A     		ldr	r1, [r4, #44]
 5290 1352 94F82830 		ldrb	r3, [r4, #40]	@ zero_extendqisi2
 5291 1356 012B     		cmp	r3, #1
 5292 1358 00F06B84 		beq	.L362
 553:Drivers/lvgl/src/themes/default/lv_theme_default.c ****     lv_style_set_pad_top(&theme->styles.calendar_header, PAD_SMALL);
 5293              		.loc 1 553 58 discriminator 1 view .LVU1211
 5294 135c 022B     		cmp	r3, #2
 5295 135e 00F06584 		beq	.L433
 553:Drivers/lvgl/src/themes/default/lv_theme_default.c ****     lv_style_set_pad_top(&theme->styles.calendar_header, PAD_SMALL);
 5296              		.loc 1 553 58 discriminator 4 view .LVU1212
 5297 1362 0A23     		movs	r3, #10
 5298              	.L211:
 553:Drivers/lvgl/src/themes/default/lv_theme_default.c ****     lv_style_set_pad_top(&theme->styles.calendar_header, PAD_SMALL);
 5299              		.loc 1 553 58 discriminator 8 view .LVU1213
 5300 1364 03FB01F1 		mul	r1, r3, r1
 553:Drivers/lvgl/src/themes/default/lv_theme_default.c ****     lv_style_set_pad_top(&theme->styles.calendar_header, PAD_SMALL);
 5301              		.loc 1 553 5 discriminator 8 view .LVU1214
 5302 1368 EF29     		cmp	r1, #239
 5303 136a 40F36584 		ble	.L364
 553:Drivers/lvgl/src/themes/default/lv_theme_default.c ****     lv_style_set_pad_top(&theme->styles.calendar_header, PAD_SMALL);
 5304              		.loc 1 553 58 discriminator 18 view .LVU1215
 5305 136e 5031     		adds	r1, r1, #80
 553:Drivers/lvgl/src/themes/default/lv_theme_default.c ****     lv_style_set_pad_top(&theme->styles.calendar_header, PAD_SMALL);
ARM GAS  /var/folders/qx/2_175_4n2s19vhvtspjhb3qh0000gn/T//ccFV8cem.s 			page 146


 5306              		.loc 1 553 5 discriminator 18 view .LVU1216
 5307 1370 A54B     		ldr	r3, .L466
 5308 1372 83FB0123 		smull	r2, r3, r3, r1
 5309 1376 C917     		asrs	r1, r1, #31
 5310 1378 C1EBA311 		rsb	r1, r1, r3, asr #6
 5311              	.L212:
 553:Drivers/lvgl/src/themes/default/lv_theme_default.c ****     lv_style_set_pad_top(&theme->styles.calendar_header, PAD_SMALL);
 5312              		.loc 1 553 5 discriminator 20 view .LVU1217
 5313 137c 2846     		mov	r0, r5
 5314 137e FFF7FEFF 		bl	lv_style_set_pad_hor
 5315              	.LVL612:
 554:Drivers/lvgl/src/themes/default/lv_theme_default.c ****     lv_style_set_pad_bottom(&theme->styles.calendar_header, PAD_TINY);
 5316              		.loc 1 554 5 is_stmt 1 view .LVU1218
 554:Drivers/lvgl/src/themes/default/lv_theme_default.c ****     lv_style_set_pad_bottom(&theme->styles.calendar_header, PAD_TINY);
 5317              		.loc 1 554 58 is_stmt 0 view .LVU1219
 5318 1382 E16A     		ldr	r1, [r4, #44]
 5319 1384 94F82830 		ldrb	r3, [r4, #40]	@ zero_extendqisi2
 5320 1388 012B     		cmp	r3, #1
 5321 138a 00F05B84 		beq	.L365
 554:Drivers/lvgl/src/themes/default/lv_theme_default.c ****     lv_style_set_pad_bottom(&theme->styles.calendar_header, PAD_TINY);
 5322              		.loc 1 554 58 discriminator 1 view .LVU1220
 5323 138e 022B     		cmp	r3, #2
 5324 1390 00F05584 		beq	.L434
 554:Drivers/lvgl/src/themes/default/lv_theme_default.c ****     lv_style_set_pad_bottom(&theme->styles.calendar_header, PAD_TINY);
 5325              		.loc 1 554 58 discriminator 4 view .LVU1221
 5326 1394 0A23     		movs	r3, #10
 5327              	.L213:
 554:Drivers/lvgl/src/themes/default/lv_theme_default.c ****     lv_style_set_pad_bottom(&theme->styles.calendar_header, PAD_TINY);
 5328              		.loc 1 554 58 discriminator 8 view .LVU1222
 5329 1396 03FB01F1 		mul	r1, r3, r1
 554:Drivers/lvgl/src/themes/default/lv_theme_default.c ****     lv_style_set_pad_bottom(&theme->styles.calendar_header, PAD_TINY);
 5330              		.loc 1 554 5 discriminator 8 view .LVU1223
 5331 139a EF29     		cmp	r1, #239
 5332 139c 40F35584 		ble	.L367
 554:Drivers/lvgl/src/themes/default/lv_theme_default.c ****     lv_style_set_pad_bottom(&theme->styles.calendar_header, PAD_TINY);
 5333              		.loc 1 554 58 discriminator 18 view .LVU1224
 5334 13a0 5031     		adds	r1, r1, #80
 554:Drivers/lvgl/src/themes/default/lv_theme_default.c ****     lv_style_set_pad_bottom(&theme->styles.calendar_header, PAD_TINY);
 5335              		.loc 1 554 5 discriminator 18 view .LVU1225
 5336 13a2 994B     		ldr	r3, .L466
 5337 13a4 83FB0123 		smull	r2, r3, r3, r1
 5338 13a8 C917     		asrs	r1, r1, #31
 5339 13aa C1EBA311 		rsb	r1, r1, r3, asr #6
 5340              	.L214:
 554:Drivers/lvgl/src/themes/default/lv_theme_default.c ****     lv_style_set_pad_bottom(&theme->styles.calendar_header, PAD_TINY);
 5341              		.loc 1 554 5 discriminator 20 view .LVU1226
 5342 13ae 2846     		mov	r0, r5
 5343 13b0 FFF7FEFF 		bl	lv_style_set_pad_top
 5344              	.LVL613:
 555:Drivers/lvgl/src/themes/default/lv_theme_default.c ****     lv_style_set_pad_gap(&theme->styles.calendar_header, PAD_SMALL);
 5345              		.loc 1 555 5 is_stmt 1 view .LVU1227
 555:Drivers/lvgl/src/themes/default/lv_theme_default.c ****     lv_style_set_pad_gap(&theme->styles.calendar_header, PAD_SMALL);
 5346              		.loc 1 555 61 is_stmt 0 view .LVU1228
 5347 13b4 E16A     		ldr	r1, [r4, #44]
 5348 13b6 94F82830 		ldrb	r3, [r4, #40]	@ zero_extendqisi2
 5349 13ba 012B     		cmp	r3, #1
 5350 13bc 00F04B84 		beq	.L368
ARM GAS  /var/folders/qx/2_175_4n2s19vhvtspjhb3qh0000gn/T//ccFV8cem.s 			page 147


 555:Drivers/lvgl/src/themes/default/lv_theme_default.c ****     lv_style_set_pad_gap(&theme->styles.calendar_header, PAD_SMALL);
 5351              		.loc 1 555 61 discriminator 1 view .LVU1229
 5352 13c0 022B     		cmp	r3, #2
 5353 13c2 00F04584 		beq	.L435
 555:Drivers/lvgl/src/themes/default/lv_theme_default.c ****     lv_style_set_pad_gap(&theme->styles.calendar_header, PAD_SMALL);
 5354              		.loc 1 555 61 discriminator 4 view .LVU1230
 5355 13c6 0223     		movs	r3, #2
 5356              	.L215:
 555:Drivers/lvgl/src/themes/default/lv_theme_default.c ****     lv_style_set_pad_gap(&theme->styles.calendar_header, PAD_SMALL);
 5357              		.loc 1 555 61 discriminator 8 view .LVU1231
 5358 13c8 03FB01F1 		mul	r1, r3, r1
 555:Drivers/lvgl/src/themes/default/lv_theme_default.c ****     lv_style_set_pad_gap(&theme->styles.calendar_header, PAD_SMALL);
 5359              		.loc 1 555 5 discriminator 8 view .LVU1232
 5360 13cc EF29     		cmp	r1, #239
 5361 13ce 40F34584 		ble	.L370
 555:Drivers/lvgl/src/themes/default/lv_theme_default.c ****     lv_style_set_pad_gap(&theme->styles.calendar_header, PAD_SMALL);
 5362              		.loc 1 555 61 discriminator 18 view .LVU1233
 5363 13d2 5031     		adds	r1, r1, #80
 555:Drivers/lvgl/src/themes/default/lv_theme_default.c ****     lv_style_set_pad_gap(&theme->styles.calendar_header, PAD_SMALL);
 5364              		.loc 1 555 5 discriminator 18 view .LVU1234
 5365 13d4 8C4B     		ldr	r3, .L466
 5366 13d6 83FB0123 		smull	r2, r3, r3, r1
 5367 13da C917     		asrs	r1, r1, #31
 5368 13dc C1EBA311 		rsb	r1, r1, r3, asr #6
 5369              	.L216:
 555:Drivers/lvgl/src/themes/default/lv_theme_default.c ****     lv_style_set_pad_gap(&theme->styles.calendar_header, PAD_SMALL);
 5370              		.loc 1 555 5 discriminator 20 view .LVU1235
 5371 13e0 2846     		mov	r0, r5
 5372 13e2 FFF7FEFF 		bl	lv_style_set_pad_bottom
 5373              	.LVL614:
 556:Drivers/lvgl/src/themes/default/lv_theme_default.c **** #endif
 5374              		.loc 1 556 5 is_stmt 1 view .LVU1236
 556:Drivers/lvgl/src/themes/default/lv_theme_default.c **** #endif
 5375              		.loc 1 556 58 is_stmt 0 view .LVU1237
 5376 13e6 E16A     		ldr	r1, [r4, #44]
 5377 13e8 94F82830 		ldrb	r3, [r4, #40]	@ zero_extendqisi2
 5378 13ec 012B     		cmp	r3, #1
 5379 13ee 00F03B84 		beq	.L371
 556:Drivers/lvgl/src/themes/default/lv_theme_default.c **** #endif
 5380              		.loc 1 556 58 discriminator 1 view .LVU1238
 5381 13f2 022B     		cmp	r3, #2
 5382 13f4 00F03584 		beq	.L436
 556:Drivers/lvgl/src/themes/default/lv_theme_default.c **** #endif
 5383              		.loc 1 556 58 discriminator 4 view .LVU1239
 5384 13f8 0A23     		movs	r3, #10
 5385              	.L217:
 556:Drivers/lvgl/src/themes/default/lv_theme_default.c **** #endif
 5386              		.loc 1 556 58 discriminator 8 view .LVU1240
 5387 13fa 03FB01F1 		mul	r1, r3, r1
 556:Drivers/lvgl/src/themes/default/lv_theme_default.c **** #endif
 5388              		.loc 1 556 5 discriminator 8 view .LVU1241
 5389 13fe EF29     		cmp	r1, #239
 5390 1400 40F33584 		ble	.L373
 556:Drivers/lvgl/src/themes/default/lv_theme_default.c **** #endif
 5391              		.loc 1 556 58 discriminator 18 view .LVU1242
 5392 1404 5031     		adds	r1, r1, #80
 556:Drivers/lvgl/src/themes/default/lv_theme_default.c **** #endif
ARM GAS  /var/folders/qx/2_175_4n2s19vhvtspjhb3qh0000gn/T//ccFV8cem.s 			page 148


 5393              		.loc 1 556 5 discriminator 18 view .LVU1243
 5394 1406 804B     		ldr	r3, .L466
 5395 1408 83FB0123 		smull	r2, r3, r3, r1
 5396 140c C917     		asrs	r1, r1, #31
 5397 140e C1EBA311 		rsb	r1, r1, r3, asr #6
 5398              	.L218:
 556:Drivers/lvgl/src/themes/default/lv_theme_default.c **** #endif
 5399              		.loc 1 556 5 discriminator 20 view .LVU1244
 5400 1412 2846     		mov	r0, r5
 5401 1414 FFF7FEFF 		bl	lv_style_set_pad_gap
 5402              	.LVL615:
 560:Drivers/lvgl/src/themes/default/lv_theme_default.c ****     lv_style_set_bg_color(&theme->styles.msgbox_backdrop_bg, lv_palette_main(LV_PALETTE_GREY));
 5403              		.loc 1 560 5 is_stmt 1 view .LVU1245
 5404 1418 04F53E75 		add	r5, r4, #760
 5405 141c 2846     		mov	r0, r5
 5406 141e FFF7FEFF 		bl	style_init_reset
 5407              	.LVL616:
 561:Drivers/lvgl/src/themes/default/lv_theme_default.c ****     lv_style_set_bg_opa(&theme->styles.msgbox_backdrop_bg, LV_OPA_50);
 5408              		.loc 1 561 5 view .LVU1246
 5409 1422 1220     		movs	r0, #18
 5410 1424 FFF7FEFF 		bl	lv_palette_main
 5411              	.LVL617:
 5412 1428 8DF83800 		strb	r0, [sp, #56]
 5413 142c C0F30723 		ubfx	r3, r0, #8, #8
 5414 1430 8DF83930 		strb	r3, [sp, #57]
 5415 1434 C0F30740 		ubfx	r0, r0, #16, #8
 5416 1438 8DF83A00 		strb	r0, [sp, #58]
 561:Drivers/lvgl/src/themes/default/lv_theme_default.c ****     lv_style_set_bg_opa(&theme->styles.msgbox_backdrop_bg, LV_OPA_50);
 5417              		.loc 1 561 5 is_stmt 0 discriminator 1 view .LVU1247
 5418 143c 0E99     		ldr	r1, [sp, #56]
 5419 143e 2846     		mov	r0, r5
 5420 1440 FFF7FEFF 		bl	lv_style_set_bg_color
 5421              	.LVL618:
 562:Drivers/lvgl/src/themes/default/lv_theme_default.c **** #endif
 5422              		.loc 1 562 5 is_stmt 1 view .LVU1248
 5423 1444 7F21     		movs	r1, #127
 5424 1446 2846     		mov	r0, r5
 5425 1448 FFF7FEFF 		bl	lv_style_set_bg_opa
 5426              	.LVL619:
 565:Drivers/lvgl/src/themes/default/lv_theme_default.c ****     lv_style_set_shadow_width(&theme->styles.keyboard_button_bg, 0);
 5427              		.loc 1 565 5 view .LVU1249
 5428 144c 04F54175 		add	r5, r4, #772
 5429 1450 2846     		mov	r0, r5
 5430 1452 FFF7FEFF 		bl	style_init_reset
 5431              	.LVL620:
 566:Drivers/lvgl/src/themes/default/lv_theme_default.c ****     lv_style_set_radius(&theme->styles.keyboard_button_bg,
 5432              		.loc 1 566 5 view .LVU1250
 5433 1456 0021     		movs	r1, #0
 5434 1458 2846     		mov	r0, r5
 5435 145a FFF7FEFF 		bl	lv_style_set_shadow_width
 5436              	.LVL621:
 567:Drivers/lvgl/src/themes/default/lv_theme_default.c ****                         theme->disp_size == DISP_SMALL ? RADIUS_DEFAULT / 2 : RADIUS_DEFAULT);
 5437              		.loc 1 567 5 view .LVU1251
 568:Drivers/lvgl/src/themes/default/lv_theme_default.c **** #endif
 5438              		.loc 1 568 30 is_stmt 0 view .LVU1252
 5439 145e 94F82830 		ldrb	r3, [r4, #40]	@ zero_extendqisi2
 567:Drivers/lvgl/src/themes/default/lv_theme_default.c ****                         theme->disp_size == DISP_SMALL ? RADIUS_DEFAULT / 2 : RADIUS_DEFAULT);
ARM GAS  /var/folders/qx/2_175_4n2s19vhvtspjhb3qh0000gn/T//ccFV8cem.s 			page 149


 5440              		.loc 1 567 5 view .LVU1253
 5441 1462 032B     		cmp	r3, #3
 5442 1464 00F00684 		beq	.L437
 568:Drivers/lvgl/src/themes/default/lv_theme_default.c **** #endif
 5443              		.loc 1 568 79 view .LVU1254
 5444 1468 E16A     		ldr	r1, [r4, #44]
 5445 146a 012B     		cmp	r3, #1
 5446 146c 00F01584 		beq	.L438
 568:Drivers/lvgl/src/themes/default/lv_theme_default.c **** #endif
 5447              		.loc 1 568 79 discriminator 12 view .LVU1255
 5448 1470 0823     		movs	r3, #8
 5449              	.L222:
 568:Drivers/lvgl/src/themes/default/lv_theme_default.c **** #endif
 5450              		.loc 1 568 79 discriminator 14 view .LVU1256
 5451 1472 03FB01F1 		mul	r1, r3, r1
 5452 1476 EF29     		cmp	r1, #239
 5453 1478 40F31584 		ble	.L377
 568:Drivers/lvgl/src/themes/default/lv_theme_default.c **** #endif
 5454              		.loc 1 568 79 discriminator 20 view .LVU1257
 5455 147c 5031     		adds	r1, r1, #80
 5456 147e 624B     		ldr	r3, .L466
 5457 1480 83FB0123 		smull	r2, r3, r3, r1
 5458 1484 C917     		asrs	r1, r1, #31
 5459 1486 C1EBA311 		rsb	r1, r1, r3, asr #6
 5460              	.L221:
 567:Drivers/lvgl/src/themes/default/lv_theme_default.c ****                         theme->disp_size == DISP_SMALL ? RADIUS_DEFAULT / 2 : RADIUS_DEFAULT);
 5461              		.loc 1 567 5 discriminator 1 view .LVU1258
 5462 148a 2846     		mov	r0, r5
 5463 148c FFF7FEFF 		bl	lv_style_set_radius
 5464              	.LVL622:
 572:Drivers/lvgl/src/themes/default/lv_theme_default.c ****     lv_style_set_border_color(&theme->styles.tab_btn, theme->base.color_primary);
 5465              		.loc 1 572 5 is_stmt 1 view .LVU1259
 5466 1490 04F55075 		add	r5, r4, #832
 5467 1494 2846     		mov	r0, r5
 5468 1496 FFF7FEFF 		bl	style_init_reset
 5469              	.LVL623:
 573:Drivers/lvgl/src/themes/default/lv_theme_default.c ****     lv_style_set_border_width(&theme->styles.tab_btn, BORDER_WIDTH * 2);
 5470              		.loc 1 573 5 view .LVU1260
 5471 149a 2169     		ldr	r1, [r4, #16]
 5472 149c 2846     		mov	r0, r5
 5473 149e FFF7FEFF 		bl	lv_style_set_border_color
 5474              	.LVL624:
 574:Drivers/lvgl/src/themes/default/lv_theme_default.c ****     lv_style_set_border_side(&theme->styles.tab_btn, LV_BORDER_SIDE_BOTTOM);
 5475              		.loc 1 574 5 view .LVU1261
 574:Drivers/lvgl/src/themes/default/lv_theme_default.c ****     lv_style_set_border_side(&theme->styles.tab_btn, LV_BORDER_SIDE_BOTTOM);
 5476              		.loc 1 574 55 is_stmt 0 view .LVU1262
 5477 14a2 E36A     		ldr	r3, [r4, #44]
 574:Drivers/lvgl/src/themes/default/lv_theme_default.c ****     lv_style_set_border_side(&theme->styles.tab_btn, LV_BORDER_SIDE_BOTTOM);
 5478              		.loc 1 574 5 view .LVU1263
 5479 14a4 772B     		cmp	r3, #119
 5480 14a6 40F30184 		ble	.L378
 574:Drivers/lvgl/src/themes/default/lv_theme_default.c ****     lv_style_set_border_side(&theme->styles.tab_btn, LV_BORDER_SIDE_BOTTOM);
 5481              		.loc 1 574 55 discriminator 1 view .LVU1264
 5482 14aa 2833     		adds	r3, r3, #40
 5483 14ac 564A     		ldr	r2, .L466
 5484 14ae 82FB0312 		smull	r1, r2, r2, r3
 5485 14b2 D917     		asrs	r1, r3, #31
ARM GAS  /var/folders/qx/2_175_4n2s19vhvtspjhb3qh0000gn/T//ccFV8cem.s 			page 150


 5486 14b4 C1EB6211 		rsb	r1, r1, r2, asr #5
 574:Drivers/lvgl/src/themes/default/lv_theme_default.c ****     lv_style_set_border_side(&theme->styles.tab_btn, LV_BORDER_SIDE_BOTTOM);
 5487              		.loc 1 574 5 discriminator 1 view .LVU1265
 5488 14b8 4900     		lsls	r1, r1, #1
 5489              	.L223:
 574:Drivers/lvgl/src/themes/default/lv_theme_default.c ****     lv_style_set_border_side(&theme->styles.tab_btn, LV_BORDER_SIDE_BOTTOM);
 5490              		.loc 1 574 5 discriminator 4 view .LVU1266
 5491 14ba 2846     		mov	r0, r5
 5492 14bc FFF7FEFF 		bl	lv_style_set_border_width
 5493              	.LVL625:
 575:Drivers/lvgl/src/themes/default/lv_theme_default.c ****     lv_style_set_pad_top(&theme->styles.tab_btn, BORDER_WIDTH * 2);
 5494              		.loc 1 575 5 is_stmt 1 view .LVU1267
 5495 14c0 0121     		movs	r1, #1
 5496 14c2 2846     		mov	r0, r5
 5497 14c4 FFF7FEFF 		bl	lv_style_set_border_side
 5498              	.LVL626:
 576:Drivers/lvgl/src/themes/default/lv_theme_default.c **** 
 5499              		.loc 1 576 5 view .LVU1268
 576:Drivers/lvgl/src/themes/default/lv_theme_default.c **** 
 5500              		.loc 1 576 50 is_stmt 0 view .LVU1269
 5501 14c8 E36A     		ldr	r3, [r4, #44]
 576:Drivers/lvgl/src/themes/default/lv_theme_default.c **** 
 5502              		.loc 1 576 5 view .LVU1270
 5503 14ca 772B     		cmp	r3, #119
 5504 14cc 40F3F083 		ble	.L379
 576:Drivers/lvgl/src/themes/default/lv_theme_default.c **** 
 5505              		.loc 1 576 50 discriminator 1 view .LVU1271
 5506 14d0 2833     		adds	r3, r3, #40
 5507 14d2 4D4A     		ldr	r2, .L466
 5508 14d4 82FB0312 		smull	r1, r2, r2, r3
 5509 14d8 D917     		asrs	r1, r3, #31
 5510 14da C1EB6211 		rsb	r1, r1, r2, asr #5
 576:Drivers/lvgl/src/themes/default/lv_theme_default.c **** 
 5511              		.loc 1 576 5 discriminator 1 view .LVU1272
 5512 14de 4900     		lsls	r1, r1, #1
 5513              	.L224:
 576:Drivers/lvgl/src/themes/default/lv_theme_default.c **** 
 5514              		.loc 1 576 5 discriminator 4 view .LVU1273
 5515 14e0 2846     		mov	r0, r5
 5516 14e2 FFF7FEFF 		bl	lv_style_set_pad_top
 5517              	.LVL627:
 578:Drivers/lvgl/src/themes/default/lv_theme_default.c ****     lv_style_set_outline_pad(&theme->styles.tab_bg_focus, -BORDER_WIDTH);
 5518              		.loc 1 578 5 is_stmt 1 view .LVU1274
 5519 14e6 04F54D75 		add	r5, r4, #820
 5520 14ea 2846     		mov	r0, r5
 5521 14ec FFF7FEFF 		bl	style_init_reset
 5522              	.LVL628:
 579:Drivers/lvgl/src/themes/default/lv_theme_default.c **** #endif
 5523              		.loc 1 579 5 view .LVU1275
 579:Drivers/lvgl/src/themes/default/lv_theme_default.c **** #endif
 5524              		.loc 1 579 60 is_stmt 0 view .LVU1276
 5525 14f0 E16A     		ldr	r1, [r4, #44]
 579:Drivers/lvgl/src/themes/default/lv_theme_default.c **** #endif
 5526              		.loc 1 579 5 view .LVU1277
 5527 14f2 7729     		cmp	r1, #119
 5528 14f4 40F3DE83 		ble	.L380
 579:Drivers/lvgl/src/themes/default/lv_theme_default.c **** #endif
ARM GAS  /var/folders/qx/2_175_4n2s19vhvtspjhb3qh0000gn/T//ccFV8cem.s 			page 151


 5529              		.loc 1 579 60 discriminator 1 view .LVU1278
 5530 14f8 2831     		adds	r1, r1, #40
 579:Drivers/lvgl/src/themes/default/lv_theme_default.c **** #endif
 5531              		.loc 1 579 5 discriminator 1 view .LVU1279
 5532 14fa 434B     		ldr	r3, .L466
 5533 14fc 83FB0123 		smull	r2, r3, r3, r1
 5534 1500 C917     		asrs	r1, r1, #31
 5535 1502 A1EB6311 		sub	r1, r1, r3, asr #5
 5536              	.L225:
 579:Drivers/lvgl/src/themes/default/lv_theme_default.c **** #endif
 5537              		.loc 1 579 5 discriminator 4 view .LVU1280
 5538 1506 2846     		mov	r0, r5
 5539 1508 FFF7FEFF 		bl	lv_style_set_outline_pad
 5540              	.LVL629:
 583:Drivers/lvgl/src/themes/default/lv_theme_default.c ****     lv_style_set_pad_hor(&theme->styles.list_bg, PAD_DEF);
 5541              		.loc 1 583 5 is_stmt 1 view .LVU1281
 5542 150c 04F54475 		add	r5, r4, #784
 5543 1510 2846     		mov	r0, r5
 5544 1512 FFF7FEFF 		bl	style_init_reset
 5545              	.LVL630:
 584:Drivers/lvgl/src/themes/default/lv_theme_default.c ****     lv_style_set_pad_ver(&theme->styles.list_bg, 0);
 5546              		.loc 1 584 5 view .LVU1282
 584:Drivers/lvgl/src/themes/default/lv_theme_default.c ****     lv_style_set_pad_ver(&theme->styles.list_bg, 0);
 5547              		.loc 1 584 50 is_stmt 0 view .LVU1283
 5548 1516 E16A     		ldr	r1, [r4, #44]
 5549 1518 94F82830 		ldrb	r3, [r4, #40]	@ zero_extendqisi2
 5550 151c 012B     		cmp	r3, #1
 5551 151e 00F0CE83 		beq	.L381
 584:Drivers/lvgl/src/themes/default/lv_theme_default.c ****     lv_style_set_pad_ver(&theme->styles.list_bg, 0);
 5552              		.loc 1 584 50 discriminator 1 view .LVU1284
 5553 1522 022B     		cmp	r3, #2
 5554 1524 00F0C983 		beq	.L439
 584:Drivers/lvgl/src/themes/default/lv_theme_default.c ****     lv_style_set_pad_ver(&theme->styles.list_bg, 0);
 5555              		.loc 1 584 50 discriminator 4 view .LVU1285
 5556 1528 1023     		movs	r3, #16
 5557              	.L226:
 584:Drivers/lvgl/src/themes/default/lv_theme_default.c ****     lv_style_set_pad_ver(&theme->styles.list_bg, 0);
 5558              		.loc 1 584 50 discriminator 8 view .LVU1286
 5559 152a 03FB01F1 		mul	r1, r3, r1
 584:Drivers/lvgl/src/themes/default/lv_theme_default.c ****     lv_style_set_pad_ver(&theme->styles.list_bg, 0);
 5560              		.loc 1 584 5 discriminator 8 view .LVU1287
 5561 152e EF29     		cmp	r1, #239
 5562 1530 40F3C783 		ble	.L383
 584:Drivers/lvgl/src/themes/default/lv_theme_default.c ****     lv_style_set_pad_ver(&theme->styles.list_bg, 0);
 5563              		.loc 1 584 50 discriminator 18 view .LVU1288
 5564 1534 5031     		adds	r1, r1, #80
 584:Drivers/lvgl/src/themes/default/lv_theme_default.c ****     lv_style_set_pad_ver(&theme->styles.list_bg, 0);
 5565              		.loc 1 584 5 discriminator 18 view .LVU1289
 5566 1536 344B     		ldr	r3, .L466
 5567 1538 83FB0123 		smull	r2, r3, r3, r1
 5568 153c C917     		asrs	r1, r1, #31
 5569 153e C1EBA311 		rsb	r1, r1, r3, asr #6
 5570              	.L227:
 584:Drivers/lvgl/src/themes/default/lv_theme_default.c ****     lv_style_set_pad_ver(&theme->styles.list_bg, 0);
 5571              		.loc 1 584 5 discriminator 20 view .LVU1290
 5572 1542 2846     		mov	r0, r5
 5573 1544 FFF7FEFF 		bl	lv_style_set_pad_hor
ARM GAS  /var/folders/qx/2_175_4n2s19vhvtspjhb3qh0000gn/T//ccFV8cem.s 			page 152


 5574              	.LVL631:
 585:Drivers/lvgl/src/themes/default/lv_theme_default.c ****     lv_style_set_pad_gap(&theme->styles.list_bg, 0);
 5575              		.loc 1 585 5 is_stmt 1 view .LVU1291
 5576 1548 0021     		movs	r1, #0
 5577 154a 2846     		mov	r0, r5
 5578 154c FFF7FEFF 		bl	lv_style_set_pad_ver
 5579              	.LVL632:
 586:Drivers/lvgl/src/themes/default/lv_theme_default.c ****     lv_style_set_clip_corner(&theme->styles.list_bg, true);
 5580              		.loc 1 586 5 view .LVU1292
 5581 1550 0021     		movs	r1, #0
 5582 1552 2846     		mov	r0, r5
 5583 1554 FFF7FEFF 		bl	lv_style_set_pad_gap
 5584              	.LVL633:
 587:Drivers/lvgl/src/themes/default/lv_theme_default.c **** 
 5585              		.loc 1 587 5 view .LVU1293
 5586 1558 0121     		movs	r1, #1
 5587 155a 2846     		mov	r0, r5
 5588 155c FFF7FEFF 		bl	lv_style_set_clip_corner
 5589              	.LVL634:
 589:Drivers/lvgl/src/themes/default/lv_theme_default.c ****     lv_style_set_border_width(&theme->styles.list_btn, LV_DPX_CALC(theme->disp_dpi, 1));
 5590              		.loc 1 589 5 view .LVU1294
 5591 1560 04F54775 		add	r5, r4, #796
 5592 1564 2846     		mov	r0, r5
 5593 1566 FFF7FEFF 		bl	style_init_reset
 5594              	.LVL635:
 590:Drivers/lvgl/src/themes/default/lv_theme_default.c ****     lv_style_set_border_color(&theme->styles.list_btn, theme->color_grey);
 5595              		.loc 1 590 5 view .LVU1295
 590:Drivers/lvgl/src/themes/default/lv_theme_default.c ****     lv_style_set_border_color(&theme->styles.list_btn, theme->color_grey);
 5596              		.loc 1 590 56 is_stmt 0 view .LVU1296
 5597 156a E16A     		ldr	r1, [r4, #44]
 590:Drivers/lvgl/src/themes/default/lv_theme_default.c ****     lv_style_set_border_color(&theme->styles.list_btn, theme->color_grey);
 5598              		.loc 1 590 5 view .LVU1297
 5599 156c EF29     		cmp	r1, #239
 5600 156e 40F3AA83 		ble	.L384
 590:Drivers/lvgl/src/themes/default/lv_theme_default.c ****     lv_style_set_border_color(&theme->styles.list_btn, theme->color_grey);
 5601              		.loc 1 590 56 discriminator 1 view .LVU1298
 5602 1572 5031     		adds	r1, r1, #80
 590:Drivers/lvgl/src/themes/default/lv_theme_default.c ****     lv_style_set_border_color(&theme->styles.list_btn, theme->color_grey);
 5603              		.loc 1 590 5 discriminator 1 view .LVU1299
 5604 1574 244B     		ldr	r3, .L466
 5605 1576 83FB0123 		smull	r2, r3, r3, r1
 5606 157a C917     		asrs	r1, r1, #31
 5607 157c C1EBA311 		rsb	r1, r1, r3, asr #6
 5608              	.L228:
 590:Drivers/lvgl/src/themes/default/lv_theme_default.c ****     lv_style_set_border_color(&theme->styles.list_btn, theme->color_grey);
 5609              		.loc 1 590 5 discriminator 4 view .LVU1300
 5610 1580 2846     		mov	r0, r5
 5611 1582 FFF7FEFF 		bl	lv_style_set_border_width
 5612              	.LVL636:
 591:Drivers/lvgl/src/themes/default/lv_theme_default.c ****     lv_style_set_border_side(&theme->styles.list_btn, LV_BORDER_SIDE_BOTTOM);
 5613              		.loc 1 591 5 is_stmt 1 view .LVU1301
 5614 1586 94F83930 		ldrb	r3, [r4, #57]	@ zero_extendqisi2
 5615 158a 94F83A20 		ldrb	r2, [r4, #58]	@ zero_extendqisi2
 5616 158e 43EA0223 		orr	r3, r3, r2, lsl #8
 5617 1592 94F83B10 		ldrb	r1, [r4, #59]	@ zero_extendqisi2
 5618 1596 43EA0141 		orr	r1, r3, r1, lsl #16
 5619 159a 2846     		mov	r0, r5
ARM GAS  /var/folders/qx/2_175_4n2s19vhvtspjhb3qh0000gn/T//ccFV8cem.s 			page 153


 5620 159c FFF7FEFF 		bl	lv_style_set_border_color
 5621              	.LVL637:
 592:Drivers/lvgl/src/themes/default/lv_theme_default.c ****     lv_style_set_pad_all(&theme->styles.list_btn, PAD_SMALL);
 5622              		.loc 1 592 5 view .LVU1302
 5623 15a0 0121     		movs	r1, #1
 5624 15a2 2846     		mov	r0, r5
 5625 15a4 FFF7FEFF 		bl	lv_style_set_border_side
 5626              	.LVL638:
 593:Drivers/lvgl/src/themes/default/lv_theme_default.c ****     lv_style_set_pad_column(&theme->styles.list_btn, PAD_SMALL);
 5627              		.loc 1 593 5 view .LVU1303
 593:Drivers/lvgl/src/themes/default/lv_theme_default.c ****     lv_style_set_pad_column(&theme->styles.list_btn, PAD_SMALL);
 5628              		.loc 1 593 51 is_stmt 0 view .LVU1304
 5629 15a8 E16A     		ldr	r1, [r4, #44]
 5630 15aa 94F82830 		ldrb	r3, [r4, #40]	@ zero_extendqisi2
 5631 15ae 012B     		cmp	r3, #1
 5632 15b0 00F08D83 		beq	.L385
 593:Drivers/lvgl/src/themes/default/lv_theme_default.c ****     lv_style_set_pad_column(&theme->styles.list_btn, PAD_SMALL);
 5633              		.loc 1 593 51 discriminator 1 view .LVU1305
 5634 15b4 022B     		cmp	r3, #2
 5635 15b6 00F08883 		beq	.L440
 593:Drivers/lvgl/src/themes/default/lv_theme_default.c ****     lv_style_set_pad_column(&theme->styles.list_btn, PAD_SMALL);
 5636              		.loc 1 593 51 discriminator 4 view .LVU1306
 5637 15ba 0A23     		movs	r3, #10
 5638              	.L229:
 593:Drivers/lvgl/src/themes/default/lv_theme_default.c ****     lv_style_set_pad_column(&theme->styles.list_btn, PAD_SMALL);
 5639              		.loc 1 593 51 discriminator 8 view .LVU1307
 5640 15bc 03FB01F1 		mul	r1, r3, r1
 593:Drivers/lvgl/src/themes/default/lv_theme_default.c ****     lv_style_set_pad_column(&theme->styles.list_btn, PAD_SMALL);
 5641              		.loc 1 593 5 discriminator 8 view .LVU1308
 5642 15c0 EF29     		cmp	r1, #239
 5643 15c2 40F38683 		ble	.L387
 593:Drivers/lvgl/src/themes/default/lv_theme_default.c ****     lv_style_set_pad_column(&theme->styles.list_btn, PAD_SMALL);
 5644              		.loc 1 593 51 discriminator 18 view .LVU1309
 5645 15c6 5031     		adds	r1, r1, #80
 593:Drivers/lvgl/src/themes/default/lv_theme_default.c ****     lv_style_set_pad_column(&theme->styles.list_btn, PAD_SMALL);
 5646              		.loc 1 593 5 discriminator 18 view .LVU1310
 5647 15c8 0F4B     		ldr	r3, .L466
 5648 15ca 83FB0123 		smull	r2, r3, r3, r1
 5649 15ce C917     		asrs	r1, r1, #31
 5650 15d0 C1EBA311 		rsb	r1, r1, r3, asr #6
 5651              	.L230:
 593:Drivers/lvgl/src/themes/default/lv_theme_default.c ****     lv_style_set_pad_column(&theme->styles.list_btn, PAD_SMALL);
 5652              		.loc 1 593 5 discriminator 20 view .LVU1311
 5653 15d4 2846     		mov	r0, r5
 5654 15d6 FFF7FEFF 		bl	lv_style_set_pad_all
 5655              	.LVL639:
 594:Drivers/lvgl/src/themes/default/lv_theme_default.c **** 
 5656              		.loc 1 594 5 is_stmt 1 view .LVU1312
 594:Drivers/lvgl/src/themes/default/lv_theme_default.c **** 
 5657              		.loc 1 594 54 is_stmt 0 view .LVU1313
 5658 15da E16A     		ldr	r1, [r4, #44]
 5659 15dc 94F82830 		ldrb	r3, [r4, #40]	@ zero_extendqisi2
 5660 15e0 012B     		cmp	r3, #1
 5661 15e2 00F07A83 		beq	.L388
 594:Drivers/lvgl/src/themes/default/lv_theme_default.c **** 
 5662              		.loc 1 594 54 discriminator 1 view .LVU1314
 5663 15e6 022B     		cmp	r3, #2
ARM GAS  /var/folders/qx/2_175_4n2s19vhvtspjhb3qh0000gn/T//ccFV8cem.s 			page 154


 5664 15e8 00F07583 		beq	.L441
 594:Drivers/lvgl/src/themes/default/lv_theme_default.c **** 
 5665              		.loc 1 594 54 discriminator 4 view .LVU1315
 5666 15ec 0A23     		movs	r3, #10
 5667              	.L231:
 594:Drivers/lvgl/src/themes/default/lv_theme_default.c **** 
 5668              		.loc 1 594 54 discriminator 8 view .LVU1316
 5669 15ee 03FB01F1 		mul	r1, r3, r1
 594:Drivers/lvgl/src/themes/default/lv_theme_default.c **** 
 5670              		.loc 1 594 5 discriminator 8 view .LVU1317
 5671 15f2 EF29     		cmp	r1, #239
 5672 15f4 40F37383 		ble	.L390
 594:Drivers/lvgl/src/themes/default/lv_theme_default.c **** 
 5673              		.loc 1 594 54 discriminator 18 view .LVU1318
 5674 15f8 5031     		adds	r1, r1, #80
 594:Drivers/lvgl/src/themes/default/lv_theme_default.c **** 
 5675              		.loc 1 594 5 discriminator 18 view .LVU1319
 5676 15fa 034B     		ldr	r3, .L466
 5677 15fc 83FB0123 		smull	r2, r3, r3, r1
 5678 1600 C917     		asrs	r1, r1, #31
 5679 1602 C1EBA311 		rsb	r1, r1, r3, asr #6
 5680 1606 01E0     		b	.L467
 5681              	.L468:
 5682              		.align	2
 5683              	.L466:
 5684 1608 67666666 		.word	1717986919
 5685              	.L467:
 5686              	.L232:
 594:Drivers/lvgl/src/themes/default/lv_theme_default.c **** 
 5687              		.loc 1 594 5 discriminator 20 view .LVU1320
 5688 160c 2846     		mov	r0, r5
 5689 160e FFF7FEFF 		bl	lv_style_set_pad_column
 5690              	.LVL640:
 596:Drivers/lvgl/src/themes/default/lv_theme_default.c ****     lv_style_set_transform_width(&theme->styles.list_item_grow, PAD_DEF);
 5691              		.loc 1 596 5 is_stmt 1 view .LVU1321
 5692 1612 04F54A75 		add	r5, r4, #808
 5693 1616 2846     		mov	r0, r5
 5694 1618 FFF7FEFF 		bl	style_init_reset
 5695              	.LVL641:
 597:Drivers/lvgl/src/themes/default/lv_theme_default.c **** #endif
 5696              		.loc 1 597 5 view .LVU1322
 597:Drivers/lvgl/src/themes/default/lv_theme_default.c **** #endif
 5697              		.loc 1 597 65 is_stmt 0 view .LVU1323
 5698 161c E16A     		ldr	r1, [r4, #44]
 5699 161e 94F82830 		ldrb	r3, [r4, #40]	@ zero_extendqisi2
 5700 1622 012B     		cmp	r3, #1
 5701 1624 00F05F83 		beq	.L391
 597:Drivers/lvgl/src/themes/default/lv_theme_default.c **** #endif
 5702              		.loc 1 597 65 discriminator 1 view .LVU1324
 5703 1628 022B     		cmp	r3, #2
 5704 162a 00F05A83 		beq	.L442
 597:Drivers/lvgl/src/themes/default/lv_theme_default.c **** #endif
 5705              		.loc 1 597 65 discriminator 4 view .LVU1325
 5706 162e 1023     		movs	r3, #16
 5707              	.L233:
 597:Drivers/lvgl/src/themes/default/lv_theme_default.c **** #endif
 5708              		.loc 1 597 65 discriminator 8 view .LVU1326
ARM GAS  /var/folders/qx/2_175_4n2s19vhvtspjhb3qh0000gn/T//ccFV8cem.s 			page 155


 5709 1630 03FB01F1 		mul	r1, r3, r1
 597:Drivers/lvgl/src/themes/default/lv_theme_default.c **** #endif
 5710              		.loc 1 597 5 discriminator 8 view .LVU1327
 5711 1634 EF29     		cmp	r1, #239
 5712 1636 40F35883 		ble	.L393
 597:Drivers/lvgl/src/themes/default/lv_theme_default.c **** #endif
 5713              		.loc 1 597 65 discriminator 18 view .LVU1328
 5714 163a 5031     		adds	r1, r1, #80
 597:Drivers/lvgl/src/themes/default/lv_theme_default.c **** #endif
 5715              		.loc 1 597 5 discriminator 18 view .LVU1329
 5716 163c E94B     		ldr	r3, .L469
 5717 163e 83FB0123 		smull	r2, r3, r3, r1
 5718 1642 C917     		asrs	r1, r1, #31
 5719 1644 C1EBA311 		rsb	r1, r1, r3, asr #6
 5720              	.L234:
 597:Drivers/lvgl/src/themes/default/lv_theme_default.c **** #endif
 5721              		.loc 1 597 5 discriminator 20 view .LVU1330
 5722 1648 2846     		mov	r0, r5
 5723 164a FFF7FEFF 		bl	lv_style_set_transform_width
 5724              	.LVL642:
 601:Drivers/lvgl/src/themes/default/lv_theme_default.c ****     lv_style_set_bg_opa(&theme->styles.led, LV_OPA_COVER);
 5725              		.loc 1 601 5 is_stmt 1 view .LVU1331
 5726 164e 04F55375 		add	r5, r4, #844
 5727 1652 2846     		mov	r0, r5
 5728 1654 FFF7FEFF 		bl	style_init_reset
 5729              	.LVL643:
 602:Drivers/lvgl/src/themes/default/lv_theme_default.c ****     lv_style_set_bg_color(&theme->styles.led, lv_color_white());
 5730              		.loc 1 602 5 view .LVU1332
 5731 1658 FF21     		movs	r1, #255
 5732 165a 2846     		mov	r0, r5
 5733 165c FFF7FEFF 		bl	lv_style_set_bg_opa
 5734              	.LVL644:
 603:Drivers/lvgl/src/themes/default/lv_theme_default.c ****     lv_style_set_bg_grad_color(&theme->styles.led, lv_palette_main(LV_PALETTE_GREY));
 5735              		.loc 1 603 5 view .LVU1333
 5736 1660 FFF7FEFF 		bl	lv_color_white
 5737              	.LVL645:
 5738 1664 8DF83C00 		strb	r0, [sp, #60]
 5739 1668 C0F30723 		ubfx	r3, r0, #8, #8
 5740 166c 8DF83D30 		strb	r3, [sp, #61]
 5741 1670 C0F30740 		ubfx	r0, r0, #16, #8
 5742 1674 8DF83E00 		strb	r0, [sp, #62]
 603:Drivers/lvgl/src/themes/default/lv_theme_default.c ****     lv_style_set_bg_grad_color(&theme->styles.led, lv_palette_main(LV_PALETTE_GREY));
 5743              		.loc 1 603 5 is_stmt 0 discriminator 1 view .LVU1334
 5744 1678 0F99     		ldr	r1, [sp, #60]
 5745 167a 2846     		mov	r0, r5
 5746 167c FFF7FEFF 		bl	lv_style_set_bg_color
 5747              	.LVL646:
 604:Drivers/lvgl/src/themes/default/lv_theme_default.c ****     lv_style_set_radius(&theme->styles.led, LV_RADIUS_CIRCLE);
 5748              		.loc 1 604 5 is_stmt 1 view .LVU1335
 5749 1680 1220     		movs	r0, #18
 5750 1682 FFF7FEFF 		bl	lv_palette_main
 5751              	.LVL647:
 5752 1686 8DF84000 		strb	r0, [sp, #64]
 5753 168a C0F30723 		ubfx	r3, r0, #8, #8
 5754 168e 8DF84130 		strb	r3, [sp, #65]
 5755 1692 C0F30740 		ubfx	r0, r0, #16, #8
 5756 1696 8DF84200 		strb	r0, [sp, #66]
ARM GAS  /var/folders/qx/2_175_4n2s19vhvtspjhb3qh0000gn/T//ccFV8cem.s 			page 156


 604:Drivers/lvgl/src/themes/default/lv_theme_default.c ****     lv_style_set_radius(&theme->styles.led, LV_RADIUS_CIRCLE);
 5757              		.loc 1 604 5 is_stmt 0 discriminator 1 view .LVU1336
 5758 169a 1099     		ldr	r1, [sp, #64]
 5759 169c 2846     		mov	r0, r5
 5760 169e FFF7FEFF 		bl	lv_style_set_bg_grad_color
 5761              	.LVL648:
 605:Drivers/lvgl/src/themes/default/lv_theme_default.c ****     lv_style_set_shadow_width(&theme->styles.led, LV_DPX_CALC(theme->disp_dpi, 15));
 5762              		.loc 1 605 5 is_stmt 1 view .LVU1337
 5763 16a2 47F6FF71 		movw	r1, #32767
 5764 16a6 2846     		mov	r0, r5
 5765 16a8 FFF7FEFF 		bl	lv_style_set_radius
 5766              	.LVL649:
 606:Drivers/lvgl/src/themes/default/lv_theme_default.c ****     lv_style_set_shadow_color(&theme->styles.led, lv_color_white());
 5767              		.loc 1 606 5 view .LVU1338
 606:Drivers/lvgl/src/themes/default/lv_theme_default.c ****     lv_style_set_shadow_color(&theme->styles.led, lv_color_white());
 5768              		.loc 1 606 51 is_stmt 0 view .LVU1339
 5769 16ac E16A     		ldr	r1, [r4, #44]
 5770 16ae C1EB0111 		rsb	r1, r1, r1, lsl #4
 606:Drivers/lvgl/src/themes/default/lv_theme_default.c ****     lv_style_set_shadow_color(&theme->styles.led, lv_color_white());
 5771              		.loc 1 606 5 view .LVU1340
 5772 16b2 EF29     		cmp	r1, #239
 5773 16b4 40F31B83 		ble	.L394
 606:Drivers/lvgl/src/themes/default/lv_theme_default.c ****     lv_style_set_shadow_color(&theme->styles.led, lv_color_white());
 5774              		.loc 1 606 51 discriminator 1 view .LVU1341
 5775 16b8 5031     		adds	r1, r1, #80
 606:Drivers/lvgl/src/themes/default/lv_theme_default.c ****     lv_style_set_shadow_color(&theme->styles.led, lv_color_white());
 5776              		.loc 1 606 5 discriminator 1 view .LVU1342
 5777 16ba CA4B     		ldr	r3, .L469
 5778 16bc 83FB0123 		smull	r2, r3, r3, r1
 5779 16c0 C917     		asrs	r1, r1, #31
 5780 16c2 C1EBA311 		rsb	r1, r1, r3, asr #6
 5781              	.L235:
 606:Drivers/lvgl/src/themes/default/lv_theme_default.c ****     lv_style_set_shadow_color(&theme->styles.led, lv_color_white());
 5782              		.loc 1 606 5 discriminator 4 view .LVU1343
 5783 16c6 2846     		mov	r0, r5
 5784 16c8 FFF7FEFF 		bl	lv_style_set_shadow_width
 5785              	.LVL650:
 607:Drivers/lvgl/src/themes/default/lv_theme_default.c ****     lv_style_set_shadow_spread(&theme->styles.led, LV_DPX_CALC(theme->disp_dpi, 5));
 5786              		.loc 1 607 5 is_stmt 1 view .LVU1344
 5787 16cc FFF7FEFF 		bl	lv_color_white
 5788              	.LVL651:
 5789 16d0 8DF84400 		strb	r0, [sp, #68]
 5790 16d4 C0F30723 		ubfx	r3, r0, #8, #8
 5791 16d8 8DF84530 		strb	r3, [sp, #69]
 5792 16dc C0F30740 		ubfx	r0, r0, #16, #8
 5793 16e0 8DF84600 		strb	r0, [sp, #70]
 607:Drivers/lvgl/src/themes/default/lv_theme_default.c ****     lv_style_set_shadow_spread(&theme->styles.led, LV_DPX_CALC(theme->disp_dpi, 5));
 5794              		.loc 1 607 5 is_stmt 0 discriminator 1 view .LVU1345
 5795 16e4 1199     		ldr	r1, [sp, #68]
 5796 16e6 2846     		mov	r0, r5
 5797 16e8 FFF7FEFF 		bl	lv_style_set_shadow_color
 5798              	.LVL652:
 608:Drivers/lvgl/src/themes/default/lv_theme_default.c **** #endif
 5799              		.loc 1 608 5 is_stmt 1 view .LVU1346
 608:Drivers/lvgl/src/themes/default/lv_theme_default.c **** #endif
 5800              		.loc 1 608 52 is_stmt 0 view .LVU1347
 5801 16ec E16A     		ldr	r1, [r4, #44]
ARM GAS  /var/folders/qx/2_175_4n2s19vhvtspjhb3qh0000gn/T//ccFV8cem.s 			page 157


 5802 16ee 01EB8101 		add	r1, r1, r1, lsl #2
 608:Drivers/lvgl/src/themes/default/lv_theme_default.c **** #endif
 5803              		.loc 1 608 5 view .LVU1348
 5804 16f2 EF29     		cmp	r1, #239
 5805 16f4 40F3FD82 		ble	.L395
 608:Drivers/lvgl/src/themes/default/lv_theme_default.c **** #endif
 5806              		.loc 1 608 52 discriminator 1 view .LVU1349
 5807 16f8 5031     		adds	r1, r1, #80
 608:Drivers/lvgl/src/themes/default/lv_theme_default.c **** #endif
 5808              		.loc 1 608 5 discriminator 1 view .LVU1350
 5809 16fa BA4B     		ldr	r3, .L469
 5810 16fc 83FB0123 		smull	r2, r3, r3, r1
 5811 1700 C917     		asrs	r1, r1, #31
 5812 1702 C1EBA311 		rsb	r1, r1, r3, asr #6
 5813              	.L236:
 608:Drivers/lvgl/src/themes/default/lv_theme_default.c **** #endif
 5814              		.loc 1 608 5 discriminator 4 view .LVU1351
 5815 1706 2846     		mov	r0, r5
 5816 1708 FFF7FEFF 		bl	lv_style_set_shadow_spread
 5817              	.LVL653:
 612:Drivers/lvgl/src/themes/default/lv_theme_default.c ****     lv_style_set_line_color(&theme->styles.scale, theme->color_text);
 5818              		.loc 1 612 5 is_stmt 1 view .LVU1352
 5819 170c 04F55675 		add	r5, r4, #856
 5820 1710 2846     		mov	r0, r5
 5821 1712 FFF7FEFF 		bl	style_init_reset
 5822              	.LVL654:
 613:Drivers/lvgl/src/themes/default/lv_theme_default.c ****     lv_style_set_line_width(&theme->styles.scale, LV_DPX(2));
 5823              		.loc 1 613 5 view .LVU1353
 5824 1716 94F83330 		ldrb	r3, [r4, #51]	@ zero_extendqisi2
 5825 171a 94F83420 		ldrb	r2, [r4, #52]	@ zero_extendqisi2
 5826 171e 43EA0223 		orr	r3, r3, r2, lsl #8
 5827 1722 94F83510 		ldrb	r1, [r4, #53]	@ zero_extendqisi2
 5828 1726 43EA0141 		orr	r1, r3, r1, lsl #16
 5829 172a 2846     		mov	r0, r5
 5830 172c FFF7FEFF 		bl	lv_style_set_line_color
 5831              	.LVL655:
 614:Drivers/lvgl/src/themes/default/lv_theme_default.c ****     lv_style_set_arc_color(&theme->styles.scale, theme->color_text);
 5832              		.loc 1 614 5 view .LVU1354
 614:Drivers/lvgl/src/themes/default/lv_theme_default.c ****     lv_style_set_arc_color(&theme->styles.scale, theme->color_text);
 5833              		.loc 1 614 51 is_stmt 0 view .LVU1355
 5834 1730 0020     		movs	r0, #0
 5835 1732 FFF7FEFF 		bl	lv_display_get_dpi
 5836              	.LVL656:
 614:Drivers/lvgl/src/themes/default/lv_theme_default.c ****     lv_style_set_arc_color(&theme->styles.scale, theme->color_text);
 5837              		.loc 1 614 5 discriminator 1 view .LVU1356
 5838 1736 7728     		cmp	r0, #119
 5839 1738 00F3DD82 		bgt	.L443
 614:Drivers/lvgl/src/themes/default/lv_theme_default.c ****     lv_style_set_arc_color(&theme->styles.scale, theme->color_text);
 5840              		.loc 1 614 5 discriminator 2 view .LVU1357
 5841 173c 0121     		movs	r1, #1
 5842              	.L237:
 614:Drivers/lvgl/src/themes/default/lv_theme_default.c ****     lv_style_set_arc_color(&theme->styles.scale, theme->color_text);
 5843              		.loc 1 614 5 discriminator 4 view .LVU1358
 5844 173e 2846     		mov	r0, r5
 5845 1740 FFF7FEFF 		bl	lv_style_set_line_width
 5846              	.LVL657:
 615:Drivers/lvgl/src/themes/default/lv_theme_default.c ****     lv_style_set_arc_width(&theme->styles.scale, LV_DPX(2));
ARM GAS  /var/folders/qx/2_175_4n2s19vhvtspjhb3qh0000gn/T//ccFV8cem.s 			page 158


 5847              		.loc 1 615 5 is_stmt 1 view .LVU1359
 5848 1744 94F83330 		ldrb	r3, [r4, #51]	@ zero_extendqisi2
 5849 1748 94F83420 		ldrb	r2, [r4, #52]	@ zero_extendqisi2
 5850 174c 43EA0223 		orr	r3, r3, r2, lsl #8
 5851 1750 94F83510 		ldrb	r1, [r4, #53]	@ zero_extendqisi2
 5852 1754 43EA0141 		orr	r1, r3, r1, lsl #16
 5853 1758 2846     		mov	r0, r5
 5854 175a FFF7FEFF 		bl	lv_style_set_arc_color
 5855              	.LVL658:
 616:Drivers/lvgl/src/themes/default/lv_theme_default.c ****     lv_style_set_length(&theme->styles.scale, LV_DPX(6));
 5856              		.loc 1 616 5 view .LVU1360
 616:Drivers/lvgl/src/themes/default/lv_theme_default.c ****     lv_style_set_length(&theme->styles.scale, LV_DPX(6));
 5857              		.loc 1 616 50 is_stmt 0 view .LVU1361
 5858 175e 0020     		movs	r0, #0
 5859 1760 FFF7FEFF 		bl	lv_display_get_dpi
 5860              	.LVL659:
 616:Drivers/lvgl/src/themes/default/lv_theme_default.c ****     lv_style_set_length(&theme->styles.scale, LV_DPX(6));
 5861              		.loc 1 616 5 discriminator 1 view .LVU1362
 5862 1764 7728     		cmp	r0, #119
 5863 1766 00F3D182 		bgt	.L444
 616:Drivers/lvgl/src/themes/default/lv_theme_default.c ****     lv_style_set_length(&theme->styles.scale, LV_DPX(6));
 5864              		.loc 1 616 5 discriminator 2 view .LVU1363
 5865 176a 0121     		movs	r1, #1
 5866              	.L238:
 616:Drivers/lvgl/src/themes/default/lv_theme_default.c ****     lv_style_set_length(&theme->styles.scale, LV_DPX(6));
 5867              		.loc 1 616 5 discriminator 4 view .LVU1364
 5868 176c 2846     		mov	r0, r5
 5869 176e FFF7FEFF 		bl	lv_style_set_arc_width
 5870              	.LVL660:
 617:Drivers/lvgl/src/themes/default/lv_theme_default.c **** #endif
 5871              		.loc 1 617 5 is_stmt 1 view .LVU1365
 617:Drivers/lvgl/src/themes/default/lv_theme_default.c **** #endif
 5872              		.loc 1 617 47 is_stmt 0 view .LVU1366
 5873 1772 0020     		movs	r0, #0
 5874 1774 FFF7FEFF 		bl	lv_display_get_dpi
 5875              	.LVL661:
 617:Drivers/lvgl/src/themes/default/lv_theme_default.c **** #endif
 5876              		.loc 1 617 47 discriminator 1 view .LVU1367
 5877 1778 00EB4000 		add	r0, r0, r0, lsl #1
 5878 177c 4000     		lsls	r0, r0, #1
 617:Drivers/lvgl/src/themes/default/lv_theme_default.c **** #endif
 5879              		.loc 1 617 5 discriminator 1 view .LVU1368
 5880 177e EF28     		cmp	r0, #239
 5881 1780 00F3CF82 		bgt	.L445
 617:Drivers/lvgl/src/themes/default/lv_theme_default.c **** #endif
 5882              		.loc 1 617 5 discriminator 2 view .LVU1369
 5883 1784 0121     		movs	r1, #1
 5884              	.L239:
 617:Drivers/lvgl/src/themes/default/lv_theme_default.c **** #endif
 5885              		.loc 1 617 5 discriminator 4 view .LVU1370
 5886 1786 2846     		mov	r0, r5
 5887 1788 FFF7FEFF 		bl	lv_style_set_length
 5888              	.LVL662:
 619:Drivers/lvgl/src/themes/default/lv_theme_default.c **** 
 5889              		.loc 1 619 1 view .LVU1371
 5890 178c 13B0     		add	sp, sp, #76
 5891              	.LCFI8:
ARM GAS  /var/folders/qx/2_175_4n2s19vhvtspjhb3qh0000gn/T//ccFV8cem.s 			page 159


 5892              		.cfi_remember_state
 5893              		.cfi_def_cfa_offset 36
 5894              		@ sp needed
 5895 178e BDE8F08F 		pop	{r4, r5, r6, r7, r8, r9, r10, fp, pc}
 5896              	.LVL663:
 5897              	.L99:
 5898              	.LCFI9:
 5899              		.cfi_restore_state
 212:Drivers/lvgl/src/themes/default/lv_theme_default.c ****     theme->color_text = theme->base.flags & MODE_DARK ? DARK_COLOR_TEXT : LIGHT_COLOR_TEXT;
 5900              		.loc 1 212 73 discriminator 2 view .LVU1372
 5901 1792 0421     		movs	r1, #4
 5902 1794 1220     		movs	r0, #18
 5903              	.LVL664:
 212:Drivers/lvgl/src/themes/default/lv_theme_default.c ****     theme->color_text = theme->base.flags & MODE_DARK ? DARK_COLOR_TEXT : LIGHT_COLOR_TEXT;
 5904              		.loc 1 212 73 discriminator 2 view .LVU1373
 5905 1796 FFF7FEFF 		bl	lv_palette_lighten
 5906              	.LVL665:
 5907 179a 84F83000 		strb	r0, [r4, #48]
 5908 179e C0F30723 		ubfx	r3, r0, #8, #8
 5909 17a2 84F83130 		strb	r3, [r4, #49]
 5910 17a6 C0F30740 		ubfx	r0, r0, #16, #8
 5911 17aa 84F83200 		strb	r0, [r4, #50]
 5912 17ae FEF73DBC 		b	.L100
 5913              	.L101:
 213:Drivers/lvgl/src/themes/default/lv_theme_default.c ****     theme->color_card = theme->base.flags & MODE_DARK ? DARK_COLOR_CARD : LIGHT_COLOR_CARD;
 5914              		.loc 1 213 75 discriminator 2 view .LVU1374
 5915 17b2 0421     		movs	r1, #4
 5916 17b4 1220     		movs	r0, #18
 5917 17b6 FFF7FEFF 		bl	lv_palette_darken
 5918              	.LVL666:
 5919 17ba 84F83300 		strb	r0, [r4, #51]
 5920 17be C0F30723 		ubfx	r3, r0, #8, #8
 5921 17c2 84F83430 		strb	r3, [r4, #52]
 5922 17c6 C0F30740 		ubfx	r0, r0, #16, #8
 5923 17ca 84F83500 		strb	r0, [r4, #53]
 5924 17ce FEF740BC 		b	.L102
 5925              	.L103:
 214:Drivers/lvgl/src/themes/default/lv_theme_default.c ****     theme->color_grey = theme->base.flags & MODE_DARK ? DARK_COLOR_GREY : LIGHT_COLOR_GREY;
 5926              		.loc 1 214 75 discriminator 2 view .LVU1375
 5927 17d2 FFF7FEFF 		bl	lv_color_white
 5928              	.LVL667:
 5929 17d6 84F83600 		strb	r0, [r4, #54]
 5930 17da C0F30723 		ubfx	r3, r0, #8, #8
 5931 17de 84F83730 		strb	r3, [r4, #55]
 5932 17e2 C0F30740 		ubfx	r0, r0, #16, #8
 5933 17e6 84F83800 		strb	r0, [r4, #56]
 5934 17ea FEF744BC 		b	.L104
 5935              	.L105:
 215:Drivers/lvgl/src/themes/default/lv_theme_default.c **** 
 5936              		.loc 1 215 75 discriminator 2 view .LVU1376
 5937 17ee 0221     		movs	r1, #2
 5938 17f0 1220     		movs	r0, #18
 5939 17f2 FFF7FEFF 		bl	lv_palette_lighten
 5940              	.LVL668:
 5941 17f6 84F83900 		strb	r0, [r4, #57]
 5942 17fa C0F30723 		ubfx	r3, r0, #8, #8
 5943 17fe 84F83A30 		strb	r3, [r4, #58]
ARM GAS  /var/folders/qx/2_175_4n2s19vhvtspjhb3qh0000gn/T//ccFV8cem.s 			page 160


 5944 1802 C0F30740 		ubfx	r0, r0, #16, #8
 5945 1806 84F83B00 		strb	r0, [r4, #59]
 5946 180a FEF746BC 		b	.L106
 5947              	.L107:
 231:Drivers/lvgl/src/themes/default/lv_theme_default.c ****     lv_style_set_bg_color(&theme->styles.scrollbar, sb_color);
 5948              		.loc 1 231 84 discriminator 1 view .LVU1377
 5949 180e 1220     		movs	r0, #18
 5950 1810 FFF7FEFF 		bl	lv_palette_main
 5951              	.LVL669:
 5952 1814 8DF80800 		strb	r0, [sp, #8]
 5953 1818 C0F30723 		ubfx	r3, r0, #8, #8
 5954 181c 8DF80930 		strb	r3, [sp, #9]
 5955 1820 C0F30740 		ubfx	r0, r0, #16, #8
 5956 1824 8DF80A00 		strb	r0, [sp, #10]
 5957 1828 FEF77BBC 		b	.L108
 5958              	.L240:
 235:Drivers/lvgl/src/themes/default/lv_theme_default.c ****     lv_style_set_width(&theme->styles.scrollbar,  LV_DPX_CALC(theme->disp_dpi, 5));
 5959              		.loc 1 235 5 discriminator 2 view .LVU1378
 5960 182c 0121     		movs	r1, #1
 5961 182e FEF78EBC 		b	.L109
 5962              	.L241:
 236:Drivers/lvgl/src/themes/default/lv_theme_default.c ****     lv_style_set_bg_opa(&theme->styles.scrollbar,  LV_OPA_40);
 5963              		.loc 1 236 5 discriminator 2 view .LVU1379
 5964 1832 0121     		movs	r1, #1
 5965 1834 FEF79BBC 		b	.L110
 5966              	.L400:
 250:Drivers/lvgl/src/themes/default/lv_theme_default.c ****     lv_style_set_pad_column(&theme->styles.scr, PAD_SMALL);
 5967              		.loc 1 250 46 discriminator 3 view .LVU1380
 5968 1838 0C23     		movs	r3, #12
 5969 183a FEF7D4BC 		b	.L111
 5970              	.L242:
 250:Drivers/lvgl/src/themes/default/lv_theme_default.c ****     lv_style_set_pad_column(&theme->styles.scr, PAD_SMALL);
 5971              		.loc 1 250 46 discriminator 2 view .LVU1381
 5972 183e 0E23     		movs	r3, #14
 5973 1840 FEF7D1BC 		b	.L111
 5974              	.L244:
 250:Drivers/lvgl/src/themes/default/lv_theme_default.c ****     lv_style_set_pad_column(&theme->styles.scr, PAD_SMALL);
 5975              		.loc 1 250 5 discriminator 10 view .LVU1382
 5976 1844 0121     		movs	r1, #1
 5977 1846 FEF7DABC 		b	.L112
 5978              	.L401:
 251:Drivers/lvgl/src/themes/default/lv_theme_default.c ****     lv_style_set_rotary_sensitivity(&theme->styles.scr, theme->disp_dpi / 4 * 256);
 5979              		.loc 1 251 49 discriminator 3 view .LVU1383
 5980 184a 0C23     		movs	r3, #12
 5981 184c FEF7E4BC 		b	.L113
 5982              	.L245:
 251:Drivers/lvgl/src/themes/default/lv_theme_default.c ****     lv_style_set_rotary_sensitivity(&theme->styles.scr, theme->disp_dpi / 4 * 256);
 5983              		.loc 1 251 49 discriminator 2 view .LVU1384
 5984 1850 0E23     		movs	r3, #14
 5985 1852 FEF7E1BC 		b	.L113
 5986              	.L247:
 251:Drivers/lvgl/src/themes/default/lv_theme_default.c ****     lv_style_set_rotary_sensitivity(&theme->styles.scr, theme->disp_dpi / 4 * 256);
 5987              		.loc 1 251 5 discriminator 10 view .LVU1385
 5988 1856 0121     		movs	r1, #1
 5989 1858 FEF7EABC 		b	.L114
 5990              	.L402:
 252:Drivers/lvgl/src/themes/default/lv_theme_default.c **** 
ARM GAS  /var/folders/qx/2_175_4n2s19vhvtspjhb3qh0000gn/T//ccFV8cem.s 			page 161


 5991              		.loc 1 252 73 view .LVU1386
 5992 185c 0331     		adds	r1, r1, #3
 5993 185e FEF7EEBC 		b	.L115
 5994              	.L403:
 255:Drivers/lvgl/src/themes/default/lv_theme_default.c ****     lv_style_set_bg_opa(&theme->styles.card, LV_OPA_COVER);
 5995              		.loc 1 255 46 discriminator 1 view .LVU1387
 5996 1862 0C23     		movs	r3, #12
 5997 1864 FEF7FCBC 		b	.L116
 5998              	.L249:
 255:Drivers/lvgl/src/themes/default/lv_theme_default.c ****     lv_style_set_bg_opa(&theme->styles.card, LV_OPA_COVER);
 5999              		.loc 1 255 5 discriminator 6 view .LVU1388
 6000 1868 0121     		movs	r1, #1
 6001 186a FEF705BD 		b	.L117
 6002              	.L250:
 259:Drivers/lvgl/src/themes/default/lv_theme_default.c ****     lv_style_set_border_post(&theme->styles.card, true);
 6003              		.loc 1 259 5 discriminator 2 view .LVU1389
 6004 186e 0121     		movs	r1, #1
 6005 1870 FEF729BD 		b	.L118
 6006              	.L404:
 262:Drivers/lvgl/src/themes/default/lv_theme_default.c ****     lv_style_set_pad_row(&theme->styles.card, PAD_SMALL);
 6007              		.loc 1 262 47 discriminator 3 view .LVU1390
 6008 1874 1423     		movs	r3, #20
 6009 1876 FEF744BD 		b	.L119
 6010              	.L251:
 262:Drivers/lvgl/src/themes/default/lv_theme_default.c ****     lv_style_set_pad_row(&theme->styles.card, PAD_SMALL);
 6011              		.loc 1 262 47 discriminator 2 view .LVU1391
 6012 187a 1823     		movs	r3, #24
 6013 187c FEF741BD 		b	.L119
 6014              	.L253:
 262:Drivers/lvgl/src/themes/default/lv_theme_default.c ****     lv_style_set_pad_row(&theme->styles.card, PAD_SMALL);
 6015              		.loc 1 262 5 discriminator 10 view .LVU1392
 6016 1880 0121     		movs	r1, #1
 6017 1882 FEF74ABD 		b	.L120
 6018              	.L405:
 263:Drivers/lvgl/src/themes/default/lv_theme_default.c ****     lv_style_set_pad_column(&theme->styles.card, PAD_SMALL);
 6019              		.loc 1 263 47 discriminator 3 view .LVU1393
 6020 1886 0C23     		movs	r3, #12
 6021 1888 FEF754BD 		b	.L121
 6022              	.L254:
 263:Drivers/lvgl/src/themes/default/lv_theme_default.c ****     lv_style_set_pad_column(&theme->styles.card, PAD_SMALL);
 6023              		.loc 1 263 47 discriminator 2 view .LVU1394
 6024 188c 0E23     		movs	r3, #14
 6025 188e FEF751BD 		b	.L121
 6026              	.L256:
 263:Drivers/lvgl/src/themes/default/lv_theme_default.c ****     lv_style_set_pad_column(&theme->styles.card, PAD_SMALL);
 6027              		.loc 1 263 5 discriminator 10 view .LVU1395
 6028 1892 0121     		movs	r1, #1
 6029 1894 FEF75ABD 		b	.L122
 6030              	.L406:
 264:Drivers/lvgl/src/themes/default/lv_theme_default.c ****     lv_style_set_line_color(&theme->styles.card, lv_palette_main(LV_PALETTE_GREY));
 6031              		.loc 1 264 50 discriminator 3 view .LVU1396
 6032 1898 0C23     		movs	r3, #12
 6033 189a FEF764BD 		b	.L123
 6034              	.L257:
 264:Drivers/lvgl/src/themes/default/lv_theme_default.c ****     lv_style_set_line_color(&theme->styles.card, lv_palette_main(LV_PALETTE_GREY));
 6035              		.loc 1 264 50 discriminator 2 view .LVU1397
 6036 189e 0E23     		movs	r3, #14
ARM GAS  /var/folders/qx/2_175_4n2s19vhvtspjhb3qh0000gn/T//ccFV8cem.s 			page 162


 6037 18a0 FEF761BD 		b	.L123
 6038              	.L259:
 264:Drivers/lvgl/src/themes/default/lv_theme_default.c ****     lv_style_set_line_color(&theme->styles.card, lv_palette_main(LV_PALETTE_GREY));
 6039              		.loc 1 264 5 discriminator 10 view .LVU1398
 6040 18a4 0121     		movs	r1, #1
 6041 18a6 FEF777BD 		b	.L124
 6042              	.L260:
 266:Drivers/lvgl/src/themes/default/lv_theme_default.c **** 
 6043              		.loc 1 266 5 discriminator 2 view .LVU1399
 6044 18aa 0121     		movs	r1, #1
 6045 18ac FEF793BD 		b	.L125
 6046              	.L261:
 270:Drivers/lvgl/src/themes/default/lv_theme_default.c ****     lv_style_set_outline_pad(&theme->styles.outline_primary, OUTLINE_WIDTH);
 6047              		.loc 1 270 5 discriminator 2 view .LVU1400
 6048 18b0 0121     		movs	r1, #1
 6049 18b2 FEF7A9BD 		b	.L126
 6050              	.L262:
 271:Drivers/lvgl/src/themes/default/lv_theme_default.c ****     lv_style_set_outline_opa(&theme->styles.outline_primary, LV_OPA_50);
 6051              		.loc 1 271 5 discriminator 2 view .LVU1401
 6052 18b6 0121     		movs	r1, #1
 6053 18b8 FEF7B6BD 		b	.L127
 6054              	.L263:
 276:Drivers/lvgl/src/themes/default/lv_theme_default.c ****     lv_style_set_outline_opa(&theme->styles.outline_secondary, LV_OPA_50);
 6055              		.loc 1 276 5 discriminator 2 view .LVU1402
 6056 18bc 0121     		movs	r1, #1
 6057 18be FEF7D6BD 		b	.L128
 6058              	.L407:
 281:Drivers/lvgl/src/themes/default/lv_theme_default.c ****     lv_style_set_bg_opa(&theme->styles.btn, LV_OPA_COVER);
 6059              		.loc 1 281 25 discriminator 3 view .LVU1403
 6060 18c2 0C23     		movs	r3, #12
 6061 18c4 FEF7E9BD 		b	.L129
 6062              	.L264:
 281:Drivers/lvgl/src/themes/default/lv_theme_default.c ****     lv_style_set_bg_opa(&theme->styles.btn, LV_OPA_COVER);
 6063              		.loc 1 281 25 discriminator 2 view .LVU1404
 6064 18c8 1023     		movs	r3, #16
 6065 18ca FEF7E6BD 		b	.L129
 6066              	.L266:
 280:Drivers/lvgl/src/themes/default/lv_theme_default.c ****                         LV_DPX_CALC(theme->disp_dpi, theme->disp_size == DISP_LARGE ? 16 : theme->d
 6067              		.loc 1 280 5 discriminator 1 view .LVU1405
 6068 18ce 0121     		movs	r1, #1
 6069 18d0 FEF7EFBD 		b	.L130
 6070              	.L408:
 285:Drivers/lvgl/src/themes/default/lv_theme_default.c ****         lv_style_set_shadow_width(&theme->styles.btn, LV_DPX(3));
 6071              		.loc 1 285 9 is_stmt 1 view .LVU1406
 6072 18d4 1220     		movs	r0, #18
 6073 18d6 FFF7FEFF 		bl	lv_palette_main
 6074              	.LVL670:
 6075 18da 8DF81000 		strb	r0, [sp, #16]
 6076 18de C0F30723 		ubfx	r3, r0, #8, #8
 6077 18e2 8DF81130 		strb	r3, [sp, #17]
 6078 18e6 C0F30740 		ubfx	r0, r0, #16, #8
 6079 18ea 8DF81200 		strb	r0, [sp, #18]
 285:Drivers/lvgl/src/themes/default/lv_theme_default.c ****         lv_style_set_shadow_width(&theme->styles.btn, LV_DPX(3));
 6080              		.loc 1 285 9 is_stmt 0 discriminator 1 view .LVU1407
 6081 18ee 0499     		ldr	r1, [sp, #16]
 6082 18f0 2846     		mov	r0, r5
 6083 18f2 FFF7FEFF 		bl	lv_style_set_shadow_color
ARM GAS  /var/folders/qx/2_175_4n2s19vhvtspjhb3qh0000gn/T//ccFV8cem.s 			page 163


 6084              	.LVL671:
 286:Drivers/lvgl/src/themes/default/lv_theme_default.c ****         lv_style_set_shadow_opa(&theme->styles.btn, LV_OPA_50);
 6085              		.loc 1 286 9 is_stmt 1 view .LVU1408
 286:Drivers/lvgl/src/themes/default/lv_theme_default.c ****         lv_style_set_shadow_opa(&theme->styles.btn, LV_OPA_50);
 6086              		.loc 1 286 55 is_stmt 0 view .LVU1409
 6087 18f6 0020     		movs	r0, #0
 6088 18f8 FFF7FEFF 		bl	lv_display_get_dpi
 6089              	.LVL672:
 286:Drivers/lvgl/src/themes/default/lv_theme_default.c ****         lv_style_set_shadow_opa(&theme->styles.btn, LV_OPA_50);
 6090              		.loc 1 286 55 discriminator 1 view .LVU1410
 6091 18fc 00EB4000 		add	r0, r0, r0, lsl #1
 286:Drivers/lvgl/src/themes/default/lv_theme_default.c ****         lv_style_set_shadow_opa(&theme->styles.btn, LV_OPA_50);
 6092              		.loc 1 286 9 discriminator 1 view .LVU1411
 6093 1900 EF28     		cmp	r0, #239
 6094 1902 23DC     		bgt	.L446
 286:Drivers/lvgl/src/themes/default/lv_theme_default.c ****         lv_style_set_shadow_opa(&theme->styles.btn, LV_OPA_50);
 6095              		.loc 1 286 9 discriminator 2 view .LVU1412
 6096 1904 0121     		movs	r1, #1
 6097              	.L132:
 286:Drivers/lvgl/src/themes/default/lv_theme_default.c ****         lv_style_set_shadow_opa(&theme->styles.btn, LV_OPA_50);
 6098              		.loc 1 286 9 discriminator 4 view .LVU1413
 6099 1906 2846     		mov	r0, r5
 6100 1908 FFF7FEFF 		bl	lv_style_set_shadow_width
 6101              	.LVL673:
 287:Drivers/lvgl/src/themes/default/lv_theme_default.c ****         lv_style_set_shadow_offset_y(&theme->styles.btn, LV_DPX_CALC(theme->disp_dpi, LV_DPX(4)));
 6102              		.loc 1 287 9 is_stmt 1 view .LVU1414
 6103 190c 7F21     		movs	r1, #127
 6104 190e 2846     		mov	r0, r5
 6105 1910 FFF7FEFF 		bl	lv_style_set_shadow_opa
 6106              	.LVL674:
 288:Drivers/lvgl/src/themes/default/lv_theme_default.c ****     }
 6107              		.loc 1 288 9 view .LVU1415
 288:Drivers/lvgl/src/themes/default/lv_theme_default.c ****     }
 6108              		.loc 1 288 58 is_stmt 0 view .LVU1416
 6109 1914 0020     		movs	r0, #0
 6110 1916 FFF7FEFF 		bl	lv_display_get_dpi
 6111              	.LVL675:
 288:Drivers/lvgl/src/themes/default/lv_theme_default.c ****     }
 6112              		.loc 1 288 9 discriminator 1 view .LVU1417
 6113 191a 3B28     		cmp	r0, #59
 6114 191c 05DD     		ble	.L133
 288:Drivers/lvgl/src/themes/default/lv_theme_default.c ****     }
 6115              		.loc 1 288 58 discriminator 2 view .LVU1418
 6116 191e 0020     		movs	r0, #0
 6117 1920 FFF7FEFF 		bl	lv_display_get_dpi
 6118              	.LVL676:
 288:Drivers/lvgl/src/themes/default/lv_theme_default.c ****     }
 6119              		.loc 1 288 58 discriminator 1 view .LVU1419
 6120 1924 3B30     		adds	r0, r0, #59
 6121 1926 4E28     		cmp	r0, #78
 6122 1928 45D9     		bls	.L268
 6123              	.L133:
 288:Drivers/lvgl/src/themes/default/lv_theme_default.c ****     }
 6124              		.loc 1 288 58 discriminator 3 view .LVU1420
 6125 192a E66A     		ldr	r6, [r4, #44]
 6126 192c 0020     		movs	r0, #0
 6127 192e FFF7FEFF 		bl	lv_display_get_dpi
ARM GAS  /var/folders/qx/2_175_4n2s19vhvtspjhb3qh0000gn/T//ccFV8cem.s 			page 164


 6128              	.LVL677:
 288:Drivers/lvgl/src/themes/default/lv_theme_default.c ****     }
 6129              		.loc 1 288 58 discriminator 1 view .LVU1421
 6130 1932 3B28     		cmp	r0, #59
 6131 1934 18DC     		bgt	.L447
 288:Drivers/lvgl/src/themes/default/lv_theme_default.c ****     }
 6132              		.loc 1 288 58 discriminator 6 view .LVU1422
 6133 1936 0123     		movs	r3, #1
 6134              	.L135:
 288:Drivers/lvgl/src/themes/default/lv_theme_default.c ****     }
 6135              		.loc 1 288 58 discriminator 8 view .LVU1423
 6136 1938 03FB06F6 		mul	r6, r3, r6
 6137 193c EF2E     		cmp	r6, #239
 6138 193e 1EDC     		bgt	.L448
 288:Drivers/lvgl/src/themes/default/lv_theme_default.c ****     }
 6139              		.loc 1 288 58 discriminator 10 view .LVU1424
 6140 1940 0121     		movs	r1, #1
 6141              	.L134:
 288:Drivers/lvgl/src/themes/default/lv_theme_default.c ****     }
 6142              		.loc 1 288 9 discriminator 18 view .LVU1425
 6143 1942 2846     		mov	r0, r5
 6144 1944 FFF7FEFF 		bl	lv_style_set_shadow_offset_y
 6145              	.LVL678:
 6146 1948 FEF7CCBD 		b	.L131
 6147              	.L446:
 286:Drivers/lvgl/src/themes/default/lv_theme_default.c ****         lv_style_set_shadow_opa(&theme->styles.btn, LV_OPA_50);
 6148              		.loc 1 286 55 discriminator 1 view .LVU1426
 6149 194c 0020     		movs	r0, #0
 6150 194e FFF7FEFF 		bl	lv_display_get_dpi
 6151              	.LVL679:
 6152 1952 00EB4000 		add	r0, r0, r0, lsl #1
 6153 1956 00F15001 		add	r1, r0, #80
 286:Drivers/lvgl/src/themes/default/lv_theme_default.c ****         lv_style_set_shadow_opa(&theme->styles.btn, LV_OPA_50);
 6154              		.loc 1 286 9 discriminator 1 view .LVU1427
 6155 195a 224B     		ldr	r3, .L469
 6156 195c 83FB0123 		smull	r2, r3, r3, r1
 6157 1960 C917     		asrs	r1, r1, #31
 6158 1962 C1EBA311 		rsb	r1, r1, r3, asr #6
 6159 1966 CEE7     		b	.L132
 6160              	.L447:
 288:Drivers/lvgl/src/themes/default/lv_theme_default.c ****     }
 6161              		.loc 1 288 58 discriminator 5 view .LVU1428
 6162 1968 0020     		movs	r0, #0
 6163 196a FFF7FEFF 		bl	lv_display_get_dpi
 6164              	.LVL680:
 288:Drivers/lvgl/src/themes/default/lv_theme_default.c ****     }
 6165              		.loc 1 288 58 discriminator 1 view .LVU1429
 6166 196e 1430     		adds	r0, r0, #20
 6167 1970 1C4B     		ldr	r3, .L469
 6168 1972 83FB0023 		smull	r2, r3, r3, r0
 6169 1976 C017     		asrs	r0, r0, #31
 6170 1978 C0EB2313 		rsb	r3, r0, r3, asr #4
 6171 197c DCE7     		b	.L135
 6172              	.L448:
 288:Drivers/lvgl/src/themes/default/lv_theme_default.c ****     }
 6173              		.loc 1 288 58 discriminator 9 view .LVU1430
 6174 197e E66A     		ldr	r6, [r4, #44]
ARM GAS  /var/folders/qx/2_175_4n2s19vhvtspjhb3qh0000gn/T//ccFV8cem.s 			page 165


 6175 1980 0020     		movs	r0, #0
 6176 1982 FFF7FEFF 		bl	lv_display_get_dpi
 6177              	.LVL681:
 288:Drivers/lvgl/src/themes/default/lv_theme_default.c ****     }
 6178              		.loc 1 288 58 discriminator 1 view .LVU1431
 6179 1986 3B28     		cmp	r0, #59
 6180 1988 0ADC     		bgt	.L449
 288:Drivers/lvgl/src/themes/default/lv_theme_default.c ****     }
 6181              		.loc 1 288 58 discriminator 12 view .LVU1432
 6182 198a 0123     		movs	r3, #1
 6183              	.L136:
 288:Drivers/lvgl/src/themes/default/lv_theme_default.c ****     }
 6184              		.loc 1 288 58 discriminator 14 view .LVU1433
 6185 198c 03FB06F1 		mul	r1, r3, r6
 6186 1990 5031     		adds	r1, r1, #80
 6187 1992 144B     		ldr	r3, .L469
 6188 1994 83FB0123 		smull	r2, r3, r3, r1
 6189 1998 C917     		asrs	r1, r1, #31
 6190 199a C1EBA311 		rsb	r1, r1, r3, asr #6
 6191 199e D0E7     		b	.L134
 6192              	.L449:
 288:Drivers/lvgl/src/themes/default/lv_theme_default.c ****     }
 6193              		.loc 1 288 58 discriminator 11 view .LVU1434
 6194 19a0 0020     		movs	r0, #0
 6195 19a2 FFF7FEFF 		bl	lv_display_get_dpi
 6196              	.LVL682:
 288:Drivers/lvgl/src/themes/default/lv_theme_default.c ****     }
 6197              		.loc 1 288 58 discriminator 1 view .LVU1435
 6198 19a6 1430     		adds	r0, r0, #20
 6199 19a8 0E4A     		ldr	r2, .L469
 6200 19aa 82FB0032 		smull	r3, r2, r2, r0
 6201 19ae C317     		asrs	r3, r0, #31
 6202 19b0 C3EB2213 		rsb	r3, r3, r2, asr #4
 6203 19b4 EAE7     		b	.L136
 6204              	.L268:
 288:Drivers/lvgl/src/themes/default/lv_theme_default.c ****     }
 6205              		.loc 1 288 9 discriminator 4 view .LVU1436
 6206 19b6 0021     		movs	r1, #0
 6207 19b8 C3E7     		b	.L134
 6208              	.L409:
 291:Drivers/lvgl/src/themes/default/lv_theme_default.c ****     lv_style_set_pad_ver(&theme->styles.btn, PAD_SMALL);
 6209              		.loc 1 291 46 discriminator 3 view .LVU1437
 6210 19ba 1423     		movs	r3, #20
 6211 19bc FEF7A9BD 		b	.L137
 6212              	.L272:
 291:Drivers/lvgl/src/themes/default/lv_theme_default.c ****     lv_style_set_pad_ver(&theme->styles.btn, PAD_SMALL);
 6213              		.loc 1 291 46 discriminator 2 view .LVU1438
 6214 19c0 1823     		movs	r3, #24
 6215 19c2 FEF7A6BD 		b	.L137
 6216              	.L274:
 291:Drivers/lvgl/src/themes/default/lv_theme_default.c ****     lv_style_set_pad_ver(&theme->styles.btn, PAD_SMALL);
 6217              		.loc 1 291 5 discriminator 10 view .LVU1439
 6218 19c6 0121     		movs	r1, #1
 6219 19c8 FEF7AFBD 		b	.L138
 6220              	.L410:
 292:Drivers/lvgl/src/themes/default/lv_theme_default.c ****     lv_style_set_pad_column(&theme->styles.btn, LV_DPX_CALC(theme->disp_dpi, 5));
 6221              		.loc 1 292 46 discriminator 3 view .LVU1440
ARM GAS  /var/folders/qx/2_175_4n2s19vhvtspjhb3qh0000gn/T//ccFV8cem.s 			page 166


 6222 19cc 0C23     		movs	r3, #12
 6223 19ce FEF7B9BD 		b	.L139
 6224              	.L275:
 292:Drivers/lvgl/src/themes/default/lv_theme_default.c ****     lv_style_set_pad_column(&theme->styles.btn, LV_DPX_CALC(theme->disp_dpi, 5));
 6225              		.loc 1 292 46 discriminator 2 view .LVU1441
 6226 19d2 0E23     		movs	r3, #14
 6227 19d4 FEF7B6BD 		b	.L139
 6228              	.L277:
 292:Drivers/lvgl/src/themes/default/lv_theme_default.c ****     lv_style_set_pad_column(&theme->styles.btn, LV_DPX_CALC(theme->disp_dpi, 5));
 6229              		.loc 1 292 5 discriminator 10 view .LVU1442
 6230 19d8 0121     		movs	r1, #1
 6231 19da FEF7BFBD 		b	.L140
 6232              	.L278:
 293:Drivers/lvgl/src/themes/default/lv_theme_default.c ****     lv_style_set_pad_row(&theme->styles.btn, LV_DPX_CALC(theme->disp_dpi, 5));
 6233              		.loc 1 293 5 discriminator 2 view .LVU1443
 6234 19de 0121     		movs	r1, #1
 6235 19e0 FEF7CCBD 		b	.L141
 6236              	.L470:
 6237              		.align	2
 6238              	.L469:
 6239 19e4 67666666 		.word	1717986919
 6240              	.L279:
 294:Drivers/lvgl/src/themes/default/lv_theme_default.c **** 
 6241              		.loc 1 294 5 discriminator 2 view .LVU1444
 6242 19e8 0121     		movs	r1, #1
 6243 19ea FEF7D7BD 		b	.L142
 6244              	.L143:
 304:Drivers/lvgl/src/themes/default/lv_theme_default.c ****     lv_style_set_recolor_opa(&theme->styles.disabled, LV_OPA_50);
 6245              		.loc 1 304 9 is_stmt 1 view .LVU1445
 6246 19ee 0221     		movs	r1, #2
 6247 19f0 1220     		movs	r0, #18
 6248 19f2 FFF7FEFF 		bl	lv_palette_lighten
 6249              	.LVL683:
 6250 19f6 8DF81C00 		strb	r0, [sp, #28]
 6251 19fa C0F30723 		ubfx	r3, r0, #8, #8
 6252 19fe 8DF81D30 		strb	r3, [sp, #29]
 6253 1a02 C0F30740 		ubfx	r0, r0, #16, #8
 6254 1a06 8DF81E00 		strb	r0, [sp, #30]
 304:Drivers/lvgl/src/themes/default/lv_theme_default.c ****     lv_style_set_recolor_opa(&theme->styles.disabled, LV_OPA_50);
 6255              		.loc 1 304 9 is_stmt 0 discriminator 1 view .LVU1446
 6256 1a0a 0799     		ldr	r1, [sp, #28]
 6257 1a0c 2846     		mov	r0, r5
 6258 1a0e FFF7FEFF 		bl	lv_style_set_recolor
 6259              	.LVL684:
 6260 1a12 FEF7FEBD 		b	.L144
 6261              	.L411:
 312:Drivers/lvgl/src/themes/default/lv_theme_default.c ****     lv_style_set_pad_row(&theme->styles.pad_normal, PAD_DEF);
 6262              		.loc 1 312 53 discriminator 3 view .LVU1447
 6263 1a16 1423     		movs	r3, #20
 6264 1a18 FEF71BBE 		b	.L145
 6265              	.L280:
 312:Drivers/lvgl/src/themes/default/lv_theme_default.c ****     lv_style_set_pad_row(&theme->styles.pad_normal, PAD_DEF);
 6266              		.loc 1 312 53 discriminator 2 view .LVU1448
 6267 1a1c 1823     		movs	r3, #24
 6268 1a1e FEF718BE 		b	.L145
 6269              	.L282:
 312:Drivers/lvgl/src/themes/default/lv_theme_default.c ****     lv_style_set_pad_row(&theme->styles.pad_normal, PAD_DEF);
ARM GAS  /var/folders/qx/2_175_4n2s19vhvtspjhb3qh0000gn/T//ccFV8cem.s 			page 167


 6270              		.loc 1 312 5 discriminator 10 view .LVU1449
 6271 1a22 0121     		movs	r1, #1
 6272 1a24 FEF721BE 		b	.L146
 6273              	.L412:
 313:Drivers/lvgl/src/themes/default/lv_theme_default.c ****     lv_style_set_pad_column(&theme->styles.pad_normal, PAD_DEF);
 6274              		.loc 1 313 53 discriminator 3 view .LVU1450
 6275 1a28 1423     		movs	r3, #20
 6276 1a2a FEF72BBE 		b	.L147
 6277              	.L283:
 313:Drivers/lvgl/src/themes/default/lv_theme_default.c ****     lv_style_set_pad_column(&theme->styles.pad_normal, PAD_DEF);
 6278              		.loc 1 313 53 discriminator 2 view .LVU1451
 6279 1a2e 1823     		movs	r3, #24
 6280 1a30 FEF728BE 		b	.L147
 6281              	.L285:
 313:Drivers/lvgl/src/themes/default/lv_theme_default.c ****     lv_style_set_pad_column(&theme->styles.pad_normal, PAD_DEF);
 6282              		.loc 1 313 5 discriminator 10 view .LVU1452
 6283 1a34 0121     		movs	r1, #1
 6284 1a36 FEF731BE 		b	.L148
 6285              	.L413:
 314:Drivers/lvgl/src/themes/default/lv_theme_default.c **** 
 6286              		.loc 1 314 56 discriminator 3 view .LVU1453
 6287 1a3a 1423     		movs	r3, #20
 6288 1a3c FEF73BBE 		b	.L149
 6289              	.L286:
 314:Drivers/lvgl/src/themes/default/lv_theme_default.c **** 
 6290              		.loc 1 314 56 discriminator 2 view .LVU1454
 6291 1a40 1823     		movs	r3, #24
 6292 1a42 FEF738BE 		b	.L149
 6293              	.L288:
 314:Drivers/lvgl/src/themes/default/lv_theme_default.c **** 
 6294              		.loc 1 314 5 discriminator 10 view .LVU1455
 6295 1a46 0121     		movs	r1, #1
 6296 1a48 FEF741BE 		b	.L150
 6297              	.L414:
 317:Drivers/lvgl/src/themes/default/lv_theme_default.c ****     lv_style_set_pad_gap(&theme->styles.pad_small, PAD_SMALL);
 6298              		.loc 1 317 52 discriminator 3 view .LVU1456
 6299 1a4c 0C23     		movs	r3, #12
 6300 1a4e FEF750BE 		b	.L151
 6301              	.L289:
 317:Drivers/lvgl/src/themes/default/lv_theme_default.c ****     lv_style_set_pad_gap(&theme->styles.pad_small, PAD_SMALL);
 6302              		.loc 1 317 52 discriminator 2 view .LVU1457
 6303 1a52 0E23     		movs	r3, #14
 6304 1a54 FEF74DBE 		b	.L151
 6305              	.L291:
 317:Drivers/lvgl/src/themes/default/lv_theme_default.c ****     lv_style_set_pad_gap(&theme->styles.pad_small, PAD_SMALL);
 6306              		.loc 1 317 5 discriminator 10 view .LVU1458
 6307 1a58 0121     		movs	r1, #1
 6308 1a5a FEF756BE 		b	.L152
 6309              	.L415:
 318:Drivers/lvgl/src/themes/default/lv_theme_default.c **** 
 6310              		.loc 1 318 52 discriminator 3 view .LVU1459
 6311 1a5e 0C23     		movs	r3, #12
 6312 1a60 FEF760BE 		b	.L153
 6313              	.L292:
 318:Drivers/lvgl/src/themes/default/lv_theme_default.c **** 
 6314              		.loc 1 318 52 discriminator 2 view .LVU1460
 6315 1a64 0E23     		movs	r3, #14
ARM GAS  /var/folders/qx/2_175_4n2s19vhvtspjhb3qh0000gn/T//ccFV8cem.s 			page 168


 6316 1a66 FEF75DBE 		b	.L153
 6317              	.L294:
 318:Drivers/lvgl/src/themes/default/lv_theme_default.c **** 
 6318              		.loc 1 318 5 discriminator 10 view .LVU1461
 6319 1a6a 0121     		movs	r1, #1
 6320 1a6c FEF76CBE 		b	.L154
 6321              	.L295:
 321:Drivers/lvgl/src/themes/default/lv_theme_default.c ****     lv_style_set_pad_column(&theme->styles.pad_gap, LV_DPX_CALC(theme->disp_dpi, 10));
 6322              		.loc 1 321 5 discriminator 2 view .LVU1462
 6323 1a70 0121     		movs	r1, #1
 6324 1a72 FEF77FBE 		b	.L155
 6325              	.L296:
 322:Drivers/lvgl/src/themes/default/lv_theme_default.c **** 
 6326              		.loc 1 322 5 discriminator 2 view .LVU1463
 6327 1a76 0121     		movs	r1, #1
 6328 1a78 FEF78DBE 		b	.L156
 6329              	.L297:
 325:Drivers/lvgl/src/themes/default/lv_theme_default.c **** 
 6330              		.loc 1 325 5 discriminator 2 view .LVU1464
 6331 1a7c 0121     		movs	r1, #1
 6332 1a7e FEF7A0BE 		b	.L157
 6333              	.L416:
 336:Drivers/lvgl/src/themes/default/lv_theme_default.c ****     lv_style_set_pad_row(&theme->styles.pad_tiny, PAD_TINY);
 6334              		.loc 1 336 51 discriminator 3 view .LVU1465
 6335 1a82 0623     		movs	r3, #6
 6336 1a84 FEF7C9BE 		b	.L158
 6337              	.L298:
 336:Drivers/lvgl/src/themes/default/lv_theme_default.c ****     lv_style_set_pad_row(&theme->styles.pad_tiny, PAD_TINY);
 6338              		.loc 1 336 51 discriminator 2 view .LVU1466
 6339 1a88 0823     		movs	r3, #8
 6340 1a8a FEF7C6BE 		b	.L158
 6341              	.L300:
 336:Drivers/lvgl/src/themes/default/lv_theme_default.c ****     lv_style_set_pad_row(&theme->styles.pad_tiny, PAD_TINY);
 6342              		.loc 1 336 5 discriminator 10 view .LVU1467
 6343 1a8e 0121     		movs	r1, #1
 6344 1a90 FEF7CFBE 		b	.L159
 6345              	.L417:
 337:Drivers/lvgl/src/themes/default/lv_theme_default.c ****     lv_style_set_pad_column(&theme->styles.pad_tiny, PAD_TINY);
 6346              		.loc 1 337 51 discriminator 3 view .LVU1468
 6347 1a94 0623     		movs	r3, #6
 6348 1a96 FEF7D9BE 		b	.L160
 6349              	.L301:
 337:Drivers/lvgl/src/themes/default/lv_theme_default.c ****     lv_style_set_pad_column(&theme->styles.pad_tiny, PAD_TINY);
 6350              		.loc 1 337 51 discriminator 2 view .LVU1469
 6351 1a9a 0823     		movs	r3, #8
 6352 1a9c FEF7D6BE 		b	.L160
 6353              	.L303:
 337:Drivers/lvgl/src/themes/default/lv_theme_default.c ****     lv_style_set_pad_column(&theme->styles.pad_tiny, PAD_TINY);
 6354              		.loc 1 337 5 discriminator 10 view .LVU1470
 6355 1aa0 0121     		movs	r1, #1
 6356 1aa2 FEF7DFBE 		b	.L161
 6357              	.L418:
 338:Drivers/lvgl/src/themes/default/lv_theme_default.c **** 
 6358              		.loc 1 338 54 discriminator 3 view .LVU1471
 6359 1aa6 0623     		movs	r3, #6
 6360 1aa8 FEF7E9BE 		b	.L162
 6361              	.L304:
ARM GAS  /var/folders/qx/2_175_4n2s19vhvtspjhb3qh0000gn/T//ccFV8cem.s 			page 169


 338:Drivers/lvgl/src/themes/default/lv_theme_default.c **** 
 6362              		.loc 1 338 54 discriminator 2 view .LVU1472
 6363 1aac 0823     		movs	r3, #8
 6364 1aae FEF7E6BE 		b	.L162
 6365              	.L306:
 338:Drivers/lvgl/src/themes/default/lv_theme_default.c **** 
 6366              		.loc 1 338 5 discriminator 10 view .LVU1473
 6367 1ab2 0121     		movs	r1, #1
 6368 1ab4 FEF7EFBE 		b	.L163
 6369              	.L419:
 377:Drivers/lvgl/src/themes/default/lv_theme_default.c **** 
 6370              		.loc 1 377 83 view .LVU1474
 6371 1ab8 0331     		adds	r1, r1, #3
 6372 1aba FEF7BABF 		b	.L164
 6373              	.L307:
 381:Drivers/lvgl/src/themes/default/lv_theme_default.c ****     lv_style_set_transform_height(&theme->styles.grow, LV_DPX_CALC(theme->disp_dpi, 3));
 6374              		.loc 1 381 5 discriminator 2 view .LVU1475
 6375 1abe 0121     		movs	r1, #1
 6376 1ac0 FEF7CEBF 		b	.L165
 6377              	.L308:
 382:Drivers/lvgl/src/themes/default/lv_theme_default.c **** #endif
 6378              		.loc 1 382 5 discriminator 2 view .LVU1476
 6379 1ac4 0121     		movs	r1, #1
 6380 1ac6 FEF7DBBF 		b	.L166
 6381              	.L309:
 388:Drivers/lvgl/src/themes/default/lv_theme_default.c ****     lv_style_set_radius(&theme->styles.knob, LV_RADIUS_CIRCLE);
 6382              		.loc 1 388 5 discriminator 2 view .LVU1477
 6383 1aca 0121     		movs	r1, #1
 6384 1acc FEF7FABF 		b	.L167
 6385              	.L310:
 400:Drivers/lvgl/src/themes/default/lv_theme_default.c ****     lv_style_set_arc_rounded(&theme->styles.arc_indic, true);
 6386              		.loc 1 400 5 discriminator 2 view .LVU1478
 6387 1ad0 0121     		movs	r1, #1
 6388 1ad2 FFF730B8 		b	.L168
 6389              	.L311:
 413:Drivers/lvgl/src/themes/default/lv_theme_default.c ****     lv_style_set_border_width(&theme->styles.cb_marker, BORDER_WIDTH);
 6390              		.loc 1 413 5 discriminator 2 view .LVU1479
 6391 1ad6 0121     		movs	r1, #1
 6392 1ad8 FFF759B8 		b	.L169
 6393              	.L312:
 414:Drivers/lvgl/src/themes/default/lv_theme_default.c ****     lv_style_set_border_color(&theme->styles.cb_marker, theme->base.color_primary);
 6394              		.loc 1 414 5 discriminator 2 view .LVU1480
 6395 1adc 0121     		movs	r1, #1
 6396 1ade FFF764B8 		b	.L170
 6397              	.L420:
 418:Drivers/lvgl/src/themes/default/lv_theme_default.c ****     lv_style_set_text_font(&theme->styles.cb_marker, theme->base.font_small);
 6398              		.loc 1 418 51 discriminator 1 view .LVU1481
 6399 1ae2 0C23     		movs	r3, #12
 6400 1ae4 FFF77BB8 		b	.L171
 6401              	.L314:
 418:Drivers/lvgl/src/themes/default/lv_theme_default.c ****     lv_style_set_text_font(&theme->styles.cb_marker, theme->base.font_small);
 6402              		.loc 1 418 5 discriminator 6 view .LVU1482
 6403 1ae8 0021     		movs	r1, #0
 6404 1aea FFF784B8 		b	.L172
 6405              	.L315:
 428:Drivers/lvgl/src/themes/default/lv_theme_default.c ****     lv_style_set_bg_color(&theme->styles.switch_knob, lv_color_white());
 6406              		.loc 1 428 5 discriminator 2 view .LVU1483
ARM GAS  /var/folders/qx/2_175_4n2s19vhvtspjhb3qh0000gn/T//ccFV8cem.s 			page 170


 6407 1aee 4FF0FF31 		mov	r1, #-1
 6408 1af2 FFF7B0B8 		b	.L173
 6409              	.L316:
 441:Drivers/lvgl/src/themes/default/lv_theme_default.c ****     lv_style_set_line_color(&theme->styles.chart_bg, theme->color_grey);
 6410              		.loc 1 441 5 discriminator 2 view .LVU1484
 6411 1af6 0121     		movs	r1, #1
 6412 1af8 FFF7EDB8 		b	.L174
 6413              	.L317:
 445:Drivers/lvgl/src/themes/default/lv_theme_default.c ****     lv_style_set_radius(&theme->styles.chart_series, LV_DPX_CALC(theme->disp_dpi, 3));
 6414              		.loc 1 445 5 discriminator 2 view .LVU1485
 6415 1afc 0121     		movs	r1, #1
 6416 1afe FFF70CB9 		b	.L175
 6417              	.L318:
 446:Drivers/lvgl/src/themes/default/lv_theme_default.c **** 
 6418              		.loc 1 446 5 discriminator 2 view .LVU1486
 6419 1b02 0121     		movs	r1, #1
 6420 1b04 FFF719B9 		b	.L176
 6421              	.L319:
 448:Drivers/lvgl/src/themes/default/lv_theme_default.c ****     lv_style_set_size(&theme->styles.chart_series, chart_size, chart_size);
 6422              		.loc 1 448 26 discriminator 2 view .LVU1487
 6423 1b08 0125     		movs	r5, #1
 6424 1b0a FFF724B9 		b	.L177
 6425              	.LVL685:
 6426              	.L320:
 450:Drivers/lvgl/src/themes/default/lv_theme_default.c **** 
 6427              		.loc 1 450 5 discriminator 2 view .LVU1488
 6428 1b0e 0121     		movs	r1, #1
 6429 1b10 FFF734B9 		b	.L178
 6430              	.LVL686:
 6431              	.L421:
 468:Drivers/lvgl/src/themes/default/lv_theme_default.c ****     lv_style_set_clip_corner(&theme->styles.menu_section, true);
 6432              		.loc 1 468 54 discriminator 1 view .LVU1489
 6433 1b14 0C23     		movs	r3, #12
 6434 1b16 FFF773B9 		b	.L179
 6435              	.L322:
 468:Drivers/lvgl/src/themes/default/lv_theme_default.c ****     lv_style_set_clip_corner(&theme->styles.menu_section, true);
 6436              		.loc 1 468 5 discriminator 6 view .LVU1490
 6437 1b1a 0121     		movs	r1, #1
 6438 1b1c FFF77CB9 		b	.L180
 6439              	.L422:
 475:Drivers/lvgl/src/themes/default/lv_theme_default.c ****     lv_style_set_pad_ver(&theme->styles.menu_cont, PAD_SMALL);
 6440              		.loc 1 475 52 discriminator 3 view .LVU1491
 6441 1b20 0C23     		movs	r3, #12
 6442 1b22 FFF7A8B9 		b	.L181
 6443              	.L323:
 475:Drivers/lvgl/src/themes/default/lv_theme_default.c ****     lv_style_set_pad_ver(&theme->styles.menu_cont, PAD_SMALL);
 6444              		.loc 1 475 52 discriminator 2 view .LVU1492
 6445 1b26 0E23     		movs	r3, #14
 6446 1b28 FFF7A5B9 		b	.L181
 6447              	.L325:
 475:Drivers/lvgl/src/themes/default/lv_theme_default.c ****     lv_style_set_pad_ver(&theme->styles.menu_cont, PAD_SMALL);
 6448              		.loc 1 475 5 discriminator 10 view .LVU1493
 6449 1b2c 0121     		movs	r1, #1
 6450 1b2e FFF7AEB9 		b	.L182
 6451              	.L423:
 476:Drivers/lvgl/src/themes/default/lv_theme_default.c ****     lv_style_set_pad_gap(&theme->styles.menu_cont, PAD_SMALL);
 6452              		.loc 1 476 52 discriminator 3 view .LVU1494
ARM GAS  /var/folders/qx/2_175_4n2s19vhvtspjhb3qh0000gn/T//ccFV8cem.s 			page 171


 6453 1b32 0C23     		movs	r3, #12
 6454 1b34 FFF7B8B9 		b	.L183
 6455              	.L326:
 476:Drivers/lvgl/src/themes/default/lv_theme_default.c ****     lv_style_set_pad_gap(&theme->styles.menu_cont, PAD_SMALL);
 6456              		.loc 1 476 52 discriminator 2 view .LVU1495
 6457 1b38 0E23     		movs	r3, #14
 6458 1b3a FFF7B5B9 		b	.L183
 6459              	.L328:
 476:Drivers/lvgl/src/themes/default/lv_theme_default.c ****     lv_style_set_pad_gap(&theme->styles.menu_cont, PAD_SMALL);
 6460              		.loc 1 476 5 discriminator 10 view .LVU1496
 6461 1b3e 0121     		movs	r1, #1
 6462 1b40 FFF7C3B9 		b	.L184
 6463              	.L424:
 477:Drivers/lvgl/src/themes/default/lv_theme_default.c ****     lv_style_set_border_width(&theme->styles.menu_cont, LV_DPX_CALC(theme->disp_dpi, 1));
 6464              		.loc 1 477 52 discriminator 3 view .LVU1497
 6465 1b44 0C23     		movs	r3, #12
 6466 1b46 FFF7CDB9 		b	.L185
 6467              	.L329:
 477:Drivers/lvgl/src/themes/default/lv_theme_default.c ****     lv_style_set_border_width(&theme->styles.menu_cont, LV_DPX_CALC(theme->disp_dpi, 1));
 6468              		.loc 1 477 52 discriminator 2 view .LVU1498
 6469 1b4a 0E23     		movs	r3, #14
 6470 1b4c FFF7CAB9 		b	.L185
 6471              	.L331:
 477:Drivers/lvgl/src/themes/default/lv_theme_default.c ****     lv_style_set_border_width(&theme->styles.menu_cont, LV_DPX_CALC(theme->disp_dpi, 1));
 6472              		.loc 1 477 5 discriminator 10 view .LVU1499
 6473 1b50 0121     		movs	r1, #1
 6474 1b52 FFF7D3B9 		b	.L186
 6475              	.L332:
 478:Drivers/lvgl/src/themes/default/lv_theme_default.c ****     lv_style_set_border_opa(&theme->styles.menu_cont, LV_OPA_10);
 6476              		.loc 1 478 5 discriminator 2 view .LVU1500
 6477 1b56 0121     		movs	r1, #1
 6478 1b58 FFF7DEB9 		b	.L187
 6479              	.L333:
 486:Drivers/lvgl/src/themes/default/lv_theme_default.c ****     lv_style_set_border_opa(&theme->styles.menu_sidebar_cont, LV_OPA_10);
 6480              		.loc 1 486 5 discriminator 2 view .LVU1501
 6481 1b5c 0121     		movs	r1, #1
 6482 1b5e FFF70BBA 		b	.L188
 6483              	.L425:
 496:Drivers/lvgl/src/themes/default/lv_theme_default.c ****     lv_style_set_pad_ver(&theme->styles.menu_header_cont, PAD_TINY);
 6484              		.loc 1 496 59 discriminator 3 view .LVU1502
 6485 1b62 0C23     		movs	r3, #12
 6486 1b64 FFF73CBA 		b	.L189
 6487              	.L334:
 496:Drivers/lvgl/src/themes/default/lv_theme_default.c ****     lv_style_set_pad_ver(&theme->styles.menu_header_cont, PAD_TINY);
 6488              		.loc 1 496 59 discriminator 2 view .LVU1503
 6489 1b68 0E23     		movs	r3, #14
 6490 1b6a FFF739BA 		b	.L189
 6491              	.L336:
 496:Drivers/lvgl/src/themes/default/lv_theme_default.c ****     lv_style_set_pad_ver(&theme->styles.menu_header_cont, PAD_TINY);
 6492              		.loc 1 496 5 discriminator 10 view .LVU1504
 6493 1b6e 0121     		movs	r1, #1
 6494 1b70 FFF742BA 		b	.L190
 6495              	.L426:
 497:Drivers/lvgl/src/themes/default/lv_theme_default.c ****     lv_style_set_pad_gap(&theme->styles.menu_header_cont, PAD_SMALL);
 6496              		.loc 1 497 59 discriminator 3 view .LVU1505
 6497 1b74 0623     		movs	r3, #6
 6498 1b76 FFF74CBA 		b	.L191
ARM GAS  /var/folders/qx/2_175_4n2s19vhvtspjhb3qh0000gn/T//ccFV8cem.s 			page 172


 6499              	.L337:
 497:Drivers/lvgl/src/themes/default/lv_theme_default.c ****     lv_style_set_pad_gap(&theme->styles.menu_header_cont, PAD_SMALL);
 6500              		.loc 1 497 59 discriminator 2 view .LVU1506
 6501 1b7a 0823     		movs	r3, #8
 6502 1b7c FFF749BA 		b	.L191
 6503              	.L339:
 497:Drivers/lvgl/src/themes/default/lv_theme_default.c ****     lv_style_set_pad_gap(&theme->styles.menu_header_cont, PAD_SMALL);
 6504              		.loc 1 497 5 discriminator 10 view .LVU1507
 6505 1b80 0121     		movs	r1, #1
 6506 1b82 FFF752BA 		b	.L192
 6507              	.L427:
 498:Drivers/lvgl/src/themes/default/lv_theme_default.c **** 
 6508              		.loc 1 498 59 discriminator 3 view .LVU1508
 6509 1b86 0C23     		movs	r3, #12
 6510 1b88 FFF75CBA 		b	.L193
 6511              	.L340:
 498:Drivers/lvgl/src/themes/default/lv_theme_default.c **** 
 6512              		.loc 1 498 59 discriminator 2 view .LVU1509
 6513 1b8c 0E23     		movs	r3, #14
 6514 1b8e FFF759BA 		b	.L193
 6515              	.L342:
 498:Drivers/lvgl/src/themes/default/lv_theme_default.c **** 
 6516              		.loc 1 498 5 discriminator 10 view .LVU1510
 6517 1b92 0121     		movs	r1, #1
 6518 1b94 FFF762BA 		b	.L194
 6519              	.L428:
 501:Drivers/lvgl/src/themes/default/lv_theme_default.c ****     lv_style_set_pad_ver(&theme->styles.menu_header_btn, PAD_TINY);
 6520              		.loc 1 501 58 discriminator 3 view .LVU1511
 6521 1b98 0623     		movs	r3, #6
 6522 1b9a FFF771BA 		b	.L195
 6523              	.L343:
 501:Drivers/lvgl/src/themes/default/lv_theme_default.c ****     lv_style_set_pad_ver(&theme->styles.menu_header_btn, PAD_TINY);
 6524              		.loc 1 501 58 discriminator 2 view .LVU1512
 6525 1b9e 0823     		movs	r3, #8
 6526 1ba0 FFF76EBA 		b	.L195
 6527              	.L345:
 501:Drivers/lvgl/src/themes/default/lv_theme_default.c ****     lv_style_set_pad_ver(&theme->styles.menu_header_btn, PAD_TINY);
 6528              		.loc 1 501 5 discriminator 10 view .LVU1513
 6529 1ba4 0121     		movs	r1, #1
 6530 1ba6 FFF777BA 		b	.L196
 6531              	.L429:
 502:Drivers/lvgl/src/themes/default/lv_theme_default.c ****     lv_style_set_shadow_opa(&theme->styles.menu_header_btn, LV_OPA_TRANSP);
 6532              		.loc 1 502 58 discriminator 3 view .LVU1514
 6533 1baa 0623     		movs	r3, #6
 6534 1bac FFF781BA 		b	.L197
 6535              	.L346:
 502:Drivers/lvgl/src/themes/default/lv_theme_default.c ****     lv_style_set_shadow_opa(&theme->styles.menu_header_btn, LV_OPA_TRANSP);
 6536              		.loc 1 502 58 discriminator 2 view .LVU1515
 6537 1bb0 0823     		movs	r3, #8
 6538 1bb2 FFF77EBA 		b	.L197
 6539              	.L348:
 502:Drivers/lvgl/src/themes/default/lv_theme_default.c ****     lv_style_set_shadow_opa(&theme->styles.menu_header_btn, LV_OPA_TRANSP);
 6540              		.loc 1 502 5 discriminator 10 view .LVU1516
 6541 1bb6 0121     		movs	r1, #1
 6542 1bb8 FFF787BA 		b	.L198
 6543              	.L430:
 517:Drivers/lvgl/src/themes/default/lv_theme_default.c **** #endif
ARM GAS  /var/folders/qx/2_175_4n2s19vhvtspjhb3qh0000gn/T//ccFV8cem.s 			page 173


 6544              		.loc 1 517 57 discriminator 3 view .LVU1517
 6545 1bbc 0623     		movs	r3, #6
 6546 1bbe FFF7D6BA 		b	.L199
 6547              	.L349:
 517:Drivers/lvgl/src/themes/default/lv_theme_default.c **** #endif
 6548              		.loc 1 517 57 discriminator 2 view .LVU1518
 6549 1bc2 0823     		movs	r3, #8
 6550 1bc4 FFF7D3BA 		b	.L199
 6551              	.L351:
 517:Drivers/lvgl/src/themes/default/lv_theme_default.c **** #endif
 6552              		.loc 1 517 5 discriminator 10 view .LVU1519
 6553 1bc8 0121     		movs	r1, #1
 6554 1bca FFF7DCBA 		b	.L200
 6555              	.L352:
 522:Drivers/lvgl/src/themes/default/lv_theme_default.c ****     lv_style_set_border_color(&theme->styles.table_cell, theme->color_grey);
 6556              		.loc 1 522 5 discriminator 2 view .LVU1520
 6557 1bce 0121     		movs	r1, #1
 6558 1bd0 FFF7ECBA 		b	.L201
 6559              	.L353:
 530:Drivers/lvgl/src/themes/default/lv_theme_default.c ****     lv_style_set_pad_left(&theme->styles.ta_cursor, - LV_DPX_CALC(theme->disp_dpi, 1));
 6560              		.loc 1 530 5 discriminator 2 view .LVU1521
 6561 1bd4 0121     		movs	r1, #1
 6562 1bd6 FFF71ABB 		b	.L202
 6563              	.L354:
 531:Drivers/lvgl/src/themes/default/lv_theme_default.c ****     lv_style_set_border_side(&theme->styles.ta_cursor, LV_BORDER_SIDE_LEFT);
 6564              		.loc 1 531 5 discriminator 2 view .LVU1522
 6565 1bda 4FF0FF31 		mov	r1, #-1
 6566 1bde FFF724BB 		b	.L203
 6567              	.L204:
 538:Drivers/lvgl/src/themes/default/lv_theme_default.c **** #endif
 6568              		.loc 1 538 86 view .LVU1523
 6569 1be2 0121     		movs	r1, #1
 6570 1be4 1220     		movs	r0, #18
 6571 1be6 FFF7FEFF 		bl	lv_palette_lighten
 6572              	.LVL687:
 6573 1bea 8DF83400 		strb	r0, [sp, #52]
 6574 1bee C0F30723 		ubfx	r3, r0, #8, #8
 6575 1bf2 8DF83530 		strb	r3, [sp, #53]
 6576 1bf6 C0F30740 		ubfx	r0, r0, #16, #8
 6577 1bfa 8DF83600 		strb	r0, [sp, #54]
 6578 1bfe FFF73BBB 		b	.L205
 6579              	.L431:
 543:Drivers/lvgl/src/themes/default/lv_theme_default.c ****     lv_style_set_pad_gap(&theme->styles.calendar_btnm_bg, PAD_SMALL / 2);
 6580              		.loc 1 543 59 discriminator 3 view .LVU1524
 6581 1c02 0C23     		movs	r3, #12
 6582 1c04 FFF74BBB 		b	.L206
 6583              	.L355:
 543:Drivers/lvgl/src/themes/default/lv_theme_default.c ****     lv_style_set_pad_gap(&theme->styles.calendar_btnm_bg, PAD_SMALL / 2);
 6584              		.loc 1 543 59 discriminator 2 view .LVU1525
 6585 1c08 0E23     		movs	r3, #14
 6586 1c0a FFF748BB 		b	.L206
 6587              	.L357:
 543:Drivers/lvgl/src/themes/default/lv_theme_default.c ****     lv_style_set_pad_gap(&theme->styles.calendar_btnm_bg, PAD_SMALL / 2);
 6588              		.loc 1 543 5 discriminator 10 view .LVU1526
 6589 1c0e 0121     		movs	r1, #1
 6590 1c10 FFF751BB 		b	.L207
 6591              	.L432:
ARM GAS  /var/folders/qx/2_175_4n2s19vhvtspjhb3qh0000gn/T//ccFV8cem.s 			page 174


 544:Drivers/lvgl/src/themes/default/lv_theme_default.c **** 
 6592              		.loc 1 544 59 discriminator 3 view .LVU1527
 6593 1c14 0C23     		movs	r3, #12
 6594 1c16 FFF75BBB 		b	.L208
 6595              	.L358:
 544:Drivers/lvgl/src/themes/default/lv_theme_default.c **** 
 6596              		.loc 1 544 59 discriminator 2 view .LVU1528
 6597 1c1a 0E23     		movs	r3, #14
 6598 1c1c FFF758BB 		b	.L208
 6599              	.L360:
 544:Drivers/lvgl/src/themes/default/lv_theme_default.c **** 
 6600              		.loc 1 544 5 discriminator 10 view .LVU1529
 6601 1c20 0021     		movs	r1, #0
 6602 1c22 FFF761BB 		b	.L209
 6603              	.L361:
 547:Drivers/lvgl/src/themes/default/lv_theme_default.c ****     lv_style_set_border_color(&theme->styles.calendar_btnm_day, theme->color_grey);
 6604              		.loc 1 547 5 discriminator 2 view .LVU1530
 6605 1c26 0121     		movs	r1, #1
 6606 1c28 FFF771BB 		b	.L210
 6607              	.L433:
 553:Drivers/lvgl/src/themes/default/lv_theme_default.c ****     lv_style_set_pad_top(&theme->styles.calendar_header, PAD_SMALL);
 6608              		.loc 1 553 58 discriminator 3 view .LVU1531
 6609 1c2c 0C23     		movs	r3, #12
 6610 1c2e FFF799BB 		b	.L211
 6611              	.L362:
 553:Drivers/lvgl/src/themes/default/lv_theme_default.c ****     lv_style_set_pad_top(&theme->styles.calendar_header, PAD_SMALL);
 6612              		.loc 1 553 58 discriminator 2 view .LVU1532
 6613 1c32 0E23     		movs	r3, #14
 6614 1c34 FFF796BB 		b	.L211
 6615              	.L364:
 553:Drivers/lvgl/src/themes/default/lv_theme_default.c ****     lv_style_set_pad_top(&theme->styles.calendar_header, PAD_SMALL);
 6616              		.loc 1 553 5 discriminator 10 view .LVU1533
 6617 1c38 0121     		movs	r1, #1
 6618 1c3a FFF79FBB 		b	.L212
 6619              	.L434:
 554:Drivers/lvgl/src/themes/default/lv_theme_default.c ****     lv_style_set_pad_bottom(&theme->styles.calendar_header, PAD_TINY);
 6620              		.loc 1 554 58 discriminator 3 view .LVU1534
 6621 1c3e 0C23     		movs	r3, #12
 6622 1c40 FFF7A9BB 		b	.L213
 6623              	.L365:
 554:Drivers/lvgl/src/themes/default/lv_theme_default.c ****     lv_style_set_pad_bottom(&theme->styles.calendar_header, PAD_TINY);
 6624              		.loc 1 554 58 discriminator 2 view .LVU1535
 6625 1c44 0E23     		movs	r3, #14
 6626 1c46 FFF7A6BB 		b	.L213
 6627              	.L367:
 554:Drivers/lvgl/src/themes/default/lv_theme_default.c ****     lv_style_set_pad_bottom(&theme->styles.calendar_header, PAD_TINY);
 6628              		.loc 1 554 5 discriminator 10 view .LVU1536
 6629 1c4a 0121     		movs	r1, #1
 6630 1c4c FFF7AFBB 		b	.L214
 6631              	.L435:
 555:Drivers/lvgl/src/themes/default/lv_theme_default.c ****     lv_style_set_pad_gap(&theme->styles.calendar_header, PAD_SMALL);
 6632              		.loc 1 555 61 discriminator 3 view .LVU1537
 6633 1c50 0623     		movs	r3, #6
 6634 1c52 FFF7B9BB 		b	.L215
 6635              	.L368:
 555:Drivers/lvgl/src/themes/default/lv_theme_default.c ****     lv_style_set_pad_gap(&theme->styles.calendar_header, PAD_SMALL);
 6636              		.loc 1 555 61 discriminator 2 view .LVU1538
ARM GAS  /var/folders/qx/2_175_4n2s19vhvtspjhb3qh0000gn/T//ccFV8cem.s 			page 175


 6637 1c56 0823     		movs	r3, #8
 6638 1c58 FFF7B6BB 		b	.L215
 6639              	.L370:
 555:Drivers/lvgl/src/themes/default/lv_theme_default.c ****     lv_style_set_pad_gap(&theme->styles.calendar_header, PAD_SMALL);
 6640              		.loc 1 555 5 discriminator 10 view .LVU1539
 6641 1c5c 0121     		movs	r1, #1
 6642 1c5e FFF7BFBB 		b	.L216
 6643              	.L436:
 556:Drivers/lvgl/src/themes/default/lv_theme_default.c **** #endif
 6644              		.loc 1 556 58 discriminator 3 view .LVU1540
 6645 1c62 0C23     		movs	r3, #12
 6646 1c64 FFF7C9BB 		b	.L217
 6647              	.L371:
 556:Drivers/lvgl/src/themes/default/lv_theme_default.c **** #endif
 6648              		.loc 1 556 58 discriminator 2 view .LVU1541
 6649 1c68 0E23     		movs	r3, #14
 6650 1c6a FFF7C6BB 		b	.L217
 6651              	.L373:
 556:Drivers/lvgl/src/themes/default/lv_theme_default.c **** #endif
 6652              		.loc 1 556 5 discriminator 10 view .LVU1542
 6653 1c6e 0121     		movs	r1, #1
 6654 1c70 FFF7CFBB 		b	.L218
 6655              	.L437:
 568:Drivers/lvgl/src/themes/default/lv_theme_default.c **** #endif
 6656              		.loc 1 568 58 view .LVU1543
 6657 1c74 E16A     		ldr	r1, [r4, #44]
 6658 1c76 012B     		cmp	r3, #1
 6659 1c78 0DD0     		beq	.L450
 568:Drivers/lvgl/src/themes/default/lv_theme_default.c **** #endif
 6660              		.loc 1 568 58 discriminator 2 view .LVU1544
 6661 1c7a 0823     		movs	r3, #8
 6662              	.L220:
 568:Drivers/lvgl/src/themes/default/lv_theme_default.c **** #endif
 6663              		.loc 1 568 58 discriminator 4 view .LVU1545
 6664 1c7c 03FB01F1 		mul	r1, r3, r1
 568:Drivers/lvgl/src/themes/default/lv_theme_default.c **** #endif
 6665              		.loc 1 568 73 discriminator 4 view .LVU1546
 6666 1c80 EF29     		cmp	r1, #239
 6667 1c82 0DDD     		ble	.L375
 568:Drivers/lvgl/src/themes/default/lv_theme_default.c **** #endif
 6668              		.loc 1 568 58 discriminator 10 view .LVU1547
 6669 1c84 5031     		adds	r1, r1, #80
 568:Drivers/lvgl/src/themes/default/lv_theme_default.c **** #endif
 6670              		.loc 1 568 73 discriminator 10 view .LVU1548
 6671 1c86 2E4B     		ldr	r3, .L471
 6672 1c88 83FB0123 		smull	r2, r3, r3, r1
 6673 1c8c C917     		asrs	r1, r1, #31
 6674 1c8e C1EBE311 		rsb	r1, r1, r3, asr #7
 6675 1c92 FFF7FABB 		b	.L221
 6676              	.L450:
 568:Drivers/lvgl/src/themes/default/lv_theme_default.c **** #endif
 6677              		.loc 1 568 58 discriminator 1 view .LVU1549
 6678 1c96 0C23     		movs	r3, #12
 6679 1c98 F0E7     		b	.L220
 6680              	.L438:
 568:Drivers/lvgl/src/themes/default/lv_theme_default.c **** #endif
 6681              		.loc 1 568 79 discriminator 11 view .LVU1550
ARM GAS  /var/folders/qx/2_175_4n2s19vhvtspjhb3qh0000gn/T//ccFV8cem.s 			page 176


 6682 1c9a 0C23     		movs	r3, #12
 6683 1c9c FFF7E9BB 		b	.L222
 6684              	.L375:
 568:Drivers/lvgl/src/themes/default/lv_theme_default.c **** #endif
 6685              		.loc 1 568 73 discriminator 6 view .LVU1551
 6686 1ca0 0021     		movs	r1, #0
 6687 1ca2 FFF7F2BB 		b	.L221
 6688              	.L377:
 568:Drivers/lvgl/src/themes/default/lv_theme_default.c **** #endif
 6689              		.loc 1 568 79 discriminator 16 view .LVU1552
 6690 1ca6 0121     		movs	r1, #1
 6691 1ca8 FFF7EFBB 		b	.L221
 6692              	.L378:
 574:Drivers/lvgl/src/themes/default/lv_theme_default.c ****     lv_style_set_border_side(&theme->styles.tab_btn, LV_BORDER_SIDE_BOTTOM);
 6693              		.loc 1 574 5 discriminator 2 view .LVU1553
 6694 1cac 0221     		movs	r1, #2
 6695 1cae 04E4     		b	.L223
 6696              	.L379:
 576:Drivers/lvgl/src/themes/default/lv_theme_default.c **** 
 6697              		.loc 1 576 5 discriminator 2 view .LVU1554
 6698 1cb0 0221     		movs	r1, #2
 6699 1cb2 15E4     		b	.L224
 6700              	.L380:
 579:Drivers/lvgl/src/themes/default/lv_theme_default.c **** #endif
 6701              		.loc 1 579 5 discriminator 2 view .LVU1555
 6702 1cb4 4FF0FF31 		mov	r1, #-1
 6703 1cb8 25E4     		b	.L225
 6704              	.L439:
 584:Drivers/lvgl/src/themes/default/lv_theme_default.c ****     lv_style_set_pad_ver(&theme->styles.list_bg, 0);
 6705              		.loc 1 584 50 discriminator 3 view .LVU1556
 6706 1cba 1423     		movs	r3, #20
 6707 1cbc 35E4     		b	.L226
 6708              	.L381:
 584:Drivers/lvgl/src/themes/default/lv_theme_default.c ****     lv_style_set_pad_ver(&theme->styles.list_bg, 0);
 6709              		.loc 1 584 50 discriminator 2 view .LVU1557
 6710 1cbe 1823     		movs	r3, #24
 6711 1cc0 33E4     		b	.L226
 6712              	.L383:
 584:Drivers/lvgl/src/themes/default/lv_theme_default.c ****     lv_style_set_pad_ver(&theme->styles.list_bg, 0);
 6713              		.loc 1 584 5 discriminator 10 view .LVU1558
 6714 1cc2 0121     		movs	r1, #1
 6715 1cc4 3DE4     		b	.L227
 6716              	.L384:
 590:Drivers/lvgl/src/themes/default/lv_theme_default.c ****     lv_style_set_border_color(&theme->styles.list_btn, theme->color_grey);
 6717              		.loc 1 590 5 discriminator 2 view .LVU1559
 6718 1cc6 0121     		movs	r1, #1
 6719 1cc8 5AE4     		b	.L228
 6720              	.L440:
 593:Drivers/lvgl/src/themes/default/lv_theme_default.c ****     lv_style_set_pad_column(&theme->styles.list_btn, PAD_SMALL);
 6721              		.loc 1 593 51 discriminator 3 view .LVU1560
 6722 1cca 0C23     		movs	r3, #12
 6723 1ccc 76E4     		b	.L229
 6724              	.L385:
 593:Drivers/lvgl/src/themes/default/lv_theme_default.c ****     lv_style_set_pad_column(&theme->styles.list_btn, PAD_SMALL);
 6725              		.loc 1 593 51 discriminator 2 view .LVU1561
 6726 1cce 0E23     		movs	r3, #14
 6727 1cd0 74E4     		b	.L229
ARM GAS  /var/folders/qx/2_175_4n2s19vhvtspjhb3qh0000gn/T//ccFV8cem.s 			page 177


 6728              	.L387:
 593:Drivers/lvgl/src/themes/default/lv_theme_default.c ****     lv_style_set_pad_column(&theme->styles.list_btn, PAD_SMALL);
 6729              		.loc 1 593 5 discriminator 10 view .LVU1562
 6730 1cd2 0121     		movs	r1, #1
 6731 1cd4 7EE4     		b	.L230
 6732              	.L441:
 594:Drivers/lvgl/src/themes/default/lv_theme_default.c **** 
 6733              		.loc 1 594 54 discriminator 3 view .LVU1563
 6734 1cd6 0C23     		movs	r3, #12
 6735 1cd8 89E4     		b	.L231
 6736              	.L388:
 594:Drivers/lvgl/src/themes/default/lv_theme_default.c **** 
 6737              		.loc 1 594 54 discriminator 2 view .LVU1564
 6738 1cda 0E23     		movs	r3, #14
 6739 1cdc 87E4     		b	.L231
 6740              	.L390:
 594:Drivers/lvgl/src/themes/default/lv_theme_default.c **** 
 6741              		.loc 1 594 5 discriminator 10 view .LVU1565
 6742 1cde 0121     		movs	r1, #1
 6743 1ce0 94E4     		b	.L232
 6744              	.L442:
 597:Drivers/lvgl/src/themes/default/lv_theme_default.c **** #endif
 6745              		.loc 1 597 65 discriminator 3 view .LVU1566
 6746 1ce2 1423     		movs	r3, #20
 6747 1ce4 A4E4     		b	.L233
 6748              	.L391:
 597:Drivers/lvgl/src/themes/default/lv_theme_default.c **** #endif
 6749              		.loc 1 597 65 discriminator 2 view .LVU1567
 6750 1ce6 1823     		movs	r3, #24
 6751 1ce8 A2E4     		b	.L233
 6752              	.L393:
 597:Drivers/lvgl/src/themes/default/lv_theme_default.c **** #endif
 6753              		.loc 1 597 5 discriminator 10 view .LVU1568
 6754 1cea 0121     		movs	r1, #1
 6755 1cec ACE4     		b	.L234
 6756              	.L394:
 606:Drivers/lvgl/src/themes/default/lv_theme_default.c ****     lv_style_set_shadow_color(&theme->styles.led, lv_color_white());
 6757              		.loc 1 606 5 discriminator 2 view .LVU1569
 6758 1cee 0121     		movs	r1, #1
 6759 1cf0 E9E4     		b	.L235
 6760              	.L395:
 608:Drivers/lvgl/src/themes/default/lv_theme_default.c **** #endif
 6761              		.loc 1 608 5 discriminator 2 view .LVU1570
 6762 1cf2 0121     		movs	r1, #1
 6763 1cf4 07E5     		b	.L236
 6764              	.L443:
 614:Drivers/lvgl/src/themes/default/lv_theme_default.c ****     lv_style_set_arc_color(&theme->styles.scale, theme->color_text);
 6765              		.loc 1 614 51 discriminator 1 view .LVU1571
 6766 1cf6 0020     		movs	r0, #0
 6767 1cf8 FFF7FEFF 		bl	lv_display_get_dpi
 6768              	.LVL688:
 6769 1cfc 2830     		adds	r0, r0, #40
 614:Drivers/lvgl/src/themes/default/lv_theme_default.c ****     lv_style_set_arc_color(&theme->styles.scale, theme->color_text);
 6770              		.loc 1 614 5 discriminator 1 view .LVU1572
 6771 1cfe 104B     		ldr	r3, .L471
 6772 1d00 83FB0023 		smull	r2, r3, r3, r0
 6773 1d04 C117     		asrs	r1, r0, #31
ARM GAS  /var/folders/qx/2_175_4n2s19vhvtspjhb3qh0000gn/T//ccFV8cem.s 			page 178


 6774 1d06 C1EB6311 		rsb	r1, r1, r3, asr #5
 6775 1d0a 18E5     		b	.L237
 6776              	.L444:
 616:Drivers/lvgl/src/themes/default/lv_theme_default.c ****     lv_style_set_length(&theme->styles.scale, LV_DPX(6));
 6777              		.loc 1 616 50 discriminator 1 view .LVU1573
 6778 1d0c 0020     		movs	r0, #0
 6779 1d0e FFF7FEFF 		bl	lv_display_get_dpi
 6780              	.LVL689:
 6781 1d12 2830     		adds	r0, r0, #40
 616:Drivers/lvgl/src/themes/default/lv_theme_default.c ****     lv_style_set_length(&theme->styles.scale, LV_DPX(6));
 6782              		.loc 1 616 5 discriminator 1 view .LVU1574
 6783 1d14 0A4B     		ldr	r3, .L471
 6784 1d16 83FB0023 		smull	r2, r3, r3, r0
 6785 1d1a C117     		asrs	r1, r0, #31
 6786 1d1c C1EB6311 		rsb	r1, r1, r3, asr #5
 6787 1d20 24E5     		b	.L238
 6788              	.L445:
 617:Drivers/lvgl/src/themes/default/lv_theme_default.c **** #endif
 6789              		.loc 1 617 47 discriminator 1 view .LVU1575
 6790 1d22 0020     		movs	r0, #0
 6791 1d24 FFF7FEFF 		bl	lv_display_get_dpi
 6792              	.LVL690:
 6793 1d28 00EB4000 		add	r0, r0, r0, lsl #1
 6794 1d2c 4100     		lsls	r1, r0, #1
 6795 1d2e 5031     		adds	r1, r1, #80
 617:Drivers/lvgl/src/themes/default/lv_theme_default.c **** #endif
 6796              		.loc 1 617 5 discriminator 1 view .LVU1576
 6797 1d30 034B     		ldr	r3, .L471
 6798 1d32 83FB0123 		smull	r2, r3, r3, r1
 6799 1d36 C917     		asrs	r1, r1, #31
 6800 1d38 C1EBA311 		rsb	r1, r1, r3, asr #6
 6801 1d3c 23E5     		b	.L239
 6802              	.L472:
 6803 1d3e 00BF     		.align	2
 6804              	.L471:
 6805 1d40 67666666 		.word	1717986919
 6806              		.cfi_endproc
 6807              	.LFE202:
 6809              		.section	.text.lv_theme_default_init,"ax",%progbits
 6810              		.align	1
 6811              		.global	lv_theme_default_init
 6812              		.syntax unified
 6813              		.thumb
 6814              		.thumb_func
 6816              	lv_theme_default_init:
 6817              	.LVL691:
 6818              	.LFB203:
 627:Drivers/lvgl/src/themes/default/lv_theme_default.c ****     /*This trick is required only to avoid the garbage collection of
 6819              		.loc 1 627 1 is_stmt 1 view -0
 6820              		.cfi_startproc
 6821              		@ args = 4, pretend = 0, frame = 8
 6822              		@ frame_needed = 0, uses_anonymous_args = 0
 627:Drivers/lvgl/src/themes/default/lv_theme_default.c ****     /*This trick is required only to avoid the garbage collection of
 6823              		.loc 1 627 1 is_stmt 0 view .LVU1578
 6824 0000 2DE9F047 		push	{r4, r5, r6, r7, r8, r9, r10, lr}
 6825              	.LCFI10:
 6826              		.cfi_def_cfa_offset 32
ARM GAS  /var/folders/qx/2_175_4n2s19vhvtspjhb3qh0000gn/T//ccFV8cem.s 			page 179


 6827              		.cfi_offset 4, -32
 6828              		.cfi_offset 5, -28
 6829              		.cfi_offset 6, -24
 6830              		.cfi_offset 7, -20
 6831              		.cfi_offset 8, -16
 6832              		.cfi_offset 9, -12
 6833              		.cfi_offset 10, -8
 6834              		.cfi_offset 14, -4
 6835 0004 82B0     		sub	sp, sp, #8
 6836              	.LCFI11:
 6837              		.cfi_def_cfa_offset 40
 6838 0006 0646     		mov	r6, r0
 6839 0008 0191     		str	r1, [sp, #4]
 6840 000a 0092     		str	r2, [sp]
 6841 000c 9946     		mov	r9, r3
 6842 000e DDF828A0 		ldr	r10, [sp, #40]
 632:Drivers/lvgl/src/themes/default/lv_theme_default.c ****         theme_def = lv_malloc_zeroed(sizeof(my_theme_t));
 6843              		.loc 1 632 5 is_stmt 1 view .LVU1579
 632:Drivers/lvgl/src/themes/default/lv_theme_default.c ****         theme_def = lv_malloc_zeroed(sizeof(my_theme_t));
 6844              		.loc 1 632 9 is_stmt 0 view .LVU1580
 6845 0012 FFF7FEFF 		bl	lv_theme_default_is_inited
 6846              	.LVL692:
 632:Drivers/lvgl/src/themes/default/lv_theme_default.c ****         theme_def = lv_malloc_zeroed(sizeof(my_theme_t));
 6847              		.loc 1 632 7 discriminator 1 view .LVU1581
 6848 0016 D0B1     		cbz	r0, .L488
 6849              	.L474:
 634:Drivers/lvgl/src/themes/default/lv_theme_default.c ****     }
 6850              		.loc 1 634 9 is_stmt 1 view .LVU1582
 634:Drivers/lvgl/src/themes/default/lv_theme_default.c ****     }
 6851              		.loc 1 634 36 view .LVU1583
 637:Drivers/lvgl/src/themes/default/lv_theme_default.c **** 
 6852              		.loc 1 637 5 view .LVU1584
 637:Drivers/lvgl/src/themes/default/lv_theme_default.c **** 
 6853              		.loc 1 637 18 is_stmt 0 view .LVU1585
 6854 0018 464B     		ldr	r3, .L491
 6855 001a D3F8CC41 		ldr	r4, [r3, #460]
 6856              	.LVL693:
 639:Drivers/lvgl/src/themes/default/lv_theme_default.c ****     int32_t new_dpi = lv_display_get_dpi(new_disp);
 6857              		.loc 1 639 5 is_stmt 1 view .LVU1586
 639:Drivers/lvgl/src/themes/default/lv_theme_default.c ****     int32_t new_dpi = lv_display_get_dpi(new_disp);
 6858              		.loc 1 639 71 is_stmt 0 view .LVU1587
 6859 001e 06B3     		cbz	r6, .L489
 639:Drivers/lvgl/src/themes/default/lv_theme_default.c ****     int32_t new_dpi = lv_display_get_dpi(new_disp);
 6860              		.loc 1 639 71 discriminator 2 view .LVU1588
 6861 0020 3546     		mov	r5, r6
 6862              	.L476:
 6863              	.LVL694:
 640:Drivers/lvgl/src/themes/default/lv_theme_default.c ****     int32_t hor_res = lv_display_get_horizontal_resolution(new_disp);
 6864              		.loc 1 640 5 is_stmt 1 view .LVU1589
 640:Drivers/lvgl/src/themes/default/lv_theme_default.c ****     int32_t hor_res = lv_display_get_horizontal_resolution(new_disp);
 6865              		.loc 1 640 23 is_stmt 0 view .LVU1590
 6866 0022 2846     		mov	r0, r5
 6867 0024 FFF7FEFF 		bl	lv_display_get_dpi
 6868              	.LVL695:
 6869 0028 8046     		mov	r8, r0
 6870              	.LVL696:
 641:Drivers/lvgl/src/themes/default/lv_theme_default.c ****     int32_t ver_res = lv_display_get_vertical_resolution(new_disp);
ARM GAS  /var/folders/qx/2_175_4n2s19vhvtspjhb3qh0000gn/T//ccFV8cem.s 			page 180


 6871              		.loc 1 641 5 is_stmt 1 view .LVU1591
 641:Drivers/lvgl/src/themes/default/lv_theme_default.c ****     int32_t ver_res = lv_display_get_vertical_resolution(new_disp);
 6872              		.loc 1 641 23 is_stmt 0 view .LVU1592
 6873 002a 2846     		mov	r0, r5
 6874              	.LVL697:
 641:Drivers/lvgl/src/themes/default/lv_theme_default.c ****     int32_t ver_res = lv_display_get_vertical_resolution(new_disp);
 6875              		.loc 1 641 23 view .LVU1593
 6876 002c FFF7FEFF 		bl	lv_display_get_horizontal_resolution
 6877              	.LVL698:
 6878 0030 0746     		mov	r7, r0
 6879              	.LVL699:
 642:Drivers/lvgl/src/themes/default/lv_theme_default.c ****     int32_t greater_res = LV_MAX(hor_res, ver_res);
 6880              		.loc 1 642 5 is_stmt 1 view .LVU1594
 642:Drivers/lvgl/src/themes/default/lv_theme_default.c ****     int32_t greater_res = LV_MAX(hor_res, ver_res);
 6881              		.loc 1 642 23 is_stmt 0 view .LVU1595
 6882 0032 2846     		mov	r0, r5
 6883              	.LVL700:
 642:Drivers/lvgl/src/themes/default/lv_theme_default.c ****     int32_t greater_res = LV_MAX(hor_res, ver_res);
 6884              		.loc 1 642 23 view .LVU1596
 6885 0034 FFF7FEFF 		bl	lv_display_get_vertical_resolution
 6886              	.LVL701:
 643:Drivers/lvgl/src/themes/default/lv_theme_default.c ****     disp_size_t new_size;
 6887              		.loc 1 643 5 is_stmt 1 view .LVU1597
 643:Drivers/lvgl/src/themes/default/lv_theme_default.c ****     disp_size_t new_size;
 6888              		.loc 1 643 13 is_stmt 0 view .LVU1598
 6889 0038 B842     		cmp	r0, r7
 6890 003a B8BF     		it	lt
 6891 003c 3846     		movlt	r0, r7
 6892              	.LVL702:
 644:Drivers/lvgl/src/themes/default/lv_theme_default.c **** 
 6893              		.loc 1 644 5 is_stmt 1 view .LVU1599
 646:Drivers/lvgl/src/themes/default/lv_theme_default.c ****     else if(greater_res < 720) new_size = DISP_MEDIUM;
 6894              		.loc 1 646 5 view .LVU1600
 646:Drivers/lvgl/src/themes/default/lv_theme_default.c ****     else if(greater_res < 720) new_size = DISP_MEDIUM;
 6895              		.loc 1 646 7 is_stmt 0 view .LVU1601
 6896 003e B0F5A07F 		cmp	r0, #320
 6897 0042 12DD     		ble	.L484
 647:Drivers/lvgl/src/themes/default/lv_theme_default.c ****     else new_size = DISP_LARGE;
 6898              		.loc 1 647 10 is_stmt 1 view .LVU1602
 647:Drivers/lvgl/src/themes/default/lv_theme_default.c ****     else new_size = DISP_LARGE;
 6899              		.loc 1 647 12 is_stmt 0 view .LVU1603
 6900 0044 B0F5347F 		cmp	r0, #720
 6901 0048 4FDA     		bge	.L485
 647:Drivers/lvgl/src/themes/default/lv_theme_default.c ****     else new_size = DISP_LARGE;
 6902              		.loc 1 647 41 discriminator 1 view .LVU1604
 6903 004a 0227     		movs	r7, #2
 6904              	.LVL703:
 647:Drivers/lvgl/src/themes/default/lv_theme_default.c ****     else new_size = DISP_LARGE;
 6905              		.loc 1 647 41 discriminator 1 view .LVU1605
 6906 004c 0EE0     		b	.L477
 6907              	.LVL704:
 6908              	.L488:
 633:Drivers/lvgl/src/themes/default/lv_theme_default.c ****         LV_ASSERT_MALLOC(theme_def);
 6909              		.loc 1 633 9 is_stmt 1 view .LVU1606
 633:Drivers/lvgl/src/themes/default/lv_theme_default.c ****         LV_ASSERT_MALLOC(theme_def);
 6910              		.loc 1 633 21 is_stmt 0 view .LVU1607
 6911 004e 4FF46370 		mov	r0, #908
ARM GAS  /var/folders/qx/2_175_4n2s19vhvtspjhb3qh0000gn/T//ccFV8cem.s 			page 181


 6912 0052 FFF7FEFF 		bl	lv_malloc_zeroed
 6913              	.LVL705:
 633:Drivers/lvgl/src/themes/default/lv_theme_default.c ****         LV_ASSERT_MALLOC(theme_def);
 6914              		.loc 1 633 19 discriminator 1 view .LVU1608
 6915 0056 374B     		ldr	r3, .L491
 6916 0058 C3F8CC01 		str	r0, [r3, #460]
 634:Drivers/lvgl/src/themes/default/lv_theme_default.c ****     }
 6917              		.loc 1 634 9 is_stmt 1 view .LVU1609
 634:Drivers/lvgl/src/themes/default/lv_theme_default.c ****     }
 6918              		.loc 1 634 9 view .LVU1610
 6919 005c 0028     		cmp	r0, #0
 6920 005e DBD1     		bne	.L474
 6921              	.L475:
 634:Drivers/lvgl/src/themes/default/lv_theme_default.c ****     }
 6922              		.loc 1 634 9 view .LVU1611
 634:Drivers/lvgl/src/themes/default/lv_theme_default.c ****     }
 6923              		.loc 1 634 9 view .LVU1612
 634:Drivers/lvgl/src/themes/default/lv_theme_default.c ****     }
 6924              		.loc 1 634 9 view .LVU1613
 634:Drivers/lvgl/src/themes/default/lv_theme_default.c ****     }
 6925              		.loc 1 634 9 view .LVU1614
 634:Drivers/lvgl/src/themes/default/lv_theme_default.c ****     }
 6926              		.loc 1 634 9 view .LVU1615
 6927 0060 FEE7     		b	.L475
 6928              	.LVL706:
 6929              	.L489:
 639:Drivers/lvgl/src/themes/default/lv_theme_default.c ****     int32_t new_dpi = lv_display_get_dpi(new_disp);
 6930              		.loc 1 639 46 is_stmt 0 discriminator 1 view .LVU1616
 6931 0062 FFF7FEFF 		bl	lv_display_get_default
 6932              	.LVL707:
 6933 0066 0546     		mov	r5, r0
 6934 0068 DBE7     		b	.L476
 6935              	.LVL708:
 6936              	.L484:
 646:Drivers/lvgl/src/themes/default/lv_theme_default.c ****     else if(greater_res < 720) new_size = DISP_MEDIUM;
 6937              		.loc 1 646 37 discriminator 1 view .LVU1617
 6938 006a 0327     		movs	r7, #3
 6939              	.LVL709:
 6940              	.L477:
 651:Drivers/lvgl/src/themes/default/lv_theme_default.c ****        theme->disp_size == new_size &&
 6941              		.loc 1 651 5 is_stmt 1 view .LVU1618
 651:Drivers/lvgl/src/themes/default/lv_theme_default.c ****        theme->disp_size == new_size &&
 6942              		.loc 1 651 13 is_stmt 0 view .LVU1619
 6943 006c 94F83C30 		ldrb	r3, [r4, #60]	@ zero_extendqisi2
 651:Drivers/lvgl/src/themes/default/lv_theme_default.c ****        theme->disp_size == new_size &&
 6944              		.loc 1 651 7 view .LVU1620
 6945 0070 13B1     		cbz	r3, .L478
 651:Drivers/lvgl/src/themes/default/lv_theme_default.c ****        theme->disp_size == new_size &&
 6946              		.loc 1 651 30 discriminator 1 view .LVU1621
 6947 0072 E36A     		ldr	r3, [r4, #44]
 651:Drivers/lvgl/src/themes/default/lv_theme_default.c ****        theme->disp_size == new_size &&
 6948              		.loc 1 651 22 discriminator 1 view .LVU1622
 6949 0074 4345     		cmp	r3, r8
 6950 0076 3AD0     		beq	.L490
 6951              	.LVL710:
 6952              	.L478:
 660:Drivers/lvgl/src/themes/default/lv_theme_default.c ****     theme->disp_dpi = new_dpi;
ARM GAS  /var/folders/qx/2_175_4n2s19vhvtspjhb3qh0000gn/T//ccFV8cem.s 			page 182


 6953              		.loc 1 660 5 is_stmt 1 view .LVU1623
 660:Drivers/lvgl/src/themes/default/lv_theme_default.c ****     theme->disp_dpi = new_dpi;
 6954              		.loc 1 660 22 is_stmt 0 view .LVU1624
 6955 0078 84F82870 		strb	r7, [r4, #40]
 661:Drivers/lvgl/src/themes/default/lv_theme_default.c ****     theme->base.disp = new_disp;
 6956              		.loc 1 661 5 is_stmt 1 view .LVU1625
 661:Drivers/lvgl/src/themes/default/lv_theme_default.c ****     theme->base.disp = new_disp;
 6957              		.loc 1 661 21 is_stmt 0 view .LVU1626
 6958 007c C4F82C80 		str	r8, [r4, #44]
 662:Drivers/lvgl/src/themes/default/lv_theme_default.c ****     theme->base.color_primary = color_primary;
 6959              		.loc 1 662 5 is_stmt 1 view .LVU1627
 662:Drivers/lvgl/src/themes/default/lv_theme_default.c ****     theme->base.color_primary = color_primary;
 6960              		.loc 1 662 22 is_stmt 0 view .LVU1628
 6961 0080 E560     		str	r5, [r4, #12]
 663:Drivers/lvgl/src/themes/default/lv_theme_default.c ****     theme->base.color_secondary = color_secondary;
 6962              		.loc 1 663 5 is_stmt 1 view .LVU1629
 663:Drivers/lvgl/src/themes/default/lv_theme_default.c ****     theme->base.color_secondary = color_secondary;
 6963              		.loc 1 663 31 is_stmt 0 view .LVU1630
 6964 0082 019B     		ldr	r3, [sp, #4]
 6965 0084 2382     		strh	r3, [r4, #16]	@ movhi
 6966 0086 1B0C     		lsrs	r3, r3, #16
 6967 0088 A374     		strb	r3, [r4, #18]
 664:Drivers/lvgl/src/themes/default/lv_theme_default.c ****     theme->base.font_small = font;
 6968              		.loc 1 664 5 is_stmt 1 view .LVU1631
 664:Drivers/lvgl/src/themes/default/lv_theme_default.c ****     theme->base.font_small = font;
 6969              		.loc 1 664 33 is_stmt 0 view .LVU1632
 6970 008a BDF80020 		ldrh	r2, [sp]	@ unaligned
 6971 008e 9DF80230 		ldrb	r3, [sp, #2]	@ zero_extendqisi2
 6972 0092 A4F81320 		strh	r2, [r4, #19]	@ unaligned
 6973 0096 6375     		strb	r3, [r4, #21]
 665:Drivers/lvgl/src/themes/default/lv_theme_default.c ****     theme->base.font_normal = font;
 6974              		.loc 1 665 5 is_stmt 1 view .LVU1633
 665:Drivers/lvgl/src/themes/default/lv_theme_default.c ****     theme->base.font_normal = font;
 6975              		.loc 1 665 28 is_stmt 0 view .LVU1634
 6976 0098 C4F818A0 		str	r10, [r4, #24]
 666:Drivers/lvgl/src/themes/default/lv_theme_default.c ****     theme->base.font_large = font;
 6977              		.loc 1 666 5 is_stmt 1 view .LVU1635
 666:Drivers/lvgl/src/themes/default/lv_theme_default.c ****     theme->base.font_large = font;
 6978              		.loc 1 666 29 is_stmt 0 view .LVU1636
 6979 009c C4F81CA0 		str	r10, [r4, #28]
 667:Drivers/lvgl/src/themes/default/lv_theme_default.c ****     theme->base.apply_cb = theme_apply;
 6980              		.loc 1 667 5 is_stmt 1 view .LVU1637
 667:Drivers/lvgl/src/themes/default/lv_theme_default.c ****     theme->base.apply_cb = theme_apply;
 6981              		.loc 1 667 28 is_stmt 0 view .LVU1638
 6982 00a0 C4F820A0 		str	r10, [r4, #32]
 668:Drivers/lvgl/src/themes/default/lv_theme_default.c ****     theme->base.flags = dark ? MODE_DARK : 0;
 6983              		.loc 1 668 5 is_stmt 1 view .LVU1639
 668:Drivers/lvgl/src/themes/default/lv_theme_default.c ****     theme->base.flags = dark ? MODE_DARK : 0;
 6984              		.loc 1 668 26 is_stmt 0 view .LVU1640
 6985 00a4 244B     		ldr	r3, .L491+4
 6986 00a6 2360     		str	r3, [r4]
 669:Drivers/lvgl/src/themes/default/lv_theme_default.c **** #if LV_USE_EXT_DATA
 6987              		.loc 1 669 5 is_stmt 1 view .LVU1641
 669:Drivers/lvgl/src/themes/default/lv_theme_default.c **** #if LV_USE_EXT_DATA
 6988              		.loc 1 669 23 is_stmt 0 view .LVU1642
 6989 00a8 C4F82490 		str	r9, [r4, #36]
 675:Drivers/lvgl/src/themes/default/lv_theme_default.c **** 
ARM GAS  /var/folders/qx/2_175_4n2s19vhvtspjhb3qh0000gn/T//ccFV8cem.s 			page 183


 6990              		.loc 1 675 5 is_stmt 1 view .LVU1643
 6991 00ac 2046     		mov	r0, r4
 6992 00ae FFF7FEFF 		bl	style_init
 6993              	.LVL711:
 677:Drivers/lvgl/src/themes/default/lv_theme_default.c ****         lv_obj_report_style_change(NULL);
 6994              		.loc 1 677 5 view .LVU1644
 677:Drivers/lvgl/src/themes/default/lv_theme_default.c ****         lv_obj_report_style_change(NULL);
 6995              		.loc 1 677 7 is_stmt 0 view .LVU1645
 6996 00b2 26B1     		cbz	r6, .L481
 677:Drivers/lvgl/src/themes/default/lv_theme_default.c ****         lv_obj_report_style_change(NULL);
 6997              		.loc 1 677 24 discriminator 1 view .LVU1646
 6998 00b4 3046     		mov	r0, r6
 6999 00b6 FFF7FEFF 		bl	lv_display_get_theme
 7000              	.LVL712:
 677:Drivers/lvgl/src/themes/default/lv_theme_default.c ****         lv_obj_report_style_change(NULL);
 7001              		.loc 1 677 21 discriminator 1 view .LVU1647
 7002 00ba 8442     		cmp	r4, r0
 7003 00bc 02D1     		bne	.L482
 7004              	.L481:
 678:Drivers/lvgl/src/themes/default/lv_theme_default.c ****     }
 7005              		.loc 1 678 9 is_stmt 1 view .LVU1648
 7006 00be 0020     		movs	r0, #0
 7007 00c0 FFF7FEFF 		bl	lv_obj_report_style_change
 7008              	.LVL713:
 7009              	.L482:
 681:Drivers/lvgl/src/themes/default/lv_theme_default.c **** 
 7010              		.loc 1 681 5 view .LVU1649
 681:Drivers/lvgl/src/themes/default/lv_theme_default.c **** 
 7011              		.loc 1 681 19 is_stmt 0 view .LVU1650
 7012 00c4 0123     		movs	r3, #1
 7013 00c6 84F83C30 		strb	r3, [r4, #60]
 685:Drivers/lvgl/src/themes/default/lv_theme_default.c ****     lv_display_add_event_cb(new_disp, resolution_change_event_cb, LV_EVENT_RESOLUTION_CHANGED, them
 7014              		.loc 1 685 5 is_stmt 1 view .LVU1651
 7015 00ca 1C4E     		ldr	r6, .L491+8
 7016              	.LVL714:
 685:Drivers/lvgl/src/themes/default/lv_theme_default.c ****     lv_display_add_event_cb(new_disp, resolution_change_event_cb, LV_EVENT_RESOLUTION_CHANGED, them
 7017              		.loc 1 685 5 is_stmt 0 view .LVU1652
 7018 00cc 2246     		mov	r2, r4
 7019 00ce 3146     		mov	r1, r6
 7020 00d0 2846     		mov	r0, r5
 7021 00d2 FFF7FEFF 		bl	lv_display_remove_event_cb_with_user_data
 7022              	.LVL715:
 686:Drivers/lvgl/src/themes/default/lv_theme_default.c **** 
 7023              		.loc 1 686 5 is_stmt 1 view .LVU1653
 7024 00d6 2346     		mov	r3, r4
 7025 00d8 3722     		movs	r2, #55
 7026 00da 3146     		mov	r1, r6
 7027 00dc 2846     		mov	r0, r5
 7028 00de FFF7FEFF 		bl	lv_display_add_event_cb
 7029              	.LVL716:
 688:Drivers/lvgl/src/themes/default/lv_theme_default.c **** }
 7030              		.loc 1 688 5 view .LVU1654
 7031              	.L473:
 689:Drivers/lvgl/src/themes/default/lv_theme_default.c **** 
 7032              		.loc 1 689 1 is_stmt 0 view .LVU1655
 7033 00e2 2046     		mov	r0, r4
 7034 00e4 02B0     		add	sp, sp, #8
ARM GAS  /var/folders/qx/2_175_4n2s19vhvtspjhb3qh0000gn/T//ccFV8cem.s 			page 184


 7035              	.LCFI12:
 7036              		.cfi_remember_state
 7037              		.cfi_def_cfa_offset 32
 7038              		@ sp needed
 7039 00e6 BDE8F087 		pop	{r4, r5, r6, r7, r8, r9, r10, pc}
 7040              	.LVL717:
 7041              	.L485:
 7042              	.LCFI13:
 7043              		.cfi_restore_state
 648:Drivers/lvgl/src/themes/default/lv_theme_default.c **** 
 7044              		.loc 1 648 19 view .LVU1656
 7045 00ea 0127     		movs	r7, #1
 7046              	.LVL718:
 648:Drivers/lvgl/src/themes/default/lv_theme_default.c **** 
 7047              		.loc 1 648 19 view .LVU1657
 7048 00ec BEE7     		b	.L477
 7049              	.LVL719:
 7050              	.L490:
 652:Drivers/lvgl/src/themes/default/lv_theme_default.c ****        lv_color_eq(theme->base.color_primary, color_primary) &&
 7051              		.loc 1 652 13 view .LVU1658
 7052 00ee 94F82830 		ldrb	r3, [r4, #40]	@ zero_extendqisi2
 651:Drivers/lvgl/src/themes/default/lv_theme_default.c ****        theme->disp_size == new_size &&
 7053              		.loc 1 651 52 discriminator 2 view .LVU1659
 7054 00f2 BB42     		cmp	r3, r7
 7055 00f4 C0D1     		bne	.L478
 653:Drivers/lvgl/src/themes/default/lv_theme_default.c ****        lv_color_eq(theme->base.color_secondary, color_secondary) &&
 7056              		.loc 1 653 8 view .LVU1660
 7057 00f6 0199     		ldr	r1, [sp, #4]
 7058 00f8 2069     		ldr	r0, [r4, #16]
 7059              	.LVL720:
 653:Drivers/lvgl/src/themes/default/lv_theme_default.c ****        lv_color_eq(theme->base.color_secondary, color_secondary) &&
 7060              		.loc 1 653 8 view .LVU1661
 7061 00fa FFF7FEFF 		bl	lv_color_eq
 7062              	.LVL721:
 652:Drivers/lvgl/src/themes/default/lv_theme_default.c ****        lv_color_eq(theme->base.color_primary, color_primary) &&
 7063              		.loc 1 652 37 view .LVU1662
 7064 00fe 0028     		cmp	r0, #0
 7065 0100 BAD0     		beq	.L478
 654:Drivers/lvgl/src/themes/default/lv_theme_default.c ****        (theme->base.flags == (dark ? MODE_DARK : 0)) &&
 7066              		.loc 1 654 8 view .LVU1663
 7067 0102 E37C     		ldrb	r3, [r4, #19]	@ zero_extendqisi2
 7068 0104 227D     		ldrb	r2, [r4, #20]	@ zero_extendqisi2
 7069 0106 43EA0223 		orr	r3, r3, r2, lsl #8
 7070 010a 607D     		ldrb	r0, [r4, #21]	@ zero_extendqisi2
 7071 010c 0099     		ldr	r1, [sp]
 7072 010e 43EA0040 		orr	r0, r3, r0, lsl #16
 7073 0112 FFF7FEFF 		bl	lv_color_eq
 7074              	.LVL722:
 653:Drivers/lvgl/src/themes/default/lv_theme_default.c ****        lv_color_eq(theme->base.color_secondary, color_secondary) &&
 7075              		.loc 1 653 62 view .LVU1664
 7076 0116 0028     		cmp	r0, #0
 7077 0118 AED0     		beq	.L478
 655:Drivers/lvgl/src/themes/default/lv_theme_default.c ****        theme->base.font_small == font) {
 7078              		.loc 1 655 20 view .LVU1665
 7079 011a 626A     		ldr	r2, [r4, #36]
 655:Drivers/lvgl/src/themes/default/lv_theme_default.c ****        theme->base.font_small == font) {
 7080              		.loc 1 655 48 view .LVU1666
ARM GAS  /var/folders/qx/2_175_4n2s19vhvtspjhb3qh0000gn/T//ccFV8cem.s 			page 185


 7081 011c B9F1000F 		cmp	r9, #0
 7082 0120 06D0     		beq	.L486
 655:Drivers/lvgl/src/themes/default/lv_theme_default.c ****        theme->base.font_small == font) {
 7083              		.loc 1 655 48 discriminator 1 view .LVU1667
 7084 0122 0123     		movs	r3, #1
 7085              	.L479:
 654:Drivers/lvgl/src/themes/default/lv_theme_default.c ****        (theme->base.flags == (dark ? MODE_DARK : 0)) &&
 7086              		.loc 1 654 66 view .LVU1668
 7087 0124 9A42     		cmp	r2, r3
 7088 0126 A7D1     		bne	.L478
 656:Drivers/lvgl/src/themes/default/lv_theme_default.c ****         return (lv_theme_t *) theme;
 7089              		.loc 1 656 19 view .LVU1669
 7090 0128 A369     		ldr	r3, [r4, #24]
 655:Drivers/lvgl/src/themes/default/lv_theme_default.c ****        theme->base.font_small == font) {
 7091              		.loc 1 655 54 view .LVU1670
 7092 012a 5345     		cmp	r3, r10
 7093 012c A4D1     		bne	.L478
 7094 012e D8E7     		b	.L473
 7095              	.L486:
 655:Drivers/lvgl/src/themes/default/lv_theme_default.c ****        theme->base.font_small == font) {
 7096              		.loc 1 655 48 discriminator 2 view .LVU1671
 7097 0130 0023     		movs	r3, #0
 7098 0132 F7E7     		b	.L479
 7099              	.L492:
 7100              		.align	2
 7101              	.L491:
 7102 0134 00000000 		.word	lv_global
 7103 0138 00000000 		.word	theme_apply
 7104 013c 00000000 		.word	resolution_change_event_cb
 7105              		.cfi_endproc
 7106              	.LFE203:
 7108              		.section	.text.resolution_change_event_cb,"ax",%progbits
 7109              		.align	1
 7110              		.syntax unified
 7111              		.thumb
 7112              		.thumb_func
 7114              	resolution_change_event_cb:
 7115              	.LVL723:
 7116              	.LFB209:
1231:Drivers/lvgl/src/themes/default/lv_theme_default.c **** 
1232:Drivers/lvgl/src/themes/default/lv_theme_default.c **** 
1233:Drivers/lvgl/src/themes/default/lv_theme_default.c **** static void resolution_change_event_cb(lv_event_t * e)
1234:Drivers/lvgl/src/themes/default/lv_theme_default.c **** {
 7117              		.loc 1 1234 1 is_stmt 1 view -0
 7118              		.cfi_startproc
 7119              		@ args = 0, pretend = 0, frame = 0
 7120              		@ frame_needed = 0, uses_anonymous_args = 0
 7121              		.loc 1 1234 1 is_stmt 0 view .LVU1673
 7122 0000 30B5     		push	{r4, r5, lr}
 7123              	.LCFI14:
 7124              		.cfi_def_cfa_offset 12
 7125              		.cfi_offset 4, -12
 7126              		.cfi_offset 5, -8
 7127              		.cfi_offset 14, -4
 7128 0002 83B0     		sub	sp, sp, #12
 7129              	.LCFI15:
 7130              		.cfi_def_cfa_offset 24
ARM GAS  /var/folders/qx/2_175_4n2s19vhvtspjhb3qh0000gn/T//ccFV8cem.s 			page 186


 7131 0004 0546     		mov	r5, r0
1235:Drivers/lvgl/src/themes/default/lv_theme_default.c ****     lv_display_t * disp = lv_event_get_target(e);
 7132              		.loc 1 1235 5 is_stmt 1 view .LVU1674
 7133              		.loc 1 1235 27 is_stmt 0 view .LVU1675
 7134 0006 FFF7FEFF 		bl	lv_event_get_target
 7135              	.LVL724:
 7136              		.loc 1 1235 27 view .LVU1676
 7137 000a 0446     		mov	r4, r0
 7138              	.LVL725:
1236:Drivers/lvgl/src/themes/default/lv_theme_default.c ****     my_theme_t * theme = lv_event_get_user_data(e);
 7139              		.loc 1 1236 5 is_stmt 1 view .LVU1677
 7140              		.loc 1 1236 26 is_stmt 0 view .LVU1678
 7141 000c 2846     		mov	r0, r5
 7142              	.LVL726:
 7143              		.loc 1 1236 26 view .LVU1679
 7144 000e FFF7FEFF 		bl	lv_event_get_user_data
 7145              	.LVL727:
1237:Drivers/lvgl/src/themes/default/lv_theme_default.c **** 
1238:Drivers/lvgl/src/themes/default/lv_theme_default.c ****     lv_theme_default_init(disp, theme->base.color_primary, theme->base.color_secondary, theme->base
 7146              		.loc 1 1238 5 is_stmt 1 view .LVU1680
 7147              		.loc 1 1238 100 is_stmt 0 view .LVU1681
 7148 0012 436A     		ldr	r3, [r0, #36]
 7149              		.loc 1 1238 5 view .LVU1682
 7150 0014 C269     		ldr	r2, [r0, #28]
 7151 0016 0092     		str	r2, [sp]
 7152 0018 C27C     		ldrb	r2, [r0, #19]	@ zero_extendqisi2
 7153 001a 017D     		ldrb	r1, [r0, #20]	@ zero_extendqisi2
 7154 001c 42EA0122 		orr	r2, r2, r1, lsl #8
 7155 0020 417D     		ldrb	r1, [r0, #21]	@ zero_extendqisi2
 7156 0022 003B     		subs	r3, r3, #0
 7157 0024 18BF     		it	ne
 7158 0026 0123     		movne	r3, #1
 7159 0028 42EA0142 		orr	r2, r2, r1, lsl #16
 7160 002c 0169     		ldr	r1, [r0, #16]
 7161 002e 2046     		mov	r0, r4
 7162              	.LVL728:
 7163              		.loc 1 1238 5 view .LVU1683
 7164 0030 FFF7FEFF 		bl	lv_theme_default_init
 7165              	.LVL729:
1239:Drivers/lvgl/src/themes/default/lv_theme_default.c ****                           theme->base.font_normal);
1240:Drivers/lvgl/src/themes/default/lv_theme_default.c **** 
1241:Drivers/lvgl/src/themes/default/lv_theme_default.c **** }
 7166              		.loc 1 1241 1 view .LVU1684
 7167 0034 03B0     		add	sp, sp, #12
 7168              	.LCFI16:
 7169              		.cfi_def_cfa_offset 12
 7170              		@ sp needed
 7171 0036 30BD     		pop	{r4, r5, pc}
 7172              		.loc 1 1241 1 view .LVU1685
 7173              		.cfi_endproc
 7174              	.LFE209:
 7176              		.section	.text.lv_theme_default_get,"ax",%progbits
 7177              		.align	1
 7178              		.global	lv_theme_default_get
 7179              		.syntax unified
 7180              		.thumb
 7181              		.thumb_func
ARM GAS  /var/folders/qx/2_175_4n2s19vhvtspjhb3qh0000gn/T//ccFV8cem.s 			page 187


 7183              	lv_theme_default_get:
 7184              	.LFB205:
 699:Drivers/lvgl/src/themes/default/lv_theme_default.c ****     if(!lv_theme_default_is_inited()) {
 7185              		.loc 1 699 1 is_stmt 1 view -0
 7186              		.cfi_startproc
 7187              		@ args = 0, pretend = 0, frame = 0
 7188              		@ frame_needed = 0, uses_anonymous_args = 0
 7189 0000 08B5     		push	{r3, lr}
 7190              	.LCFI17:
 7191              		.cfi_def_cfa_offset 8
 7192              		.cfi_offset 3, -8
 7193              		.cfi_offset 14, -4
 700:Drivers/lvgl/src/themes/default/lv_theme_default.c ****         return NULL;
 7194              		.loc 1 700 5 view .LVU1687
 700:Drivers/lvgl/src/themes/default/lv_theme_default.c ****         return NULL;
 7195              		.loc 1 700 9 is_stmt 0 view .LVU1688
 7196 0002 FFF7FEFF 		bl	lv_theme_default_is_inited
 7197              	.LVL730:
 700:Drivers/lvgl/src/themes/default/lv_theme_default.c ****         return NULL;
 7198              		.loc 1 700 7 discriminator 1 view .LVU1689
 7199 0006 18B1     		cbz	r0, .L497
 704:Drivers/lvgl/src/themes/default/lv_theme_default.c **** }
 7200              		.loc 1 704 5 is_stmt 1 view .LVU1690
 704:Drivers/lvgl/src/themes/default/lv_theme_default.c **** }
 7201              		.loc 1 704 12 is_stmt 0 view .LVU1691
 7202 0008 024B     		ldr	r3, .L499
 7203 000a D3F8CC01 		ldr	r0, [r3, #460]
 7204              	.L495:
 705:Drivers/lvgl/src/themes/default/lv_theme_default.c **** 
 7205              		.loc 1 705 1 view .LVU1692
 7206 000e 08BD     		pop	{r3, pc}
 7207              	.L497:
 701:Drivers/lvgl/src/themes/default/lv_theme_default.c ****     }
 7208              		.loc 1 701 16 view .LVU1693
 7209 0010 0020     		movs	r0, #0
 7210 0012 FCE7     		b	.L495
 7211              	.L500:
 7212              		.align	2
 7213              	.L499:
 7214 0014 00000000 		.word	lv_global
 7215              		.cfi_endproc
 7216              	.LFE205:
 7218              		.section	.text.lv_theme_default_deinit,"ax",%progbits
 7219              		.align	1
 7220              		.global	lv_theme_default_deinit
 7221              		.syntax unified
 7222              		.thumb
 7223              		.thumb_func
 7225              	lv_theme_default_deinit:
 7226              	.LFB206:
 708:Drivers/lvgl/src/themes/default/lv_theme_default.c ****     my_theme_t * theme = theme_def;
 7227              		.loc 1 708 1 is_stmt 1 view -0
 7228              		.cfi_startproc
 7229              		@ args = 0, pretend = 0, frame = 0
 7230              		@ frame_needed = 0, uses_anonymous_args = 0
 7231 0000 38B5     		push	{r3, r4, r5, lr}
 7232              	.LCFI18:
ARM GAS  /var/folders/qx/2_175_4n2s19vhvtspjhb3qh0000gn/T//ccFV8cem.s 			page 188


 7233              		.cfi_def_cfa_offset 16
 7234              		.cfi_offset 3, -16
 7235              		.cfi_offset 4, -12
 7236              		.cfi_offset 5, -8
 7237              		.cfi_offset 14, -4
 709:Drivers/lvgl/src/themes/default/lv_theme_default.c ****     if(theme) {
 7238              		.loc 1 709 5 view .LVU1695
 709:Drivers/lvgl/src/themes/default/lv_theme_default.c ****     if(theme) {
 7239              		.loc 1 709 18 is_stmt 0 view .LVU1696
 7240 0002 0E4B     		ldr	r3, .L507
 7241 0004 D3F8CC51 		ldr	r5, [r3, #460]
 7242              	.LVL731:
 710:Drivers/lvgl/src/themes/default/lv_theme_default.c ****         if(theme->inited) {
 7243              		.loc 1 710 5 is_stmt 1 view .LVU1697
 710:Drivers/lvgl/src/themes/default/lv_theme_default.c ****         if(theme->inited) {
 7244              		.loc 1 710 7 is_stmt 0 view .LVU1698
 7245 0008 B5B1     		cbz	r5, .L501
 711:Drivers/lvgl/src/themes/default/lv_theme_default.c ****             lv_style_t * theme_styles = (lv_style_t *)(&(theme->styles));
 7246              		.loc 1 711 9 is_stmt 1 view .LVU1699
 711:Drivers/lvgl/src/themes/default/lv_theme_default.c ****             lv_style_t * theme_styles = (lv_style_t *)(&(theme->styles));
 7247              		.loc 1 711 17 is_stmt 0 view .LVU1700
 7248 000a 95F83C30 		ldrb	r3, [r5, #60]	@ zero_extendqisi2
 711:Drivers/lvgl/src/themes/default/lv_theme_default.c ****             lv_style_t * theme_styles = (lv_style_t *)(&(theme->styles));
 7249              		.loc 1 711 11 view .LVU1701
 7250 000e 5BB1     		cbz	r3, .L503
 7251              	.LBB11:
 712:Drivers/lvgl/src/themes/default/lv_theme_default.c ****             uint32_t i;
 7252              		.loc 1 712 13 is_stmt 1 view .LVU1702
 712:Drivers/lvgl/src/themes/default/lv_theme_default.c ****             uint32_t i;
 7253              		.loc 1 712 26 is_stmt 0 view .LVU1703
 7254 0010 4035     		adds	r5, r5, #64
 7255              	.LVL732:
 713:Drivers/lvgl/src/themes/default/lv_theme_default.c ****             for(i = 0; i < sizeof(my_theme_styles_t) / sizeof(lv_style_t); i++) {
 7256              		.loc 1 713 13 is_stmt 1 view .LVU1704
 714:Drivers/lvgl/src/themes/default/lv_theme_default.c ****                 lv_style_reset(theme_styles + i);
 7257              		.loc 1 714 13 view .LVU1705
 714:Drivers/lvgl/src/themes/default/lv_theme_default.c ****                 lv_style_reset(theme_styles + i);
 7258              		.loc 1 714 19 is_stmt 0 view .LVU1706
 7259 0012 0024     		movs	r4, #0
 714:Drivers/lvgl/src/themes/default/lv_theme_default.c ****                 lv_style_reset(theme_styles + i);
 7260              		.loc 1 714 13 view .LVU1707
 7261 0014 06E0     		b	.L504
 7262              	.LVL733:
 7263              	.L505:
 715:Drivers/lvgl/src/themes/default/lv_theme_default.c ****             }
 7264              		.loc 1 715 17 is_stmt 1 view .LVU1708
 715:Drivers/lvgl/src/themes/default/lv_theme_default.c ****             }
 7265              		.loc 1 715 45 is_stmt 0 view .LVU1709
 7266 0016 04EB4403 		add	r3, r4, r4, lsl #1
 7267 001a 9800     		lsls	r0, r3, #2
 715:Drivers/lvgl/src/themes/default/lv_theme_default.c ****             }
 7268              		.loc 1 715 17 view .LVU1710
 7269 001c 2844     		add	r0, r0, r5
 7270 001e FFF7FEFF 		bl	lv_style_reset
 7271              	.LVL734:
 714:Drivers/lvgl/src/themes/default/lv_theme_default.c ****                 lv_style_reset(theme_styles + i);
 7272              		.loc 1 714 77 is_stmt 1 discriminator 3 view .LVU1711
ARM GAS  /var/folders/qx/2_175_4n2s19vhvtspjhb3qh0000gn/T//ccFV8cem.s 			page 189


 7273 0022 0134     		adds	r4, r4, #1
 7274              	.LVL735:
 7275              	.L504:
 714:Drivers/lvgl/src/themes/default/lv_theme_default.c ****                 lv_style_reset(theme_styles + i);
 7276              		.loc 1 714 26 discriminator 1 view .LVU1712
 7277 0024 422C     		cmp	r4, #66
 7278 0026 F6D9     		bls	.L505
 7279              	.LVL736:
 7280              	.L503:
 714:Drivers/lvgl/src/themes/default/lv_theme_default.c ****                 lv_style_reset(theme_styles + i);
 7281              		.loc 1 714 26 is_stmt 0 discriminator 1 view .LVU1713
 7282              	.LBE11:
 724:Drivers/lvgl/src/themes/default/lv_theme_default.c ****         theme_def = NULL;
 7283              		.loc 1 724 9 is_stmt 1 view .LVU1714
 7284 0028 044C     		ldr	r4, .L507
 7285 002a D4F8CC01 		ldr	r0, [r4, #460]
 7286 002e FFF7FEFF 		bl	lv_free
 7287              	.LVL737:
 725:Drivers/lvgl/src/themes/default/lv_theme_default.c ****     }
 7288              		.loc 1 725 9 view .LVU1715
 725:Drivers/lvgl/src/themes/default/lv_theme_default.c ****     }
 7289              		.loc 1 725 19 is_stmt 0 view .LVU1716
 7290 0032 0023     		movs	r3, #0
 7291 0034 C4F8CC31 		str	r3, [r4, #460]
 7292              	.L501:
 727:Drivers/lvgl/src/themes/default/lv_theme_default.c **** 
 7293              		.loc 1 727 1 view .LVU1717
 7294 0038 38BD     		pop	{r3, r4, r5, pc}
 7295              	.L508:
 7296 003a 00BF     		.align	2
 7297              	.L507:
 7298 003c 00000000 		.word	lv_global
 7299              		.cfi_endproc
 7300              	.LFE206:
 7302              		.section	.rodata.trans_props.0,"a"
 7303              		.align	2
 7306              	trans_props.0:
 7307 0000 1D1C6A6B 		.ascii	"\035\034jkmlpnoyx\000"
 7307      6D6C706E 
 7307      6F797800 
 7308              		.text
 7309              	.Letext0:
 7310              		.file 3 "/Applications/ArmGNUToolchain/14.3.rel1/arm-none-eabi/arm-none-eabi/include/machine/_defa
 7311              		.file 4 "/Applications/ArmGNUToolchain/14.3.rel1/arm-none-eabi/arm-none-eabi/include/sys/_stdint.h
 7312              		.file 5 "/Applications/ArmGNUToolchain/14.3.rel1/arm-none-eabi/lib/gcc/arm-none-eabi/14.3.1/includ
 7313              		.file 6 "Drivers/lvgl/src/themes/default/../../../src/misc/lv_types.h"
 7314              		.file 7 "Drivers/lvgl/src/themes/default/../../../src/core/../draw/lv_draw.h"
 7315              		.file 8 "Drivers/lvgl/src/themes/default/../../core/../draw/lv_draw_private.h"
 7316              		.file 9 "Drivers/lvgl/src/themes/default/../../core/../misc/lv_timer_private.h"
 7317              		.file 10 "Drivers/lvgl/src/themes/default/../lv_theme_private.h"
 7318              		.file 11 "Drivers/lvgl/src/themes/default/../../../src/misc/lv_anim.h"
 7319              		.file 12 "Drivers/lvgl/src/themes/default/../../../src/core/../misc/../font/lv_font.h"
 7320              		.file 13 "Drivers/lvgl/src/themes/default/../../core/../draw/../misc/cache/class/../lv_cache_priva
 7321              		.file 14 "Drivers/lvgl/src/themes/default/../../core/../draw/lv_draw_buf_private.h"
 7322              		.file 15 "Drivers/lvgl/src/themes/default/../../../src/misc/../draw/lv_draw_buf.h"
 7323              		.file 16 "Drivers/lvgl/src/themes/default/../../../src/misc/../tick/lv_tick.h"
 7324              		.file 17 "Drivers/lvgl/src/themes/default/../../../src/misc/lv_ll.h"
ARM GAS  /var/folders/qx/2_175_4n2s19vhvtspjhb3qh0000gn/T//ccFV8cem.s 			page 190


 7325              		.file 18 "Drivers/lvgl/src/themes/default/../../../src/misc/lv_timer.h"
 7326              		.file 19 "Drivers/lvgl/src/themes/default/../../../src/misc/../draw/../misc/lv_area.h"
 7327              		.file 20 "Drivers/lvgl/src/themes/default/../../../src/misc/../draw/../misc/lv_color.h"
 7328              		.file 21 "Drivers/lvgl/src/themes/default/../../../src/misc/../draw/../misc/lv_palette.h"
 7329              		.file 22 "Drivers/lvgl/src/themes/default/../../../src/misc/../draw/lv_image_dsc.h"
 7330              		.file 23 "Drivers/lvgl/src/themes/default/../../../src/core/../misc/lv_text.h"
 7331              		.file 24 "Drivers/lvgl/src/themes/default/../../../src/core/../misc/../layouts/lv_layout.h"
 7332              		.file 25 "Drivers/lvgl/src/themes/default/../../../src/core/../display/../misc/lv_event.h"
 7333              		.file 26 "Drivers/lvgl/src/themes/default/../../../src/core/lv_obj_style.h"
 7334              		.file 27 "Drivers/lvgl/src/themes/default/../../../src/core/lv_obj.h"
 7335              		.file 28 "Drivers/lvgl/src/themes/default/../../../src/widgets/arc/lv_arc.h"
 7336              		.file 29 "Drivers/lvgl/src/themes/default/../../../src/widgets/bar/../label/lv_label.h"
 7337              		.file 30 "Drivers/lvgl/src/themes/default/../../../src/widgets/bar/lv_bar.h"
 7338              		.file 31 "Drivers/lvgl/src/themes/default/../../../src/widgets/button/lv_button.h"
 7339              		.file 32 "Drivers/lvgl/src/themes/default/../../../src/widgets/buttonmatrix/lv_buttonmatrix.h"
 7340              		.file 33 "Drivers/lvgl/src/themes/default/../../../src/widgets/calendar/lv_calendar.h"
 7341              		.file 34 "Drivers/lvgl/src/themes/default/../../../src/widgets/calendar/lv_calendar_header_arrow.h
 7342              		.file 35 "Drivers/lvgl/src/themes/default/../../../src/widgets/calendar/lv_calendar_header_dropdow
 7343              		.file 36 "Drivers/lvgl/src/themes/default/../../../src/widgets/chart/lv_chart.h"
 7344              		.file 37 "Drivers/lvgl/src/themes/default/../../../src/widgets/checkbox/lv_checkbox.h"
 7345              		.file 38 "Drivers/lvgl/src/themes/default/../../../src/widgets/dropdown/lv_dropdown.h"
 7346              		.file 39 "Drivers/lvgl/src/themes/default/../../../src/widgets/keyboard/lv_keyboard.h"
 7347              		.file 40 "Drivers/lvgl/src/themes/default/../../../src/widgets/led/lv_led.h"
 7348              		.file 41 "Drivers/lvgl/src/themes/default/../../../src/widgets/line/lv_line.h"
 7349              		.file 42 "Drivers/lvgl/src/themes/default/../../../src/widgets/list/lv_list.h"
 7350              		.file 43 "Drivers/lvgl/src/themes/default/../../../src/widgets/menu/lv_menu.h"
 7351              		.file 44 "Drivers/lvgl/src/themes/default/../../../src/widgets/msgbox/lv_msgbox.h"
 7352              		.file 45 "Drivers/lvgl/src/themes/default/../../../src/widgets/roller/lv_roller.h"
 7353              		.file 46 "Drivers/lvgl/src/themes/default/../../../src/widgets/scale/lv_scale.h"
 7354              		.file 47 "Drivers/lvgl/src/themes/default/../../../src/widgets/slider/lv_slider.h"
 7355              		.file 48 "Drivers/lvgl/src/themes/default/../../../src/widgets/spinbox/../textarea/lv_textarea.h"
 7356              		.file 49 "Drivers/lvgl/src/themes/default/../../../src/widgets/spinbox/lv_spinbox.h"
 7357              		.file 50 "Drivers/lvgl/src/themes/default/../../../src/widgets/spinner/lv_spinner.h"
 7358              		.file 51 "Drivers/lvgl/src/themes/default/../../../src/widgets/switch/lv_switch.h"
 7359              		.file 52 "Drivers/lvgl/src/themes/default/../../../src/widgets/table/lv_table.h"
 7360              		.file 53 "Drivers/lvgl/src/themes/default/../../../src/widgets/tabview/lv_tabview.h"
 7361              		.file 54 "Drivers/lvgl/src/themes/default/../../../src/widgets/tileview/lv_tileview.h"
 7362              		.file 55 "Drivers/lvgl/src/themes/default/../../../src/widgets/win/lv_win.h"
 7363              		.file 56 "Drivers/lvgl/src/themes/default/../../../src/themes/lv_theme.h"
 7364              		.file 57 "Drivers/lvgl/src/themes/default/../../core/../osal/lv_os_none.h"
 7365              		.file 58 "Drivers/lvgl/src/themes/default/../../core/../stdlib/builtin/lv_tlsf.h"
 7366              		.file 59 "Drivers/lvgl/src/themes/default/../../core/../misc/lv_anim_private.h"
 7367              		.file 60 "Drivers/lvgl/src/themes/default/../../core/../tick/lv_tick_private.h"
 7368              		.file 61 "Drivers/lvgl/src/themes/default/../../core/../draw/sw/lv_draw_sw_mask_private.h"
 7369              		.file 62 "Drivers/lvgl/src/themes/default/../../core/../stdlib/builtin/lv_tlsf_private.h"
 7370              		.file 63 "Drivers/lvgl/src/themes/default/../../core/../layouts/lv_layout_private.h"
 7371              		.file 64 "Drivers/lvgl/src/themes/default/../../core/lv_global.h"
 7372              		.file 65 "Drivers/lvgl/src/themes/default/../../../src/stdlib/lv_mem.h"
 7373              		.file 66 "Drivers/lvgl/src/themes/default/../../../src/core/../misc/lv_style_gen.h"
 7374              		.file 67 "Drivers/lvgl/src/themes/default/../../../src/core/lv_obj_tree.h"
 7375              		.file 68 "Drivers/lvgl/src/themes/default/../../../src/core/../display/lv_display.h"
ARM GAS  /var/folders/qx/2_175_4n2s19vhvtspjhb3qh0000gn/T//ccFV8cem.s 			page 191


DEFINED SYMBOLS
                            *ABS*:00000000 lv_theme_default.c
/var/folders/qx/2_175_4n2s19vhvtspjhb3qh0000gn/T//ccFV8cem.s:21     .text.theme_apply:00000000 $t
/var/folders/qx/2_175_4n2s19vhvtspjhb3qh0000gn/T//ccFV8cem.s:26     .text.theme_apply:00000000 theme_apply
/var/folders/qx/2_175_4n2s19vhvtspjhb3qh0000gn/T//ccFV8cem.s:560    .text.theme_apply:00000348 $d
/var/folders/qx/2_175_4n2s19vhvtspjhb3qh0000gn/T//ccFV8cem.s:579    .text.theme_apply:00000388 $t
/var/folders/qx/2_175_4n2s19vhvtspjhb3qh0000gn/T//ccFV8cem.s:1089   .text.theme_apply:00000734 $d
/var/folders/qx/2_175_4n2s19vhvtspjhb3qh0000gn/T//ccFV8cem.s:1107   .text.theme_apply:0000076c $t
/var/folders/qx/2_175_4n2s19vhvtspjhb3qh0000gn/T//ccFV8cem.s:1571   .text.theme_apply:00000ac0 $d
/var/folders/qx/2_175_4n2s19vhvtspjhb3qh0000gn/T//ccFV8cem.s:1593   .text.theme_apply:00000b0c $t
/var/folders/qx/2_175_4n2s19vhvtspjhb3qh0000gn/T//ccFV8cem.s:2048   .text.theme_apply:00000e14 $d
/var/folders/qx/2_175_4n2s19vhvtspjhb3qh0000gn/T//ccFV8cem.s:2071   .text.theme_apply:00000e64 $t
/var/folders/qx/2_175_4n2s19vhvtspjhb3qh0000gn/T//ccFV8cem.s:2315   .text.theme_apply:00001018 $d
/var/folders/qx/2_175_4n2s19vhvtspjhb3qh0000gn/T//ccFV8cem.s:2329   .text.lv_style_set_pad_gap:00000000 $t
/var/folders/qx/2_175_4n2s19vhvtspjhb3qh0000gn/T//ccFV8cem.s:2334   .text.lv_style_set_pad_gap:00000000 lv_style_set_pad_gap
/var/folders/qx/2_175_4n2s19vhvtspjhb3qh0000gn/T//ccFV8cem.s:2367   .text.lv_style_set_pad_ver:00000000 $t
/var/folders/qx/2_175_4n2s19vhvtspjhb3qh0000gn/T//ccFV8cem.s:2372   .text.lv_style_set_pad_ver:00000000 lv_style_set_pad_ver
/var/folders/qx/2_175_4n2s19vhvtspjhb3qh0000gn/T//ccFV8cem.s:2404   .text.lv_style_set_pad_hor:00000000 $t
/var/folders/qx/2_175_4n2s19vhvtspjhb3qh0000gn/T//ccFV8cem.s:2409   .text.lv_style_set_pad_hor:00000000 lv_style_set_pad_hor
/var/folders/qx/2_175_4n2s19vhvtspjhb3qh0000gn/T//ccFV8cem.s:2441   .text.lv_style_set_pad_all:00000000 $t
/var/folders/qx/2_175_4n2s19vhvtspjhb3qh0000gn/T//ccFV8cem.s:2446   .text.lv_style_set_pad_all:00000000 lv_style_set_pad_all
/var/folders/qx/2_175_4n2s19vhvtspjhb3qh0000gn/T//ccFV8cem.s:2488   .text.lv_theme_default_is_inited:00000000 $t
/var/folders/qx/2_175_4n2s19vhvtspjhb3qh0000gn/T//ccFV8cem.s:2494   .text.lv_theme_default_is_inited:00000000 lv_theme_default_is_inited
/var/folders/qx/2_175_4n2s19vhvtspjhb3qh0000gn/T//ccFV8cem.s:2521   .text.lv_theme_default_is_inited:00000014 $d
/var/folders/qx/2_175_4n2s19vhvtspjhb3qh0000gn/T//ccFV8cem.s:2526   .text.style_init_reset:00000000 $t
/var/folders/qx/2_175_4n2s19vhvtspjhb3qh0000gn/T//ccFV8cem.s:2531   .text.style_init_reset:00000000 style_init_reset
/var/folders/qx/2_175_4n2s19vhvtspjhb3qh0000gn/T//ccFV8cem.s:2570   .rodata.style_init.str1.4:00000000 $d
/var/folders/qx/2_175_4n2s19vhvtspjhb3qh0000gn/T//ccFV8cem.s:2574   .text.style_init:00000000 $t
/var/folders/qx/2_175_4n2s19vhvtspjhb3qh0000gn/T//ccFV8cem.s:2579   .text.style_init:00000000 style_init
/var/folders/qx/2_175_4n2s19vhvtspjhb3qh0000gn/T//ccFV8cem.s:3075   .text.style_init:00000380 $d
/var/folders/qx/2_175_4n2s19vhvtspjhb3qh0000gn/T//ccFV8cem.s:7306   .rodata.trans_props.0:00000000 trans_props.0
/var/folders/qx/2_175_4n2s19vhvtspjhb3qh0000gn/T//ccFV8cem.s:3084   .text.style_init:00000398 $t
/var/folders/qx/2_175_4n2s19vhvtspjhb3qh0000gn/T//ccFV8cem.s:3597   .text.style_init:00000740 $d
/var/folders/qx/2_175_4n2s19vhvtspjhb3qh0000gn/T//ccFV8cem.s:3602   .text.style_init:00000748 $t
/var/folders/qx/2_175_4n2s19vhvtspjhb3qh0000gn/T//ccFV8cem.s:4074   .text.style_init:00000ac0 $d
/var/folders/qx/2_175_4n2s19vhvtspjhb3qh0000gn/T//ccFV8cem.s:4078   .text.style_init:00000ac4 $t
/var/folders/qx/2_175_4n2s19vhvtspjhb3qh0000gn/T//ccFV8cem.s:4650   .text.style_init:00000ebc $d
/var/folders/qx/2_175_4n2s19vhvtspjhb3qh0000gn/T//ccFV8cem.s:4653   .text.style_init:00000ec4 $t
/var/folders/qx/2_175_4n2s19vhvtspjhb3qh0000gn/T//ccFV8cem.s:5167   .text.style_init:00001274 $d
/var/folders/qx/2_175_4n2s19vhvtspjhb3qh0000gn/T//ccFV8cem.s:5171   .text.style_init:00001278 $t
/var/folders/qx/2_175_4n2s19vhvtspjhb3qh0000gn/T//ccFV8cem.s:5684   .text.style_init:00001608 $d
/var/folders/qx/2_175_4n2s19vhvtspjhb3qh0000gn/T//ccFV8cem.s:5688   .text.style_init:0000160c $t
/var/folders/qx/2_175_4n2s19vhvtspjhb3qh0000gn/T//ccFV8cem.s:6239   .text.style_init:000019e4 $d
/var/folders/qx/2_175_4n2s19vhvtspjhb3qh0000gn/T//ccFV8cem.s:6242   .text.style_init:000019e8 $t
/var/folders/qx/2_175_4n2s19vhvtspjhb3qh0000gn/T//ccFV8cem.s:6805   .text.style_init:00001d40 $d
/var/folders/qx/2_175_4n2s19vhvtspjhb3qh0000gn/T//ccFV8cem.s:6810   .text.lv_theme_default_init:00000000 $t
/var/folders/qx/2_175_4n2s19vhvtspjhb3qh0000gn/T//ccFV8cem.s:6816   .text.lv_theme_default_init:00000000 lv_theme_default_init
/var/folders/qx/2_175_4n2s19vhvtspjhb3qh0000gn/T//ccFV8cem.s:7102   .text.lv_theme_default_init:00000134 $d
/var/folders/qx/2_175_4n2s19vhvtspjhb3qh0000gn/T//ccFV8cem.s:7114   .text.resolution_change_event_cb:00000000 resolution_change_event_cb
/var/folders/qx/2_175_4n2s19vhvtspjhb3qh0000gn/T//ccFV8cem.s:7109   .text.resolution_change_event_cb:00000000 $t
/var/folders/qx/2_175_4n2s19vhvtspjhb3qh0000gn/T//ccFV8cem.s:7177   .text.lv_theme_default_get:00000000 $t
/var/folders/qx/2_175_4n2s19vhvtspjhb3qh0000gn/T//ccFV8cem.s:7183   .text.lv_theme_default_get:00000000 lv_theme_default_get
/var/folders/qx/2_175_4n2s19vhvtspjhb3qh0000gn/T//ccFV8cem.s:7214   .text.lv_theme_default_get:00000014 $d
/var/folders/qx/2_175_4n2s19vhvtspjhb3qh0000gn/T//ccFV8cem.s:7219   .text.lv_theme_default_deinit:00000000 $t
/var/folders/qx/2_175_4n2s19vhvtspjhb3qh0000gn/T//ccFV8cem.s:7225   .text.lv_theme_default_deinit:00000000 lv_theme_default_deinit
/var/folders/qx/2_175_4n2s19vhvtspjhb3qh0000gn/T//ccFV8cem.s:7298   .text.lv_theme_default_deinit:0000003c $d
/var/folders/qx/2_175_4n2s19vhvtspjhb3qh0000gn/T//ccFV8cem.s:7303   .rodata.trans_props.0:00000000 $d
ARM GAS  /var/folders/qx/2_175_4n2s19vhvtspjhb3qh0000gn/T//ccFV8cem.s 			page 192



UNDEFINED SYMBOLS
lv_obj_get_parent
lv_obj_check_type
lv_obj_get_child
lv_obj_add_style
lv_global
lv_obj_class
lv_tabview_class
lv_win_class
lv_calendar_class
lv_button_class
lv_menu_sidebar_header_cont_class
lv_menu_main_header_cont_class
lv_line_class
lv_buttonmatrix_class
lv_bar_class
lv_slider_class
lv_table_class
lv_checkbox_class
lv_switch_class
lv_chart_class
lv_roller_class
lv_dropdown_class
lv_dropdownlist_class
lv_arc_class
lv_spinner_class
lv_textarea_class
lv_calendar_header_arrow_class
lv_calendar_header_dropdown_class
lv_keyboard_class
lv_label_class
lv_list_class
lv_list_text_class
lv_list_button_class
lv_menu_class
lv_menu_sidebar_cont_class
lv_menu_main_cont_class
lv_menu_cont_class
lv_menu_page_class
lv_menu_section_class
lv_menu_separator_class
lv_msgbox_class
lv_msgbox_backdrop_class
lv_msgbox_header_class
lv_msgbox_footer_class
lv_msgbox_content_class
lv_msgbox_header_button_class
lv_msgbox_footer_button_class
lv_spinbox_class
lv_tileview_class
lv_tileview_tile_class
lv_led_class
lv_scale_class
lv_style_set_pad_row
lv_style_set_pad_column
lv_style_set_pad_top
ARM GAS  /var/folders/qx/2_175_4n2s19vhvtspjhb3qh0000gn/T//ccFV8cem.s 			page 193


lv_style_set_pad_bottom
lv_style_set_pad_left
lv_style_set_pad_right
lv_style_reset
lv_style_init
lv_color_hex
lv_palette_lighten
lv_style_transition_dsc_init
lv_style_set_transition
lv_palette_darken
lv_style_set_bg_color
lv_style_set_radius
lv_style_set_width
lv_style_set_bg_opa
lv_style_set_text_color
lv_style_set_text_font
lv_style_set_rotary_sensitivity
lv_style_set_border_color
lv_style_set_border_width
lv_style_set_border_post
lv_anim_path_linear
lv_palette_main
lv_style_set_line_color
lv_style_set_line_width
lv_style_set_outline_color
lv_style_set_outline_width
lv_style_set_outline_pad
lv_style_set_outline_opa
lv_color_black
lv_style_set_recolor
lv_style_set_recolor_opa
lv_style_set_clip_corner
lv_style_set_text_line_space
lv_style_set_text_align
lv_color_white
lv_style_set_transform_width
lv_style_set_transform_height
lv_style_set_anim_duration
lv_style_set_arc_color
lv_style_set_arc_width
lv_style_set_arc_rounded
lv_style_set_max_height
lv_style_set_bg_image_src
lv_style_set_height
lv_style_set_border_side
lv_style_set_border_opa
lv_style_set_shadow_opa
lv_style_set_shadow_width
lv_style_set_bg_grad_color
lv_style_set_shadow_color
lv_style_set_shadow_spread
lv_display_get_dpi
lv_style_set_length
lv_style_set_shadow_offset_y
lv_display_get_horizontal_resolution
lv_display_get_vertical_resolution
lv_malloc_zeroed
ARM GAS  /var/folders/qx/2_175_4n2s19vhvtspjhb3qh0000gn/T//ccFV8cem.s 			page 194


lv_display_get_default
lv_display_get_theme
lv_obj_report_style_change
lv_display_remove_event_cb_with_user_data
lv_display_add_event_cb
lv_color_eq
lv_event_get_target
lv_event_get_user_data
lv_free
