ARM GAS  /var/folders/qx/2_175_4n2s19vhvtspjhb3qh0000gn/T//ccFV8cem.s 			page 1


   1              		.cpu cortex-m4
   2              		.arch armv7e-m
   3              		.fpu fpv4-sp-d16
   4              		.eabi_attribute 27, 1
   5              		.eabi_attribute 28, 1
   6              		.eabi_attribute 20, 1
   7              		.eabi_attribute 21, 1
   8              		.eabi_attribute 23, 3
   9              		.eabi_attribute 24, 1
  10              		.eabi_attribute 25, 1
  11              		.eabi_attribute 26, 1
  12              		.eabi_attribute 30, 1
  13              		.eabi_attribute 34, 1
  14              		.eabi_attribute 18, 4
  15              		.file	"lv_theme_default.c"
  16              		.text
  17              	.Ltext0:
  18              		.cfi_sections	.debug_frame
  19              		.file 1 "Drivers/lvgl/src/themes/default/lv_theme_default.c"
  20              		.section	.text.theme_apply,"ax",%progbits
  21              		.align	1
  22              		.syntax unified
  23              		.thumb
  24              		.thumb_func
  26              	theme_apply:
  27              	.LVL0:
  28              	.LFB207:
   1:Drivers/lvgl/src/themes/default/lv_theme_default.c **** /**
   2:Drivers/lvgl/src/themes/default/lv_theme_default.c ****  * @file lv_theme_default.c
   3:Drivers/lvgl/src/themes/default/lv_theme_default.c ****  *
   4:Drivers/lvgl/src/themes/default/lv_theme_default.c ****  */
   5:Drivers/lvgl/src/themes/default/lv_theme_default.c **** 
   6:Drivers/lvgl/src/themes/default/lv_theme_default.c **** /*********************
   7:Drivers/lvgl/src/themes/default/lv_theme_default.c ****  *      INCLUDES
   8:Drivers/lvgl/src/themes/default/lv_theme_default.c ****  *********************/
   9:Drivers/lvgl/src/themes/default/lv_theme_default.c **** #include "../../../lvgl.h" /*To see all the widgets*/
  10:Drivers/lvgl/src/themes/default/lv_theme_default.c **** 
  11:Drivers/lvgl/src/themes/default/lv_theme_default.c **** #if LV_USE_THEME_DEFAULT
  12:Drivers/lvgl/src/themes/default/lv_theme_default.c **** 
  13:Drivers/lvgl/src/themes/default/lv_theme_default.c **** #include "../lv_theme_private.h"
  14:Drivers/lvgl/src/themes/default/lv_theme_default.c **** #include "../../misc/lv_color.h"
  15:Drivers/lvgl/src/themes/default/lv_theme_default.c **** #include "../../core/lv_global.h"
  16:Drivers/lvgl/src/themes/default/lv_theme_default.c **** 
  17:Drivers/lvgl/src/themes/default/lv_theme_default.c **** /*********************
  18:Drivers/lvgl/src/themes/default/lv_theme_default.c ****  *      DEFINES
  19:Drivers/lvgl/src/themes/default/lv_theme_default.c ****  *********************/
  20:Drivers/lvgl/src/themes/default/lv_theme_default.c **** 
  21:Drivers/lvgl/src/themes/default/lv_theme_default.c **** struct _my_theme_t;
  22:Drivers/lvgl/src/themes/default/lv_theme_default.c **** typedef struct _my_theme_t my_theme_t;
  23:Drivers/lvgl/src/themes/default/lv_theme_default.c **** 
  24:Drivers/lvgl/src/themes/default/lv_theme_default.c **** #define theme_def (*(my_theme_t **)(&LV_GLOBAL_DEFAULT()->theme_default))
  25:Drivers/lvgl/src/themes/default/lv_theme_default.c **** 
  26:Drivers/lvgl/src/themes/default/lv_theme_default.c **** #define MODE_DARK 1
  27:Drivers/lvgl/src/themes/default/lv_theme_default.c **** #define RADIUS_DEFAULT LV_DPX_CALC(theme->disp_dpi, theme->disp_size == DISP_LARGE ? 12 : 8)
  28:Drivers/lvgl/src/themes/default/lv_theme_default.c **** 
  29:Drivers/lvgl/src/themes/default/lv_theme_default.c **** /*SCREEN*/
  30:Drivers/lvgl/src/themes/default/lv_theme_default.c **** #define LIGHT_COLOR_SCR        lv_palette_lighten(LV_PALETTE_GREY, 4)
ARM GAS  /var/folders/qx/2_175_4n2s19vhvtspjhb3qh0000gn/T//ccFV8cem.s 			page 2


  31:Drivers/lvgl/src/themes/default/lv_theme_default.c **** #define LIGHT_COLOR_CARD       lv_color_white()
  32:Drivers/lvgl/src/themes/default/lv_theme_default.c **** #define LIGHT_COLOR_TEXT       lv_palette_darken(LV_PALETTE_GREY, 4)
  33:Drivers/lvgl/src/themes/default/lv_theme_default.c **** #define LIGHT_COLOR_GREY       lv_palette_lighten(LV_PALETTE_GREY, 2)
  34:Drivers/lvgl/src/themes/default/lv_theme_default.c **** #define DARK_COLOR_SCR         lv_color_hex(0x15171A)
  35:Drivers/lvgl/src/themes/default/lv_theme_default.c **** #define DARK_COLOR_CARD        lv_color_hex(0x282b30)
  36:Drivers/lvgl/src/themes/default/lv_theme_default.c **** #define DARK_COLOR_TEXT        lv_palette_lighten(LV_PALETTE_GREY, 5)
  37:Drivers/lvgl/src/themes/default/lv_theme_default.c **** #define DARK_COLOR_GREY        lv_color_hex(0x2f3237)
  38:Drivers/lvgl/src/themes/default/lv_theme_default.c **** 
  39:Drivers/lvgl/src/themes/default/lv_theme_default.c **** #define TRANSITION_TIME         LV_THEME_DEFAULT_TRANSITION_TIME
  40:Drivers/lvgl/src/themes/default/lv_theme_default.c **** #define BORDER_WIDTH            LV_DPX_CALC(theme->disp_dpi, 2)
  41:Drivers/lvgl/src/themes/default/lv_theme_default.c **** #define OUTLINE_WIDTH           LV_DPX_CALC(theme->disp_dpi, 3)
  42:Drivers/lvgl/src/themes/default/lv_theme_default.c **** 
  43:Drivers/lvgl/src/themes/default/lv_theme_default.c **** #define PAD_DEF     LV_DPX_CALC(theme->disp_dpi, theme->disp_size == DISP_LARGE ? 24 : theme->disp_
  44:Drivers/lvgl/src/themes/default/lv_theme_default.c **** #define PAD_SMALL   LV_DPX_CALC(theme->disp_dpi, theme->disp_size == DISP_LARGE ? 14 : theme->disp_
  45:Drivers/lvgl/src/themes/default/lv_theme_default.c **** #define PAD_TINY    LV_DPX_CALC(theme->disp_dpi, theme->disp_size == DISP_LARGE ? 8 : theme->disp_s
  46:Drivers/lvgl/src/themes/default/lv_theme_default.c **** 
  47:Drivers/lvgl/src/themes/default/lv_theme_default.c **** /**********************
  48:Drivers/lvgl/src/themes/default/lv_theme_default.c ****  *      TYPEDEFS
  49:Drivers/lvgl/src/themes/default/lv_theme_default.c ****  **********************/
  50:Drivers/lvgl/src/themes/default/lv_theme_default.c **** typedef struct {
  51:Drivers/lvgl/src/themes/default/lv_theme_default.c ****     lv_style_t scr;
  52:Drivers/lvgl/src/themes/default/lv_theme_default.c ****     lv_style_t scrollbar;
  53:Drivers/lvgl/src/themes/default/lv_theme_default.c ****     lv_style_t scrollbar_scrolled;
  54:Drivers/lvgl/src/themes/default/lv_theme_default.c ****     lv_style_t card;
  55:Drivers/lvgl/src/themes/default/lv_theme_default.c ****     lv_style_t btn;
  56:Drivers/lvgl/src/themes/default/lv_theme_default.c **** 
  57:Drivers/lvgl/src/themes/default/lv_theme_default.c ****     /*Utility*/
  58:Drivers/lvgl/src/themes/default/lv_theme_default.c ****     lv_style_t bg_color_primary;
  59:Drivers/lvgl/src/themes/default/lv_theme_default.c ****     lv_style_t bg_color_primary_muted;
  60:Drivers/lvgl/src/themes/default/lv_theme_default.c ****     lv_style_t bg_color_secondary;
  61:Drivers/lvgl/src/themes/default/lv_theme_default.c ****     lv_style_t bg_color_secondary_muted;
  62:Drivers/lvgl/src/themes/default/lv_theme_default.c ****     lv_style_t bg_color_grey;
  63:Drivers/lvgl/src/themes/default/lv_theme_default.c ****     lv_style_t bg_color_white;
  64:Drivers/lvgl/src/themes/default/lv_theme_default.c ****     lv_style_t pressed;
  65:Drivers/lvgl/src/themes/default/lv_theme_default.c ****     lv_style_t disabled;
  66:Drivers/lvgl/src/themes/default/lv_theme_default.c ****     lv_style_t pad_zero;
  67:Drivers/lvgl/src/themes/default/lv_theme_default.c ****     lv_style_t pad_tiny;
  68:Drivers/lvgl/src/themes/default/lv_theme_default.c ****     lv_style_t pad_small;
  69:Drivers/lvgl/src/themes/default/lv_theme_default.c ****     lv_style_t pad_normal;
  70:Drivers/lvgl/src/themes/default/lv_theme_default.c ****     lv_style_t pad_gap;
  71:Drivers/lvgl/src/themes/default/lv_theme_default.c ****     lv_style_t line_space_large;
  72:Drivers/lvgl/src/themes/default/lv_theme_default.c ****     lv_style_t text_align_center;
  73:Drivers/lvgl/src/themes/default/lv_theme_default.c ****     lv_style_t outline_primary;
  74:Drivers/lvgl/src/themes/default/lv_theme_default.c ****     lv_style_t outline_secondary;
  75:Drivers/lvgl/src/themes/default/lv_theme_default.c ****     lv_style_t circle;
  76:Drivers/lvgl/src/themes/default/lv_theme_default.c ****     lv_style_t no_radius;
  77:Drivers/lvgl/src/themes/default/lv_theme_default.c ****     lv_style_t clip_corner;
  78:Drivers/lvgl/src/themes/default/lv_theme_default.c ****     lv_style_t rotary_scroll;
  79:Drivers/lvgl/src/themes/default/lv_theme_default.c **** #if LV_THEME_DEFAULT_GROW
  80:Drivers/lvgl/src/themes/default/lv_theme_default.c ****     lv_style_t grow;
  81:Drivers/lvgl/src/themes/default/lv_theme_default.c **** #endif
  82:Drivers/lvgl/src/themes/default/lv_theme_default.c ****     lv_style_t transition_delayed;
  83:Drivers/lvgl/src/themes/default/lv_theme_default.c ****     lv_style_t transition_normal;
  84:Drivers/lvgl/src/themes/default/lv_theme_default.c ****     lv_style_t anim;
  85:Drivers/lvgl/src/themes/default/lv_theme_default.c ****     lv_style_t anim_fast;
  86:Drivers/lvgl/src/themes/default/lv_theme_default.c **** 
  87:Drivers/lvgl/src/themes/default/lv_theme_default.c ****     /*Parts*/
ARM GAS  /var/folders/qx/2_175_4n2s19vhvtspjhb3qh0000gn/T//ccFV8cem.s 			page 3


  88:Drivers/lvgl/src/themes/default/lv_theme_default.c ****     lv_style_t knob;
  89:Drivers/lvgl/src/themes/default/lv_theme_default.c **** 
  90:Drivers/lvgl/src/themes/default/lv_theme_default.c **** #if LV_USE_ARC
  91:Drivers/lvgl/src/themes/default/lv_theme_default.c ****     lv_style_t arc_indic;
  92:Drivers/lvgl/src/themes/default/lv_theme_default.c ****     lv_style_t arc_indic_primary;
  93:Drivers/lvgl/src/themes/default/lv_theme_default.c **** #endif
  94:Drivers/lvgl/src/themes/default/lv_theme_default.c **** 
  95:Drivers/lvgl/src/themes/default/lv_theme_default.c **** #if LV_USE_CHART
  96:Drivers/lvgl/src/themes/default/lv_theme_default.c ****     lv_style_t chart_series, chart_indic, chart_bg;
  97:Drivers/lvgl/src/themes/default/lv_theme_default.c **** #endif
  98:Drivers/lvgl/src/themes/default/lv_theme_default.c **** 
  99:Drivers/lvgl/src/themes/default/lv_theme_default.c **** #if LV_USE_DROPDOWN
 100:Drivers/lvgl/src/themes/default/lv_theme_default.c ****     lv_style_t dropdown_list;
 101:Drivers/lvgl/src/themes/default/lv_theme_default.c **** #endif
 102:Drivers/lvgl/src/themes/default/lv_theme_default.c **** 
 103:Drivers/lvgl/src/themes/default/lv_theme_default.c **** #if LV_USE_CHECKBOX
 104:Drivers/lvgl/src/themes/default/lv_theme_default.c ****     lv_style_t cb_marker, cb_marker_checked;
 105:Drivers/lvgl/src/themes/default/lv_theme_default.c **** #endif
 106:Drivers/lvgl/src/themes/default/lv_theme_default.c **** 
 107:Drivers/lvgl/src/themes/default/lv_theme_default.c **** #if LV_USE_SWITCH
 108:Drivers/lvgl/src/themes/default/lv_theme_default.c ****     lv_style_t switch_knob;
 109:Drivers/lvgl/src/themes/default/lv_theme_default.c **** #endif
 110:Drivers/lvgl/src/themes/default/lv_theme_default.c **** 
 111:Drivers/lvgl/src/themes/default/lv_theme_default.c **** #if LV_USE_LINE
 112:Drivers/lvgl/src/themes/default/lv_theme_default.c ****     lv_style_t line;
 113:Drivers/lvgl/src/themes/default/lv_theme_default.c **** #endif
 114:Drivers/lvgl/src/themes/default/lv_theme_default.c **** 
 115:Drivers/lvgl/src/themes/default/lv_theme_default.c **** #if LV_USE_TABLE
 116:Drivers/lvgl/src/themes/default/lv_theme_default.c ****     lv_style_t table_cell;
 117:Drivers/lvgl/src/themes/default/lv_theme_default.c **** #endif
 118:Drivers/lvgl/src/themes/default/lv_theme_default.c **** 
 119:Drivers/lvgl/src/themes/default/lv_theme_default.c **** #if LV_USE_TEXTAREA
 120:Drivers/lvgl/src/themes/default/lv_theme_default.c ****     lv_style_t ta_cursor, ta_placeholder;
 121:Drivers/lvgl/src/themes/default/lv_theme_default.c **** #endif
 122:Drivers/lvgl/src/themes/default/lv_theme_default.c **** 
 123:Drivers/lvgl/src/themes/default/lv_theme_default.c **** #if LV_USE_CALENDAR
 124:Drivers/lvgl/src/themes/default/lv_theme_default.c ****     lv_style_t calendar_btnm_bg, calendar_btnm_day, calendar_header;
 125:Drivers/lvgl/src/themes/default/lv_theme_default.c **** #endif
 126:Drivers/lvgl/src/themes/default/lv_theme_default.c **** 
 127:Drivers/lvgl/src/themes/default/lv_theme_default.c **** #if LV_USE_MENU
 128:Drivers/lvgl/src/themes/default/lv_theme_default.c ****     lv_style_t menu_bg, menu_cont, menu_sidebar_cont, menu_main_cont, menu_page, menu_header_cont, 
 129:Drivers/lvgl/src/themes/default/lv_theme_default.c ****                menu_section, menu_pressed, menu_separator;
 130:Drivers/lvgl/src/themes/default/lv_theme_default.c **** #endif
 131:Drivers/lvgl/src/themes/default/lv_theme_default.c **** 
 132:Drivers/lvgl/src/themes/default/lv_theme_default.c **** #if LV_USE_MSGBOX
 133:Drivers/lvgl/src/themes/default/lv_theme_default.c ****     lv_style_t msgbox_backdrop_bg;
 134:Drivers/lvgl/src/themes/default/lv_theme_default.c **** #endif
 135:Drivers/lvgl/src/themes/default/lv_theme_default.c **** 
 136:Drivers/lvgl/src/themes/default/lv_theme_default.c **** #if LV_USE_KEYBOARD
 137:Drivers/lvgl/src/themes/default/lv_theme_default.c ****     lv_style_t keyboard_button_bg;
 138:Drivers/lvgl/src/themes/default/lv_theme_default.c **** #endif
 139:Drivers/lvgl/src/themes/default/lv_theme_default.c **** 
 140:Drivers/lvgl/src/themes/default/lv_theme_default.c **** #if LV_USE_LIST
 141:Drivers/lvgl/src/themes/default/lv_theme_default.c ****     lv_style_t list_bg, list_btn, list_item_grow;
 142:Drivers/lvgl/src/themes/default/lv_theme_default.c **** #endif
 143:Drivers/lvgl/src/themes/default/lv_theme_default.c **** 
 144:Drivers/lvgl/src/themes/default/lv_theme_default.c **** #if LV_USE_TABVIEW
ARM GAS  /var/folders/qx/2_175_4n2s19vhvtspjhb3qh0000gn/T//ccFV8cem.s 			page 4


 145:Drivers/lvgl/src/themes/default/lv_theme_default.c ****     lv_style_t tab_bg_focus, tab_btn;
 146:Drivers/lvgl/src/themes/default/lv_theme_default.c **** #endif
 147:Drivers/lvgl/src/themes/default/lv_theme_default.c **** #if LV_USE_LED
 148:Drivers/lvgl/src/themes/default/lv_theme_default.c ****     lv_style_t led;
 149:Drivers/lvgl/src/themes/default/lv_theme_default.c **** #endif
 150:Drivers/lvgl/src/themes/default/lv_theme_default.c **** 
 151:Drivers/lvgl/src/themes/default/lv_theme_default.c **** #if LV_USE_SCALE
 152:Drivers/lvgl/src/themes/default/lv_theme_default.c ****     lv_style_t scale;
 153:Drivers/lvgl/src/themes/default/lv_theme_default.c **** #endif
 154:Drivers/lvgl/src/themes/default/lv_theme_default.c **** } my_theme_styles_t;
 155:Drivers/lvgl/src/themes/default/lv_theme_default.c **** 
 156:Drivers/lvgl/src/themes/default/lv_theme_default.c **** typedef enum {
 157:Drivers/lvgl/src/themes/default/lv_theme_default.c ****     DISP_SMALL = 3,
 158:Drivers/lvgl/src/themes/default/lv_theme_default.c ****     DISP_MEDIUM = 2,
 159:Drivers/lvgl/src/themes/default/lv_theme_default.c ****     DISP_LARGE = 1,
 160:Drivers/lvgl/src/themes/default/lv_theme_default.c **** } disp_size_t;
 161:Drivers/lvgl/src/themes/default/lv_theme_default.c **** 
 162:Drivers/lvgl/src/themes/default/lv_theme_default.c **** struct _my_theme_t {
 163:Drivers/lvgl/src/themes/default/lv_theme_default.c ****     lv_theme_t base;
 164:Drivers/lvgl/src/themes/default/lv_theme_default.c ****     disp_size_t disp_size;
 165:Drivers/lvgl/src/themes/default/lv_theme_default.c ****     int32_t disp_dpi;
 166:Drivers/lvgl/src/themes/default/lv_theme_default.c ****     lv_color_t color_scr;
 167:Drivers/lvgl/src/themes/default/lv_theme_default.c ****     lv_color_t color_text;
 168:Drivers/lvgl/src/themes/default/lv_theme_default.c ****     lv_color_t color_card;
 169:Drivers/lvgl/src/themes/default/lv_theme_default.c ****     lv_color_t color_grey;
 170:Drivers/lvgl/src/themes/default/lv_theme_default.c ****     bool inited;
 171:Drivers/lvgl/src/themes/default/lv_theme_default.c ****     my_theme_styles_t styles;
 172:Drivers/lvgl/src/themes/default/lv_theme_default.c **** 
 173:Drivers/lvgl/src/themes/default/lv_theme_default.c **** #if LV_THEME_DEFAULT_TRANSITION_TIME
 174:Drivers/lvgl/src/themes/default/lv_theme_default.c ****     lv_style_transition_dsc_t trans_delayed;
 175:Drivers/lvgl/src/themes/default/lv_theme_default.c ****     lv_style_transition_dsc_t trans_normal;
 176:Drivers/lvgl/src/themes/default/lv_theme_default.c **** #endif
 177:Drivers/lvgl/src/themes/default/lv_theme_default.c **** };
 178:Drivers/lvgl/src/themes/default/lv_theme_default.c **** 
 179:Drivers/lvgl/src/themes/default/lv_theme_default.c **** /**********************
 180:Drivers/lvgl/src/themes/default/lv_theme_default.c ****  *  STATIC PROTOTYPES
 181:Drivers/lvgl/src/themes/default/lv_theme_default.c ****  **********************/
 182:Drivers/lvgl/src/themes/default/lv_theme_default.c **** static void style_init_reset(lv_style_t * style);
 183:Drivers/lvgl/src/themes/default/lv_theme_default.c **** static void theme_apply(lv_theme_t * th, lv_obj_t * obj);
 184:Drivers/lvgl/src/themes/default/lv_theme_default.c **** static void resolution_change_event_cb(lv_event_t * e);
 185:Drivers/lvgl/src/themes/default/lv_theme_default.c **** 
 186:Drivers/lvgl/src/themes/default/lv_theme_default.c **** /**********************
 187:Drivers/lvgl/src/themes/default/lv_theme_default.c ****  *  STATIC VARIABLES
 188:Drivers/lvgl/src/themes/default/lv_theme_default.c ****  **********************/
 189:Drivers/lvgl/src/themes/default/lv_theme_default.c **** 
 190:Drivers/lvgl/src/themes/default/lv_theme_default.c **** /**********************
 191:Drivers/lvgl/src/themes/default/lv_theme_default.c ****  *      MACROS
 192:Drivers/lvgl/src/themes/default/lv_theme_default.c ****  **********************/
 193:Drivers/lvgl/src/themes/default/lv_theme_default.c **** 
 194:Drivers/lvgl/src/themes/default/lv_theme_default.c **** /**********************
 195:Drivers/lvgl/src/themes/default/lv_theme_default.c ****  *   STATIC FUNCTIONS
 196:Drivers/lvgl/src/themes/default/lv_theme_default.c ****  **********************/
 197:Drivers/lvgl/src/themes/default/lv_theme_default.c **** 
 198:Drivers/lvgl/src/themes/default/lv_theme_default.c **** static void style_init(my_theme_t * theme)
 199:Drivers/lvgl/src/themes/default/lv_theme_default.c **** {
 200:Drivers/lvgl/src/themes/default/lv_theme_default.c **** #if TRANSITION_TIME
 201:Drivers/lvgl/src/themes/default/lv_theme_default.c ****     static const lv_style_prop_t trans_props[] = {
ARM GAS  /var/folders/qx/2_175_4n2s19vhvtspjhb3qh0000gn/T//ccFV8cem.s 			page 5


 202:Drivers/lvgl/src/themes/default/lv_theme_default.c ****         LV_STYLE_BG_OPA, LV_STYLE_BG_COLOR,
 203:Drivers/lvgl/src/themes/default/lv_theme_default.c ****         LV_STYLE_TRANSFORM_WIDTH, LV_STYLE_TRANSFORM_HEIGHT,
 204:Drivers/lvgl/src/themes/default/lv_theme_default.c ****         LV_STYLE_TRANSLATE_Y, LV_STYLE_TRANSLATE_X,
 205:Drivers/lvgl/src/themes/default/lv_theme_default.c ****         LV_STYLE_TRANSFORM_ROTATION,
 206:Drivers/lvgl/src/themes/default/lv_theme_default.c ****         LV_STYLE_TRANSFORM_SCALE_X, LV_STYLE_TRANSFORM_SCALE_Y,
 207:Drivers/lvgl/src/themes/default/lv_theme_default.c ****         LV_STYLE_RECOLOR_OPA, LV_STYLE_RECOLOR,
 208:Drivers/lvgl/src/themes/default/lv_theme_default.c ****         0
 209:Drivers/lvgl/src/themes/default/lv_theme_default.c ****     };
 210:Drivers/lvgl/src/themes/default/lv_theme_default.c **** #endif
 211:Drivers/lvgl/src/themes/default/lv_theme_default.c **** 
 212:Drivers/lvgl/src/themes/default/lv_theme_default.c ****     theme->color_scr = theme->base.flags & MODE_DARK ? DARK_COLOR_SCR : LIGHT_COLOR_SCR;
 213:Drivers/lvgl/src/themes/default/lv_theme_default.c ****     theme->color_text = theme->base.flags & MODE_DARK ? DARK_COLOR_TEXT : LIGHT_COLOR_TEXT;
 214:Drivers/lvgl/src/themes/default/lv_theme_default.c ****     theme->color_card = theme->base.flags & MODE_DARK ? DARK_COLOR_CARD : LIGHT_COLOR_CARD;
 215:Drivers/lvgl/src/themes/default/lv_theme_default.c ****     theme->color_grey = theme->base.flags & MODE_DARK ? DARK_COLOR_GREY : LIGHT_COLOR_GREY;
 216:Drivers/lvgl/src/themes/default/lv_theme_default.c **** 
 217:Drivers/lvgl/src/themes/default/lv_theme_default.c ****     style_init_reset(&theme->styles.transition_delayed);
 218:Drivers/lvgl/src/themes/default/lv_theme_default.c ****     style_init_reset(&theme->styles.transition_normal);
 219:Drivers/lvgl/src/themes/default/lv_theme_default.c **** #if TRANSITION_TIME
 220:Drivers/lvgl/src/themes/default/lv_theme_default.c ****     lv_style_transition_dsc_init(&theme->trans_delayed, trans_props, lv_anim_path_linear, TRANSITIO
 221:Drivers/lvgl/src/themes/default/lv_theme_default.c ****     lv_style_transition_dsc_init(&theme->trans_normal, trans_props, lv_anim_path_linear, TRANSITION
 222:Drivers/lvgl/src/themes/default/lv_theme_default.c **** 
 223:Drivers/lvgl/src/themes/default/lv_theme_default.c ****     lv_style_set_transition(&theme->styles.transition_delayed,
 224:Drivers/lvgl/src/themes/default/lv_theme_default.c ****                             &theme->trans_delayed); /*Go back to default state with delay*/
 225:Drivers/lvgl/src/themes/default/lv_theme_default.c **** 
 226:Drivers/lvgl/src/themes/default/lv_theme_default.c ****     lv_style_set_transition(&theme->styles.transition_normal, &theme->trans_normal); /*Go back to d
 227:Drivers/lvgl/src/themes/default/lv_theme_default.c **** #endif
 228:Drivers/lvgl/src/themes/default/lv_theme_default.c **** 
 229:Drivers/lvgl/src/themes/default/lv_theme_default.c ****     style_init_reset(&theme->styles.scrollbar);
 230:Drivers/lvgl/src/themes/default/lv_theme_default.c ****     lv_color_t sb_color = (theme->base.flags & MODE_DARK) ? lv_palette_darken(LV_PALETTE_GREY,
 231:Drivers/lvgl/src/themes/default/lv_theme_default.c ****                                                                               2) : lv_palette_main(
 232:Drivers/lvgl/src/themes/default/lv_theme_default.c ****     lv_style_set_bg_color(&theme->styles.scrollbar, sb_color);
 233:Drivers/lvgl/src/themes/default/lv_theme_default.c **** 
 234:Drivers/lvgl/src/themes/default/lv_theme_default.c ****     lv_style_set_radius(&theme->styles.scrollbar, LV_RADIUS_CIRCLE);
 235:Drivers/lvgl/src/themes/default/lv_theme_default.c ****     lv_style_set_pad_all(&theme->styles.scrollbar, LV_DPX_CALC(theme->disp_dpi, 7));
 236:Drivers/lvgl/src/themes/default/lv_theme_default.c ****     lv_style_set_width(&theme->styles.scrollbar,  LV_DPX_CALC(theme->disp_dpi, 5));
 237:Drivers/lvgl/src/themes/default/lv_theme_default.c ****     lv_style_set_bg_opa(&theme->styles.scrollbar,  LV_OPA_40);
 238:Drivers/lvgl/src/themes/default/lv_theme_default.c **** #if TRANSITION_TIME
 239:Drivers/lvgl/src/themes/default/lv_theme_default.c ****     lv_style_set_transition(&theme->styles.scrollbar, &theme->trans_normal);
 240:Drivers/lvgl/src/themes/default/lv_theme_default.c **** #endif
 241:Drivers/lvgl/src/themes/default/lv_theme_default.c **** 
 242:Drivers/lvgl/src/themes/default/lv_theme_default.c ****     style_init_reset(&theme->styles.scrollbar_scrolled);
 243:Drivers/lvgl/src/themes/default/lv_theme_default.c ****     lv_style_set_bg_opa(&theme->styles.scrollbar_scrolled,  LV_OPA_COVER);
 244:Drivers/lvgl/src/themes/default/lv_theme_default.c **** 
 245:Drivers/lvgl/src/themes/default/lv_theme_default.c ****     style_init_reset(&theme->styles.scr);
 246:Drivers/lvgl/src/themes/default/lv_theme_default.c ****     lv_style_set_bg_opa(&theme->styles.scr, LV_OPA_COVER);
 247:Drivers/lvgl/src/themes/default/lv_theme_default.c ****     lv_style_set_bg_color(&theme->styles.scr, theme->color_scr);
 248:Drivers/lvgl/src/themes/default/lv_theme_default.c ****     lv_style_set_text_color(&theme->styles.scr, theme->color_text);
 249:Drivers/lvgl/src/themes/default/lv_theme_default.c ****     lv_style_set_text_font(&theme->styles.scr, theme->base.font_normal);
 250:Drivers/lvgl/src/themes/default/lv_theme_default.c ****     lv_style_set_pad_row(&theme->styles.scr, PAD_SMALL);
 251:Drivers/lvgl/src/themes/default/lv_theme_default.c ****     lv_style_set_pad_column(&theme->styles.scr, PAD_SMALL);
 252:Drivers/lvgl/src/themes/default/lv_theme_default.c ****     lv_style_set_rotary_sensitivity(&theme->styles.scr, theme->disp_dpi / 4 * 256);
 253:Drivers/lvgl/src/themes/default/lv_theme_default.c **** 
 254:Drivers/lvgl/src/themes/default/lv_theme_default.c ****     style_init_reset(&theme->styles.card);
 255:Drivers/lvgl/src/themes/default/lv_theme_default.c ****     lv_style_set_radius(&theme->styles.card, RADIUS_DEFAULT);
 256:Drivers/lvgl/src/themes/default/lv_theme_default.c ****     lv_style_set_bg_opa(&theme->styles.card, LV_OPA_COVER);
 257:Drivers/lvgl/src/themes/default/lv_theme_default.c ****     lv_style_set_bg_color(&theme->styles.card, theme->color_card);
 258:Drivers/lvgl/src/themes/default/lv_theme_default.c ****     lv_style_set_border_color(&theme->styles.card, theme->color_grey);
ARM GAS  /var/folders/qx/2_175_4n2s19vhvtspjhb3qh0000gn/T//ccFV8cem.s 			page 6


 259:Drivers/lvgl/src/themes/default/lv_theme_default.c ****     lv_style_set_border_width(&theme->styles.card, BORDER_WIDTH);
 260:Drivers/lvgl/src/themes/default/lv_theme_default.c ****     lv_style_set_border_post(&theme->styles.card, true);
 261:Drivers/lvgl/src/themes/default/lv_theme_default.c ****     lv_style_set_text_color(&theme->styles.card, theme->color_text);
 262:Drivers/lvgl/src/themes/default/lv_theme_default.c ****     lv_style_set_pad_all(&theme->styles.card, PAD_DEF);
 263:Drivers/lvgl/src/themes/default/lv_theme_default.c ****     lv_style_set_pad_row(&theme->styles.card, PAD_SMALL);
 264:Drivers/lvgl/src/themes/default/lv_theme_default.c ****     lv_style_set_pad_column(&theme->styles.card, PAD_SMALL);
 265:Drivers/lvgl/src/themes/default/lv_theme_default.c ****     lv_style_set_line_color(&theme->styles.card, lv_palette_main(LV_PALETTE_GREY));
 266:Drivers/lvgl/src/themes/default/lv_theme_default.c ****     lv_style_set_line_width(&theme->styles.card, LV_DPX_CALC(theme->disp_dpi, 1));
 267:Drivers/lvgl/src/themes/default/lv_theme_default.c **** 
 268:Drivers/lvgl/src/themes/default/lv_theme_default.c ****     style_init_reset(&theme->styles.outline_primary);
 269:Drivers/lvgl/src/themes/default/lv_theme_default.c ****     lv_style_set_outline_color(&theme->styles.outline_primary, theme->base.color_primary);
 270:Drivers/lvgl/src/themes/default/lv_theme_default.c ****     lv_style_set_outline_width(&theme->styles.outline_primary, OUTLINE_WIDTH);
 271:Drivers/lvgl/src/themes/default/lv_theme_default.c ****     lv_style_set_outline_pad(&theme->styles.outline_primary, OUTLINE_WIDTH);
 272:Drivers/lvgl/src/themes/default/lv_theme_default.c ****     lv_style_set_outline_opa(&theme->styles.outline_primary, LV_OPA_50);
 273:Drivers/lvgl/src/themes/default/lv_theme_default.c **** 
 274:Drivers/lvgl/src/themes/default/lv_theme_default.c ****     style_init_reset(&theme->styles.outline_secondary);
 275:Drivers/lvgl/src/themes/default/lv_theme_default.c ****     lv_style_set_outline_color(&theme->styles.outline_secondary, theme->base.color_secondary);
 276:Drivers/lvgl/src/themes/default/lv_theme_default.c ****     lv_style_set_outline_width(&theme->styles.outline_secondary, OUTLINE_WIDTH);
 277:Drivers/lvgl/src/themes/default/lv_theme_default.c ****     lv_style_set_outline_opa(&theme->styles.outline_secondary, LV_OPA_50);
 278:Drivers/lvgl/src/themes/default/lv_theme_default.c **** 
 279:Drivers/lvgl/src/themes/default/lv_theme_default.c ****     style_init_reset(&theme->styles.btn);
 280:Drivers/lvgl/src/themes/default/lv_theme_default.c ****     lv_style_set_radius(&theme->styles.btn,
 281:Drivers/lvgl/src/themes/default/lv_theme_default.c ****                         LV_DPX_CALC(theme->disp_dpi, theme->disp_size == DISP_LARGE ? 16 : theme->d
 282:Drivers/lvgl/src/themes/default/lv_theme_default.c ****     lv_style_set_bg_opa(&theme->styles.btn, LV_OPA_COVER);
 283:Drivers/lvgl/src/themes/default/lv_theme_default.c ****     lv_style_set_bg_color(&theme->styles.btn, theme->color_grey);
 284:Drivers/lvgl/src/themes/default/lv_theme_default.c ****     if(!(theme->base.flags & MODE_DARK)) {
 285:Drivers/lvgl/src/themes/default/lv_theme_default.c ****         lv_style_set_shadow_color(&theme->styles.btn, lv_palette_main(LV_PALETTE_GREY));
 286:Drivers/lvgl/src/themes/default/lv_theme_default.c ****         lv_style_set_shadow_width(&theme->styles.btn, LV_DPX(3));
 287:Drivers/lvgl/src/themes/default/lv_theme_default.c ****         lv_style_set_shadow_opa(&theme->styles.btn, LV_OPA_50);
 288:Drivers/lvgl/src/themes/default/lv_theme_default.c ****         lv_style_set_shadow_offset_y(&theme->styles.btn, LV_DPX_CALC(theme->disp_dpi, LV_DPX(4)));
 289:Drivers/lvgl/src/themes/default/lv_theme_default.c ****     }
 290:Drivers/lvgl/src/themes/default/lv_theme_default.c ****     lv_style_set_text_color(&theme->styles.btn, theme->color_text);
 291:Drivers/lvgl/src/themes/default/lv_theme_default.c ****     lv_style_set_pad_hor(&theme->styles.btn, PAD_DEF);
 292:Drivers/lvgl/src/themes/default/lv_theme_default.c ****     lv_style_set_pad_ver(&theme->styles.btn, PAD_SMALL);
 293:Drivers/lvgl/src/themes/default/lv_theme_default.c ****     lv_style_set_pad_column(&theme->styles.btn, LV_DPX_CALC(theme->disp_dpi, 5));
 294:Drivers/lvgl/src/themes/default/lv_theme_default.c ****     lv_style_set_pad_row(&theme->styles.btn, LV_DPX_CALC(theme->disp_dpi, 5));
 295:Drivers/lvgl/src/themes/default/lv_theme_default.c **** 
 296:Drivers/lvgl/src/themes/default/lv_theme_default.c ****     style_init_reset(&theme->styles.pressed);
 297:Drivers/lvgl/src/themes/default/lv_theme_default.c ****     lv_style_set_recolor(&theme->styles.pressed, lv_color_black());
 298:Drivers/lvgl/src/themes/default/lv_theme_default.c ****     lv_style_set_recolor_opa(&theme->styles.pressed, 35);
 299:Drivers/lvgl/src/themes/default/lv_theme_default.c **** 
 300:Drivers/lvgl/src/themes/default/lv_theme_default.c ****     style_init_reset(&theme->styles.disabled);
 301:Drivers/lvgl/src/themes/default/lv_theme_default.c ****     if(theme_def->base.flags & MODE_DARK)
 302:Drivers/lvgl/src/themes/default/lv_theme_default.c ****         lv_style_set_recolor(&theme->styles.disabled, lv_palette_darken(LV_PALETTE_GREY, 2));
 303:Drivers/lvgl/src/themes/default/lv_theme_default.c ****     else
 304:Drivers/lvgl/src/themes/default/lv_theme_default.c ****         lv_style_set_recolor(&theme->styles.disabled, lv_palette_lighten(LV_PALETTE_GREY, 2));
 305:Drivers/lvgl/src/themes/default/lv_theme_default.c ****     lv_style_set_recolor_opa(&theme->styles.disabled, LV_OPA_50);
 306:Drivers/lvgl/src/themes/default/lv_theme_default.c **** 
 307:Drivers/lvgl/src/themes/default/lv_theme_default.c ****     style_init_reset(&theme->styles.clip_corner);
 308:Drivers/lvgl/src/themes/default/lv_theme_default.c ****     lv_style_set_clip_corner(&theme->styles.clip_corner, true);
 309:Drivers/lvgl/src/themes/default/lv_theme_default.c ****     lv_style_set_border_post(&theme->styles.clip_corner, true);
 310:Drivers/lvgl/src/themes/default/lv_theme_default.c **** 
 311:Drivers/lvgl/src/themes/default/lv_theme_default.c ****     style_init_reset(&theme->styles.pad_normal);
 312:Drivers/lvgl/src/themes/default/lv_theme_default.c ****     lv_style_set_pad_all(&theme->styles.pad_normal, PAD_DEF);
 313:Drivers/lvgl/src/themes/default/lv_theme_default.c ****     lv_style_set_pad_row(&theme->styles.pad_normal, PAD_DEF);
 314:Drivers/lvgl/src/themes/default/lv_theme_default.c ****     lv_style_set_pad_column(&theme->styles.pad_normal, PAD_DEF);
 315:Drivers/lvgl/src/themes/default/lv_theme_default.c **** 
ARM GAS  /var/folders/qx/2_175_4n2s19vhvtspjhb3qh0000gn/T//ccFV8cem.s 			page 7


 316:Drivers/lvgl/src/themes/default/lv_theme_default.c ****     style_init_reset(&theme->styles.pad_small);
 317:Drivers/lvgl/src/themes/default/lv_theme_default.c ****     lv_style_set_pad_all(&theme->styles.pad_small, PAD_SMALL);
 318:Drivers/lvgl/src/themes/default/lv_theme_default.c ****     lv_style_set_pad_gap(&theme->styles.pad_small, PAD_SMALL);
 319:Drivers/lvgl/src/themes/default/lv_theme_default.c **** 
 320:Drivers/lvgl/src/themes/default/lv_theme_default.c ****     style_init_reset(&theme->styles.pad_gap);
 321:Drivers/lvgl/src/themes/default/lv_theme_default.c ****     lv_style_set_pad_row(&theme->styles.pad_gap, LV_DPX_CALC(theme->disp_dpi, 10));
 322:Drivers/lvgl/src/themes/default/lv_theme_default.c ****     lv_style_set_pad_column(&theme->styles.pad_gap, LV_DPX_CALC(theme->disp_dpi, 10));
 323:Drivers/lvgl/src/themes/default/lv_theme_default.c **** 
 324:Drivers/lvgl/src/themes/default/lv_theme_default.c ****     style_init_reset(&theme->styles.line_space_large);
 325:Drivers/lvgl/src/themes/default/lv_theme_default.c ****     lv_style_set_text_line_space(&theme->styles.line_space_large, LV_DPX_CALC(theme->disp_dpi, 20))
 326:Drivers/lvgl/src/themes/default/lv_theme_default.c **** 
 327:Drivers/lvgl/src/themes/default/lv_theme_default.c ****     style_init_reset(&theme->styles.text_align_center);
 328:Drivers/lvgl/src/themes/default/lv_theme_default.c ****     lv_style_set_text_align(&theme->styles.text_align_center, LV_TEXT_ALIGN_CENTER);
 329:Drivers/lvgl/src/themes/default/lv_theme_default.c **** 
 330:Drivers/lvgl/src/themes/default/lv_theme_default.c ****     style_init_reset(&theme->styles.pad_zero);
 331:Drivers/lvgl/src/themes/default/lv_theme_default.c ****     lv_style_set_pad_all(&theme->styles.pad_zero, 0);
 332:Drivers/lvgl/src/themes/default/lv_theme_default.c ****     lv_style_set_pad_row(&theme->styles.pad_zero, 0);
 333:Drivers/lvgl/src/themes/default/lv_theme_default.c ****     lv_style_set_pad_column(&theme->styles.pad_zero, 0);
 334:Drivers/lvgl/src/themes/default/lv_theme_default.c **** 
 335:Drivers/lvgl/src/themes/default/lv_theme_default.c ****     style_init_reset(&theme->styles.pad_tiny);
 336:Drivers/lvgl/src/themes/default/lv_theme_default.c ****     lv_style_set_pad_all(&theme->styles.pad_tiny, PAD_TINY);
 337:Drivers/lvgl/src/themes/default/lv_theme_default.c ****     lv_style_set_pad_row(&theme->styles.pad_tiny, PAD_TINY);
 338:Drivers/lvgl/src/themes/default/lv_theme_default.c ****     lv_style_set_pad_column(&theme->styles.pad_tiny, PAD_TINY);
 339:Drivers/lvgl/src/themes/default/lv_theme_default.c **** 
 340:Drivers/lvgl/src/themes/default/lv_theme_default.c ****     style_init_reset(&theme->styles.bg_color_primary);
 341:Drivers/lvgl/src/themes/default/lv_theme_default.c ****     lv_style_set_bg_color(&theme->styles.bg_color_primary, theme->base.color_primary);
 342:Drivers/lvgl/src/themes/default/lv_theme_default.c ****     lv_style_set_text_color(&theme->styles.bg_color_primary, lv_color_white());
 343:Drivers/lvgl/src/themes/default/lv_theme_default.c ****     lv_style_set_bg_opa(&theme->styles.bg_color_primary, LV_OPA_COVER);
 344:Drivers/lvgl/src/themes/default/lv_theme_default.c **** 
 345:Drivers/lvgl/src/themes/default/lv_theme_default.c ****     style_init_reset(&theme->styles.bg_color_primary_muted);
 346:Drivers/lvgl/src/themes/default/lv_theme_default.c ****     lv_style_set_bg_color(&theme->styles.bg_color_primary_muted, theme->base.color_primary);
 347:Drivers/lvgl/src/themes/default/lv_theme_default.c ****     lv_style_set_text_color(&theme->styles.bg_color_primary_muted, theme->base.color_primary);
 348:Drivers/lvgl/src/themes/default/lv_theme_default.c ****     lv_style_set_bg_opa(&theme->styles.bg_color_primary_muted, LV_OPA_20);
 349:Drivers/lvgl/src/themes/default/lv_theme_default.c **** 
 350:Drivers/lvgl/src/themes/default/lv_theme_default.c ****     style_init_reset(&theme->styles.bg_color_secondary);
 351:Drivers/lvgl/src/themes/default/lv_theme_default.c ****     lv_style_set_bg_color(&theme->styles.bg_color_secondary, theme->base.color_secondary);
 352:Drivers/lvgl/src/themes/default/lv_theme_default.c ****     lv_style_set_text_color(&theme->styles.bg_color_secondary, lv_color_white());
 353:Drivers/lvgl/src/themes/default/lv_theme_default.c ****     lv_style_set_bg_opa(&theme->styles.bg_color_secondary, LV_OPA_COVER);
 354:Drivers/lvgl/src/themes/default/lv_theme_default.c **** 
 355:Drivers/lvgl/src/themes/default/lv_theme_default.c ****     style_init_reset(&theme->styles.bg_color_secondary_muted);
 356:Drivers/lvgl/src/themes/default/lv_theme_default.c ****     lv_style_set_bg_color(&theme->styles.bg_color_secondary_muted, theme->base.color_secondary);
 357:Drivers/lvgl/src/themes/default/lv_theme_default.c ****     lv_style_set_text_color(&theme->styles.bg_color_secondary_muted, theme->base.color_secondary);
 358:Drivers/lvgl/src/themes/default/lv_theme_default.c ****     lv_style_set_bg_opa(&theme->styles.bg_color_secondary_muted, LV_OPA_20);
 359:Drivers/lvgl/src/themes/default/lv_theme_default.c **** 
 360:Drivers/lvgl/src/themes/default/lv_theme_default.c ****     style_init_reset(&theme->styles.bg_color_grey);
 361:Drivers/lvgl/src/themes/default/lv_theme_default.c ****     lv_style_set_bg_color(&theme->styles.bg_color_grey, theme->color_grey);
 362:Drivers/lvgl/src/themes/default/lv_theme_default.c ****     lv_style_set_bg_opa(&theme->styles.bg_color_grey, LV_OPA_COVER);
 363:Drivers/lvgl/src/themes/default/lv_theme_default.c ****     lv_style_set_text_color(&theme->styles.bg_color_grey, theme->color_text);
 364:Drivers/lvgl/src/themes/default/lv_theme_default.c **** 
 365:Drivers/lvgl/src/themes/default/lv_theme_default.c ****     style_init_reset(&theme->styles.bg_color_white);
 366:Drivers/lvgl/src/themes/default/lv_theme_default.c ****     lv_style_set_bg_color(&theme->styles.bg_color_white, theme->color_card);
 367:Drivers/lvgl/src/themes/default/lv_theme_default.c ****     lv_style_set_bg_opa(&theme->styles.bg_color_white, LV_OPA_COVER);
 368:Drivers/lvgl/src/themes/default/lv_theme_default.c ****     lv_style_set_text_color(&theme->styles.bg_color_white, theme->color_text);
 369:Drivers/lvgl/src/themes/default/lv_theme_default.c **** 
 370:Drivers/lvgl/src/themes/default/lv_theme_default.c ****     style_init_reset(&theme->styles.circle);
 371:Drivers/lvgl/src/themes/default/lv_theme_default.c ****     lv_style_set_radius(&theme->styles.circle, LV_RADIUS_CIRCLE);
 372:Drivers/lvgl/src/themes/default/lv_theme_default.c **** 
ARM GAS  /var/folders/qx/2_175_4n2s19vhvtspjhb3qh0000gn/T//ccFV8cem.s 			page 8


 373:Drivers/lvgl/src/themes/default/lv_theme_default.c ****     style_init_reset(&theme->styles.no_radius);
 374:Drivers/lvgl/src/themes/default/lv_theme_default.c ****     lv_style_set_radius(&theme->styles.no_radius, 0);
 375:Drivers/lvgl/src/themes/default/lv_theme_default.c **** 
 376:Drivers/lvgl/src/themes/default/lv_theme_default.c ****     style_init_reset(&theme->styles.rotary_scroll);
 377:Drivers/lvgl/src/themes/default/lv_theme_default.c ****     lv_style_set_rotary_sensitivity(&theme->styles.rotary_scroll, theme->disp_dpi / 4 * 256);
 378:Drivers/lvgl/src/themes/default/lv_theme_default.c **** 
 379:Drivers/lvgl/src/themes/default/lv_theme_default.c **** #if LV_THEME_DEFAULT_GROW
 380:Drivers/lvgl/src/themes/default/lv_theme_default.c ****     style_init_reset(&theme->styles.grow);
 381:Drivers/lvgl/src/themes/default/lv_theme_default.c ****     lv_style_set_transform_width(&theme->styles.grow, LV_DPX_CALC(theme->disp_dpi, 3));
 382:Drivers/lvgl/src/themes/default/lv_theme_default.c ****     lv_style_set_transform_height(&theme->styles.grow, LV_DPX_CALC(theme->disp_dpi, 3));
 383:Drivers/lvgl/src/themes/default/lv_theme_default.c **** #endif
 384:Drivers/lvgl/src/themes/default/lv_theme_default.c **** 
 385:Drivers/lvgl/src/themes/default/lv_theme_default.c ****     style_init_reset(&theme->styles.knob);
 386:Drivers/lvgl/src/themes/default/lv_theme_default.c ****     lv_style_set_bg_color(&theme->styles.knob, theme->base.color_primary);
 387:Drivers/lvgl/src/themes/default/lv_theme_default.c ****     lv_style_set_bg_opa(&theme->styles.knob, LV_OPA_COVER);
 388:Drivers/lvgl/src/themes/default/lv_theme_default.c ****     lv_style_set_pad_all(&theme->styles.knob, LV_DPX_CALC(theme->disp_dpi, 6));
 389:Drivers/lvgl/src/themes/default/lv_theme_default.c ****     lv_style_set_radius(&theme->styles.knob, LV_RADIUS_CIRCLE);
 390:Drivers/lvgl/src/themes/default/lv_theme_default.c **** 
 391:Drivers/lvgl/src/themes/default/lv_theme_default.c ****     style_init_reset(&theme->styles.anim);
 392:Drivers/lvgl/src/themes/default/lv_theme_default.c ****     lv_style_set_anim_duration(&theme->styles.anim, 200);
 393:Drivers/lvgl/src/themes/default/lv_theme_default.c **** 
 394:Drivers/lvgl/src/themes/default/lv_theme_default.c ****     style_init_reset(&theme->styles.anim_fast);
 395:Drivers/lvgl/src/themes/default/lv_theme_default.c ****     lv_style_set_anim_duration(&theme->styles.anim_fast, 120);
 396:Drivers/lvgl/src/themes/default/lv_theme_default.c **** 
 397:Drivers/lvgl/src/themes/default/lv_theme_default.c **** #if LV_USE_ARC
 398:Drivers/lvgl/src/themes/default/lv_theme_default.c ****     style_init_reset(&theme->styles.arc_indic);
 399:Drivers/lvgl/src/themes/default/lv_theme_default.c ****     lv_style_set_arc_color(&theme->styles.arc_indic, theme->color_grey);
 400:Drivers/lvgl/src/themes/default/lv_theme_default.c ****     lv_style_set_arc_width(&theme->styles.arc_indic, LV_DPX_CALC(theme->disp_dpi, 15));
 401:Drivers/lvgl/src/themes/default/lv_theme_default.c ****     lv_style_set_arc_rounded(&theme->styles.arc_indic, true);
 402:Drivers/lvgl/src/themes/default/lv_theme_default.c **** 
 403:Drivers/lvgl/src/themes/default/lv_theme_default.c ****     style_init_reset(&theme->styles.arc_indic_primary);
 404:Drivers/lvgl/src/themes/default/lv_theme_default.c ****     lv_style_set_arc_color(&theme->styles.arc_indic_primary, theme->base.color_primary);
 405:Drivers/lvgl/src/themes/default/lv_theme_default.c **** #endif
 406:Drivers/lvgl/src/themes/default/lv_theme_default.c **** 
 407:Drivers/lvgl/src/themes/default/lv_theme_default.c **** #if LV_USE_DROPDOWN
 408:Drivers/lvgl/src/themes/default/lv_theme_default.c ****     style_init_reset(&theme->styles.dropdown_list);
 409:Drivers/lvgl/src/themes/default/lv_theme_default.c ****     lv_style_set_max_height(&theme->styles.dropdown_list, LV_DPI_DEF * 2);
 410:Drivers/lvgl/src/themes/default/lv_theme_default.c **** #endif
 411:Drivers/lvgl/src/themes/default/lv_theme_default.c **** #if LV_USE_CHECKBOX
 412:Drivers/lvgl/src/themes/default/lv_theme_default.c ****     style_init_reset(&theme->styles.cb_marker);
 413:Drivers/lvgl/src/themes/default/lv_theme_default.c ****     lv_style_set_pad_all(&theme->styles.cb_marker, LV_DPX_CALC(theme->disp_dpi, 3));
 414:Drivers/lvgl/src/themes/default/lv_theme_default.c ****     lv_style_set_border_width(&theme->styles.cb_marker, BORDER_WIDTH);
 415:Drivers/lvgl/src/themes/default/lv_theme_default.c ****     lv_style_set_border_color(&theme->styles.cb_marker, theme->base.color_primary);
 416:Drivers/lvgl/src/themes/default/lv_theme_default.c ****     lv_style_set_bg_color(&theme->styles.cb_marker, theme->color_card);
 417:Drivers/lvgl/src/themes/default/lv_theme_default.c ****     lv_style_set_bg_opa(&theme->styles.cb_marker, LV_OPA_COVER);
 418:Drivers/lvgl/src/themes/default/lv_theme_default.c ****     lv_style_set_radius(&theme->styles.cb_marker, RADIUS_DEFAULT / 2);
 419:Drivers/lvgl/src/themes/default/lv_theme_default.c ****     lv_style_set_text_font(&theme->styles.cb_marker, theme->base.font_small);
 420:Drivers/lvgl/src/themes/default/lv_theme_default.c ****     lv_style_set_text_color(&theme->styles.cb_marker, lv_color_white());
 421:Drivers/lvgl/src/themes/default/lv_theme_default.c **** 
 422:Drivers/lvgl/src/themes/default/lv_theme_default.c ****     style_init_reset(&theme->styles.cb_marker_checked);
 423:Drivers/lvgl/src/themes/default/lv_theme_default.c ****     lv_style_set_bg_image_src(&theme->styles.cb_marker_checked, LV_SYMBOL_OK);
 424:Drivers/lvgl/src/themes/default/lv_theme_default.c **** #endif
 425:Drivers/lvgl/src/themes/default/lv_theme_default.c **** 
 426:Drivers/lvgl/src/themes/default/lv_theme_default.c **** #if LV_USE_SWITCH
 427:Drivers/lvgl/src/themes/default/lv_theme_default.c ****     style_init_reset(&theme->styles.switch_knob);
 428:Drivers/lvgl/src/themes/default/lv_theme_default.c ****     lv_style_set_pad_all(&theme->styles.switch_knob, - LV_DPX_CALC(theme->disp_dpi, 4));
 429:Drivers/lvgl/src/themes/default/lv_theme_default.c ****     lv_style_set_bg_color(&theme->styles.switch_knob, lv_color_white());
ARM GAS  /var/folders/qx/2_175_4n2s19vhvtspjhb3qh0000gn/T//ccFV8cem.s 			page 9


 430:Drivers/lvgl/src/themes/default/lv_theme_default.c **** #endif
 431:Drivers/lvgl/src/themes/default/lv_theme_default.c **** 
 432:Drivers/lvgl/src/themes/default/lv_theme_default.c **** #if LV_USE_LINE
 433:Drivers/lvgl/src/themes/default/lv_theme_default.c ****     style_init_reset(&theme->styles.line);
 434:Drivers/lvgl/src/themes/default/lv_theme_default.c ****     lv_style_set_line_width(&theme->styles.line, 1);
 435:Drivers/lvgl/src/themes/default/lv_theme_default.c ****     lv_style_set_line_color(&theme->styles.line, theme->color_text);
 436:Drivers/lvgl/src/themes/default/lv_theme_default.c **** #endif
 437:Drivers/lvgl/src/themes/default/lv_theme_default.c **** 
 438:Drivers/lvgl/src/themes/default/lv_theme_default.c **** #if LV_USE_CHART
 439:Drivers/lvgl/src/themes/default/lv_theme_default.c ****     style_init_reset(&theme->styles.chart_bg);
 440:Drivers/lvgl/src/themes/default/lv_theme_default.c ****     lv_style_set_border_post(&theme->styles.chart_bg, false);
 441:Drivers/lvgl/src/themes/default/lv_theme_default.c ****     lv_style_set_pad_column(&theme->styles.chart_bg, LV_DPX_CALC(theme->disp_dpi, 10));
 442:Drivers/lvgl/src/themes/default/lv_theme_default.c ****     lv_style_set_line_color(&theme->styles.chart_bg, theme->color_grey);
 443:Drivers/lvgl/src/themes/default/lv_theme_default.c **** 
 444:Drivers/lvgl/src/themes/default/lv_theme_default.c ****     style_init_reset(&theme->styles.chart_series);
 445:Drivers/lvgl/src/themes/default/lv_theme_default.c ****     lv_style_set_line_width(&theme->styles.chart_series, LV_DPX_CALC(theme->disp_dpi, 3));
 446:Drivers/lvgl/src/themes/default/lv_theme_default.c ****     lv_style_set_radius(&theme->styles.chart_series, LV_DPX_CALC(theme->disp_dpi, 3));
 447:Drivers/lvgl/src/themes/default/lv_theme_default.c **** 
 448:Drivers/lvgl/src/themes/default/lv_theme_default.c ****     int32_t chart_size = LV_DPX_CALC(theme->disp_dpi, 8);
 449:Drivers/lvgl/src/themes/default/lv_theme_default.c ****     lv_style_set_size(&theme->styles.chart_series, chart_size, chart_size);
 450:Drivers/lvgl/src/themes/default/lv_theme_default.c ****     lv_style_set_pad_column(&theme->styles.chart_series, LV_DPX_CALC(theme->disp_dpi, 2));
 451:Drivers/lvgl/src/themes/default/lv_theme_default.c **** 
 452:Drivers/lvgl/src/themes/default/lv_theme_default.c ****     style_init_reset(&theme->styles.chart_indic);
 453:Drivers/lvgl/src/themes/default/lv_theme_default.c ****     lv_style_set_radius(&theme->styles.chart_indic, LV_RADIUS_CIRCLE);
 454:Drivers/lvgl/src/themes/default/lv_theme_default.c ****     lv_style_set_size(&theme->styles.chart_indic, chart_size, chart_size);
 455:Drivers/lvgl/src/themes/default/lv_theme_default.c ****     lv_style_set_bg_color(&theme->styles.chart_indic, theme->base.color_primary);
 456:Drivers/lvgl/src/themes/default/lv_theme_default.c ****     lv_style_set_bg_opa(&theme->styles.chart_indic, LV_OPA_COVER);
 457:Drivers/lvgl/src/themes/default/lv_theme_default.c **** #endif
 458:Drivers/lvgl/src/themes/default/lv_theme_default.c **** 
 459:Drivers/lvgl/src/themes/default/lv_theme_default.c **** #if LV_USE_MENU
 460:Drivers/lvgl/src/themes/default/lv_theme_default.c ****     style_init_reset(&theme->styles.menu_bg);
 461:Drivers/lvgl/src/themes/default/lv_theme_default.c ****     lv_style_set_pad_all(&theme->styles.menu_bg, 0);
 462:Drivers/lvgl/src/themes/default/lv_theme_default.c ****     lv_style_set_pad_gap(&theme->styles.menu_bg, 0);
 463:Drivers/lvgl/src/themes/default/lv_theme_default.c ****     lv_style_set_radius(&theme->styles.menu_bg, 0);
 464:Drivers/lvgl/src/themes/default/lv_theme_default.c ****     lv_style_set_clip_corner(&theme->styles.menu_bg, true);
 465:Drivers/lvgl/src/themes/default/lv_theme_default.c ****     lv_style_set_border_side(&theme->styles.menu_bg, LV_BORDER_SIDE_NONE);
 466:Drivers/lvgl/src/themes/default/lv_theme_default.c **** 
 467:Drivers/lvgl/src/themes/default/lv_theme_default.c ****     style_init_reset(&theme->styles.menu_section);
 468:Drivers/lvgl/src/themes/default/lv_theme_default.c ****     lv_style_set_radius(&theme->styles.menu_section, RADIUS_DEFAULT);
 469:Drivers/lvgl/src/themes/default/lv_theme_default.c ****     lv_style_set_clip_corner(&theme->styles.menu_section, true);
 470:Drivers/lvgl/src/themes/default/lv_theme_default.c ****     lv_style_set_bg_opa(&theme->styles.menu_section, LV_OPA_COVER);
 471:Drivers/lvgl/src/themes/default/lv_theme_default.c ****     lv_style_set_bg_color(&theme->styles.menu_section, theme->color_card);
 472:Drivers/lvgl/src/themes/default/lv_theme_default.c ****     lv_style_set_text_color(&theme->styles.menu_section, theme->color_text);
 473:Drivers/lvgl/src/themes/default/lv_theme_default.c **** 
 474:Drivers/lvgl/src/themes/default/lv_theme_default.c ****     style_init_reset(&theme->styles.menu_cont);
 475:Drivers/lvgl/src/themes/default/lv_theme_default.c ****     lv_style_set_pad_hor(&theme->styles.menu_cont, PAD_SMALL);
 476:Drivers/lvgl/src/themes/default/lv_theme_default.c ****     lv_style_set_pad_ver(&theme->styles.menu_cont, PAD_SMALL);
 477:Drivers/lvgl/src/themes/default/lv_theme_default.c ****     lv_style_set_pad_gap(&theme->styles.menu_cont, PAD_SMALL);
 478:Drivers/lvgl/src/themes/default/lv_theme_default.c ****     lv_style_set_border_width(&theme->styles.menu_cont, LV_DPX_CALC(theme->disp_dpi, 1));
 479:Drivers/lvgl/src/themes/default/lv_theme_default.c ****     lv_style_set_border_opa(&theme->styles.menu_cont, LV_OPA_10);
 480:Drivers/lvgl/src/themes/default/lv_theme_default.c ****     lv_style_set_border_color(&theme->styles.menu_cont, theme->color_text);
 481:Drivers/lvgl/src/themes/default/lv_theme_default.c ****     lv_style_set_border_side(&theme->styles.menu_cont, LV_BORDER_SIDE_NONE);
 482:Drivers/lvgl/src/themes/default/lv_theme_default.c **** 
 483:Drivers/lvgl/src/themes/default/lv_theme_default.c ****     style_init_reset(&theme->styles.menu_sidebar_cont);
 484:Drivers/lvgl/src/themes/default/lv_theme_default.c ****     lv_style_set_pad_all(&theme->styles.menu_sidebar_cont, 0);
 485:Drivers/lvgl/src/themes/default/lv_theme_default.c ****     lv_style_set_pad_gap(&theme->styles.menu_sidebar_cont, 0);
 486:Drivers/lvgl/src/themes/default/lv_theme_default.c ****     lv_style_set_border_width(&theme->styles.menu_sidebar_cont, LV_DPX_CALC(theme->disp_dpi, 1));
ARM GAS  /var/folders/qx/2_175_4n2s19vhvtspjhb3qh0000gn/T//ccFV8cem.s 			page 10


 487:Drivers/lvgl/src/themes/default/lv_theme_default.c ****     lv_style_set_border_opa(&theme->styles.menu_sidebar_cont, LV_OPA_10);
 488:Drivers/lvgl/src/themes/default/lv_theme_default.c ****     lv_style_set_border_color(&theme->styles.menu_sidebar_cont, theme->color_text);
 489:Drivers/lvgl/src/themes/default/lv_theme_default.c ****     lv_style_set_border_side(&theme->styles.menu_sidebar_cont, LV_BORDER_SIDE_RIGHT);
 490:Drivers/lvgl/src/themes/default/lv_theme_default.c **** 
 491:Drivers/lvgl/src/themes/default/lv_theme_default.c ****     style_init_reset(&theme->styles.menu_main_cont);
 492:Drivers/lvgl/src/themes/default/lv_theme_default.c ****     lv_style_set_pad_all(&theme->styles.menu_main_cont, 0);
 493:Drivers/lvgl/src/themes/default/lv_theme_default.c ****     lv_style_set_pad_gap(&theme->styles.menu_main_cont, 0);
 494:Drivers/lvgl/src/themes/default/lv_theme_default.c **** 
 495:Drivers/lvgl/src/themes/default/lv_theme_default.c ****     style_init_reset(&theme->styles.menu_header_cont);
 496:Drivers/lvgl/src/themes/default/lv_theme_default.c ****     lv_style_set_pad_hor(&theme->styles.menu_header_cont, PAD_SMALL);
 497:Drivers/lvgl/src/themes/default/lv_theme_default.c ****     lv_style_set_pad_ver(&theme->styles.menu_header_cont, PAD_TINY);
 498:Drivers/lvgl/src/themes/default/lv_theme_default.c ****     lv_style_set_pad_gap(&theme->styles.menu_header_cont, PAD_SMALL);
 499:Drivers/lvgl/src/themes/default/lv_theme_default.c **** 
 500:Drivers/lvgl/src/themes/default/lv_theme_default.c ****     style_init_reset(&theme->styles.menu_header_btn);
 501:Drivers/lvgl/src/themes/default/lv_theme_default.c ****     lv_style_set_pad_hor(&theme->styles.menu_header_btn, PAD_TINY);
 502:Drivers/lvgl/src/themes/default/lv_theme_default.c ****     lv_style_set_pad_ver(&theme->styles.menu_header_btn, PAD_TINY);
 503:Drivers/lvgl/src/themes/default/lv_theme_default.c ****     lv_style_set_shadow_opa(&theme->styles.menu_header_btn, LV_OPA_TRANSP);
 504:Drivers/lvgl/src/themes/default/lv_theme_default.c ****     lv_style_set_bg_opa(&theme->styles.menu_header_btn, LV_OPA_TRANSP);
 505:Drivers/lvgl/src/themes/default/lv_theme_default.c ****     lv_style_set_text_color(&theme->styles.menu_header_btn, theme->color_text);
 506:Drivers/lvgl/src/themes/default/lv_theme_default.c **** 
 507:Drivers/lvgl/src/themes/default/lv_theme_default.c ****     style_init_reset(&theme->styles.menu_page);
 508:Drivers/lvgl/src/themes/default/lv_theme_default.c ****     lv_style_set_pad_hor(&theme->styles.menu_page, 0);
 509:Drivers/lvgl/src/themes/default/lv_theme_default.c ****     lv_style_set_pad_gap(&theme->styles.menu_page, 0);
 510:Drivers/lvgl/src/themes/default/lv_theme_default.c **** 
 511:Drivers/lvgl/src/themes/default/lv_theme_default.c ****     style_init_reset(&theme->styles.menu_pressed);
 512:Drivers/lvgl/src/themes/default/lv_theme_default.c ****     lv_style_set_bg_opa(&theme->styles.menu_pressed, LV_OPA_20);
 513:Drivers/lvgl/src/themes/default/lv_theme_default.c ****     lv_style_set_bg_color(&theme->styles.menu_pressed, lv_palette_main(LV_PALETTE_GREY));
 514:Drivers/lvgl/src/themes/default/lv_theme_default.c **** 
 515:Drivers/lvgl/src/themes/default/lv_theme_default.c ****     style_init_reset(&theme->styles.menu_separator);
 516:Drivers/lvgl/src/themes/default/lv_theme_default.c ****     lv_style_set_bg_opa(&theme->styles.menu_separator, LV_OPA_TRANSP);
 517:Drivers/lvgl/src/themes/default/lv_theme_default.c ****     lv_style_set_pad_ver(&theme->styles.menu_separator, PAD_TINY);
 518:Drivers/lvgl/src/themes/default/lv_theme_default.c **** #endif
 519:Drivers/lvgl/src/themes/default/lv_theme_default.c **** 
 520:Drivers/lvgl/src/themes/default/lv_theme_default.c **** #if LV_USE_TABLE
 521:Drivers/lvgl/src/themes/default/lv_theme_default.c ****     style_init_reset(&theme->styles.table_cell);
 522:Drivers/lvgl/src/themes/default/lv_theme_default.c ****     lv_style_set_border_width(&theme->styles.table_cell, LV_DPX_CALC(theme->disp_dpi, 1));
 523:Drivers/lvgl/src/themes/default/lv_theme_default.c ****     lv_style_set_border_color(&theme->styles.table_cell, theme->color_grey);
 524:Drivers/lvgl/src/themes/default/lv_theme_default.c ****     lv_style_set_border_side(&theme->styles.table_cell, LV_BORDER_SIDE_TOP | LV_BORDER_SIDE_BOTTOM)
 525:Drivers/lvgl/src/themes/default/lv_theme_default.c **** #endif
 526:Drivers/lvgl/src/themes/default/lv_theme_default.c **** 
 527:Drivers/lvgl/src/themes/default/lv_theme_default.c **** #if LV_USE_TEXTAREA
 528:Drivers/lvgl/src/themes/default/lv_theme_default.c ****     style_init_reset(&theme->styles.ta_cursor);
 529:Drivers/lvgl/src/themes/default/lv_theme_default.c ****     lv_style_set_border_color(&theme->styles.ta_cursor, theme->color_text);
 530:Drivers/lvgl/src/themes/default/lv_theme_default.c ****     lv_style_set_border_width(&theme->styles.ta_cursor, LV_DPX_CALC(theme->disp_dpi, 2));
 531:Drivers/lvgl/src/themes/default/lv_theme_default.c ****     lv_style_set_pad_left(&theme->styles.ta_cursor, - LV_DPX_CALC(theme->disp_dpi, 1));
 532:Drivers/lvgl/src/themes/default/lv_theme_default.c ****     lv_style_set_border_side(&theme->styles.ta_cursor, LV_BORDER_SIDE_LEFT);
 533:Drivers/lvgl/src/themes/default/lv_theme_default.c ****     lv_style_set_anim_duration(&theme->styles.ta_cursor, 400);
 534:Drivers/lvgl/src/themes/default/lv_theme_default.c **** 
 535:Drivers/lvgl/src/themes/default/lv_theme_default.c ****     style_init_reset(&theme->styles.ta_placeholder);
 536:Drivers/lvgl/src/themes/default/lv_theme_default.c ****     lv_style_set_text_color(&theme->styles.ta_placeholder,
 537:Drivers/lvgl/src/themes/default/lv_theme_default.c ****                             (theme->base.flags & MODE_DARK) ? lv_palette_darken(LV_PALETTE_GREY,
 538:Drivers/lvgl/src/themes/default/lv_theme_default.c ****                                                                                 2) : lv_palette_lig
 539:Drivers/lvgl/src/themes/default/lv_theme_default.c **** #endif
 540:Drivers/lvgl/src/themes/default/lv_theme_default.c **** 
 541:Drivers/lvgl/src/themes/default/lv_theme_default.c **** #if LV_USE_CALENDAR
 542:Drivers/lvgl/src/themes/default/lv_theme_default.c ****     style_init_reset(&theme->styles.calendar_btnm_bg);
 543:Drivers/lvgl/src/themes/default/lv_theme_default.c ****     lv_style_set_pad_all(&theme->styles.calendar_btnm_bg, PAD_SMALL);
ARM GAS  /var/folders/qx/2_175_4n2s19vhvtspjhb3qh0000gn/T//ccFV8cem.s 			page 11


 544:Drivers/lvgl/src/themes/default/lv_theme_default.c ****     lv_style_set_pad_gap(&theme->styles.calendar_btnm_bg, PAD_SMALL / 2);
 545:Drivers/lvgl/src/themes/default/lv_theme_default.c **** 
 546:Drivers/lvgl/src/themes/default/lv_theme_default.c ****     style_init_reset(&theme->styles.calendar_btnm_day);
 547:Drivers/lvgl/src/themes/default/lv_theme_default.c ****     lv_style_set_border_width(&theme->styles.calendar_btnm_day, LV_DPX_CALC(theme->disp_dpi, 1));
 548:Drivers/lvgl/src/themes/default/lv_theme_default.c ****     lv_style_set_border_color(&theme->styles.calendar_btnm_day, theme->color_grey);
 549:Drivers/lvgl/src/themes/default/lv_theme_default.c ****     lv_style_set_bg_color(&theme->styles.calendar_btnm_day, theme->color_card);
 550:Drivers/lvgl/src/themes/default/lv_theme_default.c ****     lv_style_set_bg_opa(&theme->styles.calendar_btnm_day, LV_OPA_20);
 551:Drivers/lvgl/src/themes/default/lv_theme_default.c **** 
 552:Drivers/lvgl/src/themes/default/lv_theme_default.c ****     style_init_reset(&theme->styles.calendar_header);
 553:Drivers/lvgl/src/themes/default/lv_theme_default.c ****     lv_style_set_pad_hor(&theme->styles.calendar_header, PAD_SMALL);
 554:Drivers/lvgl/src/themes/default/lv_theme_default.c ****     lv_style_set_pad_top(&theme->styles.calendar_header, PAD_SMALL);
 555:Drivers/lvgl/src/themes/default/lv_theme_default.c ****     lv_style_set_pad_bottom(&theme->styles.calendar_header, PAD_TINY);
 556:Drivers/lvgl/src/themes/default/lv_theme_default.c ****     lv_style_set_pad_gap(&theme->styles.calendar_header, PAD_SMALL);
 557:Drivers/lvgl/src/themes/default/lv_theme_default.c **** #endif
 558:Drivers/lvgl/src/themes/default/lv_theme_default.c **** 
 559:Drivers/lvgl/src/themes/default/lv_theme_default.c **** #if LV_USE_MSGBOX
 560:Drivers/lvgl/src/themes/default/lv_theme_default.c ****     style_init_reset(&theme->styles.msgbox_backdrop_bg);
 561:Drivers/lvgl/src/themes/default/lv_theme_default.c ****     lv_style_set_bg_color(&theme->styles.msgbox_backdrop_bg, lv_palette_main(LV_PALETTE_GREY));
 562:Drivers/lvgl/src/themes/default/lv_theme_default.c ****     lv_style_set_bg_opa(&theme->styles.msgbox_backdrop_bg, LV_OPA_50);
 563:Drivers/lvgl/src/themes/default/lv_theme_default.c **** #endif
 564:Drivers/lvgl/src/themes/default/lv_theme_default.c **** #if LV_USE_KEYBOARD
 565:Drivers/lvgl/src/themes/default/lv_theme_default.c ****     style_init_reset(&theme->styles.keyboard_button_bg);
 566:Drivers/lvgl/src/themes/default/lv_theme_default.c ****     lv_style_set_shadow_width(&theme->styles.keyboard_button_bg, 0);
 567:Drivers/lvgl/src/themes/default/lv_theme_default.c ****     lv_style_set_radius(&theme->styles.keyboard_button_bg,
 568:Drivers/lvgl/src/themes/default/lv_theme_default.c ****                         theme->disp_size == DISP_SMALL ? RADIUS_DEFAULT / 2 : RADIUS_DEFAULT);
 569:Drivers/lvgl/src/themes/default/lv_theme_default.c **** #endif
 570:Drivers/lvgl/src/themes/default/lv_theme_default.c **** 
 571:Drivers/lvgl/src/themes/default/lv_theme_default.c **** #if LV_USE_TABVIEW
 572:Drivers/lvgl/src/themes/default/lv_theme_default.c ****     style_init_reset(&theme->styles.tab_btn);
 573:Drivers/lvgl/src/themes/default/lv_theme_default.c ****     lv_style_set_border_color(&theme->styles.tab_btn, theme->base.color_primary);
 574:Drivers/lvgl/src/themes/default/lv_theme_default.c ****     lv_style_set_border_width(&theme->styles.tab_btn, BORDER_WIDTH * 2);
 575:Drivers/lvgl/src/themes/default/lv_theme_default.c ****     lv_style_set_border_side(&theme->styles.tab_btn, LV_BORDER_SIDE_BOTTOM);
 576:Drivers/lvgl/src/themes/default/lv_theme_default.c ****     lv_style_set_pad_top(&theme->styles.tab_btn, BORDER_WIDTH * 2);
 577:Drivers/lvgl/src/themes/default/lv_theme_default.c **** 
 578:Drivers/lvgl/src/themes/default/lv_theme_default.c ****     style_init_reset(&theme->styles.tab_bg_focus);
 579:Drivers/lvgl/src/themes/default/lv_theme_default.c ****     lv_style_set_outline_pad(&theme->styles.tab_bg_focus, -BORDER_WIDTH);
 580:Drivers/lvgl/src/themes/default/lv_theme_default.c **** #endif
 581:Drivers/lvgl/src/themes/default/lv_theme_default.c **** 
 582:Drivers/lvgl/src/themes/default/lv_theme_default.c **** #if LV_USE_LIST
 583:Drivers/lvgl/src/themes/default/lv_theme_default.c ****     style_init_reset(&theme->styles.list_bg);
 584:Drivers/lvgl/src/themes/default/lv_theme_default.c ****     lv_style_set_pad_hor(&theme->styles.list_bg, PAD_DEF);
 585:Drivers/lvgl/src/themes/default/lv_theme_default.c ****     lv_style_set_pad_ver(&theme->styles.list_bg, 0);
 586:Drivers/lvgl/src/themes/default/lv_theme_default.c ****     lv_style_set_pad_gap(&theme->styles.list_bg, 0);
 587:Drivers/lvgl/src/themes/default/lv_theme_default.c ****     lv_style_set_clip_corner(&theme->styles.list_bg, true);
 588:Drivers/lvgl/src/themes/default/lv_theme_default.c **** 
 589:Drivers/lvgl/src/themes/default/lv_theme_default.c ****     style_init_reset(&theme->styles.list_btn);
 590:Drivers/lvgl/src/themes/default/lv_theme_default.c ****     lv_style_set_border_width(&theme->styles.list_btn, LV_DPX_CALC(theme->disp_dpi, 1));
 591:Drivers/lvgl/src/themes/default/lv_theme_default.c ****     lv_style_set_border_color(&theme->styles.list_btn, theme->color_grey);
 592:Drivers/lvgl/src/themes/default/lv_theme_default.c ****     lv_style_set_border_side(&theme->styles.list_btn, LV_BORDER_SIDE_BOTTOM);
 593:Drivers/lvgl/src/themes/default/lv_theme_default.c ****     lv_style_set_pad_all(&theme->styles.list_btn, PAD_SMALL);
 594:Drivers/lvgl/src/themes/default/lv_theme_default.c ****     lv_style_set_pad_column(&theme->styles.list_btn, PAD_SMALL);
 595:Drivers/lvgl/src/themes/default/lv_theme_default.c **** 
 596:Drivers/lvgl/src/themes/default/lv_theme_default.c ****     style_init_reset(&theme->styles.list_item_grow);
 597:Drivers/lvgl/src/themes/default/lv_theme_default.c ****     lv_style_set_transform_width(&theme->styles.list_item_grow, PAD_DEF);
 598:Drivers/lvgl/src/themes/default/lv_theme_default.c **** #endif
 599:Drivers/lvgl/src/themes/default/lv_theme_default.c **** 
 600:Drivers/lvgl/src/themes/default/lv_theme_default.c **** #if LV_USE_LED
ARM GAS  /var/folders/qx/2_175_4n2s19vhvtspjhb3qh0000gn/T//ccFV8cem.s 			page 12


 601:Drivers/lvgl/src/themes/default/lv_theme_default.c ****     style_init_reset(&theme->styles.led);
 602:Drivers/lvgl/src/themes/default/lv_theme_default.c ****     lv_style_set_bg_opa(&theme->styles.led, LV_OPA_COVER);
 603:Drivers/lvgl/src/themes/default/lv_theme_default.c ****     lv_style_set_bg_color(&theme->styles.led, lv_color_white());
 604:Drivers/lvgl/src/themes/default/lv_theme_default.c ****     lv_style_set_bg_grad_color(&theme->styles.led, lv_palette_main(LV_PALETTE_GREY));
 605:Drivers/lvgl/src/themes/default/lv_theme_default.c ****     lv_style_set_radius(&theme->styles.led, LV_RADIUS_CIRCLE);
 606:Drivers/lvgl/src/themes/default/lv_theme_default.c ****     lv_style_set_shadow_width(&theme->styles.led, LV_DPX_CALC(theme->disp_dpi, 15));
 607:Drivers/lvgl/src/themes/default/lv_theme_default.c ****     lv_style_set_shadow_color(&theme->styles.led, lv_color_white());
 608:Drivers/lvgl/src/themes/default/lv_theme_default.c ****     lv_style_set_shadow_spread(&theme->styles.led, LV_DPX_CALC(theme->disp_dpi, 5));
 609:Drivers/lvgl/src/themes/default/lv_theme_default.c **** #endif
 610:Drivers/lvgl/src/themes/default/lv_theme_default.c **** 
 611:Drivers/lvgl/src/themes/default/lv_theme_default.c **** #if LV_USE_SCALE
 612:Drivers/lvgl/src/themes/default/lv_theme_default.c ****     style_init_reset(&theme->styles.scale);
 613:Drivers/lvgl/src/themes/default/lv_theme_default.c ****     lv_style_set_line_color(&theme->styles.scale, theme->color_text);
 614:Drivers/lvgl/src/themes/default/lv_theme_default.c ****     lv_style_set_line_width(&theme->styles.scale, LV_DPX(2));
 615:Drivers/lvgl/src/themes/default/lv_theme_default.c ****     lv_style_set_arc_color(&theme->styles.scale, theme->color_text);
 616:Drivers/lvgl/src/themes/default/lv_theme_default.c ****     lv_style_set_arc_width(&theme->styles.scale, LV_DPX(2));
 617:Drivers/lvgl/src/themes/default/lv_theme_default.c ****     lv_style_set_length(&theme->styles.scale, LV_DPX(6));
 618:Drivers/lvgl/src/themes/default/lv_theme_default.c **** #endif
 619:Drivers/lvgl/src/themes/default/lv_theme_default.c **** }
 620:Drivers/lvgl/src/themes/default/lv_theme_default.c **** 
 621:Drivers/lvgl/src/themes/default/lv_theme_default.c **** /**********************
 622:Drivers/lvgl/src/themes/default/lv_theme_default.c ****  *   GLOBAL FUNCTIONS
 623:Drivers/lvgl/src/themes/default/lv_theme_default.c ****  **********************/
 624:Drivers/lvgl/src/themes/default/lv_theme_default.c **** 
 625:Drivers/lvgl/src/themes/default/lv_theme_default.c **** lv_theme_t * lv_theme_default_init(lv_display_t * disp, lv_color_t color_primary, lv_color_t color_
 626:Drivers/lvgl/src/themes/default/lv_theme_default.c ****                                    const lv_font_t * font)
 627:Drivers/lvgl/src/themes/default/lv_theme_default.c **** {
 628:Drivers/lvgl/src/themes/default/lv_theme_default.c ****     /*This trick is required only to avoid the garbage collection of
 629:Drivers/lvgl/src/themes/default/lv_theme_default.c ****      *styles' data if LVGL is used in a binding (e.g. MicroPython)
 630:Drivers/lvgl/src/themes/default/lv_theme_default.c ****      *In a general case styles could be in a simple `static lv_style_t my_style...` variables*/
 631:Drivers/lvgl/src/themes/default/lv_theme_default.c **** 
 632:Drivers/lvgl/src/themes/default/lv_theme_default.c ****     if(!lv_theme_default_is_inited()) {
 633:Drivers/lvgl/src/themes/default/lv_theme_default.c ****         theme_def = lv_malloc_zeroed(sizeof(my_theme_t));
 634:Drivers/lvgl/src/themes/default/lv_theme_default.c ****         LV_ASSERT_MALLOC(theme_def);
 635:Drivers/lvgl/src/themes/default/lv_theme_default.c ****     }
 636:Drivers/lvgl/src/themes/default/lv_theme_default.c **** 
 637:Drivers/lvgl/src/themes/default/lv_theme_default.c ****     my_theme_t * theme = theme_def;
 638:Drivers/lvgl/src/themes/default/lv_theme_default.c **** 
 639:Drivers/lvgl/src/themes/default/lv_theme_default.c ****     lv_display_t * new_disp = disp == NULL ? lv_display_get_default() : disp;
 640:Drivers/lvgl/src/themes/default/lv_theme_default.c ****     int32_t new_dpi = lv_display_get_dpi(new_disp);
 641:Drivers/lvgl/src/themes/default/lv_theme_default.c ****     int32_t hor_res = lv_display_get_horizontal_resolution(new_disp);
 642:Drivers/lvgl/src/themes/default/lv_theme_default.c ****     int32_t ver_res = lv_display_get_vertical_resolution(new_disp);
 643:Drivers/lvgl/src/themes/default/lv_theme_default.c ****     int32_t greater_res = LV_MAX(hor_res, ver_res);
 644:Drivers/lvgl/src/themes/default/lv_theme_default.c ****     disp_size_t new_size;
 645:Drivers/lvgl/src/themes/default/lv_theme_default.c **** 
 646:Drivers/lvgl/src/themes/default/lv_theme_default.c ****     if(greater_res <= 320) new_size = DISP_SMALL;
 647:Drivers/lvgl/src/themes/default/lv_theme_default.c ****     else if(greater_res < 720) new_size = DISP_MEDIUM;
 648:Drivers/lvgl/src/themes/default/lv_theme_default.c ****     else new_size = DISP_LARGE;
 649:Drivers/lvgl/src/themes/default/lv_theme_default.c **** 
 650:Drivers/lvgl/src/themes/default/lv_theme_default.c ****     /* check theme information whether will change or not*/
 651:Drivers/lvgl/src/themes/default/lv_theme_default.c ****     if(theme->inited && theme->disp_dpi == new_dpi &&
 652:Drivers/lvgl/src/themes/default/lv_theme_default.c ****        theme->disp_size == new_size &&
 653:Drivers/lvgl/src/themes/default/lv_theme_default.c ****        lv_color_eq(theme->base.color_primary, color_primary) &&
 654:Drivers/lvgl/src/themes/default/lv_theme_default.c ****        lv_color_eq(theme->base.color_secondary, color_secondary) &&
 655:Drivers/lvgl/src/themes/default/lv_theme_default.c ****        (theme->base.flags == (dark ? MODE_DARK : 0)) &&
 656:Drivers/lvgl/src/themes/default/lv_theme_default.c ****        theme->base.font_small == font) {
 657:Drivers/lvgl/src/themes/default/lv_theme_default.c ****         return (lv_theme_t *) theme;
ARM GAS  /var/folders/qx/2_175_4n2s19vhvtspjhb3qh0000gn/T//ccFV8cem.s 			page 13


 658:Drivers/lvgl/src/themes/default/lv_theme_default.c ****     }
 659:Drivers/lvgl/src/themes/default/lv_theme_default.c **** 
 660:Drivers/lvgl/src/themes/default/lv_theme_default.c ****     theme->disp_size = new_size;
 661:Drivers/lvgl/src/themes/default/lv_theme_default.c ****     theme->disp_dpi = new_dpi;
 662:Drivers/lvgl/src/themes/default/lv_theme_default.c ****     theme->base.disp = new_disp;
 663:Drivers/lvgl/src/themes/default/lv_theme_default.c ****     theme->base.color_primary = color_primary;
 664:Drivers/lvgl/src/themes/default/lv_theme_default.c ****     theme->base.color_secondary = color_secondary;
 665:Drivers/lvgl/src/themes/default/lv_theme_default.c ****     theme->base.font_small = font;
 666:Drivers/lvgl/src/themes/default/lv_theme_default.c ****     theme->base.font_normal = font;
 667:Drivers/lvgl/src/themes/default/lv_theme_default.c ****     theme->base.font_large = font;
 668:Drivers/lvgl/src/themes/default/lv_theme_default.c ****     theme->base.apply_cb = theme_apply;
 669:Drivers/lvgl/src/themes/default/lv_theme_default.c ****     theme->base.flags = dark ? MODE_DARK : 0;
 670:Drivers/lvgl/src/themes/default/lv_theme_default.c **** #if LV_USE_EXT_DATA
 671:Drivers/lvgl/src/themes/default/lv_theme_default.c ****     theme->base.ext_data.free_cb = NULL;
 672:Drivers/lvgl/src/themes/default/lv_theme_default.c ****     theme->base.ext_data.data = NULL;
 673:Drivers/lvgl/src/themes/default/lv_theme_default.c **** #endif
 674:Drivers/lvgl/src/themes/default/lv_theme_default.c **** 
 675:Drivers/lvgl/src/themes/default/lv_theme_default.c ****     style_init(theme);
 676:Drivers/lvgl/src/themes/default/lv_theme_default.c **** 
 677:Drivers/lvgl/src/themes/default/lv_theme_default.c ****     if(disp == NULL || lv_display_get_theme(disp) == (lv_theme_t *)theme) {
 678:Drivers/lvgl/src/themes/default/lv_theme_default.c ****         lv_obj_report_style_change(NULL);
 679:Drivers/lvgl/src/themes/default/lv_theme_default.c ****     }
 680:Drivers/lvgl/src/themes/default/lv_theme_default.c **** 
 681:Drivers/lvgl/src/themes/default/lv_theme_default.c ****     theme->inited = true;
 682:Drivers/lvgl/src/themes/default/lv_theme_default.c **** 
 683:Drivers/lvgl/src/themes/default/lv_theme_default.c ****     /*Re-initialize the styles if the resolution changes as a different display size might
 684:Drivers/lvgl/src/themes/default/lv_theme_default.c ****      *result in different paddings */
 685:Drivers/lvgl/src/themes/default/lv_theme_default.c ****     lv_display_remove_event_cb_with_user_data(new_disp, resolution_change_event_cb, theme);
 686:Drivers/lvgl/src/themes/default/lv_theme_default.c ****     lv_display_add_event_cb(new_disp, resolution_change_event_cb, LV_EVENT_RESOLUTION_CHANGED, them
 687:Drivers/lvgl/src/themes/default/lv_theme_default.c **** 
 688:Drivers/lvgl/src/themes/default/lv_theme_default.c ****     return (lv_theme_t *) theme;
 689:Drivers/lvgl/src/themes/default/lv_theme_default.c **** }
 690:Drivers/lvgl/src/themes/default/lv_theme_default.c **** 
 691:Drivers/lvgl/src/themes/default/lv_theme_default.c **** bool lv_theme_default_is_inited(void)
 692:Drivers/lvgl/src/themes/default/lv_theme_default.c **** {
 693:Drivers/lvgl/src/themes/default/lv_theme_default.c ****     my_theme_t * theme = theme_def;
 694:Drivers/lvgl/src/themes/default/lv_theme_default.c ****     if(theme == NULL) return false;
 695:Drivers/lvgl/src/themes/default/lv_theme_default.c ****     return theme->inited;
 696:Drivers/lvgl/src/themes/default/lv_theme_default.c **** }
 697:Drivers/lvgl/src/themes/default/lv_theme_default.c **** 
 698:Drivers/lvgl/src/themes/default/lv_theme_default.c **** lv_theme_t * lv_theme_default_get(void)
 699:Drivers/lvgl/src/themes/default/lv_theme_default.c **** {
 700:Drivers/lvgl/src/themes/default/lv_theme_default.c ****     if(!lv_theme_default_is_inited()) {
 701:Drivers/lvgl/src/themes/default/lv_theme_default.c ****         return NULL;
 702:Drivers/lvgl/src/themes/default/lv_theme_default.c ****     }
 703:Drivers/lvgl/src/themes/default/lv_theme_default.c **** 
 704:Drivers/lvgl/src/themes/default/lv_theme_default.c ****     return (lv_theme_t *)theme_def;
 705:Drivers/lvgl/src/themes/default/lv_theme_default.c **** }
 706:Drivers/lvgl/src/themes/default/lv_theme_default.c **** 
 707:Drivers/lvgl/src/themes/default/lv_theme_default.c **** void lv_theme_default_deinit(void)
 708:Drivers/lvgl/src/themes/default/lv_theme_default.c **** {
 709:Drivers/lvgl/src/themes/default/lv_theme_default.c ****     my_theme_t * theme = theme_def;
 710:Drivers/lvgl/src/themes/default/lv_theme_default.c ****     if(theme) {
 711:Drivers/lvgl/src/themes/default/lv_theme_default.c ****         if(theme->inited) {
 712:Drivers/lvgl/src/themes/default/lv_theme_default.c ****             lv_style_t * theme_styles = (lv_style_t *)(&(theme->styles));
 713:Drivers/lvgl/src/themes/default/lv_theme_default.c ****             uint32_t i;
 714:Drivers/lvgl/src/themes/default/lv_theme_default.c ****             for(i = 0; i < sizeof(my_theme_styles_t) / sizeof(lv_style_t); i++) {
ARM GAS  /var/folders/qx/2_175_4n2s19vhvtspjhb3qh0000gn/T//ccFV8cem.s 			page 14


 715:Drivers/lvgl/src/themes/default/lv_theme_default.c ****                 lv_style_reset(theme_styles + i);
 716:Drivers/lvgl/src/themes/default/lv_theme_default.c ****             }
 717:Drivers/lvgl/src/themes/default/lv_theme_default.c ****         }
 718:Drivers/lvgl/src/themes/default/lv_theme_default.c **** #if LV_USE_EXT_DATA
 719:Drivers/lvgl/src/themes/default/lv_theme_default.c ****         if(theme->base.ext_data.free_cb) {
 720:Drivers/lvgl/src/themes/default/lv_theme_default.c ****             theme->base.ext_data.free_cb(theme->base.ext_data.data);
 721:Drivers/lvgl/src/themes/default/lv_theme_default.c ****             theme->base.ext_data.data = NULL;
 722:Drivers/lvgl/src/themes/default/lv_theme_default.c ****         }
 723:Drivers/lvgl/src/themes/default/lv_theme_default.c **** #endif
 724:Drivers/lvgl/src/themes/default/lv_theme_default.c ****         lv_free(theme_def);
 725:Drivers/lvgl/src/themes/default/lv_theme_default.c ****         theme_def = NULL;
 726:Drivers/lvgl/src/themes/default/lv_theme_default.c ****     }
 727:Drivers/lvgl/src/themes/default/lv_theme_default.c **** }
 728:Drivers/lvgl/src/themes/default/lv_theme_default.c **** 
 729:Drivers/lvgl/src/themes/default/lv_theme_default.c **** /**********************
 730:Drivers/lvgl/src/themes/default/lv_theme_default.c ****  *   STATIC FUNCTIONS
 731:Drivers/lvgl/src/themes/default/lv_theme_default.c ****  **********************/
 732:Drivers/lvgl/src/themes/default/lv_theme_default.c **** 
 733:Drivers/lvgl/src/themes/default/lv_theme_default.c **** static void theme_apply(lv_theme_t * th, lv_obj_t * obj)
 734:Drivers/lvgl/src/themes/default/lv_theme_default.c **** {
  29              		.loc 1 734 1 view -0
  30              		.cfi_startproc
  31              		@ args = 0, pretend = 0, frame = 0
  32              		@ frame_needed = 0, uses_anonymous_args = 0
  33              		.loc 1 734 1 is_stmt 0 view .LVU1
  34 0000 F8B5     		push	{r3, r4, r5, r6, r7, lr}
  35              	.LCFI0:
  36              		.cfi_def_cfa_offset 24
  37              		.cfi_offset 3, -24
  38              		.cfi_offset 4, -20
  39              		.cfi_offset 5, -16
  40              		.cfi_offset 6, -12
  41              		.cfi_offset 7, -8
  42              		.cfi_offset 14, -4
  43 0002 0C46     		mov	r4, r1
 735:Drivers/lvgl/src/themes/default/lv_theme_default.c ****     LV_UNUSED(th);
  44              		.loc 1 735 5 is_stmt 1 view .LVU2
 736:Drivers/lvgl/src/themes/default/lv_theme_default.c **** 
 737:Drivers/lvgl/src/themes/default/lv_theme_default.c ****     my_theme_t * theme = theme_def;
  45              		.loc 1 737 5 view .LVU3
  46              		.loc 1 737 18 is_stmt 0 view .LVU4
  47 0004 D04B     		ldr	r3, .L71
  48 0006 D3F8CC51 		ldr	r5, [r3, #460]
  49              	.LVL1:
 738:Drivers/lvgl/src/themes/default/lv_theme_default.c ****     lv_obj_t * parent = lv_obj_get_parent(obj);
  50              		.loc 1 738 5 is_stmt 1 view .LVU5
  51              		.loc 1 738 25 is_stmt 0 view .LVU6
  52 000a 0846     		mov	r0, r1
  53              	.LVL2:
  54              		.loc 1 738 25 view .LVU7
  55 000c FFF7FEFF 		bl	lv_obj_get_parent
  56              	.LVL3:
 739:Drivers/lvgl/src/themes/default/lv_theme_default.c **** 
 740:Drivers/lvgl/src/themes/default/lv_theme_default.c ****     if(parent == NULL) {
  57              		.loc 1 740 5 is_stmt 1 view .LVU8
  58              		.loc 1 740 7 is_stmt 0 view .LVU9
  59 0010 0028     		cmp	r0, #0
ARM GAS  /var/folders/qx/2_175_4n2s19vhvtspjhb3qh0000gn/T//ccFV8cem.s 			page 15


  60 0012 54D0     		beq	.L61
  61 0014 0646     		mov	r6, r0
 741:Drivers/lvgl/src/themes/default/lv_theme_default.c ****         lv_obj_add_style(obj, &theme->styles.scr, 0);
 742:Drivers/lvgl/src/themes/default/lv_theme_default.c ****         lv_obj_add_style(obj, &theme->styles.scrollbar, LV_PART_SCROLLBAR);
 743:Drivers/lvgl/src/themes/default/lv_theme_default.c ****         lv_obj_add_style(obj, &theme->styles.scrollbar_scrolled, LV_PART_SCROLLBAR | LV_STATE_SCROL
 744:Drivers/lvgl/src/themes/default/lv_theme_default.c ****         return;
 745:Drivers/lvgl/src/themes/default/lv_theme_default.c ****     }
 746:Drivers/lvgl/src/themes/default/lv_theme_default.c **** 
 747:Drivers/lvgl/src/themes/default/lv_theme_default.c ****     if(lv_obj_check_type(obj, &lv_obj_class)) {
  62              		.loc 1 747 5 is_stmt 1 view .LVU10
  63              		.loc 1 747 8 is_stmt 0 view .LVU11
  64 0016 CD49     		ldr	r1, .L71+4
  65 0018 2046     		mov	r0, r4
  66              	.LVL4:
  67              		.loc 1 747 8 view .LVU12
  68 001a FFF7FEFF 		bl	lv_obj_check_type
  69              	.LVL5:
  70              		.loc 1 747 7 discriminator 1 view .LVU13
  71 001e 0028     		cmp	r0, #0
  72 0020 00F0B580 		beq	.L4
 748:Drivers/lvgl/src/themes/default/lv_theme_default.c **** #if LV_USE_TABVIEW
 749:Drivers/lvgl/src/themes/default/lv_theme_default.c ****         /*Tabview content area*/
 750:Drivers/lvgl/src/themes/default/lv_theme_default.c ****         if(lv_obj_check_type(parent, &lv_tabview_class) && lv_obj_get_child(parent, 1) == obj) {
  73              		.loc 1 750 9 is_stmt 1 view .LVU14
  74              		.loc 1 750 12 is_stmt 0 view .LVU15
  75 0024 CA49     		ldr	r1, .L71+8
  76 0026 3046     		mov	r0, r6
  77 0028 FFF7FEFF 		bl	lv_obj_check_type
  78              	.LVL6:
  79              		.loc 1 750 11 discriminator 1 view .LVU16
  80 002c 28B1     		cbz	r0, .L5
  81              		.loc 1 750 60 discriminator 1 view .LVU17
  82 002e 0121     		movs	r1, #1
  83 0030 3046     		mov	r0, r6
  84 0032 FFF7FEFF 		bl	lv_obj_get_child
  85              	.LVL7:
  86              		.loc 1 750 57 discriminator 1 view .LVU18
  87 0036 8442     		cmp	r4, r0
  88 0038 54D0     		beq	.L1
  89              	.L5:
 751:Drivers/lvgl/src/themes/default/lv_theme_default.c ****             return;
 752:Drivers/lvgl/src/themes/default/lv_theme_default.c ****         }
 753:Drivers/lvgl/src/themes/default/lv_theme_default.c ****         /*Tabview button container*/
 754:Drivers/lvgl/src/themes/default/lv_theme_default.c ****         else if(lv_obj_check_type(parent, &lv_tabview_class) && lv_obj_get_child(parent, 0) == obj)
  90              		.loc 1 754 14 is_stmt 1 view .LVU19
  91              		.loc 1 754 17 is_stmt 0 view .LVU20
  92 003a C549     		ldr	r1, .L71+8
  93 003c 3046     		mov	r0, r6
  94 003e FFF7FEFF 		bl	lv_obj_check_type
  95              	.LVL8:
  96              		.loc 1 754 16 discriminator 1 view .LVU21
  97 0042 28B1     		cbz	r0, .L6
  98              		.loc 1 754 65 discriminator 1 view .LVU22
  99 0044 0021     		movs	r1, #0
 100 0046 3046     		mov	r0, r6
 101 0048 FFF7FEFF 		bl	lv_obj_get_child
 102              	.LVL9:
ARM GAS  /var/folders/qx/2_175_4n2s19vhvtspjhb3qh0000gn/T//ccFV8cem.s 			page 16


 103              		.loc 1 754 62 discriminator 1 view .LVU23
 104 004c 8442     		cmp	r4, r0
 105 004e 4AD0     		beq	.L62
 106              	.L6:
 755:Drivers/lvgl/src/themes/default/lv_theme_default.c ****             lv_obj_add_style(obj, &theme->styles.bg_color_white, 0);
 756:Drivers/lvgl/src/themes/default/lv_theme_default.c ****             lv_obj_add_style(obj, &theme->styles.outline_primary, LV_STATE_FOCUS_KEY);
 757:Drivers/lvgl/src/themes/default/lv_theme_default.c ****             lv_obj_add_style(obj, &theme->styles.tab_bg_focus, LV_STATE_FOCUS_KEY);
 758:Drivers/lvgl/src/themes/default/lv_theme_default.c ****             return;
 759:Drivers/lvgl/src/themes/default/lv_theme_default.c ****         }
 760:Drivers/lvgl/src/themes/default/lv_theme_default.c ****         /*Tabview pages*/
 761:Drivers/lvgl/src/themes/default/lv_theme_default.c ****         else if(lv_obj_check_type(lv_obj_get_parent(parent), &lv_tabview_class)) {
 107              		.loc 1 761 14 is_stmt 1 view .LVU24
 108              		.loc 1 761 35 is_stmt 0 view .LVU25
 109 0050 3046     		mov	r0, r6
 110 0052 FFF7FEFF 		bl	lv_obj_get_parent
 111              	.LVL10:
 112              		.loc 1 761 17 discriminator 1 view .LVU26
 113 0056 BE49     		ldr	r1, .L71+8
 114 0058 FFF7FEFF 		bl	lv_obj_check_type
 115              	.LVL11:
 116              		.loc 1 761 16 discriminator 2 view .LVU27
 117 005c 0028     		cmp	r0, #0
 118 005e 55D1     		bne	.L63
 762:Drivers/lvgl/src/themes/default/lv_theme_default.c ****             lv_obj_add_style(obj, &theme->styles.pad_normal, 0);
 763:Drivers/lvgl/src/themes/default/lv_theme_default.c ****             lv_obj_add_style(obj, &theme->styles.rotary_scroll, 0);
 764:Drivers/lvgl/src/themes/default/lv_theme_default.c ****             lv_obj_add_style(obj, &theme->styles.scrollbar, LV_PART_SCROLLBAR);
 765:Drivers/lvgl/src/themes/default/lv_theme_default.c ****             lv_obj_add_style(obj, &theme->styles.scrollbar_scrolled, LV_PART_SCROLLBAR | LV_STATE_S
 766:Drivers/lvgl/src/themes/default/lv_theme_default.c ****             return;
 767:Drivers/lvgl/src/themes/default/lv_theme_default.c ****         }
 768:Drivers/lvgl/src/themes/default/lv_theme_default.c **** #endif
 769:Drivers/lvgl/src/themes/default/lv_theme_default.c **** 
 770:Drivers/lvgl/src/themes/default/lv_theme_default.c **** #if LV_USE_WIN
 771:Drivers/lvgl/src/themes/default/lv_theme_default.c ****         /*Header*/
 772:Drivers/lvgl/src/themes/default/lv_theme_default.c ****         if(lv_obj_check_type(parent, &lv_win_class) && lv_obj_get_child(parent, 0) == obj) {
 119              		.loc 1 772 9 is_stmt 1 view .LVU28
 120              		.loc 1 772 12 is_stmt 0 view .LVU29
 121 0060 BC49     		ldr	r1, .L71+12
 122 0062 3046     		mov	r0, r6
 123 0064 FFF7FEFF 		bl	lv_obj_check_type
 124              	.LVL12:
 125              		.loc 1 772 11 discriminator 1 view .LVU30
 126 0068 28B1     		cbz	r0, .L8
 127              		.loc 1 772 56 discriminator 1 view .LVU31
 128 006a 0021     		movs	r1, #0
 129 006c 3046     		mov	r0, r6
 130 006e FFF7FEFF 		bl	lv_obj_get_child
 131              	.LVL13:
 132              		.loc 1 772 53 discriminator 1 view .LVU32
 133 0072 8442     		cmp	r4, r0
 134 0074 64D0     		beq	.L64
 135              	.L8:
 773:Drivers/lvgl/src/themes/default/lv_theme_default.c ****             lv_obj_add_style(obj, &theme->styles.bg_color_grey, 0);
 774:Drivers/lvgl/src/themes/default/lv_theme_default.c ****             lv_obj_add_style(obj, &theme->styles.pad_tiny, 0);
 775:Drivers/lvgl/src/themes/default/lv_theme_default.c ****             return;
 776:Drivers/lvgl/src/themes/default/lv_theme_default.c ****         }
 777:Drivers/lvgl/src/themes/default/lv_theme_default.c ****         /*Content*/
 778:Drivers/lvgl/src/themes/default/lv_theme_default.c ****         else if(lv_obj_check_type(parent, &lv_win_class) && lv_obj_get_child(parent, 1) == obj) {
ARM GAS  /var/folders/qx/2_175_4n2s19vhvtspjhb3qh0000gn/T//ccFV8cem.s 			page 17


 136              		.loc 1 778 14 is_stmt 1 view .LVU33
 137              		.loc 1 778 17 is_stmt 0 view .LVU34
 138 0076 B749     		ldr	r1, .L71+12
 139 0078 3046     		mov	r0, r6
 140 007a FFF7FEFF 		bl	lv_obj_check_type
 141              	.LVL14:
 142              		.loc 1 778 16 discriminator 1 view .LVU35
 143 007e 28B1     		cbz	r0, .L9
 144              		.loc 1 778 61 discriminator 1 view .LVU36
 145 0080 0121     		movs	r1, #1
 146 0082 3046     		mov	r0, r6
 147 0084 FFF7FEFF 		bl	lv_obj_get_child
 148              	.LVL15:
 149              		.loc 1 778 58 discriminator 1 view .LVU37
 150 0088 8442     		cmp	r4, r0
 151 008a 66D0     		beq	.L65
 152              	.L9:
 779:Drivers/lvgl/src/themes/default/lv_theme_default.c ****             lv_obj_add_style(obj, &theme->styles.scr, 0);
 780:Drivers/lvgl/src/themes/default/lv_theme_default.c ****             lv_obj_add_style(obj, &theme->styles.pad_normal, 0);
 781:Drivers/lvgl/src/themes/default/lv_theme_default.c ****             lv_obj_add_style(obj, &theme->styles.scrollbar, LV_PART_SCROLLBAR);
 782:Drivers/lvgl/src/themes/default/lv_theme_default.c ****             lv_obj_add_style(obj, &theme->styles.scrollbar_scrolled, LV_PART_SCROLLBAR | LV_STATE_S
 783:Drivers/lvgl/src/themes/default/lv_theme_default.c ****             return;
 784:Drivers/lvgl/src/themes/default/lv_theme_default.c ****         }
 785:Drivers/lvgl/src/themes/default/lv_theme_default.c **** #endif
 786:Drivers/lvgl/src/themes/default/lv_theme_default.c **** 
 787:Drivers/lvgl/src/themes/default/lv_theme_default.c **** #if LV_USE_CALENDAR
 788:Drivers/lvgl/src/themes/default/lv_theme_default.c ****         if(lv_obj_check_type(parent, &lv_calendar_class)) {
 153              		.loc 1 788 9 is_stmt 1 view .LVU38
 154              		.loc 1 788 12 is_stmt 0 view .LVU39
 155 008c B249     		ldr	r1, .L71+16
 156 008e 3046     		mov	r0, r6
 157 0090 FFF7FEFF 		bl	lv_obj_check_type
 158              	.LVL16:
 159              		.loc 1 788 11 discriminator 1 view .LVU40
 160 0094 30BB     		cbnz	r0, .L1
 789:Drivers/lvgl/src/themes/default/lv_theme_default.c ****             /*No style*/
 790:Drivers/lvgl/src/themes/default/lv_theme_default.c ****             return;
 791:Drivers/lvgl/src/themes/default/lv_theme_default.c ****         }
 792:Drivers/lvgl/src/themes/default/lv_theme_default.c **** #endif
 793:Drivers/lvgl/src/themes/default/lv_theme_default.c **** 
 794:Drivers/lvgl/src/themes/default/lv_theme_default.c ****         lv_obj_add_style(obj, &theme->styles.card, 0);
 161              		.loc 1 794 9 is_stmt 1 view .LVU41
 162 0096 0022     		movs	r2, #0
 163 0098 05F16401 		add	r1, r5, #100
 164 009c 2046     		mov	r0, r4
 165 009e FFF7FEFF 		bl	lv_obj_add_style
 166              	.LVL17:
 795:Drivers/lvgl/src/themes/default/lv_theme_default.c ****         lv_obj_add_style(obj, &theme->styles.scrollbar, LV_PART_SCROLLBAR);
 167              		.loc 1 795 9 view .LVU42
 168 00a2 4FF48032 		mov	r2, #65536
 169 00a6 05F14C01 		add	r1, r5, #76
 170 00aa 2046     		mov	r0, r4
 171 00ac FFF7FEFF 		bl	lv_obj_add_style
 172              	.LVL18:
 796:Drivers/lvgl/src/themes/default/lv_theme_default.c ****         lv_obj_add_style(obj, &theme->styles.scrollbar_scrolled, LV_PART_SCROLLBAR | LV_STATE_SCROL
 173              		.loc 1 796 9 view .LVU43
 174 00b0 AA4A     		ldr	r2, .L71+20
ARM GAS  /var/folders/qx/2_175_4n2s19vhvtspjhb3qh0000gn/T//ccFV8cem.s 			page 18


 175 00b2 05F15801 		add	r1, r5, #88
 176 00b6 2046     		mov	r0, r4
 177 00b8 FFF7FEFF 		bl	lv_obj_add_style
 178              	.LVL19:
 179 00bc 12E0     		b	.L1
 180              	.LVL20:
 181              	.L61:
 741:Drivers/lvgl/src/themes/default/lv_theme_default.c ****         lv_obj_add_style(obj, &theme->styles.scrollbar, LV_PART_SCROLLBAR);
 182              		.loc 1 741 9 view .LVU44
 183 00be 0022     		movs	r2, #0
 184 00c0 05F14001 		add	r1, r5, #64
 185 00c4 2046     		mov	r0, r4
 186              	.LVL21:
 741:Drivers/lvgl/src/themes/default/lv_theme_default.c ****         lv_obj_add_style(obj, &theme->styles.scrollbar, LV_PART_SCROLLBAR);
 187              		.loc 1 741 9 is_stmt 0 view .LVU45
 188 00c6 FFF7FEFF 		bl	lv_obj_add_style
 189              	.LVL22:
 742:Drivers/lvgl/src/themes/default/lv_theme_default.c ****         lv_obj_add_style(obj, &theme->styles.scrollbar_scrolled, LV_PART_SCROLLBAR | LV_STATE_SCROL
 190              		.loc 1 742 9 is_stmt 1 view .LVU46
 191 00ca 4FF48032 		mov	r2, #65536
 192 00ce 05F14C01 		add	r1, r5, #76
 193 00d2 2046     		mov	r0, r4
 194 00d4 FFF7FEFF 		bl	lv_obj_add_style
 195              	.LVL23:
 743:Drivers/lvgl/src/themes/default/lv_theme_default.c ****         return;
 196              		.loc 1 743 9 view .LVU47
 197 00d8 A04A     		ldr	r2, .L71+20
 198 00da 05F15801 		add	r1, r5, #88
 199 00de 2046     		mov	r0, r4
 200 00e0 FFF7FEFF 		bl	lv_obj_add_style
 201              	.LVL24:
 744:Drivers/lvgl/src/themes/default/lv_theme_default.c ****     }
 202              		.loc 1 744 9 view .LVU48
 203              	.L1:
 797:Drivers/lvgl/src/themes/default/lv_theme_default.c ****     }
 798:Drivers/lvgl/src/themes/default/lv_theme_default.c **** #if LV_USE_BUTTON
 799:Drivers/lvgl/src/themes/default/lv_theme_default.c ****     else if(lv_obj_check_type(obj, &lv_button_class)) {
 800:Drivers/lvgl/src/themes/default/lv_theme_default.c **** 
 801:Drivers/lvgl/src/themes/default/lv_theme_default.c **** #if LV_USE_TABVIEW
 802:Drivers/lvgl/src/themes/default/lv_theme_default.c ****         lv_obj_t * tv = lv_obj_get_parent(parent); /*parent is the tabview header*/
 803:Drivers/lvgl/src/themes/default/lv_theme_default.c ****         if(tv && lv_obj_get_child(tv, 0) == parent) { /*The button is on the tab view header*/
 804:Drivers/lvgl/src/themes/default/lv_theme_default.c ****             if(lv_obj_check_type(tv, &lv_tabview_class)) {
 805:Drivers/lvgl/src/themes/default/lv_theme_default.c ****                 lv_obj_add_style(obj, &theme->styles.pressed, LV_STATE_PRESSED);
 806:Drivers/lvgl/src/themes/default/lv_theme_default.c ****                 lv_obj_add_style(obj, &theme->styles.bg_color_primary_muted, LV_STATE_CHECKED);
 807:Drivers/lvgl/src/themes/default/lv_theme_default.c ****                 lv_obj_add_style(obj, &theme->styles.tab_btn, LV_STATE_CHECKED);
 808:Drivers/lvgl/src/themes/default/lv_theme_default.c ****                 lv_obj_add_style(obj, &theme->styles.outline_primary, LV_STATE_FOCUS_KEY);
 809:Drivers/lvgl/src/themes/default/lv_theme_default.c ****                 lv_obj_add_style(obj, &theme->styles.outline_secondary, LV_STATE_EDITED);
 810:Drivers/lvgl/src/themes/default/lv_theme_default.c ****                 lv_obj_add_style(obj, &theme->styles.tab_bg_focus, LV_STATE_FOCUS_KEY);
 811:Drivers/lvgl/src/themes/default/lv_theme_default.c ****                 return;
 812:Drivers/lvgl/src/themes/default/lv_theme_default.c ****             }
 813:Drivers/lvgl/src/themes/default/lv_theme_default.c ****         }
 814:Drivers/lvgl/src/themes/default/lv_theme_default.c **** #endif
 815:Drivers/lvgl/src/themes/default/lv_theme_default.c ****         lv_obj_add_style(obj, &theme->styles.btn, 0);
 816:Drivers/lvgl/src/themes/default/lv_theme_default.c ****         lv_obj_add_style(obj, &theme->styles.bg_color_primary, 0);
 817:Drivers/lvgl/src/themes/default/lv_theme_default.c ****         lv_obj_add_style(obj, &theme->styles.transition_delayed, 0);
 818:Drivers/lvgl/src/themes/default/lv_theme_default.c ****         lv_obj_add_style(obj, &theme->styles.pressed, LV_STATE_PRESSED);
 819:Drivers/lvgl/src/themes/default/lv_theme_default.c ****         lv_obj_add_style(obj, &theme->styles.transition_normal, LV_STATE_PRESSED);
ARM GAS  /var/folders/qx/2_175_4n2s19vhvtspjhb3qh0000gn/T//ccFV8cem.s 			page 19


 820:Drivers/lvgl/src/themes/default/lv_theme_default.c ****         lv_obj_add_style(obj, &theme->styles.outline_primary, LV_STATE_FOCUS_KEY);
 821:Drivers/lvgl/src/themes/default/lv_theme_default.c **** #if LV_THEME_DEFAULT_GROW
 822:Drivers/lvgl/src/themes/default/lv_theme_default.c ****         lv_obj_add_style(obj, &theme->styles.grow, LV_STATE_PRESSED);
 823:Drivers/lvgl/src/themes/default/lv_theme_default.c **** #endif
 824:Drivers/lvgl/src/themes/default/lv_theme_default.c ****         lv_obj_add_style(obj, &theme->styles.bg_color_secondary, LV_STATE_CHECKED);
 825:Drivers/lvgl/src/themes/default/lv_theme_default.c ****         lv_obj_add_style(obj, &theme->styles.disabled, LV_STATE_DISABLED);
 826:Drivers/lvgl/src/themes/default/lv_theme_default.c **** 
 827:Drivers/lvgl/src/themes/default/lv_theme_default.c **** #if LV_USE_MENU
 828:Drivers/lvgl/src/themes/default/lv_theme_default.c ****         if(lv_obj_check_type(parent, &lv_menu_sidebar_header_cont_class) ||
 829:Drivers/lvgl/src/themes/default/lv_theme_default.c ****            lv_obj_check_type(parent, &lv_menu_main_header_cont_class)) {
 830:Drivers/lvgl/src/themes/default/lv_theme_default.c ****             lv_obj_add_style(obj, &theme->styles.menu_header_btn, 0);
 831:Drivers/lvgl/src/themes/default/lv_theme_default.c ****             lv_obj_add_style(obj, &theme->styles.menu_pressed, LV_STATE_PRESSED);
 832:Drivers/lvgl/src/themes/default/lv_theme_default.c ****         }
 833:Drivers/lvgl/src/themes/default/lv_theme_default.c **** #endif
 834:Drivers/lvgl/src/themes/default/lv_theme_default.c ****     }
 835:Drivers/lvgl/src/themes/default/lv_theme_default.c **** #endif
 836:Drivers/lvgl/src/themes/default/lv_theme_default.c **** 
 837:Drivers/lvgl/src/themes/default/lv_theme_default.c **** #if LV_USE_LINE
 838:Drivers/lvgl/src/themes/default/lv_theme_default.c ****     else if(lv_obj_check_type(obj, &lv_line_class)) {
 839:Drivers/lvgl/src/themes/default/lv_theme_default.c ****         lv_obj_add_style(obj, &theme->styles.line, 0);
 840:Drivers/lvgl/src/themes/default/lv_theme_default.c ****     }
 841:Drivers/lvgl/src/themes/default/lv_theme_default.c **** #endif
 842:Drivers/lvgl/src/themes/default/lv_theme_default.c **** 
 843:Drivers/lvgl/src/themes/default/lv_theme_default.c **** #if LV_USE_BUTTONMATRIX
 844:Drivers/lvgl/src/themes/default/lv_theme_default.c ****     else if(lv_obj_check_type(obj, &lv_buttonmatrix_class)) {
 845:Drivers/lvgl/src/themes/default/lv_theme_default.c **** 
 846:Drivers/lvgl/src/themes/default/lv_theme_default.c **** #if LV_USE_CALENDAR
 847:Drivers/lvgl/src/themes/default/lv_theme_default.c ****         if(lv_obj_check_type(parent, &lv_calendar_class)) {
 848:Drivers/lvgl/src/themes/default/lv_theme_default.c ****             lv_obj_add_style(obj, &theme->styles.calendar_btnm_bg, 0);
 849:Drivers/lvgl/src/themes/default/lv_theme_default.c ****             lv_obj_add_style(obj, &theme->styles.outline_primary, LV_STATE_FOCUS_KEY);
 850:Drivers/lvgl/src/themes/default/lv_theme_default.c ****             lv_obj_add_style(obj, &theme->styles.outline_secondary, LV_STATE_EDITED);
 851:Drivers/lvgl/src/themes/default/lv_theme_default.c ****             lv_obj_add_style(obj, &theme->styles.calendar_btnm_day, LV_PART_ITEMS);
 852:Drivers/lvgl/src/themes/default/lv_theme_default.c ****             lv_obj_add_style(obj, &theme->styles.pressed, LV_PART_ITEMS | LV_STATE_PRESSED);
 853:Drivers/lvgl/src/themes/default/lv_theme_default.c ****             lv_obj_add_style(obj, &theme->styles.disabled, LV_PART_ITEMS | LV_STATE_DISABLED);
 854:Drivers/lvgl/src/themes/default/lv_theme_default.c ****             lv_obj_add_style(obj, &theme->styles.outline_primary, LV_PART_ITEMS | LV_STATE_FOCUS_KE
 855:Drivers/lvgl/src/themes/default/lv_theme_default.c ****             lv_obj_add_style(obj, &theme->styles.outline_secondary, LV_PART_ITEMS | LV_STATE_EDITED
 856:Drivers/lvgl/src/themes/default/lv_theme_default.c ****             return;
 857:Drivers/lvgl/src/themes/default/lv_theme_default.c ****         }
 858:Drivers/lvgl/src/themes/default/lv_theme_default.c **** #endif
 859:Drivers/lvgl/src/themes/default/lv_theme_default.c ****         lv_obj_add_style(obj, &theme->styles.card, 0);
 860:Drivers/lvgl/src/themes/default/lv_theme_default.c ****         lv_obj_add_style(obj, &theme->styles.outline_primary, LV_STATE_FOCUS_KEY);
 861:Drivers/lvgl/src/themes/default/lv_theme_default.c ****         lv_obj_add_style(obj, &theme->styles.outline_secondary, LV_STATE_EDITED);
 862:Drivers/lvgl/src/themes/default/lv_theme_default.c ****         lv_obj_add_style(obj, &theme->styles.btn, LV_PART_ITEMS);
 863:Drivers/lvgl/src/themes/default/lv_theme_default.c ****         lv_obj_add_style(obj, &theme->styles.disabled, LV_PART_ITEMS | LV_STATE_DISABLED);
 864:Drivers/lvgl/src/themes/default/lv_theme_default.c ****         lv_obj_add_style(obj, &theme->styles.pressed, LV_PART_ITEMS | LV_STATE_PRESSED);
 865:Drivers/lvgl/src/themes/default/lv_theme_default.c ****         lv_obj_add_style(obj, &theme->styles.bg_color_primary, LV_PART_ITEMS | LV_STATE_CHECKED);
 866:Drivers/lvgl/src/themes/default/lv_theme_default.c ****         lv_obj_add_style(obj, &theme->styles.outline_primary, LV_PART_ITEMS | LV_STATE_FOCUS_KEY);
 867:Drivers/lvgl/src/themes/default/lv_theme_default.c ****         lv_obj_add_style(obj, &theme->styles.outline_secondary, LV_PART_ITEMS | LV_STATE_EDITED);
 868:Drivers/lvgl/src/themes/default/lv_theme_default.c ****     }
 869:Drivers/lvgl/src/themes/default/lv_theme_default.c **** #endif
 870:Drivers/lvgl/src/themes/default/lv_theme_default.c **** 
 871:Drivers/lvgl/src/themes/default/lv_theme_default.c **** #if LV_USE_BAR
 872:Drivers/lvgl/src/themes/default/lv_theme_default.c ****     else if(lv_obj_check_type(obj, &lv_bar_class)) {
 873:Drivers/lvgl/src/themes/default/lv_theme_default.c ****         lv_obj_add_style(obj, &theme->styles.bg_color_primary_muted, 0);
 874:Drivers/lvgl/src/themes/default/lv_theme_default.c ****         lv_obj_add_style(obj, &theme->styles.circle, 0);
 875:Drivers/lvgl/src/themes/default/lv_theme_default.c ****         lv_obj_add_style(obj, &theme->styles.outline_primary, LV_STATE_FOCUS_KEY);
 876:Drivers/lvgl/src/themes/default/lv_theme_default.c ****         lv_obj_add_style(obj, &theme->styles.outline_secondary, LV_STATE_EDITED);
ARM GAS  /var/folders/qx/2_175_4n2s19vhvtspjhb3qh0000gn/T//ccFV8cem.s 			page 20


 877:Drivers/lvgl/src/themes/default/lv_theme_default.c ****         lv_obj_add_style(obj, &theme->styles.bg_color_primary, LV_PART_INDICATOR);
 878:Drivers/lvgl/src/themes/default/lv_theme_default.c ****         lv_obj_add_style(obj, &theme->styles.circle, LV_PART_INDICATOR);
 879:Drivers/lvgl/src/themes/default/lv_theme_default.c ****     }
 880:Drivers/lvgl/src/themes/default/lv_theme_default.c **** #endif
 881:Drivers/lvgl/src/themes/default/lv_theme_default.c **** 
 882:Drivers/lvgl/src/themes/default/lv_theme_default.c **** #if LV_USE_SLIDER
 883:Drivers/lvgl/src/themes/default/lv_theme_default.c ****     else if(lv_obj_check_type(obj, &lv_slider_class)) {
 884:Drivers/lvgl/src/themes/default/lv_theme_default.c ****         lv_obj_add_style(obj, &theme->styles.bg_color_primary_muted, 0);
 885:Drivers/lvgl/src/themes/default/lv_theme_default.c ****         lv_obj_add_style(obj, &theme->styles.circle, 0);
 886:Drivers/lvgl/src/themes/default/lv_theme_default.c ****         lv_obj_add_style(obj, &theme->styles.outline_primary, LV_STATE_FOCUS_KEY);
 887:Drivers/lvgl/src/themes/default/lv_theme_default.c ****         lv_obj_add_style(obj, &theme->styles.outline_secondary, LV_STATE_EDITED);
 888:Drivers/lvgl/src/themes/default/lv_theme_default.c ****         lv_obj_add_style(obj, &theme->styles.bg_color_primary, LV_PART_INDICATOR);
 889:Drivers/lvgl/src/themes/default/lv_theme_default.c ****         lv_obj_add_style(obj, &theme->styles.circle, LV_PART_INDICATOR);
 890:Drivers/lvgl/src/themes/default/lv_theme_default.c ****         lv_obj_add_style(obj, &theme->styles.knob, LV_PART_KNOB);
 891:Drivers/lvgl/src/themes/default/lv_theme_default.c **** #if LV_THEME_DEFAULT_GROW
 892:Drivers/lvgl/src/themes/default/lv_theme_default.c ****         lv_obj_add_style(obj, &theme->styles.grow, LV_PART_KNOB | LV_STATE_PRESSED);
 893:Drivers/lvgl/src/themes/default/lv_theme_default.c **** #endif
 894:Drivers/lvgl/src/themes/default/lv_theme_default.c ****         lv_obj_add_style(obj, &theme->styles.transition_delayed, LV_PART_KNOB);
 895:Drivers/lvgl/src/themes/default/lv_theme_default.c ****         lv_obj_add_style(obj, &theme->styles.transition_normal, LV_PART_KNOB | LV_STATE_PRESSED);
 896:Drivers/lvgl/src/themes/default/lv_theme_default.c ****     }
 897:Drivers/lvgl/src/themes/default/lv_theme_default.c **** #endif
 898:Drivers/lvgl/src/themes/default/lv_theme_default.c **** 
 899:Drivers/lvgl/src/themes/default/lv_theme_default.c **** #if LV_USE_TABLE
 900:Drivers/lvgl/src/themes/default/lv_theme_default.c ****     else if(lv_obj_check_type(obj, &lv_table_class)) {
 901:Drivers/lvgl/src/themes/default/lv_theme_default.c ****         lv_obj_add_style(obj, &theme->styles.card, 0);
 902:Drivers/lvgl/src/themes/default/lv_theme_default.c ****         lv_obj_add_style(obj, &theme->styles.pad_zero, 0);
 903:Drivers/lvgl/src/themes/default/lv_theme_default.c ****         lv_obj_add_style(obj, &theme->styles.no_radius, 0);
 904:Drivers/lvgl/src/themes/default/lv_theme_default.c ****         lv_obj_add_style(obj, &theme->styles.outline_primary, LV_STATE_FOCUS_KEY);
 905:Drivers/lvgl/src/themes/default/lv_theme_default.c ****         lv_obj_add_style(obj, &theme->styles.outline_secondary, LV_STATE_EDITED);
 906:Drivers/lvgl/src/themes/default/lv_theme_default.c ****         lv_obj_add_style(obj, &theme->styles.scrollbar, LV_PART_SCROLLBAR);
 907:Drivers/lvgl/src/themes/default/lv_theme_default.c ****         lv_obj_add_style(obj, &theme->styles.scrollbar_scrolled, LV_PART_SCROLLBAR | LV_STATE_SCROL
 908:Drivers/lvgl/src/themes/default/lv_theme_default.c ****         lv_obj_add_style(obj, &theme->styles.bg_color_white, LV_PART_ITEMS);
 909:Drivers/lvgl/src/themes/default/lv_theme_default.c ****         lv_obj_add_style(obj, &theme->styles.table_cell, LV_PART_ITEMS);
 910:Drivers/lvgl/src/themes/default/lv_theme_default.c ****         lv_obj_add_style(obj, &theme->styles.pad_normal, LV_PART_ITEMS);
 911:Drivers/lvgl/src/themes/default/lv_theme_default.c ****         lv_obj_add_style(obj, &theme->styles.pressed, LV_PART_ITEMS | LV_STATE_PRESSED);
 912:Drivers/lvgl/src/themes/default/lv_theme_default.c ****         lv_obj_add_style(obj, &theme->styles.bg_color_primary, LV_PART_ITEMS | LV_STATE_FOCUS_KEY);
 913:Drivers/lvgl/src/themes/default/lv_theme_default.c ****         lv_obj_add_style(obj, &theme->styles.bg_color_secondary, LV_PART_ITEMS | LV_STATE_EDITED);
 914:Drivers/lvgl/src/themes/default/lv_theme_default.c ****     }
 915:Drivers/lvgl/src/themes/default/lv_theme_default.c **** #endif
 916:Drivers/lvgl/src/themes/default/lv_theme_default.c **** 
 917:Drivers/lvgl/src/themes/default/lv_theme_default.c **** #if LV_USE_CHECKBOX
 918:Drivers/lvgl/src/themes/default/lv_theme_default.c ****     else if(lv_obj_check_type(obj, &lv_checkbox_class)) {
 919:Drivers/lvgl/src/themes/default/lv_theme_default.c ****         lv_obj_add_style(obj, &theme->styles.pad_gap, 0);
 920:Drivers/lvgl/src/themes/default/lv_theme_default.c ****         lv_obj_add_style(obj, &theme->styles.outline_primary, LV_STATE_FOCUS_KEY);
 921:Drivers/lvgl/src/themes/default/lv_theme_default.c ****         lv_obj_add_style(obj, &theme->styles.disabled, LV_PART_INDICATOR | LV_STATE_DISABLED);
 922:Drivers/lvgl/src/themes/default/lv_theme_default.c ****         lv_obj_add_style(obj, &theme->styles.cb_marker, LV_PART_INDICATOR);
 923:Drivers/lvgl/src/themes/default/lv_theme_default.c ****         lv_obj_add_style(obj, &theme->styles.bg_color_primary, LV_PART_INDICATOR | LV_STATE_CHECKED
 924:Drivers/lvgl/src/themes/default/lv_theme_default.c ****         lv_obj_add_style(obj, &theme->styles.cb_marker_checked, LV_PART_INDICATOR | LV_STATE_CHECKE
 925:Drivers/lvgl/src/themes/default/lv_theme_default.c ****         lv_obj_add_style(obj, &theme->styles.pressed, LV_PART_INDICATOR | LV_STATE_PRESSED);
 926:Drivers/lvgl/src/themes/default/lv_theme_default.c **** #if LV_THEME_DEFAULT_GROW
 927:Drivers/lvgl/src/themes/default/lv_theme_default.c ****         lv_obj_add_style(obj, &theme->styles.grow, LV_PART_INDICATOR | LV_STATE_PRESSED);
 928:Drivers/lvgl/src/themes/default/lv_theme_default.c **** #endif
 929:Drivers/lvgl/src/themes/default/lv_theme_default.c ****         lv_obj_add_style(obj, &theme->styles.transition_normal, LV_PART_INDICATOR | LV_STATE_PRESSE
 930:Drivers/lvgl/src/themes/default/lv_theme_default.c ****         lv_obj_add_style(obj, &theme->styles.transition_delayed, LV_PART_INDICATOR);
 931:Drivers/lvgl/src/themes/default/lv_theme_default.c ****     }
 932:Drivers/lvgl/src/themes/default/lv_theme_default.c **** #endif
 933:Drivers/lvgl/src/themes/default/lv_theme_default.c **** 
ARM GAS  /var/folders/qx/2_175_4n2s19vhvtspjhb3qh0000gn/T//ccFV8cem.s 			page 21


 934:Drivers/lvgl/src/themes/default/lv_theme_default.c **** #if LV_USE_SWITCH
 935:Drivers/lvgl/src/themes/default/lv_theme_default.c ****     else if(lv_obj_check_type(obj, &lv_switch_class)) {
 936:Drivers/lvgl/src/themes/default/lv_theme_default.c ****         lv_obj_add_style(obj, &theme->styles.bg_color_grey, 0);
 937:Drivers/lvgl/src/themes/default/lv_theme_default.c ****         lv_obj_add_style(obj, &theme->styles.circle, 0);
 938:Drivers/lvgl/src/themes/default/lv_theme_default.c ****         lv_obj_add_style(obj, &theme->styles.anim_fast, 0);
 939:Drivers/lvgl/src/themes/default/lv_theme_default.c ****         lv_obj_add_style(obj, &theme->styles.disabled, LV_STATE_DISABLED);
 940:Drivers/lvgl/src/themes/default/lv_theme_default.c ****         lv_obj_add_style(obj, &theme->styles.outline_primary, LV_STATE_FOCUS_KEY);
 941:Drivers/lvgl/src/themes/default/lv_theme_default.c ****         lv_obj_add_style(obj, &theme->styles.bg_color_primary, LV_PART_INDICATOR | LV_STATE_CHECKED
 942:Drivers/lvgl/src/themes/default/lv_theme_default.c ****         lv_obj_add_style(obj, &theme->styles.circle, LV_PART_INDICATOR);
 943:Drivers/lvgl/src/themes/default/lv_theme_default.c ****         lv_obj_add_style(obj, &theme->styles.knob, LV_PART_KNOB);
 944:Drivers/lvgl/src/themes/default/lv_theme_default.c ****         lv_obj_add_style(obj, &theme->styles.bg_color_white, LV_PART_KNOB);
 945:Drivers/lvgl/src/themes/default/lv_theme_default.c ****         lv_obj_add_style(obj, &theme->styles.switch_knob, LV_PART_KNOB);
 946:Drivers/lvgl/src/themes/default/lv_theme_default.c **** 
 947:Drivers/lvgl/src/themes/default/lv_theme_default.c ****         lv_obj_add_style(obj, &theme->styles.transition_normal, LV_PART_INDICATOR | LV_STATE_CHECKE
 948:Drivers/lvgl/src/themes/default/lv_theme_default.c ****         lv_obj_add_style(obj, &theme->styles.transition_normal, LV_PART_INDICATOR);
 949:Drivers/lvgl/src/themes/default/lv_theme_default.c ****     }
 950:Drivers/lvgl/src/themes/default/lv_theme_default.c **** #endif
 951:Drivers/lvgl/src/themes/default/lv_theme_default.c **** 
 952:Drivers/lvgl/src/themes/default/lv_theme_default.c **** #if LV_USE_CHART
 953:Drivers/lvgl/src/themes/default/lv_theme_default.c ****     else if(lv_obj_check_type(obj, &lv_chart_class)) {
 954:Drivers/lvgl/src/themes/default/lv_theme_default.c ****         lv_obj_add_style(obj, &theme->styles.card, 0);
 955:Drivers/lvgl/src/themes/default/lv_theme_default.c ****         lv_obj_add_style(obj, &theme->styles.pad_small, 0);
 956:Drivers/lvgl/src/themes/default/lv_theme_default.c ****         lv_obj_add_style(obj, &theme->styles.chart_bg, 0);
 957:Drivers/lvgl/src/themes/default/lv_theme_default.c ****         lv_obj_add_style(obj, &theme->styles.scrollbar, LV_PART_SCROLLBAR);
 958:Drivers/lvgl/src/themes/default/lv_theme_default.c ****         lv_obj_add_style(obj, &theme->styles.scrollbar_scrolled, LV_PART_SCROLLBAR | LV_STATE_SCROL
 959:Drivers/lvgl/src/themes/default/lv_theme_default.c ****         lv_obj_add_style(obj, &theme->styles.chart_series, LV_PART_ITEMS);
 960:Drivers/lvgl/src/themes/default/lv_theme_default.c ****         lv_obj_add_style(obj, &theme->styles.chart_indic, LV_PART_INDICATOR);
 961:Drivers/lvgl/src/themes/default/lv_theme_default.c ****         lv_obj_add_style(obj, &theme->styles.chart_series, LV_PART_CURSOR);
 962:Drivers/lvgl/src/themes/default/lv_theme_default.c ****     }
 963:Drivers/lvgl/src/themes/default/lv_theme_default.c **** #endif
 964:Drivers/lvgl/src/themes/default/lv_theme_default.c **** 
 965:Drivers/lvgl/src/themes/default/lv_theme_default.c **** #if LV_USE_ROLLER
 966:Drivers/lvgl/src/themes/default/lv_theme_default.c ****     else if(lv_obj_check_type(obj, &lv_roller_class)) {
 967:Drivers/lvgl/src/themes/default/lv_theme_default.c ****         lv_obj_add_style(obj, &theme->styles.card, 0);
 968:Drivers/lvgl/src/themes/default/lv_theme_default.c ****         lv_obj_add_style(obj, &theme->styles.anim, 0);
 969:Drivers/lvgl/src/themes/default/lv_theme_default.c ****         lv_obj_add_style(obj, &theme->styles.line_space_large, 0);
 970:Drivers/lvgl/src/themes/default/lv_theme_default.c ****         lv_obj_add_style(obj, &theme->styles.text_align_center, 0);
 971:Drivers/lvgl/src/themes/default/lv_theme_default.c ****         lv_obj_add_style(obj, &theme->styles.outline_primary, LV_STATE_FOCUS_KEY);
 972:Drivers/lvgl/src/themes/default/lv_theme_default.c ****         lv_obj_add_style(obj, &theme->styles.outline_secondary, LV_STATE_EDITED);
 973:Drivers/lvgl/src/themes/default/lv_theme_default.c ****         lv_obj_add_style(obj, &theme->styles.bg_color_primary, LV_PART_SELECTED);
 974:Drivers/lvgl/src/themes/default/lv_theme_default.c ****     }
 975:Drivers/lvgl/src/themes/default/lv_theme_default.c **** #endif
 976:Drivers/lvgl/src/themes/default/lv_theme_default.c **** 
 977:Drivers/lvgl/src/themes/default/lv_theme_default.c **** #if LV_USE_DROPDOWN
 978:Drivers/lvgl/src/themes/default/lv_theme_default.c ****     else if(lv_obj_check_type(obj, &lv_dropdown_class)) {
 979:Drivers/lvgl/src/themes/default/lv_theme_default.c ****         lv_obj_add_style(obj, &theme->styles.card, 0);
 980:Drivers/lvgl/src/themes/default/lv_theme_default.c ****         lv_obj_add_style(obj, &theme->styles.pad_small, 0);
 981:Drivers/lvgl/src/themes/default/lv_theme_default.c ****         lv_obj_add_style(obj, &theme->styles.transition_delayed, 0);
 982:Drivers/lvgl/src/themes/default/lv_theme_default.c ****         lv_obj_add_style(obj, &theme->styles.transition_normal, LV_STATE_PRESSED);
 983:Drivers/lvgl/src/themes/default/lv_theme_default.c ****         lv_obj_add_style(obj, &theme->styles.pressed, LV_STATE_PRESSED);
 984:Drivers/lvgl/src/themes/default/lv_theme_default.c ****         lv_obj_add_style(obj, &theme->styles.outline_primary, LV_STATE_FOCUS_KEY);
 985:Drivers/lvgl/src/themes/default/lv_theme_default.c ****         lv_obj_add_style(obj, &theme->styles.outline_secondary, LV_STATE_EDITED);
 986:Drivers/lvgl/src/themes/default/lv_theme_default.c ****         lv_obj_add_style(obj, &theme->styles.transition_normal, LV_PART_INDICATOR);
 987:Drivers/lvgl/src/themes/default/lv_theme_default.c ****         lv_obj_add_style(obj, &theme->styles.disabled, LV_STATE_DISABLED);
 988:Drivers/lvgl/src/themes/default/lv_theme_default.c ****     }
 989:Drivers/lvgl/src/themes/default/lv_theme_default.c ****     else if(lv_obj_check_type(obj, &lv_dropdownlist_class)) {
 990:Drivers/lvgl/src/themes/default/lv_theme_default.c ****         lv_obj_add_style(obj, &theme->styles.card, 0);
ARM GAS  /var/folders/qx/2_175_4n2s19vhvtspjhb3qh0000gn/T//ccFV8cem.s 			page 22


 991:Drivers/lvgl/src/themes/default/lv_theme_default.c ****         lv_obj_add_style(obj, &theme->styles.line_space_large, 0);
 992:Drivers/lvgl/src/themes/default/lv_theme_default.c ****         lv_obj_add_style(obj, &theme->styles.dropdown_list, 0);
 993:Drivers/lvgl/src/themes/default/lv_theme_default.c ****         lv_obj_add_style(obj, &theme->styles.scrollbar, LV_PART_SCROLLBAR);
 994:Drivers/lvgl/src/themes/default/lv_theme_default.c ****         lv_obj_add_style(obj, &theme->styles.scrollbar_scrolled, LV_PART_SCROLLBAR | LV_STATE_SCROL
 995:Drivers/lvgl/src/themes/default/lv_theme_default.c ****         lv_obj_add_style(obj, &theme->styles.bg_color_white, LV_PART_SELECTED);
 996:Drivers/lvgl/src/themes/default/lv_theme_default.c ****         lv_obj_add_style(obj, &theme->styles.bg_color_primary, LV_PART_SELECTED | LV_STATE_CHECKED)
 997:Drivers/lvgl/src/themes/default/lv_theme_default.c ****         lv_obj_add_style(obj, &theme->styles.pressed, LV_PART_SELECTED | LV_STATE_PRESSED);
 998:Drivers/lvgl/src/themes/default/lv_theme_default.c ****     }
 999:Drivers/lvgl/src/themes/default/lv_theme_default.c **** #endif
1000:Drivers/lvgl/src/themes/default/lv_theme_default.c **** 
1001:Drivers/lvgl/src/themes/default/lv_theme_default.c **** #if LV_USE_ARC
1002:Drivers/lvgl/src/themes/default/lv_theme_default.c ****     else if(lv_obj_check_type(obj, &lv_arc_class)) {
1003:Drivers/lvgl/src/themes/default/lv_theme_default.c ****         lv_obj_add_style(obj, &theme->styles.arc_indic, 0);
1004:Drivers/lvgl/src/themes/default/lv_theme_default.c ****         lv_obj_add_style(obj, &theme->styles.arc_indic, LV_PART_INDICATOR);
1005:Drivers/lvgl/src/themes/default/lv_theme_default.c ****         lv_obj_add_style(obj, &theme->styles.arc_indic_primary, LV_PART_INDICATOR);
1006:Drivers/lvgl/src/themes/default/lv_theme_default.c ****         lv_obj_add_style(obj, &theme->styles.knob, LV_PART_KNOB);
1007:Drivers/lvgl/src/themes/default/lv_theme_default.c ****     }
1008:Drivers/lvgl/src/themes/default/lv_theme_default.c **** #endif
1009:Drivers/lvgl/src/themes/default/lv_theme_default.c **** 
1010:Drivers/lvgl/src/themes/default/lv_theme_default.c **** #if LV_USE_SPINNER
1011:Drivers/lvgl/src/themes/default/lv_theme_default.c ****     else if(lv_obj_check_type(obj, &lv_spinner_class)) {
1012:Drivers/lvgl/src/themes/default/lv_theme_default.c ****         lv_obj_add_style(obj, &theme->styles.arc_indic, 0);
1013:Drivers/lvgl/src/themes/default/lv_theme_default.c ****         lv_obj_add_style(obj, &theme->styles.arc_indic, LV_PART_INDICATOR);
1014:Drivers/lvgl/src/themes/default/lv_theme_default.c ****         lv_obj_add_style(obj, &theme->styles.arc_indic_primary, LV_PART_INDICATOR);
1015:Drivers/lvgl/src/themes/default/lv_theme_default.c ****     }
1016:Drivers/lvgl/src/themes/default/lv_theme_default.c **** #endif
1017:Drivers/lvgl/src/themes/default/lv_theme_default.c **** 
1018:Drivers/lvgl/src/themes/default/lv_theme_default.c **** #if LV_USE_TEXTAREA
1019:Drivers/lvgl/src/themes/default/lv_theme_default.c ****     else if(lv_obj_check_type(obj, &lv_textarea_class)) {
1020:Drivers/lvgl/src/themes/default/lv_theme_default.c ****         lv_obj_add_style(obj, &theme->styles.card, 0);
1021:Drivers/lvgl/src/themes/default/lv_theme_default.c ****         lv_obj_add_style(obj, &theme->styles.pad_small, 0);
1022:Drivers/lvgl/src/themes/default/lv_theme_default.c ****         lv_obj_add_style(obj, &theme->styles.disabled, LV_STATE_DISABLED);
1023:Drivers/lvgl/src/themes/default/lv_theme_default.c ****         lv_obj_add_style(obj, &theme->styles.outline_primary, LV_STATE_FOCUS_KEY);
1024:Drivers/lvgl/src/themes/default/lv_theme_default.c ****         lv_obj_add_style(obj, &theme->styles.outline_secondary, LV_STATE_EDITED);
1025:Drivers/lvgl/src/themes/default/lv_theme_default.c ****         lv_obj_add_style(obj, &theme->styles.scrollbar, LV_PART_SCROLLBAR);
1026:Drivers/lvgl/src/themes/default/lv_theme_default.c ****         lv_obj_add_style(obj, &theme->styles.scrollbar_scrolled, LV_PART_SCROLLBAR | LV_STATE_SCROL
1027:Drivers/lvgl/src/themes/default/lv_theme_default.c ****         lv_obj_add_style(obj, &theme->styles.ta_cursor, LV_PART_CURSOR | LV_STATE_FOCUSED);
1028:Drivers/lvgl/src/themes/default/lv_theme_default.c ****         lv_obj_add_style(obj, &theme->styles.ta_placeholder, LV_PART_TEXTAREA_PLACEHOLDER);
1029:Drivers/lvgl/src/themes/default/lv_theme_default.c ****     }
1030:Drivers/lvgl/src/themes/default/lv_theme_default.c **** #endif
1031:Drivers/lvgl/src/themes/default/lv_theme_default.c **** 
1032:Drivers/lvgl/src/themes/default/lv_theme_default.c **** #if LV_USE_CALENDAR
1033:Drivers/lvgl/src/themes/default/lv_theme_default.c ****     else if(lv_obj_check_type(obj, &lv_calendar_class)) {
1034:Drivers/lvgl/src/themes/default/lv_theme_default.c ****         lv_obj_add_style(obj, &theme->styles.card, 0);
1035:Drivers/lvgl/src/themes/default/lv_theme_default.c ****         lv_obj_add_style(obj, &theme->styles.pad_zero, 0);
1036:Drivers/lvgl/src/themes/default/lv_theme_default.c ****     }
1037:Drivers/lvgl/src/themes/default/lv_theme_default.c **** 
1038:Drivers/lvgl/src/themes/default/lv_theme_default.c **** #if LV_USE_CALENDAR_HEADER_ARROW
1039:Drivers/lvgl/src/themes/default/lv_theme_default.c ****     else if(lv_obj_check_type(obj, &lv_calendar_header_arrow_class)) {
1040:Drivers/lvgl/src/themes/default/lv_theme_default.c ****         lv_obj_add_style(obj, &theme->styles.calendar_header, 0);
1041:Drivers/lvgl/src/themes/default/lv_theme_default.c ****     }
1042:Drivers/lvgl/src/themes/default/lv_theme_default.c **** #endif
1043:Drivers/lvgl/src/themes/default/lv_theme_default.c **** 
1044:Drivers/lvgl/src/themes/default/lv_theme_default.c **** #if LV_USE_CALENDAR_HEADER_DROPDOWN
1045:Drivers/lvgl/src/themes/default/lv_theme_default.c ****     else if(lv_obj_check_type(obj, &lv_calendar_header_dropdown_class)) {
1046:Drivers/lvgl/src/themes/default/lv_theme_default.c ****         lv_obj_add_style(obj, &theme->styles.calendar_header, 0);
1047:Drivers/lvgl/src/themes/default/lv_theme_default.c ****     }
ARM GAS  /var/folders/qx/2_175_4n2s19vhvtspjhb3qh0000gn/T//ccFV8cem.s 			page 23


1048:Drivers/lvgl/src/themes/default/lv_theme_default.c **** #endif
1049:Drivers/lvgl/src/themes/default/lv_theme_default.c **** #endif
1050:Drivers/lvgl/src/themes/default/lv_theme_default.c **** 
1051:Drivers/lvgl/src/themes/default/lv_theme_default.c **** #if LV_USE_KEYBOARD
1052:Drivers/lvgl/src/themes/default/lv_theme_default.c ****     else if(lv_obj_check_type(obj, &lv_keyboard_class)) {
1053:Drivers/lvgl/src/themes/default/lv_theme_default.c ****         lv_obj_add_style(obj, &theme->styles.scr, 0);
1054:Drivers/lvgl/src/themes/default/lv_theme_default.c ****         lv_obj_add_style(obj, theme->disp_size == DISP_LARGE ? &theme->styles.pad_small : &theme->s
1055:Drivers/lvgl/src/themes/default/lv_theme_default.c ****         lv_obj_add_style(obj, &theme->styles.outline_primary, LV_STATE_FOCUS_KEY);
1056:Drivers/lvgl/src/themes/default/lv_theme_default.c ****         lv_obj_add_style(obj, &theme->styles.outline_secondary, LV_STATE_EDITED);
1057:Drivers/lvgl/src/themes/default/lv_theme_default.c ****         lv_obj_add_style(obj, &theme->styles.btn, LV_PART_ITEMS);
1058:Drivers/lvgl/src/themes/default/lv_theme_default.c ****         lv_obj_add_style(obj, &theme->styles.disabled, LV_PART_ITEMS | LV_STATE_DISABLED);
1059:Drivers/lvgl/src/themes/default/lv_theme_default.c ****         lv_obj_add_style(obj, &theme->styles.bg_color_white, LV_PART_ITEMS);
1060:Drivers/lvgl/src/themes/default/lv_theme_default.c ****         lv_obj_add_style(obj, &theme->styles.keyboard_button_bg, LV_PART_ITEMS);
1061:Drivers/lvgl/src/themes/default/lv_theme_default.c ****         lv_obj_add_style(obj, &theme->styles.pressed, LV_PART_ITEMS | LV_STATE_PRESSED);
1062:Drivers/lvgl/src/themes/default/lv_theme_default.c ****         lv_obj_add_style(obj, &theme->styles.bg_color_grey, LV_PART_ITEMS | LV_STATE_CHECKED);
1063:Drivers/lvgl/src/themes/default/lv_theme_default.c ****         lv_obj_add_style(obj, &theme->styles.bg_color_primary_muted, LV_PART_ITEMS | LV_STATE_FOCUS
1064:Drivers/lvgl/src/themes/default/lv_theme_default.c ****         lv_obj_add_style(obj, &theme->styles.bg_color_secondary_muted, LV_PART_ITEMS | LV_STATE_EDI
1065:Drivers/lvgl/src/themes/default/lv_theme_default.c ****     }
1066:Drivers/lvgl/src/themes/default/lv_theme_default.c **** #endif
1067:Drivers/lvgl/src/themes/default/lv_theme_default.c **** 
1068:Drivers/lvgl/src/themes/default/lv_theme_default.c **** #if LV_USE_LABEL && LV_USE_TEXTAREA
1069:Drivers/lvgl/src/themes/default/lv_theme_default.c ****     else if(lv_obj_check_type(obj, &lv_label_class) && lv_obj_check_type(parent, &lv_textarea_class
1070:Drivers/lvgl/src/themes/default/lv_theme_default.c ****         lv_obj_add_style(obj, &theme->styles.bg_color_primary, LV_PART_SELECTED);
1071:Drivers/lvgl/src/themes/default/lv_theme_default.c ****     }
1072:Drivers/lvgl/src/themes/default/lv_theme_default.c **** #endif
1073:Drivers/lvgl/src/themes/default/lv_theme_default.c **** 
1074:Drivers/lvgl/src/themes/default/lv_theme_default.c **** #if LV_USE_LIST
1075:Drivers/lvgl/src/themes/default/lv_theme_default.c ****     else if(lv_obj_check_type(obj, &lv_list_class)) {
1076:Drivers/lvgl/src/themes/default/lv_theme_default.c ****         lv_obj_add_style(obj, &theme->styles.card, 0);
1077:Drivers/lvgl/src/themes/default/lv_theme_default.c ****         lv_obj_add_style(obj, &theme->styles.list_bg, 0);
1078:Drivers/lvgl/src/themes/default/lv_theme_default.c ****         lv_obj_add_style(obj, &theme->styles.scrollbar, LV_PART_SCROLLBAR);
1079:Drivers/lvgl/src/themes/default/lv_theme_default.c ****         lv_obj_add_style(obj, &theme->styles.scrollbar_scrolled, LV_PART_SCROLLBAR | LV_STATE_SCROL
1080:Drivers/lvgl/src/themes/default/lv_theme_default.c ****         return;
1081:Drivers/lvgl/src/themes/default/lv_theme_default.c ****     }
1082:Drivers/lvgl/src/themes/default/lv_theme_default.c ****     else if(lv_obj_check_type(obj, &lv_list_text_class)) {
1083:Drivers/lvgl/src/themes/default/lv_theme_default.c ****         lv_obj_add_style(obj, &theme->styles.bg_color_grey, 0);
1084:Drivers/lvgl/src/themes/default/lv_theme_default.c ****         lv_obj_add_style(obj, &theme->styles.list_item_grow, 0);
1085:Drivers/lvgl/src/themes/default/lv_theme_default.c ****     }
1086:Drivers/lvgl/src/themes/default/lv_theme_default.c ****     else if(lv_obj_check_type(obj, &lv_list_button_class)) {
1087:Drivers/lvgl/src/themes/default/lv_theme_default.c ****         lv_obj_add_style(obj, &theme->styles.bg_color_white, 0);
1088:Drivers/lvgl/src/themes/default/lv_theme_default.c ****         lv_obj_add_style(obj, &theme->styles.list_btn, 0);
1089:Drivers/lvgl/src/themes/default/lv_theme_default.c ****         lv_obj_add_style(obj, &theme->styles.bg_color_primary, LV_STATE_FOCUS_KEY);
1090:Drivers/lvgl/src/themes/default/lv_theme_default.c ****         lv_obj_add_style(obj, &theme->styles.list_item_grow, LV_STATE_FOCUS_KEY);
1091:Drivers/lvgl/src/themes/default/lv_theme_default.c ****         lv_obj_add_style(obj, &theme->styles.list_item_grow, LV_STATE_PRESSED);
1092:Drivers/lvgl/src/themes/default/lv_theme_default.c ****         lv_obj_add_style(obj, &theme->styles.pressed, LV_STATE_PRESSED);
1093:Drivers/lvgl/src/themes/default/lv_theme_default.c ****     }
1094:Drivers/lvgl/src/themes/default/lv_theme_default.c **** #endif
1095:Drivers/lvgl/src/themes/default/lv_theme_default.c **** #if LV_USE_MENU
1096:Drivers/lvgl/src/themes/default/lv_theme_default.c ****     else if(lv_obj_check_type(obj, &lv_menu_class)) {
1097:Drivers/lvgl/src/themes/default/lv_theme_default.c ****         lv_obj_add_style(obj, &theme->styles.card, 0);
1098:Drivers/lvgl/src/themes/default/lv_theme_default.c ****         lv_obj_add_style(obj, &theme->styles.menu_bg, 0);
1099:Drivers/lvgl/src/themes/default/lv_theme_default.c ****     }
1100:Drivers/lvgl/src/themes/default/lv_theme_default.c ****     else if(lv_obj_check_type(obj, &lv_menu_sidebar_cont_class)) {
1101:Drivers/lvgl/src/themes/default/lv_theme_default.c ****         lv_obj_add_style(obj, &theme->styles.menu_sidebar_cont, 0);
1102:Drivers/lvgl/src/themes/default/lv_theme_default.c ****         lv_obj_add_style(obj, &theme->styles.scrollbar, LV_PART_SCROLLBAR);
1103:Drivers/lvgl/src/themes/default/lv_theme_default.c ****         lv_obj_add_style(obj, &theme->styles.scrollbar_scrolled, LV_PART_SCROLLBAR | LV_STATE_SCROL
1104:Drivers/lvgl/src/themes/default/lv_theme_default.c ****     }
ARM GAS  /var/folders/qx/2_175_4n2s19vhvtspjhb3qh0000gn/T//ccFV8cem.s 			page 24


1105:Drivers/lvgl/src/themes/default/lv_theme_default.c ****     else if(lv_obj_check_type(obj, &lv_menu_main_cont_class)) {
1106:Drivers/lvgl/src/themes/default/lv_theme_default.c ****         lv_obj_add_style(obj, &theme->styles.menu_main_cont, 0);
1107:Drivers/lvgl/src/themes/default/lv_theme_default.c ****         lv_obj_add_style(obj, &theme->styles.scrollbar, LV_PART_SCROLLBAR);
1108:Drivers/lvgl/src/themes/default/lv_theme_default.c ****         lv_obj_add_style(obj, &theme->styles.scrollbar_scrolled, LV_PART_SCROLLBAR | LV_STATE_SCROL
1109:Drivers/lvgl/src/themes/default/lv_theme_default.c ****     }
1110:Drivers/lvgl/src/themes/default/lv_theme_default.c ****     else if(lv_obj_check_type(obj, &lv_menu_cont_class)) {
1111:Drivers/lvgl/src/themes/default/lv_theme_default.c ****         lv_obj_add_style(obj, &theme->styles.menu_cont, 0);
1112:Drivers/lvgl/src/themes/default/lv_theme_default.c ****         lv_obj_add_style(obj, &theme->styles.menu_pressed, LV_STATE_PRESSED);
1113:Drivers/lvgl/src/themes/default/lv_theme_default.c ****         lv_obj_add_style(obj, &theme->styles.bg_color_primary_muted, LV_STATE_PRESSED | LV_STATE_CH
1114:Drivers/lvgl/src/themes/default/lv_theme_default.c ****         lv_obj_add_style(obj, &theme->styles.bg_color_primary_muted, LV_STATE_CHECKED);
1115:Drivers/lvgl/src/themes/default/lv_theme_default.c ****         lv_obj_add_style(obj, &theme->styles.bg_color_primary, LV_STATE_FOCUS_KEY);
1116:Drivers/lvgl/src/themes/default/lv_theme_default.c ****     }
1117:Drivers/lvgl/src/themes/default/lv_theme_default.c ****     else if(lv_obj_check_type(obj, &lv_menu_sidebar_header_cont_class) ||
1118:Drivers/lvgl/src/themes/default/lv_theme_default.c ****             lv_obj_check_type(obj, &lv_menu_main_header_cont_class)) {
1119:Drivers/lvgl/src/themes/default/lv_theme_default.c ****         lv_obj_add_style(obj, &theme->styles.menu_header_cont, 0);
1120:Drivers/lvgl/src/themes/default/lv_theme_default.c ****     }
1121:Drivers/lvgl/src/themes/default/lv_theme_default.c ****     else if(lv_obj_check_type(obj, &lv_menu_page_class)) {
1122:Drivers/lvgl/src/themes/default/lv_theme_default.c ****         lv_obj_add_style(obj, &theme->styles.menu_page, 0);
1123:Drivers/lvgl/src/themes/default/lv_theme_default.c ****         lv_obj_add_style(obj, &theme->styles.scrollbar, LV_PART_SCROLLBAR);
1124:Drivers/lvgl/src/themes/default/lv_theme_default.c ****         lv_obj_add_style(obj, &theme->styles.scrollbar_scrolled, LV_PART_SCROLLBAR | LV_STATE_SCROL
1125:Drivers/lvgl/src/themes/default/lv_theme_default.c ****     }
1126:Drivers/lvgl/src/themes/default/lv_theme_default.c ****     else if(lv_obj_check_type(obj, &lv_menu_section_class)) {
1127:Drivers/lvgl/src/themes/default/lv_theme_default.c ****         lv_obj_add_style(obj, &theme->styles.menu_section, 0);
1128:Drivers/lvgl/src/themes/default/lv_theme_default.c ****     }
1129:Drivers/lvgl/src/themes/default/lv_theme_default.c ****     else if(lv_obj_check_type(obj, &lv_menu_separator_class)) {
1130:Drivers/lvgl/src/themes/default/lv_theme_default.c ****         lv_obj_add_style(obj, &theme->styles.menu_separator, 0);
1131:Drivers/lvgl/src/themes/default/lv_theme_default.c ****     }
1132:Drivers/lvgl/src/themes/default/lv_theme_default.c **** #endif
1133:Drivers/lvgl/src/themes/default/lv_theme_default.c **** #if LV_USE_MSGBOX
1134:Drivers/lvgl/src/themes/default/lv_theme_default.c ****     else if(lv_obj_check_type(obj, &lv_msgbox_class)) {
1135:Drivers/lvgl/src/themes/default/lv_theme_default.c ****         lv_obj_add_style(obj, &theme->styles.card, 0);
1136:Drivers/lvgl/src/themes/default/lv_theme_default.c ****         lv_obj_add_style(obj, &theme->styles.pad_zero, 0);
1137:Drivers/lvgl/src/themes/default/lv_theme_default.c ****         lv_obj_add_style(obj, &theme->styles.clip_corner, 0);
1138:Drivers/lvgl/src/themes/default/lv_theme_default.c ****         return;
1139:Drivers/lvgl/src/themes/default/lv_theme_default.c ****     }
1140:Drivers/lvgl/src/themes/default/lv_theme_default.c ****     else if(lv_obj_check_type(obj, &lv_msgbox_backdrop_class)) {
1141:Drivers/lvgl/src/themes/default/lv_theme_default.c ****         lv_obj_add_style(obj, &theme->styles.msgbox_backdrop_bg, 0);
1142:Drivers/lvgl/src/themes/default/lv_theme_default.c ****         return;
1143:Drivers/lvgl/src/themes/default/lv_theme_default.c ****     }
1144:Drivers/lvgl/src/themes/default/lv_theme_default.c ****     else if(lv_obj_check_type(obj, &lv_msgbox_header_class)) {
1145:Drivers/lvgl/src/themes/default/lv_theme_default.c ****         lv_obj_add_style(obj, &theme->styles.pad_small, 0);
1146:Drivers/lvgl/src/themes/default/lv_theme_default.c ****         lv_obj_add_style(obj, &theme->styles.bg_color_grey, 0);
1147:Drivers/lvgl/src/themes/default/lv_theme_default.c ****         return;
1148:Drivers/lvgl/src/themes/default/lv_theme_default.c ****     }
1149:Drivers/lvgl/src/themes/default/lv_theme_default.c ****     else if(lv_obj_check_type(obj, &lv_msgbox_footer_class)) {
1150:Drivers/lvgl/src/themes/default/lv_theme_default.c ****         lv_obj_add_style(obj, &theme->styles.pad_small, 0);
1151:Drivers/lvgl/src/themes/default/lv_theme_default.c ****         return;
1152:Drivers/lvgl/src/themes/default/lv_theme_default.c ****     }
1153:Drivers/lvgl/src/themes/default/lv_theme_default.c ****     else if(lv_obj_check_type(obj, &lv_msgbox_content_class)) {
1154:Drivers/lvgl/src/themes/default/lv_theme_default.c ****         lv_obj_add_style(obj, &theme->styles.scrollbar, LV_PART_SCROLLBAR);
1155:Drivers/lvgl/src/themes/default/lv_theme_default.c ****         lv_obj_add_style(obj, &theme->styles.scrollbar_scrolled, LV_PART_SCROLLBAR | LV_STATE_SCROL
1156:Drivers/lvgl/src/themes/default/lv_theme_default.c ****         lv_obj_add_style(obj, &theme->styles.pad_small, 0);
1157:Drivers/lvgl/src/themes/default/lv_theme_default.c ****         return;
1158:Drivers/lvgl/src/themes/default/lv_theme_default.c ****     }
1159:Drivers/lvgl/src/themes/default/lv_theme_default.c ****     else if(lv_obj_check_type(obj, &lv_msgbox_header_button_class) ||
1160:Drivers/lvgl/src/themes/default/lv_theme_default.c ****             lv_obj_check_type(obj, &lv_msgbox_footer_button_class)) {
1161:Drivers/lvgl/src/themes/default/lv_theme_default.c ****         lv_obj_add_style(obj, &theme->styles.btn, 0);
ARM GAS  /var/folders/qx/2_175_4n2s19vhvtspjhb3qh0000gn/T//ccFV8cem.s 			page 25


1162:Drivers/lvgl/src/themes/default/lv_theme_default.c ****         lv_obj_add_style(obj, &theme->styles.bg_color_primary, 0);
1163:Drivers/lvgl/src/themes/default/lv_theme_default.c ****         lv_obj_add_style(obj, &theme->styles.transition_delayed, 0);
1164:Drivers/lvgl/src/themes/default/lv_theme_default.c ****         lv_obj_add_style(obj, &theme->styles.pressed, LV_STATE_PRESSED);
1165:Drivers/lvgl/src/themes/default/lv_theme_default.c ****         lv_obj_add_style(obj, &theme->styles.transition_normal, LV_STATE_PRESSED);
1166:Drivers/lvgl/src/themes/default/lv_theme_default.c ****         lv_obj_add_style(obj, &theme->styles.outline_primary, LV_STATE_FOCUS_KEY);
1167:Drivers/lvgl/src/themes/default/lv_theme_default.c ****         lv_obj_add_style(obj, &theme->styles.bg_color_secondary, LV_STATE_CHECKED);
1168:Drivers/lvgl/src/themes/default/lv_theme_default.c ****         lv_obj_add_style(obj, &theme->styles.disabled, LV_STATE_DISABLED);
1169:Drivers/lvgl/src/themes/default/lv_theme_default.c ****         return;
1170:Drivers/lvgl/src/themes/default/lv_theme_default.c ****     }
1171:Drivers/lvgl/src/themes/default/lv_theme_default.c **** #endif
1172:Drivers/lvgl/src/themes/default/lv_theme_default.c **** 
1173:Drivers/lvgl/src/themes/default/lv_theme_default.c **** #if LV_USE_SPINBOX
1174:Drivers/lvgl/src/themes/default/lv_theme_default.c ****     else if(lv_obj_check_type(obj, &lv_spinbox_class)) {
1175:Drivers/lvgl/src/themes/default/lv_theme_default.c ****         lv_obj_add_style(obj, &theme->styles.card, 0);
1176:Drivers/lvgl/src/themes/default/lv_theme_default.c ****         lv_obj_add_style(obj, &theme->styles.pad_small, 0);
1177:Drivers/lvgl/src/themes/default/lv_theme_default.c ****         lv_obj_add_style(obj, &theme->styles.outline_primary, LV_STATE_FOCUS_KEY);
1178:Drivers/lvgl/src/themes/default/lv_theme_default.c ****         lv_obj_add_style(obj, &theme->styles.outline_secondary, LV_STATE_EDITED);
1179:Drivers/lvgl/src/themes/default/lv_theme_default.c ****         lv_obj_add_style(obj, &theme->styles.bg_color_primary, LV_PART_CURSOR);
1180:Drivers/lvgl/src/themes/default/lv_theme_default.c ****     }
1181:Drivers/lvgl/src/themes/default/lv_theme_default.c **** #endif
1182:Drivers/lvgl/src/themes/default/lv_theme_default.c **** #if LV_USE_TILEVIEW
1183:Drivers/lvgl/src/themes/default/lv_theme_default.c ****     else if(lv_obj_check_type(obj, &lv_tileview_class)) {
1184:Drivers/lvgl/src/themes/default/lv_theme_default.c ****         lv_obj_add_style(obj, &theme->styles.scr, 0);
1185:Drivers/lvgl/src/themes/default/lv_theme_default.c ****         lv_obj_add_style(obj, &theme->styles.scrollbar, LV_PART_SCROLLBAR);
1186:Drivers/lvgl/src/themes/default/lv_theme_default.c ****         lv_obj_add_style(obj, &theme->styles.scrollbar_scrolled, LV_PART_SCROLLBAR | LV_STATE_SCROL
1187:Drivers/lvgl/src/themes/default/lv_theme_default.c ****     }
1188:Drivers/lvgl/src/themes/default/lv_theme_default.c ****     else if(lv_obj_check_type(obj, &lv_tileview_tile_class)) {
1189:Drivers/lvgl/src/themes/default/lv_theme_default.c ****         lv_obj_add_style(obj, &theme->styles.scrollbar, LV_PART_SCROLLBAR);
1190:Drivers/lvgl/src/themes/default/lv_theme_default.c ****         lv_obj_add_style(obj, &theme->styles.scrollbar_scrolled, LV_PART_SCROLLBAR | LV_STATE_SCROL
1191:Drivers/lvgl/src/themes/default/lv_theme_default.c ****     }
1192:Drivers/lvgl/src/themes/default/lv_theme_default.c **** #endif
1193:Drivers/lvgl/src/themes/default/lv_theme_default.c **** 
1194:Drivers/lvgl/src/themes/default/lv_theme_default.c **** #if LV_USE_TABVIEW
1195:Drivers/lvgl/src/themes/default/lv_theme_default.c ****     else if(lv_obj_check_type(obj, &lv_tabview_class)) {
1196:Drivers/lvgl/src/themes/default/lv_theme_default.c ****         lv_obj_add_style(obj, &theme->styles.scr, 0);
1197:Drivers/lvgl/src/themes/default/lv_theme_default.c ****         lv_obj_add_style(obj, &theme->styles.pad_zero, 0);
1198:Drivers/lvgl/src/themes/default/lv_theme_default.c ****     }
1199:Drivers/lvgl/src/themes/default/lv_theme_default.c **** #endif
1200:Drivers/lvgl/src/themes/default/lv_theme_default.c **** 
1201:Drivers/lvgl/src/themes/default/lv_theme_default.c **** #if LV_USE_WIN
1202:Drivers/lvgl/src/themes/default/lv_theme_default.c ****     else if(lv_obj_check_type(obj, &lv_win_class)) {
1203:Drivers/lvgl/src/themes/default/lv_theme_default.c ****         lv_obj_add_style(obj, &theme->styles.clip_corner, 0);
1204:Drivers/lvgl/src/themes/default/lv_theme_default.c ****     }
1205:Drivers/lvgl/src/themes/default/lv_theme_default.c **** #endif
1206:Drivers/lvgl/src/themes/default/lv_theme_default.c **** 
1207:Drivers/lvgl/src/themes/default/lv_theme_default.c **** #if LV_USE_LED
1208:Drivers/lvgl/src/themes/default/lv_theme_default.c ****     else if(lv_obj_check_type(obj, &lv_led_class)) {
1209:Drivers/lvgl/src/themes/default/lv_theme_default.c ****         lv_obj_add_style(obj, &theme->styles.led, 0);
1210:Drivers/lvgl/src/themes/default/lv_theme_default.c ****     }
1211:Drivers/lvgl/src/themes/default/lv_theme_default.c **** #endif
1212:Drivers/lvgl/src/themes/default/lv_theme_default.c **** 
1213:Drivers/lvgl/src/themes/default/lv_theme_default.c **** #if LV_USE_SCALE
1214:Drivers/lvgl/src/themes/default/lv_theme_default.c ****     else if(lv_obj_check_type(obj, &lv_scale_class)) {
1215:Drivers/lvgl/src/themes/default/lv_theme_default.c ****         lv_obj_add_style(obj, &theme->styles.scale, LV_PART_MAIN);
1216:Drivers/lvgl/src/themes/default/lv_theme_default.c ****         lv_obj_add_style(obj, &theme->styles.scale, LV_PART_INDICATOR);
1217:Drivers/lvgl/src/themes/default/lv_theme_default.c ****         lv_obj_add_style(obj, &theme->styles.scale, LV_PART_ITEMS);
1218:Drivers/lvgl/src/themes/default/lv_theme_default.c ****     }
ARM GAS  /var/folders/qx/2_175_4n2s19vhvtspjhb3qh0000gn/T//ccFV8cem.s 			page 26


1219:Drivers/lvgl/src/themes/default/lv_theme_default.c **** #endif
1220:Drivers/lvgl/src/themes/default/lv_theme_default.c **** }
 204              		.loc 1 1220 1 is_stmt 0 view .LVU49
 205 00e4 F8BD     		pop	{r3, r4, r5, r6, r7, pc}
 206              	.LVL25:
 207              	.L62:
 755:Drivers/lvgl/src/themes/default/lv_theme_default.c ****             lv_obj_add_style(obj, &theme->styles.outline_primary, LV_STATE_FOCUS_KEY);
 208              		.loc 1 755 13 is_stmt 1 view .LVU50
 209 00e6 0022     		movs	r2, #0
 210 00e8 05F1B801 		add	r1, r5, #184
 211 00ec 2046     		mov	r0, r4
 212 00ee FFF7FEFF 		bl	lv_obj_add_style
 213              	.LVL26:
 756:Drivers/lvgl/src/themes/default/lv_theme_default.c ****             lv_obj_add_style(obj, &theme->styles.tab_bg_focus, LV_STATE_FOCUS_KEY);
 214              		.loc 1 756 13 view .LVU51
 215 00f2 0422     		movs	r2, #4
 216 00f4 05F59871 		add	r1, r5, #304
 217 00f8 2046     		mov	r0, r4
 218 00fa FFF7FEFF 		bl	lv_obj_add_style
 219              	.LVL27:
 757:Drivers/lvgl/src/themes/default/lv_theme_default.c ****             return;
 220              		.loc 1 757 13 view .LVU52
 221 00fe 0422     		movs	r2, #4
 222 0100 05F54D71 		add	r1, r5, #820
 223 0104 2046     		mov	r0, r4
 224 0106 FFF7FEFF 		bl	lv_obj_add_style
 225              	.LVL28:
 758:Drivers/lvgl/src/themes/default/lv_theme_default.c ****         }
 226              		.loc 1 758 13 view .LVU53
 227 010a EBE7     		b	.L1
 228              	.L63:
 762:Drivers/lvgl/src/themes/default/lv_theme_default.c ****             lv_obj_add_style(obj, &theme->styles.rotary_scroll, 0);
 229              		.loc 1 762 13 view .LVU54
 230 010c 0022     		movs	r2, #0
 231 010e 05F58071 		add	r1, r5, #256
 232 0112 2046     		mov	r0, r4
 233 0114 FFF7FEFF 		bl	lv_obj_add_style
 234              	.LVL29:
 763:Drivers/lvgl/src/themes/default/lv_theme_default.c ****             lv_obj_add_style(obj, &theme->styles.scrollbar, LV_PART_SCROLLBAR);
 235              		.loc 1 763 13 view .LVU55
 236 0118 0022     		movs	r2, #0
 237 011a 05F5B671 		add	r1, r5, #364
 238 011e 2046     		mov	r0, r4
 239 0120 FFF7FEFF 		bl	lv_obj_add_style
 240              	.LVL30:
 764:Drivers/lvgl/src/themes/default/lv_theme_default.c ****             lv_obj_add_style(obj, &theme->styles.scrollbar_scrolled, LV_PART_SCROLLBAR | LV_STATE_S
 241              		.loc 1 764 13 view .LVU56
 242 0124 4FF48032 		mov	r2, #65536
 243 0128 05F14C01 		add	r1, r5, #76
 244 012c 2046     		mov	r0, r4
 245 012e FFF7FEFF 		bl	lv_obj_add_style
 246              	.LVL31:
 765:Drivers/lvgl/src/themes/default/lv_theme_default.c ****             return;
 247              		.loc 1 765 13 view .LVU57
 248 0132 8A4A     		ldr	r2, .L71+20
 249 0134 05F15801 		add	r1, r5, #88
 250 0138 2046     		mov	r0, r4
ARM GAS  /var/folders/qx/2_175_4n2s19vhvtspjhb3qh0000gn/T//ccFV8cem.s 			page 27


 251 013a FFF7FEFF 		bl	lv_obj_add_style
 252              	.LVL32:
 766:Drivers/lvgl/src/themes/default/lv_theme_default.c ****         }
 253              		.loc 1 766 13 view .LVU58
 254 013e D1E7     		b	.L1
 255              	.L64:
 773:Drivers/lvgl/src/themes/default/lv_theme_default.c ****             lv_obj_add_style(obj, &theme->styles.pad_tiny, 0);
 256              		.loc 1 773 13 view .LVU59
 257 0140 0022     		movs	r2, #0
 258 0142 05F1AC01 		add	r1, r5, #172
 259 0146 2046     		mov	r0, r4
 260 0148 FFF7FEFF 		bl	lv_obj_add_style
 261              	.LVL33:
 774:Drivers/lvgl/src/themes/default/lv_theme_default.c ****             return;
 262              		.loc 1 774 13 view .LVU60
 263 014c 0022     		movs	r2, #0
 264 014e 05F1E801 		add	r1, r5, #232
 265 0152 2046     		mov	r0, r4
 266 0154 FFF7FEFF 		bl	lv_obj_add_style
 267              	.LVL34:
 775:Drivers/lvgl/src/themes/default/lv_theme_default.c ****         }
 268              		.loc 1 775 13 view .LVU61
 269 0158 C4E7     		b	.L1
 270              	.L65:
 779:Drivers/lvgl/src/themes/default/lv_theme_default.c ****             lv_obj_add_style(obj, &theme->styles.pad_normal, 0);
 271              		.loc 1 779 13 view .LVU62
 272 015a 0022     		movs	r2, #0
 273 015c 05F14001 		add	r1, r5, #64
 274 0160 2046     		mov	r0, r4
 275 0162 FFF7FEFF 		bl	lv_obj_add_style
 276              	.LVL35:
 780:Drivers/lvgl/src/themes/default/lv_theme_default.c ****             lv_obj_add_style(obj, &theme->styles.scrollbar, LV_PART_SCROLLBAR);
 277              		.loc 1 780 13 view .LVU63
 278 0166 0022     		movs	r2, #0
 279 0168 05F58071 		add	r1, r5, #256
 280 016c 2046     		mov	r0, r4
 281 016e FFF7FEFF 		bl	lv_obj_add_style
 282              	.LVL36:
 781:Drivers/lvgl/src/themes/default/lv_theme_default.c ****             lv_obj_add_style(obj, &theme->styles.scrollbar_scrolled, LV_PART_SCROLLBAR | LV_STATE_S
 283              		.loc 1 781 13 view .LVU64
 284 0172 4FF48032 		mov	r2, #65536
 285 0176 05F14C01 		add	r1, r5, #76
 286 017a 2046     		mov	r0, r4
 287 017c FFF7FEFF 		bl	lv_obj_add_style
 288              	.LVL37:
 782:Drivers/lvgl/src/themes/default/lv_theme_default.c ****             return;
 289              		.loc 1 782 13 view .LVU65
 290 0180 764A     		ldr	r2, .L71+20
 291 0182 05F15801 		add	r1, r5, #88
 292 0186 2046     		mov	r0, r4
 293 0188 FFF7FEFF 		bl	lv_obj_add_style
 294              	.LVL38:
 783:Drivers/lvgl/src/themes/default/lv_theme_default.c ****         }
 295              		.loc 1 783 13 view .LVU66
 296 018c AAE7     		b	.L1
 297              	.L4:
 799:Drivers/lvgl/src/themes/default/lv_theme_default.c **** 
ARM GAS  /var/folders/qx/2_175_4n2s19vhvtspjhb3qh0000gn/T//ccFV8cem.s 			page 28


 298              		.loc 1 799 10 view .LVU67
 799:Drivers/lvgl/src/themes/default/lv_theme_default.c **** 
 299              		.loc 1 799 13 is_stmt 0 view .LVU68
 300 018e 7449     		ldr	r1, .L71+24
 301 0190 2046     		mov	r0, r4
 302 0192 FFF7FEFF 		bl	lv_obj_check_type
 303              	.LVL39:
 799:Drivers/lvgl/src/themes/default/lv_theme_default.c **** 
 304              		.loc 1 799 12 discriminator 1 view .LVU69
 305 0196 0028     		cmp	r0, #0
 306 0198 00F08480 		beq	.L10
 307              	.LBB6:
 802:Drivers/lvgl/src/themes/default/lv_theme_default.c ****         if(tv && lv_obj_get_child(tv, 0) == parent) { /*The button is on the tab view header*/
 308              		.loc 1 802 9 is_stmt 1 view .LVU70
 802:Drivers/lvgl/src/themes/default/lv_theme_default.c ****         if(tv && lv_obj_get_child(tv, 0) == parent) { /*The button is on the tab view header*/
 309              		.loc 1 802 25 is_stmt 0 view .LVU71
 310 019c 3046     		mov	r0, r6
 311 019e FFF7FEFF 		bl	lv_obj_get_parent
 312              	.LVL40:
 803:Drivers/lvgl/src/themes/default/lv_theme_default.c ****             if(lv_obj_check_type(tv, &lv_tabview_class)) {
 313              		.loc 1 803 9 is_stmt 1 view .LVU72
 803:Drivers/lvgl/src/themes/default/lv_theme_default.c ****             if(lv_obj_check_type(tv, &lv_tabview_class)) {
 314              		.loc 1 803 11 is_stmt 0 view .LVU73
 315 01a2 0746     		mov	r7, r0
 316 01a4 20B1     		cbz	r0, .L11
 803:Drivers/lvgl/src/themes/default/lv_theme_default.c ****             if(lv_obj_check_type(tv, &lv_tabview_class)) {
 317              		.loc 1 803 18 discriminator 1 view .LVU74
 318 01a6 0021     		movs	r1, #0
 319 01a8 FFF7FEFF 		bl	lv_obj_get_child
 320              	.LVL41:
 803:Drivers/lvgl/src/themes/default/lv_theme_default.c ****             if(lv_obj_check_type(tv, &lv_tabview_class)) {
 321              		.loc 1 803 15 discriminator 1 view .LVU75
 322 01ac 8642     		cmp	r6, r0
 323 01ae 4ED0     		beq	.L66
 324              	.L11:
 815:Drivers/lvgl/src/themes/default/lv_theme_default.c ****         lv_obj_add_style(obj, &theme->styles.bg_color_primary, 0);
 325              		.loc 1 815 9 is_stmt 1 view .LVU76
 326 01b0 0022     		movs	r2, #0
 327 01b2 05F17001 		add	r1, r5, #112
 328 01b6 2046     		mov	r0, r4
 329 01b8 FFF7FEFF 		bl	lv_obj_add_style
 330              	.LVL42:
 816:Drivers/lvgl/src/themes/default/lv_theme_default.c ****         lv_obj_add_style(obj, &theme->styles.transition_delayed, 0);
 331              		.loc 1 816 9 view .LVU77
 332 01bc 0022     		movs	r2, #0
 333 01be 05F17C01 		add	r1, r5, #124
 334 01c2 2046     		mov	r0, r4
 335 01c4 FFF7FEFF 		bl	lv_obj_add_style
 336              	.LVL43:
 817:Drivers/lvgl/src/themes/default/lv_theme_default.c ****         lv_obj_add_style(obj, &theme->styles.pressed, LV_STATE_PRESSED);
 337              		.loc 1 817 9 view .LVU78
 338 01c8 0022     		movs	r2, #0
 339 01ca 05F5C271 		add	r1, r5, #388
 340 01ce 2046     		mov	r0, r4
 341 01d0 FFF7FEFF 		bl	lv_obj_add_style
 342              	.LVL44:
 818:Drivers/lvgl/src/themes/default/lv_theme_default.c ****         lv_obj_add_style(obj, &theme->styles.transition_normal, LV_STATE_PRESSED);
ARM GAS  /var/folders/qx/2_175_4n2s19vhvtspjhb3qh0000gn/T//ccFV8cem.s 			page 29


 343              		.loc 1 818 9 view .LVU79
 344 01d4 2022     		movs	r2, #32
 345 01d6 05F1C401 		add	r1, r5, #196
 346 01da 2046     		mov	r0, r4
 347 01dc FFF7FEFF 		bl	lv_obj_add_style
 348              	.LVL45:
 819:Drivers/lvgl/src/themes/default/lv_theme_default.c ****         lv_obj_add_style(obj, &theme->styles.outline_primary, LV_STATE_FOCUS_KEY);
 349              		.loc 1 819 9 view .LVU80
 350 01e0 2022     		movs	r2, #32
 351 01e2 05F5C871 		add	r1, r5, #400
 352 01e6 2046     		mov	r0, r4
 353 01e8 FFF7FEFF 		bl	lv_obj_add_style
 354              	.LVL46:
 820:Drivers/lvgl/src/themes/default/lv_theme_default.c **** #if LV_THEME_DEFAULT_GROW
 355              		.loc 1 820 9 view .LVU81
 356 01ec 0422     		movs	r2, #4
 357 01ee 05F59871 		add	r1, r5, #304
 358 01f2 2046     		mov	r0, r4
 359 01f4 FFF7FEFF 		bl	lv_obj_add_style
 360              	.LVL47:
 822:Drivers/lvgl/src/themes/default/lv_theme_default.c **** #endif
 361              		.loc 1 822 9 view .LVU82
 362 01f8 2022     		movs	r2, #32
 363 01fa 05F5BC71 		add	r1, r5, #376
 364 01fe 2046     		mov	r0, r4
 365 0200 FFF7FEFF 		bl	lv_obj_add_style
 366              	.LVL48:
 824:Drivers/lvgl/src/themes/default/lv_theme_default.c ****         lv_obj_add_style(obj, &theme->styles.disabled, LV_STATE_DISABLED);
 367              		.loc 1 824 9 view .LVU83
 368 0204 0122     		movs	r2, #1
 369 0206 05F19401 		add	r1, r5, #148
 370 020a 2046     		mov	r0, r4
 371 020c FFF7FEFF 		bl	lv_obj_add_style
 372              	.LVL49:
 825:Drivers/lvgl/src/themes/default/lv_theme_default.c **** 
 373              		.loc 1 825 9 view .LVU84
 374 0210 8022     		movs	r2, #128
 375 0212 05F1D001 		add	r1, r5, #208
 376 0216 2046     		mov	r0, r4
 377 0218 FFF7FEFF 		bl	lv_obj_add_style
 378              	.LVL50:
 828:Drivers/lvgl/src/themes/default/lv_theme_default.c ****            lv_obj_check_type(parent, &lv_menu_main_header_cont_class)) {
 379              		.loc 1 828 9 view .LVU85
 828:Drivers/lvgl/src/themes/default/lv_theme_default.c ****            lv_obj_check_type(parent, &lv_menu_main_header_cont_class)) {
 380              		.loc 1 828 12 is_stmt 0 view .LVU86
 381 021c 5149     		ldr	r1, .L71+28
 382 021e 3046     		mov	r0, r6
 383 0220 FFF7FEFF 		bl	lv_obj_check_type
 384              	.LVL51:
 828:Drivers/lvgl/src/themes/default/lv_theme_default.c ****            lv_obj_check_type(parent, &lv_menu_main_header_cont_class)) {
 385              		.loc 1 828 11 discriminator 1 view .LVU87
 386 0224 30B9     		cbnz	r0, .L12
 829:Drivers/lvgl/src/themes/default/lv_theme_default.c ****             lv_obj_add_style(obj, &theme->styles.menu_header_btn, 0);
 387              		.loc 1 829 12 view .LVU88
 388 0226 5049     		ldr	r1, .L71+32
 389 0228 3046     		mov	r0, r6
 390 022a FFF7FEFF 		bl	lv_obj_check_type
ARM GAS  /var/folders/qx/2_175_4n2s19vhvtspjhb3qh0000gn/T//ccFV8cem.s 			page 30


 391              	.LVL52:
 828:Drivers/lvgl/src/themes/default/lv_theme_default.c ****            lv_obj_check_type(parent, &lv_menu_main_header_cont_class)) {
 392              		.loc 1 828 74 discriminator 1 view .LVU89
 393 022e 0028     		cmp	r0, #0
 394 0230 3FF458AF 		beq	.L1
 395              	.L12:
 830:Drivers/lvgl/src/themes/default/lv_theme_default.c ****             lv_obj_add_style(obj, &theme->styles.menu_pressed, LV_STATE_PRESSED);
 396              		.loc 1 830 13 is_stmt 1 view .LVU90
 397 0234 0022     		movs	r2, #0
 398 0236 05F53271 		add	r1, r5, #712
 399 023a 2046     		mov	r0, r4
 400 023c FFF7FEFF 		bl	lv_obj_add_style
 401              	.LVL53:
 831:Drivers/lvgl/src/themes/default/lv_theme_default.c ****         }
 402              		.loc 1 831 13 view .LVU91
 403 0240 2022     		movs	r2, #32
 404 0242 05F53871 		add	r1, r5, #736
 405 0246 2046     		mov	r0, r4
 406 0248 FFF7FEFF 		bl	lv_obj_add_style
 407              	.LVL54:
 408 024c 4AE7     		b	.L1
 409              	.L66:
 804:Drivers/lvgl/src/themes/default/lv_theme_default.c ****                 lv_obj_add_style(obj, &theme->styles.pressed, LV_STATE_PRESSED);
 410              		.loc 1 804 13 view .LVU92
 804:Drivers/lvgl/src/themes/default/lv_theme_default.c ****                 lv_obj_add_style(obj, &theme->styles.pressed, LV_STATE_PRESSED);
 411              		.loc 1 804 16 is_stmt 0 view .LVU93
 412 024e 4049     		ldr	r1, .L71+8
 413 0250 3846     		mov	r0, r7
 414 0252 FFF7FEFF 		bl	lv_obj_check_type
 415              	.LVL55:
 804:Drivers/lvgl/src/themes/default/lv_theme_default.c ****                 lv_obj_add_style(obj, &theme->styles.pressed, LV_STATE_PRESSED);
 416              		.loc 1 804 15 discriminator 1 view .LVU94
 417 0256 0028     		cmp	r0, #0
 418 0258 AAD0     		beq	.L11
 805:Drivers/lvgl/src/themes/default/lv_theme_default.c ****                 lv_obj_add_style(obj, &theme->styles.bg_color_primary_muted, LV_STATE_CHECKED);
 419              		.loc 1 805 17 is_stmt 1 view .LVU95
 420 025a 2022     		movs	r2, #32
 421 025c 05F1C401 		add	r1, r5, #196
 422 0260 2046     		mov	r0, r4
 423 0262 FFF7FEFF 		bl	lv_obj_add_style
 424              	.LVL56:
 806:Drivers/lvgl/src/themes/default/lv_theme_default.c ****                 lv_obj_add_style(obj, &theme->styles.tab_btn, LV_STATE_CHECKED);
 425              		.loc 1 806 17 view .LVU96
 426 0266 0122     		movs	r2, #1
 427 0268 05F18801 		add	r1, r5, #136
 428 026c 2046     		mov	r0, r4
 429 026e FFF7FEFF 		bl	lv_obj_add_style
 430              	.LVL57:
 807:Drivers/lvgl/src/themes/default/lv_theme_default.c ****                 lv_obj_add_style(obj, &theme->styles.outline_primary, LV_STATE_FOCUS_KEY);
 431              		.loc 1 807 17 view .LVU97
 432 0272 0122     		movs	r2, #1
 433 0274 05F55071 		add	r1, r5, #832
 434 0278 2046     		mov	r0, r4
 435 027a FFF7FEFF 		bl	lv_obj_add_style
 436              	.LVL58:
 808:Drivers/lvgl/src/themes/default/lv_theme_default.c ****                 lv_obj_add_style(obj, &theme->styles.outline_secondary, LV_STATE_EDITED);
 437              		.loc 1 808 17 view .LVU98
ARM GAS  /var/folders/qx/2_175_4n2s19vhvtspjhb3qh0000gn/T//ccFV8cem.s 			page 31


 438 027e 0422     		movs	r2, #4
 439 0280 05F59871 		add	r1, r5, #304
 440 0284 2046     		mov	r0, r4
 441 0286 FFF7FEFF 		bl	lv_obj_add_style
 442              	.LVL59:
 809:Drivers/lvgl/src/themes/default/lv_theme_default.c ****                 lv_obj_add_style(obj, &theme->styles.tab_bg_focus, LV_STATE_FOCUS_KEY);
 443              		.loc 1 809 17 view .LVU99
 444 028a 0822     		movs	r2, #8
 445 028c 05F59E71 		add	r1, r5, #316
 446 0290 2046     		mov	r0, r4
 447 0292 FFF7FEFF 		bl	lv_obj_add_style
 448              	.LVL60:
 810:Drivers/lvgl/src/themes/default/lv_theme_default.c ****                 return;
 449              		.loc 1 810 17 view .LVU100
 450 0296 0422     		movs	r2, #4
 451 0298 05F54D71 		add	r1, r5, #820
 452 029c 2046     		mov	r0, r4
 453 029e FFF7FEFF 		bl	lv_obj_add_style
 454              	.LVL61:
 811:Drivers/lvgl/src/themes/default/lv_theme_default.c ****             }
 455              		.loc 1 811 17 view .LVU101
 456 02a2 1FE7     		b	.L1
 457              	.LVL62:
 458              	.L10:
 811:Drivers/lvgl/src/themes/default/lv_theme_default.c ****             }
 459              		.loc 1 811 17 is_stmt 0 view .LVU102
 460              	.LBE6:
 838:Drivers/lvgl/src/themes/default/lv_theme_default.c ****         lv_obj_add_style(obj, &theme->styles.line, 0);
 461              		.loc 1 838 10 is_stmt 1 view .LVU103
 838:Drivers/lvgl/src/themes/default/lv_theme_default.c ****         lv_obj_add_style(obj, &theme->styles.line, 0);
 462              		.loc 1 838 13 is_stmt 0 view .LVU104
 463 02a4 3149     		ldr	r1, .L71+36
 464 02a6 2046     		mov	r0, r4
 465 02a8 FFF7FEFF 		bl	lv_obj_check_type
 466              	.LVL63:
 838:Drivers/lvgl/src/themes/default/lv_theme_default.c ****         lv_obj_add_style(obj, &theme->styles.line, 0);
 467              		.loc 1 838 12 discriminator 1 view .LVU105
 468 02ac 30B1     		cbz	r0, .L13
 839:Drivers/lvgl/src/themes/default/lv_theme_default.c ****     }
 469              		.loc 1 839 9 is_stmt 1 view .LVU106
 470 02ae 0022     		movs	r2, #0
 471 02b0 05F50B71 		add	r1, r5, #556
 472 02b4 2046     		mov	r0, r4
 473 02b6 FFF7FEFF 		bl	lv_obj_add_style
 474              	.LVL64:
 475 02ba 13E7     		b	.L1
 476              	.L13:
 844:Drivers/lvgl/src/themes/default/lv_theme_default.c **** 
 477              		.loc 1 844 10 view .LVU107
 844:Drivers/lvgl/src/themes/default/lv_theme_default.c **** 
 478              		.loc 1 844 13 is_stmt 0 view .LVU108
 479 02bc 2C49     		ldr	r1, .L71+40
 480 02be 2046     		mov	r0, r4
 481 02c0 FFF7FEFF 		bl	lv_obj_check_type
 482              	.LVL65:
 844:Drivers/lvgl/src/themes/default/lv_theme_default.c **** 
 483              		.loc 1 844 12 discriminator 1 view .LVU109
ARM GAS  /var/folders/qx/2_175_4n2s19vhvtspjhb3qh0000gn/T//ccFV8cem.s 			page 32


 484 02c4 0028     		cmp	r0, #0
 485 02c6 00F09180 		beq	.L14
 847:Drivers/lvgl/src/themes/default/lv_theme_default.c ****             lv_obj_add_style(obj, &theme->styles.calendar_btnm_bg, 0);
 486              		.loc 1 847 9 is_stmt 1 view .LVU110
 847:Drivers/lvgl/src/themes/default/lv_theme_default.c ****             lv_obj_add_style(obj, &theme->styles.calendar_btnm_bg, 0);
 487              		.loc 1 847 12 is_stmt 0 view .LVU111
 488 02ca 2349     		ldr	r1, .L71+16
 489 02cc 3046     		mov	r0, r6
 490 02ce FFF7FEFF 		bl	lv_obj_check_type
 491              	.LVL66:
 847:Drivers/lvgl/src/themes/default/lv_theme_default.c ****             lv_obj_add_style(obj, &theme->styles.calendar_btnm_bg, 0);
 492              		.loc 1 847 11 discriminator 1 view .LVU112
 493 02d2 0028     		cmp	r0, #0
 494 02d4 58D1     		bne	.L67
 859:Drivers/lvgl/src/themes/default/lv_theme_default.c ****         lv_obj_add_style(obj, &theme->styles.outline_primary, LV_STATE_FOCUS_KEY);
 495              		.loc 1 859 9 is_stmt 1 view .LVU113
 496 02d6 0022     		movs	r2, #0
 497 02d8 05F16401 		add	r1, r5, #100
 498 02dc 2046     		mov	r0, r4
 499 02de FFF7FEFF 		bl	lv_obj_add_style
 500              	.LVL67:
 860:Drivers/lvgl/src/themes/default/lv_theme_default.c ****         lv_obj_add_style(obj, &theme->styles.outline_secondary, LV_STATE_EDITED);
 501              		.loc 1 860 9 view .LVU114
 860:Drivers/lvgl/src/themes/default/lv_theme_default.c ****         lv_obj_add_style(obj, &theme->styles.outline_secondary, LV_STATE_EDITED);
 502              		.loc 1 860 31 is_stmt 0 view .LVU115
 503 02e2 05F59877 		add	r7, r5, #304
 860:Drivers/lvgl/src/themes/default/lv_theme_default.c ****         lv_obj_add_style(obj, &theme->styles.outline_secondary, LV_STATE_EDITED);
 504              		.loc 1 860 9 view .LVU116
 505 02e6 0422     		movs	r2, #4
 506 02e8 3946     		mov	r1, r7
 507 02ea 2046     		mov	r0, r4
 508 02ec FFF7FEFF 		bl	lv_obj_add_style
 509              	.LVL68:
 861:Drivers/lvgl/src/themes/default/lv_theme_default.c ****         lv_obj_add_style(obj, &theme->styles.btn, LV_PART_ITEMS);
 510              		.loc 1 861 9 is_stmt 1 view .LVU117
 861:Drivers/lvgl/src/themes/default/lv_theme_default.c ****         lv_obj_add_style(obj, &theme->styles.btn, LV_PART_ITEMS);
 511              		.loc 1 861 31 is_stmt 0 view .LVU118
 512 02f0 05F59E76 		add	r6, r5, #316
 513              	.LVL69:
 861:Drivers/lvgl/src/themes/default/lv_theme_default.c ****         lv_obj_add_style(obj, &theme->styles.btn, LV_PART_ITEMS);
 514              		.loc 1 861 9 view .LVU119
 515 02f4 0822     		movs	r2, #8
 516 02f6 3146     		mov	r1, r6
 517 02f8 2046     		mov	r0, r4
 518 02fa FFF7FEFF 		bl	lv_obj_add_style
 519              	.LVL70:
 862:Drivers/lvgl/src/themes/default/lv_theme_default.c ****         lv_obj_add_style(obj, &theme->styles.disabled, LV_PART_ITEMS | LV_STATE_DISABLED);
 520              		.loc 1 862 9 is_stmt 1 view .LVU120
 521 02fe 4FF4A022 		mov	r2, #327680
 522 0302 05F17001 		add	r1, r5, #112
 523 0306 2046     		mov	r0, r4
 524 0308 FFF7FEFF 		bl	lv_obj_add_style
 525              	.LVL71:
 863:Drivers/lvgl/src/themes/default/lv_theme_default.c ****         lv_obj_add_style(obj, &theme->styles.pressed, LV_PART_ITEMS | LV_STATE_PRESSED);
 526              		.loc 1 863 9 view .LVU121
 527 030c 194A     		ldr	r2, .L71+44
 528 030e 05F1D001 		add	r1, r5, #208
ARM GAS  /var/folders/qx/2_175_4n2s19vhvtspjhb3qh0000gn/T//ccFV8cem.s 			page 33


 529 0312 2046     		mov	r0, r4
 530 0314 FFF7FEFF 		bl	lv_obj_add_style
 531              	.LVL72:
 864:Drivers/lvgl/src/themes/default/lv_theme_default.c ****         lv_obj_add_style(obj, &theme->styles.bg_color_primary, LV_PART_ITEMS | LV_STATE_CHECKED);
 532              		.loc 1 864 9 view .LVU122
 533 0318 174A     		ldr	r2, .L71+48
 534 031a 05F1C401 		add	r1, r5, #196
 535 031e 2046     		mov	r0, r4
 536 0320 FFF7FEFF 		bl	lv_obj_add_style
 537              	.LVL73:
 865:Drivers/lvgl/src/themes/default/lv_theme_default.c ****         lv_obj_add_style(obj, &theme->styles.outline_primary, LV_PART_ITEMS | LV_STATE_FOCUS_KEY);
 538              		.loc 1 865 9 view .LVU123
 539 0324 154A     		ldr	r2, .L71+52
 540 0326 05F17C01 		add	r1, r5, #124
 541 032a 2046     		mov	r0, r4
 542 032c FFF7FEFF 		bl	lv_obj_add_style
 543              	.LVL74:
 866:Drivers/lvgl/src/themes/default/lv_theme_default.c ****         lv_obj_add_style(obj, &theme->styles.outline_secondary, LV_PART_ITEMS | LV_STATE_EDITED);
 544              		.loc 1 866 9 view .LVU124
 545 0330 134A     		ldr	r2, .L71+56
 546 0332 3946     		mov	r1, r7
 547 0334 2046     		mov	r0, r4
 548 0336 FFF7FEFF 		bl	lv_obj_add_style
 549              	.LVL75:
 867:Drivers/lvgl/src/themes/default/lv_theme_default.c ****     }
 550              		.loc 1 867 9 view .LVU125
 551 033a 124A     		ldr	r2, .L71+60
 552 033c 3146     		mov	r1, r6
 553 033e 2046     		mov	r0, r4
 554 0340 FFF7FEFF 		bl	lv_obj_add_style
 555              	.LVL76:
 556 0344 CEE6     		b	.L1
 557              	.L72:
 558 0346 00BF     		.align	2
 559              	.L71:
 560 0348 00000000 		.word	lv_global
 561 034c 00000000 		.word	lv_obj_class
 562 0350 00000000 		.word	lv_tabview_class
 563 0354 00000000 		.word	lv_win_class
 564 0358 00000000 		.word	lv_calendar_class
 565 035c 40000100 		.word	65600
 566 0360 00000000 		.word	lv_button_class
 567 0364 00000000 		.word	lv_menu_sidebar_header_cont_class
 568 0368 00000000 		.word	lv_menu_main_header_cont_class
 569 036c 00000000 		.word	lv_line_class
 570 0370 00000000 		.word	lv_buttonmatrix_class
 571 0374 80000500 		.word	327808
 572 0378 20000500 		.word	327712
 573 037c 01000500 		.word	327681
 574 0380 04000500 		.word	327684
 575 0384 08000500 		.word	327688
 576              	.LVL77:
 577              	.L67:
 848:Drivers/lvgl/src/themes/default/lv_theme_default.c ****             lv_obj_add_style(obj, &theme->styles.outline_primary, LV_STATE_FOCUS_KEY);
 578              		.loc 1 848 13 view .LVU126
 579 0388 0022     		movs	r2, #0
 580 038a 05F51771 		add	r1, r5, #604
ARM GAS  /var/folders/qx/2_175_4n2s19vhvtspjhb3qh0000gn/T//ccFV8cem.s 			page 34


 581 038e 2046     		mov	r0, r4
 582 0390 FFF7FEFF 		bl	lv_obj_add_style
 583              	.LVL78:
 849:Drivers/lvgl/src/themes/default/lv_theme_default.c ****             lv_obj_add_style(obj, &theme->styles.outline_secondary, LV_STATE_EDITED);
 584              		.loc 1 849 13 view .LVU127
 849:Drivers/lvgl/src/themes/default/lv_theme_default.c ****             lv_obj_add_style(obj, &theme->styles.outline_secondary, LV_STATE_EDITED);
 585              		.loc 1 849 35 is_stmt 0 view .LVU128
 586 0394 05F59877 		add	r7, r5, #304
 849:Drivers/lvgl/src/themes/default/lv_theme_default.c ****             lv_obj_add_style(obj, &theme->styles.outline_secondary, LV_STATE_EDITED);
 587              		.loc 1 849 13 view .LVU129
 588 0398 0422     		movs	r2, #4
 589 039a 3946     		mov	r1, r7
 590 039c 2046     		mov	r0, r4
 591 039e FFF7FEFF 		bl	lv_obj_add_style
 592              	.LVL79:
 850:Drivers/lvgl/src/themes/default/lv_theme_default.c ****             lv_obj_add_style(obj, &theme->styles.calendar_btnm_day, LV_PART_ITEMS);
 593              		.loc 1 850 13 is_stmt 1 view .LVU130
 850:Drivers/lvgl/src/themes/default/lv_theme_default.c ****             lv_obj_add_style(obj, &theme->styles.calendar_btnm_day, LV_PART_ITEMS);
 594              		.loc 1 850 35 is_stmt 0 view .LVU131
 595 03a2 05F59E76 		add	r6, r5, #316
 596              	.LVL80:
 850:Drivers/lvgl/src/themes/default/lv_theme_default.c ****             lv_obj_add_style(obj, &theme->styles.calendar_btnm_day, LV_PART_ITEMS);
 597              		.loc 1 850 13 view .LVU132
 598 03a6 0822     		movs	r2, #8
 599 03a8 3146     		mov	r1, r6
 600 03aa 2046     		mov	r0, r4
 601 03ac FFF7FEFF 		bl	lv_obj_add_style
 602              	.LVL81:
 851:Drivers/lvgl/src/themes/default/lv_theme_default.c ****             lv_obj_add_style(obj, &theme->styles.pressed, LV_PART_ITEMS | LV_STATE_PRESSED);
 603              		.loc 1 851 13 is_stmt 1 view .LVU133
 604 03b0 4FF4A022 		mov	r2, #327680
 605 03b4 05F51A71 		add	r1, r5, #616
 606 03b8 2046     		mov	r0, r4
 607 03ba FFF7FEFF 		bl	lv_obj_add_style
 608              	.LVL82:
 852:Drivers/lvgl/src/themes/default/lv_theme_default.c ****             lv_obj_add_style(obj, &theme->styles.disabled, LV_PART_ITEMS | LV_STATE_DISABLED);
 609              		.loc 1 852 13 view .LVU134
 610 03be DD4A     		ldr	r2, .L73
 611 03c0 05F1C401 		add	r1, r5, #196
 612 03c4 2046     		mov	r0, r4
 613 03c6 FFF7FEFF 		bl	lv_obj_add_style
 614              	.LVL83:
 853:Drivers/lvgl/src/themes/default/lv_theme_default.c ****             lv_obj_add_style(obj, &theme->styles.outline_primary, LV_PART_ITEMS | LV_STATE_FOCUS_KE
 615              		.loc 1 853 13 view .LVU135
 616 03ca DB4A     		ldr	r2, .L73+4
 617 03cc 05F1D001 		add	r1, r5, #208
 618 03d0 2046     		mov	r0, r4
 619 03d2 FFF7FEFF 		bl	lv_obj_add_style
 620              	.LVL84:
 854:Drivers/lvgl/src/themes/default/lv_theme_default.c ****             lv_obj_add_style(obj, &theme->styles.outline_secondary, LV_PART_ITEMS | LV_STATE_EDITED
 621              		.loc 1 854 13 view .LVU136
 622 03d6 D94A     		ldr	r2, .L73+8
 623 03d8 3946     		mov	r1, r7
 624 03da 2046     		mov	r0, r4
 625 03dc FFF7FEFF 		bl	lv_obj_add_style
 626              	.LVL85:
 855:Drivers/lvgl/src/themes/default/lv_theme_default.c ****             return;
ARM GAS  /var/folders/qx/2_175_4n2s19vhvtspjhb3qh0000gn/T//ccFV8cem.s 			page 35


 627              		.loc 1 855 13 view .LVU137
 628 03e0 D74A     		ldr	r2, .L73+12
 629 03e2 3146     		mov	r1, r6
 630 03e4 2046     		mov	r0, r4
 631 03e6 FFF7FEFF 		bl	lv_obj_add_style
 632              	.LVL86:
 856:Drivers/lvgl/src/themes/default/lv_theme_default.c ****         }
 633              		.loc 1 856 13 view .LVU138
 634 03ea 7BE6     		b	.L1
 635              	.LVL87:
 636              	.L14:
 872:Drivers/lvgl/src/themes/default/lv_theme_default.c ****         lv_obj_add_style(obj, &theme->styles.bg_color_primary_muted, 0);
 637              		.loc 1 872 10 view .LVU139
 872:Drivers/lvgl/src/themes/default/lv_theme_default.c ****         lv_obj_add_style(obj, &theme->styles.bg_color_primary_muted, 0);
 638              		.loc 1 872 13 is_stmt 0 view .LVU140
 639 03ec D549     		ldr	r1, .L73+16
 640 03ee 2046     		mov	r0, r4
 641 03f0 FFF7FEFF 		bl	lv_obj_check_type
 642              	.LVL88:
 872:Drivers/lvgl/src/themes/default/lv_theme_default.c ****         lv_obj_add_style(obj, &theme->styles.bg_color_primary_muted, 0);
 643              		.loc 1 872 12 discriminator 1 view .LVU141
 644 03f4 30B3     		cbz	r0, .L16
 873:Drivers/lvgl/src/themes/default/lv_theme_default.c ****         lv_obj_add_style(obj, &theme->styles.circle, 0);
 645              		.loc 1 873 9 is_stmt 1 view .LVU142
 646 03f6 0022     		movs	r2, #0
 647 03f8 05F18801 		add	r1, r5, #136
 648 03fc 2046     		mov	r0, r4
 649 03fe FFF7FEFF 		bl	lv_obj_add_style
 650              	.LVL89:
 874:Drivers/lvgl/src/themes/default/lv_theme_default.c ****         lv_obj_add_style(obj, &theme->styles.outline_primary, LV_STATE_FOCUS_KEY);
 651              		.loc 1 874 9 view .LVU143
 874:Drivers/lvgl/src/themes/default/lv_theme_default.c ****         lv_obj_add_style(obj, &theme->styles.outline_primary, LV_STATE_FOCUS_KEY);
 652              		.loc 1 874 31 is_stmt 0 view .LVU144
 653 0402 05F5A476 		add	r6, r5, #328
 654              	.LVL90:
 874:Drivers/lvgl/src/themes/default/lv_theme_default.c ****         lv_obj_add_style(obj, &theme->styles.outline_primary, LV_STATE_FOCUS_KEY);
 655              		.loc 1 874 9 view .LVU145
 656 0406 0022     		movs	r2, #0
 657 0408 3146     		mov	r1, r6
 658 040a 2046     		mov	r0, r4
 659 040c FFF7FEFF 		bl	lv_obj_add_style
 660              	.LVL91:
 875:Drivers/lvgl/src/themes/default/lv_theme_default.c ****         lv_obj_add_style(obj, &theme->styles.outline_secondary, LV_STATE_EDITED);
 661              		.loc 1 875 9 is_stmt 1 view .LVU146
 662 0410 0422     		movs	r2, #4
 663 0412 05F59871 		add	r1, r5, #304
 664 0416 2046     		mov	r0, r4
 665 0418 FFF7FEFF 		bl	lv_obj_add_style
 666              	.LVL92:
 876:Drivers/lvgl/src/themes/default/lv_theme_default.c ****         lv_obj_add_style(obj, &theme->styles.bg_color_primary, LV_PART_INDICATOR);
 667              		.loc 1 876 9 view .LVU147
 668 041c 0822     		movs	r2, #8
 669 041e 05F59E71 		add	r1, r5, #316
 670 0422 2046     		mov	r0, r4
 671 0424 FFF7FEFF 		bl	lv_obj_add_style
 672              	.LVL93:
 877:Drivers/lvgl/src/themes/default/lv_theme_default.c ****         lv_obj_add_style(obj, &theme->styles.circle, LV_PART_INDICATOR);
ARM GAS  /var/folders/qx/2_175_4n2s19vhvtspjhb3qh0000gn/T//ccFV8cem.s 			page 36


 673              		.loc 1 877 9 view .LVU148
 674 0428 4FF40032 		mov	r2, #131072
 675 042c 05F17C01 		add	r1, r5, #124
 676 0430 2046     		mov	r0, r4
 677 0432 FFF7FEFF 		bl	lv_obj_add_style
 678              	.LVL94:
 878:Drivers/lvgl/src/themes/default/lv_theme_default.c ****     }
 679              		.loc 1 878 9 view .LVU149
 680 0436 4FF40032 		mov	r2, #131072
 681 043a 3146     		mov	r1, r6
 682 043c 2046     		mov	r0, r4
 683 043e FFF7FEFF 		bl	lv_obj_add_style
 684              	.LVL95:
 685 0442 4FE6     		b	.L1
 686              	.LVL96:
 687              	.L16:
 883:Drivers/lvgl/src/themes/default/lv_theme_default.c ****         lv_obj_add_style(obj, &theme->styles.bg_color_primary_muted, 0);
 688              		.loc 1 883 10 view .LVU150
 883:Drivers/lvgl/src/themes/default/lv_theme_default.c ****         lv_obj_add_style(obj, &theme->styles.bg_color_primary_muted, 0);
 689              		.loc 1 883 13 is_stmt 0 view .LVU151
 690 0444 C049     		ldr	r1, .L73+20
 691 0446 2046     		mov	r0, r4
 692 0448 FFF7FEFF 		bl	lv_obj_check_type
 693              	.LVL97:
 883:Drivers/lvgl/src/themes/default/lv_theme_default.c ****         lv_obj_add_style(obj, &theme->styles.bg_color_primary_muted, 0);
 694              		.loc 1 883 12 discriminator 1 view .LVU152
 695 044c 0028     		cmp	r0, #0
 696 044e 41D0     		beq	.L17
 884:Drivers/lvgl/src/themes/default/lv_theme_default.c ****         lv_obj_add_style(obj, &theme->styles.circle, 0);
 697              		.loc 1 884 9 is_stmt 1 view .LVU153
 698 0450 0022     		movs	r2, #0
 699 0452 05F18801 		add	r1, r5, #136
 700 0456 2046     		mov	r0, r4
 701 0458 FFF7FEFF 		bl	lv_obj_add_style
 702              	.LVL98:
 885:Drivers/lvgl/src/themes/default/lv_theme_default.c ****         lv_obj_add_style(obj, &theme->styles.outline_primary, LV_STATE_FOCUS_KEY);
 703              		.loc 1 885 9 view .LVU154
 885:Drivers/lvgl/src/themes/default/lv_theme_default.c ****         lv_obj_add_style(obj, &theme->styles.outline_primary, LV_STATE_FOCUS_KEY);
 704              		.loc 1 885 31 is_stmt 0 view .LVU155
 705 045c 05F5A476 		add	r6, r5, #328
 706              	.LVL99:
 885:Drivers/lvgl/src/themes/default/lv_theme_default.c ****         lv_obj_add_style(obj, &theme->styles.outline_primary, LV_STATE_FOCUS_KEY);
 707              		.loc 1 885 9 view .LVU156
 708 0460 0022     		movs	r2, #0
 709 0462 3146     		mov	r1, r6
 710 0464 2046     		mov	r0, r4
 711 0466 FFF7FEFF 		bl	lv_obj_add_style
 712              	.LVL100:
 886:Drivers/lvgl/src/themes/default/lv_theme_default.c ****         lv_obj_add_style(obj, &theme->styles.outline_secondary, LV_STATE_EDITED);
 713              		.loc 1 886 9 is_stmt 1 view .LVU157
 714 046a 0422     		movs	r2, #4
 715 046c 05F59871 		add	r1, r5, #304
 716 0470 2046     		mov	r0, r4
 717 0472 FFF7FEFF 		bl	lv_obj_add_style
 718              	.LVL101:
 887:Drivers/lvgl/src/themes/default/lv_theme_default.c ****         lv_obj_add_style(obj, &theme->styles.bg_color_primary, LV_PART_INDICATOR);
 719              		.loc 1 887 9 view .LVU158
ARM GAS  /var/folders/qx/2_175_4n2s19vhvtspjhb3qh0000gn/T//ccFV8cem.s 			page 37


 720 0476 0822     		movs	r2, #8
 721 0478 05F59E71 		add	r1, r5, #316
 722 047c 2046     		mov	r0, r4
 723 047e FFF7FEFF 		bl	lv_obj_add_style
 724              	.LVL102:
 888:Drivers/lvgl/src/themes/default/lv_theme_default.c ****         lv_obj_add_style(obj, &theme->styles.circle, LV_PART_INDICATOR);
 725              		.loc 1 888 9 view .LVU159
 726 0482 4FF40032 		mov	r2, #131072
 727 0486 05F17C01 		add	r1, r5, #124
 728 048a 2046     		mov	r0, r4
 729 048c FFF7FEFF 		bl	lv_obj_add_style
 730              	.LVL103:
 889:Drivers/lvgl/src/themes/default/lv_theme_default.c ****         lv_obj_add_style(obj, &theme->styles.knob, LV_PART_KNOB);
 731              		.loc 1 889 9 view .LVU160
 732 0490 4FF40032 		mov	r2, #131072
 733 0494 3146     		mov	r1, r6
 734 0496 2046     		mov	r0, r4
 735 0498 FFF7FEFF 		bl	lv_obj_add_style
 736              	.LVL104:
 890:Drivers/lvgl/src/themes/default/lv_theme_default.c **** #if LV_THEME_DEFAULT_GROW
 737              		.loc 1 890 9 view .LVU161
 738 049c 4FF44032 		mov	r2, #196608
 739 04a0 05F5DA71 		add	r1, r5, #436
 740 04a4 2046     		mov	r0, r4
 741 04a6 FFF7FEFF 		bl	lv_obj_add_style
 742              	.LVL105:
 892:Drivers/lvgl/src/themes/default/lv_theme_default.c **** #endif
 743              		.loc 1 892 9 view .LVU162
 744 04aa A84E     		ldr	r6, .L73+24
 745 04ac 3246     		mov	r2, r6
 746 04ae 05F5BC71 		add	r1, r5, #376
 747 04b2 2046     		mov	r0, r4
 748 04b4 FFF7FEFF 		bl	lv_obj_add_style
 749              	.LVL106:
 894:Drivers/lvgl/src/themes/default/lv_theme_default.c ****         lv_obj_add_style(obj, &theme->styles.transition_normal, LV_PART_KNOB | LV_STATE_PRESSED);
 750              		.loc 1 894 9 view .LVU163
 751 04b8 4FF44032 		mov	r2, #196608
 752 04bc 05F5C271 		add	r1, r5, #388
 753 04c0 2046     		mov	r0, r4
 754 04c2 FFF7FEFF 		bl	lv_obj_add_style
 755              	.LVL107:
 895:Drivers/lvgl/src/themes/default/lv_theme_default.c ****     }
 756              		.loc 1 895 9 view .LVU164
 757 04c6 3246     		mov	r2, r6
 758 04c8 05F5C871 		add	r1, r5, #400
 759 04cc 2046     		mov	r0, r4
 760 04ce FFF7FEFF 		bl	lv_obj_add_style
 761              	.LVL108:
 762 04d2 07E6     		b	.L1
 763              	.LVL109:
 764              	.L17:
 900:Drivers/lvgl/src/themes/default/lv_theme_default.c ****         lv_obj_add_style(obj, &theme->styles.card, 0);
 765              		.loc 1 900 10 view .LVU165
 900:Drivers/lvgl/src/themes/default/lv_theme_default.c ****         lv_obj_add_style(obj, &theme->styles.card, 0);
 766              		.loc 1 900 13 is_stmt 0 view .LVU166
 767 04d4 9E49     		ldr	r1, .L73+28
 768 04d6 2046     		mov	r0, r4
ARM GAS  /var/folders/qx/2_175_4n2s19vhvtspjhb3qh0000gn/T//ccFV8cem.s 			page 38


 769 04d8 FFF7FEFF 		bl	lv_obj_check_type
 770              	.LVL110:
 900:Drivers/lvgl/src/themes/default/lv_theme_default.c ****         lv_obj_add_style(obj, &theme->styles.card, 0);
 771              		.loc 1 900 12 discriminator 1 view .LVU167
 772 04dc 0028     		cmp	r0, #0
 773 04de 52D0     		beq	.L18
 901:Drivers/lvgl/src/themes/default/lv_theme_default.c ****         lv_obj_add_style(obj, &theme->styles.pad_zero, 0);
 774              		.loc 1 901 9 is_stmt 1 view .LVU168
 775 04e0 0022     		movs	r2, #0
 776 04e2 05F16401 		add	r1, r5, #100
 777 04e6 2046     		mov	r0, r4
 778 04e8 FFF7FEFF 		bl	lv_obj_add_style
 779              	.LVL111:
 902:Drivers/lvgl/src/themes/default/lv_theme_default.c ****         lv_obj_add_style(obj, &theme->styles.no_radius, 0);
 780              		.loc 1 902 9 view .LVU169
 781 04ec 0022     		movs	r2, #0
 782 04ee 05F1DC01 		add	r1, r5, #220
 783 04f2 2046     		mov	r0, r4
 784 04f4 FFF7FEFF 		bl	lv_obj_add_style
 785              	.LVL112:
 903:Drivers/lvgl/src/themes/default/lv_theme_default.c ****         lv_obj_add_style(obj, &theme->styles.outline_primary, LV_STATE_FOCUS_KEY);
 786              		.loc 1 903 9 view .LVU170
 787 04f8 0022     		movs	r2, #0
 788 04fa 05F5AA71 		add	r1, r5, #340
 789 04fe 2046     		mov	r0, r4
 790 0500 FFF7FEFF 		bl	lv_obj_add_style
 791              	.LVL113:
 904:Drivers/lvgl/src/themes/default/lv_theme_default.c ****         lv_obj_add_style(obj, &theme->styles.outline_secondary, LV_STATE_EDITED);
 792              		.loc 1 904 9 view .LVU171
 793 0504 0422     		movs	r2, #4
 794 0506 05F59871 		add	r1, r5, #304
 795 050a 2046     		mov	r0, r4
 796 050c FFF7FEFF 		bl	lv_obj_add_style
 797              	.LVL114:
 905:Drivers/lvgl/src/themes/default/lv_theme_default.c ****         lv_obj_add_style(obj, &theme->styles.scrollbar, LV_PART_SCROLLBAR);
 798              		.loc 1 905 9 view .LVU172
 799 0510 0822     		movs	r2, #8
 800 0512 05F59E71 		add	r1, r5, #316
 801 0516 2046     		mov	r0, r4
 802 0518 FFF7FEFF 		bl	lv_obj_add_style
 803              	.LVL115:
 906:Drivers/lvgl/src/themes/default/lv_theme_default.c ****         lv_obj_add_style(obj, &theme->styles.scrollbar_scrolled, LV_PART_SCROLLBAR | LV_STATE_SCROL
 804              		.loc 1 906 9 view .LVU173
 805 051c 4FF48032 		mov	r2, #65536
 806 0520 05F14C01 		add	r1, r5, #76
 807 0524 2046     		mov	r0, r4
 808 0526 FFF7FEFF 		bl	lv_obj_add_style
 809              	.LVL116:
 907:Drivers/lvgl/src/themes/default/lv_theme_default.c ****         lv_obj_add_style(obj, &theme->styles.bg_color_white, LV_PART_ITEMS);
 810              		.loc 1 907 9 view .LVU174
 811 052a 8A4A     		ldr	r2, .L73+32
 812 052c 05F15801 		add	r1, r5, #88
 813 0530 2046     		mov	r0, r4
 814 0532 FFF7FEFF 		bl	lv_obj_add_style
 815              	.LVL117:
 908:Drivers/lvgl/src/themes/default/lv_theme_default.c ****         lv_obj_add_style(obj, &theme->styles.table_cell, LV_PART_ITEMS);
 816              		.loc 1 908 9 view .LVU175
ARM GAS  /var/folders/qx/2_175_4n2s19vhvtspjhb3qh0000gn/T//ccFV8cem.s 			page 39


 817 0536 4FF4A022 		mov	r2, #327680
 818 053a 05F1B801 		add	r1, r5, #184
 819 053e 2046     		mov	r0, r4
 820 0540 FFF7FEFF 		bl	lv_obj_add_style
 821              	.LVL118:
 909:Drivers/lvgl/src/themes/default/lv_theme_default.c ****         lv_obj_add_style(obj, &theme->styles.pad_normal, LV_PART_ITEMS);
 822              		.loc 1 909 9 view .LVU176
 823 0544 4FF4A022 		mov	r2, #327680
 824 0548 05F50E71 		add	r1, r5, #568
 825 054c 2046     		mov	r0, r4
 826 054e FFF7FEFF 		bl	lv_obj_add_style
 827              	.LVL119:
 910:Drivers/lvgl/src/themes/default/lv_theme_default.c ****         lv_obj_add_style(obj, &theme->styles.pressed, LV_PART_ITEMS | LV_STATE_PRESSED);
 828              		.loc 1 910 9 view .LVU177
 829 0552 4FF4A022 		mov	r2, #327680
 830 0556 05F58071 		add	r1, r5, #256
 831 055a 2046     		mov	r0, r4
 832 055c FFF7FEFF 		bl	lv_obj_add_style
 833              	.LVL120:
 911:Drivers/lvgl/src/themes/default/lv_theme_default.c ****         lv_obj_add_style(obj, &theme->styles.bg_color_primary, LV_PART_ITEMS | LV_STATE_FOCUS_KEY);
 834              		.loc 1 911 9 view .LVU178
 835 0560 744A     		ldr	r2, .L73
 836 0562 05F1C401 		add	r1, r5, #196
 837 0566 2046     		mov	r0, r4
 838 0568 FFF7FEFF 		bl	lv_obj_add_style
 839              	.LVL121:
 912:Drivers/lvgl/src/themes/default/lv_theme_default.c ****         lv_obj_add_style(obj, &theme->styles.bg_color_secondary, LV_PART_ITEMS | LV_STATE_EDITED);
 840              		.loc 1 912 9 view .LVU179
 841 056c 734A     		ldr	r2, .L73+8
 842 056e 05F17C01 		add	r1, r5, #124
 843 0572 2046     		mov	r0, r4
 844 0574 FFF7FEFF 		bl	lv_obj_add_style
 845              	.LVL122:
 913:Drivers/lvgl/src/themes/default/lv_theme_default.c ****     }
 846              		.loc 1 913 9 view .LVU180
 847 0578 714A     		ldr	r2, .L73+12
 848 057a 05F19401 		add	r1, r5, #148
 849 057e 2046     		mov	r0, r4
 850 0580 FFF7FEFF 		bl	lv_obj_add_style
 851              	.LVL123:
 852 0584 AEE5     		b	.L1
 853              	.L18:
 918:Drivers/lvgl/src/themes/default/lv_theme_default.c ****         lv_obj_add_style(obj, &theme->styles.pad_gap, 0);
 854              		.loc 1 918 10 view .LVU181
 918:Drivers/lvgl/src/themes/default/lv_theme_default.c ****         lv_obj_add_style(obj, &theme->styles.pad_gap, 0);
 855              		.loc 1 918 13 is_stmt 0 view .LVU182
 856 0586 7449     		ldr	r1, .L73+36
 857 0588 2046     		mov	r0, r4
 858 058a FFF7FEFF 		bl	lv_obj_check_type
 859              	.LVL124:
 918:Drivers/lvgl/src/themes/default/lv_theme_default.c ****         lv_obj_add_style(obj, &theme->styles.pad_gap, 0);
 860              		.loc 1 918 12 discriminator 1 view .LVU183
 861 058e 0028     		cmp	r0, #0
 862 0590 40D0     		beq	.L19
 919:Drivers/lvgl/src/themes/default/lv_theme_default.c ****         lv_obj_add_style(obj, &theme->styles.outline_primary, LV_STATE_FOCUS_KEY);
 863              		.loc 1 919 9 is_stmt 1 view .LVU184
 864 0592 0022     		movs	r2, #0
ARM GAS  /var/folders/qx/2_175_4n2s19vhvtspjhb3qh0000gn/T//ccFV8cem.s 			page 40


 865 0594 05F58671 		add	r1, r5, #268
 866 0598 2046     		mov	r0, r4
 867 059a FFF7FEFF 		bl	lv_obj_add_style
 868              	.LVL125:
 920:Drivers/lvgl/src/themes/default/lv_theme_default.c ****         lv_obj_add_style(obj, &theme->styles.disabled, LV_PART_INDICATOR | LV_STATE_DISABLED);
 869              		.loc 1 920 9 view .LVU185
 870 059e 0422     		movs	r2, #4
 871 05a0 05F59871 		add	r1, r5, #304
 872 05a4 2046     		mov	r0, r4
 873 05a6 FFF7FEFF 		bl	lv_obj_add_style
 874              	.LVL126:
 921:Drivers/lvgl/src/themes/default/lv_theme_default.c ****         lv_obj_add_style(obj, &theme->styles.cb_marker, LV_PART_INDICATOR);
 875              		.loc 1 921 9 view .LVU186
 876 05aa 6C4A     		ldr	r2, .L73+40
 877 05ac 05F1D001 		add	r1, r5, #208
 878 05b0 2046     		mov	r0, r4
 879 05b2 FFF7FEFF 		bl	lv_obj_add_style
 880              	.LVL127:
 922:Drivers/lvgl/src/themes/default/lv_theme_default.c ****         lv_obj_add_style(obj, &theme->styles.bg_color_primary, LV_PART_INDICATOR | LV_STATE_CHECKED
 881              		.loc 1 922 9 view .LVU187
 882 05b6 4FF40032 		mov	r2, #131072
 883 05ba 05F50271 		add	r1, r5, #520
 884 05be 2046     		mov	r0, r4
 885 05c0 FFF7FEFF 		bl	lv_obj_add_style
 886              	.LVL128:
 923:Drivers/lvgl/src/themes/default/lv_theme_default.c ****         lv_obj_add_style(obj, &theme->styles.cb_marker_checked, LV_PART_INDICATOR | LV_STATE_CHECKE
 887              		.loc 1 923 9 view .LVU188
 888 05c4 664E     		ldr	r6, .L73+44
 889              	.LVL129:
 923:Drivers/lvgl/src/themes/default/lv_theme_default.c ****         lv_obj_add_style(obj, &theme->styles.cb_marker_checked, LV_PART_INDICATOR | LV_STATE_CHECKE
 890              		.loc 1 923 9 is_stmt 0 view .LVU189
 891 05c6 3246     		mov	r2, r6
 892 05c8 05F17C01 		add	r1, r5, #124
 893 05cc 2046     		mov	r0, r4
 894 05ce FFF7FEFF 		bl	lv_obj_add_style
 895              	.LVL130:
 924:Drivers/lvgl/src/themes/default/lv_theme_default.c ****         lv_obj_add_style(obj, &theme->styles.pressed, LV_PART_INDICATOR | LV_STATE_PRESSED);
 896              		.loc 1 924 9 is_stmt 1 view .LVU190
 897 05d2 3246     		mov	r2, r6
 898 05d4 05F50571 		add	r1, r5, #532
 899 05d8 2046     		mov	r0, r4
 900 05da FFF7FEFF 		bl	lv_obj_add_style
 901              	.LVL131:
 925:Drivers/lvgl/src/themes/default/lv_theme_default.c **** #if LV_THEME_DEFAULT_GROW
 902              		.loc 1 925 9 view .LVU191
 903 05de 1F36     		adds	r6, r6, #31
 904 05e0 3246     		mov	r2, r6
 905 05e2 05F1C401 		add	r1, r5, #196
 906 05e6 2046     		mov	r0, r4
 907 05e8 FFF7FEFF 		bl	lv_obj_add_style
 908              	.LVL132:
 927:Drivers/lvgl/src/themes/default/lv_theme_default.c **** #endif
 909              		.loc 1 927 9 view .LVU192
 910 05ec 3246     		mov	r2, r6
 911 05ee 05F5BC71 		add	r1, r5, #376
 912 05f2 2046     		mov	r0, r4
 913 05f4 FFF7FEFF 		bl	lv_obj_add_style
ARM GAS  /var/folders/qx/2_175_4n2s19vhvtspjhb3qh0000gn/T//ccFV8cem.s 			page 41


 914              	.LVL133:
 929:Drivers/lvgl/src/themes/default/lv_theme_default.c ****         lv_obj_add_style(obj, &theme->styles.transition_delayed, LV_PART_INDICATOR);
 915              		.loc 1 929 9 view .LVU193
 916 05f8 3246     		mov	r2, r6
 917 05fa 05F5C871 		add	r1, r5, #400
 918 05fe 2046     		mov	r0, r4
 919 0600 FFF7FEFF 		bl	lv_obj_add_style
 920              	.LVL134:
 930:Drivers/lvgl/src/themes/default/lv_theme_default.c ****     }
 921              		.loc 1 930 9 view .LVU194
 922 0604 4FF40032 		mov	r2, #131072
 923 0608 05F5C271 		add	r1, r5, #388
 924 060c 2046     		mov	r0, r4
 925 060e FFF7FEFF 		bl	lv_obj_add_style
 926              	.LVL135:
 927 0612 67E5     		b	.L1
 928              	.LVL136:
 929              	.L19:
 935:Drivers/lvgl/src/themes/default/lv_theme_default.c ****         lv_obj_add_style(obj, &theme->styles.bg_color_grey, 0);
 930              		.loc 1 935 10 view .LVU195
 935:Drivers/lvgl/src/themes/default/lv_theme_default.c ****         lv_obj_add_style(obj, &theme->styles.bg_color_grey, 0);
 931              		.loc 1 935 13 is_stmt 0 view .LVU196
 932 0614 5349     		ldr	r1, .L73+48
 933 0616 2046     		mov	r0, r4
 934 0618 FFF7FEFF 		bl	lv_obj_check_type
 935              	.LVL137:
 935:Drivers/lvgl/src/themes/default/lv_theme_default.c ****         lv_obj_add_style(obj, &theme->styles.bg_color_grey, 0);
 936              		.loc 1 935 12 discriminator 1 view .LVU197
 937 061c 0028     		cmp	r0, #0
 938 061e 4ED0     		beq	.L20
 936:Drivers/lvgl/src/themes/default/lv_theme_default.c ****         lv_obj_add_style(obj, &theme->styles.circle, 0);
 939              		.loc 1 936 9 is_stmt 1 view .LVU198
 940 0620 0022     		movs	r2, #0
 941 0622 05F1AC01 		add	r1, r5, #172
 942 0626 2046     		mov	r0, r4
 943 0628 FFF7FEFF 		bl	lv_obj_add_style
 944              	.LVL138:
 937:Drivers/lvgl/src/themes/default/lv_theme_default.c ****         lv_obj_add_style(obj, &theme->styles.anim_fast, 0);
 945              		.loc 1 937 9 view .LVU199
 937:Drivers/lvgl/src/themes/default/lv_theme_default.c ****         lv_obj_add_style(obj, &theme->styles.anim_fast, 0);
 946              		.loc 1 937 31 is_stmt 0 view .LVU200
 947 062c 05F5A477 		add	r7, r5, #328
 937:Drivers/lvgl/src/themes/default/lv_theme_default.c ****         lv_obj_add_style(obj, &theme->styles.anim_fast, 0);
 948              		.loc 1 937 9 view .LVU201
 949 0630 0022     		movs	r2, #0
 950 0632 3946     		mov	r1, r7
 951 0634 2046     		mov	r0, r4
 952 0636 FFF7FEFF 		bl	lv_obj_add_style
 953              	.LVL139:
 938:Drivers/lvgl/src/themes/default/lv_theme_default.c ****         lv_obj_add_style(obj, &theme->styles.disabled, LV_STATE_DISABLED);
 954              		.loc 1 938 9 is_stmt 1 view .LVU202
 955 063a 0022     		movs	r2, #0
 956 063c 05F5D471 		add	r1, r5, #424
 957 0640 2046     		mov	r0, r4
 958 0642 FFF7FEFF 		bl	lv_obj_add_style
 959              	.LVL140:
 939:Drivers/lvgl/src/themes/default/lv_theme_default.c ****         lv_obj_add_style(obj, &theme->styles.outline_primary, LV_STATE_FOCUS_KEY);
ARM GAS  /var/folders/qx/2_175_4n2s19vhvtspjhb3qh0000gn/T//ccFV8cem.s 			page 42


 960              		.loc 1 939 9 view .LVU203
 961 0646 8022     		movs	r2, #128
 962 0648 05F1D001 		add	r1, r5, #208
 963 064c 2046     		mov	r0, r4
 964 064e FFF7FEFF 		bl	lv_obj_add_style
 965              	.LVL141:
 940:Drivers/lvgl/src/themes/default/lv_theme_default.c ****         lv_obj_add_style(obj, &theme->styles.bg_color_primary, LV_PART_INDICATOR | LV_STATE_CHECKED
 966              		.loc 1 940 9 view .LVU204
 967 0652 0422     		movs	r2, #4
 968 0654 05F59871 		add	r1, r5, #304
 969 0658 2046     		mov	r0, r4
 970 065a FFF7FEFF 		bl	lv_obj_add_style
 971              	.LVL142:
 941:Drivers/lvgl/src/themes/default/lv_theme_default.c ****         lv_obj_add_style(obj, &theme->styles.circle, LV_PART_INDICATOR);
 972              		.loc 1 941 9 view .LVU205
 973 065e 404E     		ldr	r6, .L73+44
 974              	.LVL143:
 941:Drivers/lvgl/src/themes/default/lv_theme_default.c ****         lv_obj_add_style(obj, &theme->styles.circle, LV_PART_INDICATOR);
 975              		.loc 1 941 9 is_stmt 0 view .LVU206
 976 0660 3246     		mov	r2, r6
 977 0662 05F17C01 		add	r1, r5, #124
 978 0666 2046     		mov	r0, r4
 979 0668 FFF7FEFF 		bl	lv_obj_add_style
 980              	.LVL144:
 942:Drivers/lvgl/src/themes/default/lv_theme_default.c ****         lv_obj_add_style(obj, &theme->styles.knob, LV_PART_KNOB);
 981              		.loc 1 942 9 is_stmt 1 view .LVU207
 982 066c 4FF40032 		mov	r2, #131072
 983 0670 3946     		mov	r1, r7
 984 0672 2046     		mov	r0, r4
 985 0674 FFF7FEFF 		bl	lv_obj_add_style
 986              	.LVL145:
 943:Drivers/lvgl/src/themes/default/lv_theme_default.c ****         lv_obj_add_style(obj, &theme->styles.bg_color_white, LV_PART_KNOB);
 987              		.loc 1 943 9 view .LVU208
 988 0678 4FF44032 		mov	r2, #196608
 989 067c 05F5DA71 		add	r1, r5, #436
 990 0680 2046     		mov	r0, r4
 991 0682 FFF7FEFF 		bl	lv_obj_add_style
 992              	.LVL146:
 944:Drivers/lvgl/src/themes/default/lv_theme_default.c ****         lv_obj_add_style(obj, &theme->styles.switch_knob, LV_PART_KNOB);
 993              		.loc 1 944 9 view .LVU209
 994 0686 4FF44032 		mov	r2, #196608
 995 068a 05F1B801 		add	r1, r5, #184
 996 068e 2046     		mov	r0, r4
 997 0690 FFF7FEFF 		bl	lv_obj_add_style
 998              	.LVL147:
 945:Drivers/lvgl/src/themes/default/lv_theme_default.c **** 
 999              		.loc 1 945 9 view .LVU210
 1000 0694 4FF44032 		mov	r2, #196608
 1001 0698 05F50871 		add	r1, r5, #544
 1002 069c 2046     		mov	r0, r4
 1003 069e FFF7FEFF 		bl	lv_obj_add_style
 1004              	.LVL148:
 947:Drivers/lvgl/src/themes/default/lv_theme_default.c ****         lv_obj_add_style(obj, &theme->styles.transition_normal, LV_PART_INDICATOR);
 1005              		.loc 1 947 9 view .LVU211
 947:Drivers/lvgl/src/themes/default/lv_theme_default.c ****         lv_obj_add_style(obj, &theme->styles.transition_normal, LV_PART_INDICATOR);
 1006              		.loc 1 947 31 is_stmt 0 view .LVU212
 1007 06a2 05F5C875 		add	r5, r5, #400
ARM GAS  /var/folders/qx/2_175_4n2s19vhvtspjhb3qh0000gn/T//ccFV8cem.s 			page 43


 1008              	.LVL149:
 947:Drivers/lvgl/src/themes/default/lv_theme_default.c ****         lv_obj_add_style(obj, &theme->styles.transition_normal, LV_PART_INDICATOR);
 1009              		.loc 1 947 9 view .LVU213
 1010 06a6 3246     		mov	r2, r6
 1011 06a8 2946     		mov	r1, r5
 1012 06aa 2046     		mov	r0, r4
 1013 06ac FFF7FEFF 		bl	lv_obj_add_style
 1014              	.LVL150:
 948:Drivers/lvgl/src/themes/default/lv_theme_default.c ****     }
 1015              		.loc 1 948 9 is_stmt 1 view .LVU214
 1016 06b0 4FF40032 		mov	r2, #131072
 1017 06b4 2946     		mov	r1, r5
 1018 06b6 2046     		mov	r0, r4
 1019 06b8 FFF7FEFF 		bl	lv_obj_add_style
 1020              	.LVL151:
 1021 06bc 12E5     		b	.L1
 1022              	.LVL152:
 1023              	.L20:
 953:Drivers/lvgl/src/themes/default/lv_theme_default.c ****         lv_obj_add_style(obj, &theme->styles.card, 0);
 1024              		.loc 1 953 10 view .LVU215
 953:Drivers/lvgl/src/themes/default/lv_theme_default.c ****         lv_obj_add_style(obj, &theme->styles.card, 0);
 1025              		.loc 1 953 13 is_stmt 0 view .LVU216
 1026 06be 2A49     		ldr	r1, .L73+52
 1027 06c0 2046     		mov	r0, r4
 1028 06c2 FFF7FEFF 		bl	lv_obj_check_type
 1029              	.LVL153:
 953:Drivers/lvgl/src/themes/default/lv_theme_default.c ****         lv_obj_add_style(obj, &theme->styles.card, 0);
 1030              		.loc 1 953 12 discriminator 1 view .LVU217
 1031 06c6 0028     		cmp	r0, #0
 1032 06c8 50D0     		beq	.L21
 954:Drivers/lvgl/src/themes/default/lv_theme_default.c ****         lv_obj_add_style(obj, &theme->styles.pad_small, 0);
 1033              		.loc 1 954 9 is_stmt 1 view .LVU218
 1034 06ca 0022     		movs	r2, #0
 1035 06cc 05F16401 		add	r1, r5, #100
 1036 06d0 2046     		mov	r0, r4
 1037 06d2 FFF7FEFF 		bl	lv_obj_add_style
 1038              	.LVL154:
 955:Drivers/lvgl/src/themes/default/lv_theme_default.c ****         lv_obj_add_style(obj, &theme->styles.chart_bg, 0);
 1039              		.loc 1 955 9 view .LVU219
 1040 06d6 0022     		movs	r2, #0
 1041 06d8 05F1F401 		add	r1, r5, #244
 1042 06dc 2046     		mov	r0, r4
 1043 06de FFF7FEFF 		bl	lv_obj_add_style
 1044              	.LVL155:
 956:Drivers/lvgl/src/themes/default/lv_theme_default.c ****         lv_obj_add_style(obj, &theme->styles.scrollbar, LV_PART_SCROLLBAR);
 1045              		.loc 1 956 9 view .LVU220
 1046 06e2 0022     		movs	r2, #0
 1047 06e4 05F5F871 		add	r1, r5, #496
 1048 06e8 2046     		mov	r0, r4
 1049 06ea FFF7FEFF 		bl	lv_obj_add_style
 1050              	.LVL156:
 957:Drivers/lvgl/src/themes/default/lv_theme_default.c ****         lv_obj_add_style(obj, &theme->styles.scrollbar_scrolled, LV_PART_SCROLLBAR | LV_STATE_SCROL
 1051              		.loc 1 957 9 view .LVU221
 1052 06ee 4FF48032 		mov	r2, #65536
 1053 06f2 05F14C01 		add	r1, r5, #76
 1054 06f6 2046     		mov	r0, r4
 1055 06f8 FFF7FEFF 		bl	lv_obj_add_style
ARM GAS  /var/folders/qx/2_175_4n2s19vhvtspjhb3qh0000gn/T//ccFV8cem.s 			page 44


 1056              	.LVL157:
 958:Drivers/lvgl/src/themes/default/lv_theme_default.c ****         lv_obj_add_style(obj, &theme->styles.chart_series, LV_PART_ITEMS);
 1057              		.loc 1 958 9 view .LVU222
 1058 06fc 154A     		ldr	r2, .L73+32
 1059 06fe 05F15801 		add	r1, r5, #88
 1060 0702 2046     		mov	r0, r4
 1061 0704 FFF7FEFF 		bl	lv_obj_add_style
 1062              	.LVL158:
 959:Drivers/lvgl/src/themes/default/lv_theme_default.c ****         lv_obj_add_style(obj, &theme->styles.chart_indic, LV_PART_INDICATOR);
 1063              		.loc 1 959 9 view .LVU223
 959:Drivers/lvgl/src/themes/default/lv_theme_default.c ****         lv_obj_add_style(obj, &theme->styles.chart_indic, LV_PART_INDICATOR);
 1064              		.loc 1 959 31 is_stmt 0 view .LVU224
 1065 0708 05F5EC76 		add	r6, r5, #472
 1066              	.LVL159:
 959:Drivers/lvgl/src/themes/default/lv_theme_default.c ****         lv_obj_add_style(obj, &theme->styles.chart_indic, LV_PART_INDICATOR);
 1067              		.loc 1 959 9 view .LVU225
 1068 070c 4FF4A022 		mov	r2, #327680
 1069 0710 3146     		mov	r1, r6
 1070 0712 2046     		mov	r0, r4
 1071 0714 FFF7FEFF 		bl	lv_obj_add_style
 1072              	.LVL160:
 960:Drivers/lvgl/src/themes/default/lv_theme_default.c ****         lv_obj_add_style(obj, &theme->styles.chart_series, LV_PART_CURSOR);
 1073              		.loc 1 960 9 is_stmt 1 view .LVU226
 1074 0718 4FF40032 		mov	r2, #131072
 1075 071c 05F5F271 		add	r1, r5, #484
 1076 0720 2046     		mov	r0, r4
 1077 0722 FFF7FEFF 		bl	lv_obj_add_style
 1078              	.LVL161:
 961:Drivers/lvgl/src/themes/default/lv_theme_default.c ****     }
 1079              		.loc 1 961 9 view .LVU227
 1080 0726 4FF4C022 		mov	r2, #393216
 1081 072a 3146     		mov	r1, r6
 1082 072c 2046     		mov	r0, r4
 1083 072e FFF7FEFF 		bl	lv_obj_add_style
 1084              	.LVL162:
 1085 0732 D7E4     		b	.L1
 1086              	.L74:
 1087              		.align	2
 1088              	.L73:
 1089 0734 20000500 		.word	327712
 1090 0738 80000500 		.word	327808
 1091 073c 04000500 		.word	327684
 1092 0740 08000500 		.word	327688
 1093 0744 00000000 		.word	lv_bar_class
 1094 0748 00000000 		.word	lv_slider_class
 1095 074c 20000300 		.word	196640
 1096 0750 00000000 		.word	lv_table_class
 1097 0754 40000100 		.word	65600
 1098 0758 00000000 		.word	lv_checkbox_class
 1099 075c 80000200 		.word	131200
 1100 0760 01000200 		.word	131073
 1101 0764 00000000 		.word	lv_switch_class
 1102 0768 00000000 		.word	lv_chart_class
 1103              	.LVL163:
 1104              	.L21:
 966:Drivers/lvgl/src/themes/default/lv_theme_default.c ****         lv_obj_add_style(obj, &theme->styles.card, 0);
 1105              		.loc 1 966 10 view .LVU228
ARM GAS  /var/folders/qx/2_175_4n2s19vhvtspjhb3qh0000gn/T//ccFV8cem.s 			page 45


 966:Drivers/lvgl/src/themes/default/lv_theme_default.c ****         lv_obj_add_style(obj, &theme->styles.card, 0);
 1106              		.loc 1 966 13 is_stmt 0 view .LVU229
 1107 076c D449     		ldr	r1, .L75
 1108 076e 2046     		mov	r0, r4
 1109 0770 FFF7FEFF 		bl	lv_obj_check_type
 1110              	.LVL164:
 966:Drivers/lvgl/src/themes/default/lv_theme_default.c ****         lv_obj_add_style(obj, &theme->styles.card, 0);
 1111              		.loc 1 966 12 discriminator 1 view .LVU230
 1112 0774 58B3     		cbz	r0, .L22
 967:Drivers/lvgl/src/themes/default/lv_theme_default.c ****         lv_obj_add_style(obj, &theme->styles.anim, 0);
 1113              		.loc 1 967 9 is_stmt 1 view .LVU231
 1114 0776 0022     		movs	r2, #0
 1115 0778 05F16401 		add	r1, r5, #100
 1116 077c 2046     		mov	r0, r4
 1117 077e FFF7FEFF 		bl	lv_obj_add_style
 1118              	.LVL165:
 968:Drivers/lvgl/src/themes/default/lv_theme_default.c ****         lv_obj_add_style(obj, &theme->styles.line_space_large, 0);
 1119              		.loc 1 968 9 view .LVU232
 1120 0782 0022     		movs	r2, #0
 1121 0784 05F5CE71 		add	r1, r5, #412
 1122 0788 2046     		mov	r0, r4
 1123 078a FFF7FEFF 		bl	lv_obj_add_style
 1124              	.LVL166:
 969:Drivers/lvgl/src/themes/default/lv_theme_default.c ****         lv_obj_add_style(obj, &theme->styles.text_align_center, 0);
 1125              		.loc 1 969 9 view .LVU233
 1126 078e 0022     		movs	r2, #0
 1127 0790 05F58C71 		add	r1, r5, #280
 1128 0794 2046     		mov	r0, r4
 1129 0796 FFF7FEFF 		bl	lv_obj_add_style
 1130              	.LVL167:
 970:Drivers/lvgl/src/themes/default/lv_theme_default.c ****         lv_obj_add_style(obj, &theme->styles.outline_primary, LV_STATE_FOCUS_KEY);
 1131              		.loc 1 970 9 view .LVU234
 1132 079a 0022     		movs	r2, #0
 1133 079c 05F59271 		add	r1, r5, #292
 1134 07a0 2046     		mov	r0, r4
 1135 07a2 FFF7FEFF 		bl	lv_obj_add_style
 1136              	.LVL168:
 971:Drivers/lvgl/src/themes/default/lv_theme_default.c ****         lv_obj_add_style(obj, &theme->styles.outline_secondary, LV_STATE_EDITED);
 1137              		.loc 1 971 9 view .LVU235
 1138 07a6 0422     		movs	r2, #4
 1139 07a8 05F59871 		add	r1, r5, #304
 1140 07ac 2046     		mov	r0, r4
 1141 07ae FFF7FEFF 		bl	lv_obj_add_style
 1142              	.LVL169:
 972:Drivers/lvgl/src/themes/default/lv_theme_default.c ****         lv_obj_add_style(obj, &theme->styles.bg_color_primary, LV_PART_SELECTED);
 1143              		.loc 1 972 9 view .LVU236
 1144 07b2 0822     		movs	r2, #8
 1145 07b4 05F59E71 		add	r1, r5, #316
 1146 07b8 2046     		mov	r0, r4
 1147 07ba FFF7FEFF 		bl	lv_obj_add_style
 1148              	.LVL170:
 973:Drivers/lvgl/src/themes/default/lv_theme_default.c ****     }
 1149              		.loc 1 973 9 view .LVU237
 1150 07be 4FF48022 		mov	r2, #262144
 1151 07c2 05F17C01 		add	r1, r5, #124
 1152 07c6 2046     		mov	r0, r4
 1153 07c8 FFF7FEFF 		bl	lv_obj_add_style
ARM GAS  /var/folders/qx/2_175_4n2s19vhvtspjhb3qh0000gn/T//ccFV8cem.s 			page 46


 1154              	.LVL171:
 1155 07cc 8AE4     		b	.L1
 1156              	.L22:
 978:Drivers/lvgl/src/themes/default/lv_theme_default.c ****         lv_obj_add_style(obj, &theme->styles.card, 0);
 1157              		.loc 1 978 10 view .LVU238
 978:Drivers/lvgl/src/themes/default/lv_theme_default.c ****         lv_obj_add_style(obj, &theme->styles.card, 0);
 1158              		.loc 1 978 13 is_stmt 0 view .LVU239
 1159 07ce BD49     		ldr	r1, .L75+4
 1160 07d0 2046     		mov	r0, r4
 1161 07d2 FFF7FEFF 		bl	lv_obj_check_type
 1162              	.LVL172:
 978:Drivers/lvgl/src/themes/default/lv_theme_default.c ****         lv_obj_add_style(obj, &theme->styles.card, 0);
 1163              		.loc 1 978 12 discriminator 1 view .LVU240
 1164 07d6 B8B3     		cbz	r0, .L23
 979:Drivers/lvgl/src/themes/default/lv_theme_default.c ****         lv_obj_add_style(obj, &theme->styles.pad_small, 0);
 1165              		.loc 1 979 9 is_stmt 1 view .LVU241
 1166 07d8 0022     		movs	r2, #0
 1167 07da 05F16401 		add	r1, r5, #100
 1168 07de 2046     		mov	r0, r4
 1169 07e0 FFF7FEFF 		bl	lv_obj_add_style
 1170              	.LVL173:
 980:Drivers/lvgl/src/themes/default/lv_theme_default.c ****         lv_obj_add_style(obj, &theme->styles.transition_delayed, 0);
 1171              		.loc 1 980 9 view .LVU242
 1172 07e4 0022     		movs	r2, #0
 1173 07e6 05F1F401 		add	r1, r5, #244
 1174 07ea 2046     		mov	r0, r4
 1175 07ec FFF7FEFF 		bl	lv_obj_add_style
 1176              	.LVL174:
 981:Drivers/lvgl/src/themes/default/lv_theme_default.c ****         lv_obj_add_style(obj, &theme->styles.transition_normal, LV_STATE_PRESSED);
 1177              		.loc 1 981 9 view .LVU243
 1178 07f0 0022     		movs	r2, #0
 1179 07f2 05F5C271 		add	r1, r5, #388
 1180 07f6 2046     		mov	r0, r4
 1181 07f8 FFF7FEFF 		bl	lv_obj_add_style
 1182              	.LVL175:
 982:Drivers/lvgl/src/themes/default/lv_theme_default.c ****         lv_obj_add_style(obj, &theme->styles.pressed, LV_STATE_PRESSED);
 1183              		.loc 1 982 9 view .LVU244
 982:Drivers/lvgl/src/themes/default/lv_theme_default.c ****         lv_obj_add_style(obj, &theme->styles.pressed, LV_STATE_PRESSED);
 1184              		.loc 1 982 31 is_stmt 0 view .LVU245
 1185 07fc 05F5C876 		add	r6, r5, #400
 1186              	.LVL176:
 982:Drivers/lvgl/src/themes/default/lv_theme_default.c ****         lv_obj_add_style(obj, &theme->styles.pressed, LV_STATE_PRESSED);
 1187              		.loc 1 982 9 view .LVU246
 1188 0800 2022     		movs	r2, #32
 1189 0802 3146     		mov	r1, r6
 1190 0804 2046     		mov	r0, r4
 1191 0806 FFF7FEFF 		bl	lv_obj_add_style
 1192              	.LVL177:
 983:Drivers/lvgl/src/themes/default/lv_theme_default.c ****         lv_obj_add_style(obj, &theme->styles.outline_primary, LV_STATE_FOCUS_KEY);
 1193              		.loc 1 983 9 is_stmt 1 view .LVU247
 1194 080a 2022     		movs	r2, #32
 1195 080c 05F1C401 		add	r1, r5, #196
 1196 0810 2046     		mov	r0, r4
 1197 0812 FFF7FEFF 		bl	lv_obj_add_style
 1198              	.LVL178:
 984:Drivers/lvgl/src/themes/default/lv_theme_default.c ****         lv_obj_add_style(obj, &theme->styles.outline_secondary, LV_STATE_EDITED);
 1199              		.loc 1 984 9 view .LVU248
ARM GAS  /var/folders/qx/2_175_4n2s19vhvtspjhb3qh0000gn/T//ccFV8cem.s 			page 47


 1200 0816 0422     		movs	r2, #4
 1201 0818 05F59871 		add	r1, r5, #304
 1202 081c 2046     		mov	r0, r4
 1203 081e FFF7FEFF 		bl	lv_obj_add_style
 1204              	.LVL179:
 985:Drivers/lvgl/src/themes/default/lv_theme_default.c ****         lv_obj_add_style(obj, &theme->styles.transition_normal, LV_PART_INDICATOR);
 1205              		.loc 1 985 9 view .LVU249
 1206 0822 0822     		movs	r2, #8
 1207 0824 05F59E71 		add	r1, r5, #316
 1208 0828 2046     		mov	r0, r4
 1209 082a FFF7FEFF 		bl	lv_obj_add_style
 1210              	.LVL180:
 986:Drivers/lvgl/src/themes/default/lv_theme_default.c ****         lv_obj_add_style(obj, &theme->styles.disabled, LV_STATE_DISABLED);
 1211              		.loc 1 986 9 view .LVU250
 1212 082e 4FF40032 		mov	r2, #131072
 1213 0832 3146     		mov	r1, r6
 1214 0834 2046     		mov	r0, r4
 1215 0836 FFF7FEFF 		bl	lv_obj_add_style
 1216              	.LVL181:
 987:Drivers/lvgl/src/themes/default/lv_theme_default.c ****     }
 1217              		.loc 1 987 9 view .LVU251
 1218 083a 8022     		movs	r2, #128
 1219 083c 05F1D001 		add	r1, r5, #208
 1220 0840 2046     		mov	r0, r4
 1221 0842 FFF7FEFF 		bl	lv_obj_add_style
 1222              	.LVL182:
 1223 0846 4DE4     		b	.L1
 1224              	.LVL183:
 1225              	.L23:
 989:Drivers/lvgl/src/themes/default/lv_theme_default.c ****         lv_obj_add_style(obj, &theme->styles.card, 0);
 1226              		.loc 1 989 10 view .LVU252
 989:Drivers/lvgl/src/themes/default/lv_theme_default.c ****         lv_obj_add_style(obj, &theme->styles.card, 0);
 1227              		.loc 1 989 13 is_stmt 0 view .LVU253
 1228 0848 9F49     		ldr	r1, .L75+8
 1229 084a 2046     		mov	r0, r4
 1230 084c FFF7FEFF 		bl	lv_obj_check_type
 1231              	.LVL184:
 989:Drivers/lvgl/src/themes/default/lv_theme_default.c ****         lv_obj_add_style(obj, &theme->styles.card, 0);
 1232              		.loc 1 989 12 discriminator 1 view .LVU254
 1233 0850 90B3     		cbz	r0, .L24
 990:Drivers/lvgl/src/themes/default/lv_theme_default.c ****         lv_obj_add_style(obj, &theme->styles.line_space_large, 0);
 1234              		.loc 1 990 9 is_stmt 1 view .LVU255
 1235 0852 0022     		movs	r2, #0
 1236 0854 05F16401 		add	r1, r5, #100
 1237 0858 2046     		mov	r0, r4
 1238 085a FFF7FEFF 		bl	lv_obj_add_style
 1239              	.LVL185:
 991:Drivers/lvgl/src/themes/default/lv_theme_default.c ****         lv_obj_add_style(obj, &theme->styles.dropdown_list, 0);
 1240              		.loc 1 991 9 view .LVU256
 1241 085e 0022     		movs	r2, #0
 1242 0860 05F58C71 		add	r1, r5, #280
 1243 0864 2046     		mov	r0, r4
 1244 0866 FFF7FEFF 		bl	lv_obj_add_style
 1245              	.LVL186:
 992:Drivers/lvgl/src/themes/default/lv_theme_default.c ****         lv_obj_add_style(obj, &theme->styles.scrollbar, LV_PART_SCROLLBAR);
 1246              		.loc 1 992 9 view .LVU257
 1247 086a 0022     		movs	r2, #0
ARM GAS  /var/folders/qx/2_175_4n2s19vhvtspjhb3qh0000gn/T//ccFV8cem.s 			page 48


 1248 086c 05F5FE71 		add	r1, r5, #508
 1249 0870 2046     		mov	r0, r4
 1250 0872 FFF7FEFF 		bl	lv_obj_add_style
 1251              	.LVL187:
 993:Drivers/lvgl/src/themes/default/lv_theme_default.c ****         lv_obj_add_style(obj, &theme->styles.scrollbar_scrolled, LV_PART_SCROLLBAR | LV_STATE_SCROL
 1252              		.loc 1 993 9 view .LVU258
 1253 0876 4FF48032 		mov	r2, #65536
 1254 087a 05F14C01 		add	r1, r5, #76
 1255 087e 2046     		mov	r0, r4
 1256 0880 FFF7FEFF 		bl	lv_obj_add_style
 1257              	.LVL188:
 994:Drivers/lvgl/src/themes/default/lv_theme_default.c ****         lv_obj_add_style(obj, &theme->styles.bg_color_white, LV_PART_SELECTED);
 1258              		.loc 1 994 9 view .LVU259
 1259 0884 914A     		ldr	r2, .L75+12
 1260 0886 05F15801 		add	r1, r5, #88
 1261 088a 2046     		mov	r0, r4
 1262 088c FFF7FEFF 		bl	lv_obj_add_style
 1263              	.LVL189:
 995:Drivers/lvgl/src/themes/default/lv_theme_default.c ****         lv_obj_add_style(obj, &theme->styles.bg_color_primary, LV_PART_SELECTED | LV_STATE_CHECKED)
 1264              		.loc 1 995 9 view .LVU260
 1265 0890 4FF48022 		mov	r2, #262144
 1266 0894 05F1B801 		add	r1, r5, #184
 1267 0898 2046     		mov	r0, r4
 1268 089a FFF7FEFF 		bl	lv_obj_add_style
 1269              	.LVL190:
 996:Drivers/lvgl/src/themes/default/lv_theme_default.c ****         lv_obj_add_style(obj, &theme->styles.pressed, LV_PART_SELECTED | LV_STATE_PRESSED);
 1270              		.loc 1 996 9 view .LVU261
 1271 089e 8C4A     		ldr	r2, .L75+16
 1272 08a0 05F17C01 		add	r1, r5, #124
 1273 08a4 2046     		mov	r0, r4
 1274 08a6 FFF7FEFF 		bl	lv_obj_add_style
 1275              	.LVL191:
 997:Drivers/lvgl/src/themes/default/lv_theme_default.c ****     }
 1276              		.loc 1 997 9 view .LVU262
 1277 08aa 8A4A     		ldr	r2, .L75+20
 1278 08ac 05F1C401 		add	r1, r5, #196
 1279 08b0 2046     		mov	r0, r4
 1280 08b2 FFF7FEFF 		bl	lv_obj_add_style
 1281              	.LVL192:
 1282 08b6 15E4     		b	.L1
 1283              	.L24:
1002:Drivers/lvgl/src/themes/default/lv_theme_default.c ****         lv_obj_add_style(obj, &theme->styles.arc_indic, 0);
 1284              		.loc 1 1002 10 view .LVU263
1002:Drivers/lvgl/src/themes/default/lv_theme_default.c ****         lv_obj_add_style(obj, &theme->styles.arc_indic, 0);
 1285              		.loc 1 1002 13 is_stmt 0 view .LVU264
 1286 08b8 8749     		ldr	r1, .L75+24
 1287 08ba 2046     		mov	r0, r4
 1288 08bc FFF7FEFF 		bl	lv_obj_check_type
 1289              	.LVL193:
1002:Drivers/lvgl/src/themes/default/lv_theme_default.c ****         lv_obj_add_style(obj, &theme->styles.arc_indic, 0);
 1290              		.loc 1 1002 12 discriminator 1 view .LVU265
 1291 08c0 E0B1     		cbz	r0, .L25
1003:Drivers/lvgl/src/themes/default/lv_theme_default.c ****         lv_obj_add_style(obj, &theme->styles.arc_indic, LV_PART_INDICATOR);
 1292              		.loc 1 1003 9 is_stmt 1 view .LVU266
1003:Drivers/lvgl/src/themes/default/lv_theme_default.c ****         lv_obj_add_style(obj, &theme->styles.arc_indic, LV_PART_INDICATOR);
 1293              		.loc 1 1003 31 is_stmt 0 view .LVU267
 1294 08c2 05F5E076 		add	r6, r5, #448
ARM GAS  /var/folders/qx/2_175_4n2s19vhvtspjhb3qh0000gn/T//ccFV8cem.s 			page 49


 1295              	.LVL194:
1003:Drivers/lvgl/src/themes/default/lv_theme_default.c ****         lv_obj_add_style(obj, &theme->styles.arc_indic, LV_PART_INDICATOR);
 1296              		.loc 1 1003 9 view .LVU268
 1297 08c6 0022     		movs	r2, #0
 1298 08c8 3146     		mov	r1, r6
 1299 08ca 2046     		mov	r0, r4
 1300 08cc FFF7FEFF 		bl	lv_obj_add_style
 1301              	.LVL195:
1004:Drivers/lvgl/src/themes/default/lv_theme_default.c ****         lv_obj_add_style(obj, &theme->styles.arc_indic_primary, LV_PART_INDICATOR);
 1302              		.loc 1 1004 9 is_stmt 1 view .LVU269
 1303 08d0 4FF40032 		mov	r2, #131072
 1304 08d4 3146     		mov	r1, r6
 1305 08d6 2046     		mov	r0, r4
 1306 08d8 FFF7FEFF 		bl	lv_obj_add_style
 1307              	.LVL196:
1005:Drivers/lvgl/src/themes/default/lv_theme_default.c ****         lv_obj_add_style(obj, &theme->styles.knob, LV_PART_KNOB);
 1308              		.loc 1 1005 9 view .LVU270
 1309 08dc 4FF40032 		mov	r2, #131072
 1310 08e0 05F5E671 		add	r1, r5, #460
 1311 08e4 2046     		mov	r0, r4
 1312 08e6 FFF7FEFF 		bl	lv_obj_add_style
 1313              	.LVL197:
1006:Drivers/lvgl/src/themes/default/lv_theme_default.c ****     }
 1314              		.loc 1 1006 9 view .LVU271
 1315 08ea 4FF44032 		mov	r2, #196608
 1316 08ee 05F5DA71 		add	r1, r5, #436
 1317 08f2 2046     		mov	r0, r4
 1318 08f4 FFF7FEFF 		bl	lv_obj_add_style
 1319              	.LVL198:
 1320 08f8 FFF7F4BB 		b	.L1
 1321              	.LVL199:
 1322              	.L25:
1011:Drivers/lvgl/src/themes/default/lv_theme_default.c ****         lv_obj_add_style(obj, &theme->styles.arc_indic, 0);
 1323              		.loc 1 1011 10 view .LVU272
1011:Drivers/lvgl/src/themes/default/lv_theme_default.c ****         lv_obj_add_style(obj, &theme->styles.arc_indic, 0);
 1324              		.loc 1 1011 13 is_stmt 0 view .LVU273
 1325 08fc 7749     		ldr	r1, .L75+28
 1326 08fe 2046     		mov	r0, r4
 1327 0900 FFF7FEFF 		bl	lv_obj_check_type
 1328              	.LVL200:
1011:Drivers/lvgl/src/themes/default/lv_theme_default.c ****         lv_obj_add_style(obj, &theme->styles.arc_indic, 0);
 1329              		.loc 1 1011 12 discriminator 1 view .LVU274
 1330 0904 A8B1     		cbz	r0, .L26
1012:Drivers/lvgl/src/themes/default/lv_theme_default.c ****         lv_obj_add_style(obj, &theme->styles.arc_indic, LV_PART_INDICATOR);
 1331              		.loc 1 1012 9 is_stmt 1 view .LVU275
1012:Drivers/lvgl/src/themes/default/lv_theme_default.c ****         lv_obj_add_style(obj, &theme->styles.arc_indic, LV_PART_INDICATOR);
 1332              		.loc 1 1012 31 is_stmt 0 view .LVU276
 1333 0906 05F5E076 		add	r6, r5, #448
 1334              	.LVL201:
1012:Drivers/lvgl/src/themes/default/lv_theme_default.c ****         lv_obj_add_style(obj, &theme->styles.arc_indic, LV_PART_INDICATOR);
 1335              		.loc 1 1012 9 view .LVU277
 1336 090a 0022     		movs	r2, #0
 1337 090c 3146     		mov	r1, r6
 1338 090e 2046     		mov	r0, r4
 1339 0910 FFF7FEFF 		bl	lv_obj_add_style
 1340              	.LVL202:
1013:Drivers/lvgl/src/themes/default/lv_theme_default.c ****         lv_obj_add_style(obj, &theme->styles.arc_indic_primary, LV_PART_INDICATOR);
ARM GAS  /var/folders/qx/2_175_4n2s19vhvtspjhb3qh0000gn/T//ccFV8cem.s 			page 50


 1341              		.loc 1 1013 9 is_stmt 1 view .LVU278
 1342 0914 4FF40032 		mov	r2, #131072
 1343 0918 3146     		mov	r1, r6
 1344 091a 2046     		mov	r0, r4
 1345 091c FFF7FEFF 		bl	lv_obj_add_style
 1346              	.LVL203:
1014:Drivers/lvgl/src/themes/default/lv_theme_default.c ****     }
 1347              		.loc 1 1014 9 view .LVU279
 1348 0920 4FF40032 		mov	r2, #131072
 1349 0924 05F5E671 		add	r1, r5, #460
 1350 0928 2046     		mov	r0, r4
 1351 092a FFF7FEFF 		bl	lv_obj_add_style
 1352              	.LVL204:
 1353 092e FFF7D9BB 		b	.L1
 1354              	.LVL205:
 1355              	.L26:
1019:Drivers/lvgl/src/themes/default/lv_theme_default.c ****         lv_obj_add_style(obj, &theme->styles.card, 0);
 1356              		.loc 1 1019 10 view .LVU280
1019:Drivers/lvgl/src/themes/default/lv_theme_default.c ****         lv_obj_add_style(obj, &theme->styles.card, 0);
 1357              		.loc 1 1019 13 is_stmt 0 view .LVU281
 1358 0932 6B49     		ldr	r1, .L75+32
 1359 0934 2046     		mov	r0, r4
 1360 0936 FFF7FEFF 		bl	lv_obj_check_type
 1361              	.LVL206:
1019:Drivers/lvgl/src/themes/default/lv_theme_default.c ****         lv_obj_add_style(obj, &theme->styles.card, 0);
 1362              		.loc 1 1019 12 discriminator 1 view .LVU282
 1363 093a C8B3     		cbz	r0, .L27
1020:Drivers/lvgl/src/themes/default/lv_theme_default.c ****         lv_obj_add_style(obj, &theme->styles.pad_small, 0);
 1364              		.loc 1 1020 9 is_stmt 1 view .LVU283
 1365 093c 0022     		movs	r2, #0
 1366 093e 05F16401 		add	r1, r5, #100
 1367 0942 2046     		mov	r0, r4
 1368 0944 FFF7FEFF 		bl	lv_obj_add_style
 1369              	.LVL207:
1021:Drivers/lvgl/src/themes/default/lv_theme_default.c ****         lv_obj_add_style(obj, &theme->styles.disabled, LV_STATE_DISABLED);
 1370              		.loc 1 1021 9 view .LVU284
 1371 0948 0022     		movs	r2, #0
 1372 094a 05F1F401 		add	r1, r5, #244
 1373 094e 2046     		mov	r0, r4
 1374 0950 FFF7FEFF 		bl	lv_obj_add_style
 1375              	.LVL208:
1022:Drivers/lvgl/src/themes/default/lv_theme_default.c ****         lv_obj_add_style(obj, &theme->styles.outline_primary, LV_STATE_FOCUS_KEY);
 1376              		.loc 1 1022 9 view .LVU285
 1377 0954 8022     		movs	r2, #128
 1378 0956 05F1D001 		add	r1, r5, #208
 1379 095a 2046     		mov	r0, r4
 1380 095c FFF7FEFF 		bl	lv_obj_add_style
 1381              	.LVL209:
1023:Drivers/lvgl/src/themes/default/lv_theme_default.c ****         lv_obj_add_style(obj, &theme->styles.outline_secondary, LV_STATE_EDITED);
 1382              		.loc 1 1023 9 view .LVU286
 1383 0960 0422     		movs	r2, #4
 1384 0962 05F59871 		add	r1, r5, #304
 1385 0966 2046     		mov	r0, r4
 1386 0968 FFF7FEFF 		bl	lv_obj_add_style
 1387              	.LVL210:
1024:Drivers/lvgl/src/themes/default/lv_theme_default.c ****         lv_obj_add_style(obj, &theme->styles.scrollbar, LV_PART_SCROLLBAR);
 1388              		.loc 1 1024 9 view .LVU287
ARM GAS  /var/folders/qx/2_175_4n2s19vhvtspjhb3qh0000gn/T//ccFV8cem.s 			page 51


 1389 096c 0822     		movs	r2, #8
 1390 096e 05F59E71 		add	r1, r5, #316
 1391 0972 2046     		mov	r0, r4
 1392 0974 FFF7FEFF 		bl	lv_obj_add_style
 1393              	.LVL211:
1025:Drivers/lvgl/src/themes/default/lv_theme_default.c ****         lv_obj_add_style(obj, &theme->styles.scrollbar_scrolled, LV_PART_SCROLLBAR | LV_STATE_SCROL
 1394              		.loc 1 1025 9 view .LVU288
 1395 0978 4FF48032 		mov	r2, #65536
 1396 097c 05F14C01 		add	r1, r5, #76
 1397 0980 2046     		mov	r0, r4
 1398 0982 FFF7FEFF 		bl	lv_obj_add_style
 1399              	.LVL212:
1026:Drivers/lvgl/src/themes/default/lv_theme_default.c ****         lv_obj_add_style(obj, &theme->styles.ta_cursor, LV_PART_CURSOR | LV_STATE_FOCUSED);
 1400              		.loc 1 1026 9 view .LVU289
 1401 0986 514A     		ldr	r2, .L75+12
 1402 0988 05F15801 		add	r1, r5, #88
 1403 098c 2046     		mov	r0, r4
 1404 098e FFF7FEFF 		bl	lv_obj_add_style
 1405              	.LVL213:
1027:Drivers/lvgl/src/themes/default/lv_theme_default.c ****         lv_obj_add_style(obj, &theme->styles.ta_placeholder, LV_PART_TEXTAREA_PLACEHOLDER);
 1406              		.loc 1 1027 9 view .LVU290
 1407 0992 544A     		ldr	r2, .L75+36
 1408 0994 05F51171 		add	r1, r5, #580
 1409 0998 2046     		mov	r0, r4
 1410 099a FFF7FEFF 		bl	lv_obj_add_style
 1411              	.LVL214:
1028:Drivers/lvgl/src/themes/default/lv_theme_default.c ****     }
 1412              		.loc 1 1028 9 view .LVU291
 1413 099e 4FF40022 		mov	r2, #524288
 1414 09a2 05F51471 		add	r1, r5, #592
 1415 09a6 2046     		mov	r0, r4
 1416 09a8 FFF7FEFF 		bl	lv_obj_add_style
 1417              	.LVL215:
 1418 09ac FFF79ABB 		b	.L1
 1419              	.L27:
1033:Drivers/lvgl/src/themes/default/lv_theme_default.c ****         lv_obj_add_style(obj, &theme->styles.card, 0);
 1420              		.loc 1 1033 10 view .LVU292
1033:Drivers/lvgl/src/themes/default/lv_theme_default.c ****         lv_obj_add_style(obj, &theme->styles.card, 0);
 1421              		.loc 1 1033 13 is_stmt 0 view .LVU293
 1422 09b0 4D49     		ldr	r1, .L75+40
 1423 09b2 2046     		mov	r0, r4
 1424 09b4 FFF7FEFF 		bl	lv_obj_check_type
 1425              	.LVL216:
1033:Drivers/lvgl/src/themes/default/lv_theme_default.c ****         lv_obj_add_style(obj, &theme->styles.card, 0);
 1426              		.loc 1 1033 12 discriminator 1 view .LVU294
 1427 09b8 68B1     		cbz	r0, .L28
1034:Drivers/lvgl/src/themes/default/lv_theme_default.c ****         lv_obj_add_style(obj, &theme->styles.pad_zero, 0);
 1428              		.loc 1 1034 9 is_stmt 1 view .LVU295
 1429 09ba 0022     		movs	r2, #0
 1430 09bc 05F16401 		add	r1, r5, #100
 1431 09c0 2046     		mov	r0, r4
 1432 09c2 FFF7FEFF 		bl	lv_obj_add_style
 1433              	.LVL217:
1035:Drivers/lvgl/src/themes/default/lv_theme_default.c ****     }
 1434              		.loc 1 1035 9 view .LVU296
 1435 09c6 0022     		movs	r2, #0
 1436 09c8 05F1DC01 		add	r1, r5, #220
ARM GAS  /var/folders/qx/2_175_4n2s19vhvtspjhb3qh0000gn/T//ccFV8cem.s 			page 52


 1437 09cc 2046     		mov	r0, r4
 1438 09ce FFF7FEFF 		bl	lv_obj_add_style
 1439              	.LVL218:
 1440 09d2 FFF787BB 		b	.L1
 1441              	.L28:
1039:Drivers/lvgl/src/themes/default/lv_theme_default.c ****         lv_obj_add_style(obj, &theme->styles.calendar_header, 0);
 1442              		.loc 1 1039 10 view .LVU297
1039:Drivers/lvgl/src/themes/default/lv_theme_default.c ****         lv_obj_add_style(obj, &theme->styles.calendar_header, 0);
 1443              		.loc 1 1039 13 is_stmt 0 view .LVU298
 1444 09d6 4549     		ldr	r1, .L75+44
 1445 09d8 2046     		mov	r0, r4
 1446 09da FFF7FEFF 		bl	lv_obj_check_type
 1447              	.LVL219:
1039:Drivers/lvgl/src/themes/default/lv_theme_default.c ****         lv_obj_add_style(obj, &theme->styles.calendar_header, 0);
 1448              		.loc 1 1039 12 discriminator 1 view .LVU299
 1449 09de 38B1     		cbz	r0, .L29
1040:Drivers/lvgl/src/themes/default/lv_theme_default.c ****     }
 1450              		.loc 1 1040 9 is_stmt 1 view .LVU300
 1451 09e0 0022     		movs	r2, #0
 1452 09e2 05F51D71 		add	r1, r5, #628
 1453 09e6 2046     		mov	r0, r4
 1454 09e8 FFF7FEFF 		bl	lv_obj_add_style
 1455              	.LVL220:
 1456 09ec FFF77ABB 		b	.L1
 1457              	.L29:
1045:Drivers/lvgl/src/themes/default/lv_theme_default.c ****         lv_obj_add_style(obj, &theme->styles.calendar_header, 0);
 1458              		.loc 1 1045 10 view .LVU301
1045:Drivers/lvgl/src/themes/default/lv_theme_default.c ****         lv_obj_add_style(obj, &theme->styles.calendar_header, 0);
 1459              		.loc 1 1045 13 is_stmt 0 view .LVU302
 1460 09f0 3F49     		ldr	r1, .L75+48
 1461 09f2 2046     		mov	r0, r4
 1462 09f4 FFF7FEFF 		bl	lv_obj_check_type
 1463              	.LVL221:
1045:Drivers/lvgl/src/themes/default/lv_theme_default.c ****         lv_obj_add_style(obj, &theme->styles.calendar_header, 0);
 1464              		.loc 1 1045 12 discriminator 1 view .LVU303
 1465 09f8 38B1     		cbz	r0, .L30
1046:Drivers/lvgl/src/themes/default/lv_theme_default.c ****     }
 1466              		.loc 1 1046 9 is_stmt 1 view .LVU304
 1467 09fa 0022     		movs	r2, #0
 1468 09fc 05F51D71 		add	r1, r5, #628
 1469 0a00 2046     		mov	r0, r4
 1470 0a02 FFF7FEFF 		bl	lv_obj_add_style
 1471              	.LVL222:
 1472 0a06 FFF76DBB 		b	.L1
 1473              	.L30:
1052:Drivers/lvgl/src/themes/default/lv_theme_default.c ****         lv_obj_add_style(obj, &theme->styles.scr, 0);
 1474              		.loc 1 1052 10 view .LVU305
1052:Drivers/lvgl/src/themes/default/lv_theme_default.c ****         lv_obj_add_style(obj, &theme->styles.scr, 0);
 1475              		.loc 1 1052 13 is_stmt 0 view .LVU306
 1476 0a0a 3A49     		ldr	r1, .L75+52
 1477 0a0c 2046     		mov	r0, r4
 1478 0a0e FFF7FEFF 		bl	lv_obj_check_type
 1479              	.LVL223:
1052:Drivers/lvgl/src/themes/default/lv_theme_default.c ****         lv_obj_add_style(obj, &theme->styles.scr, 0);
 1480              		.loc 1 1052 12 discriminator 1 view .LVU307
 1481 0a12 0028     		cmp	r0, #0
 1482 0a14 7AD0     		beq	.L31
ARM GAS  /var/folders/qx/2_175_4n2s19vhvtspjhb3qh0000gn/T//ccFV8cem.s 			page 53


1053:Drivers/lvgl/src/themes/default/lv_theme_default.c ****         lv_obj_add_style(obj, theme->disp_size == DISP_LARGE ? &theme->styles.pad_small : &theme->s
 1483              		.loc 1 1053 9 is_stmt 1 view .LVU308
 1484 0a16 0022     		movs	r2, #0
 1485 0a18 05F14001 		add	r1, r5, #64
 1486 0a1c 2046     		mov	r0, r4
 1487 0a1e FFF7FEFF 		bl	lv_obj_add_style
 1488              	.LVL224:
1054:Drivers/lvgl/src/themes/default/lv_theme_default.c ****         lv_obj_add_style(obj, &theme->styles.outline_primary, LV_STATE_FOCUS_KEY);
 1489              		.loc 1 1054 9 view .LVU309
1054:Drivers/lvgl/src/themes/default/lv_theme_default.c ****         lv_obj_add_style(obj, &theme->styles.outline_primary, LV_STATE_FOCUS_KEY);
 1490              		.loc 1 1054 36 is_stmt 0 view .LVU310
 1491 0a22 95F82830 		ldrb	r3, [r5, #40]	@ zero_extendqisi2
1054:Drivers/lvgl/src/themes/default/lv_theme_default.c ****         lv_obj_add_style(obj, &theme->styles.outline_primary, LV_STATE_FOCUS_KEY);
 1492              		.loc 1 1054 9 view .LVU311
 1493 0a26 012B     		cmp	r3, #1
 1494 0a28 46D0     		beq	.L68
1054:Drivers/lvgl/src/themes/default/lv_theme_default.c ****         lv_obj_add_style(obj, &theme->styles.outline_primary, LV_STATE_FOCUS_KEY);
 1495              		.loc 1 1054 9 discriminator 2 view .LVU312
 1496 0a2a 05F1E801 		add	r1, r5, #232
 1497              	.L33:
1054:Drivers/lvgl/src/themes/default/lv_theme_default.c ****         lv_obj_add_style(obj, &theme->styles.outline_primary, LV_STATE_FOCUS_KEY);
 1498              		.loc 1 1054 9 discriminator 4 view .LVU313
 1499 0a2e 0022     		movs	r2, #0
 1500 0a30 2046     		mov	r0, r4
 1501 0a32 FFF7FEFF 		bl	lv_obj_add_style
 1502              	.LVL225:
1055:Drivers/lvgl/src/themes/default/lv_theme_default.c ****         lv_obj_add_style(obj, &theme->styles.outline_secondary, LV_STATE_EDITED);
 1503              		.loc 1 1055 9 is_stmt 1 view .LVU314
 1504 0a36 0422     		movs	r2, #4
 1505 0a38 05F59871 		add	r1, r5, #304
 1506 0a3c 2046     		mov	r0, r4
 1507 0a3e FFF7FEFF 		bl	lv_obj_add_style
 1508              	.LVL226:
1056:Drivers/lvgl/src/themes/default/lv_theme_default.c ****         lv_obj_add_style(obj, &theme->styles.btn, LV_PART_ITEMS);
 1509              		.loc 1 1056 9 view .LVU315
 1510 0a42 0822     		movs	r2, #8
 1511 0a44 05F59E71 		add	r1, r5, #316
 1512 0a48 2046     		mov	r0, r4
 1513 0a4a FFF7FEFF 		bl	lv_obj_add_style
 1514              	.LVL227:
1057:Drivers/lvgl/src/themes/default/lv_theme_default.c ****         lv_obj_add_style(obj, &theme->styles.disabled, LV_PART_ITEMS | LV_STATE_DISABLED);
 1515              		.loc 1 1057 9 view .LVU316
 1516 0a4e 4FF4A022 		mov	r2, #327680
 1517 0a52 05F17001 		add	r1, r5, #112
 1518 0a56 2046     		mov	r0, r4
 1519 0a58 FFF7FEFF 		bl	lv_obj_add_style
 1520              	.LVL228:
1058:Drivers/lvgl/src/themes/default/lv_theme_default.c ****         lv_obj_add_style(obj, &theme->styles.bg_color_white, LV_PART_ITEMS);
 1521              		.loc 1 1058 9 view .LVU317
 1522 0a5c 264A     		ldr	r2, .L75+56
 1523 0a5e 05F1D001 		add	r1, r5, #208
 1524 0a62 2046     		mov	r0, r4
 1525 0a64 FFF7FEFF 		bl	lv_obj_add_style
 1526              	.LVL229:
1059:Drivers/lvgl/src/themes/default/lv_theme_default.c ****         lv_obj_add_style(obj, &theme->styles.keyboard_button_bg, LV_PART_ITEMS);
 1527              		.loc 1 1059 9 view .LVU318
 1528 0a68 4FF4A022 		mov	r2, #327680
ARM GAS  /var/folders/qx/2_175_4n2s19vhvtspjhb3qh0000gn/T//ccFV8cem.s 			page 54


 1529 0a6c 05F1B801 		add	r1, r5, #184
 1530 0a70 2046     		mov	r0, r4
 1531 0a72 FFF7FEFF 		bl	lv_obj_add_style
 1532              	.LVL230:
1060:Drivers/lvgl/src/themes/default/lv_theme_default.c ****         lv_obj_add_style(obj, &theme->styles.pressed, LV_PART_ITEMS | LV_STATE_PRESSED);
 1533              		.loc 1 1060 9 view .LVU319
 1534 0a76 4FF4A022 		mov	r2, #327680
 1535 0a7a 05F54171 		add	r1, r5, #772
 1536 0a7e 2046     		mov	r0, r4
 1537 0a80 FFF7FEFF 		bl	lv_obj_add_style
 1538              	.LVL231:
1061:Drivers/lvgl/src/themes/default/lv_theme_default.c ****         lv_obj_add_style(obj, &theme->styles.bg_color_grey, LV_PART_ITEMS | LV_STATE_CHECKED);
 1539              		.loc 1 1061 9 view .LVU320
 1540 0a84 1D4A     		ldr	r2, .L75+60
 1541 0a86 05F1C401 		add	r1, r5, #196
 1542 0a8a 2046     		mov	r0, r4
 1543 0a8c FFF7FEFF 		bl	lv_obj_add_style
 1544              	.LVL232:
1062:Drivers/lvgl/src/themes/default/lv_theme_default.c ****         lv_obj_add_style(obj, &theme->styles.bg_color_primary_muted, LV_PART_ITEMS | LV_STATE_FOCUS
 1545              		.loc 1 1062 9 view .LVU321
 1546 0a90 1B4A     		ldr	r2, .L75+64
 1547 0a92 05F1AC01 		add	r1, r5, #172
 1548 0a96 2046     		mov	r0, r4
 1549 0a98 FFF7FEFF 		bl	lv_obj_add_style
 1550              	.LVL233:
1063:Drivers/lvgl/src/themes/default/lv_theme_default.c ****         lv_obj_add_style(obj, &theme->styles.bg_color_secondary_muted, LV_PART_ITEMS | LV_STATE_EDI
 1551              		.loc 1 1063 9 view .LVU322
 1552 0a9c 194A     		ldr	r2, .L75+68
 1553 0a9e 05F18801 		add	r1, r5, #136
 1554 0aa2 2046     		mov	r0, r4
 1555 0aa4 FFF7FEFF 		bl	lv_obj_add_style
 1556              	.LVL234:
1064:Drivers/lvgl/src/themes/default/lv_theme_default.c ****     }
 1557              		.loc 1 1064 9 view .LVU323
 1558 0aa8 174A     		ldr	r2, .L75+72
 1559 0aaa 05F1A001 		add	r1, r5, #160
 1560 0aae 2046     		mov	r0, r4
 1561 0ab0 FFF7FEFF 		bl	lv_obj_add_style
 1562              	.LVL235:
 1563 0ab4 FFF716BB 		b	.L1
 1564              	.L68:
1054:Drivers/lvgl/src/themes/default/lv_theme_default.c ****         lv_obj_add_style(obj, &theme->styles.outline_primary, LV_STATE_FOCUS_KEY);
 1565              		.loc 1 1054 9 is_stmt 0 discriminator 1 view .LVU324
 1566 0ab8 05F1F401 		add	r1, r5, #244
 1567 0abc B7E7     		b	.L33
 1568              	.L76:
 1569 0abe 00BF     		.align	2
 1570              	.L75:
 1571 0ac0 00000000 		.word	lv_roller_class
 1572 0ac4 00000000 		.word	lv_dropdown_class
 1573 0ac8 00000000 		.word	lv_dropdownlist_class
 1574 0acc 40000100 		.word	65600
 1575 0ad0 01000400 		.word	262145
 1576 0ad4 20000400 		.word	262176
 1577 0ad8 00000000 		.word	lv_arc_class
 1578 0adc 00000000 		.word	lv_spinner_class
 1579 0ae0 00000000 		.word	lv_textarea_class
ARM GAS  /var/folders/qx/2_175_4n2s19vhvtspjhb3qh0000gn/T//ccFV8cem.s 			page 55


 1580 0ae4 02000600 		.word	393218
 1581 0ae8 00000000 		.word	lv_calendar_class
 1582 0aec 00000000 		.word	lv_calendar_header_arrow_class
 1583 0af0 00000000 		.word	lv_calendar_header_dropdown_class
 1584 0af4 00000000 		.word	lv_keyboard_class
 1585 0af8 80000500 		.word	327808
 1586 0afc 20000500 		.word	327712
 1587 0b00 01000500 		.word	327681
 1588 0b04 04000500 		.word	327684
 1589 0b08 08000500 		.word	327688
 1590              	.L31:
1069:Drivers/lvgl/src/themes/default/lv_theme_default.c ****         lv_obj_add_style(obj, &theme->styles.bg_color_primary, LV_PART_SELECTED);
 1591              		.loc 1 1069 10 is_stmt 1 view .LVU325
1069:Drivers/lvgl/src/themes/default/lv_theme_default.c ****         lv_obj_add_style(obj, &theme->styles.bg_color_primary, LV_PART_SELECTED);
 1592              		.loc 1 1069 13 is_stmt 0 view .LVU326
 1593 0b0c C149     		ldr	r1, .L77
 1594 0b0e 2046     		mov	r0, r4
 1595 0b10 FFF7FEFF 		bl	lv_obj_check_type
 1596              	.LVL236:
1069:Drivers/lvgl/src/themes/default/lv_theme_default.c ****         lv_obj_add_style(obj, &theme->styles.bg_color_primary, LV_PART_SELECTED);
 1597              		.loc 1 1069 12 discriminator 1 view .LVU327
 1598 0b14 20B1     		cbz	r0, .L34
1069:Drivers/lvgl/src/themes/default/lv_theme_default.c ****         lv_obj_add_style(obj, &theme->styles.bg_color_primary, LV_PART_SELECTED);
 1599              		.loc 1 1069 56 discriminator 1 view .LVU328
 1600 0b16 C049     		ldr	r1, .L77+4
 1601 0b18 3046     		mov	r0, r6
 1602 0b1a FFF7FEFF 		bl	lv_obj_check_type
 1603              	.LVL237:
1069:Drivers/lvgl/src/themes/default/lv_theme_default.c ****         lv_obj_add_style(obj, &theme->styles.bg_color_primary, LV_PART_SELECTED);
 1604              		.loc 1 1069 53 discriminator 1 view .LVU329
 1605 0b1e B8B9     		cbnz	r0, .L69
 1606              	.L34:
1075:Drivers/lvgl/src/themes/default/lv_theme_default.c ****         lv_obj_add_style(obj, &theme->styles.card, 0);
 1607              		.loc 1 1075 10 is_stmt 1 view .LVU330
1075:Drivers/lvgl/src/themes/default/lv_theme_default.c ****         lv_obj_add_style(obj, &theme->styles.card, 0);
 1608              		.loc 1 1075 13 is_stmt 0 view .LVU331
 1609 0b20 BE49     		ldr	r1, .L77+8
 1610 0b22 2046     		mov	r0, r4
 1611 0b24 FFF7FEFF 		bl	lv_obj_check_type
 1612              	.LVL238:
1075:Drivers/lvgl/src/themes/default/lv_theme_default.c ****         lv_obj_add_style(obj, &theme->styles.card, 0);
 1613              		.loc 1 1075 12 discriminator 1 view .LVU332
 1614 0b28 D8B9     		cbnz	r0, .L70
1082:Drivers/lvgl/src/themes/default/lv_theme_default.c ****         lv_obj_add_style(obj, &theme->styles.bg_color_grey, 0);
 1615              		.loc 1 1082 10 is_stmt 1 view .LVU333
1082:Drivers/lvgl/src/themes/default/lv_theme_default.c ****         lv_obj_add_style(obj, &theme->styles.bg_color_grey, 0);
 1616              		.loc 1 1082 13 is_stmt 0 view .LVU334
 1617 0b2a BD49     		ldr	r1, .L77+12
 1618 0b2c 2046     		mov	r0, r4
 1619 0b2e FFF7FEFF 		bl	lv_obj_check_type
 1620              	.LVL239:
1082:Drivers/lvgl/src/themes/default/lv_theme_default.c ****         lv_obj_add_style(obj, &theme->styles.bg_color_grey, 0);
 1621              		.loc 1 1082 12 discriminator 1 view .LVU335
 1622 0b32 88B3     		cbz	r0, .L36
1083:Drivers/lvgl/src/themes/default/lv_theme_default.c ****         lv_obj_add_style(obj, &theme->styles.list_item_grow, 0);
 1623              		.loc 1 1083 9 is_stmt 1 view .LVU336
 1624 0b34 0022     		movs	r2, #0
ARM GAS  /var/folders/qx/2_175_4n2s19vhvtspjhb3qh0000gn/T//ccFV8cem.s 			page 56


 1625 0b36 05F1AC01 		add	r1, r5, #172
 1626 0b3a 2046     		mov	r0, r4
 1627 0b3c FFF7FEFF 		bl	lv_obj_add_style
 1628              	.LVL240:
1084:Drivers/lvgl/src/themes/default/lv_theme_default.c ****     }
 1629              		.loc 1 1084 9 view .LVU337
 1630 0b40 0022     		movs	r2, #0
 1631 0b42 05F54A71 		add	r1, r5, #808
 1632 0b46 2046     		mov	r0, r4
 1633 0b48 FFF7FEFF 		bl	lv_obj_add_style
 1634              	.LVL241:
 1635 0b4c FFF7CABA 		b	.L1
 1636              	.L69:
1070:Drivers/lvgl/src/themes/default/lv_theme_default.c ****     }
 1637              		.loc 1 1070 9 view .LVU338
 1638 0b50 4FF48022 		mov	r2, #262144
 1639 0b54 05F17C01 		add	r1, r5, #124
 1640 0b58 2046     		mov	r0, r4
 1641 0b5a FFF7FEFF 		bl	lv_obj_add_style
 1642              	.LVL242:
 1643 0b5e FFF7C1BA 		b	.L1
 1644              	.L70:
1076:Drivers/lvgl/src/themes/default/lv_theme_default.c ****         lv_obj_add_style(obj, &theme->styles.list_bg, 0);
 1645              		.loc 1 1076 9 view .LVU339
 1646 0b62 0022     		movs	r2, #0
 1647 0b64 05F16401 		add	r1, r5, #100
 1648 0b68 2046     		mov	r0, r4
 1649 0b6a FFF7FEFF 		bl	lv_obj_add_style
 1650              	.LVL243:
1077:Drivers/lvgl/src/themes/default/lv_theme_default.c ****         lv_obj_add_style(obj, &theme->styles.scrollbar, LV_PART_SCROLLBAR);
 1651              		.loc 1 1077 9 view .LVU340
 1652 0b6e 0022     		movs	r2, #0
 1653 0b70 05F54471 		add	r1, r5, #784
 1654 0b74 2046     		mov	r0, r4
 1655 0b76 FFF7FEFF 		bl	lv_obj_add_style
 1656              	.LVL244:
1078:Drivers/lvgl/src/themes/default/lv_theme_default.c ****         lv_obj_add_style(obj, &theme->styles.scrollbar_scrolled, LV_PART_SCROLLBAR | LV_STATE_SCROL
 1657              		.loc 1 1078 9 view .LVU341
 1658 0b7a 4FF48032 		mov	r2, #65536
 1659 0b7e 05F14C01 		add	r1, r5, #76
 1660 0b82 2046     		mov	r0, r4
 1661 0b84 FFF7FEFF 		bl	lv_obj_add_style
 1662              	.LVL245:
1079:Drivers/lvgl/src/themes/default/lv_theme_default.c ****         return;
 1663              		.loc 1 1079 9 view .LVU342
 1664 0b88 A64A     		ldr	r2, .L77+16
 1665 0b8a 05F15801 		add	r1, r5, #88
 1666 0b8e 2046     		mov	r0, r4
 1667 0b90 FFF7FEFF 		bl	lv_obj_add_style
 1668              	.LVL246:
1080:Drivers/lvgl/src/themes/default/lv_theme_default.c ****     }
 1669              		.loc 1 1080 9 view .LVU343
 1670 0b94 FFF7A6BA 		b	.L1
 1671              	.L36:
1086:Drivers/lvgl/src/themes/default/lv_theme_default.c ****         lv_obj_add_style(obj, &theme->styles.bg_color_white, 0);
 1672              		.loc 1 1086 10 view .LVU344
1086:Drivers/lvgl/src/themes/default/lv_theme_default.c ****         lv_obj_add_style(obj, &theme->styles.bg_color_white, 0);
ARM GAS  /var/folders/qx/2_175_4n2s19vhvtspjhb3qh0000gn/T//ccFV8cem.s 			page 57


 1673              		.loc 1 1086 13 is_stmt 0 view .LVU345
 1674 0b98 A349     		ldr	r1, .L77+20
 1675 0b9a 2046     		mov	r0, r4
 1676 0b9c FFF7FEFF 		bl	lv_obj_check_type
 1677              	.LVL247:
1086:Drivers/lvgl/src/themes/default/lv_theme_default.c ****         lv_obj_add_style(obj, &theme->styles.bg_color_white, 0);
 1678              		.loc 1 1086 12 discriminator 1 view .LVU346
 1679 0ba0 28B3     		cbz	r0, .L37
1087:Drivers/lvgl/src/themes/default/lv_theme_default.c ****         lv_obj_add_style(obj, &theme->styles.list_btn, 0);
 1680              		.loc 1 1087 9 is_stmt 1 view .LVU347
 1681 0ba2 0022     		movs	r2, #0
 1682 0ba4 05F1B801 		add	r1, r5, #184
 1683 0ba8 2046     		mov	r0, r4
 1684 0baa FFF7FEFF 		bl	lv_obj_add_style
 1685              	.LVL248:
1088:Drivers/lvgl/src/themes/default/lv_theme_default.c ****         lv_obj_add_style(obj, &theme->styles.bg_color_primary, LV_STATE_FOCUS_KEY);
 1686              		.loc 1 1088 9 view .LVU348
 1687 0bae 0022     		movs	r2, #0
 1688 0bb0 05F54771 		add	r1, r5, #796
 1689 0bb4 2046     		mov	r0, r4
 1690 0bb6 FFF7FEFF 		bl	lv_obj_add_style
 1691              	.LVL249:
1089:Drivers/lvgl/src/themes/default/lv_theme_default.c ****         lv_obj_add_style(obj, &theme->styles.list_item_grow, LV_STATE_FOCUS_KEY);
 1692              		.loc 1 1089 9 view .LVU349
 1693 0bba 0422     		movs	r2, #4
 1694 0bbc 05F17C01 		add	r1, r5, #124
 1695 0bc0 2046     		mov	r0, r4
 1696 0bc2 FFF7FEFF 		bl	lv_obj_add_style
 1697              	.LVL250:
1090:Drivers/lvgl/src/themes/default/lv_theme_default.c ****         lv_obj_add_style(obj, &theme->styles.list_item_grow, LV_STATE_PRESSED);
 1698              		.loc 1 1090 9 view .LVU350
1090:Drivers/lvgl/src/themes/default/lv_theme_default.c ****         lv_obj_add_style(obj, &theme->styles.list_item_grow, LV_STATE_PRESSED);
 1699              		.loc 1 1090 31 is_stmt 0 view .LVU351
 1700 0bc6 05F54A76 		add	r6, r5, #808
 1701              	.LVL251:
1090:Drivers/lvgl/src/themes/default/lv_theme_default.c ****         lv_obj_add_style(obj, &theme->styles.list_item_grow, LV_STATE_PRESSED);
 1702              		.loc 1 1090 9 view .LVU352
 1703 0bca 0422     		movs	r2, #4
 1704 0bcc 3146     		mov	r1, r6
 1705 0bce 2046     		mov	r0, r4
 1706 0bd0 FFF7FEFF 		bl	lv_obj_add_style
 1707              	.LVL252:
1091:Drivers/lvgl/src/themes/default/lv_theme_default.c ****         lv_obj_add_style(obj, &theme->styles.pressed, LV_STATE_PRESSED);
 1708              		.loc 1 1091 9 is_stmt 1 view .LVU353
 1709 0bd4 2022     		movs	r2, #32
 1710 0bd6 3146     		mov	r1, r6
 1711 0bd8 2046     		mov	r0, r4
 1712 0bda FFF7FEFF 		bl	lv_obj_add_style
 1713              	.LVL253:
1092:Drivers/lvgl/src/themes/default/lv_theme_default.c ****     }
 1714              		.loc 1 1092 9 view .LVU354
 1715 0bde 2022     		movs	r2, #32
 1716 0be0 05F1C401 		add	r1, r5, #196
 1717 0be4 2046     		mov	r0, r4
 1718 0be6 FFF7FEFF 		bl	lv_obj_add_style
 1719              	.LVL254:
 1720 0bea FFF77BBA 		b	.L1
ARM GAS  /var/folders/qx/2_175_4n2s19vhvtspjhb3qh0000gn/T//ccFV8cem.s 			page 58


 1721              	.LVL255:
 1722              	.L37:
1096:Drivers/lvgl/src/themes/default/lv_theme_default.c ****         lv_obj_add_style(obj, &theme->styles.card, 0);
 1723              		.loc 1 1096 10 view .LVU355
1096:Drivers/lvgl/src/themes/default/lv_theme_default.c ****         lv_obj_add_style(obj, &theme->styles.card, 0);
 1724              		.loc 1 1096 13 is_stmt 0 view .LVU356
 1725 0bee 8F49     		ldr	r1, .L77+24
 1726 0bf0 2046     		mov	r0, r4
 1727 0bf2 FFF7FEFF 		bl	lv_obj_check_type
 1728              	.LVL256:
1096:Drivers/lvgl/src/themes/default/lv_theme_default.c ****         lv_obj_add_style(obj, &theme->styles.card, 0);
 1729              		.loc 1 1096 12 discriminator 1 view .LVU357
 1730 0bf6 68B1     		cbz	r0, .L38
1097:Drivers/lvgl/src/themes/default/lv_theme_default.c ****         lv_obj_add_style(obj, &theme->styles.menu_bg, 0);
 1731              		.loc 1 1097 9 is_stmt 1 view .LVU358
 1732 0bf8 0022     		movs	r2, #0
 1733 0bfa 05F16401 		add	r1, r5, #100
 1734 0bfe 2046     		mov	r0, r4
 1735 0c00 FFF7FEFF 		bl	lv_obj_add_style
 1736              	.LVL257:
1098:Drivers/lvgl/src/themes/default/lv_theme_default.c ****     }
 1737              		.loc 1 1098 9 view .LVU359
 1738 0c04 0022     		movs	r2, #0
 1739 0c06 05F52071 		add	r1, r5, #640
 1740 0c0a 2046     		mov	r0, r4
 1741 0c0c FFF7FEFF 		bl	lv_obj_add_style
 1742              	.LVL258:
 1743 0c10 FFF768BA 		b	.L1
 1744              	.L38:
1100:Drivers/lvgl/src/themes/default/lv_theme_default.c ****         lv_obj_add_style(obj, &theme->styles.menu_sidebar_cont, 0);
 1745              		.loc 1 1100 10 view .LVU360
1100:Drivers/lvgl/src/themes/default/lv_theme_default.c ****         lv_obj_add_style(obj, &theme->styles.menu_sidebar_cont, 0);
 1746              		.loc 1 1100 13 is_stmt 0 view .LVU361
 1747 0c14 8649     		ldr	r1, .L77+28
 1748 0c16 2046     		mov	r0, r4
 1749 0c18 FFF7FEFF 		bl	lv_obj_check_type
 1750              	.LVL259:
1100:Drivers/lvgl/src/themes/default/lv_theme_default.c ****         lv_obj_add_style(obj, &theme->styles.menu_sidebar_cont, 0);
 1751              		.loc 1 1100 12 discriminator 1 view .LVU362
 1752 0c1c A0B1     		cbz	r0, .L39
1101:Drivers/lvgl/src/themes/default/lv_theme_default.c ****         lv_obj_add_style(obj, &theme->styles.scrollbar, LV_PART_SCROLLBAR);
 1753              		.loc 1 1101 9 is_stmt 1 view .LVU363
 1754 0c1e 0022     		movs	r2, #0
 1755 0c20 05F52671 		add	r1, r5, #664
 1756 0c24 2046     		mov	r0, r4
 1757 0c26 FFF7FEFF 		bl	lv_obj_add_style
 1758              	.LVL260:
1102:Drivers/lvgl/src/themes/default/lv_theme_default.c ****         lv_obj_add_style(obj, &theme->styles.scrollbar_scrolled, LV_PART_SCROLLBAR | LV_STATE_SCROL
 1759              		.loc 1 1102 9 view .LVU364
 1760 0c2a 4FF48032 		mov	r2, #65536
 1761 0c2e 05F14C01 		add	r1, r5, #76
 1762 0c32 2046     		mov	r0, r4
 1763 0c34 FFF7FEFF 		bl	lv_obj_add_style
 1764              	.LVL261:
1103:Drivers/lvgl/src/themes/default/lv_theme_default.c ****     }
 1765              		.loc 1 1103 9 view .LVU365
 1766 0c38 7A4A     		ldr	r2, .L77+16
ARM GAS  /var/folders/qx/2_175_4n2s19vhvtspjhb3qh0000gn/T//ccFV8cem.s 			page 59


 1767 0c3a 05F15801 		add	r1, r5, #88
 1768 0c3e 2046     		mov	r0, r4
 1769 0c40 FFF7FEFF 		bl	lv_obj_add_style
 1770              	.LVL262:
 1771 0c44 FFF74EBA 		b	.L1
 1772              	.L39:
1105:Drivers/lvgl/src/themes/default/lv_theme_default.c ****         lv_obj_add_style(obj, &theme->styles.menu_main_cont, 0);
 1773              		.loc 1 1105 10 view .LVU366
1105:Drivers/lvgl/src/themes/default/lv_theme_default.c ****         lv_obj_add_style(obj, &theme->styles.menu_main_cont, 0);
 1774              		.loc 1 1105 13 is_stmt 0 view .LVU367
 1775 0c48 7A49     		ldr	r1, .L77+32
 1776 0c4a 2046     		mov	r0, r4
 1777 0c4c FFF7FEFF 		bl	lv_obj_check_type
 1778              	.LVL263:
1105:Drivers/lvgl/src/themes/default/lv_theme_default.c ****         lv_obj_add_style(obj, &theme->styles.menu_main_cont, 0);
 1779              		.loc 1 1105 12 discriminator 1 view .LVU368
 1780 0c50 A0B1     		cbz	r0, .L40
1106:Drivers/lvgl/src/themes/default/lv_theme_default.c ****         lv_obj_add_style(obj, &theme->styles.scrollbar, LV_PART_SCROLLBAR);
 1781              		.loc 1 1106 9 is_stmt 1 view .LVU369
 1782 0c52 0022     		movs	r2, #0
 1783 0c54 05F52971 		add	r1, r5, #676
 1784 0c58 2046     		mov	r0, r4
 1785 0c5a FFF7FEFF 		bl	lv_obj_add_style
 1786              	.LVL264:
1107:Drivers/lvgl/src/themes/default/lv_theme_default.c ****         lv_obj_add_style(obj, &theme->styles.scrollbar_scrolled, LV_PART_SCROLLBAR | LV_STATE_SCROL
 1787              		.loc 1 1107 9 view .LVU370
 1788 0c5e 4FF48032 		mov	r2, #65536
 1789 0c62 05F14C01 		add	r1, r5, #76
 1790 0c66 2046     		mov	r0, r4
 1791 0c68 FFF7FEFF 		bl	lv_obj_add_style
 1792              	.LVL265:
1108:Drivers/lvgl/src/themes/default/lv_theme_default.c ****     }
 1793              		.loc 1 1108 9 view .LVU371
 1794 0c6c 6D4A     		ldr	r2, .L77+16
 1795 0c6e 05F15801 		add	r1, r5, #88
 1796 0c72 2046     		mov	r0, r4
 1797 0c74 FFF7FEFF 		bl	lv_obj_add_style
 1798              	.LVL266:
 1799 0c78 FFF734BA 		b	.L1
 1800              	.L40:
1110:Drivers/lvgl/src/themes/default/lv_theme_default.c ****         lv_obj_add_style(obj, &theme->styles.menu_cont, 0);
 1801              		.loc 1 1110 10 view .LVU372
1110:Drivers/lvgl/src/themes/default/lv_theme_default.c ****         lv_obj_add_style(obj, &theme->styles.menu_cont, 0);
 1802              		.loc 1 1110 13 is_stmt 0 view .LVU373
 1803 0c7c 6E49     		ldr	r1, .L77+36
 1804 0c7e 2046     		mov	r0, r4
 1805 0c80 FFF7FEFF 		bl	lv_obj_check_type
 1806              	.LVL267:
1110:Drivers/lvgl/src/themes/default/lv_theme_default.c ****         lv_obj_add_style(obj, &theme->styles.menu_cont, 0);
 1807              		.loc 1 1110 12 discriminator 1 view .LVU374
 1808 0c84 F8B1     		cbz	r0, .L41
1111:Drivers/lvgl/src/themes/default/lv_theme_default.c ****         lv_obj_add_style(obj, &theme->styles.menu_pressed, LV_STATE_PRESSED);
 1809              		.loc 1 1111 9 is_stmt 1 view .LVU375
 1810 0c86 0022     		movs	r2, #0
 1811 0c88 05F52371 		add	r1, r5, #652
 1812 0c8c 2046     		mov	r0, r4
 1813 0c8e FFF7FEFF 		bl	lv_obj_add_style
ARM GAS  /var/folders/qx/2_175_4n2s19vhvtspjhb3qh0000gn/T//ccFV8cem.s 			page 60


 1814              	.LVL268:
1112:Drivers/lvgl/src/themes/default/lv_theme_default.c ****         lv_obj_add_style(obj, &theme->styles.bg_color_primary_muted, LV_STATE_PRESSED | LV_STATE_CH
 1815              		.loc 1 1112 9 view .LVU376
 1816 0c92 2022     		movs	r2, #32
 1817 0c94 05F53871 		add	r1, r5, #736
 1818 0c98 2046     		mov	r0, r4
 1819 0c9a FFF7FEFF 		bl	lv_obj_add_style
 1820              	.LVL269:
1113:Drivers/lvgl/src/themes/default/lv_theme_default.c ****         lv_obj_add_style(obj, &theme->styles.bg_color_primary_muted, LV_STATE_CHECKED);
 1821              		.loc 1 1113 9 view .LVU377
1113:Drivers/lvgl/src/themes/default/lv_theme_default.c ****         lv_obj_add_style(obj, &theme->styles.bg_color_primary_muted, LV_STATE_CHECKED);
 1822              		.loc 1 1113 31 is_stmt 0 view .LVU378
 1823 0c9e 05F18806 		add	r6, r5, #136
 1824              	.LVL270:
1113:Drivers/lvgl/src/themes/default/lv_theme_default.c ****         lv_obj_add_style(obj, &theme->styles.bg_color_primary_muted, LV_STATE_CHECKED);
 1825              		.loc 1 1113 9 view .LVU379
 1826 0ca2 2122     		movs	r2, #33
 1827 0ca4 3146     		mov	r1, r6
 1828 0ca6 2046     		mov	r0, r4
 1829 0ca8 FFF7FEFF 		bl	lv_obj_add_style
 1830              	.LVL271:
1114:Drivers/lvgl/src/themes/default/lv_theme_default.c ****         lv_obj_add_style(obj, &theme->styles.bg_color_primary, LV_STATE_FOCUS_KEY);
 1831              		.loc 1 1114 9 is_stmt 1 view .LVU380
 1832 0cac 0122     		movs	r2, #1
 1833 0cae 3146     		mov	r1, r6
 1834 0cb0 2046     		mov	r0, r4
 1835 0cb2 FFF7FEFF 		bl	lv_obj_add_style
 1836              	.LVL272:
1115:Drivers/lvgl/src/themes/default/lv_theme_default.c ****     }
 1837              		.loc 1 1115 9 view .LVU381
 1838 0cb6 0422     		movs	r2, #4
 1839 0cb8 05F17C01 		add	r1, r5, #124
 1840 0cbc 2046     		mov	r0, r4
 1841 0cbe FFF7FEFF 		bl	lv_obj_add_style
 1842              	.LVL273:
 1843 0cc2 FFF70FBA 		b	.L1
 1844              	.LVL274:
 1845              	.L41:
1117:Drivers/lvgl/src/themes/default/lv_theme_default.c ****             lv_obj_check_type(obj, &lv_menu_main_header_cont_class)) {
 1846              		.loc 1 1117 10 view .LVU382
1117:Drivers/lvgl/src/themes/default/lv_theme_default.c ****             lv_obj_check_type(obj, &lv_menu_main_header_cont_class)) {
 1847              		.loc 1 1117 13 is_stmt 0 view .LVU383
 1848 0cc6 5D49     		ldr	r1, .L77+40
 1849 0cc8 2046     		mov	r0, r4
 1850 0cca FFF7FEFF 		bl	lv_obj_check_type
 1851              	.LVL275:
1117:Drivers/lvgl/src/themes/default/lv_theme_default.c ****             lv_obj_check_type(obj, &lv_menu_main_header_cont_class)) {
 1852              		.loc 1 1117 12 discriminator 1 view .LVU384
 1853 0cce 20B9     		cbnz	r0, .L42
1118:Drivers/lvgl/src/themes/default/lv_theme_default.c ****         lv_obj_add_style(obj, &theme->styles.menu_header_cont, 0);
 1854              		.loc 1 1118 13 view .LVU385
 1855 0cd0 5B49     		ldr	r1, .L77+44
 1856 0cd2 2046     		mov	r0, r4
 1857 0cd4 FFF7FEFF 		bl	lv_obj_check_type
 1858              	.LVL276:
1117:Drivers/lvgl/src/themes/default/lv_theme_default.c ****             lv_obj_check_type(obj, &lv_menu_main_header_cont_class)) {
 1859              		.loc 1 1117 72 discriminator 1 view .LVU386
ARM GAS  /var/folders/qx/2_175_4n2s19vhvtspjhb3qh0000gn/T//ccFV8cem.s 			page 61


 1860 0cd8 38B1     		cbz	r0, .L43
 1861              	.L42:
1119:Drivers/lvgl/src/themes/default/lv_theme_default.c ****     }
 1862              		.loc 1 1119 9 is_stmt 1 view .LVU387
 1863 0cda 0022     		movs	r2, #0
 1864 0cdc 05F52F71 		add	r1, r5, #700
 1865 0ce0 2046     		mov	r0, r4
 1866 0ce2 FFF7FEFF 		bl	lv_obj_add_style
 1867              	.LVL277:
 1868 0ce6 FFF7FDB9 		b	.L1
 1869              	.L43:
1121:Drivers/lvgl/src/themes/default/lv_theme_default.c ****         lv_obj_add_style(obj, &theme->styles.menu_page, 0);
 1870              		.loc 1 1121 10 view .LVU388
1121:Drivers/lvgl/src/themes/default/lv_theme_default.c ****         lv_obj_add_style(obj, &theme->styles.menu_page, 0);
 1871              		.loc 1 1121 13 is_stmt 0 view .LVU389
 1872 0cea 5649     		ldr	r1, .L77+48
 1873 0cec 2046     		mov	r0, r4
 1874 0cee FFF7FEFF 		bl	lv_obj_check_type
 1875              	.LVL278:
1121:Drivers/lvgl/src/themes/default/lv_theme_default.c ****         lv_obj_add_style(obj, &theme->styles.menu_page, 0);
 1876              		.loc 1 1121 12 discriminator 1 view .LVU390
 1877 0cf2 A0B1     		cbz	r0, .L44
1122:Drivers/lvgl/src/themes/default/lv_theme_default.c ****         lv_obj_add_style(obj, &theme->styles.scrollbar, LV_PART_SCROLLBAR);
 1878              		.loc 1 1122 9 is_stmt 1 view .LVU391
 1879 0cf4 0022     		movs	r2, #0
 1880 0cf6 05F52C71 		add	r1, r5, #688
 1881 0cfa 2046     		mov	r0, r4
 1882 0cfc FFF7FEFF 		bl	lv_obj_add_style
 1883              	.LVL279:
1123:Drivers/lvgl/src/themes/default/lv_theme_default.c ****         lv_obj_add_style(obj, &theme->styles.scrollbar_scrolled, LV_PART_SCROLLBAR | LV_STATE_SCROL
 1884              		.loc 1 1123 9 view .LVU392
 1885 0d00 4FF48032 		mov	r2, #65536
 1886 0d04 05F14C01 		add	r1, r5, #76
 1887 0d08 2046     		mov	r0, r4
 1888 0d0a FFF7FEFF 		bl	lv_obj_add_style
 1889              	.LVL280:
1124:Drivers/lvgl/src/themes/default/lv_theme_default.c ****     }
 1890              		.loc 1 1124 9 view .LVU393
 1891 0d0e 454A     		ldr	r2, .L77+16
 1892 0d10 05F15801 		add	r1, r5, #88
 1893 0d14 2046     		mov	r0, r4
 1894 0d16 FFF7FEFF 		bl	lv_obj_add_style
 1895              	.LVL281:
 1896 0d1a FFF7E3B9 		b	.L1
 1897              	.L44:
1126:Drivers/lvgl/src/themes/default/lv_theme_default.c ****         lv_obj_add_style(obj, &theme->styles.menu_section, 0);
 1898              		.loc 1 1126 10 view .LVU394
1126:Drivers/lvgl/src/themes/default/lv_theme_default.c ****         lv_obj_add_style(obj, &theme->styles.menu_section, 0);
 1899              		.loc 1 1126 13 is_stmt 0 view .LVU395
 1900 0d1e 4A49     		ldr	r1, .L77+52
 1901 0d20 2046     		mov	r0, r4
 1902 0d22 FFF7FEFF 		bl	lv_obj_check_type
 1903              	.LVL282:
