ARM GAS  /var/folders/qx/2_175_4n2s19vhvtspjhb3qh0000gn/T//ccPNYKNl.s 			page 1


   1              		.cpu cortex-m4
   2              		.arch armv7e-m
   3              		.fpu fpv4-sp-d16
   4              		.eabi_attribute 27, 1
   5              		.eabi_attribute 28, 1
   6              		.eabi_attribute 20, 1
   7              		.eabi_attribute 21, 1
   8              		.eabi_attribute 23, 3
   9              		.eabi_attribute 24, 1
  10              		.eabi_attribute 25, 1
  11              		.eabi_attribute 26, 1
  12              		.eabi_attribute 30, 1
  13              		.eabi_attribute 34, 1
  14              		.eabi_attribute 18, 4
  15              		.file	"lv_bin_decoder.c"
  16              		.text
  17              	.Ltext0:
  18              		.cfi_sections	.debug_frame
  19              		.file 1 "Drivers/lvgl/src/libs/bin_decoder/lv_bin_decoder.c"
  20              		.section	.text.load_indexed,"ax",%progbits
  21              		.align	1
  22              		.syntax unified
  23              		.thumb
  24              		.thumb_func
  26              	load_indexed:
  27              	.LVL0:
  28              	.LFB201:
   1:Drivers/lvgl/src/libs/bin_decoder/lv_bin_decoder.c **** /**
   2:Drivers/lvgl/src/libs/bin_decoder/lv_bin_decoder.c ****  * @file lv_bin_decoder.c
   3:Drivers/lvgl/src/libs/bin_decoder/lv_bin_decoder.c ****  *
   4:Drivers/lvgl/src/libs/bin_decoder/lv_bin_decoder.c ****  */
   5:Drivers/lvgl/src/libs/bin_decoder/lv_bin_decoder.c **** 
   6:Drivers/lvgl/src/libs/bin_decoder/lv_bin_decoder.c **** /*********************
   7:Drivers/lvgl/src/libs/bin_decoder/lv_bin_decoder.c ****  *      INCLUDES
   8:Drivers/lvgl/src/libs/bin_decoder/lv_bin_decoder.c ****  *********************/
   9:Drivers/lvgl/src/libs/bin_decoder/lv_bin_decoder.c **** #include "../../draw/lv_image_decoder_private.h"
  10:Drivers/lvgl/src/libs/bin_decoder/lv_bin_decoder.c **** #include "lv_bin_decoder.h"
  11:Drivers/lvgl/src/libs/bin_decoder/lv_bin_decoder.c **** #include "../../draw/lv_draw_image.h"
  12:Drivers/lvgl/src/libs/bin_decoder/lv_bin_decoder.c **** #include "../../draw/lv_draw_buf.h"
  13:Drivers/lvgl/src/libs/bin_decoder/lv_bin_decoder.c **** #include "../../stdlib/lv_string.h"
  14:Drivers/lvgl/src/libs/bin_decoder/lv_bin_decoder.c **** #include "../../stdlib/lv_sprintf.h"
  15:Drivers/lvgl/src/libs/bin_decoder/lv_bin_decoder.c **** #include "../../libs/rle/lv_rle.h"
  16:Drivers/lvgl/src/libs/bin_decoder/lv_bin_decoder.c **** #include "../../core/lv_global.h"
  17:Drivers/lvgl/src/libs/bin_decoder/lv_bin_decoder.c **** 
  18:Drivers/lvgl/src/libs/bin_decoder/lv_bin_decoder.c **** #if LV_USE_LZ4_EXTERNAL
  19:Drivers/lvgl/src/libs/bin_decoder/lv_bin_decoder.c ****     #include <lz4.h>
  20:Drivers/lvgl/src/libs/bin_decoder/lv_bin_decoder.c **** #endif
  21:Drivers/lvgl/src/libs/bin_decoder/lv_bin_decoder.c **** 
  22:Drivers/lvgl/src/libs/bin_decoder/lv_bin_decoder.c **** #if LV_USE_LZ4_INTERNAL
  23:Drivers/lvgl/src/libs/bin_decoder/lv_bin_decoder.c ****     #include "../../libs/lz4/lz4.h"
  24:Drivers/lvgl/src/libs/bin_decoder/lv_bin_decoder.c **** #endif
  25:Drivers/lvgl/src/libs/bin_decoder/lv_bin_decoder.c **** 
  26:Drivers/lvgl/src/libs/bin_decoder/lv_bin_decoder.c **** /*********************
  27:Drivers/lvgl/src/libs/bin_decoder/lv_bin_decoder.c ****  *      DEFINES
  28:Drivers/lvgl/src/libs/bin_decoder/lv_bin_decoder.c ****  *********************/
  29:Drivers/lvgl/src/libs/bin_decoder/lv_bin_decoder.c **** 
  30:Drivers/lvgl/src/libs/bin_decoder/lv_bin_decoder.c **** #define DECODER_NAME    "BIN"
ARM GAS  /var/folders/qx/2_175_4n2s19vhvtspjhb3qh0000gn/T//ccPNYKNl.s 			page 2


  31:Drivers/lvgl/src/libs/bin_decoder/lv_bin_decoder.c **** 
  32:Drivers/lvgl/src/libs/bin_decoder/lv_bin_decoder.c **** #define image_cache_draw_buf_handlers &(LV_GLOBAL_DEFAULT()->image_cache_draw_buf_handlers)
  33:Drivers/lvgl/src/libs/bin_decoder/lv_bin_decoder.c **** 
  34:Drivers/lvgl/src/libs/bin_decoder/lv_bin_decoder.c **** /**********************
  35:Drivers/lvgl/src/libs/bin_decoder/lv_bin_decoder.c ****  *      TYPEDEFS
  36:Drivers/lvgl/src/libs/bin_decoder/lv_bin_decoder.c ****  **********************/
  37:Drivers/lvgl/src/libs/bin_decoder/lv_bin_decoder.c **** 
  38:Drivers/lvgl/src/libs/bin_decoder/lv_bin_decoder.c **** /**
  39:Drivers/lvgl/src/libs/bin_decoder/lv_bin_decoder.c ****  * Data format for compressed image data.
  40:Drivers/lvgl/src/libs/bin_decoder/lv_bin_decoder.c ****  */
  41:Drivers/lvgl/src/libs/bin_decoder/lv_bin_decoder.c **** 
  42:Drivers/lvgl/src/libs/bin_decoder/lv_bin_decoder.c **** typedef struct _lv_image_compressed_t {
  43:Drivers/lvgl/src/libs/bin_decoder/lv_bin_decoder.c ****     uint32_t method: 4; /*Compression method, see `lv_image_compress_t`*/
  44:Drivers/lvgl/src/libs/bin_decoder/lv_bin_decoder.c ****     uint32_t reserved : 28;  /*Reserved to be used later*/
  45:Drivers/lvgl/src/libs/bin_decoder/lv_bin_decoder.c ****     uint32_t compressed_size;  /*Compressed data size in byte*/
  46:Drivers/lvgl/src/libs/bin_decoder/lv_bin_decoder.c ****     uint32_t decompressed_size;  /*Decompressed data size in byte*/
  47:Drivers/lvgl/src/libs/bin_decoder/lv_bin_decoder.c ****     const uint8_t * data; /*Compressed data*/
  48:Drivers/lvgl/src/libs/bin_decoder/lv_bin_decoder.c **** } lv_image_compressed_t;
  49:Drivers/lvgl/src/libs/bin_decoder/lv_bin_decoder.c **** 
  50:Drivers/lvgl/src/libs/bin_decoder/lv_bin_decoder.c **** typedef struct {
  51:Drivers/lvgl/src/libs/bin_decoder/lv_bin_decoder.c ****     lv_fs_file_t * f;
  52:Drivers/lvgl/src/libs/bin_decoder/lv_bin_decoder.c ****     lv_color32_t * palette;
  53:Drivers/lvgl/src/libs/bin_decoder/lv_bin_decoder.c ****     lv_opa_t * opa;
  54:Drivers/lvgl/src/libs/bin_decoder/lv_bin_decoder.c ****     lv_image_compressed_t compressed;
  55:Drivers/lvgl/src/libs/bin_decoder/lv_bin_decoder.c ****     lv_draw_buf_t * decoded;            /*A draw buf to store decoded image*/
  56:Drivers/lvgl/src/libs/bin_decoder/lv_bin_decoder.c ****     lv_draw_buf_t * decompressed;       /*Decompressed data could be used directly, thus must also 
  57:Drivers/lvgl/src/libs/bin_decoder/lv_bin_decoder.c ****     lv_draw_buf_t c_array;              /*An C-array image that need to be converted to a draw buf*
  58:Drivers/lvgl/src/libs/bin_decoder/lv_bin_decoder.c ****     lv_draw_buf_t * decoded_partial;    /*A draw buf for decoded image via get_area_cb*/
  59:Drivers/lvgl/src/libs/bin_decoder/lv_bin_decoder.c **** } decoder_data_t;
  60:Drivers/lvgl/src/libs/bin_decoder/lv_bin_decoder.c **** 
  61:Drivers/lvgl/src/libs/bin_decoder/lv_bin_decoder.c **** /**********************
  62:Drivers/lvgl/src/libs/bin_decoder/lv_bin_decoder.c ****  *  STATIC PROTOTYPES
  63:Drivers/lvgl/src/libs/bin_decoder/lv_bin_decoder.c ****  **********************/
  64:Drivers/lvgl/src/libs/bin_decoder/lv_bin_decoder.c **** static decoder_data_t * get_decoder_data(lv_image_decoder_dsc_t * dsc);
  65:Drivers/lvgl/src/libs/bin_decoder/lv_bin_decoder.c **** static void free_decoder_data(lv_image_decoder_dsc_t * dsc);
  66:Drivers/lvgl/src/libs/bin_decoder/lv_bin_decoder.c **** static lv_result_t decode_indexed(lv_image_decoder_t * decoder, lv_image_decoder_dsc_t * dsc);
  67:Drivers/lvgl/src/libs/bin_decoder/lv_bin_decoder.c **** static lv_result_t load_indexed(lv_image_decoder_t * decoder, lv_image_decoder_dsc_t * dsc);
  68:Drivers/lvgl/src/libs/bin_decoder/lv_bin_decoder.c **** #if LV_BIN_DECODER_RAM_LOAD
  69:Drivers/lvgl/src/libs/bin_decoder/lv_bin_decoder.c ****     static lv_result_t decode_rgb(lv_image_decoder_t * decoder, lv_image_decoder_dsc_t * dsc);
  70:Drivers/lvgl/src/libs/bin_decoder/lv_bin_decoder.c **** #endif
  71:Drivers/lvgl/src/libs/bin_decoder/lv_bin_decoder.c **** static lv_result_t decode_alpha_only(lv_image_decoder_t * decoder, lv_image_decoder_dsc_t * dsc);
  72:Drivers/lvgl/src/libs/bin_decoder/lv_bin_decoder.c **** static lv_result_t decode_indexed_line(lv_color_format_t color_format, const lv_color32_t * palette
  73:Drivers/lvgl/src/libs/bin_decoder/lv_bin_decoder.c ****                                        int32_t w_px, const uint8_t * in, lv_color32_t * out);
  74:Drivers/lvgl/src/libs/bin_decoder/lv_bin_decoder.c **** static lv_result_t decode_compressed(lv_image_decoder_t * decoder, lv_image_decoder_dsc_t * dsc);
  75:Drivers/lvgl/src/libs/bin_decoder/lv_bin_decoder.c **** 
  76:Drivers/lvgl/src/libs/bin_decoder/lv_bin_decoder.c **** static lv_fs_res_t fs_read_file_at(lv_fs_file_t * f, uint32_t pos, void * buff, uint32_t btr, uint3
  77:Drivers/lvgl/src/libs/bin_decoder/lv_bin_decoder.c **** 
  78:Drivers/lvgl/src/libs/bin_decoder/lv_bin_decoder.c **** static lv_result_t decompress_image(lv_image_decoder_dsc_t * dsc, const lv_image_compressed_t * com
  79:Drivers/lvgl/src/libs/bin_decoder/lv_bin_decoder.c **** 
  80:Drivers/lvgl/src/libs/bin_decoder/lv_bin_decoder.c **** /**********************
  81:Drivers/lvgl/src/libs/bin_decoder/lv_bin_decoder.c ****  *  STATIC VARIABLES
  82:Drivers/lvgl/src/libs/bin_decoder/lv_bin_decoder.c ****  **********************/
  83:Drivers/lvgl/src/libs/bin_decoder/lv_bin_decoder.c **** 
  84:Drivers/lvgl/src/libs/bin_decoder/lv_bin_decoder.c **** /**********************
  85:Drivers/lvgl/src/libs/bin_decoder/lv_bin_decoder.c ****  *      MACROS
  86:Drivers/lvgl/src/libs/bin_decoder/lv_bin_decoder.c ****  **********************/
  87:Drivers/lvgl/src/libs/bin_decoder/lv_bin_decoder.c **** 
ARM GAS  /var/folders/qx/2_175_4n2s19vhvtspjhb3qh0000gn/T//ccPNYKNl.s 			page 3


  88:Drivers/lvgl/src/libs/bin_decoder/lv_bin_decoder.c **** /**********************
  89:Drivers/lvgl/src/libs/bin_decoder/lv_bin_decoder.c ****  *   GLOBAL FUNCTIONS
  90:Drivers/lvgl/src/libs/bin_decoder/lv_bin_decoder.c ****  **********************/
  91:Drivers/lvgl/src/libs/bin_decoder/lv_bin_decoder.c **** 
  92:Drivers/lvgl/src/libs/bin_decoder/lv_bin_decoder.c **** /**
  93:Drivers/lvgl/src/libs/bin_decoder/lv_bin_decoder.c ****  * Initialize the lvgl binary image decoder module
  94:Drivers/lvgl/src/libs/bin_decoder/lv_bin_decoder.c ****  */
  95:Drivers/lvgl/src/libs/bin_decoder/lv_bin_decoder.c **** void lv_bin_decoder_init(void)
  96:Drivers/lvgl/src/libs/bin_decoder/lv_bin_decoder.c **** {
  97:Drivers/lvgl/src/libs/bin_decoder/lv_bin_decoder.c ****     lv_image_decoder_t * decoder;
  98:Drivers/lvgl/src/libs/bin_decoder/lv_bin_decoder.c **** 
  99:Drivers/lvgl/src/libs/bin_decoder/lv_bin_decoder.c ****     decoder = lv_image_decoder_create();
 100:Drivers/lvgl/src/libs/bin_decoder/lv_bin_decoder.c ****     LV_ASSERT_MALLOC(decoder);
 101:Drivers/lvgl/src/libs/bin_decoder/lv_bin_decoder.c ****     if(decoder == NULL) {
 102:Drivers/lvgl/src/libs/bin_decoder/lv_bin_decoder.c ****         LV_LOG_WARN("Out of memory");
 103:Drivers/lvgl/src/libs/bin_decoder/lv_bin_decoder.c ****         return;
 104:Drivers/lvgl/src/libs/bin_decoder/lv_bin_decoder.c ****     }
 105:Drivers/lvgl/src/libs/bin_decoder/lv_bin_decoder.c **** 
 106:Drivers/lvgl/src/libs/bin_decoder/lv_bin_decoder.c ****     lv_image_decoder_set_info_cb(decoder, lv_bin_decoder_info);
 107:Drivers/lvgl/src/libs/bin_decoder/lv_bin_decoder.c ****     lv_image_decoder_set_open_cb(decoder, lv_bin_decoder_open);
 108:Drivers/lvgl/src/libs/bin_decoder/lv_bin_decoder.c ****     lv_image_decoder_set_get_area_cb(decoder, lv_bin_decoder_get_area);
 109:Drivers/lvgl/src/libs/bin_decoder/lv_bin_decoder.c ****     lv_image_decoder_set_close_cb(decoder, lv_bin_decoder_close);
 110:Drivers/lvgl/src/libs/bin_decoder/lv_bin_decoder.c **** 
 111:Drivers/lvgl/src/libs/bin_decoder/lv_bin_decoder.c ****     decoder->name = DECODER_NAME;
 112:Drivers/lvgl/src/libs/bin_decoder/lv_bin_decoder.c **** }
 113:Drivers/lvgl/src/libs/bin_decoder/lv_bin_decoder.c **** 
 114:Drivers/lvgl/src/libs/bin_decoder/lv_bin_decoder.c **** lv_result_t lv_bin_decoder_info(lv_image_decoder_t * decoder, lv_image_decoder_dsc_t * dsc, lv_imag
 115:Drivers/lvgl/src/libs/bin_decoder/lv_bin_decoder.c **** {
 116:Drivers/lvgl/src/libs/bin_decoder/lv_bin_decoder.c ****     LV_UNUSED(decoder); /*Unused*/
 117:Drivers/lvgl/src/libs/bin_decoder/lv_bin_decoder.c **** 
 118:Drivers/lvgl/src/libs/bin_decoder/lv_bin_decoder.c ****     const void * src = dsc->src;
 119:Drivers/lvgl/src/libs/bin_decoder/lv_bin_decoder.c ****     lv_image_src_t src_type = dsc->src_type;
 120:Drivers/lvgl/src/libs/bin_decoder/lv_bin_decoder.c **** 
 121:Drivers/lvgl/src/libs/bin_decoder/lv_bin_decoder.c ****     if(src_type == LV_IMAGE_SRC_VARIABLE) {
 122:Drivers/lvgl/src/libs/bin_decoder/lv_bin_decoder.c ****         lv_image_dsc_t * image = (lv_image_dsc_t *)src;
 123:Drivers/lvgl/src/libs/bin_decoder/lv_bin_decoder.c ****         lv_memcpy(header, &image->header, sizeof(lv_image_header_t));
 124:Drivers/lvgl/src/libs/bin_decoder/lv_bin_decoder.c ****     }
 125:Drivers/lvgl/src/libs/bin_decoder/lv_bin_decoder.c ****     else if(src_type == LV_IMAGE_SRC_FILE) {
 126:Drivers/lvgl/src/libs/bin_decoder/lv_bin_decoder.c ****         /*Support only "*.bin" files*/
 127:Drivers/lvgl/src/libs/bin_decoder/lv_bin_decoder.c ****         if(lv_strcmp(lv_fs_get_ext(src), "bin")) return LV_RESULT_INVALID;
 128:Drivers/lvgl/src/libs/bin_decoder/lv_bin_decoder.c **** 
 129:Drivers/lvgl/src/libs/bin_decoder/lv_bin_decoder.c ****         lv_fs_res_t res;
 130:Drivers/lvgl/src/libs/bin_decoder/lv_bin_decoder.c ****         uint32_t rn;
 131:Drivers/lvgl/src/libs/bin_decoder/lv_bin_decoder.c ****         res = lv_fs_read(&dsc->file, header, sizeof(lv_image_header_t), &rn);
 132:Drivers/lvgl/src/libs/bin_decoder/lv_bin_decoder.c **** 
 133:Drivers/lvgl/src/libs/bin_decoder/lv_bin_decoder.c ****         if(res != LV_FS_RES_OK || rn != sizeof(lv_image_header_t)) {
 134:Drivers/lvgl/src/libs/bin_decoder/lv_bin_decoder.c ****             LV_LOG_WARN("Read file header failed: %d with len: %" LV_PRIu32 ", expected: %zu", res,
 135:Drivers/lvgl/src/libs/bin_decoder/lv_bin_decoder.c ****             return LV_RESULT_INVALID;
 136:Drivers/lvgl/src/libs/bin_decoder/lv_bin_decoder.c ****         }
 137:Drivers/lvgl/src/libs/bin_decoder/lv_bin_decoder.c **** 
 138:Drivers/lvgl/src/libs/bin_decoder/lv_bin_decoder.c ****         /**
 139:Drivers/lvgl/src/libs/bin_decoder/lv_bin_decoder.c ****          * @todo
 140:Drivers/lvgl/src/libs/bin_decoder/lv_bin_decoder.c ****          * This is a temp backward compatibility solution after adding
 141:Drivers/lvgl/src/libs/bin_decoder/lv_bin_decoder.c ****          * magic in image header.
 142:Drivers/lvgl/src/libs/bin_decoder/lv_bin_decoder.c ****          */
 143:Drivers/lvgl/src/libs/bin_decoder/lv_bin_decoder.c ****         if(header->magic != LV_IMAGE_HEADER_MAGIC) {
 144:Drivers/lvgl/src/libs/bin_decoder/lv_bin_decoder.c ****             LV_LOG_WARN("Legacy bin image detected: %s", (char *)src);
ARM GAS  /var/folders/qx/2_175_4n2s19vhvtspjhb3qh0000gn/T//ccPNYKNl.s 			page 4


 145:Drivers/lvgl/src/libs/bin_decoder/lv_bin_decoder.c ****             header->cf = header->magic;
 146:Drivers/lvgl/src/libs/bin_decoder/lv_bin_decoder.c ****             header->magic = LV_IMAGE_HEADER_MAGIC;
 147:Drivers/lvgl/src/libs/bin_decoder/lv_bin_decoder.c ****         }
 148:Drivers/lvgl/src/libs/bin_decoder/lv_bin_decoder.c **** 
 149:Drivers/lvgl/src/libs/bin_decoder/lv_bin_decoder.c ****         /*File is always read to buf, thus data can be modified.*/
 150:Drivers/lvgl/src/libs/bin_decoder/lv_bin_decoder.c ****         header->flags |= LV_IMAGE_FLAGS_MODIFIABLE;
 151:Drivers/lvgl/src/libs/bin_decoder/lv_bin_decoder.c ****     }
 152:Drivers/lvgl/src/libs/bin_decoder/lv_bin_decoder.c ****     else if(src_type == LV_IMAGE_SRC_SYMBOL) {
 153:Drivers/lvgl/src/libs/bin_decoder/lv_bin_decoder.c ****         /*The size depend on the font but it is unknown here. It should be handled outside of the
 154:Drivers/lvgl/src/libs/bin_decoder/lv_bin_decoder.c ****          *function*/
 155:Drivers/lvgl/src/libs/bin_decoder/lv_bin_decoder.c ****         header->w = 1;
 156:Drivers/lvgl/src/libs/bin_decoder/lv_bin_decoder.c ****         header->h = 1;
 157:Drivers/lvgl/src/libs/bin_decoder/lv_bin_decoder.c ****         /*Symbols always have transparent parts. Important because of cover check in the draw
 158:Drivers/lvgl/src/libs/bin_decoder/lv_bin_decoder.c ****          *function. The actual value doesn't matter because lv_draw_label will draw it*/
 159:Drivers/lvgl/src/libs/bin_decoder/lv_bin_decoder.c ****         header->cf = LV_COLOR_FORMAT_A8;
 160:Drivers/lvgl/src/libs/bin_decoder/lv_bin_decoder.c ****     }
 161:Drivers/lvgl/src/libs/bin_decoder/lv_bin_decoder.c ****     else {
 162:Drivers/lvgl/src/libs/bin_decoder/lv_bin_decoder.c ****         LV_LOG_WARN("Image get info found unknown src type");
 163:Drivers/lvgl/src/libs/bin_decoder/lv_bin_decoder.c ****         return LV_RESULT_INVALID;
 164:Drivers/lvgl/src/libs/bin_decoder/lv_bin_decoder.c ****     }
 165:Drivers/lvgl/src/libs/bin_decoder/lv_bin_decoder.c **** 
 166:Drivers/lvgl/src/libs/bin_decoder/lv_bin_decoder.c ****     if(header->cf == LV_COLOR_FORMAT_UNKNOWN) {
 167:Drivers/lvgl/src/libs/bin_decoder/lv_bin_decoder.c ****         LV_LOG_WARN("Image color format is unknown");
 168:Drivers/lvgl/src/libs/bin_decoder/lv_bin_decoder.c ****         return LV_RESULT_INVALID;
 169:Drivers/lvgl/src/libs/bin_decoder/lv_bin_decoder.c ****     }
 170:Drivers/lvgl/src/libs/bin_decoder/lv_bin_decoder.c **** 
 171:Drivers/lvgl/src/libs/bin_decoder/lv_bin_decoder.c ****     /*For backward compatibility, all images are not premultiplied for now.*/
 172:Drivers/lvgl/src/libs/bin_decoder/lv_bin_decoder.c ****     if(header->magic != LV_IMAGE_HEADER_MAGIC) {
 173:Drivers/lvgl/src/libs/bin_decoder/lv_bin_decoder.c ****         header->flags &= ~LV_IMAGE_FLAGS_PREMULTIPLIED;
 174:Drivers/lvgl/src/libs/bin_decoder/lv_bin_decoder.c ****     }
 175:Drivers/lvgl/src/libs/bin_decoder/lv_bin_decoder.c **** 
 176:Drivers/lvgl/src/libs/bin_decoder/lv_bin_decoder.c ****     return LV_RESULT_OK;
 177:Drivers/lvgl/src/libs/bin_decoder/lv_bin_decoder.c **** }
 178:Drivers/lvgl/src/libs/bin_decoder/lv_bin_decoder.c **** 
 179:Drivers/lvgl/src/libs/bin_decoder/lv_bin_decoder.c **** /**
 180:Drivers/lvgl/src/libs/bin_decoder/lv_bin_decoder.c ****  * Decode an image from a binary file
 181:Drivers/lvgl/src/libs/bin_decoder/lv_bin_decoder.c ****  * @param decoder pointer to the decoder
 182:Drivers/lvgl/src/libs/bin_decoder/lv_bin_decoder.c ****  * @param dsc     pointer to the decoder descriptor
 183:Drivers/lvgl/src/libs/bin_decoder/lv_bin_decoder.c ****  * @return LV_RESULT_OK: no error; LV_RESULT_INVALID: can't open the image
 184:Drivers/lvgl/src/libs/bin_decoder/lv_bin_decoder.c ****  */
 185:Drivers/lvgl/src/libs/bin_decoder/lv_bin_decoder.c **** lv_result_t lv_bin_decoder_open(lv_image_decoder_t * decoder, lv_image_decoder_dsc_t * dsc)
 186:Drivers/lvgl/src/libs/bin_decoder/lv_bin_decoder.c **** {
 187:Drivers/lvgl/src/libs/bin_decoder/lv_bin_decoder.c ****     LV_UNUSED(decoder);
 188:Drivers/lvgl/src/libs/bin_decoder/lv_bin_decoder.c **** 
 189:Drivers/lvgl/src/libs/bin_decoder/lv_bin_decoder.c ****     lv_result_t res = LV_RESULT_INVALID;
 190:Drivers/lvgl/src/libs/bin_decoder/lv_bin_decoder.c ****     lv_fs_res_t fs_res = LV_FS_RES_UNKNOWN;
 191:Drivers/lvgl/src/libs/bin_decoder/lv_bin_decoder.c ****     bool use_directly = false; /*If the image is already decoded and can be used directly*/
 192:Drivers/lvgl/src/libs/bin_decoder/lv_bin_decoder.c **** 
 193:Drivers/lvgl/src/libs/bin_decoder/lv_bin_decoder.c ****     /*Open the file if it's a file*/
 194:Drivers/lvgl/src/libs/bin_decoder/lv_bin_decoder.c ****     if(dsc->src_type == LV_IMAGE_SRC_FILE) {
 195:Drivers/lvgl/src/libs/bin_decoder/lv_bin_decoder.c ****         /*Support only "*.bin" files*/
 196:Drivers/lvgl/src/libs/bin_decoder/lv_bin_decoder.c ****         if(lv_strcmp(lv_fs_get_ext(dsc->src), "bin")) return LV_RESULT_INVALID;
 197:Drivers/lvgl/src/libs/bin_decoder/lv_bin_decoder.c **** 
 198:Drivers/lvgl/src/libs/bin_decoder/lv_bin_decoder.c ****         /*If the file was open successfully save the file descriptor*/
 199:Drivers/lvgl/src/libs/bin_decoder/lv_bin_decoder.c ****         decoder_data_t * decoder_data = get_decoder_data(dsc);
 200:Drivers/lvgl/src/libs/bin_decoder/lv_bin_decoder.c ****         if(decoder_data == NULL) {
 201:Drivers/lvgl/src/libs/bin_decoder/lv_bin_decoder.c ****             return LV_RESULT_INVALID;
ARM GAS  /var/folders/qx/2_175_4n2s19vhvtspjhb3qh0000gn/T//ccPNYKNl.s 			page 5


 202:Drivers/lvgl/src/libs/bin_decoder/lv_bin_decoder.c ****         }
 203:Drivers/lvgl/src/libs/bin_decoder/lv_bin_decoder.c **** 
 204:Drivers/lvgl/src/libs/bin_decoder/lv_bin_decoder.c ****         dsc->user_data = decoder_data;
 205:Drivers/lvgl/src/libs/bin_decoder/lv_bin_decoder.c ****         lv_fs_file_t * f = lv_malloc(sizeof(*f));
 206:Drivers/lvgl/src/libs/bin_decoder/lv_bin_decoder.c ****         if(f == NULL) {
 207:Drivers/lvgl/src/libs/bin_decoder/lv_bin_decoder.c ****             free_decoder_data(dsc);
 208:Drivers/lvgl/src/libs/bin_decoder/lv_bin_decoder.c ****             return LV_RESULT_INVALID;
 209:Drivers/lvgl/src/libs/bin_decoder/lv_bin_decoder.c ****         }
 210:Drivers/lvgl/src/libs/bin_decoder/lv_bin_decoder.c **** 
 211:Drivers/lvgl/src/libs/bin_decoder/lv_bin_decoder.c ****         fs_res = lv_fs_open(f, dsc->src, LV_FS_MODE_RD);
 212:Drivers/lvgl/src/libs/bin_decoder/lv_bin_decoder.c ****         if(fs_res != LV_FS_RES_OK) {
 213:Drivers/lvgl/src/libs/bin_decoder/lv_bin_decoder.c ****             LV_LOG_WARN("Open file failed: %d", fs_res);
 214:Drivers/lvgl/src/libs/bin_decoder/lv_bin_decoder.c ****             lv_free(f);
 215:Drivers/lvgl/src/libs/bin_decoder/lv_bin_decoder.c ****             free_decoder_data(dsc);
 216:Drivers/lvgl/src/libs/bin_decoder/lv_bin_decoder.c ****             return LV_RESULT_INVALID;
 217:Drivers/lvgl/src/libs/bin_decoder/lv_bin_decoder.c ****         }
 218:Drivers/lvgl/src/libs/bin_decoder/lv_bin_decoder.c **** 
 219:Drivers/lvgl/src/libs/bin_decoder/lv_bin_decoder.c ****         decoder_data->f = f;    /*Now free_decoder_data will take care of the file*/
 220:Drivers/lvgl/src/libs/bin_decoder/lv_bin_decoder.c **** 
 221:Drivers/lvgl/src/libs/bin_decoder/lv_bin_decoder.c ****         lv_color_format_t cf = dsc->header.cf;
 222:Drivers/lvgl/src/libs/bin_decoder/lv_bin_decoder.c **** 
 223:Drivers/lvgl/src/libs/bin_decoder/lv_bin_decoder.c ****         if(dsc->header.flags & LV_IMAGE_FLAGS_COMPRESSED) {
 224:Drivers/lvgl/src/libs/bin_decoder/lv_bin_decoder.c ****             res = decode_compressed(decoder, dsc);
 225:Drivers/lvgl/src/libs/bin_decoder/lv_bin_decoder.c ****         }
 226:Drivers/lvgl/src/libs/bin_decoder/lv_bin_decoder.c ****         else if(LV_COLOR_FORMAT_IS_INDEXED(cf)) {
 227:Drivers/lvgl/src/libs/bin_decoder/lv_bin_decoder.c ****             if(dsc->args.use_indexed) {
 228:Drivers/lvgl/src/libs/bin_decoder/lv_bin_decoder.c ****                 /*Palette for indexed image and whole image of A8 image are always loaded to RAM fo
 229:Drivers/lvgl/src/libs/bin_decoder/lv_bin_decoder.c ****                 res = load_indexed(decoder, dsc);
 230:Drivers/lvgl/src/libs/bin_decoder/lv_bin_decoder.c ****             }
 231:Drivers/lvgl/src/libs/bin_decoder/lv_bin_decoder.c ****             else {
 232:Drivers/lvgl/src/libs/bin_decoder/lv_bin_decoder.c ****                 res = decode_indexed(decoder, dsc);
 233:Drivers/lvgl/src/libs/bin_decoder/lv_bin_decoder.c ****             }
 234:Drivers/lvgl/src/libs/bin_decoder/lv_bin_decoder.c ****         }
 235:Drivers/lvgl/src/libs/bin_decoder/lv_bin_decoder.c ****         else if(LV_COLOR_FORMAT_IS_ALPHA_ONLY(cf)) {
 236:Drivers/lvgl/src/libs/bin_decoder/lv_bin_decoder.c ****             res = decode_alpha_only(decoder, dsc);
 237:Drivers/lvgl/src/libs/bin_decoder/lv_bin_decoder.c ****         }
 238:Drivers/lvgl/src/libs/bin_decoder/lv_bin_decoder.c **** #if LV_BIN_DECODER_RAM_LOAD
 239:Drivers/lvgl/src/libs/bin_decoder/lv_bin_decoder.c ****         else if(cf == LV_COLOR_FORMAT_ARGB8888      \
 240:Drivers/lvgl/src/libs/bin_decoder/lv_bin_decoder.c ****                 || cf == LV_COLOR_FORMAT_XRGB8888   \
 241:Drivers/lvgl/src/libs/bin_decoder/lv_bin_decoder.c ****                 || cf == LV_COLOR_FORMAT_RGB888     \
 242:Drivers/lvgl/src/libs/bin_decoder/lv_bin_decoder.c ****                 || cf == LV_COLOR_FORMAT_RGB565     \
 243:Drivers/lvgl/src/libs/bin_decoder/lv_bin_decoder.c ****                 || cf == LV_COLOR_FORMAT_RGB565_SWAPPED     \
 244:Drivers/lvgl/src/libs/bin_decoder/lv_bin_decoder.c ****                 || cf == LV_COLOR_FORMAT_RGB565A8   \
 245:Drivers/lvgl/src/libs/bin_decoder/lv_bin_decoder.c ****                 || cf == LV_COLOR_FORMAT_ARGB8565) {
 246:Drivers/lvgl/src/libs/bin_decoder/lv_bin_decoder.c ****             res = decode_rgb(decoder, dsc);
 247:Drivers/lvgl/src/libs/bin_decoder/lv_bin_decoder.c ****         }
 248:Drivers/lvgl/src/libs/bin_decoder/lv_bin_decoder.c **** #else
 249:Drivers/lvgl/src/libs/bin_decoder/lv_bin_decoder.c ****         else {
 250:Drivers/lvgl/src/libs/bin_decoder/lv_bin_decoder.c ****             /* decode them in get_area_cb */
 251:Drivers/lvgl/src/libs/bin_decoder/lv_bin_decoder.c ****             res = LV_RESULT_OK;
 252:Drivers/lvgl/src/libs/bin_decoder/lv_bin_decoder.c ****         }
 253:Drivers/lvgl/src/libs/bin_decoder/lv_bin_decoder.c **** #endif
 254:Drivers/lvgl/src/libs/bin_decoder/lv_bin_decoder.c ****     }
 255:Drivers/lvgl/src/libs/bin_decoder/lv_bin_decoder.c **** 
 256:Drivers/lvgl/src/libs/bin_decoder/lv_bin_decoder.c ****     else if(dsc->src_type == LV_IMAGE_SRC_VARIABLE) {
 257:Drivers/lvgl/src/libs/bin_decoder/lv_bin_decoder.c ****         /*The variables should have valid data*/
 258:Drivers/lvgl/src/libs/bin_decoder/lv_bin_decoder.c ****         lv_image_dsc_t * image = (lv_image_dsc_t *)dsc->src;
ARM GAS  /var/folders/qx/2_175_4n2s19vhvtspjhb3qh0000gn/T//ccPNYKNl.s 			page 6


 259:Drivers/lvgl/src/libs/bin_decoder/lv_bin_decoder.c ****         if(image->data == NULL) {
 260:Drivers/lvgl/src/libs/bin_decoder/lv_bin_decoder.c ****             return LV_RESULT_INVALID;
 261:Drivers/lvgl/src/libs/bin_decoder/lv_bin_decoder.c ****         }
 262:Drivers/lvgl/src/libs/bin_decoder/lv_bin_decoder.c **** 
 263:Drivers/lvgl/src/libs/bin_decoder/lv_bin_decoder.c ****         lv_color_format_t cf = image->header.cf;
 264:Drivers/lvgl/src/libs/bin_decoder/lv_bin_decoder.c ****         if(dsc->header.flags & LV_IMAGE_FLAGS_COMPRESSED) {
 265:Drivers/lvgl/src/libs/bin_decoder/lv_bin_decoder.c ****             res = decode_compressed(decoder, dsc);
 266:Drivers/lvgl/src/libs/bin_decoder/lv_bin_decoder.c ****         }
 267:Drivers/lvgl/src/libs/bin_decoder/lv_bin_decoder.c ****         else if(LV_COLOR_FORMAT_IS_INDEXED(cf)) {
 268:Drivers/lvgl/src/libs/bin_decoder/lv_bin_decoder.c ****             /*Need decoder data to store converted image*/
 269:Drivers/lvgl/src/libs/bin_decoder/lv_bin_decoder.c ****             decoder_data_t * decoder_data = get_decoder_data(dsc);
 270:Drivers/lvgl/src/libs/bin_decoder/lv_bin_decoder.c ****             if(decoder_data == NULL) {
 271:Drivers/lvgl/src/libs/bin_decoder/lv_bin_decoder.c ****                 return LV_RESULT_INVALID;
 272:Drivers/lvgl/src/libs/bin_decoder/lv_bin_decoder.c ****             }
 273:Drivers/lvgl/src/libs/bin_decoder/lv_bin_decoder.c **** 
 274:Drivers/lvgl/src/libs/bin_decoder/lv_bin_decoder.c ****             if(dsc->args.use_indexed) {
 275:Drivers/lvgl/src/libs/bin_decoder/lv_bin_decoder.c ****                 /*Palette for indexed image and whole image of A8 image are always loaded to RAM fo
 276:Drivers/lvgl/src/libs/bin_decoder/lv_bin_decoder.c ****                 res = load_indexed(decoder, dsc);
 277:Drivers/lvgl/src/libs/bin_decoder/lv_bin_decoder.c ****                 use_directly = true; /*If draw unit supports indexed image, it can be used directly
 278:Drivers/lvgl/src/libs/bin_decoder/lv_bin_decoder.c ****             }
 279:Drivers/lvgl/src/libs/bin_decoder/lv_bin_decoder.c ****             else {
 280:Drivers/lvgl/src/libs/bin_decoder/lv_bin_decoder.c ****                 res = decode_indexed(decoder, dsc);
 281:Drivers/lvgl/src/libs/bin_decoder/lv_bin_decoder.c ****             }
 282:Drivers/lvgl/src/libs/bin_decoder/lv_bin_decoder.c ****         }
 283:Drivers/lvgl/src/libs/bin_decoder/lv_bin_decoder.c ****         else if(LV_COLOR_FORMAT_IS_ALPHA_ONLY(cf) && cf != LV_COLOR_FORMAT_A8) {
 284:Drivers/lvgl/src/libs/bin_decoder/lv_bin_decoder.c ****             /*Alpha only image will need decoder data to store pointer to decoded image, to free it
 285:Drivers/lvgl/src/libs/bin_decoder/lv_bin_decoder.c ****             decoder_data_t * decoder_data = get_decoder_data(dsc);
 286:Drivers/lvgl/src/libs/bin_decoder/lv_bin_decoder.c ****             if(decoder_data == NULL) {
 287:Drivers/lvgl/src/libs/bin_decoder/lv_bin_decoder.c ****                 return LV_RESULT_INVALID;
 288:Drivers/lvgl/src/libs/bin_decoder/lv_bin_decoder.c ****             }
 289:Drivers/lvgl/src/libs/bin_decoder/lv_bin_decoder.c **** 
 290:Drivers/lvgl/src/libs/bin_decoder/lv_bin_decoder.c ****             res = decode_alpha_only(decoder, dsc);
 291:Drivers/lvgl/src/libs/bin_decoder/lv_bin_decoder.c ****         }
 292:Drivers/lvgl/src/libs/bin_decoder/lv_bin_decoder.c ****         else {
 293:Drivers/lvgl/src/libs/bin_decoder/lv_bin_decoder.c ****             /*In case of uncompressed formats the image stored in the ROM/RAM.
 294:Drivers/lvgl/src/libs/bin_decoder/lv_bin_decoder.c ****              *So simply give its pointer*/
 295:Drivers/lvgl/src/libs/bin_decoder/lv_bin_decoder.c **** 
 296:Drivers/lvgl/src/libs/bin_decoder/lv_bin_decoder.c ****             decoder_data_t * decoder_data = get_decoder_data(dsc);
 297:Drivers/lvgl/src/libs/bin_decoder/lv_bin_decoder.c ****             lv_draw_buf_t * decoded;
 298:Drivers/lvgl/src/libs/bin_decoder/lv_bin_decoder.c ****             if(image->header.flags & LV_IMAGE_FLAGS_ALLOCATED) {
 299:Drivers/lvgl/src/libs/bin_decoder/lv_bin_decoder.c ****                 decoded = (lv_draw_buf_t *)image;
 300:Drivers/lvgl/src/libs/bin_decoder/lv_bin_decoder.c ****                 res = LV_RESULT_OK;
 301:Drivers/lvgl/src/libs/bin_decoder/lv_bin_decoder.c ****             }
 302:Drivers/lvgl/src/libs/bin_decoder/lv_bin_decoder.c ****             else {
 303:Drivers/lvgl/src/libs/bin_decoder/lv_bin_decoder.c ****                 decoded = &decoder_data->c_array;
 304:Drivers/lvgl/src/libs/bin_decoder/lv_bin_decoder.c ****                 if(image->header.stride == 0) {
 305:Drivers/lvgl/src/libs/bin_decoder/lv_bin_decoder.c ****                     /*If image doesn't have stride, treat it as lvgl v8 legacy image format*/
 306:Drivers/lvgl/src/libs/bin_decoder/lv_bin_decoder.c ****                     lv_image_dsc_t tmp = *image;
 307:Drivers/lvgl/src/libs/bin_decoder/lv_bin_decoder.c ****                     tmp.header.stride = (tmp.header.w * lv_color_format_get_bpp(cf) + 7) >> 3;
 308:Drivers/lvgl/src/libs/bin_decoder/lv_bin_decoder.c ****                     res = lv_draw_buf_from_image(decoded, &tmp);
 309:Drivers/lvgl/src/libs/bin_decoder/lv_bin_decoder.c ****                 }
 310:Drivers/lvgl/src/libs/bin_decoder/lv_bin_decoder.c ****                 else
 311:Drivers/lvgl/src/libs/bin_decoder/lv_bin_decoder.c ****                     res = lv_draw_buf_from_image(decoded, image);
 312:Drivers/lvgl/src/libs/bin_decoder/lv_bin_decoder.c ****             }
 313:Drivers/lvgl/src/libs/bin_decoder/lv_bin_decoder.c **** 
 314:Drivers/lvgl/src/libs/bin_decoder/lv_bin_decoder.c ****             if(res == LV_RESULT_OK) {
 315:Drivers/lvgl/src/libs/bin_decoder/lv_bin_decoder.c ****                 dsc->decoded = decoded;
ARM GAS  /var/folders/qx/2_175_4n2s19vhvtspjhb3qh0000gn/T//ccPNYKNl.s 			page 7


 316:Drivers/lvgl/src/libs/bin_decoder/lv_bin_decoder.c **** 
 317:Drivers/lvgl/src/libs/bin_decoder/lv_bin_decoder.c ****                 if(decoded->header.stride == 0) {
 318:Drivers/lvgl/src/libs/bin_decoder/lv_bin_decoder.c ****                     /*Use the auto calculated value from decoder_info callback*/
 319:Drivers/lvgl/src/libs/bin_decoder/lv_bin_decoder.c ****                     decoded->header.stride = dsc->header.stride;
 320:Drivers/lvgl/src/libs/bin_decoder/lv_bin_decoder.c ****                 }
 321:Drivers/lvgl/src/libs/bin_decoder/lv_bin_decoder.c **** 
 322:Drivers/lvgl/src/libs/bin_decoder/lv_bin_decoder.c ****                 use_directly = true; /*A variable image that can be used directly.*/
 323:Drivers/lvgl/src/libs/bin_decoder/lv_bin_decoder.c ****             }
 324:Drivers/lvgl/src/libs/bin_decoder/lv_bin_decoder.c ****         }
 325:Drivers/lvgl/src/libs/bin_decoder/lv_bin_decoder.c ****     }
 326:Drivers/lvgl/src/libs/bin_decoder/lv_bin_decoder.c **** 
 327:Drivers/lvgl/src/libs/bin_decoder/lv_bin_decoder.c ****     if(res != LV_RESULT_OK) {
 328:Drivers/lvgl/src/libs/bin_decoder/lv_bin_decoder.c ****         free_decoder_data(dsc);
 329:Drivers/lvgl/src/libs/bin_decoder/lv_bin_decoder.c ****         return res;
 330:Drivers/lvgl/src/libs/bin_decoder/lv_bin_decoder.c ****     }
 331:Drivers/lvgl/src/libs/bin_decoder/lv_bin_decoder.c **** 
 332:Drivers/lvgl/src/libs/bin_decoder/lv_bin_decoder.c ****     if(dsc->decoded == NULL) return LV_RESULT_OK; /*Need to read via get_area_cb*/
 333:Drivers/lvgl/src/libs/bin_decoder/lv_bin_decoder.c **** 
 334:Drivers/lvgl/src/libs/bin_decoder/lv_bin_decoder.c ****     lv_draw_buf_t * decoded = (lv_draw_buf_t *)dsc->decoded;
 335:Drivers/lvgl/src/libs/bin_decoder/lv_bin_decoder.c ****     if(dsc->header.flags & LV_IMAGE_FLAGS_PREMULTIPLIED) {
 336:Drivers/lvgl/src/libs/bin_decoder/lv_bin_decoder.c ****         lv_draw_buf_set_flag(decoded, LV_IMAGE_FLAGS_PREMULTIPLIED);
 337:Drivers/lvgl/src/libs/bin_decoder/lv_bin_decoder.c ****     }
 338:Drivers/lvgl/src/libs/bin_decoder/lv_bin_decoder.c **** 
 339:Drivers/lvgl/src/libs/bin_decoder/lv_bin_decoder.c ****     lv_draw_buf_t * adjusted = lv_image_decoder_post_process(dsc, decoded);
 340:Drivers/lvgl/src/libs/bin_decoder/lv_bin_decoder.c ****     if(adjusted == NULL) {
 341:Drivers/lvgl/src/libs/bin_decoder/lv_bin_decoder.c ****         free_decoder_data(dsc);
 342:Drivers/lvgl/src/libs/bin_decoder/lv_bin_decoder.c ****         return LV_RESULT_INVALID;
 343:Drivers/lvgl/src/libs/bin_decoder/lv_bin_decoder.c ****     }
 344:Drivers/lvgl/src/libs/bin_decoder/lv_bin_decoder.c **** 
 345:Drivers/lvgl/src/libs/bin_decoder/lv_bin_decoder.c ****     /*The adjusted draw buffer is newly allocated.*/
 346:Drivers/lvgl/src/libs/bin_decoder/lv_bin_decoder.c ****     if(adjusted != decoded) {
 347:Drivers/lvgl/src/libs/bin_decoder/lv_bin_decoder.c ****         use_directly = false; /*Cannot use original image directly*/
 348:Drivers/lvgl/src/libs/bin_decoder/lv_bin_decoder.c ****         free_decoder_data(dsc);
 349:Drivers/lvgl/src/libs/bin_decoder/lv_bin_decoder.c ****         decoder_data_t * decoder_data = get_decoder_data(dsc);
 350:Drivers/lvgl/src/libs/bin_decoder/lv_bin_decoder.c ****         decoder_data->decoded = adjusted; /*Now this new buffer need to be free'd on decoder close*
 351:Drivers/lvgl/src/libs/bin_decoder/lv_bin_decoder.c ****     }
 352:Drivers/lvgl/src/libs/bin_decoder/lv_bin_decoder.c ****     dsc->decoded = adjusted;
 353:Drivers/lvgl/src/libs/bin_decoder/lv_bin_decoder.c **** 
 354:Drivers/lvgl/src/libs/bin_decoder/lv_bin_decoder.c ****     /* Copy user flags to the decoded image */
 355:Drivers/lvgl/src/libs/bin_decoder/lv_bin_decoder.c ****     if(dsc->header.flags & LV_IMAGE_FLAGS_USER_MASK) {
 356:Drivers/lvgl/src/libs/bin_decoder/lv_bin_decoder.c ****         lv_draw_buf_set_flag((lv_draw_buf_t *)dsc->decoded, dsc->header.flags & LV_IMAGE_FLAGS_USER
 357:Drivers/lvgl/src/libs/bin_decoder/lv_bin_decoder.c ****     }
 358:Drivers/lvgl/src/libs/bin_decoder/lv_bin_decoder.c **** 
 359:Drivers/lvgl/src/libs/bin_decoder/lv_bin_decoder.c ****     /*Do not put image to cache if it can be used directly.*/
 360:Drivers/lvgl/src/libs/bin_decoder/lv_bin_decoder.c ****     if(use_directly || dsc->args.no_cache) {
 361:Drivers/lvgl/src/libs/bin_decoder/lv_bin_decoder.c ****         if(dsc->args.flush_cache && use_directly) {
 362:Drivers/lvgl/src/libs/bin_decoder/lv_bin_decoder.c ****             dsc->args.flush_cache = false;
 363:Drivers/lvgl/src/libs/bin_decoder/lv_bin_decoder.c ****         }
 364:Drivers/lvgl/src/libs/bin_decoder/lv_bin_decoder.c ****         return LV_RESULT_OK;
 365:Drivers/lvgl/src/libs/bin_decoder/lv_bin_decoder.c ****     }
 366:Drivers/lvgl/src/libs/bin_decoder/lv_bin_decoder.c **** 
 367:Drivers/lvgl/src/libs/bin_decoder/lv_bin_decoder.c ****     /*If the image cache is disabled, just return the decoded image*/
 368:Drivers/lvgl/src/libs/bin_decoder/lv_bin_decoder.c ****     if(!lv_image_cache_is_enabled()) return LV_RESULT_OK;
 369:Drivers/lvgl/src/libs/bin_decoder/lv_bin_decoder.c **** 
 370:Drivers/lvgl/src/libs/bin_decoder/lv_bin_decoder.c ****     /*Add it to cache*/
 371:Drivers/lvgl/src/libs/bin_decoder/lv_bin_decoder.c ****     lv_image_cache_data_t search_key;
 372:Drivers/lvgl/src/libs/bin_decoder/lv_bin_decoder.c ****     search_key.src_type = dsc->src_type;
ARM GAS  /var/folders/qx/2_175_4n2s19vhvtspjhb3qh0000gn/T//ccPNYKNl.s 			page 8


 373:Drivers/lvgl/src/libs/bin_decoder/lv_bin_decoder.c ****     search_key.src = dsc->src;
 374:Drivers/lvgl/src/libs/bin_decoder/lv_bin_decoder.c ****     search_key.slot.size = dsc->decoded->data_size;
 375:Drivers/lvgl/src/libs/bin_decoder/lv_bin_decoder.c **** 
 376:Drivers/lvgl/src/libs/bin_decoder/lv_bin_decoder.c ****     lv_cache_entry_t * cache_entry = lv_image_decoder_add_to_cache(decoder, &search_key, dsc->decod
 377:Drivers/lvgl/src/libs/bin_decoder/lv_bin_decoder.c ****     if(cache_entry == NULL) {
 378:Drivers/lvgl/src/libs/bin_decoder/lv_bin_decoder.c ****         free_decoder_data(dsc);
 379:Drivers/lvgl/src/libs/bin_decoder/lv_bin_decoder.c ****         return LV_RESULT_INVALID;
 380:Drivers/lvgl/src/libs/bin_decoder/lv_bin_decoder.c ****     }
 381:Drivers/lvgl/src/libs/bin_decoder/lv_bin_decoder.c ****     dsc->cache_entry = cache_entry;
 382:Drivers/lvgl/src/libs/bin_decoder/lv_bin_decoder.c ****     decoder_data_t * decoder_data = get_decoder_data(dsc);
 383:Drivers/lvgl/src/libs/bin_decoder/lv_bin_decoder.c ****     decoder_data->decoded = NULL; /*Cache will take care of it*/
 384:Drivers/lvgl/src/libs/bin_decoder/lv_bin_decoder.c **** 
 385:Drivers/lvgl/src/libs/bin_decoder/lv_bin_decoder.c ****     return LV_RESULT_OK;
 386:Drivers/lvgl/src/libs/bin_decoder/lv_bin_decoder.c **** }
 387:Drivers/lvgl/src/libs/bin_decoder/lv_bin_decoder.c **** 
 388:Drivers/lvgl/src/libs/bin_decoder/lv_bin_decoder.c **** void lv_bin_decoder_close(lv_image_decoder_t * decoder, lv_image_decoder_dsc_t * dsc)
 389:Drivers/lvgl/src/libs/bin_decoder/lv_bin_decoder.c **** {
 390:Drivers/lvgl/src/libs/bin_decoder/lv_bin_decoder.c ****     LV_UNUSED(decoder); /*Unused*/
 391:Drivers/lvgl/src/libs/bin_decoder/lv_bin_decoder.c **** 
 392:Drivers/lvgl/src/libs/bin_decoder/lv_bin_decoder.c ****     decoder_data_t * decoder_data = dsc->user_data;
 393:Drivers/lvgl/src/libs/bin_decoder/lv_bin_decoder.c ****     if(decoder_data && decoder_data->decoded_partial) {
 394:Drivers/lvgl/src/libs/bin_decoder/lv_bin_decoder.c ****         lv_draw_buf_destroy(decoder_data->decoded_partial);
 395:Drivers/lvgl/src/libs/bin_decoder/lv_bin_decoder.c ****         decoder_data->decoded_partial = NULL;
 396:Drivers/lvgl/src/libs/bin_decoder/lv_bin_decoder.c ****     }
 397:Drivers/lvgl/src/libs/bin_decoder/lv_bin_decoder.c **** 
 398:Drivers/lvgl/src/libs/bin_decoder/lv_bin_decoder.c ****     free_decoder_data(dsc);
 399:Drivers/lvgl/src/libs/bin_decoder/lv_bin_decoder.c **** }
 400:Drivers/lvgl/src/libs/bin_decoder/lv_bin_decoder.c **** 
 401:Drivers/lvgl/src/libs/bin_decoder/lv_bin_decoder.c **** lv_result_t lv_bin_decoder_get_area(lv_image_decoder_t * decoder, lv_image_decoder_dsc_t * dsc,
 402:Drivers/lvgl/src/libs/bin_decoder/lv_bin_decoder.c ****                                     const lv_area_t * full_area, lv_area_t * decoded_area)
 403:Drivers/lvgl/src/libs/bin_decoder/lv_bin_decoder.c **** {
 404:Drivers/lvgl/src/libs/bin_decoder/lv_bin_decoder.c ****     LV_UNUSED(decoder); /*Unused*/
 405:Drivers/lvgl/src/libs/bin_decoder/lv_bin_decoder.c **** 
 406:Drivers/lvgl/src/libs/bin_decoder/lv_bin_decoder.c ****     lv_color_format_t cf = dsc->header.cf;
 407:Drivers/lvgl/src/libs/bin_decoder/lv_bin_decoder.c ****     /*Check if cf is supported*/
 408:Drivers/lvgl/src/libs/bin_decoder/lv_bin_decoder.c **** 
 409:Drivers/lvgl/src/libs/bin_decoder/lv_bin_decoder.c ****     bool supported = LV_COLOR_FORMAT_IS_INDEXED(cf)
 410:Drivers/lvgl/src/libs/bin_decoder/lv_bin_decoder.c ****                      || cf == LV_COLOR_FORMAT_ARGB8888  \
 411:Drivers/lvgl/src/libs/bin_decoder/lv_bin_decoder.c ****                      || cf == LV_COLOR_FORMAT_XRGB8888  \
 412:Drivers/lvgl/src/libs/bin_decoder/lv_bin_decoder.c ****                      || cf == LV_COLOR_FORMAT_RGB888    \
 413:Drivers/lvgl/src/libs/bin_decoder/lv_bin_decoder.c ****                      || cf == LV_COLOR_FORMAT_RGB565    \
 414:Drivers/lvgl/src/libs/bin_decoder/lv_bin_decoder.c ****                      || cf == LV_COLOR_FORMAT_RGB565_SWAPPED    \
 415:Drivers/lvgl/src/libs/bin_decoder/lv_bin_decoder.c ****                      || cf == LV_COLOR_FORMAT_ARGB8565  \
 416:Drivers/lvgl/src/libs/bin_decoder/lv_bin_decoder.c ****                      || cf == LV_COLOR_FORMAT_RGB565A8;
 417:Drivers/lvgl/src/libs/bin_decoder/lv_bin_decoder.c ****     if(!supported) {
 418:Drivers/lvgl/src/libs/bin_decoder/lv_bin_decoder.c ****         LV_LOG_WARN("CF: %d is not supported", cf);
 419:Drivers/lvgl/src/libs/bin_decoder/lv_bin_decoder.c ****         return LV_RESULT_INVALID;
 420:Drivers/lvgl/src/libs/bin_decoder/lv_bin_decoder.c ****     }
 421:Drivers/lvgl/src/libs/bin_decoder/lv_bin_decoder.c **** 
 422:Drivers/lvgl/src/libs/bin_decoder/lv_bin_decoder.c ****     lv_fs_res_t res = LV_FS_RES_UNKNOWN;
 423:Drivers/lvgl/src/libs/bin_decoder/lv_bin_decoder.c ****     decoder_data_t * decoder_data = dsc->user_data;
 424:Drivers/lvgl/src/libs/bin_decoder/lv_bin_decoder.c ****     if(decoder_data == NULL) {
 425:Drivers/lvgl/src/libs/bin_decoder/lv_bin_decoder.c ****         LV_LOG_ERROR("Unexpected null decoder data");
 426:Drivers/lvgl/src/libs/bin_decoder/lv_bin_decoder.c ****         return LV_RESULT_INVALID;
 427:Drivers/lvgl/src/libs/bin_decoder/lv_bin_decoder.c ****     }
 428:Drivers/lvgl/src/libs/bin_decoder/lv_bin_decoder.c **** 
 429:Drivers/lvgl/src/libs/bin_decoder/lv_bin_decoder.c ****     lv_fs_file_t * f = decoder_data->f;
ARM GAS  /var/folders/qx/2_175_4n2s19vhvtspjhb3qh0000gn/T//ccPNYKNl.s 			page 9


 430:Drivers/lvgl/src/libs/bin_decoder/lv_bin_decoder.c ****     uint32_t bpp = lv_color_format_get_bpp(cf);
 431:Drivers/lvgl/src/libs/bin_decoder/lv_bin_decoder.c ****     int32_t w_px = lv_area_get_width(full_area);
 432:Drivers/lvgl/src/libs/bin_decoder/lv_bin_decoder.c ****     uint8_t * img_data = NULL;
 433:Drivers/lvgl/src/libs/bin_decoder/lv_bin_decoder.c ****     lv_draw_buf_t * decoded = NULL;
 434:Drivers/lvgl/src/libs/bin_decoder/lv_bin_decoder.c ****     uint32_t offset = dsc->src_type == LV_IMAGE_SRC_FILE ? sizeof(lv_image_header_t) : 0;   /*Skip 
 435:Drivers/lvgl/src/libs/bin_decoder/lv_bin_decoder.c **** 
 436:Drivers/lvgl/src/libs/bin_decoder/lv_bin_decoder.c ****     /*We only support read line by line for now*/
 437:Drivers/lvgl/src/libs/bin_decoder/lv_bin_decoder.c ****     if(decoded_area->y1 == LV_COORD_MIN) {
 438:Drivers/lvgl/src/libs/bin_decoder/lv_bin_decoder.c ****         /*Indexed image is converted to ARGB888*/
 439:Drivers/lvgl/src/libs/bin_decoder/lv_bin_decoder.c ****         lv_color_format_t cf_decoded = LV_COLOR_FORMAT_IS_INDEXED(cf) ? LV_COLOR_FORMAT_ARGB8888 : 
 440:Drivers/lvgl/src/libs/bin_decoder/lv_bin_decoder.c **** 
 441:Drivers/lvgl/src/libs/bin_decoder/lv_bin_decoder.c ****         decoded = lv_draw_buf_reshape(decoder_data->decoded_partial, cf_decoded, w_px, 1, LV_STRIDE
 442:Drivers/lvgl/src/libs/bin_decoder/lv_bin_decoder.c ****         if(decoded == NULL) {
 443:Drivers/lvgl/src/libs/bin_decoder/lv_bin_decoder.c ****             if(decoder_data->decoded_partial != NULL) {
 444:Drivers/lvgl/src/libs/bin_decoder/lv_bin_decoder.c ****                 lv_draw_buf_destroy(decoder_data->decoded_partial);
 445:Drivers/lvgl/src/libs/bin_decoder/lv_bin_decoder.c ****                 decoder_data->decoded_partial = NULL;
 446:Drivers/lvgl/src/libs/bin_decoder/lv_bin_decoder.c ****             }
 447:Drivers/lvgl/src/libs/bin_decoder/lv_bin_decoder.c ****             decoded = lv_draw_buf_create_ex(image_cache_draw_buf_handlers, w_px, 1, cf_decoded, LV_
 448:Drivers/lvgl/src/libs/bin_decoder/lv_bin_decoder.c ****             if(decoded == NULL) return LV_RESULT_INVALID;
 449:Drivers/lvgl/src/libs/bin_decoder/lv_bin_decoder.c ****             decoder_data->decoded_partial = decoded; /*Free on decoder close*/
 450:Drivers/lvgl/src/libs/bin_decoder/lv_bin_decoder.c ****         }
 451:Drivers/lvgl/src/libs/bin_decoder/lv_bin_decoder.c ****         *decoded_area = *full_area;
 452:Drivers/lvgl/src/libs/bin_decoder/lv_bin_decoder.c ****         decoded_area->y2 = decoded_area->y1;
 453:Drivers/lvgl/src/libs/bin_decoder/lv_bin_decoder.c ****     }
 454:Drivers/lvgl/src/libs/bin_decoder/lv_bin_decoder.c ****     else {
 455:Drivers/lvgl/src/libs/bin_decoder/lv_bin_decoder.c ****         decoded_area->y1++;
 456:Drivers/lvgl/src/libs/bin_decoder/lv_bin_decoder.c ****         decoded_area->y2++;
 457:Drivers/lvgl/src/libs/bin_decoder/lv_bin_decoder.c ****         decoded = decoder_data->decoded_partial; /*Already allocated*/
 458:Drivers/lvgl/src/libs/bin_decoder/lv_bin_decoder.c ****     }
 459:Drivers/lvgl/src/libs/bin_decoder/lv_bin_decoder.c **** 
 460:Drivers/lvgl/src/libs/bin_decoder/lv_bin_decoder.c ****     img_data = decoded->data; /*Get the buffer to operate on*/
 461:Drivers/lvgl/src/libs/bin_decoder/lv_bin_decoder.c **** 
 462:Drivers/lvgl/src/libs/bin_decoder/lv_bin_decoder.c ****     if(decoded_area->y1 > full_area->y2) {
 463:Drivers/lvgl/src/libs/bin_decoder/lv_bin_decoder.c ****         return LV_RESULT_INVALID;
 464:Drivers/lvgl/src/libs/bin_decoder/lv_bin_decoder.c ****     }
 465:Drivers/lvgl/src/libs/bin_decoder/lv_bin_decoder.c **** 
 466:Drivers/lvgl/src/libs/bin_decoder/lv_bin_decoder.c ****     if(LV_COLOR_FORMAT_IS_INDEXED(cf)) {
 467:Drivers/lvgl/src/libs/bin_decoder/lv_bin_decoder.c ****         int32_t x_fraction = decoded_area->x1 % (8 / bpp);
 468:Drivers/lvgl/src/libs/bin_decoder/lv_bin_decoder.c ****         uint32_t len = (w_px * bpp + 7) / 8 + 1; /*10px for 1bpp may across 3bytes*/
 469:Drivers/lvgl/src/libs/bin_decoder/lv_bin_decoder.c ****         uint8_t * buf = NULL;
 470:Drivers/lvgl/src/libs/bin_decoder/lv_bin_decoder.c **** 
 471:Drivers/lvgl/src/libs/bin_decoder/lv_bin_decoder.c ****         offset += dsc->palette_size * 4; /*Skip palette*/
 472:Drivers/lvgl/src/libs/bin_decoder/lv_bin_decoder.c ****         offset += decoded_area->y1 * dsc->header.stride;
 473:Drivers/lvgl/src/libs/bin_decoder/lv_bin_decoder.c ****         offset += decoded_area->x1 * bpp / 8; /*Move to x1*/
 474:Drivers/lvgl/src/libs/bin_decoder/lv_bin_decoder.c ****         if(dsc->src_type == LV_IMAGE_SRC_FILE) {
 475:Drivers/lvgl/src/libs/bin_decoder/lv_bin_decoder.c ****             buf = lv_malloc(len);
 476:Drivers/lvgl/src/libs/bin_decoder/lv_bin_decoder.c ****             LV_ASSERT_NULL(buf);
 477:Drivers/lvgl/src/libs/bin_decoder/lv_bin_decoder.c ****             if(buf == NULL)
 478:Drivers/lvgl/src/libs/bin_decoder/lv_bin_decoder.c ****                 return LV_RESULT_INVALID;
 479:Drivers/lvgl/src/libs/bin_decoder/lv_bin_decoder.c **** 
 480:Drivers/lvgl/src/libs/bin_decoder/lv_bin_decoder.c ****             res = fs_read_file_at(f, offset, buf, len, NULL);
 481:Drivers/lvgl/src/libs/bin_decoder/lv_bin_decoder.c ****             if(res != LV_FS_RES_OK) {
 482:Drivers/lvgl/src/libs/bin_decoder/lv_bin_decoder.c ****                 lv_free(buf);
 483:Drivers/lvgl/src/libs/bin_decoder/lv_bin_decoder.c ****                 return LV_RESULT_INVALID;
 484:Drivers/lvgl/src/libs/bin_decoder/lv_bin_decoder.c ****             }
 485:Drivers/lvgl/src/libs/bin_decoder/lv_bin_decoder.c ****         }
 486:Drivers/lvgl/src/libs/bin_decoder/lv_bin_decoder.c ****         else {
ARM GAS  /var/folders/qx/2_175_4n2s19vhvtspjhb3qh0000gn/T//ccPNYKNl.s 			page 10


 487:Drivers/lvgl/src/libs/bin_decoder/lv_bin_decoder.c ****             const lv_image_dsc_t * image = dsc->src;
 488:Drivers/lvgl/src/libs/bin_decoder/lv_bin_decoder.c ****             buf = (void *)(image->data + offset);
 489:Drivers/lvgl/src/libs/bin_decoder/lv_bin_decoder.c ****         }
 490:Drivers/lvgl/src/libs/bin_decoder/lv_bin_decoder.c **** 
 491:Drivers/lvgl/src/libs/bin_decoder/lv_bin_decoder.c ****         decode_indexed_line(cf, dsc->palette, x_fraction, w_px, buf, (lv_color32_t *)img_data);
 492:Drivers/lvgl/src/libs/bin_decoder/lv_bin_decoder.c **** 
 493:Drivers/lvgl/src/libs/bin_decoder/lv_bin_decoder.c ****         if(dsc->src_type == LV_IMAGE_SRC_FILE) lv_free((void *)buf);
 494:Drivers/lvgl/src/libs/bin_decoder/lv_bin_decoder.c **** 
 495:Drivers/lvgl/src/libs/bin_decoder/lv_bin_decoder.c ****         dsc->decoded = decoded; /*Return decoded image*/
 496:Drivers/lvgl/src/libs/bin_decoder/lv_bin_decoder.c ****         return LV_RESULT_OK;
 497:Drivers/lvgl/src/libs/bin_decoder/lv_bin_decoder.c ****     }
 498:Drivers/lvgl/src/libs/bin_decoder/lv_bin_decoder.c **** 
 499:Drivers/lvgl/src/libs/bin_decoder/lv_bin_decoder.c ****     if(cf == LV_COLOR_FORMAT_ARGB8888 || cf == LV_COLOR_FORMAT_XRGB8888 || cf == LV_COLOR_FORMAT_RG
 500:Drivers/lvgl/src/libs/bin_decoder/lv_bin_decoder.c ****        || cf == LV_COLOR_FORMAT_RGB565 || cf == LV_COLOR_FORMAT_RGB565_SWAPPED || cf == LV_COLOR_FO
 501:Drivers/lvgl/src/libs/bin_decoder/lv_bin_decoder.c ****         uint32_t len = (w_px * bpp) / 8;
 502:Drivers/lvgl/src/libs/bin_decoder/lv_bin_decoder.c ****         offset += decoded_area->y1 * dsc->header.stride;
 503:Drivers/lvgl/src/libs/bin_decoder/lv_bin_decoder.c ****         offset += decoded_area->x1 * bpp / 8; /*Move to x1*/
 504:Drivers/lvgl/src/libs/bin_decoder/lv_bin_decoder.c ****         res = fs_read_file_at(f, offset, img_data, len, NULL);
 505:Drivers/lvgl/src/libs/bin_decoder/lv_bin_decoder.c ****         if(res != LV_FS_RES_OK) {
 506:Drivers/lvgl/src/libs/bin_decoder/lv_bin_decoder.c ****             return LV_RESULT_INVALID;
 507:Drivers/lvgl/src/libs/bin_decoder/lv_bin_decoder.c ****         }
 508:Drivers/lvgl/src/libs/bin_decoder/lv_bin_decoder.c **** 
 509:Drivers/lvgl/src/libs/bin_decoder/lv_bin_decoder.c ****         dsc->decoded = decoded; /*Return decoded image*/
 510:Drivers/lvgl/src/libs/bin_decoder/lv_bin_decoder.c ****         return LV_RESULT_OK;
 511:Drivers/lvgl/src/libs/bin_decoder/lv_bin_decoder.c ****     }
 512:Drivers/lvgl/src/libs/bin_decoder/lv_bin_decoder.c **** 
 513:Drivers/lvgl/src/libs/bin_decoder/lv_bin_decoder.c ****     if(cf == LV_COLOR_FORMAT_RGB565A8) {
 514:Drivers/lvgl/src/libs/bin_decoder/lv_bin_decoder.c ****         bpp = 16; /* RGB565 + A8 mask*/
 515:Drivers/lvgl/src/libs/bin_decoder/lv_bin_decoder.c ****         uint32_t len = decoded->header.stride;
 516:Drivers/lvgl/src/libs/bin_decoder/lv_bin_decoder.c ****         offset += decoded_area->y1 * dsc->header.stride; /*Move to y1*/
 517:Drivers/lvgl/src/libs/bin_decoder/lv_bin_decoder.c ****         offset += decoded_area->x1 * bpp / 8; /*Move to x1*/
 518:Drivers/lvgl/src/libs/bin_decoder/lv_bin_decoder.c ****         res = fs_read_file_at(f, offset, img_data, len, NULL);
 519:Drivers/lvgl/src/libs/bin_decoder/lv_bin_decoder.c ****         if(res != LV_FS_RES_OK) {
 520:Drivers/lvgl/src/libs/bin_decoder/lv_bin_decoder.c ****             return LV_RESULT_INVALID;
 521:Drivers/lvgl/src/libs/bin_decoder/lv_bin_decoder.c ****         }
 522:Drivers/lvgl/src/libs/bin_decoder/lv_bin_decoder.c **** 
 523:Drivers/lvgl/src/libs/bin_decoder/lv_bin_decoder.c ****         /*Now the A8 mask*/
 524:Drivers/lvgl/src/libs/bin_decoder/lv_bin_decoder.c ****         offset = sizeof(lv_image_header_t);
 525:Drivers/lvgl/src/libs/bin_decoder/lv_bin_decoder.c ****         offset += dsc->header.h * dsc->header.stride; /*Move to A8 map*/
 526:Drivers/lvgl/src/libs/bin_decoder/lv_bin_decoder.c ****         offset += decoded_area->y1 * (dsc->header.stride / 2); /*Move to y1*/
 527:Drivers/lvgl/src/libs/bin_decoder/lv_bin_decoder.c ****         offset += decoded_area->x1 * 1; /*Move to x1*/
 528:Drivers/lvgl/src/libs/bin_decoder/lv_bin_decoder.c ****         res = fs_read_file_at(f, offset, img_data + len, w_px * 1, NULL);
 529:Drivers/lvgl/src/libs/bin_decoder/lv_bin_decoder.c ****         if(res != LV_FS_RES_OK) {
 530:Drivers/lvgl/src/libs/bin_decoder/lv_bin_decoder.c ****             return LV_RESULT_INVALID;
 531:Drivers/lvgl/src/libs/bin_decoder/lv_bin_decoder.c ****         }
 532:Drivers/lvgl/src/libs/bin_decoder/lv_bin_decoder.c **** 
 533:Drivers/lvgl/src/libs/bin_decoder/lv_bin_decoder.c ****         dsc->decoded = decoded; /*Return decoded image*/
 534:Drivers/lvgl/src/libs/bin_decoder/lv_bin_decoder.c ****         return LV_RESULT_OK;
 535:Drivers/lvgl/src/libs/bin_decoder/lv_bin_decoder.c ****     }
 536:Drivers/lvgl/src/libs/bin_decoder/lv_bin_decoder.c **** 
 537:Drivers/lvgl/src/libs/bin_decoder/lv_bin_decoder.c ****     return LV_RESULT_INVALID;
 538:Drivers/lvgl/src/libs/bin_decoder/lv_bin_decoder.c **** }
 539:Drivers/lvgl/src/libs/bin_decoder/lv_bin_decoder.c **** 
 540:Drivers/lvgl/src/libs/bin_decoder/lv_bin_decoder.c **** /**********************
 541:Drivers/lvgl/src/libs/bin_decoder/lv_bin_decoder.c ****  *   STATIC FUNCTIONS
 542:Drivers/lvgl/src/libs/bin_decoder/lv_bin_decoder.c ****  **********************/
 543:Drivers/lvgl/src/libs/bin_decoder/lv_bin_decoder.c **** 
ARM GAS  /var/folders/qx/2_175_4n2s19vhvtspjhb3qh0000gn/T//ccPNYKNl.s 			page 11


 544:Drivers/lvgl/src/libs/bin_decoder/lv_bin_decoder.c **** static decoder_data_t * get_decoder_data(lv_image_decoder_dsc_t * dsc)
 545:Drivers/lvgl/src/libs/bin_decoder/lv_bin_decoder.c **** {
 546:Drivers/lvgl/src/libs/bin_decoder/lv_bin_decoder.c ****     decoder_data_t * data = dsc->user_data;
 547:Drivers/lvgl/src/libs/bin_decoder/lv_bin_decoder.c ****     if(data == NULL) {
 548:Drivers/lvgl/src/libs/bin_decoder/lv_bin_decoder.c ****         data = lv_malloc_zeroed(sizeof(decoder_data_t));
 549:Drivers/lvgl/src/libs/bin_decoder/lv_bin_decoder.c ****         LV_ASSERT_MALLOC(data);
 550:Drivers/lvgl/src/libs/bin_decoder/lv_bin_decoder.c ****         if(data == NULL) {
 551:Drivers/lvgl/src/libs/bin_decoder/lv_bin_decoder.c ****             LV_LOG_ERROR("Out of memory");
 552:Drivers/lvgl/src/libs/bin_decoder/lv_bin_decoder.c ****             return NULL;
 553:Drivers/lvgl/src/libs/bin_decoder/lv_bin_decoder.c ****         }
 554:Drivers/lvgl/src/libs/bin_decoder/lv_bin_decoder.c **** 
 555:Drivers/lvgl/src/libs/bin_decoder/lv_bin_decoder.c ****         dsc->user_data = data;
 556:Drivers/lvgl/src/libs/bin_decoder/lv_bin_decoder.c ****     }
 557:Drivers/lvgl/src/libs/bin_decoder/lv_bin_decoder.c **** 
 558:Drivers/lvgl/src/libs/bin_decoder/lv_bin_decoder.c ****     return data;
 559:Drivers/lvgl/src/libs/bin_decoder/lv_bin_decoder.c **** }
 560:Drivers/lvgl/src/libs/bin_decoder/lv_bin_decoder.c **** 
 561:Drivers/lvgl/src/libs/bin_decoder/lv_bin_decoder.c **** static void free_decoder_data(lv_image_decoder_dsc_t * dsc)
 562:Drivers/lvgl/src/libs/bin_decoder/lv_bin_decoder.c **** {
 563:Drivers/lvgl/src/libs/bin_decoder/lv_bin_decoder.c ****     decoder_data_t * decoder_data = dsc->user_data;
 564:Drivers/lvgl/src/libs/bin_decoder/lv_bin_decoder.c ****     if(decoder_data == NULL) return;
 565:Drivers/lvgl/src/libs/bin_decoder/lv_bin_decoder.c **** 
 566:Drivers/lvgl/src/libs/bin_decoder/lv_bin_decoder.c ****     if(decoder_data->f) {
 567:Drivers/lvgl/src/libs/bin_decoder/lv_bin_decoder.c ****         lv_fs_close(decoder_data->f);
 568:Drivers/lvgl/src/libs/bin_decoder/lv_bin_decoder.c ****         lv_free(decoder_data->f);
 569:Drivers/lvgl/src/libs/bin_decoder/lv_bin_decoder.c ****     }
 570:Drivers/lvgl/src/libs/bin_decoder/lv_bin_decoder.c **** 
 571:Drivers/lvgl/src/libs/bin_decoder/lv_bin_decoder.c ****     if(decoder_data->decoded) lv_draw_buf_destroy(decoder_data->decoded);
 572:Drivers/lvgl/src/libs/bin_decoder/lv_bin_decoder.c ****     if(decoder_data->decompressed) lv_draw_buf_destroy(decoder_data->decompressed);
 573:Drivers/lvgl/src/libs/bin_decoder/lv_bin_decoder.c ****     lv_free(decoder_data->palette);
 574:Drivers/lvgl/src/libs/bin_decoder/lv_bin_decoder.c ****     lv_free(decoder_data);
 575:Drivers/lvgl/src/libs/bin_decoder/lv_bin_decoder.c ****     dsc->user_data = NULL;
 576:Drivers/lvgl/src/libs/bin_decoder/lv_bin_decoder.c **** }
 577:Drivers/lvgl/src/libs/bin_decoder/lv_bin_decoder.c **** 
 578:Drivers/lvgl/src/libs/bin_decoder/lv_bin_decoder.c **** static lv_result_t decode_indexed(lv_image_decoder_t * decoder, lv_image_decoder_dsc_t * dsc)
 579:Drivers/lvgl/src/libs/bin_decoder/lv_bin_decoder.c **** {
 580:Drivers/lvgl/src/libs/bin_decoder/lv_bin_decoder.c ****     LV_UNUSED(decoder); /*Unused*/
 581:Drivers/lvgl/src/libs/bin_decoder/lv_bin_decoder.c ****     lv_fs_res_t res;
 582:Drivers/lvgl/src/libs/bin_decoder/lv_bin_decoder.c ****     uint32_t rn;
 583:Drivers/lvgl/src/libs/bin_decoder/lv_bin_decoder.c ****     decoder_data_t * decoder_data = dsc->user_data;
 584:Drivers/lvgl/src/libs/bin_decoder/lv_bin_decoder.c ****     lv_fs_file_t * f = decoder_data->f;
 585:Drivers/lvgl/src/libs/bin_decoder/lv_bin_decoder.c ****     lv_color_format_t cf = dsc->header.cf;
 586:Drivers/lvgl/src/libs/bin_decoder/lv_bin_decoder.c ****     uint32_t palette_len = sizeof(lv_color32_t) * LV_COLOR_INDEXED_PALETTE_SIZE(cf);
 587:Drivers/lvgl/src/libs/bin_decoder/lv_bin_decoder.c ****     const lv_color32_t * palette;
 588:Drivers/lvgl/src/libs/bin_decoder/lv_bin_decoder.c ****     const uint8_t * indexed_data = NULL;
 589:Drivers/lvgl/src/libs/bin_decoder/lv_bin_decoder.c ****     lv_draw_buf_t * draw_buf_indexed = NULL;
 590:Drivers/lvgl/src/libs/bin_decoder/lv_bin_decoder.c ****     uint32_t stride = dsc->header.stride;
 591:Drivers/lvgl/src/libs/bin_decoder/lv_bin_decoder.c **** 
 592:Drivers/lvgl/src/libs/bin_decoder/lv_bin_decoder.c ****     bool is_compressed = dsc->header.flags & LV_IMAGE_FLAGS_COMPRESSED;
 593:Drivers/lvgl/src/libs/bin_decoder/lv_bin_decoder.c ****     if(is_compressed) {
 594:Drivers/lvgl/src/libs/bin_decoder/lv_bin_decoder.c ****         uint8_t * data = decoder_data->decompressed->data;
 595:Drivers/lvgl/src/libs/bin_decoder/lv_bin_decoder.c ****         palette = (lv_color32_t *)data;
 596:Drivers/lvgl/src/libs/bin_decoder/lv_bin_decoder.c ****         indexed_data = data + palette_len;
 597:Drivers/lvgl/src/libs/bin_decoder/lv_bin_decoder.c ****     }
 598:Drivers/lvgl/src/libs/bin_decoder/lv_bin_decoder.c ****     else if(dsc->src_type == LV_IMAGE_SRC_FILE) {
 599:Drivers/lvgl/src/libs/bin_decoder/lv_bin_decoder.c ****         /*read palette for indexed image*/
 600:Drivers/lvgl/src/libs/bin_decoder/lv_bin_decoder.c ****         palette = lv_malloc(palette_len);
ARM GAS  /var/folders/qx/2_175_4n2s19vhvtspjhb3qh0000gn/T//ccPNYKNl.s 			page 12


 601:Drivers/lvgl/src/libs/bin_decoder/lv_bin_decoder.c ****         LV_ASSERT_MALLOC(palette);
 602:Drivers/lvgl/src/libs/bin_decoder/lv_bin_decoder.c ****         if(palette == NULL) {
 603:Drivers/lvgl/src/libs/bin_decoder/lv_bin_decoder.c ****             LV_LOG_ERROR("Out of memory");
 604:Drivers/lvgl/src/libs/bin_decoder/lv_bin_decoder.c ****             return LV_RESULT_INVALID;
 605:Drivers/lvgl/src/libs/bin_decoder/lv_bin_decoder.c ****         }
 606:Drivers/lvgl/src/libs/bin_decoder/lv_bin_decoder.c **** 
 607:Drivers/lvgl/src/libs/bin_decoder/lv_bin_decoder.c ****         res = fs_read_file_at(f, sizeof(lv_image_header_t), (uint8_t *)palette, palette_len, &rn);
 608:Drivers/lvgl/src/libs/bin_decoder/lv_bin_decoder.c ****         if(res != LV_FS_RES_OK || rn != palette_len) {
 609:Drivers/lvgl/src/libs/bin_decoder/lv_bin_decoder.c ****             LV_LOG_WARN("Read palette failed: %d, with len: %" LV_PRIu32 ", expected: %" LV_PRIu32,
 610:Drivers/lvgl/src/libs/bin_decoder/lv_bin_decoder.c ****             lv_free((void *)palette);
 611:Drivers/lvgl/src/libs/bin_decoder/lv_bin_decoder.c ****             return LV_RESULT_INVALID;
 612:Drivers/lvgl/src/libs/bin_decoder/lv_bin_decoder.c ****         }
 613:Drivers/lvgl/src/libs/bin_decoder/lv_bin_decoder.c **** 
 614:Drivers/lvgl/src/libs/bin_decoder/lv_bin_decoder.c ****         decoder_data->palette = (void *)palette; /*Need to free when decoder closes*/
 615:Drivers/lvgl/src/libs/bin_decoder/lv_bin_decoder.c **** 
 616:Drivers/lvgl/src/libs/bin_decoder/lv_bin_decoder.c **** #if LV_BIN_DECODER_RAM_LOAD
 617:Drivers/lvgl/src/libs/bin_decoder/lv_bin_decoder.c ****         draw_buf_indexed = lv_draw_buf_create_ex(image_cache_draw_buf_handlers, dsc->header.w, dsc-
 618:Drivers/lvgl/src/libs/bin_decoder/lv_bin_decoder.c ****                                                  dsc->header.stride);
 619:Drivers/lvgl/src/libs/bin_decoder/lv_bin_decoder.c ****         if(draw_buf_indexed == NULL) {
 620:Drivers/lvgl/src/libs/bin_decoder/lv_bin_decoder.c ****             LV_LOG_ERROR("Draw buffer alloc failed");
 621:Drivers/lvgl/src/libs/bin_decoder/lv_bin_decoder.c ****             goto exit_with_buf;
 622:Drivers/lvgl/src/libs/bin_decoder/lv_bin_decoder.c ****         }
 623:Drivers/lvgl/src/libs/bin_decoder/lv_bin_decoder.c **** 
 624:Drivers/lvgl/src/libs/bin_decoder/lv_bin_decoder.c ****         indexed_data = draw_buf_indexed->data;
 625:Drivers/lvgl/src/libs/bin_decoder/lv_bin_decoder.c **** 
 626:Drivers/lvgl/src/libs/bin_decoder/lv_bin_decoder.c ****         uint32_t data_len = 0;
 627:Drivers/lvgl/src/libs/bin_decoder/lv_bin_decoder.c ****         if(lv_fs_seek(f, 0, LV_FS_SEEK_END) != LV_FS_RES_OK ||
 628:Drivers/lvgl/src/libs/bin_decoder/lv_bin_decoder.c ****            lv_fs_tell(f, &data_len) != LV_FS_RES_OK) {
 629:Drivers/lvgl/src/libs/bin_decoder/lv_bin_decoder.c ****             LV_LOG_WARN("Failed to get file to size");
 630:Drivers/lvgl/src/libs/bin_decoder/lv_bin_decoder.c ****             goto exit_with_buf;
 631:Drivers/lvgl/src/libs/bin_decoder/lv_bin_decoder.c ****         }
 632:Drivers/lvgl/src/libs/bin_decoder/lv_bin_decoder.c **** 
 633:Drivers/lvgl/src/libs/bin_decoder/lv_bin_decoder.c ****         uint32_t data_offset = sizeof(lv_image_header_t) + palette_len;
 634:Drivers/lvgl/src/libs/bin_decoder/lv_bin_decoder.c ****         data_len -= data_offset;
 635:Drivers/lvgl/src/libs/bin_decoder/lv_bin_decoder.c ****         res = fs_read_file_at(f, data_offset, (uint8_t *)indexed_data, data_len, &rn);
 636:Drivers/lvgl/src/libs/bin_decoder/lv_bin_decoder.c ****         if(res != LV_FS_RES_OK || rn != data_len) {
 637:Drivers/lvgl/src/libs/bin_decoder/lv_bin_decoder.c ****             LV_LOG_WARN("Read indexed image failed: %d, with len: %" LV_PRIu32 ", expected: %" LV_P
 638:Drivers/lvgl/src/libs/bin_decoder/lv_bin_decoder.c ****             goto exit_with_buf;
 639:Drivers/lvgl/src/libs/bin_decoder/lv_bin_decoder.c ****         }
 640:Drivers/lvgl/src/libs/bin_decoder/lv_bin_decoder.c **** #endif
 641:Drivers/lvgl/src/libs/bin_decoder/lv_bin_decoder.c ****     }
 642:Drivers/lvgl/src/libs/bin_decoder/lv_bin_decoder.c ****     else if(dsc->src_type == LV_IMAGE_SRC_VARIABLE) {
 643:Drivers/lvgl/src/libs/bin_decoder/lv_bin_decoder.c ****         lv_image_dsc_t * image = (lv_image_dsc_t *)dsc->src;
 644:Drivers/lvgl/src/libs/bin_decoder/lv_bin_decoder.c ****         palette = (lv_color32_t *)image->data;
 645:Drivers/lvgl/src/libs/bin_decoder/lv_bin_decoder.c ****         indexed_data = image->data + palette_len;
 646:Drivers/lvgl/src/libs/bin_decoder/lv_bin_decoder.c ****     }
 647:Drivers/lvgl/src/libs/bin_decoder/lv_bin_decoder.c ****     else {
 648:Drivers/lvgl/src/libs/bin_decoder/lv_bin_decoder.c ****         return LV_RESULT_INVALID;
 649:Drivers/lvgl/src/libs/bin_decoder/lv_bin_decoder.c ****     }
 650:Drivers/lvgl/src/libs/bin_decoder/lv_bin_decoder.c **** 
 651:Drivers/lvgl/src/libs/bin_decoder/lv_bin_decoder.c ****     dsc->palette = palette;
 652:Drivers/lvgl/src/libs/bin_decoder/lv_bin_decoder.c ****     dsc->palette_size = LV_COLOR_INDEXED_PALETTE_SIZE(cf);
 653:Drivers/lvgl/src/libs/bin_decoder/lv_bin_decoder.c **** 
 654:Drivers/lvgl/src/libs/bin_decoder/lv_bin_decoder.c **** #if LV_BIN_DECODER_RAM_LOAD
 655:Drivers/lvgl/src/libs/bin_decoder/lv_bin_decoder.c ****     /*Convert to ARGB8888, since sw renderer cannot render it directly even it's in RAM*/
 656:Drivers/lvgl/src/libs/bin_decoder/lv_bin_decoder.c ****     lv_draw_buf_t * decoded = lv_draw_buf_create_ex(image_cache_draw_buf_handlers, dsc->header.w, d
 657:Drivers/lvgl/src/libs/bin_decoder/lv_bin_decoder.c ****                                                     LV_COLOR_FORMAT_ARGB8888,
ARM GAS  /var/folders/qx/2_175_4n2s19vhvtspjhb3qh0000gn/T//ccPNYKNl.s 			page 13


 658:Drivers/lvgl/src/libs/bin_decoder/lv_bin_decoder.c ****                                                     0);
 659:Drivers/lvgl/src/libs/bin_decoder/lv_bin_decoder.c ****     if(decoded == NULL) {
 660:Drivers/lvgl/src/libs/bin_decoder/lv_bin_decoder.c ****         LV_LOG_ERROR("No memory for indexed image");
 661:Drivers/lvgl/src/libs/bin_decoder/lv_bin_decoder.c ****         goto exit_with_buf;
 662:Drivers/lvgl/src/libs/bin_decoder/lv_bin_decoder.c ****     }
 663:Drivers/lvgl/src/libs/bin_decoder/lv_bin_decoder.c **** 
 664:Drivers/lvgl/src/libs/bin_decoder/lv_bin_decoder.c ****     stride = decoded->header.stride;
 665:Drivers/lvgl/src/libs/bin_decoder/lv_bin_decoder.c ****     uint8_t * img_data = decoded->data;
 666:Drivers/lvgl/src/libs/bin_decoder/lv_bin_decoder.c **** 
 667:Drivers/lvgl/src/libs/bin_decoder/lv_bin_decoder.c ****     const uint8_t * in = indexed_data;
 668:Drivers/lvgl/src/libs/bin_decoder/lv_bin_decoder.c ****     uint8_t * out = img_data;
 669:Drivers/lvgl/src/libs/bin_decoder/lv_bin_decoder.c ****     for(uint32_t y = 0; y < dsc->header.h; y++) {
 670:Drivers/lvgl/src/libs/bin_decoder/lv_bin_decoder.c ****         decode_indexed_line(cf, dsc->palette, 0, dsc->header.w, in, (lv_color32_t *)out);
 671:Drivers/lvgl/src/libs/bin_decoder/lv_bin_decoder.c ****         in += dsc->header.stride;
 672:Drivers/lvgl/src/libs/bin_decoder/lv_bin_decoder.c ****         out += stride;
 673:Drivers/lvgl/src/libs/bin_decoder/lv_bin_decoder.c ****     }
 674:Drivers/lvgl/src/libs/bin_decoder/lv_bin_decoder.c **** 
 675:Drivers/lvgl/src/libs/bin_decoder/lv_bin_decoder.c ****     dsc->decoded = decoded;
 676:Drivers/lvgl/src/libs/bin_decoder/lv_bin_decoder.c ****     decoder_data->decoded = decoded; /*Free when decoder closes*/
 677:Drivers/lvgl/src/libs/bin_decoder/lv_bin_decoder.c ****     if(dsc->src_type == LV_IMAGE_SRC_FILE && !is_compressed) {
 678:Drivers/lvgl/src/libs/bin_decoder/lv_bin_decoder.c ****         decoder_data->palette = (void *)palette; /*Free decoder data on close*/
 679:Drivers/lvgl/src/libs/bin_decoder/lv_bin_decoder.c ****         lv_draw_buf_destroy(draw_buf_indexed);
 680:Drivers/lvgl/src/libs/bin_decoder/lv_bin_decoder.c ****     }
 681:Drivers/lvgl/src/libs/bin_decoder/lv_bin_decoder.c **** 
 682:Drivers/lvgl/src/libs/bin_decoder/lv_bin_decoder.c ****     return LV_RESULT_OK;
 683:Drivers/lvgl/src/libs/bin_decoder/lv_bin_decoder.c **** exit_with_buf:
 684:Drivers/lvgl/src/libs/bin_decoder/lv_bin_decoder.c ****     if(dsc->src_type == LV_IMAGE_SRC_FILE && !is_compressed) {
 685:Drivers/lvgl/src/libs/bin_decoder/lv_bin_decoder.c ****         lv_free((void *)palette);
 686:Drivers/lvgl/src/libs/bin_decoder/lv_bin_decoder.c ****         decoder_data->palette = NULL;
 687:Drivers/lvgl/src/libs/bin_decoder/lv_bin_decoder.c ****     }
 688:Drivers/lvgl/src/libs/bin_decoder/lv_bin_decoder.c **** 
 689:Drivers/lvgl/src/libs/bin_decoder/lv_bin_decoder.c ****     if(draw_buf_indexed) lv_draw_buf_destroy(draw_buf_indexed);
 690:Drivers/lvgl/src/libs/bin_decoder/lv_bin_decoder.c ****     return LV_RESULT_INVALID;
 691:Drivers/lvgl/src/libs/bin_decoder/lv_bin_decoder.c **** #else
 692:Drivers/lvgl/src/libs/bin_decoder/lv_bin_decoder.c ****     LV_UNUSED(stride);
 693:Drivers/lvgl/src/libs/bin_decoder/lv_bin_decoder.c ****     LV_UNUSED(indexed_data);
 694:Drivers/lvgl/src/libs/bin_decoder/lv_bin_decoder.c ****     LV_UNUSED(draw_buf_indexed);
 695:Drivers/lvgl/src/libs/bin_decoder/lv_bin_decoder.c ****     /*It needs to be read by get_area_cb later*/
 696:Drivers/lvgl/src/libs/bin_decoder/lv_bin_decoder.c ****     return LV_RESULT_OK;
 697:Drivers/lvgl/src/libs/bin_decoder/lv_bin_decoder.c **** #endif
 698:Drivers/lvgl/src/libs/bin_decoder/lv_bin_decoder.c **** }
 699:Drivers/lvgl/src/libs/bin_decoder/lv_bin_decoder.c **** 
 700:Drivers/lvgl/src/libs/bin_decoder/lv_bin_decoder.c **** static lv_result_t load_indexed(lv_image_decoder_t * decoder, lv_image_decoder_dsc_t * dsc)
 701:Drivers/lvgl/src/libs/bin_decoder/lv_bin_decoder.c **** {
  29              		.loc 1 701 1 view -0
  30              		.cfi_startproc
  31              		@ args = 0, pretend = 0, frame = 0
  32              		@ frame_needed = 0, uses_anonymous_args = 0
  33              		@ link register save eliminated.
 702:Drivers/lvgl/src/libs/bin_decoder/lv_bin_decoder.c **** #if LV_BIN_DECODER_RAM_LOAD == 0
 703:Drivers/lvgl/src/libs/bin_decoder/lv_bin_decoder.c ****     LV_UNUSED(decoder); /*Unused*/
  34              		.loc 1 703 5 view .LVU1
 704:Drivers/lvgl/src/libs/bin_decoder/lv_bin_decoder.c ****     LV_UNUSED(dsc); /*Unused*/
  35              		.loc 1 704 5 view .LVU2
 705:Drivers/lvgl/src/libs/bin_decoder/lv_bin_decoder.c ****     LV_LOG_ERROR("LV_BIN_DECODER_RAM_LOAD is disabled");
  36              		.loc 1 705 5 view .LVU3
  37              		.loc 1 705 5 view .LVU4
ARM GAS  /var/folders/qx/2_175_4n2s19vhvtspjhb3qh0000gn/T//ccPNYKNl.s 			page 14


  38              		.loc 1 705 5 view .LVU5
 706:Drivers/lvgl/src/libs/bin_decoder/lv_bin_decoder.c ****     return LV_RESULT_INVALID;
  39              		.loc 1 706 5 view .LVU6
 707:Drivers/lvgl/src/libs/bin_decoder/lv_bin_decoder.c **** #else
 708:Drivers/lvgl/src/libs/bin_decoder/lv_bin_decoder.c **** 
 709:Drivers/lvgl/src/libs/bin_decoder/lv_bin_decoder.c ****     LV_UNUSED(decoder); /*Unused*/
 710:Drivers/lvgl/src/libs/bin_decoder/lv_bin_decoder.c **** 
 711:Drivers/lvgl/src/libs/bin_decoder/lv_bin_decoder.c ****     lv_fs_res_t res;
 712:Drivers/lvgl/src/libs/bin_decoder/lv_bin_decoder.c ****     uint32_t rn;
 713:Drivers/lvgl/src/libs/bin_decoder/lv_bin_decoder.c ****     decoder_data_t * decoder_data = dsc->user_data;
 714:Drivers/lvgl/src/libs/bin_decoder/lv_bin_decoder.c **** 
 715:Drivers/lvgl/src/libs/bin_decoder/lv_bin_decoder.c ****     if(dsc->header.flags & LV_IMAGE_FLAGS_COMPRESSED) {
 716:Drivers/lvgl/src/libs/bin_decoder/lv_bin_decoder.c ****         /*The decompressed image is already loaded to RAM*/
 717:Drivers/lvgl/src/libs/bin_decoder/lv_bin_decoder.c ****         dsc->decoded = decoder_data->decompressed;
 718:Drivers/lvgl/src/libs/bin_decoder/lv_bin_decoder.c **** 
 719:Drivers/lvgl/src/libs/bin_decoder/lv_bin_decoder.c ****         /*Transfer ownership to decoded pointer because it's the final data we use.*/
 720:Drivers/lvgl/src/libs/bin_decoder/lv_bin_decoder.c ****         decoder_data->decoded = decoder_data->decompressed;
 721:Drivers/lvgl/src/libs/bin_decoder/lv_bin_decoder.c ****         decoder_data->decompressed = NULL;
 722:Drivers/lvgl/src/libs/bin_decoder/lv_bin_decoder.c ****         return LV_RESULT_OK;
 723:Drivers/lvgl/src/libs/bin_decoder/lv_bin_decoder.c ****     }
 724:Drivers/lvgl/src/libs/bin_decoder/lv_bin_decoder.c **** 
 725:Drivers/lvgl/src/libs/bin_decoder/lv_bin_decoder.c ****     if(dsc->src_type == LV_IMAGE_SRC_VARIABLE) {
 726:Drivers/lvgl/src/libs/bin_decoder/lv_bin_decoder.c ****         lv_image_dsc_t * image = (lv_image_dsc_t *)dsc->src;
 727:Drivers/lvgl/src/libs/bin_decoder/lv_bin_decoder.c ****         lv_draw_buf_t * decoded;
 728:Drivers/lvgl/src/libs/bin_decoder/lv_bin_decoder.c ****         if(image->header.flags & LV_IMAGE_FLAGS_ALLOCATED) {
 729:Drivers/lvgl/src/libs/bin_decoder/lv_bin_decoder.c ****             decoded = (lv_draw_buf_t *)image;
 730:Drivers/lvgl/src/libs/bin_decoder/lv_bin_decoder.c ****         }
 731:Drivers/lvgl/src/libs/bin_decoder/lv_bin_decoder.c ****         else {
 732:Drivers/lvgl/src/libs/bin_decoder/lv_bin_decoder.c ****             decoded = &decoder_data->c_array;
 733:Drivers/lvgl/src/libs/bin_decoder/lv_bin_decoder.c ****             lv_result_t result = lv_draw_buf_from_image(decoded, image);
 734:Drivers/lvgl/src/libs/bin_decoder/lv_bin_decoder.c ****             if(result != LV_RESULT_OK) {
 735:Drivers/lvgl/src/libs/bin_decoder/lv_bin_decoder.c ****                 return result;
 736:Drivers/lvgl/src/libs/bin_decoder/lv_bin_decoder.c ****             }
 737:Drivers/lvgl/src/libs/bin_decoder/lv_bin_decoder.c ****         }
 738:Drivers/lvgl/src/libs/bin_decoder/lv_bin_decoder.c **** 
 739:Drivers/lvgl/src/libs/bin_decoder/lv_bin_decoder.c ****         dsc->decoded = decoded;
 740:Drivers/lvgl/src/libs/bin_decoder/lv_bin_decoder.c **** 
 741:Drivers/lvgl/src/libs/bin_decoder/lv_bin_decoder.c ****         if(decoded->header.stride == 0) {
 742:Drivers/lvgl/src/libs/bin_decoder/lv_bin_decoder.c ****             /*Use the auto calculated value from decoder_info callback*/
 743:Drivers/lvgl/src/libs/bin_decoder/lv_bin_decoder.c ****             decoded->header.stride = dsc->header.stride;
 744:Drivers/lvgl/src/libs/bin_decoder/lv_bin_decoder.c ****         }
 745:Drivers/lvgl/src/libs/bin_decoder/lv_bin_decoder.c **** 
 746:Drivers/lvgl/src/libs/bin_decoder/lv_bin_decoder.c ****         return LV_RESULT_OK;
 747:Drivers/lvgl/src/libs/bin_decoder/lv_bin_decoder.c ****     }
 748:Drivers/lvgl/src/libs/bin_decoder/lv_bin_decoder.c **** 
 749:Drivers/lvgl/src/libs/bin_decoder/lv_bin_decoder.c ****     if(dsc->src_type == LV_IMAGE_SRC_FILE) {
 750:Drivers/lvgl/src/libs/bin_decoder/lv_bin_decoder.c ****         lv_color_format_t cf = dsc->header.cf;
 751:Drivers/lvgl/src/libs/bin_decoder/lv_bin_decoder.c ****         lv_fs_file_t * f = decoder_data->f;
 752:Drivers/lvgl/src/libs/bin_decoder/lv_bin_decoder.c ****         lv_draw_buf_t * decoded = lv_draw_buf_create_ex(image_cache_draw_buf_handlers, dsc->header.
 753:Drivers/lvgl/src/libs/bin_decoder/lv_bin_decoder.c ****                                                         dsc->header.stride);
 754:Drivers/lvgl/src/libs/bin_decoder/lv_bin_decoder.c ****         if(decoded == NULL) {
 755:Drivers/lvgl/src/libs/bin_decoder/lv_bin_decoder.c ****             LV_LOG_ERROR("Draw buffer alloc failed");
 756:Drivers/lvgl/src/libs/bin_decoder/lv_bin_decoder.c ****             return LV_RESULT_INVALID;
 757:Drivers/lvgl/src/libs/bin_decoder/lv_bin_decoder.c ****         }
 758:Drivers/lvgl/src/libs/bin_decoder/lv_bin_decoder.c **** 
 759:Drivers/lvgl/src/libs/bin_decoder/lv_bin_decoder.c ****         uint8_t * data = decoded->data;
 760:Drivers/lvgl/src/libs/bin_decoder/lv_bin_decoder.c ****         uint32_t palette_len = sizeof(lv_color32_t) * LV_COLOR_INDEXED_PALETTE_SIZE(cf);
ARM GAS  /var/folders/qx/2_175_4n2s19vhvtspjhb3qh0000gn/T//ccPNYKNl.s 			page 15


 761:Drivers/lvgl/src/libs/bin_decoder/lv_bin_decoder.c ****         res = fs_read_file_at(f, sizeof(lv_image_header_t), data, palette_len, &rn);
 762:Drivers/lvgl/src/libs/bin_decoder/lv_bin_decoder.c ****         if(res != LV_FS_RES_OK || rn != palette_len) {
 763:Drivers/lvgl/src/libs/bin_decoder/lv_bin_decoder.c ****             LV_LOG_WARN("Read palette failed: %d, with len: %" LV_PRIu32 ", expected: %" LV_PRIu32,
 764:Drivers/lvgl/src/libs/bin_decoder/lv_bin_decoder.c ****             lv_draw_buf_destroy(decoded);
 765:Drivers/lvgl/src/libs/bin_decoder/lv_bin_decoder.c ****             return LV_RESULT_INVALID;
 766:Drivers/lvgl/src/libs/bin_decoder/lv_bin_decoder.c ****         }
 767:Drivers/lvgl/src/libs/bin_decoder/lv_bin_decoder.c **** 
 768:Drivers/lvgl/src/libs/bin_decoder/lv_bin_decoder.c ****         uint32_t data_len = 0;
 769:Drivers/lvgl/src/libs/bin_decoder/lv_bin_decoder.c ****         if(lv_fs_seek(f, 0, LV_FS_SEEK_END) != LV_FS_RES_OK ||
 770:Drivers/lvgl/src/libs/bin_decoder/lv_bin_decoder.c ****            lv_fs_tell(f, &data_len) != LV_FS_RES_OK) {
 771:Drivers/lvgl/src/libs/bin_decoder/lv_bin_decoder.c ****             LV_LOG_WARN("Failed to get file to size");
 772:Drivers/lvgl/src/libs/bin_decoder/lv_bin_decoder.c ****             lv_draw_buf_destroy(decoded);
 773:Drivers/lvgl/src/libs/bin_decoder/lv_bin_decoder.c ****             return LV_RESULT_INVALID;
 774:Drivers/lvgl/src/libs/bin_decoder/lv_bin_decoder.c ****         }
 775:Drivers/lvgl/src/libs/bin_decoder/lv_bin_decoder.c **** 
 776:Drivers/lvgl/src/libs/bin_decoder/lv_bin_decoder.c ****         uint32_t data_offset = sizeof(lv_image_header_t) + palette_len;
 777:Drivers/lvgl/src/libs/bin_decoder/lv_bin_decoder.c ****         data_len -= data_offset;
 778:Drivers/lvgl/src/libs/bin_decoder/lv_bin_decoder.c ****         data += palette_len;
 779:Drivers/lvgl/src/libs/bin_decoder/lv_bin_decoder.c ****         res = fs_read_file_at(f, data_offset, data, data_len, &rn);
 780:Drivers/lvgl/src/libs/bin_decoder/lv_bin_decoder.c ****         if(res != LV_FS_RES_OK || rn != data_len) {
 781:Drivers/lvgl/src/libs/bin_decoder/lv_bin_decoder.c ****             LV_LOG_WARN("Read indexed image failed: %d, with len: %" LV_PRIu32 ", expected: %" LV_P
 782:Drivers/lvgl/src/libs/bin_decoder/lv_bin_decoder.c ****             lv_draw_buf_destroy(decoded);
 783:Drivers/lvgl/src/libs/bin_decoder/lv_bin_decoder.c ****             return LV_RESULT_INVALID;
 784:Drivers/lvgl/src/libs/bin_decoder/lv_bin_decoder.c ****         }
 785:Drivers/lvgl/src/libs/bin_decoder/lv_bin_decoder.c **** 
 786:Drivers/lvgl/src/libs/bin_decoder/lv_bin_decoder.c ****         decoder_data->decoded = decoded;
 787:Drivers/lvgl/src/libs/bin_decoder/lv_bin_decoder.c ****         dsc->decoded = decoded;
 788:Drivers/lvgl/src/libs/bin_decoder/lv_bin_decoder.c ****         return LV_RESULT_OK;
 789:Drivers/lvgl/src/libs/bin_decoder/lv_bin_decoder.c ****     }
 790:Drivers/lvgl/src/libs/bin_decoder/lv_bin_decoder.c **** 
 791:Drivers/lvgl/src/libs/bin_decoder/lv_bin_decoder.c ****     LV_LOG_ERROR("Unknown src type: %d", dsc->src_type);
 792:Drivers/lvgl/src/libs/bin_decoder/lv_bin_decoder.c ****     return LV_RESULT_INVALID;
 793:Drivers/lvgl/src/libs/bin_decoder/lv_bin_decoder.c **** #endif
 794:Drivers/lvgl/src/libs/bin_decoder/lv_bin_decoder.c **** }
  40              		.loc 1 794 1 is_stmt 0 view .LVU7
  41 0000 0020     		movs	r0, #0
  42              	.LVL1:
  43              		.loc 1 794 1 view .LVU8
  44 0002 7047     		bx	lr
  45              		.cfi_endproc
  46              	.LFE201:
  48              		.section	.text.decode_compressed,"ax",%progbits
  49              		.align	1
  50              		.syntax unified
  51              		.thumb
  52              		.thumb_func
  54              	decode_compressed:
  55              	.LVL2:
  56              	.LFB204:
 795:Drivers/lvgl/src/libs/bin_decoder/lv_bin_decoder.c **** 
 796:Drivers/lvgl/src/libs/bin_decoder/lv_bin_decoder.c **** #if LV_BIN_DECODER_RAM_LOAD
 797:Drivers/lvgl/src/libs/bin_decoder/lv_bin_decoder.c **** static lv_result_t decode_rgb(lv_image_decoder_t * decoder, lv_image_decoder_dsc_t * dsc)
 798:Drivers/lvgl/src/libs/bin_decoder/lv_bin_decoder.c **** {
 799:Drivers/lvgl/src/libs/bin_decoder/lv_bin_decoder.c ****     LV_UNUSED(decoder);
 800:Drivers/lvgl/src/libs/bin_decoder/lv_bin_decoder.c ****     lv_fs_res_t res;
 801:Drivers/lvgl/src/libs/bin_decoder/lv_bin_decoder.c ****     decoder_data_t * decoder_data = dsc->user_data;
 802:Drivers/lvgl/src/libs/bin_decoder/lv_bin_decoder.c ****     lv_fs_file_t * f = decoder_data->f;
ARM GAS  /var/folders/qx/2_175_4n2s19vhvtspjhb3qh0000gn/T//ccPNYKNl.s 			page 16


 803:Drivers/lvgl/src/libs/bin_decoder/lv_bin_decoder.c ****     lv_color_format_t cf = dsc->header.cf;
 804:Drivers/lvgl/src/libs/bin_decoder/lv_bin_decoder.c **** 
 805:Drivers/lvgl/src/libs/bin_decoder/lv_bin_decoder.c ****     uint32_t len = dsc->header.stride * dsc->header.h;
 806:Drivers/lvgl/src/libs/bin_decoder/lv_bin_decoder.c ****     if(cf == LV_COLOR_FORMAT_RGB565A8) {
 807:Drivers/lvgl/src/libs/bin_decoder/lv_bin_decoder.c ****         len += (dsc->header.stride / 2) * dsc->header.h; /*A8 mask*/
 808:Drivers/lvgl/src/libs/bin_decoder/lv_bin_decoder.c ****     }
 809:Drivers/lvgl/src/libs/bin_decoder/lv_bin_decoder.c **** 
 810:Drivers/lvgl/src/libs/bin_decoder/lv_bin_decoder.c ****     lv_draw_buf_t * decoded = lv_draw_buf_create_ex(image_cache_draw_buf_handlers, dsc->header.w, d
 811:Drivers/lvgl/src/libs/bin_decoder/lv_bin_decoder.c ****                                                     dsc->header.stride);
 812:Drivers/lvgl/src/libs/bin_decoder/lv_bin_decoder.c ****     if(decoded == NULL) {
 813:Drivers/lvgl/src/libs/bin_decoder/lv_bin_decoder.c ****         LV_LOG_ERROR("No memory for rgb file read");
 814:Drivers/lvgl/src/libs/bin_decoder/lv_bin_decoder.c ****         return LV_RESULT_INVALID;
 815:Drivers/lvgl/src/libs/bin_decoder/lv_bin_decoder.c ****     }
 816:Drivers/lvgl/src/libs/bin_decoder/lv_bin_decoder.c **** 
 817:Drivers/lvgl/src/libs/bin_decoder/lv_bin_decoder.c ****     uint8_t * img_data = decoded->data;
 818:Drivers/lvgl/src/libs/bin_decoder/lv_bin_decoder.c **** 
 819:Drivers/lvgl/src/libs/bin_decoder/lv_bin_decoder.c ****     uint32_t rn;
 820:Drivers/lvgl/src/libs/bin_decoder/lv_bin_decoder.c ****     res = fs_read_file_at(f, sizeof(lv_image_header_t), img_data, len, &rn);
 821:Drivers/lvgl/src/libs/bin_decoder/lv_bin_decoder.c ****     if(res != LV_FS_RES_OK || rn != len) {
 822:Drivers/lvgl/src/libs/bin_decoder/lv_bin_decoder.c ****         LV_LOG_WARN("Read rgb file failed: %d, with len: %" LV_PRIu32 ", expected: %" LV_PRIu32, re
 823:Drivers/lvgl/src/libs/bin_decoder/lv_bin_decoder.c ****         lv_draw_buf_destroy(decoded);
 824:Drivers/lvgl/src/libs/bin_decoder/lv_bin_decoder.c ****         return LV_RESULT_INVALID;
 825:Drivers/lvgl/src/libs/bin_decoder/lv_bin_decoder.c ****     }
 826:Drivers/lvgl/src/libs/bin_decoder/lv_bin_decoder.c **** 
 827:Drivers/lvgl/src/libs/bin_decoder/lv_bin_decoder.c ****     dsc->decoded = decoded;
 828:Drivers/lvgl/src/libs/bin_decoder/lv_bin_decoder.c ****     decoder_data->decoded = decoded; /*Free when decoder closes*/
 829:Drivers/lvgl/src/libs/bin_decoder/lv_bin_decoder.c ****     return LV_RESULT_OK;
 830:Drivers/lvgl/src/libs/bin_decoder/lv_bin_decoder.c **** }
 831:Drivers/lvgl/src/libs/bin_decoder/lv_bin_decoder.c **** #endif
 832:Drivers/lvgl/src/libs/bin_decoder/lv_bin_decoder.c **** 
 833:Drivers/lvgl/src/libs/bin_decoder/lv_bin_decoder.c **** /**
 834:Drivers/lvgl/src/libs/bin_decoder/lv_bin_decoder.c ****  * Extend A1/2/4 to A8 with interpolation to reduce rounding error.
 835:Drivers/lvgl/src/libs/bin_decoder/lv_bin_decoder.c ****  */
 836:Drivers/lvgl/src/libs/bin_decoder/lv_bin_decoder.c **** static inline uint8_t bit_extend(uint8_t value, uint8_t bpp)
 837:Drivers/lvgl/src/libs/bin_decoder/lv_bin_decoder.c **** {
 838:Drivers/lvgl/src/libs/bin_decoder/lv_bin_decoder.c ****     if(value == 0) return 0;
 839:Drivers/lvgl/src/libs/bin_decoder/lv_bin_decoder.c **** 
 840:Drivers/lvgl/src/libs/bin_decoder/lv_bin_decoder.c ****     uint8_t res = value;
 841:Drivers/lvgl/src/libs/bin_decoder/lv_bin_decoder.c ****     uint8_t bpp_now = bpp;
 842:Drivers/lvgl/src/libs/bin_decoder/lv_bin_decoder.c ****     while(bpp_now < 8) {
 843:Drivers/lvgl/src/libs/bin_decoder/lv_bin_decoder.c ****         res |= value << (8 - bpp_now);
 844:Drivers/lvgl/src/libs/bin_decoder/lv_bin_decoder.c ****         bpp_now += bpp;
 845:Drivers/lvgl/src/libs/bin_decoder/lv_bin_decoder.c ****     };
 846:Drivers/lvgl/src/libs/bin_decoder/lv_bin_decoder.c **** 
 847:Drivers/lvgl/src/libs/bin_decoder/lv_bin_decoder.c ****     return res;
 848:Drivers/lvgl/src/libs/bin_decoder/lv_bin_decoder.c **** }
 849:Drivers/lvgl/src/libs/bin_decoder/lv_bin_decoder.c **** 
 850:Drivers/lvgl/src/libs/bin_decoder/lv_bin_decoder.c **** static lv_result_t decode_alpha_only(lv_image_decoder_t * decoder, lv_image_decoder_dsc_t * dsc)
 851:Drivers/lvgl/src/libs/bin_decoder/lv_bin_decoder.c **** {
 852:Drivers/lvgl/src/libs/bin_decoder/lv_bin_decoder.c ****     LV_UNUSED(decoder);
 853:Drivers/lvgl/src/libs/bin_decoder/lv_bin_decoder.c ****     lv_fs_res_t res;
 854:Drivers/lvgl/src/libs/bin_decoder/lv_bin_decoder.c ****     uint32_t rn;
 855:Drivers/lvgl/src/libs/bin_decoder/lv_bin_decoder.c ****     decoder_data_t * decoder_data = dsc->user_data;
 856:Drivers/lvgl/src/libs/bin_decoder/lv_bin_decoder.c ****     uint8_t bpp = lv_color_format_get_bpp(dsc->header.cf);
 857:Drivers/lvgl/src/libs/bin_decoder/lv_bin_decoder.c **** 
 858:Drivers/lvgl/src/libs/bin_decoder/lv_bin_decoder.c ****     if(bpp == 0) {
 859:Drivers/lvgl/src/libs/bin_decoder/lv_bin_decoder.c ****         LV_LOG_ERROR("Error color format: %d", dsc->header.cf);
ARM GAS  /var/folders/qx/2_175_4n2s19vhvtspjhb3qh0000gn/T//ccPNYKNl.s 			page 17


 860:Drivers/lvgl/src/libs/bin_decoder/lv_bin_decoder.c ****         return LV_RESULT_INVALID;
 861:Drivers/lvgl/src/libs/bin_decoder/lv_bin_decoder.c ****     }
 862:Drivers/lvgl/src/libs/bin_decoder/lv_bin_decoder.c **** 
 863:Drivers/lvgl/src/libs/bin_decoder/lv_bin_decoder.c ****     uint32_t w = (dsc->header.stride * 8) / bpp;
 864:Drivers/lvgl/src/libs/bin_decoder/lv_bin_decoder.c ****     uint32_t buf_stride = (w * 8 + 7) >> 3; /*stride for img_data*/
 865:Drivers/lvgl/src/libs/bin_decoder/lv_bin_decoder.c ****     uint32_t buf_len = w * dsc->header.h; /*always decode to A8 format*/
 866:Drivers/lvgl/src/libs/bin_decoder/lv_bin_decoder.c ****     lv_draw_buf_t * decoded;
 867:Drivers/lvgl/src/libs/bin_decoder/lv_bin_decoder.c ****     uint32_t file_len = (uint32_t)dsc->header.stride * dsc->header.h;
 868:Drivers/lvgl/src/libs/bin_decoder/lv_bin_decoder.c **** 
 869:Drivers/lvgl/src/libs/bin_decoder/lv_bin_decoder.c ****     decoded = lv_draw_buf_create_ex(image_cache_draw_buf_handlers, dsc->header.w, dsc->header.h, LV
 870:Drivers/lvgl/src/libs/bin_decoder/lv_bin_decoder.c ****                                     buf_stride);
 871:Drivers/lvgl/src/libs/bin_decoder/lv_bin_decoder.c ****     if(decoded == NULL) {
 872:Drivers/lvgl/src/libs/bin_decoder/lv_bin_decoder.c ****         LV_LOG_ERROR("Out of memory");
 873:Drivers/lvgl/src/libs/bin_decoder/lv_bin_decoder.c ****         return LV_RESULT_INVALID;
 874:Drivers/lvgl/src/libs/bin_decoder/lv_bin_decoder.c ****     }
 875:Drivers/lvgl/src/libs/bin_decoder/lv_bin_decoder.c **** 
 876:Drivers/lvgl/src/libs/bin_decoder/lv_bin_decoder.c ****     uint8_t * img_data = decoded->data;
 877:Drivers/lvgl/src/libs/bin_decoder/lv_bin_decoder.c **** 
 878:Drivers/lvgl/src/libs/bin_decoder/lv_bin_decoder.c ****     if(dsc->header.flags & LV_IMAGE_FLAGS_COMPRESSED) {
 879:Drivers/lvgl/src/libs/bin_decoder/lv_bin_decoder.c ****         /*Copy from image data*/
 880:Drivers/lvgl/src/libs/bin_decoder/lv_bin_decoder.c ****         lv_memcpy(img_data, decoder_data->decompressed->data, file_len);
 881:Drivers/lvgl/src/libs/bin_decoder/lv_bin_decoder.c ****     }
 882:Drivers/lvgl/src/libs/bin_decoder/lv_bin_decoder.c ****     else if(dsc->src_type == LV_IMAGE_SRC_FILE) {
 883:Drivers/lvgl/src/libs/bin_decoder/lv_bin_decoder.c ****         res = fs_read_file_at(decoder_data->f, sizeof(lv_image_header_t), img_data, file_len, &rn);
 884:Drivers/lvgl/src/libs/bin_decoder/lv_bin_decoder.c ****         if(res != LV_FS_RES_OK || rn != file_len) {
 885:Drivers/lvgl/src/libs/bin_decoder/lv_bin_decoder.c ****             LV_LOG_WARN("Read header failed: %d, with len: %" LV_PRIu32 ", expected: %" LV_PRIu32, 
 886:Drivers/lvgl/src/libs/bin_decoder/lv_bin_decoder.c ****             lv_draw_buf_destroy(decoded);
 887:Drivers/lvgl/src/libs/bin_decoder/lv_bin_decoder.c ****             return LV_RESULT_INVALID;
 888:Drivers/lvgl/src/libs/bin_decoder/lv_bin_decoder.c ****         }
 889:Drivers/lvgl/src/libs/bin_decoder/lv_bin_decoder.c ****     }
 890:Drivers/lvgl/src/libs/bin_decoder/lv_bin_decoder.c ****     else if(dsc->src_type == LV_IMAGE_SRC_VARIABLE) {
 891:Drivers/lvgl/src/libs/bin_decoder/lv_bin_decoder.c ****         /*Copy from image data*/
 892:Drivers/lvgl/src/libs/bin_decoder/lv_bin_decoder.c ****         lv_memcpy(img_data, ((lv_image_dsc_t *)dsc->src)->data, file_len);
 893:Drivers/lvgl/src/libs/bin_decoder/lv_bin_decoder.c ****     }
 894:Drivers/lvgl/src/libs/bin_decoder/lv_bin_decoder.c **** 
 895:Drivers/lvgl/src/libs/bin_decoder/lv_bin_decoder.c ****     if(dsc->header.cf != LV_COLOR_FORMAT_A8) {
 896:Drivers/lvgl/src/libs/bin_decoder/lv_bin_decoder.c ****         /*Convert A1/2/4 to A8 from last pixel to first pixel*/
 897:Drivers/lvgl/src/libs/bin_decoder/lv_bin_decoder.c ****         uint8_t * in = img_data + file_len - 1;
 898:Drivers/lvgl/src/libs/bin_decoder/lv_bin_decoder.c ****         uint8_t * out = img_data + buf_len - 1;
 899:Drivers/lvgl/src/libs/bin_decoder/lv_bin_decoder.c ****         uint8_t mask = (1 << bpp) - 1;
 900:Drivers/lvgl/src/libs/bin_decoder/lv_bin_decoder.c ****         uint8_t shift = 0;
 901:Drivers/lvgl/src/libs/bin_decoder/lv_bin_decoder.c ****         for(uint32_t i = 0; i < buf_len; i++) {
 902:Drivers/lvgl/src/libs/bin_decoder/lv_bin_decoder.c ****             /**
 903:Drivers/lvgl/src/libs/bin_decoder/lv_bin_decoder.c ****              * Rounding error:
 904:Drivers/lvgl/src/libs/bin_decoder/lv_bin_decoder.c ****              * Take bpp = 4 as example, alpha value of 0x0 to 0x0F should be
 905:Drivers/lvgl/src/libs/bin_decoder/lv_bin_decoder.c ****              * mapped to 0x00 to 0xFF. Using below equation will give us 0x00 to 0xF0
 906:Drivers/lvgl/src/libs/bin_decoder/lv_bin_decoder.c ****              * thus causes error. We can simply interpolate the value to fix it.
 907:Drivers/lvgl/src/libs/bin_decoder/lv_bin_decoder.c ****              *
 908:Drivers/lvgl/src/libs/bin_decoder/lv_bin_decoder.c ****              * Equation: *out = ((*in >> shift) & mask) << (8 - bpp);
 909:Drivers/lvgl/src/libs/bin_decoder/lv_bin_decoder.c ****              * Ideal: *out = ((*in >> shift) & mask) * 255 / ((1L << bpp) - 1)
 910:Drivers/lvgl/src/libs/bin_decoder/lv_bin_decoder.c ****              */
 911:Drivers/lvgl/src/libs/bin_decoder/lv_bin_decoder.c ****             uint8_t value = ((*in >> shift) & mask);
 912:Drivers/lvgl/src/libs/bin_decoder/lv_bin_decoder.c ****             *out = bit_extend(value, bpp);
 913:Drivers/lvgl/src/libs/bin_decoder/lv_bin_decoder.c ****             shift += bpp;
 914:Drivers/lvgl/src/libs/bin_decoder/lv_bin_decoder.c ****             if(shift >= 8) {
 915:Drivers/lvgl/src/libs/bin_decoder/lv_bin_decoder.c ****                 shift = 0;
 916:Drivers/lvgl/src/libs/bin_decoder/lv_bin_decoder.c ****                 in--;
ARM GAS  /var/folders/qx/2_175_4n2s19vhvtspjhb3qh0000gn/T//ccPNYKNl.s 			page 18


 917:Drivers/lvgl/src/libs/bin_decoder/lv_bin_decoder.c ****             }
 918:Drivers/lvgl/src/libs/bin_decoder/lv_bin_decoder.c ****             out--;
 919:Drivers/lvgl/src/libs/bin_decoder/lv_bin_decoder.c ****         }
 920:Drivers/lvgl/src/libs/bin_decoder/lv_bin_decoder.c ****     }
 921:Drivers/lvgl/src/libs/bin_decoder/lv_bin_decoder.c **** 
 922:Drivers/lvgl/src/libs/bin_decoder/lv_bin_decoder.c ****     decoder_data->decoded = decoded;
 923:Drivers/lvgl/src/libs/bin_decoder/lv_bin_decoder.c ****     dsc->decoded = decoded;
 924:Drivers/lvgl/src/libs/bin_decoder/lv_bin_decoder.c ****     return LV_RESULT_OK;
 925:Drivers/lvgl/src/libs/bin_decoder/lv_bin_decoder.c **** }
 926:Drivers/lvgl/src/libs/bin_decoder/lv_bin_decoder.c **** 
 927:Drivers/lvgl/src/libs/bin_decoder/lv_bin_decoder.c **** static lv_result_t decode_compressed(lv_image_decoder_t * decoder, lv_image_decoder_dsc_t * dsc)
 928:Drivers/lvgl/src/libs/bin_decoder/lv_bin_decoder.c **** {
  57              		.loc 1 928 1 is_stmt 1 view -0
  58              		.cfi_startproc
  59              		@ args = 0, pretend = 0, frame = 0
  60              		@ frame_needed = 0, uses_anonymous_args = 0
  61              		@ link register save eliminated.
 929:Drivers/lvgl/src/libs/bin_decoder/lv_bin_decoder.c **** #if LV_BIN_DECODER_RAM_LOAD
 930:Drivers/lvgl/src/libs/bin_decoder/lv_bin_decoder.c ****     uint32_t rn;
 931:Drivers/lvgl/src/libs/bin_decoder/lv_bin_decoder.c ****     uint32_t len;
 932:Drivers/lvgl/src/libs/bin_decoder/lv_bin_decoder.c ****     uint32_t compressed_len;
 933:Drivers/lvgl/src/libs/bin_decoder/lv_bin_decoder.c ****     decoder_data_t * decoder_data = get_decoder_data(dsc);
 934:Drivers/lvgl/src/libs/bin_decoder/lv_bin_decoder.c ****     lv_result_t res;
 935:Drivers/lvgl/src/libs/bin_decoder/lv_bin_decoder.c ****     lv_fs_res_t fs_res;
 936:Drivers/lvgl/src/libs/bin_decoder/lv_bin_decoder.c ****     uint8_t * file_buf = NULL;
 937:Drivers/lvgl/src/libs/bin_decoder/lv_bin_decoder.c ****     lv_image_compressed_t * compressed = &decoder_data->compressed;
 938:Drivers/lvgl/src/libs/bin_decoder/lv_bin_decoder.c **** 
 939:Drivers/lvgl/src/libs/bin_decoder/lv_bin_decoder.c ****     lv_memzero(compressed, sizeof(lv_image_compressed_t));
 940:Drivers/lvgl/src/libs/bin_decoder/lv_bin_decoder.c **** 
 941:Drivers/lvgl/src/libs/bin_decoder/lv_bin_decoder.c ****     if(dsc->src_type == LV_IMAGE_SRC_FILE) {
 942:Drivers/lvgl/src/libs/bin_decoder/lv_bin_decoder.c ****         lv_fs_file_t * f = decoder_data->f;
 943:Drivers/lvgl/src/libs/bin_decoder/lv_bin_decoder.c **** 
 944:Drivers/lvgl/src/libs/bin_decoder/lv_bin_decoder.c ****         if(lv_fs_seek(f, 0, LV_FS_SEEK_END) != LV_FS_RES_OK ||
 945:Drivers/lvgl/src/libs/bin_decoder/lv_bin_decoder.c ****            lv_fs_tell(f, &compressed_len) != LV_FS_RES_OK) {
 946:Drivers/lvgl/src/libs/bin_decoder/lv_bin_decoder.c ****             LV_LOG_WARN("Failed to get compressed file len");
 947:Drivers/lvgl/src/libs/bin_decoder/lv_bin_decoder.c ****             return LV_RESULT_INVALID;
 948:Drivers/lvgl/src/libs/bin_decoder/lv_bin_decoder.c ****         }
 949:Drivers/lvgl/src/libs/bin_decoder/lv_bin_decoder.c **** 
 950:Drivers/lvgl/src/libs/bin_decoder/lv_bin_decoder.c ****         compressed_len -= sizeof(lv_image_header_t);
 951:Drivers/lvgl/src/libs/bin_decoder/lv_bin_decoder.c ****         compressed_len -= 12;
 952:Drivers/lvgl/src/libs/bin_decoder/lv_bin_decoder.c **** 
 953:Drivers/lvgl/src/libs/bin_decoder/lv_bin_decoder.c ****         /*Read compress header*/
 954:Drivers/lvgl/src/libs/bin_decoder/lv_bin_decoder.c ****         len = 12;
 955:Drivers/lvgl/src/libs/bin_decoder/lv_bin_decoder.c ****         fs_res = fs_read_file_at(f, sizeof(lv_image_header_t), compressed, len, &rn);
 956:Drivers/lvgl/src/libs/bin_decoder/lv_bin_decoder.c ****         if(fs_res != LV_FS_RES_OK || rn != len) {
 957:Drivers/lvgl/src/libs/bin_decoder/lv_bin_decoder.c ****             LV_LOG_WARN("Read compressed header failed: %d, with len: %" LV_PRIu32 ", expected: %" 
 958:Drivers/lvgl/src/libs/bin_decoder/lv_bin_decoder.c ****             return LV_RESULT_INVALID;
 959:Drivers/lvgl/src/libs/bin_decoder/lv_bin_decoder.c ****         }
 960:Drivers/lvgl/src/libs/bin_decoder/lv_bin_decoder.c **** 
 961:Drivers/lvgl/src/libs/bin_decoder/lv_bin_decoder.c ****         if(compressed->compressed_size != compressed_len) {
 962:Drivers/lvgl/src/libs/bin_decoder/lv_bin_decoder.c ****             LV_LOG_WARN("Compressed size mismatch: %" LV_PRIu32" != %" LV_PRIu32, compressed->compr
 963:Drivers/lvgl/src/libs/bin_decoder/lv_bin_decoder.c ****             return LV_RESULT_INVALID;
 964:Drivers/lvgl/src/libs/bin_decoder/lv_bin_decoder.c ****         }
 965:Drivers/lvgl/src/libs/bin_decoder/lv_bin_decoder.c **** 
 966:Drivers/lvgl/src/libs/bin_decoder/lv_bin_decoder.c ****         file_buf = lv_malloc(compressed_len);
 967:Drivers/lvgl/src/libs/bin_decoder/lv_bin_decoder.c ****         if(file_buf == NULL) {
 968:Drivers/lvgl/src/libs/bin_decoder/lv_bin_decoder.c ****             LV_LOG_WARN("No memory for compressed file");
ARM GAS  /var/folders/qx/2_175_4n2s19vhvtspjhb3qh0000gn/T//ccPNYKNl.s 			page 19


 969:Drivers/lvgl/src/libs/bin_decoder/lv_bin_decoder.c ****             return LV_RESULT_INVALID;
 970:Drivers/lvgl/src/libs/bin_decoder/lv_bin_decoder.c **** 
 971:Drivers/lvgl/src/libs/bin_decoder/lv_bin_decoder.c ****         }
 972:Drivers/lvgl/src/libs/bin_decoder/lv_bin_decoder.c **** 
 973:Drivers/lvgl/src/libs/bin_decoder/lv_bin_decoder.c ****         /*Continue to read the compressed data following compression header*/
 974:Drivers/lvgl/src/libs/bin_decoder/lv_bin_decoder.c ****         fs_res = lv_fs_read(f, file_buf, compressed_len, &rn);
 975:Drivers/lvgl/src/libs/bin_decoder/lv_bin_decoder.c ****         if(fs_res != LV_FS_RES_OK || rn != compressed_len) {
 976:Drivers/lvgl/src/libs/bin_decoder/lv_bin_decoder.c ****             LV_LOG_WARN("Read compressed file failed: %d, with len: %" LV_PRIu32 ", expected: %" LV
 977:Drivers/lvgl/src/libs/bin_decoder/lv_bin_decoder.c ****                         compressed_len);
 978:Drivers/lvgl/src/libs/bin_decoder/lv_bin_decoder.c ****             lv_free(file_buf);
 979:Drivers/lvgl/src/libs/bin_decoder/lv_bin_decoder.c ****             return LV_RESULT_INVALID;
 980:Drivers/lvgl/src/libs/bin_decoder/lv_bin_decoder.c ****         }
 981:Drivers/lvgl/src/libs/bin_decoder/lv_bin_decoder.c **** 
 982:Drivers/lvgl/src/libs/bin_decoder/lv_bin_decoder.c ****         /*Decompress the image*/
 983:Drivers/lvgl/src/libs/bin_decoder/lv_bin_decoder.c ****         compressed->data = file_buf;
 984:Drivers/lvgl/src/libs/bin_decoder/lv_bin_decoder.c ****     }
 985:Drivers/lvgl/src/libs/bin_decoder/lv_bin_decoder.c ****     else if(dsc->src_type == LV_IMAGE_SRC_VARIABLE) {
 986:Drivers/lvgl/src/libs/bin_decoder/lv_bin_decoder.c ****         lv_image_dsc_t * image = (lv_image_dsc_t *)dsc->src;
 987:Drivers/lvgl/src/libs/bin_decoder/lv_bin_decoder.c ****         compressed_len = image->data_size;
 988:Drivers/lvgl/src/libs/bin_decoder/lv_bin_decoder.c **** 
 989:Drivers/lvgl/src/libs/bin_decoder/lv_bin_decoder.c ****         /*Read compress header*/
 990:Drivers/lvgl/src/libs/bin_decoder/lv_bin_decoder.c ****         len = 12;
 991:Drivers/lvgl/src/libs/bin_decoder/lv_bin_decoder.c ****         compressed_len -= len;
 992:Drivers/lvgl/src/libs/bin_decoder/lv_bin_decoder.c ****         lv_memcpy(compressed, image->data, len);
 993:Drivers/lvgl/src/libs/bin_decoder/lv_bin_decoder.c ****         compressed->data = image->data + len;
 994:Drivers/lvgl/src/libs/bin_decoder/lv_bin_decoder.c ****         if(compressed->compressed_size != compressed_len) {
 995:Drivers/lvgl/src/libs/bin_decoder/lv_bin_decoder.c ****             LV_LOG_WARN("Compressed size mismatch: %" LV_PRIu32" != %" LV_PRIu32, compressed->compr
 996:Drivers/lvgl/src/libs/bin_decoder/lv_bin_decoder.c ****             return LV_RESULT_INVALID;
 997:Drivers/lvgl/src/libs/bin_decoder/lv_bin_decoder.c ****         }
 998:Drivers/lvgl/src/libs/bin_decoder/lv_bin_decoder.c ****     }
 999:Drivers/lvgl/src/libs/bin_decoder/lv_bin_decoder.c ****     else {
1000:Drivers/lvgl/src/libs/bin_decoder/lv_bin_decoder.c ****         LV_LOG_WARN("Compressed image only support file or variable");
1001:Drivers/lvgl/src/libs/bin_decoder/lv_bin_decoder.c ****         return LV_RESULT_INVALID;
1002:Drivers/lvgl/src/libs/bin_decoder/lv_bin_decoder.c ****     }
1003:Drivers/lvgl/src/libs/bin_decoder/lv_bin_decoder.c **** 
1004:Drivers/lvgl/src/libs/bin_decoder/lv_bin_decoder.c ****     res = decompress_image(dsc, compressed);
1005:Drivers/lvgl/src/libs/bin_decoder/lv_bin_decoder.c ****     compressed->data = NULL; /*No need to store the data any more*/
1006:Drivers/lvgl/src/libs/bin_decoder/lv_bin_decoder.c ****     lv_free(file_buf);
1007:Drivers/lvgl/src/libs/bin_decoder/lv_bin_decoder.c ****     if(res != LV_RESULT_OK) {
1008:Drivers/lvgl/src/libs/bin_decoder/lv_bin_decoder.c ****         LV_LOG_WARN("Decompress failed");
1009:Drivers/lvgl/src/libs/bin_decoder/lv_bin_decoder.c ****         return LV_RESULT_INVALID;
1010:Drivers/lvgl/src/libs/bin_decoder/lv_bin_decoder.c ****     }
1011:Drivers/lvgl/src/libs/bin_decoder/lv_bin_decoder.c **** 
1012:Drivers/lvgl/src/libs/bin_decoder/lv_bin_decoder.c ****     /*Depends on the cf, need to further decode image like an C-array image*/
1013:Drivers/lvgl/src/libs/bin_decoder/lv_bin_decoder.c ****     lv_image_dsc_t * image = (lv_image_dsc_t *)dsc->src;
1014:Drivers/lvgl/src/libs/bin_decoder/lv_bin_decoder.c ****     if(dsc->src_type == LV_IMAGE_SRC_VARIABLE && image->data == NULL) {
1015:Drivers/lvgl/src/libs/bin_decoder/lv_bin_decoder.c ****         return LV_RESULT_INVALID;
1016:Drivers/lvgl/src/libs/bin_decoder/lv_bin_decoder.c ****     }
1017:Drivers/lvgl/src/libs/bin_decoder/lv_bin_decoder.c **** 
1018:Drivers/lvgl/src/libs/bin_decoder/lv_bin_decoder.c ****     lv_color_format_t cf = dsc->header.cf;
1019:Drivers/lvgl/src/libs/bin_decoder/lv_bin_decoder.c ****     if(LV_COLOR_FORMAT_IS_INDEXED(cf)) {
1020:Drivers/lvgl/src/libs/bin_decoder/lv_bin_decoder.c ****         if(dsc->args.use_indexed) res = load_indexed(decoder, dsc);
1021:Drivers/lvgl/src/libs/bin_decoder/lv_bin_decoder.c ****         else res = decode_indexed(decoder, dsc);
1022:Drivers/lvgl/src/libs/bin_decoder/lv_bin_decoder.c ****     }
1023:Drivers/lvgl/src/libs/bin_decoder/lv_bin_decoder.c ****     else if(LV_COLOR_FORMAT_IS_ALPHA_ONLY(cf)) {
1024:Drivers/lvgl/src/libs/bin_decoder/lv_bin_decoder.c ****         res = decode_alpha_only(decoder, dsc);
1025:Drivers/lvgl/src/libs/bin_decoder/lv_bin_decoder.c ****     }
ARM GAS  /var/folders/qx/2_175_4n2s19vhvtspjhb3qh0000gn/T//ccPNYKNl.s 			page 20


1026:Drivers/lvgl/src/libs/bin_decoder/lv_bin_decoder.c ****     else {
1027:Drivers/lvgl/src/libs/bin_decoder/lv_bin_decoder.c ****         /*The decompressed data is the original image data.*/
1028:Drivers/lvgl/src/libs/bin_decoder/lv_bin_decoder.c ****         dsc->decoded = decoder_data->decompressed;
1029:Drivers/lvgl/src/libs/bin_decoder/lv_bin_decoder.c **** 
1030:Drivers/lvgl/src/libs/bin_decoder/lv_bin_decoder.c ****         /*Transfer ownership of decompressed to `decoded` since it can be used directly*/
1031:Drivers/lvgl/src/libs/bin_decoder/lv_bin_decoder.c ****         decoder_data->decoded = decoder_data->decompressed;
1032:Drivers/lvgl/src/libs/bin_decoder/lv_bin_decoder.c ****         decoder_data->decompressed = NULL;
1033:Drivers/lvgl/src/libs/bin_decoder/lv_bin_decoder.c ****         res = LV_RESULT_OK;
1034:Drivers/lvgl/src/libs/bin_decoder/lv_bin_decoder.c ****     }
1035:Drivers/lvgl/src/libs/bin_decoder/lv_bin_decoder.c **** 
1036:Drivers/lvgl/src/libs/bin_decoder/lv_bin_decoder.c ****     return res;
1037:Drivers/lvgl/src/libs/bin_decoder/lv_bin_decoder.c **** #else
1038:Drivers/lvgl/src/libs/bin_decoder/lv_bin_decoder.c ****     LV_UNUSED(decompress_image);
  62              		.loc 1 1038 5 view .LVU10
1039:Drivers/lvgl/src/libs/bin_decoder/lv_bin_decoder.c ****     LV_UNUSED(decoder);
  63              		.loc 1 1039 5 view .LVU11
1040:Drivers/lvgl/src/libs/bin_decoder/lv_bin_decoder.c ****     LV_UNUSED(dsc);
  64              		.loc 1 1040 5 view .LVU12
1041:Drivers/lvgl/src/libs/bin_decoder/lv_bin_decoder.c ****     LV_LOG_ERROR("Need LV_BIN_DECODER_RAM_LOAD to be enabled");
  65              		.loc 1 1041 5 view .LVU13
  66              		.loc 1 1041 5 view .LVU14
  67              		.loc 1 1041 5 view .LVU15
1042:Drivers/lvgl/src/libs/bin_decoder/lv_bin_decoder.c ****     return LV_RESULT_INVALID;
  68              		.loc 1 1042 5 view .LVU16
1043:Drivers/lvgl/src/libs/bin_decoder/lv_bin_decoder.c **** #endif
1044:Drivers/lvgl/src/libs/bin_decoder/lv_bin_decoder.c **** }
  69              		.loc 1 1044 1 is_stmt 0 view .LVU17
  70 0000 0020     		movs	r0, #0
  71              	.LVL3:
  72              		.loc 1 1044 1 view .LVU18
  73 0002 7047     		bx	lr
  74              		.cfi_endproc
  75              	.LFE204:
  77              		.section	.text.decode_indexed_line,"ax",%progbits
  78              		.align	1
  79              		.syntax unified
  80              		.thumb
  81              		.thumb_func
  83              	decode_indexed_line:
  84              	.LVL4:
  85              	.LFB205:
1045:Drivers/lvgl/src/libs/bin_decoder/lv_bin_decoder.c **** 
1046:Drivers/lvgl/src/libs/bin_decoder/lv_bin_decoder.c **** static lv_result_t decode_indexed_line(lv_color_format_t color_format, const lv_color32_t * palette
1047:Drivers/lvgl/src/libs/bin_decoder/lv_bin_decoder.c ****                                        int32_t w_px, const uint8_t * in, lv_color32_t * out)
1048:Drivers/lvgl/src/libs/bin_decoder/lv_bin_decoder.c **** {
  86              		.loc 1 1048 1 is_stmt 1 view -0
  87              		.cfi_startproc
  88              		@ args = 8, pretend = 0, frame = 0
  89              		@ frame_needed = 0, uses_anonymous_args = 0
  90              		.loc 1 1048 1 is_stmt 0 view .LVU20
  91 0000 70B5     		push	{r4, r5, r6, lr}
  92              	.LCFI0:
  93              		.cfi_def_cfa_offset 16
  94              		.cfi_offset 4, -16
  95              		.cfi_offset 5, -12
  96              		.cfi_offset 6, -8
  97              		.cfi_offset 14, -4
ARM GAS  /var/folders/qx/2_175_4n2s19vhvtspjhb3qh0000gn/T//ccPNYKNl.s 			page 21


  98 0002 059E     		ldr	r6, [sp, #20]
1049:Drivers/lvgl/src/libs/bin_decoder/lv_bin_decoder.c ****     uint8_t px_size;
  99              		.loc 1 1049 5 is_stmt 1 view .LVU21
1050:Drivers/lvgl/src/libs/bin_decoder/lv_bin_decoder.c ****     uint16_t mask;
 100              		.loc 1 1050 5 view .LVU22
1051:Drivers/lvgl/src/libs/bin_decoder/lv_bin_decoder.c **** 
1052:Drivers/lvgl/src/libs/bin_decoder/lv_bin_decoder.c ****     int8_t shift   = 0;
 101              		.loc 1 1052 5 view .LVU23
 102              	.LVL5:
1053:Drivers/lvgl/src/libs/bin_decoder/lv_bin_decoder.c ****     switch(color_format) {
 103              		.loc 1 1053 5 view .LVU24
 104 0004 0738     		subs	r0, r0, #7
 105              	.LVL6:
 106              		.loc 1 1053 5 is_stmt 0 view .LVU25
 107 0006 0328     		cmp	r0, #3
 108 0008 4ED8     		bhi	.L16
 109 000a DFE800F0 		tbb	[pc, r0]
 110              	.L6:
 111 000e 02       		.byte	(.L9-.L6)/2
 112 000f 16       		.byte	(.L8-.L6)/2
 113 0010 24       		.byte	(.L7-.L6)/2
 114 0011 2F       		.byte	(.L5-.L6)/2
 115              		.p2align 1
 116              	.L9:
1054:Drivers/lvgl/src/libs/bin_decoder/lv_bin_decoder.c ****         case LV_COLOR_FORMAT_I1:
1055:Drivers/lvgl/src/libs/bin_decoder/lv_bin_decoder.c ****             px_size = 1;
 117              		.loc 1 1055 13 is_stmt 1 view .LVU26
 118              	.LVL7:
1056:Drivers/lvgl/src/libs/bin_decoder/lv_bin_decoder.c ****             in += x / 8;                /*8pixel per byte*/
 119              		.loc 1 1056 13 view .LVU27
 120              		.loc 1 1056 21 is_stmt 0 view .LVU28
 121 0012 1046     		mov	r0, r2
 122              	.LVL8:
 123              		.loc 1 1056 21 view .LVU29
 124 0014 002A     		cmp	r2, #0
 125 0016 0EDB     		blt	.L18
 126              	.L10:
 127              		.loc 1 1056 16 view .LVU30
 128 0018 049C     		ldr	r4, [sp, #16]
 129 001a 04EBE00E 		add	lr, r4, r0, asr #3
 130              	.LVL9:
1057:Drivers/lvgl/src/libs/bin_decoder/lv_bin_decoder.c ****             shift = 7 - (x & 0x7);
 131              		.loc 1 1057 13 is_stmt 1 view .LVU31
 132              		.loc 1 1057 23 is_stmt 0 view .LVU32
 133 001e D243     		mvns	r2, r2
 134              	.LVL10:
 135              		.loc 1 1057 19 view .LVU33
 136 0020 02F00700 		and	r0, r2, #7
 137              	.LVL11:
1058:Drivers/lvgl/src/libs/bin_decoder/lv_bin_decoder.c ****             break;
 138              		.loc 1 1058 13 is_stmt 1 view .LVU34
1055:Drivers/lvgl/src/libs/bin_decoder/lv_bin_decoder.c ****             in += x / 8;                /*8pixel per byte*/
 139              		.loc 1 1055 21 is_stmt 0 view .LVU35
 140 0024 0125     		movs	r5, #1
 141              	.LVL12:
 142              	.L11:
1059:Drivers/lvgl/src/libs/bin_decoder/lv_bin_decoder.c ****         case LV_COLOR_FORMAT_I2:
ARM GAS  /var/folders/qx/2_175_4n2s19vhvtspjhb3qh0000gn/T//ccPNYKNl.s 			page 22


1060:Drivers/lvgl/src/libs/bin_decoder/lv_bin_decoder.c ****             px_size = 2;
1061:Drivers/lvgl/src/libs/bin_decoder/lv_bin_decoder.c ****             in += x / 4;                /*4pixel per byte*/
1062:Drivers/lvgl/src/libs/bin_decoder/lv_bin_decoder.c ****             shift = 6 - 2 * (x & 0x3);
1063:Drivers/lvgl/src/libs/bin_decoder/lv_bin_decoder.c ****             break;
1064:Drivers/lvgl/src/libs/bin_decoder/lv_bin_decoder.c ****         case LV_COLOR_FORMAT_I4:
1065:Drivers/lvgl/src/libs/bin_decoder/lv_bin_decoder.c ****             px_size = 4;
1066:Drivers/lvgl/src/libs/bin_decoder/lv_bin_decoder.c ****             in += x / 2;                /*2pixel per byte*/
1067:Drivers/lvgl/src/libs/bin_decoder/lv_bin_decoder.c ****             shift = 4 - 4 * (x & 0x1);
1068:Drivers/lvgl/src/libs/bin_decoder/lv_bin_decoder.c ****             break;
1069:Drivers/lvgl/src/libs/bin_decoder/lv_bin_decoder.c ****         case LV_COLOR_FORMAT_I8:
1070:Drivers/lvgl/src/libs/bin_decoder/lv_bin_decoder.c ****             px_size = 8;
1071:Drivers/lvgl/src/libs/bin_decoder/lv_bin_decoder.c ****             in += x;
1072:Drivers/lvgl/src/libs/bin_decoder/lv_bin_decoder.c ****             shift = 0;
1073:Drivers/lvgl/src/libs/bin_decoder/lv_bin_decoder.c ****             break;
1074:Drivers/lvgl/src/libs/bin_decoder/lv_bin_decoder.c ****         default:
1075:Drivers/lvgl/src/libs/bin_decoder/lv_bin_decoder.c ****             return LV_RESULT_INVALID;
1076:Drivers/lvgl/src/libs/bin_decoder/lv_bin_decoder.c ****     }
1077:Drivers/lvgl/src/libs/bin_decoder/lv_bin_decoder.c **** 
1078:Drivers/lvgl/src/libs/bin_decoder/lv_bin_decoder.c ****     mask   = (1 << px_size) - 1; /*E.g. px_size = 2; mask = 0x03*/
 143              		.loc 1 1078 5 is_stmt 1 view .LVU36
 144              		.loc 1 1078 17 is_stmt 0 view .LVU37
 145 0026 0124     		movs	r4, #1
 146 0028 AC40     		lsls	r4, r4, r5
 147              		.loc 1 1078 29 view .LVU38
 148 002a A4B2     		uxth	r4, r4
 149              		.loc 1 1078 12 view .LVU39
 150 002c 013C     		subs	r4, r4, #1
 151 002e A4B2     		uxth	r4, r4
 152              	.LVL13:
1079:Drivers/lvgl/src/libs/bin_decoder/lv_bin_decoder.c **** 
1080:Drivers/lvgl/src/libs/bin_decoder/lv_bin_decoder.c ****     int32_t i;
 153              		.loc 1 1080 5 is_stmt 1 view .LVU40
1081:Drivers/lvgl/src/libs/bin_decoder/lv_bin_decoder.c ****     for(i = 0; i < w_px; i++) {
 154              		.loc 1 1081 5 view .LVU41
 155              		.loc 1 1081 11 is_stmt 0 view .LVU42
 156 0030 4FF0000C 		mov	ip, #0
 157              		.loc 1 1081 5 view .LVU43
 158 0034 26E0     		b	.L13
 159              	.LVL14:
 160              	.L18:
1056:Drivers/lvgl/src/libs/bin_decoder/lv_bin_decoder.c ****             shift = 7 - (x & 0x7);
 161              		.loc 1 1056 21 view .LVU44
 162 0036 D01D     		adds	r0, r2, #7
 163              	.LVL15:
1056:Drivers/lvgl/src/libs/bin_decoder/lv_bin_decoder.c ****             shift = 7 - (x & 0x7);
 164              		.loc 1 1056 21 view .LVU45
 165 0038 EEE7     		b	.L10
 166              	.LVL16:
 167              	.L8:
1060:Drivers/lvgl/src/libs/bin_decoder/lv_bin_decoder.c ****             in += x / 4;                /*4pixel per byte*/
 168              		.loc 1 1060 13 is_stmt 1 view .LVU46
1061:Drivers/lvgl/src/libs/bin_decoder/lv_bin_decoder.c ****             shift = 6 - 2 * (x & 0x3);
 169              		.loc 1 1061 13 view .LVU47
1061:Drivers/lvgl/src/libs/bin_decoder/lv_bin_decoder.c ****             shift = 6 - 2 * (x & 0x3);
 170              		.loc 1 1061 21 is_stmt 0 view .LVU48
 171 003a 1046     		mov	r0, r2
 172 003c 002A     		cmp	r2, #0
ARM GAS  /var/folders/qx/2_175_4n2s19vhvtspjhb3qh0000gn/T//ccPNYKNl.s 			page 23


 173 003e 08DB     		blt	.L19
 174              	.L12:
1061:Drivers/lvgl/src/libs/bin_decoder/lv_bin_decoder.c ****             shift = 6 - 2 * (x & 0x3);
 175              		.loc 1 1061 16 view .LVU49
 176 0040 049C     		ldr	r4, [sp, #16]
 177 0042 04EBA00E 		add	lr, r4, r0, asr #2
 178              	.LVL17:
1062:Drivers/lvgl/src/libs/bin_decoder/lv_bin_decoder.c ****             break;
 179              		.loc 1 1062 13 is_stmt 1 view .LVU50
1062:Drivers/lvgl/src/libs/bin_decoder/lv_bin_decoder.c ****             break;
 180              		.loc 1 1062 23 is_stmt 0 view .LVU51
 181 0046 D043     		mvns	r0, r2
1062:Drivers/lvgl/src/libs/bin_decoder/lv_bin_decoder.c ****             break;
 182              		.loc 1 1062 19 view .LVU52
 183 0048 00F00300 		and	r0, r0, #3
 184 004c 4000     		lsls	r0, r0, #1
 185              	.LVL18:
1063:Drivers/lvgl/src/libs/bin_decoder/lv_bin_decoder.c ****         case LV_COLOR_FORMAT_I4:
 186              		.loc 1 1063 13 is_stmt 1 view .LVU53
1060:Drivers/lvgl/src/libs/bin_decoder/lv_bin_decoder.c ****             in += x / 4;                /*4pixel per byte*/
 187              		.loc 1 1060 21 is_stmt 0 view .LVU54
 188 004e 0225     		movs	r5, #2
1063:Drivers/lvgl/src/libs/bin_decoder/lv_bin_decoder.c ****         case LV_COLOR_FORMAT_I4:
 189              		.loc 1 1063 13 view .LVU55
 190 0050 E9E7     		b	.L11
 191              	.LVL19:
 192              	.L19:
1061:Drivers/lvgl/src/libs/bin_decoder/lv_bin_decoder.c ****             shift = 6 - 2 * (x & 0x3);
 193              		.loc 1 1061 21 view .LVU56
 194 0052 D01C     		adds	r0, r2, #3
 195              	.LVL20:
1061:Drivers/lvgl/src/libs/bin_decoder/lv_bin_decoder.c ****             shift = 6 - 2 * (x & 0x3);
 196              		.loc 1 1061 21 view .LVU57
 197 0054 F4E7     		b	.L12
 198              	.LVL21:
 199              	.L7:
1065:Drivers/lvgl/src/libs/bin_decoder/lv_bin_decoder.c ****             in += x / 2;                /*2pixel per byte*/
 200              		.loc 1 1065 13 is_stmt 1 view .LVU58
1066:Drivers/lvgl/src/libs/bin_decoder/lv_bin_decoder.c ****             shift = 4 - 4 * (x & 0x1);
 201              		.loc 1 1066 13 view .LVU59
1066:Drivers/lvgl/src/libs/bin_decoder/lv_bin_decoder.c ****             shift = 4 - 4 * (x & 0x1);
 202              		.loc 1 1066 21 is_stmt 0 view .LVU60
 203 0056 02EBD270 		add	r0, r2, r2, lsr #31
1066:Drivers/lvgl/src/libs/bin_decoder/lv_bin_decoder.c ****             shift = 4 - 4 * (x & 0x1);
 204              		.loc 1 1066 16 view .LVU61
 205 005a 049C     		ldr	r4, [sp, #16]
 206 005c 04EB600E 		add	lr, r4, r0, asr #1
 207              	.LVL22:
1067:Drivers/lvgl/src/libs/bin_decoder/lv_bin_decoder.c ****             break;
 208              		.loc 1 1067 13 is_stmt 1 view .LVU62
1067:Drivers/lvgl/src/libs/bin_decoder/lv_bin_decoder.c ****             break;
 209              		.loc 1 1067 23 is_stmt 0 view .LVU63
 210 0060 D043     		mvns	r0, r2
1067:Drivers/lvgl/src/libs/bin_decoder/lv_bin_decoder.c ****             break;
 211              		.loc 1 1067 19 view .LVU64
 212 0062 00F00100 		and	r0, r0, #1
 213 0066 8000     		lsls	r0, r0, #2
ARM GAS  /var/folders/qx/2_175_4n2s19vhvtspjhb3qh0000gn/T//ccPNYKNl.s 			page 24


 214              	.LVL23:
1068:Drivers/lvgl/src/libs/bin_decoder/lv_bin_decoder.c ****         case LV_COLOR_FORMAT_I8:
 215              		.loc 1 1068 13 is_stmt 1 view .LVU65
1065:Drivers/lvgl/src/libs/bin_decoder/lv_bin_decoder.c ****             in += x / 2;                /*2pixel per byte*/
 216              		.loc 1 1065 21 is_stmt 0 view .LVU66
 217 0068 0425     		movs	r5, #4
1068:Drivers/lvgl/src/libs/bin_decoder/lv_bin_decoder.c ****         case LV_COLOR_FORMAT_I8:
 218              		.loc 1 1068 13 view .LVU67
 219 006a DCE7     		b	.L11
 220              	.LVL24:
 221              	.L5:
1070:Drivers/lvgl/src/libs/bin_decoder/lv_bin_decoder.c ****             in += x;
 222              		.loc 1 1070 13 is_stmt 1 view .LVU68
1071:Drivers/lvgl/src/libs/bin_decoder/lv_bin_decoder.c ****             shift = 0;
 223              		.loc 1 1071 13 view .LVU69
1071:Drivers/lvgl/src/libs/bin_decoder/lv_bin_decoder.c ****             shift = 0;
 224              		.loc 1 1071 16 is_stmt 0 view .LVU70
 225 006c 0498     		ldr	r0, [sp, #16]
 226 006e 00EB020E 		add	lr, r0, r2
 227              	.LVL25:
1072:Drivers/lvgl/src/libs/bin_decoder/lv_bin_decoder.c ****             break;
 228              		.loc 1 1072 13 is_stmt 1 view .LVU71
1073:Drivers/lvgl/src/libs/bin_decoder/lv_bin_decoder.c ****         default:
 229              		.loc 1 1073 13 view .LVU72
1072:Drivers/lvgl/src/libs/bin_decoder/lv_bin_decoder.c ****             break;
 230              		.loc 1 1072 19 is_stmt 0 view .LVU73
 231 0072 0020     		movs	r0, #0
1070:Drivers/lvgl/src/libs/bin_decoder/lv_bin_decoder.c ****             in += x;
 232              		.loc 1 1070 21 view .LVU74
 233 0074 0825     		movs	r5, #8
1073:Drivers/lvgl/src/libs/bin_decoder/lv_bin_decoder.c ****         default:
 234              		.loc 1 1073 13 view .LVU75
 235 0076 D6E7     		b	.L11
 236              	.LVL26:
 237              	.L21:
 238              	.LBB18:
1082:Drivers/lvgl/src/libs/bin_decoder/lv_bin_decoder.c ****         uint8_t val_act = (*in >> shift) & mask;
1083:Drivers/lvgl/src/libs/bin_decoder/lv_bin_decoder.c ****         out[i] = palette[val_act];
1084:Drivers/lvgl/src/libs/bin_decoder/lv_bin_decoder.c **** 
1085:Drivers/lvgl/src/libs/bin_decoder/lv_bin_decoder.c ****         shift -= px_size;
1086:Drivers/lvgl/src/libs/bin_decoder/lv_bin_decoder.c ****         if(shift < 0) {
1087:Drivers/lvgl/src/libs/bin_decoder/lv_bin_decoder.c ****             shift = 8 - px_size;
 239              		.loc 1 1087 13 is_stmt 1 view .LVU76
 240              		.loc 1 1087 19 is_stmt 0 view .LVU77
 241 0078 C5F10800 		rsb	r0, r5, #8
 242              	.LVL27:
1088:Drivers/lvgl/src/libs/bin_decoder/lv_bin_decoder.c ****             in++;
 243              		.loc 1 1088 13 is_stmt 1 view .LVU78
 244              		.loc 1 1088 15 is_stmt 0 view .LVU79
 245 007c 0EF1010E 		add	lr, lr, #1
 246              	.LVL28:
 247              	.L14:
 248              		.loc 1 1088 15 view .LVU80
 249              	.LBE18:
1081:Drivers/lvgl/src/libs/bin_decoder/lv_bin_decoder.c ****         uint8_t val_act = (*in >> shift) & mask;
 250              		.loc 1 1081 27 is_stmt 1 discriminator 2 view .LVU81
 251 0080 0CF1010C 		add	ip, ip, #1
ARM GAS  /var/folders/qx/2_175_4n2s19vhvtspjhb3qh0000gn/T//ccPNYKNl.s 			page 25


 252              	.LVL29:
 253              	.L13:
1081:Drivers/lvgl/src/libs/bin_decoder/lv_bin_decoder.c ****         uint8_t val_act = (*in >> shift) & mask;
 254              		.loc 1 1081 18 discriminator 1 view .LVU82
 255 0084 9C45     		cmp	ip, r3
 256 0086 0DDA     		bge	.L20
 257              	.LBB19:
1082:Drivers/lvgl/src/libs/bin_decoder/lv_bin_decoder.c ****         uint8_t val_act = (*in >> shift) & mask;
 258              		.loc 1 1082 9 view .LVU83
1082:Drivers/lvgl/src/libs/bin_decoder/lv_bin_decoder.c ****         uint8_t val_act = (*in >> shift) & mask;
 259              		.loc 1 1082 28 is_stmt 0 view .LVU84
 260 0088 9EF80020 		ldrb	r2, [lr]	@ zero_extendqisi2
1082:Drivers/lvgl/src/libs/bin_decoder/lv_bin_decoder.c ****         uint8_t val_act = (*in >> shift) & mask;
 261              		.loc 1 1082 32 view .LVU85
 262 008c 0241     		asrs	r2, r2, r0
1082:Drivers/lvgl/src/libs/bin_decoder/lv_bin_decoder.c ****         uint8_t val_act = (*in >> shift) & mask;
 263              		.loc 1 1082 42 view .LVU86
 264 008e 2240     		ands	r2, r2, r4
1082:Drivers/lvgl/src/libs/bin_decoder/lv_bin_decoder.c ****         uint8_t val_act = (*in >> shift) & mask;
 265              		.loc 1 1082 17 view .LVU87
 266 0090 D2B2     		uxtb	r2, r2
 267              	.LVL30:
1083:Drivers/lvgl/src/libs/bin_decoder/lv_bin_decoder.c **** 
 268              		.loc 1 1083 9 is_stmt 1 view .LVU88
1083:Drivers/lvgl/src/libs/bin_decoder/lv_bin_decoder.c **** 
 269              		.loc 1 1083 16 is_stmt 0 view .LVU89
 270 0092 51F82220 		ldr	r2, [r1, r2, lsl #2]	@ unaligned
 271              	.LVL31:
1083:Drivers/lvgl/src/libs/bin_decoder/lv_bin_decoder.c **** 
 272              		.loc 1 1083 16 view .LVU90
 273 0096 46F82C20 		str	r2, [r6, ip, lsl #2]	@ unaligned
 274              	.LVL32:
1085:Drivers/lvgl/src/libs/bin_decoder/lv_bin_decoder.c ****         if(shift < 0) {
 275              		.loc 1 1085 9 is_stmt 1 view .LVU91
1085:Drivers/lvgl/src/libs/bin_decoder/lv_bin_decoder.c ****         if(shift < 0) {
 276              		.loc 1 1085 15 is_stmt 0 view .LVU92
 277 009a 401B     		subs	r0, r0, r5
 278              	.LVL33:
1085:Drivers/lvgl/src/libs/bin_decoder/lv_bin_decoder.c ****         if(shift < 0) {
 279              		.loc 1 1085 15 view .LVU93
 280 009c 40B2     		sxtb	r0, r0
 281              	.LVL34:
1086:Drivers/lvgl/src/libs/bin_decoder/lv_bin_decoder.c ****             shift = 8 - px_size;
 282              		.loc 1 1086 9 is_stmt 1 view .LVU94
1086:Drivers/lvgl/src/libs/bin_decoder/lv_bin_decoder.c ****             shift = 8 - px_size;
 283              		.loc 1 1086 11 is_stmt 0 view .LVU95
 284 009e 0028     		cmp	r0, #0
 285 00a0 EEDA     		bge	.L14
 286 00a2 E9E7     		b	.L21
 287              	.LVL35:
 288              	.L20:
1086:Drivers/lvgl/src/libs/bin_decoder/lv_bin_decoder.c ****             shift = 8 - px_size;
 289              		.loc 1 1086 11 view .LVU96
 290              	.LBE19:
1089:Drivers/lvgl/src/libs/bin_decoder/lv_bin_decoder.c ****         }
1090:Drivers/lvgl/src/libs/bin_decoder/lv_bin_decoder.c ****     }
1091:Drivers/lvgl/src/libs/bin_decoder/lv_bin_decoder.c ****     return LV_RESULT_OK;
ARM GAS  /var/folders/qx/2_175_4n2s19vhvtspjhb3qh0000gn/T//ccPNYKNl.s 			page 26


 291              		.loc 1 1091 12 view .LVU97
 292 00a4 0120     		movs	r0, #1
 293              	.LVL36:
 294              	.L4:
1092:Drivers/lvgl/src/libs/bin_decoder/lv_bin_decoder.c **** }
 295              		.loc 1 1092 1 view .LVU98
 296 00a6 70BD     		pop	{r4, r5, r6, pc}
 297              	.LVL37:
 298              	.L16:
1053:Drivers/lvgl/src/libs/bin_decoder/lv_bin_decoder.c ****         case LV_COLOR_FORMAT_I1:
 299              		.loc 1 1053 5 view .LVU99
 300 00a8 0020     		movs	r0, #0
 301 00aa FCE7     		b	.L4
 302              		.cfi_endproc
 303              	.LFE205:
 305              		.section	.rodata.lv_bin_decoder_info.str1.4,"aMS",%progbits,1
 306              		.align	2
 307              	.LC0:
 308 0000 62696E00 		.ascii	"bin\000"
 309              		.section	.text.lv_bin_decoder_info,"ax",%progbits
 310              		.align	1
 311              		.global	lv_bin_decoder_info
 312              		.syntax unified
 313              		.thumb
 314              		.thumb_func
 316              	lv_bin_decoder_info:
 317              	.LVL38:
 318              	.LFB194:
 115:Drivers/lvgl/src/libs/bin_decoder/lv_bin_decoder.c ****     LV_UNUSED(decoder); /*Unused*/
 319              		.loc 1 115 1 is_stmt 1 view -0
 320              		.cfi_startproc
 321              		@ args = 0, pretend = 0, frame = 8
 322              		@ frame_needed = 0, uses_anonymous_args = 0
 115:Drivers/lvgl/src/libs/bin_decoder/lv_bin_decoder.c ****     LV_UNUSED(decoder); /*Unused*/
 323              		.loc 1 115 1 is_stmt 0 view .LVU101
 324 0000 30B5     		push	{r4, r5, lr}
 325              	.LCFI1:
 326              		.cfi_def_cfa_offset 12
 327              		.cfi_offset 4, -12
 328              		.cfi_offset 5, -8
 329              		.cfi_offset 14, -4
 330 0002 83B0     		sub	sp, sp, #12
 331              	.LCFI2:
 332              		.cfi_def_cfa_offset 24
 333 0004 0D46     		mov	r5, r1
 334 0006 1446     		mov	r4, r2
 116:Drivers/lvgl/src/libs/bin_decoder/lv_bin_decoder.c **** 
 335              		.loc 1 116 5 is_stmt 1 view .LVU102
 118:Drivers/lvgl/src/libs/bin_decoder/lv_bin_decoder.c ****     lv_image_src_t src_type = dsc->src_type;
 336              		.loc 1 118 5 view .LVU103
 118:Drivers/lvgl/src/libs/bin_decoder/lv_bin_decoder.c ****     lv_image_src_t src_type = dsc->src_type;
 337              		.loc 1 118 18 is_stmt 0 view .LVU104
 338 0008 C968     		ldr	r1, [r1, #12]
 339              	.LVL39:
 119:Drivers/lvgl/src/libs/bin_decoder/lv_bin_decoder.c **** 
 340              		.loc 1 119 5 is_stmt 1 view .LVU105
 119:Drivers/lvgl/src/libs/bin_decoder/lv_bin_decoder.c **** 
ARM GAS  /var/folders/qx/2_175_4n2s19vhvtspjhb3qh0000gn/T//ccPNYKNl.s 			page 27


 341              		.loc 1 119 20 is_stmt 0 view .LVU106
 342 000a 2B7C     		ldrb	r3, [r5, #16]	@ zero_extendqisi2
 343              	.LVL40:
 121:Drivers/lvgl/src/libs/bin_decoder/lv_bin_decoder.c ****         lv_image_dsc_t * image = (lv_image_dsc_t *)src;
 344              		.loc 1 121 5 is_stmt 1 view .LVU107
 121:Drivers/lvgl/src/libs/bin_decoder/lv_bin_decoder.c ****         lv_image_dsc_t * image = (lv_image_dsc_t *)src;
 345              		.loc 1 121 7 is_stmt 0 view .LVU108
 346 000c 4BB1     		cbz	r3, .L32
 125:Drivers/lvgl/src/libs/bin_decoder/lv_bin_decoder.c ****         /*Support only "*.bin" files*/
 347              		.loc 1 125 10 is_stmt 1 view .LVU109
 125:Drivers/lvgl/src/libs/bin_decoder/lv_bin_decoder.c ****         /*Support only "*.bin" files*/
 348              		.loc 1 125 12 is_stmt 0 view .LVU110
 349 000e 012B     		cmp	r3, #1
 350 0010 17D0     		beq	.L33
 152:Drivers/lvgl/src/libs/bin_decoder/lv_bin_decoder.c ****         /*The size depend on the font but it is unknown here. It should be handled outside of the
 351              		.loc 1 152 10 is_stmt 1 view .LVU111
 152:Drivers/lvgl/src/libs/bin_decoder/lv_bin_decoder.c ****         /*The size depend on the font but it is unknown here. It should be handled outside of the
 352              		.loc 1 152 12 is_stmt 0 view .LVU112
 353 0012 022B     		cmp	r3, #2
 354 0014 35D1     		bne	.L29
 155:Drivers/lvgl/src/libs/bin_decoder/lv_bin_decoder.c ****         header->h = 1;
 355              		.loc 1 155 9 is_stmt 1 view .LVU113
 155:Drivers/lvgl/src/libs/bin_decoder/lv_bin_decoder.c ****         header->h = 1;
 356              		.loc 1 155 19 is_stmt 0 view .LVU114
 357 0016 0123     		movs	r3, #1
 358              	.LVL41:
 155:Drivers/lvgl/src/libs/bin_decoder/lv_bin_decoder.c ****         header->h = 1;
 359              		.loc 1 155 19 view .LVU115
 360 0018 9380     		strh	r3, [r2, #4]	@ movhi
 361              	.LVL42:
 156:Drivers/lvgl/src/libs/bin_decoder/lv_bin_decoder.c ****         /*Symbols always have transparent parts. Important because of cover check in the draw
 362              		.loc 1 156 9 is_stmt 1 view .LVU116
 156:Drivers/lvgl/src/libs/bin_decoder/lv_bin_decoder.c ****         /*Symbols always have transparent parts. Important because of cover check in the draw
 363              		.loc 1 156 19 is_stmt 0 view .LVU117
 364 001a D380     		strh	r3, [r2, #6]	@ movhi
 159:Drivers/lvgl/src/libs/bin_decoder/lv_bin_decoder.c ****     }
 365              		.loc 1 159 9 is_stmt 1 view .LVU118
 159:Drivers/lvgl/src/libs/bin_decoder/lv_bin_decoder.c ****     }
 366              		.loc 1 159 20 is_stmt 0 view .LVU119
 367 001c 0E23     		movs	r3, #14
 368 001e 5370     		strb	r3, [r2, #1]
 369 0020 03E0     		b	.L24
 370              	.LVL43:
 371              	.L32:
 372              	.LBB20:
 122:Drivers/lvgl/src/libs/bin_decoder/lv_bin_decoder.c ****         lv_memcpy(header, &image->header, sizeof(lv_image_header_t));
 373              		.loc 1 122 9 is_stmt 1 view .LVU120
 123:Drivers/lvgl/src/libs/bin_decoder/lv_bin_decoder.c ****     }
 374              		.loc 1 123 9 view .LVU121
 375 0022 0C22     		movs	r2, #12
 376              	.LVL44:
 123:Drivers/lvgl/src/libs/bin_decoder/lv_bin_decoder.c ****     }
 377              		.loc 1 123 9 is_stmt 0 view .LVU122
 378 0024 2046     		mov	r0, r4
 379              	.LVL45:
 123:Drivers/lvgl/src/libs/bin_decoder/lv_bin_decoder.c ****     }
 380              		.loc 1 123 9 view .LVU123
ARM GAS  /var/folders/qx/2_175_4n2s19vhvtspjhb3qh0000gn/T//ccPNYKNl.s 			page 28


 381 0026 FFF7FEFF 		bl	lv_memcpy
 382              	.LVL46:
 383              	.L24:
 123:Drivers/lvgl/src/libs/bin_decoder/lv_bin_decoder.c ****     }
 384              		.loc 1 123 9 view .LVU124
 385              	.LBE20:
 166:Drivers/lvgl/src/libs/bin_decoder/lv_bin_decoder.c ****         LV_LOG_WARN("Image color format is unknown");
 386              		.loc 1 166 5 is_stmt 1 view .LVU125
 166:Drivers/lvgl/src/libs/bin_decoder/lv_bin_decoder.c ****         LV_LOG_WARN("Image color format is unknown");
 387              		.loc 1 166 14 is_stmt 0 view .LVU126
 388 002a 6078     		ldrb	r0, [r4, #1]	@ zero_extendqisi2
 166:Drivers/lvgl/src/libs/bin_decoder/lv_bin_decoder.c ****         LV_LOG_WARN("Image color format is unknown");
 389              		.loc 1 166 7 view .LVU127
 390 002c 38B1     		cbz	r0, .L28
 172:Drivers/lvgl/src/libs/bin_decoder/lv_bin_decoder.c ****         header->flags &= ~LV_IMAGE_FLAGS_PREMULTIPLIED;
 391              		.loc 1 172 5 is_stmt 1 view .LVU128
 172:Drivers/lvgl/src/libs/bin_decoder/lv_bin_decoder.c ****         header->flags &= ~LV_IMAGE_FLAGS_PREMULTIPLIED;
 392              		.loc 1 172 14 is_stmt 0 view .LVU129
 393 002e 2378     		ldrb	r3, [r4]	@ zero_extendqisi2
 172:Drivers/lvgl/src/libs/bin_decoder/lv_bin_decoder.c ****         header->flags &= ~LV_IMAGE_FLAGS_PREMULTIPLIED;
 394              		.loc 1 172 7 view .LVU130
 395 0030 192B     		cmp	r3, #25
 396 0032 28D0     		beq	.L30
 173:Drivers/lvgl/src/libs/bin_decoder/lv_bin_decoder.c ****     }
 397              		.loc 1 173 9 is_stmt 1 view .LVU131
 173:Drivers/lvgl/src/libs/bin_decoder/lv_bin_decoder.c ****     }
 398              		.loc 1 173 15 is_stmt 0 view .LVU132
 399 0034 6388     		ldrh	r3, [r4, #2]
 173:Drivers/lvgl/src/libs/bin_decoder/lv_bin_decoder.c ****     }
 400              		.loc 1 173 23 view .LVU133
 401 0036 23F00103 		bic	r3, r3, #1
 402 003a 6380     		strh	r3, [r4, #2]	@ movhi
 176:Drivers/lvgl/src/libs/bin_decoder/lv_bin_decoder.c **** }
 403              		.loc 1 176 12 view .LVU134
 404 003c 0120     		movs	r0, #1
 405              	.L28:
 177:Drivers/lvgl/src/libs/bin_decoder/lv_bin_decoder.c **** 
 406              		.loc 1 177 1 view .LVU135
 407 003e 03B0     		add	sp, sp, #12
 408              	.LCFI3:
 409              		.cfi_remember_state
 410              		.cfi_def_cfa_offset 12
 411              		@ sp needed
 412 0040 30BD     		pop	{r4, r5, pc}
 413              	.LVL47:
 414              	.L33:
 415              	.LCFI4:
 416              		.cfi_restore_state
 417              	.LBB21:
 127:Drivers/lvgl/src/libs/bin_decoder/lv_bin_decoder.c **** 
 418              		.loc 1 127 9 is_stmt 1 view .LVU136
 127:Drivers/lvgl/src/libs/bin_decoder/lv_bin_decoder.c **** 
 419              		.loc 1 127 12 is_stmt 0 view .LVU137
 420 0042 0846     		mov	r0, r1
 421              	.LVL48:
 127:Drivers/lvgl/src/libs/bin_decoder/lv_bin_decoder.c **** 
 422              		.loc 1 127 12 view .LVU138
ARM GAS  /var/folders/qx/2_175_4n2s19vhvtspjhb3qh0000gn/T//ccPNYKNl.s 			page 29


 423 0044 FFF7FEFF 		bl	lv_fs_get_ext
 424              	.LVL49:
 127:Drivers/lvgl/src/libs/bin_decoder/lv_bin_decoder.c **** 
 425              		.loc 1 127 12 discriminator 1 view .LVU139
 426 0048 1049     		ldr	r1, .L35
 427 004a FFF7FEFF 		bl	lv_strcmp
 428              	.LVL50:
 127:Drivers/lvgl/src/libs/bin_decoder/lv_bin_decoder.c **** 
 429              		.loc 1 127 11 discriminator 2 view .LVU140
 430 004e 08B1     		cbz	r0, .L34
 431              	.L26:
 127:Drivers/lvgl/src/libs/bin_decoder/lv_bin_decoder.c **** 
 432              		.loc 1 127 57 discriminator 2 view .LVU141
 433 0050 0020     		movs	r0, #0
 434 0052 F4E7     		b	.L28
 435              	.L34:
 129:Drivers/lvgl/src/libs/bin_decoder/lv_bin_decoder.c ****         uint32_t rn;
 436              		.loc 1 129 9 is_stmt 1 view .LVU142
 130:Drivers/lvgl/src/libs/bin_decoder/lv_bin_decoder.c ****         res = lv_fs_read(&dsc->file, header, sizeof(lv_image_header_t), &rn);
 437              		.loc 1 130 9 view .LVU143
 131:Drivers/lvgl/src/libs/bin_decoder/lv_bin_decoder.c **** 
 438              		.loc 1 131 9 view .LVU144
 131:Drivers/lvgl/src/libs/bin_decoder/lv_bin_decoder.c **** 
 439              		.loc 1 131 15 is_stmt 0 view .LVU145
 440 0054 01AB     		add	r3, sp, #4
 441 0056 0C22     		movs	r2, #12
 442 0058 2146     		mov	r1, r4
 443 005a 05F11400 		add	r0, r5, #20
 444 005e FFF7FEFF 		bl	lv_fs_read
 445              	.LVL51:
 133:Drivers/lvgl/src/libs/bin_decoder/lv_bin_decoder.c ****             LV_LOG_WARN("Read file header failed: %d with len: %" LV_PRIu32 ", expected: %zu", res,
 446              		.loc 1 133 9 is_stmt 1 view .LVU146
 133:Drivers/lvgl/src/libs/bin_decoder/lv_bin_decoder.c ****             LV_LOG_WARN("Read file header failed: %d with len: %" LV_PRIu32 ", expected: %zu", res,
 447              		.loc 1 133 11 is_stmt 0 view .LVU147
 448 0062 0028     		cmp	r0, #0
 449 0064 F4D1     		bne	.L26
 133:Drivers/lvgl/src/libs/bin_decoder/lv_bin_decoder.c ****             LV_LOG_WARN("Read file header failed: %d with len: %" LV_PRIu32 ", expected: %zu", res,
 450              		.loc 1 133 38 discriminator 1 view .LVU148
 451 0066 019B     		ldr	r3, [sp, #4]
 133:Drivers/lvgl/src/libs/bin_decoder/lv_bin_decoder.c ****             LV_LOG_WARN("Read file header failed: %d with len: %" LV_PRIu32 ", expected: %zu", res,
 452              		.loc 1 133 32 discriminator 1 view .LVU149
 453 0068 0C2B     		cmp	r3, #12
 454 006a F1D1     		bne	.L26
 143:Drivers/lvgl/src/libs/bin_decoder/lv_bin_decoder.c ****             LV_LOG_WARN("Legacy bin image detected: %s", (char *)src);
 455              		.loc 1 143 9 is_stmt 1 view .LVU150
 143:Drivers/lvgl/src/libs/bin_decoder/lv_bin_decoder.c ****             LV_LOG_WARN("Legacy bin image detected: %s", (char *)src);
 456              		.loc 1 143 18 is_stmt 0 view .LVU151
 457 006c 2378     		ldrb	r3, [r4]	@ zero_extendqisi2
 143:Drivers/lvgl/src/libs/bin_decoder/lv_bin_decoder.c ****             LV_LOG_WARN("Legacy bin image detected: %s", (char *)src);
 458              		.loc 1 143 11 view .LVU152
 459 006e 192B     		cmp	r3, #25
 460 0070 02D0     		beq	.L27
 144:Drivers/lvgl/src/libs/bin_decoder/lv_bin_decoder.c ****             header->cf = header->magic;
 461              		.loc 1 144 13 is_stmt 1 view .LVU153
 144:Drivers/lvgl/src/libs/bin_decoder/lv_bin_decoder.c ****             header->cf = header->magic;
 462              		.loc 1 144 13 view .LVU154
 144:Drivers/lvgl/src/libs/bin_decoder/lv_bin_decoder.c ****             header->cf = header->magic;
ARM GAS  /var/folders/qx/2_175_4n2s19vhvtspjhb3qh0000gn/T//ccPNYKNl.s 			page 30


 463              		.loc 1 144 13 view .LVU155
 145:Drivers/lvgl/src/libs/bin_decoder/lv_bin_decoder.c ****             header->magic = LV_IMAGE_HEADER_MAGIC;
 464              		.loc 1 145 13 view .LVU156
 145:Drivers/lvgl/src/libs/bin_decoder/lv_bin_decoder.c ****             header->magic = LV_IMAGE_HEADER_MAGIC;
 465              		.loc 1 145 24 is_stmt 0 view .LVU157
 466 0072 6370     		strb	r3, [r4, #1]
 146:Drivers/lvgl/src/libs/bin_decoder/lv_bin_decoder.c ****         }
 467              		.loc 1 146 13 is_stmt 1 view .LVU158
 146:Drivers/lvgl/src/libs/bin_decoder/lv_bin_decoder.c ****         }
 468              		.loc 1 146 27 is_stmt 0 view .LVU159
 469 0074 1923     		movs	r3, #25
 470 0076 2370     		strb	r3, [r4]
 471              	.L27:
 150:Drivers/lvgl/src/libs/bin_decoder/lv_bin_decoder.c ****     }
 472              		.loc 1 150 9 is_stmt 1 view .LVU160
 150:Drivers/lvgl/src/libs/bin_decoder/lv_bin_decoder.c ****     }
 473              		.loc 1 150 15 is_stmt 0 view .LVU161
 474 0078 6388     		ldrh	r3, [r4, #2]
 150:Drivers/lvgl/src/libs/bin_decoder/lv_bin_decoder.c ****     }
 475              		.loc 1 150 23 view .LVU162
 476 007a 43F02003 		orr	r3, r3, #32
 477 007e 6380     		strh	r3, [r4, #2]	@ movhi
 478              	.LBE21:
 479 0080 D3E7     		b	.L24
 480              	.LVL52:
 481              	.L29:
 163:Drivers/lvgl/src/libs/bin_decoder/lv_bin_decoder.c ****     }
 482              		.loc 1 163 16 view .LVU163
 483 0082 0020     		movs	r0, #0
 484              	.LVL53:
 163:Drivers/lvgl/src/libs/bin_decoder/lv_bin_decoder.c ****     }
 485              		.loc 1 163 16 view .LVU164
 486 0084 DBE7     		b	.L28
 487              	.LVL54:
 488              	.L30:
 176:Drivers/lvgl/src/libs/bin_decoder/lv_bin_decoder.c **** }
 489              		.loc 1 176 12 view .LVU165
 490 0086 0120     		movs	r0, #1
 491 0088 D9E7     		b	.L28
 492              	.L36:
 493 008a 00BF     		.align	2
 494              	.L35:
 495 008c 00000000 		.word	.LC0
 496              		.cfi_endproc
 497              	.LFE194:
 499              		.section	.text.fs_read_file_at,"ax",%progbits
 500              		.align	1
 501              		.syntax unified
 502              		.thumb
 503              		.thumb_func
 505              	fs_read_file_at:
 506              	.LVL55:
 507              	.LFB206:
1093:Drivers/lvgl/src/libs/bin_decoder/lv_bin_decoder.c **** 
1094:Drivers/lvgl/src/libs/bin_decoder/lv_bin_decoder.c **** static lv_fs_res_t fs_read_file_at(lv_fs_file_t * f, uint32_t pos, void * buff, uint32_t btr, uint3
1095:Drivers/lvgl/src/libs/bin_decoder/lv_bin_decoder.c **** {
 508              		.loc 1 1095 1 is_stmt 1 view -0
ARM GAS  /var/folders/qx/2_175_4n2s19vhvtspjhb3qh0000gn/T//ccPNYKNl.s 			page 31


 509              		.cfi_startproc
 510              		@ args = 4, pretend = 0, frame = 0
 511              		@ frame_needed = 0, uses_anonymous_args = 0
 512              		.loc 1 1095 1 is_stmt 0 view .LVU167
 513 0000 2DE9F041 		push	{r4, r5, r6, r7, r8, lr}
 514              	.LCFI5:
 515              		.cfi_def_cfa_offset 24
 516              		.cfi_offset 4, -24
 517              		.cfi_offset 5, -20
 518              		.cfi_offset 6, -16
 519              		.cfi_offset 7, -12
 520              		.cfi_offset 8, -8
 521              		.cfi_offset 14, -4
 522 0004 0446     		mov	r4, r0
 523 0006 9046     		mov	r8, r2
 524 0008 1E46     		mov	r6, r3
 525 000a 069F     		ldr	r7, [sp, #24]
1096:Drivers/lvgl/src/libs/bin_decoder/lv_bin_decoder.c ****     lv_fs_res_t res;
 526              		.loc 1 1096 5 is_stmt 1 view .LVU168
1097:Drivers/lvgl/src/libs/bin_decoder/lv_bin_decoder.c ****     if(br) *br = 0;
 527              		.loc 1 1097 5 view .LVU169
 528              		.loc 1 1097 7 is_stmt 0 view .LVU170
 529 000c 0FB1     		cbz	r7, .L38
 530              		.loc 1 1097 12 is_stmt 1 discriminator 1 view .LVU171
 531              		.loc 1 1097 16 is_stmt 0 discriminator 1 view .LVU172
 532 000e 0023     		movs	r3, #0
 533              	.LVL56:
 534              		.loc 1 1097 16 discriminator 1 view .LVU173
 535 0010 3B60     		str	r3, [r7]
 536              	.L38:
1098:Drivers/lvgl/src/libs/bin_decoder/lv_bin_decoder.c **** 
1099:Drivers/lvgl/src/libs/bin_decoder/lv_bin_decoder.c ****     res = lv_fs_seek(f, pos, LV_FS_SEEK_SET);
 537              		.loc 1 1099 5 is_stmt 1 view .LVU174
 538              		.loc 1 1099 11 is_stmt 0 view .LVU175
 539 0012 0022     		movs	r2, #0
 540              	.LVL57:
 541              		.loc 1 1099 11 view .LVU176
 542 0014 2046     		mov	r0, r4
 543              	.LVL58:
 544              		.loc 1 1099 11 view .LVU177
 545 0016 FFF7FEFF 		bl	lv_fs_seek
 546              	.LVL59:
1100:Drivers/lvgl/src/libs/bin_decoder/lv_bin_decoder.c ****     if(res != LV_FS_RES_OK) {
 547              		.loc 1 1100 5 is_stmt 1 view .LVU178
 548              		.loc 1 1100 7 is_stmt 0 view .LVU179
 549 001a 0546     		mov	r5, r0
 550 001c 10B1     		cbz	r0, .L41
 551              	.LVL60:
 552              	.L39:
1101:Drivers/lvgl/src/libs/bin_decoder/lv_bin_decoder.c ****         return res;
1102:Drivers/lvgl/src/libs/bin_decoder/lv_bin_decoder.c ****     }
1103:Drivers/lvgl/src/libs/bin_decoder/lv_bin_decoder.c **** 
1104:Drivers/lvgl/src/libs/bin_decoder/lv_bin_decoder.c ****     res |= lv_fs_read(f, buff, btr, br);
1105:Drivers/lvgl/src/libs/bin_decoder/lv_bin_decoder.c ****     if(res != LV_FS_RES_OK) {
1106:Drivers/lvgl/src/libs/bin_decoder/lv_bin_decoder.c ****         return res;
1107:Drivers/lvgl/src/libs/bin_decoder/lv_bin_decoder.c ****     }
1108:Drivers/lvgl/src/libs/bin_decoder/lv_bin_decoder.c **** 
ARM GAS  /var/folders/qx/2_175_4n2s19vhvtspjhb3qh0000gn/T//ccPNYKNl.s 			page 32


1109:Drivers/lvgl/src/libs/bin_decoder/lv_bin_decoder.c ****     return LV_FS_RES_OK;
1110:Drivers/lvgl/src/libs/bin_decoder/lv_bin_decoder.c **** }
 553              		.loc 1 1110 1 view .LVU180
 554 001e 2846     		mov	r0, r5
 555 0020 BDE8F081 		pop	{r4, r5, r6, r7, r8, pc}
 556              	.LVL61:
 557              	.L41:
1104:Drivers/lvgl/src/libs/bin_decoder/lv_bin_decoder.c ****     if(res != LV_FS_RES_OK) {
 558              		.loc 1 1104 5 is_stmt 1 view .LVU181
1104:Drivers/lvgl/src/libs/bin_decoder/lv_bin_decoder.c ****     if(res != LV_FS_RES_OK) {
 559              		.loc 1 1104 12 is_stmt 0 view .LVU182
 560 0024 3B46     		mov	r3, r7
 561 0026 3246     		mov	r2, r6
 562 0028 4146     		mov	r1, r8
 563 002a 2046     		mov	r0, r4
 564              	.LVL62:
1104:Drivers/lvgl/src/libs/bin_decoder/lv_bin_decoder.c ****     if(res != LV_FS_RES_OK) {
 565              		.loc 1 1104 12 view .LVU183
 566 002c FFF7FEFF 		bl	lv_fs_read
 567              	.LVL63:
1104:Drivers/lvgl/src/libs/bin_decoder/lv_bin_decoder.c ****     if(res != LV_FS_RES_OK) {
 568              		.loc 1 1104 9 discriminator 1 view .LVU184
 569 0030 0543     		orrs	r5, r5, r0
 570              	.LVL64:
1104:Drivers/lvgl/src/libs/bin_decoder/lv_bin_decoder.c ****     if(res != LV_FS_RES_OK) {
 571              		.loc 1 1104 9 discriminator 1 view .LVU185
 572 0032 EDB2     		uxtb	r5, r5
 573              	.LVL65:
1105:Drivers/lvgl/src/libs/bin_decoder/lv_bin_decoder.c ****         return res;
 574              		.loc 1 1105 5 is_stmt 1 view .LVU186
 575 0034 F3E7     		b	.L39
 576              		.cfi_endproc
 577              	.LFE206:
 579              		.section	.text.decode_indexed,"ax",%progbits
 580              		.align	1
 581              		.syntax unified
 582              		.thumb
 583              		.thumb_func
 585              	decode_indexed:
 586              	.LVL66:
 587              	.LFB200:
 579:Drivers/lvgl/src/libs/bin_decoder/lv_bin_decoder.c ****     LV_UNUSED(decoder); /*Unused*/
 588              		.loc 1 579 1 view -0
 589              		.cfi_startproc
 590              		@ args = 0, pretend = 0, frame = 8
 591              		@ frame_needed = 0, uses_anonymous_args = 0
 579:Drivers/lvgl/src/libs/bin_decoder/lv_bin_decoder.c ****     LV_UNUSED(decoder); /*Unused*/
 592              		.loc 1 579 1 is_stmt 0 view .LVU188
 593 0000 2DE9F043 		push	{r4, r5, r6, r7, r8, r9, lr}
 594              	.LCFI6:
 595              		.cfi_def_cfa_offset 28
 596              		.cfi_offset 4, -28
 597              		.cfi_offset 5, -24
 598              		.cfi_offset 6, -20
 599              		.cfi_offset 7, -16
 600              		.cfi_offset 8, -12
 601              		.cfi_offset 9, -8
ARM GAS  /var/folders/qx/2_175_4n2s19vhvtspjhb3qh0000gn/T//ccPNYKNl.s 			page 33


 602              		.cfi_offset 14, -4
 603 0004 85B0     		sub	sp, sp, #20
 604              	.LCFI7:
 605              		.cfi_def_cfa_offset 48
 606 0006 0C46     		mov	r4, r1
 580:Drivers/lvgl/src/libs/bin_decoder/lv_bin_decoder.c ****     lv_fs_res_t res;
 607              		.loc 1 580 5 is_stmt 1 view .LVU189
 581:Drivers/lvgl/src/libs/bin_decoder/lv_bin_decoder.c ****     uint32_t rn;
 608              		.loc 1 581 5 view .LVU190
 582:Drivers/lvgl/src/libs/bin_decoder/lv_bin_decoder.c ****     decoder_data_t * decoder_data = dsc->user_data;
 609              		.loc 1 582 5 view .LVU191
 583:Drivers/lvgl/src/libs/bin_decoder/lv_bin_decoder.c ****     lv_fs_file_t * f = decoder_data->f;
 610              		.loc 1 583 5 view .LVU192
 583:Drivers/lvgl/src/libs/bin_decoder/lv_bin_decoder.c ****     lv_fs_file_t * f = decoder_data->f;
 611              		.loc 1 583 22 is_stmt 0 view .LVU193
 612 0008 8E6C     		ldr	r6, [r1, #72]
 613              	.LVL67:
 584:Drivers/lvgl/src/libs/bin_decoder/lv_bin_decoder.c ****     lv_color_format_t cf = dsc->header.cf;
 614              		.loc 1 584 5 is_stmt 1 view .LVU194
 584:Drivers/lvgl/src/libs/bin_decoder/lv_bin_decoder.c ****     lv_color_format_t cf = dsc->header.cf;
 615              		.loc 1 584 20 is_stmt 0 view .LVU195
 616 000a D6F80080 		ldr	r8, [r6]
 617              	.LVL68:
 585:Drivers/lvgl/src/libs/bin_decoder/lv_bin_decoder.c ****     uint32_t palette_len = sizeof(lv_color32_t) * LV_COLOR_INDEXED_PALETTE_SIZE(cf);
 618              		.loc 1 585 5 is_stmt 1 view .LVU196
 585:Drivers/lvgl/src/libs/bin_decoder/lv_bin_decoder.c ****     uint32_t palette_len = sizeof(lv_color32_t) * LV_COLOR_INDEXED_PALETTE_SIZE(cf);
 619              		.loc 1 585 23 is_stmt 0 view .LVU197
 620 000e 91F82150 		ldrb	r5, [r1, #33]	@ zero_extendqisi2
 621              	.LVL69:
 586:Drivers/lvgl/src/libs/bin_decoder/lv_bin_decoder.c ****     const lv_color32_t * palette;
 622              		.loc 1 586 5 is_stmt 1 view .LVU198
 623 0012 EB1F     		subs	r3, r5, #7
 624 0014 032B     		cmp	r3, #3
 625 0016 03D8     		bhi	.L43
 626 0018 DFE803F0 		tbb	[pc, r3]
 627              	.L45:
 628 001c 0E       		.byte	(.L63-.L45)/2
 629 001d 05       		.byte	(.L47-.L45)/2
 630 001e 08       		.byte	(.L46-.L45)/2
 631 001f 0B       		.byte	(.L44-.L45)/2
 632              		.p2align 1
 633              	.L43:
 585:Drivers/lvgl/src/libs/bin_decoder/lv_bin_decoder.c ****     uint32_t palette_len = sizeof(lv_color32_t) * LV_COLOR_INDEXED_PALETTE_SIZE(cf);
 634              		.loc 1 585 23 is_stmt 0 view .LVU199
 635 0020 4FF00009 		mov	r9, #0
 636 0024 0AE0     		b	.L48
 637              	.L47:
 638 0026 4FF01009 		mov	r9, #16
 639 002a 07E0     		b	.L48
 640              	.L46:
 641 002c 4FF04009 		mov	r9, #64
 642 0030 04E0     		b	.L48
 643              	.L44:
 644 0032 4FF48069 		mov	r9, #1024
 645 0036 01E0     		b	.L48
 646              	.L63:
 647 0038 4FF00809 		mov	r9, #8
ARM GAS  /var/folders/qx/2_175_4n2s19vhvtspjhb3qh0000gn/T//ccPNYKNl.s 			page 34


 648              	.L48:
 649              	.LVL70:
 587:Drivers/lvgl/src/libs/bin_decoder/lv_bin_decoder.c ****     const uint8_t * indexed_data = NULL;
 650              		.loc 1 587 5 is_stmt 1 view .LVU200
 588:Drivers/lvgl/src/libs/bin_decoder/lv_bin_decoder.c ****     lv_draw_buf_t * draw_buf_indexed = NULL;
 651              		.loc 1 588 5 view .LVU201
 589:Drivers/lvgl/src/libs/bin_decoder/lv_bin_decoder.c ****     uint32_t stride = dsc->header.stride;
 652              		.loc 1 589 5 view .LVU202
 590:Drivers/lvgl/src/libs/bin_decoder/lv_bin_decoder.c **** 
 653              		.loc 1 590 5 view .LVU203
 592:Drivers/lvgl/src/libs/bin_decoder/lv_bin_decoder.c ****     if(is_compressed) {
 654              		.loc 1 592 5 view .LVU204
 592:Drivers/lvgl/src/libs/bin_decoder/lv_bin_decoder.c ****     if(is_compressed) {
 655              		.loc 1 592 37 is_stmt 0 view .LVU205
 656 003c 638C     		ldrh	r3, [r4, #34]
 657              	.LVL71:
 593:Drivers/lvgl/src/libs/bin_decoder/lv_bin_decoder.c ****         uint8_t * data = decoder_data->decompressed->data;
 658              		.loc 1 593 5 is_stmt 1 view .LVU206
 593:Drivers/lvgl/src/libs/bin_decoder/lv_bin_decoder.c ****         uint8_t * data = decoder_data->decompressed->data;
 659              		.loc 1 593 7 is_stmt 0 view .LVU207
 660 003e 13F0080F 		tst	r3, #8
 661 0042 09D0     		beq	.L49
 662              	.LBB22:
 594:Drivers/lvgl/src/libs/bin_decoder/lv_bin_decoder.c ****         palette = (lv_color32_t *)data;
 663              		.loc 1 594 9 is_stmt 1 view .LVU208
 594:Drivers/lvgl/src/libs/bin_decoder/lv_bin_decoder.c ****         palette = (lv_color32_t *)data;
 664              		.loc 1 594 38 is_stmt 0 view .LVU209
 665 0044 336A     		ldr	r3, [r6, #32]
 594:Drivers/lvgl/src/libs/bin_decoder/lv_bin_decoder.c ****         palette = (lv_color32_t *)data;
 666              		.loc 1 594 19 view .LVU210
 667 0046 1F69     		ldr	r7, [r3, #16]
 668              	.LVL72:
 595:Drivers/lvgl/src/libs/bin_decoder/lv_bin_decoder.c ****         indexed_data = data + palette_len;
 669              		.loc 1 595 9 is_stmt 1 view .LVU211
 596:Drivers/lvgl/src/libs/bin_decoder/lv_bin_decoder.c ****     }
 670              		.loc 1 596 9 view .LVU212
 671              	.L50:
 596:Drivers/lvgl/src/libs/bin_decoder/lv_bin_decoder.c ****     }
 672              		.loc 1 596 9 is_stmt 0 view .LVU213
 673              	.LBE22:
 651:Drivers/lvgl/src/libs/bin_decoder/lv_bin_decoder.c ****     dsc->palette_size = LV_COLOR_INDEXED_PALETTE_SIZE(cf);
 674              		.loc 1 651 5 is_stmt 1 view .LVU214
 651:Drivers/lvgl/src/libs/bin_decoder/lv_bin_decoder.c ****     dsc->palette_size = LV_COLOR_INDEXED_PALETTE_SIZE(cf);
 675              		.loc 1 651 18 is_stmt 0 view .LVU215
 676 0048 2763     		str	r7, [r4, #48]
 652:Drivers/lvgl/src/libs/bin_decoder/lv_bin_decoder.c **** 
 677              		.loc 1 652 5 is_stmt 1 view .LVU216
 678 004a 073D     		subs	r5, r5, #7
 679              	.LVL73:
 652:Drivers/lvgl/src/libs/bin_decoder/lv_bin_decoder.c **** 
 680              		.loc 1 652 5 is_stmt 0 view .LVU217
 681 004c 032D     		cmp	r5, #3
 682 004e 23D8     		bhi	.L57
 683 0050 DFE805F0 		tbb	[pc, r5]
 684              	.L59:
 685 0054 2F       		.byte	(.L65-.L59)/2
 686 0055 24       		.byte	(.L61-.L59)/2
ARM GAS  /var/folders/qx/2_175_4n2s19vhvtspjhb3qh0000gn/T//ccPNYKNl.s 			page 35


 687 0056 2A       		.byte	(.L60-.L59)/2
 688 0057 2C       		.byte	(.L58-.L59)/2
 689              	.LVL74:
 690              		.p2align 1
 691              	.L49:
 598:Drivers/lvgl/src/libs/bin_decoder/lv_bin_decoder.c ****         /*read palette for indexed image*/
 692              		.loc 1 598 10 is_stmt 1 view .LVU218
 598:Drivers/lvgl/src/libs/bin_decoder/lv_bin_decoder.c ****         /*read palette for indexed image*/
 693              		.loc 1 598 16 is_stmt 0 view .LVU219
 694 0058 237C     		ldrb	r3, [r4, #16]	@ zero_extendqisi2
 598:Drivers/lvgl/src/libs/bin_decoder/lv_bin_decoder.c ****         /*read palette for indexed image*/
 695              		.loc 1 598 12 view .LVU220
 696 005a 012B     		cmp	r3, #1
 697 005c 03D0     		beq	.L67
 642:Drivers/lvgl/src/libs/bin_decoder/lv_bin_decoder.c ****         lv_image_dsc_t * image = (lv_image_dsc_t *)dsc->src;
 698              		.loc 1 642 10 is_stmt 1 view .LVU221
 642:Drivers/lvgl/src/libs/bin_decoder/lv_bin_decoder.c ****         lv_image_dsc_t * image = (lv_image_dsc_t *)dsc->src;
 699              		.loc 1 642 12 is_stmt 0 view .LVU222
 700 005e 53BB     		cbnz	r3, .L64
 701              	.LBB23:
 643:Drivers/lvgl/src/libs/bin_decoder/lv_bin_decoder.c ****         palette = (lv_color32_t *)image->data;
 702              		.loc 1 643 9 is_stmt 1 view .LVU223
 643:Drivers/lvgl/src/libs/bin_decoder/lv_bin_decoder.c ****         palette = (lv_color32_t *)image->data;
 703              		.loc 1 643 26 is_stmt 0 view .LVU224
 704 0060 E368     		ldr	r3, [r4, #12]
 705              	.LVL75:
 644:Drivers/lvgl/src/libs/bin_decoder/lv_bin_decoder.c ****         indexed_data = image->data + palette_len;
 706              		.loc 1 644 9 is_stmt 1 view .LVU225
 644:Drivers/lvgl/src/libs/bin_decoder/lv_bin_decoder.c ****         indexed_data = image->data + palette_len;
 707              		.loc 1 644 17 is_stmt 0 view .LVU226
 708 0062 1F69     		ldr	r7, [r3, #16]
 709              	.LVL76:
 645:Drivers/lvgl/src/libs/bin_decoder/lv_bin_decoder.c ****     }
 710              		.loc 1 645 9 is_stmt 1 view .LVU227
 645:Drivers/lvgl/src/libs/bin_decoder/lv_bin_decoder.c ****     }
 711              		.loc 1 645 9 is_stmt 0 view .LVU228
 712              	.LBE23:
 713 0064 F0E7     		b	.L50
 714              	.LVL77:
 715              	.L67:
 600:Drivers/lvgl/src/libs/bin_decoder/lv_bin_decoder.c ****         LV_ASSERT_MALLOC(palette);
 716              		.loc 1 600 9 is_stmt 1 view .LVU229
 600:Drivers/lvgl/src/libs/bin_decoder/lv_bin_decoder.c ****         LV_ASSERT_MALLOC(palette);
 717              		.loc 1 600 19 is_stmt 0 view .LVU230
 718 0066 4846     		mov	r0, r9
 719              	.LVL78:
 600:Drivers/lvgl/src/libs/bin_decoder/lv_bin_decoder.c ****         LV_ASSERT_MALLOC(palette);
 720              		.loc 1 600 19 view .LVU231
 721 0068 FFF7FEFF 		bl	lv_malloc
 722              	.LVL79:
 601:Drivers/lvgl/src/libs/bin_decoder/lv_bin_decoder.c ****         if(palette == NULL) {
 723              		.loc 1 601 9 is_stmt 1 view .LVU232
 601:Drivers/lvgl/src/libs/bin_decoder/lv_bin_decoder.c ****         if(palette == NULL) {
 724              		.loc 1 601 9 view .LVU233
 725 006c 0746     		mov	r7, r0
 726 006e 80B1     		cbz	r0, .L53
 601:Drivers/lvgl/src/libs/bin_decoder/lv_bin_decoder.c ****         if(palette == NULL) {
ARM GAS  /var/folders/qx/2_175_4n2s19vhvtspjhb3qh0000gn/T//ccPNYKNl.s 			page 36


 727              		.loc 1 601 9 view .LVU234
 601:Drivers/lvgl/src/libs/bin_decoder/lv_bin_decoder.c ****         if(palette == NULL) {
 728              		.loc 1 601 34 view .LVU235
 602:Drivers/lvgl/src/libs/bin_decoder/lv_bin_decoder.c ****             LV_LOG_ERROR("Out of memory");
 729              		.loc 1 602 9 view .LVU236
 607:Drivers/lvgl/src/libs/bin_decoder/lv_bin_decoder.c ****         if(res != LV_FS_RES_OK || rn != palette_len) {
 730              		.loc 1 607 9 view .LVU237
 607:Drivers/lvgl/src/libs/bin_decoder/lv_bin_decoder.c ****         if(res != LV_FS_RES_OK || rn != palette_len) {
 731              		.loc 1 607 15 is_stmt 0 view .LVU238
 732 0070 03AB     		add	r3, sp, #12
 733 0072 0093     		str	r3, [sp]
 734 0074 4B46     		mov	r3, r9
 735 0076 0246     		mov	r2, r0
 736 0078 0C21     		movs	r1, #12
 737 007a 4046     		mov	r0, r8
 738              	.LVL80:
 607:Drivers/lvgl/src/libs/bin_decoder/lv_bin_decoder.c ****         if(res != LV_FS_RES_OK || rn != palette_len) {
 739              		.loc 1 607 15 view .LVU239
 740 007c FFF7FEFF 		bl	fs_read_file_at
 741              	.LVL81:
 608:Drivers/lvgl/src/libs/bin_decoder/lv_bin_decoder.c ****             LV_LOG_WARN("Read palette failed: %d, with len: %" LV_PRIu32 ", expected: %" LV_PRIu32,
 742              		.loc 1 608 9 is_stmt 1 view .LVU240
 608:Drivers/lvgl/src/libs/bin_decoder/lv_bin_decoder.c ****             LV_LOG_WARN("Read palette failed: %d, with len: %" LV_PRIu32 ", expected: %" LV_PRIu32,
 743              		.loc 1 608 11 is_stmt 0 view .LVU241
 744 0080 10B9     		cbnz	r0, .L54
 608:Drivers/lvgl/src/libs/bin_decoder/lv_bin_decoder.c ****             LV_LOG_WARN("Read palette failed: %d, with len: %" LV_PRIu32 ", expected: %" LV_PRIu32,
 745              		.loc 1 608 38 discriminator 1 view .LVU242
 746 0082 039B     		ldr	r3, [sp, #12]
 608:Drivers/lvgl/src/libs/bin_decoder/lv_bin_decoder.c ****             LV_LOG_WARN("Read palette failed: %d, with len: %" LV_PRIu32 ", expected: %" LV_PRIu32,
 747              		.loc 1 608 32 discriminator 1 view .LVU243
 748 0084 4B45     		cmp	r3, r9
 749 0086 05D0     		beq	.L55
 750              	.L54:
 609:Drivers/lvgl/src/libs/bin_decoder/lv_bin_decoder.c ****             lv_free((void *)palette);
 751              		.loc 1 609 13 is_stmt 1 view .LVU244
 609:Drivers/lvgl/src/libs/bin_decoder/lv_bin_decoder.c ****             lv_free((void *)palette);
 752              		.loc 1 609 13 view .LVU245
 609:Drivers/lvgl/src/libs/bin_decoder/lv_bin_decoder.c ****             lv_free((void *)palette);
 753              		.loc 1 609 13 view .LVU246
 610:Drivers/lvgl/src/libs/bin_decoder/lv_bin_decoder.c ****             return LV_RESULT_INVALID;
 754              		.loc 1 610 13 view .LVU247
 755 0088 3846     		mov	r0, r7
 756              	.LVL82:
 610:Drivers/lvgl/src/libs/bin_decoder/lv_bin_decoder.c ****             return LV_RESULT_INVALID;
 757              		.loc 1 610 13 is_stmt 0 view .LVU248
 758 008a FFF7FEFF 		bl	lv_free
 759              	.LVL83:
 611:Drivers/lvgl/src/libs/bin_decoder/lv_bin_decoder.c ****         }
 760              		.loc 1 611 13 is_stmt 1 view .LVU249
 611:Drivers/lvgl/src/libs/bin_decoder/lv_bin_decoder.c ****         }
 761              		.loc 1 611 20 is_stmt 0 view .LVU250
 762 008e 0020     		movs	r0, #0
 763 0090 07E0     		b	.L56
 764              	.LVL84:
 765              	.L53:
 601:Drivers/lvgl/src/libs/bin_decoder/lv_bin_decoder.c ****         if(palette == NULL) {
 766              		.loc 1 601 9 is_stmt 1 view .LVU251
ARM GAS  /var/folders/qx/2_175_4n2s19vhvtspjhb3qh0000gn/T//ccPNYKNl.s 			page 37


 601:Drivers/lvgl/src/libs/bin_decoder/lv_bin_decoder.c ****         if(palette == NULL) {
 767              		.loc 1 601 9 view .LVU252
 601:Drivers/lvgl/src/libs/bin_decoder/lv_bin_decoder.c ****         if(palette == NULL) {
 768              		.loc 1 601 9 view .LVU253
 601:Drivers/lvgl/src/libs/bin_decoder/lv_bin_decoder.c ****         if(palette == NULL) {
 769              		.loc 1 601 9 view .LVU254
 601:Drivers/lvgl/src/libs/bin_decoder/lv_bin_decoder.c ****         if(palette == NULL) {
 770              		.loc 1 601 9 view .LVU255
 771 0092 FEE7     		b	.L53
 772              	.LVL85:
 773              	.L55:
 614:Drivers/lvgl/src/libs/bin_decoder/lv_bin_decoder.c **** 
 774              		.loc 1 614 9 view .LVU256
 614:Drivers/lvgl/src/libs/bin_decoder/lv_bin_decoder.c **** 
 775              		.loc 1 614 31 is_stmt 0 view .LVU257
 776 0094 7760     		str	r7, [r6, #4]
 777 0096 D7E7     		b	.L50
 778              	.LVL86:
 779              	.L57:
 651:Drivers/lvgl/src/libs/bin_decoder/lv_bin_decoder.c ****     dsc->palette_size = LV_COLOR_INDEXED_PALETTE_SIZE(cf);
 780              		.loc 1 651 18 view .LVU258
 781 0098 0023     		movs	r3, #0
 782 009a 00E0     		b	.L62
 783              	.L61:
 784 009c 0423     		movs	r3, #4
 785              	.L62:
 652:Drivers/lvgl/src/libs/bin_decoder/lv_bin_decoder.c **** 
 786              		.loc 1 652 23 discriminator 16 view .LVU259
 787 009e 6363     		str	r3, [r4, #52]
 692:Drivers/lvgl/src/libs/bin_decoder/lv_bin_decoder.c ****     LV_UNUSED(indexed_data);
 788              		.loc 1 692 5 is_stmt 1 view .LVU260
 693:Drivers/lvgl/src/libs/bin_decoder/lv_bin_decoder.c ****     LV_UNUSED(draw_buf_indexed);
 789              		.loc 1 693 5 view .LVU261
 694:Drivers/lvgl/src/libs/bin_decoder/lv_bin_decoder.c ****     /*It needs to be read by get_area_cb later*/
 790              		.loc 1 694 5 view .LVU262
 696:Drivers/lvgl/src/libs/bin_decoder/lv_bin_decoder.c **** #endif
 791              		.loc 1 696 5 view .LVU263
 696:Drivers/lvgl/src/libs/bin_decoder/lv_bin_decoder.c **** #endif
 792              		.loc 1 696 12 is_stmt 0 view .LVU264
 793 00a0 0120     		movs	r0, #1
 794              	.LVL87:
 795              	.L56:
 698:Drivers/lvgl/src/libs/bin_decoder/lv_bin_decoder.c **** 
 796              		.loc 1 698 1 view .LVU265
 797 00a2 05B0     		add	sp, sp, #20
 798              	.LCFI8:
 799              		.cfi_remember_state
 800              		.cfi_def_cfa_offset 28
 801              		@ sp needed
 802 00a4 BDE8F083 		pop	{r4, r5, r6, r7, r8, r9, pc}
 803              	.LVL88:
 804              	.L60:
 805              	.LCFI9:
 806              		.cfi_restore_state
 651:Drivers/lvgl/src/libs/bin_decoder/lv_bin_decoder.c ****     dsc->palette_size = LV_COLOR_INDEXED_PALETTE_SIZE(cf);
 807              		.loc 1 651 18 view .LVU266
 808 00a8 1023     		movs	r3, #16
ARM GAS  /var/folders/qx/2_175_4n2s19vhvtspjhb3qh0000gn/T//ccPNYKNl.s 			page 38


 809 00aa F8E7     		b	.L62
 810              	.L58:
 811 00ac 4FF48073 		mov	r3, #256
 812 00b0 F5E7     		b	.L62
 813              	.L65:
 814 00b2 0223     		movs	r3, #2
 815 00b4 F3E7     		b	.L62
 816              	.LVL89:
 817              	.L64:
 648:Drivers/lvgl/src/libs/bin_decoder/lv_bin_decoder.c ****     }
 818              		.loc 1 648 16 view .LVU267
 819 00b6 0020     		movs	r0, #0
 820              	.LVL90:
 648:Drivers/lvgl/src/libs/bin_decoder/lv_bin_decoder.c ****     }
 821              		.loc 1 648 16 view .LVU268
 822 00b8 F3E7     		b	.L56
 823              		.cfi_endproc
 824              	.LFE200:
 826              		.section	.text.decode_alpha_only,"ax",%progbits
 827              		.align	1
 828              		.syntax unified
 829              		.thumb
 830              		.thumb_func
 832              	decode_alpha_only:
 833              	.LVL91:
 834              	.LFB203:
 851:Drivers/lvgl/src/libs/bin_decoder/lv_bin_decoder.c ****     LV_UNUSED(decoder);
 835              		.loc 1 851 1 is_stmt 1 view -0
 836              		.cfi_startproc
 837              		@ args = 0, pretend = 0, frame = 8
 838              		@ frame_needed = 0, uses_anonymous_args = 0
 851:Drivers/lvgl/src/libs/bin_decoder/lv_bin_decoder.c ****     LV_UNUSED(decoder);
 839              		.loc 1 851 1 is_stmt 0 view .LVU270
 840 0000 2DE9F04F 		push	{r4, r5, r6, r7, r8, r9, r10, fp, lr}
 841              	.LCFI10:
 842              		.cfi_def_cfa_offset 36
 843              		.cfi_offset 4, -36
 844              		.cfi_offset 5, -32
 845              		.cfi_offset 6, -28
 846              		.cfi_offset 7, -24
 847              		.cfi_offset 8, -20
 848              		.cfi_offset 9, -16
 849              		.cfi_offset 10, -12
 850              		.cfi_offset 11, -8
 851              		.cfi_offset 14, -4
 852 0004 85B0     		sub	sp, sp, #20
 853              	.LCFI11:
 854              		.cfi_def_cfa_offset 56
 855 0006 0D46     		mov	r5, r1
 852:Drivers/lvgl/src/libs/bin_decoder/lv_bin_decoder.c ****     lv_fs_res_t res;
 856              		.loc 1 852 5 is_stmt 1 view .LVU271
 853:Drivers/lvgl/src/libs/bin_decoder/lv_bin_decoder.c ****     uint32_t rn;
 857              		.loc 1 853 5 view .LVU272
 854:Drivers/lvgl/src/libs/bin_decoder/lv_bin_decoder.c ****     decoder_data_t * decoder_data = dsc->user_data;
 858              		.loc 1 854 5 view .LVU273
 855:Drivers/lvgl/src/libs/bin_decoder/lv_bin_decoder.c ****     uint8_t bpp = lv_color_format_get_bpp(dsc->header.cf);
 859              		.loc 1 855 5 view .LVU274
ARM GAS  /var/folders/qx/2_175_4n2s19vhvtspjhb3qh0000gn/T//ccPNYKNl.s 			page 39


 855:Drivers/lvgl/src/libs/bin_decoder/lv_bin_decoder.c ****     uint8_t bpp = lv_color_format_get_bpp(dsc->header.cf);
 860              		.loc 1 855 22 is_stmt 0 view .LVU275
 861 0008 D1F84880 		ldr	r8, [r1, #72]
 862              	.LVL92:
 856:Drivers/lvgl/src/libs/bin_decoder/lv_bin_decoder.c **** 
 863              		.loc 1 856 5 is_stmt 1 view .LVU276
 856:Drivers/lvgl/src/libs/bin_decoder/lv_bin_decoder.c **** 
 864              		.loc 1 856 19 is_stmt 0 view .LVU277
 865 000c 91F82100 		ldrb	r0, [r1, #33]	@ zero_extendqisi2
 866              	.LVL93:
 856:Drivers/lvgl/src/libs/bin_decoder/lv_bin_decoder.c **** 
 867              		.loc 1 856 19 view .LVU278
 868 0010 FFF7FEFF 		bl	lv_color_format_get_bpp
 869              	.LVL94:
 858:Drivers/lvgl/src/libs/bin_decoder/lv_bin_decoder.c ****         LV_LOG_ERROR("Error color format: %d", dsc->header.cf);
 870              		.loc 1 858 5 is_stmt 1 view .LVU279
 858:Drivers/lvgl/src/libs/bin_decoder/lv_bin_decoder.c ****         LV_LOG_ERROR("Error color format: %d", dsc->header.cf);
 871              		.loc 1 858 7 is_stmt 0 view .LVU280
 872 0014 0446     		mov	r4, r0
 873 0016 18B9     		cbnz	r0, .L84
 874              	.LVL95:
 875              	.L69:
 925:Drivers/lvgl/src/libs/bin_decoder/lv_bin_decoder.c **** 
 876              		.loc 1 925 1 view .LVU281
 877 0018 2046     		mov	r0, r4
 878 001a 05B0     		add	sp, sp, #20
 879              	.LCFI12:
 880              		.cfi_remember_state
 881              		.cfi_def_cfa_offset 36
 882              		@ sp needed
 883 001c BDE8F08F 		pop	{r4, r5, r6, r7, r8, r9, r10, fp, pc}
 884              	.LVL96:
 885              	.L84:
 886              	.LCFI13:
 887              		.cfi_restore_state
 863:Drivers/lvgl/src/libs/bin_decoder/lv_bin_decoder.c ****     uint32_t buf_stride = (w * 8 + 7) >> 3; /*stride for img_data*/
 888              		.loc 1 863 5 is_stmt 1 view .LVU282
 863:Drivers/lvgl/src/libs/bin_decoder/lv_bin_decoder.c ****     uint32_t buf_stride = (w * 8 + 7) >> 3; /*stride for img_data*/
 889              		.loc 1 863 30 is_stmt 0 view .LVU283
 890 0020 B5F828B0 		ldrh	fp, [r5, #40]
 863:Drivers/lvgl/src/libs/bin_decoder/lv_bin_decoder.c ****     uint32_t buf_stride = (w * 8 + 7) >> 3; /*stride for img_data*/
 891              		.loc 1 863 38 view .LVU284
 892 0024 4FEACB06 		lsl	r6, fp, #3
 863:Drivers/lvgl/src/libs/bin_decoder/lv_bin_decoder.c ****     uint32_t buf_stride = (w * 8 + 7) >> 3; /*stride for img_data*/
 893              		.loc 1 863 43 view .LVU285
 894 0028 8146     		mov	r9, r0
 895 002a 96FBF0F6 		sdiv	r6, r6, r0
 896              	.LVL97:
 864:Drivers/lvgl/src/libs/bin_decoder/lv_bin_decoder.c ****     uint32_t buf_len = w * dsc->header.h; /*always decode to A8 format*/
 897              		.loc 1 864 5 is_stmt 1 view .LVU286
 864:Drivers/lvgl/src/libs/bin_decoder/lv_bin_decoder.c ****     uint32_t buf_len = w * dsc->header.h; /*always decode to A8 format*/
 898              		.loc 1 864 14 is_stmt 0 view .LVU287
 899 002e 26F06043 		bic	r3, r6, #-536870912
 900              	.LVL98:
 865:Drivers/lvgl/src/libs/bin_decoder/lv_bin_decoder.c ****     lv_draw_buf_t * decoded;
 901              		.loc 1 865 5 is_stmt 1 view .LVU288
 865:Drivers/lvgl/src/libs/bin_decoder/lv_bin_decoder.c ****     lv_draw_buf_t * decoded;
ARM GAS  /var/folders/qx/2_175_4n2s19vhvtspjhb3qh0000gn/T//ccPNYKNl.s 			page 40


 902              		.loc 1 865 39 is_stmt 0 view .LVU289
 903 0032 EA8C     		ldrh	r2, [r5, #38]
 865:Drivers/lvgl/src/libs/bin_decoder/lv_bin_decoder.c ****     lv_draw_buf_t * decoded;
 904              		.loc 1 865 14 view .LVU290
 905 0034 02FB06F6 		mul	r6, r2, r6
 906              	.LVL99:
 866:Drivers/lvgl/src/libs/bin_decoder/lv_bin_decoder.c ****     uint32_t file_len = (uint32_t)dsc->header.stride * dsc->header.h;
 907              		.loc 1 866 5 is_stmt 1 view .LVU291
 867:Drivers/lvgl/src/libs/bin_decoder/lv_bin_decoder.c **** 
 908              		.loc 1 867 5 view .LVU292
 867:Drivers/lvgl/src/libs/bin_decoder/lv_bin_decoder.c **** 
 909              		.loc 1 867 14 is_stmt 0 view .LVU293
 910 0038 0BFB02FB 		mul	fp, fp, r2
 911              	.LVL100:
 869:Drivers/lvgl/src/libs/bin_decoder/lv_bin_decoder.c ****                                     buf_stride);
 912              		.loc 1 869 5 is_stmt 1 view .LVU294
 869:Drivers/lvgl/src/libs/bin_decoder/lv_bin_decoder.c ****                                     buf_stride);
 913              		.loc 1 869 15 is_stmt 0 view .LVU295
 914 003c 0093     		str	r3, [sp]
 915              	.LVL101:
 869:Drivers/lvgl/src/libs/bin_decoder/lv_bin_decoder.c ****                                     buf_stride);
 916              		.loc 1 869 15 view .LVU296
 917 003e 0E23     		movs	r3, #14
 918              	.LVL102:
 869:Drivers/lvgl/src/libs/bin_decoder/lv_bin_decoder.c ****                                     buf_stride);
 919              		.loc 1 869 15 view .LVU297
 920 0040 A98C     		ldrh	r1, [r5, #36]
 921 0042 3B48     		ldr	r0, .L88
 922              	.LVL103:
 869:Drivers/lvgl/src/libs/bin_decoder/lv_bin_decoder.c ****                                     buf_stride);
 923              		.loc 1 869 15 view .LVU298
 924 0044 FFF7FEFF 		bl	lv_draw_buf_create_ex
 925              	.LVL104:
 871:Drivers/lvgl/src/libs/bin_decoder/lv_bin_decoder.c ****         LV_LOG_ERROR("Out of memory");
 926              		.loc 1 871 5 is_stmt 1 view .LVU299
 871:Drivers/lvgl/src/libs/bin_decoder/lv_bin_decoder.c ****         LV_LOG_ERROR("Out of memory");
 927              		.loc 1 871 7 is_stmt 0 view .LVU300
 928 0048 0746     		mov	r7, r0
 929 004a 0028     		cmp	r0, #0
 930 004c 6DD0     		beq	.L81
 876:Drivers/lvgl/src/libs/bin_decoder/lv_bin_decoder.c **** 
 931              		.loc 1 876 5 is_stmt 1 view .LVU301
 876:Drivers/lvgl/src/libs/bin_decoder/lv_bin_decoder.c **** 
 932              		.loc 1 876 15 is_stmt 0 view .LVU302
 933 004e D0F810A0 		ldr	r10, [r0, #16]
 934              	.LVL105:
 878:Drivers/lvgl/src/libs/bin_decoder/lv_bin_decoder.c ****         /*Copy from image data*/
 935              		.loc 1 878 5 is_stmt 1 view .LVU303
 878:Drivers/lvgl/src/libs/bin_decoder/lv_bin_decoder.c ****         /*Copy from image data*/
 936              		.loc 1 878 19 is_stmt 0 view .LVU304
 937 0052 6B8C     		ldrh	r3, [r5, #34]
 878:Drivers/lvgl/src/libs/bin_decoder/lv_bin_decoder.c ****         /*Copy from image data*/
 938              		.loc 1 878 7 view .LVU305
 939 0054 13F0080F 		tst	r3, #8
 940 0058 1BD1     		bne	.L85
 882:Drivers/lvgl/src/libs/bin_decoder/lv_bin_decoder.c ****         res = fs_read_file_at(decoder_data->f, sizeof(lv_image_header_t), img_data, file_len, &rn);
 941              		.loc 1 882 10 is_stmt 1 view .LVU306
ARM GAS  /var/folders/qx/2_175_4n2s19vhvtspjhb3qh0000gn/T//ccPNYKNl.s 			page 41


 882:Drivers/lvgl/src/libs/bin_decoder/lv_bin_decoder.c ****         res = fs_read_file_at(decoder_data->f, sizeof(lv_image_header_t), img_data, file_len, &rn);
 942              		.loc 1 882 16 is_stmt 0 view .LVU307
 943 005a 2B7C     		ldrb	r3, [r5, #16]	@ zero_extendqisi2
 882:Drivers/lvgl/src/libs/bin_decoder/lv_bin_decoder.c ****         res = fs_read_file_at(decoder_data->f, sizeof(lv_image_header_t), img_data, file_len, &rn);
 944              		.loc 1 882 12 view .LVU308
 945 005c 012B     		cmp	r3, #1
 946 005e 20D0     		beq	.L86
 890:Drivers/lvgl/src/libs/bin_decoder/lv_bin_decoder.c ****         /*Copy from image data*/
 947              		.loc 1 890 10 is_stmt 1 view .LVU309
 890:Drivers/lvgl/src/libs/bin_decoder/lv_bin_decoder.c ****         /*Copy from image data*/
 948              		.loc 1 890 12 is_stmt 0 view .LVU310
 949 0060 8BB3     		cbz	r3, .L87
 950              	.LVL106:
 951              	.L71:
 895:Drivers/lvgl/src/libs/bin_decoder/lv_bin_decoder.c ****         /*Convert A1/2/4 to A8 from last pixel to first pixel*/
 952              		.loc 1 895 5 is_stmt 1 view .LVU311
 895:Drivers/lvgl/src/libs/bin_decoder/lv_bin_decoder.c ****         /*Convert A1/2/4 to A8 from last pixel to first pixel*/
 953              		.loc 1 895 19 is_stmt 0 view .LVU312
 954 0062 95F82130 		ldrb	r3, [r5, #33]	@ zero_extendqisi2
 895:Drivers/lvgl/src/libs/bin_decoder/lv_bin_decoder.c ****         /*Convert A1/2/4 to A8 from last pixel to first pixel*/
 955              		.loc 1 895 7 view .LVU313
 956 0066 0E2B     		cmp	r3, #14
 957 0068 5AD0     		beq	.L74
 958              	.LBB24:
 897:Drivers/lvgl/src/libs/bin_decoder/lv_bin_decoder.c ****         uint8_t * out = img_data + buf_len - 1;
 959              		.loc 1 897 9 is_stmt 1 view .LVU314
 897:Drivers/lvgl/src/libs/bin_decoder/lv_bin_decoder.c ****         uint8_t * out = img_data + buf_len - 1;
 960              		.loc 1 897 44 is_stmt 0 view .LVU315
 961 006a 0BF1FF3E 		add	lr, fp, #-1
 897:Drivers/lvgl/src/libs/bin_decoder/lv_bin_decoder.c ****         uint8_t * out = img_data + buf_len - 1;
 962              		.loc 1 897 19 view .LVU316
 963 006e D644     		add	lr, lr, r10
 964              	.LVL107:
 898:Drivers/lvgl/src/libs/bin_decoder/lv_bin_decoder.c ****         uint8_t mask = (1 << bpp) - 1;
 965              		.loc 1 898 9 is_stmt 1 view .LVU317
 898:Drivers/lvgl/src/libs/bin_decoder/lv_bin_decoder.c ****         uint8_t mask = (1 << bpp) - 1;
 966              		.loc 1 898 44 is_stmt 0 view .LVU318
 967 0070 731E     		subs	r3, r6, #1
 898:Drivers/lvgl/src/libs/bin_decoder/lv_bin_decoder.c ****         uint8_t mask = (1 << bpp) - 1;
 968              		.loc 1 898 19 view .LVU319
 969 0072 0AEB030C 		add	ip, r10, r3
 970              	.LVL108:
 899:Drivers/lvgl/src/libs/bin_decoder/lv_bin_decoder.c ****         uint8_t shift = 0;
 971              		.loc 1 899 9 is_stmt 1 view .LVU320
 899:Drivers/lvgl/src/libs/bin_decoder/lv_bin_decoder.c ****         uint8_t shift = 0;
 972              		.loc 1 899 27 is_stmt 0 view .LVU321
 973 0076 4FF0010A 		mov	r10, #1
 974              	.LVL109:
 899:Drivers/lvgl/src/libs/bin_decoder/lv_bin_decoder.c ****         uint8_t shift = 0;
 975              		.loc 1 899 27 view .LVU322
 976 007a 0AFA09FA 		lsl	r10, r10, r9
 899:Drivers/lvgl/src/libs/bin_decoder/lv_bin_decoder.c ****         uint8_t shift = 0;
 977              		.loc 1 899 35 view .LVU323
 978 007e 5FFA8AFA 		uxtb	r10, r10
 899:Drivers/lvgl/src/libs/bin_decoder/lv_bin_decoder.c ****         uint8_t shift = 0;
 979              		.loc 1 899 17 view .LVU324
 980 0082 0AF1FF3A 		add	r10, r10, #-1
ARM GAS  /var/folders/qx/2_175_4n2s19vhvtspjhb3qh0000gn/T//ccPNYKNl.s 			page 42


 981 0086 5FFA8AFA 		uxtb	r10, r10
 982              	.LVL110:
 900:Drivers/lvgl/src/libs/bin_decoder/lv_bin_decoder.c ****         for(uint32_t i = 0; i < buf_len; i++) {
 983              		.loc 1 900 9 is_stmt 1 view .LVU325
 901:Drivers/lvgl/src/libs/bin_decoder/lv_bin_decoder.c ****             /**
 984              		.loc 1 901 9 view .LVU326
 985              	.LBB25:
 901:Drivers/lvgl/src/libs/bin_decoder/lv_bin_decoder.c ****             /**
 986              		.loc 1 901 13 view .LVU327
 901:Drivers/lvgl/src/libs/bin_decoder/lv_bin_decoder.c ****             /**
 987              		.loc 1 901 22 is_stmt 0 view .LVU328
 988 008a 4FF00009 		mov	r9, #0
 989              	.LBE25:
 900:Drivers/lvgl/src/libs/bin_decoder/lv_bin_decoder.c ****         for(uint32_t i = 0; i < buf_len; i++) {
 990              		.loc 1 900 17 view .LVU329
 991 008e 4846     		mov	r0, r9
 992              	.LBB32:
 901:Drivers/lvgl/src/libs/bin_decoder/lv_bin_decoder.c ****             /**
 993              		.loc 1 901 9 view .LVU330
 994 0090 39E0     		b	.L75
 995              	.LVL111:
 996              	.L85:
 901:Drivers/lvgl/src/libs/bin_decoder/lv_bin_decoder.c ****             /**
 997              		.loc 1 901 9 view .LVU331
 998              	.LBE32:
 999              	.LBE24:
 880:Drivers/lvgl/src/libs/bin_decoder/lv_bin_decoder.c ****     }
 1000              		.loc 1 880 9 is_stmt 1 view .LVU332
 880:Drivers/lvgl/src/libs/bin_decoder/lv_bin_decoder.c ****     }
 1001              		.loc 1 880 41 is_stmt 0 view .LVU333
 1002 0092 D8F82030 		ldr	r3, [r8, #32]
 880:Drivers/lvgl/src/libs/bin_decoder/lv_bin_decoder.c ****     }
 1003              		.loc 1 880 9 view .LVU334
 1004 0096 5A46     		mov	r2, fp
 1005 0098 1969     		ldr	r1, [r3, #16]
 1006 009a 5046     		mov	r0, r10
 1007              	.LVL112:
 880:Drivers/lvgl/src/libs/bin_decoder/lv_bin_decoder.c ****     }
 1008              		.loc 1 880 9 view .LVU335
 1009 009c FFF7FEFF 		bl	lv_memcpy
 1010              	.LVL113:
 1011 00a0 DFE7     		b	.L71
 1012              	.LVL114:
 1013              	.L86:
 883:Drivers/lvgl/src/libs/bin_decoder/lv_bin_decoder.c ****         if(res != LV_FS_RES_OK || rn != file_len) {
 1014              		.loc 1 883 9 is_stmt 1 view .LVU336
 883:Drivers/lvgl/src/libs/bin_decoder/lv_bin_decoder.c ****         if(res != LV_FS_RES_OK || rn != file_len) {
 1015              		.loc 1 883 15 is_stmt 0 view .LVU337
 1016 00a2 D8F80000 		ldr	r0, [r8]
 1017              	.LVL115:
 883:Drivers/lvgl/src/libs/bin_decoder/lv_bin_decoder.c ****         if(res != LV_FS_RES_OK || rn != file_len) {
 1018              		.loc 1 883 15 view .LVU338
 1019 00a6 03AB     		add	r3, sp, #12
 1020 00a8 0093     		str	r3, [sp]
 1021 00aa 5B46     		mov	r3, fp
 1022 00ac 5246     		mov	r2, r10
 1023 00ae 0C21     		movs	r1, #12
ARM GAS  /var/folders/qx/2_175_4n2s19vhvtspjhb3qh0000gn/T//ccPNYKNl.s 			page 43


 1024 00b0 FFF7FEFF 		bl	fs_read_file_at
 1025              	.LVL116:
 884:Drivers/lvgl/src/libs/bin_decoder/lv_bin_decoder.c ****             LV_LOG_WARN("Read header failed: %d, with len: %" LV_PRIu32 ", expected: %" LV_PRIu32, 
 1026              		.loc 1 884 9 is_stmt 1 view .LVU339
 884:Drivers/lvgl/src/libs/bin_decoder/lv_bin_decoder.c ****             LV_LOG_WARN("Read header failed: %d, with len: %" LV_PRIu32 ", expected: %" LV_PRIu32, 
 1027              		.loc 1 884 11 is_stmt 0 view .LVU340
 1028 00b4 10B9     		cbnz	r0, .L73
 884:Drivers/lvgl/src/libs/bin_decoder/lv_bin_decoder.c ****             LV_LOG_WARN("Read header failed: %d, with len: %" LV_PRIu32 ", expected: %" LV_PRIu32, 
 1029              		.loc 1 884 38 discriminator 1 view .LVU341
 1030 00b6 039B     		ldr	r3, [sp, #12]
 884:Drivers/lvgl/src/libs/bin_decoder/lv_bin_decoder.c ****             LV_LOG_WARN("Read header failed: %d, with len: %" LV_PRIu32 ", expected: %" LV_PRIu32, 
 1031              		.loc 1 884 32 discriminator 1 view .LVU342
 1032 00b8 5B45     		cmp	r3, fp
 1033 00ba D2D0     		beq	.L71
 1034              	.L73:
 885:Drivers/lvgl/src/libs/bin_decoder/lv_bin_decoder.c ****             lv_draw_buf_destroy(decoded);
 1035              		.loc 1 885 13 is_stmt 1 view .LVU343
 885:Drivers/lvgl/src/libs/bin_decoder/lv_bin_decoder.c ****             lv_draw_buf_destroy(decoded);
 1036              		.loc 1 885 13 view .LVU344
 885:Drivers/lvgl/src/libs/bin_decoder/lv_bin_decoder.c ****             lv_draw_buf_destroy(decoded);
 1037              		.loc 1 885 13 view .LVU345
 886:Drivers/lvgl/src/libs/bin_decoder/lv_bin_decoder.c ****             return LV_RESULT_INVALID;
 1038              		.loc 1 886 13 view .LVU346
 1039 00bc 3846     		mov	r0, r7
 1040              	.LVL117:
 886:Drivers/lvgl/src/libs/bin_decoder/lv_bin_decoder.c ****             return LV_RESULT_INVALID;
 1041              		.loc 1 886 13 is_stmt 0 view .LVU347
 1042 00be FFF7FEFF 		bl	lv_draw_buf_destroy
 1043              	.LVL118:
 887:Drivers/lvgl/src/libs/bin_decoder/lv_bin_decoder.c ****         }
 1044              		.loc 1 887 13 is_stmt 1 view .LVU348
 887:Drivers/lvgl/src/libs/bin_decoder/lv_bin_decoder.c ****         }
 1045              		.loc 1 887 20 is_stmt 0 view .LVU349
 1046 00c2 0024     		movs	r4, #0
 1047              	.LVL119:
 887:Drivers/lvgl/src/libs/bin_decoder/lv_bin_decoder.c ****         }
 1048              		.loc 1 887 20 view .LVU350
 1049 00c4 A8E7     		b	.L69
 1050              	.LVL120:
 1051              	.L87:
 892:Drivers/lvgl/src/libs/bin_decoder/lv_bin_decoder.c ****     }
 1052              		.loc 1 892 9 is_stmt 1 view .LVU351
 892:Drivers/lvgl/src/libs/bin_decoder/lv_bin_decoder.c ****     }
 1053              		.loc 1 892 51 is_stmt 0 view .LVU352
 1054 00c6 EB68     		ldr	r3, [r5, #12]
 892:Drivers/lvgl/src/libs/bin_decoder/lv_bin_decoder.c ****     }
 1055              		.loc 1 892 9 view .LVU353
 1056 00c8 5A46     		mov	r2, fp
 1057 00ca 1969     		ldr	r1, [r3, #16]
 1058 00cc 5046     		mov	r0, r10
 1059              	.LVL121:
 892:Drivers/lvgl/src/libs/bin_decoder/lv_bin_decoder.c ****     }
 1060              		.loc 1 892 9 view .LVU354
 1061 00ce FFF7FEFF 		bl	lv_memcpy
 1062              	.LVL122:
 1063 00d2 C6E7     		b	.L71
 1064              	.LVL123:
ARM GAS  /var/folders/qx/2_175_4n2s19vhvtspjhb3qh0000gn/T//ccPNYKNl.s 			page 44


 1065              	.L78:
 1066              	.LBB34:
 1067              	.LBB33:
 1068              	.LBB26:
 1069              	.LBB27:
 1070              	.LBB28:
 843:Drivers/lvgl/src/libs/bin_decoder/lv_bin_decoder.c ****         bpp_now += bpp;
 1071              		.loc 1 843 9 is_stmt 1 view .LVU355
 843:Drivers/lvgl/src/libs/bin_decoder/lv_bin_decoder.c ****         bpp_now += bpp;
 1072              		.loc 1 843 28 is_stmt 0 view .LVU356
 1073 00d4 C3F10802 		rsb	r2, r3, #8
 843:Drivers/lvgl/src/libs/bin_decoder/lv_bin_decoder.c ****         bpp_now += bpp;
 1074              		.loc 1 843 22 view .LVU357
 1075 00d8 01FA02F2 		lsl	r2, r1, r2
 843:Drivers/lvgl/src/libs/bin_decoder/lv_bin_decoder.c ****         bpp_now += bpp;
 1076              		.loc 1 843 13 view .LVU358
 1077 00dc 4BEA0202 		orr	r2, fp, r2
 1078 00e0 5FFA82FB 		uxtb	fp, r2
 1079              	.LVL124:
 844:Drivers/lvgl/src/libs/bin_decoder/lv_bin_decoder.c ****     };
 1080              		.loc 1 844 9 is_stmt 1 view .LVU359
 844:Drivers/lvgl/src/libs/bin_decoder/lv_bin_decoder.c ****     };
 1081              		.loc 1 844 17 is_stmt 0 view .LVU360
 1082 00e4 2344     		add	r3, r3, r4
 1083              	.LVL125:
 844:Drivers/lvgl/src/libs/bin_decoder/lv_bin_decoder.c ****     };
 1084              		.loc 1 844 17 view .LVU361
 1085 00e6 DBB2     		uxtb	r3, r3
 1086              	.LVL126:
 1087              	.L77:
 842:Drivers/lvgl/src/libs/bin_decoder/lv_bin_decoder.c ****         res |= value << (8 - bpp_now);
 1088              		.loc 1 842 19 is_stmt 1 view .LVU362
 1089 00e8 072B     		cmp	r3, #7
 1090 00ea F3D9     		bls	.L78
 1091              	.LVL127:
 1092              	.L76:
 842:Drivers/lvgl/src/libs/bin_decoder/lv_bin_decoder.c ****         res |= value << (8 - bpp_now);
 1093              		.loc 1 842 19 is_stmt 0 view .LVU363
 1094              	.LBE28:
 1095              	.LBE27:
 912:Drivers/lvgl/src/libs/bin_decoder/lv_bin_decoder.c ****             shift += bpp;
 1096              		.loc 1 912 18 discriminator 1 view .LVU364
 1097 00ec 8CF800B0 		strb	fp, [ip]
 913:Drivers/lvgl/src/libs/bin_decoder/lv_bin_decoder.c ****             if(shift >= 8) {
 1098              		.loc 1 913 13 is_stmt 1 view .LVU365
 913:Drivers/lvgl/src/libs/bin_decoder/lv_bin_decoder.c ****             if(shift >= 8) {
 1099              		.loc 1 913 19 is_stmt 0 view .LVU366
 1100 00f0 2044     		add	r0, r0, r4
 1101              	.LVL128:
 913:Drivers/lvgl/src/libs/bin_decoder/lv_bin_decoder.c ****             if(shift >= 8) {
 1102              		.loc 1 913 19 view .LVU367
 1103 00f2 C0B2     		uxtb	r0, r0
 1104              	.LVL129:
 914:Drivers/lvgl/src/libs/bin_decoder/lv_bin_decoder.c ****                 shift = 0;
 1105              		.loc 1 914 13 is_stmt 1 view .LVU368
 914:Drivers/lvgl/src/libs/bin_decoder/lv_bin_decoder.c ****                 shift = 0;
 1106              		.loc 1 914 15 is_stmt 0 view .LVU369
ARM GAS  /var/folders/qx/2_175_4n2s19vhvtspjhb3qh0000gn/T//ccPNYKNl.s 			page 45


 1107 00f4 0728     		cmp	r0, #7
 1108 00f6 02D9     		bls	.L79
 915:Drivers/lvgl/src/libs/bin_decoder/lv_bin_decoder.c ****                 in--;
 1109              		.loc 1 915 17 is_stmt 1 view .LVU370
 1110              	.LVL130:
 916:Drivers/lvgl/src/libs/bin_decoder/lv_bin_decoder.c ****             }
 1111              		.loc 1 916 17 view .LVU371
 916:Drivers/lvgl/src/libs/bin_decoder/lv_bin_decoder.c ****             }
 1112              		.loc 1 916 19 is_stmt 0 view .LVU372
 1113 00f8 0EF1FF3E 		add	lr, lr, #-1
 1114              	.LVL131:
 915:Drivers/lvgl/src/libs/bin_decoder/lv_bin_decoder.c ****                 in--;
 1115              		.loc 1 915 23 view .LVU373
 1116 00fc 0020     		movs	r0, #0
 1117              	.LVL132:
 1118              	.L79:
 918:Drivers/lvgl/src/libs/bin_decoder/lv_bin_decoder.c ****         }
 1119              		.loc 1 918 13 is_stmt 1 view .LVU374
 918:Drivers/lvgl/src/libs/bin_decoder/lv_bin_decoder.c ****         }
 1120              		.loc 1 918 16 is_stmt 0 view .LVU375
 1121 00fe 0CF1FF3C 		add	ip, ip, #-1
 1122              	.LVL133:
 918:Drivers/lvgl/src/libs/bin_decoder/lv_bin_decoder.c ****         }
 1123              		.loc 1 918 16 view .LVU376
 1124              	.LBE26:
 901:Drivers/lvgl/src/libs/bin_decoder/lv_bin_decoder.c ****             /**
 1125              		.loc 1 901 43 is_stmt 1 discriminator 2 view .LVU377
 1126 0102 09F10109 		add	r9, r9, #1
 1127              	.LVL134:
 1128              	.L75:
 901:Drivers/lvgl/src/libs/bin_decoder/lv_bin_decoder.c ****             /**
 1129              		.loc 1 901 31 discriminator 1 view .LVU378
 1130 0106 B145     		cmp	r9, r6
 1131 0108 0AD2     		bcs	.L74
 1132              	.LBB31:
 911:Drivers/lvgl/src/libs/bin_decoder/lv_bin_decoder.c ****             *out = bit_extend(value, bpp);
 1133              		.loc 1 911 13 view .LVU379
 911:Drivers/lvgl/src/libs/bin_decoder/lv_bin_decoder.c ****             *out = bit_extend(value, bpp);
 1134              		.loc 1 911 31 is_stmt 0 view .LVU380
 1135 010a 9EF80010 		ldrb	r1, [lr]	@ zero_extendqisi2
 911:Drivers/lvgl/src/libs/bin_decoder/lv_bin_decoder.c ****             *out = bit_extend(value, bpp);
 1136              		.loc 1 911 35 view .LVU381
 1137 010e 0141     		asrs	r1, r1, r0
 1138              	.LVL135:
 912:Drivers/lvgl/src/libs/bin_decoder/lv_bin_decoder.c ****             shift += bpp;
 1139              		.loc 1 912 13 is_stmt 1 view .LVU382
 1140              	.LBB30:
 1141              	.LBI27:
 836:Drivers/lvgl/src/libs/bin_decoder/lv_bin_decoder.c **** {
 1142              		.loc 1 836 23 view .LVU383
 1143              	.LBB29:
 838:Drivers/lvgl/src/libs/bin_decoder/lv_bin_decoder.c **** 
 1144              		.loc 1 838 5 view .LVU384
 838:Drivers/lvgl/src/libs/bin_decoder/lv_bin_decoder.c **** 
 1145              		.loc 1 838 7 is_stmt 0 view .LVU385
 1146 0110 1AEA0101 		ands	r1, r10, r1
 1147              	.LVL136:
ARM GAS  /var/folders/qx/2_175_4n2s19vhvtspjhb3qh0000gn/T//ccPNYKNl.s 			page 46


 838:Drivers/lvgl/src/libs/bin_decoder/lv_bin_decoder.c **** 
 1148              		.loc 1 838 7 view .LVU386
 1149 0114 02D0     		beq	.L82
 841:Drivers/lvgl/src/libs/bin_decoder/lv_bin_decoder.c ****     while(bpp_now < 8) {
 1150              		.loc 1 841 13 view .LVU387
 1151 0116 2346     		mov	r3, r4
 840:Drivers/lvgl/src/libs/bin_decoder/lv_bin_decoder.c ****     uint8_t bpp_now = bpp;
 1152              		.loc 1 840 13 view .LVU388
 1153 0118 8B46     		mov	fp, r1
 1154 011a E5E7     		b	.L77
 1155              	.L82:
 838:Drivers/lvgl/src/libs/bin_decoder/lv_bin_decoder.c **** 
 1156              		.loc 1 838 27 discriminator 1 view .LVU389
 1157 011c 8B46     		mov	fp, r1
 1158 011e E5E7     		b	.L76
 1159              	.LVL137:
 1160              	.L74:
 838:Drivers/lvgl/src/libs/bin_decoder/lv_bin_decoder.c **** 
 1161              		.loc 1 838 27 discriminator 1 view .LVU390
 1162              	.LBE29:
 1163              	.LBE30:
 1164              	.LBE31:
 1165              	.LBE33:
 1166              	.LBE34:
 922:Drivers/lvgl/src/libs/bin_decoder/lv_bin_decoder.c ****     dsc->decoded = decoded;
 1167              		.loc 1 922 5 is_stmt 1 view .LVU391
 922:Drivers/lvgl/src/libs/bin_decoder/lv_bin_decoder.c ****     dsc->decoded = decoded;
 1168              		.loc 1 922 27 is_stmt 0 view .LVU392
 1169 0120 C8F81C70 		str	r7, [r8, #28]
 923:Drivers/lvgl/src/libs/bin_decoder/lv_bin_decoder.c ****     return LV_RESULT_OK;
 1170              		.loc 1 923 5 is_stmt 1 view .LVU393
 923:Drivers/lvgl/src/libs/bin_decoder/lv_bin_decoder.c ****     return LV_RESULT_OK;
 1171              		.loc 1 923 18 is_stmt 0 view .LVU394
 1172 0124 EF62     		str	r7, [r5, #44]
 924:Drivers/lvgl/src/libs/bin_decoder/lv_bin_decoder.c **** }
 1173              		.loc 1 924 5 is_stmt 1 view .LVU395
 924:Drivers/lvgl/src/libs/bin_decoder/lv_bin_decoder.c **** }
 1174              		.loc 1 924 12 is_stmt 0 view .LVU396
 1175 0126 0124     		movs	r4, #1
 1176              	.LVL138:
 924:Drivers/lvgl/src/libs/bin_decoder/lv_bin_decoder.c **** }
 1177              		.loc 1 924 12 view .LVU397
 1178 0128 76E7     		b	.L69
 1179              	.LVL139:
 1180              	.L81:
 873:Drivers/lvgl/src/libs/bin_decoder/lv_bin_decoder.c ****     }
 1181              		.loc 1 873 16 view .LVU398
 1182 012a 0024     		movs	r4, #0
 1183              	.LVL140:
 873:Drivers/lvgl/src/libs/bin_decoder/lv_bin_decoder.c ****     }
 1184              		.loc 1 873 16 view .LVU399
 1185 012c 74E7     		b	.L69
 1186              	.L89:
 1187 012e 00BF     		.align	2
 1188              	.L88:
 1189 0130 04010000 		.word	lv_global+260
 1190              		.cfi_endproc
ARM GAS  /var/folders/qx/2_175_4n2s19vhvtspjhb3qh0000gn/T//ccPNYKNl.s 			page 47


 1191              	.LFE203:
 1193              		.section	.text.free_decoder_data,"ax",%progbits
 1194              		.align	1
 1195              		.syntax unified
 1196              		.thumb
 1197              		.thumb_func
 1199              	free_decoder_data:
 1200              	.LVL141:
 1201              	.LFB199:
 562:Drivers/lvgl/src/libs/bin_decoder/lv_bin_decoder.c ****     decoder_data_t * decoder_data = dsc->user_data;
 1202              		.loc 1 562 1 is_stmt 1 view -0
 1203              		.cfi_startproc
 1204              		@ args = 0, pretend = 0, frame = 0
 1205              		@ frame_needed = 0, uses_anonymous_args = 0
 562:Drivers/lvgl/src/libs/bin_decoder/lv_bin_decoder.c ****     decoder_data_t * decoder_data = dsc->user_data;
 1206              		.loc 1 562 1 is_stmt 0 view .LVU401
 1207 0000 38B5     		push	{r3, r4, r5, lr}
 1208              	.LCFI14:
 1209              		.cfi_def_cfa_offset 16
 1210              		.cfi_offset 3, -16
 1211              		.cfi_offset 4, -12
 1212              		.cfi_offset 5, -8
 1213              		.cfi_offset 14, -4
 563:Drivers/lvgl/src/libs/bin_decoder/lv_bin_decoder.c ****     if(decoder_data == NULL) return;
 1214              		.loc 1 563 5 is_stmt 1 view .LVU402
 563:Drivers/lvgl/src/libs/bin_decoder/lv_bin_decoder.c ****     if(decoder_data == NULL) return;
 1215              		.loc 1 563 22 is_stmt 0 view .LVU403
 1216 0002 846C     		ldr	r4, [r0, #72]
 1217              	.LVL142:
 564:Drivers/lvgl/src/libs/bin_decoder/lv_bin_decoder.c **** 
 1218              		.loc 1 564 5 is_stmt 1 view .LVU404
 564:Drivers/lvgl/src/libs/bin_decoder/lv_bin_decoder.c **** 
 1219              		.loc 1 564 7 is_stmt 0 view .LVU405
 1220 0004 BCB1     		cbz	r4, .L90
 1221 0006 0546     		mov	r5, r0
 566:Drivers/lvgl/src/libs/bin_decoder/lv_bin_decoder.c ****         lv_fs_close(decoder_data->f);
 1222              		.loc 1 566 5 is_stmt 1 view .LVU406
 566:Drivers/lvgl/src/libs/bin_decoder/lv_bin_decoder.c ****         lv_fs_close(decoder_data->f);
 1223              		.loc 1 566 20 is_stmt 0 view .LVU407
 1224 0008 2068     		ldr	r0, [r4]
 1225              	.LVL143:
 566:Drivers/lvgl/src/libs/bin_decoder/lv_bin_decoder.c ****         lv_fs_close(decoder_data->f);
 1226              		.loc 1 566 7 view .LVU408
 1227 000a 20B1     		cbz	r0, .L92
 567:Drivers/lvgl/src/libs/bin_decoder/lv_bin_decoder.c ****         lv_free(decoder_data->f);
 1228              		.loc 1 567 9 is_stmt 1 view .LVU409
 1229 000c FFF7FEFF 		bl	lv_fs_close
 1230              	.LVL144:
 568:Drivers/lvgl/src/libs/bin_decoder/lv_bin_decoder.c ****     }
 1231              		.loc 1 568 9 view .LVU410
 1232 0010 2068     		ldr	r0, [r4]
 1233 0012 FFF7FEFF 		bl	lv_free
 1234              	.LVL145:
 1235              	.L92:
 571:Drivers/lvgl/src/libs/bin_decoder/lv_bin_decoder.c ****     if(decoder_data->decompressed) lv_draw_buf_destroy(decoder_data->decompressed);
 1236              		.loc 1 571 5 view .LVU411
 571:Drivers/lvgl/src/libs/bin_decoder/lv_bin_decoder.c ****     if(decoder_data->decompressed) lv_draw_buf_destroy(decoder_data->decompressed);
ARM GAS  /var/folders/qx/2_175_4n2s19vhvtspjhb3qh0000gn/T//ccPNYKNl.s 			page 48


 1237              		.loc 1 571 20 is_stmt 0 view .LVU412
 1238 0016 E069     		ldr	r0, [r4, #28]
 571:Drivers/lvgl/src/libs/bin_decoder/lv_bin_decoder.c ****     if(decoder_data->decompressed) lv_draw_buf_destroy(decoder_data->decompressed);
 1239              		.loc 1 571 7 view .LVU413
 1240 0018 08B1     		cbz	r0, .L93
 571:Drivers/lvgl/src/libs/bin_decoder/lv_bin_decoder.c ****     if(decoder_data->decompressed) lv_draw_buf_destroy(decoder_data->decompressed);
 1241              		.loc 1 571 31 is_stmt 1 discriminator 1 view .LVU414
 1242 001a FFF7FEFF 		bl	lv_draw_buf_destroy
 1243              	.LVL146:
 1244              	.L93:
 572:Drivers/lvgl/src/libs/bin_decoder/lv_bin_decoder.c ****     lv_free(decoder_data->palette);
 1245              		.loc 1 572 5 view .LVU415
 572:Drivers/lvgl/src/libs/bin_decoder/lv_bin_decoder.c ****     lv_free(decoder_data->palette);
 1246              		.loc 1 572 20 is_stmt 0 view .LVU416
 1247 001e 206A     		ldr	r0, [r4, #32]
 572:Drivers/lvgl/src/libs/bin_decoder/lv_bin_decoder.c ****     lv_free(decoder_data->palette);
 1248              		.loc 1 572 7 view .LVU417
 1249 0020 08B1     		cbz	r0, .L94
 572:Drivers/lvgl/src/libs/bin_decoder/lv_bin_decoder.c ****     lv_free(decoder_data->palette);
 1250              		.loc 1 572 36 is_stmt 1 discriminator 1 view .LVU418
 1251 0022 FFF7FEFF 		bl	lv_draw_buf_destroy
 1252              	.LVL147:
 1253              	.L94:
 573:Drivers/lvgl/src/libs/bin_decoder/lv_bin_decoder.c ****     lv_free(decoder_data);
 1254              		.loc 1 573 5 view .LVU419
 1255 0026 6068     		ldr	r0, [r4, #4]
 1256 0028 FFF7FEFF 		bl	lv_free
 1257              	.LVL148:
 574:Drivers/lvgl/src/libs/bin_decoder/lv_bin_decoder.c ****     dsc->user_data = NULL;
 1258              		.loc 1 574 5 view .LVU420
 1259 002c 2046     		mov	r0, r4
 1260 002e FFF7FEFF 		bl	lv_free
 1261              	.LVL149:
 575:Drivers/lvgl/src/libs/bin_decoder/lv_bin_decoder.c **** }
 1262              		.loc 1 575 5 view .LVU421
 575:Drivers/lvgl/src/libs/bin_decoder/lv_bin_decoder.c **** }
 1263              		.loc 1 575 20 is_stmt 0 view .LVU422
 1264 0032 0023     		movs	r3, #0
 1265 0034 AB64     		str	r3, [r5, #72]
 1266              	.LVL150:
 1267              	.L90:
 576:Drivers/lvgl/src/libs/bin_decoder/lv_bin_decoder.c **** 
 1268              		.loc 1 576 1 view .LVU423
 1269 0036 38BD     		pop	{r3, r4, r5, pc}
 576:Drivers/lvgl/src/libs/bin_decoder/lv_bin_decoder.c **** 
 1270              		.loc 1 576 1 view .LVU424
 1271              		.cfi_endproc
 1272              	.LFE199:
 1274              		.section	.text.lv_bin_decoder_close,"ax",%progbits
 1275              		.align	1
 1276              		.global	lv_bin_decoder_close
 1277              		.syntax unified
 1278              		.thumb
 1279              		.thumb_func
 1281              	lv_bin_decoder_close:
 1282              	.LVL151:
 1283              	.LFB196:
ARM GAS  /var/folders/qx/2_175_4n2s19vhvtspjhb3qh0000gn/T//ccPNYKNl.s 			page 49


 389:Drivers/lvgl/src/libs/bin_decoder/lv_bin_decoder.c ****     LV_UNUSED(decoder); /*Unused*/
 1284              		.loc 1 389 1 is_stmt 1 view -0
 1285              		.cfi_startproc
 1286              		@ args = 0, pretend = 0, frame = 0
 1287              		@ frame_needed = 0, uses_anonymous_args = 0
 389:Drivers/lvgl/src/libs/bin_decoder/lv_bin_decoder.c ****     LV_UNUSED(decoder); /*Unused*/
 1288              		.loc 1 389 1 is_stmt 0 view .LVU426
 1289 0000 38B5     		push	{r3, r4, r5, lr}
 1290              	.LCFI15:
 1291              		.cfi_def_cfa_offset 16
 1292              		.cfi_offset 3, -16
 1293              		.cfi_offset 4, -12
 1294              		.cfi_offset 5, -8
 1295              		.cfi_offset 14, -4
 1296 0002 0C46     		mov	r4, r1
 390:Drivers/lvgl/src/libs/bin_decoder/lv_bin_decoder.c **** 
 1297              		.loc 1 390 5 is_stmt 1 view .LVU427
 392:Drivers/lvgl/src/libs/bin_decoder/lv_bin_decoder.c ****     if(decoder_data && decoder_data->decoded_partial) {
 1298              		.loc 1 392 5 view .LVU428
 392:Drivers/lvgl/src/libs/bin_decoder/lv_bin_decoder.c ****     if(decoder_data && decoder_data->decoded_partial) {
 1299              		.loc 1 392 22 is_stmt 0 view .LVU429
 1300 0004 8D6C     		ldr	r5, [r1, #72]
 1301              	.LVL152:
 393:Drivers/lvgl/src/libs/bin_decoder/lv_bin_decoder.c ****         lv_draw_buf_destroy(decoder_data->decoded_partial);
 1302              		.loc 1 393 5 is_stmt 1 view .LVU430
 393:Drivers/lvgl/src/libs/bin_decoder/lv_bin_decoder.c ****         lv_draw_buf_destroy(decoder_data->decoded_partial);
 1303              		.loc 1 393 7 is_stmt 0 view .LVU431
 1304 0006 2DB1     		cbz	r5, .L97
 393:Drivers/lvgl/src/libs/bin_decoder/lv_bin_decoder.c ****         lv_draw_buf_destroy(decoder_data->decoded_partial);
 1305              		.loc 1 393 36 discriminator 1 view .LVU432
 1306 0008 286C     		ldr	r0, [r5, #64]
 1307              	.LVL153:
 393:Drivers/lvgl/src/libs/bin_decoder/lv_bin_decoder.c ****         lv_draw_buf_destroy(decoder_data->decoded_partial);
 1308              		.loc 1 393 21 discriminator 1 view .LVU433
 1309 000a 18B1     		cbz	r0, .L97
 394:Drivers/lvgl/src/libs/bin_decoder/lv_bin_decoder.c ****         decoder_data->decoded_partial = NULL;
 1310              		.loc 1 394 9 is_stmt 1 view .LVU434
 1311 000c FFF7FEFF 		bl	lv_draw_buf_destroy
 1312              	.LVL154:
 395:Drivers/lvgl/src/libs/bin_decoder/lv_bin_decoder.c ****     }
 1313              		.loc 1 395 9 view .LVU435
 395:Drivers/lvgl/src/libs/bin_decoder/lv_bin_decoder.c ****     }
 1314              		.loc 1 395 39 is_stmt 0 view .LVU436
 1315 0010 0023     		movs	r3, #0
 1316 0012 2B64     		str	r3, [r5, #64]
 1317              	.L97:
 398:Drivers/lvgl/src/libs/bin_decoder/lv_bin_decoder.c **** }
 1318              		.loc 1 398 5 is_stmt 1 view .LVU437
 1319 0014 2046     		mov	r0, r4
 1320 0016 FFF7FEFF 		bl	free_decoder_data
 1321              	.LVL155:
 399:Drivers/lvgl/src/libs/bin_decoder/lv_bin_decoder.c **** 
 1322              		.loc 1 399 1 is_stmt 0 view .LVU438
 1323 001a 38BD     		pop	{r3, r4, r5, pc}
 399:Drivers/lvgl/src/libs/bin_decoder/lv_bin_decoder.c **** 
 1324              		.loc 1 399 1 view .LVU439
 1325              		.cfi_endproc
ARM GAS  /var/folders/qx/2_175_4n2s19vhvtspjhb3qh0000gn/T//ccPNYKNl.s 			page 50


 1326              	.LFE196:
 1328              		.section	.text.get_decoder_data,"ax",%progbits
 1329              		.align	1
 1330              		.syntax unified
 1331              		.thumb
 1332              		.thumb_func
 1334              	get_decoder_data:
 1335              	.LVL156:
 1336              	.LFB198:
 545:Drivers/lvgl/src/libs/bin_decoder/lv_bin_decoder.c ****     decoder_data_t * data = dsc->user_data;
 1337              		.loc 1 545 1 is_stmt 1 view -0
 1338              		.cfi_startproc
 1339              		@ args = 0, pretend = 0, frame = 0
 1340              		@ frame_needed = 0, uses_anonymous_args = 0
 545:Drivers/lvgl/src/libs/bin_decoder/lv_bin_decoder.c ****     decoder_data_t * data = dsc->user_data;
 1341              		.loc 1 545 1 is_stmt 0 view .LVU441
 1342 0000 10B5     		push	{r4, lr}
 1343              	.LCFI16:
 1344              		.cfi_def_cfa_offset 8
 1345              		.cfi_offset 4, -8
 1346              		.cfi_offset 14, -4
 1347 0002 0446     		mov	r4, r0
 546:Drivers/lvgl/src/libs/bin_decoder/lv_bin_decoder.c ****     if(data == NULL) {
 1348              		.loc 1 546 5 is_stmt 1 view .LVU442
 546:Drivers/lvgl/src/libs/bin_decoder/lv_bin_decoder.c ****     if(data == NULL) {
 1349              		.loc 1 546 22 is_stmt 0 view .LVU443
 1350 0004 806C     		ldr	r0, [r0, #72]
 1351              	.LVL157:
 547:Drivers/lvgl/src/libs/bin_decoder/lv_bin_decoder.c ****         data = lv_malloc_zeroed(sizeof(decoder_data_t));
 1352              		.loc 1 547 5 is_stmt 1 view .LVU444
 547:Drivers/lvgl/src/libs/bin_decoder/lv_bin_decoder.c ****         data = lv_malloc_zeroed(sizeof(decoder_data_t));
 1353              		.loc 1 547 7 is_stmt 0 view .LVU445
 1354 0006 00B1     		cbz	r0, .L104
 1355              	.L99:
 559:Drivers/lvgl/src/libs/bin_decoder/lv_bin_decoder.c **** 
 1356              		.loc 1 559 1 view .LVU446
 1357 0008 10BD     		pop	{r4, pc}
 1358              	.LVL158:
 1359              	.L104:
 548:Drivers/lvgl/src/libs/bin_decoder/lv_bin_decoder.c ****         LV_ASSERT_MALLOC(data);
 1360              		.loc 1 548 9 is_stmt 1 view .LVU447
 548:Drivers/lvgl/src/libs/bin_decoder/lv_bin_decoder.c ****         LV_ASSERT_MALLOC(data);
 1361              		.loc 1 548 16 is_stmt 0 view .LVU448
 1362 000a 4420     		movs	r0, #68
 1363              	.LVL159:
 548:Drivers/lvgl/src/libs/bin_decoder/lv_bin_decoder.c ****         LV_ASSERT_MALLOC(data);
 1364              		.loc 1 548 16 view .LVU449
 1365 000c FFF7FEFF 		bl	lv_malloc_zeroed
 1366              	.LVL160:
 549:Drivers/lvgl/src/libs/bin_decoder/lv_bin_decoder.c ****         if(data == NULL) {
 1367              		.loc 1 549 9 is_stmt 1 view .LVU450
 549:Drivers/lvgl/src/libs/bin_decoder/lv_bin_decoder.c ****         if(data == NULL) {
 1368              		.loc 1 549 9 view .LVU451
 1369 0010 08B1     		cbz	r0, .L102
 549:Drivers/lvgl/src/libs/bin_decoder/lv_bin_decoder.c ****         if(data == NULL) {
 1370              		.loc 1 549 9 view .LVU452
 549:Drivers/lvgl/src/libs/bin_decoder/lv_bin_decoder.c ****         if(data == NULL) {
ARM GAS  /var/folders/qx/2_175_4n2s19vhvtspjhb3qh0000gn/T//ccPNYKNl.s 			page 51


 1371              		.loc 1 549 31 view .LVU453
 550:Drivers/lvgl/src/libs/bin_decoder/lv_bin_decoder.c ****             LV_LOG_ERROR("Out of memory");
 1372              		.loc 1 550 9 view .LVU454
 555:Drivers/lvgl/src/libs/bin_decoder/lv_bin_decoder.c ****     }
 1373              		.loc 1 555 9 view .LVU455
 555:Drivers/lvgl/src/libs/bin_decoder/lv_bin_decoder.c ****     }
 1374              		.loc 1 555 24 is_stmt 0 view .LVU456
 1375 0012 A064     		str	r0, [r4, #72]
 558:Drivers/lvgl/src/libs/bin_decoder/lv_bin_decoder.c **** }
 1376              		.loc 1 558 5 is_stmt 1 view .LVU457
 1377 0014 F8E7     		b	.L99
 1378              	.L102:
 549:Drivers/lvgl/src/libs/bin_decoder/lv_bin_decoder.c ****         if(data == NULL) {
 1379              		.loc 1 549 9 view .LVU458
 549:Drivers/lvgl/src/libs/bin_decoder/lv_bin_decoder.c ****         if(data == NULL) {
 1380              		.loc 1 549 9 view .LVU459
 549:Drivers/lvgl/src/libs/bin_decoder/lv_bin_decoder.c ****         if(data == NULL) {
 1381              		.loc 1 549 9 view .LVU460
 549:Drivers/lvgl/src/libs/bin_decoder/lv_bin_decoder.c ****         if(data == NULL) {
 1382              		.loc 1 549 9 view .LVU461
 549:Drivers/lvgl/src/libs/bin_decoder/lv_bin_decoder.c ****         if(data == NULL) {
 1383              		.loc 1 549 9 view .LVU462
 1384 0016 FEE7     		b	.L102
 1385              		.cfi_endproc
 1386              	.LFE198:
 1388              		.section	.text.lv_bin_decoder_open,"ax",%progbits
 1389              		.align	1
 1390              		.global	lv_bin_decoder_open
 1391              		.syntax unified
 1392              		.thumb
 1393              		.thumb_func
 1395              	lv_bin_decoder_open:
 1396              	.LVL161:
 1397              	.LFB195:
 186:Drivers/lvgl/src/libs/bin_decoder/lv_bin_decoder.c ****     LV_UNUSED(decoder);
 1398              		.loc 1 186 1 view -0
 1399              		.cfi_startproc
 1400              		@ args = 0, pretend = 0, frame = 56
 1401              		@ frame_needed = 0, uses_anonymous_args = 0
 186:Drivers/lvgl/src/libs/bin_decoder/lv_bin_decoder.c ****     LV_UNUSED(decoder);
 1402              		.loc 1 186 1 is_stmt 0 view .LVU464
 1403 0000 2DE9F043 		push	{r4, r5, r6, r7, r8, r9, lr}
 1404              	.LCFI17:
 1405              		.cfi_def_cfa_offset 28
 1406              		.cfi_offset 4, -28
 1407              		.cfi_offset 5, -24
 1408              		.cfi_offset 6, -20
 1409              		.cfi_offset 7, -16
 1410              		.cfi_offset 8, -12
 1411              		.cfi_offset 9, -8
 1412              		.cfi_offset 14, -4
 1413 0004 8FB0     		sub	sp, sp, #60
 1414              	.LCFI18:
 1415              		.cfi_def_cfa_offset 88
 1416 0006 0646     		mov	r6, r0
 1417 0008 0C46     		mov	r4, r1
 187:Drivers/lvgl/src/libs/bin_decoder/lv_bin_decoder.c **** 
ARM GAS  /var/folders/qx/2_175_4n2s19vhvtspjhb3qh0000gn/T//ccPNYKNl.s 			page 52


 1418              		.loc 1 187 5 is_stmt 1 view .LVU465
 189:Drivers/lvgl/src/libs/bin_decoder/lv_bin_decoder.c ****     lv_fs_res_t fs_res = LV_FS_RES_UNKNOWN;
 1419              		.loc 1 189 5 view .LVU466
 1420              	.LVL162:
 190:Drivers/lvgl/src/libs/bin_decoder/lv_bin_decoder.c ****     bool use_directly = false; /*If the image is already decoded and can be used directly*/
 1421              		.loc 1 190 5 view .LVU467
 191:Drivers/lvgl/src/libs/bin_decoder/lv_bin_decoder.c **** 
 1422              		.loc 1 191 5 view .LVU468
 194:Drivers/lvgl/src/libs/bin_decoder/lv_bin_decoder.c ****         /*Support only "*.bin" files*/
 1423              		.loc 1 194 5 view .LVU469
 194:Drivers/lvgl/src/libs/bin_decoder/lv_bin_decoder.c ****         /*Support only "*.bin" files*/
 1424              		.loc 1 194 11 is_stmt 0 view .LVU470
 1425 000a 0D7C     		ldrb	r5, [r1, #16]	@ zero_extendqisi2
 194:Drivers/lvgl/src/libs/bin_decoder/lv_bin_decoder.c ****         /*Support only "*.bin" files*/
 1426              		.loc 1 194 7 view .LVU471
 1427 000c 012D     		cmp	r5, #1
 1428 000e 4CD0     		beq	.L140
 256:Drivers/lvgl/src/libs/bin_decoder/lv_bin_decoder.c ****         /*The variables should have valid data*/
 1429              		.loc 1 256 10 is_stmt 1 view .LVU472
 256:Drivers/lvgl/src/libs/bin_decoder/lv_bin_decoder.c ****         /*The variables should have valid data*/
 1430              		.loc 1 256 12 is_stmt 0 view .LVU473
 1431 0010 002D     		cmp	r5, #0
 1432 0012 40F0FF80 		bne	.L134
 1433              	.LBB35:
 258:Drivers/lvgl/src/libs/bin_decoder/lv_bin_decoder.c ****         if(image->data == NULL) {
 1434              		.loc 1 258 9 is_stmt 1 view .LVU474
 258:Drivers/lvgl/src/libs/bin_decoder/lv_bin_decoder.c ****         if(image->data == NULL) {
 1435              		.loc 1 258 26 is_stmt 0 view .LVU475
 1436 0016 CF68     		ldr	r7, [r1, #12]
 1437              	.LVL163:
 259:Drivers/lvgl/src/libs/bin_decoder/lv_bin_decoder.c ****             return LV_RESULT_INVALID;
 1438              		.loc 1 259 9 is_stmt 1 view .LVU476
 259:Drivers/lvgl/src/libs/bin_decoder/lv_bin_decoder.c ****             return LV_RESULT_INVALID;
 1439              		.loc 1 259 17 is_stmt 0 view .LVU477
 1440 0018 3B69     		ldr	r3, [r7, #16]
 259:Drivers/lvgl/src/libs/bin_decoder/lv_bin_decoder.c ****             return LV_RESULT_INVALID;
 1441              		.loc 1 259 11 view .LVU478
 1442 001a 002B     		cmp	r3, #0
 1443 001c 00F0FE80 		beq	.L107
 263:Drivers/lvgl/src/libs/bin_decoder/lv_bin_decoder.c ****         if(dsc->header.flags & LV_IMAGE_FLAGS_COMPRESSED) {
 1444              		.loc 1 263 9 is_stmt 1 view .LVU479
 263:Drivers/lvgl/src/libs/bin_decoder/lv_bin_decoder.c ****         if(dsc->header.flags & LV_IMAGE_FLAGS_COMPRESSED) {
 1445              		.loc 1 263 27 is_stmt 0 view .LVU480
 1446 0020 97F80180 		ldrb	r8, [r7, #1]	@ zero_extendqisi2
 1447              	.LVL164:
 264:Drivers/lvgl/src/libs/bin_decoder/lv_bin_decoder.c ****             res = decode_compressed(decoder, dsc);
 1448              		.loc 1 264 9 is_stmt 1 view .LVU481
 264:Drivers/lvgl/src/libs/bin_decoder/lv_bin_decoder.c ****             res = decode_compressed(decoder, dsc);
 1449              		.loc 1 264 23 is_stmt 0 view .LVU482
 1450 0024 4B8C     		ldrh	r3, [r1, #34]
 264:Drivers/lvgl/src/libs/bin_decoder/lv_bin_decoder.c ****             res = decode_compressed(decoder, dsc);
 1451              		.loc 1 264 11 view .LVU483
 1452 0026 13F0080F 		tst	r3, #8
 1453 002a 00F09480 		beq	.L116
 265:Drivers/lvgl/src/libs/bin_decoder/lv_bin_decoder.c ****         }
 1454              		.loc 1 265 13 is_stmt 1 view .LVU484
 265:Drivers/lvgl/src/libs/bin_decoder/lv_bin_decoder.c ****         }
ARM GAS  /var/folders/qx/2_175_4n2s19vhvtspjhb3qh0000gn/T//ccPNYKNl.s 			page 53


 1455              		.loc 1 265 19 is_stmt 0 view .LVU485
 1456 002e FFF7FEFF 		bl	decode_compressed
 1457              	.LVL165:
 265:Drivers/lvgl/src/libs/bin_decoder/lv_bin_decoder.c ****         }
 1458              		.loc 1 265 19 view .LVU486
 1459 0032 0546     		mov	r5, r0
 1460              	.LVL166:
 265:Drivers/lvgl/src/libs/bin_decoder/lv_bin_decoder.c ****         }
 1461              		.loc 1 265 19 view .LVU487
 1462              	.LBE35:
 191:Drivers/lvgl/src/libs/bin_decoder/lv_bin_decoder.c **** 
 1463              		.loc 1 191 10 view .LVU488
 1464 0034 0027     		movs	r7, #0
 1465              	.LVL167:
 1466              	.L111:
 327:Drivers/lvgl/src/libs/bin_decoder/lv_bin_decoder.c ****         free_decoder_data(dsc);
 1467              		.loc 1 327 5 is_stmt 1 view .LVU489
 327:Drivers/lvgl/src/libs/bin_decoder/lv_bin_decoder.c ****         free_decoder_data(dsc);
 1468              		.loc 1 327 7 is_stmt 0 view .LVU490
 1469 0036 012D     		cmp	r5, #1
 1470 0038 40F0ED80 		bne	.L115
 1471              	.LVL168:
 1472              	.L114:
 332:Drivers/lvgl/src/libs/bin_decoder/lv_bin_decoder.c **** 
 1473              		.loc 1 332 5 is_stmt 1 view .LVU491
 332:Drivers/lvgl/src/libs/bin_decoder/lv_bin_decoder.c **** 
 1474              		.loc 1 332 11 is_stmt 0 view .LVU492
 1475 003c E56A     		ldr	r5, [r4, #44]
 332:Drivers/lvgl/src/libs/bin_decoder/lv_bin_decoder.c **** 
 1476              		.loc 1 332 7 view .LVU493
 1477 003e 002D     		cmp	r5, #0
 1478 0040 00F01781 		beq	.L137
 334:Drivers/lvgl/src/libs/bin_decoder/lv_bin_decoder.c ****     if(dsc->header.flags & LV_IMAGE_FLAGS_PREMULTIPLIED) {
 1479              		.loc 1 334 5 is_stmt 1 view .LVU494
 1480              	.LVL169:
 335:Drivers/lvgl/src/libs/bin_decoder/lv_bin_decoder.c ****         lv_draw_buf_set_flag(decoded, LV_IMAGE_FLAGS_PREMULTIPLIED);
 1481              		.loc 1 335 5 view .LVU495
 335:Drivers/lvgl/src/libs/bin_decoder/lv_bin_decoder.c ****         lv_draw_buf_set_flag(decoded, LV_IMAGE_FLAGS_PREMULTIPLIED);
 1482              		.loc 1 335 19 is_stmt 0 view .LVU496
 1483 0044 638C     		ldrh	r3, [r4, #34]
 335:Drivers/lvgl/src/libs/bin_decoder/lv_bin_decoder.c ****         lv_draw_buf_set_flag(decoded, LV_IMAGE_FLAGS_PREMULTIPLIED);
 1484              		.loc 1 335 7 view .LVU497
 1485 0046 13F0010F 		tst	r3, #1
 1486 004a 03D0     		beq	.L123
 336:Drivers/lvgl/src/libs/bin_decoder/lv_bin_decoder.c ****     }
 1487              		.loc 1 336 9 is_stmt 1 view .LVU498
 1488              	.LVL170:
 1489              	.LBB40:
 1490              	.LBI40:
 1491              		.file 2 "Drivers/lvgl/src/libs/bin_decoder/../../draw/lv_draw_buf.h"
   1:Drivers/lvgl/src/libs/bin_decoder/../../draw/lv_draw_buf.h **** /**
   2:Drivers/lvgl/src/libs/bin_decoder/../../draw/lv_draw_buf.h ****  * @file lv_draw_buf.h
   3:Drivers/lvgl/src/libs/bin_decoder/../../draw/lv_draw_buf.h ****  *
   4:Drivers/lvgl/src/libs/bin_decoder/../../draw/lv_draw_buf.h ****  */
   5:Drivers/lvgl/src/libs/bin_decoder/../../draw/lv_draw_buf.h **** 
   6:Drivers/lvgl/src/libs/bin_decoder/../../draw/lv_draw_buf.h **** #ifndef LV_DRAW_BUF_H
   7:Drivers/lvgl/src/libs/bin_decoder/../../draw/lv_draw_buf.h **** #define LV_DRAW_BUF_H
ARM GAS  /var/folders/qx/2_175_4n2s19vhvtspjhb3qh0000gn/T//ccPNYKNl.s 			page 54


   8:Drivers/lvgl/src/libs/bin_decoder/../../draw/lv_draw_buf.h **** 
   9:Drivers/lvgl/src/libs/bin_decoder/../../draw/lv_draw_buf.h **** #ifdef __cplusplus
  10:Drivers/lvgl/src/libs/bin_decoder/../../draw/lv_draw_buf.h **** extern "C" {
  11:Drivers/lvgl/src/libs/bin_decoder/../../draw/lv_draw_buf.h **** #endif
  12:Drivers/lvgl/src/libs/bin_decoder/../../draw/lv_draw_buf.h **** 
  13:Drivers/lvgl/src/libs/bin_decoder/../../draw/lv_draw_buf.h **** /*********************
  14:Drivers/lvgl/src/libs/bin_decoder/../../draw/lv_draw_buf.h ****  *      INCLUDES
  15:Drivers/lvgl/src/libs/bin_decoder/../../draw/lv_draw_buf.h ****  *********************/
  16:Drivers/lvgl/src/libs/bin_decoder/../../draw/lv_draw_buf.h **** #include "../misc/lv_types.h"
  17:Drivers/lvgl/src/libs/bin_decoder/../../draw/lv_draw_buf.h **** #include "../misc/lv_area.h"
  18:Drivers/lvgl/src/libs/bin_decoder/../../draw/lv_draw_buf.h **** #include "../misc/lv_color.h"
  19:Drivers/lvgl/src/libs/bin_decoder/../../draw/lv_draw_buf.h **** #include "../stdlib/lv_string.h"
  20:Drivers/lvgl/src/libs/bin_decoder/../../draw/lv_draw_buf.h **** #include "lv_image_dsc.h"
  21:Drivers/lvgl/src/libs/bin_decoder/../../draw/lv_draw_buf.h **** 
  22:Drivers/lvgl/src/libs/bin_decoder/../../draw/lv_draw_buf.h **** /*********************
  23:Drivers/lvgl/src/libs/bin_decoder/../../draw/lv_draw_buf.h ****  *      DEFINES
  24:Drivers/lvgl/src/libs/bin_decoder/../../draw/lv_draw_buf.h ****  *********************/
  25:Drivers/lvgl/src/libs/bin_decoder/../../draw/lv_draw_buf.h **** 
  26:Drivers/lvgl/src/libs/bin_decoder/../../draw/lv_draw_buf.h **** /** Use this value to let LVGL calculate stride automatically */
  27:Drivers/lvgl/src/libs/bin_decoder/../../draw/lv_draw_buf.h **** #define LV_STRIDE_AUTO 0
  28:Drivers/lvgl/src/libs/bin_decoder/../../draw/lv_draw_buf.h **** LV_EXPORT_CONST_INT(LV_STRIDE_AUTO);
  29:Drivers/lvgl/src/libs/bin_decoder/../../draw/lv_draw_buf.h **** 
  30:Drivers/lvgl/src/libs/bin_decoder/../../draw/lv_draw_buf.h **** /**
  31:Drivers/lvgl/src/libs/bin_decoder/../../draw/lv_draw_buf.h ****  * Stride alignment for draw buffers.
  32:Drivers/lvgl/src/libs/bin_decoder/../../draw/lv_draw_buf.h ****  * It may vary between different color formats and hardware.
  33:Drivers/lvgl/src/libs/bin_decoder/../../draw/lv_draw_buf.h ****  * Refine it to suit your needs.
  34:Drivers/lvgl/src/libs/bin_decoder/../../draw/lv_draw_buf.h ****  */
  35:Drivers/lvgl/src/libs/bin_decoder/../../draw/lv_draw_buf.h **** 
  36:Drivers/lvgl/src/libs/bin_decoder/../../draw/lv_draw_buf.h **** #define LV_DRAW_BUF_STRIDE(w, cf) \
  37:Drivers/lvgl/src/libs/bin_decoder/../../draw/lv_draw_buf.h ****     LV_ROUND_UP(((w) * LV_COLOR_FORMAT_GET_BPP(cf) + 7) / 8, LV_DRAW_BUF_STRIDE_ALIGN)
  38:Drivers/lvgl/src/libs/bin_decoder/../../draw/lv_draw_buf.h **** 
  39:Drivers/lvgl/src/libs/bin_decoder/../../draw/lv_draw_buf.h **** /** Allocate a slightly larger buffer, so we can adjust the start address to meet alignment */
  40:Drivers/lvgl/src/libs/bin_decoder/../../draw/lv_draw_buf.h **** #define LV_DRAW_BUF_SIZE(w, h, cf) \
  41:Drivers/lvgl/src/libs/bin_decoder/../../draw/lv_draw_buf.h ****     (LV_DRAW_BUF_STRIDE(w, cf) * (h) + LV_DRAW_BUF_ALIGN + \
  42:Drivers/lvgl/src/libs/bin_decoder/../../draw/lv_draw_buf.h ****      LV_COLOR_INDEXED_PALETTE_SIZE(cf) * sizeof(lv_color32_t))
  43:Drivers/lvgl/src/libs/bin_decoder/../../draw/lv_draw_buf.h **** 
  44:Drivers/lvgl/src/libs/bin_decoder/../../draw/lv_draw_buf.h **** /**
  45:Drivers/lvgl/src/libs/bin_decoder/../../draw/lv_draw_buf.h ****  * Define a static draw buffer with the given width, height, and color format.
  46:Drivers/lvgl/src/libs/bin_decoder/../../draw/lv_draw_buf.h ****  * Stride alignment is set to LV_DRAW_BUF_STRIDE_ALIGN.
  47:Drivers/lvgl/src/libs/bin_decoder/../../draw/lv_draw_buf.h ****  *
  48:Drivers/lvgl/src/libs/bin_decoder/../../draw/lv_draw_buf.h ****  * For platform that needs special buffer alignment, call LV_DRAW_BUF_INIT_STATIC.
  49:Drivers/lvgl/src/libs/bin_decoder/../../draw/lv_draw_buf.h ****  */
  50:Drivers/lvgl/src/libs/bin_decoder/../../draw/lv_draw_buf.h **** #define LV_DRAW_BUF_DEFINE_STATIC(name, _w, _h, _cf) \
  51:Drivers/lvgl/src/libs/bin_decoder/../../draw/lv_draw_buf.h ****     static LV_ATTRIBUTE_MEM_ALIGN uint8_t buf_##name[LV_DRAW_BUF_SIZE(_w, _h, _cf)]; \
  52:Drivers/lvgl/src/libs/bin_decoder/../../draw/lv_draw_buf.h ****     static lv_draw_buf_t name = { \
  53:Drivers/lvgl/src/libs/bin_decoder/../../draw/lv_draw_buf.h ****                                   .header = { \
  54:Drivers/lvgl/src/libs/bin_decoder/../../draw/lv_draw_buf.h ****                                               .magic = LV_IMAGE_HEADER_MAGIC, \
  55:Drivers/lvgl/src/libs/bin_decoder/../../draw/lv_draw_buf.h ****                                               .cf = (_cf), \
  56:Drivers/lvgl/src/libs/bin_decoder/../../draw/lv_draw_buf.h ****                                               .flags = LV_IMAGE_FLAGS_MODIFIABLE, \
  57:Drivers/lvgl/src/libs/bin_decoder/../../draw/lv_draw_buf.h ****                                               .w = (_w), \
  58:Drivers/lvgl/src/libs/bin_decoder/../../draw/lv_draw_buf.h ****                                               .h = (_h), \
  59:Drivers/lvgl/src/libs/bin_decoder/../../draw/lv_draw_buf.h ****                                               .stride = LV_DRAW_BUF_STRIDE(_w, _cf), \
  60:Drivers/lvgl/src/libs/bin_decoder/../../draw/lv_draw_buf.h ****                                               .reserved_2 = 0, \
  61:Drivers/lvgl/src/libs/bin_decoder/../../draw/lv_draw_buf.h ****                                             }, \
  62:Drivers/lvgl/src/libs/bin_decoder/../../draw/lv_draw_buf.h ****                                   .data_size = sizeof(buf_##name), \
  63:Drivers/lvgl/src/libs/bin_decoder/../../draw/lv_draw_buf.h ****                                   .data = buf_##name, \
  64:Drivers/lvgl/src/libs/bin_decoder/../../draw/lv_draw_buf.h ****                                   .unaligned_data = buf_##name, \
ARM GAS  /var/folders/qx/2_175_4n2s19vhvtspjhb3qh0000gn/T//ccPNYKNl.s 			page 55


  65:Drivers/lvgl/src/libs/bin_decoder/../../draw/lv_draw_buf.h ****                                 }
  66:Drivers/lvgl/src/libs/bin_decoder/../../draw/lv_draw_buf.h **** 
  67:Drivers/lvgl/src/libs/bin_decoder/../../draw/lv_draw_buf.h **** #define LV_DRAW_BUF_INIT_STATIC(name) \
  68:Drivers/lvgl/src/libs/bin_decoder/../../draw/lv_draw_buf.h ****     do { \
  69:Drivers/lvgl/src/libs/bin_decoder/../../draw/lv_draw_buf.h ****         lv_image_header_t * header = &name.header; \
  70:Drivers/lvgl/src/libs/bin_decoder/../../draw/lv_draw_buf.h ****         lv_draw_buf_init(&name, header->w, header->h, (lv_color_format_t)header->cf, header->stride
  71:Drivers/lvgl/src/libs/bin_decoder/../../draw/lv_draw_buf.h ****         lv_draw_buf_set_flag(&name, LV_IMAGE_FLAGS_MODIFIABLE); \
  72:Drivers/lvgl/src/libs/bin_decoder/../../draw/lv_draw_buf.h ****     } while(0)
  73:Drivers/lvgl/src/libs/bin_decoder/../../draw/lv_draw_buf.h **** 
  74:Drivers/lvgl/src/libs/bin_decoder/../../draw/lv_draw_buf.h **** /**********************
  75:Drivers/lvgl/src/libs/bin_decoder/../../draw/lv_draw_buf.h ****  *      TYPEDEFS
  76:Drivers/lvgl/src/libs/bin_decoder/../../draw/lv_draw_buf.h ****  **********************/
  77:Drivers/lvgl/src/libs/bin_decoder/../../draw/lv_draw_buf.h **** 
  78:Drivers/lvgl/src/libs/bin_decoder/../../draw/lv_draw_buf.h **** typedef void * (*lv_draw_buf_malloc_cb_t)(size_t size, lv_color_format_t color_format);
  79:Drivers/lvgl/src/libs/bin_decoder/../../draw/lv_draw_buf.h **** 
  80:Drivers/lvgl/src/libs/bin_decoder/../../draw/lv_draw_buf.h **** typedef void (*lv_draw_buf_free_cb_t)(void * draw_buf);
  81:Drivers/lvgl/src/libs/bin_decoder/../../draw/lv_draw_buf.h **** 
  82:Drivers/lvgl/src/libs/bin_decoder/../../draw/lv_draw_buf.h **** typedef void (*lv_draw_buf_copy_cb_t)(lv_draw_buf_t * dest, const lv_area_t * dest_area,
  83:Drivers/lvgl/src/libs/bin_decoder/../../draw/lv_draw_buf.h ****                                       const lv_draw_buf_t * src, const lv_area_t * src_area);
  84:Drivers/lvgl/src/libs/bin_decoder/../../draw/lv_draw_buf.h **** 
  85:Drivers/lvgl/src/libs/bin_decoder/../../draw/lv_draw_buf.h **** typedef void * (*lv_draw_buf_align_cb_t)(void * buf, lv_color_format_t color_format);
  86:Drivers/lvgl/src/libs/bin_decoder/../../draw/lv_draw_buf.h **** 
  87:Drivers/lvgl/src/libs/bin_decoder/../../draw/lv_draw_buf.h **** typedef void (*lv_draw_buf_cache_operation_cb_t)(const lv_draw_buf_t * draw_buf, const lv_area_t * 
  88:Drivers/lvgl/src/libs/bin_decoder/../../draw/lv_draw_buf.h **** 
  89:Drivers/lvgl/src/libs/bin_decoder/../../draw/lv_draw_buf.h **** typedef uint32_t (*lv_draw_buf_width_to_stride_cb_t)(uint32_t w, lv_color_format_t color_format);
  90:Drivers/lvgl/src/libs/bin_decoder/../../draw/lv_draw_buf.h **** 
  91:Drivers/lvgl/src/libs/bin_decoder/../../draw/lv_draw_buf.h **** struct _lv_draw_buf_t {
  92:Drivers/lvgl/src/libs/bin_decoder/../../draw/lv_draw_buf.h ****     lv_image_header_t header;
  93:Drivers/lvgl/src/libs/bin_decoder/../../draw/lv_draw_buf.h ****     uint32_t data_size;       /**< Total buf size in bytes */
  94:Drivers/lvgl/src/libs/bin_decoder/../../draw/lv_draw_buf.h ****     uint8_t * data;
  95:Drivers/lvgl/src/libs/bin_decoder/../../draw/lv_draw_buf.h ****     void * unaligned_data;    /**< Unaligned address of `data`, used internally by lvgl */
  96:Drivers/lvgl/src/libs/bin_decoder/../../draw/lv_draw_buf.h ****     const lv_draw_buf_handlers_t * handlers; /**< draw buffer alloc/free ops. */
  97:Drivers/lvgl/src/libs/bin_decoder/../../draw/lv_draw_buf.h **** };
  98:Drivers/lvgl/src/libs/bin_decoder/../../draw/lv_draw_buf.h **** 
  99:Drivers/lvgl/src/libs/bin_decoder/../../draw/lv_draw_buf.h **** /**********************
 100:Drivers/lvgl/src/libs/bin_decoder/../../draw/lv_draw_buf.h ****  * GLOBAL PROTOTYPES
 101:Drivers/lvgl/src/libs/bin_decoder/../../draw/lv_draw_buf.h ****  **********************/
 102:Drivers/lvgl/src/libs/bin_decoder/../../draw/lv_draw_buf.h **** 
 103:Drivers/lvgl/src/libs/bin_decoder/../../draw/lv_draw_buf.h **** /**
 104:Drivers/lvgl/src/libs/bin_decoder/../../draw/lv_draw_buf.h ****  * Initialize the draw buffer with the default handlers.
 105:Drivers/lvgl/src/libs/bin_decoder/../../draw/lv_draw_buf.h ****  *
 106:Drivers/lvgl/src/libs/bin_decoder/../../draw/lv_draw_buf.h ****  * @param handlers  the draw buffer handlers to set
 107:Drivers/lvgl/src/libs/bin_decoder/../../draw/lv_draw_buf.h ****  */
 108:Drivers/lvgl/src/libs/bin_decoder/../../draw/lv_draw_buf.h **** void lv_draw_buf_init_with_default_handlers(lv_draw_buf_handlers_t * handlers);
 109:Drivers/lvgl/src/libs/bin_decoder/../../draw/lv_draw_buf.h **** 
 110:Drivers/lvgl/src/libs/bin_decoder/../../draw/lv_draw_buf.h **** /**
 111:Drivers/lvgl/src/libs/bin_decoder/../../draw/lv_draw_buf.h ****  * Initialize the draw buffer with given handlers.
 112:Drivers/lvgl/src/libs/bin_decoder/../../draw/lv_draw_buf.h ****  *
 113:Drivers/lvgl/src/libs/bin_decoder/../../draw/lv_draw_buf.h ****  * @param handlers             the draw buffer handlers to set
 114:Drivers/lvgl/src/libs/bin_decoder/../../draw/lv_draw_buf.h ****  * @param buf_malloc_cb        the callback to allocate memory for the buffer
 115:Drivers/lvgl/src/libs/bin_decoder/../../draw/lv_draw_buf.h ****  * @param buf_free_cb          the callback to free memory of the buffer
 116:Drivers/lvgl/src/libs/bin_decoder/../../draw/lv_draw_buf.h ****  * @param buf_copy_cb          the callback to copy a draw buffer to an other
 117:Drivers/lvgl/src/libs/bin_decoder/../../draw/lv_draw_buf.h ****  * @param align_pointer_cb     the callback to align the buffer
 118:Drivers/lvgl/src/libs/bin_decoder/../../draw/lv_draw_buf.h ****  * @param invalidate_cache_cb  the callback to invalidate the cache of the buffer
 119:Drivers/lvgl/src/libs/bin_decoder/../../draw/lv_draw_buf.h ****  * @param flush_cache_cb       the callback to flush buffer
 120:Drivers/lvgl/src/libs/bin_decoder/../../draw/lv_draw_buf.h ****  * @param width_to_stride_cb   the callback to calculate the stride based on the width and color fo
 121:Drivers/lvgl/src/libs/bin_decoder/../../draw/lv_draw_buf.h ****  */
ARM GAS  /var/folders/qx/2_175_4n2s19vhvtspjhb3qh0000gn/T//ccPNYKNl.s 			page 56


 122:Drivers/lvgl/src/libs/bin_decoder/../../draw/lv_draw_buf.h **** void lv_draw_buf_handlers_init(lv_draw_buf_handlers_t * handlers,
 123:Drivers/lvgl/src/libs/bin_decoder/../../draw/lv_draw_buf.h ****                                lv_draw_buf_malloc_cb_t buf_malloc_cb,
 124:Drivers/lvgl/src/libs/bin_decoder/../../draw/lv_draw_buf.h ****                                lv_draw_buf_free_cb_t buf_free_cb,
 125:Drivers/lvgl/src/libs/bin_decoder/../../draw/lv_draw_buf.h ****                                lv_draw_buf_copy_cb_t buf_copy_cb,
 126:Drivers/lvgl/src/libs/bin_decoder/../../draw/lv_draw_buf.h ****                                lv_draw_buf_align_cb_t align_pointer_cb,
 127:Drivers/lvgl/src/libs/bin_decoder/../../draw/lv_draw_buf.h ****                                lv_draw_buf_cache_operation_cb_t invalidate_cache_cb,
 128:Drivers/lvgl/src/libs/bin_decoder/../../draw/lv_draw_buf.h ****                                lv_draw_buf_cache_operation_cb_t flush_cache_cb,
 129:Drivers/lvgl/src/libs/bin_decoder/../../draw/lv_draw_buf.h ****                                lv_draw_buf_width_to_stride_cb_t width_to_stride_cb);
 130:Drivers/lvgl/src/libs/bin_decoder/../../draw/lv_draw_buf.h **** 
 131:Drivers/lvgl/src/libs/bin_decoder/../../draw/lv_draw_buf.h **** /**
 132:Drivers/lvgl/src/libs/bin_decoder/../../draw/lv_draw_buf.h ****  * Get the struct which holds the callbacks for draw buf management.
 133:Drivers/lvgl/src/libs/bin_decoder/../../draw/lv_draw_buf.h ****  * Custom callback can be set on the returned value
 134:Drivers/lvgl/src/libs/bin_decoder/../../draw/lv_draw_buf.h ****  * @return                  pointer to the struct of handlers
 135:Drivers/lvgl/src/libs/bin_decoder/../../draw/lv_draw_buf.h ****  */
 136:Drivers/lvgl/src/libs/bin_decoder/../../draw/lv_draw_buf.h **** lv_draw_buf_handlers_t * lv_draw_buf_get_handlers(void);
 137:Drivers/lvgl/src/libs/bin_decoder/../../draw/lv_draw_buf.h **** lv_draw_buf_handlers_t * lv_draw_buf_get_font_handlers(void);
 138:Drivers/lvgl/src/libs/bin_decoder/../../draw/lv_draw_buf.h **** lv_draw_buf_handlers_t * lv_draw_buf_get_image_handlers(void);
 139:Drivers/lvgl/src/libs/bin_decoder/../../draw/lv_draw_buf.h **** 
 140:Drivers/lvgl/src/libs/bin_decoder/../../draw/lv_draw_buf.h **** 
 141:Drivers/lvgl/src/libs/bin_decoder/../../draw/lv_draw_buf.h **** /**
 142:Drivers/lvgl/src/libs/bin_decoder/../../draw/lv_draw_buf.h ****  * Align the address of a buffer. The buffer needs to be large enough for the real data after align
 143:Drivers/lvgl/src/libs/bin_decoder/../../draw/lv_draw_buf.h ****  * @param buf           the data to align
 144:Drivers/lvgl/src/libs/bin_decoder/../../draw/lv_draw_buf.h ****  * @param color_format  the color format of the buffer
 145:Drivers/lvgl/src/libs/bin_decoder/../../draw/lv_draw_buf.h ****  * @return              the aligned buffer
 146:Drivers/lvgl/src/libs/bin_decoder/../../draw/lv_draw_buf.h ****  */
 147:Drivers/lvgl/src/libs/bin_decoder/../../draw/lv_draw_buf.h **** void * lv_draw_buf_align(void * buf, lv_color_format_t color_format);
 148:Drivers/lvgl/src/libs/bin_decoder/../../draw/lv_draw_buf.h **** 
 149:Drivers/lvgl/src/libs/bin_decoder/../../draw/lv_draw_buf.h **** /**
 150:Drivers/lvgl/src/libs/bin_decoder/../../draw/lv_draw_buf.h ****  * Align the address of a buffer with custom draw buffer handlers.
 151:Drivers/lvgl/src/libs/bin_decoder/../../draw/lv_draw_buf.h ****  * The buffer needs to be large enough for the real data after alignment
 152:Drivers/lvgl/src/libs/bin_decoder/../../draw/lv_draw_buf.h ****  * @param handlers      the draw buffer handlers
 153:Drivers/lvgl/src/libs/bin_decoder/../../draw/lv_draw_buf.h ****  * @param buf           the data to align
 154:Drivers/lvgl/src/libs/bin_decoder/../../draw/lv_draw_buf.h ****  * @param color_format  the color format of the buffer
 155:Drivers/lvgl/src/libs/bin_decoder/../../draw/lv_draw_buf.h ****  * @return              the aligned buffer
 156:Drivers/lvgl/src/libs/bin_decoder/../../draw/lv_draw_buf.h ****  */
 157:Drivers/lvgl/src/libs/bin_decoder/../../draw/lv_draw_buf.h **** void * lv_draw_buf_align_ex(const lv_draw_buf_handlers_t * handlers, void * buf, lv_color_format_t 
 158:Drivers/lvgl/src/libs/bin_decoder/../../draw/lv_draw_buf.h **** 
 159:Drivers/lvgl/src/libs/bin_decoder/../../draw/lv_draw_buf.h **** /**
 160:Drivers/lvgl/src/libs/bin_decoder/../../draw/lv_draw_buf.h ****  * Invalidate the cache of the buffer
 161:Drivers/lvgl/src/libs/bin_decoder/../../draw/lv_draw_buf.h ****  * @param draw_buf     the draw buffer needs to be invalidated
 162:Drivers/lvgl/src/libs/bin_decoder/../../draw/lv_draw_buf.h ****  * @param area         the area to invalidate in the buffer,
 163:Drivers/lvgl/src/libs/bin_decoder/../../draw/lv_draw_buf.h ****  *                     use NULL to invalidate the whole draw buffer address range
 164:Drivers/lvgl/src/libs/bin_decoder/../../draw/lv_draw_buf.h ****  */
 165:Drivers/lvgl/src/libs/bin_decoder/../../draw/lv_draw_buf.h **** void lv_draw_buf_invalidate_cache(const lv_draw_buf_t * draw_buf, const lv_area_t * area);
 166:Drivers/lvgl/src/libs/bin_decoder/../../draw/lv_draw_buf.h **** 
 167:Drivers/lvgl/src/libs/bin_decoder/../../draw/lv_draw_buf.h **** /**
 168:Drivers/lvgl/src/libs/bin_decoder/../../draw/lv_draw_buf.h ****  * Flush the cache of the buffer
 169:Drivers/lvgl/src/libs/bin_decoder/../../draw/lv_draw_buf.h ****  * @param draw_buf     the draw buffer needs to be flushed
 170:Drivers/lvgl/src/libs/bin_decoder/../../draw/lv_draw_buf.h ****  * @param area         the area to flush in the buffer,
 171:Drivers/lvgl/src/libs/bin_decoder/../../draw/lv_draw_buf.h ****  *                     use NULL to flush the whole draw buffer address range
 172:Drivers/lvgl/src/libs/bin_decoder/../../draw/lv_draw_buf.h ****  */
 173:Drivers/lvgl/src/libs/bin_decoder/../../draw/lv_draw_buf.h **** void lv_draw_buf_flush_cache(const lv_draw_buf_t * draw_buf, const lv_area_t * area);
 174:Drivers/lvgl/src/libs/bin_decoder/../../draw/lv_draw_buf.h **** 
 175:Drivers/lvgl/src/libs/bin_decoder/../../draw/lv_draw_buf.h **** /**
 176:Drivers/lvgl/src/libs/bin_decoder/../../draw/lv_draw_buf.h ****  * Calculate the stride in bytes based on a width and color format
 177:Drivers/lvgl/src/libs/bin_decoder/../../draw/lv_draw_buf.h ****  * @param w                 the width in pixels
 178:Drivers/lvgl/src/libs/bin_decoder/../../draw/lv_draw_buf.h ****  * @param color_format      the color format
ARM GAS  /var/folders/qx/2_175_4n2s19vhvtspjhb3qh0000gn/T//ccPNYKNl.s 			page 57


 179:Drivers/lvgl/src/libs/bin_decoder/../../draw/lv_draw_buf.h ****  * @return                  the stride in bytes
 180:Drivers/lvgl/src/libs/bin_decoder/../../draw/lv_draw_buf.h ****  */
 181:Drivers/lvgl/src/libs/bin_decoder/../../draw/lv_draw_buf.h **** uint32_t lv_draw_buf_width_to_stride(uint32_t w, lv_color_format_t color_format);
 182:Drivers/lvgl/src/libs/bin_decoder/../../draw/lv_draw_buf.h **** 
 183:Drivers/lvgl/src/libs/bin_decoder/../../draw/lv_draw_buf.h **** /**
 184:Drivers/lvgl/src/libs/bin_decoder/../../draw/lv_draw_buf.h ****  * Calculate the stride in bytes based on a width and color format
 185:Drivers/lvgl/src/libs/bin_decoder/../../draw/lv_draw_buf.h ****  * @param handlers          the draw buffer handlers
 186:Drivers/lvgl/src/libs/bin_decoder/../../draw/lv_draw_buf.h ****  * @param w                 the width in pixels
 187:Drivers/lvgl/src/libs/bin_decoder/../../draw/lv_draw_buf.h ****  * @param color_format      the color format
 188:Drivers/lvgl/src/libs/bin_decoder/../../draw/lv_draw_buf.h ****  * @return                  the stride in bytes
 189:Drivers/lvgl/src/libs/bin_decoder/../../draw/lv_draw_buf.h ****  */
 190:Drivers/lvgl/src/libs/bin_decoder/../../draw/lv_draw_buf.h **** uint32_t lv_draw_buf_width_to_stride_ex(const lv_draw_buf_handlers_t * handlers, uint32_t w,
 191:Drivers/lvgl/src/libs/bin_decoder/../../draw/lv_draw_buf.h ****                                         lv_color_format_t color_format);
 192:Drivers/lvgl/src/libs/bin_decoder/../../draw/lv_draw_buf.h **** 
 193:Drivers/lvgl/src/libs/bin_decoder/../../draw/lv_draw_buf.h **** /**
 194:Drivers/lvgl/src/libs/bin_decoder/../../draw/lv_draw_buf.h ****  * Clear an area on the buffer
 195:Drivers/lvgl/src/libs/bin_decoder/../../draw/lv_draw_buf.h ****  * @param draw_buf          pointer to draw buffer
 196:Drivers/lvgl/src/libs/bin_decoder/../../draw/lv_draw_buf.h ****  * @param a                 the area to clear, or NULL to clear the whole buffer
 197:Drivers/lvgl/src/libs/bin_decoder/../../draw/lv_draw_buf.h ****  */
 198:Drivers/lvgl/src/libs/bin_decoder/../../draw/lv_draw_buf.h **** void lv_draw_buf_clear(lv_draw_buf_t * draw_buf, const lv_area_t * a);
 199:Drivers/lvgl/src/libs/bin_decoder/../../draw/lv_draw_buf.h **** 
 200:Drivers/lvgl/src/libs/bin_decoder/../../draw/lv_draw_buf.h **** 
 201:Drivers/lvgl/src/libs/bin_decoder/../../draw/lv_draw_buf.h **** /**
 202:Drivers/lvgl/src/libs/bin_decoder/../../draw/lv_draw_buf.h ****  * Note: Eventually, lv_draw_buf_malloc/free will be kept as private.
 203:Drivers/lvgl/src/libs/bin_decoder/../../draw/lv_draw_buf.h ****  *       For now, we use `create` to distinguish with malloc.
 204:Drivers/lvgl/src/libs/bin_decoder/../../draw/lv_draw_buf.h ****  *
 205:Drivers/lvgl/src/libs/bin_decoder/../../draw/lv_draw_buf.h ****  * Create an draw buf by allocating struct for `lv_draw_buf_t` and allocating a buffer for it
 206:Drivers/lvgl/src/libs/bin_decoder/../../draw/lv_draw_buf.h ****  * that meets specified requirements.
 207:Drivers/lvgl/src/libs/bin_decoder/../../draw/lv_draw_buf.h ****  *
 208:Drivers/lvgl/src/libs/bin_decoder/../../draw/lv_draw_buf.h ****  * @param w         the buffer width in pixels
 209:Drivers/lvgl/src/libs/bin_decoder/../../draw/lv_draw_buf.h ****  * @param h         the buffer height in pixels
 210:Drivers/lvgl/src/libs/bin_decoder/../../draw/lv_draw_buf.h ****  * @param cf        the color format for image
 211:Drivers/lvgl/src/libs/bin_decoder/../../draw/lv_draw_buf.h ****  * @param stride    the stride in bytes for image. Use 0 for automatic calculation based on
 212:Drivers/lvgl/src/libs/bin_decoder/../../draw/lv_draw_buf.h ****  *                  w, cf, and global stride alignment configuration.
 213:Drivers/lvgl/src/libs/bin_decoder/../../draw/lv_draw_buf.h ****  */
 214:Drivers/lvgl/src/libs/bin_decoder/../../draw/lv_draw_buf.h **** lv_draw_buf_t * lv_draw_buf_create(uint32_t w, uint32_t h, lv_color_format_t cf, uint32_t stride);
 215:Drivers/lvgl/src/libs/bin_decoder/../../draw/lv_draw_buf.h **** 
 216:Drivers/lvgl/src/libs/bin_decoder/../../draw/lv_draw_buf.h **** /**
 217:Drivers/lvgl/src/libs/bin_decoder/../../draw/lv_draw_buf.h ****  * Note: Eventually, lv_draw_buf_malloc/free will be kept as private.
 218:Drivers/lvgl/src/libs/bin_decoder/../../draw/lv_draw_buf.h ****  *       For now, we use `create` to distinguish with malloc.
 219:Drivers/lvgl/src/libs/bin_decoder/../../draw/lv_draw_buf.h ****  *
 220:Drivers/lvgl/src/libs/bin_decoder/../../draw/lv_draw_buf.h ****  * Create an draw buf by allocating struct for `lv_draw_buf_t` and allocating a buffer for it
 221:Drivers/lvgl/src/libs/bin_decoder/../../draw/lv_draw_buf.h ****  * that meets specified requirements.
 222:Drivers/lvgl/src/libs/bin_decoder/../../draw/lv_draw_buf.h ****  *
 223:Drivers/lvgl/src/libs/bin_decoder/../../draw/lv_draw_buf.h ****  * @param handlers  the draw buffer handlers
 224:Drivers/lvgl/src/libs/bin_decoder/../../draw/lv_draw_buf.h ****  * @param w         the buffer width in pixels
 225:Drivers/lvgl/src/libs/bin_decoder/../../draw/lv_draw_buf.h ****  * @param h         the buffer height in pixels
 226:Drivers/lvgl/src/libs/bin_decoder/../../draw/lv_draw_buf.h ****  * @param cf        the color format for image
 227:Drivers/lvgl/src/libs/bin_decoder/../../draw/lv_draw_buf.h ****  * @param stride    the stride in bytes for image. Use 0 for automatic calculation based on
 228:Drivers/lvgl/src/libs/bin_decoder/../../draw/lv_draw_buf.h ****  *                  w, cf, and global stride alignment configuration.
 229:Drivers/lvgl/src/libs/bin_decoder/../../draw/lv_draw_buf.h ****  */
 230:Drivers/lvgl/src/libs/bin_decoder/../../draw/lv_draw_buf.h **** lv_draw_buf_t * lv_draw_buf_create_ex(const lv_draw_buf_handlers_t * handlers, uint32_t w, uint32_t
 231:Drivers/lvgl/src/libs/bin_decoder/../../draw/lv_draw_buf.h ****                                       lv_color_format_t cf, uint32_t stride);
 232:Drivers/lvgl/src/libs/bin_decoder/../../draw/lv_draw_buf.h **** 
 233:Drivers/lvgl/src/libs/bin_decoder/../../draw/lv_draw_buf.h **** /**
 234:Drivers/lvgl/src/libs/bin_decoder/../../draw/lv_draw_buf.h ****  * Duplicate a draw buf with same image size, stride and color format. Copy the image data too.
 235:Drivers/lvgl/src/libs/bin_decoder/../../draw/lv_draw_buf.h ****  * @param draw_buf  the draw buf to duplicate
ARM GAS  /var/folders/qx/2_175_4n2s19vhvtspjhb3qh0000gn/T//ccPNYKNl.s 			page 58


 236:Drivers/lvgl/src/libs/bin_decoder/../../draw/lv_draw_buf.h ****  * @return          the duplicated draw buf on success, NULL if failed
 237:Drivers/lvgl/src/libs/bin_decoder/../../draw/lv_draw_buf.h ****  */
 238:Drivers/lvgl/src/libs/bin_decoder/../../draw/lv_draw_buf.h **** lv_draw_buf_t * lv_draw_buf_dup(const lv_draw_buf_t * draw_buf);
 239:Drivers/lvgl/src/libs/bin_decoder/../../draw/lv_draw_buf.h **** 
 240:Drivers/lvgl/src/libs/bin_decoder/../../draw/lv_draw_buf.h **** /**
 241:Drivers/lvgl/src/libs/bin_decoder/../../draw/lv_draw_buf.h ****  * Duplicate a draw buf with same image size, stride and color format. Copy the image data too.
 242:Drivers/lvgl/src/libs/bin_decoder/../../draw/lv_draw_buf.h ****  * @param handlers  the draw buffer handlers
 243:Drivers/lvgl/src/libs/bin_decoder/../../draw/lv_draw_buf.h ****  * @param draw_buf  the draw buf to duplicate
 244:Drivers/lvgl/src/libs/bin_decoder/../../draw/lv_draw_buf.h ****  * @return          the duplicated draw buf on success, NULL if failed
 245:Drivers/lvgl/src/libs/bin_decoder/../../draw/lv_draw_buf.h ****  */
 246:Drivers/lvgl/src/libs/bin_decoder/../../draw/lv_draw_buf.h **** lv_draw_buf_t * lv_draw_buf_dup_ex(const lv_draw_buf_handlers_t * handlers, const lv_draw_buf_t * d
 247:Drivers/lvgl/src/libs/bin_decoder/../../draw/lv_draw_buf.h **** 
 248:Drivers/lvgl/src/libs/bin_decoder/../../draw/lv_draw_buf.h **** /**
 249:Drivers/lvgl/src/libs/bin_decoder/../../draw/lv_draw_buf.h ****  * Initialize a draw buf with the given buffer and parameters. Clear draw buffer flag to zero.
 250:Drivers/lvgl/src/libs/bin_decoder/../../draw/lv_draw_buf.h ****  * @param draw_buf  the draw buf to initialize
 251:Drivers/lvgl/src/libs/bin_decoder/../../draw/lv_draw_buf.h ****  * @param w         the buffer width in pixels
 252:Drivers/lvgl/src/libs/bin_decoder/../../draw/lv_draw_buf.h ****  * @param h         the buffer height in pixels
 253:Drivers/lvgl/src/libs/bin_decoder/../../draw/lv_draw_buf.h ****  * @param cf        the color format
 254:Drivers/lvgl/src/libs/bin_decoder/../../draw/lv_draw_buf.h ****  * @param stride    the stride in bytes. Use 0 for automatic calculation
 255:Drivers/lvgl/src/libs/bin_decoder/../../draw/lv_draw_buf.h ****  * @param data      the buffer used for drawing. Unaligned `data` will be aligned internally
 256:Drivers/lvgl/src/libs/bin_decoder/../../draw/lv_draw_buf.h ****  * @param data_size the size of the buffer in bytes
 257:Drivers/lvgl/src/libs/bin_decoder/../../draw/lv_draw_buf.h ****  * @return          return LV_RESULT_OK on success, LV_RESULT_INVALID otherwise
 258:Drivers/lvgl/src/libs/bin_decoder/../../draw/lv_draw_buf.h ****  */
 259:Drivers/lvgl/src/libs/bin_decoder/../../draw/lv_draw_buf.h **** lv_result_t lv_draw_buf_init(lv_draw_buf_t * draw_buf, uint32_t w, uint32_t h, lv_color_format_t cf
 260:Drivers/lvgl/src/libs/bin_decoder/../../draw/lv_draw_buf.h ****                              void * data, uint32_t data_size);
 261:Drivers/lvgl/src/libs/bin_decoder/../../draw/lv_draw_buf.h **** 
 262:Drivers/lvgl/src/libs/bin_decoder/../../draw/lv_draw_buf.h **** /**
 263:Drivers/lvgl/src/libs/bin_decoder/../../draw/lv_draw_buf.h ****  * Keep using the existing memory, reshape the draw buffer to the given width and height.
 264:Drivers/lvgl/src/libs/bin_decoder/../../draw/lv_draw_buf.h ****  * Return NULL if data_size is smaller than the required size.
 265:Drivers/lvgl/src/libs/bin_decoder/../../draw/lv_draw_buf.h ****  * @param draw_buf  pointer to a draw buffer
 266:Drivers/lvgl/src/libs/bin_decoder/../../draw/lv_draw_buf.h ****  * @param cf        the new color format, use 0 or LV_COLOR_FORMAT_UNKNOWN to keep using the origin
 267:Drivers/lvgl/src/libs/bin_decoder/../../draw/lv_draw_buf.h ****  * @param w         the new width in pixels
 268:Drivers/lvgl/src/libs/bin_decoder/../../draw/lv_draw_buf.h ****  * @param h         the new height in pixels
 269:Drivers/lvgl/src/libs/bin_decoder/../../draw/lv_draw_buf.h ****  * @param stride    the stride in bytes for image. Use 0 for automatic calculation.
 270:Drivers/lvgl/src/libs/bin_decoder/../../draw/lv_draw_buf.h ****  */
 271:Drivers/lvgl/src/libs/bin_decoder/../../draw/lv_draw_buf.h **** lv_draw_buf_t * lv_draw_buf_reshape(lv_draw_buf_t * draw_buf, lv_color_format_t cf, uint32_t w, uin
 272:Drivers/lvgl/src/libs/bin_decoder/../../draw/lv_draw_buf.h ****                                     uint32_t stride);
 273:Drivers/lvgl/src/libs/bin_decoder/../../draw/lv_draw_buf.h **** 
 274:Drivers/lvgl/src/libs/bin_decoder/../../draw/lv_draw_buf.h **** /**
 275:Drivers/lvgl/src/libs/bin_decoder/../../draw/lv_draw_buf.h ****  * Destroy a draw buf by freeing the actual buffer if it's marked as LV_IMAGE_FLAGS_ALLOCATED in he
 276:Drivers/lvgl/src/libs/bin_decoder/../../draw/lv_draw_buf.h ****  * Then free the lv_draw_buf_t struct.
 277:Drivers/lvgl/src/libs/bin_decoder/../../draw/lv_draw_buf.h ****  *
 278:Drivers/lvgl/src/libs/bin_decoder/../../draw/lv_draw_buf.h ****  * @param draw_buf  the draw buffer to destroy
 279:Drivers/lvgl/src/libs/bin_decoder/../../draw/lv_draw_buf.h ****  */
 280:Drivers/lvgl/src/libs/bin_decoder/../../draw/lv_draw_buf.h **** void lv_draw_buf_destroy(lv_draw_buf_t * draw_buf);
 281:Drivers/lvgl/src/libs/bin_decoder/../../draw/lv_draw_buf.h **** 
 282:Drivers/lvgl/src/libs/bin_decoder/../../draw/lv_draw_buf.h **** /**
 283:Drivers/lvgl/src/libs/bin_decoder/../../draw/lv_draw_buf.h ****  * Copy an area from a buffer to another
 284:Drivers/lvgl/src/libs/bin_decoder/../../draw/lv_draw_buf.h ****  * @param dest      pointer to the destination draw buffer
 285:Drivers/lvgl/src/libs/bin_decoder/../../draw/lv_draw_buf.h ****  * @param dest_area the area to copy from the destination buffer, if NULL, use the whole buffer
 286:Drivers/lvgl/src/libs/bin_decoder/../../draw/lv_draw_buf.h ****  * @param src       pointer to the source draw buffer
 287:Drivers/lvgl/src/libs/bin_decoder/../../draw/lv_draw_buf.h ****  * @param src_area  the area to copy from the destination buffer, if NULL, use the whole buffer
 288:Drivers/lvgl/src/libs/bin_decoder/../../draw/lv_draw_buf.h ****  * @note `dest_area` and `src_area` should have the same width and height
 289:Drivers/lvgl/src/libs/bin_decoder/../../draw/lv_draw_buf.h ****  * @note  The default copy function required `dest` and `src` to have the same color format.
 290:Drivers/lvgl/src/libs/bin_decoder/../../draw/lv_draw_buf.h ****  * Overwriting dest->handlers->buf_copy_cb can resolve this limitation.
 291:Drivers/lvgl/src/libs/bin_decoder/../../draw/lv_draw_buf.h ****  */
 292:Drivers/lvgl/src/libs/bin_decoder/../../draw/lv_draw_buf.h **** void lv_draw_buf_copy(lv_draw_buf_t * dest, const lv_area_t * dest_area,
ARM GAS  /var/folders/qx/2_175_4n2s19vhvtspjhb3qh0000gn/T//ccPNYKNl.s 			page 59


 293:Drivers/lvgl/src/libs/bin_decoder/../../draw/lv_draw_buf.h ****                       const lv_draw_buf_t * src, const lv_area_t * src_area);
 294:Drivers/lvgl/src/libs/bin_decoder/../../draw/lv_draw_buf.h **** 
 295:Drivers/lvgl/src/libs/bin_decoder/../../draw/lv_draw_buf.h **** /**
 296:Drivers/lvgl/src/libs/bin_decoder/../../draw/lv_draw_buf.h ****  * Return pointer to the buffer at the given coordinates
 297:Drivers/lvgl/src/libs/bin_decoder/../../draw/lv_draw_buf.h ****  */
 298:Drivers/lvgl/src/libs/bin_decoder/../../draw/lv_draw_buf.h **** void * lv_draw_buf_goto_xy(const lv_draw_buf_t * buf, uint32_t x, uint32_t y);
 299:Drivers/lvgl/src/libs/bin_decoder/../../draw/lv_draw_buf.h **** 
 300:Drivers/lvgl/src/libs/bin_decoder/../../draw/lv_draw_buf.h **** /**
 301:Drivers/lvgl/src/libs/bin_decoder/../../draw/lv_draw_buf.h ****  * Adjust the stride of a draw buf in place.
 302:Drivers/lvgl/src/libs/bin_decoder/../../draw/lv_draw_buf.h ****  * @param src       pointer to a draw buffer
 303:Drivers/lvgl/src/libs/bin_decoder/../../draw/lv_draw_buf.h ****  * @param stride    the new stride in bytes for image. Use LV_STRIDE_AUTO for automatic calculation
 304:Drivers/lvgl/src/libs/bin_decoder/../../draw/lv_draw_buf.h ****  * @return          LV_RESULT_OK: success or LV_RESULT_INVALID: failed
 305:Drivers/lvgl/src/libs/bin_decoder/../../draw/lv_draw_buf.h ****  */
 306:Drivers/lvgl/src/libs/bin_decoder/../../draw/lv_draw_buf.h **** lv_result_t lv_draw_buf_adjust_stride(lv_draw_buf_t * src, uint32_t stride);
 307:Drivers/lvgl/src/libs/bin_decoder/../../draw/lv_draw_buf.h **** 
 308:Drivers/lvgl/src/libs/bin_decoder/../../draw/lv_draw_buf.h **** /**
 309:Drivers/lvgl/src/libs/bin_decoder/../../draw/lv_draw_buf.h ****  * Premultiply draw buffer color with alpha channel.
 310:Drivers/lvgl/src/libs/bin_decoder/../../draw/lv_draw_buf.h ****  * If it's already premultiplied, return directly.
 311:Drivers/lvgl/src/libs/bin_decoder/../../draw/lv_draw_buf.h ****  * Only color formats with alpha channel will be processed.
 312:Drivers/lvgl/src/libs/bin_decoder/../../draw/lv_draw_buf.h ****  *
 313:Drivers/lvgl/src/libs/bin_decoder/../../draw/lv_draw_buf.h ****  * @return LV_RESULT_OK: premultiply success
 314:Drivers/lvgl/src/libs/bin_decoder/../../draw/lv_draw_buf.h ****  */
 315:Drivers/lvgl/src/libs/bin_decoder/../../draw/lv_draw_buf.h **** lv_result_t lv_draw_buf_premultiply(lv_draw_buf_t * draw_buf);
 316:Drivers/lvgl/src/libs/bin_decoder/../../draw/lv_draw_buf.h **** 
 317:Drivers/lvgl/src/libs/bin_decoder/../../draw/lv_draw_buf.h **** 
 318:Drivers/lvgl/src/libs/bin_decoder/../../draw/lv_draw_buf.h **** /**
 319:Drivers/lvgl/src/libs/bin_decoder/../../draw/lv_draw_buf.h ****  * Check if a draw buffer has a given flag.
 320:Drivers/lvgl/src/libs/bin_decoder/../../draw/lv_draw_buf.h ****  * @param draw_buf  pointer to a draw buffer
 321:Drivers/lvgl/src/libs/bin_decoder/../../draw/lv_draw_buf.h ****  * @param flag      the flag to check
 322:Drivers/lvgl/src/libs/bin_decoder/../../draw/lv_draw_buf.h ****  * @return true: the flag is set, false: the flag is not set
 323:Drivers/lvgl/src/libs/bin_decoder/../../draw/lv_draw_buf.h ****  */
 324:Drivers/lvgl/src/libs/bin_decoder/../../draw/lv_draw_buf.h **** static inline bool lv_draw_buf_has_flag(const lv_draw_buf_t * draw_buf, lv_image_flags_t flag)
 325:Drivers/lvgl/src/libs/bin_decoder/../../draw/lv_draw_buf.h **** {
 326:Drivers/lvgl/src/libs/bin_decoder/../../draw/lv_draw_buf.h ****     return draw_buf->header.flags & flag;
 327:Drivers/lvgl/src/libs/bin_decoder/../../draw/lv_draw_buf.h **** }
 328:Drivers/lvgl/src/libs/bin_decoder/../../draw/lv_draw_buf.h **** 
 329:Drivers/lvgl/src/libs/bin_decoder/../../draw/lv_draw_buf.h **** /**
 330:Drivers/lvgl/src/libs/bin_decoder/../../draw/lv_draw_buf.h ****  * Set a flag to a draw buffer.
 331:Drivers/lvgl/src/libs/bin_decoder/../../draw/lv_draw_buf.h ****  * @param draw_buf  pointer to a draw buffer
 332:Drivers/lvgl/src/libs/bin_decoder/../../draw/lv_draw_buf.h ****  * @param flag      the flag to set
 333:Drivers/lvgl/src/libs/bin_decoder/../../draw/lv_draw_buf.h ****  */
 334:Drivers/lvgl/src/libs/bin_decoder/../../draw/lv_draw_buf.h **** static inline void lv_draw_buf_set_flag(lv_draw_buf_t * draw_buf, lv_image_flags_t flag)
 1492              		.loc 2 334 20 view .LVU499
 1493              	.LBB41:
 335:Drivers/lvgl/src/libs/bin_decoder/../../draw/lv_draw_buf.h **** {
 336:Drivers/lvgl/src/libs/bin_decoder/../../draw/lv_draw_buf.h ****     draw_buf->header.flags |= flag;
 1494              		.loc 2 336 5 view .LVU500
 1495              		.loc 2 336 21 is_stmt 0 view .LVU501
 1496 004c 6B88     		ldrh	r3, [r5, #2]
 1497              		.loc 2 336 28 view .LVU502
 1498 004e 43F00103 		orr	r3, r3, #1
 1499 0052 6B80     		strh	r3, [r5, #2]	@ movhi
 1500              	.LVL171:
 1501              	.L123:
 1502              		.loc 2 336 28 view .LVU503
 1503              	.LBE41:
 1504              	.LBE40:
ARM GAS  /var/folders/qx/2_175_4n2s19vhvtspjhb3qh0000gn/T//ccPNYKNl.s 			page 60


 339:Drivers/lvgl/src/libs/bin_decoder/lv_bin_decoder.c ****     if(adjusted == NULL) {
 1505              		.loc 1 339 5 is_stmt 1 view .LVU504
 339:Drivers/lvgl/src/libs/bin_decoder/lv_bin_decoder.c ****     if(adjusted == NULL) {
 1506              		.loc 1 339 32 is_stmt 0 view .LVU505
 1507 0054 2946     		mov	r1, r5
 1508 0056 2046     		mov	r0, r4
 1509 0058 FFF7FEFF 		bl	lv_image_decoder_post_process
 1510              	.LVL172:
 340:Drivers/lvgl/src/libs/bin_decoder/lv_bin_decoder.c ****         free_decoder_data(dsc);
 1511              		.loc 1 340 5 is_stmt 1 view .LVU506
 340:Drivers/lvgl/src/libs/bin_decoder/lv_bin_decoder.c ****         free_decoder_data(dsc);
 1512              		.loc 1 340 7 is_stmt 0 view .LVU507
 1513 005c 8046     		mov	r8, r0
 1514 005e 0028     		cmp	r0, #0
 1515 0060 00F0E080 		beq	.L141
 346:Drivers/lvgl/src/libs/bin_decoder/lv_bin_decoder.c ****         use_directly = false; /*Cannot use original image directly*/
 1516              		.loc 1 346 5 is_stmt 1 view .LVU508
 346:Drivers/lvgl/src/libs/bin_decoder/lv_bin_decoder.c ****         use_directly = false; /*Cannot use original image directly*/
 1517              		.loc 1 346 7 is_stmt 0 view .LVU509
 1518 0064 8542     		cmp	r5, r0
 1519 0066 08D0     		beq	.L125
 1520              	.LBB42:
 347:Drivers/lvgl/src/libs/bin_decoder/lv_bin_decoder.c ****         free_decoder_data(dsc);
 1521              		.loc 1 347 9 is_stmt 1 view .LVU510
 1522              	.LVL173:
 348:Drivers/lvgl/src/libs/bin_decoder/lv_bin_decoder.c ****         decoder_data_t * decoder_data = get_decoder_data(dsc);
 1523              		.loc 1 348 9 view .LVU511
 1524 0068 2046     		mov	r0, r4
 1525              	.LVL174:
 348:Drivers/lvgl/src/libs/bin_decoder/lv_bin_decoder.c ****         decoder_data_t * decoder_data = get_decoder_data(dsc);
 1526              		.loc 1 348 9 is_stmt 0 view .LVU512
 1527 006a FFF7FEFF 		bl	free_decoder_data
 1528              	.LVL175:
 349:Drivers/lvgl/src/libs/bin_decoder/lv_bin_decoder.c ****         decoder_data->decoded = adjusted; /*Now this new buffer need to be free'd on decoder close*
 1529              		.loc 1 349 9 is_stmt 1 view .LVU513
 349:Drivers/lvgl/src/libs/bin_decoder/lv_bin_decoder.c ****         decoder_data->decoded = adjusted; /*Now this new buffer need to be free'd on decoder close*
 1530              		.loc 1 349 41 is_stmt 0 view .LVU514
 1531 006e 2046     		mov	r0, r4
 1532 0070 FFF7FEFF 		bl	get_decoder_data
 1533              	.LVL176:
 350:Drivers/lvgl/src/libs/bin_decoder/lv_bin_decoder.c ****     }
 1534              		.loc 1 350 9 is_stmt 1 view .LVU515
 350:Drivers/lvgl/src/libs/bin_decoder/lv_bin_decoder.c ****     }
 1535              		.loc 1 350 31 is_stmt 0 view .LVU516
 1536 0074 C0F81C80 		str	r8, [r0, #28]
 347:Drivers/lvgl/src/libs/bin_decoder/lv_bin_decoder.c ****         free_decoder_data(dsc);
 1537              		.loc 1 347 22 view .LVU517
 1538 0078 0027     		movs	r7, #0
 1539              	.LVL177:
 1540              	.L125:
 347:Drivers/lvgl/src/libs/bin_decoder/lv_bin_decoder.c ****         free_decoder_data(dsc);
 1541              		.loc 1 347 22 view .LVU518
 1542              	.LBE42:
 352:Drivers/lvgl/src/libs/bin_decoder/lv_bin_decoder.c **** 
 1543              		.loc 1 352 5 is_stmt 1 view .LVU519
 352:Drivers/lvgl/src/libs/bin_decoder/lv_bin_decoder.c **** 
 1544              		.loc 1 352 18 is_stmt 0 view .LVU520
ARM GAS  /var/folders/qx/2_175_4n2s19vhvtspjhb3qh0000gn/T//ccPNYKNl.s 			page 61


 1545 007a C4F82C80 		str	r8, [r4, #44]
 355:Drivers/lvgl/src/libs/bin_decoder/lv_bin_decoder.c ****         lv_draw_buf_set_flag((lv_draw_buf_t *)dsc->decoded, dsc->header.flags & LV_IMAGE_FLAGS_USER
 1546              		.loc 1 355 5 is_stmt 1 view .LVU521
 355:Drivers/lvgl/src/libs/bin_decoder/lv_bin_decoder.c ****         lv_draw_buf_set_flag((lv_draw_buf_t *)dsc->decoded, dsc->header.flags & LV_IMAGE_FLAGS_USER
 1547              		.loc 1 355 19 is_stmt 0 view .LVU522
 1548 007e 638C     		ldrh	r3, [r4, #34]
 355:Drivers/lvgl/src/libs/bin_decoder/lv_bin_decoder.c ****         lv_draw_buf_set_flag((lv_draw_buf_t *)dsc->decoded, dsc->header.flags & LV_IMAGE_FLAGS_USER
 1549              		.loc 1 355 7 view .LVU523
 1550 0080 FF2B     		cmp	r3, #255
 1551 0082 06D9     		bls	.L126
 356:Drivers/lvgl/src/libs/bin_decoder/lv_bin_decoder.c ****     }
 1552              		.loc 1 356 9 is_stmt 1 view .LVU524
 356:Drivers/lvgl/src/libs/bin_decoder/lv_bin_decoder.c ****     }
 1553              		.loc 1 356 79 is_stmt 0 view .LVU525
 1554 0084 03F47F43 		and	r3, r3, #65280
 1555              	.LVL178:
 1556              	.LBB43:
 1557              	.LBI43:
 334:Drivers/lvgl/src/libs/bin_decoder/../../draw/lv_draw_buf.h **** {
 1558              		.loc 2 334 20 is_stmt 1 view .LVU526
 1559              	.LBB44:
 1560              		.loc 2 336 5 view .LVU527
 1561              		.loc 2 336 21 is_stmt 0 view .LVU528
 1562 0088 B8F80220 		ldrh	r2, [r8, #2]
 1563              		.loc 2 336 28 view .LVU529
 1564 008c 1343     		orrs	r3, r3, r2
 1565              	.LVL179:
 1566              		.loc 2 336 28 view .LVU530
 1567 008e A8F80230 		strh	r3, [r8, #2]	@ movhi
 1568              	.LVL180:
 1569              	.L126:
 1570              		.loc 2 336 28 view .LVU531
 1571              	.LBE44:
 1572              	.LBE43:
 360:Drivers/lvgl/src/libs/bin_decoder/lv_bin_decoder.c ****         if(dsc->args.flush_cache && use_directly) {
 1573              		.loc 1 360 5 is_stmt 1 view .LVU532
 360:Drivers/lvgl/src/libs/bin_decoder/lv_bin_decoder.c ****         if(dsc->args.flush_cache && use_directly) {
 1574              		.loc 1 360 7 is_stmt 0 view .LVU533
 1575 0092 1FB9     		cbnz	r7, .L127
 360:Drivers/lvgl/src/libs/bin_decoder/lv_bin_decoder.c ****         if(dsc->args.flush_cache && use_directly) {
 1576              		.loc 1 360 33 discriminator 1 view .LVU534
 1577 0094 A379     		ldrb	r3, [r4, #6]	@ zero_extendqisi2
 360:Drivers/lvgl/src/libs/bin_decoder/lv_bin_decoder.c ****         if(dsc->args.flush_cache && use_directly) {
 1578              		.loc 1 360 21 discriminator 1 view .LVU535
 1579 0096 002B     		cmp	r3, #0
 1580 0098 00F0C980 		beq	.L128
 1581              	.L127:
 361:Drivers/lvgl/src/libs/bin_decoder/lv_bin_decoder.c ****             dsc->args.flush_cache = false;
 1582              		.loc 1 361 9 is_stmt 1 view .LVU536
 361:Drivers/lvgl/src/libs/bin_decoder/lv_bin_decoder.c ****             dsc->args.flush_cache = false;
 1583              		.loc 1 361 21 is_stmt 0 view .LVU537
 1584 009c 237A     		ldrb	r3, [r4, #8]	@ zero_extendqisi2
 361:Drivers/lvgl/src/libs/bin_decoder/lv_bin_decoder.c ****             dsc->args.flush_cache = false;
 1585              		.loc 1 361 11 view .LVU538
 1586 009e 13B1     		cbz	r3, .L129
 361:Drivers/lvgl/src/libs/bin_decoder/lv_bin_decoder.c ****             dsc->args.flush_cache = false;
 1587              		.loc 1 361 34 discriminator 1 view .LVU539
ARM GAS  /var/folders/qx/2_175_4n2s19vhvtspjhb3qh0000gn/T//ccPNYKNl.s 			page 62


 1588 00a0 0FB1     		cbz	r7, .L129
 362:Drivers/lvgl/src/libs/bin_decoder/lv_bin_decoder.c ****         }
 1589              		.loc 1 362 13 is_stmt 1 view .LVU540
 362:Drivers/lvgl/src/libs/bin_decoder/lv_bin_decoder.c ****         }
 1590              		.loc 1 362 35 is_stmt 0 view .LVU541
 1591 00a2 0023     		movs	r3, #0
 1592 00a4 2372     		strb	r3, [r4, #8]
 1593              	.L129:
 364:Drivers/lvgl/src/libs/bin_decoder/lv_bin_decoder.c ****     }
 1594              		.loc 1 364 9 is_stmt 1 view .LVU542
 364:Drivers/lvgl/src/libs/bin_decoder/lv_bin_decoder.c ****     }
 1595              		.loc 1 364 16 is_stmt 0 view .LVU543
 1596 00a6 0125     		movs	r5, #1
 1597              	.LVL181:
 364:Drivers/lvgl/src/libs/bin_decoder/lv_bin_decoder.c ****     }
 1598              		.loc 1 364 16 view .LVU544
 1599 00a8 B8E0     		b	.L107
 1600              	.LVL182:
 1601              	.L140:
 1602              	.LBB45:
 196:Drivers/lvgl/src/libs/bin_decoder/lv_bin_decoder.c **** 
 1603              		.loc 1 196 9 is_stmt 1 view .LVU545
 196:Drivers/lvgl/src/libs/bin_decoder/lv_bin_decoder.c **** 
 1604              		.loc 1 196 12 is_stmt 0 view .LVU546
 1605 00aa C868     		ldr	r0, [r1, #12]
 1606              	.LVL183:
 196:Drivers/lvgl/src/libs/bin_decoder/lv_bin_decoder.c **** 
 1607              		.loc 1 196 12 view .LVU547
 1608 00ac FFF7FEFF 		bl	lv_fs_get_ext
 1609              	.LVL184:
 196:Drivers/lvgl/src/libs/bin_decoder/lv_bin_decoder.c **** 
 1610              		.loc 1 196 12 discriminator 1 view .LVU548
 1611 00b0 7149     		ldr	r1, .L149
 1612 00b2 FFF7FEFF 		bl	lv_strcmp
 1613              	.LVL185:
 196:Drivers/lvgl/src/libs/bin_decoder/lv_bin_decoder.c **** 
 1614              		.loc 1 196 11 discriminator 2 view .LVU549
 1615 00b6 08B1     		cbz	r0, .L142
 196:Drivers/lvgl/src/libs/bin_decoder/lv_bin_decoder.c **** 
 1616              		.loc 1 196 62 discriminator 1 view .LVU550
 1617 00b8 0025     		movs	r5, #0
 1618 00ba AFE0     		b	.L107
 1619              	.L142:
 199:Drivers/lvgl/src/libs/bin_decoder/lv_bin_decoder.c ****         if(decoder_data == NULL) {
 1620              		.loc 1 199 9 is_stmt 1 view .LVU551
 199:Drivers/lvgl/src/libs/bin_decoder/lv_bin_decoder.c ****         if(decoder_data == NULL) {
 1621              		.loc 1 199 41 is_stmt 0 view .LVU552
 1622 00bc 2046     		mov	r0, r4
 1623 00be FFF7FEFF 		bl	get_decoder_data
 1624              	.LVL186:
 200:Drivers/lvgl/src/libs/bin_decoder/lv_bin_decoder.c ****             return LV_RESULT_INVALID;
 1625              		.loc 1 200 9 is_stmt 1 view .LVU553
 200:Drivers/lvgl/src/libs/bin_decoder/lv_bin_decoder.c ****             return LV_RESULT_INVALID;
 1626              		.loc 1 200 11 is_stmt 0 view .LVU554
 1627 00c2 0546     		mov	r5, r0
 1628 00c4 0028     		cmp	r0, #0
 1629 00c6 00F0D280 		beq	.L132
ARM GAS  /var/folders/qx/2_175_4n2s19vhvtspjhb3qh0000gn/T//ccPNYKNl.s 			page 63


 204:Drivers/lvgl/src/libs/bin_decoder/lv_bin_decoder.c ****         lv_fs_file_t * f = lv_malloc(sizeof(*f));
 1630              		.loc 1 204 9 is_stmt 1 view .LVU555
 204:Drivers/lvgl/src/libs/bin_decoder/lv_bin_decoder.c ****         lv_fs_file_t * f = lv_malloc(sizeof(*f));
 1631              		.loc 1 204 24 is_stmt 0 view .LVU556
 1632 00ca A064     		str	r0, [r4, #72]
 205:Drivers/lvgl/src/libs/bin_decoder/lv_bin_decoder.c ****         if(f == NULL) {
 1633              		.loc 1 205 9 is_stmt 1 view .LVU557
 205:Drivers/lvgl/src/libs/bin_decoder/lv_bin_decoder.c ****         if(f == NULL) {
 1634              		.loc 1 205 28 is_stmt 0 view .LVU558
 1635 00cc 0C20     		movs	r0, #12
 1636              	.LVL187:
 205:Drivers/lvgl/src/libs/bin_decoder/lv_bin_decoder.c ****         if(f == NULL) {
 1637              		.loc 1 205 28 view .LVU559
 1638 00ce FFF7FEFF 		bl	lv_malloc
 1639              	.LVL188:
 206:Drivers/lvgl/src/libs/bin_decoder/lv_bin_decoder.c ****             free_decoder_data(dsc);
 1640              		.loc 1 206 9 is_stmt 1 view .LVU560
 206:Drivers/lvgl/src/libs/bin_decoder/lv_bin_decoder.c ****             free_decoder_data(dsc);
 1641              		.loc 1 206 11 is_stmt 0 view .LVU561
 1642 00d2 0746     		mov	r7, r0
 1643 00d4 90B1     		cbz	r0, .L143
 211:Drivers/lvgl/src/libs/bin_decoder/lv_bin_decoder.c ****         if(fs_res != LV_FS_RES_OK) {
 1644              		.loc 1 211 9 is_stmt 1 view .LVU562
 211:Drivers/lvgl/src/libs/bin_decoder/lv_bin_decoder.c ****         if(fs_res != LV_FS_RES_OK) {
 1645              		.loc 1 211 18 is_stmt 0 view .LVU563
 1646 00d6 0222     		movs	r2, #2
 1647 00d8 E168     		ldr	r1, [r4, #12]
 1648 00da FFF7FEFF 		bl	lv_fs_open
 1649              	.LVL189:
 212:Drivers/lvgl/src/libs/bin_decoder/lv_bin_decoder.c ****             LV_LOG_WARN("Open file failed: %d", fs_res);
 1650              		.loc 1 212 9 is_stmt 1 view .LVU564
 212:Drivers/lvgl/src/libs/bin_decoder/lv_bin_decoder.c ****             LV_LOG_WARN("Open file failed: %d", fs_res);
 1651              		.loc 1 212 11 is_stmt 0 view .LVU565
 1652 00de 90B9     		cbnz	r0, .L144
 219:Drivers/lvgl/src/libs/bin_decoder/lv_bin_decoder.c **** 
 1653              		.loc 1 219 9 is_stmt 1 view .LVU566
 219:Drivers/lvgl/src/libs/bin_decoder/lv_bin_decoder.c **** 
 1654              		.loc 1 219 25 is_stmt 0 view .LVU567
 1655 00e0 2F60     		str	r7, [r5]
 221:Drivers/lvgl/src/libs/bin_decoder/lv_bin_decoder.c **** 
 1656              		.loc 1 221 9 is_stmt 1 view .LVU568
 221:Drivers/lvgl/src/libs/bin_decoder/lv_bin_decoder.c **** 
 1657              		.loc 1 221 27 is_stmt 0 view .LVU569
 1658 00e2 94F82130 		ldrb	r3, [r4, #33]	@ zero_extendqisi2
 1659              	.LVL190:
 223:Drivers/lvgl/src/libs/bin_decoder/lv_bin_decoder.c ****             res = decode_compressed(decoder, dsc);
 1660              		.loc 1 223 9 is_stmt 1 view .LVU570
 223:Drivers/lvgl/src/libs/bin_decoder/lv_bin_decoder.c ****             res = decode_compressed(decoder, dsc);
 1661              		.loc 1 223 23 is_stmt 0 view .LVU571
 1662 00e6 628C     		ldrh	r2, [r4, #34]
 223:Drivers/lvgl/src/libs/bin_decoder/lv_bin_decoder.c ****             res = decode_compressed(decoder, dsc);
 1663              		.loc 1 223 11 view .LVU572
 1664 00e8 12F0080F 		tst	r2, #8
 1665 00ec 13D0     		beq	.L110
 224:Drivers/lvgl/src/libs/bin_decoder/lv_bin_decoder.c ****         }
 1666              		.loc 1 224 13 is_stmt 1 view .LVU573
 224:Drivers/lvgl/src/libs/bin_decoder/lv_bin_decoder.c ****         }
ARM GAS  /var/folders/qx/2_175_4n2s19vhvtspjhb3qh0000gn/T//ccPNYKNl.s 			page 64


 1667              		.loc 1 224 19 is_stmt 0 view .LVU574
 1668 00ee 2146     		mov	r1, r4
 1669 00f0 3046     		mov	r0, r6
 1670              	.LVL191:
 224:Drivers/lvgl/src/libs/bin_decoder/lv_bin_decoder.c ****         }
 1671              		.loc 1 224 19 view .LVU575
 1672 00f2 FFF7FEFF 		bl	decode_compressed
 1673              	.LVL192:
 224:Drivers/lvgl/src/libs/bin_decoder/lv_bin_decoder.c ****         }
 1674              		.loc 1 224 19 view .LVU576
 1675 00f6 0546     		mov	r5, r0
 1676              	.LVL193:
 224:Drivers/lvgl/src/libs/bin_decoder/lv_bin_decoder.c ****         }
 1677              		.loc 1 224 19 view .LVU577
 1678              	.LBE45:
 191:Drivers/lvgl/src/libs/bin_decoder/lv_bin_decoder.c **** 
 1679              		.loc 1 191 10 view .LVU578
 1680 00f8 0027     		movs	r7, #0
 1681              	.LVL194:
 1682              	.LBB46:
 191:Drivers/lvgl/src/libs/bin_decoder/lv_bin_decoder.c **** 
 1683              		.loc 1 191 10 view .LVU579
 1684 00fa 9CE7     		b	.L111
 1685              	.LVL195:
 1686              	.L143:
 207:Drivers/lvgl/src/libs/bin_decoder/lv_bin_decoder.c ****             return LV_RESULT_INVALID;
 1687              		.loc 1 207 13 is_stmt 1 view .LVU580
 1688 00fc 2046     		mov	r0, r4
 1689              	.LVL196:
 207:Drivers/lvgl/src/libs/bin_decoder/lv_bin_decoder.c ****             return LV_RESULT_INVALID;
 1690              		.loc 1 207 13 is_stmt 0 view .LVU581
 1691 00fe FFF7FEFF 		bl	free_decoder_data
 1692              	.LVL197:
 208:Drivers/lvgl/src/libs/bin_decoder/lv_bin_decoder.c ****         }
 1693              		.loc 1 208 13 is_stmt 1 view .LVU582
 208:Drivers/lvgl/src/libs/bin_decoder/lv_bin_decoder.c ****         }
 1694              		.loc 1 208 20 is_stmt 0 view .LVU583
 1695 0102 0025     		movs	r5, #0
 1696              	.LVL198:
 208:Drivers/lvgl/src/libs/bin_decoder/lv_bin_decoder.c ****         }
 1697              		.loc 1 208 20 view .LVU584
 1698 0104 8AE0     		b	.L107
 1699              	.LVL199:
 1700              	.L144:
 213:Drivers/lvgl/src/libs/bin_decoder/lv_bin_decoder.c ****             lv_free(f);
 1701              		.loc 1 213 13 is_stmt 1 view .LVU585
 213:Drivers/lvgl/src/libs/bin_decoder/lv_bin_decoder.c ****             lv_free(f);
 1702              		.loc 1 213 13 view .LVU586
 213:Drivers/lvgl/src/libs/bin_decoder/lv_bin_decoder.c ****             lv_free(f);
 1703              		.loc 1 213 13 view .LVU587
 214:Drivers/lvgl/src/libs/bin_decoder/lv_bin_decoder.c ****             free_decoder_data(dsc);
 1704              		.loc 1 214 13 view .LVU588
 1705 0106 3846     		mov	r0, r7
 1706              	.LVL200:
 214:Drivers/lvgl/src/libs/bin_decoder/lv_bin_decoder.c ****             free_decoder_data(dsc);
 1707              		.loc 1 214 13 is_stmt 0 view .LVU589
 1708 0108 FFF7FEFF 		bl	lv_free
ARM GAS  /var/folders/qx/2_175_4n2s19vhvtspjhb3qh0000gn/T//ccPNYKNl.s 			page 65


 1709              	.LVL201:
 215:Drivers/lvgl/src/libs/bin_decoder/lv_bin_decoder.c ****             return LV_RESULT_INVALID;
 1710              		.loc 1 215 13 is_stmt 1 view .LVU590
 1711 010c 2046     		mov	r0, r4
 1712 010e FFF7FEFF 		bl	free_decoder_data
 1713              	.LVL202:
 216:Drivers/lvgl/src/libs/bin_decoder/lv_bin_decoder.c ****         }
 1714              		.loc 1 216 13 view .LVU591
 216:Drivers/lvgl/src/libs/bin_decoder/lv_bin_decoder.c ****         }
 1715              		.loc 1 216 20 is_stmt 0 view .LVU592
 1716 0112 0025     		movs	r5, #0
 1717              	.LVL203:
 216:Drivers/lvgl/src/libs/bin_decoder/lv_bin_decoder.c ****         }
 1718              		.loc 1 216 20 view .LVU593
 1719 0114 82E0     		b	.L107
 1720              	.LVL204:
 1721              	.L110:
 226:Drivers/lvgl/src/libs/bin_decoder/lv_bin_decoder.c ****             if(dsc->args.use_indexed) {
 1722              		.loc 1 226 14 is_stmt 1 view .LVU594
 226:Drivers/lvgl/src/libs/bin_decoder/lv_bin_decoder.c ****             if(dsc->args.use_indexed) {
 1723              		.loc 1 226 17 is_stmt 0 view .LVU595
 1724 0116 DA1F     		subs	r2, r3, #7
 1725 0118 D2B2     		uxtb	r2, r2
 226:Drivers/lvgl/src/libs/bin_decoder/lv_bin_decoder.c ****             if(dsc->args.use_indexed) {
 1726              		.loc 1 226 16 view .LVU596
 1727 011a 032A     		cmp	r2, #3
 1728 011c 0ED8     		bhi	.L112
 227:Drivers/lvgl/src/libs/bin_decoder/lv_bin_decoder.c ****                 /*Palette for indexed image and whole image of A8 image are always loaded to RAM fo
 1729              		.loc 1 227 13 is_stmt 1 view .LVU597
 227:Drivers/lvgl/src/libs/bin_decoder/lv_bin_decoder.c ****                 /*Palette for indexed image and whole image of A8 image are always loaded to RAM fo
 1730              		.loc 1 227 25 is_stmt 0 view .LVU598
 1731 011e E779     		ldrb	r7, [r4, #7]	@ zero_extendqisi2
 1732              	.LVL205:
 227:Drivers/lvgl/src/libs/bin_decoder/lv_bin_decoder.c ****                 /*Palette for indexed image and whole image of A8 image are always loaded to RAM fo
 1733              		.loc 1 227 15 view .LVU599
 1734 0120 37B1     		cbz	r7, .L113
 229:Drivers/lvgl/src/libs/bin_decoder/lv_bin_decoder.c ****             }
 1735              		.loc 1 229 17 is_stmt 1 view .LVU600
 229:Drivers/lvgl/src/libs/bin_decoder/lv_bin_decoder.c ****             }
 1736              		.loc 1 229 23 is_stmt 0 view .LVU601
 1737 0122 2146     		mov	r1, r4
 1738 0124 3046     		mov	r0, r6
 1739              	.LVL206:
 229:Drivers/lvgl/src/libs/bin_decoder/lv_bin_decoder.c ****             }
 1740              		.loc 1 229 23 view .LVU602
 1741 0126 FFF7FEFF 		bl	load_indexed
 1742              	.LVL207:
 229:Drivers/lvgl/src/libs/bin_decoder/lv_bin_decoder.c ****             }
 1743              		.loc 1 229 23 view .LVU603
 1744 012a 0546     		mov	r5, r0
 1745              	.LVL208:
 229:Drivers/lvgl/src/libs/bin_decoder/lv_bin_decoder.c ****             }
 1746              		.loc 1 229 23 view .LVU604
 1747              	.LBE46:
 191:Drivers/lvgl/src/libs/bin_decoder/lv_bin_decoder.c **** 
 1748              		.loc 1 191 10 view .LVU605
 1749 012c 0027     		movs	r7, #0
ARM GAS  /var/folders/qx/2_175_4n2s19vhvtspjhb3qh0000gn/T//ccPNYKNl.s 			page 66


 1750              	.LBB47:
 1751 012e 82E7     		b	.L111
 1752              	.LVL209:
 1753              	.L113:
 232:Drivers/lvgl/src/libs/bin_decoder/lv_bin_decoder.c ****             }
 1754              		.loc 1 232 17 is_stmt 1 view .LVU606
 232:Drivers/lvgl/src/libs/bin_decoder/lv_bin_decoder.c ****             }
 1755              		.loc 1 232 23 is_stmt 0 view .LVU607
 1756 0130 2146     		mov	r1, r4
 1757 0132 3046     		mov	r0, r6
 1758              	.LVL210:
 232:Drivers/lvgl/src/libs/bin_decoder/lv_bin_decoder.c ****             }
 1759              		.loc 1 232 23 view .LVU608
 1760 0134 FFF7FEFF 		bl	decode_indexed
 1761              	.LVL211:
 232:Drivers/lvgl/src/libs/bin_decoder/lv_bin_decoder.c ****             }
 1762              		.loc 1 232 23 view .LVU609
 1763 0138 0546     		mov	r5, r0
 1764              	.LVL212:
 232:Drivers/lvgl/src/libs/bin_decoder/lv_bin_decoder.c ****             }
 1765              		.loc 1 232 23 view .LVU610
 1766 013a 7CE7     		b	.L111
 1767              	.LVL213:
 1768              	.L112:
 235:Drivers/lvgl/src/libs/bin_decoder/lv_bin_decoder.c ****             res = decode_alpha_only(decoder, dsc);
 1769              		.loc 1 235 14 is_stmt 1 view .LVU611
 235:Drivers/lvgl/src/libs/bin_decoder/lv_bin_decoder.c ****             res = decode_alpha_only(decoder, dsc);
 1770              		.loc 1 235 17 is_stmt 0 view .LVU612
 1771 013c 0B3B     		subs	r3, r3, #11
 1772              	.LVL214:
 235:Drivers/lvgl/src/libs/bin_decoder/lv_bin_decoder.c ****             res = decode_alpha_only(decoder, dsc);
 1773              		.loc 1 235 17 view .LVU613
 1774 013e DBB2     		uxtb	r3, r3
 1775              	.LVL215:
 235:Drivers/lvgl/src/libs/bin_decoder/lv_bin_decoder.c ****             res = decode_alpha_only(decoder, dsc);
 1776              		.loc 1 235 16 view .LVU614
 1777 0140 032B     		cmp	r3, #3
 1778 0142 01D9     		bls	.L145
 1779              	.LBE47:
 191:Drivers/lvgl/src/libs/bin_decoder/lv_bin_decoder.c **** 
 1780              		.loc 1 191 10 view .LVU615
 1781 0144 0027     		movs	r7, #0
 1782              	.LVL216:
 191:Drivers/lvgl/src/libs/bin_decoder/lv_bin_decoder.c **** 
 1783              		.loc 1 191 10 view .LVU616
 1784 0146 79E7     		b	.L114
 1785              	.LVL217:
 1786              	.L145:
 1787              	.LBB48:
 236:Drivers/lvgl/src/libs/bin_decoder/lv_bin_decoder.c ****         }
 1788              		.loc 1 236 13 is_stmt 1 view .LVU617
 236:Drivers/lvgl/src/libs/bin_decoder/lv_bin_decoder.c ****         }
 1789              		.loc 1 236 19 is_stmt 0 view .LVU618
 1790 0148 2146     		mov	r1, r4
 1791 014a 3046     		mov	r0, r6
 1792              	.LVL218:
 236:Drivers/lvgl/src/libs/bin_decoder/lv_bin_decoder.c ****         }
ARM GAS  /var/folders/qx/2_175_4n2s19vhvtspjhb3qh0000gn/T//ccPNYKNl.s 			page 67


 1793              		.loc 1 236 19 view .LVU619
 1794 014c FFF7FEFF 		bl	decode_alpha_only
 1795              	.LVL219:
 236:Drivers/lvgl/src/libs/bin_decoder/lv_bin_decoder.c ****         }
 1796              		.loc 1 236 19 view .LVU620
 1797 0150 0546     		mov	r5, r0
 1798              	.LVL220:
 236:Drivers/lvgl/src/libs/bin_decoder/lv_bin_decoder.c ****         }
 1799              		.loc 1 236 19 view .LVU621
 1800              	.LBE48:
 191:Drivers/lvgl/src/libs/bin_decoder/lv_bin_decoder.c **** 
 1801              		.loc 1 191 10 view .LVU622
 1802 0152 0027     		movs	r7, #0
 1803              	.LVL221:
 1804              	.LBB49:
 191:Drivers/lvgl/src/libs/bin_decoder/lv_bin_decoder.c **** 
 1805              		.loc 1 191 10 view .LVU623
 1806 0154 6FE7     		b	.L111
 1807              	.LVL222:
 1808              	.L116:
 191:Drivers/lvgl/src/libs/bin_decoder/lv_bin_decoder.c **** 
 1809              		.loc 1 191 10 view .LVU624
 1810              	.LBE49:
 1811              	.LBB50:
 267:Drivers/lvgl/src/libs/bin_decoder/lv_bin_decoder.c ****             /*Need decoder data to store converted image*/
 1812              		.loc 1 267 14 is_stmt 1 view .LVU625
 267:Drivers/lvgl/src/libs/bin_decoder/lv_bin_decoder.c ****             /*Need decoder data to store converted image*/
 1813              		.loc 1 267 17 is_stmt 0 view .LVU626
 1814 0156 A8F10703 		sub	r3, r8, #7
 1815 015a DBB2     		uxtb	r3, r3
 267:Drivers/lvgl/src/libs/bin_decoder/lv_bin_decoder.c ****             /*Need decoder data to store converted image*/
 1816              		.loc 1 267 16 view .LVU627
 1817 015c 032B     		cmp	r3, #3
 1818 015e 10D9     		bls	.L146
 283:Drivers/lvgl/src/libs/bin_decoder/lv_bin_decoder.c ****             /*Alpha only image will need decoder data to store pointer to decoded image, to free it
 1819              		.loc 1 283 14 is_stmt 1 view .LVU628
 283:Drivers/lvgl/src/libs/bin_decoder/lv_bin_decoder.c ****             /*Alpha only image will need decoder data to store pointer to decoded image, to free it
 1820              		.loc 1 283 51 is_stmt 0 view .LVU629
 1821 0160 A8F10B03 		sub	r3, r8, #11
 1822 0164 DBB2     		uxtb	r3, r3
 283:Drivers/lvgl/src/libs/bin_decoder/lv_bin_decoder.c ****             /*Alpha only image will need decoder data to store pointer to decoded image, to free it
 1823              		.loc 1 283 16 view .LVU630
 1824 0166 022B     		cmp	r3, #2
 1825 0168 1ED8     		bhi	.L119
 1826              	.LBB36:
 285:Drivers/lvgl/src/libs/bin_decoder/lv_bin_decoder.c ****             if(decoder_data == NULL) {
 1827              		.loc 1 285 13 is_stmt 1 view .LVU631
 285:Drivers/lvgl/src/libs/bin_decoder/lv_bin_decoder.c ****             if(decoder_data == NULL) {
 1828              		.loc 1 285 45 is_stmt 0 view .LVU632
 1829 016a 0846     		mov	r0, r1
 1830              	.LVL223:
 285:Drivers/lvgl/src/libs/bin_decoder/lv_bin_decoder.c ****             if(decoder_data == NULL) {
 1831              		.loc 1 285 45 view .LVU633
 1832 016c FFF7FEFF 		bl	get_decoder_data
 1833              	.LVL224:
 286:Drivers/lvgl/src/libs/bin_decoder/lv_bin_decoder.c ****                 return LV_RESULT_INVALID;
 1834              		.loc 1 286 13 is_stmt 1 view .LVU634
ARM GAS  /var/folders/qx/2_175_4n2s19vhvtspjhb3qh0000gn/T//ccPNYKNl.s 			page 68


 286:Drivers/lvgl/src/libs/bin_decoder/lv_bin_decoder.c ****                 return LV_RESULT_INVALID;
 1835              		.loc 1 286 15 is_stmt 0 view .LVU635
 1836 0170 0028     		cmp	r0, #0
 1837 0172 53D0     		beq	.L107
 290:Drivers/lvgl/src/libs/bin_decoder/lv_bin_decoder.c ****         }
 1838              		.loc 1 290 13 is_stmt 1 view .LVU636
 290:Drivers/lvgl/src/libs/bin_decoder/lv_bin_decoder.c ****         }
 1839              		.loc 1 290 19 is_stmt 0 view .LVU637
 1840 0174 2146     		mov	r1, r4
 1841 0176 3046     		mov	r0, r6
 1842              	.LVL225:
 290:Drivers/lvgl/src/libs/bin_decoder/lv_bin_decoder.c ****         }
 1843              		.loc 1 290 19 view .LVU638
 1844 0178 FFF7FEFF 		bl	decode_alpha_only
 1845              	.LVL226:
 1846 017c 0546     		mov	r5, r0
 1847              	.LVL227:
 290:Drivers/lvgl/src/libs/bin_decoder/lv_bin_decoder.c ****         }
 1848              		.loc 1 290 19 view .LVU639
 1849              	.LBE36:
 1850              	.LBE50:
 191:Drivers/lvgl/src/libs/bin_decoder/lv_bin_decoder.c **** 
 1851              		.loc 1 191 10 view .LVU640
 1852 017e 0027     		movs	r7, #0
 1853              	.LVL228:
 1854              	.LBB51:
 191:Drivers/lvgl/src/libs/bin_decoder/lv_bin_decoder.c **** 
 1855              		.loc 1 191 10 view .LVU641
 1856 0180 59E7     		b	.L111
 1857              	.LVL229:
 1858              	.L146:
 1859              	.LBB37:
 269:Drivers/lvgl/src/libs/bin_decoder/lv_bin_decoder.c ****             if(decoder_data == NULL) {
 1860              		.loc 1 269 13 is_stmt 1 view .LVU642
 269:Drivers/lvgl/src/libs/bin_decoder/lv_bin_decoder.c ****             if(decoder_data == NULL) {
 1861              		.loc 1 269 45 is_stmt 0 view .LVU643
 1862 0182 0846     		mov	r0, r1
 1863              	.LVL230:
 269:Drivers/lvgl/src/libs/bin_decoder/lv_bin_decoder.c ****             if(decoder_data == NULL) {
 1864              		.loc 1 269 45 view .LVU644
 1865 0184 FFF7FEFF 		bl	get_decoder_data
 1866              	.LVL231:
 270:Drivers/lvgl/src/libs/bin_decoder/lv_bin_decoder.c ****                 return LV_RESULT_INVALID;
 1867              		.loc 1 270 13 is_stmt 1 view .LVU645
 270:Drivers/lvgl/src/libs/bin_decoder/lv_bin_decoder.c ****                 return LV_RESULT_INVALID;
 1868              		.loc 1 270 15 is_stmt 0 view .LVU646
 1869 0188 0028     		cmp	r0, #0
 1870 018a 47D0     		beq	.L107
 274:Drivers/lvgl/src/libs/bin_decoder/lv_bin_decoder.c ****                 /*Palette for indexed image and whole image of A8 image are always loaded to RAM fo
 1871              		.loc 1 274 13 is_stmt 1 view .LVU647
 274:Drivers/lvgl/src/libs/bin_decoder/lv_bin_decoder.c ****                 /*Palette for indexed image and whole image of A8 image are always loaded to RAM fo
 1872              		.loc 1 274 25 is_stmt 0 view .LVU648
 1873 018c E779     		ldrb	r7, [r4, #7]	@ zero_extendqisi2
 1874              	.LVL232:
 274:Drivers/lvgl/src/libs/bin_decoder/lv_bin_decoder.c ****                 /*Palette for indexed image and whole image of A8 image are always loaded to RAM fo
 1875              		.loc 1 274 15 view .LVU649
 1876 018e 2FB1     		cbz	r7, .L118
ARM GAS  /var/folders/qx/2_175_4n2s19vhvtspjhb3qh0000gn/T//ccPNYKNl.s 			page 69


 276:Drivers/lvgl/src/libs/bin_decoder/lv_bin_decoder.c ****                 use_directly = true; /*If draw unit supports indexed image, it can be used directly
 1877              		.loc 1 276 17 is_stmt 1 view .LVU650
 276:Drivers/lvgl/src/libs/bin_decoder/lv_bin_decoder.c ****                 use_directly = true; /*If draw unit supports indexed image, it can be used directly
 1878              		.loc 1 276 23 is_stmt 0 view .LVU651
 1879 0190 2146     		mov	r1, r4
 1880 0192 3046     		mov	r0, r6
 1881              	.LVL233:
 276:Drivers/lvgl/src/libs/bin_decoder/lv_bin_decoder.c ****                 use_directly = true; /*If draw unit supports indexed image, it can be used directly
 1882              		.loc 1 276 23 view .LVU652
 1883 0194 FFF7FEFF 		bl	load_indexed
 1884              	.LVL234:
 1885 0198 0546     		mov	r5, r0
 1886              	.LVL235:
 277:Drivers/lvgl/src/libs/bin_decoder/lv_bin_decoder.c ****             }
 1887              		.loc 1 277 17 is_stmt 1 view .LVU653
 277:Drivers/lvgl/src/libs/bin_decoder/lv_bin_decoder.c ****             }
 1888              		.loc 1 277 17 is_stmt 0 view .LVU654
 1889 019a 4CE7     		b	.L111
 1890              	.LVL236:
 1891              	.L118:
 280:Drivers/lvgl/src/libs/bin_decoder/lv_bin_decoder.c ****             }
 1892              		.loc 1 280 17 is_stmt 1 view .LVU655
 280:Drivers/lvgl/src/libs/bin_decoder/lv_bin_decoder.c ****             }
 1893              		.loc 1 280 23 is_stmt 0 view .LVU656
 1894 019c 2146     		mov	r1, r4
 1895 019e 3046     		mov	r0, r6
 1896              	.LVL237:
 280:Drivers/lvgl/src/libs/bin_decoder/lv_bin_decoder.c ****             }
 1897              		.loc 1 280 23 view .LVU657
 1898 01a0 FFF7FEFF 		bl	decode_indexed
 1899              	.LVL238:
 1900 01a4 0546     		mov	r5, r0
 1901              	.LVL239:
 280:Drivers/lvgl/src/libs/bin_decoder/lv_bin_decoder.c ****             }
 1902              		.loc 1 280 23 view .LVU658
 1903 01a6 46E7     		b	.L111
 1904              	.LVL240:
 1905              	.L119:
 280:Drivers/lvgl/src/libs/bin_decoder/lv_bin_decoder.c ****             }
 1906              		.loc 1 280 23 view .LVU659
 1907              	.LBE37:
 1908              	.LBB38:
 296:Drivers/lvgl/src/libs/bin_decoder/lv_bin_decoder.c ****             lv_draw_buf_t * decoded;
 1909              		.loc 1 296 13 is_stmt 1 view .LVU660
 296:Drivers/lvgl/src/libs/bin_decoder/lv_bin_decoder.c ****             lv_draw_buf_t * decoded;
 1910              		.loc 1 296 45 is_stmt 0 view .LVU661
 1911 01a8 0846     		mov	r0, r1
 1912              	.LVL241:
 296:Drivers/lvgl/src/libs/bin_decoder/lv_bin_decoder.c ****             lv_draw_buf_t * decoded;
 1913              		.loc 1 296 45 view .LVU662
 1914 01aa FFF7FEFF 		bl	get_decoder_data
 1915              	.LVL242:
 297:Drivers/lvgl/src/libs/bin_decoder/lv_bin_decoder.c ****             if(image->header.flags & LV_IMAGE_FLAGS_ALLOCATED) {
 1916              		.loc 1 297 13 is_stmt 1 view .LVU663
 298:Drivers/lvgl/src/libs/bin_decoder/lv_bin_decoder.c ****                 decoded = (lv_draw_buf_t *)image;
 1917              		.loc 1 298 13 view .LVU664
 298:Drivers/lvgl/src/libs/bin_decoder/lv_bin_decoder.c ****                 decoded = (lv_draw_buf_t *)image;
ARM GAS  /var/folders/qx/2_175_4n2s19vhvtspjhb3qh0000gn/T//ccPNYKNl.s 			page 70


 1918              		.loc 1 298 29 is_stmt 0 view .LVU665
 1919 01ae 7B88     		ldrh	r3, [r7, #2]
 298:Drivers/lvgl/src/libs/bin_decoder/lv_bin_decoder.c ****                 decoded = (lv_draw_buf_t *)image;
 1920              		.loc 1 298 15 view .LVU666
 1921 01b0 13F0100F 		tst	r3, #16
 1922 01b4 24D1     		bne	.L135
 303:Drivers/lvgl/src/libs/bin_decoder/lv_bin_decoder.c ****                 if(image->header.stride == 0) {
 1923              		.loc 1 303 17 is_stmt 1 view .LVU667
 303:Drivers/lvgl/src/libs/bin_decoder/lv_bin_decoder.c ****                 if(image->header.stride == 0) {
 1924              		.loc 1 303 25 is_stmt 0 view .LVU668
 1925 01b6 00F12409 		add	r9, r0, #36
 1926              	.LVL243:
 304:Drivers/lvgl/src/libs/bin_decoder/lv_bin_decoder.c ****                     /*If image doesn't have stride, treat it as lvgl v8 legacy image format*/
 1927              		.loc 1 304 17 is_stmt 1 view .LVU669
 304:Drivers/lvgl/src/libs/bin_decoder/lv_bin_decoder.c ****                     /*If image doesn't have stride, treat it as lvgl v8 legacy image format*/
 1928              		.loc 1 304 33 is_stmt 0 view .LVU670
 1929 01ba 3B89     		ldrh	r3, [r7, #8]
 304:Drivers/lvgl/src/libs/bin_decoder/lv_bin_decoder.c ****                     /*If image doesn't have stride, treat it as lvgl v8 legacy image format*/
 1930              		.loc 1 304 19 view .LVU671
 1931 01bc D3B9     		cbnz	r3, .L121
 1932              	.LBB39:
 306:Drivers/lvgl/src/libs/bin_decoder/lv_bin_decoder.c ****                     tmp.header.stride = (tmp.header.w * lv_color_format_get_bpp(cf) + 7) >> 3;
 1933              		.loc 1 306 21 is_stmt 1 view .LVU672
 306:Drivers/lvgl/src/libs/bin_decoder/lv_bin_decoder.c ****                     tmp.header.stride = (tmp.header.w * lv_color_format_get_bpp(cf) + 7) >> 3;
 1934              		.loc 1 306 36 is_stmt 0 view .LVU673
 1935 01be 01AD     		add	r5, sp, #4
 1936 01c0 0FCF     		ldmia	r7!, {r0, r1, r2, r3}
 1937              	.LVL244:
 306:Drivers/lvgl/src/libs/bin_decoder/lv_bin_decoder.c ****                     tmp.header.stride = (tmp.header.w * lv_color_format_get_bpp(cf) + 7) >> 3;
 1938              		.loc 1 306 36 view .LVU674
 1939 01c2 0FC5     		stmia	r5!, {r0, r1, r2, r3}
 1940 01c4 97E80700 		ldm	r7, {r0, r1, r2}
 1941 01c8 85E80700 		stm	r5, {r0, r1, r2}
 307:Drivers/lvgl/src/libs/bin_decoder/lv_bin_decoder.c ****                     res = lv_draw_buf_from_image(decoded, &tmp);
 1942              		.loc 1 307 21 is_stmt 1 view .LVU675
 307:Drivers/lvgl/src/libs/bin_decoder/lv_bin_decoder.c ****                     res = lv_draw_buf_from_image(decoded, &tmp);
 1943              		.loc 1 307 52 is_stmt 0 view .LVU676
 1944 01cc BDF80850 		ldrh	r5, [sp, #8]
 307:Drivers/lvgl/src/libs/bin_decoder/lv_bin_decoder.c ****                     res = lv_draw_buf_from_image(decoded, &tmp);
 1945              		.loc 1 307 57 view .LVU677
 1946 01d0 4046     		mov	r0, r8
 1947 01d2 FFF7FEFF 		bl	lv_color_format_get_bpp
 1948              	.LVL245:
 307:Drivers/lvgl/src/libs/bin_decoder/lv_bin_decoder.c ****                     res = lv_draw_buf_from_image(decoded, &tmp);
 1949              		.loc 1 307 55 discriminator 1 view .LVU678
 1950 01d6 00FB05F3 		mul	r3, r0, r5
 307:Drivers/lvgl/src/libs/bin_decoder/lv_bin_decoder.c ****                     res = lv_draw_buf_from_image(decoded, &tmp);
 1951              		.loc 1 307 85 discriminator 1 view .LVU679
 1952 01da 0733     		adds	r3, r3, #7
 307:Drivers/lvgl/src/libs/bin_decoder/lv_bin_decoder.c ****                     res = lv_draw_buf_from_image(decoded, &tmp);
 1953              		.loc 1 307 90 discriminator 1 view .LVU680
 1954 01dc DB10     		asrs	r3, r3, #3
 307:Drivers/lvgl/src/libs/bin_decoder/lv_bin_decoder.c ****                     res = lv_draw_buf_from_image(decoded, &tmp);
 1955              		.loc 1 307 39 discriminator 1 view .LVU681
 1956 01de ADF80C30 		strh	r3, [sp, #12]	@ movhi
 308:Drivers/lvgl/src/libs/bin_decoder/lv_bin_decoder.c ****                 }
 1957              		.loc 1 308 21 is_stmt 1 view .LVU682
ARM GAS  /var/folders/qx/2_175_4n2s19vhvtspjhb3qh0000gn/T//ccPNYKNl.s 			page 71


 308:Drivers/lvgl/src/libs/bin_decoder/lv_bin_decoder.c ****                 }
 1958              		.loc 1 308 27 is_stmt 0 view .LVU683
 1959 01e2 01A9     		add	r1, sp, #4
 1960 01e4 4846     		mov	r0, r9
 1961 01e6 FFF7FEFF 		bl	lv_draw_buf_from_image
 1962              	.LVL246:
 1963 01ea 0546     		mov	r5, r0
 1964              	.LVL247:
 1965              	.L122:
 308:Drivers/lvgl/src/libs/bin_decoder/lv_bin_decoder.c ****                 }
 1966              		.loc 1 308 27 view .LVU684
 1967              	.LBE39:
 314:Drivers/lvgl/src/libs/bin_decoder/lv_bin_decoder.c ****                 dsc->decoded = decoded;
 1968              		.loc 1 314 13 is_stmt 1 view .LVU685
 314:Drivers/lvgl/src/libs/bin_decoder/lv_bin_decoder.c ****                 dsc->decoded = decoded;
 1969              		.loc 1 314 15 is_stmt 0 view .LVU686
 1970 01ec 012D     		cmp	r5, #1
 1971 01ee 12D1     		bne	.L115
 1972 01f0 4F46     		mov	r7, r9
 1973 01f2 06E0     		b	.L120
 1974              	.LVL248:
 1975              	.L121:
 311:Drivers/lvgl/src/libs/bin_decoder/lv_bin_decoder.c ****             }
 1976              		.loc 1 311 21 is_stmt 1 view .LVU687
 311:Drivers/lvgl/src/libs/bin_decoder/lv_bin_decoder.c ****             }
 1977              		.loc 1 311 27 is_stmt 0 view .LVU688
 1978 01f4 3946     		mov	r1, r7
 1979 01f6 4846     		mov	r0, r9
 1980              	.LVL249:
 311:Drivers/lvgl/src/libs/bin_decoder/lv_bin_decoder.c ****             }
 1981              		.loc 1 311 27 view .LVU689
 1982 01f8 FFF7FEFF 		bl	lv_draw_buf_from_image
 1983              	.LVL250:
 1984 01fc 0546     		mov	r5, r0
 1985 01fe F5E7     		b	.L122
 1986              	.LVL251:
 1987              	.L135:
 300:Drivers/lvgl/src/libs/bin_decoder/lv_bin_decoder.c ****             }
 1988              		.loc 1 300 21 view .LVU690
 1989 0200 0125     		movs	r5, #1
 1990              	.LVL252:
 1991              	.L120:
 315:Drivers/lvgl/src/libs/bin_decoder/lv_bin_decoder.c **** 
 1992              		.loc 1 315 17 is_stmt 1 view .LVU691
 315:Drivers/lvgl/src/libs/bin_decoder/lv_bin_decoder.c **** 
 1993              		.loc 1 315 30 is_stmt 0 view .LVU692
 1994 0202 E762     		str	r7, [r4, #44]
 317:Drivers/lvgl/src/libs/bin_decoder/lv_bin_decoder.c ****                     /*Use the auto calculated value from decoder_info callback*/
 1995              		.loc 1 317 17 is_stmt 1 view .LVU693
 317:Drivers/lvgl/src/libs/bin_decoder/lv_bin_decoder.c ****                     /*Use the auto calculated value from decoder_info callback*/
 1996              		.loc 1 317 35 is_stmt 0 view .LVU694
 1997 0204 3B89     		ldrh	r3, [r7, #8]
 317:Drivers/lvgl/src/libs/bin_decoder/lv_bin_decoder.c ****                     /*Use the auto calculated value from decoder_info callback*/
 1998              		.loc 1 317 19 view .LVU695
 1999 0206 1BB9     		cbnz	r3, .L136
 319:Drivers/lvgl/src/libs/bin_decoder/lv_bin_decoder.c ****                 }
 2000              		.loc 1 319 21 is_stmt 1 view .LVU696
ARM GAS  /var/folders/qx/2_175_4n2s19vhvtspjhb3qh0000gn/T//ccPNYKNl.s 			page 72


 319:Drivers/lvgl/src/libs/bin_decoder/lv_bin_decoder.c ****                 }
 2001              		.loc 1 319 57 is_stmt 0 view .LVU697
 2002 0208 238D     		ldrh	r3, [r4, #40]
 319:Drivers/lvgl/src/libs/bin_decoder/lv_bin_decoder.c ****                 }
 2003              		.loc 1 319 44 view .LVU698
 2004 020a 3B81     		strh	r3, [r7, #8]	@ movhi
 322:Drivers/lvgl/src/libs/bin_decoder/lv_bin_decoder.c ****             }
 2005              		.loc 1 322 30 view .LVU699
 2006 020c 0127     		movs	r7, #1
 2007 020e 12E7     		b	.L111
 2008              	.L136:
 2009 0210 0127     		movs	r7, #1
 2010 0212 10E7     		b	.L111
 2011              	.LVL253:
 2012              	.L134:
 322:Drivers/lvgl/src/libs/bin_decoder/lv_bin_decoder.c ****             }
 2013              		.loc 1 322 30 view .LVU700
 2014              	.LBE38:
 2015              	.LBE51:
 189:Drivers/lvgl/src/libs/bin_decoder/lv_bin_decoder.c ****     lv_fs_res_t fs_res = LV_FS_RES_UNKNOWN;
 2016              		.loc 1 189 17 view .LVU701
 2017 0214 0025     		movs	r5, #0
 2018              	.LVL254:
 2019              	.L115:
 328:Drivers/lvgl/src/libs/bin_decoder/lv_bin_decoder.c ****         return res;
 2020              		.loc 1 328 9 is_stmt 1 view .LVU702
 2021 0216 2046     		mov	r0, r4
 2022 0218 FFF7FEFF 		bl	free_decoder_data
 2023              	.LVL255:
 329:Drivers/lvgl/src/libs/bin_decoder/lv_bin_decoder.c ****     }
 2024              		.loc 1 329 9 view .LVU703
 2025              	.L107:
 386:Drivers/lvgl/src/libs/bin_decoder/lv_bin_decoder.c **** 
 2026              		.loc 1 386 1 is_stmt 0 view .LVU704
 2027 021c 2846     		mov	r0, r5
 2028 021e 0FB0     		add	sp, sp, #60
 2029              	.LCFI19:
 2030              		.cfi_remember_state
 2031              		.cfi_def_cfa_offset 28
 2032              		@ sp needed
 2033 0220 BDE8F083 		pop	{r4, r5, r6, r7, r8, r9, pc}
 2034              	.LVL256:
 2035              	.L141:
 2036              	.LCFI20:
 2037              		.cfi_restore_state
 341:Drivers/lvgl/src/libs/bin_decoder/lv_bin_decoder.c ****         return LV_RESULT_INVALID;
 2038              		.loc 1 341 9 is_stmt 1 view .LVU705
 2039 0224 2046     		mov	r0, r4
 2040              	.LVL257:
 341:Drivers/lvgl/src/libs/bin_decoder/lv_bin_decoder.c ****         return LV_RESULT_INVALID;
 2041              		.loc 1 341 9 is_stmt 0 view .LVU706
 2042 0226 FFF7FEFF 		bl	free_decoder_data
 2043              	.LVL258:
 342:Drivers/lvgl/src/libs/bin_decoder/lv_bin_decoder.c ****     }
 2044              		.loc 1 342 9 is_stmt 1 view .LVU707
 342:Drivers/lvgl/src/libs/bin_decoder/lv_bin_decoder.c ****     }
 2045              		.loc 1 342 16 is_stmt 0 view .LVU708
ARM GAS  /var/folders/qx/2_175_4n2s19vhvtspjhb3qh0000gn/T//ccPNYKNl.s 			page 73


 2046 022a 0025     		movs	r5, #0
 2047              	.LVL259:
 342:Drivers/lvgl/src/libs/bin_decoder/lv_bin_decoder.c ****     }
 2048              		.loc 1 342 16 view .LVU709
 2049 022c F6E7     		b	.L107
 2050              	.LVL260:
 2051              	.L128:
 368:Drivers/lvgl/src/libs/bin_decoder/lv_bin_decoder.c **** 
 2052              		.loc 1 368 5 is_stmt 1 view .LVU710
 368:Drivers/lvgl/src/libs/bin_decoder/lv_bin_decoder.c **** 
 2053              		.loc 1 368 9 is_stmt 0 view .LVU711
 2054 022e FFF7FEFF 		bl	lv_image_cache_is_enabled
 2055              	.LVL261:
 368:Drivers/lvgl/src/libs/bin_decoder/lv_bin_decoder.c **** 
 2056              		.loc 1 368 7 discriminator 1 view .LVU712
 2057 0232 08B9     		cbnz	r0, .L147
 368:Drivers/lvgl/src/libs/bin_decoder/lv_bin_decoder.c **** 
 2058              		.loc 1 368 45 discriminator 1 view .LVU713
 2059 0234 0125     		movs	r5, #1
 2060              	.LVL262:
 368:Drivers/lvgl/src/libs/bin_decoder/lv_bin_decoder.c **** 
 2061              		.loc 1 368 45 discriminator 1 view .LVU714
 2062 0236 F1E7     		b	.L107
 2063              	.LVL263:
 2064              	.L147:
 371:Drivers/lvgl/src/libs/bin_decoder/lv_bin_decoder.c ****     search_key.src_type = dsc->src_type;
 2065              		.loc 1 371 5 is_stmt 1 view .LVU715
 372:Drivers/lvgl/src/libs/bin_decoder/lv_bin_decoder.c ****     search_key.src = dsc->src;
 2066              		.loc 1 372 5 view .LVU716
 372:Drivers/lvgl/src/libs/bin_decoder/lv_bin_decoder.c ****     search_key.src = dsc->src;
 2067              		.loc 1 372 30 is_stmt 0 view .LVU717
 2068 0238 237C     		ldrb	r3, [r4, #16]	@ zero_extendqisi2
 372:Drivers/lvgl/src/libs/bin_decoder/lv_bin_decoder.c ****     search_key.src = dsc->src;
 2069              		.loc 1 372 25 view .LVU718
 2070 023a 8DF82830 		strb	r3, [sp, #40]
 373:Drivers/lvgl/src/libs/bin_decoder/lv_bin_decoder.c ****     search_key.slot.size = dsc->decoded->data_size;
 2071              		.loc 1 373 5 is_stmt 1 view .LVU719
 373:Drivers/lvgl/src/libs/bin_decoder/lv_bin_decoder.c ****     search_key.slot.size = dsc->decoded->data_size;
 2072              		.loc 1 373 25 is_stmt 0 view .LVU720
 2073 023e E368     		ldr	r3, [r4, #12]
 373:Drivers/lvgl/src/libs/bin_decoder/lv_bin_decoder.c ****     search_key.slot.size = dsc->decoded->data_size;
 2074              		.loc 1 373 20 view .LVU721
 2075 0240 0993     		str	r3, [sp, #36]
 374:Drivers/lvgl/src/libs/bin_decoder/lv_bin_decoder.c **** 
 2076              		.loc 1 374 5 is_stmt 1 view .LVU722
 374:Drivers/lvgl/src/libs/bin_decoder/lv_bin_decoder.c **** 
 2077              		.loc 1 374 31 is_stmt 0 view .LVU723
 2078 0242 E26A     		ldr	r2, [r4, #44]
 374:Drivers/lvgl/src/libs/bin_decoder/lv_bin_decoder.c **** 
 2079              		.loc 1 374 40 view .LVU724
 2080 0244 D368     		ldr	r3, [r2, #12]
 374:Drivers/lvgl/src/libs/bin_decoder/lv_bin_decoder.c **** 
 2081              		.loc 1 374 26 view .LVU725
 2082 0246 0893     		str	r3, [sp, #32]
 376:Drivers/lvgl/src/libs/bin_decoder/lv_bin_decoder.c ****     if(cache_entry == NULL) {
 2083              		.loc 1 376 5 is_stmt 1 view .LVU726
 376:Drivers/lvgl/src/libs/bin_decoder/lv_bin_decoder.c ****     if(cache_entry == NULL) {
ARM GAS  /var/folders/qx/2_175_4n2s19vhvtspjhb3qh0000gn/T//ccPNYKNl.s 			page 74


 2084              		.loc 1 376 38 is_stmt 0 view .LVU727
 2085 0248 A36C     		ldr	r3, [r4, #72]
 2086 024a 08A9     		add	r1, sp, #32
 2087 024c 3046     		mov	r0, r6
 2088 024e FFF7FEFF 		bl	lv_image_decoder_add_to_cache
 2089              	.LVL264:
 377:Drivers/lvgl/src/libs/bin_decoder/lv_bin_decoder.c ****         free_decoder_data(dsc);
 2090              		.loc 1 377 5 is_stmt 1 view .LVU728
 377:Drivers/lvgl/src/libs/bin_decoder/lv_bin_decoder.c ****         free_decoder_data(dsc);
 2091              		.loc 1 377 7 is_stmt 0 view .LVU729
 2092 0252 38B1     		cbz	r0, .L148
 381:Drivers/lvgl/src/libs/bin_decoder/lv_bin_decoder.c ****     decoder_data_t * decoder_data = get_decoder_data(dsc);
 2093              		.loc 1 381 5 is_stmt 1 view .LVU730
 381:Drivers/lvgl/src/libs/bin_decoder/lv_bin_decoder.c ****     decoder_data_t * decoder_data = get_decoder_data(dsc);
 2094              		.loc 1 381 22 is_stmt 0 view .LVU731
 2095 0254 6064     		str	r0, [r4, #68]
 382:Drivers/lvgl/src/libs/bin_decoder/lv_bin_decoder.c ****     decoder_data->decoded = NULL; /*Cache will take care of it*/
 2096              		.loc 1 382 5 is_stmt 1 view .LVU732
 382:Drivers/lvgl/src/libs/bin_decoder/lv_bin_decoder.c ****     decoder_data->decoded = NULL; /*Cache will take care of it*/
 2097              		.loc 1 382 37 is_stmt 0 view .LVU733
 2098 0256 2046     		mov	r0, r4
 2099              	.LVL265:
 382:Drivers/lvgl/src/libs/bin_decoder/lv_bin_decoder.c ****     decoder_data->decoded = NULL; /*Cache will take care of it*/
 2100              		.loc 1 382 37 view .LVU734
 2101 0258 FFF7FEFF 		bl	get_decoder_data
 2102              	.LVL266:
 383:Drivers/lvgl/src/libs/bin_decoder/lv_bin_decoder.c **** 
 2103              		.loc 1 383 5 is_stmt 1 view .LVU735
 383:Drivers/lvgl/src/libs/bin_decoder/lv_bin_decoder.c **** 
 2104              		.loc 1 383 27 is_stmt 0 view .LVU736
 2105 025c 0023     		movs	r3, #0
 2106 025e C361     		str	r3, [r0, #28]
 385:Drivers/lvgl/src/libs/bin_decoder/lv_bin_decoder.c **** }
 2107              		.loc 1 385 5 is_stmt 1 view .LVU737
 385:Drivers/lvgl/src/libs/bin_decoder/lv_bin_decoder.c **** }
 2108              		.loc 1 385 12 is_stmt 0 view .LVU738
 2109 0260 0125     		movs	r5, #1
 2110              	.LVL267:
 385:Drivers/lvgl/src/libs/bin_decoder/lv_bin_decoder.c **** }
 2111              		.loc 1 385 12 view .LVU739
 2112 0262 DBE7     		b	.L107
 2113              	.LVL268:
 2114              	.L148:
 378:Drivers/lvgl/src/libs/bin_decoder/lv_bin_decoder.c ****         return LV_RESULT_INVALID;
 2115              		.loc 1 378 9 is_stmt 1 view .LVU740
 2116 0264 2046     		mov	r0, r4
 2117              	.LVL269:
 378:Drivers/lvgl/src/libs/bin_decoder/lv_bin_decoder.c ****         return LV_RESULT_INVALID;
 2118              		.loc 1 378 9 is_stmt 0 view .LVU741
 2119 0266 FFF7FEFF 		bl	free_decoder_data
 2120              	.LVL270:
 379:Drivers/lvgl/src/libs/bin_decoder/lv_bin_decoder.c ****     }
 2121              		.loc 1 379 9 is_stmt 1 view .LVU742
 379:Drivers/lvgl/src/libs/bin_decoder/lv_bin_decoder.c ****     }
 2122              		.loc 1 379 16 is_stmt 0 view .LVU743
 2123 026a 0025     		movs	r5, #0
 2124              	.LVL271:
ARM GAS  /var/folders/qx/2_175_4n2s19vhvtspjhb3qh0000gn/T//ccPNYKNl.s 			page 75


 379:Drivers/lvgl/src/libs/bin_decoder/lv_bin_decoder.c ****     }
 2125              		.loc 1 379 16 view .LVU744
 2126 026c D6E7     		b	.L107
 2127              	.LVL272:
 2128              	.L132:
 2129              	.LBB52:
 201:Drivers/lvgl/src/libs/bin_decoder/lv_bin_decoder.c ****         }
 2130              		.loc 1 201 20 view .LVU745
 2131 026e 0025     		movs	r5, #0
 2132 0270 D4E7     		b	.L107
 2133              	.LVL273:
 2134              	.L137:
 201:Drivers/lvgl/src/libs/bin_decoder/lv_bin_decoder.c ****         }
 2135              		.loc 1 201 20 view .LVU746
 2136              	.LBE52:
 332:Drivers/lvgl/src/libs/bin_decoder/lv_bin_decoder.c **** 
 2137              		.loc 1 332 37 discriminator 1 view .LVU747
 2138 0272 0125     		movs	r5, #1
 2139 0274 D2E7     		b	.L107
 2140              	.L150:
 2141 0276 00BF     		.align	2
 2142              	.L149:
 2143 0278 00000000 		.word	.LC0
 2144              		.cfi_endproc
 2145              	.LFE195:
 2147              		.section	.text.lv_bin_decoder_get_area,"ax",%progbits
 2148              		.align	1
 2149              		.global	lv_bin_decoder_get_area
 2150              		.syntax unified
 2151              		.thumb
 2152              		.thumb_func
 2154              	lv_bin_decoder_get_area:
 2155              	.LVL274:
 2156              	.LFB197:
 403:Drivers/lvgl/src/libs/bin_decoder/lv_bin_decoder.c ****     LV_UNUSED(decoder); /*Unused*/
 2157              		.loc 1 403 1 is_stmt 1 view -0
 2158              		.cfi_startproc
 2159              		@ args = 0, pretend = 0, frame = 16
 2160              		@ frame_needed = 0, uses_anonymous_args = 0
 403:Drivers/lvgl/src/libs/bin_decoder/lv_bin_decoder.c ****     LV_UNUSED(decoder); /*Unused*/
 2161              		.loc 1 403 1 is_stmt 0 view .LVU749
 2162 0000 2DE9F04F 		push	{r4, r5, r6, r7, r8, r9, r10, fp, lr}
 2163              	.LCFI21:
 2164              		.cfi_def_cfa_offset 36
 2165              		.cfi_offset 4, -36
 2166              		.cfi_offset 5, -32
 2167              		.cfi_offset 6, -28
 2168              		.cfi_offset 7, -24
 2169              		.cfi_offset 8, -20
 2170              		.cfi_offset 9, -16
 2171              		.cfi_offset 10, -12
 2172              		.cfi_offset 11, -8
 2173              		.cfi_offset 14, -4
 2174 0004 87B0     		sub	sp, sp, #28
 2175              	.LCFI22:
 2176              		.cfi_def_cfa_offset 64
 404:Drivers/lvgl/src/libs/bin_decoder/lv_bin_decoder.c **** 
ARM GAS  /var/folders/qx/2_175_4n2s19vhvtspjhb3qh0000gn/T//ccPNYKNl.s 			page 76


 2177              		.loc 1 404 5 is_stmt 1 view .LVU750
 406:Drivers/lvgl/src/libs/bin_decoder/lv_bin_decoder.c ****     /*Check if cf is supported*/
 2178              		.loc 1 406 5 view .LVU751
 406:Drivers/lvgl/src/libs/bin_decoder/lv_bin_decoder.c ****     /*Check if cf is supported*/
 2179              		.loc 1 406 23 is_stmt 0 view .LVU752
 2180 0006 91F82160 		ldrb	r6, [r1, #33]	@ zero_extendqisi2
 2181              	.LVL275:
 409:Drivers/lvgl/src/libs/bin_decoder/lv_bin_decoder.c ****                      || cf == LV_COLOR_FORMAT_ARGB8888  \
 2182              		.loc 1 409 5 is_stmt 1 view .LVU753
 2183 000a 1B2E     		cmp	r6, #27
 2184 000c 00F21181 		bhi	.L168
 2185 0010 0D46     		mov	r5, r1
 2186 0012 1746     		mov	r7, r2
 2187 0014 1C46     		mov	r4, r3
 2188 0016 A6F10708 		sub	r8, r6, #7
 2189 001a 5FFA88F8 		uxtb	r8, r8
 2190 001e 8D4B     		ldr	r3, .L185
 2191              	.LVL276:
 409:Drivers/lvgl/src/libs/bin_decoder/lv_bin_decoder.c ****                      || cf == LV_COLOR_FORMAT_ARGB8888  \
 2192              		.loc 1 409 5 is_stmt 0 view .LVU754
 2193 0020 F340     		lsrs	r3, r3, r6
 2194 0022 13F0010F 		tst	r3, #1
 2195 0026 00F00681 		beq	.L169
 422:Drivers/lvgl/src/libs/bin_decoder/lv_bin_decoder.c ****     decoder_data_t * decoder_data = dsc->user_data;
 2196              		.loc 1 422 5 is_stmt 1 view .LVU755
 2197              	.LVL277:
 423:Drivers/lvgl/src/libs/bin_decoder/lv_bin_decoder.c ****     if(decoder_data == NULL) {
 2198              		.loc 1 423 5 view .LVU756
 423:Drivers/lvgl/src/libs/bin_decoder/lv_bin_decoder.c ****     if(decoder_data == NULL) {
 2199              		.loc 1 423 22 is_stmt 0 view .LVU757
 2200 002a D1F84890 		ldr	r9, [r1, #72]
 2201              	.LVL278:
 424:Drivers/lvgl/src/libs/bin_decoder/lv_bin_decoder.c ****         LV_LOG_ERROR("Unexpected null decoder data");
 2202              		.loc 1 424 5 is_stmt 1 view .LVU758
 424:Drivers/lvgl/src/libs/bin_decoder/lv_bin_decoder.c ****         LV_LOG_ERROR("Unexpected null decoder data");
 2203              		.loc 1 424 7 is_stmt 0 view .LVU759
 2204 002e B9F1000F 		cmp	r9, #0
 2205 0032 00F00281 		beq	.L170
 429:Drivers/lvgl/src/libs/bin_decoder/lv_bin_decoder.c ****     uint32_t bpp = lv_color_format_get_bpp(cf);
 2206              		.loc 1 429 5 is_stmt 1 view .LVU760
 429:Drivers/lvgl/src/libs/bin_decoder/lv_bin_decoder.c ****     uint32_t bpp = lv_color_format_get_bpp(cf);
 2207              		.loc 1 429 20 is_stmt 0 view .LVU761
 2208 0036 D9F800B0 		ldr	fp, [r9]
 2209              	.LVL279:
 430:Drivers/lvgl/src/libs/bin_decoder/lv_bin_decoder.c ****     int32_t w_px = lv_area_get_width(full_area);
 2210              		.loc 1 430 5 is_stmt 1 view .LVU762
 430:Drivers/lvgl/src/libs/bin_decoder/lv_bin_decoder.c ****     int32_t w_px = lv_area_get_width(full_area);
 2211              		.loc 1 430 20 is_stmt 0 view .LVU763
 2212 003a 3046     		mov	r0, r6
 2213              	.LVL280:
 430:Drivers/lvgl/src/libs/bin_decoder/lv_bin_decoder.c ****     int32_t w_px = lv_area_get_width(full_area);
 2214              		.loc 1 430 20 view .LVU764
 2215 003c FFF7FEFF 		bl	lv_color_format_get_bpp
 2216              	.LVL281:
 430:Drivers/lvgl/src/libs/bin_decoder/lv_bin_decoder.c ****     int32_t w_px = lv_area_get_width(full_area);
 2217              		.loc 1 430 20 view .LVU765
 2218 0040 0490     		str	r0, [sp, #16]
ARM GAS  /var/folders/qx/2_175_4n2s19vhvtspjhb3qh0000gn/T//ccPNYKNl.s 			page 77


 2219              	.LVL282:
 431:Drivers/lvgl/src/libs/bin_decoder/lv_bin_decoder.c ****     uint8_t * img_data = NULL;
 2220              		.loc 1 431 5 is_stmt 1 view .LVU766
 431:Drivers/lvgl/src/libs/bin_decoder/lv_bin_decoder.c ****     uint8_t * img_data = NULL;
 2221              		.loc 1 431 20 is_stmt 0 view .LVU767
 2222 0042 3846     		mov	r0, r7
 2223              	.LVL283:
 431:Drivers/lvgl/src/libs/bin_decoder/lv_bin_decoder.c ****     uint8_t * img_data = NULL;
 2224              		.loc 1 431 20 view .LVU768
 2225 0044 FFF7FEFF 		bl	lv_area_get_width
 2226              	.LVL284:
 2227 0048 8246     		mov	r10, r0
 2228              	.LVL285:
 432:Drivers/lvgl/src/libs/bin_decoder/lv_bin_decoder.c ****     lv_draw_buf_t * decoded = NULL;
 2229              		.loc 1 432 5 is_stmt 1 view .LVU769
 433:Drivers/lvgl/src/libs/bin_decoder/lv_bin_decoder.c ****     uint32_t offset = dsc->src_type == LV_IMAGE_SRC_FILE ? sizeof(lv_image_header_t) : 0;   /*Skip 
 2230              		.loc 1 433 5 view .LVU770
 434:Drivers/lvgl/src/libs/bin_decoder/lv_bin_decoder.c **** 
 2231              		.loc 1 434 5 view .LVU771
 434:Drivers/lvgl/src/libs/bin_decoder/lv_bin_decoder.c **** 
 2232              		.loc 1 434 26 is_stmt 0 view .LVU772
 2233 004a 2B7C     		ldrb	r3, [r5, #16]	@ zero_extendqisi2
 434:Drivers/lvgl/src/libs/bin_decoder/lv_bin_decoder.c **** 
 2234              		.loc 1 434 86 view .LVU773
 2235 004c 012B     		cmp	r3, #1
 2236 004e 2ED0     		beq	.L179
 434:Drivers/lvgl/src/libs/bin_decoder/lv_bin_decoder.c **** 
 2237              		.loc 1 434 86 discriminator 2 view .LVU774
 2238 0050 0023     		movs	r3, #0
 2239 0052 0393     		str	r3, [sp, #12]
 2240              	.L153:
 2241              	.LVL286:
 437:Drivers/lvgl/src/libs/bin_decoder/lv_bin_decoder.c ****         /*Indexed image is converted to ARGB888*/
 2242              		.loc 1 437 5 is_stmt 1 view .LVU775
 437:Drivers/lvgl/src/libs/bin_decoder/lv_bin_decoder.c ****         /*Indexed image is converted to ARGB888*/
 2243              		.loc 1 437 20 is_stmt 0 view .LVU776
 2244 0054 6368     		ldr	r3, [r4, #4]
 437:Drivers/lvgl/src/libs/bin_decoder/lv_bin_decoder.c ****         /*Indexed image is converted to ARGB888*/
 2245              		.loc 1 437 7 view .LVU777
 2246 0056 804A     		ldr	r2, .L185+4
 2247 0058 9342     		cmp	r3, r2
 2248 005a 2BD0     		beq	.L180
 455:Drivers/lvgl/src/libs/bin_decoder/lv_bin_decoder.c ****         decoded_area->y2++;
 2249              		.loc 1 455 9 is_stmt 1 view .LVU778
 455:Drivers/lvgl/src/libs/bin_decoder/lv_bin_decoder.c ****         decoded_area->y2++;
 2250              		.loc 1 455 25 is_stmt 0 view .LVU779
 2251 005c 0133     		adds	r3, r3, #1
 2252 005e 6360     		str	r3, [r4, #4]
 456:Drivers/lvgl/src/libs/bin_decoder/lv_bin_decoder.c ****         decoded = decoder_data->decoded_partial; /*Already allocated*/
 2253              		.loc 1 456 9 is_stmt 1 view .LVU780
 456:Drivers/lvgl/src/libs/bin_decoder/lv_bin_decoder.c ****         decoded = decoder_data->decoded_partial; /*Already allocated*/
 2254              		.loc 1 456 21 is_stmt 0 view .LVU781
 2255 0060 E368     		ldr	r3, [r4, #12]
 456:Drivers/lvgl/src/libs/bin_decoder/lv_bin_decoder.c ****         decoded = decoder_data->decoded_partial; /*Already allocated*/
 2256              		.loc 1 456 25 view .LVU782
 2257 0062 0133     		adds	r3, r3, #1
 2258 0064 E360     		str	r3, [r4, #12]
ARM GAS  /var/folders/qx/2_175_4n2s19vhvtspjhb3qh0000gn/T//ccPNYKNl.s 			page 78


 457:Drivers/lvgl/src/libs/bin_decoder/lv_bin_decoder.c ****     }
 2259              		.loc 1 457 9 is_stmt 1 view .LVU783
 457:Drivers/lvgl/src/libs/bin_decoder/lv_bin_decoder.c ****     }
 2260              		.loc 1 457 17 is_stmt 0 view .LVU784
 2261 0066 D9F84080 		ldr	r8, [r9, #64]
 2262              	.LVL287:
 2263              	.L158:
 460:Drivers/lvgl/src/libs/bin_decoder/lv_bin_decoder.c **** 
 2264              		.loc 1 460 5 is_stmt 1 view .LVU785
 460:Drivers/lvgl/src/libs/bin_decoder/lv_bin_decoder.c **** 
 2265              		.loc 1 460 14 is_stmt 0 view .LVU786
 2266 006a D8F81090 		ldr	r9, [r8, #16]
 2267              	.LVL288:
 462:Drivers/lvgl/src/libs/bin_decoder/lv_bin_decoder.c ****         return LV_RESULT_INVALID;
 2268              		.loc 1 462 5 is_stmt 1 view .LVU787
 462:Drivers/lvgl/src/libs/bin_decoder/lv_bin_decoder.c ****         return LV_RESULT_INVALID;
 2269              		.loc 1 462 20 is_stmt 0 view .LVU788
 2270 006e 6268     		ldr	r2, [r4, #4]
 462:Drivers/lvgl/src/libs/bin_decoder/lv_bin_decoder.c ****         return LV_RESULT_INVALID;
 2271              		.loc 1 462 36 view .LVU789
 2272 0070 FB68     		ldr	r3, [r7, #12]
 462:Drivers/lvgl/src/libs/bin_decoder/lv_bin_decoder.c ****         return LV_RESULT_INVALID;
 2273              		.loc 1 462 7 view .LVU790
 2274 0072 9A42     		cmp	r2, r3
 2275 0074 00F3E880 		bgt	.L174
 466:Drivers/lvgl/src/libs/bin_decoder/lv_bin_decoder.c ****         int32_t x_fraction = decoded_area->x1 % (8 / bpp);
 2276              		.loc 1 466 5 is_stmt 1 view .LVU791
 2277 0078 F31F     		subs	r3, r6, #7
 2278 007a 142B     		cmp	r3, #20
 2279 007c 00F2E680 		bhi	.L175
 2280 0080 DFE813F0 		tbh	[pc, r3, lsl #1]
 2281              	.L160:
 2282 0084 4700     		.2byte	(.L162-.L160)/2
 2283 0086 4700     		.2byte	(.L162-.L160)/2
 2284 0088 4700     		.2byte	(.L162-.L160)/2
 2285 008a 4700     		.2byte	(.L162-.L160)/2
 2286 008c E400     		.2byte	(.L175-.L160)/2
 2287 008e E400     		.2byte	(.L175-.L160)/2
 2288 0090 E400     		.2byte	(.L175-.L160)/2
 2289 0092 E400     		.2byte	(.L175-.L160)/2
 2290 0094 9100     		.2byte	(.L159-.L160)/2
 2291 0096 9100     		.2byte	(.L159-.L160)/2
 2292 0098 9100     		.2byte	(.L159-.L160)/2
 2293 009a 9100     		.2byte	(.L159-.L160)/2
 2294 009c 9100     		.2byte	(.L159-.L160)/2
 2295 009e AA00     		.2byte	(.L161-.L160)/2
 2296 00a0 E400     		.2byte	(.L175-.L160)/2
 2297 00a2 E400     		.2byte	(.L175-.L160)/2
 2298 00a4 E400     		.2byte	(.L175-.L160)/2
 2299 00a6 E400     		.2byte	(.L175-.L160)/2
 2300 00a8 E400     		.2byte	(.L175-.L160)/2
 2301 00aa E400     		.2byte	(.L175-.L160)/2
 2302 00ac 9100     		.2byte	(.L159-.L160)/2
 2303              	.LVL289:
 2304              		.p2align 1
 2305              	.L179:
 434:Drivers/lvgl/src/libs/bin_decoder/lv_bin_decoder.c **** 
ARM GAS  /var/folders/qx/2_175_4n2s19vhvtspjhb3qh0000gn/T//ccPNYKNl.s 			page 79


 2306              		.loc 1 434 86 is_stmt 0 discriminator 1 view .LVU792
 2307 00ae 0C23     		movs	r3, #12
 2308 00b0 0393     		str	r3, [sp, #12]
 2309 00b2 CFE7     		b	.L153
 2310              	.LVL290:
 2311              	.L180:
 2312              	.LBB53:
 439:Drivers/lvgl/src/libs/bin_decoder/lv_bin_decoder.c **** 
 2313              		.loc 1 439 9 is_stmt 1 view .LVU793
 439:Drivers/lvgl/src/libs/bin_decoder/lv_bin_decoder.c **** 
 2314              		.loc 1 439 98 is_stmt 0 view .LVU794
 2315 00b4 B8F1030F 		cmp	r8, #3
 2316 00b8 01D9     		bls	.L172
 439:Drivers/lvgl/src/libs/bin_decoder/lv_bin_decoder.c **** 
 2317              		.loc 1 439 98 discriminator 1 view .LVU795
 2318 00ba 0596     		str	r6, [sp, #20]
 2319 00bc 01E0     		b	.L155
 2320              	.L172:
 439:Drivers/lvgl/src/libs/bin_decoder/lv_bin_decoder.c **** 
 2321              		.loc 1 439 98 discriminator 2 view .LVU796
 2322 00be 1023     		movs	r3, #16
 2323 00c0 0593     		str	r3, [sp, #20]
 2324              	.L155:
 2325              	.LVL291:
 441:Drivers/lvgl/src/libs/bin_decoder/lv_bin_decoder.c ****         if(decoded == NULL) {
 2326              		.loc 1 441 9 is_stmt 1 view .LVU797
 441:Drivers/lvgl/src/libs/bin_decoder/lv_bin_decoder.c ****         if(decoded == NULL) {
 2327              		.loc 1 441 19 is_stmt 0 view .LVU798
 2328 00c2 D9F84000 		ldr	r0, [r9, #64]
 2329              	.LVL292:
 441:Drivers/lvgl/src/libs/bin_decoder/lv_bin_decoder.c ****         if(decoded == NULL) {
 2330              		.loc 1 441 19 view .LVU799
 2331 00c6 0023     		movs	r3, #0
 2332 00c8 0093     		str	r3, [sp]
 2333 00ca 0123     		movs	r3, #1
 2334 00cc 5246     		mov	r2, r10
 2335 00ce 0599     		ldr	r1, [sp, #20]
 2336 00d0 FFF7FEFF 		bl	lv_draw_buf_reshape
 2337              	.LVL293:
 442:Drivers/lvgl/src/libs/bin_decoder/lv_bin_decoder.c ****             if(decoder_data->decoded_partial != NULL) {
 2338              		.loc 1 442 9 is_stmt 1 view .LVU800
 442:Drivers/lvgl/src/libs/bin_decoder/lv_bin_decoder.c ****             if(decoder_data->decoded_partial != NULL) {
 2339              		.loc 1 442 11 is_stmt 0 view .LVU801
 2340 00d4 8046     		mov	r8, r0
 2341 00d6 28B1     		cbz	r0, .L181
 2342              	.L156:
 451:Drivers/lvgl/src/libs/bin_decoder/lv_bin_decoder.c ****         decoded_area->y2 = decoded_area->y1;
 2343              		.loc 1 451 9 is_stmt 1 view .LVU802
 451:Drivers/lvgl/src/libs/bin_decoder/lv_bin_decoder.c ****         decoded_area->y2 = decoded_area->y1;
 2344              		.loc 1 451 23 is_stmt 0 view .LVU803
 2345 00d8 97E80F00 		ldm	r7, {r0, r1, r2, r3}
 2346              	.LVL294:
 451:Drivers/lvgl/src/libs/bin_decoder/lv_bin_decoder.c ****         decoded_area->y2 = decoded_area->y1;
 2347              		.loc 1 451 23 view .LVU804
 2348 00dc 84E80F00 		stm	r4, {r0, r1, r2, r3}
 452:Drivers/lvgl/src/libs/bin_decoder/lv_bin_decoder.c ****     }
 2349              		.loc 1 452 9 is_stmt 1 view .LVU805
ARM GAS  /var/folders/qx/2_175_4n2s19vhvtspjhb3qh0000gn/T//ccPNYKNl.s 			page 80


 452:Drivers/lvgl/src/libs/bin_decoder/lv_bin_decoder.c ****     }
 2350              		.loc 1 452 26 is_stmt 0 view .LVU806
 2351 00e0 E160     		str	r1, [r4, #12]
 2352              	.LBE53:
 2353 00e2 C2E7     		b	.L158
 2354              	.LVL295:
 2355              	.L181:
 2356              	.LBB54:
 443:Drivers/lvgl/src/libs/bin_decoder/lv_bin_decoder.c ****                 lv_draw_buf_destroy(decoder_data->decoded_partial);
 2357              		.loc 1 443 13 is_stmt 1 view .LVU807
 443:Drivers/lvgl/src/libs/bin_decoder/lv_bin_decoder.c ****                 lv_draw_buf_destroy(decoder_data->decoded_partial);
 2358              		.loc 1 443 28 is_stmt 0 view .LVU808
 2359 00e4 D9F84000 		ldr	r0, [r9, #64]
 2360              	.LVL296:
 443:Drivers/lvgl/src/libs/bin_decoder/lv_bin_decoder.c ****                 lv_draw_buf_destroy(decoder_data->decoded_partial);
 2361              		.loc 1 443 15 view .LVU809
 2362 00e8 20B1     		cbz	r0, .L157
 444:Drivers/lvgl/src/libs/bin_decoder/lv_bin_decoder.c ****                 decoder_data->decoded_partial = NULL;
 2363              		.loc 1 444 17 is_stmt 1 view .LVU810
 2364 00ea FFF7FEFF 		bl	lv_draw_buf_destroy
 2365              	.LVL297:
 445:Drivers/lvgl/src/libs/bin_decoder/lv_bin_decoder.c ****             }
 2366              		.loc 1 445 17 view .LVU811
 445:Drivers/lvgl/src/libs/bin_decoder/lv_bin_decoder.c ****             }
 2367              		.loc 1 445 47 is_stmt 0 view .LVU812
 2368 00ee 0023     		movs	r3, #0
 2369 00f0 C9F84030 		str	r3, [r9, #64]
 2370              	.L157:
 447:Drivers/lvgl/src/libs/bin_decoder/lv_bin_decoder.c ****             if(decoded == NULL) return LV_RESULT_INVALID;
 2371              		.loc 1 447 13 is_stmt 1 view .LVU813
 447:Drivers/lvgl/src/libs/bin_decoder/lv_bin_decoder.c ****             if(decoded == NULL) return LV_RESULT_INVALID;
 2372              		.loc 1 447 23 is_stmt 0 view .LVU814
 2373 00f4 0023     		movs	r3, #0
 2374 00f6 0093     		str	r3, [sp]
 2375 00f8 059B     		ldr	r3, [sp, #20]
 2376 00fa 0122     		movs	r2, #1
 2377 00fc 5146     		mov	r1, r10
 2378 00fe 5748     		ldr	r0, .L185+8
 2379 0100 FFF7FEFF 		bl	lv_draw_buf_create_ex
 2380              	.LVL298:
 448:Drivers/lvgl/src/libs/bin_decoder/lv_bin_decoder.c ****             decoder_data->decoded_partial = decoded; /*Free on decoder close*/
 2381              		.loc 1 448 13 is_stmt 1 view .LVU815
 448:Drivers/lvgl/src/libs/bin_decoder/lv_bin_decoder.c ****             decoder_data->decoded_partial = decoded; /*Free on decoder close*/
 2382              		.loc 1 448 15 is_stmt 0 view .LVU816
 2383 0104 8046     		mov	r8, r0
 2384 0106 0028     		cmp	r0, #0
 2385 0108 00F09C80 		beq	.L173
 449:Drivers/lvgl/src/libs/bin_decoder/lv_bin_decoder.c ****         }
 2386              		.loc 1 449 13 is_stmt 1 view .LVU817
 449:Drivers/lvgl/src/libs/bin_decoder/lv_bin_decoder.c ****         }
 2387              		.loc 1 449 43 is_stmt 0 view .LVU818
 2388 010c C9F84000 		str	r0, [r9, #64]
 2389 0110 E2E7     		b	.L156
 2390              	.LVL299:
 2391              	.L162:
 449:Drivers/lvgl/src/libs/bin_decoder/lv_bin_decoder.c ****         }
 2392              		.loc 1 449 43 view .LVU819
ARM GAS  /var/folders/qx/2_175_4n2s19vhvtspjhb3qh0000gn/T//ccPNYKNl.s 			page 81


 2393              	.LBE54:
 2394              	.LBB55:
 467:Drivers/lvgl/src/libs/bin_decoder/lv_bin_decoder.c ****         uint32_t len = (w_px * bpp + 7) / 8 + 1; /*10px for 1bpp may across 3bytes*/
 2395              		.loc 1 467 9 is_stmt 1 view .LVU820
 467:Drivers/lvgl/src/libs/bin_decoder/lv_bin_decoder.c ****         uint32_t len = (w_px * bpp + 7) / 8 + 1; /*10px for 1bpp may across 3bytes*/
 2396              		.loc 1 467 42 is_stmt 0 view .LVU821
 2397 0112 2168     		ldr	r1, [r4]
 467:Drivers/lvgl/src/libs/bin_decoder/lv_bin_decoder.c ****         uint32_t len = (w_px * bpp + 7) / 8 + 1; /*10px for 1bpp may across 3bytes*/
 2398              		.loc 1 467 52 view .LVU822
 2399 0114 0823     		movs	r3, #8
 2400 0116 049C     		ldr	r4, [sp, #16]
 2401              	.LVL300:
 467:Drivers/lvgl/src/libs/bin_decoder/lv_bin_decoder.c ****         uint32_t len = (w_px * bpp + 7) / 8 + 1; /*10px for 1bpp may across 3bytes*/
 2402              		.loc 1 467 52 view .LVU823
 2403 0118 B3FBF4F3 		udiv	r3, r3, r4
 467:Drivers/lvgl/src/libs/bin_decoder/lv_bin_decoder.c ****         uint32_t len = (w_px * bpp + 7) / 8 + 1; /*10px for 1bpp may across 3bytes*/
 2404              		.loc 1 467 47 view .LVU824
 2405 011c B1FBF3F0 		udiv	r0, r1, r3
 2406 0120 03FB1013 		mls	r3, r3, r0, r1
 2407 0124 0493     		str	r3, [sp, #16]
 2408              	.LVL301:
 468:Drivers/lvgl/src/libs/bin_decoder/lv_bin_decoder.c ****         uint8_t * buf = NULL;
 2409              		.loc 1 468 9 is_stmt 1 view .LVU825
 468:Drivers/lvgl/src/libs/bin_decoder/lv_bin_decoder.c ****         uint8_t * buf = NULL;
 2410              		.loc 1 468 30 is_stmt 0 view .LVU826
 2411 0126 04FB0AF3 		mul	r3, r4, r10
 2412              	.LVL302:
 468:Drivers/lvgl/src/libs/bin_decoder/lv_bin_decoder.c ****         uint8_t * buf = NULL;
 2413              		.loc 1 468 36 view .LVU827
 2414 012a 0733     		adds	r3, r3, #7
 468:Drivers/lvgl/src/libs/bin_decoder/lv_bin_decoder.c ****         uint8_t * buf = NULL;
 2415              		.loc 1 468 41 view .LVU828
 2416 012c DB08     		lsrs	r3, r3, #3
 468:Drivers/lvgl/src/libs/bin_decoder/lv_bin_decoder.c ****         uint8_t * buf = NULL;
 2417              		.loc 1 468 18 view .LVU829
 2418 012e 0133     		adds	r3, r3, #1
 2419 0130 0593     		str	r3, [sp, #20]
 2420              	.LVL303:
 469:Drivers/lvgl/src/libs/bin_decoder/lv_bin_decoder.c **** 
 2421              		.loc 1 469 9 is_stmt 1 view .LVU830
 471:Drivers/lvgl/src/libs/bin_decoder/lv_bin_decoder.c ****         offset += decoded_area->y1 * dsc->header.stride;
 2422              		.loc 1 471 9 view .LVU831
 471:Drivers/lvgl/src/libs/bin_decoder/lv_bin_decoder.c ****         offset += decoded_area->y1 * dsc->header.stride;
 2423              		.loc 1 471 22 is_stmt 0 view .LVU832
 2424 0132 6B6B     		ldr	r3, [r5, #52]
 2425              	.LVL304:
 471:Drivers/lvgl/src/libs/bin_decoder/lv_bin_decoder.c ****         offset += decoded_area->y1 * dsc->header.stride;
 2426              		.loc 1 471 16 view .LVU833
 2427 0134 0398     		ldr	r0, [sp, #12]
 2428 0136 00EB8303 		add	r3, r0, r3, lsl #2
 2429              	.LVL305:
 472:Drivers/lvgl/src/libs/bin_decoder/lv_bin_decoder.c ****         offset += decoded_area->x1 * bpp / 8; /*Move to x1*/
 2430              		.loc 1 472 9 is_stmt 1 view .LVU834
 472:Drivers/lvgl/src/libs/bin_decoder/lv_bin_decoder.c ****         offset += decoded_area->x1 * bpp / 8; /*Move to x1*/
 2431              		.loc 1 472 49 is_stmt 0 view .LVU835
 2432 013a 288D     		ldrh	r0, [r5, #40]
 472:Drivers/lvgl/src/libs/bin_decoder/lv_bin_decoder.c ****         offset += decoded_area->x1 * bpp / 8; /*Move to x1*/
ARM GAS  /var/folders/qx/2_175_4n2s19vhvtspjhb3qh0000gn/T//ccPNYKNl.s 			page 82


 2433              		.loc 1 472 16 view .LVU836
 2434 013c 00FB0233 		mla	r3, r0, r2, r3
 2435              	.LVL306:
 473:Drivers/lvgl/src/libs/bin_decoder/lv_bin_decoder.c ****         if(dsc->src_type == LV_IMAGE_SRC_FILE) {
 2436              		.loc 1 473 9 is_stmt 1 view .LVU837
 473:Drivers/lvgl/src/libs/bin_decoder/lv_bin_decoder.c ****         if(dsc->src_type == LV_IMAGE_SRC_FILE) {
 2437              		.loc 1 473 36 is_stmt 0 view .LVU838
 2438 0140 04FB01F1 		mul	r1, r4, r1
 473:Drivers/lvgl/src/libs/bin_decoder/lv_bin_decoder.c ****         if(dsc->src_type == LV_IMAGE_SRC_FILE) {
 2439              		.loc 1 473 16 view .LVU839
 2440 0144 03EBD104 		add	r4, r3, r1, lsr #3
 2441              	.LVL307:
 474:Drivers/lvgl/src/libs/bin_decoder/lv_bin_decoder.c ****             buf = lv_malloc(len);
 2442              		.loc 1 474 9 is_stmt 1 view .LVU840
 474:Drivers/lvgl/src/libs/bin_decoder/lv_bin_decoder.c ****             buf = lv_malloc(len);
 2443              		.loc 1 474 15 is_stmt 0 view .LVU841
 2444 0148 2B7C     		ldrb	r3, [r5, #16]	@ zero_extendqisi2
 474:Drivers/lvgl/src/libs/bin_decoder/lv_bin_decoder.c ****             buf = lv_malloc(len);
 2445              		.loc 1 474 11 view .LVU842
 2446 014a 012B     		cmp	r3, #1
 2447 014c 12D0     		beq	.L182
 2448              	.LBB56:
 487:Drivers/lvgl/src/libs/bin_decoder/lv_bin_decoder.c ****             buf = (void *)(image->data + offset);
 2449              		.loc 1 487 13 is_stmt 1 view .LVU843
 487:Drivers/lvgl/src/libs/bin_decoder/lv_bin_decoder.c ****             buf = (void *)(image->data + offset);
 2450              		.loc 1 487 36 is_stmt 0 view .LVU844
 2451 014e EB68     		ldr	r3, [r5, #12]
 2452              	.LVL308:
 488:Drivers/lvgl/src/libs/bin_decoder/lv_bin_decoder.c ****         }
 2453              		.loc 1 488 13 is_stmt 1 view .LVU845
 488:Drivers/lvgl/src/libs/bin_decoder/lv_bin_decoder.c ****         }
 2454              		.loc 1 488 33 is_stmt 0 view .LVU846
 2455 0150 1F69     		ldr	r7, [r3, #16]
 2456              	.LVL309:
 488:Drivers/lvgl/src/libs/bin_decoder/lv_bin_decoder.c ****         }
 2457              		.loc 1 488 17 view .LVU847
 2458 0152 2744     		add	r7, r7, r4
 2459              	.LVL310:
 2460              	.L166:
 488:Drivers/lvgl/src/libs/bin_decoder/lv_bin_decoder.c ****         }
 2461              		.loc 1 488 17 view .LVU848
 2462              	.LBE56:
 491:Drivers/lvgl/src/libs/bin_decoder/lv_bin_decoder.c **** 
 2463              		.loc 1 491 9 is_stmt 1 view .LVU849
 2464 0154 CDF80490 		str	r9, [sp, #4]
 2465 0158 0097     		str	r7, [sp]
 2466 015a 5346     		mov	r3, r10
 2467 015c 049A     		ldr	r2, [sp, #16]
 2468 015e 296B     		ldr	r1, [r5, #48]
 2469 0160 3046     		mov	r0, r6
 2470 0162 FFF7FEFF 		bl	decode_indexed_line
 2471              	.LVL311:
 493:Drivers/lvgl/src/libs/bin_decoder/lv_bin_decoder.c **** 
 2472              		.loc 1 493 9 view .LVU850
 493:Drivers/lvgl/src/libs/bin_decoder/lv_bin_decoder.c **** 
 2473              		.loc 1 493 15 is_stmt 0 view .LVU851
 2474 0166 2B7C     		ldrb	r3, [r5, #16]	@ zero_extendqisi2
ARM GAS  /var/folders/qx/2_175_4n2s19vhvtspjhb3qh0000gn/T//ccPNYKNl.s 			page 83


 493:Drivers/lvgl/src/libs/bin_decoder/lv_bin_decoder.c **** 
 2475              		.loc 1 493 11 view .LVU852
 2476 0168 012B     		cmp	r3, #1
 2477 016a 18D0     		beq	.L183
 2478              	.L167:
 495:Drivers/lvgl/src/libs/bin_decoder/lv_bin_decoder.c ****         return LV_RESULT_OK;
 2479              		.loc 1 495 9 is_stmt 1 view .LVU853
 495:Drivers/lvgl/src/libs/bin_decoder/lv_bin_decoder.c ****         return LV_RESULT_OK;
 2480              		.loc 1 495 22 is_stmt 0 view .LVU854
 2481 016c C5F82C80 		str	r8, [r5, #44]
 496:Drivers/lvgl/src/libs/bin_decoder/lv_bin_decoder.c ****     }
 2482              		.loc 1 496 9 is_stmt 1 view .LVU855
 496:Drivers/lvgl/src/libs/bin_decoder/lv_bin_decoder.c ****     }
 2483              		.loc 1 496 16 is_stmt 0 view .LVU856
 2484 0170 0127     		movs	r7, #1
 2485              	.LVL312:
 496:Drivers/lvgl/src/libs/bin_decoder/lv_bin_decoder.c ****     }
 2486              		.loc 1 496 16 view .LVU857
 2487 0172 63E0     		b	.L152
 2488              	.LVL313:
 2489              	.L182:
 475:Drivers/lvgl/src/libs/bin_decoder/lv_bin_decoder.c ****             LV_ASSERT_NULL(buf);
 2490              		.loc 1 475 13 is_stmt 1 view .LVU858
 475:Drivers/lvgl/src/libs/bin_decoder/lv_bin_decoder.c ****             LV_ASSERT_NULL(buf);
 2491              		.loc 1 475 19 is_stmt 0 view .LVU859
 2492 0174 0598     		ldr	r0, [sp, #20]
 2493 0176 FFF7FEFF 		bl	lv_malloc
 2494              	.LVL314:
 476:Drivers/lvgl/src/libs/bin_decoder/lv_bin_decoder.c ****             if(buf == NULL)
 2495              		.loc 1 476 13 is_stmt 1 view .LVU860
 476:Drivers/lvgl/src/libs/bin_decoder/lv_bin_decoder.c ****             if(buf == NULL)
 2496              		.loc 1 476 13 view .LVU861
 2497 017a 0746     		mov	r7, r0
 2498              	.LVL315:
 476:Drivers/lvgl/src/libs/bin_decoder/lv_bin_decoder.c ****             if(buf == NULL)
 2499              		.loc 1 476 13 is_stmt 0 view .LVU862
 2500 017c 70B1     		cbz	r0, .L165
 476:Drivers/lvgl/src/libs/bin_decoder/lv_bin_decoder.c ****             if(buf == NULL)
 2501              		.loc 1 476 13 is_stmt 1 view .LVU863
 476:Drivers/lvgl/src/libs/bin_decoder/lv_bin_decoder.c ****             if(buf == NULL)
 2502              		.loc 1 476 32 view .LVU864
 477:Drivers/lvgl/src/libs/bin_decoder/lv_bin_decoder.c ****                 return LV_RESULT_INVALID;
 2503              		.loc 1 477 13 view .LVU865
 480:Drivers/lvgl/src/libs/bin_decoder/lv_bin_decoder.c ****             if(res != LV_FS_RES_OK) {
 2504              		.loc 1 480 13 view .LVU866
 480:Drivers/lvgl/src/libs/bin_decoder/lv_bin_decoder.c ****             if(res != LV_FS_RES_OK) {
 2505              		.loc 1 480 19 is_stmt 0 view .LVU867
 2506 017e 0023     		movs	r3, #0
 2507 0180 0093     		str	r3, [sp]
 2508 0182 059B     		ldr	r3, [sp, #20]
 2509 0184 0246     		mov	r2, r0
 2510 0186 2146     		mov	r1, r4
 2511 0188 5846     		mov	r0, fp
 2512              	.LVL316:
 480:Drivers/lvgl/src/libs/bin_decoder/lv_bin_decoder.c ****             if(res != LV_FS_RES_OK) {
 2513              		.loc 1 480 19 view .LVU868
 2514 018a FFF7FEFF 		bl	fs_read_file_at
ARM GAS  /var/folders/qx/2_175_4n2s19vhvtspjhb3qh0000gn/T//ccPNYKNl.s 			page 84


 2515              	.LVL317:
 481:Drivers/lvgl/src/libs/bin_decoder/lv_bin_decoder.c ****                 lv_free(buf);
 2516              		.loc 1 481 13 is_stmt 1 view .LVU869
 481:Drivers/lvgl/src/libs/bin_decoder/lv_bin_decoder.c ****                 lv_free(buf);
 2517              		.loc 1 481 15 is_stmt 0 view .LVU870
 2518 018e 0028     		cmp	r0, #0
 2519 0190 E0D0     		beq	.L166
 482:Drivers/lvgl/src/libs/bin_decoder/lv_bin_decoder.c ****                 return LV_RESULT_INVALID;
 2520              		.loc 1 482 17 is_stmt 1 view .LVU871
 2521 0192 3846     		mov	r0, r7
 2522              	.LVL318:
 482:Drivers/lvgl/src/libs/bin_decoder/lv_bin_decoder.c ****                 return LV_RESULT_INVALID;
 2523              		.loc 1 482 17 is_stmt 0 view .LVU872
 2524 0194 FFF7FEFF 		bl	lv_free
 2525              	.LVL319:
 483:Drivers/lvgl/src/libs/bin_decoder/lv_bin_decoder.c ****             }
 2526              		.loc 1 483 17 is_stmt 1 view .LVU873
 483:Drivers/lvgl/src/libs/bin_decoder/lv_bin_decoder.c ****             }
 2527              		.loc 1 483 24 is_stmt 0 view .LVU874
 2528 0198 0027     		movs	r7, #0
 2529              	.LVL320:
 483:Drivers/lvgl/src/libs/bin_decoder/lv_bin_decoder.c ****             }
 2530              		.loc 1 483 24 view .LVU875
 2531 019a 4FE0     		b	.L152
 2532              	.LVL321:
 2533              	.L165:
 476:Drivers/lvgl/src/libs/bin_decoder/lv_bin_decoder.c ****             if(buf == NULL)
 2534              		.loc 1 476 13 is_stmt 1 view .LVU876
 476:Drivers/lvgl/src/libs/bin_decoder/lv_bin_decoder.c ****             if(buf == NULL)
 2535              		.loc 1 476 13 view .LVU877
 476:Drivers/lvgl/src/libs/bin_decoder/lv_bin_decoder.c ****             if(buf == NULL)
 2536              		.loc 1 476 13 view .LVU878
 476:Drivers/lvgl/src/libs/bin_decoder/lv_bin_decoder.c ****             if(buf == NULL)
 2537              		.loc 1 476 13 view .LVU879
 476:Drivers/lvgl/src/libs/bin_decoder/lv_bin_decoder.c ****             if(buf == NULL)
 2538              		.loc 1 476 13 view .LVU880
 2539 019c FEE7     		b	.L165
 2540              	.LVL322:
 2541              	.L183:
 493:Drivers/lvgl/src/libs/bin_decoder/lv_bin_decoder.c **** 
 2542              		.loc 1 493 48 discriminator 1 view .LVU881
 2543 019e 3846     		mov	r0, r7
 2544 01a0 FFF7FEFF 		bl	lv_free
 2545              	.LVL323:
 2546 01a4 E2E7     		b	.L167
 2547              	.LVL324:
 2548              	.L159:
 493:Drivers/lvgl/src/libs/bin_decoder/lv_bin_decoder.c **** 
 2549              		.loc 1 493 48 is_stmt 0 discriminator 1 view .LVU882
 2550              	.LBE55:
 2551              	.LBB57:
 501:Drivers/lvgl/src/libs/bin_decoder/lv_bin_decoder.c ****         offset += decoded_area->y1 * dsc->header.stride;
 2552              		.loc 1 501 9 is_stmt 1 view .LVU883
 501:Drivers/lvgl/src/libs/bin_decoder/lv_bin_decoder.c ****         offset += decoded_area->y1 * dsc->header.stride;
 2553              		.loc 1 501 30 is_stmt 0 view .LVU884
 2554 01a6 049E     		ldr	r6, [sp, #16]
 2555              	.LVL325:
ARM GAS  /var/folders/qx/2_175_4n2s19vhvtspjhb3qh0000gn/T//ccPNYKNl.s 			page 85


 501:Drivers/lvgl/src/libs/bin_decoder/lv_bin_decoder.c ****         offset += decoded_area->y1 * dsc->header.stride;
 2556              		.loc 1 501 30 view .LVU885
 2557 01a8 06FB0AF3 		mul	r3, r6, r10
 2558              	.LVL326:
 502:Drivers/lvgl/src/libs/bin_decoder/lv_bin_decoder.c ****         offset += decoded_area->x1 * bpp / 8; /*Move to x1*/
 2559              		.loc 1 502 9 is_stmt 1 view .LVU886
 502:Drivers/lvgl/src/libs/bin_decoder/lv_bin_decoder.c ****         offset += decoded_area->x1 * bpp / 8; /*Move to x1*/
 2560              		.loc 1 502 49 is_stmt 0 view .LVU887
 2561 01ac 288D     		ldrh	r0, [r5, #40]
 502:Drivers/lvgl/src/libs/bin_decoder/lv_bin_decoder.c ****         offset += decoded_area->x1 * bpp / 8; /*Move to x1*/
 2562              		.loc 1 502 16 view .LVU888
 2563 01ae 0399     		ldr	r1, [sp, #12]
 2564 01b0 00FB0210 		mla	r0, r0, r2, r1
 2565              	.LVL327:
 503:Drivers/lvgl/src/libs/bin_decoder/lv_bin_decoder.c ****         res = fs_read_file_at(f, offset, img_data, len, NULL);
 2566              		.loc 1 503 9 is_stmt 1 view .LVU889
 503:Drivers/lvgl/src/libs/bin_decoder/lv_bin_decoder.c ****         res = fs_read_file_at(f, offset, img_data, len, NULL);
 2567              		.loc 1 503 31 is_stmt 0 view .LVU890
 2568 01b4 2168     		ldr	r1, [r4]
 503:Drivers/lvgl/src/libs/bin_decoder/lv_bin_decoder.c ****         res = fs_read_file_at(f, offset, img_data, len, NULL);
 2569              		.loc 1 503 36 view .LVU891
 2570 01b6 06FB01F1 		mul	r1, r6, r1
 2571              	.LVL328:
 504:Drivers/lvgl/src/libs/bin_decoder/lv_bin_decoder.c ****         if(res != LV_FS_RES_OK) {
 2572              		.loc 1 504 9 is_stmt 1 view .LVU892
 504:Drivers/lvgl/src/libs/bin_decoder/lv_bin_decoder.c ****         if(res != LV_FS_RES_OK) {
 2573              		.loc 1 504 15 is_stmt 0 view .LVU893
 2574 01ba 0022     		movs	r2, #0
 2575 01bc 0092     		str	r2, [sp]
 2576 01be DB08     		lsrs	r3, r3, #3
 2577              	.LVL329:
 504:Drivers/lvgl/src/libs/bin_decoder/lv_bin_decoder.c ****         if(res != LV_FS_RES_OK) {
 2578              		.loc 1 504 15 view .LVU894
 2579 01c0 4A46     		mov	r2, r9
 2580 01c2 00EBD101 		add	r1, r0, r1, lsr #3
 2581              	.LVL330:
 504:Drivers/lvgl/src/libs/bin_decoder/lv_bin_decoder.c ****         if(res != LV_FS_RES_OK) {
 2582              		.loc 1 504 15 view .LVU895
 2583 01c6 5846     		mov	r0, fp
 2584 01c8 FFF7FEFF 		bl	fs_read_file_at
 2585              	.LVL331:
 505:Drivers/lvgl/src/libs/bin_decoder/lv_bin_decoder.c ****             return LV_RESULT_INVALID;
 2586              		.loc 1 505 9 is_stmt 1 view .LVU896
 505:Drivers/lvgl/src/libs/bin_decoder/lv_bin_decoder.c ****             return LV_RESULT_INVALID;
 2587              		.loc 1 505 11 is_stmt 0 view .LVU897
 2588 01cc 0028     		cmp	r0, #0
 2589 01ce 3FD1     		bne	.L176
 509:Drivers/lvgl/src/libs/bin_decoder/lv_bin_decoder.c ****         return LV_RESULT_OK;
 2590              		.loc 1 509 9 is_stmt 1 view .LVU898
 509:Drivers/lvgl/src/libs/bin_decoder/lv_bin_decoder.c ****         return LV_RESULT_OK;
 2591              		.loc 1 509 22 is_stmt 0 view .LVU899
 2592 01d0 C5F82C80 		str	r8, [r5, #44]
 510:Drivers/lvgl/src/libs/bin_decoder/lv_bin_decoder.c ****     }
 2593              		.loc 1 510 9 is_stmt 1 view .LVU900
 510:Drivers/lvgl/src/libs/bin_decoder/lv_bin_decoder.c ****     }
 2594              		.loc 1 510 16 is_stmt 0 view .LVU901
 2595 01d4 0127     		movs	r7, #1
ARM GAS  /var/folders/qx/2_175_4n2s19vhvtspjhb3qh0000gn/T//ccPNYKNl.s 			page 86


 2596              	.LVL332:
 510:Drivers/lvgl/src/libs/bin_decoder/lv_bin_decoder.c ****     }
 2597              		.loc 1 510 16 view .LVU902
 2598 01d6 31E0     		b	.L152
 2599              	.LVL333:
 2600              	.L161:
 510:Drivers/lvgl/src/libs/bin_decoder/lv_bin_decoder.c ****     }
 2601              		.loc 1 510 16 view .LVU903
 2602              	.LBE57:
 2603              	.LBB58:
 514:Drivers/lvgl/src/libs/bin_decoder/lv_bin_decoder.c ****         uint32_t len = decoded->header.stride;
 2604              		.loc 1 514 9 is_stmt 1 view .LVU904
 515:Drivers/lvgl/src/libs/bin_decoder/lv_bin_decoder.c ****         offset += decoded_area->y1 * dsc->header.stride; /*Move to y1*/
 2605              		.loc 1 515 9 view .LVU905
 515:Drivers/lvgl/src/libs/bin_decoder/lv_bin_decoder.c ****         offset += decoded_area->y1 * dsc->header.stride; /*Move to y1*/
 2606              		.loc 1 515 39 is_stmt 0 view .LVU906
 2607 01d8 B8F80860 		ldrh	r6, [r8, #8]
 2608              	.LVL334:
 516:Drivers/lvgl/src/libs/bin_decoder/lv_bin_decoder.c ****         offset += decoded_area->x1 * bpp / 8; /*Move to x1*/
 2609              		.loc 1 516 9 is_stmt 1 view .LVU907
 516:Drivers/lvgl/src/libs/bin_decoder/lv_bin_decoder.c ****         offset += decoded_area->x1 * bpp / 8; /*Move to x1*/
 2610              		.loc 1 516 49 is_stmt 0 view .LVU908
 2611 01dc 2B8D     		ldrh	r3, [r5, #40]
 2612              	.LVL335:
 516:Drivers/lvgl/src/libs/bin_decoder/lv_bin_decoder.c ****         offset += decoded_area->x1 * bpp / 8; /*Move to x1*/
 2613              		.loc 1 516 16 view .LVU909
 2614 01de 0399     		ldr	r1, [sp, #12]
 2615 01e0 03FB0211 		mla	r1, r3, r2, r1
 2616              	.LVL336:
 517:Drivers/lvgl/src/libs/bin_decoder/lv_bin_decoder.c ****         res = fs_read_file_at(f, offset, img_data, len, NULL);
 2617              		.loc 1 517 9 is_stmt 1 view .LVU910
 517:Drivers/lvgl/src/libs/bin_decoder/lv_bin_decoder.c ****         res = fs_read_file_at(f, offset, img_data, len, NULL);
 2618              		.loc 1 517 31 is_stmt 0 view .LVU911
 2619 01e4 2368     		ldr	r3, [r4]
 517:Drivers/lvgl/src/libs/bin_decoder/lv_bin_decoder.c ****         res = fs_read_file_at(f, offset, img_data, len, NULL);
 2620              		.loc 1 517 36 view .LVU912
 2621 01e6 1801     		lsls	r0, r3, #4
 2622              	.LVL337:
 518:Drivers/lvgl/src/libs/bin_decoder/lv_bin_decoder.c ****         if(res != LV_FS_RES_OK) {
 2623              		.loc 1 518 9 is_stmt 1 view .LVU913
 518:Drivers/lvgl/src/libs/bin_decoder/lv_bin_decoder.c ****         if(res != LV_FS_RES_OK) {
 2624              		.loc 1 518 15 is_stmt 0 view .LVU914
 2625 01e8 0023     		movs	r3, #0
 2626 01ea 0093     		str	r3, [sp]
 2627 01ec 3346     		mov	r3, r6
 2628 01ee 4A46     		mov	r2, r9
 2629 01f0 01EBD001 		add	r1, r1, r0, lsr #3
 2630              	.LVL338:
 518:Drivers/lvgl/src/libs/bin_decoder/lv_bin_decoder.c ****         if(res != LV_FS_RES_OK) {
 2631              		.loc 1 518 15 view .LVU915
 2632 01f4 5846     		mov	r0, fp
 2633 01f6 FFF7FEFF 		bl	fs_read_file_at
 2634              	.LVL339:
 519:Drivers/lvgl/src/libs/bin_decoder/lv_bin_decoder.c ****             return LV_RESULT_INVALID;
 2635              		.loc 1 519 9 is_stmt 1 view .LVU916
 519:Drivers/lvgl/src/libs/bin_decoder/lv_bin_decoder.c ****             return LV_RESULT_INVALID;
 2636              		.loc 1 519 11 is_stmt 0 view .LVU917
ARM GAS  /var/folders/qx/2_175_4n2s19vhvtspjhb3qh0000gn/T//ccPNYKNl.s 			page 87


 2637 01fa 0746     		mov	r7, r0
 2638              	.LVL340:
 519:Drivers/lvgl/src/libs/bin_decoder/lv_bin_decoder.c ****             return LV_RESULT_INVALID;
 2639              		.loc 1 519 11 view .LVU918
 2640 01fc 08B1     		cbz	r0, .L184
 520:Drivers/lvgl/src/libs/bin_decoder/lv_bin_decoder.c ****         }
 2641              		.loc 1 520 20 view .LVU919
 2642 01fe 0027     		movs	r7, #0
 2643 0200 1CE0     		b	.L152
 2644              	.L184:
 524:Drivers/lvgl/src/libs/bin_decoder/lv_bin_decoder.c ****         offset += dsc->header.h * dsc->header.stride; /*Move to A8 map*/
 2645              		.loc 1 524 9 is_stmt 1 view .LVU920
 2646              	.LVL341:
 525:Drivers/lvgl/src/libs/bin_decoder/lv_bin_decoder.c ****         offset += decoded_area->y1 * (dsc->header.stride / 2); /*Move to y1*/
 2647              		.loc 1 525 9 view .LVU921
 525:Drivers/lvgl/src/libs/bin_decoder/lv_bin_decoder.c ****         offset += decoded_area->y1 * (dsc->header.stride / 2); /*Move to y1*/
 2648              		.loc 1 525 30 is_stmt 0 view .LVU922
 2649 0202 E98C     		ldrh	r1, [r5, #38]
 525:Drivers/lvgl/src/libs/bin_decoder/lv_bin_decoder.c ****         offset += decoded_area->y1 * (dsc->header.stride / 2); /*Move to y1*/
 2650              		.loc 1 525 46 view .LVU923
 2651 0204 2B8D     		ldrh	r3, [r5, #40]
 525:Drivers/lvgl/src/libs/bin_decoder/lv_bin_decoder.c ****         offset += decoded_area->y1 * (dsc->header.stride / 2); /*Move to y1*/
 2652              		.loc 1 525 33 view .LVU924
 2653 0206 03FB01F1 		mul	r1, r3, r1
 525:Drivers/lvgl/src/libs/bin_decoder/lv_bin_decoder.c ****         offset += decoded_area->y1 * (dsc->header.stride / 2); /*Move to y1*/
 2654              		.loc 1 525 16 view .LVU925
 2655 020a 0C31     		adds	r1, r1, #12
 2656              	.LVL342:
 526:Drivers/lvgl/src/libs/bin_decoder/lv_bin_decoder.c ****         offset += decoded_area->x1 * 1; /*Move to x1*/
 2657              		.loc 1 526 9 is_stmt 1 view .LVU926
 526:Drivers/lvgl/src/libs/bin_decoder/lv_bin_decoder.c ****         offset += decoded_area->x1 * 1; /*Move to x1*/
 2658              		.loc 1 526 31 is_stmt 0 view .LVU927
 2659 020c 6268     		ldr	r2, [r4, #4]
 526:Drivers/lvgl/src/libs/bin_decoder/lv_bin_decoder.c ****         offset += decoded_area->x1 * 1; /*Move to x1*/
 2660              		.loc 1 526 58 view .LVU928
 2661 020e 5B08     		lsrs	r3, r3, #1
 526:Drivers/lvgl/src/libs/bin_decoder/lv_bin_decoder.c ****         offset += decoded_area->x1 * 1; /*Move to x1*/
 2662              		.loc 1 526 16 view .LVU929
 2663 0210 03FB0211 		mla	r1, r3, r2, r1
 2664              	.LVL343:
 527:Drivers/lvgl/src/libs/bin_decoder/lv_bin_decoder.c ****         res = fs_read_file_at(f, offset, img_data + len, w_px * 1, NULL);
 2665              		.loc 1 527 9 is_stmt 1 view .LVU930
 527:Drivers/lvgl/src/libs/bin_decoder/lv_bin_decoder.c ****         res = fs_read_file_at(f, offset, img_data + len, w_px * 1, NULL);
 2666              		.loc 1 527 31 is_stmt 0 view .LVU931
 2667 0214 2068     		ldr	r0, [r4]
 2668              	.LVL344:
 528:Drivers/lvgl/src/libs/bin_decoder/lv_bin_decoder.c ****         if(res != LV_FS_RES_OK) {
 2669              		.loc 1 528 9 is_stmt 1 view .LVU932
 528:Drivers/lvgl/src/libs/bin_decoder/lv_bin_decoder.c ****         if(res != LV_FS_RES_OK) {
 2670              		.loc 1 528 15 is_stmt 0 view .LVU933
 2671 0216 0023     		movs	r3, #0
 2672 0218 0093     		str	r3, [sp]
 2673 021a 5346     		mov	r3, r10
 2674 021c 09EB0602 		add	r2, r9, r6
 2675 0220 0144     		add	r1, r1, r0
 2676              	.LVL345:
 528:Drivers/lvgl/src/libs/bin_decoder/lv_bin_decoder.c ****         if(res != LV_FS_RES_OK) {
ARM GAS  /var/folders/qx/2_175_4n2s19vhvtspjhb3qh0000gn/T//ccPNYKNl.s 			page 88


 2677              		.loc 1 528 15 view .LVU934
 2678 0222 5846     		mov	r0, fp
 2679 0224 FFF7FEFF 		bl	fs_read_file_at
 2680              	.LVL346:
 529:Drivers/lvgl/src/libs/bin_decoder/lv_bin_decoder.c ****             return LV_RESULT_INVALID;
 2681              		.loc 1 529 9 is_stmt 1 view .LVU935
 529:Drivers/lvgl/src/libs/bin_decoder/lv_bin_decoder.c ****             return LV_RESULT_INVALID;
 2682              		.loc 1 529 11 is_stmt 0 view .LVU936
 2683 0228 40B9     		cbnz	r0, .L152
 533:Drivers/lvgl/src/libs/bin_decoder/lv_bin_decoder.c ****         return LV_RESULT_OK;
 2684              		.loc 1 533 9 is_stmt 1 view .LVU937
 533:Drivers/lvgl/src/libs/bin_decoder/lv_bin_decoder.c ****         return LV_RESULT_OK;
 2685              		.loc 1 533 22 is_stmt 0 view .LVU938
 2686 022a C5F82C80 		str	r8, [r5, #44]
 534:Drivers/lvgl/src/libs/bin_decoder/lv_bin_decoder.c ****     }
 2687              		.loc 1 534 9 is_stmt 1 view .LVU939
 534:Drivers/lvgl/src/libs/bin_decoder/lv_bin_decoder.c ****     }
 2688              		.loc 1 534 16 is_stmt 0 view .LVU940
 2689 022e 0127     		movs	r7, #1
 2690 0230 04E0     		b	.L152
 2691              	.LVL347:
 2692              	.L168:
 534:Drivers/lvgl/src/libs/bin_decoder/lv_bin_decoder.c ****     }
 2693              		.loc 1 534 16 view .LVU941
 2694              	.LBE58:
 409:Drivers/lvgl/src/libs/bin_decoder/lv_bin_decoder.c ****                      || cf == LV_COLOR_FORMAT_ARGB8888  \
 2695              		.loc 1 409 22 view .LVU942
 2696 0232 0027     		movs	r7, #0
 2697 0234 02E0     		b	.L152
 2698              	.LVL348:
 2699              	.L169:
 409:Drivers/lvgl/src/libs/bin_decoder/lv_bin_decoder.c ****                      || cf == LV_COLOR_FORMAT_ARGB8888  \
 2700              		.loc 1 409 22 view .LVU943
 2701 0236 0027     		movs	r7, #0
 2702 0238 00E0     		b	.L152
 2703              	.LVL349:
 2704              	.L170:
 426:Drivers/lvgl/src/libs/bin_decoder/lv_bin_decoder.c ****     }
 2705              		.loc 1 426 16 view .LVU944
 2706 023a 0027     		movs	r7, #0
 2707              	.LVL350:
 2708              	.L152:
 538:Drivers/lvgl/src/libs/bin_decoder/lv_bin_decoder.c **** 
 2709              		.loc 1 538 1 view .LVU945
 2710 023c 3846     		mov	r0, r7
 2711 023e 07B0     		add	sp, sp, #28
 2712              	.LCFI23:
 2713              		.cfi_remember_state
 2714              		.cfi_def_cfa_offset 36
 2715              		@ sp needed
 2716 0240 BDE8F08F 		pop	{r4, r5, r6, r7, r8, r9, r10, fp, pc}
 2717              	.LVL351:
 2718              	.L173:
 2719              	.LCFI24:
 2720              		.cfi_restore_state
 2721              	.LBB59:
 448:Drivers/lvgl/src/libs/bin_decoder/lv_bin_decoder.c ****             decoder_data->decoded_partial = decoded; /*Free on decoder close*/
ARM GAS  /var/folders/qx/2_175_4n2s19vhvtspjhb3qh0000gn/T//ccPNYKNl.s 			page 89


 2722              		.loc 1 448 40 discriminator 1 view .LVU946
 2723 0244 0027     		movs	r7, #0
 2724              	.LVL352:
 448:Drivers/lvgl/src/libs/bin_decoder/lv_bin_decoder.c ****             decoder_data->decoded_partial = decoded; /*Free on decoder close*/
 2725              		.loc 1 448 40 discriminator 1 view .LVU947
 2726 0246 F9E7     		b	.L152
 2727              	.LVL353:
 2728              	.L174:
 448:Drivers/lvgl/src/libs/bin_decoder/lv_bin_decoder.c ****             decoder_data->decoded_partial = decoded; /*Free on decoder close*/
 2729              		.loc 1 448 40 discriminator 1 view .LVU948
 2730              	.LBE59:
 463:Drivers/lvgl/src/libs/bin_decoder/lv_bin_decoder.c ****     }
 2731              		.loc 1 463 16 view .LVU949
 2732 0248 0027     		movs	r7, #0
 2733              	.LVL354:
 463:Drivers/lvgl/src/libs/bin_decoder/lv_bin_decoder.c ****     }
 2734              		.loc 1 463 16 view .LVU950
 2735 024a F7E7     		b	.L152
 2736              	.LVL355:
 2737              	.L175:
 462:Drivers/lvgl/src/libs/bin_decoder/lv_bin_decoder.c ****         return LV_RESULT_INVALID;
 2738              		.loc 1 462 7 view .LVU951
 2739 024c 0027     		movs	r7, #0
 2740              	.LVL356:
 462:Drivers/lvgl/src/libs/bin_decoder/lv_bin_decoder.c ****         return LV_RESULT_INVALID;
 2741              		.loc 1 462 7 view .LVU952
 2742 024e F5E7     		b	.L152
 2743              	.LVL357:
 2744              	.L176:
 2745              	.LBB60:
 506:Drivers/lvgl/src/libs/bin_decoder/lv_bin_decoder.c ****         }
 2746              		.loc 1 506 20 view .LVU953
 2747 0250 0027     		movs	r7, #0
 2748              	.LVL358:
 506:Drivers/lvgl/src/libs/bin_decoder/lv_bin_decoder.c ****         }
 2749              		.loc 1 506 20 view .LVU954
 2750 0252 F3E7     		b	.L152
 2751              	.L186:
 2752              		.align	2
 2753              	.L185:
 2754 0254 80871F08 		.word	136284032
 2755 0258 010000E0 		.word	-536870911
 2756 025c 04010000 		.word	lv_global+260
 2757              	.LBE60:
 2758              		.cfi_endproc
 2759              	.LFE197:
 2761              		.section	.rodata.lv_bin_decoder_init.str1.4,"aMS",%progbits,1
 2762              		.align	2
 2763              	.LC1:
 2764 0000 42494E00 		.ascii	"BIN\000"
 2765              		.section	.text.lv_bin_decoder_init,"ax",%progbits
 2766              		.align	1
 2767              		.global	lv_bin_decoder_init
 2768              		.syntax unified
 2769              		.thumb
 2770              		.thumb_func
 2772              	lv_bin_decoder_init:
ARM GAS  /var/folders/qx/2_175_4n2s19vhvtspjhb3qh0000gn/T//ccPNYKNl.s 			page 90


 2773              	.LFB193:
  96:Drivers/lvgl/src/libs/bin_decoder/lv_bin_decoder.c ****     lv_image_decoder_t * decoder;
 2774              		.loc 1 96 1 is_stmt 1 view -0
 2775              		.cfi_startproc
 2776              		@ args = 0, pretend = 0, frame = 0
 2777              		@ frame_needed = 0, uses_anonymous_args = 0
 2778 0000 10B5     		push	{r4, lr}
 2779              	.LCFI25:
 2780              		.cfi_def_cfa_offset 8
 2781              		.cfi_offset 4, -8
 2782              		.cfi_offset 14, -4
  97:Drivers/lvgl/src/libs/bin_decoder/lv_bin_decoder.c **** 
 2783              		.loc 1 97 5 view .LVU956
  99:Drivers/lvgl/src/libs/bin_decoder/lv_bin_decoder.c ****     LV_ASSERT_MALLOC(decoder);
 2784              		.loc 1 99 5 view .LVU957
  99:Drivers/lvgl/src/libs/bin_decoder/lv_bin_decoder.c ****     LV_ASSERT_MALLOC(decoder);
 2785              		.loc 1 99 15 is_stmt 0 view .LVU958
 2786 0002 FFF7FEFF 		bl	lv_image_decoder_create
 2787              	.LVL359:
 100:Drivers/lvgl/src/libs/bin_decoder/lv_bin_decoder.c ****     if(decoder == NULL) {
 2788              		.loc 1 100 5 is_stmt 1 view .LVU959
 100:Drivers/lvgl/src/libs/bin_decoder/lv_bin_decoder.c ****     if(decoder == NULL) {
 2789              		.loc 1 100 5 view .LVU960
 2790 0006 90B1     		cbz	r0, .L189
 2791 0008 0446     		mov	r4, r0
 100:Drivers/lvgl/src/libs/bin_decoder/lv_bin_decoder.c ****     if(decoder == NULL) {
 2792              		.loc 1 100 5 view .LVU961
 100:Drivers/lvgl/src/libs/bin_decoder/lv_bin_decoder.c ****     if(decoder == NULL) {
 2793              		.loc 1 100 30 view .LVU962
 101:Drivers/lvgl/src/libs/bin_decoder/lv_bin_decoder.c ****         LV_LOG_WARN("Out of memory");
 2794              		.loc 1 101 5 view .LVU963
 106:Drivers/lvgl/src/libs/bin_decoder/lv_bin_decoder.c ****     lv_image_decoder_set_open_cb(decoder, lv_bin_decoder_open);
 2795              		.loc 1 106 5 view .LVU964
 2796 000a 0949     		ldr	r1, .L191
 2797 000c FFF7FEFF 		bl	lv_image_decoder_set_info_cb
 2798              	.LVL360:
 107:Drivers/lvgl/src/libs/bin_decoder/lv_bin_decoder.c ****     lv_image_decoder_set_get_area_cb(decoder, lv_bin_decoder_get_area);
 2799              		.loc 1 107 5 view .LVU965
 2800 0010 0849     		ldr	r1, .L191+4
 2801 0012 2046     		mov	r0, r4
 2802 0014 FFF7FEFF 		bl	lv_image_decoder_set_open_cb
 2803              	.LVL361:
 108:Drivers/lvgl/src/libs/bin_decoder/lv_bin_decoder.c ****     lv_image_decoder_set_close_cb(decoder, lv_bin_decoder_close);
 2804              		.loc 1 108 5 view .LVU966
 2805 0018 0749     		ldr	r1, .L191+8
 2806 001a 2046     		mov	r0, r4
 2807 001c FFF7FEFF 		bl	lv_image_decoder_set_get_area_cb
 2808              	.LVL362:
 109:Drivers/lvgl/src/libs/bin_decoder/lv_bin_decoder.c **** 
 2809              		.loc 1 109 5 view .LVU967
 2810 0020 0649     		ldr	r1, .L191+12
 2811 0022 2046     		mov	r0, r4
 2812 0024 FFF7FEFF 		bl	lv_image_decoder_set_close_cb
 2813              	.LVL363:
 111:Drivers/lvgl/src/libs/bin_decoder/lv_bin_decoder.c **** }
 2814              		.loc 1 111 5 view .LVU968
 111:Drivers/lvgl/src/libs/bin_decoder/lv_bin_decoder.c **** }
ARM GAS  /var/folders/qx/2_175_4n2s19vhvtspjhb3qh0000gn/T//ccPNYKNl.s 			page 91


 2815              		.loc 1 111 19 is_stmt 0 view .LVU969
 2816 0028 054B     		ldr	r3, .L191+16
 2817 002a 6361     		str	r3, [r4, #20]
 112:Drivers/lvgl/src/libs/bin_decoder/lv_bin_decoder.c **** 
 2818              		.loc 1 112 1 view .LVU970
 2819 002c 10BD     		pop	{r4, pc}
 2820              	.LVL364:
 2821              	.L189:
 100:Drivers/lvgl/src/libs/bin_decoder/lv_bin_decoder.c ****     if(decoder == NULL) {
 2822              		.loc 1 100 5 is_stmt 1 view .LVU971
 100:Drivers/lvgl/src/libs/bin_decoder/lv_bin_decoder.c ****     if(decoder == NULL) {
 2823              		.loc 1 100 5 view .LVU972
 100:Drivers/lvgl/src/libs/bin_decoder/lv_bin_decoder.c ****     if(decoder == NULL) {
 2824              		.loc 1 100 5 view .LVU973
 100:Drivers/lvgl/src/libs/bin_decoder/lv_bin_decoder.c ****     if(decoder == NULL) {
 2825              		.loc 1 100 5 view .LVU974
 100:Drivers/lvgl/src/libs/bin_decoder/lv_bin_decoder.c ****     if(decoder == NULL) {
 2826              		.loc 1 100 5 view .LVU975
 2827 002e FEE7     		b	.L189
 2828              	.L192:
 2829              		.align	2
 2830              	.L191:
 2831 0030 00000000 		.word	lv_bin_decoder_info
 2832 0034 00000000 		.word	lv_bin_decoder_open
 2833 0038 00000000 		.word	lv_bin_decoder_get_area
 2834 003c 00000000 		.word	lv_bin_decoder_close
 2835 0040 00000000 		.word	.LC1
 2836              		.cfi_endproc
 2837              	.LFE193:
 2839              		.text
 2840              	.Letext0:
 2841              		.file 3 "/Applications/ArmGNUToolchain/14.3.rel1/arm-none-eabi/arm-none-eabi/include/machine/_defa
 2842              		.file 4 "/Applications/ArmGNUToolchain/14.3.rel1/arm-none-eabi/arm-none-eabi/include/sys/_stdint.h
 2843              		.file 5 "/Applications/ArmGNUToolchain/14.3.rel1/arm-none-eabi/lib/gcc/arm-none-eabi/14.3.1/includ
 2844              		.file 6 "Drivers/lvgl/src/libs/bin_decoder/../../draw/../misc/lv_types.h"
 2845              		.file 7 "Drivers/lvgl/src/libs/bin_decoder/../../draw/lv_draw.h"
 2846              		.file 8 "Drivers/lvgl/src/libs/bin_decoder/../../core/../draw/lv_draw_private.h"
 2847              		.file 9 "Drivers/lvgl/src/libs/bin_decoder/../../core/../misc/lv_timer_private.h"
 2848              		.file 10 "Drivers/lvgl/src/libs/bin_decoder/../../draw/lv_image_decoder_private.h"
 2849              		.file 11 "Drivers/lvgl/src/libs/bin_decoder/../../draw/lv_draw_image.h"
 2850              		.file 12 "Drivers/lvgl/src/libs/bin_decoder/../../draw/../misc/cache/class/../lv_cache_private.h"
 2851              		.file 13 "Drivers/lvgl/src/libs/bin_decoder/../../core/../draw/lv_draw_buf_private.h"
 2852              		.file 14 "Drivers/lvgl/src/libs/bin_decoder/../../draw/../misc/lv_area.h"
 2853              		.file 15 "Drivers/lvgl/src/libs/bin_decoder/../../draw/../misc/lv_color.h"
 2854              		.file 16 "Drivers/lvgl/src/libs/bin_decoder/../../draw/lv_image_dsc.h"
 2855              		.file 17 "Drivers/lvgl/src/libs/bin_decoder/../../draw/../misc/lv_fs.h"
 2856              		.file 18 "Drivers/lvgl/src/libs/bin_decoder/../../draw/lv_image_decoder.h"
 2857              		.file 19 "Drivers/lvgl/src/libs/bin_decoder/../../draw/../misc/cache/class/../../../osal/lv_os_non
 2858              		.file 20 "Drivers/lvgl/src/libs/bin_decoder/../../draw/../misc/../tick/lv_tick.h"
 2859              		.file 21 "Drivers/lvgl/src/libs/bin_decoder/../../draw/../misc/lv_ll.h"
 2860              		.file 22 "Drivers/lvgl/src/libs/bin_decoder/../../draw/../misc/lv_timer.h"
 2861              		.file 23 "Drivers/lvgl/src/libs/bin_decoder/../../draw/../misc/../layouts/lv_layout.h"
 2862              		.file 24 "Drivers/lvgl/src/libs/bin_decoder/../../draw/../misc/lv_style.h"
 2863              		.file 25 "Drivers/lvgl/src/libs/bin_decoder/../../core/../stdlib/builtin/lv_tlsf.h"
 2864              		.file 26 "Drivers/lvgl/src/libs/bin_decoder/../../core/../misc/lv_anim_private.h"
 2865              		.file 27 "Drivers/lvgl/src/libs/bin_decoder/../../core/../tick/lv_tick_private.h"
 2866              		.file 28 "Drivers/lvgl/src/libs/bin_decoder/../../core/../draw/sw/lv_draw_sw_mask_private.h"
ARM GAS  /var/folders/qx/2_175_4n2s19vhvtspjhb3qh0000gn/T//ccPNYKNl.s 			page 92


 2867              		.file 29 "Drivers/lvgl/src/libs/bin_decoder/../../core/../stdlib/builtin/lv_tlsf_private.h"
 2868              		.file 30 "Drivers/lvgl/src/libs/bin_decoder/../../core/../layouts/lv_layout_private.h"
 2869              		.file 31 "Drivers/lvgl/src/libs/bin_decoder/../../core/lv_global.h"
 2870              		.file 32 "Drivers/lvgl/src/libs/bin_decoder/../../draw/../misc/../stdlib/lv_mem.h"
 2871              		.file 33 "Drivers/lvgl/src/libs/bin_decoder/../../draw/../misc/../stdlib/lv_string.h"
 2872              		.file 34 "Drivers/lvgl/src/libs/bin_decoder/../../draw/../misc/cache/instance/lv_image_cache.h"
ARM GAS  /var/folders/qx/2_175_4n2s19vhvtspjhb3qh0000gn/T//ccPNYKNl.s 			page 93


DEFINED SYMBOLS
                            *ABS*:00000000 lv_bin_decoder.c
/var/folders/qx/2_175_4n2s19vhvtspjhb3qh0000gn/T//ccPNYKNl.s:21     .text.load_indexed:00000000 $t
/var/folders/qx/2_175_4n2s19vhvtspjhb3qh0000gn/T//ccPNYKNl.s:26     .text.load_indexed:00000000 load_indexed
/var/folders/qx/2_175_4n2s19vhvtspjhb3qh0000gn/T//ccPNYKNl.s:49     .text.decode_compressed:00000000 $t
/var/folders/qx/2_175_4n2s19vhvtspjhb3qh0000gn/T//ccPNYKNl.s:54     .text.decode_compressed:00000000 decode_compressed
/var/folders/qx/2_175_4n2s19vhvtspjhb3qh0000gn/T//ccPNYKNl.s:78     .text.decode_indexed_line:00000000 $t
/var/folders/qx/2_175_4n2s19vhvtspjhb3qh0000gn/T//ccPNYKNl.s:83     .text.decode_indexed_line:00000000 decode_indexed_line
/var/folders/qx/2_175_4n2s19vhvtspjhb3qh0000gn/T//ccPNYKNl.s:111    .text.decode_indexed_line:0000000e $d
/var/folders/qx/2_175_4n2s19vhvtspjhb3qh0000gn/T//ccPNYKNl.s:115    .text.decode_indexed_line:00000012 $t
/var/folders/qx/2_175_4n2s19vhvtspjhb3qh0000gn/T//ccPNYKNl.s:306    .rodata.lv_bin_decoder_info.str1.4:00000000 $d
/var/folders/qx/2_175_4n2s19vhvtspjhb3qh0000gn/T//ccPNYKNl.s:310    .text.lv_bin_decoder_info:00000000 $t
/var/folders/qx/2_175_4n2s19vhvtspjhb3qh0000gn/T//ccPNYKNl.s:316    .text.lv_bin_decoder_info:00000000 lv_bin_decoder_info
/var/folders/qx/2_175_4n2s19vhvtspjhb3qh0000gn/T//ccPNYKNl.s:495    .text.lv_bin_decoder_info:0000008c $d
/var/folders/qx/2_175_4n2s19vhvtspjhb3qh0000gn/T//ccPNYKNl.s:500    .text.fs_read_file_at:00000000 $t
/var/folders/qx/2_175_4n2s19vhvtspjhb3qh0000gn/T//ccPNYKNl.s:505    .text.fs_read_file_at:00000000 fs_read_file_at
/var/folders/qx/2_175_4n2s19vhvtspjhb3qh0000gn/T//ccPNYKNl.s:580    .text.decode_indexed:00000000 $t
/var/folders/qx/2_175_4n2s19vhvtspjhb3qh0000gn/T//ccPNYKNl.s:585    .text.decode_indexed:00000000 decode_indexed
/var/folders/qx/2_175_4n2s19vhvtspjhb3qh0000gn/T//ccPNYKNl.s:628    .text.decode_indexed:0000001c $d
/var/folders/qx/2_175_4n2s19vhvtspjhb3qh0000gn/T//ccPNYKNl.s:632    .text.decode_indexed:00000020 $t
/var/folders/qx/2_175_4n2s19vhvtspjhb3qh0000gn/T//ccPNYKNl.s:685    .text.decode_indexed:00000054 $d
/var/folders/qx/2_175_4n2s19vhvtspjhb3qh0000gn/T//ccPNYKNl.s:690    .text.decode_indexed:00000058 $t
/var/folders/qx/2_175_4n2s19vhvtspjhb3qh0000gn/T//ccPNYKNl.s:827    .text.decode_alpha_only:00000000 $t
/var/folders/qx/2_175_4n2s19vhvtspjhb3qh0000gn/T//ccPNYKNl.s:832    .text.decode_alpha_only:00000000 decode_alpha_only
/var/folders/qx/2_175_4n2s19vhvtspjhb3qh0000gn/T//ccPNYKNl.s:1189   .text.decode_alpha_only:00000130 $d
/var/folders/qx/2_175_4n2s19vhvtspjhb3qh0000gn/T//ccPNYKNl.s:1194   .text.free_decoder_data:00000000 $t
/var/folders/qx/2_175_4n2s19vhvtspjhb3qh0000gn/T//ccPNYKNl.s:1199   .text.free_decoder_data:00000000 free_decoder_data
/var/folders/qx/2_175_4n2s19vhvtspjhb3qh0000gn/T//ccPNYKNl.s:1275   .text.lv_bin_decoder_close:00000000 $t
/var/folders/qx/2_175_4n2s19vhvtspjhb3qh0000gn/T//ccPNYKNl.s:1281   .text.lv_bin_decoder_close:00000000 lv_bin_decoder_close
/var/folders/qx/2_175_4n2s19vhvtspjhb3qh0000gn/T//ccPNYKNl.s:1329   .text.get_decoder_data:00000000 $t
/var/folders/qx/2_175_4n2s19vhvtspjhb3qh0000gn/T//ccPNYKNl.s:1334   .text.get_decoder_data:00000000 get_decoder_data
/var/folders/qx/2_175_4n2s19vhvtspjhb3qh0000gn/T//ccPNYKNl.s:1389   .text.lv_bin_decoder_open:00000000 $t
/var/folders/qx/2_175_4n2s19vhvtspjhb3qh0000gn/T//ccPNYKNl.s:1395   .text.lv_bin_decoder_open:00000000 lv_bin_decoder_open
/var/folders/qx/2_175_4n2s19vhvtspjhb3qh0000gn/T//ccPNYKNl.s:2143   .text.lv_bin_decoder_open:00000278 $d
/var/folders/qx/2_175_4n2s19vhvtspjhb3qh0000gn/T//ccPNYKNl.s:2148   .text.lv_bin_decoder_get_area:00000000 $t
/var/folders/qx/2_175_4n2s19vhvtspjhb3qh0000gn/T//ccPNYKNl.s:2154   .text.lv_bin_decoder_get_area:00000000 lv_bin_decoder_get_area
/var/folders/qx/2_175_4n2s19vhvtspjhb3qh0000gn/T//ccPNYKNl.s:2282   .text.lv_bin_decoder_get_area:00000084 $d
/var/folders/qx/2_175_4n2s19vhvtspjhb3qh0000gn/T//ccPNYKNl.s:2304   .text.lv_bin_decoder_get_area:000000ae $t
/var/folders/qx/2_175_4n2s19vhvtspjhb3qh0000gn/T//ccPNYKNl.s:2754   .text.lv_bin_decoder_get_area:00000254 $d
/var/folders/qx/2_175_4n2s19vhvtspjhb3qh0000gn/T//ccPNYKNl.s:2762   .rodata.lv_bin_decoder_init.str1.4:00000000 $d
/var/folders/qx/2_175_4n2s19vhvtspjhb3qh0000gn/T//ccPNYKNl.s:2766   .text.lv_bin_decoder_init:00000000 $t
/var/folders/qx/2_175_4n2s19vhvtspjhb3qh0000gn/T//ccPNYKNl.s:2772   .text.lv_bin_decoder_init:00000000 lv_bin_decoder_init
/var/folders/qx/2_175_4n2s19vhvtspjhb3qh0000gn/T//ccPNYKNl.s:2831   .text.lv_bin_decoder_init:00000030 $d

UNDEFINED SYMBOLS
lv_memcpy
lv_fs_get_ext
lv_strcmp
lv_fs_read
lv_fs_seek
lv_malloc
lv_free
lv_color_format_get_bpp
lv_draw_buf_create_ex
lv_draw_buf_destroy
lv_global
lv_fs_close
ARM GAS  /var/folders/qx/2_175_4n2s19vhvtspjhb3qh0000gn/T//ccPNYKNl.s 			page 94


lv_malloc_zeroed
lv_image_decoder_post_process
lv_fs_open
lv_draw_buf_from_image
lv_image_cache_is_enabled
lv_image_decoder_add_to_cache
lv_area_get_width
lv_draw_buf_reshape
lv_image_decoder_create
lv_image_decoder_set_info_cb
lv_image_decoder_set_open_cb
lv_image_decoder_set_get_area_cb
lv_image_decoder_set_close_cb
