ARM GAS  /var/folders/qx/2_175_4n2s19vhvtspjhb3qh0000gn/T//ccSbJ76u.s 			page 1


   1              		.cpu cortex-m4
   2              		.arch armv7e-m
   3              		.fpu fpv4-sp-d16
   4              		.eabi_attribute 27, 1
   5              		.eabi_attribute 28, 1
   6              		.eabi_attribute 20, 1
   7              		.eabi_attribute 21, 1
   8              		.eabi_attribute 23, 3
   9              		.eabi_attribute 24, 1
  10              		.eabi_attribute 25, 1
  11              		.eabi_attribute 26, 1
  12              		.eabi_attribute 30, 1
  13              		.eabi_attribute 34, 1
  14              		.eabi_attribute 18, 4
  15              		.file	"lv_theme.c"
  16              		.text
  17              	.Ltext0:
  18              		.cfi_sections	.debug_frame
  19              		.file 1 "Drivers/lvgl/src/themes/lv_theme.c"
  20              		.section	.text.apply_theme,"ax",%progbits
  21              		.align	1
  22              		.syntax unified
  23              		.thumb
  24              		.thumb_func
  26              	apply_theme:
  27              	.LVL0:
  28              	.LFB202:
   1:Drivers/lvgl/src/themes/lv_theme.c **** /**
   2:Drivers/lvgl/src/themes/lv_theme.c ****  * @file lv_theme.c
   3:Drivers/lvgl/src/themes/lv_theme.c ****  *
   4:Drivers/lvgl/src/themes/lv_theme.c ****  */
   5:Drivers/lvgl/src/themes/lv_theme.c **** 
   6:Drivers/lvgl/src/themes/lv_theme.c **** /*********************
   7:Drivers/lvgl/src/themes/lv_theme.c ****  *      INCLUDES
   8:Drivers/lvgl/src/themes/lv_theme.c ****  *********************/
   9:Drivers/lvgl/src/themes/lv_theme.c **** #include "lv_theme_private.h"
  10:Drivers/lvgl/src/themes/lv_theme.c **** #include "../core/lv_obj_private.h"
  11:Drivers/lvgl/src/themes/lv_theme.c **** #include "../core/lv_obj_class_private.h"
  12:Drivers/lvgl/src/themes/lv_theme.c **** #include "../../lvgl.h"
  13:Drivers/lvgl/src/themes/lv_theme.c **** 
  14:Drivers/lvgl/src/themes/lv_theme.c **** /*********************
  15:Drivers/lvgl/src/themes/lv_theme.c ****  *      DEFINES
  16:Drivers/lvgl/src/themes/lv_theme.c ****  *********************/
  17:Drivers/lvgl/src/themes/lv_theme.c **** 
  18:Drivers/lvgl/src/themes/lv_theme.c **** /**********************
  19:Drivers/lvgl/src/themes/lv_theme.c ****  *      TYPEDEFS
  20:Drivers/lvgl/src/themes/lv_theme.c ****  **********************/
  21:Drivers/lvgl/src/themes/lv_theme.c **** 
  22:Drivers/lvgl/src/themes/lv_theme.c **** /**********************
  23:Drivers/lvgl/src/themes/lv_theme.c ****  *  STATIC PROTOTYPES
  24:Drivers/lvgl/src/themes/lv_theme.c ****  **********************/
  25:Drivers/lvgl/src/themes/lv_theme.c **** static void apply_theme(lv_theme_t * th, lv_obj_t * obj);
  26:Drivers/lvgl/src/themes/lv_theme.c **** static void apply_theme_recursion(lv_theme_t * th, lv_obj_t * obj);
  27:Drivers/lvgl/src/themes/lv_theme.c **** 
  28:Drivers/lvgl/src/themes/lv_theme.c **** /**********************
  29:Drivers/lvgl/src/themes/lv_theme.c ****  *  STATIC VARIABLES
  30:Drivers/lvgl/src/themes/lv_theme.c ****  **********************/
ARM GAS  /var/folders/qx/2_175_4n2s19vhvtspjhb3qh0000gn/T//ccSbJ76u.s 			page 2


  31:Drivers/lvgl/src/themes/lv_theme.c **** 
  32:Drivers/lvgl/src/themes/lv_theme.c **** /**********************
  33:Drivers/lvgl/src/themes/lv_theme.c ****  *      MACROS
  34:Drivers/lvgl/src/themes/lv_theme.c ****  **********************/
  35:Drivers/lvgl/src/themes/lv_theme.c **** 
  36:Drivers/lvgl/src/themes/lv_theme.c **** /**********************
  37:Drivers/lvgl/src/themes/lv_theme.c ****  *   GLOBAL FUNCTIONS
  38:Drivers/lvgl/src/themes/lv_theme.c ****  **********************/
  39:Drivers/lvgl/src/themes/lv_theme.c **** 
  40:Drivers/lvgl/src/themes/lv_theme.c **** lv_theme_t  * lv_theme_get_from_obj(lv_obj_t * obj)
  41:Drivers/lvgl/src/themes/lv_theme.c **** {
  42:Drivers/lvgl/src/themes/lv_theme.c ****     lv_display_t * disp = obj ? lv_obj_get_display(obj) : lv_display_get_default();
  43:Drivers/lvgl/src/themes/lv_theme.c ****     return lv_display_get_theme(disp);
  44:Drivers/lvgl/src/themes/lv_theme.c **** }
  45:Drivers/lvgl/src/themes/lv_theme.c **** 
  46:Drivers/lvgl/src/themes/lv_theme.c **** lv_theme_t * lv_theme_create(void)
  47:Drivers/lvgl/src/themes/lv_theme.c **** {
  48:Drivers/lvgl/src/themes/lv_theme.c ****     lv_theme_t * theme = lv_zalloc(sizeof(*theme));
  49:Drivers/lvgl/src/themes/lv_theme.c ****     LV_ASSERT_MALLOC(theme);
  50:Drivers/lvgl/src/themes/lv_theme.c ****     return theme;
  51:Drivers/lvgl/src/themes/lv_theme.c **** }
  52:Drivers/lvgl/src/themes/lv_theme.c **** void lv_theme_delete(lv_theme_t * theme)
  53:Drivers/lvgl/src/themes/lv_theme.c **** {
  54:Drivers/lvgl/src/themes/lv_theme.c ****     lv_free(theme);
  55:Drivers/lvgl/src/themes/lv_theme.c **** }
  56:Drivers/lvgl/src/themes/lv_theme.c **** 
  57:Drivers/lvgl/src/themes/lv_theme.c **** void lv_theme_copy(lv_theme_t * dst, const lv_theme_t * src)
  58:Drivers/lvgl/src/themes/lv_theme.c **** {
  59:Drivers/lvgl/src/themes/lv_theme.c ****     if(!dst || !src) {
  60:Drivers/lvgl/src/themes/lv_theme.c ****         LV_LOG_WARN("Refusing to copy null themes");
  61:Drivers/lvgl/src/themes/lv_theme.c ****         return;
  62:Drivers/lvgl/src/themes/lv_theme.c ****     }
  63:Drivers/lvgl/src/themes/lv_theme.c ****     lv_memcpy(dst, src, sizeof(*src));
  64:Drivers/lvgl/src/themes/lv_theme.c **** }
  65:Drivers/lvgl/src/themes/lv_theme.c **** 
  66:Drivers/lvgl/src/themes/lv_theme.c **** void lv_theme_apply(lv_obj_t * obj)
  67:Drivers/lvgl/src/themes/lv_theme.c **** {
  68:Drivers/lvgl/src/themes/lv_theme.c ****     lv_theme_t * th = lv_theme_get_from_obj(obj);
  69:Drivers/lvgl/src/themes/lv_theme.c ****     lv_obj_remove_style_all(obj);
  70:Drivers/lvgl/src/themes/lv_theme.c **** 
  71:Drivers/lvgl/src/themes/lv_theme.c ****     if(th == NULL) return;
  72:Drivers/lvgl/src/themes/lv_theme.c **** 
  73:Drivers/lvgl/src/themes/lv_theme.c ****     apply_theme_recursion(th, obj);    /*Apply the theme including the base theme(s)*/
  74:Drivers/lvgl/src/themes/lv_theme.c **** }
  75:Drivers/lvgl/src/themes/lv_theme.c **** 
  76:Drivers/lvgl/src/themes/lv_theme.c **** void lv_theme_set_parent(lv_theme_t * theme, lv_theme_t * parent)
  77:Drivers/lvgl/src/themes/lv_theme.c **** {
  78:Drivers/lvgl/src/themes/lv_theme.c ****     theme->parent = parent;
  79:Drivers/lvgl/src/themes/lv_theme.c **** }
  80:Drivers/lvgl/src/themes/lv_theme.c **** 
  81:Drivers/lvgl/src/themes/lv_theme.c **** void lv_theme_set_apply_cb(lv_theme_t * theme, lv_theme_apply_cb_t apply_cb)
  82:Drivers/lvgl/src/themes/lv_theme.c **** {
  83:Drivers/lvgl/src/themes/lv_theme.c ****     theme->apply_cb = apply_cb;
  84:Drivers/lvgl/src/themes/lv_theme.c **** }
  85:Drivers/lvgl/src/themes/lv_theme.c **** 
  86:Drivers/lvgl/src/themes/lv_theme.c **** const lv_font_t * lv_theme_get_font_small(lv_obj_t * obj)
  87:Drivers/lvgl/src/themes/lv_theme.c **** {
ARM GAS  /var/folders/qx/2_175_4n2s19vhvtspjhb3qh0000gn/T//ccSbJ76u.s 			page 3


  88:Drivers/lvgl/src/themes/lv_theme.c ****     lv_theme_t * th = lv_theme_get_from_obj(obj);
  89:Drivers/lvgl/src/themes/lv_theme.c ****     return th ? th->font_small : LV_FONT_DEFAULT;
  90:Drivers/lvgl/src/themes/lv_theme.c **** }
  91:Drivers/lvgl/src/themes/lv_theme.c **** 
  92:Drivers/lvgl/src/themes/lv_theme.c **** const lv_font_t * lv_theme_get_font_normal(lv_obj_t * obj)
  93:Drivers/lvgl/src/themes/lv_theme.c **** {
  94:Drivers/lvgl/src/themes/lv_theme.c ****     lv_theme_t * th = lv_theme_get_from_obj(obj);
  95:Drivers/lvgl/src/themes/lv_theme.c ****     return th ? th->font_normal : LV_FONT_DEFAULT;
  96:Drivers/lvgl/src/themes/lv_theme.c **** }
  97:Drivers/lvgl/src/themes/lv_theme.c **** 
  98:Drivers/lvgl/src/themes/lv_theme.c **** const lv_font_t * lv_theme_get_font_large(lv_obj_t * obj)
  99:Drivers/lvgl/src/themes/lv_theme.c **** {
 100:Drivers/lvgl/src/themes/lv_theme.c ****     lv_theme_t * th = lv_theme_get_from_obj(obj);
 101:Drivers/lvgl/src/themes/lv_theme.c ****     return th ? th->font_large : LV_FONT_DEFAULT;
 102:Drivers/lvgl/src/themes/lv_theme.c **** }
 103:Drivers/lvgl/src/themes/lv_theme.c **** 
 104:Drivers/lvgl/src/themes/lv_theme.c **** lv_color_t lv_theme_get_color_primary(lv_obj_t * obj)
 105:Drivers/lvgl/src/themes/lv_theme.c **** {
 106:Drivers/lvgl/src/themes/lv_theme.c ****     lv_theme_t * th = lv_theme_get_from_obj(obj);
 107:Drivers/lvgl/src/themes/lv_theme.c ****     return th ? th->color_primary : lv_palette_main(LV_PALETTE_BLUE_GREY);
 108:Drivers/lvgl/src/themes/lv_theme.c **** }
 109:Drivers/lvgl/src/themes/lv_theme.c **** 
 110:Drivers/lvgl/src/themes/lv_theme.c **** lv_color_t lv_theme_get_color_secondary(lv_obj_t * obj)
 111:Drivers/lvgl/src/themes/lv_theme.c **** {
 112:Drivers/lvgl/src/themes/lv_theme.c ****     lv_theme_t * th = lv_theme_get_from_obj(obj);
 113:Drivers/lvgl/src/themes/lv_theme.c ****     return th ? th->color_secondary : lv_palette_main(LV_PALETTE_BLUE);
 114:Drivers/lvgl/src/themes/lv_theme.c **** }
 115:Drivers/lvgl/src/themes/lv_theme.c **** 
 116:Drivers/lvgl/src/themes/lv_theme.c **** #if LV_USE_EXT_DATA
 117:Drivers/lvgl/src/themes/lv_theme.c **** void lv_theme_set_external_data(lv_theme_t * theme, void * data, void (* free_cb)(void * data))
 118:Drivers/lvgl/src/themes/lv_theme.c **** {
 119:Drivers/lvgl/src/themes/lv_theme.c ****     if(!theme) {
 120:Drivers/lvgl/src/themes/lv_theme.c ****         LV_LOG_WARN("Can't attach external user data and destructor callback to a NULL theme");
 121:Drivers/lvgl/src/themes/lv_theme.c ****         return;
 122:Drivers/lvgl/src/themes/lv_theme.c ****     }
 123:Drivers/lvgl/src/themes/lv_theme.c **** 
 124:Drivers/lvgl/src/themes/lv_theme.c ****     theme->ext_data.data = data;
 125:Drivers/lvgl/src/themes/lv_theme.c ****     theme->ext_data.free_cb = free_cb;
 126:Drivers/lvgl/src/themes/lv_theme.c **** }
 127:Drivers/lvgl/src/themes/lv_theme.c **** #endif
 128:Drivers/lvgl/src/themes/lv_theme.c **** 
 129:Drivers/lvgl/src/themes/lv_theme.c **** /**********************
 130:Drivers/lvgl/src/themes/lv_theme.c ****  *   STATIC FUNCTIONS
 131:Drivers/lvgl/src/themes/lv_theme.c ****  **********************/
 132:Drivers/lvgl/src/themes/lv_theme.c **** 
 133:Drivers/lvgl/src/themes/lv_theme.c **** static void apply_theme(lv_theme_t * th, lv_obj_t * obj)
 134:Drivers/lvgl/src/themes/lv_theme.c **** {
  29              		.loc 1 134 1 view -0
  30              		.cfi_startproc
  31              		@ args = 0, pretend = 0, frame = 0
  32              		@ frame_needed = 0, uses_anonymous_args = 0
  33              		.loc 1 134 1 is_stmt 0 view .LVU1
  34 0000 38B5     		push	{r3, r4, r5, lr}
  35              	.LCFI0:
  36              		.cfi_def_cfa_offset 16
  37              		.cfi_offset 3, -16
  38              		.cfi_offset 4, -12
ARM GAS  /var/folders/qx/2_175_4n2s19vhvtspjhb3qh0000gn/T//ccSbJ76u.s 			page 4


  39              		.cfi_offset 5, -8
  40              		.cfi_offset 14, -4
  41 0002 0446     		mov	r4, r0
  42 0004 0D46     		mov	r5, r1
 135:Drivers/lvgl/src/themes/lv_theme.c ****     if(th->parent) apply_theme(th->parent, obj);
  43              		.loc 1 135 5 is_stmt 1 view .LVU2
  44              		.loc 1 135 10 is_stmt 0 view .LVU3
  45 0006 4068     		ldr	r0, [r0, #4]
  46              	.LVL1:
  47              		.loc 1 135 7 view .LVU4
  48 0008 08B1     		cbz	r0, .L2
  49              		.loc 1 135 20 is_stmt 1 discriminator 1 view .LVU5
  50 000a FFF7F9FF 		bl	apply_theme
  51              	.LVL2:
  52              	.L2:
 136:Drivers/lvgl/src/themes/lv_theme.c ****     if(th->apply_cb) th->apply_cb(th, obj);
  53              		.loc 1 136 5 view .LVU6
  54              		.loc 1 136 10 is_stmt 0 view .LVU7
  55 000e 2368     		ldr	r3, [r4]
  56              		.loc 1 136 7 view .LVU8
  57 0010 13B1     		cbz	r3, .L1
  58              		.loc 1 136 22 is_stmt 1 discriminator 1 view .LVU9
  59 0012 2946     		mov	r1, r5
  60 0014 2046     		mov	r0, r4
  61 0016 9847     		blx	r3
  62              	.LVL3:
  63              	.L1:
 137:Drivers/lvgl/src/themes/lv_theme.c **** }
  64              		.loc 1 137 1 is_stmt 0 view .LVU10
  65 0018 38BD     		pop	{r3, r4, r5, pc}
  66              		.loc 1 137 1 view .LVU11
  67              		.cfi_endproc
  68              	.LFE202:
  70              		.section	.text.apply_theme_recursion,"ax",%progbits
  71              		.align	1
  72              		.syntax unified
  73              		.thumb
  74              		.thumb_func
  76              	apply_theme_recursion:
  77              	.LVL4:
  78              	.LFB203:
 138:Drivers/lvgl/src/themes/lv_theme.c **** 
 139:Drivers/lvgl/src/themes/lv_theme.c **** static void apply_theme_recursion(lv_theme_t * th, lv_obj_t * obj)
 140:Drivers/lvgl/src/themes/lv_theme.c **** {
  79              		.loc 1 140 1 is_stmt 1 view -0
  80              		.cfi_startproc
  81              		@ args = 0, pretend = 0, frame = 0
  82              		@ frame_needed = 0, uses_anonymous_args = 0
  83              		.loc 1 140 1 is_stmt 0 view .LVU13
  84 0000 70B5     		push	{r4, r5, r6, lr}
  85              	.LCFI1:
  86              		.cfi_def_cfa_offset 16
  87              		.cfi_offset 4, -16
  88              		.cfi_offset 5, -12
  89              		.cfi_offset 6, -8
  90              		.cfi_offset 14, -4
  91 0002 0546     		mov	r5, r0
ARM GAS  /var/folders/qx/2_175_4n2s19vhvtspjhb3qh0000gn/T//ccSbJ76u.s 			page 5


  92 0004 0C46     		mov	r4, r1
 141:Drivers/lvgl/src/themes/lv_theme.c ****     const lv_obj_class_t * original_class_p = obj->class_p;
  93              		.loc 1 141 5 is_stmt 1 view .LVU14
  94              		.loc 1 141 28 is_stmt 0 view .LVU15
  95 0006 0E68     		ldr	r6, [r1]
  96              	.LVL5:
 142:Drivers/lvgl/src/themes/lv_theme.c **** 
 143:Drivers/lvgl/src/themes/lv_theme.c ****     if(obj->class_p->base_class && obj->class_p->theme_inheritable == LV_OBJ_CLASS_THEME_INHERITABL
  97              		.loc 1 143 5 is_stmt 1 view .LVU16
  98              		.loc 1 143 20 is_stmt 0 view .LVU17
  99 0008 3368     		ldr	r3, [r6]
 100              		.loc 1 143 7 view .LVU18
 101 000a 23B1     		cbz	r3, .L6
 102              		.loc 1 143 68 discriminator 1 view .LVU19
 103 000c 96F82220 		ldrb	r2, [r6, #34]	@ zero_extendqisi2
 104              		.loc 1 143 33 discriminator 1 view .LVU20
 105 0010 12F0100F 		tst	r2, #16
 106 0014 05D1     		bne	.L8
 107              	.LVL6:
 108              	.L6:
 144:Drivers/lvgl/src/themes/lv_theme.c ****         /*Apply the base class theme in obj*/
 145:Drivers/lvgl/src/themes/lv_theme.c ****         obj->class_p = obj->class_p->base_class;
 146:Drivers/lvgl/src/themes/lv_theme.c **** 
 147:Drivers/lvgl/src/themes/lv_theme.c ****         /*apply the base first*/
 148:Drivers/lvgl/src/themes/lv_theme.c ****         apply_theme_recursion(th, obj);
 149:Drivers/lvgl/src/themes/lv_theme.c ****     }
 150:Drivers/lvgl/src/themes/lv_theme.c **** 
 151:Drivers/lvgl/src/themes/lv_theme.c ****     /*Restore the original class*/
 152:Drivers/lvgl/src/themes/lv_theme.c ****     obj->class_p = original_class_p;
 109              		.loc 1 152 5 is_stmt 1 view .LVU21
 110              		.loc 1 152 18 is_stmt 0 view .LVU22
 111 0016 2660     		str	r6, [r4]
 153:Drivers/lvgl/src/themes/lv_theme.c **** 
 154:Drivers/lvgl/src/themes/lv_theme.c ****     apply_theme(th, obj);
 112              		.loc 1 154 5 is_stmt 1 view .LVU23
 113 0018 2146     		mov	r1, r4
 114 001a 2846     		mov	r0, r5
 115 001c FFF7FEFF 		bl	apply_theme
 116              	.LVL7:
 155:Drivers/lvgl/src/themes/lv_theme.c **** }
 117              		.loc 1 155 1 is_stmt 0 view .LVU24
 118 0020 70BD     		pop	{r4, r5, r6, pc}
 119              	.LVL8:
 120              	.L8:
 145:Drivers/lvgl/src/themes/lv_theme.c **** 
 121              		.loc 1 145 9 is_stmt 1 view .LVU25
 145:Drivers/lvgl/src/themes/lv_theme.c **** 
 122              		.loc 1 145 22 is_stmt 0 view .LVU26
 123 0022 0B60     		str	r3, [r1]
 148:Drivers/lvgl/src/themes/lv_theme.c ****     }
 124              		.loc 1 148 9 is_stmt 1 view .LVU27
 125 0024 FFF7ECFF 		bl	apply_theme_recursion
 126              	.LVL9:
 148:Drivers/lvgl/src/themes/lv_theme.c ****     }
 127              		.loc 1 148 9 is_stmt 0 view .LVU28
 128 0028 F5E7     		b	.L6
 129              		.cfi_endproc
ARM GAS  /var/folders/qx/2_175_4n2s19vhvtspjhb3qh0000gn/T//ccSbJ76u.s 			page 6


 130              	.LFE203:
 132              		.section	.text.lv_theme_get_from_obj,"ax",%progbits
 133              		.align	1
 134              		.global	lv_theme_get_from_obj
 135              		.syntax unified
 136              		.thumb
 137              		.thumb_func
 139              	lv_theme_get_from_obj:
 140              	.LVL10:
 141              	.LFB190:
  41:Drivers/lvgl/src/themes/lv_theme.c ****     lv_display_t * disp = obj ? lv_obj_get_display(obj) : lv_display_get_default();
 142              		.loc 1 41 1 is_stmt 1 view -0
 143              		.cfi_startproc
 144              		@ args = 0, pretend = 0, frame = 0
 145              		@ frame_needed = 0, uses_anonymous_args = 0
  41:Drivers/lvgl/src/themes/lv_theme.c ****     lv_display_t * disp = obj ? lv_obj_get_display(obj) : lv_display_get_default();
 146              		.loc 1 41 1 is_stmt 0 view .LVU30
 147 0000 08B5     		push	{r3, lr}
 148              	.LCFI2:
 149              		.cfi_def_cfa_offset 8
 150              		.cfi_offset 3, -8
 151              		.cfi_offset 14, -4
  42:Drivers/lvgl/src/themes/lv_theme.c ****     return lv_display_get_theme(disp);
 152              		.loc 1 42 5 is_stmt 1 view .LVU31
  42:Drivers/lvgl/src/themes/lv_theme.c ****     return lv_display_get_theme(disp);
 153              		.loc 1 42 57 is_stmt 0 view .LVU32
 154 0002 20B1     		cbz	r0, .L10
  42:Drivers/lvgl/src/themes/lv_theme.c ****     return lv_display_get_theme(disp);
 155              		.loc 1 42 33 discriminator 1 view .LVU33
 156 0004 FFF7FEFF 		bl	lv_obj_get_display
 157              	.LVL11:
 158              	.L11:
  43:Drivers/lvgl/src/themes/lv_theme.c **** }
 159              		.loc 1 43 5 is_stmt 1 view .LVU34
  43:Drivers/lvgl/src/themes/lv_theme.c **** }
 160              		.loc 1 43 12 is_stmt 0 view .LVU35
 161 0008 FFF7FEFF 		bl	lv_display_get_theme
 162              	.LVL12:
  44:Drivers/lvgl/src/themes/lv_theme.c **** 
 163              		.loc 1 44 1 view .LVU36
 164 000c 08BD     		pop	{r3, pc}
 165              	.LVL13:
 166              	.L10:
  42:Drivers/lvgl/src/themes/lv_theme.c ****     return lv_display_get_theme(disp);
 167              		.loc 1 42 59 discriminator 2 view .LVU37
 168 000e FFF7FEFF 		bl	lv_display_get_default
 169              	.LVL14:
  42:Drivers/lvgl/src/themes/lv_theme.c ****     return lv_display_get_theme(disp);
 170              		.loc 1 42 59 discriminator 2 view .LVU38
 171 0012 F9E7     		b	.L11
 172              		.cfi_endproc
 173              	.LFE190:
 175              		.section	.text.lv_theme_create,"ax",%progbits
 176              		.align	1
 177              		.global	lv_theme_create
 178              		.syntax unified
 179              		.thumb
ARM GAS  /var/folders/qx/2_175_4n2s19vhvtspjhb3qh0000gn/T//ccSbJ76u.s 			page 7


 180              		.thumb_func
 182              	lv_theme_create:
 183              	.LFB191:
  47:Drivers/lvgl/src/themes/lv_theme.c ****     lv_theme_t * theme = lv_zalloc(sizeof(*theme));
 184              		.loc 1 47 1 is_stmt 1 view -0
 185              		.cfi_startproc
 186              		@ args = 0, pretend = 0, frame = 0
 187              		@ frame_needed = 0, uses_anonymous_args = 0
 188 0000 08B5     		push	{r3, lr}
 189              	.LCFI3:
 190              		.cfi_def_cfa_offset 8
 191              		.cfi_offset 3, -8
 192              		.cfi_offset 14, -4
  48:Drivers/lvgl/src/themes/lv_theme.c ****     LV_ASSERT_MALLOC(theme);
 193              		.loc 1 48 5 view .LVU40
  48:Drivers/lvgl/src/themes/lv_theme.c ****     LV_ASSERT_MALLOC(theme);
 194              		.loc 1 48 26 is_stmt 0 view .LVU41
 195 0002 2820     		movs	r0, #40
 196 0004 FFF7FEFF 		bl	lv_zalloc
 197              	.LVL15:
  49:Drivers/lvgl/src/themes/lv_theme.c ****     return theme;
 198              		.loc 1 49 5 is_stmt 1 view .LVU42
  49:Drivers/lvgl/src/themes/lv_theme.c ****     return theme;
 199              		.loc 1 49 5 view .LVU43
 200 0008 00B1     		cbz	r0, .L15
  51:Drivers/lvgl/src/themes/lv_theme.c **** void lv_theme_delete(lv_theme_t * theme)
 201              		.loc 1 51 1 is_stmt 0 view .LVU44
 202 000a 08BD     		pop	{r3, pc}
 203              	.L15:
  49:Drivers/lvgl/src/themes/lv_theme.c ****     return theme;
 204              		.loc 1 49 5 is_stmt 1 view .LVU45
  49:Drivers/lvgl/src/themes/lv_theme.c ****     return theme;
 205              		.loc 1 49 5 view .LVU46
  49:Drivers/lvgl/src/themes/lv_theme.c ****     return theme;
 206              		.loc 1 49 5 view .LVU47
  49:Drivers/lvgl/src/themes/lv_theme.c ****     return theme;
 207              		.loc 1 49 5 view .LVU48
  49:Drivers/lvgl/src/themes/lv_theme.c ****     return theme;
 208              		.loc 1 49 5 view .LVU49
 209 000c FEE7     		b	.L15
 210              		.cfi_endproc
 211              	.LFE191:
 213              		.section	.text.lv_theme_delete,"ax",%progbits
 214              		.align	1
 215              		.global	lv_theme_delete
 216              		.syntax unified
 217              		.thumb
 218              		.thumb_func
 220              	lv_theme_delete:
 221              	.LVL16:
 222              	.LFB192:
  53:Drivers/lvgl/src/themes/lv_theme.c ****     lv_free(theme);
 223              		.loc 1 53 1 view -0
 224              		.cfi_startproc
 225              		@ args = 0, pretend = 0, frame = 0
 226              		@ frame_needed = 0, uses_anonymous_args = 0
  53:Drivers/lvgl/src/themes/lv_theme.c ****     lv_free(theme);
ARM GAS  /var/folders/qx/2_175_4n2s19vhvtspjhb3qh0000gn/T//ccSbJ76u.s 			page 8


 227              		.loc 1 53 1 is_stmt 0 view .LVU51
 228 0000 08B5     		push	{r3, lr}
 229              	.LCFI4:
 230              		.cfi_def_cfa_offset 8
 231              		.cfi_offset 3, -8
 232              		.cfi_offset 14, -4
  54:Drivers/lvgl/src/themes/lv_theme.c **** }
 233              		.loc 1 54 5 is_stmt 1 view .LVU52
 234 0002 FFF7FEFF 		bl	lv_free
 235              	.LVL17:
  55:Drivers/lvgl/src/themes/lv_theme.c **** 
 236              		.loc 1 55 1 is_stmt 0 view .LVU53
 237 0006 08BD     		pop	{r3, pc}
 238              		.cfi_endproc
 239              	.LFE192:
 241              		.section	.text.lv_theme_copy,"ax",%progbits
 242              		.align	1
 243              		.global	lv_theme_copy
 244              		.syntax unified
 245              		.thumb
 246              		.thumb_func
 248              	lv_theme_copy:
 249              	.LVL18:
 250              	.LFB193:
  58:Drivers/lvgl/src/themes/lv_theme.c ****     if(!dst || !src) {
 251              		.loc 1 58 1 is_stmt 1 view -0
 252              		.cfi_startproc
 253              		@ args = 0, pretend = 0, frame = 0
 254              		@ frame_needed = 0, uses_anonymous_args = 0
  59:Drivers/lvgl/src/themes/lv_theme.c ****         LV_LOG_WARN("Refusing to copy null themes");
 255              		.loc 1 59 5 view .LVU55
  59:Drivers/lvgl/src/themes/lv_theme.c ****         LV_LOG_WARN("Refusing to copy null themes");
 256              		.loc 1 59 7 is_stmt 0 view .LVU56
 257 0000 28B1     		cbz	r0, .L22
  58:Drivers/lvgl/src/themes/lv_theme.c ****     if(!dst || !src) {
 258              		.loc 1 58 1 view .LVU57
 259 0002 08B5     		push	{r3, lr}
 260              	.LCFI5:
 261              		.cfi_def_cfa_offset 8
 262              		.cfi_offset 3, -8
 263              		.cfi_offset 14, -4
  59:Drivers/lvgl/src/themes/lv_theme.c ****         LV_LOG_WARN("Refusing to copy null themes");
 264              		.loc 1 59 13 discriminator 1 view .LVU58
 265 0004 11B1     		cbz	r1, .L19
  63:Drivers/lvgl/src/themes/lv_theme.c **** }
 266              		.loc 1 63 5 is_stmt 1 view .LVU59
 267 0006 2822     		movs	r2, #40
 268 0008 FFF7FEFF 		bl	lv_memcpy
 269              	.LVL19:
 270              	.L19:
  64:Drivers/lvgl/src/themes/lv_theme.c **** 
 271              		.loc 1 64 1 is_stmt 0 view .LVU60
 272 000c 08BD     		pop	{r3, pc}
 273              	.LVL20:
 274              	.L22:
 275              	.LCFI6:
 276              		.cfi_def_cfa_offset 0
ARM GAS  /var/folders/qx/2_175_4n2s19vhvtspjhb3qh0000gn/T//ccSbJ76u.s 			page 9


 277              		.cfi_restore 3
 278              		.cfi_restore 14
  64:Drivers/lvgl/src/themes/lv_theme.c **** 
 279              		.loc 1 64 1 view .LVU61
 280 000e 7047     		bx	lr
 281              		.cfi_endproc
 282              	.LFE193:
 284              		.section	.text.lv_theme_apply,"ax",%progbits
 285              		.align	1
 286              		.global	lv_theme_apply
 287              		.syntax unified
 288              		.thumb
 289              		.thumb_func
 291              	lv_theme_apply:
 292              	.LVL21:
 293              	.LFB194:
  67:Drivers/lvgl/src/themes/lv_theme.c ****     lv_theme_t * th = lv_theme_get_from_obj(obj);
 294              		.loc 1 67 1 is_stmt 1 view -0
 295              		.cfi_startproc
 296              		@ args = 0, pretend = 0, frame = 0
 297              		@ frame_needed = 0, uses_anonymous_args = 0
  67:Drivers/lvgl/src/themes/lv_theme.c ****     lv_theme_t * th = lv_theme_get_from_obj(obj);
 298              		.loc 1 67 1 is_stmt 0 view .LVU63
 299 0000 38B5     		push	{r3, r4, r5, lr}
 300              	.LCFI7:
 301              		.cfi_def_cfa_offset 16
 302              		.cfi_offset 3, -16
 303              		.cfi_offset 4, -12
 304              		.cfi_offset 5, -8
 305              		.cfi_offset 14, -4
 306 0002 0546     		mov	r5, r0
  68:Drivers/lvgl/src/themes/lv_theme.c ****     lv_obj_remove_style_all(obj);
 307              		.loc 1 68 5 is_stmt 1 view .LVU64
  68:Drivers/lvgl/src/themes/lv_theme.c ****     lv_obj_remove_style_all(obj);
 308              		.loc 1 68 23 is_stmt 0 view .LVU65
 309 0004 FFF7FEFF 		bl	lv_theme_get_from_obj
 310              	.LVL22:
  68:Drivers/lvgl/src/themes/lv_theme.c ****     lv_obj_remove_style_all(obj);
 311              		.loc 1 68 23 view .LVU66
 312 0008 0446     		mov	r4, r0
 313              	.LVL23:
  69:Drivers/lvgl/src/themes/lv_theme.c **** 
 314              		.loc 1 69 5 is_stmt 1 view .LVU67
 315 000a 2846     		mov	r0, r5
 316              	.LVL24:
  69:Drivers/lvgl/src/themes/lv_theme.c **** 
 317              		.loc 1 69 5 is_stmt 0 view .LVU68
 318 000c FFF7FEFF 		bl	lv_obj_remove_style_all
 319              	.LVL25:
  71:Drivers/lvgl/src/themes/lv_theme.c **** 
 320              		.loc 1 71 5 is_stmt 1 view .LVU69
  71:Drivers/lvgl/src/themes/lv_theme.c **** 
 321              		.loc 1 71 7 is_stmt 0 view .LVU70
 322 0010 1CB1     		cbz	r4, .L25
  73:Drivers/lvgl/src/themes/lv_theme.c **** }
 323              		.loc 1 73 5 is_stmt 1 view .LVU71
 324 0012 2946     		mov	r1, r5
ARM GAS  /var/folders/qx/2_175_4n2s19vhvtspjhb3qh0000gn/T//ccSbJ76u.s 			page 10


 325 0014 2046     		mov	r0, r4
 326 0016 FFF7FEFF 		bl	apply_theme_recursion
 327              	.LVL26:
 328              	.L25:
  74:Drivers/lvgl/src/themes/lv_theme.c **** 
 329              		.loc 1 74 1 is_stmt 0 view .LVU72
 330 001a 38BD     		pop	{r3, r4, r5, pc}
  74:Drivers/lvgl/src/themes/lv_theme.c **** 
 331              		.loc 1 74 1 view .LVU73
 332              		.cfi_endproc
 333              	.LFE194:
 335              		.section	.text.lv_theme_set_parent,"ax",%progbits
 336              		.align	1
 337              		.global	lv_theme_set_parent
 338              		.syntax unified
 339              		.thumb
 340              		.thumb_func
 342              	lv_theme_set_parent:
 343              	.LVL27:
 344              	.LFB195:
  77:Drivers/lvgl/src/themes/lv_theme.c ****     theme->parent = parent;
 345              		.loc 1 77 1 is_stmt 1 view -0
 346              		.cfi_startproc
 347              		@ args = 0, pretend = 0, frame = 0
 348              		@ frame_needed = 0, uses_anonymous_args = 0
 349              		@ link register save eliminated.
  78:Drivers/lvgl/src/themes/lv_theme.c **** }
 350              		.loc 1 78 5 view .LVU75
  78:Drivers/lvgl/src/themes/lv_theme.c **** }
 351              		.loc 1 78 19 is_stmt 0 view .LVU76
 352 0000 4160     		str	r1, [r0, #4]
  79:Drivers/lvgl/src/themes/lv_theme.c **** 
 353              		.loc 1 79 1 view .LVU77
 354 0002 7047     		bx	lr
 355              		.cfi_endproc
 356              	.LFE195:
 358              		.section	.text.lv_theme_set_apply_cb,"ax",%progbits
 359              		.align	1
 360              		.global	lv_theme_set_apply_cb
 361              		.syntax unified
 362              		.thumb
 363              		.thumb_func
 365              	lv_theme_set_apply_cb:
 366              	.LVL28:
 367              	.LFB196:
  82:Drivers/lvgl/src/themes/lv_theme.c ****     theme->apply_cb = apply_cb;
 368              		.loc 1 82 1 is_stmt 1 view -0
 369              		.cfi_startproc
 370              		@ args = 0, pretend = 0, frame = 0
 371              		@ frame_needed = 0, uses_anonymous_args = 0
 372              		@ link register save eliminated.
  83:Drivers/lvgl/src/themes/lv_theme.c **** }
 373              		.loc 1 83 5 view .LVU79
  83:Drivers/lvgl/src/themes/lv_theme.c **** }
 374              		.loc 1 83 21 is_stmt 0 view .LVU80
 375 0000 0160     		str	r1, [r0]
  84:Drivers/lvgl/src/themes/lv_theme.c **** 
ARM GAS  /var/folders/qx/2_175_4n2s19vhvtspjhb3qh0000gn/T//ccSbJ76u.s 			page 11


 376              		.loc 1 84 1 view .LVU81
 377 0002 7047     		bx	lr
 378              		.cfi_endproc
 379              	.LFE196:
 381              		.section	.text.lv_theme_get_font_small,"ax",%progbits
 382              		.align	1
 383              		.global	lv_theme_get_font_small
 384              		.syntax unified
 385              		.thumb
 386              		.thumb_func
 388              	lv_theme_get_font_small:
 389              	.LVL29:
 390              	.LFB197:
  87:Drivers/lvgl/src/themes/lv_theme.c ****     lv_theme_t * th = lv_theme_get_from_obj(obj);
 391              		.loc 1 87 1 is_stmt 1 view -0
 392              		.cfi_startproc
 393              		@ args = 0, pretend = 0, frame = 0
 394              		@ frame_needed = 0, uses_anonymous_args = 0
  87:Drivers/lvgl/src/themes/lv_theme.c ****     lv_theme_t * th = lv_theme_get_from_obj(obj);
 395              		.loc 1 87 1 is_stmt 0 view .LVU83
 396 0000 08B5     		push	{r3, lr}
 397              	.LCFI8:
 398              		.cfi_def_cfa_offset 8
 399              		.cfi_offset 3, -8
 400              		.cfi_offset 14, -4
  88:Drivers/lvgl/src/themes/lv_theme.c ****     return th ? th->font_small : LV_FONT_DEFAULT;
 401              		.loc 1 88 5 is_stmt 1 view .LVU84
  88:Drivers/lvgl/src/themes/lv_theme.c ****     return th ? th->font_small : LV_FONT_DEFAULT;
 402              		.loc 1 88 23 is_stmt 0 view .LVU85
 403 0002 FFF7FEFF 		bl	lv_theme_get_from_obj
 404              	.LVL30:
  89:Drivers/lvgl/src/themes/lv_theme.c **** }
 405              		.loc 1 89 5 is_stmt 1 view .LVU86
  89:Drivers/lvgl/src/themes/lv_theme.c **** }
 406              		.loc 1 89 32 is_stmt 0 view .LVU87
 407 0006 08B1     		cbz	r0, .L32
  89:Drivers/lvgl/src/themes/lv_theme.c **** }
 408              		.loc 1 89 32 discriminator 1 view .LVU88
 409 0008 8069     		ldr	r0, [r0, #24]
 410              	.LVL31:
 411              	.L30:
  90:Drivers/lvgl/src/themes/lv_theme.c **** 
 412              		.loc 1 90 1 view .LVU89
 413 000a 08BD     		pop	{r3, pc}
 414              	.LVL32:
 415              	.L32:
  89:Drivers/lvgl/src/themes/lv_theme.c **** }
 416              		.loc 1 89 32 discriminator 2 view .LVU90
 417 000c 0048     		ldr	r0, .L34
 418              	.LVL33:
  89:Drivers/lvgl/src/themes/lv_theme.c **** }
 419              		.loc 1 89 32 view .LVU91
 420 000e FCE7     		b	.L30
 421              	.L35:
 422              		.align	2
 423              	.L34:
 424 0010 00000000 		.word	lv_font_montserrat_14
ARM GAS  /var/folders/qx/2_175_4n2s19vhvtspjhb3qh0000gn/T//ccSbJ76u.s 			page 12


 425              		.cfi_endproc
 426              	.LFE197:
 428              		.section	.text.lv_theme_get_font_normal,"ax",%progbits
 429              		.align	1
 430              		.global	lv_theme_get_font_normal
 431              		.syntax unified
 432              		.thumb
 433              		.thumb_func
 435              	lv_theme_get_font_normal:
 436              	.LVL34:
 437              	.LFB198:
  93:Drivers/lvgl/src/themes/lv_theme.c ****     lv_theme_t * th = lv_theme_get_from_obj(obj);
 438              		.loc 1 93 1 is_stmt 1 view -0
 439              		.cfi_startproc
 440              		@ args = 0, pretend = 0, frame = 0
 441              		@ frame_needed = 0, uses_anonymous_args = 0
  93:Drivers/lvgl/src/themes/lv_theme.c ****     lv_theme_t * th = lv_theme_get_from_obj(obj);
 442              		.loc 1 93 1 is_stmt 0 view .LVU93
 443 0000 08B5     		push	{r3, lr}
 444              	.LCFI9:
 445              		.cfi_def_cfa_offset 8
 446              		.cfi_offset 3, -8
 447              		.cfi_offset 14, -4
  94:Drivers/lvgl/src/themes/lv_theme.c ****     return th ? th->font_normal : LV_FONT_DEFAULT;
 448              		.loc 1 94 5 is_stmt 1 view .LVU94
  94:Drivers/lvgl/src/themes/lv_theme.c ****     return th ? th->font_normal : LV_FONT_DEFAULT;
 449              		.loc 1 94 23 is_stmt 0 view .LVU95
 450 0002 FFF7FEFF 		bl	lv_theme_get_from_obj
 451              	.LVL35:
  95:Drivers/lvgl/src/themes/lv_theme.c **** }
 452              		.loc 1 95 5 is_stmt 1 view .LVU96
  95:Drivers/lvgl/src/themes/lv_theme.c **** }
 453              		.loc 1 95 33 is_stmt 0 view .LVU97
 454 0006 08B1     		cbz	r0, .L38
  95:Drivers/lvgl/src/themes/lv_theme.c **** }
 455              		.loc 1 95 33 discriminator 1 view .LVU98
 456 0008 C069     		ldr	r0, [r0, #28]
 457              	.LVL36:
 458              	.L36:
  96:Drivers/lvgl/src/themes/lv_theme.c **** 
 459              		.loc 1 96 1 view .LVU99
 460 000a 08BD     		pop	{r3, pc}
 461              	.LVL37:
 462              	.L38:
  95:Drivers/lvgl/src/themes/lv_theme.c **** }
 463              		.loc 1 95 33 discriminator 2 view .LVU100
 464 000c 0048     		ldr	r0, .L40
 465              	.LVL38:
  95:Drivers/lvgl/src/themes/lv_theme.c **** }
 466              		.loc 1 95 33 view .LVU101
 467 000e FCE7     		b	.L36
 468              	.L41:
 469              		.align	2
 470              	.L40:
 471 0010 00000000 		.word	lv_font_montserrat_14
 472              		.cfi_endproc
 473              	.LFE198:
ARM GAS  /var/folders/qx/2_175_4n2s19vhvtspjhb3qh0000gn/T//ccSbJ76u.s 			page 13


 475              		.section	.text.lv_theme_get_font_large,"ax",%progbits
 476              		.align	1
 477              		.global	lv_theme_get_font_large
 478              		.syntax unified
 479              		.thumb
 480              		.thumb_func
 482              	lv_theme_get_font_large:
 483              	.LVL39:
 484              	.LFB199:
  99:Drivers/lvgl/src/themes/lv_theme.c ****     lv_theme_t * th = lv_theme_get_from_obj(obj);
 485              		.loc 1 99 1 is_stmt 1 view -0
 486              		.cfi_startproc
 487              		@ args = 0, pretend = 0, frame = 0
 488              		@ frame_needed = 0, uses_anonymous_args = 0
  99:Drivers/lvgl/src/themes/lv_theme.c ****     lv_theme_t * th = lv_theme_get_from_obj(obj);
 489              		.loc 1 99 1 is_stmt 0 view .LVU103
 490 0000 08B5     		push	{r3, lr}
 491              	.LCFI10:
 492              		.cfi_def_cfa_offset 8
 493              		.cfi_offset 3, -8
 494              		.cfi_offset 14, -4
 100:Drivers/lvgl/src/themes/lv_theme.c ****     return th ? th->font_large : LV_FONT_DEFAULT;
 495              		.loc 1 100 5 is_stmt 1 view .LVU104
 100:Drivers/lvgl/src/themes/lv_theme.c ****     return th ? th->font_large : LV_FONT_DEFAULT;
 496              		.loc 1 100 23 is_stmt 0 view .LVU105
 497 0002 FFF7FEFF 		bl	lv_theme_get_from_obj
 498              	.LVL40:
 101:Drivers/lvgl/src/themes/lv_theme.c **** }
 499              		.loc 1 101 5 is_stmt 1 view .LVU106
 101:Drivers/lvgl/src/themes/lv_theme.c **** }
 500              		.loc 1 101 32 is_stmt 0 view .LVU107
 501 0006 08B1     		cbz	r0, .L44
 101:Drivers/lvgl/src/themes/lv_theme.c **** }
 502              		.loc 1 101 32 discriminator 1 view .LVU108
 503 0008 006A     		ldr	r0, [r0, #32]
 504              	.LVL41:
 505              	.L42:
 102:Drivers/lvgl/src/themes/lv_theme.c **** 
 506              		.loc 1 102 1 view .LVU109
 507 000a 08BD     		pop	{r3, pc}
 508              	.LVL42:
 509              	.L44:
 101:Drivers/lvgl/src/themes/lv_theme.c **** }
 510              		.loc 1 101 32 discriminator 2 view .LVU110
 511 000c 0048     		ldr	r0, .L46
 512              	.LVL43:
 101:Drivers/lvgl/src/themes/lv_theme.c **** }
 513              		.loc 1 101 32 view .LVU111
 514 000e FCE7     		b	.L42
 515              	.L47:
 516              		.align	2
 517              	.L46:
 518 0010 00000000 		.word	lv_font_montserrat_14
 519              		.cfi_endproc
 520              	.LFE199:
 522              		.section	.text.lv_theme_get_color_primary,"ax",%progbits
 523              		.align	1
ARM GAS  /var/folders/qx/2_175_4n2s19vhvtspjhb3qh0000gn/T//ccSbJ76u.s 			page 14


 524              		.global	lv_theme_get_color_primary
 525              		.syntax unified
 526              		.thumb
 527              		.thumb_func
 529              	lv_theme_get_color_primary:
 530              	.LVL44:
 531              	.LFB200:
 105:Drivers/lvgl/src/themes/lv_theme.c ****     lv_theme_t * th = lv_theme_get_from_obj(obj);
 532              		.loc 1 105 1 is_stmt 1 view -0
 533              		.cfi_startproc
 534              		@ args = 0, pretend = 0, frame = 8
 535              		@ frame_needed = 0, uses_anonymous_args = 0
 105:Drivers/lvgl/src/themes/lv_theme.c ****     lv_theme_t * th = lv_theme_get_from_obj(obj);
 536              		.loc 1 105 1 is_stmt 0 view .LVU113
 537 0000 00B5     		push	{lr}
 538              	.LCFI11:
 539              		.cfi_def_cfa_offset 4
 540              		.cfi_offset 14, -4
 541 0002 83B0     		sub	sp, sp, #12
 542              	.LCFI12:
 543              		.cfi_def_cfa_offset 16
 106:Drivers/lvgl/src/themes/lv_theme.c ****     return th ? th->color_primary : lv_palette_main(LV_PALETTE_BLUE_GREY);
 544              		.loc 1 106 5 is_stmt 1 view .LVU114
 106:Drivers/lvgl/src/themes/lv_theme.c ****     return th ? th->color_primary : lv_palette_main(LV_PALETTE_BLUE_GREY);
 545              		.loc 1 106 23 is_stmt 0 view .LVU115
 546 0004 FFF7FEFF 		bl	lv_theme_get_from_obj
 547              	.LVL45:
 107:Drivers/lvgl/src/themes/lv_theme.c **** }
 548              		.loc 1 107 5 is_stmt 1 view .LVU116
 107:Drivers/lvgl/src/themes/lv_theme.c **** }
 549              		.loc 1 107 35 is_stmt 0 view .LVU117
 550 0008 A8B1     		cbz	r0, .L49
 107:Drivers/lvgl/src/themes/lv_theme.c **** }
 551              		.loc 1 107 35 discriminator 1 view .LVU118
 552 000a 0369     		ldr	r3, [r0, #16]
 553 000c ADF80430 		strh	r3, [sp, #4]	@ movhi
 554 0010 1B0C     		lsrs	r3, r3, #16
 555 0012 8DF80630 		strb	r3, [sp, #6]
 556              	.LVL46:
 557              	.L50:
 107:Drivers/lvgl/src/themes/lv_theme.c **** }
 558              		.loc 1 107 35 view .LVU119
 559 0016 0020     		movs	r0, #0
 560 0018 9DF80430 		ldrb	r3, [sp, #4]	@ zero_extendqisi2
 561 001c 63F30700 		bfi	r0, r3, #0, #8
 562 0020 9DF80530 		ldrb	r3, [sp, #5]	@ zero_extendqisi2
 563 0024 63F30F20 		bfi	r0, r3, #8, #8
 564 0028 9DF80630 		ldrb	r3, [sp, #6]	@ zero_extendqisi2
 565 002c 63F31740 		bfi	r0, r3, #16, #8
 108:Drivers/lvgl/src/themes/lv_theme.c **** 
 566              		.loc 1 108 1 view .LVU120
 567 0030 03B0     		add	sp, sp, #12
 568              	.LCFI13:
 569              		.cfi_remember_state
 570              		.cfi_def_cfa_offset 4
 571              		@ sp needed
 572 0032 5DF804FB 		ldr	pc, [sp], #4
ARM GAS  /var/folders/qx/2_175_4n2s19vhvtspjhb3qh0000gn/T//ccSbJ76u.s 			page 15


 573              	.LVL47:
 574              	.L49:
 575              	.LCFI14:
 576              		.cfi_restore_state
 107:Drivers/lvgl/src/themes/lv_theme.c **** }
 577              		.loc 1 107 37 discriminator 2 view .LVU121
 578 0036 1120     		movs	r0, #17
 579              	.LVL48:
 107:Drivers/lvgl/src/themes/lv_theme.c **** }
 580              		.loc 1 107 37 discriminator 2 view .LVU122
 581 0038 FFF7FEFF 		bl	lv_palette_main
 582              	.LVL49:
 583 003c 8DF80400 		strb	r0, [sp, #4]
 584 0040 C0F30723 		ubfx	r3, r0, #8, #8
 585 0044 8DF80530 		strb	r3, [sp, #5]
 586 0048 C0F30740 		ubfx	r0, r0, #16, #8
 587 004c 8DF80600 		strb	r0, [sp, #6]
 588 0050 E1E7     		b	.L50
 589              		.cfi_endproc
 590              	.LFE200:
 592              		.section	.text.lv_theme_get_color_secondary,"ax",%progbits
 593              		.align	1
 594              		.global	lv_theme_get_color_secondary
 595              		.syntax unified
 596              		.thumb
 597              		.thumb_func
 599              	lv_theme_get_color_secondary:
 600              	.LVL50:
 601              	.LFB201:
 111:Drivers/lvgl/src/themes/lv_theme.c ****     lv_theme_t * th = lv_theme_get_from_obj(obj);
 602              		.loc 1 111 1 is_stmt 1 view -0
 603              		.cfi_startproc
 604              		@ args = 0, pretend = 0, frame = 8
 605              		@ frame_needed = 0, uses_anonymous_args = 0
 111:Drivers/lvgl/src/themes/lv_theme.c ****     lv_theme_t * th = lv_theme_get_from_obj(obj);
 606              		.loc 1 111 1 is_stmt 0 view .LVU124
 607 0000 00B5     		push	{lr}
 608              	.LCFI15:
 609              		.cfi_def_cfa_offset 4
 610              		.cfi_offset 14, -4
 611 0002 83B0     		sub	sp, sp, #12
 612              	.LCFI16:
 613              		.cfi_def_cfa_offset 16
 112:Drivers/lvgl/src/themes/lv_theme.c ****     return th ? th->color_secondary : lv_palette_main(LV_PALETTE_BLUE);
 614              		.loc 1 112 5 is_stmt 1 view .LVU125
 112:Drivers/lvgl/src/themes/lv_theme.c ****     return th ? th->color_secondary : lv_palette_main(LV_PALETTE_BLUE);
 615              		.loc 1 112 23 is_stmt 0 view .LVU126
 616 0004 FFF7FEFF 		bl	lv_theme_get_from_obj
 617              	.LVL51:
 113:Drivers/lvgl/src/themes/lv_theme.c **** }
 618              		.loc 1 113 5 is_stmt 1 view .LVU127
 113:Drivers/lvgl/src/themes/lv_theme.c **** }
 619              		.loc 1 113 37 is_stmt 0 view .LVU128
 620 0008 B0B1     		cbz	r0, .L53
 113:Drivers/lvgl/src/themes/lv_theme.c **** }
 621              		.loc 1 113 37 discriminator 1 view .LVU129
 622 000a B0F81320 		ldrh	r2, [r0, #19]	@ unaligned
ARM GAS  /var/folders/qx/2_175_4n2s19vhvtspjhb3qh0000gn/T//ccSbJ76u.s 			page 16


 623 000e 437D     		ldrb	r3, [r0, #21]	@ zero_extendqisi2
 624 0010 ADF80420 		strh	r2, [sp, #4]	@ unaligned
 625 0014 8DF80630 		strb	r3, [sp, #6]
 626              	.LVL52:
 627              	.L54:
 113:Drivers/lvgl/src/themes/lv_theme.c **** }
 628              		.loc 1 113 37 view .LVU130
 629 0018 0020     		movs	r0, #0
 630 001a 9DF80430 		ldrb	r3, [sp, #4]	@ zero_extendqisi2
 631 001e 63F30700 		bfi	r0, r3, #0, #8
 632 0022 9DF80530 		ldrb	r3, [sp, #5]	@ zero_extendqisi2
 633 0026 63F30F20 		bfi	r0, r3, #8, #8
 634 002a 9DF80630 		ldrb	r3, [sp, #6]	@ zero_extendqisi2
 635 002e 63F31740 		bfi	r0, r3, #16, #8
 114:Drivers/lvgl/src/themes/lv_theme.c **** 
 636              		.loc 1 114 1 view .LVU131
 637 0032 03B0     		add	sp, sp, #12
 638              	.LCFI17:
 639              		.cfi_remember_state
 640              		.cfi_def_cfa_offset 4
 641              		@ sp needed
 642 0034 5DF804FB 		ldr	pc, [sp], #4
 643              	.LVL53:
 644              	.L53:
 645              	.LCFI18:
 646              		.cfi_restore_state
 113:Drivers/lvgl/src/themes/lv_theme.c **** }
 647              		.loc 1 113 39 discriminator 2 view .LVU132
 648 0038 0520     		movs	r0, #5
 649              	.LVL54:
 113:Drivers/lvgl/src/themes/lv_theme.c **** }
 650              		.loc 1 113 39 discriminator 2 view .LVU133
 651 003a FFF7FEFF 		bl	lv_palette_main
 652              	.LVL55:
 653 003e 8DF80400 		strb	r0, [sp, #4]
 654 0042 C0F30723 		ubfx	r3, r0, #8, #8
 655 0046 8DF80530 		strb	r3, [sp, #5]
 656 004a C0F30740 		ubfx	r0, r0, #16, #8
 657 004e 8DF80600 		strb	r0, [sp, #6]
 658 0052 E1E7     		b	.L54
 659              		.cfi_endproc
 660              	.LFE201:
 662              		.text
 663              	.Letext0:
 664              		.file 2 "/Applications/ArmGNUToolchain/14.3.rel1/arm-none-eabi/arm-none-eabi/include/machine/_defa
 665              		.file 3 "/Applications/ArmGNUToolchain/14.3.rel1/arm-none-eabi/arm-none-eabi/include/sys/_stdint.h
 666              		.file 4 "/Applications/ArmGNUToolchain/14.3.rel1/arm-none-eabi/lib/gcc/arm-none-eabi/14.3.1/includ
 667              		.file 5 "Drivers/lvgl/src/themes/../core/../misc/lv_types.h"
 668              		.file 6 "Drivers/lvgl/src/themes/../core/lv_obj_private.h"
 669              		.file 7 "Drivers/lvgl/src/themes/../core/lv_obj_class_private.h"
 670              		.file 8 "Drivers/lvgl/src/themes/lv_theme_private.h"
 671              		.file 9 "Drivers/lvgl/src/themes/../core/../misc/../font/lv_font.h"
 672              		.file 10 "Drivers/lvgl/src/themes/../core/../display/../misc/lv_array.h"
 673              		.file 11 "Drivers/lvgl/src/themes/../core/../misc/../font/../draw/lv_draw_buf.h"
 674              		.file 12 "Drivers/lvgl/src/themes/../core/../misc/../font/../draw/../misc/lv_area.h"
 675              		.file 13 "Drivers/lvgl/src/themes/../core/../misc/../font/../draw/../misc/lv_color.h"
 676              		.file 14 "Drivers/lvgl/src/themes/../core/../misc/../font/../draw/../misc/lv_palette.h"
ARM GAS  /var/folders/qx/2_175_4n2s19vhvtspjhb3qh0000gn/T//ccSbJ76u.s 			page 17


 677              		.file 15 "Drivers/lvgl/src/themes/../core/../misc/../font/../draw/lv_image_dsc.h"
 678              		.file 16 "Drivers/lvgl/src/themes/../core/../display/../misc/lv_event.h"
 679              		.file 17 "Drivers/lvgl/src/themes/../core/lv_obj_class.h"
 680              		.file 18 "Drivers/lvgl/src/themes/../core/lv_obj.h"
 681              		.file 19 "Drivers/lvgl/src/themes/lv_theme.h"
 682              		.file 20 "Drivers/lvgl/src/themes/../core/../misc/../font/../draw/../misc/../stdlib/lv_string.h"
 683              		.file 21 "Drivers/lvgl/src/themes/../core/lv_obj_style.h"
 684              		.file 22 "Drivers/lvgl/src/themes/../core/../misc/../font/../draw/../misc/../stdlib/lv_mem.h"
 685              		.file 23 "Drivers/lvgl/src/themes/../core/../display/lv_display.h"
 686              		.file 24 "Drivers/lvgl/src/themes/../core/lv_obj_tree.h"
ARM GAS  /var/folders/qx/2_175_4n2s19vhvtspjhb3qh0000gn/T//ccSbJ76u.s 			page 18

