ARM GAS  /var/folders/qx/2_175_4n2s19vhvtspjhb3qh0000gn/T//ccCgYYl4.s 			page 1


   1              		.cpu cortex-m4
   2              		.arch armv7e-m
   3              		.fpu fpv4-sp-d16
   4              		.eabi_attribute 27, 1
   5              		.eabi_attribute 28, 1
   6              		.eabi_attribute 20, 1
   7              		.eabi_attribute 21, 1
   8              		.eabi_attribute 23, 3
   9              		.eabi_attribute 24, 1
  10              		.eabi_attribute 25, 1
  11              		.eabi_attribute 26, 1
  12              		.eabi_attribute 30, 1
  13              		.eabi_attribute 34, 1
  14              		.eabi_attribute 18, 4
  15              		.file	"lv_msgbox.c"
  16              		.text
  17              	.Ltext0:
  18              		.cfi_sections	.debug_frame
  19              		.file 1 "Drivers/lvgl/src/widgets/msgbox/lv_msgbox.c"
  20              		.section	.text.lv_msgbox_create,"ax",%progbits
  21              		.align	1
  22              		.global	lv_msgbox_create
  23              		.syntax unified
  24              		.thumb
  25              		.thumb_func
  27              	lv_msgbox_create:
  28              	.LVL0:
  29              	.LFB181:
   1:Drivers/lvgl/src/widgets/msgbox/lv_msgbox.c **** /**
   2:Drivers/lvgl/src/widgets/msgbox/lv_msgbox.c ****  * @file lv_msgbox.c
   3:Drivers/lvgl/src/widgets/msgbox/lv_msgbox.c ****  *
   4:Drivers/lvgl/src/widgets/msgbox/lv_msgbox.c ****  */
   5:Drivers/lvgl/src/widgets/msgbox/lv_msgbox.c **** 
   6:Drivers/lvgl/src/widgets/msgbox/lv_msgbox.c **** /*********************
   7:Drivers/lvgl/src/widgets/msgbox/lv_msgbox.c ****  *      INCLUDES
   8:Drivers/lvgl/src/widgets/msgbox/lv_msgbox.c ****  *********************/
   9:Drivers/lvgl/src/widgets/msgbox/lv_msgbox.c **** #include "lv_msgbox_private.h"
  10:Drivers/lvgl/src/widgets/msgbox/lv_msgbox.c **** #include "../../core/lv_obj_private.h"
  11:Drivers/lvgl/src/widgets/msgbox/lv_msgbox.c **** #include "../../core/lv_obj_class_private.h"
  12:Drivers/lvgl/src/widgets/msgbox/lv_msgbox.c **** #if LV_USE_MSGBOX
  13:Drivers/lvgl/src/widgets/msgbox/lv_msgbox.c **** 
  14:Drivers/lvgl/src/widgets/msgbox/lv_msgbox.c **** #include "../label/lv_label.h"
  15:Drivers/lvgl/src/widgets/msgbox/lv_msgbox.c **** #include "../image/lv_image.h"
  16:Drivers/lvgl/src/widgets/msgbox/lv_msgbox.c **** #include "../../misc/lv_assert.h"
  17:Drivers/lvgl/src/widgets/msgbox/lv_msgbox.c **** #include "../../display/lv_display.h"
  18:Drivers/lvgl/src/widgets/msgbox/lv_msgbox.c **** #include "../../layouts/flex/lv_flex.h"
  19:Drivers/lvgl/src/widgets/msgbox/lv_msgbox.c **** #include "../../stdlib/lv_string.h"
  20:Drivers/lvgl/src/widgets/msgbox/lv_msgbox.c **** 
  21:Drivers/lvgl/src/widgets/msgbox/lv_msgbox.c **** #if LV_USE_LABEL == 0
  22:Drivers/lvgl/src/widgets/msgbox/lv_msgbox.c ****     #error "lv_mbox: lv_label is required. Enable it in lv_conf.h (LV_USE_LABEL  1) "
  23:Drivers/lvgl/src/widgets/msgbox/lv_msgbox.c **** #endif
  24:Drivers/lvgl/src/widgets/msgbox/lv_msgbox.c **** 
  25:Drivers/lvgl/src/widgets/msgbox/lv_msgbox.c **** /*********************
  26:Drivers/lvgl/src/widgets/msgbox/lv_msgbox.c ****  *      DEFINES
  27:Drivers/lvgl/src/widgets/msgbox/lv_msgbox.c ****  *********************/
  28:Drivers/lvgl/src/widgets/msgbox/lv_msgbox.c **** #define LV_MSGBOX_FLAG_AUTO_PARENT  LV_OBJ_FLAG_WIDGET_1        /*Mark that the parent was automati
  29:Drivers/lvgl/src/widgets/msgbox/lv_msgbox.c **** #define MY_CLASS (&lv_msgbox_class)
ARM GAS  /var/folders/qx/2_175_4n2s19vhvtspjhb3qh0000gn/T//ccCgYYl4.s 			page 2


  30:Drivers/lvgl/src/widgets/msgbox/lv_msgbox.c **** 
  31:Drivers/lvgl/src/widgets/msgbox/lv_msgbox.c **** /**********************
  32:Drivers/lvgl/src/widgets/msgbox/lv_msgbox.c ****  *      TYPEDEFS
  33:Drivers/lvgl/src/widgets/msgbox/lv_msgbox.c ****  **********************/
  34:Drivers/lvgl/src/widgets/msgbox/lv_msgbox.c **** 
  35:Drivers/lvgl/src/widgets/msgbox/lv_msgbox.c **** /**********************
  36:Drivers/lvgl/src/widgets/msgbox/lv_msgbox.c ****  *  STATIC PROTOTYPES
  37:Drivers/lvgl/src/widgets/msgbox/lv_msgbox.c ****  **********************/
  38:Drivers/lvgl/src/widgets/msgbox/lv_msgbox.c **** static void msgbox_close_click_event_cb(lv_event_t * e);
  39:Drivers/lvgl/src/widgets/msgbox/lv_msgbox.c **** static void msgbox_size_changed_event_cb(lv_event_t * e);
  40:Drivers/lvgl/src/widgets/msgbox/lv_msgbox.c **** 
  41:Drivers/lvgl/src/widgets/msgbox/lv_msgbox.c **** /**********************
  42:Drivers/lvgl/src/widgets/msgbox/lv_msgbox.c ****  *  STATIC VARIABLES
  43:Drivers/lvgl/src/widgets/msgbox/lv_msgbox.c ****  **********************/
  44:Drivers/lvgl/src/widgets/msgbox/lv_msgbox.c **** const lv_obj_class_t lv_msgbox_class = {
  45:Drivers/lvgl/src/widgets/msgbox/lv_msgbox.c ****     .base_class = &lv_obj_class,
  46:Drivers/lvgl/src/widgets/msgbox/lv_msgbox.c ****     .width_def = LV_DPI_DEF * 2,
  47:Drivers/lvgl/src/widgets/msgbox/lv_msgbox.c ****     .height_def = LV_SIZE_CONTENT,
  48:Drivers/lvgl/src/widgets/msgbox/lv_msgbox.c ****     .instance_size = sizeof(lv_msgbox_t),
  49:Drivers/lvgl/src/widgets/msgbox/lv_msgbox.c ****     .name = "lv_msgbox",
  50:Drivers/lvgl/src/widgets/msgbox/lv_msgbox.c **** };
  51:Drivers/lvgl/src/widgets/msgbox/lv_msgbox.c **** 
  52:Drivers/lvgl/src/widgets/msgbox/lv_msgbox.c **** const lv_obj_class_t lv_msgbox_header_class = {
  53:Drivers/lvgl/src/widgets/msgbox/lv_msgbox.c ****     .base_class = &lv_obj_class,
  54:Drivers/lvgl/src/widgets/msgbox/lv_msgbox.c ****     .width_def = LV_PCT(100),
  55:Drivers/lvgl/src/widgets/msgbox/lv_msgbox.c ****     .height_def = LV_DPI_DEF / 3,
  56:Drivers/lvgl/src/widgets/msgbox/lv_msgbox.c ****     .instance_size = sizeof(lv_obj_t),
  57:Drivers/lvgl/src/widgets/msgbox/lv_msgbox.c ****     .name = "lv_msgbox_header",
  58:Drivers/lvgl/src/widgets/msgbox/lv_msgbox.c **** };
  59:Drivers/lvgl/src/widgets/msgbox/lv_msgbox.c **** 
  60:Drivers/lvgl/src/widgets/msgbox/lv_msgbox.c **** const lv_obj_class_t lv_msgbox_content_class = {
  61:Drivers/lvgl/src/widgets/msgbox/lv_msgbox.c ****     .base_class = &lv_obj_class,
  62:Drivers/lvgl/src/widgets/msgbox/lv_msgbox.c ****     .width_def = LV_PCT(100),
  63:Drivers/lvgl/src/widgets/msgbox/lv_msgbox.c ****     .height_def = LV_SIZE_CONTENT,
  64:Drivers/lvgl/src/widgets/msgbox/lv_msgbox.c ****     .instance_size = sizeof(lv_obj_t),
  65:Drivers/lvgl/src/widgets/msgbox/lv_msgbox.c ****     .name = "lv_msgbox_content",
  66:Drivers/lvgl/src/widgets/msgbox/lv_msgbox.c **** };
  67:Drivers/lvgl/src/widgets/msgbox/lv_msgbox.c **** 
  68:Drivers/lvgl/src/widgets/msgbox/lv_msgbox.c **** const lv_obj_class_t lv_msgbox_footer_class = {
  69:Drivers/lvgl/src/widgets/msgbox/lv_msgbox.c ****     .base_class = &lv_obj_class,
  70:Drivers/lvgl/src/widgets/msgbox/lv_msgbox.c ****     .width_def = LV_PCT(100),
  71:Drivers/lvgl/src/widgets/msgbox/lv_msgbox.c ****     .height_def = LV_DPI_DEF / 3,
  72:Drivers/lvgl/src/widgets/msgbox/lv_msgbox.c ****     .instance_size = sizeof(lv_obj_t),
  73:Drivers/lvgl/src/widgets/msgbox/lv_msgbox.c ****     .name = "lv_msgbox_footer",
  74:Drivers/lvgl/src/widgets/msgbox/lv_msgbox.c **** };
  75:Drivers/lvgl/src/widgets/msgbox/lv_msgbox.c **** 
  76:Drivers/lvgl/src/widgets/msgbox/lv_msgbox.c **** const lv_obj_class_t lv_msgbox_footer_button_class = {
  77:Drivers/lvgl/src/widgets/msgbox/lv_msgbox.c ****     .base_class = &lv_obj_class,
  78:Drivers/lvgl/src/widgets/msgbox/lv_msgbox.c ****     .width_def = LV_SIZE_CONTENT,
  79:Drivers/lvgl/src/widgets/msgbox/lv_msgbox.c ****     .height_def = LV_PCT(100),
  80:Drivers/lvgl/src/widgets/msgbox/lv_msgbox.c ****     .instance_size = sizeof(lv_obj_t),
  81:Drivers/lvgl/src/widgets/msgbox/lv_msgbox.c ****     .group_def = LV_OBJ_CLASS_GROUP_DEF_TRUE,
  82:Drivers/lvgl/src/widgets/msgbox/lv_msgbox.c ****     .name = "lv_msgbox_footer_button",
  83:Drivers/lvgl/src/widgets/msgbox/lv_msgbox.c **** };
  84:Drivers/lvgl/src/widgets/msgbox/lv_msgbox.c **** 
  85:Drivers/lvgl/src/widgets/msgbox/lv_msgbox.c **** const lv_obj_class_t lv_msgbox_header_button_class = {
  86:Drivers/lvgl/src/widgets/msgbox/lv_msgbox.c ****     .base_class = &lv_obj_class,
ARM GAS  /var/folders/qx/2_175_4n2s19vhvtspjhb3qh0000gn/T//ccCgYYl4.s 			page 3


  87:Drivers/lvgl/src/widgets/msgbox/lv_msgbox.c ****     .width_def = LV_DPI_DEF / 3,
  88:Drivers/lvgl/src/widgets/msgbox/lv_msgbox.c ****     .height_def = LV_PCT(100),
  89:Drivers/lvgl/src/widgets/msgbox/lv_msgbox.c ****     .instance_size = sizeof(lv_obj_t),
  90:Drivers/lvgl/src/widgets/msgbox/lv_msgbox.c ****     .group_def = LV_OBJ_CLASS_GROUP_DEF_TRUE,
  91:Drivers/lvgl/src/widgets/msgbox/lv_msgbox.c ****     .name = "lv_msgbox_header_button",
  92:Drivers/lvgl/src/widgets/msgbox/lv_msgbox.c **** };
  93:Drivers/lvgl/src/widgets/msgbox/lv_msgbox.c **** 
  94:Drivers/lvgl/src/widgets/msgbox/lv_msgbox.c **** const lv_obj_class_t lv_msgbox_backdrop_class = {
  95:Drivers/lvgl/src/widgets/msgbox/lv_msgbox.c ****     .base_class = &lv_obj_class,
  96:Drivers/lvgl/src/widgets/msgbox/lv_msgbox.c ****     .width_def = LV_PCT(100),
  97:Drivers/lvgl/src/widgets/msgbox/lv_msgbox.c ****     .height_def = LV_PCT(100),
  98:Drivers/lvgl/src/widgets/msgbox/lv_msgbox.c ****     .instance_size = sizeof(lv_obj_t),
  99:Drivers/lvgl/src/widgets/msgbox/lv_msgbox.c ****     .name = "lv_msgbox_backdrop",
 100:Drivers/lvgl/src/widgets/msgbox/lv_msgbox.c **** };
 101:Drivers/lvgl/src/widgets/msgbox/lv_msgbox.c **** 
 102:Drivers/lvgl/src/widgets/msgbox/lv_msgbox.c **** /**********************
 103:Drivers/lvgl/src/widgets/msgbox/lv_msgbox.c ****  *      MACROS
 104:Drivers/lvgl/src/widgets/msgbox/lv_msgbox.c ****  **********************/
 105:Drivers/lvgl/src/widgets/msgbox/lv_msgbox.c **** 
 106:Drivers/lvgl/src/widgets/msgbox/lv_msgbox.c **** /**********************
 107:Drivers/lvgl/src/widgets/msgbox/lv_msgbox.c ****  *   GLOBAL FUNCTIONS
 108:Drivers/lvgl/src/widgets/msgbox/lv_msgbox.c ****  **********************/
 109:Drivers/lvgl/src/widgets/msgbox/lv_msgbox.c **** 
 110:Drivers/lvgl/src/widgets/msgbox/lv_msgbox.c **** lv_obj_t * lv_msgbox_create(lv_obj_t * parent)
 111:Drivers/lvgl/src/widgets/msgbox/lv_msgbox.c **** {
  30              		.loc 1 111 1 view -0
  31              		.cfi_startproc
  32              		@ args = 0, pretend = 0, frame = 0
  33              		@ frame_needed = 0, uses_anonymous_args = 0
  34              		.loc 1 111 1 is_stmt 0 view .LVU1
  35 0000 38B5     		push	{r3, r4, r5, lr}
  36              	.LCFI0:
  37              		.cfi_def_cfa_offset 16
  38              		.cfi_offset 3, -16
  39              		.cfi_offset 4, -12
  40              		.cfi_offset 5, -8
  41              		.cfi_offset 14, -4
 112:Drivers/lvgl/src/widgets/msgbox/lv_msgbox.c ****     LV_LOG_INFO("begin");
  42              		.loc 1 112 5 is_stmt 1 view .LVU2
  43              		.loc 1 112 5 view .LVU3
  44              		.loc 1 112 5 view .LVU4
 113:Drivers/lvgl/src/widgets/msgbox/lv_msgbox.c ****     bool auto_parent = false;
  45              		.loc 1 113 5 view .LVU5
  46              	.LVL1:
 114:Drivers/lvgl/src/widgets/msgbox/lv_msgbox.c ****     if(parent == NULL) {
  47              		.loc 1 114 5 view .LVU6
  48              		.loc 1 114 7 is_stmt 0 view .LVU7
  49 0002 28B3     		cbz	r0, .L12
  50 0004 0446     		mov	r4, r0
 113:Drivers/lvgl/src/widgets/msgbox/lv_msgbox.c ****     bool auto_parent = false;
  51              		.loc 1 113 10 view .LVU8
  52 0006 0025     		movs	r5, #0
  53              	.LVL2:
  54              	.L2:
 115:Drivers/lvgl/src/widgets/msgbox/lv_msgbox.c ****         auto_parent = true;
 116:Drivers/lvgl/src/widgets/msgbox/lv_msgbox.c ****         parent = lv_obj_class_create_obj(&lv_msgbox_backdrop_class, lv_layer_top());
 117:Drivers/lvgl/src/widgets/msgbox/lv_msgbox.c ****         LV_ASSERT_MALLOC(parent);
ARM GAS  /var/folders/qx/2_175_4n2s19vhvtspjhb3qh0000gn/T//ccCgYYl4.s 			page 4


 118:Drivers/lvgl/src/widgets/msgbox/lv_msgbox.c ****         lv_obj_class_init_obj(parent);
 119:Drivers/lvgl/src/widgets/msgbox/lv_msgbox.c ****         lv_obj_remove_flag(parent, LV_OBJ_FLAG_IGNORE_LAYOUT);
 120:Drivers/lvgl/src/widgets/msgbox/lv_msgbox.c ****         lv_obj_set_size(parent, LV_PCT(100), LV_PCT(100));
 121:Drivers/lvgl/src/widgets/msgbox/lv_msgbox.c ****     }
 122:Drivers/lvgl/src/widgets/msgbox/lv_msgbox.c **** 
 123:Drivers/lvgl/src/widgets/msgbox/lv_msgbox.c ****     lv_obj_t * obj = lv_obj_class_create_obj(&lv_msgbox_class, parent);
  55              		.loc 1 123 5 is_stmt 1 view .LVU9
  56              		.loc 1 123 22 is_stmt 0 view .LVU10
  57 0008 2146     		mov	r1, r4
  58 000a 2148     		ldr	r0, .L14
  59 000c FFF7FEFF 		bl	lv_obj_class_create_obj
  60              	.LVL3:
 124:Drivers/lvgl/src/widgets/msgbox/lv_msgbox.c ****     LV_ASSERT_MALLOC(obj);
  61              		.loc 1 124 5 is_stmt 1 view .LVU11
  62              		.loc 1 124 5 view .LVU12
  63 0010 0446     		mov	r4, r0
  64              	.LVL4:
  65              		.loc 1 124 5 is_stmt 0 view .LVU13
  66 0012 A0B3     		cbz	r0, .L6
  67              		.loc 1 124 5 is_stmt 1 view .LVU14
  68              		.loc 1 124 26 view .LVU15
 125:Drivers/lvgl/src/widgets/msgbox/lv_msgbox.c ****     if(obj == NULL) return NULL;
  69              		.loc 1 125 5 view .LVU16
 126:Drivers/lvgl/src/widgets/msgbox/lv_msgbox.c ****     lv_obj_class_init_obj(obj);
  70              		.loc 1 126 5 view .LVU17
  71 0014 FFF7FEFF 		bl	lv_obj_class_init_obj
  72              	.LVL5:
 127:Drivers/lvgl/src/widgets/msgbox/lv_msgbox.c ****     lv_msgbox_t * mbox = (lv_msgbox_t *)obj;
  73              		.loc 1 127 5 view .LVU18
 128:Drivers/lvgl/src/widgets/msgbox/lv_msgbox.c ****     lv_obj_set_flex_flow(obj, LV_FLEX_FLOW_COLUMN);
  74              		.loc 1 128 5 view .LVU19
  75 0018 0121     		movs	r1, #1
  76 001a 2046     		mov	r0, r4
  77 001c FFF7FEFF 		bl	lv_obj_set_flex_flow
  78              	.LVL6:
 129:Drivers/lvgl/src/widgets/msgbox/lv_msgbox.c **** 
 130:Drivers/lvgl/src/widgets/msgbox/lv_msgbox.c ****     if(auto_parent) lv_obj_add_flag(obj, LV_MSGBOX_FLAG_AUTO_PARENT);
  79              		.loc 1 130 5 view .LVU20
  80              		.loc 1 130 7 is_stmt 0 view .LVU21
  81 0020 75BB     		cbnz	r5, .L13
  82              	.L7:
 131:Drivers/lvgl/src/widgets/msgbox/lv_msgbox.c **** 
 132:Drivers/lvgl/src/widgets/msgbox/lv_msgbox.c ****     mbox->content = lv_obj_class_create_obj(&lv_msgbox_content_class, obj);
  83              		.loc 1 132 5 is_stmt 1 view .LVU22
  84              		.loc 1 132 21 is_stmt 0 view .LVU23
  85 0022 2146     		mov	r1, r4
  86 0024 1B48     		ldr	r0, .L14+4
  87 0026 FFF7FEFF 		bl	lv_obj_class_create_obj
  88              	.LVL7:
  89              		.loc 1 132 19 discriminator 1 view .LVU24
  90 002a 2063     		str	r0, [r4, #48]
 133:Drivers/lvgl/src/widgets/msgbox/lv_msgbox.c ****     LV_ASSERT_MALLOC(mbox->content);
  91              		.loc 1 133 5 is_stmt 1 view .LVU25
  92              		.loc 1 133 5 view .LVU26
  93 002c 70B3     		cbz	r0, .L9
  94              		.loc 1 133 5 view .LVU27
  95              		.loc 1 133 36 view .LVU28
ARM GAS  /var/folders/qx/2_175_4n2s19vhvtspjhb3qh0000gn/T//ccCgYYl4.s 			page 5


 134:Drivers/lvgl/src/widgets/msgbox/lv_msgbox.c ****     if(mbox->content == NULL) {
  96              		.loc 1 134 5 view .LVU29
 135:Drivers/lvgl/src/widgets/msgbox/lv_msgbox.c ****         lv_obj_delete(obj);
 136:Drivers/lvgl/src/widgets/msgbox/lv_msgbox.c ****         return NULL;
 137:Drivers/lvgl/src/widgets/msgbox/lv_msgbox.c ****     }
 138:Drivers/lvgl/src/widgets/msgbox/lv_msgbox.c ****     lv_obj_class_init_obj(mbox->content);
  97              		.loc 1 138 5 view .LVU30
  98 002e FFF7FEFF 		bl	lv_obj_class_init_obj
  99              	.LVL8:
 139:Drivers/lvgl/src/widgets/msgbox/lv_msgbox.c ****     lv_obj_set_flex_flow(mbox->content, LV_FLEX_FLOW_COLUMN);
 100              		.loc 1 139 5 view .LVU31
 101 0032 0121     		movs	r1, #1
 102 0034 206B     		ldr	r0, [r4, #48]
 103 0036 FFF7FEFF 		bl	lv_obj_set_flex_flow
 104              	.LVL9:
 140:Drivers/lvgl/src/widgets/msgbox/lv_msgbox.c ****     lv_obj_add_event_cb(obj, msgbox_size_changed_event_cb, LV_EVENT_SIZE_CHANGED, 0);
 105              		.loc 1 140 5 view .LVU32
 106 003a 0023     		movs	r3, #0
 107 003c 3222     		movs	r2, #50
 108 003e 1649     		ldr	r1, .L14+8
 109 0040 2046     		mov	r0, r4
 110 0042 FFF7FEFF 		bl	lv_obj_add_event_cb
 111              	.LVL10:
 141:Drivers/lvgl/src/widgets/msgbox/lv_msgbox.c **** 
 142:Drivers/lvgl/src/widgets/msgbox/lv_msgbox.c ****     lv_obj_center(obj);
 112              		.loc 1 142 5 view .LVU33
 113 0046 2046     		mov	r0, r4
 114 0048 FFF7FEFF 		bl	lv_obj_center
 115              	.LVL11:
 143:Drivers/lvgl/src/widgets/msgbox/lv_msgbox.c ****     return obj;
 116              		.loc 1 143 5 view .LVU34
 144:Drivers/lvgl/src/widgets/msgbox/lv_msgbox.c **** }
 117              		.loc 1 144 1 is_stmt 0 view .LVU35
 118 004c 2046     		mov	r0, r4
 119 004e 38BD     		pop	{r3, r4, r5, pc}
 120              	.LVL12:
 121              	.L12:
 115:Drivers/lvgl/src/widgets/msgbox/lv_msgbox.c ****         parent = lv_obj_class_create_obj(&lv_msgbox_backdrop_class, lv_layer_top());
 122              		.loc 1 115 9 is_stmt 1 view .LVU36
 116:Drivers/lvgl/src/widgets/msgbox/lv_msgbox.c ****         LV_ASSERT_MALLOC(parent);
 123              		.loc 1 116 9 view .LVU37
 116:Drivers/lvgl/src/widgets/msgbox/lv_msgbox.c ****         LV_ASSERT_MALLOC(parent);
 124              		.loc 1 116 18 is_stmt 0 view .LVU38
 125 0050 FFF7FEFF 		bl	lv_layer_top
 126              	.LVL13:
 116:Drivers/lvgl/src/widgets/msgbox/lv_msgbox.c ****         LV_ASSERT_MALLOC(parent);
 127              		.loc 1 116 18 view .LVU39
 128 0054 0146     		mov	r1, r0
 116:Drivers/lvgl/src/widgets/msgbox/lv_msgbox.c ****         LV_ASSERT_MALLOC(parent);
 129              		.loc 1 116 18 discriminator 1 view .LVU40
 130 0056 1148     		ldr	r0, .L14+12
 131 0058 FFF7FEFF 		bl	lv_obj_class_create_obj
 132              	.LVL14:
 117:Drivers/lvgl/src/widgets/msgbox/lv_msgbox.c ****         lv_obj_class_init_obj(parent);
 133              		.loc 1 117 9 is_stmt 1 view .LVU41
 117:Drivers/lvgl/src/widgets/msgbox/lv_msgbox.c ****         lv_obj_class_init_obj(parent);
 134              		.loc 1 117 9 view .LVU42
ARM GAS  /var/folders/qx/2_175_4n2s19vhvtspjhb3qh0000gn/T//ccCgYYl4.s 			page 6


 135 005c 0446     		mov	r4, r0
 136 005e 68B1     		cbz	r0, .L4
 117:Drivers/lvgl/src/widgets/msgbox/lv_msgbox.c ****         lv_obj_class_init_obj(parent);
 137              		.loc 1 117 9 view .LVU43
 117:Drivers/lvgl/src/widgets/msgbox/lv_msgbox.c ****         lv_obj_class_init_obj(parent);
 138              		.loc 1 117 33 view .LVU44
 118:Drivers/lvgl/src/widgets/msgbox/lv_msgbox.c ****         lv_obj_remove_flag(parent, LV_OBJ_FLAG_IGNORE_LAYOUT);
 139              		.loc 1 118 9 view .LVU45
 140 0060 FFF7FEFF 		bl	lv_obj_class_init_obj
 141              	.LVL15:
 119:Drivers/lvgl/src/widgets/msgbox/lv_msgbox.c ****         lv_obj_set_size(parent, LV_PCT(100), LV_PCT(100));
 142              		.loc 1 119 9 view .LVU46
 143 0064 4FF40031 		mov	r1, #131072
 144 0068 2046     		mov	r0, r4
 145 006a FFF7FEFF 		bl	lv_obj_remove_flag
 146              	.LVL16:
 120:Drivers/lvgl/src/widgets/msgbox/lv_msgbox.c ****     }
 147              		.loc 1 120 9 view .LVU47
 148 006e 0C49     		ldr	r1, .L14+16
 149 0070 0A46     		mov	r2, r1
 150 0072 2046     		mov	r0, r4
 151 0074 FFF7FEFF 		bl	lv_obj_set_size
 152              	.LVL17:
 115:Drivers/lvgl/src/widgets/msgbox/lv_msgbox.c ****         parent = lv_obj_class_create_obj(&lv_msgbox_backdrop_class, lv_layer_top());
 153              		.loc 1 115 21 is_stmt 0 view .LVU48
 154 0078 0125     		movs	r5, #1
 155 007a C5E7     		b	.L2
 156              	.LVL18:
 157              	.L4:
 117:Drivers/lvgl/src/widgets/msgbox/lv_msgbox.c ****         lv_obj_class_init_obj(parent);
 158              		.loc 1 117 9 is_stmt 1 view .LVU49
 117:Drivers/lvgl/src/widgets/msgbox/lv_msgbox.c ****         lv_obj_class_init_obj(parent);
 159              		.loc 1 117 9 view .LVU50
 117:Drivers/lvgl/src/widgets/msgbox/lv_msgbox.c ****         lv_obj_class_init_obj(parent);
 160              		.loc 1 117 9 view .LVU51
 117:Drivers/lvgl/src/widgets/msgbox/lv_msgbox.c ****         lv_obj_class_init_obj(parent);
 161              		.loc 1 117 9 view .LVU52
 117:Drivers/lvgl/src/widgets/msgbox/lv_msgbox.c ****         lv_obj_class_init_obj(parent);
 162              		.loc 1 117 9 view .LVU53
 163 007c FEE7     		b	.L4
 164              	.LVL19:
 165              	.L6:
 124:Drivers/lvgl/src/widgets/msgbox/lv_msgbox.c ****     if(obj == NULL) return NULL;
 166              		.loc 1 124 5 view .LVU54
 124:Drivers/lvgl/src/widgets/msgbox/lv_msgbox.c ****     if(obj == NULL) return NULL;
 167              		.loc 1 124 5 view .LVU55
 124:Drivers/lvgl/src/widgets/msgbox/lv_msgbox.c ****     if(obj == NULL) return NULL;
 168              		.loc 1 124 5 view .LVU56
 124:Drivers/lvgl/src/widgets/msgbox/lv_msgbox.c ****     if(obj == NULL) return NULL;
 169              		.loc 1 124 5 view .LVU57
 124:Drivers/lvgl/src/widgets/msgbox/lv_msgbox.c ****     if(obj == NULL) return NULL;
 170              		.loc 1 124 5 view .LVU58
 171 007e FEE7     		b	.L6
 172              	.LVL20:
 173              	.L13:
 130:Drivers/lvgl/src/widgets/msgbox/lv_msgbox.c **** 
 174              		.loc 1 130 21 discriminator 1 view .LVU59
ARM GAS  /var/folders/qx/2_175_4n2s19vhvtspjhb3qh0000gn/T//ccCgYYl4.s 			page 7


 175 0080 4FF08061 		mov	r1, #67108864
 176 0084 2046     		mov	r0, r4
 177 0086 FFF7FEFF 		bl	lv_obj_add_flag
 178              	.LVL21:
 179 008a CAE7     		b	.L7
 180              	.L9:
 133:Drivers/lvgl/src/widgets/msgbox/lv_msgbox.c ****     if(mbox->content == NULL) {
 181              		.loc 1 133 5 view .LVU60
 133:Drivers/lvgl/src/widgets/msgbox/lv_msgbox.c ****     if(mbox->content == NULL) {
 182              		.loc 1 133 5 view .LVU61
 133:Drivers/lvgl/src/widgets/msgbox/lv_msgbox.c ****     if(mbox->content == NULL) {
 183              		.loc 1 133 5 view .LVU62
 133:Drivers/lvgl/src/widgets/msgbox/lv_msgbox.c ****     if(mbox->content == NULL) {
 184              		.loc 1 133 5 view .LVU63
 133:Drivers/lvgl/src/widgets/msgbox/lv_msgbox.c ****     if(mbox->content == NULL) {
 185              		.loc 1 133 5 view .LVU64
 186 008c FEE7     		b	.L9
 187              	.L15:
 188 008e 00BF     		.align	2
 189              	.L14:
 190 0090 00000000 		.word	lv_msgbox_class
 191 0094 00000000 		.word	lv_msgbox_content_class
 192 0098 00000000 		.word	msgbox_size_changed_event_cb
 193 009c 00000000 		.word	lv_msgbox_backdrop_class
 194 00a0 64000020 		.word	536871012
 195              		.cfi_endproc
 196              	.LFE181:
 198              		.section	.text.lv_msgbox_add_title,"ax",%progbits
 199              		.align	1
 200              		.global	lv_msgbox_add_title
 201              		.syntax unified
 202              		.thumb
 203              		.thumb_func
 205              	lv_msgbox_add_title:
 206              	.LVL22:
 207              	.LFB182:
 145:Drivers/lvgl/src/widgets/msgbox/lv_msgbox.c **** 
 146:Drivers/lvgl/src/widgets/msgbox/lv_msgbox.c **** lv_obj_t * lv_msgbox_add_title(lv_obj_t * obj, const char * title)
 147:Drivers/lvgl/src/widgets/msgbox/lv_msgbox.c **** {
 208              		.loc 1 147 1 view -0
 209              		.cfi_startproc
 210              		@ args = 0, pretend = 0, frame = 0
 211              		@ frame_needed = 0, uses_anonymous_args = 0
 212              		.loc 1 147 1 is_stmt 0 view .LVU66
 213 0000 F8B5     		push	{r3, r4, r5, r6, r7, lr}
 214              	.LCFI1:
 215              		.cfi_def_cfa_offset 24
 216              		.cfi_offset 3, -24
 217              		.cfi_offset 4, -20
 218              		.cfi_offset 5, -16
 219              		.cfi_offset 6, -12
 220              		.cfi_offset 7, -8
 221              		.cfi_offset 14, -4
 222 0002 0446     		mov	r4, r0
 223 0004 0D46     		mov	r5, r1
 148:Drivers/lvgl/src/widgets/msgbox/lv_msgbox.c ****     lv_msgbox_t * mbox = (lv_msgbox_t *)obj;
 224              		.loc 1 148 5 is_stmt 1 view .LVU67
ARM GAS  /var/folders/qx/2_175_4n2s19vhvtspjhb3qh0000gn/T//ccCgYYl4.s 			page 8


 225              	.LVL23:
 149:Drivers/lvgl/src/widgets/msgbox/lv_msgbox.c ****     if(mbox->header == NULL) {
 226              		.loc 1 149 5 view .LVU68
 227              		.loc 1 149 12 is_stmt 0 view .LVU69
 228 0006 C36A     		ldr	r3, [r0, #44]
 229              		.loc 1 149 7 view .LVU70
 230 0008 3BB1     		cbz	r3, .L22
 231              	.LVL24:
 232              	.L17:
 150:Drivers/lvgl/src/widgets/msgbox/lv_msgbox.c ****         mbox->header = lv_obj_class_create_obj(&lv_msgbox_header_class, obj);
 151:Drivers/lvgl/src/widgets/msgbox/lv_msgbox.c ****         LV_ASSERT_MALLOC(mbox->header);
 152:Drivers/lvgl/src/widgets/msgbox/lv_msgbox.c ****         if(mbox->header == NULL) return NULL;
 153:Drivers/lvgl/src/widgets/msgbox/lv_msgbox.c ****         lv_obj_class_init_obj(mbox->header);
 154:Drivers/lvgl/src/widgets/msgbox/lv_msgbox.c **** 
 155:Drivers/lvgl/src/widgets/msgbox/lv_msgbox.c ****         lv_obj_set_size(mbox->header, lv_pct(100), lv_display_get_dpi(lv_obj_get_display(obj)) / 3)
 156:Drivers/lvgl/src/widgets/msgbox/lv_msgbox.c ****         lv_obj_set_flex_flow(mbox->header, LV_FLEX_FLOW_ROW);
 157:Drivers/lvgl/src/widgets/msgbox/lv_msgbox.c ****         lv_obj_set_flex_align(mbox->header, LV_FLEX_ALIGN_START, LV_FLEX_ALIGN_CENTER, LV_FLEX_ALIG
 158:Drivers/lvgl/src/widgets/msgbox/lv_msgbox.c ****         lv_obj_remove_flag(mbox->header, LV_OBJ_FLAG_SCROLLABLE);
 159:Drivers/lvgl/src/widgets/msgbox/lv_msgbox.c ****         lv_obj_move_to_index(mbox->header, 0);
 160:Drivers/lvgl/src/widgets/msgbox/lv_msgbox.c ****     }
 161:Drivers/lvgl/src/widgets/msgbox/lv_msgbox.c **** 
 162:Drivers/lvgl/src/widgets/msgbox/lv_msgbox.c ****     if(mbox->title == NULL) {
 233              		.loc 1 162 5 is_stmt 1 view .LVU71
 234              		.loc 1 162 12 is_stmt 0 view .LVU72
 235 000a A36B     		ldr	r3, [r4, #56]
 236              		.loc 1 162 7 view .LVU73
 237 000c A3B3     		cbz	r3, .L23
 238              	.L20:
 163:Drivers/lvgl/src/widgets/msgbox/lv_msgbox.c ****         mbox->title = lv_label_create(mbox->header);
 164:Drivers/lvgl/src/widgets/msgbox/lv_msgbox.c ****         lv_obj_set_flex_grow(mbox->title, 1);
 165:Drivers/lvgl/src/widgets/msgbox/lv_msgbox.c ****     }
 166:Drivers/lvgl/src/widgets/msgbox/lv_msgbox.c **** 
 167:Drivers/lvgl/src/widgets/msgbox/lv_msgbox.c ****     lv_label_set_text(mbox->title, title);
 239              		.loc 1 167 5 is_stmt 1 view .LVU74
 240 000e 2946     		mov	r1, r5
 241 0010 A06B     		ldr	r0, [r4, #56]
 242 0012 FFF7FEFF 		bl	lv_label_set_text
 243              	.LVL25:
 168:Drivers/lvgl/src/widgets/msgbox/lv_msgbox.c **** 
 169:Drivers/lvgl/src/widgets/msgbox/lv_msgbox.c ****     return mbox->title;
 244              		.loc 1 169 5 view .LVU75
 170:Drivers/lvgl/src/widgets/msgbox/lv_msgbox.c **** }
 245              		.loc 1 170 1 is_stmt 0 view .LVU76
 246 0016 A06B     		ldr	r0, [r4, #56]
 247 0018 F8BD     		pop	{r3, r4, r5, r6, r7, pc}
 248              	.LVL26:
 249              	.L22:
 150:Drivers/lvgl/src/widgets/msgbox/lv_msgbox.c ****         LV_ASSERT_MALLOC(mbox->header);
 250              		.loc 1 150 9 is_stmt 1 view .LVU77
 150:Drivers/lvgl/src/widgets/msgbox/lv_msgbox.c ****         LV_ASSERT_MALLOC(mbox->header);
 251              		.loc 1 150 24 is_stmt 0 view .LVU78
 252 001a 0146     		mov	r1, r0
 253              	.LVL27:
 150:Drivers/lvgl/src/widgets/msgbox/lv_msgbox.c ****         LV_ASSERT_MALLOC(mbox->header);
 254              		.loc 1 150 24 view .LVU79
 255 001c 1A48     		ldr	r0, .L24
 256              	.LVL28:
ARM GAS  /var/folders/qx/2_175_4n2s19vhvtspjhb3qh0000gn/T//ccCgYYl4.s 			page 9


 150:Drivers/lvgl/src/widgets/msgbox/lv_msgbox.c ****         LV_ASSERT_MALLOC(mbox->header);
 257              		.loc 1 150 24 view .LVU80
 258 001e FFF7FEFF 		bl	lv_obj_class_create_obj
 259              	.LVL29:
 150:Drivers/lvgl/src/widgets/msgbox/lv_msgbox.c ****         LV_ASSERT_MALLOC(mbox->header);
 260              		.loc 1 150 22 discriminator 1 view .LVU81
 261 0022 E062     		str	r0, [r4, #44]
 151:Drivers/lvgl/src/widgets/msgbox/lv_msgbox.c ****         if(mbox->header == NULL) return NULL;
 262              		.loc 1 151 9 is_stmt 1 view .LVU82
 151:Drivers/lvgl/src/widgets/msgbox/lv_msgbox.c ****         if(mbox->header == NULL) return NULL;
 263              		.loc 1 151 9 view .LVU83
 264 0024 38B3     		cbz	r0, .L19
 151:Drivers/lvgl/src/widgets/msgbox/lv_msgbox.c ****         if(mbox->header == NULL) return NULL;
 265              		.loc 1 151 9 view .LVU84
 151:Drivers/lvgl/src/widgets/msgbox/lv_msgbox.c ****         if(mbox->header == NULL) return NULL;
 266              		.loc 1 151 39 view .LVU85
 152:Drivers/lvgl/src/widgets/msgbox/lv_msgbox.c ****         lv_obj_class_init_obj(mbox->header);
 267              		.loc 1 152 9 view .LVU86
 153:Drivers/lvgl/src/widgets/msgbox/lv_msgbox.c **** 
 268              		.loc 1 153 9 view .LVU87
 269 0026 FFF7FEFF 		bl	lv_obj_class_init_obj
 270              	.LVL30:
 155:Drivers/lvgl/src/widgets/msgbox/lv_msgbox.c ****         lv_obj_set_flex_flow(mbox->header, LV_FLEX_FLOW_ROW);
 271              		.loc 1 155 9 view .LVU88
 272 002a E76A     		ldr	r7, [r4, #44]
 273 002c 6420     		movs	r0, #100
 274 002e FFF7FEFF 		bl	lv_pct
 275              	.LVL31:
 276 0032 0646     		mov	r6, r0
 155:Drivers/lvgl/src/widgets/msgbox/lv_msgbox.c ****         lv_obj_set_flex_flow(mbox->header, LV_FLEX_FLOW_ROW);
 277              		.loc 1 155 71 is_stmt 0 discriminator 1 view .LVU89
 278 0034 2046     		mov	r0, r4
 279 0036 FFF7FEFF 		bl	lv_obj_get_display
 280              	.LVL32:
 155:Drivers/lvgl/src/widgets/msgbox/lv_msgbox.c ****         lv_obj_set_flex_flow(mbox->header, LV_FLEX_FLOW_ROW);
 281              		.loc 1 155 52 discriminator 2 view .LVU90
 282 003a FFF7FEFF 		bl	lv_display_get_dpi
 283              	.LVL33:
 155:Drivers/lvgl/src/widgets/msgbox/lv_msgbox.c ****         lv_obj_set_flex_flow(mbox->header, LV_FLEX_FLOW_ROW);
 284              		.loc 1 155 9 discriminator 3 view .LVU91
 285 003e 134A     		ldr	r2, .L24+4
 286 0040 82FB0032 		smull	r3, r2, r2, r0
 287 0044 A2EBE072 		sub	r2, r2, r0, asr #31
 288 0048 3146     		mov	r1, r6
 289 004a 3846     		mov	r0, r7
 290 004c FFF7FEFF 		bl	lv_obj_set_size
 291              	.LVL34:
 156:Drivers/lvgl/src/widgets/msgbox/lv_msgbox.c ****         lv_obj_set_flex_align(mbox->header, LV_FLEX_ALIGN_START, LV_FLEX_ALIGN_CENTER, LV_FLEX_ALIG
 292              		.loc 1 156 9 is_stmt 1 view .LVU92
 293 0050 0021     		movs	r1, #0
 294 0052 E06A     		ldr	r0, [r4, #44]
 295 0054 FFF7FEFF 		bl	lv_obj_set_flex_flow
 296              	.LVL35:
 157:Drivers/lvgl/src/widgets/msgbox/lv_msgbox.c ****         lv_obj_remove_flag(mbox->header, LV_OBJ_FLAG_SCROLLABLE);
 297              		.loc 1 157 9 view .LVU93
 298 0058 0223     		movs	r3, #2
 299 005a 1A46     		mov	r2, r3
ARM GAS  /var/folders/qx/2_175_4n2s19vhvtspjhb3qh0000gn/T//ccCgYYl4.s 			page 10


 300 005c 0021     		movs	r1, #0
 301 005e E06A     		ldr	r0, [r4, #44]
 302 0060 FFF7FEFF 		bl	lv_obj_set_flex_align
 303              	.LVL36:
 158:Drivers/lvgl/src/widgets/msgbox/lv_msgbox.c ****         lv_obj_move_to_index(mbox->header, 0);
 304              		.loc 1 158 9 view .LVU94
 305 0064 1021     		movs	r1, #16
 306 0066 E06A     		ldr	r0, [r4, #44]
 307 0068 FFF7FEFF 		bl	lv_obj_remove_flag
 308              	.LVL37:
 159:Drivers/lvgl/src/widgets/msgbox/lv_msgbox.c ****     }
 309              		.loc 1 159 9 view .LVU95
 310 006c 0021     		movs	r1, #0
 311 006e E06A     		ldr	r0, [r4, #44]
 312 0070 FFF7FEFF 		bl	lv_obj_move_to_index
 313              	.LVL38:
 314 0074 C9E7     		b	.L17
 315              	.L19:
 151:Drivers/lvgl/src/widgets/msgbox/lv_msgbox.c ****         if(mbox->header == NULL) return NULL;
 316              		.loc 1 151 9 view .LVU96
 151:Drivers/lvgl/src/widgets/msgbox/lv_msgbox.c ****         if(mbox->header == NULL) return NULL;
 317              		.loc 1 151 9 view .LVU97
 151:Drivers/lvgl/src/widgets/msgbox/lv_msgbox.c ****         if(mbox->header == NULL) return NULL;
 318              		.loc 1 151 9 view .LVU98
 151:Drivers/lvgl/src/widgets/msgbox/lv_msgbox.c ****         if(mbox->header == NULL) return NULL;
 319              		.loc 1 151 9 view .LVU99
 151:Drivers/lvgl/src/widgets/msgbox/lv_msgbox.c ****         if(mbox->header == NULL) return NULL;
 320              		.loc 1 151 9 view .LVU100
 321 0076 FEE7     		b	.L19
 322              	.L23:
 163:Drivers/lvgl/src/widgets/msgbox/lv_msgbox.c ****         lv_obj_set_flex_grow(mbox->title, 1);
 323              		.loc 1 163 9 view .LVU101
 163:Drivers/lvgl/src/widgets/msgbox/lv_msgbox.c ****         lv_obj_set_flex_grow(mbox->title, 1);
 324              		.loc 1 163 23 is_stmt 0 view .LVU102
 325 0078 E06A     		ldr	r0, [r4, #44]
 326 007a FFF7FEFF 		bl	lv_label_create
 327              	.LVL39:
 163:Drivers/lvgl/src/widgets/msgbox/lv_msgbox.c ****         lv_obj_set_flex_grow(mbox->title, 1);
 328              		.loc 1 163 21 discriminator 1 view .LVU103
 329 007e A063     		str	r0, [r4, #56]
 164:Drivers/lvgl/src/widgets/msgbox/lv_msgbox.c ****     }
 330              		.loc 1 164 9 is_stmt 1 view .LVU104
 331 0080 0121     		movs	r1, #1
 332 0082 FFF7FEFF 		bl	lv_obj_set_flex_grow
 333              	.LVL40:
 334 0086 C2E7     		b	.L20
 335              	.L25:
 336              		.align	2
 337              	.L24:
 338 0088 00000000 		.word	lv_msgbox_header_class
 339 008c 56555555 		.word	1431655766
 340              		.cfi_endproc
 341              	.LFE182:
 343              		.section	.rodata.lv_msgbox_add_header_button.str1.4,"aMS",%progbits,1
 344              		.align	2
 345              	.LC0:
 346 0000 00       		.ascii	"\000"
ARM GAS  /var/folders/qx/2_175_4n2s19vhvtspjhb3qh0000gn/T//ccCgYYl4.s 			page 11


 347              		.section	.text.lv_msgbox_add_header_button,"ax",%progbits
 348              		.align	1
 349              		.global	lv_msgbox_add_header_button
 350              		.syntax unified
 351              		.thumb
 352              		.thumb_func
 354              	lv_msgbox_add_header_button:
 355              	.LVL41:
 356              	.LFB183:
 171:Drivers/lvgl/src/widgets/msgbox/lv_msgbox.c **** 
 172:Drivers/lvgl/src/widgets/msgbox/lv_msgbox.c **** lv_obj_t * lv_msgbox_add_header_button(lv_obj_t * obj, const void * icon)
 173:Drivers/lvgl/src/widgets/msgbox/lv_msgbox.c **** {
 357              		.loc 1 173 1 view -0
 358              		.cfi_startproc
 359              		@ args = 0, pretend = 0, frame = 0
 360              		@ frame_needed = 0, uses_anonymous_args = 0
 361              		.loc 1 173 1 is_stmt 0 view .LVU106
 362 0000 70B5     		push	{r4, r5, r6, lr}
 363              	.LCFI2:
 364              		.cfi_def_cfa_offset 16
 365              		.cfi_offset 4, -16
 366              		.cfi_offset 5, -12
 367              		.cfi_offset 6, -8
 368              		.cfi_offset 14, -4
 369 0002 0446     		mov	r4, r0
 370 0004 0D46     		mov	r5, r1
 174:Drivers/lvgl/src/widgets/msgbox/lv_msgbox.c ****     lv_msgbox_t * mbox = (lv_msgbox_t *)obj;
 371              		.loc 1 174 5 is_stmt 1 view .LVU107
 372              	.LVL42:
 175:Drivers/lvgl/src/widgets/msgbox/lv_msgbox.c ****     if(mbox->header == NULL) {
 373              		.loc 1 175 5 view .LVU108
 374              		.loc 1 175 12 is_stmt 0 view .LVU109
 375 0006 C36A     		ldr	r3, [r0, #44]
 376              		.loc 1 175 7 view .LVU110
 377 0008 DBB1     		cbz	r3, .L32
 378              	.LVL43:
 379              	.L27:
 176:Drivers/lvgl/src/widgets/msgbox/lv_msgbox.c ****         lv_msgbox_add_title(obj, ""); /*Just to push the buttons to the right*/
 177:Drivers/lvgl/src/widgets/msgbox/lv_msgbox.c ****     }
 178:Drivers/lvgl/src/widgets/msgbox/lv_msgbox.c **** 
 179:Drivers/lvgl/src/widgets/msgbox/lv_msgbox.c ****     lv_obj_t * btn = lv_obj_class_create_obj(&lv_msgbox_header_button_class, mbox->header);
 380              		.loc 1 179 5 is_stmt 1 view .LVU111
 381              		.loc 1 179 22 is_stmt 0 view .LVU112
 382 000a E16A     		ldr	r1, [r4, #44]
 383 000c 0F48     		ldr	r0, .L33
 384 000e FFF7FEFF 		bl	lv_obj_class_create_obj
 385              	.LVL44:
 180:Drivers/lvgl/src/widgets/msgbox/lv_msgbox.c ****     LV_ASSERT_MALLOC(btn);
 386              		.loc 1 180 5 is_stmt 1 view .LVU113
 387              		.loc 1 180 5 view .LVU114
 388 0012 0446     		mov	r4, r0
 389              	.LVL45:
 390              		.loc 1 180 5 is_stmt 0 view .LVU115
 391 0014 C8B1     		cbz	r0, .L29
 392              		.loc 1 180 5 is_stmt 1 view .LVU116
 393              		.loc 1 180 26 view .LVU117
 181:Drivers/lvgl/src/widgets/msgbox/lv_msgbox.c ****     if(btn == NULL) return NULL;
ARM GAS  /var/folders/qx/2_175_4n2s19vhvtspjhb3qh0000gn/T//ccCgYYl4.s 			page 12


 394              		.loc 1 181 5 view .LVU118
 182:Drivers/lvgl/src/widgets/msgbox/lv_msgbox.c ****     lv_obj_class_init_obj(btn);
 395              		.loc 1 182 5 view .LVU119
 396 0016 FFF7FEFF 		bl	lv_obj_class_init_obj
 397              	.LVL46:
 183:Drivers/lvgl/src/widgets/msgbox/lv_msgbox.c ****     lv_obj_remove_flag(btn, LV_OBJ_FLAG_SCROLLABLE);
 398              		.loc 1 183 5 view .LVU120
 399 001a 1021     		movs	r1, #16
 400 001c 2046     		mov	r0, r4
 401 001e FFF7FEFF 		bl	lv_obj_remove_flag
 402              	.LVL47:
 184:Drivers/lvgl/src/widgets/msgbox/lv_msgbox.c **** 
 185:Drivers/lvgl/src/widgets/msgbox/lv_msgbox.c ****     if(icon) {
 403              		.loc 1 185 5 view .LVU121
 404              		.loc 1 185 7 is_stmt 0 view .LVU122
 405 0022 65B1     		cbz	r5, .L26
 406              	.LBB4:
 186:Drivers/lvgl/src/widgets/msgbox/lv_msgbox.c ****         lv_obj_t * img = lv_image_create(btn);
 407              		.loc 1 186 9 is_stmt 1 view .LVU123
 408              		.loc 1 186 26 is_stmt 0 view .LVU124
 409 0024 2046     		mov	r0, r4
 410 0026 FFF7FEFF 		bl	lv_image_create
 411              	.LVL48:
 412 002a 0646     		mov	r6, r0
 413              	.LVL49:
 187:Drivers/lvgl/src/widgets/msgbox/lv_msgbox.c ****         lv_image_set_src(img, icon);
 414              		.loc 1 187 9 is_stmt 1 view .LVU125
 415 002c 2946     		mov	r1, r5
 416 002e FFF7FEFF 		bl	lv_image_set_src
 417              	.LVL50:
 188:Drivers/lvgl/src/widgets/msgbox/lv_msgbox.c ****         lv_obj_align(img, LV_ALIGN_CENTER, 0, 0);
 418              		.loc 1 188 9 view .LVU126
 419 0032 0023     		movs	r3, #0
 420 0034 1A46     		mov	r2, r3
 421 0036 0921     		movs	r1, #9
 422 0038 3046     		mov	r0, r6
 423 003a FFF7FEFF 		bl	lv_obj_align
 424              	.LVL51:
 425              	.LBE4:
 189:Drivers/lvgl/src/widgets/msgbox/lv_msgbox.c ****     }
 190:Drivers/lvgl/src/widgets/msgbox/lv_msgbox.c **** 
 191:Drivers/lvgl/src/widgets/msgbox/lv_msgbox.c ****     return btn;
 426              		.loc 1 191 5 view .LVU127
 427              	.L26:
 192:Drivers/lvgl/src/widgets/msgbox/lv_msgbox.c **** }
 428              		.loc 1 192 1 is_stmt 0 view .LVU128
 429 003e 2046     		mov	r0, r4
 430 0040 70BD     		pop	{r4, r5, r6, pc}
 431              	.LVL52:
 432              	.L32:
 176:Drivers/lvgl/src/widgets/msgbox/lv_msgbox.c ****     }
 433              		.loc 1 176 9 is_stmt 1 view .LVU129
 434 0042 0349     		ldr	r1, .L33+4
 435              	.LVL53:
 176:Drivers/lvgl/src/widgets/msgbox/lv_msgbox.c ****     }
 436              		.loc 1 176 9 is_stmt 0 view .LVU130
 437 0044 FFF7FEFF 		bl	lv_msgbox_add_title
ARM GAS  /var/folders/qx/2_175_4n2s19vhvtspjhb3qh0000gn/T//ccCgYYl4.s 			page 13


 438              	.LVL54:
 176:Drivers/lvgl/src/widgets/msgbox/lv_msgbox.c ****     }
 439              		.loc 1 176 9 view .LVU131
 440 0048 DFE7     		b	.L27
 441              	.LVL55:
 442              	.L29:
 180:Drivers/lvgl/src/widgets/msgbox/lv_msgbox.c ****     if(btn == NULL) return NULL;
 443              		.loc 1 180 5 is_stmt 1 view .LVU132
 180:Drivers/lvgl/src/widgets/msgbox/lv_msgbox.c ****     if(btn == NULL) return NULL;
 444              		.loc 1 180 5 view .LVU133
 180:Drivers/lvgl/src/widgets/msgbox/lv_msgbox.c ****     if(btn == NULL) return NULL;
 445              		.loc 1 180 5 view .LVU134
 180:Drivers/lvgl/src/widgets/msgbox/lv_msgbox.c ****     if(btn == NULL) return NULL;
 446              		.loc 1 180 5 view .LVU135
 180:Drivers/lvgl/src/widgets/msgbox/lv_msgbox.c ****     if(btn == NULL) return NULL;
 447              		.loc 1 180 5 view .LVU136
 448 004a FEE7     		b	.L29
 449              	.L34:
 450              		.align	2
 451              	.L33:
 452 004c 00000000 		.word	lv_msgbox_header_button_class
 453 0050 00000000 		.word	.LC0
 454              		.cfi_endproc
 455              	.LFE183:
 457              		.section	.text.lv_msgbox_add_text,"ax",%progbits
 458              		.align	1
 459              		.global	lv_msgbox_add_text
 460              		.syntax unified
 461              		.thumb
 462              		.thumb_func
 464              	lv_msgbox_add_text:
 465              	.LVL56:
 466              	.LFB184:
 193:Drivers/lvgl/src/widgets/msgbox/lv_msgbox.c **** 
 194:Drivers/lvgl/src/widgets/msgbox/lv_msgbox.c **** lv_obj_t * lv_msgbox_add_text(lv_obj_t * obj, const char * text)
 195:Drivers/lvgl/src/widgets/msgbox/lv_msgbox.c **** {
 467              		.loc 1 195 1 view -0
 468              		.cfi_startproc
 469              		@ args = 0, pretend = 0, frame = 0
 470              		@ frame_needed = 0, uses_anonymous_args = 0
 471              		.loc 1 195 1 is_stmt 0 view .LVU138
 472 0000 38B5     		push	{r3, r4, r5, lr}
 473              	.LCFI3:
 474              		.cfi_def_cfa_offset 16
 475              		.cfi_offset 3, -16
 476              		.cfi_offset 4, -12
 477              		.cfi_offset 5, -8
 478              		.cfi_offset 14, -4
 479 0002 0D46     		mov	r5, r1
 196:Drivers/lvgl/src/widgets/msgbox/lv_msgbox.c ****     lv_msgbox_t * mbox = (lv_msgbox_t *)obj;
 480              		.loc 1 196 5 is_stmt 1 view .LVU139
 481              	.LVL57:
 197:Drivers/lvgl/src/widgets/msgbox/lv_msgbox.c **** 
 198:Drivers/lvgl/src/widgets/msgbox/lv_msgbox.c ****     lv_obj_t * label = lv_label_create(mbox->content);
 482              		.loc 1 198 5 view .LVU140
 483              		.loc 1 198 24 is_stmt 0 view .LVU141
 484 0004 006B     		ldr	r0, [r0, #48]
ARM GAS  /var/folders/qx/2_175_4n2s19vhvtspjhb3qh0000gn/T//ccCgYYl4.s 			page 14


 485              	.LVL58:
 486              		.loc 1 198 24 view .LVU142
 487 0006 FFF7FEFF 		bl	lv_label_create
 488              	.LVL59:
 489              		.loc 1 198 24 view .LVU143
 490 000a 0446     		mov	r4, r0
 491              	.LVL60:
 199:Drivers/lvgl/src/widgets/msgbox/lv_msgbox.c ****     lv_label_set_text(label, text);
 492              		.loc 1 199 5 is_stmt 1 view .LVU144
 493 000c 2946     		mov	r1, r5
 494 000e FFF7FEFF 		bl	lv_label_set_text
 495              	.LVL61:
 200:Drivers/lvgl/src/widgets/msgbox/lv_msgbox.c ****     lv_obj_set_width(label, lv_pct(100));
 496              		.loc 1 200 5 view .LVU145
 497 0012 6420     		movs	r0, #100
 498 0014 FFF7FEFF 		bl	lv_pct
 499              	.LVL62:
 500 0018 0146     		mov	r1, r0
 501              		.loc 1 200 5 is_stmt 0 discriminator 1 view .LVU146
 502 001a 2046     		mov	r0, r4
 503 001c FFF7FEFF 		bl	lv_obj_set_width
 504              	.LVL63:
 201:Drivers/lvgl/src/widgets/msgbox/lv_msgbox.c **** 
 202:Drivers/lvgl/src/widgets/msgbox/lv_msgbox.c ****     return label;
 505              		.loc 1 202 5 is_stmt 1 view .LVU147
 203:Drivers/lvgl/src/widgets/msgbox/lv_msgbox.c **** }
 506              		.loc 1 203 1 is_stmt 0 view .LVU148
 507 0020 2046     		mov	r0, r4
 508 0022 38BD     		pop	{r3, r4, r5, pc}
 509              		.loc 1 203 1 view .LVU149
 510              		.cfi_endproc
 511              	.LFE184:
 513              		.section	.text.lv_msgbox_add_footer_button,"ax",%progbits
 514              		.align	1
 515              		.global	lv_msgbox_add_footer_button
 516              		.syntax unified
 517              		.thumb
 518              		.thumb_func
 520              	lv_msgbox_add_footer_button:
 521              	.LVL64:
 522              	.LFB185:
 204:Drivers/lvgl/src/widgets/msgbox/lv_msgbox.c **** 
 205:Drivers/lvgl/src/widgets/msgbox/lv_msgbox.c **** lv_obj_t * lv_msgbox_add_footer_button(lv_obj_t * obj, const char * text)
 206:Drivers/lvgl/src/widgets/msgbox/lv_msgbox.c **** {
 523              		.loc 1 206 1 is_stmt 1 view -0
 524              		.cfi_startproc
 525              		@ args = 0, pretend = 0, frame = 0
 526              		@ frame_needed = 0, uses_anonymous_args = 0
 527              		.loc 1 206 1 is_stmt 0 view .LVU151
 528 0000 70B5     		push	{r4, r5, r6, lr}
 529              	.LCFI4:
 530              		.cfi_def_cfa_offset 16
 531              		.cfi_offset 4, -16
 532              		.cfi_offset 5, -12
 533              		.cfi_offset 6, -8
 534              		.cfi_offset 14, -4
 535 0002 0446     		mov	r4, r0
ARM GAS  /var/folders/qx/2_175_4n2s19vhvtspjhb3qh0000gn/T//ccCgYYl4.s 			page 15


 536 0004 0D46     		mov	r5, r1
 207:Drivers/lvgl/src/widgets/msgbox/lv_msgbox.c ****     lv_msgbox_t * mbox = (lv_msgbox_t *)obj;
 537              		.loc 1 207 5 is_stmt 1 view .LVU152
 538              	.LVL65:
 208:Drivers/lvgl/src/widgets/msgbox/lv_msgbox.c ****     if(mbox->footer == NULL) {
 539              		.loc 1 208 5 view .LVU153
 540              		.loc 1 208 12 is_stmt 0 view .LVU154
 541 0006 436B     		ldr	r3, [r0, #52]
 542              		.loc 1 208 7 view .LVU155
 543 0008 DBB1     		cbz	r3, .L45
 544              	.LVL66:
 545              	.L38:
 209:Drivers/lvgl/src/widgets/msgbox/lv_msgbox.c ****         mbox->footer = lv_obj_class_create_obj(&lv_msgbox_footer_class, obj);
 210:Drivers/lvgl/src/widgets/msgbox/lv_msgbox.c ****         LV_ASSERT_MALLOC(mbox->footer);
 211:Drivers/lvgl/src/widgets/msgbox/lv_msgbox.c ****         if(mbox->footer == NULL) return NULL;
 212:Drivers/lvgl/src/widgets/msgbox/lv_msgbox.c ****         lv_obj_class_init_obj(mbox->footer);
 213:Drivers/lvgl/src/widgets/msgbox/lv_msgbox.c **** 
 214:Drivers/lvgl/src/widgets/msgbox/lv_msgbox.c ****         lv_obj_set_flex_flow(mbox->footer, LV_FLEX_FLOW_ROW);
 215:Drivers/lvgl/src/widgets/msgbox/lv_msgbox.c ****         lv_obj_set_flex_align(mbox->footer, LV_FLEX_ALIGN_SPACE_EVENLY, LV_FLEX_ALIGN_CENTER, LV_FL
 216:Drivers/lvgl/src/widgets/msgbox/lv_msgbox.c ****         lv_obj_remove_flag(mbox->footer, LV_OBJ_FLAG_SCROLLABLE);
 217:Drivers/lvgl/src/widgets/msgbox/lv_msgbox.c ****     }
 218:Drivers/lvgl/src/widgets/msgbox/lv_msgbox.c **** 
 219:Drivers/lvgl/src/widgets/msgbox/lv_msgbox.c ****     lv_obj_t * btn = lv_obj_class_create_obj(&lv_msgbox_footer_button_class, mbox->footer);
 546              		.loc 1 219 5 is_stmt 1 view .LVU156
 547              		.loc 1 219 22 is_stmt 0 view .LVU157
 548 000a 616B     		ldr	r1, [r4, #52]
 549 000c 1948     		ldr	r0, .L46
 550 000e FFF7FEFF 		bl	lv_obj_class_create_obj
 551              	.LVL67:
 220:Drivers/lvgl/src/widgets/msgbox/lv_msgbox.c ****     LV_ASSERT_MALLOC(btn);
 552              		.loc 1 220 5 is_stmt 1 view .LVU158
 553              		.loc 1 220 5 view .LVU159
 554 0012 0446     		mov	r4, r0
 555              	.LVL68:
 556              		.loc 1 220 5 is_stmt 0 view .LVU160
 557 0014 68B3     		cbz	r0, .L42
 558              		.loc 1 220 5 is_stmt 1 view .LVU161
 559              		.loc 1 220 26 view .LVU162
 221:Drivers/lvgl/src/widgets/msgbox/lv_msgbox.c ****     if(btn == NULL) return NULL;
 560              		.loc 1 221 5 view .LVU163
 222:Drivers/lvgl/src/widgets/msgbox/lv_msgbox.c ****     lv_obj_class_init_obj(btn);
 561              		.loc 1 222 5 view .LVU164
 562 0016 FFF7FEFF 		bl	lv_obj_class_init_obj
 563              	.LVL69:
 223:Drivers/lvgl/src/widgets/msgbox/lv_msgbox.c ****     lv_obj_remove_flag(btn, LV_OBJ_FLAG_SCROLLABLE);
 564              		.loc 1 223 5 view .LVU165
 565 001a 1021     		movs	r1, #16
 566 001c 2046     		mov	r0, r4
 567 001e FFF7FEFF 		bl	lv_obj_remove_flag
 568              	.LVL70:
 224:Drivers/lvgl/src/widgets/msgbox/lv_msgbox.c **** 
 225:Drivers/lvgl/src/widgets/msgbox/lv_msgbox.c ****     if(text) {
 569              		.loc 1 225 5 view .LVU166
 570              		.loc 1 225 7 is_stmt 0 view .LVU167
 571 0022 65B1     		cbz	r5, .L37
 572              	.LBB5:
 226:Drivers/lvgl/src/widgets/msgbox/lv_msgbox.c ****         lv_obj_t * label = lv_label_create(btn);
ARM GAS  /var/folders/qx/2_175_4n2s19vhvtspjhb3qh0000gn/T//ccCgYYl4.s 			page 16


 573              		.loc 1 226 9 is_stmt 1 view .LVU168
 574              		.loc 1 226 28 is_stmt 0 view .LVU169
 575 0024 2046     		mov	r0, r4
 576 0026 FFF7FEFF 		bl	lv_label_create
 577              	.LVL71:
 578 002a 0646     		mov	r6, r0
 579              	.LVL72:
 227:Drivers/lvgl/src/widgets/msgbox/lv_msgbox.c ****         lv_label_set_text(label, text);
 580              		.loc 1 227 9 is_stmt 1 view .LVU170
 581 002c 2946     		mov	r1, r5
 582 002e FFF7FEFF 		bl	lv_label_set_text
 583              	.LVL73:
 228:Drivers/lvgl/src/widgets/msgbox/lv_msgbox.c ****         lv_obj_align(label, LV_ALIGN_CENTER, 0, 0);
 584              		.loc 1 228 9 view .LVU171
 585 0032 0023     		movs	r3, #0
 586 0034 1A46     		mov	r2, r3
 587 0036 0921     		movs	r1, #9
 588 0038 3046     		mov	r0, r6
 589 003a FFF7FEFF 		bl	lv_obj_align
 590              	.LVL74:
 591              	.LBE5:
 229:Drivers/lvgl/src/widgets/msgbox/lv_msgbox.c ****     }
 230:Drivers/lvgl/src/widgets/msgbox/lv_msgbox.c **** 
 231:Drivers/lvgl/src/widgets/msgbox/lv_msgbox.c ****     return btn;
 592              		.loc 1 231 5 view .LVU172
 593              	.L37:
 232:Drivers/lvgl/src/widgets/msgbox/lv_msgbox.c **** }
 594              		.loc 1 232 1 is_stmt 0 view .LVU173
 595 003e 2046     		mov	r0, r4
 596 0040 70BD     		pop	{r4, r5, r6, pc}
 597              	.LVL75:
 598              	.L45:
 209:Drivers/lvgl/src/widgets/msgbox/lv_msgbox.c ****         LV_ASSERT_MALLOC(mbox->footer);
 599              		.loc 1 209 9 is_stmt 1 view .LVU174
 209:Drivers/lvgl/src/widgets/msgbox/lv_msgbox.c ****         LV_ASSERT_MALLOC(mbox->footer);
 600              		.loc 1 209 24 is_stmt 0 view .LVU175
 601 0042 0146     		mov	r1, r0
 602              	.LVL76:
 209:Drivers/lvgl/src/widgets/msgbox/lv_msgbox.c ****         LV_ASSERT_MALLOC(mbox->footer);
 603              		.loc 1 209 24 view .LVU176
 604 0044 0C48     		ldr	r0, .L46+4
 605              	.LVL77:
 209:Drivers/lvgl/src/widgets/msgbox/lv_msgbox.c ****         LV_ASSERT_MALLOC(mbox->footer);
 606              		.loc 1 209 24 view .LVU177
 607 0046 FFF7FEFF 		bl	lv_obj_class_create_obj
 608              	.LVL78:
 209:Drivers/lvgl/src/widgets/msgbox/lv_msgbox.c ****         LV_ASSERT_MALLOC(mbox->footer);
 609              		.loc 1 209 22 discriminator 1 view .LVU178
 610 004a 6063     		str	r0, [r4, #52]
 210:Drivers/lvgl/src/widgets/msgbox/lv_msgbox.c ****         if(mbox->footer == NULL) return NULL;
 611              		.loc 1 210 9 is_stmt 1 view .LVU179
 210:Drivers/lvgl/src/widgets/msgbox/lv_msgbox.c ****         if(mbox->footer == NULL) return NULL;
 612              		.loc 1 210 9 view .LVU180
 613 004c 80B1     		cbz	r0, .L40
 210:Drivers/lvgl/src/widgets/msgbox/lv_msgbox.c ****         if(mbox->footer == NULL) return NULL;
 614              		.loc 1 210 9 view .LVU181
 210:Drivers/lvgl/src/widgets/msgbox/lv_msgbox.c ****         if(mbox->footer == NULL) return NULL;
ARM GAS  /var/folders/qx/2_175_4n2s19vhvtspjhb3qh0000gn/T//ccCgYYl4.s 			page 17


 615              		.loc 1 210 39 view .LVU182
 211:Drivers/lvgl/src/widgets/msgbox/lv_msgbox.c ****         lv_obj_class_init_obj(mbox->footer);
 616              		.loc 1 211 9 view .LVU183
 212:Drivers/lvgl/src/widgets/msgbox/lv_msgbox.c **** 
 617              		.loc 1 212 9 view .LVU184
 618 004e FFF7FEFF 		bl	lv_obj_class_init_obj
 619              	.LVL79:
 214:Drivers/lvgl/src/widgets/msgbox/lv_msgbox.c ****         lv_obj_set_flex_align(mbox->footer, LV_FLEX_ALIGN_SPACE_EVENLY, LV_FLEX_ALIGN_CENTER, LV_FL
 620              		.loc 1 214 9 view .LVU185
 621 0052 0021     		movs	r1, #0
 622 0054 606B     		ldr	r0, [r4, #52]
 623 0056 FFF7FEFF 		bl	lv_obj_set_flex_flow
 624              	.LVL80:
 215:Drivers/lvgl/src/widgets/msgbox/lv_msgbox.c ****         lv_obj_remove_flag(mbox->footer, LV_OBJ_FLAG_SCROLLABLE);
 625              		.loc 1 215 9 view .LVU186
 626 005a 0223     		movs	r3, #2
 627 005c 1A46     		mov	r2, r3
 628 005e 0321     		movs	r1, #3
 629 0060 606B     		ldr	r0, [r4, #52]
 630 0062 FFF7FEFF 		bl	lv_obj_set_flex_align
 631              	.LVL81:
 216:Drivers/lvgl/src/widgets/msgbox/lv_msgbox.c ****     }
 632              		.loc 1 216 9 view .LVU187
 633 0066 1021     		movs	r1, #16
 634 0068 606B     		ldr	r0, [r4, #52]
 635 006a FFF7FEFF 		bl	lv_obj_remove_flag
 636              	.LVL82:
 637 006e CCE7     		b	.L38
 638              	.L40:
 210:Drivers/lvgl/src/widgets/msgbox/lv_msgbox.c ****         if(mbox->footer == NULL) return NULL;
 639              		.loc 1 210 9 view .LVU188
 210:Drivers/lvgl/src/widgets/msgbox/lv_msgbox.c ****         if(mbox->footer == NULL) return NULL;
 640              		.loc 1 210 9 view .LVU189
 210:Drivers/lvgl/src/widgets/msgbox/lv_msgbox.c ****         if(mbox->footer == NULL) return NULL;
 641              		.loc 1 210 9 view .LVU190
 210:Drivers/lvgl/src/widgets/msgbox/lv_msgbox.c ****         if(mbox->footer == NULL) return NULL;
 642              		.loc 1 210 9 view .LVU191
 210:Drivers/lvgl/src/widgets/msgbox/lv_msgbox.c ****         if(mbox->footer == NULL) return NULL;
 643              		.loc 1 210 9 view .LVU192
 644 0070 FEE7     		b	.L40
 645              	.LVL83:
 646              	.L42:
 220:Drivers/lvgl/src/widgets/msgbox/lv_msgbox.c ****     if(btn == NULL) return NULL;
 647              		.loc 1 220 5 view .LVU193
 220:Drivers/lvgl/src/widgets/msgbox/lv_msgbox.c ****     if(btn == NULL) return NULL;
 648              		.loc 1 220 5 view .LVU194
 220:Drivers/lvgl/src/widgets/msgbox/lv_msgbox.c ****     if(btn == NULL) return NULL;
 649              		.loc 1 220 5 view .LVU195
 220:Drivers/lvgl/src/widgets/msgbox/lv_msgbox.c ****     if(btn == NULL) return NULL;
 650              		.loc 1 220 5 view .LVU196
 220:Drivers/lvgl/src/widgets/msgbox/lv_msgbox.c ****     if(btn == NULL) return NULL;
 651              		.loc 1 220 5 view .LVU197
 652 0072 FEE7     		b	.L42
 653              	.L47:
 654              		.align	2
 655              	.L46:
 656 0074 00000000 		.word	lv_msgbox_footer_button_class
ARM GAS  /var/folders/qx/2_175_4n2s19vhvtspjhb3qh0000gn/T//ccCgYYl4.s 			page 18


 657 0078 00000000 		.word	lv_msgbox_footer_class
 658              		.cfi_endproc
 659              	.LFE185:
 661              		.section	.rodata.lv_msgbox_add_close_button.str1.4,"aMS",%progbits,1
 662              		.align	2
 663              	.LC1:
 664 0000 EF808D00 		.ascii	"\357\200\215\000"
 665              		.section	.text.lv_msgbox_add_close_button,"ax",%progbits
 666              		.align	1
 667              		.global	lv_msgbox_add_close_button
 668              		.syntax unified
 669              		.thumb
 670              		.thumb_func
 672              	lv_msgbox_add_close_button:
 673              	.LVL84:
 674              	.LFB186:
 233:Drivers/lvgl/src/widgets/msgbox/lv_msgbox.c **** 
 234:Drivers/lvgl/src/widgets/msgbox/lv_msgbox.c **** lv_obj_t * lv_msgbox_add_close_button(lv_obj_t * obj)
 235:Drivers/lvgl/src/widgets/msgbox/lv_msgbox.c **** {
 675              		.loc 1 235 1 view -0
 676              		.cfi_startproc
 677              		@ args = 0, pretend = 0, frame = 0
 678              		@ frame_needed = 0, uses_anonymous_args = 0
 679              		.loc 1 235 1 is_stmt 0 view .LVU199
 680 0000 10B5     		push	{r4, lr}
 681              	.LCFI5:
 682              		.cfi_def_cfa_offset 8
 683              		.cfi_offset 4, -8
 684              		.cfi_offset 14, -4
 236:Drivers/lvgl/src/widgets/msgbox/lv_msgbox.c ****     lv_obj_t * btn = lv_msgbox_add_header_button(obj, LV_SYMBOL_CLOSE);
 685              		.loc 1 236 5 is_stmt 1 view .LVU200
 686              		.loc 1 236 22 is_stmt 0 view .LVU201
 687 0002 0549     		ldr	r1, .L50
 688 0004 FFF7FEFF 		bl	lv_msgbox_add_header_button
 689              	.LVL85:
 690              		.loc 1 236 22 view .LVU202
 691 0008 0446     		mov	r4, r0
 692              	.LVL86:
 237:Drivers/lvgl/src/widgets/msgbox/lv_msgbox.c ****     lv_obj_add_event_cb(btn, msgbox_close_click_event_cb, LV_EVENT_CLICKED, NULL);
 693              		.loc 1 237 5 is_stmt 1 view .LVU203
 694 000a 0023     		movs	r3, #0
 695 000c 0A22     		movs	r2, #10
 696 000e 0349     		ldr	r1, .L50+4
 697 0010 FFF7FEFF 		bl	lv_obj_add_event_cb
 698              	.LVL87:
 238:Drivers/lvgl/src/widgets/msgbox/lv_msgbox.c ****     return btn;
 699              		.loc 1 238 5 view .LVU204
 239:Drivers/lvgl/src/widgets/msgbox/lv_msgbox.c **** }
 700              		.loc 1 239 1 is_stmt 0 view .LVU205
 701 0014 2046     		mov	r0, r4
 702 0016 10BD     		pop	{r4, pc}
 703              	.LVL88:
 704              	.L51:
 705              		.loc 1 239 1 view .LVU206
 706              		.align	2
 707              	.L50:
 708 0018 00000000 		.word	.LC1
ARM GAS  /var/folders/qx/2_175_4n2s19vhvtspjhb3qh0000gn/T//ccCgYYl4.s 			page 19


 709 001c 00000000 		.word	msgbox_close_click_event_cb
 710              		.cfi_endproc
 711              	.LFE186:
 713              		.section	.text.lv_msgbox_get_header,"ax",%progbits
 714              		.align	1
 715              		.global	lv_msgbox_get_header
 716              		.syntax unified
 717              		.thumb
 718              		.thumb_func
 720              	lv_msgbox_get_header:
 721              	.LVL89:
 722              	.LFB187:
 240:Drivers/lvgl/src/widgets/msgbox/lv_msgbox.c **** 
 241:Drivers/lvgl/src/widgets/msgbox/lv_msgbox.c **** lv_obj_t * lv_msgbox_get_header(lv_obj_t * obj)
 242:Drivers/lvgl/src/widgets/msgbox/lv_msgbox.c **** {
 723              		.loc 1 242 1 is_stmt 1 view -0
 724              		.cfi_startproc
 725              		@ args = 0, pretend = 0, frame = 0
 726              		@ frame_needed = 0, uses_anonymous_args = 0
 727              		@ link register save eliminated.
 243:Drivers/lvgl/src/widgets/msgbox/lv_msgbox.c ****     LV_ASSERT_OBJ(obj, MY_CLASS);
 728              		.loc 1 243 5 view .LVU208
 729              		.loc 1 243 5 view .LVU209
 730 0000 08B1     		cbz	r0, .L54
 731              		.loc 1 243 5 view .LVU210
 732              		.loc 1 243 33 view .LVU211
 244:Drivers/lvgl/src/widgets/msgbox/lv_msgbox.c ****     lv_msgbox_t * mbox = (lv_msgbox_t *)obj;
 733              		.loc 1 244 5 view .LVU212
 734              	.LVL90:
 245:Drivers/lvgl/src/widgets/msgbox/lv_msgbox.c ****     return mbox->header;
 735              		.loc 1 245 5 view .LVU213
 246:Drivers/lvgl/src/widgets/msgbox/lv_msgbox.c **** }
 736              		.loc 1 246 1 is_stmt 0 view .LVU214
 737 0002 C06A     		ldr	r0, [r0, #44]
 738              	.LVL91:
 739              		.loc 1 246 1 view .LVU215
 740 0004 7047     		bx	lr
 741              	.LVL92:
 742              	.L54:
 243:Drivers/lvgl/src/widgets/msgbox/lv_msgbox.c ****     lv_msgbox_t * mbox = (lv_msgbox_t *)obj;
 743              		.loc 1 243 5 is_stmt 1 view .LVU216
 243:Drivers/lvgl/src/widgets/msgbox/lv_msgbox.c ****     lv_msgbox_t * mbox = (lv_msgbox_t *)obj;
 744              		.loc 1 243 5 view .LVU217
 243:Drivers/lvgl/src/widgets/msgbox/lv_msgbox.c ****     lv_msgbox_t * mbox = (lv_msgbox_t *)obj;
 745              		.loc 1 243 5 view .LVU218
 243:Drivers/lvgl/src/widgets/msgbox/lv_msgbox.c ****     lv_msgbox_t * mbox = (lv_msgbox_t *)obj;
 746              		.loc 1 243 5 view .LVU219
 243:Drivers/lvgl/src/widgets/msgbox/lv_msgbox.c ****     lv_msgbox_t * mbox = (lv_msgbox_t *)obj;
 747              		.loc 1 243 5 view .LVU220
 748 0006 FEE7     		b	.L54
 749              		.cfi_endproc
 750              	.LFE187:
 752              		.section	.text.lv_msgbox_get_footer,"ax",%progbits
 753              		.align	1
 754              		.global	lv_msgbox_get_footer
 755              		.syntax unified
 756              		.thumb
ARM GAS  /var/folders/qx/2_175_4n2s19vhvtspjhb3qh0000gn/T//ccCgYYl4.s 			page 20


 757              		.thumb_func
 759              	lv_msgbox_get_footer:
 760              	.LVL93:
 761              	.LFB188:
 247:Drivers/lvgl/src/widgets/msgbox/lv_msgbox.c **** 
 248:Drivers/lvgl/src/widgets/msgbox/lv_msgbox.c **** lv_obj_t * lv_msgbox_get_footer(lv_obj_t * obj)
 249:Drivers/lvgl/src/widgets/msgbox/lv_msgbox.c **** {
 762              		.loc 1 249 1 view -0
 763              		.cfi_startproc
 764              		@ args = 0, pretend = 0, frame = 0
 765              		@ frame_needed = 0, uses_anonymous_args = 0
 766              		@ link register save eliminated.
 250:Drivers/lvgl/src/widgets/msgbox/lv_msgbox.c ****     LV_ASSERT_OBJ(obj, MY_CLASS);
 767              		.loc 1 250 5 view .LVU222
 768              		.loc 1 250 5 view .LVU223
 769 0000 08B1     		cbz	r0, .L57
 770              		.loc 1 250 5 view .LVU224
 771              		.loc 1 250 33 view .LVU225
 251:Drivers/lvgl/src/widgets/msgbox/lv_msgbox.c ****     lv_msgbox_t * mbox = (lv_msgbox_t *)obj;
 772              		.loc 1 251 5 view .LVU226
 773              	.LVL94:
 252:Drivers/lvgl/src/widgets/msgbox/lv_msgbox.c ****     return mbox->footer;
 774              		.loc 1 252 5 view .LVU227
 253:Drivers/lvgl/src/widgets/msgbox/lv_msgbox.c **** }
 775              		.loc 1 253 1 is_stmt 0 view .LVU228
 776 0002 406B     		ldr	r0, [r0, #52]
 777              	.LVL95:
 778              		.loc 1 253 1 view .LVU229
 779 0004 7047     		bx	lr
 780              	.LVL96:
 781              	.L57:
 250:Drivers/lvgl/src/widgets/msgbox/lv_msgbox.c ****     lv_msgbox_t * mbox = (lv_msgbox_t *)obj;
 782              		.loc 1 250 5 is_stmt 1 view .LVU230
 250:Drivers/lvgl/src/widgets/msgbox/lv_msgbox.c ****     lv_msgbox_t * mbox = (lv_msgbox_t *)obj;
 783              		.loc 1 250 5 view .LVU231
 250:Drivers/lvgl/src/widgets/msgbox/lv_msgbox.c ****     lv_msgbox_t * mbox = (lv_msgbox_t *)obj;
 784              		.loc 1 250 5 view .LVU232
 250:Drivers/lvgl/src/widgets/msgbox/lv_msgbox.c ****     lv_msgbox_t * mbox = (lv_msgbox_t *)obj;
 785              		.loc 1 250 5 view .LVU233
 250:Drivers/lvgl/src/widgets/msgbox/lv_msgbox.c ****     lv_msgbox_t * mbox = (lv_msgbox_t *)obj;
 786              		.loc 1 250 5 view .LVU234
 787 0006 FEE7     		b	.L57
 788              		.cfi_endproc
 789              	.LFE188:
 791              		.section	.text.lv_msgbox_get_content,"ax",%progbits
 792              		.align	1
 793              		.global	lv_msgbox_get_content
 794              		.syntax unified
 795              		.thumb
 796              		.thumb_func
 798              	lv_msgbox_get_content:
 799              	.LVL97:
 800              	.LFB189:
 254:Drivers/lvgl/src/widgets/msgbox/lv_msgbox.c **** 
 255:Drivers/lvgl/src/widgets/msgbox/lv_msgbox.c **** lv_obj_t * lv_msgbox_get_content(lv_obj_t * obj)
 256:Drivers/lvgl/src/widgets/msgbox/lv_msgbox.c **** {
 801              		.loc 1 256 1 view -0
ARM GAS  /var/folders/qx/2_175_4n2s19vhvtspjhb3qh0000gn/T//ccCgYYl4.s 			page 21


 802              		.cfi_startproc
 803              		@ args = 0, pretend = 0, frame = 0
 804              		@ frame_needed = 0, uses_anonymous_args = 0
 805              		@ link register save eliminated.
 257:Drivers/lvgl/src/widgets/msgbox/lv_msgbox.c ****     LV_ASSERT_OBJ(obj, MY_CLASS);
 806              		.loc 1 257 5 view .LVU236
 807              		.loc 1 257 5 view .LVU237
 808 0000 08B1     		cbz	r0, .L60
 809              		.loc 1 257 5 view .LVU238
 810              		.loc 1 257 33 view .LVU239
 258:Drivers/lvgl/src/widgets/msgbox/lv_msgbox.c ****     lv_msgbox_t * mbox = (lv_msgbox_t *)obj;
 811              		.loc 1 258 5 view .LVU240
 812              	.LVL98:
 259:Drivers/lvgl/src/widgets/msgbox/lv_msgbox.c ****     return mbox->content;
 813              		.loc 1 259 5 view .LVU241
 260:Drivers/lvgl/src/widgets/msgbox/lv_msgbox.c **** }
 814              		.loc 1 260 1 is_stmt 0 view .LVU242
 815 0002 006B     		ldr	r0, [r0, #48]
 816              	.LVL99:
 817              		.loc 1 260 1 view .LVU243
 818 0004 7047     		bx	lr
 819              	.LVL100:
 820              	.L60:
 257:Drivers/lvgl/src/widgets/msgbox/lv_msgbox.c ****     lv_msgbox_t * mbox = (lv_msgbox_t *)obj;
 821              		.loc 1 257 5 is_stmt 1 view .LVU244
 257:Drivers/lvgl/src/widgets/msgbox/lv_msgbox.c ****     lv_msgbox_t * mbox = (lv_msgbox_t *)obj;
 822              		.loc 1 257 5 view .LVU245
 257:Drivers/lvgl/src/widgets/msgbox/lv_msgbox.c ****     lv_msgbox_t * mbox = (lv_msgbox_t *)obj;
 823              		.loc 1 257 5 view .LVU246
 257:Drivers/lvgl/src/widgets/msgbox/lv_msgbox.c ****     lv_msgbox_t * mbox = (lv_msgbox_t *)obj;
 824              		.loc 1 257 5 view .LVU247
 257:Drivers/lvgl/src/widgets/msgbox/lv_msgbox.c ****     lv_msgbox_t * mbox = (lv_msgbox_t *)obj;
 825              		.loc 1 257 5 view .LVU248
 826 0006 FEE7     		b	.L60
 827              		.cfi_endproc
 828              	.LFE189:
 830              		.section	.text.msgbox_size_changed_event_cb,"ax",%progbits
 831              		.align	1
 832              		.syntax unified
 833              		.thumb
 834              		.thumb_func
 836              	msgbox_size_changed_event_cb:
 837              	.LVL101:
 838              	.LFB194:
 261:Drivers/lvgl/src/widgets/msgbox/lv_msgbox.c **** 
 262:Drivers/lvgl/src/widgets/msgbox/lv_msgbox.c **** lv_obj_t * lv_msgbox_get_title(lv_obj_t * obj)
 263:Drivers/lvgl/src/widgets/msgbox/lv_msgbox.c **** {
 264:Drivers/lvgl/src/widgets/msgbox/lv_msgbox.c ****     LV_ASSERT_OBJ(obj, MY_CLASS);
 265:Drivers/lvgl/src/widgets/msgbox/lv_msgbox.c ****     lv_msgbox_t * mbox = (lv_msgbox_t *)obj;
 266:Drivers/lvgl/src/widgets/msgbox/lv_msgbox.c ****     return mbox->title;
 267:Drivers/lvgl/src/widgets/msgbox/lv_msgbox.c **** }
 268:Drivers/lvgl/src/widgets/msgbox/lv_msgbox.c **** 
 269:Drivers/lvgl/src/widgets/msgbox/lv_msgbox.c **** void lv_msgbox_close(lv_obj_t * obj)
 270:Drivers/lvgl/src/widgets/msgbox/lv_msgbox.c **** {
 271:Drivers/lvgl/src/widgets/msgbox/lv_msgbox.c ****     if(lv_obj_has_flag(obj, LV_MSGBOX_FLAG_AUTO_PARENT)) lv_obj_delete(lv_obj_get_parent(obj));
 272:Drivers/lvgl/src/widgets/msgbox/lv_msgbox.c ****     else lv_obj_delete(obj);
 273:Drivers/lvgl/src/widgets/msgbox/lv_msgbox.c **** }
ARM GAS  /var/folders/qx/2_175_4n2s19vhvtspjhb3qh0000gn/T//ccCgYYl4.s 			page 22


 274:Drivers/lvgl/src/widgets/msgbox/lv_msgbox.c **** 
 275:Drivers/lvgl/src/widgets/msgbox/lv_msgbox.c **** void lv_msgbox_close_async(lv_obj_t * obj)
 276:Drivers/lvgl/src/widgets/msgbox/lv_msgbox.c **** {
 277:Drivers/lvgl/src/widgets/msgbox/lv_msgbox.c ****     if(lv_obj_has_flag(obj, LV_MSGBOX_FLAG_AUTO_PARENT)) lv_obj_delete_async(lv_obj_get_parent(obj)
 278:Drivers/lvgl/src/widgets/msgbox/lv_msgbox.c ****     else lv_obj_delete_async(obj);
 279:Drivers/lvgl/src/widgets/msgbox/lv_msgbox.c **** }
 280:Drivers/lvgl/src/widgets/msgbox/lv_msgbox.c **** 
 281:Drivers/lvgl/src/widgets/msgbox/lv_msgbox.c **** /**********************
 282:Drivers/lvgl/src/widgets/msgbox/lv_msgbox.c ****  *   STATIC FUNCTIONS
 283:Drivers/lvgl/src/widgets/msgbox/lv_msgbox.c ****  **********************/
 284:Drivers/lvgl/src/widgets/msgbox/lv_msgbox.c **** 
 285:Drivers/lvgl/src/widgets/msgbox/lv_msgbox.c **** static void msgbox_close_click_event_cb(lv_event_t * e)
 286:Drivers/lvgl/src/widgets/msgbox/lv_msgbox.c **** {
 287:Drivers/lvgl/src/widgets/msgbox/lv_msgbox.c ****     lv_obj_t * btn = lv_event_get_current_target(e);
 288:Drivers/lvgl/src/widgets/msgbox/lv_msgbox.c ****     lv_obj_t * mbox = lv_obj_get_parent(lv_obj_get_parent(btn));
 289:Drivers/lvgl/src/widgets/msgbox/lv_msgbox.c ****     lv_msgbox_close(mbox);
 290:Drivers/lvgl/src/widgets/msgbox/lv_msgbox.c **** }
 291:Drivers/lvgl/src/widgets/msgbox/lv_msgbox.c **** 
 292:Drivers/lvgl/src/widgets/msgbox/lv_msgbox.c **** static void msgbox_size_changed_event_cb(lv_event_t * e)
 293:Drivers/lvgl/src/widgets/msgbox/lv_msgbox.c **** {
 839              		.loc 1 293 1 view -0
 840              		.cfi_startproc
 841              		@ args = 0, pretend = 0, frame = 8
 842              		@ frame_needed = 0, uses_anonymous_args = 0
 843              		.loc 1 293 1 is_stmt 0 view .LVU250
 844 0000 30B5     		push	{r4, r5, lr}
 845              	.LCFI6:
 846              		.cfi_def_cfa_offset 12
 847              		.cfi_offset 4, -12
 848              		.cfi_offset 5, -8
 849              		.cfi_offset 14, -4
 850 0002 83B0     		sub	sp, sp, #12
 851              	.LCFI7:
 852              		.cfi_def_cfa_offset 24
 294:Drivers/lvgl/src/widgets/msgbox/lv_msgbox.c ****     lv_obj_t * mbox = lv_event_get_target(e);
 853              		.loc 1 294 5 is_stmt 1 view .LVU251
 854              		.loc 1 294 23 is_stmt 0 view .LVU252
 855 0004 FFF7FEFF 		bl	lv_event_get_target
 856              	.LVL102:
 857              		.loc 1 294 23 view .LVU253
 858 0008 0546     		mov	r5, r0
 859              	.LVL103:
 295:Drivers/lvgl/src/widgets/msgbox/lv_msgbox.c ****     lv_obj_t * content = lv_msgbox_get_content(mbox);
 860              		.loc 1 295 5 is_stmt 1 view .LVU254
 861              		.loc 1 295 26 is_stmt 0 view .LVU255
 862 000a FFF7FEFF 		bl	lv_msgbox_get_content
 863              	.LVL104:
 864              		.loc 1 295 26 view .LVU256
 865 000e 0446     		mov	r4, r0
 866              	.LVL105:
 296:Drivers/lvgl/src/widgets/msgbox/lv_msgbox.c ****     bool is_msgbox_height_size_content = (lv_obj_get_style_height(mbox, LV_PART_MAIN) == LV_SIZE_CO
 867              		.loc 1 296 5 is_stmt 1 view .LVU257
 868              	.LBB6:
 869              	.LBI6:
 870              		.file 2 "Drivers/lvgl/src/widgets/msgbox/../../core/lv_obj_style_gen.h"
   1:Drivers/lvgl/src/widgets/msgbox/../../core/lv_obj_style_gen.h **** 
   2:Drivers/lvgl/src/widgets/msgbox/../../core/lv_obj_style_gen.h **** /*
ARM GAS  /var/folders/qx/2_175_4n2s19vhvtspjhb3qh0000gn/T//ccCgYYl4.s 			page 23


   3:Drivers/lvgl/src/widgets/msgbox/../../core/lv_obj_style_gen.h ****  **********************************************************************
   4:Drivers/lvgl/src/widgets/msgbox/../../core/lv_obj_style_gen.h ****  *                            DO NOT EDIT
   5:Drivers/lvgl/src/widgets/msgbox/../../core/lv_obj_style_gen.h ****  * This file is automatically generated by "style_api_gen.py"
   6:Drivers/lvgl/src/widgets/msgbox/../../core/lv_obj_style_gen.h ****  **********************************************************************
   7:Drivers/lvgl/src/widgets/msgbox/../../core/lv_obj_style_gen.h ****  */
   8:Drivers/lvgl/src/widgets/msgbox/../../core/lv_obj_style_gen.h **** 
   9:Drivers/lvgl/src/widgets/msgbox/../../core/lv_obj_style_gen.h **** 
  10:Drivers/lvgl/src/widgets/msgbox/../../core/lv_obj_style_gen.h **** #ifndef LV_OBJ_STYLE_GEN_H
  11:Drivers/lvgl/src/widgets/msgbox/../../core/lv_obj_style_gen.h **** #define LV_OBJ_STYLE_GEN_H
  12:Drivers/lvgl/src/widgets/msgbox/../../core/lv_obj_style_gen.h **** 
  13:Drivers/lvgl/src/widgets/msgbox/../../core/lv_obj_style_gen.h **** #ifdef __cplusplus
  14:Drivers/lvgl/src/widgets/msgbox/../../core/lv_obj_style_gen.h **** extern "C" {
  15:Drivers/lvgl/src/widgets/msgbox/../../core/lv_obj_style_gen.h **** #endif
  16:Drivers/lvgl/src/widgets/msgbox/../../core/lv_obj_style_gen.h **** 
  17:Drivers/lvgl/src/widgets/msgbox/../../core/lv_obj_style_gen.h **** #include "../misc/lv_area.h"
  18:Drivers/lvgl/src/widgets/msgbox/../../core/lv_obj_style_gen.h **** #include "../misc/lv_style.h"
  19:Drivers/lvgl/src/widgets/msgbox/../../core/lv_obj_style_gen.h **** #include "../core/lv_obj_style.h"
  20:Drivers/lvgl/src/widgets/msgbox/../../core/lv_obj_style_gen.h **** #include "../misc/lv_types.h"
  21:Drivers/lvgl/src/widgets/msgbox/../../core/lv_obj_style_gen.h **** 
  22:Drivers/lvgl/src/widgets/msgbox/../../core/lv_obj_style_gen.h **** static inline int32_t lv_obj_get_style_width(const lv_obj_t * obj, lv_part_t part)
  23:Drivers/lvgl/src/widgets/msgbox/../../core/lv_obj_style_gen.h **** {
  24:Drivers/lvgl/src/widgets/msgbox/../../core/lv_obj_style_gen.h ****     lv_style_value_t v = lv_obj_get_style_prop(obj, part, LV_STYLE_WIDTH);
  25:Drivers/lvgl/src/widgets/msgbox/../../core/lv_obj_style_gen.h ****     return (int32_t)v.num;
  26:Drivers/lvgl/src/widgets/msgbox/../../core/lv_obj_style_gen.h **** }
  27:Drivers/lvgl/src/widgets/msgbox/../../core/lv_obj_style_gen.h **** 
  28:Drivers/lvgl/src/widgets/msgbox/../../core/lv_obj_style_gen.h **** static inline int32_t lv_obj_get_style_min_width(const lv_obj_t * obj, lv_part_t part)
  29:Drivers/lvgl/src/widgets/msgbox/../../core/lv_obj_style_gen.h **** {
  30:Drivers/lvgl/src/widgets/msgbox/../../core/lv_obj_style_gen.h ****     lv_style_value_t v = lv_obj_get_style_prop(obj, part, LV_STYLE_MIN_WIDTH);
  31:Drivers/lvgl/src/widgets/msgbox/../../core/lv_obj_style_gen.h ****     return (int32_t)v.num;
  32:Drivers/lvgl/src/widgets/msgbox/../../core/lv_obj_style_gen.h **** }
  33:Drivers/lvgl/src/widgets/msgbox/../../core/lv_obj_style_gen.h **** 
  34:Drivers/lvgl/src/widgets/msgbox/../../core/lv_obj_style_gen.h **** static inline int32_t lv_obj_get_style_max_width(const lv_obj_t * obj, lv_part_t part)
  35:Drivers/lvgl/src/widgets/msgbox/../../core/lv_obj_style_gen.h **** {
  36:Drivers/lvgl/src/widgets/msgbox/../../core/lv_obj_style_gen.h ****     lv_style_value_t v = lv_obj_get_style_prop(obj, part, LV_STYLE_MAX_WIDTH);
  37:Drivers/lvgl/src/widgets/msgbox/../../core/lv_obj_style_gen.h ****     return (int32_t)v.num;
  38:Drivers/lvgl/src/widgets/msgbox/../../core/lv_obj_style_gen.h **** }
  39:Drivers/lvgl/src/widgets/msgbox/../../core/lv_obj_style_gen.h **** 
  40:Drivers/lvgl/src/widgets/msgbox/../../core/lv_obj_style_gen.h **** static inline int32_t lv_obj_get_style_height(const lv_obj_t * obj, lv_part_t part)
 871              		.loc 2 40 23 view .LVU258
 872              	.LBB7:
  41:Drivers/lvgl/src/widgets/msgbox/../../core/lv_obj_style_gen.h **** {
  42:Drivers/lvgl/src/widgets/msgbox/../../core/lv_obj_style_gen.h ****     lv_style_value_t v = lv_obj_get_style_prop(obj, part, LV_STYLE_HEIGHT);
 873              		.loc 2 42 5 view .LVU259
 874              		.loc 2 42 26 is_stmt 0 view .LVU260
 875 0010 0222     		movs	r2, #2
 876 0012 0021     		movs	r1, #0
 877 0014 2846     		mov	r0, r5
 878              	.LVL106:
 879              		.loc 2 42 26 view .LVU261
 880 0016 FFF7FEFF 		bl	lv_obj_get_style_prop
 881              	.LVL107:
 882 001a 0190     		str	r0, [sp, #4]
  43:Drivers/lvgl/src/widgets/msgbox/../../core/lv_obj_style_gen.h ****     return (int32_t)v.num;
 883              		.loc 2 43 5 is_stmt 1 view .LVU262
 884              	.LVL108:
 885              		.loc 2 43 5 is_stmt 0 view .LVU263
 886              	.LBE7:
ARM GAS  /var/folders/qx/2_175_4n2s19vhvtspjhb3qh0000gn/T//ccCgYYl4.s 			page 24


 887              	.LBE6:
 297:Drivers/lvgl/src/widgets/msgbox/lv_msgbox.c ****     lv_obj_set_flex_grow(content, !is_msgbox_height_size_content);
 888              		.loc 1 297 5 is_stmt 1 view .LVU264
 889 001c 6FF04041 		mvn	r1, #-1073741824
 890 0020 411A     		subs	r1, r0, r1
 891 0022 18BF     		it	ne
 892 0024 0121     		movne	r1, #1
 893 0026 2046     		mov	r0, r4
 894              	.LVL109:
 895              		.loc 1 297 5 is_stmt 0 view .LVU265
 896 0028 FFF7FEFF 		bl	lv_obj_set_flex_grow
 897              	.LVL110:
 298:Drivers/lvgl/src/widgets/msgbox/lv_msgbox.c **** }
 898              		.loc 1 298 1 view .LVU266
 899 002c 03B0     		add	sp, sp, #12
 900              	.LCFI8:
 901              		.cfi_def_cfa_offset 12
 902              		@ sp needed
 903 002e 30BD     		pop	{r4, r5, pc}
 904              		.loc 1 298 1 view .LVU267
 905              		.cfi_endproc
 906              	.LFE194:
 908              		.section	.text.lv_msgbox_get_title,"ax",%progbits
 909              		.align	1
 910              		.global	lv_msgbox_get_title
 911              		.syntax unified
 912              		.thumb
 913              		.thumb_func
 915              	lv_msgbox_get_title:
 916              	.LVL111:
 917              	.LFB190:
 263:Drivers/lvgl/src/widgets/msgbox/lv_msgbox.c ****     LV_ASSERT_OBJ(obj, MY_CLASS);
 918              		.loc 1 263 1 is_stmt 1 view -0
 919              		.cfi_startproc
 920              		@ args = 0, pretend = 0, frame = 0
 921              		@ frame_needed = 0, uses_anonymous_args = 0
 922              		@ link register save eliminated.
 264:Drivers/lvgl/src/widgets/msgbox/lv_msgbox.c ****     lv_msgbox_t * mbox = (lv_msgbox_t *)obj;
 923              		.loc 1 264 5 view .LVU269
 264:Drivers/lvgl/src/widgets/msgbox/lv_msgbox.c ****     lv_msgbox_t * mbox = (lv_msgbox_t *)obj;
 924              		.loc 1 264 5 view .LVU270
 925 0000 08B1     		cbz	r0, .L65
 264:Drivers/lvgl/src/widgets/msgbox/lv_msgbox.c ****     lv_msgbox_t * mbox = (lv_msgbox_t *)obj;
 926              		.loc 1 264 5 view .LVU271
 264:Drivers/lvgl/src/widgets/msgbox/lv_msgbox.c ****     lv_msgbox_t * mbox = (lv_msgbox_t *)obj;
 927              		.loc 1 264 33 view .LVU272
 265:Drivers/lvgl/src/widgets/msgbox/lv_msgbox.c ****     return mbox->title;
 928              		.loc 1 265 5 view .LVU273
 929              	.LVL112:
 266:Drivers/lvgl/src/widgets/msgbox/lv_msgbox.c **** }
 930              		.loc 1 266 5 view .LVU274
 267:Drivers/lvgl/src/widgets/msgbox/lv_msgbox.c **** 
 931              		.loc 1 267 1 is_stmt 0 view .LVU275
 932 0002 806B     		ldr	r0, [r0, #56]
 933              	.LVL113:
 267:Drivers/lvgl/src/widgets/msgbox/lv_msgbox.c **** 
 934              		.loc 1 267 1 view .LVU276
ARM GAS  /var/folders/qx/2_175_4n2s19vhvtspjhb3qh0000gn/T//ccCgYYl4.s 			page 25


 935 0004 7047     		bx	lr
 936              	.LVL114:
 937              	.L65:
 264:Drivers/lvgl/src/widgets/msgbox/lv_msgbox.c ****     lv_msgbox_t * mbox = (lv_msgbox_t *)obj;
 938              		.loc 1 264 5 is_stmt 1 view .LVU277
 264:Drivers/lvgl/src/widgets/msgbox/lv_msgbox.c ****     lv_msgbox_t * mbox = (lv_msgbox_t *)obj;
 939              		.loc 1 264 5 view .LVU278
 264:Drivers/lvgl/src/widgets/msgbox/lv_msgbox.c ****     lv_msgbox_t * mbox = (lv_msgbox_t *)obj;
 940              		.loc 1 264 5 view .LVU279
 264:Drivers/lvgl/src/widgets/msgbox/lv_msgbox.c ****     lv_msgbox_t * mbox = (lv_msgbox_t *)obj;
 941              		.loc 1 264 5 view .LVU280
 264:Drivers/lvgl/src/widgets/msgbox/lv_msgbox.c ****     lv_msgbox_t * mbox = (lv_msgbox_t *)obj;
 942              		.loc 1 264 5 view .LVU281
 943 0006 FEE7     		b	.L65
 944              		.cfi_endproc
 945              	.LFE190:
 947              		.section	.text.lv_msgbox_close,"ax",%progbits
 948              		.align	1
 949              		.global	lv_msgbox_close
 950              		.syntax unified
 951              		.thumb
 952              		.thumb_func
 954              	lv_msgbox_close:
 955              	.LVL115:
 956              	.LFB191:
 270:Drivers/lvgl/src/widgets/msgbox/lv_msgbox.c ****     if(lv_obj_has_flag(obj, LV_MSGBOX_FLAG_AUTO_PARENT)) lv_obj_delete(lv_obj_get_parent(obj));
 957              		.loc 1 270 1 view -0
 958              		.cfi_startproc
 959              		@ args = 0, pretend = 0, frame = 0
 960              		@ frame_needed = 0, uses_anonymous_args = 0
 270:Drivers/lvgl/src/widgets/msgbox/lv_msgbox.c ****     if(lv_obj_has_flag(obj, LV_MSGBOX_FLAG_AUTO_PARENT)) lv_obj_delete(lv_obj_get_parent(obj));
 961              		.loc 1 270 1 is_stmt 0 view .LVU283
 962 0000 10B5     		push	{r4, lr}
 963              	.LCFI9:
 964              		.cfi_def_cfa_offset 8
 965              		.cfi_offset 4, -8
 966              		.cfi_offset 14, -4
 967 0002 0446     		mov	r4, r0
 271:Drivers/lvgl/src/widgets/msgbox/lv_msgbox.c ****     else lv_obj_delete(obj);
 968              		.loc 1 271 5 is_stmt 1 view .LVU284
 271:Drivers/lvgl/src/widgets/msgbox/lv_msgbox.c ****     else lv_obj_delete(obj);
 969              		.loc 1 271 8 is_stmt 0 view .LVU285
 970 0004 4FF08061 		mov	r1, #67108864
 971 0008 FFF7FEFF 		bl	lv_obj_has_flag
 972              	.LVL116:
 271:Drivers/lvgl/src/widgets/msgbox/lv_msgbox.c ****     else lv_obj_delete(obj);
 973              		.loc 1 271 7 discriminator 1 view .LVU286
 974 000c 28B1     		cbz	r0, .L67
 271:Drivers/lvgl/src/widgets/msgbox/lv_msgbox.c ****     else lv_obj_delete(obj);
 975              		.loc 1 271 58 is_stmt 1 discriminator 1 view .LVU287
 976 000e 2046     		mov	r0, r4
 977 0010 FFF7FEFF 		bl	lv_obj_get_parent
 978              	.LVL117:
 979 0014 FFF7FEFF 		bl	lv_obj_delete
 980              	.LVL118:
 981              	.L66:
 273:Drivers/lvgl/src/widgets/msgbox/lv_msgbox.c **** 
ARM GAS  /var/folders/qx/2_175_4n2s19vhvtspjhb3qh0000gn/T//ccCgYYl4.s 			page 26


 982              		.loc 1 273 1 is_stmt 0 view .LVU288
 983 0018 10BD     		pop	{r4, pc}
 984              	.LVL119:
 985              	.L67:
 272:Drivers/lvgl/src/widgets/msgbox/lv_msgbox.c **** }
 986              		.loc 1 272 10 is_stmt 1 view .LVU289
 987 001a 2046     		mov	r0, r4
 988 001c FFF7FEFF 		bl	lv_obj_delete
 989              	.LVL120:
 273:Drivers/lvgl/src/widgets/msgbox/lv_msgbox.c **** 
 990              		.loc 1 273 1 is_stmt 0 view .LVU290
 991 0020 FAE7     		b	.L66
 992              		.cfi_endproc
 993              	.LFE191:
 995              		.section	.text.msgbox_close_click_event_cb,"ax",%progbits
 996              		.align	1
 997              		.syntax unified
 998              		.thumb
 999              		.thumb_func
 1001              	msgbox_close_click_event_cb:
 1002              	.LVL121:
 1003              	.LFB193:
 286:Drivers/lvgl/src/widgets/msgbox/lv_msgbox.c ****     lv_obj_t * btn = lv_event_get_current_target(e);
 1004              		.loc 1 286 1 is_stmt 1 view -0
 1005              		.cfi_startproc
 1006              		@ args = 0, pretend = 0, frame = 0
 1007              		@ frame_needed = 0, uses_anonymous_args = 0
 286:Drivers/lvgl/src/widgets/msgbox/lv_msgbox.c ****     lv_obj_t * btn = lv_event_get_current_target(e);
 1008              		.loc 1 286 1 is_stmt 0 view .LVU292
 1009 0000 08B5     		push	{r3, lr}
 1010              	.LCFI10:
 1011              		.cfi_def_cfa_offset 8
 1012              		.cfi_offset 3, -8
 1013              		.cfi_offset 14, -4
 287:Drivers/lvgl/src/widgets/msgbox/lv_msgbox.c ****     lv_obj_t * mbox = lv_obj_get_parent(lv_obj_get_parent(btn));
 1014              		.loc 1 287 5 is_stmt 1 view .LVU293
 287:Drivers/lvgl/src/widgets/msgbox/lv_msgbox.c ****     lv_obj_t * mbox = lv_obj_get_parent(lv_obj_get_parent(btn));
 1015              		.loc 1 287 22 is_stmt 0 view .LVU294
 1016 0002 FFF7FEFF 		bl	lv_event_get_current_target
 1017              	.LVL122:
 288:Drivers/lvgl/src/widgets/msgbox/lv_msgbox.c ****     lv_msgbox_close(mbox);
 1018              		.loc 1 288 5 is_stmt 1 view .LVU295
 288:Drivers/lvgl/src/widgets/msgbox/lv_msgbox.c ****     lv_msgbox_close(mbox);
 1019              		.loc 1 288 41 is_stmt 0 view .LVU296
 1020 0006 FFF7FEFF 		bl	lv_obj_get_parent
 1021              	.LVL123:
 288:Drivers/lvgl/src/widgets/msgbox/lv_msgbox.c ****     lv_msgbox_close(mbox);
 1022              		.loc 1 288 23 discriminator 1 view .LVU297
 1023 000a FFF7FEFF 		bl	lv_obj_get_parent
 1024              	.LVL124:
 289:Drivers/lvgl/src/widgets/msgbox/lv_msgbox.c **** }
 1025              		.loc 1 289 5 is_stmt 1 view .LVU298
 1026 000e FFF7FEFF 		bl	lv_msgbox_close
 1027              	.LVL125:
 290:Drivers/lvgl/src/widgets/msgbox/lv_msgbox.c **** 
 1028              		.loc 1 290 1 is_stmt 0 view .LVU299
 1029 0012 08BD     		pop	{r3, pc}
ARM GAS  /var/folders/qx/2_175_4n2s19vhvtspjhb3qh0000gn/T//ccCgYYl4.s 			page 27


 1030              		.cfi_endproc
 1031              	.LFE193:
 1033              		.section	.text.lv_msgbox_close_async,"ax",%progbits
 1034              		.align	1
 1035              		.global	lv_msgbox_close_async
 1036              		.syntax unified
 1037              		.thumb
 1038              		.thumb_func
 1040              	lv_msgbox_close_async:
 1041              	.LVL126:
 1042              	.LFB192:
 276:Drivers/lvgl/src/widgets/msgbox/lv_msgbox.c ****     if(lv_obj_has_flag(obj, LV_MSGBOX_FLAG_AUTO_PARENT)) lv_obj_delete_async(lv_obj_get_parent(obj)
 1043              		.loc 1 276 1 is_stmt 1 view -0
 1044              		.cfi_startproc
 1045              		@ args = 0, pretend = 0, frame = 0
 1046              		@ frame_needed = 0, uses_anonymous_args = 0
 276:Drivers/lvgl/src/widgets/msgbox/lv_msgbox.c ****     if(lv_obj_has_flag(obj, LV_MSGBOX_FLAG_AUTO_PARENT)) lv_obj_delete_async(lv_obj_get_parent(obj)
 1047              		.loc 1 276 1 is_stmt 0 view .LVU301
 1048 0000 10B5     		push	{r4, lr}
 1049              	.LCFI11:
 1050              		.cfi_def_cfa_offset 8
 1051              		.cfi_offset 4, -8
 1052              		.cfi_offset 14, -4
 1053 0002 0446     		mov	r4, r0
 277:Drivers/lvgl/src/widgets/msgbox/lv_msgbox.c ****     else lv_obj_delete_async(obj);
 1054              		.loc 1 277 5 is_stmt 1 view .LVU302
 277:Drivers/lvgl/src/widgets/msgbox/lv_msgbox.c ****     else lv_obj_delete_async(obj);
 1055              		.loc 1 277 8 is_stmt 0 view .LVU303
 1056 0004 4FF08061 		mov	r1, #67108864
 1057 0008 FFF7FEFF 		bl	lv_obj_has_flag
 1058              	.LVL127:
 277:Drivers/lvgl/src/widgets/msgbox/lv_msgbox.c ****     else lv_obj_delete_async(obj);
 1059              		.loc 1 277 7 discriminator 1 view .LVU304
 1060 000c 28B1     		cbz	r0, .L73
 277:Drivers/lvgl/src/widgets/msgbox/lv_msgbox.c ****     else lv_obj_delete_async(obj);
 1061              		.loc 1 277 58 is_stmt 1 discriminator 1 view .LVU305
 1062 000e 2046     		mov	r0, r4
 1063 0010 FFF7FEFF 		bl	lv_obj_get_parent
 1064              	.LVL128:
 1065 0014 FFF7FEFF 		bl	lv_obj_delete_async
 1066              	.LVL129:
 1067              	.L72:
 279:Drivers/lvgl/src/widgets/msgbox/lv_msgbox.c **** 
 1068              		.loc 1 279 1 is_stmt 0 view .LVU306
 1069 0018 10BD     		pop	{r4, pc}
 1070              	.LVL130:
 1071              	.L73:
 278:Drivers/lvgl/src/widgets/msgbox/lv_msgbox.c **** }
 1072              		.loc 1 278 10 is_stmt 1 view .LVU307
 1073 001a 2046     		mov	r0, r4
 1074 001c FFF7FEFF 		bl	lv_obj_delete_async
 1075              	.LVL131:
 279:Drivers/lvgl/src/widgets/msgbox/lv_msgbox.c **** 
 1076              		.loc 1 279 1 is_stmt 0 view .LVU308
 1077 0020 FAE7     		b	.L72
 1078              		.cfi_endproc
 1079              	.LFE192:
ARM GAS  /var/folders/qx/2_175_4n2s19vhvtspjhb3qh0000gn/T//ccCgYYl4.s 			page 28


 1081              		.global	lv_msgbox_backdrop_class
 1082              		.section	.rodata.str1.4,"aMS",%progbits,1
 1083              		.align	2
 1084              	.LC2:
 1085 0000 6C765F6D 		.ascii	"lv_msgbox_backdrop\000"
 1085      7367626F 
 1085      785F6261 
 1085      636B6472 
 1085      6F7000
 1086              		.section	.rodata.lv_msgbox_backdrop_class,"a"
 1087              		.align	2
 1090              	lv_msgbox_backdrop_class:
 1091 0000 00000000 		.word	lv_obj_class
 1092 0004 00000000 		.space	16
 1092      00000000 
 1092      00000000 
 1092      00000000 
 1093 0014 00000000 		.word	.LC2
 1094 0018 64000020 		.word	536871012
 1095 001c 64000020 		.word	536871012
 1096 0020 C0       		.byte	192
 1097 0021 02       		.byte	2
 1098 0022 00       		.byte	0
 1099 0023 00       		.space	1
 1100              		.global	lv_msgbox_header_button_class
 1101              		.section	.rodata.str1.4
 1102 0013 00       		.align	2
 1103              	.LC3:
 1104 0014 6C765F6D 		.ascii	"lv_msgbox_header_button\000"
 1104      7367626F 
 1104      785F6865 
 1104      61646572 
 1104      5F627574 
 1105              		.section	.rodata.lv_msgbox_header_button_class,"a"
 1106              		.align	2
 1109              	lv_msgbox_header_button_class:
 1110 0000 00000000 		.word	lv_obj_class
 1111 0004 00000000 		.space	16
 1111      00000000 
 1111      00000000 
 1111      00000000 
 1112 0014 14000000 		.word	.LC3
 1113 0018 2B000000 		.word	43
 1114 001c 64000020 		.word	536871012
 1115 0020 C4       		.byte	196
 1116 0021 02       		.byte	2
 1117 0022 00       		.byte	0
 1118 0023 00       		.space	1
 1119              		.global	lv_msgbox_footer_button_class
 1120              		.section	.rodata.str1.4
 1121              		.align	2
 1122              	.LC4:
 1123 002c 6C765F6D 		.ascii	"lv_msgbox_footer_button\000"
 1123      7367626F 
 1123      785F666F 
 1123      6F746572 
 1123      5F627574 
ARM GAS  /var/folders/qx/2_175_4n2s19vhvtspjhb3qh0000gn/T//ccCgYYl4.s 			page 29


 1124              		.section	.rodata.lv_msgbox_footer_button_class,"a"
 1125              		.align	2
 1128              	lv_msgbox_footer_button_class:
 1129 0000 00000000 		.word	lv_obj_class
 1130 0004 00000000 		.space	16
 1130      00000000 
 1130      00000000 
 1130      00000000 
 1131 0014 2C000000 		.word	.LC4
 1132 0018 FFFFFF3F 		.word	1073741823
 1133 001c 64000020 		.word	536871012
 1134 0020 C4       		.byte	196
 1135 0021 02       		.byte	2
 1136 0022 00       		.byte	0
 1137 0023 00       		.space	1
 1138              		.global	lv_msgbox_footer_class
 1139              		.section	.rodata.str1.4
 1140              		.align	2
 1141              	.LC5:
 1142 0044 6C765F6D 		.ascii	"lv_msgbox_footer\000"
 1142      7367626F 
 1142      785F666F 
 1142      6F746572 
 1142      00
 1143              		.section	.rodata.lv_msgbox_footer_class,"a"
 1144              		.align	2
 1147              	lv_msgbox_footer_class:
 1148 0000 00000000 		.word	lv_obj_class
 1149 0004 00000000 		.space	16
 1149      00000000 
 1149      00000000 
 1149      00000000 
 1150 0014 44000000 		.word	.LC5
 1151 0018 64000020 		.word	536871012
 1152 001c 2B000000 		.word	43
 1153 0020 C0       		.byte	192
 1154 0021 02       		.byte	2
 1155 0022 00       		.byte	0
 1156 0023 00       		.space	1
 1157              		.global	lv_msgbox_content_class
 1158              		.section	.rodata.str1.4
 1159 0055 000000   		.align	2
 1160              	.LC6:
 1161 0058 6C765F6D 		.ascii	"lv_msgbox_content\000"
 1161      7367626F 
 1161      785F636F 
 1161      6E74656E 
 1161      7400
 1162              		.section	.rodata.lv_msgbox_content_class,"a"
 1163              		.align	2
 1166              	lv_msgbox_content_class:
 1167 0000 00000000 		.word	lv_obj_class
 1168 0004 00000000 		.space	16
 1168      00000000 
 1168      00000000 
 1168      00000000 
 1169 0014 58000000 		.word	.LC6
ARM GAS  /var/folders/qx/2_175_4n2s19vhvtspjhb3qh0000gn/T//ccCgYYl4.s 			page 30


 1170 0018 64000020 		.word	536871012
 1171 001c FFFFFF3F 		.word	1073741823
 1172 0020 C0       		.byte	192
 1173 0021 02       		.byte	2
 1174 0022 00       		.byte	0
 1175 0023 00       		.space	1
 1176              		.global	lv_msgbox_header_class
 1177              		.section	.rodata.str1.4
 1178 006a 0000     		.align	2
 1179              	.LC7:
 1180 006c 6C765F6D 		.ascii	"lv_msgbox_header\000"
 1180      7367626F 
 1180      785F6865 
 1180      61646572 
 1180      00
 1181              		.section	.rodata.lv_msgbox_header_class,"a"
 1182              		.align	2
 1185              	lv_msgbox_header_class:
 1186 0000 00000000 		.word	lv_obj_class
 1187 0004 00000000 		.space	16
 1187      00000000 
 1187      00000000 
 1187      00000000 
 1188 0014 6C000000 		.word	.LC7
 1189 0018 64000020 		.word	536871012
 1190 001c 2B000000 		.word	43
 1191 0020 C0       		.byte	192
 1192 0021 02       		.byte	2
 1193 0022 00       		.byte	0
 1194 0023 00       		.space	1
 1195              		.global	lv_msgbox_class
 1196              		.section	.rodata.str1.4
 1197 007d 000000   		.align	2
 1198              	.LC8:
 1199 0080 6C765F6D 		.ascii	"lv_msgbox\000"
 1199      7367626F 
 1199      7800
 1200              		.section	.rodata.lv_msgbox_class,"a"
 1201              		.align	2
 1204              	lv_msgbox_class:
 1205 0000 00000000 		.word	lv_obj_class
 1206 0004 00000000 		.space	16
 1206      00000000 
 1206      00000000 
 1206      00000000 
 1207 0014 80000000 		.word	.LC8
 1208 0018 04010000 		.word	260
 1209 001c FFFFFF3F 		.word	1073741823
 1210 0020 C0       		.byte	192
 1211 0021 03       		.byte	3
 1212 0022 00       		.byte	0
 1213 0023 00       		.space	1
 1214              		.text
 1215              	.Letext0:
 1216              		.file 3 "/Applications/ArmGNUToolchain/14.3.rel1/arm-none-eabi/arm-none-eabi/include/machine/_defa
 1217              		.file 4 "/Applications/ArmGNUToolchain/14.3.rel1/arm-none-eabi/arm-none-eabi/include/sys/_stdint.h
 1218              		.file 5 "Drivers/lvgl/src/widgets/msgbox/../../core/../misc/lv_types.h"
ARM GAS  /var/folders/qx/2_175_4n2s19vhvtspjhb3qh0000gn/T//ccCgYYl4.s 			page 31


 1219              		.file 6 "Drivers/lvgl/src/widgets/msgbox/../../core/lv_obj_private.h"
 1220              		.file 7 "Drivers/lvgl/src/widgets/msgbox/../../core/lv_obj_class_private.h"
 1221              		.file 8 "Drivers/lvgl/src/widgets/msgbox/lv_msgbox_private.h"
 1222              		.file 9 "Drivers/lvgl/src/widgets/msgbox/../../core/../display/../misc/lv_array.h"
 1223              		.file 10 "Drivers/lvgl/src/widgets/msgbox/../../core/../misc/../font/../draw/../misc/lv_area.h"
 1224              		.file 11 "Drivers/lvgl/src/widgets/msgbox/../../core/../misc/../font/../draw/../misc/lv_color.h"
 1225              		.file 12 "Drivers/lvgl/src/widgets/msgbox/../../core/../misc/../layouts/flex/lv_flex.h"
 1226              		.file 13 "Drivers/lvgl/src/widgets/msgbox/../../core/../misc/lv_style.h"
 1227              		.file 14 "Drivers/lvgl/src/widgets/msgbox/../../core/../display/../misc/lv_event.h"
 1228              		.file 15 "Drivers/lvgl/src/widgets/msgbox/../../core/lv_obj_style.h"
 1229              		.file 16 "Drivers/lvgl/src/widgets/msgbox/../../core/lv_obj_class.h"
 1230              		.file 17 "Drivers/lvgl/src/widgets/msgbox/../../core/../indev/lv_indev.h"
 1231              		.file 18 "Drivers/lvgl/src/widgets/msgbox/../../core/lv_obj.h"
 1232              		.file 19 "Drivers/lvgl/src/widgets/msgbox/lv_msgbox.h"
 1233              		.file 20 "Drivers/lvgl/src/widgets/msgbox/../../core/lv_obj_tree.h"
 1234              		.file 21 "Drivers/lvgl/src/widgets/msgbox/../../core/lv_obj_pos.h"
 1235              		.file 22 "Drivers/lvgl/src/widgets/msgbox/../image/lv_image.h"
 1236              		.file 23 "Drivers/lvgl/src/widgets/msgbox/../label/lv_label.h"
 1237              		.file 24 "Drivers/lvgl/src/widgets/msgbox/../../core/../display/lv_display.h"
 1238              		.file 25 "Drivers/lvgl/src/widgets/msgbox/../../core/lv_obj_event.h"
ARM GAS  /var/folders/qx/2_175_4n2s19vhvtspjhb3qh0000gn/T//ccCgYYl4.s 			page 32

