ARM GAS  /var/folders/qx/2_175_4n2s19vhvtspjhb3qh0000gn/T//ccbOnCse.s 			page 1


   1              		.cpu cortex-m4
   2              		.arch armv7e-m
   3              		.fpu fpv4-sp-d16
   4              		.eabi_attribute 27, 1
   5              		.eabi_attribute 28, 1
   6              		.eabi_attribute 20, 1
   7              		.eabi_attribute 21, 1
   8              		.eabi_attribute 23, 3
   9              		.eabi_attribute 24, 1
  10              		.eabi_attribute 25, 1
  11              		.eabi_attribute 26, 1
  12              		.eabi_attribute 30, 1
  13              		.eabi_attribute 34, 1
  14              		.eabi_attribute 18, 4
  15              		.file	"lv_keyboard.c"
  16              		.text
  17              	.Ltext0:
  18              		.cfi_sections	.debug_frame
  19              		.file 1 "Drivers/lvgl/src/widgets/keyboard/lv_keyboard.c"
  20              		.section	.text.lv_keyboard_update_ctrl_map,"ax",%progbits
  21              		.align	1
  22              		.syntax unified
  23              		.thumb
  24              		.thumb_func
  26              	lv_keyboard_update_ctrl_map:
  27              	.LVL0:
  28              	.LFB195:
   1:Drivers/lvgl/src/widgets/keyboard/lv_keyboard.c **** 
   2:Drivers/lvgl/src/widgets/keyboard/lv_keyboard.c **** /**
   3:Drivers/lvgl/src/widgets/keyboard/lv_keyboard.c ****  * @file lv_keyboard.c
   4:Drivers/lvgl/src/widgets/keyboard/lv_keyboard.c ****  *
   5:Drivers/lvgl/src/widgets/keyboard/lv_keyboard.c ****  */
   6:Drivers/lvgl/src/widgets/keyboard/lv_keyboard.c **** 
   7:Drivers/lvgl/src/widgets/keyboard/lv_keyboard.c **** /*********************
   8:Drivers/lvgl/src/widgets/keyboard/lv_keyboard.c ****  *      INCLUDES
   9:Drivers/lvgl/src/widgets/keyboard/lv_keyboard.c ****  *********************/
  10:Drivers/lvgl/src/widgets/keyboard/lv_keyboard.c **** #include "lv_keyboard_private.h"
  11:Drivers/lvgl/src/widgets/keyboard/lv_keyboard.c **** #include "../../core/lv_obj_class_private.h"
  12:Drivers/lvgl/src/widgets/keyboard/lv_keyboard.c **** #if LV_USE_KEYBOARD
  13:Drivers/lvgl/src/widgets/keyboard/lv_keyboard.c **** 
  14:Drivers/lvgl/src/widgets/keyboard/lv_keyboard.c **** #include "../textarea/lv_textarea.h"
  15:Drivers/lvgl/src/widgets/keyboard/lv_keyboard.c **** #include "../../misc/lv_assert.h"
  16:Drivers/lvgl/src/widgets/keyboard/lv_keyboard.c **** #include "../../stdlib/lv_string.h"
  17:Drivers/lvgl/src/widgets/keyboard/lv_keyboard.c **** 
  18:Drivers/lvgl/src/widgets/keyboard/lv_keyboard.c **** /*Testing of dependencies*/
  19:Drivers/lvgl/src/widgets/keyboard/lv_keyboard.c **** #if LV_USE_BUTTONMATRIX == 0
  20:Drivers/lvgl/src/widgets/keyboard/lv_keyboard.c ****     #error "lv_buttonmatrix is required. Enable it in lv_conf.h (LV_USE_BUTTONMATRIX  1) "
  21:Drivers/lvgl/src/widgets/keyboard/lv_keyboard.c **** #endif
  22:Drivers/lvgl/src/widgets/keyboard/lv_keyboard.c **** 
  23:Drivers/lvgl/src/widgets/keyboard/lv_keyboard.c **** #if LV_USE_TEXTAREA == 0
  24:Drivers/lvgl/src/widgets/keyboard/lv_keyboard.c ****     #error "lv_textarea is required. Enable it in lv_conf.h (LV_USE_TEXTAREA  1) "
  25:Drivers/lvgl/src/widgets/keyboard/lv_keyboard.c **** #endif
  26:Drivers/lvgl/src/widgets/keyboard/lv_keyboard.c **** 
  27:Drivers/lvgl/src/widgets/keyboard/lv_keyboard.c **** /*********************
  28:Drivers/lvgl/src/widgets/keyboard/lv_keyboard.c ****  *      DEFINES
  29:Drivers/lvgl/src/widgets/keyboard/lv_keyboard.c ****  *********************/
  30:Drivers/lvgl/src/widgets/keyboard/lv_keyboard.c **** #define MY_CLASS (&lv_keyboard_class)
ARM GAS  /var/folders/qx/2_175_4n2s19vhvtspjhb3qh0000gn/T//ccbOnCse.s 			page 2


  31:Drivers/lvgl/src/widgets/keyboard/lv_keyboard.c **** #define LV_KB_BTN(width) LV_BUTTONMATRIX_CTRL_POPOVER | width
  32:Drivers/lvgl/src/widgets/keyboard/lv_keyboard.c **** 
  33:Drivers/lvgl/src/widgets/keyboard/lv_keyboard.c **** #ifndef LV_KEYBOARD_CTRL_BUTTON_MODE_TEXT_LOWER
  34:Drivers/lvgl/src/widgets/keyboard/lv_keyboard.c ****     #define LV_KEYBOARD_CTRL_BUTTON_MODE_TEXT_LOWER     "abc"
  35:Drivers/lvgl/src/widgets/keyboard/lv_keyboard.c **** #endif
  36:Drivers/lvgl/src/widgets/keyboard/lv_keyboard.c **** #ifndef LV_KEYBOARD_CTRL_BUTTON_MODE_TEXT_UPPER
  37:Drivers/lvgl/src/widgets/keyboard/lv_keyboard.c ****     #define LV_KEYBOARD_CTRL_BUTTON_MODE_TEXT_UPPER     "ABC"
  38:Drivers/lvgl/src/widgets/keyboard/lv_keyboard.c **** #endif
  39:Drivers/lvgl/src/widgets/keyboard/lv_keyboard.c **** #ifndef LV_KEYBOARD_CTRL_BUTTON_MODE_SPECIAL
  40:Drivers/lvgl/src/widgets/keyboard/lv_keyboard.c ****     #define LV_KEYBOARD_CTRL_BUTTON_MODE_SPECIAL        "1#"
  41:Drivers/lvgl/src/widgets/keyboard/lv_keyboard.c **** #endif
  42:Drivers/lvgl/src/widgets/keyboard/lv_keyboard.c **** #ifndef LV_KEYBOARD_CTRL_BUTTON_MODE_TEXT_ARABIC
  43:Drivers/lvgl/src/widgets/keyboard/lv_keyboard.c ****     #define LV_KEYBOARD_CTRL_BUTTON_MODE_TEXT_ARABIC    "أب"
  44:Drivers/lvgl/src/widgets/keyboard/lv_keyboard.c **** #endif
  45:Drivers/lvgl/src/widgets/keyboard/lv_keyboard.c **** 
  46:Drivers/lvgl/src/widgets/keyboard/lv_keyboard.c **** /**********************
  47:Drivers/lvgl/src/widgets/keyboard/lv_keyboard.c ****  *      TYPEDEFS
  48:Drivers/lvgl/src/widgets/keyboard/lv_keyboard.c ****  **********************/
  49:Drivers/lvgl/src/widgets/keyboard/lv_keyboard.c **** 
  50:Drivers/lvgl/src/widgets/keyboard/lv_keyboard.c **** /**********************
  51:Drivers/lvgl/src/widgets/keyboard/lv_keyboard.c ****  *  STATIC PROTOTYPES
  52:Drivers/lvgl/src/widgets/keyboard/lv_keyboard.c ****  **********************/
  53:Drivers/lvgl/src/widgets/keyboard/lv_keyboard.c **** static void lv_keyboard_constructor(const lv_obj_class_t * class_p, lv_obj_t * obj);
  54:Drivers/lvgl/src/widgets/keyboard/lv_keyboard.c **** 
  55:Drivers/lvgl/src/widgets/keyboard/lv_keyboard.c **** static void lv_keyboard_update_map(lv_obj_t * obj);
  56:Drivers/lvgl/src/widgets/keyboard/lv_keyboard.c **** 
  57:Drivers/lvgl/src/widgets/keyboard/lv_keyboard.c **** static void lv_keyboard_update_ctrl_map(lv_obj_t * obj);
  58:Drivers/lvgl/src/widgets/keyboard/lv_keyboard.c **** 
  59:Drivers/lvgl/src/widgets/keyboard/lv_keyboard.c **** /**********************
  60:Drivers/lvgl/src/widgets/keyboard/lv_keyboard.c ****  *  STATIC VARIABLES
  61:Drivers/lvgl/src/widgets/keyboard/lv_keyboard.c ****  **********************/
  62:Drivers/lvgl/src/widgets/keyboard/lv_keyboard.c **** #if LV_USE_OBJ_PROPERTY
  63:Drivers/lvgl/src/widgets/keyboard/lv_keyboard.c **** static const lv_property_ops_t lv_keyboard_properties[] = {
  64:Drivers/lvgl/src/widgets/keyboard/lv_keyboard.c ****     {
  65:Drivers/lvgl/src/widgets/keyboard/lv_keyboard.c ****         .id = LV_PROPERTY_KEYBOARD_TEXTAREA,
  66:Drivers/lvgl/src/widgets/keyboard/lv_keyboard.c ****         .setter = lv_keyboard_set_textarea,
  67:Drivers/lvgl/src/widgets/keyboard/lv_keyboard.c ****         .getter = lv_keyboard_get_textarea,
  68:Drivers/lvgl/src/widgets/keyboard/lv_keyboard.c ****     },
  69:Drivers/lvgl/src/widgets/keyboard/lv_keyboard.c ****     {
  70:Drivers/lvgl/src/widgets/keyboard/lv_keyboard.c ****         .id = LV_PROPERTY_KEYBOARD_MODE,
  71:Drivers/lvgl/src/widgets/keyboard/lv_keyboard.c ****         .setter = lv_keyboard_set_mode,
  72:Drivers/lvgl/src/widgets/keyboard/lv_keyboard.c ****         .getter = lv_keyboard_get_mode,
  73:Drivers/lvgl/src/widgets/keyboard/lv_keyboard.c ****     },
  74:Drivers/lvgl/src/widgets/keyboard/lv_keyboard.c ****     {
  75:Drivers/lvgl/src/widgets/keyboard/lv_keyboard.c ****         .id = LV_PROPERTY_KEYBOARD_POPOVERS,
  76:Drivers/lvgl/src/widgets/keyboard/lv_keyboard.c ****         .setter = lv_keyboard_set_popovers,
  77:Drivers/lvgl/src/widgets/keyboard/lv_keyboard.c ****         .getter = lv_keyboard_get_popovers,
  78:Drivers/lvgl/src/widgets/keyboard/lv_keyboard.c ****     },
  79:Drivers/lvgl/src/widgets/keyboard/lv_keyboard.c ****     {
  80:Drivers/lvgl/src/widgets/keyboard/lv_keyboard.c ****         .id = LV_PROPERTY_KEYBOARD_SELECTED_BUTTON,
  81:Drivers/lvgl/src/widgets/keyboard/lv_keyboard.c ****         .setter = lv_buttonmatrix_set_selected_button,
  82:Drivers/lvgl/src/widgets/keyboard/lv_keyboard.c ****         .getter = lv_keyboard_get_selected_button,
  83:Drivers/lvgl/src/widgets/keyboard/lv_keyboard.c ****     },
  84:Drivers/lvgl/src/widgets/keyboard/lv_keyboard.c **** };
  85:Drivers/lvgl/src/widgets/keyboard/lv_keyboard.c **** #endif
  86:Drivers/lvgl/src/widgets/keyboard/lv_keyboard.c **** 
  87:Drivers/lvgl/src/widgets/keyboard/lv_keyboard.c **** const lv_obj_class_t lv_keyboard_class = {
ARM GAS  /var/folders/qx/2_175_4n2s19vhvtspjhb3qh0000gn/T//ccbOnCse.s 			page 3


  88:Drivers/lvgl/src/widgets/keyboard/lv_keyboard.c ****     .constructor_cb = lv_keyboard_constructor,
  89:Drivers/lvgl/src/widgets/keyboard/lv_keyboard.c ****     .width_def = LV_PCT(100),
  90:Drivers/lvgl/src/widgets/keyboard/lv_keyboard.c ****     .height_def = LV_PCT(50),
  91:Drivers/lvgl/src/widgets/keyboard/lv_keyboard.c ****     .instance_size = sizeof(lv_keyboard_t),
  92:Drivers/lvgl/src/widgets/keyboard/lv_keyboard.c ****     .editable = 1,
  93:Drivers/lvgl/src/widgets/keyboard/lv_keyboard.c ****     .base_class = &lv_buttonmatrix_class,
  94:Drivers/lvgl/src/widgets/keyboard/lv_keyboard.c ****     .name = "lv_keyboard",
  95:Drivers/lvgl/src/widgets/keyboard/lv_keyboard.c ****     LV_PROPERTY_CLASS_FIELDS(keyboard, KEYBOARD)
  96:Drivers/lvgl/src/widgets/keyboard/lv_keyboard.c **** };
  97:Drivers/lvgl/src/widgets/keyboard/lv_keyboard.c **** 
  98:Drivers/lvgl/src/widgets/keyboard/lv_keyboard.c **** static const char * const default_kb_map_lc[] = {LV_KEYBOARD_CTRL_BUTTON_MODE_SPECIAL, "q", "w", "e
  99:Drivers/lvgl/src/widgets/keyboard/lv_keyboard.c ****                                                  LV_KEYBOARD_CTRL_BUTTON_MODE_TEXT_UPPER, "a", "s",
 100:Drivers/lvgl/src/widgets/keyboard/lv_keyboard.c ****                                                  "_", "-", "z", "x", "c", "v", "b", "n", "m", ".", 
 101:Drivers/lvgl/src/widgets/keyboard/lv_keyboard.c ****                                                  LV_SYMBOL_KEYBOARD,
 102:Drivers/lvgl/src/widgets/keyboard/lv_keyboard.c **** #if LV_USE_ARABIC_PERSIAN_CHARS == 1
 103:Drivers/lvgl/src/widgets/keyboard/lv_keyboard.c ****                                                  LV_KEYBOARD_CTRL_BUTTON_MODE_TEXT_ARABIC,
 104:Drivers/lvgl/src/widgets/keyboard/lv_keyboard.c **** #endif
 105:Drivers/lvgl/src/widgets/keyboard/lv_keyboard.c ****                                                  LV_SYMBOL_LEFT, " ", LV_SYMBOL_RIGHT, LV_SYMBOL_OK
 106:Drivers/lvgl/src/widgets/keyboard/lv_keyboard.c ****                                                 };
 107:Drivers/lvgl/src/widgets/keyboard/lv_keyboard.c **** 
 108:Drivers/lvgl/src/widgets/keyboard/lv_keyboard.c **** static const lv_buttonmatrix_ctrl_t default_kb_ctrl_lc_map[] = {
 109:Drivers/lvgl/src/widgets/keyboard/lv_keyboard.c ****     LV_KEYBOARD_CTRL_BUTTON_FLAGS | 5, LV_KB_BTN(4), LV_KB_BTN(4), LV_KB_BTN(4), LV_KB_BTN(4), LV_K
 110:Drivers/lvgl/src/widgets/keyboard/lv_keyboard.c ****     LV_KEYBOARD_CTRL_BUTTON_FLAGS | 6, LV_KB_BTN(3), LV_KB_BTN(3), LV_KB_BTN(3), LV_KB_BTN(3), LV_K
 111:Drivers/lvgl/src/widgets/keyboard/lv_keyboard.c ****     LV_BUTTONMATRIX_CTRL_CHECKED | LV_KB_BTN(1), LV_BUTTONMATRIX_CTRL_CHECKED | LV_KB_BTN(1), LV_KB
 112:Drivers/lvgl/src/widgets/keyboard/lv_keyboard.c ****     LV_KEYBOARD_CTRL_BUTTON_FLAGS | 2,
 113:Drivers/lvgl/src/widgets/keyboard/lv_keyboard.c **** #if LV_USE_ARABIC_PERSIAN_CHARS == 1
 114:Drivers/lvgl/src/widgets/keyboard/lv_keyboard.c ****     LV_KEYBOARD_CTRL_BUTTON_FLAGS | 2,
 115:Drivers/lvgl/src/widgets/keyboard/lv_keyboard.c **** #endif
 116:Drivers/lvgl/src/widgets/keyboard/lv_keyboard.c ****     LV_BUTTONMATRIX_CTRL_CHECKED | 2, 6, LV_BUTTONMATRIX_CTRL_CHECKED | 2, LV_KEYBOARD_CTRL_BUTTON_
 117:Drivers/lvgl/src/widgets/keyboard/lv_keyboard.c **** };
 118:Drivers/lvgl/src/widgets/keyboard/lv_keyboard.c **** 
 119:Drivers/lvgl/src/widgets/keyboard/lv_keyboard.c **** static const char * const default_kb_map_uc[] = {LV_KEYBOARD_CTRL_BUTTON_MODE_SPECIAL, "Q", "W", "E
 120:Drivers/lvgl/src/widgets/keyboard/lv_keyboard.c ****                                                  LV_KEYBOARD_CTRL_BUTTON_MODE_TEXT_LOWER, "A", "S",
 121:Drivers/lvgl/src/widgets/keyboard/lv_keyboard.c ****                                                  "_", "-", "Z", "X", "C", "V", "B", "N", "M", ".", 
 122:Drivers/lvgl/src/widgets/keyboard/lv_keyboard.c ****                                                  LV_SYMBOL_CLOSE,
 123:Drivers/lvgl/src/widgets/keyboard/lv_keyboard.c **** #if LV_USE_ARABIC_PERSIAN_CHARS == 1
 124:Drivers/lvgl/src/widgets/keyboard/lv_keyboard.c ****                                                  LV_KEYBOARD_CTRL_BUTTON_MODE_TEXT_ARABIC,
 125:Drivers/lvgl/src/widgets/keyboard/lv_keyboard.c **** #endif
 126:Drivers/lvgl/src/widgets/keyboard/lv_keyboard.c ****                                                  LV_SYMBOL_LEFT, " ", LV_SYMBOL_RIGHT, LV_SYMBOL_OK
 127:Drivers/lvgl/src/widgets/keyboard/lv_keyboard.c ****                                                 };
 128:Drivers/lvgl/src/widgets/keyboard/lv_keyboard.c **** 
 129:Drivers/lvgl/src/widgets/keyboard/lv_keyboard.c **** static const lv_buttonmatrix_ctrl_t default_kb_ctrl_uc_map[] = {
 130:Drivers/lvgl/src/widgets/keyboard/lv_keyboard.c ****     LV_KEYBOARD_CTRL_BUTTON_FLAGS | 5, LV_KB_BTN(4), LV_KB_BTN(4), LV_KB_BTN(4), LV_KB_BTN(4), LV_K
 131:Drivers/lvgl/src/widgets/keyboard/lv_keyboard.c ****     LV_KEYBOARD_CTRL_BUTTON_FLAGS | 6, LV_KB_BTN(3), LV_KB_BTN(3), LV_KB_BTN(3), LV_KB_BTN(3), LV_K
 132:Drivers/lvgl/src/widgets/keyboard/lv_keyboard.c ****     LV_BUTTONMATRIX_CTRL_CHECKED | LV_KB_BTN(1), LV_BUTTONMATRIX_CTRL_CHECKED | LV_KB_BTN(1), LV_KB
 133:Drivers/lvgl/src/widgets/keyboard/lv_keyboard.c ****     LV_KEYBOARD_CTRL_BUTTON_FLAGS | 2,
 134:Drivers/lvgl/src/widgets/keyboard/lv_keyboard.c **** #if LV_USE_ARABIC_PERSIAN_CHARS == 1
 135:Drivers/lvgl/src/widgets/keyboard/lv_keyboard.c ****     LV_KEYBOARD_CTRL_BUTTON_FLAGS | 2,
 136:Drivers/lvgl/src/widgets/keyboard/lv_keyboard.c **** #endif
 137:Drivers/lvgl/src/widgets/keyboard/lv_keyboard.c ****     LV_BUTTONMATRIX_CTRL_CHECKED | 2, 6, LV_BUTTONMATRIX_CTRL_CHECKED | 2, LV_KEYBOARD_CTRL_BUTTON_
 138:Drivers/lvgl/src/widgets/keyboard/lv_keyboard.c **** };
 139:Drivers/lvgl/src/widgets/keyboard/lv_keyboard.c **** 
 140:Drivers/lvgl/src/widgets/keyboard/lv_keyboard.c **** #if LV_USE_ARABIC_PERSIAN_CHARS == 1
 141:Drivers/lvgl/src/widgets/keyboard/lv_keyboard.c **** static const char * const default_kb_map_ar[] = {
 142:Drivers/lvgl/src/widgets/keyboard/lv_keyboard.c ****     LV_KEYBOARD_CTRL_BUTTON_MODE_SPECIAL, "ض", "ص", "ث", "ق", "ف", "غ", "ع", "ه", "خ", "ح
 143:Drivers/lvgl/src/widgets/keyboard/lv_keyboard.c ****     "ش", "س", "ي", "ب", "ل", "ا", "ت", "ن", "م", "ك", "ط", LV_SYMBOL_BACKSPACE, "\n",
 144:Drivers/lvgl/src/widgets/keyboard/lv_keyboard.c ****     "ذ", "ء", "ؤ", "ر", "ى", "ة", "و", "ز", "ظ", "د", "ز", "ظ", "د", "\n",
ARM GAS  /var/folders/qx/2_175_4n2s19vhvtspjhb3qh0000gn/T//ccbOnCse.s 			page 4


 145:Drivers/lvgl/src/widgets/keyboard/lv_keyboard.c ****     LV_SYMBOL_CLOSE, LV_KEYBOARD_CTRL_BUTTON_MODE_TEXT_LOWER, LV_SYMBOL_LEFT, " ", LV_SYMBOL_RIGHT,
 146:Drivers/lvgl/src/widgets/keyboard/lv_keyboard.c **** };
 147:Drivers/lvgl/src/widgets/keyboard/lv_keyboard.c **** 
 148:Drivers/lvgl/src/widgets/keyboard/lv_keyboard.c **** static const lv_buttonmatrix_ctrl_t default_kb_ctrl_ar_map[] = {
 149:Drivers/lvgl/src/widgets/keyboard/lv_keyboard.c ****     LV_KEYBOARD_CTRL_BUTTON_FLAGS | 5, 4, 4, 4, 4, 4, 4, 4, 4, 4, 4, 4,
 150:Drivers/lvgl/src/widgets/keyboard/lv_keyboard.c ****     4, 4, 4, 4, 4, 4, 4, 4, 4, 4, 4, 7,
 151:Drivers/lvgl/src/widgets/keyboard/lv_keyboard.c ****     1, 1, 1, 1, 1, 1, 1, 1, 1, 1, 1, 1, 1,
 152:Drivers/lvgl/src/widgets/keyboard/lv_keyboard.c ****     LV_KEYBOARD_CTRL_BUTTON_FLAGS | 2, LV_KEYBOARD_CTRL_BUTTON_FLAGS | 2, 2, 6, 2, 3, LV_KEYBOARD_C
 153:Drivers/lvgl/src/widgets/keyboard/lv_keyboard.c **** };
 154:Drivers/lvgl/src/widgets/keyboard/lv_keyboard.c **** #endif
 155:Drivers/lvgl/src/widgets/keyboard/lv_keyboard.c **** 
 156:Drivers/lvgl/src/widgets/keyboard/lv_keyboard.c **** static const char * const default_kb_map_spec[] = {"1", "2", "3", "4", "5", "6", "7", "8", "9", "0"
 157:Drivers/lvgl/src/widgets/keyboard/lv_keyboard.c ****                                                    LV_KEYBOARD_CTRL_BUTTON_MODE_TEXT_LOWER, "+", "&
 158:Drivers/lvgl/src/widgets/keyboard/lv_keyboard.c ****                                                    "\\",  "@", "$", "(", ")", "{", "}", "[", "]", "
 159:Drivers/lvgl/src/widgets/keyboard/lv_keyboard.c ****                                                    LV_SYMBOL_KEYBOARD,
 160:Drivers/lvgl/src/widgets/keyboard/lv_keyboard.c **** #if LV_USE_ARABIC_PERSIAN_CHARS == 1
 161:Drivers/lvgl/src/widgets/keyboard/lv_keyboard.c ****                                                    LV_KEYBOARD_CTRL_BUTTON_MODE_TEXT_ARABIC,
 162:Drivers/lvgl/src/widgets/keyboard/lv_keyboard.c **** #endif
 163:Drivers/lvgl/src/widgets/keyboard/lv_keyboard.c ****                                                    LV_SYMBOL_LEFT, " ", LV_SYMBOL_RIGHT, LV_SYMBOL_
 164:Drivers/lvgl/src/widgets/keyboard/lv_keyboard.c ****                                                   };
 165:Drivers/lvgl/src/widgets/keyboard/lv_keyboard.c **** 
 166:Drivers/lvgl/src/widgets/keyboard/lv_keyboard.c **** static const lv_buttonmatrix_ctrl_t default_kb_ctrl_spec_map[] = {
 167:Drivers/lvgl/src/widgets/keyboard/lv_keyboard.c ****     LV_KB_BTN(1), LV_KB_BTN(1), LV_KB_BTN(1), LV_KB_BTN(1), LV_KB_BTN(1), LV_KB_BTN(1), LV_KB_BTN(1
 168:Drivers/lvgl/src/widgets/keyboard/lv_keyboard.c ****     LV_KEYBOARD_CTRL_BUTTON_FLAGS | 2, LV_KB_BTN(1), LV_KB_BTN(1), LV_KB_BTN(1), LV_KB_BTN(1), LV_K
 169:Drivers/lvgl/src/widgets/keyboard/lv_keyboard.c ****     LV_KB_BTN(1), LV_KB_BTN(1), LV_KB_BTN(1), LV_KB_BTN(1), LV_KB_BTN(1), LV_KB_BTN(1), LV_KB_BTN(1
 170:Drivers/lvgl/src/widgets/keyboard/lv_keyboard.c ****     LV_KEYBOARD_CTRL_BUTTON_FLAGS | 2,
 171:Drivers/lvgl/src/widgets/keyboard/lv_keyboard.c **** #if LV_USE_ARABIC_PERSIAN_CHARS == 1
 172:Drivers/lvgl/src/widgets/keyboard/lv_keyboard.c ****     LV_KEYBOARD_CTRL_BUTTON_FLAGS | 2,
 173:Drivers/lvgl/src/widgets/keyboard/lv_keyboard.c **** #endif
 174:Drivers/lvgl/src/widgets/keyboard/lv_keyboard.c ****     LV_BUTTONMATRIX_CTRL_CHECKED | 2, 6, LV_BUTTONMATRIX_CTRL_CHECKED | 2, LV_KEYBOARD_CTRL_BUTTON_
 175:Drivers/lvgl/src/widgets/keyboard/lv_keyboard.c **** };
 176:Drivers/lvgl/src/widgets/keyboard/lv_keyboard.c **** 
 177:Drivers/lvgl/src/widgets/keyboard/lv_keyboard.c **** static const char * const default_kb_map_num[] = {"1", "2", "3", LV_SYMBOL_KEYBOARD, "\n",
 178:Drivers/lvgl/src/widgets/keyboard/lv_keyboard.c ****                                                   "4", "5", "6", LV_SYMBOL_OK, "\n",
 179:Drivers/lvgl/src/widgets/keyboard/lv_keyboard.c ****                                                   "7", "8", "9", LV_SYMBOL_BACKSPACE, "\n",
 180:Drivers/lvgl/src/widgets/keyboard/lv_keyboard.c ****                                                   "+/-", "0", ".", LV_SYMBOL_LEFT, LV_SYMBOL_RIGHT,
 181:Drivers/lvgl/src/widgets/keyboard/lv_keyboard.c ****                                                  };
 182:Drivers/lvgl/src/widgets/keyboard/lv_keyboard.c **** 
 183:Drivers/lvgl/src/widgets/keyboard/lv_keyboard.c **** static const lv_buttonmatrix_ctrl_t default_kb_ctrl_num_map[] = {
 184:Drivers/lvgl/src/widgets/keyboard/lv_keyboard.c ****     1, 1, 1, LV_KEYBOARD_CTRL_BUTTON_FLAGS | 2,
 185:Drivers/lvgl/src/widgets/keyboard/lv_keyboard.c ****     1, 1, 1, LV_KEYBOARD_CTRL_BUTTON_FLAGS | 2,
 186:Drivers/lvgl/src/widgets/keyboard/lv_keyboard.c ****     1, 1, 1, 2,
 187:Drivers/lvgl/src/widgets/keyboard/lv_keyboard.c ****     1, 1, 1, 1, 1
 188:Drivers/lvgl/src/widgets/keyboard/lv_keyboard.c **** };
 189:Drivers/lvgl/src/widgets/keyboard/lv_keyboard.c **** 
 190:Drivers/lvgl/src/widgets/keyboard/lv_keyboard.c **** static const char * const * kb_map[10] = {
 191:Drivers/lvgl/src/widgets/keyboard/lv_keyboard.c ****     default_kb_map_lc,
 192:Drivers/lvgl/src/widgets/keyboard/lv_keyboard.c ****     default_kb_map_uc,
 193:Drivers/lvgl/src/widgets/keyboard/lv_keyboard.c ****     default_kb_map_spec,
 194:Drivers/lvgl/src/widgets/keyboard/lv_keyboard.c ****     default_kb_map_num,
 195:Drivers/lvgl/src/widgets/keyboard/lv_keyboard.c ****     default_kb_map_lc,
 196:Drivers/lvgl/src/widgets/keyboard/lv_keyboard.c ****     default_kb_map_lc,
 197:Drivers/lvgl/src/widgets/keyboard/lv_keyboard.c ****     default_kb_map_lc,
 198:Drivers/lvgl/src/widgets/keyboard/lv_keyboard.c ****     default_kb_map_lc,
 199:Drivers/lvgl/src/widgets/keyboard/lv_keyboard.c **** #if LV_USE_ARABIC_PERSIAN_CHARS == 1
 200:Drivers/lvgl/src/widgets/keyboard/lv_keyboard.c ****     default_kb_map_ar,
 201:Drivers/lvgl/src/widgets/keyboard/lv_keyboard.c **** #endif
ARM GAS  /var/folders/qx/2_175_4n2s19vhvtspjhb3qh0000gn/T//ccbOnCse.s 			page 5


 202:Drivers/lvgl/src/widgets/keyboard/lv_keyboard.c ****     NULL
 203:Drivers/lvgl/src/widgets/keyboard/lv_keyboard.c **** };
 204:Drivers/lvgl/src/widgets/keyboard/lv_keyboard.c **** static const lv_buttonmatrix_ctrl_t * kb_ctrl[10] = {
 205:Drivers/lvgl/src/widgets/keyboard/lv_keyboard.c ****     default_kb_ctrl_lc_map,
 206:Drivers/lvgl/src/widgets/keyboard/lv_keyboard.c ****     default_kb_ctrl_uc_map,
 207:Drivers/lvgl/src/widgets/keyboard/lv_keyboard.c ****     default_kb_ctrl_spec_map,
 208:Drivers/lvgl/src/widgets/keyboard/lv_keyboard.c ****     default_kb_ctrl_num_map,
 209:Drivers/lvgl/src/widgets/keyboard/lv_keyboard.c ****     default_kb_ctrl_lc_map,
 210:Drivers/lvgl/src/widgets/keyboard/lv_keyboard.c ****     default_kb_ctrl_lc_map,
 211:Drivers/lvgl/src/widgets/keyboard/lv_keyboard.c ****     default_kb_ctrl_lc_map,
 212:Drivers/lvgl/src/widgets/keyboard/lv_keyboard.c ****     default_kb_ctrl_lc_map,
 213:Drivers/lvgl/src/widgets/keyboard/lv_keyboard.c **** #if LV_USE_ARABIC_PERSIAN_CHARS == 1
 214:Drivers/lvgl/src/widgets/keyboard/lv_keyboard.c ****     default_kb_ctrl_ar_map,
 215:Drivers/lvgl/src/widgets/keyboard/lv_keyboard.c **** #endif
 216:Drivers/lvgl/src/widgets/keyboard/lv_keyboard.c ****     NULL
 217:Drivers/lvgl/src/widgets/keyboard/lv_keyboard.c **** };
 218:Drivers/lvgl/src/widgets/keyboard/lv_keyboard.c **** 
 219:Drivers/lvgl/src/widgets/keyboard/lv_keyboard.c **** /**********************
 220:Drivers/lvgl/src/widgets/keyboard/lv_keyboard.c ****  *      MACROS
 221:Drivers/lvgl/src/widgets/keyboard/lv_keyboard.c ****  **********************/
 222:Drivers/lvgl/src/widgets/keyboard/lv_keyboard.c **** 
 223:Drivers/lvgl/src/widgets/keyboard/lv_keyboard.c **** /**********************
 224:Drivers/lvgl/src/widgets/keyboard/lv_keyboard.c ****  *   GLOBAL FUNCTIONS
 225:Drivers/lvgl/src/widgets/keyboard/lv_keyboard.c ****  **********************/
 226:Drivers/lvgl/src/widgets/keyboard/lv_keyboard.c **** 
 227:Drivers/lvgl/src/widgets/keyboard/lv_keyboard.c **** lv_obj_t * lv_keyboard_create(lv_obj_t * parent)
 228:Drivers/lvgl/src/widgets/keyboard/lv_keyboard.c **** {
 229:Drivers/lvgl/src/widgets/keyboard/lv_keyboard.c ****     LV_LOG_INFO("begin");
 230:Drivers/lvgl/src/widgets/keyboard/lv_keyboard.c ****     lv_obj_t * obj = lv_obj_class_create_obj(&lv_keyboard_class, parent);
 231:Drivers/lvgl/src/widgets/keyboard/lv_keyboard.c ****     lv_obj_class_init_obj(obj);
 232:Drivers/lvgl/src/widgets/keyboard/lv_keyboard.c ****     return obj;
 233:Drivers/lvgl/src/widgets/keyboard/lv_keyboard.c **** }
 234:Drivers/lvgl/src/widgets/keyboard/lv_keyboard.c **** 
 235:Drivers/lvgl/src/widgets/keyboard/lv_keyboard.c **** /*=====================
 236:Drivers/lvgl/src/widgets/keyboard/lv_keyboard.c ****  * Setter functions
 237:Drivers/lvgl/src/widgets/keyboard/lv_keyboard.c ****  *====================*/
 238:Drivers/lvgl/src/widgets/keyboard/lv_keyboard.c **** 
 239:Drivers/lvgl/src/widgets/keyboard/lv_keyboard.c **** void lv_keyboard_set_textarea(lv_obj_t * obj, lv_obj_t * ta)
 240:Drivers/lvgl/src/widgets/keyboard/lv_keyboard.c **** {
 241:Drivers/lvgl/src/widgets/keyboard/lv_keyboard.c ****     if(ta) {
 242:Drivers/lvgl/src/widgets/keyboard/lv_keyboard.c ****         LV_ASSERT_OBJ(ta, &lv_textarea_class);
 243:Drivers/lvgl/src/widgets/keyboard/lv_keyboard.c ****     }
 244:Drivers/lvgl/src/widgets/keyboard/lv_keyboard.c **** 
 245:Drivers/lvgl/src/widgets/keyboard/lv_keyboard.c ****     LV_ASSERT_OBJ(obj, MY_CLASS);
 246:Drivers/lvgl/src/widgets/keyboard/lv_keyboard.c ****     lv_keyboard_t * keyboard = (lv_keyboard_t *)obj;
 247:Drivers/lvgl/src/widgets/keyboard/lv_keyboard.c **** 
 248:Drivers/lvgl/src/widgets/keyboard/lv_keyboard.c ****     /*Hide the cursor of the old Text area if cursor management is enabled*/
 249:Drivers/lvgl/src/widgets/keyboard/lv_keyboard.c ****     if(keyboard->ta) {
 250:Drivers/lvgl/src/widgets/keyboard/lv_keyboard.c ****         lv_obj_remove_state(keyboard->ta, LV_STATE_FOCUSED);
 251:Drivers/lvgl/src/widgets/keyboard/lv_keyboard.c ****     }
 252:Drivers/lvgl/src/widgets/keyboard/lv_keyboard.c **** 
 253:Drivers/lvgl/src/widgets/keyboard/lv_keyboard.c ****     keyboard->ta = ta;
 254:Drivers/lvgl/src/widgets/keyboard/lv_keyboard.c **** 
 255:Drivers/lvgl/src/widgets/keyboard/lv_keyboard.c ****     /*Show the cursor of the new Text area if cursor management is enabled*/
 256:Drivers/lvgl/src/widgets/keyboard/lv_keyboard.c ****     if(keyboard->ta) {
 257:Drivers/lvgl/src/widgets/keyboard/lv_keyboard.c ****         lv_obj_add_state(keyboard->ta, LV_STATE_FOCUSED);
 258:Drivers/lvgl/src/widgets/keyboard/lv_keyboard.c ****     }
ARM GAS  /var/folders/qx/2_175_4n2s19vhvtspjhb3qh0000gn/T//ccbOnCse.s 			page 6


 259:Drivers/lvgl/src/widgets/keyboard/lv_keyboard.c **** }
 260:Drivers/lvgl/src/widgets/keyboard/lv_keyboard.c **** 
 261:Drivers/lvgl/src/widgets/keyboard/lv_keyboard.c **** void lv_keyboard_set_mode(lv_obj_t * obj, lv_keyboard_mode_t mode)
 262:Drivers/lvgl/src/widgets/keyboard/lv_keyboard.c **** {
 263:Drivers/lvgl/src/widgets/keyboard/lv_keyboard.c ****     LV_ASSERT_OBJ(obj, MY_CLASS);
 264:Drivers/lvgl/src/widgets/keyboard/lv_keyboard.c ****     lv_keyboard_t * keyboard = (lv_keyboard_t *)obj;
 265:Drivers/lvgl/src/widgets/keyboard/lv_keyboard.c ****     if(keyboard->mode == mode) return;
 266:Drivers/lvgl/src/widgets/keyboard/lv_keyboard.c **** 
 267:Drivers/lvgl/src/widgets/keyboard/lv_keyboard.c ****     keyboard->mode = mode;
 268:Drivers/lvgl/src/widgets/keyboard/lv_keyboard.c ****     lv_keyboard_update_map(obj);
 269:Drivers/lvgl/src/widgets/keyboard/lv_keyboard.c **** }
 270:Drivers/lvgl/src/widgets/keyboard/lv_keyboard.c **** 
 271:Drivers/lvgl/src/widgets/keyboard/lv_keyboard.c **** void lv_keyboard_set_popovers(lv_obj_t * obj, bool en)
 272:Drivers/lvgl/src/widgets/keyboard/lv_keyboard.c **** {
 273:Drivers/lvgl/src/widgets/keyboard/lv_keyboard.c ****     lv_keyboard_t * keyboard = (lv_keyboard_t *)obj;
 274:Drivers/lvgl/src/widgets/keyboard/lv_keyboard.c **** 
 275:Drivers/lvgl/src/widgets/keyboard/lv_keyboard.c ****     if(keyboard->popovers == en) {
 276:Drivers/lvgl/src/widgets/keyboard/lv_keyboard.c ****         return;
 277:Drivers/lvgl/src/widgets/keyboard/lv_keyboard.c ****     }
 278:Drivers/lvgl/src/widgets/keyboard/lv_keyboard.c **** 
 279:Drivers/lvgl/src/widgets/keyboard/lv_keyboard.c ****     keyboard->popovers = en;
 280:Drivers/lvgl/src/widgets/keyboard/lv_keyboard.c ****     lv_keyboard_update_ctrl_map(obj);
 281:Drivers/lvgl/src/widgets/keyboard/lv_keyboard.c **** }
 282:Drivers/lvgl/src/widgets/keyboard/lv_keyboard.c **** 
 283:Drivers/lvgl/src/widgets/keyboard/lv_keyboard.c **** void lv_keyboard_set_map(lv_obj_t * obj, lv_keyboard_mode_t mode, const char * const map[],
 284:Drivers/lvgl/src/widgets/keyboard/lv_keyboard.c ****                          const lv_buttonmatrix_ctrl_t ctrl_map[])
 285:Drivers/lvgl/src/widgets/keyboard/lv_keyboard.c **** {
 286:Drivers/lvgl/src/widgets/keyboard/lv_keyboard.c ****     LV_ASSERT_OBJ(obj, MY_CLASS);
 287:Drivers/lvgl/src/widgets/keyboard/lv_keyboard.c ****     kb_map[mode] = map;
 288:Drivers/lvgl/src/widgets/keyboard/lv_keyboard.c ****     kb_ctrl[mode] = ctrl_map;
 289:Drivers/lvgl/src/widgets/keyboard/lv_keyboard.c ****     lv_keyboard_update_map(obj);
 290:Drivers/lvgl/src/widgets/keyboard/lv_keyboard.c **** }
 291:Drivers/lvgl/src/widgets/keyboard/lv_keyboard.c **** 
 292:Drivers/lvgl/src/widgets/keyboard/lv_keyboard.c **** /*=====================
 293:Drivers/lvgl/src/widgets/keyboard/lv_keyboard.c ****  * Getter functions
 294:Drivers/lvgl/src/widgets/keyboard/lv_keyboard.c ****  *====================*/
 295:Drivers/lvgl/src/widgets/keyboard/lv_keyboard.c **** 
 296:Drivers/lvgl/src/widgets/keyboard/lv_keyboard.c **** lv_obj_t * lv_keyboard_get_textarea(const lv_obj_t * obj)
 297:Drivers/lvgl/src/widgets/keyboard/lv_keyboard.c **** {
 298:Drivers/lvgl/src/widgets/keyboard/lv_keyboard.c ****     LV_ASSERT_OBJ(obj, MY_CLASS);
 299:Drivers/lvgl/src/widgets/keyboard/lv_keyboard.c ****     lv_keyboard_t * keyboard = (lv_keyboard_t *)obj;
 300:Drivers/lvgl/src/widgets/keyboard/lv_keyboard.c ****     return keyboard->ta;
 301:Drivers/lvgl/src/widgets/keyboard/lv_keyboard.c **** }
 302:Drivers/lvgl/src/widgets/keyboard/lv_keyboard.c **** 
 303:Drivers/lvgl/src/widgets/keyboard/lv_keyboard.c **** lv_keyboard_mode_t lv_keyboard_get_mode(const lv_obj_t * obj)
 304:Drivers/lvgl/src/widgets/keyboard/lv_keyboard.c **** {
 305:Drivers/lvgl/src/widgets/keyboard/lv_keyboard.c ****     LV_ASSERT_OBJ(obj, MY_CLASS);
 306:Drivers/lvgl/src/widgets/keyboard/lv_keyboard.c ****     lv_keyboard_t * keyboard = (lv_keyboard_t *)obj;
 307:Drivers/lvgl/src/widgets/keyboard/lv_keyboard.c ****     return keyboard->mode;
 308:Drivers/lvgl/src/widgets/keyboard/lv_keyboard.c **** }
 309:Drivers/lvgl/src/widgets/keyboard/lv_keyboard.c **** 
 310:Drivers/lvgl/src/widgets/keyboard/lv_keyboard.c **** bool lv_keyboard_get_popovers(const lv_obj_t * obj)
 311:Drivers/lvgl/src/widgets/keyboard/lv_keyboard.c **** {
 312:Drivers/lvgl/src/widgets/keyboard/lv_keyboard.c ****     lv_keyboard_t * keyboard = (lv_keyboard_t *)obj;
 313:Drivers/lvgl/src/widgets/keyboard/lv_keyboard.c ****     return keyboard->popovers;
 314:Drivers/lvgl/src/widgets/keyboard/lv_keyboard.c **** }
 315:Drivers/lvgl/src/widgets/keyboard/lv_keyboard.c **** 
ARM GAS  /var/folders/qx/2_175_4n2s19vhvtspjhb3qh0000gn/T//ccbOnCse.s 			page 7


 316:Drivers/lvgl/src/widgets/keyboard/lv_keyboard.c **** /*=====================
 317:Drivers/lvgl/src/widgets/keyboard/lv_keyboard.c ****  * Other functions
 318:Drivers/lvgl/src/widgets/keyboard/lv_keyboard.c ****  *====================*/
 319:Drivers/lvgl/src/widgets/keyboard/lv_keyboard.c **** 
 320:Drivers/lvgl/src/widgets/keyboard/lv_keyboard.c **** void lv_keyboard_def_event_cb(lv_event_t * e)
 321:Drivers/lvgl/src/widgets/keyboard/lv_keyboard.c **** {
 322:Drivers/lvgl/src/widgets/keyboard/lv_keyboard.c ****     lv_obj_t * obj = lv_event_get_current_target(e);
 323:Drivers/lvgl/src/widgets/keyboard/lv_keyboard.c **** 
 324:Drivers/lvgl/src/widgets/keyboard/lv_keyboard.c ****     LV_ASSERT_OBJ(obj, MY_CLASS);
 325:Drivers/lvgl/src/widgets/keyboard/lv_keyboard.c ****     lv_keyboard_t * keyboard = (lv_keyboard_t *)obj;
 326:Drivers/lvgl/src/widgets/keyboard/lv_keyboard.c ****     uint32_t btn_id = lv_buttonmatrix_get_selected_button(obj);
 327:Drivers/lvgl/src/widgets/keyboard/lv_keyboard.c ****     if(btn_id == LV_BUTTONMATRIX_BUTTON_NONE) return;
 328:Drivers/lvgl/src/widgets/keyboard/lv_keyboard.c **** 
 329:Drivers/lvgl/src/widgets/keyboard/lv_keyboard.c ****     const char * txt = lv_buttonmatrix_get_button_text(obj, btn_id);
 330:Drivers/lvgl/src/widgets/keyboard/lv_keyboard.c ****     if(txt == NULL) return;
 331:Drivers/lvgl/src/widgets/keyboard/lv_keyboard.c **** 
 332:Drivers/lvgl/src/widgets/keyboard/lv_keyboard.c ****     if(lv_strcmp(txt, LV_KEYBOARD_CTRL_BUTTON_MODE_TEXT_LOWER) == 0) {
 333:Drivers/lvgl/src/widgets/keyboard/lv_keyboard.c ****         keyboard->mode = LV_KEYBOARD_MODE_TEXT_LOWER;
 334:Drivers/lvgl/src/widgets/keyboard/lv_keyboard.c ****         lv_buttonmatrix_set_map(obj, kb_map[LV_KEYBOARD_MODE_TEXT_LOWER]);
 335:Drivers/lvgl/src/widgets/keyboard/lv_keyboard.c ****         lv_keyboard_update_ctrl_map(obj);
 336:Drivers/lvgl/src/widgets/keyboard/lv_keyboard.c ****         return;
 337:Drivers/lvgl/src/widgets/keyboard/lv_keyboard.c ****     }
 338:Drivers/lvgl/src/widgets/keyboard/lv_keyboard.c **** #if LV_USE_ARABIC_PERSIAN_CHARS == 1
 339:Drivers/lvgl/src/widgets/keyboard/lv_keyboard.c ****     else if(lv_strcmp(txt, LV_KEYBOARD_CTRL_BUTTON_MODE_TEXT_ARABIC) == 0) {
 340:Drivers/lvgl/src/widgets/keyboard/lv_keyboard.c ****         keyboard->mode = LV_KEYBOARD_MODE_TEXT_ARABIC;
 341:Drivers/lvgl/src/widgets/keyboard/lv_keyboard.c ****         lv_buttonmatrix_set_map(obj, kb_map[LV_KEYBOARD_MODE_TEXT_ARABIC]);
 342:Drivers/lvgl/src/widgets/keyboard/lv_keyboard.c ****         lv_keyboard_update_ctrl_map(obj);
 343:Drivers/lvgl/src/widgets/keyboard/lv_keyboard.c ****         return;
 344:Drivers/lvgl/src/widgets/keyboard/lv_keyboard.c ****     }
 345:Drivers/lvgl/src/widgets/keyboard/lv_keyboard.c **** #endif
 346:Drivers/lvgl/src/widgets/keyboard/lv_keyboard.c ****     else if(lv_strcmp(txt, LV_KEYBOARD_CTRL_BUTTON_MODE_TEXT_UPPER) == 0) {
 347:Drivers/lvgl/src/widgets/keyboard/lv_keyboard.c ****         keyboard->mode = LV_KEYBOARD_MODE_TEXT_UPPER;
 348:Drivers/lvgl/src/widgets/keyboard/lv_keyboard.c ****         lv_buttonmatrix_set_map(obj, kb_map[LV_KEYBOARD_MODE_TEXT_UPPER]);
 349:Drivers/lvgl/src/widgets/keyboard/lv_keyboard.c ****         lv_keyboard_update_ctrl_map(obj);
 350:Drivers/lvgl/src/widgets/keyboard/lv_keyboard.c ****         return;
 351:Drivers/lvgl/src/widgets/keyboard/lv_keyboard.c ****     }
 352:Drivers/lvgl/src/widgets/keyboard/lv_keyboard.c ****     else if(lv_strcmp(txt, LV_KEYBOARD_CTRL_BUTTON_MODE_SPECIAL) == 0) {
 353:Drivers/lvgl/src/widgets/keyboard/lv_keyboard.c ****         keyboard->mode = LV_KEYBOARD_MODE_SPECIAL;
 354:Drivers/lvgl/src/widgets/keyboard/lv_keyboard.c ****         lv_buttonmatrix_set_map(obj, kb_map[LV_KEYBOARD_MODE_SPECIAL]);
 355:Drivers/lvgl/src/widgets/keyboard/lv_keyboard.c ****         lv_keyboard_update_ctrl_map(obj);
 356:Drivers/lvgl/src/widgets/keyboard/lv_keyboard.c ****         return;
 357:Drivers/lvgl/src/widgets/keyboard/lv_keyboard.c ****     }
 358:Drivers/lvgl/src/widgets/keyboard/lv_keyboard.c ****     else if(lv_strcmp(txt, LV_SYMBOL_CLOSE) == 0 || lv_strcmp(txt, LV_SYMBOL_KEYBOARD) == 0) {
 359:Drivers/lvgl/src/widgets/keyboard/lv_keyboard.c ****         lv_result_t res = lv_obj_send_event(obj, LV_EVENT_CANCEL, NULL);
 360:Drivers/lvgl/src/widgets/keyboard/lv_keyboard.c ****         if(res != LV_RESULT_OK) return;
 361:Drivers/lvgl/src/widgets/keyboard/lv_keyboard.c **** 
 362:Drivers/lvgl/src/widgets/keyboard/lv_keyboard.c ****         if(keyboard->ta) {
 363:Drivers/lvgl/src/widgets/keyboard/lv_keyboard.c ****             res = lv_obj_send_event(keyboard->ta, LV_EVENT_CANCEL, NULL);
 364:Drivers/lvgl/src/widgets/keyboard/lv_keyboard.c ****             if(res != LV_RESULT_OK) return;
 365:Drivers/lvgl/src/widgets/keyboard/lv_keyboard.c ****         }
 366:Drivers/lvgl/src/widgets/keyboard/lv_keyboard.c ****         return;
 367:Drivers/lvgl/src/widgets/keyboard/lv_keyboard.c ****     }
 368:Drivers/lvgl/src/widgets/keyboard/lv_keyboard.c ****     else if(lv_strcmp(txt, LV_SYMBOL_OK) == 0) {
 369:Drivers/lvgl/src/widgets/keyboard/lv_keyboard.c ****         lv_result_t res = lv_obj_send_event(obj, LV_EVENT_READY, NULL);
 370:Drivers/lvgl/src/widgets/keyboard/lv_keyboard.c ****         if(res != LV_RESULT_OK) return;
 371:Drivers/lvgl/src/widgets/keyboard/lv_keyboard.c **** 
 372:Drivers/lvgl/src/widgets/keyboard/lv_keyboard.c ****         if(keyboard->ta) {
ARM GAS  /var/folders/qx/2_175_4n2s19vhvtspjhb3qh0000gn/T//ccbOnCse.s 			page 8


 373:Drivers/lvgl/src/widgets/keyboard/lv_keyboard.c ****             res = lv_obj_send_event(keyboard->ta, LV_EVENT_READY, NULL);
 374:Drivers/lvgl/src/widgets/keyboard/lv_keyboard.c ****             if(res != LV_RESULT_OK) return;
 375:Drivers/lvgl/src/widgets/keyboard/lv_keyboard.c ****         }
 376:Drivers/lvgl/src/widgets/keyboard/lv_keyboard.c ****         return;
 377:Drivers/lvgl/src/widgets/keyboard/lv_keyboard.c ****     }
 378:Drivers/lvgl/src/widgets/keyboard/lv_keyboard.c **** 
 379:Drivers/lvgl/src/widgets/keyboard/lv_keyboard.c ****     /*Add the characters to the text area if set*/
 380:Drivers/lvgl/src/widgets/keyboard/lv_keyboard.c ****     if(keyboard->ta == NULL) return;
 381:Drivers/lvgl/src/widgets/keyboard/lv_keyboard.c **** 
 382:Drivers/lvgl/src/widgets/keyboard/lv_keyboard.c ****     if(lv_strcmp(txt, "Enter") == 0 || lv_strcmp(txt, LV_SYMBOL_NEW_LINE) == 0) {
 383:Drivers/lvgl/src/widgets/keyboard/lv_keyboard.c ****         lv_textarea_add_char(keyboard->ta, '\n');
 384:Drivers/lvgl/src/widgets/keyboard/lv_keyboard.c ****         if(lv_textarea_get_one_line(keyboard->ta)) {
 385:Drivers/lvgl/src/widgets/keyboard/lv_keyboard.c ****             lv_result_t res = lv_obj_send_event(keyboard->ta, LV_EVENT_READY, NULL);
 386:Drivers/lvgl/src/widgets/keyboard/lv_keyboard.c ****             if(res != LV_RESULT_OK) return;
 387:Drivers/lvgl/src/widgets/keyboard/lv_keyboard.c ****         }
 388:Drivers/lvgl/src/widgets/keyboard/lv_keyboard.c ****     }
 389:Drivers/lvgl/src/widgets/keyboard/lv_keyboard.c ****     else if(lv_strcmp(txt, LV_SYMBOL_LEFT) == 0) {
 390:Drivers/lvgl/src/widgets/keyboard/lv_keyboard.c ****         lv_textarea_cursor_left(keyboard->ta);
 391:Drivers/lvgl/src/widgets/keyboard/lv_keyboard.c ****     }
 392:Drivers/lvgl/src/widgets/keyboard/lv_keyboard.c ****     else if(lv_strcmp(txt, LV_SYMBOL_RIGHT) == 0) {
 393:Drivers/lvgl/src/widgets/keyboard/lv_keyboard.c ****         lv_textarea_cursor_right(keyboard->ta);
 394:Drivers/lvgl/src/widgets/keyboard/lv_keyboard.c ****     }
 395:Drivers/lvgl/src/widgets/keyboard/lv_keyboard.c ****     else if(lv_strcmp(txt, LV_SYMBOL_BACKSPACE) == 0) {
 396:Drivers/lvgl/src/widgets/keyboard/lv_keyboard.c ****         lv_textarea_delete_char(keyboard->ta);
 397:Drivers/lvgl/src/widgets/keyboard/lv_keyboard.c ****     }
 398:Drivers/lvgl/src/widgets/keyboard/lv_keyboard.c ****     else if(lv_strcmp(txt, "+/-") == 0) {
 399:Drivers/lvgl/src/widgets/keyboard/lv_keyboard.c ****         uint32_t cur        = lv_textarea_get_cursor_pos(keyboard->ta);
 400:Drivers/lvgl/src/widgets/keyboard/lv_keyboard.c ****         const char * ta_txt = lv_textarea_get_text(keyboard->ta);
 401:Drivers/lvgl/src/widgets/keyboard/lv_keyboard.c ****         if(ta_txt[0] == '-') {
 402:Drivers/lvgl/src/widgets/keyboard/lv_keyboard.c ****             lv_textarea_set_cursor_pos(keyboard->ta, 1);
 403:Drivers/lvgl/src/widgets/keyboard/lv_keyboard.c ****             lv_textarea_delete_char(keyboard->ta);
 404:Drivers/lvgl/src/widgets/keyboard/lv_keyboard.c ****             lv_textarea_add_char(keyboard->ta, '+');
 405:Drivers/lvgl/src/widgets/keyboard/lv_keyboard.c ****             lv_textarea_set_cursor_pos(keyboard->ta, cur);
 406:Drivers/lvgl/src/widgets/keyboard/lv_keyboard.c ****         }
 407:Drivers/lvgl/src/widgets/keyboard/lv_keyboard.c ****         else if(ta_txt[0] == '+') {
 408:Drivers/lvgl/src/widgets/keyboard/lv_keyboard.c ****             lv_textarea_set_cursor_pos(keyboard->ta, 1);
 409:Drivers/lvgl/src/widgets/keyboard/lv_keyboard.c ****             lv_textarea_delete_char(keyboard->ta);
 410:Drivers/lvgl/src/widgets/keyboard/lv_keyboard.c ****             lv_textarea_add_char(keyboard->ta, '-');
 411:Drivers/lvgl/src/widgets/keyboard/lv_keyboard.c ****             lv_textarea_set_cursor_pos(keyboard->ta, cur);
 412:Drivers/lvgl/src/widgets/keyboard/lv_keyboard.c ****         }
 413:Drivers/lvgl/src/widgets/keyboard/lv_keyboard.c ****         else {
 414:Drivers/lvgl/src/widgets/keyboard/lv_keyboard.c ****             lv_textarea_set_cursor_pos(keyboard->ta, 0);
 415:Drivers/lvgl/src/widgets/keyboard/lv_keyboard.c ****             lv_textarea_add_char(keyboard->ta, '-');
 416:Drivers/lvgl/src/widgets/keyboard/lv_keyboard.c ****             lv_textarea_set_cursor_pos(keyboard->ta, cur + 1);
 417:Drivers/lvgl/src/widgets/keyboard/lv_keyboard.c ****         }
 418:Drivers/lvgl/src/widgets/keyboard/lv_keyboard.c ****     }
 419:Drivers/lvgl/src/widgets/keyboard/lv_keyboard.c ****     else {
 420:Drivers/lvgl/src/widgets/keyboard/lv_keyboard.c ****         lv_textarea_add_text(keyboard->ta, txt);
 421:Drivers/lvgl/src/widgets/keyboard/lv_keyboard.c ****     }
 422:Drivers/lvgl/src/widgets/keyboard/lv_keyboard.c **** }
 423:Drivers/lvgl/src/widgets/keyboard/lv_keyboard.c **** 
 424:Drivers/lvgl/src/widgets/keyboard/lv_keyboard.c **** const char * const * lv_keyboard_get_map_array(const lv_obj_t * kb)
 425:Drivers/lvgl/src/widgets/keyboard/lv_keyboard.c **** {
 426:Drivers/lvgl/src/widgets/keyboard/lv_keyboard.c ****     return lv_buttonmatrix_get_map(kb);
 427:Drivers/lvgl/src/widgets/keyboard/lv_keyboard.c **** }
 428:Drivers/lvgl/src/widgets/keyboard/lv_keyboard.c **** 
 429:Drivers/lvgl/src/widgets/keyboard/lv_keyboard.c **** uint32_t lv_keyboard_get_selected_button(const lv_obj_t * obj)
ARM GAS  /var/folders/qx/2_175_4n2s19vhvtspjhb3qh0000gn/T//ccbOnCse.s 			page 9


 430:Drivers/lvgl/src/widgets/keyboard/lv_keyboard.c **** {
 431:Drivers/lvgl/src/widgets/keyboard/lv_keyboard.c ****     return lv_buttonmatrix_get_selected_button(obj);
 432:Drivers/lvgl/src/widgets/keyboard/lv_keyboard.c **** }
 433:Drivers/lvgl/src/widgets/keyboard/lv_keyboard.c **** 
 434:Drivers/lvgl/src/widgets/keyboard/lv_keyboard.c **** const char * lv_keyboard_get_button_text(const lv_obj_t * obj, uint32_t btn_id)
 435:Drivers/lvgl/src/widgets/keyboard/lv_keyboard.c **** {
 436:Drivers/lvgl/src/widgets/keyboard/lv_keyboard.c ****     return lv_buttonmatrix_get_button_text(obj, btn_id);
 437:Drivers/lvgl/src/widgets/keyboard/lv_keyboard.c **** }
 438:Drivers/lvgl/src/widgets/keyboard/lv_keyboard.c **** 
 439:Drivers/lvgl/src/widgets/keyboard/lv_keyboard.c **** /**********************
 440:Drivers/lvgl/src/widgets/keyboard/lv_keyboard.c ****  *   STATIC FUNCTIONS
 441:Drivers/lvgl/src/widgets/keyboard/lv_keyboard.c ****  **********************/
 442:Drivers/lvgl/src/widgets/keyboard/lv_keyboard.c **** 
 443:Drivers/lvgl/src/widgets/keyboard/lv_keyboard.c **** static void lv_keyboard_constructor(const lv_obj_class_t * class_p, lv_obj_t * obj)
 444:Drivers/lvgl/src/widgets/keyboard/lv_keyboard.c **** {
 445:Drivers/lvgl/src/widgets/keyboard/lv_keyboard.c ****     LV_UNUSED(class_p);
 446:Drivers/lvgl/src/widgets/keyboard/lv_keyboard.c ****     lv_obj_remove_flag(obj, LV_OBJ_FLAG_CLICK_FOCUSABLE);
 447:Drivers/lvgl/src/widgets/keyboard/lv_keyboard.c **** 
 448:Drivers/lvgl/src/widgets/keyboard/lv_keyboard.c ****     lv_keyboard_t * keyboard = (lv_keyboard_t *)obj;
 449:Drivers/lvgl/src/widgets/keyboard/lv_keyboard.c ****     keyboard->ta         = NULL;
 450:Drivers/lvgl/src/widgets/keyboard/lv_keyboard.c ****     keyboard->mode       = LV_KEYBOARD_MODE_TEXT_LOWER;
 451:Drivers/lvgl/src/widgets/keyboard/lv_keyboard.c ****     keyboard->popovers   = 0;
 452:Drivers/lvgl/src/widgets/keyboard/lv_keyboard.c **** 
 453:Drivers/lvgl/src/widgets/keyboard/lv_keyboard.c ****     lv_obj_align(obj, LV_ALIGN_BOTTOM_MID, 0, 0);
 454:Drivers/lvgl/src/widgets/keyboard/lv_keyboard.c ****     lv_obj_add_event_cb(obj, lv_keyboard_def_event_cb, LV_EVENT_VALUE_CHANGED, NULL);
 455:Drivers/lvgl/src/widgets/keyboard/lv_keyboard.c ****     lv_obj_set_style_base_dir(obj, LV_BASE_DIR_LTR, 0);
 456:Drivers/lvgl/src/widgets/keyboard/lv_keyboard.c **** 
 457:Drivers/lvgl/src/widgets/keyboard/lv_keyboard.c ****     lv_keyboard_update_map(obj);
 458:Drivers/lvgl/src/widgets/keyboard/lv_keyboard.c **** }
 459:Drivers/lvgl/src/widgets/keyboard/lv_keyboard.c **** 
 460:Drivers/lvgl/src/widgets/keyboard/lv_keyboard.c **** /**
 461:Drivers/lvgl/src/widgets/keyboard/lv_keyboard.c ****  * Update the key and control map for the current mode
 462:Drivers/lvgl/src/widgets/keyboard/lv_keyboard.c ****  * @param obj pointer to a keyboard object
 463:Drivers/lvgl/src/widgets/keyboard/lv_keyboard.c ****  */
 464:Drivers/lvgl/src/widgets/keyboard/lv_keyboard.c **** static void lv_keyboard_update_map(lv_obj_t * obj)
 465:Drivers/lvgl/src/widgets/keyboard/lv_keyboard.c **** {
 466:Drivers/lvgl/src/widgets/keyboard/lv_keyboard.c ****     lv_keyboard_t * keyboard = (lv_keyboard_t *)obj;
 467:Drivers/lvgl/src/widgets/keyboard/lv_keyboard.c ****     lv_buttonmatrix_set_map(obj, kb_map[keyboard->mode]);
 468:Drivers/lvgl/src/widgets/keyboard/lv_keyboard.c ****     lv_keyboard_update_ctrl_map(obj);
 469:Drivers/lvgl/src/widgets/keyboard/lv_keyboard.c **** }
 470:Drivers/lvgl/src/widgets/keyboard/lv_keyboard.c **** 
 471:Drivers/lvgl/src/widgets/keyboard/lv_keyboard.c **** /**
 472:Drivers/lvgl/src/widgets/keyboard/lv_keyboard.c ****  * Update the control map for the current mode
 473:Drivers/lvgl/src/widgets/keyboard/lv_keyboard.c ****  * @param obj pointer to a keyboard object
 474:Drivers/lvgl/src/widgets/keyboard/lv_keyboard.c ****  */
 475:Drivers/lvgl/src/widgets/keyboard/lv_keyboard.c **** static void lv_keyboard_update_ctrl_map(lv_obj_t * obj)
 476:Drivers/lvgl/src/widgets/keyboard/lv_keyboard.c **** {
  29              		.loc 1 476 1 view -0
  30              		.cfi_startproc
  31              		@ args = 0, pretend = 0, frame = 0
  32              		@ frame_needed = 0, uses_anonymous_args = 0
  33              		.loc 1 476 1 is_stmt 0 view .LVU1
  34 0000 38B5     		push	{r3, r4, r5, lr}
  35              	.LCFI0:
  36              		.cfi_def_cfa_offset 16
  37              		.cfi_offset 3, -16
  38              		.cfi_offset 4, -12
ARM GAS  /var/folders/qx/2_175_4n2s19vhvtspjhb3qh0000gn/T//ccbOnCse.s 			page 10


  39              		.cfi_offset 5, -8
  40              		.cfi_offset 14, -4
  41 0002 0446     		mov	r4, r0
 477:Drivers/lvgl/src/widgets/keyboard/lv_keyboard.c ****     lv_keyboard_t * keyboard = (lv_keyboard_t *)obj;
  42              		.loc 1 477 5 is_stmt 1 view .LVU2
  43              	.LVL1:
 478:Drivers/lvgl/src/widgets/keyboard/lv_keyboard.c **** 
 479:Drivers/lvgl/src/widgets/keyboard/lv_keyboard.c ****     if(keyboard->popovers) {
  44              		.loc 1 479 5 view .LVU3
  45              		.loc 1 479 8 is_stmt 0 view .LVU4
  46 0004 90F84D30 		ldrb	r3, [r0, #77]	@ zero_extendqisi2
  47              		.loc 1 479 7 view .LVU5
  48 0008 13F0010F 		tst	r3, #1
  49 000c 07D0     		beq	.L2
 480:Drivers/lvgl/src/widgets/keyboard/lv_keyboard.c ****         /*Apply the current control map (already includes LV_BUTTONMATRIX_CTRL_POPOVER flags)*/
 481:Drivers/lvgl/src/widgets/keyboard/lv_keyboard.c ****         lv_buttonmatrix_set_ctrl_map(obj, kb_ctrl[keyboard->mode]);
  50              		.loc 1 481 9 is_stmt 1 view .LVU6
  51              		.loc 1 481 59 is_stmt 0 view .LVU7
  52 000e 90F84C20 		ldrb	r2, [r0, #76]	@ zero_extendqisi2
  53              		.loc 1 481 9 view .LVU8
  54 0012 144B     		ldr	r3, .L7
  55 0014 53F82210 		ldr	r1, [r3, r2, lsl #2]
  56 0018 FFF7FEFF 		bl	lv_buttonmatrix_set_ctrl_map
  57              	.LVL2:
  58              	.L1:
 482:Drivers/lvgl/src/widgets/keyboard/lv_keyboard.c ****     }
 483:Drivers/lvgl/src/widgets/keyboard/lv_keyboard.c ****     else {
 484:Drivers/lvgl/src/widgets/keyboard/lv_keyboard.c ****         /*Make a copy of the current control map*/
 485:Drivers/lvgl/src/widgets/keyboard/lv_keyboard.c ****         lv_buttonmatrix_t * btnm = (lv_buttonmatrix_t *)obj;
 486:Drivers/lvgl/src/widgets/keyboard/lv_keyboard.c ****         lv_buttonmatrix_ctrl_t * ctrl_map = lv_malloc(btnm->btn_cnt * sizeof(lv_buttonmatrix_ctrl_t
 487:Drivers/lvgl/src/widgets/keyboard/lv_keyboard.c ****         lv_memcpy(ctrl_map, kb_ctrl[keyboard->mode], sizeof(lv_buttonmatrix_ctrl_t) * btnm->btn_cnt
 488:Drivers/lvgl/src/widgets/keyboard/lv_keyboard.c **** 
 489:Drivers/lvgl/src/widgets/keyboard/lv_keyboard.c ****         /*Remove all LV_BUTTONMATRIX_CTRL_POPOVER flags*/
 490:Drivers/lvgl/src/widgets/keyboard/lv_keyboard.c ****         uint32_t i;
 491:Drivers/lvgl/src/widgets/keyboard/lv_keyboard.c ****         for(i = 0; i < btnm->btn_cnt; i++) {
 492:Drivers/lvgl/src/widgets/keyboard/lv_keyboard.c ****             ctrl_map[i] &= (~LV_BUTTONMATRIX_CTRL_POPOVER);
 493:Drivers/lvgl/src/widgets/keyboard/lv_keyboard.c ****         }
 494:Drivers/lvgl/src/widgets/keyboard/lv_keyboard.c **** 
 495:Drivers/lvgl/src/widgets/keyboard/lv_keyboard.c ****         /*Apply new control map and clean up*/
 496:Drivers/lvgl/src/widgets/keyboard/lv_keyboard.c ****         lv_buttonmatrix_set_ctrl_map(obj, ctrl_map);
 497:Drivers/lvgl/src/widgets/keyboard/lv_keyboard.c ****         lv_free(ctrl_map);
 498:Drivers/lvgl/src/widgets/keyboard/lv_keyboard.c ****     }
 499:Drivers/lvgl/src/widgets/keyboard/lv_keyboard.c **** }
  59              		.loc 1 499 1 view .LVU9
  60 001c 38BD     		pop	{r3, r4, r5, pc}
  61              	.LVL3:
  62              	.L2:
  63              	.LBB2:
 485:Drivers/lvgl/src/widgets/keyboard/lv_keyboard.c ****         lv_buttonmatrix_ctrl_t * ctrl_map = lv_malloc(btnm->btn_cnt * sizeof(lv_buttonmatrix_ctrl_t
  64              		.loc 1 485 9 is_stmt 1 view .LVU10
 486:Drivers/lvgl/src/widgets/keyboard/lv_keyboard.c ****         lv_memcpy(ctrl_map, kb_ctrl[keyboard->mode], sizeof(lv_buttonmatrix_ctrl_t) * btnm->btn_cnt
  65              		.loc 1 486 9 view .LVU11
 486:Drivers/lvgl/src/widgets/keyboard/lv_keyboard.c ****         lv_memcpy(ctrl_map, kb_ctrl[keyboard->mode], sizeof(lv_buttonmatrix_ctrl_t) * btnm->btn_cnt
  66              		.loc 1 486 59 is_stmt 0 view .LVU12
  67 001e 806B     		ldr	r0, [r0, #56]
  68              	.LVL4:
 486:Drivers/lvgl/src/widgets/keyboard/lv_keyboard.c ****         lv_memcpy(ctrl_map, kb_ctrl[keyboard->mode], sizeof(lv_buttonmatrix_ctrl_t) * btnm->btn_cnt
ARM GAS  /var/folders/qx/2_175_4n2s19vhvtspjhb3qh0000gn/T//ccbOnCse.s 			page 11


  69              		.loc 1 486 45 view .LVU13
  70 0020 4000     		lsls	r0, r0, #1
  71 0022 FFF7FEFF 		bl	lv_malloc
  72              	.LVL5:
  73 0026 0546     		mov	r5, r0
  74              	.LVL6:
 487:Drivers/lvgl/src/widgets/keyboard/lv_keyboard.c **** 
  75              		.loc 1 487 9 is_stmt 1 view .LVU14
 487:Drivers/lvgl/src/widgets/keyboard/lv_keyboard.c **** 
  76              		.loc 1 487 45 is_stmt 0 view .LVU15
  77 0028 94F84C10 		ldrb	r1, [r4, #76]	@ zero_extendqisi2
 487:Drivers/lvgl/src/widgets/keyboard/lv_keyboard.c **** 
  78              		.loc 1 487 91 view .LVU16
  79 002c A26B     		ldr	r2, [r4, #56]
 487:Drivers/lvgl/src/widgets/keyboard/lv_keyboard.c **** 
  80              		.loc 1 487 9 view .LVU17
  81 002e 5200     		lsls	r2, r2, #1
  82 0030 0C4B     		ldr	r3, .L7
  83 0032 53F82110 		ldr	r1, [r3, r1, lsl #2]
  84 0036 FFF7FEFF 		bl	lv_memcpy
  85              	.LVL7:
 490:Drivers/lvgl/src/widgets/keyboard/lv_keyboard.c ****         for(i = 0; i < btnm->btn_cnt; i++) {
  86              		.loc 1 490 9 is_stmt 1 view .LVU18
 491:Drivers/lvgl/src/widgets/keyboard/lv_keyboard.c ****             ctrl_map[i] &= (~LV_BUTTONMATRIX_CTRL_POPOVER);
  87              		.loc 1 491 9 view .LVU19
 491:Drivers/lvgl/src/widgets/keyboard/lv_keyboard.c ****             ctrl_map[i] &= (~LV_BUTTONMATRIX_CTRL_POPOVER);
  88              		.loc 1 491 15 is_stmt 0 view .LVU20
  89 003a 0023     		movs	r3, #0
 491:Drivers/lvgl/src/widgets/keyboard/lv_keyboard.c ****             ctrl_map[i] &= (~LV_BUTTONMATRIX_CTRL_POPOVER);
  90              		.loc 1 491 9 view .LVU21
  91 003c 06E0     		b	.L4
  92              	.LVL8:
  93              	.L5:
 492:Drivers/lvgl/src/widgets/keyboard/lv_keyboard.c ****         }
  94              		.loc 1 492 13 is_stmt 1 view .LVU22
 492:Drivers/lvgl/src/widgets/keyboard/lv_keyboard.c ****         }
  95              		.loc 1 492 25 is_stmt 0 view .LVU23
  96 003e 35F81320 		ldrh	r2, [r5, r3, lsl #1]
  97 0042 22F48062 		bic	r2, r2, #1024
  98 0046 25F81320 		strh	r2, [r5, r3, lsl #1]	@ movhi
 491:Drivers/lvgl/src/widgets/keyboard/lv_keyboard.c ****             ctrl_map[i] &= (~LV_BUTTONMATRIX_CTRL_POPOVER);
  99              		.loc 1 491 40 is_stmt 1 discriminator 3 view .LVU24
 100 004a 0133     		adds	r3, r3, #1
 101              	.LVL9:
 102              	.L4:
 491:Drivers/lvgl/src/widgets/keyboard/lv_keyboard.c ****             ctrl_map[i] &= (~LV_BUTTONMATRIX_CTRL_POPOVER);
 103              		.loc 1 491 22 discriminator 1 view .LVU25
 491:Drivers/lvgl/src/widgets/keyboard/lv_keyboard.c ****             ctrl_map[i] &= (~LV_BUTTONMATRIX_CTRL_POPOVER);
 104              		.loc 1 491 28 is_stmt 0 discriminator 1 view .LVU26
 105 004c A26B     		ldr	r2, [r4, #56]
 491:Drivers/lvgl/src/widgets/keyboard/lv_keyboard.c ****             ctrl_map[i] &= (~LV_BUTTONMATRIX_CTRL_POPOVER);
 106              		.loc 1 491 22 discriminator 1 view .LVU27
 107 004e 9A42     		cmp	r2, r3
 108 0050 F5D8     		bhi	.L5
 496:Drivers/lvgl/src/widgets/keyboard/lv_keyboard.c ****         lv_free(ctrl_map);
 109              		.loc 1 496 9 is_stmt 1 view .LVU28
 110 0052 2946     		mov	r1, r5
ARM GAS  /var/folders/qx/2_175_4n2s19vhvtspjhb3qh0000gn/T//ccbOnCse.s 			page 12


 111 0054 2046     		mov	r0, r4
 112 0056 FFF7FEFF 		bl	lv_buttonmatrix_set_ctrl_map
 113              	.LVL10:
 497:Drivers/lvgl/src/widgets/keyboard/lv_keyboard.c ****     }
 114              		.loc 1 497 9 view .LVU29
 115 005a 2846     		mov	r0, r5
 116 005c FFF7FEFF 		bl	lv_free
 117              	.LVL11:
 118              	.LBE2:
 119              		.loc 1 499 1 is_stmt 0 view .LVU30
 120 0060 DCE7     		b	.L1
 121              	.L8:
 122 0062 00BF     		.align	2
 123              	.L7:
 124 0064 00000000 		.word	kb_ctrl
 125              		.cfi_endproc
 126              	.LFE195:
 128              		.section	.text.lv_keyboard_update_map,"ax",%progbits
 129              		.align	1
 130              		.syntax unified
 131              		.thumb
 132              		.thumb_func
 134              	lv_keyboard_update_map:
 135              	.LVL12:
 136              	.LFB194:
 465:Drivers/lvgl/src/widgets/keyboard/lv_keyboard.c ****     lv_keyboard_t * keyboard = (lv_keyboard_t *)obj;
 137              		.loc 1 465 1 is_stmt 1 view -0
 138              		.cfi_startproc
 139              		@ args = 0, pretend = 0, frame = 0
 140              		@ frame_needed = 0, uses_anonymous_args = 0
 465:Drivers/lvgl/src/widgets/keyboard/lv_keyboard.c ****     lv_keyboard_t * keyboard = (lv_keyboard_t *)obj;
 141              		.loc 1 465 1 is_stmt 0 view .LVU32
 142 0000 10B5     		push	{r4, lr}
 143              	.LCFI1:
 144              		.cfi_def_cfa_offset 8
 145              		.cfi_offset 4, -8
 146              		.cfi_offset 14, -4
 147 0002 0446     		mov	r4, r0
 466:Drivers/lvgl/src/widgets/keyboard/lv_keyboard.c ****     lv_buttonmatrix_set_map(obj, kb_map[keyboard->mode]);
 148              		.loc 1 466 5 is_stmt 1 view .LVU33
 149              	.LVL13:
 467:Drivers/lvgl/src/widgets/keyboard/lv_keyboard.c ****     lv_keyboard_update_ctrl_map(obj);
 150              		.loc 1 467 5 view .LVU34
 467:Drivers/lvgl/src/widgets/keyboard/lv_keyboard.c ****     lv_keyboard_update_ctrl_map(obj);
 151              		.loc 1 467 49 is_stmt 0 view .LVU35
 152 0004 90F84C20 		ldrb	r2, [r0, #76]	@ zero_extendqisi2
 467:Drivers/lvgl/src/widgets/keyboard/lv_keyboard.c ****     lv_keyboard_update_ctrl_map(obj);
 153              		.loc 1 467 5 view .LVU36
 154 0008 044B     		ldr	r3, .L11
 155 000a 53F82210 		ldr	r1, [r3, r2, lsl #2]
 156 000e FFF7FEFF 		bl	lv_buttonmatrix_set_map
 157              	.LVL14:
 468:Drivers/lvgl/src/widgets/keyboard/lv_keyboard.c **** }
 158              		.loc 1 468 5 is_stmt 1 view .LVU37
 159 0012 2046     		mov	r0, r4
 160 0014 FFF7FEFF 		bl	lv_keyboard_update_ctrl_map
 161              	.LVL15:
ARM GAS  /var/folders/qx/2_175_4n2s19vhvtspjhb3qh0000gn/T//ccbOnCse.s 			page 13


 469:Drivers/lvgl/src/widgets/keyboard/lv_keyboard.c **** 
 162              		.loc 1 469 1 is_stmt 0 view .LVU38
 163 0018 10BD     		pop	{r4, pc}
 164              	.LVL16:
 165              	.L12:
 469:Drivers/lvgl/src/widgets/keyboard/lv_keyboard.c **** 
 166              		.loc 1 469 1 view .LVU39
 167 001a 00BF     		.align	2
 168              	.L11:
 169 001c 00000000 		.word	kb_map
 170              		.cfi_endproc
 171              	.LFE194:
 173              		.section	.text.lv_keyboard_constructor,"ax",%progbits
 174              		.align	1
 175              		.syntax unified
 176              		.thumb
 177              		.thumb_func
 179              	lv_keyboard_constructor:
 180              	.LVL17:
 181              	.LFB193:
 444:Drivers/lvgl/src/widgets/keyboard/lv_keyboard.c ****     LV_UNUSED(class_p);
 182              		.loc 1 444 1 is_stmt 1 view -0
 183              		.cfi_startproc
 184              		@ args = 0, pretend = 0, frame = 0
 185              		@ frame_needed = 0, uses_anonymous_args = 0
 444:Drivers/lvgl/src/widgets/keyboard/lv_keyboard.c ****     LV_UNUSED(class_p);
 186              		.loc 1 444 1 is_stmt 0 view .LVU41
 187 0000 38B5     		push	{r3, r4, r5, lr}
 188              	.LCFI2:
 189              		.cfi_def_cfa_offset 16
 190              		.cfi_offset 3, -16
 191              		.cfi_offset 4, -12
 192              		.cfi_offset 5, -8
 193              		.cfi_offset 14, -4
 194 0002 0C46     		mov	r4, r1
 445:Drivers/lvgl/src/widgets/keyboard/lv_keyboard.c ****     lv_obj_remove_flag(obj, LV_OBJ_FLAG_CLICK_FOCUSABLE);
 195              		.loc 1 445 5 is_stmt 1 view .LVU42
 446:Drivers/lvgl/src/widgets/keyboard/lv_keyboard.c **** 
 196              		.loc 1 446 5 view .LVU43
 197 0004 0421     		movs	r1, #4
 198              	.LVL18:
 446:Drivers/lvgl/src/widgets/keyboard/lv_keyboard.c **** 
 199              		.loc 1 446 5 is_stmt 0 view .LVU44
 200 0006 2046     		mov	r0, r4
 201              	.LVL19:
 446:Drivers/lvgl/src/widgets/keyboard/lv_keyboard.c **** 
 202              		.loc 1 446 5 view .LVU45
 203 0008 FFF7FEFF 		bl	lv_obj_remove_flag
 204              	.LVL20:
 448:Drivers/lvgl/src/widgets/keyboard/lv_keyboard.c ****     keyboard->ta         = NULL;
 205              		.loc 1 448 5 is_stmt 1 view .LVU46
 449:Drivers/lvgl/src/widgets/keyboard/lv_keyboard.c ****     keyboard->mode       = LV_KEYBOARD_MODE_TEXT_LOWER;
 206              		.loc 1 449 5 view .LVU47
 449:Drivers/lvgl/src/widgets/keyboard/lv_keyboard.c ****     keyboard->mode       = LV_KEYBOARD_MODE_TEXT_LOWER;
 207              		.loc 1 449 26 is_stmt 0 view .LVU48
 208 000c 0025     		movs	r5, #0
 209 000e A564     		str	r5, [r4, #72]
ARM GAS  /var/folders/qx/2_175_4n2s19vhvtspjhb3qh0000gn/T//ccbOnCse.s 			page 14


 450:Drivers/lvgl/src/widgets/keyboard/lv_keyboard.c ****     keyboard->popovers   = 0;
 210              		.loc 1 450 5 is_stmt 1 view .LVU49
 450:Drivers/lvgl/src/widgets/keyboard/lv_keyboard.c ****     keyboard->popovers   = 0;
 211              		.loc 1 450 26 is_stmt 0 view .LVU50
 212 0010 84F84C50 		strb	r5, [r4, #76]
 451:Drivers/lvgl/src/widgets/keyboard/lv_keyboard.c **** 
 213              		.loc 1 451 5 is_stmt 1 view .LVU51
 451:Drivers/lvgl/src/widgets/keyboard/lv_keyboard.c **** 
 214              		.loc 1 451 26 is_stmt 0 view .LVU52
 215 0014 94F84D30 		ldrb	r3, [r4, #77]	@ zero_extendqisi2
 216 0018 65F30003 		bfi	r3, r5, #0, #1
 217 001c 84F84D30 		strb	r3, [r4, #77]
 453:Drivers/lvgl/src/widgets/keyboard/lv_keyboard.c ****     lv_obj_add_event_cb(obj, lv_keyboard_def_event_cb, LV_EVENT_VALUE_CHANGED, NULL);
 218              		.loc 1 453 5 is_stmt 1 view .LVU53
 219 0020 2B46     		mov	r3, r5
 220 0022 2A46     		mov	r2, r5
 221 0024 0521     		movs	r1, #5
 222 0026 2046     		mov	r0, r4
 223 0028 FFF7FEFF 		bl	lv_obj_align
 224              	.LVL21:
 454:Drivers/lvgl/src/widgets/keyboard/lv_keyboard.c ****     lv_obj_set_style_base_dir(obj, LV_BASE_DIR_LTR, 0);
 225              		.loc 1 454 5 view .LVU54
 226 002c 2B46     		mov	r3, r5
 227 002e 2322     		movs	r2, #35
 228 0030 0649     		ldr	r1, .L15
 229 0032 2046     		mov	r0, r4
 230 0034 FFF7FEFF 		bl	lv_obj_add_event_cb
 231              	.LVL22:
 455:Drivers/lvgl/src/widgets/keyboard/lv_keyboard.c **** 
 232              		.loc 1 455 5 view .LVU55
 233 0038 2A46     		mov	r2, r5
 234 003a 2946     		mov	r1, r5
 235 003c 2046     		mov	r0, r4
 236 003e FFF7FEFF 		bl	lv_obj_set_style_base_dir
 237              	.LVL23:
 457:Drivers/lvgl/src/widgets/keyboard/lv_keyboard.c **** }
 238              		.loc 1 457 5 view .LVU56
 239 0042 2046     		mov	r0, r4
 240 0044 FFF7FEFF 		bl	lv_keyboard_update_map
 241              	.LVL24:
 458:Drivers/lvgl/src/widgets/keyboard/lv_keyboard.c **** 
 242              		.loc 1 458 1 is_stmt 0 view .LVU57
 243 0048 38BD     		pop	{r3, r4, r5, pc}
 244              	.LVL25:
 245              	.L16:
 458:Drivers/lvgl/src/widgets/keyboard/lv_keyboard.c **** 
 246              		.loc 1 458 1 view .LVU58
 247 004a 00BF     		.align	2
 248              	.L15:
 249 004c 00000000 		.word	lv_keyboard_def_event_cb
 250              		.cfi_endproc
 251              	.LFE193:
 253              		.section	.rodata.lv_keyboard_def_event_cb.str1.4,"aMS",%progbits,1
 254              		.align	2
 255              	.LC0:
 256 0000 61626300 		.ascii	"abc\000"
 257              		.align	2
ARM GAS  /var/folders/qx/2_175_4n2s19vhvtspjhb3qh0000gn/T//ccbOnCse.s 			page 15


 258              	.LC1:
 259 0004 41424300 		.ascii	"ABC\000"
 260              		.align	2
 261              	.LC2:
 262 0008 312300   		.ascii	"1#\000"
 263 000b 00       		.align	2
 264              	.LC3:
 265 000c EF808D00 		.ascii	"\357\200\215\000"
 266              		.align	2
 267              	.LC4:
 268 0010 EF849C00 		.ascii	"\357\204\234\000"
 269              		.align	2
 270              	.LC5:
 271 0014 EF808C00 		.ascii	"\357\200\214\000"
 272              		.align	2
 273              	.LC6:
 274 0018 456E7465 		.ascii	"Enter\000"
 274      7200
 275 001e 0000     		.align	2
 276              	.LC7:
 277 0020 EFA2A200 		.ascii	"\357\242\242\000"
 278              		.align	2
 279              	.LC8:
 280 0024 EF819300 		.ascii	"\357\201\223\000"
 281              		.align	2
 282              	.LC9:
 283 0028 EF819400 		.ascii	"\357\201\224\000"
 284              		.align	2
 285              	.LC10:
 286 002c EF959A00 		.ascii	"\357\225\232\000"
 287              		.align	2
 288              	.LC11:
 289 0030 2B2F2D00 		.ascii	"+/-\000"
 290              		.section	.text.lv_keyboard_def_event_cb,"ax",%progbits
 291              		.align	1
 292              		.global	lv_keyboard_def_event_cb
 293              		.syntax unified
 294              		.thumb
 295              		.thumb_func
 297              	lv_keyboard_def_event_cb:
 298              	.LVL26:
 299              	.LFB189:
 321:Drivers/lvgl/src/widgets/keyboard/lv_keyboard.c ****     lv_obj_t * obj = lv_event_get_current_target(e);
 300              		.loc 1 321 1 is_stmt 1 view -0
 301              		.cfi_startproc
 302              		@ args = 0, pretend = 0, frame = 0
 303              		@ frame_needed = 0, uses_anonymous_args = 0
 321:Drivers/lvgl/src/widgets/keyboard/lv_keyboard.c ****     lv_obj_t * obj = lv_event_get_current_target(e);
 304              		.loc 1 321 1 is_stmt 0 view .LVU60
 305 0000 38B5     		push	{r3, r4, r5, lr}
 306              	.LCFI3:
 307              		.cfi_def_cfa_offset 16
 308              		.cfi_offset 3, -16
 309              		.cfi_offset 4, -12
 310              		.cfi_offset 5, -8
 311              		.cfi_offset 14, -4
 322:Drivers/lvgl/src/widgets/keyboard/lv_keyboard.c **** 
ARM GAS  /var/folders/qx/2_175_4n2s19vhvtspjhb3qh0000gn/T//ccbOnCse.s 			page 16


 312              		.loc 1 322 5 is_stmt 1 view .LVU61
 322:Drivers/lvgl/src/widgets/keyboard/lv_keyboard.c **** 
 313              		.loc 1 322 22 is_stmt 0 view .LVU62
 314 0002 FFF7FEFF 		bl	lv_event_get_current_target
 315              	.LVL27:
 324:Drivers/lvgl/src/widgets/keyboard/lv_keyboard.c ****     lv_keyboard_t * keyboard = (lv_keyboard_t *)obj;
 316              		.loc 1 324 5 is_stmt 1 view .LVU63
 324:Drivers/lvgl/src/widgets/keyboard/lv_keyboard.c ****     lv_keyboard_t * keyboard = (lv_keyboard_t *)obj;
 317              		.loc 1 324 5 view .LVU64
 318 0006 90B3     		cbz	r0, .L19
 319 0008 0446     		mov	r4, r0
 324:Drivers/lvgl/src/widgets/keyboard/lv_keyboard.c ****     lv_keyboard_t * keyboard = (lv_keyboard_t *)obj;
 320              		.loc 1 324 5 view .LVU65
 324:Drivers/lvgl/src/widgets/keyboard/lv_keyboard.c ****     lv_keyboard_t * keyboard = (lv_keyboard_t *)obj;
 321              		.loc 1 324 33 view .LVU66
 325:Drivers/lvgl/src/widgets/keyboard/lv_keyboard.c ****     uint32_t btn_id = lv_buttonmatrix_get_selected_button(obj);
 322              		.loc 1 325 5 view .LVU67
 323              	.LVL28:
 326:Drivers/lvgl/src/widgets/keyboard/lv_keyboard.c ****     if(btn_id == LV_BUTTONMATRIX_BUTTON_NONE) return;
 324              		.loc 1 326 5 view .LVU68
 326:Drivers/lvgl/src/widgets/keyboard/lv_keyboard.c ****     if(btn_id == LV_BUTTONMATRIX_BUTTON_NONE) return;
 325              		.loc 1 326 23 is_stmt 0 view .LVU69
 326 000a FFF7FEFF 		bl	lv_buttonmatrix_get_selected_button
 327              	.LVL29:
 326:Drivers/lvgl/src/widgets/keyboard/lv_keyboard.c ****     if(btn_id == LV_BUTTONMATRIX_BUTTON_NONE) return;
 328              		.loc 1 326 23 view .LVU70
 329 000e 0146     		mov	r1, r0
 330              	.LVL30:
 327:Drivers/lvgl/src/widgets/keyboard/lv_keyboard.c **** 
 331              		.loc 1 327 5 is_stmt 1 view .LVU71
 327:Drivers/lvgl/src/widgets/keyboard/lv_keyboard.c **** 
 332              		.loc 1 327 7 is_stmt 0 view .LVU72
 333 0010 4FF6FF73 		movw	r3, #65535
 334 0014 9842     		cmp	r0, r3
 335 0016 36D0     		beq	.L17
 329:Drivers/lvgl/src/widgets/keyboard/lv_keyboard.c ****     if(txt == NULL) return;
 336              		.loc 1 329 5 is_stmt 1 view .LVU73
 329:Drivers/lvgl/src/widgets/keyboard/lv_keyboard.c ****     if(txt == NULL) return;
 337              		.loc 1 329 24 is_stmt 0 view .LVU74
 338 0018 2046     		mov	r0, r4
 339              	.LVL31:
 329:Drivers/lvgl/src/widgets/keyboard/lv_keyboard.c ****     if(txt == NULL) return;
 340              		.loc 1 329 24 view .LVU75
 341 001a FFF7FEFF 		bl	lv_buttonmatrix_get_button_text
 342              	.LVL32:
 330:Drivers/lvgl/src/widgets/keyboard/lv_keyboard.c **** 
 343              		.loc 1 330 5 is_stmt 1 view .LVU76
 330:Drivers/lvgl/src/widgets/keyboard/lv_keyboard.c **** 
 344              		.loc 1 330 7 is_stmt 0 view .LVU77
 345 001e 0546     		mov	r5, r0
 346 0020 88B3     		cbz	r0, .L17
 332:Drivers/lvgl/src/widgets/keyboard/lv_keyboard.c ****         keyboard->mode = LV_KEYBOARD_MODE_TEXT_LOWER;
 347              		.loc 1 332 5 is_stmt 1 view .LVU78
 332:Drivers/lvgl/src/widgets/keyboard/lv_keyboard.c ****         keyboard->mode = LV_KEYBOARD_MODE_TEXT_LOWER;
 348              		.loc 1 332 8 is_stmt 0 view .LVU79
 349 0022 6D49     		ldr	r1, .L44
 350 0024 FFF7FEFF 		bl	lv_strcmp
ARM GAS  /var/folders/qx/2_175_4n2s19vhvtspjhb3qh0000gn/T//ccbOnCse.s 			page 17


 351              	.LVL33:
 332:Drivers/lvgl/src/widgets/keyboard/lv_keyboard.c ****         keyboard->mode = LV_KEYBOARD_MODE_TEXT_LOWER;
 352              		.loc 1 332 7 discriminator 1 view .LVU80
 353 0028 10B3     		cbz	r0, .L38
 346:Drivers/lvgl/src/widgets/keyboard/lv_keyboard.c ****         keyboard->mode = LV_KEYBOARD_MODE_TEXT_UPPER;
 354              		.loc 1 346 10 is_stmt 1 view .LVU81
 346:Drivers/lvgl/src/widgets/keyboard/lv_keyboard.c ****         keyboard->mode = LV_KEYBOARD_MODE_TEXT_UPPER;
 355              		.loc 1 346 13 is_stmt 0 view .LVU82
 356 002a 6C49     		ldr	r1, .L44+4
 357 002c 2846     		mov	r0, r5
 358 002e FFF7FEFF 		bl	lv_strcmp
 359              	.LVL34:
 346:Drivers/lvgl/src/widgets/keyboard/lv_keyboard.c ****         keyboard->mode = LV_KEYBOARD_MODE_TEXT_UPPER;
 360              		.loc 1 346 12 discriminator 1 view .LVU83
 361 0032 48B3     		cbz	r0, .L39
 352:Drivers/lvgl/src/widgets/keyboard/lv_keyboard.c ****         keyboard->mode = LV_KEYBOARD_MODE_SPECIAL;
 362              		.loc 1 352 10 is_stmt 1 view .LVU84
 352:Drivers/lvgl/src/widgets/keyboard/lv_keyboard.c ****         keyboard->mode = LV_KEYBOARD_MODE_SPECIAL;
 363              		.loc 1 352 13 is_stmt 0 view .LVU85
 364 0034 6A49     		ldr	r1, .L44+8
 365 0036 2846     		mov	r0, r5
 366 0038 FFF7FEFF 		bl	lv_strcmp
 367              	.LVL35:
 352:Drivers/lvgl/src/widgets/keyboard/lv_keyboard.c ****         keyboard->mode = LV_KEYBOARD_MODE_SPECIAL;
 368              		.loc 1 352 12 discriminator 1 view .LVU86
 369 003c 80B3     		cbz	r0, .L40
 358:Drivers/lvgl/src/widgets/keyboard/lv_keyboard.c ****         lv_result_t res = lv_obj_send_event(obj, LV_EVENT_CANCEL, NULL);
 370              		.loc 1 358 10 is_stmt 1 view .LVU87
 358:Drivers/lvgl/src/widgets/keyboard/lv_keyboard.c ****         lv_result_t res = lv_obj_send_event(obj, LV_EVENT_CANCEL, NULL);
 371              		.loc 1 358 13 is_stmt 0 view .LVU88
 372 003e 6949     		ldr	r1, .L44+12
 373 0040 2846     		mov	r0, r5
 374 0042 FFF7FEFF 		bl	lv_strcmp
 375              	.LVL36:
 358:Drivers/lvgl/src/widgets/keyboard/lv_keyboard.c ****         lv_result_t res = lv_obj_send_event(obj, LV_EVENT_CANCEL, NULL);
 376              		.loc 1 358 12 discriminator 1 view .LVU89
 377 0046 20B1     		cbz	r0, .L24
 358:Drivers/lvgl/src/widgets/keyboard/lv_keyboard.c ****         lv_result_t res = lv_obj_send_event(obj, LV_EVENT_CANCEL, NULL);
 378              		.loc 1 358 53 discriminator 1 view .LVU90
 379 0048 6749     		ldr	r1, .L44+16
 380 004a 2846     		mov	r0, r5
 381 004c FFF7FEFF 		bl	lv_strcmp
 382              	.LVL37:
 358:Drivers/lvgl/src/widgets/keyboard/lv_keyboard.c ****         lv_result_t res = lv_obj_send_event(obj, LV_EVENT_CANCEL, NULL);
 383              		.loc 1 358 50 discriminator 1 view .LVU91
 384 0050 90BB     		cbnz	r0, .L25
 385              	.L24:
 386              	.LBB3:
 359:Drivers/lvgl/src/widgets/keyboard/lv_keyboard.c ****         if(res != LV_RESULT_OK) return;
 387              		.loc 1 359 9 is_stmt 1 view .LVU92
 359:Drivers/lvgl/src/widgets/keyboard/lv_keyboard.c ****         if(res != LV_RESULT_OK) return;
 388              		.loc 1 359 27 is_stmt 0 view .LVU93
 389 0052 0022     		movs	r2, #0
 390 0054 2721     		movs	r1, #39
 391 0056 2046     		mov	r0, r4
 392 0058 FFF7FEFF 		bl	lv_obj_send_event
 393              	.LVL38:
ARM GAS  /var/folders/qx/2_175_4n2s19vhvtspjhb3qh0000gn/T//ccbOnCse.s 			page 18


 360:Drivers/lvgl/src/widgets/keyboard/lv_keyboard.c **** 
 394              		.loc 1 360 9 is_stmt 1 view .LVU94
 360:Drivers/lvgl/src/widgets/keyboard/lv_keyboard.c **** 
 395              		.loc 1 360 11 is_stmt 0 view .LVU95
 396 005c 0128     		cmp	r0, #1
 397 005e 12D1     		bne	.L17
 362:Drivers/lvgl/src/widgets/keyboard/lv_keyboard.c ****             res = lv_obj_send_event(keyboard->ta, LV_EVENT_CANCEL, NULL);
 398              		.loc 1 362 9 is_stmt 1 view .LVU96
 362:Drivers/lvgl/src/widgets/keyboard/lv_keyboard.c ****             res = lv_obj_send_event(keyboard->ta, LV_EVENT_CANCEL, NULL);
 399              		.loc 1 362 20 is_stmt 0 view .LVU97
 400 0060 A06C     		ldr	r0, [r4, #72]
 401              	.LVL39:
 362:Drivers/lvgl/src/widgets/keyboard/lv_keyboard.c ****             res = lv_obj_send_event(keyboard->ta, LV_EVENT_CANCEL, NULL);
 402              		.loc 1 362 11 view .LVU98
 403 0062 80B1     		cbz	r0, .L17
 363:Drivers/lvgl/src/widgets/keyboard/lv_keyboard.c ****             if(res != LV_RESULT_OK) return;
 404              		.loc 1 363 13 is_stmt 1 view .LVU99
 363:Drivers/lvgl/src/widgets/keyboard/lv_keyboard.c ****             if(res != LV_RESULT_OK) return;
 405              		.loc 1 363 19 is_stmt 0 view .LVU100
 406 0064 0022     		movs	r2, #0
 407 0066 2721     		movs	r1, #39
 408 0068 FFF7FEFF 		bl	lv_obj_send_event
 409              	.LVL40:
 364:Drivers/lvgl/src/widgets/keyboard/lv_keyboard.c ****         }
 410              		.loc 1 364 13 is_stmt 1 view .LVU101
 411 006c 0BE0     		b	.L17
 412              	.LVL41:
 413              	.L19:
 364:Drivers/lvgl/src/widgets/keyboard/lv_keyboard.c ****         }
 414              		.loc 1 364 13 is_stmt 0 view .LVU102
 415              	.LBE3:
 324:Drivers/lvgl/src/widgets/keyboard/lv_keyboard.c ****     lv_keyboard_t * keyboard = (lv_keyboard_t *)obj;
 416              		.loc 1 324 5 is_stmt 1 view .LVU103
 324:Drivers/lvgl/src/widgets/keyboard/lv_keyboard.c ****     lv_keyboard_t * keyboard = (lv_keyboard_t *)obj;
 417              		.loc 1 324 5 view .LVU104
 324:Drivers/lvgl/src/widgets/keyboard/lv_keyboard.c ****     lv_keyboard_t * keyboard = (lv_keyboard_t *)obj;
 418              		.loc 1 324 5 view .LVU105
 324:Drivers/lvgl/src/widgets/keyboard/lv_keyboard.c ****     lv_keyboard_t * keyboard = (lv_keyboard_t *)obj;
 419              		.loc 1 324 5 view .LVU106
 324:Drivers/lvgl/src/widgets/keyboard/lv_keyboard.c ****     lv_keyboard_t * keyboard = (lv_keyboard_t *)obj;
 420              		.loc 1 324 5 view .LVU107
 421 006e FEE7     		b	.L19
 422              	.LVL42:
 423              	.L38:
 333:Drivers/lvgl/src/widgets/keyboard/lv_keyboard.c ****         lv_buttonmatrix_set_map(obj, kb_map[LV_KEYBOARD_MODE_TEXT_LOWER]);
 424              		.loc 1 333 9 view .LVU108
 333:Drivers/lvgl/src/widgets/keyboard/lv_keyboard.c ****         lv_buttonmatrix_set_map(obj, kb_map[LV_KEYBOARD_MODE_TEXT_LOWER]);
 425              		.loc 1 333 24 is_stmt 0 view .LVU109
 426 0070 0023     		movs	r3, #0
 427 0072 84F84C30 		strb	r3, [r4, #76]
 334:Drivers/lvgl/src/widgets/keyboard/lv_keyboard.c ****         lv_keyboard_update_ctrl_map(obj);
 428              		.loc 1 334 9 is_stmt 1 view .LVU110
 429 0076 5D4B     		ldr	r3, .L44+20
 430 0078 1968     		ldr	r1, [r3]
 431 007a 2046     		mov	r0, r4
 432 007c FFF7FEFF 		bl	lv_buttonmatrix_set_map
 433              	.LVL43:
ARM GAS  /var/folders/qx/2_175_4n2s19vhvtspjhb3qh0000gn/T//ccbOnCse.s 			page 19


 335:Drivers/lvgl/src/widgets/keyboard/lv_keyboard.c ****         return;
 434              		.loc 1 335 9 view .LVU111
 435 0080 2046     		mov	r0, r4
 436 0082 FFF7FEFF 		bl	lv_keyboard_update_ctrl_map
 437              	.LVL44:
 336:Drivers/lvgl/src/widgets/keyboard/lv_keyboard.c ****     }
 438              		.loc 1 336 9 view .LVU112
 439              	.L17:
 422:Drivers/lvgl/src/widgets/keyboard/lv_keyboard.c **** 
 440              		.loc 1 422 1 is_stmt 0 view .LVU113
 441 0086 38BD     		pop	{r3, r4, r5, pc}
 442              	.LVL45:
 443              	.L39:
 347:Drivers/lvgl/src/widgets/keyboard/lv_keyboard.c ****         lv_buttonmatrix_set_map(obj, kb_map[LV_KEYBOARD_MODE_TEXT_UPPER]);
 444              		.loc 1 347 9 is_stmt 1 view .LVU114
 347:Drivers/lvgl/src/widgets/keyboard/lv_keyboard.c ****         lv_buttonmatrix_set_map(obj, kb_map[LV_KEYBOARD_MODE_TEXT_UPPER]);
 445              		.loc 1 347 24 is_stmt 0 view .LVU115
 446 0088 0123     		movs	r3, #1
 447 008a 84F84C30 		strb	r3, [r4, #76]
 348:Drivers/lvgl/src/widgets/keyboard/lv_keyboard.c ****         lv_keyboard_update_ctrl_map(obj);
 448              		.loc 1 348 9 is_stmt 1 view .LVU116
 449 008e 574B     		ldr	r3, .L44+20
 450 0090 5968     		ldr	r1, [r3, #4]
 451 0092 2046     		mov	r0, r4
 452 0094 FFF7FEFF 		bl	lv_buttonmatrix_set_map
 453              	.LVL46:
 349:Drivers/lvgl/src/widgets/keyboard/lv_keyboard.c ****         return;
 454              		.loc 1 349 9 view .LVU117
 455 0098 2046     		mov	r0, r4
 456 009a FFF7FEFF 		bl	lv_keyboard_update_ctrl_map
 457              	.LVL47:
 350:Drivers/lvgl/src/widgets/keyboard/lv_keyboard.c ****     }
 458              		.loc 1 350 9 view .LVU118
 459 009e F2E7     		b	.L17
 460              	.L40:
 353:Drivers/lvgl/src/widgets/keyboard/lv_keyboard.c ****         lv_buttonmatrix_set_map(obj, kb_map[LV_KEYBOARD_MODE_SPECIAL]);
 461              		.loc 1 353 9 view .LVU119
 353:Drivers/lvgl/src/widgets/keyboard/lv_keyboard.c ****         lv_buttonmatrix_set_map(obj, kb_map[LV_KEYBOARD_MODE_SPECIAL]);
 462              		.loc 1 353 24 is_stmt 0 view .LVU120
 463 00a0 0223     		movs	r3, #2
 464 00a2 84F84C30 		strb	r3, [r4, #76]
 354:Drivers/lvgl/src/widgets/keyboard/lv_keyboard.c ****         lv_keyboard_update_ctrl_map(obj);
 465              		.loc 1 354 9 is_stmt 1 view .LVU121
 466 00a6 514B     		ldr	r3, .L44+20
 467 00a8 9968     		ldr	r1, [r3, #8]
 468 00aa 2046     		mov	r0, r4
 469 00ac FFF7FEFF 		bl	lv_buttonmatrix_set_map
 470              	.LVL48:
 355:Drivers/lvgl/src/widgets/keyboard/lv_keyboard.c ****         return;
 471              		.loc 1 355 9 view .LVU122
 472 00b0 2046     		mov	r0, r4
 473 00b2 FFF7FEFF 		bl	lv_keyboard_update_ctrl_map
 474              	.LVL49:
 356:Drivers/lvgl/src/widgets/keyboard/lv_keyboard.c ****     }
 475              		.loc 1 356 9 view .LVU123
 476 00b6 E6E7     		b	.L17
 477              	.L25:
ARM GAS  /var/folders/qx/2_175_4n2s19vhvtspjhb3qh0000gn/T//ccbOnCse.s 			page 20


 368:Drivers/lvgl/src/widgets/keyboard/lv_keyboard.c ****         lv_result_t res = lv_obj_send_event(obj, LV_EVENT_READY, NULL);
 478              		.loc 1 368 10 view .LVU124
 368:Drivers/lvgl/src/widgets/keyboard/lv_keyboard.c ****         lv_result_t res = lv_obj_send_event(obj, LV_EVENT_READY, NULL);
 479              		.loc 1 368 13 is_stmt 0 view .LVU125
 480 00b8 4D49     		ldr	r1, .L44+24
 481 00ba 2846     		mov	r0, r5
 482 00bc FFF7FEFF 		bl	lv_strcmp
 483              	.LVL50:
 368:Drivers/lvgl/src/widgets/keyboard/lv_keyboard.c ****         lv_result_t res = lv_obj_send_event(obj, LV_EVENT_READY, NULL);
 484              		.loc 1 368 12 discriminator 1 view .LVU126
 485 00c0 D8B1     		cbz	r0, .L41
 380:Drivers/lvgl/src/widgets/keyboard/lv_keyboard.c **** 
 486              		.loc 1 380 5 is_stmt 1 view .LVU127
 380:Drivers/lvgl/src/widgets/keyboard/lv_keyboard.c **** 
 487              		.loc 1 380 16 is_stmt 0 view .LVU128
 488 00c2 A36C     		ldr	r3, [r4, #72]
 380:Drivers/lvgl/src/widgets/keyboard/lv_keyboard.c **** 
 489              		.loc 1 380 7 view .LVU129
 490 00c4 002B     		cmp	r3, #0
 491 00c6 DED0     		beq	.L17
 382:Drivers/lvgl/src/widgets/keyboard/lv_keyboard.c ****         lv_textarea_add_char(keyboard->ta, '\n');
 492              		.loc 1 382 5 is_stmt 1 view .LVU130
 382:Drivers/lvgl/src/widgets/keyboard/lv_keyboard.c ****         lv_textarea_add_char(keyboard->ta, '\n');
 493              		.loc 1 382 8 is_stmt 0 view .LVU131
 494 00c8 4A49     		ldr	r1, .L44+28
 495 00ca 2846     		mov	r0, r5
 496 00cc FFF7FEFF 		bl	lv_strcmp
 497              	.LVL51:
 382:Drivers/lvgl/src/widgets/keyboard/lv_keyboard.c ****         lv_textarea_add_char(keyboard->ta, '\n');
 498              		.loc 1 382 7 discriminator 1 view .LVU132
 499 00d0 20B1     		cbz	r0, .L29
 382:Drivers/lvgl/src/widgets/keyboard/lv_keyboard.c ****         lv_textarea_add_char(keyboard->ta, '\n');
 500              		.loc 1 382 40 discriminator 1 view .LVU133
 501 00d2 4949     		ldr	r1, .L44+32
 502 00d4 2846     		mov	r0, r5
 503 00d6 FFF7FEFF 		bl	lv_strcmp
 504              	.LVL52:
 382:Drivers/lvgl/src/widgets/keyboard/lv_keyboard.c ****         lv_textarea_add_char(keyboard->ta, '\n');
 505              		.loc 1 382 37 discriminator 1 view .LVU134
 506 00da E8B9     		cbnz	r0, .L30
 507              	.L29:
 383:Drivers/lvgl/src/widgets/keyboard/lv_keyboard.c ****         if(lv_textarea_get_one_line(keyboard->ta)) {
 508              		.loc 1 383 9 is_stmt 1 view .LVU135
 509 00dc 0A21     		movs	r1, #10
 510 00de A06C     		ldr	r0, [r4, #72]
 511 00e0 FFF7FEFF 		bl	lv_textarea_add_char
 512              	.LVL53:
 384:Drivers/lvgl/src/widgets/keyboard/lv_keyboard.c ****             lv_result_t res = lv_obj_send_event(keyboard->ta, LV_EVENT_READY, NULL);
 513              		.loc 1 384 9 view .LVU136
 384:Drivers/lvgl/src/widgets/keyboard/lv_keyboard.c ****             lv_result_t res = lv_obj_send_event(keyboard->ta, LV_EVENT_READY, NULL);
 514              		.loc 1 384 12 is_stmt 0 view .LVU137
 515 00e4 A06C     		ldr	r0, [r4, #72]
 516 00e6 FFF7FEFF 		bl	lv_textarea_get_one_line
 517              	.LVL54:
 384:Drivers/lvgl/src/widgets/keyboard/lv_keyboard.c ****             lv_result_t res = lv_obj_send_event(keyboard->ta, LV_EVENT_READY, NULL);
 518              		.loc 1 384 11 discriminator 1 view .LVU138
 519 00ea 0028     		cmp	r0, #0
ARM GAS  /var/folders/qx/2_175_4n2s19vhvtspjhb3qh0000gn/T//ccbOnCse.s 			page 21


 520 00ec CBD0     		beq	.L17
 521              	.LBB4:
 385:Drivers/lvgl/src/widgets/keyboard/lv_keyboard.c ****             if(res != LV_RESULT_OK) return;
 522              		.loc 1 385 13 is_stmt 1 view .LVU139
 385:Drivers/lvgl/src/widgets/keyboard/lv_keyboard.c ****             if(res != LV_RESULT_OK) return;
 523              		.loc 1 385 31 is_stmt 0 view .LVU140
 524 00ee 0022     		movs	r2, #0
 525 00f0 2621     		movs	r1, #38
 526 00f2 A06C     		ldr	r0, [r4, #72]
 527 00f4 FFF7FEFF 		bl	lv_obj_send_event
 528              	.LVL55:
 386:Drivers/lvgl/src/widgets/keyboard/lv_keyboard.c ****         }
 529              		.loc 1 386 13 is_stmt 1 view .LVU141
 386:Drivers/lvgl/src/widgets/keyboard/lv_keyboard.c ****         }
 530              		.loc 1 386 37 discriminator 1 view .LVU142
 531 00f8 C5E7     		b	.L17
 532              	.L41:
 386:Drivers/lvgl/src/widgets/keyboard/lv_keyboard.c ****         }
 533              		.loc 1 386 37 is_stmt 0 discriminator 1 view .LVU143
 534              	.LBE4:
 535              	.LBB5:
 369:Drivers/lvgl/src/widgets/keyboard/lv_keyboard.c ****         if(res != LV_RESULT_OK) return;
 536              		.loc 1 369 9 is_stmt 1 view .LVU144
 369:Drivers/lvgl/src/widgets/keyboard/lv_keyboard.c ****         if(res != LV_RESULT_OK) return;
 537              		.loc 1 369 27 is_stmt 0 view .LVU145
 538 00fa 0022     		movs	r2, #0
 539 00fc 2621     		movs	r1, #38
 540 00fe 2046     		mov	r0, r4
 541 0100 FFF7FEFF 		bl	lv_obj_send_event
 542              	.LVL56:
 370:Drivers/lvgl/src/widgets/keyboard/lv_keyboard.c **** 
 543              		.loc 1 370 9 is_stmt 1 view .LVU146
 370:Drivers/lvgl/src/widgets/keyboard/lv_keyboard.c **** 
 544              		.loc 1 370 11 is_stmt 0 view .LVU147
 545 0104 0128     		cmp	r0, #1
 546 0106 BED1     		bne	.L17
 372:Drivers/lvgl/src/widgets/keyboard/lv_keyboard.c ****             res = lv_obj_send_event(keyboard->ta, LV_EVENT_READY, NULL);
 547              		.loc 1 372 9 is_stmt 1 view .LVU148
 372:Drivers/lvgl/src/widgets/keyboard/lv_keyboard.c ****             res = lv_obj_send_event(keyboard->ta, LV_EVENT_READY, NULL);
 548              		.loc 1 372 20 is_stmt 0 view .LVU149
 549 0108 A06C     		ldr	r0, [r4, #72]
 550              	.LVL57:
 372:Drivers/lvgl/src/widgets/keyboard/lv_keyboard.c ****             res = lv_obj_send_event(keyboard->ta, LV_EVENT_READY, NULL);
 551              		.loc 1 372 11 view .LVU150
 552 010a 0028     		cmp	r0, #0
 553 010c BBD0     		beq	.L17
 373:Drivers/lvgl/src/widgets/keyboard/lv_keyboard.c ****             if(res != LV_RESULT_OK) return;
 554              		.loc 1 373 13 is_stmt 1 view .LVU151
 373:Drivers/lvgl/src/widgets/keyboard/lv_keyboard.c ****             if(res != LV_RESULT_OK) return;
 555              		.loc 1 373 19 is_stmt 0 view .LVU152
 556 010e 0022     		movs	r2, #0
 557 0110 2621     		movs	r1, #38
 558 0112 FFF7FEFF 		bl	lv_obj_send_event
 559              	.LVL58:
 374:Drivers/lvgl/src/widgets/keyboard/lv_keyboard.c ****         }
 560              		.loc 1 374 13 is_stmt 1 view .LVU153
 561 0116 B6E7     		b	.L17
ARM GAS  /var/folders/qx/2_175_4n2s19vhvtspjhb3qh0000gn/T//ccbOnCse.s 			page 22


 562              	.LVL59:
 563              	.L30:
 374:Drivers/lvgl/src/widgets/keyboard/lv_keyboard.c ****         }
 564              		.loc 1 374 13 is_stmt 0 view .LVU154
 565              	.LBE5:
 389:Drivers/lvgl/src/widgets/keyboard/lv_keyboard.c ****         lv_textarea_cursor_left(keyboard->ta);
 566              		.loc 1 389 10 is_stmt 1 view .LVU155
 389:Drivers/lvgl/src/widgets/keyboard/lv_keyboard.c ****         lv_textarea_cursor_left(keyboard->ta);
 567              		.loc 1 389 13 is_stmt 0 view .LVU156
 568 0118 3849     		ldr	r1, .L44+36
 569 011a 2846     		mov	r0, r5
 570 011c FFF7FEFF 		bl	lv_strcmp
 571              	.LVL60:
 389:Drivers/lvgl/src/widgets/keyboard/lv_keyboard.c ****         lv_textarea_cursor_left(keyboard->ta);
 572              		.loc 1 389 12 discriminator 1 view .LVU157
 573 0120 18B9     		cbnz	r0, .L31
 390:Drivers/lvgl/src/widgets/keyboard/lv_keyboard.c ****     }
 574              		.loc 1 390 9 is_stmt 1 view .LVU158
 575 0122 A06C     		ldr	r0, [r4, #72]
 576 0124 FFF7FEFF 		bl	lv_textarea_cursor_left
 577              	.LVL61:
 578 0128 ADE7     		b	.L17
 579              	.L31:
 392:Drivers/lvgl/src/widgets/keyboard/lv_keyboard.c ****         lv_textarea_cursor_right(keyboard->ta);
 580              		.loc 1 392 10 view .LVU159
 392:Drivers/lvgl/src/widgets/keyboard/lv_keyboard.c ****         lv_textarea_cursor_right(keyboard->ta);
 581              		.loc 1 392 13 is_stmt 0 view .LVU160
 582 012a 3549     		ldr	r1, .L44+40
 583 012c 2846     		mov	r0, r5
 584 012e FFF7FEFF 		bl	lv_strcmp
 585              	.LVL62:
 392:Drivers/lvgl/src/widgets/keyboard/lv_keyboard.c ****         lv_textarea_cursor_right(keyboard->ta);
 586              		.loc 1 392 12 discriminator 1 view .LVU161
 587 0132 18B9     		cbnz	r0, .L32
 393:Drivers/lvgl/src/widgets/keyboard/lv_keyboard.c ****     }
 588              		.loc 1 393 9 is_stmt 1 view .LVU162
 589 0134 A06C     		ldr	r0, [r4, #72]
 590 0136 FFF7FEFF 		bl	lv_textarea_cursor_right
 591              	.LVL63:
 592 013a A4E7     		b	.L17
 593              	.L32:
 395:Drivers/lvgl/src/widgets/keyboard/lv_keyboard.c ****         lv_textarea_delete_char(keyboard->ta);
 594              		.loc 1 395 10 view .LVU163
 395:Drivers/lvgl/src/widgets/keyboard/lv_keyboard.c ****         lv_textarea_delete_char(keyboard->ta);
 595              		.loc 1 395 13 is_stmt 0 view .LVU164
 596 013c 3149     		ldr	r1, .L44+44
 597 013e 2846     		mov	r0, r5
 598 0140 FFF7FEFF 		bl	lv_strcmp
 599              	.LVL64:
 395:Drivers/lvgl/src/widgets/keyboard/lv_keyboard.c ****         lv_textarea_delete_char(keyboard->ta);
 600              		.loc 1 395 12 discriminator 1 view .LVU165
 601 0144 18B9     		cbnz	r0, .L33
 396:Drivers/lvgl/src/widgets/keyboard/lv_keyboard.c ****     }
 602              		.loc 1 396 9 is_stmt 1 view .LVU166
 603 0146 A06C     		ldr	r0, [r4, #72]
 604 0148 FFF7FEFF 		bl	lv_textarea_delete_char
 605              	.LVL65:
ARM GAS  /var/folders/qx/2_175_4n2s19vhvtspjhb3qh0000gn/T//ccbOnCse.s 			page 23


 606 014c 9BE7     		b	.L17
 607              	.L33:
 398:Drivers/lvgl/src/widgets/keyboard/lv_keyboard.c ****         uint32_t cur        = lv_textarea_get_cursor_pos(keyboard->ta);
 608              		.loc 1 398 10 view .LVU167
 398:Drivers/lvgl/src/widgets/keyboard/lv_keyboard.c ****         uint32_t cur        = lv_textarea_get_cursor_pos(keyboard->ta);
 609              		.loc 1 398 13 is_stmt 0 view .LVU168
 610 014e 2E49     		ldr	r1, .L44+48
 611 0150 2846     		mov	r0, r5
 612 0152 FFF7FEFF 		bl	lv_strcmp
 613              	.LVL66:
 398:Drivers/lvgl/src/widgets/keyboard/lv_keyboard.c ****         uint32_t cur        = lv_textarea_get_cursor_pos(keyboard->ta);
 614              		.loc 1 398 12 discriminator 1 view .LVU169
 615 0156 0028     		cmp	r0, #0
 616 0158 38D1     		bne	.L34
 617              	.LBB6:
 399:Drivers/lvgl/src/widgets/keyboard/lv_keyboard.c ****         const char * ta_txt = lv_textarea_get_text(keyboard->ta);
 618              		.loc 1 399 9 is_stmt 1 view .LVU170
 399:Drivers/lvgl/src/widgets/keyboard/lv_keyboard.c ****         const char * ta_txt = lv_textarea_get_text(keyboard->ta);
 619              		.loc 1 399 31 is_stmt 0 view .LVU171
 620 015a A06C     		ldr	r0, [r4, #72]
 621 015c FFF7FEFF 		bl	lv_textarea_get_cursor_pos
 622              	.LVL67:
 623 0160 0546     		mov	r5, r0
 624              	.LVL68:
 400:Drivers/lvgl/src/widgets/keyboard/lv_keyboard.c ****         if(ta_txt[0] == '-') {
 625              		.loc 1 400 9 is_stmt 1 view .LVU172
 400:Drivers/lvgl/src/widgets/keyboard/lv_keyboard.c ****         if(ta_txt[0] == '-') {
 626              		.loc 1 400 31 is_stmt 0 view .LVU173
 627 0162 A06C     		ldr	r0, [r4, #72]
 628              	.LVL69:
 400:Drivers/lvgl/src/widgets/keyboard/lv_keyboard.c ****         if(ta_txt[0] == '-') {
 629              		.loc 1 400 31 view .LVU174
 630 0164 FFF7FEFF 		bl	lv_textarea_get_text
 631              	.LVL70:
 401:Drivers/lvgl/src/widgets/keyboard/lv_keyboard.c ****             lv_textarea_set_cursor_pos(keyboard->ta, 1);
 632              		.loc 1 401 9 is_stmt 1 view .LVU175
 401:Drivers/lvgl/src/widgets/keyboard/lv_keyboard.c ****             lv_textarea_set_cursor_pos(keyboard->ta, 1);
 633              		.loc 1 401 18 is_stmt 0 view .LVU176
 634 0168 0378     		ldrb	r3, [r0]	@ zero_extendqisi2
 401:Drivers/lvgl/src/widgets/keyboard/lv_keyboard.c ****             lv_textarea_set_cursor_pos(keyboard->ta, 1);
 635              		.loc 1 401 11 view .LVU177
 636 016a 2D2B     		cmp	r3, #45
 637 016c 0ED0     		beq	.L42
 407:Drivers/lvgl/src/widgets/keyboard/lv_keyboard.c ****             lv_textarea_set_cursor_pos(keyboard->ta, 1);
 638              		.loc 1 407 14 is_stmt 1 view .LVU178
 407:Drivers/lvgl/src/widgets/keyboard/lv_keyboard.c ****             lv_textarea_set_cursor_pos(keyboard->ta, 1);
 639              		.loc 1 407 16 is_stmt 0 view .LVU179
 640 016e 2B2B     		cmp	r3, #43
 641 0170 1CD0     		beq	.L43
 414:Drivers/lvgl/src/widgets/keyboard/lv_keyboard.c ****             lv_textarea_add_char(keyboard->ta, '-');
 642              		.loc 1 414 13 is_stmt 1 view .LVU180
 643 0172 0021     		movs	r1, #0
 644 0174 A06C     		ldr	r0, [r4, #72]
 645              	.LVL71:
 414:Drivers/lvgl/src/widgets/keyboard/lv_keyboard.c ****             lv_textarea_add_char(keyboard->ta, '-');
 646              		.loc 1 414 13 is_stmt 0 view .LVU181
 647 0176 FFF7FEFF 		bl	lv_textarea_set_cursor_pos
ARM GAS  /var/folders/qx/2_175_4n2s19vhvtspjhb3qh0000gn/T//ccbOnCse.s 			page 24


 648              	.LVL72:
 415:Drivers/lvgl/src/widgets/keyboard/lv_keyboard.c ****             lv_textarea_set_cursor_pos(keyboard->ta, cur + 1);
 649              		.loc 1 415 13 is_stmt 1 view .LVU182
 650 017a 2D21     		movs	r1, #45
 651 017c A06C     		ldr	r0, [r4, #72]
 652 017e FFF7FEFF 		bl	lv_textarea_add_char
 653              	.LVL73:
 416:Drivers/lvgl/src/widgets/keyboard/lv_keyboard.c ****         }
 654              		.loc 1 416 13 view .LVU183
 655 0182 691C     		adds	r1, r5, #1
 656 0184 A06C     		ldr	r0, [r4, #72]
 657 0186 FFF7FEFF 		bl	lv_textarea_set_cursor_pos
 658              	.LVL74:
 659 018a 7CE7     		b	.L17
 660              	.LVL75:
 661              	.L42:
 402:Drivers/lvgl/src/widgets/keyboard/lv_keyboard.c ****             lv_textarea_delete_char(keyboard->ta);
 662              		.loc 1 402 13 view .LVU184
 663 018c 0121     		movs	r1, #1
 664 018e A06C     		ldr	r0, [r4, #72]
 665              	.LVL76:
 402:Drivers/lvgl/src/widgets/keyboard/lv_keyboard.c ****             lv_textarea_delete_char(keyboard->ta);
 666              		.loc 1 402 13 is_stmt 0 view .LVU185
 667 0190 FFF7FEFF 		bl	lv_textarea_set_cursor_pos
 668              	.LVL77:
 403:Drivers/lvgl/src/widgets/keyboard/lv_keyboard.c ****             lv_textarea_add_char(keyboard->ta, '+');
 669              		.loc 1 403 13 is_stmt 1 view .LVU186
 670 0194 A06C     		ldr	r0, [r4, #72]
 671 0196 FFF7FEFF 		bl	lv_textarea_delete_char
 672              	.LVL78:
 404:Drivers/lvgl/src/widgets/keyboard/lv_keyboard.c ****             lv_textarea_set_cursor_pos(keyboard->ta, cur);
 673              		.loc 1 404 13 view .LVU187
 674 019a 2B21     		movs	r1, #43
 675 019c A06C     		ldr	r0, [r4, #72]
 676 019e FFF7FEFF 		bl	lv_textarea_add_char
 677              	.LVL79:
 405:Drivers/lvgl/src/widgets/keyboard/lv_keyboard.c ****         }
 678              		.loc 1 405 13 view .LVU188
 679 01a2 2946     		mov	r1, r5
 680 01a4 A06C     		ldr	r0, [r4, #72]
 681 01a6 FFF7FEFF 		bl	lv_textarea_set_cursor_pos
 682              	.LVL80:
 683 01aa 6CE7     		b	.L17
 684              	.LVL81:
 685              	.L43:
 408:Drivers/lvgl/src/widgets/keyboard/lv_keyboard.c ****             lv_textarea_delete_char(keyboard->ta);
 686              		.loc 1 408 13 view .LVU189
 687 01ac 0121     		movs	r1, #1
 688 01ae A06C     		ldr	r0, [r4, #72]
 689              	.LVL82:
 408:Drivers/lvgl/src/widgets/keyboard/lv_keyboard.c ****             lv_textarea_delete_char(keyboard->ta);
 690              		.loc 1 408 13 is_stmt 0 view .LVU190
 691 01b0 FFF7FEFF 		bl	lv_textarea_set_cursor_pos
 692              	.LVL83:
 409:Drivers/lvgl/src/widgets/keyboard/lv_keyboard.c ****             lv_textarea_add_char(keyboard->ta, '-');
 693              		.loc 1 409 13 is_stmt 1 view .LVU191
 694 01b4 A06C     		ldr	r0, [r4, #72]
ARM GAS  /var/folders/qx/2_175_4n2s19vhvtspjhb3qh0000gn/T//ccbOnCse.s 			page 25


 695 01b6 FFF7FEFF 		bl	lv_textarea_delete_char
 696              	.LVL84:
 410:Drivers/lvgl/src/widgets/keyboard/lv_keyboard.c ****             lv_textarea_set_cursor_pos(keyboard->ta, cur);
 697              		.loc 1 410 13 view .LVU192
 698 01ba 2D21     		movs	r1, #45
 699 01bc A06C     		ldr	r0, [r4, #72]
 700 01be FFF7FEFF 		bl	lv_textarea_add_char
 701              	.LVL85:
 411:Drivers/lvgl/src/widgets/keyboard/lv_keyboard.c ****         }
 702              		.loc 1 411 13 view .LVU193
 703 01c2 2946     		mov	r1, r5
 704 01c4 A06C     		ldr	r0, [r4, #72]
 705 01c6 FFF7FEFF 		bl	lv_textarea_set_cursor_pos
 706              	.LVL86:
 707 01ca 5CE7     		b	.L17
 708              	.LVL87:
 709              	.L34:
 411:Drivers/lvgl/src/widgets/keyboard/lv_keyboard.c ****         }
 710              		.loc 1 411 13 is_stmt 0 view .LVU194
 711              	.LBE6:
 420:Drivers/lvgl/src/widgets/keyboard/lv_keyboard.c ****     }
 712              		.loc 1 420 9 is_stmt 1 view .LVU195
 713 01cc 2946     		mov	r1, r5
 714 01ce A06C     		ldr	r0, [r4, #72]
 715 01d0 FFF7FEFF 		bl	lv_textarea_add_text
 716              	.LVL88:
 717 01d4 57E7     		b	.L17
 718              	.L45:
 719 01d6 00BF     		.align	2
 720              	.L44:
 721 01d8 00000000 		.word	.LC0
 722 01dc 04000000 		.word	.LC1
 723 01e0 08000000 		.word	.LC2
 724 01e4 0C000000 		.word	.LC3
 725 01e8 10000000 		.word	.LC4
 726 01ec 00000000 		.word	kb_map
 727 01f0 14000000 		.word	.LC5
 728 01f4 18000000 		.word	.LC6
 729 01f8 20000000 		.word	.LC7
 730 01fc 24000000 		.word	.LC8
 731 0200 28000000 		.word	.LC9
 732 0204 2C000000 		.word	.LC10
 733 0208 30000000 		.word	.LC11
 734              		.cfi_endproc
 735              	.LFE189:
 737              		.section	.text.lv_keyboard_create,"ax",%progbits
 738              		.align	1
 739              		.global	lv_keyboard_create
 740              		.syntax unified
 741              		.thumb
 742              		.thumb_func
 744              	lv_keyboard_create:
 745              	.LVL89:
 746              	.LFB181:
 228:Drivers/lvgl/src/widgets/keyboard/lv_keyboard.c ****     LV_LOG_INFO("begin");
 747              		.loc 1 228 1 view -0
 748              		.cfi_startproc
ARM GAS  /var/folders/qx/2_175_4n2s19vhvtspjhb3qh0000gn/T//ccbOnCse.s 			page 26


 749              		@ args = 0, pretend = 0, frame = 0
 750              		@ frame_needed = 0, uses_anonymous_args = 0
 228:Drivers/lvgl/src/widgets/keyboard/lv_keyboard.c ****     LV_LOG_INFO("begin");
 751              		.loc 1 228 1 is_stmt 0 view .LVU197
 752 0000 10B5     		push	{r4, lr}
 753              	.LCFI4:
 754              		.cfi_def_cfa_offset 8
 755              		.cfi_offset 4, -8
 756              		.cfi_offset 14, -4
 757 0002 0146     		mov	r1, r0
 229:Drivers/lvgl/src/widgets/keyboard/lv_keyboard.c ****     lv_obj_t * obj = lv_obj_class_create_obj(&lv_keyboard_class, parent);
 758              		.loc 1 229 5 is_stmt 1 view .LVU198
 229:Drivers/lvgl/src/widgets/keyboard/lv_keyboard.c ****     lv_obj_t * obj = lv_obj_class_create_obj(&lv_keyboard_class, parent);
 759              		.loc 1 229 5 view .LVU199
 229:Drivers/lvgl/src/widgets/keyboard/lv_keyboard.c ****     lv_obj_t * obj = lv_obj_class_create_obj(&lv_keyboard_class, parent);
 760              		.loc 1 229 5 view .LVU200
 230:Drivers/lvgl/src/widgets/keyboard/lv_keyboard.c ****     lv_obj_class_init_obj(obj);
 761              		.loc 1 230 5 view .LVU201
 230:Drivers/lvgl/src/widgets/keyboard/lv_keyboard.c ****     lv_obj_class_init_obj(obj);
 762              		.loc 1 230 22 is_stmt 0 view .LVU202
 763 0004 0348     		ldr	r0, .L48
 764              	.LVL90:
 230:Drivers/lvgl/src/widgets/keyboard/lv_keyboard.c ****     lv_obj_class_init_obj(obj);
 765              		.loc 1 230 22 view .LVU203
 766 0006 FFF7FEFF 		bl	lv_obj_class_create_obj
 767              	.LVL91:
 230:Drivers/lvgl/src/widgets/keyboard/lv_keyboard.c ****     lv_obj_class_init_obj(obj);
 768              		.loc 1 230 22 view .LVU204
 769 000a 0446     		mov	r4, r0
 770              	.LVL92:
 231:Drivers/lvgl/src/widgets/keyboard/lv_keyboard.c ****     return obj;
 771              		.loc 1 231 5 is_stmt 1 view .LVU205
 772 000c FFF7FEFF 		bl	lv_obj_class_init_obj
 773              	.LVL93:
 232:Drivers/lvgl/src/widgets/keyboard/lv_keyboard.c **** }
 774              		.loc 1 232 5 view .LVU206
 233:Drivers/lvgl/src/widgets/keyboard/lv_keyboard.c **** 
 775              		.loc 1 233 1 is_stmt 0 view .LVU207
 776 0010 2046     		mov	r0, r4
 777 0012 10BD     		pop	{r4, pc}
 778              	.LVL94:
 779              	.L49:
 233:Drivers/lvgl/src/widgets/keyboard/lv_keyboard.c **** 
 780              		.loc 1 233 1 view .LVU208
 781              		.align	2
 782              	.L48:
 783 0014 00000000 		.word	lv_keyboard_class
 784              		.cfi_endproc
 785              	.LFE181:
 787              		.section	.text.lv_keyboard_set_textarea,"ax",%progbits
 788              		.align	1
 789              		.global	lv_keyboard_set_textarea
 790              		.syntax unified
 791              		.thumb
 792              		.thumb_func
 794              	lv_keyboard_set_textarea:
 795              	.LVL95:
ARM GAS  /var/folders/qx/2_175_4n2s19vhvtspjhb3qh0000gn/T//ccbOnCse.s 			page 27


 796              	.LFB182:
 240:Drivers/lvgl/src/widgets/keyboard/lv_keyboard.c ****     if(ta) {
 797              		.loc 1 240 1 is_stmt 1 view -0
 798              		.cfi_startproc
 799              		@ args = 0, pretend = 0, frame = 0
 800              		@ frame_needed = 0, uses_anonymous_args = 0
 241:Drivers/lvgl/src/widgets/keyboard/lv_keyboard.c ****         LV_ASSERT_OBJ(ta, &lv_textarea_class);
 801              		.loc 1 241 5 view .LVU210
 242:Drivers/lvgl/src/widgets/keyboard/lv_keyboard.c ****     }
 802              		.loc 1 242 9 view .LVU211
 242:Drivers/lvgl/src/widgets/keyboard/lv_keyboard.c ****     }
 803              		.loc 1 242 9 view .LVU212
 242:Drivers/lvgl/src/widgets/keyboard/lv_keyboard.c ****     }
 804              		.loc 1 242 9 view .LVU213
 242:Drivers/lvgl/src/widgets/keyboard/lv_keyboard.c ****     }
 805              		.loc 1 242 46 view .LVU214
 245:Drivers/lvgl/src/widgets/keyboard/lv_keyboard.c ****     lv_keyboard_t * keyboard = (lv_keyboard_t *)obj;
 806              		.loc 1 245 5 view .LVU215
 245:Drivers/lvgl/src/widgets/keyboard/lv_keyboard.c ****     lv_keyboard_t * keyboard = (lv_keyboard_t *)obj;
 807              		.loc 1 245 5 view .LVU216
 808 0000 70B1     		cbz	r0, .L52
 240:Drivers/lvgl/src/widgets/keyboard/lv_keyboard.c ****     if(ta) {
 809              		.loc 1 240 1 is_stmt 0 view .LVU217
 810 0002 38B5     		push	{r3, r4, r5, lr}
 811              	.LCFI5:
 812              		.cfi_def_cfa_offset 16
 813              		.cfi_offset 3, -16
 814              		.cfi_offset 4, -12
 815              		.cfi_offset 5, -8
 816              		.cfi_offset 14, -4
 817 0004 0C46     		mov	r4, r1
 818 0006 0546     		mov	r5, r0
 245:Drivers/lvgl/src/widgets/keyboard/lv_keyboard.c ****     lv_keyboard_t * keyboard = (lv_keyboard_t *)obj;
 819              		.loc 1 245 5 is_stmt 1 view .LVU218
 245:Drivers/lvgl/src/widgets/keyboard/lv_keyboard.c ****     lv_keyboard_t * keyboard = (lv_keyboard_t *)obj;
 820              		.loc 1 245 33 view .LVU219
 246:Drivers/lvgl/src/widgets/keyboard/lv_keyboard.c **** 
 821              		.loc 1 246 5 view .LVU220
 822              	.LVL96:
 249:Drivers/lvgl/src/widgets/keyboard/lv_keyboard.c ****         lv_obj_remove_state(keyboard->ta, LV_STATE_FOCUSED);
 823              		.loc 1 249 5 view .LVU221
 249:Drivers/lvgl/src/widgets/keyboard/lv_keyboard.c ****         lv_obj_remove_state(keyboard->ta, LV_STATE_FOCUSED);
 824              		.loc 1 249 16 is_stmt 0 view .LVU222
 825 0008 806C     		ldr	r0, [r0, #72]
 826              	.LVL97:
 249:Drivers/lvgl/src/widgets/keyboard/lv_keyboard.c ****         lv_obj_remove_state(keyboard->ta, LV_STATE_FOCUSED);
 827              		.loc 1 249 7 view .LVU223
 828 000a 10B1     		cbz	r0, .L53
 250:Drivers/lvgl/src/widgets/keyboard/lv_keyboard.c ****     }
 829              		.loc 1 250 9 is_stmt 1 view .LVU224
 830 000c 0221     		movs	r1, #2
 831              	.LVL98:
 250:Drivers/lvgl/src/widgets/keyboard/lv_keyboard.c ****     }
 832              		.loc 1 250 9 is_stmt 0 view .LVU225
 833 000e FFF7FEFF 		bl	lv_obj_remove_state
 834              	.LVL99:
 835              	.L53:
ARM GAS  /var/folders/qx/2_175_4n2s19vhvtspjhb3qh0000gn/T//ccbOnCse.s 			page 28


 253:Drivers/lvgl/src/widgets/keyboard/lv_keyboard.c **** 
 836              		.loc 1 253 5 is_stmt 1 view .LVU226
 253:Drivers/lvgl/src/widgets/keyboard/lv_keyboard.c **** 
 837              		.loc 1 253 18 is_stmt 0 view .LVU227
 838 0012 AC64     		str	r4, [r5, #72]
 256:Drivers/lvgl/src/widgets/keyboard/lv_keyboard.c ****         lv_obj_add_state(keyboard->ta, LV_STATE_FOCUSED);
 839              		.loc 1 256 5 is_stmt 1 view .LVU228
 256:Drivers/lvgl/src/widgets/keyboard/lv_keyboard.c ****         lv_obj_add_state(keyboard->ta, LV_STATE_FOCUSED);
 840              		.loc 1 256 7 is_stmt 0 view .LVU229
 841 0014 1CB1     		cbz	r4, .L50
 257:Drivers/lvgl/src/widgets/keyboard/lv_keyboard.c ****     }
 842              		.loc 1 257 9 is_stmt 1 view .LVU230
 843 0016 0221     		movs	r1, #2
 844 0018 2046     		mov	r0, r4
 845 001a FFF7FEFF 		bl	lv_obj_add_state
 846              	.LVL100:
 847              	.L50:
 259:Drivers/lvgl/src/widgets/keyboard/lv_keyboard.c **** 
 848              		.loc 1 259 1 is_stmt 0 view .LVU231
 849 001e 38BD     		pop	{r3, r4, r5, pc}
 850              	.LVL101:
 851              	.L52:
 852              	.LCFI6:
 853              		.cfi_def_cfa_offset 0
 854              		.cfi_restore 3
 855              		.cfi_restore 4
 856              		.cfi_restore 5
 857              		.cfi_restore 14
 245:Drivers/lvgl/src/widgets/keyboard/lv_keyboard.c ****     lv_keyboard_t * keyboard = (lv_keyboard_t *)obj;
 858              		.loc 1 245 5 is_stmt 1 view .LVU232
 245:Drivers/lvgl/src/widgets/keyboard/lv_keyboard.c ****     lv_keyboard_t * keyboard = (lv_keyboard_t *)obj;
 859              		.loc 1 245 5 view .LVU233
 245:Drivers/lvgl/src/widgets/keyboard/lv_keyboard.c ****     lv_keyboard_t * keyboard = (lv_keyboard_t *)obj;
 860              		.loc 1 245 5 view .LVU234
 245:Drivers/lvgl/src/widgets/keyboard/lv_keyboard.c ****     lv_keyboard_t * keyboard = (lv_keyboard_t *)obj;
 861              		.loc 1 245 5 view .LVU235
 245:Drivers/lvgl/src/widgets/keyboard/lv_keyboard.c ****     lv_keyboard_t * keyboard = (lv_keyboard_t *)obj;
 862              		.loc 1 245 5 view .LVU236
 863 0020 FEE7     		b	.L52
 864              		.cfi_endproc
 865              	.LFE182:
 867              		.section	.text.lv_keyboard_set_mode,"ax",%progbits
 868              		.align	1
 869              		.global	lv_keyboard_set_mode
 870              		.syntax unified
 871              		.thumb
 872              		.thumb_func
 874              	lv_keyboard_set_mode:
 875              	.LVL102:
 876              	.LFB183:
 262:Drivers/lvgl/src/widgets/keyboard/lv_keyboard.c ****     LV_ASSERT_OBJ(obj, MY_CLASS);
 877              		.loc 1 262 1 view -0
 878              		.cfi_startproc
 879              		@ args = 0, pretend = 0, frame = 0
 880              		@ frame_needed = 0, uses_anonymous_args = 0
 263:Drivers/lvgl/src/widgets/keyboard/lv_keyboard.c ****     lv_keyboard_t * keyboard = (lv_keyboard_t *)obj;
 881              		.loc 1 263 5 view .LVU238
ARM GAS  /var/folders/qx/2_175_4n2s19vhvtspjhb3qh0000gn/T//ccbOnCse.s 			page 29


 263:Drivers/lvgl/src/widgets/keyboard/lv_keyboard.c ****     lv_keyboard_t * keyboard = (lv_keyboard_t *)obj;
 882              		.loc 1 263 5 view .LVU239
 883 0000 48B1     		cbz	r0, .L59
 262:Drivers/lvgl/src/widgets/keyboard/lv_keyboard.c ****     LV_ASSERT_OBJ(obj, MY_CLASS);
 884              		.loc 1 262 1 is_stmt 0 view .LVU240
 885 0002 08B5     		push	{r3, lr}
 886              	.LCFI7:
 887              		.cfi_def_cfa_offset 8
 888              		.cfi_offset 3, -8
 889              		.cfi_offset 14, -4
 263:Drivers/lvgl/src/widgets/keyboard/lv_keyboard.c ****     lv_keyboard_t * keyboard = (lv_keyboard_t *)obj;
 890              		.loc 1 263 5 is_stmt 1 view .LVU241
 263:Drivers/lvgl/src/widgets/keyboard/lv_keyboard.c ****     lv_keyboard_t * keyboard = (lv_keyboard_t *)obj;
 891              		.loc 1 263 33 view .LVU242
 264:Drivers/lvgl/src/widgets/keyboard/lv_keyboard.c ****     if(keyboard->mode == mode) return;
 892              		.loc 1 264 5 view .LVU243
 893              	.LVL103:
 265:Drivers/lvgl/src/widgets/keyboard/lv_keyboard.c **** 
 894              		.loc 1 265 5 view .LVU244
 265:Drivers/lvgl/src/widgets/keyboard/lv_keyboard.c **** 
 895              		.loc 1 265 16 is_stmt 0 view .LVU245
 896 0004 90F84C20 		ldrb	r2, [r0, #76]	@ zero_extendqisi2
 265:Drivers/lvgl/src/widgets/keyboard/lv_keyboard.c **** 
 897              		.loc 1 265 7 view .LVU246
 898 0008 8A42     		cmp	r2, r1
 899 000a 03D0     		beq	.L57
 267:Drivers/lvgl/src/widgets/keyboard/lv_keyboard.c ****     lv_keyboard_update_map(obj);
 900              		.loc 1 267 5 is_stmt 1 view .LVU247
 267:Drivers/lvgl/src/widgets/keyboard/lv_keyboard.c ****     lv_keyboard_update_map(obj);
 901              		.loc 1 267 20 is_stmt 0 view .LVU248
 902 000c 80F84C10 		strb	r1, [r0, #76]
 268:Drivers/lvgl/src/widgets/keyboard/lv_keyboard.c **** }
 903              		.loc 1 268 5 is_stmt 1 view .LVU249
 904 0010 FFF7FEFF 		bl	lv_keyboard_update_map
 905              	.LVL104:
 906              	.L57:
 269:Drivers/lvgl/src/widgets/keyboard/lv_keyboard.c **** 
 907              		.loc 1 269 1 is_stmt 0 view .LVU250
 908 0014 08BD     		pop	{r3, pc}
 909              	.LVL105:
 910              	.L59:
 911              	.LCFI8:
 912              		.cfi_def_cfa_offset 0
 913              		.cfi_restore 3
 914              		.cfi_restore 14
 263:Drivers/lvgl/src/widgets/keyboard/lv_keyboard.c ****     lv_keyboard_t * keyboard = (lv_keyboard_t *)obj;
 915              		.loc 1 263 5 is_stmt 1 view .LVU251
 263:Drivers/lvgl/src/widgets/keyboard/lv_keyboard.c ****     lv_keyboard_t * keyboard = (lv_keyboard_t *)obj;
 916              		.loc 1 263 5 view .LVU252
 263:Drivers/lvgl/src/widgets/keyboard/lv_keyboard.c ****     lv_keyboard_t * keyboard = (lv_keyboard_t *)obj;
 917              		.loc 1 263 5 view .LVU253
 263:Drivers/lvgl/src/widgets/keyboard/lv_keyboard.c ****     lv_keyboard_t * keyboard = (lv_keyboard_t *)obj;
 918              		.loc 1 263 5 view .LVU254
 263:Drivers/lvgl/src/widgets/keyboard/lv_keyboard.c ****     lv_keyboard_t * keyboard = (lv_keyboard_t *)obj;
 919              		.loc 1 263 5 view .LVU255
 920 0016 FEE7     		b	.L59
 921              		.cfi_endproc
ARM GAS  /var/folders/qx/2_175_4n2s19vhvtspjhb3qh0000gn/T//ccbOnCse.s 			page 30


 922              	.LFE183:
 924              		.section	.text.lv_keyboard_set_popovers,"ax",%progbits
 925              		.align	1
 926              		.global	lv_keyboard_set_popovers
 927              		.syntax unified
 928              		.thumb
 929              		.thumb_func
 931              	lv_keyboard_set_popovers:
 932              	.LVL106:
 933              	.LFB184:
 272:Drivers/lvgl/src/widgets/keyboard/lv_keyboard.c ****     lv_keyboard_t * keyboard = (lv_keyboard_t *)obj;
 934              		.loc 1 272 1 view -0
 935              		.cfi_startproc
 936              		@ args = 0, pretend = 0, frame = 0
 937              		@ frame_needed = 0, uses_anonymous_args = 0
 272:Drivers/lvgl/src/widgets/keyboard/lv_keyboard.c ****     lv_keyboard_t * keyboard = (lv_keyboard_t *)obj;
 938              		.loc 1 272 1 is_stmt 0 view .LVU257
 939 0000 08B5     		push	{r3, lr}
 940              	.LCFI9:
 941              		.cfi_def_cfa_offset 8
 942              		.cfi_offset 3, -8
 943              		.cfi_offset 14, -4
 273:Drivers/lvgl/src/widgets/keyboard/lv_keyboard.c **** 
 944              		.loc 1 273 5 is_stmt 1 view .LVU258
 945              	.LVL107:
 275:Drivers/lvgl/src/widgets/keyboard/lv_keyboard.c ****         return;
 946              		.loc 1 275 5 view .LVU259
 275:Drivers/lvgl/src/widgets/keyboard/lv_keyboard.c ****         return;
 947              		.loc 1 275 16 is_stmt 0 view .LVU260
 948 0002 90F84D30 		ldrb	r3, [r0, #77]	@ zero_extendqisi2
 949 0006 03F00103 		and	r3, r3, #1
 275:Drivers/lvgl/src/widgets/keyboard/lv_keyboard.c ****         return;
 950              		.loc 1 275 7 view .LVU261
 951 000a 8B42     		cmp	r3, r1
 952 000c 07D0     		beq	.L63
 279:Drivers/lvgl/src/widgets/keyboard/lv_keyboard.c ****     lv_keyboard_update_ctrl_map(obj);
 953              		.loc 1 279 5 is_stmt 1 view .LVU262
 279:Drivers/lvgl/src/widgets/keyboard/lv_keyboard.c ****     lv_keyboard_update_ctrl_map(obj);
 954              		.loc 1 279 24 is_stmt 0 view .LVU263
 955 000e 90F84D30 		ldrb	r3, [r0, #77]	@ zero_extendqisi2
 956 0012 61F30003 		bfi	r3, r1, #0, #1
 957 0016 80F84D30 		strb	r3, [r0, #77]
 280:Drivers/lvgl/src/widgets/keyboard/lv_keyboard.c **** }
 958              		.loc 1 280 5 is_stmt 1 view .LVU264
 959 001a FFF7FEFF 		bl	lv_keyboard_update_ctrl_map
 960              	.LVL108:
 961              	.L63:
 281:Drivers/lvgl/src/widgets/keyboard/lv_keyboard.c **** 
 962              		.loc 1 281 1 is_stmt 0 view .LVU265
 963 001e 08BD     		pop	{r3, pc}
 964              		.cfi_endproc
 965              	.LFE184:
 967              		.section	.text.lv_keyboard_set_map,"ax",%progbits
 968              		.align	1
 969              		.global	lv_keyboard_set_map
 970              		.syntax unified
 971              		.thumb
ARM GAS  /var/folders/qx/2_175_4n2s19vhvtspjhb3qh0000gn/T//ccbOnCse.s 			page 31


 972              		.thumb_func
 974              	lv_keyboard_set_map:
 975              	.LVL109:
 976              	.LFB185:
 285:Drivers/lvgl/src/widgets/keyboard/lv_keyboard.c ****     LV_ASSERT_OBJ(obj, MY_CLASS);
 977              		.loc 1 285 1 is_stmt 1 view -0
 978              		.cfi_startproc
 979              		@ args = 0, pretend = 0, frame = 0
 980              		@ frame_needed = 0, uses_anonymous_args = 0
 286:Drivers/lvgl/src/widgets/keyboard/lv_keyboard.c ****     kb_map[mode] = map;
 981              		.loc 1 286 5 view .LVU267
 286:Drivers/lvgl/src/widgets/keyboard/lv_keyboard.c ****     kb_map[mode] = map;
 982              		.loc 1 286 5 view .LVU268
 983 0000 58B1     		cbz	r0, .L68
 285:Drivers/lvgl/src/widgets/keyboard/lv_keyboard.c ****     LV_ASSERT_OBJ(obj, MY_CLASS);
 984              		.loc 1 285 1 is_stmt 0 view .LVU269
 985 0002 08B5     		push	{r3, lr}
 986              	.LCFI10:
 987              		.cfi_def_cfa_offset 8
 988              		.cfi_offset 3, -8
 989              		.cfi_offset 14, -4
 990 0004 8446     		mov	ip, r0
 286:Drivers/lvgl/src/widgets/keyboard/lv_keyboard.c ****     kb_map[mode] = map;
 991              		.loc 1 286 5 is_stmt 1 view .LVU270
 286:Drivers/lvgl/src/widgets/keyboard/lv_keyboard.c ****     kb_map[mode] = map;
 992              		.loc 1 286 33 view .LVU271
 287:Drivers/lvgl/src/widgets/keyboard/lv_keyboard.c ****     kb_ctrl[mode] = ctrl_map;
 993              		.loc 1 287 5 view .LVU272
 287:Drivers/lvgl/src/widgets/keyboard/lv_keyboard.c ****     kb_ctrl[mode] = ctrl_map;
 994              		.loc 1 287 18 is_stmt 0 view .LVU273
 995 0006 0548     		ldr	r0, .L71
 996              	.LVL110:
 287:Drivers/lvgl/src/widgets/keyboard/lv_keyboard.c ****     kb_ctrl[mode] = ctrl_map;
 997              		.loc 1 287 18 view .LVU274
 998 0008 40F82120 		str	r2, [r0, r1, lsl #2]
 288:Drivers/lvgl/src/widgets/keyboard/lv_keyboard.c ****     lv_keyboard_update_map(obj);
 999              		.loc 1 288 5 is_stmt 1 view .LVU275
 288:Drivers/lvgl/src/widgets/keyboard/lv_keyboard.c ****     lv_keyboard_update_map(obj);
 1000              		.loc 1 288 19 is_stmt 0 view .LVU276
 1001 000c 044A     		ldr	r2, .L71+4
 1002              	.LVL111:
 288:Drivers/lvgl/src/widgets/keyboard/lv_keyboard.c ****     lv_keyboard_update_map(obj);
 1003              		.loc 1 288 19 view .LVU277
 1004 000e 42F82130 		str	r3, [r2, r1, lsl #2]
 289:Drivers/lvgl/src/widgets/keyboard/lv_keyboard.c **** }
 1005              		.loc 1 289 5 is_stmt 1 view .LVU278
 1006 0012 6046     		mov	r0, ip
 1007              	.LVL112:
 289:Drivers/lvgl/src/widgets/keyboard/lv_keyboard.c **** }
 1008              		.loc 1 289 5 is_stmt 0 view .LVU279
 1009 0014 FFF7FEFF 		bl	lv_keyboard_update_map
 1010              	.LVL113:
 290:Drivers/lvgl/src/widgets/keyboard/lv_keyboard.c **** 
 1011              		.loc 1 290 1 view .LVU280
 1012 0018 08BD     		pop	{r3, pc}
 1013              	.LVL114:
 1014              	.L68:
ARM GAS  /var/folders/qx/2_175_4n2s19vhvtspjhb3qh0000gn/T//ccbOnCse.s 			page 32


 1015              	.LCFI11:
 1016              		.cfi_def_cfa_offset 0
 1017              		.cfi_restore 3
 1018              		.cfi_restore 14
 286:Drivers/lvgl/src/widgets/keyboard/lv_keyboard.c ****     kb_map[mode] = map;
 1019              		.loc 1 286 5 is_stmt 1 view .LVU281
 286:Drivers/lvgl/src/widgets/keyboard/lv_keyboard.c ****     kb_map[mode] = map;
 1020              		.loc 1 286 5 view .LVU282
 286:Drivers/lvgl/src/widgets/keyboard/lv_keyboard.c ****     kb_map[mode] = map;
 1021              		.loc 1 286 5 view .LVU283
 286:Drivers/lvgl/src/widgets/keyboard/lv_keyboard.c ****     kb_map[mode] = map;
 1022              		.loc 1 286 5 view .LVU284
 286:Drivers/lvgl/src/widgets/keyboard/lv_keyboard.c ****     kb_map[mode] = map;
 1023              		.loc 1 286 5 view .LVU285
 1024 001a FEE7     		b	.L68
 1025              	.L72:
 1026              		.align	2
 1027              	.L71:
 1028 001c 00000000 		.word	kb_map
 1029 0020 00000000 		.word	kb_ctrl
 1030              		.cfi_endproc
 1031              	.LFE185:
 1033              		.section	.text.lv_keyboard_get_textarea,"ax",%progbits
 1034              		.align	1
 1035              		.global	lv_keyboard_get_textarea
 1036              		.syntax unified
 1037              		.thumb
 1038              		.thumb_func
 1040              	lv_keyboard_get_textarea:
 1041              	.LVL115:
 1042              	.LFB186:
 297:Drivers/lvgl/src/widgets/keyboard/lv_keyboard.c ****     LV_ASSERT_OBJ(obj, MY_CLASS);
 1043              		.loc 1 297 1 view -0
 1044              		.cfi_startproc
 1045              		@ args = 0, pretend = 0, frame = 0
 1046              		@ frame_needed = 0, uses_anonymous_args = 0
 1047              		@ link register save eliminated.
 298:Drivers/lvgl/src/widgets/keyboard/lv_keyboard.c ****     lv_keyboard_t * keyboard = (lv_keyboard_t *)obj;
 1048              		.loc 1 298 5 view .LVU287
 298:Drivers/lvgl/src/widgets/keyboard/lv_keyboard.c ****     lv_keyboard_t * keyboard = (lv_keyboard_t *)obj;
 1049              		.loc 1 298 5 view .LVU288
 1050 0000 08B1     		cbz	r0, .L75
 298:Drivers/lvgl/src/widgets/keyboard/lv_keyboard.c ****     lv_keyboard_t * keyboard = (lv_keyboard_t *)obj;
 1051              		.loc 1 298 5 view .LVU289
 298:Drivers/lvgl/src/widgets/keyboard/lv_keyboard.c ****     lv_keyboard_t * keyboard = (lv_keyboard_t *)obj;
 1052              		.loc 1 298 33 view .LVU290
 299:Drivers/lvgl/src/widgets/keyboard/lv_keyboard.c ****     return keyboard->ta;
 1053              		.loc 1 299 5 view .LVU291
 1054              	.LVL116:
 300:Drivers/lvgl/src/widgets/keyboard/lv_keyboard.c **** }
 1055              		.loc 1 300 5 view .LVU292
 301:Drivers/lvgl/src/widgets/keyboard/lv_keyboard.c **** 
 1056              		.loc 1 301 1 is_stmt 0 view .LVU293
 1057 0002 806C     		ldr	r0, [r0, #72]
 1058              	.LVL117:
 301:Drivers/lvgl/src/widgets/keyboard/lv_keyboard.c **** 
 1059              		.loc 1 301 1 view .LVU294
ARM GAS  /var/folders/qx/2_175_4n2s19vhvtspjhb3qh0000gn/T//ccbOnCse.s 			page 33


 1060 0004 7047     		bx	lr
 1061              	.LVL118:
 1062              	.L75:
 298:Drivers/lvgl/src/widgets/keyboard/lv_keyboard.c ****     lv_keyboard_t * keyboard = (lv_keyboard_t *)obj;
 1063              		.loc 1 298 5 is_stmt 1 view .LVU295
 298:Drivers/lvgl/src/widgets/keyboard/lv_keyboard.c ****     lv_keyboard_t * keyboard = (lv_keyboard_t *)obj;
 1064              		.loc 1 298 5 view .LVU296
 298:Drivers/lvgl/src/widgets/keyboard/lv_keyboard.c ****     lv_keyboard_t * keyboard = (lv_keyboard_t *)obj;
 1065              		.loc 1 298 5 view .LVU297
 298:Drivers/lvgl/src/widgets/keyboard/lv_keyboard.c ****     lv_keyboard_t * keyboard = (lv_keyboard_t *)obj;
 1066              		.loc 1 298 5 view .LVU298
 298:Drivers/lvgl/src/widgets/keyboard/lv_keyboard.c ****     lv_keyboard_t * keyboard = (lv_keyboard_t *)obj;
 1067              		.loc 1 298 5 view .LVU299
 1068 0006 FEE7     		b	.L75
 1069              		.cfi_endproc
 1070              	.LFE186:
 1072              		.section	.text.lv_keyboard_get_mode,"ax",%progbits
 1073              		.align	1
 1074              		.global	lv_keyboard_get_mode
 1075              		.syntax unified
 1076              		.thumb
 1077              		.thumb_func
 1079              	lv_keyboard_get_mode:
 1080              	.LVL119:
 1081              	.LFB187:
 304:Drivers/lvgl/src/widgets/keyboard/lv_keyboard.c ****     LV_ASSERT_OBJ(obj, MY_CLASS);
 1082              		.loc 1 304 1 view -0
 1083              		.cfi_startproc
 1084              		@ args = 0, pretend = 0, frame = 0
 1085              		@ frame_needed = 0, uses_anonymous_args = 0
 1086              		@ link register save eliminated.
 305:Drivers/lvgl/src/widgets/keyboard/lv_keyboard.c ****     lv_keyboard_t * keyboard = (lv_keyboard_t *)obj;
 1087              		.loc 1 305 5 view .LVU301
 305:Drivers/lvgl/src/widgets/keyboard/lv_keyboard.c ****     lv_keyboard_t * keyboard = (lv_keyboard_t *)obj;
 1088              		.loc 1 305 5 view .LVU302
 1089 0000 10B1     		cbz	r0, .L78
 305:Drivers/lvgl/src/widgets/keyboard/lv_keyboard.c ****     lv_keyboard_t * keyboard = (lv_keyboard_t *)obj;
 1090              		.loc 1 305 5 view .LVU303
 305:Drivers/lvgl/src/widgets/keyboard/lv_keyboard.c ****     lv_keyboard_t * keyboard = (lv_keyboard_t *)obj;
 1091              		.loc 1 305 33 view .LVU304
 306:Drivers/lvgl/src/widgets/keyboard/lv_keyboard.c ****     return keyboard->mode;
 1092              		.loc 1 306 5 view .LVU305
 1093              	.LVL120:
 307:Drivers/lvgl/src/widgets/keyboard/lv_keyboard.c **** }
 1094              		.loc 1 307 5 view .LVU306
 308:Drivers/lvgl/src/widgets/keyboard/lv_keyboard.c **** 
 1095              		.loc 1 308 1 is_stmt 0 view .LVU307
 1096 0002 90F84C00 		ldrb	r0, [r0, #76]	@ zero_extendqisi2
 1097              	.LVL121:
 308:Drivers/lvgl/src/widgets/keyboard/lv_keyboard.c **** 
 1098              		.loc 1 308 1 view .LVU308
 1099 0006 7047     		bx	lr
 1100              	.LVL122:
 1101              	.L78:
 305:Drivers/lvgl/src/widgets/keyboard/lv_keyboard.c ****     lv_keyboard_t * keyboard = (lv_keyboard_t *)obj;
 1102              		.loc 1 305 5 is_stmt 1 view .LVU309
 305:Drivers/lvgl/src/widgets/keyboard/lv_keyboard.c ****     lv_keyboard_t * keyboard = (lv_keyboard_t *)obj;
ARM GAS  /var/folders/qx/2_175_4n2s19vhvtspjhb3qh0000gn/T//ccbOnCse.s 			page 34


 1103              		.loc 1 305 5 view .LVU310
 305:Drivers/lvgl/src/widgets/keyboard/lv_keyboard.c ****     lv_keyboard_t * keyboard = (lv_keyboard_t *)obj;
 1104              		.loc 1 305 5 view .LVU311
 305:Drivers/lvgl/src/widgets/keyboard/lv_keyboard.c ****     lv_keyboard_t * keyboard = (lv_keyboard_t *)obj;
 1105              		.loc 1 305 5 view .LVU312
 305:Drivers/lvgl/src/widgets/keyboard/lv_keyboard.c ****     lv_keyboard_t * keyboard = (lv_keyboard_t *)obj;
 1106              		.loc 1 305 5 view .LVU313
 1107 0008 FEE7     		b	.L78
 1108              		.cfi_endproc
 1109              	.LFE187:
 1111              		.section	.text.lv_keyboard_get_popovers,"ax",%progbits
 1112              		.align	1
 1113              		.global	lv_keyboard_get_popovers
 1114              		.syntax unified
 1115              		.thumb
 1116              		.thumb_func
 1118              	lv_keyboard_get_popovers:
 1119              	.LVL123:
 1120              	.LFB188:
 311:Drivers/lvgl/src/widgets/keyboard/lv_keyboard.c ****     lv_keyboard_t * keyboard = (lv_keyboard_t *)obj;
 1121              		.loc 1 311 1 view -0
 1122              		.cfi_startproc
 1123              		@ args = 0, pretend = 0, frame = 0
 1124              		@ frame_needed = 0, uses_anonymous_args = 0
 1125              		@ link register save eliminated.
 312:Drivers/lvgl/src/widgets/keyboard/lv_keyboard.c ****     return keyboard->popovers;
 1126              		.loc 1 312 5 view .LVU315
 313:Drivers/lvgl/src/widgets/keyboard/lv_keyboard.c **** }
 1127              		.loc 1 313 5 view .LVU316
 313:Drivers/lvgl/src/widgets/keyboard/lv_keyboard.c **** }
 1128              		.loc 1 313 20 is_stmt 0 view .LVU317
 1129 0000 90F84D00 		ldrb	r0, [r0, #77]	@ zero_extendqisi2
 1130              	.LVL124:
 314:Drivers/lvgl/src/widgets/keyboard/lv_keyboard.c **** 
 1131              		.loc 1 314 1 view .LVU318
 1132 0004 00F00100 		and	r0, r0, #1
 1133 0008 7047     		bx	lr
 1134              		.cfi_endproc
 1135              	.LFE188:
 1137              		.section	.text.lv_keyboard_get_map_array,"ax",%progbits
 1138              		.align	1
 1139              		.global	lv_keyboard_get_map_array
 1140              		.syntax unified
 1141              		.thumb
 1142              		.thumb_func
 1144              	lv_keyboard_get_map_array:
 1145              	.LVL125:
 1146              	.LFB190:
 425:Drivers/lvgl/src/widgets/keyboard/lv_keyboard.c ****     return lv_buttonmatrix_get_map(kb);
 1147              		.loc 1 425 1 is_stmt 1 view -0
 1148              		.cfi_startproc
 1149              		@ args = 0, pretend = 0, frame = 0
 1150              		@ frame_needed = 0, uses_anonymous_args = 0
 425:Drivers/lvgl/src/widgets/keyboard/lv_keyboard.c ****     return lv_buttonmatrix_get_map(kb);
 1151              		.loc 1 425 1 is_stmt 0 view .LVU320
 1152 0000 08B5     		push	{r3, lr}
 1153              	.LCFI12:
ARM GAS  /var/folders/qx/2_175_4n2s19vhvtspjhb3qh0000gn/T//ccbOnCse.s 			page 35


 1154              		.cfi_def_cfa_offset 8
 1155              		.cfi_offset 3, -8
 1156              		.cfi_offset 14, -4
 426:Drivers/lvgl/src/widgets/keyboard/lv_keyboard.c **** }
 1157              		.loc 1 426 5 is_stmt 1 view .LVU321
 426:Drivers/lvgl/src/widgets/keyboard/lv_keyboard.c **** }
 1158              		.loc 1 426 12 is_stmt 0 view .LVU322
 1159 0002 FFF7FEFF 		bl	lv_buttonmatrix_get_map
 1160              	.LVL126:
 427:Drivers/lvgl/src/widgets/keyboard/lv_keyboard.c **** 
 1161              		.loc 1 427 1 view .LVU323
 1162 0006 08BD     		pop	{r3, pc}
 1163              		.cfi_endproc
 1164              	.LFE190:
 1166              		.section	.text.lv_keyboard_get_selected_button,"ax",%progbits
 1167              		.align	1
 1168              		.global	lv_keyboard_get_selected_button
 1169              		.syntax unified
 1170              		.thumb
 1171              		.thumb_func
 1173              	lv_keyboard_get_selected_button:
 1174              	.LVL127:
 1175              	.LFB191:
 430:Drivers/lvgl/src/widgets/keyboard/lv_keyboard.c ****     return lv_buttonmatrix_get_selected_button(obj);
 1176              		.loc 1 430 1 is_stmt 1 view -0
 1177              		.cfi_startproc
 1178              		@ args = 0, pretend = 0, frame = 0
 1179              		@ frame_needed = 0, uses_anonymous_args = 0
 430:Drivers/lvgl/src/widgets/keyboard/lv_keyboard.c ****     return lv_buttonmatrix_get_selected_button(obj);
 1180              		.loc 1 430 1 is_stmt 0 view .LVU325
 1181 0000 08B5     		push	{r3, lr}
 1182              	.LCFI13:
 1183              		.cfi_def_cfa_offset 8
 1184              		.cfi_offset 3, -8
 1185              		.cfi_offset 14, -4
 431:Drivers/lvgl/src/widgets/keyboard/lv_keyboard.c **** }
 1186              		.loc 1 431 5 is_stmt 1 view .LVU326
 431:Drivers/lvgl/src/widgets/keyboard/lv_keyboard.c **** }
 1187              		.loc 1 431 12 is_stmt 0 view .LVU327
 1188 0002 FFF7FEFF 		bl	lv_buttonmatrix_get_selected_button
 1189              	.LVL128:
 432:Drivers/lvgl/src/widgets/keyboard/lv_keyboard.c **** 
 1190              		.loc 1 432 1 view .LVU328
 1191 0006 08BD     		pop	{r3, pc}
 1192              		.cfi_endproc
 1193              	.LFE191:
 1195              		.section	.text.lv_keyboard_get_button_text,"ax",%progbits
 1196              		.align	1
 1197              		.global	lv_keyboard_get_button_text
 1198              		.syntax unified
 1199              		.thumb
 1200              		.thumb_func
 1202              	lv_keyboard_get_button_text:
 1203              	.LVL129:
 1204              	.LFB192:
 435:Drivers/lvgl/src/widgets/keyboard/lv_keyboard.c ****     return lv_buttonmatrix_get_button_text(obj, btn_id);
 1205              		.loc 1 435 1 is_stmt 1 view -0
ARM GAS  /var/folders/qx/2_175_4n2s19vhvtspjhb3qh0000gn/T//ccbOnCse.s 			page 36


 1206              		.cfi_startproc
 1207              		@ args = 0, pretend = 0, frame = 0
 1208              		@ frame_needed = 0, uses_anonymous_args = 0
 435:Drivers/lvgl/src/widgets/keyboard/lv_keyboard.c ****     return lv_buttonmatrix_get_button_text(obj, btn_id);
 1209              		.loc 1 435 1 is_stmt 0 view .LVU330
 1210 0000 08B5     		push	{r3, lr}
 1211              	.LCFI14:
 1212              		.cfi_def_cfa_offset 8
 1213              		.cfi_offset 3, -8
 1214              		.cfi_offset 14, -4
 436:Drivers/lvgl/src/widgets/keyboard/lv_keyboard.c **** }
 1215              		.loc 1 436 5 is_stmt 1 view .LVU331
 436:Drivers/lvgl/src/widgets/keyboard/lv_keyboard.c **** }
 1216              		.loc 1 436 12 is_stmt 0 view .LVU332
 1217 0002 FFF7FEFF 		bl	lv_buttonmatrix_get_button_text
 1218              	.LVL130:
 437:Drivers/lvgl/src/widgets/keyboard/lv_keyboard.c **** 
 1219              		.loc 1 437 1 view .LVU333
 1220 0006 08BD     		pop	{r3, pc}
 1221              		.cfi_endproc
 1222              	.LFE192:
 1224              		.section	.data.kb_ctrl,"aw"
 1225              		.align	2
 1228              	kb_ctrl:
 1229 0000 00000000 		.word	default_kb_ctrl_lc_map
 1230 0004 00000000 		.word	default_kb_ctrl_uc_map
 1231 0008 00000000 		.word	default_kb_ctrl_spec_map
 1232 000c 00000000 		.word	default_kb_ctrl_num_map
 1233 0010 00000000 		.word	default_kb_ctrl_lc_map
 1234 0014 00000000 		.word	default_kb_ctrl_lc_map
 1235 0018 00000000 		.word	default_kb_ctrl_lc_map
 1236 001c 00000000 		.word	default_kb_ctrl_lc_map
 1237 0020 00000000 		.word	0
 1238 0024 00000000 		.space	4
 1239              		.section	.data.kb_map,"aw"
 1240              		.align	2
 1243              	kb_map:
 1244 0000 00000000 		.word	default_kb_map_lc
 1245 0004 00000000 		.word	default_kb_map_uc
 1246 0008 00000000 		.word	default_kb_map_spec
 1247 000c 00000000 		.word	default_kb_map_num
 1248 0010 00000000 		.word	default_kb_map_lc
 1249 0014 00000000 		.word	default_kb_map_lc
 1250 0018 00000000 		.word	default_kb_map_lc
 1251 001c 00000000 		.word	default_kb_map_lc
 1252 0020 00000000 		.word	0
 1253 0024 00000000 		.space	4
 1254              		.section	.rodata.default_kb_ctrl_num_map,"a"
 1255              		.align	2
 1258              	default_kb_ctrl_num_map:
 1259 0000 0100     		.short	1
 1260 0002 0100     		.short	1
 1261 0004 0100     		.short	1
 1262 0006 2203     		.short	802
 1263 0008 0100     		.short	1
 1264 000a 0100     		.short	1
 1265 000c 0100     		.short	1
ARM GAS  /var/folders/qx/2_175_4n2s19vhvtspjhb3qh0000gn/T//ccbOnCse.s 			page 37


 1266 000e 2203     		.short	802
 1267 0010 0100     		.short	1
 1268 0012 0100     		.short	1
 1269 0014 0100     		.short	1
 1270 0016 0200     		.short	2
 1271 0018 0100     		.short	1
 1272 001a 0100     		.short	1
 1273 001c 0100     		.short	1
 1274 001e 0100     		.short	1
 1275 0020 0100     		.short	1
 1276              		.section	.rodata.str1.4,"aMS",%progbits,1
 1277              		.align	2
 1278              	.LC12:
 1279 0000 3100     		.ascii	"1\000"
 1280 0002 0000     		.align	2
 1281              	.LC13:
 1282 0004 3200     		.ascii	"2\000"
 1283 0006 0000     		.align	2
 1284              	.LC14:
 1285 0008 3300     		.ascii	"3\000"
 1286 000a 0000     		.align	2
 1287              	.LC15:
 1288 000c 0A00     		.ascii	"\012\000"
 1289 000e 0000     		.align	2
 1290              	.LC16:
 1291 0010 3400     		.ascii	"4\000"
 1292 0012 0000     		.align	2
 1293              	.LC17:
 1294 0014 3500     		.ascii	"5\000"
 1295 0016 0000     		.align	2
 1296              	.LC18:
 1297 0018 3600     		.ascii	"6\000"
 1298 001a 0000     		.align	2
 1299              	.LC19:
 1300 001c 3700     		.ascii	"7\000"
 1301 001e 0000     		.align	2
 1302              	.LC20:
 1303 0020 3800     		.ascii	"8\000"
 1304 0022 0000     		.align	2
 1305              	.LC21:
 1306 0024 3900     		.ascii	"9\000"
 1307 0026 0000     		.align	2
 1308              	.LC22:
 1309 0028 3000     		.ascii	"0\000"
 1310 002a 0000     		.align	2
 1311              	.LC23:
 1312 002c 2E00     		.ascii	".\000"
 1313 002e 0000     		.align	2
 1314              	.LC24:
 1315 0030 00       		.ascii	"\000"
 1316              		.section	.rodata.default_kb_map_num,"a"
 1317              		.align	2
 1320              	default_kb_map_num:
 1321 0000 00000000 		.word	.LC12
 1322 0004 04000000 		.word	.LC13
 1323 0008 08000000 		.word	.LC14
 1324 000c 10000000 		.word	.LC4
ARM GAS  /var/folders/qx/2_175_4n2s19vhvtspjhb3qh0000gn/T//ccbOnCse.s 			page 38


 1325 0010 0C000000 		.word	.LC15
 1326 0014 10000000 		.word	.LC16
 1327 0018 14000000 		.word	.LC17
 1328 001c 18000000 		.word	.LC18
 1329 0020 14000000 		.word	.LC5
 1330 0024 0C000000 		.word	.LC15
 1331 0028 1C000000 		.word	.LC19
 1332 002c 20000000 		.word	.LC20
 1333 0030 24000000 		.word	.LC21
 1334 0034 2C000000 		.word	.LC10
 1335 0038 0C000000 		.word	.LC15
 1336 003c 30000000 		.word	.LC11
 1337 0040 28000000 		.word	.LC22
 1338 0044 2C000000 		.word	.LC23
 1339 0048 24000000 		.word	.LC8
 1340 004c 28000000 		.word	.LC9
 1341 0050 30000000 		.word	.LC24
 1342              		.section	.rodata.default_kb_ctrl_spec_map,"a"
 1343              		.align	2
 1346              	default_kb_ctrl_spec_map:
 1347 0000 0104     		.short	1025
 1348 0002 0104     		.short	1025
 1349 0004 0104     		.short	1025
 1350 0006 0104     		.short	1025
 1351 0008 0104     		.short	1025
 1352 000a 0104     		.short	1025
 1353 000c 0104     		.short	1025
 1354 000e 0104     		.short	1025
 1355 0010 0104     		.short	1025
 1356 0012 0104     		.short	1025
 1357 0014 0201     		.short	258
 1358 0016 2203     		.short	802
 1359 0018 0104     		.short	1025
 1360 001a 0104     		.short	1025
 1361 001c 0104     		.short	1025
 1362 001e 0104     		.short	1025
 1363 0020 0104     		.short	1025
 1364 0022 0104     		.short	1025
 1365 0024 0104     		.short	1025
 1366 0026 0104     		.short	1025
 1367 0028 0104     		.short	1025
 1368 002a 0104     		.short	1025
 1369 002c 0104     		.short	1025
 1370 002e 0104     		.short	1025
 1371 0030 0104     		.short	1025
 1372 0032 0104     		.short	1025
 1373 0034 0104     		.short	1025
 1374 0036 0104     		.short	1025
 1375 0038 0104     		.short	1025
 1376 003a 0104     		.short	1025
 1377 003c 0104     		.short	1025
 1378 003e 0104     		.short	1025
 1379 0040 0104     		.short	1025
 1380 0042 0104     		.short	1025
 1381 0044 0104     		.short	1025
 1382 0046 2203     		.short	802
 1383 0048 0201     		.short	258
ARM GAS  /var/folders/qx/2_175_4n2s19vhvtspjhb3qh0000gn/T//ccbOnCse.s 			page 39


 1384 004a 0600     		.short	6
 1385 004c 0201     		.short	258
 1386 004e 2203     		.short	802
 1387              		.section	.rodata.str1.4
 1388 0031 000000   		.align	2
 1389              	.LC25:
 1390 0034 2B00     		.ascii	"+\000"
 1391 0036 0000     		.align	2
 1392              	.LC26:
 1393 0038 2600     		.ascii	"&\000"
 1394 003a 0000     		.align	2
 1395              	.LC27:
 1396 003c 2F00     		.ascii	"/\000"
 1397 003e 0000     		.align	2
 1398              	.LC28:
 1399 0040 2A00     		.ascii	"*\000"
 1400 0042 0000     		.align	2
 1401              	.LC29:
 1402 0044 3D00     		.ascii	"=\000"
 1403 0046 0000     		.align	2
 1404              	.LC30:
 1405 0048 2500     		.ascii	"%\000"
 1406 004a 0000     		.align	2
 1407              	.LC31:
 1408 004c 2100     		.ascii	"!\000"
 1409 004e 0000     		.align	2
 1410              	.LC32:
 1411 0050 3F00     		.ascii	"?\000"
 1412 0052 0000     		.align	2
 1413              	.LC33:
 1414 0054 2300     		.ascii	"#\000"
 1415 0056 0000     		.align	2
 1416              	.LC34:
 1417 0058 3C00     		.ascii	"<\000"
 1418 005a 0000     		.align	2
 1419              	.LC35:
 1420 005c 3E00     		.ascii	">\000"
 1421 005e 0000     		.align	2
 1422              	.LC36:
 1423 0060 5C00     		.ascii	"\\\000"
 1424 0062 0000     		.align	2
 1425              	.LC37:
 1426 0064 4000     		.ascii	"@\000"
 1427 0066 0000     		.align	2
 1428              	.LC38:
 1429 0068 2400     		.ascii	"$\000"
 1430 006a 0000     		.align	2
 1431              	.LC39:
 1432 006c 2800     		.ascii	"(\000"
 1433 006e 0000     		.align	2
 1434              	.LC40:
 1435 0070 2900     		.ascii	")\000"
 1436 0072 0000     		.align	2
 1437              	.LC41:
 1438 0074 7B00     		.ascii	"{\000"
 1439 0076 0000     		.align	2
 1440              	.LC42:
ARM GAS  /var/folders/qx/2_175_4n2s19vhvtspjhb3qh0000gn/T//ccbOnCse.s 			page 40


 1441 0078 7D00     		.ascii	"}\000"
 1442 007a 0000     		.align	2
 1443              	.LC43:
 1444 007c 5B00     		.ascii	"[\000"
 1445 007e 0000     		.align	2
 1446              	.LC44:
 1447 0080 5D00     		.ascii	"]\000"
 1448 0082 0000     		.align	2
 1449              	.LC45:
 1450 0084 3B00     		.ascii	";\000"
 1451 0086 0000     		.align	2
 1452              	.LC46:
 1453 0088 2200     		.ascii	"\"\000"
 1454 008a 0000     		.align	2
 1455              	.LC47:
 1456 008c 2700     		.ascii	"'\000"
 1457 008e 0000     		.align	2
 1458              	.LC48:
 1459 0090 2000     		.ascii	" \000"
 1460              		.section	.rodata.default_kb_map_spec,"a"
 1461              		.align	2
 1464              	default_kb_map_spec:
 1465 0000 00000000 		.word	.LC12
 1466 0004 04000000 		.word	.LC13
 1467 0008 08000000 		.word	.LC14
 1468 000c 10000000 		.word	.LC16
 1469 0010 14000000 		.word	.LC17
 1470 0014 18000000 		.word	.LC18
 1471 0018 1C000000 		.word	.LC19
 1472 001c 20000000 		.word	.LC20
 1473 0020 24000000 		.word	.LC21
 1474 0024 28000000 		.word	.LC22
 1475 0028 2C000000 		.word	.LC10
 1476 002c 0C000000 		.word	.LC15
 1477 0030 00000000 		.word	.LC0
 1478 0034 34000000 		.word	.LC25
 1479 0038 38000000 		.word	.LC26
 1480 003c 3C000000 		.word	.LC27
 1481 0040 40000000 		.word	.LC28
 1482 0044 44000000 		.word	.LC29
 1483 0048 48000000 		.word	.LC30
 1484 004c 4C000000 		.word	.LC31
 1485 0050 50000000 		.word	.LC32
 1486 0054 54000000 		.word	.LC33
 1487 0058 58000000 		.word	.LC34
 1488 005c 5C000000 		.word	.LC35
 1489 0060 0C000000 		.word	.LC15
 1490 0064 60000000 		.word	.LC36
 1491 0068 64000000 		.word	.LC37
 1492 006c 68000000 		.word	.LC38
 1493 0070 6C000000 		.word	.LC39
 1494 0074 70000000 		.word	.LC40
 1495 0078 74000000 		.word	.LC41
 1496 007c 78000000 		.word	.LC42
 1497 0080 7C000000 		.word	.LC43
 1498 0084 80000000 		.word	.LC44
 1499 0088 84000000 		.word	.LC45
ARM GAS  /var/folders/qx/2_175_4n2s19vhvtspjhb3qh0000gn/T//ccbOnCse.s 			page 41


 1500 008c 88000000 		.word	.LC46
 1501 0090 8C000000 		.word	.LC47
 1502 0094 0C000000 		.word	.LC15
 1503 0098 10000000 		.word	.LC4
 1504 009c 24000000 		.word	.LC8
 1505 00a0 90000000 		.word	.LC48
 1506 00a4 28000000 		.word	.LC9
 1507 00a8 14000000 		.word	.LC5
 1508 00ac 30000000 		.word	.LC24
 1509              		.section	.rodata.default_kb_ctrl_uc_map,"a"
 1510              		.align	2
 1513              	default_kb_ctrl_uc_map:
 1514 0000 2503     		.short	805
 1515 0002 0404     		.short	1028
 1516 0004 0404     		.short	1028
 1517 0006 0404     		.short	1028
 1518 0008 0404     		.short	1028
 1519 000a 0404     		.short	1028
 1520 000c 0404     		.short	1028
 1521 000e 0404     		.short	1028
 1522 0010 0404     		.short	1028
 1523 0012 0404     		.short	1028
 1524 0014 0404     		.short	1028
 1525 0016 0701     		.short	263
 1526 0018 2603     		.short	806
 1527 001a 0304     		.short	1027
 1528 001c 0304     		.short	1027
 1529 001e 0304     		.short	1027
 1530 0020 0304     		.short	1027
 1531 0022 0304     		.short	1027
 1532 0024 0304     		.short	1027
 1533 0026 0304     		.short	1027
 1534 0028 0304     		.short	1027
 1535 002a 0304     		.short	1027
 1536 002c 0701     		.short	263
 1537 002e 0105     		.short	1281
 1538 0030 0105     		.short	1281
 1539 0032 0104     		.short	1025
 1540 0034 0104     		.short	1025
 1541 0036 0104     		.short	1025
 1542 0038 0104     		.short	1025
 1543 003a 0104     		.short	1025
 1544 003c 0104     		.short	1025
 1545 003e 0104     		.short	1025
 1546 0040 0105     		.short	1281
 1547 0042 0105     		.short	1281
 1548 0044 0105     		.short	1281
 1549 0046 2203     		.short	802
 1550 0048 0201     		.short	258
 1551 004a 0600     		.short	6
 1552 004c 0201     		.short	258
 1553 004e 2203     		.short	802
 1554              		.section	.rodata.str1.4
 1555 0092 0000     		.align	2
 1556              	.LC49:
 1557 0094 5100     		.ascii	"Q\000"
 1558 0096 0000     		.align	2
ARM GAS  /var/folders/qx/2_175_4n2s19vhvtspjhb3qh0000gn/T//ccbOnCse.s 			page 42


 1559              	.LC50:
 1560 0098 5700     		.ascii	"W\000"
 1561 009a 0000     		.align	2
 1562              	.LC51:
 1563 009c 4500     		.ascii	"E\000"
 1564 009e 0000     		.align	2
 1565              	.LC52:
 1566 00a0 5200     		.ascii	"R\000"
 1567 00a2 0000     		.align	2
 1568              	.LC53:
 1569 00a4 5400     		.ascii	"T\000"
 1570 00a6 0000     		.align	2
 1571              	.LC54:
 1572 00a8 5900     		.ascii	"Y\000"
 1573 00aa 0000     		.align	2
 1574              	.LC55:
 1575 00ac 5500     		.ascii	"U\000"
 1576 00ae 0000     		.align	2
 1577              	.LC56:
 1578 00b0 4900     		.ascii	"I\000"
 1579 00b2 0000     		.align	2
 1580              	.LC57:
 1581 00b4 4F00     		.ascii	"O\000"
 1582 00b6 0000     		.align	2
 1583              	.LC58:
 1584 00b8 5000     		.ascii	"P\000"
 1585 00ba 0000     		.align	2
 1586              	.LC59:
 1587 00bc 4100     		.ascii	"A\000"
 1588 00be 0000     		.align	2
 1589              	.LC60:
 1590 00c0 5300     		.ascii	"S\000"
 1591 00c2 0000     		.align	2
 1592              	.LC61:
 1593 00c4 4400     		.ascii	"D\000"
 1594 00c6 0000     		.align	2
 1595              	.LC62:
 1596 00c8 4600     		.ascii	"F\000"
 1597 00ca 0000     		.align	2
 1598              	.LC63:
 1599 00cc 4700     		.ascii	"G\000"
 1600 00ce 0000     		.align	2
 1601              	.LC64:
 1602 00d0 4800     		.ascii	"H\000"
 1603 00d2 0000     		.align	2
 1604              	.LC65:
 1605 00d4 4A00     		.ascii	"J\000"
 1606 00d6 0000     		.align	2
 1607              	.LC66:
 1608 00d8 4B00     		.ascii	"K\000"
 1609 00da 0000     		.align	2
 1610              	.LC67:
 1611 00dc 4C00     		.ascii	"L\000"
 1612 00de 0000     		.align	2
 1613              	.LC68:
 1614 00e0 5F00     		.ascii	"_\000"
 1615 00e2 0000     		.align	2
ARM GAS  /var/folders/qx/2_175_4n2s19vhvtspjhb3qh0000gn/T//ccbOnCse.s 			page 43


 1616              	.LC69:
 1617 00e4 2D00     		.ascii	"-\000"
 1618 00e6 0000     		.align	2
 1619              	.LC70:
 1620 00e8 5A00     		.ascii	"Z\000"
 1621 00ea 0000     		.align	2
 1622              	.LC71:
 1623 00ec 5800     		.ascii	"X\000"
 1624 00ee 0000     		.align	2
 1625              	.LC72:
 1626 00f0 4300     		.ascii	"C\000"
 1627 00f2 0000     		.align	2
 1628              	.LC73:
 1629 00f4 5600     		.ascii	"V\000"
 1630 00f6 0000     		.align	2
 1631              	.LC74:
 1632 00f8 4200     		.ascii	"B\000"
 1633 00fa 0000     		.align	2
 1634              	.LC75:
 1635 00fc 4E00     		.ascii	"N\000"
 1636 00fe 0000     		.align	2
 1637              	.LC76:
 1638 0100 4D00     		.ascii	"M\000"
 1639 0102 0000     		.align	2
 1640              	.LC77:
 1641 0104 2C00     		.ascii	",\000"
 1642 0106 0000     		.align	2
 1643              	.LC78:
 1644 0108 3A00     		.ascii	":\000"
 1645              		.section	.rodata.default_kb_map_uc,"a"
 1646              		.align	2
 1649              	default_kb_map_uc:
 1650 0000 08000000 		.word	.LC2
 1651 0004 94000000 		.word	.LC49
 1652 0008 98000000 		.word	.LC50
 1653 000c 9C000000 		.word	.LC51
 1654 0010 A0000000 		.word	.LC52
 1655 0014 A4000000 		.word	.LC53
 1656 0018 A8000000 		.word	.LC54
 1657 001c AC000000 		.word	.LC55
 1658 0020 B0000000 		.word	.LC56
 1659 0024 B4000000 		.word	.LC57
 1660 0028 B8000000 		.word	.LC58
 1661 002c 2C000000 		.word	.LC10
 1662 0030 0C000000 		.word	.LC15
 1663 0034 00000000 		.word	.LC0
 1664 0038 BC000000 		.word	.LC59
 1665 003c C0000000 		.word	.LC60
 1666 0040 C4000000 		.word	.LC61
 1667 0044 C8000000 		.word	.LC62
 1668 0048 CC000000 		.word	.LC63
 1669 004c D0000000 		.word	.LC64
 1670 0050 D4000000 		.word	.LC65
 1671 0054 D8000000 		.word	.LC66
 1672 0058 DC000000 		.word	.LC67
 1673 005c 20000000 		.word	.LC7
 1674 0060 0C000000 		.word	.LC15
ARM GAS  /var/folders/qx/2_175_4n2s19vhvtspjhb3qh0000gn/T//ccbOnCse.s 			page 44


 1675 0064 E0000000 		.word	.LC68
 1676 0068 E4000000 		.word	.LC69
 1677 006c E8000000 		.word	.LC70
 1678 0070 EC000000 		.word	.LC71
 1679 0074 F0000000 		.word	.LC72
 1680 0078 F4000000 		.word	.LC73
 1681 007c F8000000 		.word	.LC74
 1682 0080 FC000000 		.word	.LC75
 1683 0084 00010000 		.word	.LC76
 1684 0088 2C000000 		.word	.LC23
 1685 008c 04010000 		.word	.LC77
 1686 0090 08010000 		.word	.LC78
 1687 0094 0C000000 		.word	.LC15
 1688 0098 0C000000 		.word	.LC3
 1689 009c 24000000 		.word	.LC8
 1690 00a0 90000000 		.word	.LC48
 1691 00a4 28000000 		.word	.LC9
 1692 00a8 14000000 		.word	.LC5
 1693 00ac 30000000 		.word	.LC24
 1694              		.section	.rodata.default_kb_ctrl_lc_map,"a"
 1695              		.align	2
 1698              	default_kb_ctrl_lc_map:
 1699 0000 2503     		.short	805
 1700 0002 0404     		.short	1028
 1701 0004 0404     		.short	1028
 1702 0006 0404     		.short	1028
 1703 0008 0404     		.short	1028
 1704 000a 0404     		.short	1028
 1705 000c 0404     		.short	1028
 1706 000e 0404     		.short	1028
 1707 0010 0404     		.short	1028
 1708 0012 0404     		.short	1028
 1709 0014 0404     		.short	1028
 1710 0016 0701     		.short	263
 1711 0018 2603     		.short	806
 1712 001a 0304     		.short	1027
 1713 001c 0304     		.short	1027
 1714 001e 0304     		.short	1027
 1715 0020 0304     		.short	1027
 1716 0022 0304     		.short	1027
 1717 0024 0304     		.short	1027
 1718 0026 0304     		.short	1027
 1719 0028 0304     		.short	1027
 1720 002a 0304     		.short	1027
 1721 002c 0701     		.short	263
 1722 002e 0105     		.short	1281
 1723 0030 0105     		.short	1281
 1724 0032 0104     		.short	1025
 1725 0034 0104     		.short	1025
 1726 0036 0104     		.short	1025
 1727 0038 0104     		.short	1025
 1728 003a 0104     		.short	1025
 1729 003c 0104     		.short	1025
 1730 003e 0104     		.short	1025
 1731 0040 0105     		.short	1281
 1732 0042 0105     		.short	1281
 1733 0044 0105     		.short	1281
ARM GAS  /var/folders/qx/2_175_4n2s19vhvtspjhb3qh0000gn/T//ccbOnCse.s 			page 45


 1734 0046 2203     		.short	802
 1735 0048 0201     		.short	258
 1736 004a 0600     		.short	6
 1737 004c 0201     		.short	258
 1738 004e 2203     		.short	802
 1739              		.section	.rodata.str1.4
 1740 010a 0000     		.align	2
 1741              	.LC79:
 1742 010c 7100     		.ascii	"q\000"
 1743 010e 0000     		.align	2
 1744              	.LC80:
 1745 0110 7700     		.ascii	"w\000"
 1746 0112 0000     		.align	2
 1747              	.LC81:
 1748 0114 6500     		.ascii	"e\000"
 1749 0116 0000     		.align	2
 1750              	.LC82:
 1751 0118 7200     		.ascii	"r\000"
 1752 011a 0000     		.align	2
 1753              	.LC83:
 1754 011c 7400     		.ascii	"t\000"
 1755 011e 0000     		.align	2
 1756              	.LC84:
 1757 0120 7900     		.ascii	"y\000"
 1758 0122 0000     		.align	2
 1759              	.LC85:
 1760 0124 7500     		.ascii	"u\000"
 1761 0126 0000     		.align	2
 1762              	.LC86:
 1763 0128 6900     		.ascii	"i\000"
 1764 012a 0000     		.align	2
 1765              	.LC87:
 1766 012c 6F00     		.ascii	"o\000"
 1767 012e 0000     		.align	2
 1768              	.LC88:
 1769 0130 7000     		.ascii	"p\000"
 1770 0132 0000     		.align	2
 1771              	.LC89:
 1772 0134 6100     		.ascii	"a\000"
 1773 0136 0000     		.align	2
 1774              	.LC90:
 1775 0138 7300     		.ascii	"s\000"
 1776 013a 0000     		.align	2
 1777              	.LC91:
 1778 013c 6400     		.ascii	"d\000"
 1779 013e 0000     		.align	2
 1780              	.LC92:
 1781 0140 6600     		.ascii	"f\000"
 1782 0142 0000     		.align	2
 1783              	.LC93:
 1784 0144 6700     		.ascii	"g\000"
 1785 0146 0000     		.align	2
 1786              	.LC94:
 1787 0148 6800     		.ascii	"h\000"
 1788 014a 0000     		.align	2
 1789              	.LC95:
 1790 014c 6A00     		.ascii	"j\000"
ARM GAS  /var/folders/qx/2_175_4n2s19vhvtspjhb3qh0000gn/T//ccbOnCse.s 			page 46


 1791 014e 0000     		.align	2
 1792              	.LC96:
 1793 0150 6B00     		.ascii	"k\000"
 1794 0152 0000     		.align	2
 1795              	.LC97:
 1796 0154 6C00     		.ascii	"l\000"
 1797 0156 0000     		.align	2
 1798              	.LC98:
 1799 0158 7A00     		.ascii	"z\000"
 1800 015a 0000     		.align	2
 1801              	.LC99:
 1802 015c 7800     		.ascii	"x\000"
 1803 015e 0000     		.align	2
 1804              	.LC100:
 1805 0160 6300     		.ascii	"c\000"
 1806 0162 0000     		.align	2
 1807              	.LC101:
 1808 0164 7600     		.ascii	"v\000"
 1809 0166 0000     		.align	2
 1810              	.LC102:
 1811 0168 6200     		.ascii	"b\000"
 1812 016a 0000     		.align	2
 1813              	.LC103:
 1814 016c 6E00     		.ascii	"n\000"
 1815 016e 0000     		.align	2
 1816              	.LC104:
 1817 0170 6D00     		.ascii	"m\000"
 1818              		.section	.rodata.default_kb_map_lc,"a"
 1819              		.align	2
 1822              	default_kb_map_lc:
 1823 0000 08000000 		.word	.LC2
 1824 0004 0C010000 		.word	.LC79
 1825 0008 10010000 		.word	.LC80
 1826 000c 14010000 		.word	.LC81
 1827 0010 18010000 		.word	.LC82
 1828 0014 1C010000 		.word	.LC83
 1829 0018 20010000 		.word	.LC84
 1830 001c 24010000 		.word	.LC85
 1831 0020 28010000 		.word	.LC86
 1832 0024 2C010000 		.word	.LC87
 1833 0028 30010000 		.word	.LC88
 1834 002c 2C000000 		.word	.LC10
 1835 0030 0C000000 		.word	.LC15
 1836 0034 04000000 		.word	.LC1
 1837 0038 34010000 		.word	.LC89
 1838 003c 38010000 		.word	.LC90
 1839 0040 3C010000 		.word	.LC91
 1840 0044 40010000 		.word	.LC92
 1841 0048 44010000 		.word	.LC93
 1842 004c 48010000 		.word	.LC94
 1843 0050 4C010000 		.word	.LC95
 1844 0054 50010000 		.word	.LC96
 1845 0058 54010000 		.word	.LC97
 1846 005c 20000000 		.word	.LC7
 1847 0060 0C000000 		.word	.LC15
 1848 0064 E0000000 		.word	.LC68
 1849 0068 E4000000 		.word	.LC69
ARM GAS  /var/folders/qx/2_175_4n2s19vhvtspjhb3qh0000gn/T//ccbOnCse.s 			page 47


 1850 006c 58010000 		.word	.LC98
 1851 0070 5C010000 		.word	.LC99
 1852 0074 60010000 		.word	.LC100
 1853 0078 64010000 		.word	.LC101
 1854 007c 68010000 		.word	.LC102
 1855 0080 6C010000 		.word	.LC103
 1856 0084 70010000 		.word	.LC104
 1857 0088 2C000000 		.word	.LC23
 1858 008c 04010000 		.word	.LC77
 1859 0090 08010000 		.word	.LC78
 1860 0094 0C000000 		.word	.LC15
 1861 0098 10000000 		.word	.LC4
 1862 009c 24000000 		.word	.LC8
 1863 00a0 90000000 		.word	.LC48
 1864 00a4 28000000 		.word	.LC9
 1865 00a8 14000000 		.word	.LC5
 1866 00ac 30000000 		.word	.LC24
 1867              		.global	lv_keyboard_class
 1868              		.section	.rodata.str1.4
 1869 0172 0000     		.align	2
 1870              	.LC105:
 1871 0174 6C765F6B 		.ascii	"lv_keyboard\000"
 1871      6579626F 
 1871      61726400 
 1872              		.section	.rodata.lv_keyboard_class,"a"
 1873              		.align	2
 1876              	lv_keyboard_class:
 1877 0000 00000000 		.word	lv_buttonmatrix_class
 1878 0004 00000000 		.word	lv_keyboard_constructor
 1879 0008 00000000 		.space	12
 1879      00000000 
 1879      00000000 
 1880 0014 74010000 		.word	.LC105
 1881 0018 64000020 		.word	536871012
 1882 001c 32000020 		.word	536870962
 1883 0020 01       		.byte	1
 1884 0021 05       		.byte	5
 1885 0022 00       		.byte	0
 1886 0023 00       		.space	1
 1887              		.text
 1888              	.Letext0:
 1889              		.file 2 "/Applications/ArmGNUToolchain/14.3.rel1/arm-none-eabi/arm-none-eabi/include/machine/_defa
 1890              		.file 3 "/Applications/ArmGNUToolchain/14.3.rel1/arm-none-eabi/arm-none-eabi/include/sys/_stdint.h
 1891              		.file 4 "/Applications/ArmGNUToolchain/14.3.rel1/arm-none-eabi/lib/gcc/arm-none-eabi/14.3.1/includ
 1892              		.file 5 "Drivers/lvgl/src/widgets/keyboard/../buttonmatrix/../../core/../misc/lv_types.h"
 1893              		.file 6 "Drivers/lvgl/src/widgets/keyboard/../buttonmatrix/../../core/lv_obj_private.h"
 1894              		.file 7 "Drivers/lvgl/src/widgets/keyboard/../../core/lv_obj_class_private.h"
 1895              		.file 8 "Drivers/lvgl/src/widgets/keyboard/../buttonmatrix/lv_buttonmatrix_private.h"
 1896              		.file 9 "Drivers/lvgl/src/widgets/keyboard/lv_keyboard_private.h"
 1897              		.file 10 "Drivers/lvgl/src/widgets/keyboard/../buttonmatrix/../../core/../display/../misc/lv_array
 1898              		.file 11 "Drivers/lvgl/src/widgets/keyboard/../buttonmatrix/../../core/../misc/../font/../draw/../
 1899              		.file 12 "Drivers/lvgl/src/widgets/keyboard/../buttonmatrix/../../core/../misc/lv_bidi.h"
 1900              		.file 13 "Drivers/lvgl/src/widgets/keyboard/../buttonmatrix/../../core/../display/../misc/lv_event
 1901              		.file 14 "Drivers/lvgl/src/widgets/keyboard/../buttonmatrix/../../core/lv_obj_style.h"
 1902              		.file 15 "Drivers/lvgl/src/widgets/keyboard/../buttonmatrix/../../core/../indev/lv_indev.h"
 1903              		.file 16 "Drivers/lvgl/src/widgets/keyboard/../buttonmatrix/../../core/lv_obj.h"
 1904              		.file 17 "Drivers/lvgl/src/widgets/keyboard/../buttonmatrix/lv_buttonmatrix.h"
ARM GAS  /var/folders/qx/2_175_4n2s19vhvtspjhb3qh0000gn/T//ccbOnCse.s 			page 48


 1905              		.file 18 "Drivers/lvgl/src/widgets/keyboard/lv_keyboard.h"
 1906              		.file 19 "Drivers/lvgl/src/widgets/keyboard/../textarea/lv_textarea.h"
 1907              		.file 20 "Drivers/lvgl/src/widgets/keyboard/../buttonmatrix/../../core/lv_obj_event.h"
 1908              		.file 21 "Drivers/lvgl/src/widgets/keyboard/../buttonmatrix/../../core/../misc/../font/../draw/../
 1909              		.file 22 "Drivers/lvgl/src/widgets/keyboard/../buttonmatrix/../../core/lv_obj_class.h"
 1910              		.file 23 "Drivers/lvgl/src/widgets/keyboard/../buttonmatrix/../../core/../misc/../font/../draw/../
 1911              		.file 24 "Drivers/lvgl/src/widgets/keyboard/../buttonmatrix/../../core/lv_obj_style_gen.h"
 1912              		.file 25 "Drivers/lvgl/src/widgets/keyboard/../buttonmatrix/../../core/lv_obj_pos.h"
ARM GAS  /var/folders/qx/2_175_4n2s19vhvtspjhb3qh0000gn/T//ccbOnCse.s 			page 49

