ARM GAS  /var/folders/qx/2_175_4n2s19vhvtspjhb3qh0000gn/T//cchuAKlx.s 			page 1


   1              		.cpu cortex-m4
   2              		.arch armv7e-m
   3              		.fpu fpv4-sp-d16
   4              		.eabi_attribute 27, 1
   5              		.eabi_attribute 28, 1
   6              		.eabi_attribute 20, 1
   7              		.eabi_attribute 21, 1
   8              		.eabi_attribute 23, 3
   9              		.eabi_attribute 24, 1
  10              		.eabi_attribute 25, 1
  11              		.eabi_attribute 26, 1
  12              		.eabi_attribute 30, 1
  13              		.eabi_attribute 34, 1
  14              		.eabi_attribute 18, 4
  15              		.file	"lv_bar.c"
  16              		.text
  17              	.Ltext0:
  18              		.cfi_sections	.debug_frame
  19              		.file 1 "Drivers/lvgl/src/widgets/bar/lv_bar.c"
  20              		.section	.text.lv_bar_init_anim,"ax",%progbits
  21              		.align	1
  22              		.syntax unified
  23              		.thumb
  24              		.thumb_func
  26              	lv_bar_init_anim:
  27              	.LVL0:
  28              	.LFB204:
   1:Drivers/lvgl/src/widgets/bar/lv_bar.c **** /**
   2:Drivers/lvgl/src/widgets/bar/lv_bar.c ****  * @file lv_bar.c
   3:Drivers/lvgl/src/widgets/bar/lv_bar.c ****  *
   4:Drivers/lvgl/src/widgets/bar/lv_bar.c ****  */
   5:Drivers/lvgl/src/widgets/bar/lv_bar.c **** 
   6:Drivers/lvgl/src/widgets/bar/lv_bar.c **** /*********************
   7:Drivers/lvgl/src/widgets/bar/lv_bar.c ****  *      INCLUDES
   8:Drivers/lvgl/src/widgets/bar/lv_bar.c ****  *********************/
   9:Drivers/lvgl/src/widgets/bar/lv_bar.c **** #include "lv_bar_private.h"
  10:Drivers/lvgl/src/widgets/bar/lv_bar.c **** #include "../../misc/lv_area_private.h"
  11:Drivers/lvgl/src/widgets/bar/lv_bar.c **** #include "../../draw/lv_draw_mask_private.h"
  12:Drivers/lvgl/src/widgets/bar/lv_bar.c **** #include "../../core/lv_obj_private.h"
  13:Drivers/lvgl/src/widgets/bar/lv_bar.c **** #include "../../core/lv_obj_class_private.h"
  14:Drivers/lvgl/src/widgets/bar/lv_bar.c **** #if LV_USE_BAR != 0
  15:Drivers/lvgl/src/widgets/bar/lv_bar.c **** 
  16:Drivers/lvgl/src/widgets/bar/lv_bar.c **** #include "../../draw/lv_draw.h"
  17:Drivers/lvgl/src/widgets/bar/lv_bar.c **** #include "../../core/lv_observer_private.h"
  18:Drivers/lvgl/src/widgets/bar/lv_bar.c **** #include "../../misc/lv_assert.h"
  19:Drivers/lvgl/src/widgets/bar/lv_bar.c **** #include "../../misc/lv_anim_private.h"
  20:Drivers/lvgl/src/widgets/bar/lv_bar.c **** #include "../../misc/lv_math.h"
  21:Drivers/lvgl/src/widgets/bar/lv_bar.c **** 
  22:Drivers/lvgl/src/widgets/bar/lv_bar.c **** /*********************
  23:Drivers/lvgl/src/widgets/bar/lv_bar.c ****  *      DEFINES
  24:Drivers/lvgl/src/widgets/bar/lv_bar.c ****  *********************/
  25:Drivers/lvgl/src/widgets/bar/lv_bar.c **** #define MY_CLASS (&lv_bar_class)
  26:Drivers/lvgl/src/widgets/bar/lv_bar.c **** 
  27:Drivers/lvgl/src/widgets/bar/lv_bar.c **** /** hor. pad and ver. pad cannot make the indicator smaller than this [px]*/
  28:Drivers/lvgl/src/widgets/bar/lv_bar.c **** #define LV_BAR_SIZE_MIN  4
  29:Drivers/lvgl/src/widgets/bar/lv_bar.c **** 
  30:Drivers/lvgl/src/widgets/bar/lv_bar.c **** #define LV_BAR_IS_ANIMATING(anim_struct) (((anim_struct).anim_state) != LV_BAR_ANIM_STATE_INV)
ARM GAS  /var/folders/qx/2_175_4n2s19vhvtspjhb3qh0000gn/T//cchuAKlx.s 			page 2


  31:Drivers/lvgl/src/widgets/bar/lv_bar.c **** #define LV_BAR_GET_ANIM_VALUE(orig_value, anim_struct) (LV_BAR_IS_ANIMATING(anim_struct) ? ((anim_s
  32:Drivers/lvgl/src/widgets/bar/lv_bar.c **** 
  33:Drivers/lvgl/src/widgets/bar/lv_bar.c **** /** Bar animation start value. (Not the real value of the Bar just indicates process animation)*/
  34:Drivers/lvgl/src/widgets/bar/lv_bar.c **** #define LV_BAR_ANIM_STATE_START 0
  35:Drivers/lvgl/src/widgets/bar/lv_bar.c **** 
  36:Drivers/lvgl/src/widgets/bar/lv_bar.c **** /** Bar animation end value.  (Not the real value of the Bar just indicates process animation)*/
  37:Drivers/lvgl/src/widgets/bar/lv_bar.c **** #define LV_BAR_ANIM_STATE_END   256
  38:Drivers/lvgl/src/widgets/bar/lv_bar.c **** 
  39:Drivers/lvgl/src/widgets/bar/lv_bar.c **** /** Mark no animation is in progress*/
  40:Drivers/lvgl/src/widgets/bar/lv_bar.c **** #define LV_BAR_ANIM_STATE_INV   -1
  41:Drivers/lvgl/src/widgets/bar/lv_bar.c **** 
  42:Drivers/lvgl/src/widgets/bar/lv_bar.c **** /** log2(LV_BAR_ANIM_STATE_END) used to normalize data*/
  43:Drivers/lvgl/src/widgets/bar/lv_bar.c **** #define LV_BAR_ANIM_STATE_NORM  8
  44:Drivers/lvgl/src/widgets/bar/lv_bar.c **** 
  45:Drivers/lvgl/src/widgets/bar/lv_bar.c **** /**********************
  46:Drivers/lvgl/src/widgets/bar/lv_bar.c ****  *      TYPEDEFS
  47:Drivers/lvgl/src/widgets/bar/lv_bar.c ****  **********************/
  48:Drivers/lvgl/src/widgets/bar/lv_bar.c **** 
  49:Drivers/lvgl/src/widgets/bar/lv_bar.c **** /**********************
  50:Drivers/lvgl/src/widgets/bar/lv_bar.c ****  *  STATIC PROTOTYPES
  51:Drivers/lvgl/src/widgets/bar/lv_bar.c ****  **********************/
  52:Drivers/lvgl/src/widgets/bar/lv_bar.c **** static void lv_bar_constructor(const lv_obj_class_t * class_p, lv_obj_t * obj);
  53:Drivers/lvgl/src/widgets/bar/lv_bar.c **** static void lv_bar_destructor(const lv_obj_class_t * class_p, lv_obj_t * obj);
  54:Drivers/lvgl/src/widgets/bar/lv_bar.c **** static void lv_bar_event(const lv_obj_class_t * class_p, lv_event_t * e);
  55:Drivers/lvgl/src/widgets/bar/lv_bar.c **** static void draw_indic(lv_event_t * e);
  56:Drivers/lvgl/src/widgets/bar/lv_bar.c **** static void lv_bar_set_value_with_anim(lv_obj_t * obj, int32_t new_value, int32_t * value_ptr,
  57:Drivers/lvgl/src/widgets/bar/lv_bar.c ****                                        lv_bar_anim_t * anim_info, lv_anim_enable_t en);
  58:Drivers/lvgl/src/widgets/bar/lv_bar.c **** static void lv_bar_init_anim(lv_obj_t * bar, lv_bar_anim_t * bar_anim);
  59:Drivers/lvgl/src/widgets/bar/lv_bar.c **** static void lv_bar_anim(void * bar, int32_t value);
  60:Drivers/lvgl/src/widgets/bar/lv_bar.c **** static void lv_bar_anim_completed(lv_anim_t * a);
  61:Drivers/lvgl/src/widgets/bar/lv_bar.c **** 
  62:Drivers/lvgl/src/widgets/bar/lv_bar.c **** #if LV_USE_OBSERVER
  63:Drivers/lvgl/src/widgets/bar/lv_bar.c ****     static void bar_value_observer_cb(lv_observer_t * observer, lv_subject_t * subject);
  64:Drivers/lvgl/src/widgets/bar/lv_bar.c **** #endif
  65:Drivers/lvgl/src/widgets/bar/lv_bar.c **** 
  66:Drivers/lvgl/src/widgets/bar/lv_bar.c **** #if LV_USE_OBJ_PROPERTY
  67:Drivers/lvgl/src/widgets/bar/lv_bar.c ****     static void lv_bar_set_value_helper(lv_obj_t * obj, int32_t value);
  68:Drivers/lvgl/src/widgets/bar/lv_bar.c ****     static void lv_bar_set_start_value_helper(lv_obj_t * obj, int32_t value);
  69:Drivers/lvgl/src/widgets/bar/lv_bar.c **** #endif
  70:Drivers/lvgl/src/widgets/bar/lv_bar.c **** 
  71:Drivers/lvgl/src/widgets/bar/lv_bar.c **** /**********************
  72:Drivers/lvgl/src/widgets/bar/lv_bar.c ****  *  STATIC VARIABLES
  73:Drivers/lvgl/src/widgets/bar/lv_bar.c ****  **********************/
  74:Drivers/lvgl/src/widgets/bar/lv_bar.c **** 
  75:Drivers/lvgl/src/widgets/bar/lv_bar.c **** #if LV_USE_OBJ_PROPERTY
  76:Drivers/lvgl/src/widgets/bar/lv_bar.c **** static const lv_property_ops_t lv_bar_properties[] = {
  77:Drivers/lvgl/src/widgets/bar/lv_bar.c ****     {
  78:Drivers/lvgl/src/widgets/bar/lv_bar.c ****         .id = LV_PROPERTY_BAR_VALUE,
  79:Drivers/lvgl/src/widgets/bar/lv_bar.c ****         .setter = lv_bar_set_value_helper,
  80:Drivers/lvgl/src/widgets/bar/lv_bar.c ****         .getter = lv_bar_get_value,
  81:Drivers/lvgl/src/widgets/bar/lv_bar.c ****     },
  82:Drivers/lvgl/src/widgets/bar/lv_bar.c ****     {
  83:Drivers/lvgl/src/widgets/bar/lv_bar.c ****         .id = LV_PROPERTY_BAR_START_VALUE,
  84:Drivers/lvgl/src/widgets/bar/lv_bar.c ****         .setter = lv_bar_set_start_value_helper,
  85:Drivers/lvgl/src/widgets/bar/lv_bar.c ****         .getter = lv_bar_get_start_value,
  86:Drivers/lvgl/src/widgets/bar/lv_bar.c ****     },
  87:Drivers/lvgl/src/widgets/bar/lv_bar.c ****     {
ARM GAS  /var/folders/qx/2_175_4n2s19vhvtspjhb3qh0000gn/T//cchuAKlx.s 			page 3


  88:Drivers/lvgl/src/widgets/bar/lv_bar.c ****         .id = LV_PROPERTY_BAR_MIN_VALUE,
  89:Drivers/lvgl/src/widgets/bar/lv_bar.c ****         .setter = lv_bar_set_min_value,
  90:Drivers/lvgl/src/widgets/bar/lv_bar.c ****         .getter = lv_bar_get_min_value,
  91:Drivers/lvgl/src/widgets/bar/lv_bar.c ****     },
  92:Drivers/lvgl/src/widgets/bar/lv_bar.c ****     {
  93:Drivers/lvgl/src/widgets/bar/lv_bar.c ****         .id = LV_PROPERTY_BAR_MAX_VALUE,
  94:Drivers/lvgl/src/widgets/bar/lv_bar.c ****         .setter = lv_bar_set_max_value,
  95:Drivers/lvgl/src/widgets/bar/lv_bar.c ****         .getter = lv_bar_get_max_value,
  96:Drivers/lvgl/src/widgets/bar/lv_bar.c ****     },
  97:Drivers/lvgl/src/widgets/bar/lv_bar.c ****     {
  98:Drivers/lvgl/src/widgets/bar/lv_bar.c ****         .id = LV_PROPERTY_BAR_MODE,
  99:Drivers/lvgl/src/widgets/bar/lv_bar.c ****         .setter = lv_bar_set_mode,
 100:Drivers/lvgl/src/widgets/bar/lv_bar.c ****         .getter = lv_bar_get_mode,
 101:Drivers/lvgl/src/widgets/bar/lv_bar.c ****     },
 102:Drivers/lvgl/src/widgets/bar/lv_bar.c ****     {
 103:Drivers/lvgl/src/widgets/bar/lv_bar.c ****         .id = LV_PROPERTY_BAR_ORIENTATION,
 104:Drivers/lvgl/src/widgets/bar/lv_bar.c ****         .setter = lv_bar_set_orientation,
 105:Drivers/lvgl/src/widgets/bar/lv_bar.c ****         .getter = lv_bar_get_orientation,
 106:Drivers/lvgl/src/widgets/bar/lv_bar.c ****     },
 107:Drivers/lvgl/src/widgets/bar/lv_bar.c **** };
 108:Drivers/lvgl/src/widgets/bar/lv_bar.c **** #endif
 109:Drivers/lvgl/src/widgets/bar/lv_bar.c **** 
 110:Drivers/lvgl/src/widgets/bar/lv_bar.c **** const lv_obj_class_t lv_bar_class = {
 111:Drivers/lvgl/src/widgets/bar/lv_bar.c ****     .constructor_cb = lv_bar_constructor,
 112:Drivers/lvgl/src/widgets/bar/lv_bar.c ****     .destructor_cb = lv_bar_destructor,
 113:Drivers/lvgl/src/widgets/bar/lv_bar.c ****     .event_cb = lv_bar_event,
 114:Drivers/lvgl/src/widgets/bar/lv_bar.c ****     .width_def = LV_DPI_DEF * 2,
 115:Drivers/lvgl/src/widgets/bar/lv_bar.c ****     .height_def = LV_DPI_DEF / 10,
 116:Drivers/lvgl/src/widgets/bar/lv_bar.c ****     .instance_size = sizeof(lv_bar_t),
 117:Drivers/lvgl/src/widgets/bar/lv_bar.c ****     .base_class = &lv_obj_class,
 118:Drivers/lvgl/src/widgets/bar/lv_bar.c ****     .name = "lv_bar",
 119:Drivers/lvgl/src/widgets/bar/lv_bar.c ****     LV_PROPERTY_CLASS_FIELDS(bar, BAR)
 120:Drivers/lvgl/src/widgets/bar/lv_bar.c **** };
 121:Drivers/lvgl/src/widgets/bar/lv_bar.c **** 
 122:Drivers/lvgl/src/widgets/bar/lv_bar.c **** /**********************
 123:Drivers/lvgl/src/widgets/bar/lv_bar.c ****  *      MACROS
 124:Drivers/lvgl/src/widgets/bar/lv_bar.c ****  **********************/
 125:Drivers/lvgl/src/widgets/bar/lv_bar.c **** 
 126:Drivers/lvgl/src/widgets/bar/lv_bar.c **** /**********************
 127:Drivers/lvgl/src/widgets/bar/lv_bar.c ****  *   GLOBAL FUNCTIONS
 128:Drivers/lvgl/src/widgets/bar/lv_bar.c ****  **********************/
 129:Drivers/lvgl/src/widgets/bar/lv_bar.c **** 
 130:Drivers/lvgl/src/widgets/bar/lv_bar.c **** lv_obj_t * lv_bar_create(lv_obj_t * parent)
 131:Drivers/lvgl/src/widgets/bar/lv_bar.c **** {
 132:Drivers/lvgl/src/widgets/bar/lv_bar.c ****     LV_LOG_INFO("begin");
 133:Drivers/lvgl/src/widgets/bar/lv_bar.c ****     lv_obj_t * obj = lv_obj_class_create_obj(MY_CLASS, parent);
 134:Drivers/lvgl/src/widgets/bar/lv_bar.c ****     lv_obj_class_init_obj(obj);
 135:Drivers/lvgl/src/widgets/bar/lv_bar.c ****     return obj;
 136:Drivers/lvgl/src/widgets/bar/lv_bar.c **** }
 137:Drivers/lvgl/src/widgets/bar/lv_bar.c **** 
 138:Drivers/lvgl/src/widgets/bar/lv_bar.c **** /*=====================
 139:Drivers/lvgl/src/widgets/bar/lv_bar.c ****  * Setter functions
 140:Drivers/lvgl/src/widgets/bar/lv_bar.c ****  *====================*/
 141:Drivers/lvgl/src/widgets/bar/lv_bar.c **** 
 142:Drivers/lvgl/src/widgets/bar/lv_bar.c **** void lv_bar_set_value(lv_obj_t * obj, int32_t value, lv_anim_enable_t anim)
 143:Drivers/lvgl/src/widgets/bar/lv_bar.c **** {
 144:Drivers/lvgl/src/widgets/bar/lv_bar.c ****     LV_ASSERT_OBJ(obj, MY_CLASS);
ARM GAS  /var/folders/qx/2_175_4n2s19vhvtspjhb3qh0000gn/T//cchuAKlx.s 			page 4


 145:Drivers/lvgl/src/widgets/bar/lv_bar.c ****     lv_bar_t * bar = (lv_bar_t *)obj;
 146:Drivers/lvgl/src/widgets/bar/lv_bar.c **** 
 147:Drivers/lvgl/src/widgets/bar/lv_bar.c ****     if(bar->cur_value == value) return;
 148:Drivers/lvgl/src/widgets/bar/lv_bar.c **** 
 149:Drivers/lvgl/src/widgets/bar/lv_bar.c ****     value = LV_CLAMP(bar->min_value, value, bar->max_value);
 150:Drivers/lvgl/src/widgets/bar/lv_bar.c ****     value = value < bar->start_value ? bar->start_value : value; /*Can't be smaller than the left v
 151:Drivers/lvgl/src/widgets/bar/lv_bar.c **** 
 152:Drivers/lvgl/src/widgets/bar/lv_bar.c ****     if(bar->cur_value == value) return;
 153:Drivers/lvgl/src/widgets/bar/lv_bar.c **** 
 154:Drivers/lvgl/src/widgets/bar/lv_bar.c ****     lv_bar_set_value_with_anim(obj, value, &bar->cur_value, &bar->cur_value_anim, anim);
 155:Drivers/lvgl/src/widgets/bar/lv_bar.c **** }
 156:Drivers/lvgl/src/widgets/bar/lv_bar.c **** 
 157:Drivers/lvgl/src/widgets/bar/lv_bar.c **** void lv_bar_set_start_value(lv_obj_t * obj, int32_t value, lv_anim_enable_t anim)
 158:Drivers/lvgl/src/widgets/bar/lv_bar.c **** {
 159:Drivers/lvgl/src/widgets/bar/lv_bar.c ****     LV_ASSERT_OBJ(obj, MY_CLASS);
 160:Drivers/lvgl/src/widgets/bar/lv_bar.c **** 
 161:Drivers/lvgl/src/widgets/bar/lv_bar.c ****     lv_bar_t * bar = (lv_bar_t *)obj;
 162:Drivers/lvgl/src/widgets/bar/lv_bar.c **** 
 163:Drivers/lvgl/src/widgets/bar/lv_bar.c ****     if(bar->mode != LV_BAR_MODE_RANGE) {
 164:Drivers/lvgl/src/widgets/bar/lv_bar.c ****         return;
 165:Drivers/lvgl/src/widgets/bar/lv_bar.c ****     }
 166:Drivers/lvgl/src/widgets/bar/lv_bar.c **** 
 167:Drivers/lvgl/src/widgets/bar/lv_bar.c ****     value = LV_CLAMP(bar->min_value, value, bar->max_value);
 168:Drivers/lvgl/src/widgets/bar/lv_bar.c ****     value = value > bar->cur_value ? bar->cur_value : value; /*Can't be greater than the right valu
 169:Drivers/lvgl/src/widgets/bar/lv_bar.c **** 
 170:Drivers/lvgl/src/widgets/bar/lv_bar.c ****     if(bar->start_value == value) return;
 171:Drivers/lvgl/src/widgets/bar/lv_bar.c **** 
 172:Drivers/lvgl/src/widgets/bar/lv_bar.c ****     lv_bar_set_value_with_anim(obj, value, &bar->start_value, &bar->start_value_anim, anim);
 173:Drivers/lvgl/src/widgets/bar/lv_bar.c **** }
 174:Drivers/lvgl/src/widgets/bar/lv_bar.c **** 
 175:Drivers/lvgl/src/widgets/bar/lv_bar.c **** void lv_bar_set_range(lv_obj_t * obj, int32_t min, int32_t max)
 176:Drivers/lvgl/src/widgets/bar/lv_bar.c **** {
 177:Drivers/lvgl/src/widgets/bar/lv_bar.c ****     LV_ASSERT_OBJ(obj, MY_CLASS);
 178:Drivers/lvgl/src/widgets/bar/lv_bar.c **** 
 179:Drivers/lvgl/src/widgets/bar/lv_bar.c ****     lv_bar_t * bar = (lv_bar_t *)obj;
 180:Drivers/lvgl/src/widgets/bar/lv_bar.c **** 
 181:Drivers/lvgl/src/widgets/bar/lv_bar.c ****     bar->val_reversed = min > max;
 182:Drivers/lvgl/src/widgets/bar/lv_bar.c **** 
 183:Drivers/lvgl/src/widgets/bar/lv_bar.c ****     int32_t real_min = bar->val_reversed ? max : min;
 184:Drivers/lvgl/src/widgets/bar/lv_bar.c ****     int32_t real_max = bar->val_reversed ? min : max;
 185:Drivers/lvgl/src/widgets/bar/lv_bar.c ****     if(bar->min_value == real_min && bar->max_value == real_max) return;
 186:Drivers/lvgl/src/widgets/bar/lv_bar.c **** 
 187:Drivers/lvgl/src/widgets/bar/lv_bar.c ****     bar->max_value = real_max;
 188:Drivers/lvgl/src/widgets/bar/lv_bar.c ****     bar->min_value = real_min;
 189:Drivers/lvgl/src/widgets/bar/lv_bar.c **** 
 190:Drivers/lvgl/src/widgets/bar/lv_bar.c ****     if(lv_bar_get_mode(obj) != LV_BAR_MODE_RANGE)
 191:Drivers/lvgl/src/widgets/bar/lv_bar.c ****         bar->start_value = real_min;
 192:Drivers/lvgl/src/widgets/bar/lv_bar.c **** 
 193:Drivers/lvgl/src/widgets/bar/lv_bar.c ****     if(bar->cur_value > real_max) {
 194:Drivers/lvgl/src/widgets/bar/lv_bar.c ****         bar->cur_value = real_max;
 195:Drivers/lvgl/src/widgets/bar/lv_bar.c ****         lv_bar_set_value(obj, bar->cur_value, LV_ANIM_OFF);
 196:Drivers/lvgl/src/widgets/bar/lv_bar.c ****     }
 197:Drivers/lvgl/src/widgets/bar/lv_bar.c ****     if(bar->cur_value < real_min) {
 198:Drivers/lvgl/src/widgets/bar/lv_bar.c ****         bar->cur_value = real_min;
 199:Drivers/lvgl/src/widgets/bar/lv_bar.c ****         lv_bar_set_value(obj, bar->cur_value, LV_ANIM_OFF);
 200:Drivers/lvgl/src/widgets/bar/lv_bar.c ****     }
 201:Drivers/lvgl/src/widgets/bar/lv_bar.c **** 
ARM GAS  /var/folders/qx/2_175_4n2s19vhvtspjhb3qh0000gn/T//cchuAKlx.s 			page 5


 202:Drivers/lvgl/src/widgets/bar/lv_bar.c ****     lv_obj_invalidate(obj);
 203:Drivers/lvgl/src/widgets/bar/lv_bar.c **** }
 204:Drivers/lvgl/src/widgets/bar/lv_bar.c **** 
 205:Drivers/lvgl/src/widgets/bar/lv_bar.c **** void lv_bar_set_min_value(lv_obj_t * obj, int32_t min)
 206:Drivers/lvgl/src/widgets/bar/lv_bar.c **** {
 207:Drivers/lvgl/src/widgets/bar/lv_bar.c ****     lv_bar_set_range(obj, min, lv_bar_get_max_value(obj));
 208:Drivers/lvgl/src/widgets/bar/lv_bar.c **** }
 209:Drivers/lvgl/src/widgets/bar/lv_bar.c **** 
 210:Drivers/lvgl/src/widgets/bar/lv_bar.c **** void lv_bar_set_max_value(lv_obj_t * obj, int32_t max)
 211:Drivers/lvgl/src/widgets/bar/lv_bar.c **** {
 212:Drivers/lvgl/src/widgets/bar/lv_bar.c ****     lv_bar_set_range(obj, lv_bar_get_min_value(obj), max);
 213:Drivers/lvgl/src/widgets/bar/lv_bar.c **** }
 214:Drivers/lvgl/src/widgets/bar/lv_bar.c **** 
 215:Drivers/lvgl/src/widgets/bar/lv_bar.c **** void lv_bar_set_mode(lv_obj_t * obj, lv_bar_mode_t mode)
 216:Drivers/lvgl/src/widgets/bar/lv_bar.c **** {
 217:Drivers/lvgl/src/widgets/bar/lv_bar.c ****     LV_ASSERT_OBJ(obj, MY_CLASS);
 218:Drivers/lvgl/src/widgets/bar/lv_bar.c ****     lv_bar_t * bar = (lv_bar_t *)obj;
 219:Drivers/lvgl/src/widgets/bar/lv_bar.c **** 
 220:Drivers/lvgl/src/widgets/bar/lv_bar.c ****     bar->mode = mode;
 221:Drivers/lvgl/src/widgets/bar/lv_bar.c ****     if(bar->mode != LV_BAR_MODE_RANGE) {
 222:Drivers/lvgl/src/widgets/bar/lv_bar.c ****         bar->start_value = bar->min_value;
 223:Drivers/lvgl/src/widgets/bar/lv_bar.c ****     }
 224:Drivers/lvgl/src/widgets/bar/lv_bar.c **** 
 225:Drivers/lvgl/src/widgets/bar/lv_bar.c ****     lv_obj_invalidate(obj);
 226:Drivers/lvgl/src/widgets/bar/lv_bar.c **** }
 227:Drivers/lvgl/src/widgets/bar/lv_bar.c **** 
 228:Drivers/lvgl/src/widgets/bar/lv_bar.c **** void lv_bar_set_orientation(lv_obj_t * obj, lv_bar_orientation_t orientation)
 229:Drivers/lvgl/src/widgets/bar/lv_bar.c **** {
 230:Drivers/lvgl/src/widgets/bar/lv_bar.c ****     LV_ASSERT_OBJ(obj, MY_CLASS);
 231:Drivers/lvgl/src/widgets/bar/lv_bar.c ****     lv_bar_t * bar = (lv_bar_t *)obj;
 232:Drivers/lvgl/src/widgets/bar/lv_bar.c **** 
 233:Drivers/lvgl/src/widgets/bar/lv_bar.c ****     bar->orientation = orientation;
 234:Drivers/lvgl/src/widgets/bar/lv_bar.c ****     lv_obj_invalidate(obj);
 235:Drivers/lvgl/src/widgets/bar/lv_bar.c **** }
 236:Drivers/lvgl/src/widgets/bar/lv_bar.c **** 
 237:Drivers/lvgl/src/widgets/bar/lv_bar.c **** /*=====================
 238:Drivers/lvgl/src/widgets/bar/lv_bar.c ****  * Getter functions
 239:Drivers/lvgl/src/widgets/bar/lv_bar.c ****  *====================*/
 240:Drivers/lvgl/src/widgets/bar/lv_bar.c **** 
 241:Drivers/lvgl/src/widgets/bar/lv_bar.c **** int32_t lv_bar_get_value(const lv_obj_t * obj)
 242:Drivers/lvgl/src/widgets/bar/lv_bar.c **** {
 243:Drivers/lvgl/src/widgets/bar/lv_bar.c ****     LV_ASSERT_OBJ(obj, MY_CLASS);
 244:Drivers/lvgl/src/widgets/bar/lv_bar.c ****     lv_bar_t * bar = (lv_bar_t *)obj;
 245:Drivers/lvgl/src/widgets/bar/lv_bar.c **** 
 246:Drivers/lvgl/src/widgets/bar/lv_bar.c ****     return LV_BAR_GET_ANIM_VALUE(bar->cur_value, bar->cur_value_anim);
 247:Drivers/lvgl/src/widgets/bar/lv_bar.c **** }
 248:Drivers/lvgl/src/widgets/bar/lv_bar.c **** 
 249:Drivers/lvgl/src/widgets/bar/lv_bar.c **** int32_t lv_bar_get_start_value(const lv_obj_t * obj)
 250:Drivers/lvgl/src/widgets/bar/lv_bar.c **** {
 251:Drivers/lvgl/src/widgets/bar/lv_bar.c ****     LV_ASSERT_OBJ(obj, MY_CLASS);
 252:Drivers/lvgl/src/widgets/bar/lv_bar.c ****     lv_bar_t * bar = (lv_bar_t *)obj;
 253:Drivers/lvgl/src/widgets/bar/lv_bar.c **** 
 254:Drivers/lvgl/src/widgets/bar/lv_bar.c ****     if(bar->mode != LV_BAR_MODE_RANGE) return bar->min_value;
 255:Drivers/lvgl/src/widgets/bar/lv_bar.c **** 
 256:Drivers/lvgl/src/widgets/bar/lv_bar.c ****     return LV_BAR_GET_ANIM_VALUE(bar->start_value, bar->start_value_anim);
 257:Drivers/lvgl/src/widgets/bar/lv_bar.c **** }
 258:Drivers/lvgl/src/widgets/bar/lv_bar.c **** 
ARM GAS  /var/folders/qx/2_175_4n2s19vhvtspjhb3qh0000gn/T//cchuAKlx.s 			page 6


 259:Drivers/lvgl/src/widgets/bar/lv_bar.c **** int32_t lv_bar_get_min_value(const lv_obj_t * obj)
 260:Drivers/lvgl/src/widgets/bar/lv_bar.c **** {
 261:Drivers/lvgl/src/widgets/bar/lv_bar.c ****     LV_ASSERT_OBJ(obj, MY_CLASS);
 262:Drivers/lvgl/src/widgets/bar/lv_bar.c ****     lv_bar_t * bar = (lv_bar_t *)obj;
 263:Drivers/lvgl/src/widgets/bar/lv_bar.c ****     return bar->val_reversed ? bar->max_value : bar->min_value;
 264:Drivers/lvgl/src/widgets/bar/lv_bar.c **** }
 265:Drivers/lvgl/src/widgets/bar/lv_bar.c **** 
 266:Drivers/lvgl/src/widgets/bar/lv_bar.c **** int32_t lv_bar_get_max_value(const lv_obj_t * obj)
 267:Drivers/lvgl/src/widgets/bar/lv_bar.c **** {
 268:Drivers/lvgl/src/widgets/bar/lv_bar.c ****     LV_ASSERT_OBJ(obj, MY_CLASS);
 269:Drivers/lvgl/src/widgets/bar/lv_bar.c ****     lv_bar_t * bar = (lv_bar_t *)obj;
 270:Drivers/lvgl/src/widgets/bar/lv_bar.c **** 
 271:Drivers/lvgl/src/widgets/bar/lv_bar.c ****     return bar->val_reversed ? bar->min_value : bar->max_value;
 272:Drivers/lvgl/src/widgets/bar/lv_bar.c **** }
 273:Drivers/lvgl/src/widgets/bar/lv_bar.c **** 
 274:Drivers/lvgl/src/widgets/bar/lv_bar.c **** lv_bar_mode_t lv_bar_get_mode(lv_obj_t * obj)
 275:Drivers/lvgl/src/widgets/bar/lv_bar.c **** {
 276:Drivers/lvgl/src/widgets/bar/lv_bar.c ****     LV_ASSERT_OBJ(obj, MY_CLASS);
 277:Drivers/lvgl/src/widgets/bar/lv_bar.c ****     lv_bar_t * bar = (lv_bar_t *)obj;
 278:Drivers/lvgl/src/widgets/bar/lv_bar.c **** 
 279:Drivers/lvgl/src/widgets/bar/lv_bar.c ****     return bar->mode;
 280:Drivers/lvgl/src/widgets/bar/lv_bar.c **** }
 281:Drivers/lvgl/src/widgets/bar/lv_bar.c **** 
 282:Drivers/lvgl/src/widgets/bar/lv_bar.c **** lv_bar_orientation_t lv_bar_get_orientation(lv_obj_t * obj)
 283:Drivers/lvgl/src/widgets/bar/lv_bar.c **** {
 284:Drivers/lvgl/src/widgets/bar/lv_bar.c ****     LV_ASSERT_OBJ(obj, MY_CLASS);
 285:Drivers/lvgl/src/widgets/bar/lv_bar.c ****     lv_bar_t * bar = (lv_bar_t *)obj;
 286:Drivers/lvgl/src/widgets/bar/lv_bar.c **** 
 287:Drivers/lvgl/src/widgets/bar/lv_bar.c ****     return bar->orientation;
 288:Drivers/lvgl/src/widgets/bar/lv_bar.c **** }
 289:Drivers/lvgl/src/widgets/bar/lv_bar.c **** 
 290:Drivers/lvgl/src/widgets/bar/lv_bar.c **** bool lv_bar_is_symmetrical(lv_obj_t * obj)
 291:Drivers/lvgl/src/widgets/bar/lv_bar.c **** {
 292:Drivers/lvgl/src/widgets/bar/lv_bar.c ****     LV_ASSERT_OBJ(obj, MY_CLASS);
 293:Drivers/lvgl/src/widgets/bar/lv_bar.c ****     lv_bar_t * bar = (lv_bar_t *)obj;
 294:Drivers/lvgl/src/widgets/bar/lv_bar.c **** 
 295:Drivers/lvgl/src/widgets/bar/lv_bar.c ****     return  bar->mode == LV_BAR_MODE_SYMMETRICAL && bar->min_value < 0 && bar->max_value > 0 &&
 296:Drivers/lvgl/src/widgets/bar/lv_bar.c ****             bar->start_value == bar->min_value;
 297:Drivers/lvgl/src/widgets/bar/lv_bar.c **** }
 298:Drivers/lvgl/src/widgets/bar/lv_bar.c **** 
 299:Drivers/lvgl/src/widgets/bar/lv_bar.c **** #if LV_USE_OBSERVER
 300:Drivers/lvgl/src/widgets/bar/lv_bar.c **** lv_observer_t * lv_bar_bind_value(lv_obj_t * obj, lv_subject_t * subject)
 301:Drivers/lvgl/src/widgets/bar/lv_bar.c **** {
 302:Drivers/lvgl/src/widgets/bar/lv_bar.c ****     LV_ASSERT_NULL(subject);
 303:Drivers/lvgl/src/widgets/bar/lv_bar.c ****     LV_ASSERT_NULL(obj);
 304:Drivers/lvgl/src/widgets/bar/lv_bar.c **** 
 305:Drivers/lvgl/src/widgets/bar/lv_bar.c ****     if(subject->type != LV_SUBJECT_TYPE_INT && subject->type != LV_SUBJECT_TYPE_FLOAT) {
 306:Drivers/lvgl/src/widgets/bar/lv_bar.c ****         LV_LOG_WARN("Incompatible subject type: %d", subject->type);
 307:Drivers/lvgl/src/widgets/bar/lv_bar.c ****         return NULL;
 308:Drivers/lvgl/src/widgets/bar/lv_bar.c ****     }
 309:Drivers/lvgl/src/widgets/bar/lv_bar.c **** 
 310:Drivers/lvgl/src/widgets/bar/lv_bar.c ****     lv_observer_t * observer = lv_subject_add_observer_obj(subject, bar_value_observer_cb, obj, NUL
 311:Drivers/lvgl/src/widgets/bar/lv_bar.c ****     return observer;
 312:Drivers/lvgl/src/widgets/bar/lv_bar.c **** }
 313:Drivers/lvgl/src/widgets/bar/lv_bar.c **** #endif /*LV_USE_OBSERVER*/
 314:Drivers/lvgl/src/widgets/bar/lv_bar.c **** 
 315:Drivers/lvgl/src/widgets/bar/lv_bar.c **** /**********************
ARM GAS  /var/folders/qx/2_175_4n2s19vhvtspjhb3qh0000gn/T//cchuAKlx.s 			page 7


 316:Drivers/lvgl/src/widgets/bar/lv_bar.c ****  *   STATIC FUNCTIONS
 317:Drivers/lvgl/src/widgets/bar/lv_bar.c ****  **********************/
 318:Drivers/lvgl/src/widgets/bar/lv_bar.c **** 
 319:Drivers/lvgl/src/widgets/bar/lv_bar.c **** static void lv_bar_constructor(const lv_obj_class_t * class_p, lv_obj_t * obj)
 320:Drivers/lvgl/src/widgets/bar/lv_bar.c **** {
 321:Drivers/lvgl/src/widgets/bar/lv_bar.c ****     LV_UNUSED(class_p);
 322:Drivers/lvgl/src/widgets/bar/lv_bar.c ****     LV_TRACE_OBJ_CREATE("begin");
 323:Drivers/lvgl/src/widgets/bar/lv_bar.c **** 
 324:Drivers/lvgl/src/widgets/bar/lv_bar.c ****     lv_bar_t * bar = (lv_bar_t *)obj;
 325:Drivers/lvgl/src/widgets/bar/lv_bar.c ****     bar->min_value = 0;
 326:Drivers/lvgl/src/widgets/bar/lv_bar.c ****     bar->max_value = 100;
 327:Drivers/lvgl/src/widgets/bar/lv_bar.c ****     bar->start_value = 0;
 328:Drivers/lvgl/src/widgets/bar/lv_bar.c ****     bar->cur_value = 0;
 329:Drivers/lvgl/src/widgets/bar/lv_bar.c ****     bar->indic_area.x1 = 0;
 330:Drivers/lvgl/src/widgets/bar/lv_bar.c ****     bar->indic_area.x2 = 0;
 331:Drivers/lvgl/src/widgets/bar/lv_bar.c ****     bar->indic_area.y1 = 0;
 332:Drivers/lvgl/src/widgets/bar/lv_bar.c ****     bar->indic_area.y2 = 0;
 333:Drivers/lvgl/src/widgets/bar/lv_bar.c ****     bar->mode = LV_BAR_MODE_NORMAL;
 334:Drivers/lvgl/src/widgets/bar/lv_bar.c ****     bar->orientation = LV_BAR_ORIENTATION_AUTO;
 335:Drivers/lvgl/src/widgets/bar/lv_bar.c ****     bar->val_reversed = false;
 336:Drivers/lvgl/src/widgets/bar/lv_bar.c **** 
 337:Drivers/lvgl/src/widgets/bar/lv_bar.c ****     lv_bar_init_anim(obj, &bar->cur_value_anim);
 338:Drivers/lvgl/src/widgets/bar/lv_bar.c ****     lv_bar_init_anim(obj, &bar->start_value_anim);
 339:Drivers/lvgl/src/widgets/bar/lv_bar.c **** 
 340:Drivers/lvgl/src/widgets/bar/lv_bar.c ****     lv_obj_remove_flag(obj, LV_OBJ_FLAG_CHECKABLE);
 341:Drivers/lvgl/src/widgets/bar/lv_bar.c ****     lv_obj_remove_flag(obj, LV_OBJ_FLAG_SCROLLABLE);
 342:Drivers/lvgl/src/widgets/bar/lv_bar.c ****     lv_bar_set_value(obj, 0, LV_ANIM_OFF);
 343:Drivers/lvgl/src/widgets/bar/lv_bar.c **** 
 344:Drivers/lvgl/src/widgets/bar/lv_bar.c ****     LV_TRACE_OBJ_CREATE("finished");
 345:Drivers/lvgl/src/widgets/bar/lv_bar.c **** }
 346:Drivers/lvgl/src/widgets/bar/lv_bar.c **** 
 347:Drivers/lvgl/src/widgets/bar/lv_bar.c **** static void lv_bar_destructor(const lv_obj_class_t * class_p, lv_obj_t * obj)
 348:Drivers/lvgl/src/widgets/bar/lv_bar.c **** {
 349:Drivers/lvgl/src/widgets/bar/lv_bar.c ****     LV_UNUSED(class_p);
 350:Drivers/lvgl/src/widgets/bar/lv_bar.c ****     lv_bar_t * bar = (lv_bar_t *)obj;
 351:Drivers/lvgl/src/widgets/bar/lv_bar.c **** 
 352:Drivers/lvgl/src/widgets/bar/lv_bar.c ****     lv_anim_delete(&bar->cur_value_anim, NULL);
 353:Drivers/lvgl/src/widgets/bar/lv_bar.c ****     lv_anim_delete(&bar->start_value_anim, NULL);
 354:Drivers/lvgl/src/widgets/bar/lv_bar.c **** }
 355:Drivers/lvgl/src/widgets/bar/lv_bar.c **** 
 356:Drivers/lvgl/src/widgets/bar/lv_bar.c **** static void draw_indic(lv_event_t * e)
 357:Drivers/lvgl/src/widgets/bar/lv_bar.c **** {
 358:Drivers/lvgl/src/widgets/bar/lv_bar.c ****     lv_obj_t * obj = lv_event_get_current_target(e);
 359:Drivers/lvgl/src/widgets/bar/lv_bar.c ****     lv_bar_t * bar = (lv_bar_t *)obj;
 360:Drivers/lvgl/src/widgets/bar/lv_bar.c **** 
 361:Drivers/lvgl/src/widgets/bar/lv_bar.c ****     lv_layer_t * layer = lv_event_get_layer(e);
 362:Drivers/lvgl/src/widgets/bar/lv_bar.c **** 
 363:Drivers/lvgl/src/widgets/bar/lv_bar.c ****     lv_area_t bar_coords;
 364:Drivers/lvgl/src/widgets/bar/lv_bar.c ****     lv_obj_get_coords(obj, &bar_coords);
 365:Drivers/lvgl/src/widgets/bar/lv_bar.c **** 
 366:Drivers/lvgl/src/widgets/bar/lv_bar.c ****     int32_t transf_w = lv_obj_get_style_transform_width(obj, LV_PART_MAIN);
 367:Drivers/lvgl/src/widgets/bar/lv_bar.c ****     int32_t transf_h = lv_obj_get_style_transform_height(obj, LV_PART_MAIN);
 368:Drivers/lvgl/src/widgets/bar/lv_bar.c ****     lv_area_increase(&bar_coords, transf_w, transf_h);
 369:Drivers/lvgl/src/widgets/bar/lv_bar.c ****     int32_t barw = lv_area_get_width(&bar_coords);
 370:Drivers/lvgl/src/widgets/bar/lv_bar.c ****     int32_t barh = lv_area_get_height(&bar_coords);
 371:Drivers/lvgl/src/widgets/bar/lv_bar.c ****     int32_t range = bar->max_value - bar->min_value;
 372:Drivers/lvgl/src/widgets/bar/lv_bar.c **** 
ARM GAS  /var/folders/qx/2_175_4n2s19vhvtspjhb3qh0000gn/T//cchuAKlx.s 			page 8


 373:Drivers/lvgl/src/widgets/bar/lv_bar.c ****     /*Prevent division by 0*/
 374:Drivers/lvgl/src/widgets/bar/lv_bar.c ****     if(range == 0) {
 375:Drivers/lvgl/src/widgets/bar/lv_bar.c ****         range = 1;
 376:Drivers/lvgl/src/widgets/bar/lv_bar.c ****     }
 377:Drivers/lvgl/src/widgets/bar/lv_bar.c **** 
 378:Drivers/lvgl/src/widgets/bar/lv_bar.c ****     bool hor = false;
 379:Drivers/lvgl/src/widgets/bar/lv_bar.c ****     switch(bar->orientation) {
 380:Drivers/lvgl/src/widgets/bar/lv_bar.c ****         case LV_BAR_ORIENTATION_HORIZONTAL:
 381:Drivers/lvgl/src/widgets/bar/lv_bar.c ****             hor = true;
 382:Drivers/lvgl/src/widgets/bar/lv_bar.c ****             break;
 383:Drivers/lvgl/src/widgets/bar/lv_bar.c ****         case LV_BAR_ORIENTATION_VERTICAL:
 384:Drivers/lvgl/src/widgets/bar/lv_bar.c ****             hor = false;
 385:Drivers/lvgl/src/widgets/bar/lv_bar.c ****             break;
 386:Drivers/lvgl/src/widgets/bar/lv_bar.c ****         case LV_BAR_ORIENTATION_AUTO:
 387:Drivers/lvgl/src/widgets/bar/lv_bar.c ****         default:
 388:Drivers/lvgl/src/widgets/bar/lv_bar.c ****             hor = (barw >= barh);
 389:Drivers/lvgl/src/widgets/bar/lv_bar.c ****             break;
 390:Drivers/lvgl/src/widgets/bar/lv_bar.c ****     }
 391:Drivers/lvgl/src/widgets/bar/lv_bar.c **** 
 392:Drivers/lvgl/src/widgets/bar/lv_bar.c ****     bool sym = lv_bar_is_symmetrical(obj);
 393:Drivers/lvgl/src/widgets/bar/lv_bar.c **** 
 394:Drivers/lvgl/src/widgets/bar/lv_bar.c ****     /*Calculate the indicator area*/
 395:Drivers/lvgl/src/widgets/bar/lv_bar.c ****     int32_t bg_left = lv_obj_get_style_pad_left(obj,     LV_PART_MAIN);
 396:Drivers/lvgl/src/widgets/bar/lv_bar.c ****     int32_t bg_right = lv_obj_get_style_pad_right(obj,   LV_PART_MAIN);
 397:Drivers/lvgl/src/widgets/bar/lv_bar.c ****     int32_t bg_top = lv_obj_get_style_pad_top(obj,       LV_PART_MAIN);
 398:Drivers/lvgl/src/widgets/bar/lv_bar.c ****     int32_t bg_bottom = lv_obj_get_style_pad_bottom(obj, LV_PART_MAIN);
 399:Drivers/lvgl/src/widgets/bar/lv_bar.c **** 
 400:Drivers/lvgl/src/widgets/bar/lv_bar.c ****     /*Respect padding and minimum width/height too*/
 401:Drivers/lvgl/src/widgets/bar/lv_bar.c ****     lv_area_copy(&bar->indic_area, &bar_coords);
 402:Drivers/lvgl/src/widgets/bar/lv_bar.c ****     bar->indic_area.x1 += bg_left;
 403:Drivers/lvgl/src/widgets/bar/lv_bar.c ****     bar->indic_area.x2 -= bg_right;
 404:Drivers/lvgl/src/widgets/bar/lv_bar.c ****     bar->indic_area.y1 += bg_top;
 405:Drivers/lvgl/src/widgets/bar/lv_bar.c ****     bar->indic_area.y2 -= bg_bottom;
 406:Drivers/lvgl/src/widgets/bar/lv_bar.c **** 
 407:Drivers/lvgl/src/widgets/bar/lv_bar.c ****     if(hor && lv_area_get_height(&bar->indic_area) < LV_BAR_SIZE_MIN) {
 408:Drivers/lvgl/src/widgets/bar/lv_bar.c ****         bar->indic_area.y1 = obj->coords.y1 + (barh / 2) - (LV_BAR_SIZE_MIN / 2);
 409:Drivers/lvgl/src/widgets/bar/lv_bar.c ****         bar->indic_area.y2 = bar->indic_area.y1 + LV_BAR_SIZE_MIN;
 410:Drivers/lvgl/src/widgets/bar/lv_bar.c ****     }
 411:Drivers/lvgl/src/widgets/bar/lv_bar.c ****     else if(!hor && lv_area_get_width(&bar->indic_area) < LV_BAR_SIZE_MIN) {
 412:Drivers/lvgl/src/widgets/bar/lv_bar.c ****         bar->indic_area.x1 = obj->coords.x1 + (barw / 2) - (LV_BAR_SIZE_MIN / 2);
 413:Drivers/lvgl/src/widgets/bar/lv_bar.c ****         bar->indic_area.x2 = bar->indic_area.x1 + LV_BAR_SIZE_MIN;
 414:Drivers/lvgl/src/widgets/bar/lv_bar.c ****     }
 415:Drivers/lvgl/src/widgets/bar/lv_bar.c ****     int32_t indic_max_w = lv_area_get_width(&bar->indic_area);
 416:Drivers/lvgl/src/widgets/bar/lv_bar.c ****     int32_t indic_max_h = lv_area_get_height(&bar->indic_area);
 417:Drivers/lvgl/src/widgets/bar/lv_bar.c **** 
 418:Drivers/lvgl/src/widgets/bar/lv_bar.c ****     /*Calculate the indicator length*/
 419:Drivers/lvgl/src/widgets/bar/lv_bar.c ****     int32_t anim_length = hor ? indic_max_w : indic_max_h;
 420:Drivers/lvgl/src/widgets/bar/lv_bar.c **** 
 421:Drivers/lvgl/src/widgets/bar/lv_bar.c ****     int32_t anim_cur_value_x, anim_start_value_x;
 422:Drivers/lvgl/src/widgets/bar/lv_bar.c **** 
 423:Drivers/lvgl/src/widgets/bar/lv_bar.c ****     int32_t * axis1, * axis2;
 424:Drivers/lvgl/src/widgets/bar/lv_bar.c ****     int32_t (*indic_length_calc)(const lv_area_t * area);
 425:Drivers/lvgl/src/widgets/bar/lv_bar.c **** 
 426:Drivers/lvgl/src/widgets/bar/lv_bar.c ****     if(hor) {
 427:Drivers/lvgl/src/widgets/bar/lv_bar.c ****         axis1 = &bar->indic_area.x1;
 428:Drivers/lvgl/src/widgets/bar/lv_bar.c ****         axis2 = &bar->indic_area.x2;
 429:Drivers/lvgl/src/widgets/bar/lv_bar.c ****         indic_length_calc = lv_area_get_width;
ARM GAS  /var/folders/qx/2_175_4n2s19vhvtspjhb3qh0000gn/T//cchuAKlx.s 			page 9


 430:Drivers/lvgl/src/widgets/bar/lv_bar.c ****     }
 431:Drivers/lvgl/src/widgets/bar/lv_bar.c ****     else {
 432:Drivers/lvgl/src/widgets/bar/lv_bar.c ****         axis1 = &bar->indic_area.y1;
 433:Drivers/lvgl/src/widgets/bar/lv_bar.c ****         axis2 = &bar->indic_area.y2;
 434:Drivers/lvgl/src/widgets/bar/lv_bar.c ****         indic_length_calc = lv_area_get_height;
 435:Drivers/lvgl/src/widgets/bar/lv_bar.c ****     }
 436:Drivers/lvgl/src/widgets/bar/lv_bar.c **** 
 437:Drivers/lvgl/src/widgets/bar/lv_bar.c ****     if(LV_BAR_IS_ANIMATING(bar->start_value_anim)) {
 438:Drivers/lvgl/src/widgets/bar/lv_bar.c ****         int32_t anim_start_value_start_x =
 439:Drivers/lvgl/src/widgets/bar/lv_bar.c ****             (int32_t)((int32_t)anim_length * (bar->start_value_anim.anim_start - bar->min_value)) /
 440:Drivers/lvgl/src/widgets/bar/lv_bar.c ****         int32_t anim_start_value_end_x =
 441:Drivers/lvgl/src/widgets/bar/lv_bar.c ****             (int32_t)((int32_t)anim_length * (bar->start_value_anim.anim_end - bar->min_value)) / r
 442:Drivers/lvgl/src/widgets/bar/lv_bar.c **** 
 443:Drivers/lvgl/src/widgets/bar/lv_bar.c ****         anim_start_value_x = (((anim_start_value_end_x - anim_start_value_start_x) * bar->start_val
 444:Drivers/lvgl/src/widgets/bar/lv_bar.c ****                               LV_BAR_ANIM_STATE_END);
 445:Drivers/lvgl/src/widgets/bar/lv_bar.c **** 
 446:Drivers/lvgl/src/widgets/bar/lv_bar.c ****         anim_start_value_x += anim_start_value_start_x;
 447:Drivers/lvgl/src/widgets/bar/lv_bar.c ****     }
 448:Drivers/lvgl/src/widgets/bar/lv_bar.c ****     else {
 449:Drivers/lvgl/src/widgets/bar/lv_bar.c ****         anim_start_value_x = (int32_t)((int32_t)anim_length * (bar->start_value - bar->min_value)) 
 450:Drivers/lvgl/src/widgets/bar/lv_bar.c ****     }
 451:Drivers/lvgl/src/widgets/bar/lv_bar.c **** 
 452:Drivers/lvgl/src/widgets/bar/lv_bar.c ****     if(LV_BAR_IS_ANIMATING(bar->cur_value_anim)) {
 453:Drivers/lvgl/src/widgets/bar/lv_bar.c ****         int32_t anim_cur_value_start_x =
 454:Drivers/lvgl/src/widgets/bar/lv_bar.c ****             (int32_t)((int32_t)anim_length * (bar->cur_value_anim.anim_start - bar->min_value)) / r
 455:Drivers/lvgl/src/widgets/bar/lv_bar.c ****         int32_t anim_cur_value_end_x =
 456:Drivers/lvgl/src/widgets/bar/lv_bar.c ****             (int32_t)((int32_t)anim_length * (bar->cur_value_anim.anim_end - bar->min_value)) / ran
 457:Drivers/lvgl/src/widgets/bar/lv_bar.c **** 
 458:Drivers/lvgl/src/widgets/bar/lv_bar.c ****         anim_cur_value_x = anim_cur_value_start_x + (((anim_cur_value_end_x - anim_cur_value_start_
 459:Drivers/lvgl/src/widgets/bar/lv_bar.c ****                                                       bar->cur_value_anim.anim_state) /
 460:Drivers/lvgl/src/widgets/bar/lv_bar.c ****                                                      LV_BAR_ANIM_STATE_END);
 461:Drivers/lvgl/src/widgets/bar/lv_bar.c ****     }
 462:Drivers/lvgl/src/widgets/bar/lv_bar.c ****     else {
 463:Drivers/lvgl/src/widgets/bar/lv_bar.c ****         anim_cur_value_x = (int32_t)((int32_t)anim_length * (bar->cur_value - bar->min_value)) / ra
 464:Drivers/lvgl/src/widgets/bar/lv_bar.c ****     }
 465:Drivers/lvgl/src/widgets/bar/lv_bar.c **** 
 466:Drivers/lvgl/src/widgets/bar/lv_bar.c ****     /**
 467:Drivers/lvgl/src/widgets/bar/lv_bar.c ****      * The drawing direction of the bar can be reversed only when one of the two conditions(value i
 468:Drivers/lvgl/src/widgets/bar/lv_bar.c ****      * or horizontal direction base dir is LV_BASE_DIR_RTL) is met.
 469:Drivers/lvgl/src/widgets/bar/lv_bar.c ****     */
 470:Drivers/lvgl/src/widgets/bar/lv_bar.c ****     lv_base_dir_t base_dir = lv_obj_get_style_base_dir(obj, LV_PART_MAIN);
 471:Drivers/lvgl/src/widgets/bar/lv_bar.c ****     bool hor_need_reversed = hor && base_dir == LV_BASE_DIR_RTL;
 472:Drivers/lvgl/src/widgets/bar/lv_bar.c ****     bool reversed = bar->val_reversed ^ hor_need_reversed;
 473:Drivers/lvgl/src/widgets/bar/lv_bar.c **** 
 474:Drivers/lvgl/src/widgets/bar/lv_bar.c ****     /* An area with width 0 is {x1 = 0 x2 = -1} so subtracting 1 from `anim_cur_value_x` causes...
 475:Drivers/lvgl/src/widgets/bar/lv_bar.c ****      *     anim_start_value_x = 0   anim_cur_value_x = 0   to be {x1 = 0 x2 = -1  } which is width 
 476:Drivers/lvgl/src/widgets/bar/lv_bar.c ****      *     anim_start_value_x = 0   anim_cur_value_x = 300 to be {x1 = 0 x2 =  299} which is width 
 477:Drivers/lvgl/src/widgets/bar/lv_bar.c ****      */
 478:Drivers/lvgl/src/widgets/bar/lv_bar.c ****     anim_cur_value_x -= 1;
 479:Drivers/lvgl/src/widgets/bar/lv_bar.c **** 
 480:Drivers/lvgl/src/widgets/bar/lv_bar.c ****     if(reversed) {
 481:Drivers/lvgl/src/widgets/bar/lv_bar.c ****         /*Swap axes*/
 482:Drivers/lvgl/src/widgets/bar/lv_bar.c ****         int32_t * tmp;
 483:Drivers/lvgl/src/widgets/bar/lv_bar.c ****         tmp = axis1;
 484:Drivers/lvgl/src/widgets/bar/lv_bar.c ****         axis1 = axis2;
 485:Drivers/lvgl/src/widgets/bar/lv_bar.c ****         axis2 = tmp;
 486:Drivers/lvgl/src/widgets/bar/lv_bar.c ****         anim_cur_value_x = -anim_cur_value_x;
ARM GAS  /var/folders/qx/2_175_4n2s19vhvtspjhb3qh0000gn/T//cchuAKlx.s 			page 10


 487:Drivers/lvgl/src/widgets/bar/lv_bar.c ****         anim_start_value_x = -anim_start_value_x;
 488:Drivers/lvgl/src/widgets/bar/lv_bar.c ****     }
 489:Drivers/lvgl/src/widgets/bar/lv_bar.c **** 
 490:Drivers/lvgl/src/widgets/bar/lv_bar.c ****     /*Set the indicator length*/
 491:Drivers/lvgl/src/widgets/bar/lv_bar.c ****     if(hor) {
 492:Drivers/lvgl/src/widgets/bar/lv_bar.c ****         *axis2 = *axis1 + anim_cur_value_x;
 493:Drivers/lvgl/src/widgets/bar/lv_bar.c ****         *axis1 += anim_start_value_x;
 494:Drivers/lvgl/src/widgets/bar/lv_bar.c ****     }
 495:Drivers/lvgl/src/widgets/bar/lv_bar.c ****     else {
 496:Drivers/lvgl/src/widgets/bar/lv_bar.c ****         *axis1 = *axis2 - anim_cur_value_x;
 497:Drivers/lvgl/src/widgets/bar/lv_bar.c ****         *axis2 -= anim_start_value_x;
 498:Drivers/lvgl/src/widgets/bar/lv_bar.c ****     }
 499:Drivers/lvgl/src/widgets/bar/lv_bar.c **** 
 500:Drivers/lvgl/src/widgets/bar/lv_bar.c ****     if(sym) {
 501:Drivers/lvgl/src/widgets/bar/lv_bar.c ****         int32_t zero, shift;
 502:Drivers/lvgl/src/widgets/bar/lv_bar.c ****         shift = (-bar->min_value * anim_length) / range;
 503:Drivers/lvgl/src/widgets/bar/lv_bar.c **** 
 504:Drivers/lvgl/src/widgets/bar/lv_bar.c ****         if(hor) {
 505:Drivers/lvgl/src/widgets/bar/lv_bar.c ****             int32_t * left = reversed ? axis2 : axis1;
 506:Drivers/lvgl/src/widgets/bar/lv_bar.c ****             int32_t * right = reversed ? axis1 : axis2;
 507:Drivers/lvgl/src/widgets/bar/lv_bar.c ****             if(reversed)
 508:Drivers/lvgl/src/widgets/bar/lv_bar.c ****                 zero = *axis1 - shift + 1;
 509:Drivers/lvgl/src/widgets/bar/lv_bar.c ****             else
 510:Drivers/lvgl/src/widgets/bar/lv_bar.c ****                 zero = *axis1 + shift;
 511:Drivers/lvgl/src/widgets/bar/lv_bar.c **** 
 512:Drivers/lvgl/src/widgets/bar/lv_bar.c ****             if(*axis2 > zero) {
 513:Drivers/lvgl/src/widgets/bar/lv_bar.c ****                 *right = *axis2;
 514:Drivers/lvgl/src/widgets/bar/lv_bar.c ****                 *left = zero;
 515:Drivers/lvgl/src/widgets/bar/lv_bar.c ****             }
 516:Drivers/lvgl/src/widgets/bar/lv_bar.c ****             else {
 517:Drivers/lvgl/src/widgets/bar/lv_bar.c ****                 *left = *axis2;
 518:Drivers/lvgl/src/widgets/bar/lv_bar.c ****                 *right = zero;
 519:Drivers/lvgl/src/widgets/bar/lv_bar.c ****             }
 520:Drivers/lvgl/src/widgets/bar/lv_bar.c ****         }
 521:Drivers/lvgl/src/widgets/bar/lv_bar.c ****         else {
 522:Drivers/lvgl/src/widgets/bar/lv_bar.c ****             int32_t * top = reversed ? axis2 : axis1;
 523:Drivers/lvgl/src/widgets/bar/lv_bar.c ****             int32_t * bottom = reversed ? axis1 : axis2;
 524:Drivers/lvgl/src/widgets/bar/lv_bar.c ****             if(reversed)
 525:Drivers/lvgl/src/widgets/bar/lv_bar.c ****                 zero = *axis2 + shift;
 526:Drivers/lvgl/src/widgets/bar/lv_bar.c ****             else
 527:Drivers/lvgl/src/widgets/bar/lv_bar.c ****                 zero = *axis2 - shift + 1;
 528:Drivers/lvgl/src/widgets/bar/lv_bar.c **** 
 529:Drivers/lvgl/src/widgets/bar/lv_bar.c ****             if(*axis1 > zero) {
 530:Drivers/lvgl/src/widgets/bar/lv_bar.c ****                 *bottom = *axis1;
 531:Drivers/lvgl/src/widgets/bar/lv_bar.c ****                 *top = zero;
 532:Drivers/lvgl/src/widgets/bar/lv_bar.c ****             }
 533:Drivers/lvgl/src/widgets/bar/lv_bar.c ****             else {
 534:Drivers/lvgl/src/widgets/bar/lv_bar.c ****                 *top = *axis1;
 535:Drivers/lvgl/src/widgets/bar/lv_bar.c ****                 *bottom = zero;
 536:Drivers/lvgl/src/widgets/bar/lv_bar.c ****             }
 537:Drivers/lvgl/src/widgets/bar/lv_bar.c ****         }
 538:Drivers/lvgl/src/widgets/bar/lv_bar.c ****     }
 539:Drivers/lvgl/src/widgets/bar/lv_bar.c **** 
 540:Drivers/lvgl/src/widgets/bar/lv_bar.c ****     /*Do not draw a zero length indicator but at least call the draw task event*/
 541:Drivers/lvgl/src/widgets/bar/lv_bar.c ****     if(!sym && indic_length_calc(&bar->indic_area) <= 1) {
 542:Drivers/lvgl/src/widgets/bar/lv_bar.c ****         lv_obj_send_event(obj, LV_EVENT_DRAW_TASK_ADDED, NULL);
 543:Drivers/lvgl/src/widgets/bar/lv_bar.c ****         return;
ARM GAS  /var/folders/qx/2_175_4n2s19vhvtspjhb3qh0000gn/T//cchuAKlx.s 			page 11


 544:Drivers/lvgl/src/widgets/bar/lv_bar.c ****     }
 545:Drivers/lvgl/src/widgets/bar/lv_bar.c **** 
 546:Drivers/lvgl/src/widgets/bar/lv_bar.c ****     lv_area_t indic_area;
 547:Drivers/lvgl/src/widgets/bar/lv_bar.c ****     lv_area_copy(&indic_area, &bar->indic_area);
 548:Drivers/lvgl/src/widgets/bar/lv_bar.c **** 
 549:Drivers/lvgl/src/widgets/bar/lv_bar.c ****     lv_draw_rect_dsc_t draw_rect_dsc;
 550:Drivers/lvgl/src/widgets/bar/lv_bar.c ****     lv_draw_rect_dsc_init(&draw_rect_dsc);
 551:Drivers/lvgl/src/widgets/bar/lv_bar.c ****     draw_rect_dsc.base.layer = layer;
 552:Drivers/lvgl/src/widgets/bar/lv_bar.c ****     lv_obj_init_draw_rect_dsc(obj, LV_PART_INDICATOR, &draw_rect_dsc);
 553:Drivers/lvgl/src/widgets/bar/lv_bar.c **** 
 554:Drivers/lvgl/src/widgets/bar/lv_bar.c **** 
 555:Drivers/lvgl/src/widgets/bar/lv_bar.c ****     int32_t bg_radius = lv_obj_get_style_radius(obj, LV_PART_MAIN);
 556:Drivers/lvgl/src/widgets/bar/lv_bar.c ****     int32_t short_side = LV_MIN(barw, barh);
 557:Drivers/lvgl/src/widgets/bar/lv_bar.c ****     if(bg_radius > short_side >> 1) bg_radius = short_side >> 1;
 558:Drivers/lvgl/src/widgets/bar/lv_bar.c **** 
 559:Drivers/lvgl/src/widgets/bar/lv_bar.c ****     bool backdrop_blur = lv_obj_get_style_blur_backdrop(obj, LV_PART_INDICATOR);
 560:Drivers/lvgl/src/widgets/bar/lv_bar.c ****     lv_draw_blur_dsc_t draw_blur_dsc;
 561:Drivers/lvgl/src/widgets/bar/lv_bar.c ****     lv_draw_blur_dsc_init(&draw_blur_dsc);
 562:Drivers/lvgl/src/widgets/bar/lv_bar.c ****     draw_blur_dsc.corner_radius = draw_rect_dsc.radius;
 563:Drivers/lvgl/src/widgets/bar/lv_bar.c ****     lv_obj_init_draw_blur_dsc(obj, LV_PART_INDICATOR, &draw_blur_dsc);
 564:Drivers/lvgl/src/widgets/bar/lv_bar.c ****     if(backdrop_blur) lv_draw_blur(layer, &draw_blur_dsc, &indic_area);
 565:Drivers/lvgl/src/widgets/bar/lv_bar.c **** 
 566:Drivers/lvgl/src/widgets/bar/lv_bar.c ****     int32_t indic_radius = draw_rect_dsc.radius;
 567:Drivers/lvgl/src/widgets/bar/lv_bar.c ****     short_side = LV_MIN(lv_area_get_width(&bar->indic_area), lv_area_get_height(&bar->indic_area));
 568:Drivers/lvgl/src/widgets/bar/lv_bar.c ****     if(indic_radius > short_side >> 1) indic_radius = short_side >> 1;
 569:Drivers/lvgl/src/widgets/bar/lv_bar.c **** 
 570:Drivers/lvgl/src/widgets/bar/lv_bar.c ****     /*Cases:
 571:Drivers/lvgl/src/widgets/bar/lv_bar.c ****      * Simple:
 572:Drivers/lvgl/src/widgets/bar/lv_bar.c ****      *   - indicator area is the same or smaller then the bg
 573:Drivers/lvgl/src/widgets/bar/lv_bar.c ****      *   - indicator has the same or larger radius than the bg
 574:Drivers/lvgl/src/widgets/bar/lv_bar.c ****      *   - what to do? just draw the indicator
 575:Drivers/lvgl/src/widgets/bar/lv_bar.c ****      * Radius issue:
 576:Drivers/lvgl/src/widgets/bar/lv_bar.c ****      *   - indicator area is the same or smaller then bg
 577:Drivers/lvgl/src/widgets/bar/lv_bar.c ****      *   - indicator has smaller radius than the bg and the indicator overflows on the corners
 578:Drivers/lvgl/src/widgets/bar/lv_bar.c ****      *   - what to do? draw the indicator on a layer and clip to bg radius
 579:Drivers/lvgl/src/widgets/bar/lv_bar.c ****      * Larger indicator:
 580:Drivers/lvgl/src/widgets/bar/lv_bar.c ****      *   - indicator area is the larger then the bg
 581:Drivers/lvgl/src/widgets/bar/lv_bar.c ****      *   - radius doesn't matter
 582:Drivers/lvgl/src/widgets/bar/lv_bar.c ****      *   - shadow doesn't matter
 583:Drivers/lvgl/src/widgets/bar/lv_bar.c ****      *   - what to do? just draw the indicator
 584:Drivers/lvgl/src/widgets/bar/lv_bar.c ****      * Shadow:
 585:Drivers/lvgl/src/widgets/bar/lv_bar.c ****      *   - indicator area is the same or smaller then the bg
 586:Drivers/lvgl/src/widgets/bar/lv_bar.c ****      *   - indicator has the same or larger radius than the bg (shadow needs to be drawn on strange
 587:Drivers/lvgl/src/widgets/bar/lv_bar.c ****      *   - what to do? don't draw the shadow if the indicator is too small has strange shape
 588:Drivers/lvgl/src/widgets/bar/lv_bar.c ****      * Gradient:
 589:Drivers/lvgl/src/widgets/bar/lv_bar.c ****      *   - the indicator has a gradient
 590:Drivers/lvgl/src/widgets/bar/lv_bar.c ****      *   - what to do? draw it on a bg sized layer clip the indicator are from the gradient
 591:Drivers/lvgl/src/widgets/bar/lv_bar.c ****      *
 592:Drivers/lvgl/src/widgets/bar/lv_bar.c ****      */
 593:Drivers/lvgl/src/widgets/bar/lv_bar.c **** 
 594:Drivers/lvgl/src/widgets/bar/lv_bar.c ****     bool mask_needed = false;
 595:Drivers/lvgl/src/widgets/bar/lv_bar.c ****     if(hor && draw_rect_dsc.bg_grad.dir == LV_GRAD_DIR_HOR) mask_needed = true;
 596:Drivers/lvgl/src/widgets/bar/lv_bar.c ****     else if(!hor && draw_rect_dsc.bg_grad.dir == LV_GRAD_DIR_VER) mask_needed = true;
 597:Drivers/lvgl/src/widgets/bar/lv_bar.c **** 
 598:Drivers/lvgl/src/widgets/bar/lv_bar.c ****     if(draw_rect_dsc.bg_image_src) mask_needed = true;
 599:Drivers/lvgl/src/widgets/bar/lv_bar.c **** 
 600:Drivers/lvgl/src/widgets/bar/lv_bar.c ****     bool radius_issue = true;
ARM GAS  /var/folders/qx/2_175_4n2s19vhvtspjhb3qh0000gn/T//cchuAKlx.s 			page 12


 601:Drivers/lvgl/src/widgets/bar/lv_bar.c ****     /*The indicator is fully drawn if it's larger than the bg*/
 602:Drivers/lvgl/src/widgets/bar/lv_bar.c ****     if((bg_left < 0 || bg_right < 0 || bg_top < 0 || bg_bottom < 0)) radius_issue = false;
 603:Drivers/lvgl/src/widgets/bar/lv_bar.c ****     else if(indic_radius >= bg_radius) radius_issue = false;
 604:Drivers/lvgl/src/widgets/bar/lv_bar.c ****     else if(lv_area_is_in(&indic_area, &bar_coords, bg_radius)) radius_issue = false;
 605:Drivers/lvgl/src/widgets/bar/lv_bar.c **** 
 606:Drivers/lvgl/src/widgets/bar/lv_bar.c ****     if(radius_issue || mask_needed) {
 607:Drivers/lvgl/src/widgets/bar/lv_bar.c ****         if(!radius_issue) {
 608:Drivers/lvgl/src/widgets/bar/lv_bar.c ****             /*Draw only the shadow*/
 609:Drivers/lvgl/src/widgets/bar/lv_bar.c ****             lv_draw_rect_dsc_t draw_rect_tmp_dsc = draw_rect_dsc;
 610:Drivers/lvgl/src/widgets/bar/lv_bar.c ****             draw_rect_tmp_dsc.border_opa = 0;
 611:Drivers/lvgl/src/widgets/bar/lv_bar.c ****             draw_rect_tmp_dsc.outline_opa = 0;
 612:Drivers/lvgl/src/widgets/bar/lv_bar.c ****             draw_rect_tmp_dsc.bg_opa = 0;
 613:Drivers/lvgl/src/widgets/bar/lv_bar.c ****             draw_rect_tmp_dsc.bg_image_opa = 0;
 614:Drivers/lvgl/src/widgets/bar/lv_bar.c ****             lv_draw_rect(layer, &draw_rect_tmp_dsc, &indic_area);
 615:Drivers/lvgl/src/widgets/bar/lv_bar.c ****         }
 616:Drivers/lvgl/src/widgets/bar/lv_bar.c ****         else {
 617:Drivers/lvgl/src/widgets/bar/lv_bar.c ****             draw_rect_dsc.border_opa = 0;
 618:Drivers/lvgl/src/widgets/bar/lv_bar.c ****             draw_rect_dsc.outline_opa = 0;
 619:Drivers/lvgl/src/widgets/bar/lv_bar.c ****         }
 620:Drivers/lvgl/src/widgets/bar/lv_bar.c ****         draw_rect_dsc.shadow_opa = 0;
 621:Drivers/lvgl/src/widgets/bar/lv_bar.c **** 
 622:Drivers/lvgl/src/widgets/bar/lv_bar.c ****         /*If clipped for any reason cannot the border, outline, and shadow
 623:Drivers/lvgl/src/widgets/bar/lv_bar.c ****          *as they would be clipped and looked ugly*/
 624:Drivers/lvgl/src/widgets/bar/lv_bar.c ****         lv_draw_rect_dsc_t draw_tmp_dsc = draw_rect_dsc;
 625:Drivers/lvgl/src/widgets/bar/lv_bar.c ****         draw_tmp_dsc.border_opa = 0;
 626:Drivers/lvgl/src/widgets/bar/lv_bar.c ****         draw_tmp_dsc.outline_opa = 0;
 627:Drivers/lvgl/src/widgets/bar/lv_bar.c ****         draw_tmp_dsc.shadow_opa = 0;
 628:Drivers/lvgl/src/widgets/bar/lv_bar.c ****         lv_area_t indic_draw_area = indic_area;
 629:Drivers/lvgl/src/widgets/bar/lv_bar.c ****         if(mask_needed) {
 630:Drivers/lvgl/src/widgets/bar/lv_bar.c ****             if(hor) {
 631:Drivers/lvgl/src/widgets/bar/lv_bar.c ****                 indic_draw_area.x1 = bar_coords.x1 + bg_left;
 632:Drivers/lvgl/src/widgets/bar/lv_bar.c ****                 indic_draw_area.x2 = bar_coords.x2 - bg_right;
 633:Drivers/lvgl/src/widgets/bar/lv_bar.c ****             }
 634:Drivers/lvgl/src/widgets/bar/lv_bar.c ****             else {
 635:Drivers/lvgl/src/widgets/bar/lv_bar.c ****                 indic_draw_area.y1 = bar_coords.y1 + bg_top;
 636:Drivers/lvgl/src/widgets/bar/lv_bar.c ****                 indic_draw_area.y2 = bar_coords.y2 - bg_bottom;
 637:Drivers/lvgl/src/widgets/bar/lv_bar.c ****             }
 638:Drivers/lvgl/src/widgets/bar/lv_bar.c ****             draw_tmp_dsc.radius = 0;
 639:Drivers/lvgl/src/widgets/bar/lv_bar.c ****         }
 640:Drivers/lvgl/src/widgets/bar/lv_bar.c **** 
 641:Drivers/lvgl/src/widgets/bar/lv_bar.c ****         lv_layer_t * layer_indic = lv_draw_layer_create(layer, LV_COLOR_FORMAT_ARGB8888, &indic_dra
 642:Drivers/lvgl/src/widgets/bar/lv_bar.c **** 
 643:Drivers/lvgl/src/widgets/bar/lv_bar.c ****         lv_draw_rect(layer_indic, &draw_tmp_dsc, &indic_draw_area);
 644:Drivers/lvgl/src/widgets/bar/lv_bar.c **** 
 645:Drivers/lvgl/src/widgets/bar/lv_bar.c ****         lv_draw_mask_rect_dsc_t mask_dsc;
 646:Drivers/lvgl/src/widgets/bar/lv_bar.c ****         lv_draw_mask_rect_dsc_init(&mask_dsc);
 647:Drivers/lvgl/src/widgets/bar/lv_bar.c ****         if(radius_issue) {
 648:Drivers/lvgl/src/widgets/bar/lv_bar.c ****             mask_dsc.area = bar_coords;
 649:Drivers/lvgl/src/widgets/bar/lv_bar.c ****             mask_dsc.radius = bg_radius;
 650:Drivers/lvgl/src/widgets/bar/lv_bar.c ****             lv_draw_mask_rect(layer_indic, &mask_dsc);
 651:Drivers/lvgl/src/widgets/bar/lv_bar.c ****         }
 652:Drivers/lvgl/src/widgets/bar/lv_bar.c **** 
 653:Drivers/lvgl/src/widgets/bar/lv_bar.c ****         if(mask_needed) {
 654:Drivers/lvgl/src/widgets/bar/lv_bar.c ****             mask_dsc.area = indic_area;
 655:Drivers/lvgl/src/widgets/bar/lv_bar.c ****             mask_dsc.radius = indic_radius;
 656:Drivers/lvgl/src/widgets/bar/lv_bar.c ****             lv_draw_mask_rect(layer_indic, &mask_dsc);
 657:Drivers/lvgl/src/widgets/bar/lv_bar.c ****         }
ARM GAS  /var/folders/qx/2_175_4n2s19vhvtspjhb3qh0000gn/T//cchuAKlx.s 			page 13


 658:Drivers/lvgl/src/widgets/bar/lv_bar.c **** 
 659:Drivers/lvgl/src/widgets/bar/lv_bar.c ****         lv_draw_image_dsc_t layer_draw_dsc;
 660:Drivers/lvgl/src/widgets/bar/lv_bar.c ****         lv_draw_image_dsc_init(&layer_draw_dsc);
 661:Drivers/lvgl/src/widgets/bar/lv_bar.c ****         layer_draw_dsc.src = layer_indic;
 662:Drivers/lvgl/src/widgets/bar/lv_bar.c ****         lv_draw_layer(layer, &layer_draw_dsc, &indic_draw_area);
 663:Drivers/lvgl/src/widgets/bar/lv_bar.c **** 
 664:Drivers/lvgl/src/widgets/bar/lv_bar.c ****         /*Add the border, outline, and shadow only to the indicator area.
 665:Drivers/lvgl/src/widgets/bar/lv_bar.c ****          *They might have disabled if there is a radius_issue*/
 666:Drivers/lvgl/src/widgets/bar/lv_bar.c ****         draw_tmp_dsc = draw_rect_dsc;
 667:Drivers/lvgl/src/widgets/bar/lv_bar.c ****         draw_tmp_dsc.bg_opa = 0;
 668:Drivers/lvgl/src/widgets/bar/lv_bar.c ****         draw_tmp_dsc.bg_image_opa = 0;
 669:Drivers/lvgl/src/widgets/bar/lv_bar.c ****         lv_draw_rect(layer, &draw_tmp_dsc, &indic_area);
 670:Drivers/lvgl/src/widgets/bar/lv_bar.c **** 
 671:Drivers/lvgl/src/widgets/bar/lv_bar.c ****     }
 672:Drivers/lvgl/src/widgets/bar/lv_bar.c ****     else {
 673:Drivers/lvgl/src/widgets/bar/lv_bar.c ****         lv_draw_rect(layer, &draw_rect_dsc, &indic_area);
 674:Drivers/lvgl/src/widgets/bar/lv_bar.c ****     }
 675:Drivers/lvgl/src/widgets/bar/lv_bar.c **** 
 676:Drivers/lvgl/src/widgets/bar/lv_bar.c ****     if(!backdrop_blur) lv_draw_blur(layer, &draw_blur_dsc, &indic_area);
 677:Drivers/lvgl/src/widgets/bar/lv_bar.c **** }
 678:Drivers/lvgl/src/widgets/bar/lv_bar.c **** 
 679:Drivers/lvgl/src/widgets/bar/lv_bar.c **** static void lv_bar_event(const lv_obj_class_t * class_p, lv_event_t * e)
 680:Drivers/lvgl/src/widgets/bar/lv_bar.c **** {
 681:Drivers/lvgl/src/widgets/bar/lv_bar.c ****     LV_UNUSED(class_p);
 682:Drivers/lvgl/src/widgets/bar/lv_bar.c **** 
 683:Drivers/lvgl/src/widgets/bar/lv_bar.c ****     lv_result_t res;
 684:Drivers/lvgl/src/widgets/bar/lv_bar.c **** 
 685:Drivers/lvgl/src/widgets/bar/lv_bar.c ****     /*Call the ancestor's event handler*/
 686:Drivers/lvgl/src/widgets/bar/lv_bar.c ****     res = lv_obj_event_base(MY_CLASS, e);
 687:Drivers/lvgl/src/widgets/bar/lv_bar.c ****     if(res != LV_RESULT_OK) return;
 688:Drivers/lvgl/src/widgets/bar/lv_bar.c **** 
 689:Drivers/lvgl/src/widgets/bar/lv_bar.c ****     lv_event_code_t code = lv_event_get_code(e);
 690:Drivers/lvgl/src/widgets/bar/lv_bar.c ****     lv_obj_t * obj = lv_event_get_current_target(e);
 691:Drivers/lvgl/src/widgets/bar/lv_bar.c **** 
 692:Drivers/lvgl/src/widgets/bar/lv_bar.c ****     if(code == LV_EVENT_REFR_EXT_DRAW_SIZE) {
 693:Drivers/lvgl/src/widgets/bar/lv_bar.c ****         int32_t indic_size;
 694:Drivers/lvgl/src/widgets/bar/lv_bar.c ****         indic_size = lv_obj_calculate_ext_draw_size(obj, LV_PART_INDICATOR);
 695:Drivers/lvgl/src/widgets/bar/lv_bar.c **** 
 696:Drivers/lvgl/src/widgets/bar/lv_bar.c ****         /*Bg size is handled by lv_obj*/
 697:Drivers/lvgl/src/widgets/bar/lv_bar.c ****         int32_t * s = lv_event_get_param(e);
 698:Drivers/lvgl/src/widgets/bar/lv_bar.c ****         *s = LV_MAX(*s, indic_size);
 699:Drivers/lvgl/src/widgets/bar/lv_bar.c **** 
 700:Drivers/lvgl/src/widgets/bar/lv_bar.c ****         /*Calculate the indicator area*/
 701:Drivers/lvgl/src/widgets/bar/lv_bar.c ****         int32_t bg_left = lv_obj_get_style_pad_left(obj, LV_PART_MAIN);
 702:Drivers/lvgl/src/widgets/bar/lv_bar.c ****         int32_t bg_right = lv_obj_get_style_pad_right(obj, LV_PART_MAIN);
 703:Drivers/lvgl/src/widgets/bar/lv_bar.c ****         int32_t bg_top = lv_obj_get_style_pad_top(obj, LV_PART_MAIN);
 704:Drivers/lvgl/src/widgets/bar/lv_bar.c ****         int32_t bg_bottom = lv_obj_get_style_pad_bottom(obj, LV_PART_MAIN);
 705:Drivers/lvgl/src/widgets/bar/lv_bar.c **** 
 706:Drivers/lvgl/src/widgets/bar/lv_bar.c ****         int32_t pad = LV_MIN4(bg_left, bg_right, bg_top, bg_bottom);
 707:Drivers/lvgl/src/widgets/bar/lv_bar.c ****         if(pad < 0) {
 708:Drivers/lvgl/src/widgets/bar/lv_bar.c ****             *s = *s - pad;
 709:Drivers/lvgl/src/widgets/bar/lv_bar.c ****         }
 710:Drivers/lvgl/src/widgets/bar/lv_bar.c ****     }
 711:Drivers/lvgl/src/widgets/bar/lv_bar.c ****     else if(code == LV_EVENT_PRESSED || code == LV_EVENT_RELEASED) {
 712:Drivers/lvgl/src/widgets/bar/lv_bar.c ****         lv_bar_t * bar = (lv_bar_t *)obj;
 713:Drivers/lvgl/src/widgets/bar/lv_bar.c ****         lv_obj_invalidate_area(obj, &bar->indic_area);
 714:Drivers/lvgl/src/widgets/bar/lv_bar.c ****     }
ARM GAS  /var/folders/qx/2_175_4n2s19vhvtspjhb3qh0000gn/T//cchuAKlx.s 			page 14


 715:Drivers/lvgl/src/widgets/bar/lv_bar.c ****     else if(code == LV_EVENT_DRAW_MAIN) {
 716:Drivers/lvgl/src/widgets/bar/lv_bar.c ****         draw_indic(e);
 717:Drivers/lvgl/src/widgets/bar/lv_bar.c ****     }
 718:Drivers/lvgl/src/widgets/bar/lv_bar.c **** }
 719:Drivers/lvgl/src/widgets/bar/lv_bar.c **** 
 720:Drivers/lvgl/src/widgets/bar/lv_bar.c **** static void lv_bar_anim(void * var, int32_t value)
 721:Drivers/lvgl/src/widgets/bar/lv_bar.c **** {
 722:Drivers/lvgl/src/widgets/bar/lv_bar.c ****     lv_bar_anim_t * bar_anim = var;
 723:Drivers/lvgl/src/widgets/bar/lv_bar.c ****     bar_anim->anim_state    = value;
 724:Drivers/lvgl/src/widgets/bar/lv_bar.c ****     lv_obj_invalidate(bar_anim->bar);
 725:Drivers/lvgl/src/widgets/bar/lv_bar.c **** }
 726:Drivers/lvgl/src/widgets/bar/lv_bar.c **** 
 727:Drivers/lvgl/src/widgets/bar/lv_bar.c **** static void lv_bar_anim_completed(lv_anim_t * a)
 728:Drivers/lvgl/src/widgets/bar/lv_bar.c **** {
 729:Drivers/lvgl/src/widgets/bar/lv_bar.c ****     lv_bar_anim_t * var = a->var;
 730:Drivers/lvgl/src/widgets/bar/lv_bar.c ****     lv_obj_t * obj = (lv_obj_t *)var->bar;
 731:Drivers/lvgl/src/widgets/bar/lv_bar.c ****     lv_bar_t * bar = (lv_bar_t *)obj;
 732:Drivers/lvgl/src/widgets/bar/lv_bar.c **** 
 733:Drivers/lvgl/src/widgets/bar/lv_bar.c ****     var->anim_state = LV_BAR_ANIM_STATE_INV;
 734:Drivers/lvgl/src/widgets/bar/lv_bar.c ****     if(var == &bar->cur_value_anim)
 735:Drivers/lvgl/src/widgets/bar/lv_bar.c ****         bar->cur_value = var->anim_end;
 736:Drivers/lvgl/src/widgets/bar/lv_bar.c ****     else if(var == &bar->start_value_anim)
 737:Drivers/lvgl/src/widgets/bar/lv_bar.c ****         bar->start_value = var->anim_end;
 738:Drivers/lvgl/src/widgets/bar/lv_bar.c ****     lv_obj_invalidate(var->bar);
 739:Drivers/lvgl/src/widgets/bar/lv_bar.c **** }
 740:Drivers/lvgl/src/widgets/bar/lv_bar.c **** 
 741:Drivers/lvgl/src/widgets/bar/lv_bar.c **** static void lv_bar_set_value_with_anim(lv_obj_t * obj, int32_t new_value, int32_t * value_ptr,
 742:Drivers/lvgl/src/widgets/bar/lv_bar.c ****                                        lv_bar_anim_t * anim_info, lv_anim_enable_t en)
 743:Drivers/lvgl/src/widgets/bar/lv_bar.c **** {
 744:Drivers/lvgl/src/widgets/bar/lv_bar.c ****     if(en == LV_ANIM_OFF) {
 745:Drivers/lvgl/src/widgets/bar/lv_bar.c ****         lv_anim_delete(anim_info, NULL);
 746:Drivers/lvgl/src/widgets/bar/lv_bar.c ****         anim_info->anim_state = LV_BAR_ANIM_STATE_INV;
 747:Drivers/lvgl/src/widgets/bar/lv_bar.c ****         *value_ptr = new_value;
 748:Drivers/lvgl/src/widgets/bar/lv_bar.c ****         lv_obj_invalidate((lv_obj_t *)obj);
 749:Drivers/lvgl/src/widgets/bar/lv_bar.c **** 
 750:Drivers/lvgl/src/widgets/bar/lv_bar.c ****         /*Stop the previous animation if it exists*/
 751:Drivers/lvgl/src/widgets/bar/lv_bar.c ****         lv_anim_delete(anim_info, NULL);
 752:Drivers/lvgl/src/widgets/bar/lv_bar.c ****         /*Reset animation state*/
 753:Drivers/lvgl/src/widgets/bar/lv_bar.c ****         lv_bar_init_anim(obj, anim_info);
 754:Drivers/lvgl/src/widgets/bar/lv_bar.c ****     }
 755:Drivers/lvgl/src/widgets/bar/lv_bar.c ****     else {
 756:Drivers/lvgl/src/widgets/bar/lv_bar.c ****         /*No animation in progress -> simply set the values*/
 757:Drivers/lvgl/src/widgets/bar/lv_bar.c ****         if(anim_info->anim_state == LV_BAR_ANIM_STATE_INV) {
 758:Drivers/lvgl/src/widgets/bar/lv_bar.c ****             anim_info->anim_start = *value_ptr;
 759:Drivers/lvgl/src/widgets/bar/lv_bar.c ****             anim_info->anim_end   = new_value;
 760:Drivers/lvgl/src/widgets/bar/lv_bar.c ****         }
 761:Drivers/lvgl/src/widgets/bar/lv_bar.c ****         /*Animation in progress. Start from the animation end value*/
 762:Drivers/lvgl/src/widgets/bar/lv_bar.c ****         else {
 763:Drivers/lvgl/src/widgets/bar/lv_bar.c ****             anim_info->anim_start = anim_info->anim_end;
 764:Drivers/lvgl/src/widgets/bar/lv_bar.c ****             anim_info->anim_end   = new_value;
 765:Drivers/lvgl/src/widgets/bar/lv_bar.c ****         }
 766:Drivers/lvgl/src/widgets/bar/lv_bar.c ****         *value_ptr = new_value;
 767:Drivers/lvgl/src/widgets/bar/lv_bar.c ****         /*Stop the previous animation if it exists*/
 768:Drivers/lvgl/src/widgets/bar/lv_bar.c ****         lv_anim_delete(anim_info, NULL);
 769:Drivers/lvgl/src/widgets/bar/lv_bar.c **** 
 770:Drivers/lvgl/src/widgets/bar/lv_bar.c ****         lv_anim_t a;
 771:Drivers/lvgl/src/widgets/bar/lv_bar.c ****         lv_anim_init(&a);
ARM GAS  /var/folders/qx/2_175_4n2s19vhvtspjhb3qh0000gn/T//cchuAKlx.s 			page 15


 772:Drivers/lvgl/src/widgets/bar/lv_bar.c ****         lv_anim_set_var(&a, anim_info);
 773:Drivers/lvgl/src/widgets/bar/lv_bar.c ****         lv_anim_set_exec_cb(&a, lv_bar_anim);
 774:Drivers/lvgl/src/widgets/bar/lv_bar.c ****         lv_anim_set_values(&a, LV_BAR_ANIM_STATE_START, LV_BAR_ANIM_STATE_END);
 775:Drivers/lvgl/src/widgets/bar/lv_bar.c ****         lv_anim_set_completed_cb(&a, lv_bar_anim_completed);
 776:Drivers/lvgl/src/widgets/bar/lv_bar.c ****         lv_anim_set_duration(&a, lv_obj_get_style_anim_duration(obj, LV_PART_MAIN));
 777:Drivers/lvgl/src/widgets/bar/lv_bar.c ****         lv_anim_start(&a);
 778:Drivers/lvgl/src/widgets/bar/lv_bar.c ****     }
 779:Drivers/lvgl/src/widgets/bar/lv_bar.c **** }
 780:Drivers/lvgl/src/widgets/bar/lv_bar.c **** 
 781:Drivers/lvgl/src/widgets/bar/lv_bar.c **** static void lv_bar_init_anim(lv_obj_t * obj, lv_bar_anim_t * bar_anim)
 782:Drivers/lvgl/src/widgets/bar/lv_bar.c **** {
  29              		.loc 1 782 1 view -0
  30              		.cfi_startproc
  31              		@ args = 0, pretend = 0, frame = 0
  32              		@ frame_needed = 0, uses_anonymous_args = 0
  33              		@ link register save eliminated.
 783:Drivers/lvgl/src/widgets/bar/lv_bar.c ****     bar_anim->bar = obj;
  34              		.loc 1 783 5 view .LVU1
  35              		.loc 1 783 19 is_stmt 0 view .LVU2
  36 0000 0860     		str	r0, [r1]
 784:Drivers/lvgl/src/widgets/bar/lv_bar.c ****     bar_anim->anim_start = 0;
  37              		.loc 1 784 5 is_stmt 1 view .LVU3
  38              		.loc 1 784 26 is_stmt 0 view .LVU4
  39 0002 0023     		movs	r3, #0
  40 0004 4B60     		str	r3, [r1, #4]
 785:Drivers/lvgl/src/widgets/bar/lv_bar.c ****     bar_anim->anim_end = 0;
  41              		.loc 1 785 5 is_stmt 1 view .LVU5
  42              		.loc 1 785 24 is_stmt 0 view .LVU6
  43 0006 8B60     		str	r3, [r1, #8]
 786:Drivers/lvgl/src/widgets/bar/lv_bar.c ****     bar_anim->anim_state = LV_BAR_ANIM_STATE_INV;
  44              		.loc 1 786 5 is_stmt 1 view .LVU7
  45              		.loc 1 786 26 is_stmt 0 view .LVU8
  46 0008 4FF0FF33 		mov	r3, #-1
  47 000c CB60     		str	r3, [r1, #12]
 787:Drivers/lvgl/src/widgets/bar/lv_bar.c **** }
  48              		.loc 1 787 1 view .LVU9
  49 000e 7047     		bx	lr
  50              		.cfi_endproc
  51              	.LFE204:
  53              		.section	.text.lv_bar_destructor,"ax",%progbits
  54              		.align	1
  55              		.syntax unified
  56              		.thumb
  57              		.thumb_func
  59              	lv_bar_destructor:
  60              	.LVL1:
  61              	.LFB198:
 348:Drivers/lvgl/src/widgets/bar/lv_bar.c ****     LV_UNUSED(class_p);
  62              		.loc 1 348 1 is_stmt 1 view -0
  63              		.cfi_startproc
  64              		@ args = 0, pretend = 0, frame = 0
  65              		@ frame_needed = 0, uses_anonymous_args = 0
 348:Drivers/lvgl/src/widgets/bar/lv_bar.c ****     LV_UNUSED(class_p);
  66              		.loc 1 348 1 is_stmt 0 view .LVU11
  67 0000 10B5     		push	{r4, lr}
  68              	.LCFI0:
  69              		.cfi_def_cfa_offset 8
ARM GAS  /var/folders/qx/2_175_4n2s19vhvtspjhb3qh0000gn/T//cchuAKlx.s 			page 16


  70              		.cfi_offset 4, -8
  71              		.cfi_offset 14, -4
  72 0002 0C46     		mov	r4, r1
 349:Drivers/lvgl/src/widgets/bar/lv_bar.c ****     lv_bar_t * bar = (lv_bar_t *)obj;
  73              		.loc 1 349 5 is_stmt 1 view .LVU12
 350:Drivers/lvgl/src/widgets/bar/lv_bar.c **** 
  74              		.loc 1 350 5 view .LVU13
  75              	.LVL2:
 352:Drivers/lvgl/src/widgets/bar/lv_bar.c ****     lv_anim_delete(&bar->start_value_anim, NULL);
  76              		.loc 1 352 5 view .LVU14
  77 0004 0021     		movs	r1, #0
  78              	.LVL3:
 352:Drivers/lvgl/src/widgets/bar/lv_bar.c ****     lv_anim_delete(&bar->start_value_anim, NULL);
  79              		.loc 1 352 5 is_stmt 0 view .LVU15
  80 0006 04F15000 		add	r0, r4, #80
  81              	.LVL4:
 352:Drivers/lvgl/src/widgets/bar/lv_bar.c ****     lv_anim_delete(&bar->start_value_anim, NULL);
  82              		.loc 1 352 5 view .LVU16
  83 000a FFF7FEFF 		bl	lv_anim_delete
  84              	.LVL5:
 353:Drivers/lvgl/src/widgets/bar/lv_bar.c **** }
  85              		.loc 1 353 5 is_stmt 1 view .LVU17
  86 000e 0021     		movs	r1, #0
  87 0010 04F16000 		add	r0, r4, #96
  88 0014 FFF7FEFF 		bl	lv_anim_delete
  89              	.LVL6:
 354:Drivers/lvgl/src/widgets/bar/lv_bar.c **** 
  90              		.loc 1 354 1 is_stmt 0 view .LVU18
  91 0018 10BD     		pop	{r4, pc}
 354:Drivers/lvgl/src/widgets/bar/lv_bar.c **** 
  92              		.loc 1 354 1 view .LVU19
  93              		.cfi_endproc
  94              	.LFE198:
  96              		.section	.text.lv_bar_anim_completed,"ax",%progbits
  97              		.align	1
  98              		.syntax unified
  99              		.thumb
 100              		.thumb_func
 102              	lv_bar_anim_completed:
 103              	.LVL7:
 104              	.LFB202:
 728:Drivers/lvgl/src/widgets/bar/lv_bar.c ****     lv_bar_anim_t * var = a->var;
 105              		.loc 1 728 1 is_stmt 1 view -0
 106              		.cfi_startproc
 107              		@ args = 0, pretend = 0, frame = 0
 108              		@ frame_needed = 0, uses_anonymous_args = 0
 728:Drivers/lvgl/src/widgets/bar/lv_bar.c ****     lv_bar_anim_t * var = a->var;
 109              		.loc 1 728 1 is_stmt 0 view .LVU21
 110 0000 08B5     		push	{r3, lr}
 111              	.LCFI1:
 112              		.cfi_def_cfa_offset 8
 113              		.cfi_offset 3, -8
 114              		.cfi_offset 14, -4
 729:Drivers/lvgl/src/widgets/bar/lv_bar.c ****     lv_obj_t * obj = (lv_obj_t *)var->bar;
 115              		.loc 1 729 5 is_stmt 1 view .LVU22
 729:Drivers/lvgl/src/widgets/bar/lv_bar.c ****     lv_obj_t * obj = (lv_obj_t *)var->bar;
 116              		.loc 1 729 21 is_stmt 0 view .LVU23
ARM GAS  /var/folders/qx/2_175_4n2s19vhvtspjhb3qh0000gn/T//cchuAKlx.s 			page 17


 117 0002 0368     		ldr	r3, [r0]
 118              	.LVL8:
 730:Drivers/lvgl/src/widgets/bar/lv_bar.c ****     lv_bar_t * bar = (lv_bar_t *)obj;
 119              		.loc 1 730 5 is_stmt 1 view .LVU24
 730:Drivers/lvgl/src/widgets/bar/lv_bar.c ****     lv_bar_t * bar = (lv_bar_t *)obj;
 120              		.loc 1 730 16 is_stmt 0 view .LVU25
 121 0004 1A68     		ldr	r2, [r3]
 122              	.LVL9:
 731:Drivers/lvgl/src/widgets/bar/lv_bar.c **** 
 123              		.loc 1 731 5 is_stmt 1 view .LVU26
 733:Drivers/lvgl/src/widgets/bar/lv_bar.c ****     if(var == &bar->cur_value_anim)
 124              		.loc 1 733 5 view .LVU27
 733:Drivers/lvgl/src/widgets/bar/lv_bar.c ****     if(var == &bar->cur_value_anim)
 125              		.loc 1 733 21 is_stmt 0 view .LVU28
 126 0006 4FF0FF31 		mov	r1, #-1
 127 000a D960     		str	r1, [r3, #12]
 734:Drivers/lvgl/src/widgets/bar/lv_bar.c ****         bar->cur_value = var->anim_end;
 128              		.loc 1 734 5 is_stmt 1 view .LVU29
 734:Drivers/lvgl/src/widgets/bar/lv_bar.c ****         bar->cur_value = var->anim_end;
 129              		.loc 1 734 15 is_stmt 0 view .LVU30
 130 000c 02F15001 		add	r1, r2, #80
 734:Drivers/lvgl/src/widgets/bar/lv_bar.c ****         bar->cur_value = var->anim_end;
 131              		.loc 1 734 7 view .LVU31
 132 0010 9942     		cmp	r1, r3
 133 0012 07D0     		beq	.L8
 736:Drivers/lvgl/src/widgets/bar/lv_bar.c ****         bar->start_value = var->anim_end;
 134              		.loc 1 736 10 is_stmt 1 view .LVU32
 736:Drivers/lvgl/src/widgets/bar/lv_bar.c ****         bar->start_value = var->anim_end;
 135              		.loc 1 736 20 is_stmt 0 view .LVU33
 136 0014 02F16001 		add	r1, r2, #96
 736:Drivers/lvgl/src/widgets/bar/lv_bar.c ****         bar->start_value = var->anim_end;
 137              		.loc 1 736 12 view .LVU34
 138 0018 9942     		cmp	r1, r3
 139 001a 06D0     		beq	.L9
 140              	.L6:
 738:Drivers/lvgl/src/widgets/bar/lv_bar.c **** }
 141              		.loc 1 738 5 is_stmt 1 view .LVU35
 142 001c 1868     		ldr	r0, [r3]
 143              	.LVL10:
 738:Drivers/lvgl/src/widgets/bar/lv_bar.c **** }
 144              		.loc 1 738 5 is_stmt 0 view .LVU36
 145 001e FFF7FEFF 		bl	lv_obj_invalidate
 146              	.LVL11:
 739:Drivers/lvgl/src/widgets/bar/lv_bar.c **** 
 147              		.loc 1 739 1 view .LVU37
 148 0022 08BD     		pop	{r3, pc}
 149              	.LVL12:
 150              	.L8:
 735:Drivers/lvgl/src/widgets/bar/lv_bar.c ****     else if(var == &bar->start_value_anim)
 151              		.loc 1 735 9 is_stmt 1 view .LVU38
 735:Drivers/lvgl/src/widgets/bar/lv_bar.c ****     else if(var == &bar->start_value_anim)
 152              		.loc 1 735 29 is_stmt 0 view .LVU39
 153 0024 9968     		ldr	r1, [r3, #8]
 735:Drivers/lvgl/src/widgets/bar/lv_bar.c ****     else if(var == &bar->start_value_anim)
 154              		.loc 1 735 24 view .LVU40
 155 0026 D162     		str	r1, [r2, #44]
 156 0028 F8E7     		b	.L6
ARM GAS  /var/folders/qx/2_175_4n2s19vhvtspjhb3qh0000gn/T//cchuAKlx.s 			page 18


 157              	.L9:
 737:Drivers/lvgl/src/widgets/bar/lv_bar.c ****     lv_obj_invalidate(var->bar);
 158              		.loc 1 737 9 is_stmt 1 view .LVU41
 737:Drivers/lvgl/src/widgets/bar/lv_bar.c ****     lv_obj_invalidate(var->bar);
 159              		.loc 1 737 31 is_stmt 0 view .LVU42
 160 002a 9968     		ldr	r1, [r3, #8]
 737:Drivers/lvgl/src/widgets/bar/lv_bar.c ****     lv_obj_invalidate(var->bar);
 161              		.loc 1 737 26 view .LVU43
 162 002c 9163     		str	r1, [r2, #56]
 163 002e F5E7     		b	.L6
 164              		.cfi_endproc
 165              	.LFE202:
 167              		.section	.text.lv_bar_anim,"ax",%progbits
 168              		.align	1
 169              		.syntax unified
 170              		.thumb
 171              		.thumb_func
 173              	lv_bar_anim:
 174              	.LVL13:
 175              	.LFB201:
 721:Drivers/lvgl/src/widgets/bar/lv_bar.c ****     lv_bar_anim_t * bar_anim = var;
 176              		.loc 1 721 1 is_stmt 1 view -0
 177              		.cfi_startproc
 178              		@ args = 0, pretend = 0, frame = 0
 179              		@ frame_needed = 0, uses_anonymous_args = 0
 721:Drivers/lvgl/src/widgets/bar/lv_bar.c ****     lv_bar_anim_t * bar_anim = var;
 180              		.loc 1 721 1 is_stmt 0 view .LVU45
 181 0000 08B5     		push	{r3, lr}
 182              	.LCFI2:
 183              		.cfi_def_cfa_offset 8
 184              		.cfi_offset 3, -8
 185              		.cfi_offset 14, -4
 722:Drivers/lvgl/src/widgets/bar/lv_bar.c ****     bar_anim->anim_state    = value;
 186              		.loc 1 722 5 is_stmt 1 view .LVU46
 187              	.LVL14:
 723:Drivers/lvgl/src/widgets/bar/lv_bar.c ****     lv_obj_invalidate(bar_anim->bar);
 188              		.loc 1 723 5 view .LVU47
 723:Drivers/lvgl/src/widgets/bar/lv_bar.c ****     lv_obj_invalidate(bar_anim->bar);
 189              		.loc 1 723 29 is_stmt 0 view .LVU48
 190 0002 C160     		str	r1, [r0, #12]
 724:Drivers/lvgl/src/widgets/bar/lv_bar.c **** }
 191              		.loc 1 724 5 is_stmt 1 view .LVU49
 192 0004 0068     		ldr	r0, [r0]
 193              	.LVL15:
 724:Drivers/lvgl/src/widgets/bar/lv_bar.c **** }
 194              		.loc 1 724 5 is_stmt 0 view .LVU50
 195 0006 FFF7FEFF 		bl	lv_obj_invalidate
 196              	.LVL16:
 725:Drivers/lvgl/src/widgets/bar/lv_bar.c **** 
 197              		.loc 1 725 1 view .LVU51
 198 000a 08BD     		pop	{r3, pc}
 199              		.cfi_endproc
 200              	.LFE201:
 202              		.section	.text.lv_bar_set_value_with_anim,"ax",%progbits
 203              		.align	1
 204              		.syntax unified
 205              		.thumb
ARM GAS  /var/folders/qx/2_175_4n2s19vhvtspjhb3qh0000gn/T//cchuAKlx.s 			page 19


 206              		.thumb_func
 208              	lv_bar_set_value_with_anim:
 209              	.LVL17:
 210              	.LFB203:
 743:Drivers/lvgl/src/widgets/bar/lv_bar.c ****     if(en == LV_ANIM_OFF) {
 211              		.loc 1 743 1 is_stmt 1 view -0
 212              		.cfi_startproc
 213              		@ args = 4, pretend = 0, frame = 104
 214              		@ frame_needed = 0, uses_anonymous_args = 0
 743:Drivers/lvgl/src/widgets/bar/lv_bar.c ****     if(en == LV_ANIM_OFF) {
 215              		.loc 1 743 1 is_stmt 0 view .LVU53
 216 0000 F0B5     		push	{r4, r5, r6, r7, lr}
 217              	.LCFI3:
 218              		.cfi_def_cfa_offset 20
 219              		.cfi_offset 4, -20
 220              		.cfi_offset 5, -16
 221              		.cfi_offset 6, -12
 222              		.cfi_offset 7, -8
 223              		.cfi_offset 14, -4
 224 0002 9BB0     		sub	sp, sp, #108
 225              	.LCFI4:
 226              		.cfi_def_cfa_offset 128
 227 0004 0646     		mov	r6, r0
 228 0006 0D46     		mov	r5, r1
 229 0008 1746     		mov	r7, r2
 230 000a 1C46     		mov	r4, r3
 231 000c 9DF88030 		ldrb	r3, [sp, #128]	@ zero_extendqisi2
 232              	.LVL18:
 744:Drivers/lvgl/src/widgets/bar/lv_bar.c ****         lv_anim_delete(anim_info, NULL);
 233              		.loc 1 744 5 is_stmt 1 view .LVU54
 744:Drivers/lvgl/src/widgets/bar/lv_bar.c ****         lv_anim_delete(anim_info, NULL);
 234              		.loc 1 744 7 is_stmt 0 view .LVU55
 235 0010 83B3     		cbz	r3, .L18
 236              	.LBB45:
 757:Drivers/lvgl/src/widgets/bar/lv_bar.c ****             anim_info->anim_start = *value_ptr;
 237              		.loc 1 757 9 is_stmt 1 view .LVU56
 757:Drivers/lvgl/src/widgets/bar/lv_bar.c ****             anim_info->anim_start = *value_ptr;
 238              		.loc 1 757 21 is_stmt 0 view .LVU57
 239 0012 E368     		ldr	r3, [r4, #12]
 757:Drivers/lvgl/src/widgets/bar/lv_bar.c ****             anim_info->anim_start = *value_ptr;
 240              		.loc 1 757 11 view .LVU58
 241 0014 B3F1FF3F 		cmp	r3, #-1
 242 0018 40D0     		beq	.L19
 763:Drivers/lvgl/src/widgets/bar/lv_bar.c ****             anim_info->anim_end   = new_value;
 243              		.loc 1 763 13 is_stmt 1 view .LVU59
 763:Drivers/lvgl/src/widgets/bar/lv_bar.c ****             anim_info->anim_end   = new_value;
 244              		.loc 1 763 46 is_stmt 0 view .LVU60
 245 001a A368     		ldr	r3, [r4, #8]
 763:Drivers/lvgl/src/widgets/bar/lv_bar.c ****             anim_info->anim_end   = new_value;
 246              		.loc 1 763 35 view .LVU61
 247 001c 6360     		str	r3, [r4, #4]
 764:Drivers/lvgl/src/widgets/bar/lv_bar.c ****         }
 248              		.loc 1 764 13 is_stmt 1 view .LVU62
 764:Drivers/lvgl/src/widgets/bar/lv_bar.c ****         }
 249              		.loc 1 764 35 is_stmt 0 view .LVU63
 250 001e A160     		str	r1, [r4, #8]
 251              	.L16:
ARM GAS  /var/folders/qx/2_175_4n2s19vhvtspjhb3qh0000gn/T//cchuAKlx.s 			page 20


 766:Drivers/lvgl/src/widgets/bar/lv_bar.c ****         /*Stop the previous animation if it exists*/
 252              		.loc 1 766 9 is_stmt 1 view .LVU64
 766:Drivers/lvgl/src/widgets/bar/lv_bar.c ****         /*Stop the previous animation if it exists*/
 253              		.loc 1 766 20 is_stmt 0 view .LVU65
 254 0020 3D60     		str	r5, [r7]
 768:Drivers/lvgl/src/widgets/bar/lv_bar.c **** 
 255              		.loc 1 768 9 is_stmt 1 view .LVU66
 256 0022 0021     		movs	r1, #0
 257              	.LVL19:
 768:Drivers/lvgl/src/widgets/bar/lv_bar.c **** 
 258              		.loc 1 768 9 is_stmt 0 view .LVU67
 259 0024 2046     		mov	r0, r4
 260              	.LVL20:
 768:Drivers/lvgl/src/widgets/bar/lv_bar.c **** 
 261              		.loc 1 768 9 view .LVU68
 262 0026 FFF7FEFF 		bl	lv_anim_delete
 263              	.LVL21:
 770:Drivers/lvgl/src/widgets/bar/lv_bar.c ****         lv_anim_init(&a);
 264              		.loc 1 770 9 is_stmt 1 view .LVU69
 771:Drivers/lvgl/src/widgets/bar/lv_bar.c ****         lv_anim_set_var(&a, anim_info);
 265              		.loc 1 771 9 view .LVU70
 266 002a 02AD     		add	r5, sp, #8
 267              	.LVL22:
 771:Drivers/lvgl/src/widgets/bar/lv_bar.c ****         lv_anim_set_var(&a, anim_info);
 268              		.loc 1 771 9 is_stmt 0 view .LVU71
 269 002c 2846     		mov	r0, r5
 270 002e FFF7FEFF 		bl	lv_anim_init
 271              	.LVL23:
 772:Drivers/lvgl/src/widgets/bar/lv_bar.c ****         lv_anim_set_exec_cb(&a, lv_bar_anim);
 272              		.loc 1 772 9 is_stmt 1 view .LVU72
 273 0032 2146     		mov	r1, r4
 274 0034 2846     		mov	r0, r5
 275 0036 FFF7FEFF 		bl	lv_anim_set_var
 276              	.LVL24:
 773:Drivers/lvgl/src/widgets/bar/lv_bar.c ****         lv_anim_set_values(&a, LV_BAR_ANIM_STATE_START, LV_BAR_ANIM_STATE_END);
 277              		.loc 1 773 9 view .LVU73
 278 003a 1A49     		ldr	r1, .L20
 279 003c 2846     		mov	r0, r5
 280 003e FFF7FEFF 		bl	lv_anim_set_exec_cb
 281              	.LVL25:
 774:Drivers/lvgl/src/widgets/bar/lv_bar.c ****         lv_anim_set_completed_cb(&a, lv_bar_anim_completed);
 282              		.loc 1 774 9 view .LVU74
 283 0042 4FF48072 		mov	r2, #256
 284 0046 0021     		movs	r1, #0
 285 0048 2846     		mov	r0, r5
 286 004a FFF7FEFF 		bl	lv_anim_set_values
 287              	.LVL26:
 775:Drivers/lvgl/src/widgets/bar/lv_bar.c ****         lv_anim_set_duration(&a, lv_obj_get_style_anim_duration(obj, LV_PART_MAIN));
 288              		.loc 1 775 9 view .LVU75
 289 004e 1649     		ldr	r1, .L20+4
 290 0050 2846     		mov	r0, r5
 291 0052 FFF7FEFF 		bl	lv_anim_set_completed_cb
 292              	.LVL27:
 776:Drivers/lvgl/src/widgets/bar/lv_bar.c ****         lv_anim_start(&a);
 293              		.loc 1 776 9 view .LVU76
 294              	.LBB46:
 295              	.LBI46:
ARM GAS  /var/folders/qx/2_175_4n2s19vhvtspjhb3qh0000gn/T//cchuAKlx.s 			page 21


 296              		.file 2 "Drivers/lvgl/src/widgets/bar/../../core/lv_obj_style_gen.h"
   1:Drivers/lvgl/src/widgets/bar/../../core/lv_obj_style_gen.h **** 
   2:Drivers/lvgl/src/widgets/bar/../../core/lv_obj_style_gen.h **** /*
   3:Drivers/lvgl/src/widgets/bar/../../core/lv_obj_style_gen.h ****  **********************************************************************
   4:Drivers/lvgl/src/widgets/bar/../../core/lv_obj_style_gen.h ****  *                            DO NOT EDIT
   5:Drivers/lvgl/src/widgets/bar/../../core/lv_obj_style_gen.h ****  * This file is automatically generated by "style_api_gen.py"
   6:Drivers/lvgl/src/widgets/bar/../../core/lv_obj_style_gen.h ****  **********************************************************************
   7:Drivers/lvgl/src/widgets/bar/../../core/lv_obj_style_gen.h ****  */
   8:Drivers/lvgl/src/widgets/bar/../../core/lv_obj_style_gen.h **** 
   9:Drivers/lvgl/src/widgets/bar/../../core/lv_obj_style_gen.h **** 
  10:Drivers/lvgl/src/widgets/bar/../../core/lv_obj_style_gen.h **** #ifndef LV_OBJ_STYLE_GEN_H
  11:Drivers/lvgl/src/widgets/bar/../../core/lv_obj_style_gen.h **** #define LV_OBJ_STYLE_GEN_H
  12:Drivers/lvgl/src/widgets/bar/../../core/lv_obj_style_gen.h **** 
  13:Drivers/lvgl/src/widgets/bar/../../core/lv_obj_style_gen.h **** #ifdef __cplusplus
  14:Drivers/lvgl/src/widgets/bar/../../core/lv_obj_style_gen.h **** extern "C" {
  15:Drivers/lvgl/src/widgets/bar/../../core/lv_obj_style_gen.h **** #endif
  16:Drivers/lvgl/src/widgets/bar/../../core/lv_obj_style_gen.h **** 
  17:Drivers/lvgl/src/widgets/bar/../../core/lv_obj_style_gen.h **** #include "../misc/lv_area.h"
  18:Drivers/lvgl/src/widgets/bar/../../core/lv_obj_style_gen.h **** #include "../misc/lv_style.h"
  19:Drivers/lvgl/src/widgets/bar/../../core/lv_obj_style_gen.h **** #include "../core/lv_obj_style.h"
  20:Drivers/lvgl/src/widgets/bar/../../core/lv_obj_style_gen.h **** #include "../misc/lv_types.h"
  21:Drivers/lvgl/src/widgets/bar/../../core/lv_obj_style_gen.h **** 
  22:Drivers/lvgl/src/widgets/bar/../../core/lv_obj_style_gen.h **** static inline int32_t lv_obj_get_style_width(const lv_obj_t * obj, lv_part_t part)
  23:Drivers/lvgl/src/widgets/bar/../../core/lv_obj_style_gen.h **** {
  24:Drivers/lvgl/src/widgets/bar/../../core/lv_obj_style_gen.h ****     lv_style_value_t v = lv_obj_get_style_prop(obj, part, LV_STYLE_WIDTH);
  25:Drivers/lvgl/src/widgets/bar/../../core/lv_obj_style_gen.h ****     return (int32_t)v.num;
  26:Drivers/lvgl/src/widgets/bar/../../core/lv_obj_style_gen.h **** }
  27:Drivers/lvgl/src/widgets/bar/../../core/lv_obj_style_gen.h **** 
  28:Drivers/lvgl/src/widgets/bar/../../core/lv_obj_style_gen.h **** static inline int32_t lv_obj_get_style_min_width(const lv_obj_t * obj, lv_part_t part)
  29:Drivers/lvgl/src/widgets/bar/../../core/lv_obj_style_gen.h **** {
  30:Drivers/lvgl/src/widgets/bar/../../core/lv_obj_style_gen.h ****     lv_style_value_t v = lv_obj_get_style_prop(obj, part, LV_STYLE_MIN_WIDTH);
  31:Drivers/lvgl/src/widgets/bar/../../core/lv_obj_style_gen.h ****     return (int32_t)v.num;
  32:Drivers/lvgl/src/widgets/bar/../../core/lv_obj_style_gen.h **** }
  33:Drivers/lvgl/src/widgets/bar/../../core/lv_obj_style_gen.h **** 
  34:Drivers/lvgl/src/widgets/bar/../../core/lv_obj_style_gen.h **** static inline int32_t lv_obj_get_style_max_width(const lv_obj_t * obj, lv_part_t part)
  35:Drivers/lvgl/src/widgets/bar/../../core/lv_obj_style_gen.h **** {
  36:Drivers/lvgl/src/widgets/bar/../../core/lv_obj_style_gen.h ****     lv_style_value_t v = lv_obj_get_style_prop(obj, part, LV_STYLE_MAX_WIDTH);
  37:Drivers/lvgl/src/widgets/bar/../../core/lv_obj_style_gen.h ****     return (int32_t)v.num;
  38:Drivers/lvgl/src/widgets/bar/../../core/lv_obj_style_gen.h **** }
  39:Drivers/lvgl/src/widgets/bar/../../core/lv_obj_style_gen.h **** 
  40:Drivers/lvgl/src/widgets/bar/../../core/lv_obj_style_gen.h **** static inline int32_t lv_obj_get_style_height(const lv_obj_t * obj, lv_part_t part)
  41:Drivers/lvgl/src/widgets/bar/../../core/lv_obj_style_gen.h **** {
  42:Drivers/lvgl/src/widgets/bar/../../core/lv_obj_style_gen.h ****     lv_style_value_t v = lv_obj_get_style_prop(obj, part, LV_STYLE_HEIGHT);
  43:Drivers/lvgl/src/widgets/bar/../../core/lv_obj_style_gen.h ****     return (int32_t)v.num;
  44:Drivers/lvgl/src/widgets/bar/../../core/lv_obj_style_gen.h **** }
  45:Drivers/lvgl/src/widgets/bar/../../core/lv_obj_style_gen.h **** 
  46:Drivers/lvgl/src/widgets/bar/../../core/lv_obj_style_gen.h **** static inline int32_t lv_obj_get_style_min_height(const lv_obj_t * obj, lv_part_t part)
  47:Drivers/lvgl/src/widgets/bar/../../core/lv_obj_style_gen.h **** {
  48:Drivers/lvgl/src/widgets/bar/../../core/lv_obj_style_gen.h ****     lv_style_value_t v = lv_obj_get_style_prop(obj, part, LV_STYLE_MIN_HEIGHT);
  49:Drivers/lvgl/src/widgets/bar/../../core/lv_obj_style_gen.h ****     return (int32_t)v.num;
  50:Drivers/lvgl/src/widgets/bar/../../core/lv_obj_style_gen.h **** }
  51:Drivers/lvgl/src/widgets/bar/../../core/lv_obj_style_gen.h **** 
  52:Drivers/lvgl/src/widgets/bar/../../core/lv_obj_style_gen.h **** static inline int32_t lv_obj_get_style_max_height(const lv_obj_t * obj, lv_part_t part)
  53:Drivers/lvgl/src/widgets/bar/../../core/lv_obj_style_gen.h **** {
  54:Drivers/lvgl/src/widgets/bar/../../core/lv_obj_style_gen.h ****     lv_style_value_t v = lv_obj_get_style_prop(obj, part, LV_STYLE_MAX_HEIGHT);
  55:Drivers/lvgl/src/widgets/bar/../../core/lv_obj_style_gen.h ****     return (int32_t)v.num;
  56:Drivers/lvgl/src/widgets/bar/../../core/lv_obj_style_gen.h **** }
ARM GAS  /var/folders/qx/2_175_4n2s19vhvtspjhb3qh0000gn/T//cchuAKlx.s 			page 22


  57:Drivers/lvgl/src/widgets/bar/../../core/lv_obj_style_gen.h **** 
  58:Drivers/lvgl/src/widgets/bar/../../core/lv_obj_style_gen.h **** static inline int32_t lv_obj_get_style_length(const lv_obj_t * obj, lv_part_t part)
  59:Drivers/lvgl/src/widgets/bar/../../core/lv_obj_style_gen.h **** {
  60:Drivers/lvgl/src/widgets/bar/../../core/lv_obj_style_gen.h ****     lv_style_value_t v = lv_obj_get_style_prop(obj, part, LV_STYLE_LENGTH);
  61:Drivers/lvgl/src/widgets/bar/../../core/lv_obj_style_gen.h ****     return (int32_t)v.num;
  62:Drivers/lvgl/src/widgets/bar/../../core/lv_obj_style_gen.h **** }
  63:Drivers/lvgl/src/widgets/bar/../../core/lv_obj_style_gen.h **** 
  64:Drivers/lvgl/src/widgets/bar/../../core/lv_obj_style_gen.h **** static inline int32_t lv_obj_get_style_x(const lv_obj_t * obj, lv_part_t part)
  65:Drivers/lvgl/src/widgets/bar/../../core/lv_obj_style_gen.h **** {
  66:Drivers/lvgl/src/widgets/bar/../../core/lv_obj_style_gen.h ****     lv_style_value_t v = lv_obj_get_style_prop(obj, part, LV_STYLE_X);
  67:Drivers/lvgl/src/widgets/bar/../../core/lv_obj_style_gen.h ****     return (int32_t)v.num;
  68:Drivers/lvgl/src/widgets/bar/../../core/lv_obj_style_gen.h **** }
  69:Drivers/lvgl/src/widgets/bar/../../core/lv_obj_style_gen.h **** 
  70:Drivers/lvgl/src/widgets/bar/../../core/lv_obj_style_gen.h **** static inline int32_t lv_obj_get_style_y(const lv_obj_t * obj, lv_part_t part)
  71:Drivers/lvgl/src/widgets/bar/../../core/lv_obj_style_gen.h **** {
  72:Drivers/lvgl/src/widgets/bar/../../core/lv_obj_style_gen.h ****     lv_style_value_t v = lv_obj_get_style_prop(obj, part, LV_STYLE_Y);
  73:Drivers/lvgl/src/widgets/bar/../../core/lv_obj_style_gen.h ****     return (int32_t)v.num;
  74:Drivers/lvgl/src/widgets/bar/../../core/lv_obj_style_gen.h **** }
  75:Drivers/lvgl/src/widgets/bar/../../core/lv_obj_style_gen.h **** 
  76:Drivers/lvgl/src/widgets/bar/../../core/lv_obj_style_gen.h **** static inline lv_align_t lv_obj_get_style_align(const lv_obj_t * obj, lv_part_t part)
  77:Drivers/lvgl/src/widgets/bar/../../core/lv_obj_style_gen.h **** {
  78:Drivers/lvgl/src/widgets/bar/../../core/lv_obj_style_gen.h ****     lv_style_value_t v = lv_obj_get_style_prop(obj, part, LV_STYLE_ALIGN);
  79:Drivers/lvgl/src/widgets/bar/../../core/lv_obj_style_gen.h ****     return (lv_align_t)v.num;
  80:Drivers/lvgl/src/widgets/bar/../../core/lv_obj_style_gen.h **** }
  81:Drivers/lvgl/src/widgets/bar/../../core/lv_obj_style_gen.h **** 
  82:Drivers/lvgl/src/widgets/bar/../../core/lv_obj_style_gen.h **** static inline int32_t lv_obj_get_style_transform_width(const lv_obj_t * obj, lv_part_t part)
  83:Drivers/lvgl/src/widgets/bar/../../core/lv_obj_style_gen.h **** {
  84:Drivers/lvgl/src/widgets/bar/../../core/lv_obj_style_gen.h ****     lv_style_value_t v = lv_obj_get_style_prop(obj, part, LV_STYLE_TRANSFORM_WIDTH);
  85:Drivers/lvgl/src/widgets/bar/../../core/lv_obj_style_gen.h ****     return (int32_t)v.num;
  86:Drivers/lvgl/src/widgets/bar/../../core/lv_obj_style_gen.h **** }
  87:Drivers/lvgl/src/widgets/bar/../../core/lv_obj_style_gen.h **** 
  88:Drivers/lvgl/src/widgets/bar/../../core/lv_obj_style_gen.h **** static inline int32_t lv_obj_get_style_transform_height(const lv_obj_t * obj, lv_part_t part)
  89:Drivers/lvgl/src/widgets/bar/../../core/lv_obj_style_gen.h **** {
  90:Drivers/lvgl/src/widgets/bar/../../core/lv_obj_style_gen.h ****     lv_style_value_t v = lv_obj_get_style_prop(obj, part, LV_STYLE_TRANSFORM_HEIGHT);
  91:Drivers/lvgl/src/widgets/bar/../../core/lv_obj_style_gen.h ****     return (int32_t)v.num;
  92:Drivers/lvgl/src/widgets/bar/../../core/lv_obj_style_gen.h **** }
  93:Drivers/lvgl/src/widgets/bar/../../core/lv_obj_style_gen.h **** 
  94:Drivers/lvgl/src/widgets/bar/../../core/lv_obj_style_gen.h **** static inline int32_t lv_obj_get_style_translate_x(const lv_obj_t * obj, lv_part_t part)
  95:Drivers/lvgl/src/widgets/bar/../../core/lv_obj_style_gen.h **** {
  96:Drivers/lvgl/src/widgets/bar/../../core/lv_obj_style_gen.h ****     lv_style_value_t v = lv_obj_get_style_prop(obj, part, LV_STYLE_TRANSLATE_X);
  97:Drivers/lvgl/src/widgets/bar/../../core/lv_obj_style_gen.h ****     return (int32_t)v.num;
  98:Drivers/lvgl/src/widgets/bar/../../core/lv_obj_style_gen.h **** }
  99:Drivers/lvgl/src/widgets/bar/../../core/lv_obj_style_gen.h **** 
 100:Drivers/lvgl/src/widgets/bar/../../core/lv_obj_style_gen.h **** static inline int32_t lv_obj_get_style_translate_y(const lv_obj_t * obj, lv_part_t part)
 101:Drivers/lvgl/src/widgets/bar/../../core/lv_obj_style_gen.h **** {
 102:Drivers/lvgl/src/widgets/bar/../../core/lv_obj_style_gen.h ****     lv_style_value_t v = lv_obj_get_style_prop(obj, part, LV_STYLE_TRANSLATE_Y);
 103:Drivers/lvgl/src/widgets/bar/../../core/lv_obj_style_gen.h ****     return (int32_t)v.num;
 104:Drivers/lvgl/src/widgets/bar/../../core/lv_obj_style_gen.h **** }
 105:Drivers/lvgl/src/widgets/bar/../../core/lv_obj_style_gen.h **** 
 106:Drivers/lvgl/src/widgets/bar/../../core/lv_obj_style_gen.h **** static inline int32_t lv_obj_get_style_translate_radial(const lv_obj_t * obj, lv_part_t part)
 107:Drivers/lvgl/src/widgets/bar/../../core/lv_obj_style_gen.h **** {
 108:Drivers/lvgl/src/widgets/bar/../../core/lv_obj_style_gen.h ****     lv_style_value_t v = lv_obj_get_style_prop(obj, part, LV_STYLE_TRANSLATE_RADIAL);
 109:Drivers/lvgl/src/widgets/bar/../../core/lv_obj_style_gen.h ****     return (int32_t)v.num;
 110:Drivers/lvgl/src/widgets/bar/../../core/lv_obj_style_gen.h **** }
 111:Drivers/lvgl/src/widgets/bar/../../core/lv_obj_style_gen.h **** 
 112:Drivers/lvgl/src/widgets/bar/../../core/lv_obj_style_gen.h **** static inline int32_t lv_obj_get_style_transform_scale_x(const lv_obj_t * obj, lv_part_t part)
 113:Drivers/lvgl/src/widgets/bar/../../core/lv_obj_style_gen.h **** {
ARM GAS  /var/folders/qx/2_175_4n2s19vhvtspjhb3qh0000gn/T//cchuAKlx.s 			page 23


 114:Drivers/lvgl/src/widgets/bar/../../core/lv_obj_style_gen.h ****     lv_style_value_t v = lv_obj_get_style_prop(obj, part, LV_STYLE_TRANSFORM_SCALE_X);
 115:Drivers/lvgl/src/widgets/bar/../../core/lv_obj_style_gen.h ****     return (int32_t)v.num;
 116:Drivers/lvgl/src/widgets/bar/../../core/lv_obj_style_gen.h **** }
 117:Drivers/lvgl/src/widgets/bar/../../core/lv_obj_style_gen.h **** 
 118:Drivers/lvgl/src/widgets/bar/../../core/lv_obj_style_gen.h **** static inline int32_t lv_obj_get_style_transform_scale_y(const lv_obj_t * obj, lv_part_t part)
 119:Drivers/lvgl/src/widgets/bar/../../core/lv_obj_style_gen.h **** {
 120:Drivers/lvgl/src/widgets/bar/../../core/lv_obj_style_gen.h ****     lv_style_value_t v = lv_obj_get_style_prop(obj, part, LV_STYLE_TRANSFORM_SCALE_Y);
 121:Drivers/lvgl/src/widgets/bar/../../core/lv_obj_style_gen.h ****     return (int32_t)v.num;
 122:Drivers/lvgl/src/widgets/bar/../../core/lv_obj_style_gen.h **** }
 123:Drivers/lvgl/src/widgets/bar/../../core/lv_obj_style_gen.h **** 
 124:Drivers/lvgl/src/widgets/bar/../../core/lv_obj_style_gen.h **** static inline int32_t lv_obj_get_style_transform_rotation(const lv_obj_t * obj, lv_part_t part)
 125:Drivers/lvgl/src/widgets/bar/../../core/lv_obj_style_gen.h **** {
 126:Drivers/lvgl/src/widgets/bar/../../core/lv_obj_style_gen.h ****     lv_style_value_t v = lv_obj_get_style_prop(obj, part, LV_STYLE_TRANSFORM_ROTATION);
 127:Drivers/lvgl/src/widgets/bar/../../core/lv_obj_style_gen.h ****     return (int32_t)v.num;
 128:Drivers/lvgl/src/widgets/bar/../../core/lv_obj_style_gen.h **** }
 129:Drivers/lvgl/src/widgets/bar/../../core/lv_obj_style_gen.h **** 
 130:Drivers/lvgl/src/widgets/bar/../../core/lv_obj_style_gen.h **** static inline int32_t lv_obj_get_style_transform_pivot_x(const lv_obj_t * obj, lv_part_t part)
 131:Drivers/lvgl/src/widgets/bar/../../core/lv_obj_style_gen.h **** {
 132:Drivers/lvgl/src/widgets/bar/../../core/lv_obj_style_gen.h ****     lv_style_value_t v = lv_obj_get_style_prop(obj, part, LV_STYLE_TRANSFORM_PIVOT_X);
 133:Drivers/lvgl/src/widgets/bar/../../core/lv_obj_style_gen.h ****     return (int32_t)v.num;
 134:Drivers/lvgl/src/widgets/bar/../../core/lv_obj_style_gen.h **** }
 135:Drivers/lvgl/src/widgets/bar/../../core/lv_obj_style_gen.h **** 
 136:Drivers/lvgl/src/widgets/bar/../../core/lv_obj_style_gen.h **** static inline int32_t lv_obj_get_style_transform_pivot_y(const lv_obj_t * obj, lv_part_t part)
 137:Drivers/lvgl/src/widgets/bar/../../core/lv_obj_style_gen.h **** {
 138:Drivers/lvgl/src/widgets/bar/../../core/lv_obj_style_gen.h ****     lv_style_value_t v = lv_obj_get_style_prop(obj, part, LV_STYLE_TRANSFORM_PIVOT_Y);
 139:Drivers/lvgl/src/widgets/bar/../../core/lv_obj_style_gen.h ****     return (int32_t)v.num;
 140:Drivers/lvgl/src/widgets/bar/../../core/lv_obj_style_gen.h **** }
 141:Drivers/lvgl/src/widgets/bar/../../core/lv_obj_style_gen.h **** 
 142:Drivers/lvgl/src/widgets/bar/../../core/lv_obj_style_gen.h **** static inline int32_t lv_obj_get_style_transform_skew_x(const lv_obj_t * obj, lv_part_t part)
 143:Drivers/lvgl/src/widgets/bar/../../core/lv_obj_style_gen.h **** {
 144:Drivers/lvgl/src/widgets/bar/../../core/lv_obj_style_gen.h ****     lv_style_value_t v = lv_obj_get_style_prop(obj, part, LV_STYLE_TRANSFORM_SKEW_X);
 145:Drivers/lvgl/src/widgets/bar/../../core/lv_obj_style_gen.h ****     return (int32_t)v.num;
 146:Drivers/lvgl/src/widgets/bar/../../core/lv_obj_style_gen.h **** }
 147:Drivers/lvgl/src/widgets/bar/../../core/lv_obj_style_gen.h **** 
 148:Drivers/lvgl/src/widgets/bar/../../core/lv_obj_style_gen.h **** static inline int32_t lv_obj_get_style_transform_skew_y(const lv_obj_t * obj, lv_part_t part)
 149:Drivers/lvgl/src/widgets/bar/../../core/lv_obj_style_gen.h **** {
 150:Drivers/lvgl/src/widgets/bar/../../core/lv_obj_style_gen.h ****     lv_style_value_t v = lv_obj_get_style_prop(obj, part, LV_STYLE_TRANSFORM_SKEW_Y);
 151:Drivers/lvgl/src/widgets/bar/../../core/lv_obj_style_gen.h ****     return (int32_t)v.num;
 152:Drivers/lvgl/src/widgets/bar/../../core/lv_obj_style_gen.h **** }
 153:Drivers/lvgl/src/widgets/bar/../../core/lv_obj_style_gen.h **** 
 154:Drivers/lvgl/src/widgets/bar/../../core/lv_obj_style_gen.h **** static inline int32_t lv_obj_get_style_pad_top(const lv_obj_t * obj, lv_part_t part)
 155:Drivers/lvgl/src/widgets/bar/../../core/lv_obj_style_gen.h **** {
 156:Drivers/lvgl/src/widgets/bar/../../core/lv_obj_style_gen.h ****     lv_style_value_t v = lv_obj_get_style_prop(obj, part, LV_STYLE_PAD_TOP);
 157:Drivers/lvgl/src/widgets/bar/../../core/lv_obj_style_gen.h ****     return (int32_t)v.num;
 158:Drivers/lvgl/src/widgets/bar/../../core/lv_obj_style_gen.h **** }
 159:Drivers/lvgl/src/widgets/bar/../../core/lv_obj_style_gen.h **** 
 160:Drivers/lvgl/src/widgets/bar/../../core/lv_obj_style_gen.h **** static inline int32_t lv_obj_get_style_pad_bottom(const lv_obj_t * obj, lv_part_t part)
 161:Drivers/lvgl/src/widgets/bar/../../core/lv_obj_style_gen.h **** {
 162:Drivers/lvgl/src/widgets/bar/../../core/lv_obj_style_gen.h ****     lv_style_value_t v = lv_obj_get_style_prop(obj, part, LV_STYLE_PAD_BOTTOM);
 163:Drivers/lvgl/src/widgets/bar/../../core/lv_obj_style_gen.h ****     return (int32_t)v.num;
 164:Drivers/lvgl/src/widgets/bar/../../core/lv_obj_style_gen.h **** }
 165:Drivers/lvgl/src/widgets/bar/../../core/lv_obj_style_gen.h **** 
 166:Drivers/lvgl/src/widgets/bar/../../core/lv_obj_style_gen.h **** static inline int32_t lv_obj_get_style_pad_left(const lv_obj_t * obj, lv_part_t part)
 167:Drivers/lvgl/src/widgets/bar/../../core/lv_obj_style_gen.h **** {
 168:Drivers/lvgl/src/widgets/bar/../../core/lv_obj_style_gen.h ****     lv_style_value_t v = lv_obj_get_style_prop(obj, part, LV_STYLE_PAD_LEFT);
 169:Drivers/lvgl/src/widgets/bar/../../core/lv_obj_style_gen.h ****     return (int32_t)v.num;
 170:Drivers/lvgl/src/widgets/bar/../../core/lv_obj_style_gen.h **** }
ARM GAS  /var/folders/qx/2_175_4n2s19vhvtspjhb3qh0000gn/T//cchuAKlx.s 			page 24


 171:Drivers/lvgl/src/widgets/bar/../../core/lv_obj_style_gen.h **** 
 172:Drivers/lvgl/src/widgets/bar/../../core/lv_obj_style_gen.h **** static inline int32_t lv_obj_get_style_pad_right(const lv_obj_t * obj, lv_part_t part)
 173:Drivers/lvgl/src/widgets/bar/../../core/lv_obj_style_gen.h **** {
 174:Drivers/lvgl/src/widgets/bar/../../core/lv_obj_style_gen.h ****     lv_style_value_t v = lv_obj_get_style_prop(obj, part, LV_STYLE_PAD_RIGHT);
 175:Drivers/lvgl/src/widgets/bar/../../core/lv_obj_style_gen.h ****     return (int32_t)v.num;
 176:Drivers/lvgl/src/widgets/bar/../../core/lv_obj_style_gen.h **** }
 177:Drivers/lvgl/src/widgets/bar/../../core/lv_obj_style_gen.h **** 
 178:Drivers/lvgl/src/widgets/bar/../../core/lv_obj_style_gen.h **** static inline int32_t lv_obj_get_style_pad_row(const lv_obj_t * obj, lv_part_t part)
 179:Drivers/lvgl/src/widgets/bar/../../core/lv_obj_style_gen.h **** {
 180:Drivers/lvgl/src/widgets/bar/../../core/lv_obj_style_gen.h ****     lv_style_value_t v = lv_obj_get_style_prop(obj, part, LV_STYLE_PAD_ROW);
 181:Drivers/lvgl/src/widgets/bar/../../core/lv_obj_style_gen.h ****     return (int32_t)v.num;
 182:Drivers/lvgl/src/widgets/bar/../../core/lv_obj_style_gen.h **** }
 183:Drivers/lvgl/src/widgets/bar/../../core/lv_obj_style_gen.h **** 
 184:Drivers/lvgl/src/widgets/bar/../../core/lv_obj_style_gen.h **** static inline int32_t lv_obj_get_style_pad_column(const lv_obj_t * obj, lv_part_t part)
 185:Drivers/lvgl/src/widgets/bar/../../core/lv_obj_style_gen.h **** {
 186:Drivers/lvgl/src/widgets/bar/../../core/lv_obj_style_gen.h ****     lv_style_value_t v = lv_obj_get_style_prop(obj, part, LV_STYLE_PAD_COLUMN);
 187:Drivers/lvgl/src/widgets/bar/../../core/lv_obj_style_gen.h ****     return (int32_t)v.num;
 188:Drivers/lvgl/src/widgets/bar/../../core/lv_obj_style_gen.h **** }
 189:Drivers/lvgl/src/widgets/bar/../../core/lv_obj_style_gen.h **** 
 190:Drivers/lvgl/src/widgets/bar/../../core/lv_obj_style_gen.h **** static inline int32_t lv_obj_get_style_pad_radial(const lv_obj_t * obj, lv_part_t part)
 191:Drivers/lvgl/src/widgets/bar/../../core/lv_obj_style_gen.h **** {
 192:Drivers/lvgl/src/widgets/bar/../../core/lv_obj_style_gen.h ****     lv_style_value_t v = lv_obj_get_style_prop(obj, part, LV_STYLE_PAD_RADIAL);
 193:Drivers/lvgl/src/widgets/bar/../../core/lv_obj_style_gen.h ****     return (int32_t)v.num;
 194:Drivers/lvgl/src/widgets/bar/../../core/lv_obj_style_gen.h **** }
 195:Drivers/lvgl/src/widgets/bar/../../core/lv_obj_style_gen.h **** 
 196:Drivers/lvgl/src/widgets/bar/../../core/lv_obj_style_gen.h **** static inline int32_t lv_obj_get_style_margin_top(const lv_obj_t * obj, lv_part_t part)
 197:Drivers/lvgl/src/widgets/bar/../../core/lv_obj_style_gen.h **** {
 198:Drivers/lvgl/src/widgets/bar/../../core/lv_obj_style_gen.h ****     lv_style_value_t v = lv_obj_get_style_prop(obj, part, LV_STYLE_MARGIN_TOP);
 199:Drivers/lvgl/src/widgets/bar/../../core/lv_obj_style_gen.h ****     return (int32_t)v.num;
 200:Drivers/lvgl/src/widgets/bar/../../core/lv_obj_style_gen.h **** }
 201:Drivers/lvgl/src/widgets/bar/../../core/lv_obj_style_gen.h **** 
 202:Drivers/lvgl/src/widgets/bar/../../core/lv_obj_style_gen.h **** static inline int32_t lv_obj_get_style_margin_bottom(const lv_obj_t * obj, lv_part_t part)
 203:Drivers/lvgl/src/widgets/bar/../../core/lv_obj_style_gen.h **** {
 204:Drivers/lvgl/src/widgets/bar/../../core/lv_obj_style_gen.h ****     lv_style_value_t v = lv_obj_get_style_prop(obj, part, LV_STYLE_MARGIN_BOTTOM);
 205:Drivers/lvgl/src/widgets/bar/../../core/lv_obj_style_gen.h ****     return (int32_t)v.num;
 206:Drivers/lvgl/src/widgets/bar/../../core/lv_obj_style_gen.h **** }
 207:Drivers/lvgl/src/widgets/bar/../../core/lv_obj_style_gen.h **** 
 208:Drivers/lvgl/src/widgets/bar/../../core/lv_obj_style_gen.h **** static inline int32_t lv_obj_get_style_margin_left(const lv_obj_t * obj, lv_part_t part)
 209:Drivers/lvgl/src/widgets/bar/../../core/lv_obj_style_gen.h **** {
 210:Drivers/lvgl/src/widgets/bar/../../core/lv_obj_style_gen.h ****     lv_style_value_t v = lv_obj_get_style_prop(obj, part, LV_STYLE_MARGIN_LEFT);
 211:Drivers/lvgl/src/widgets/bar/../../core/lv_obj_style_gen.h ****     return (int32_t)v.num;
 212:Drivers/lvgl/src/widgets/bar/../../core/lv_obj_style_gen.h **** }
 213:Drivers/lvgl/src/widgets/bar/../../core/lv_obj_style_gen.h **** 
 214:Drivers/lvgl/src/widgets/bar/../../core/lv_obj_style_gen.h **** static inline int32_t lv_obj_get_style_margin_right(const lv_obj_t * obj, lv_part_t part)
 215:Drivers/lvgl/src/widgets/bar/../../core/lv_obj_style_gen.h **** {
 216:Drivers/lvgl/src/widgets/bar/../../core/lv_obj_style_gen.h ****     lv_style_value_t v = lv_obj_get_style_prop(obj, part, LV_STYLE_MARGIN_RIGHT);
 217:Drivers/lvgl/src/widgets/bar/../../core/lv_obj_style_gen.h ****     return (int32_t)v.num;
 218:Drivers/lvgl/src/widgets/bar/../../core/lv_obj_style_gen.h **** }
 219:Drivers/lvgl/src/widgets/bar/../../core/lv_obj_style_gen.h **** 
 220:Drivers/lvgl/src/widgets/bar/../../core/lv_obj_style_gen.h **** static inline lv_color_t lv_obj_get_style_bg_color(const lv_obj_t * obj, lv_part_t part)
 221:Drivers/lvgl/src/widgets/bar/../../core/lv_obj_style_gen.h **** {
 222:Drivers/lvgl/src/widgets/bar/../../core/lv_obj_style_gen.h ****     lv_style_value_t v = lv_obj_get_style_prop(obj, part, LV_STYLE_BG_COLOR);
 223:Drivers/lvgl/src/widgets/bar/../../core/lv_obj_style_gen.h ****     return v.color;
 224:Drivers/lvgl/src/widgets/bar/../../core/lv_obj_style_gen.h **** }
 225:Drivers/lvgl/src/widgets/bar/../../core/lv_obj_style_gen.h **** 
 226:Drivers/lvgl/src/widgets/bar/../../core/lv_obj_style_gen.h **** static inline lv_color_t lv_obj_get_style_bg_color_filtered(const lv_obj_t * obj, lv_part_t part)
 227:Drivers/lvgl/src/widgets/bar/../../core/lv_obj_style_gen.h **** {
ARM GAS  /var/folders/qx/2_175_4n2s19vhvtspjhb3qh0000gn/T//cchuAKlx.s 			page 25


 228:Drivers/lvgl/src/widgets/bar/../../core/lv_obj_style_gen.h ****     lv_style_value_t v = lv_obj_style_apply_color_filter(obj, part, lv_obj_get_style_prop(obj, part
 229:Drivers/lvgl/src/widgets/bar/../../core/lv_obj_style_gen.h ****     return v.color;
 230:Drivers/lvgl/src/widgets/bar/../../core/lv_obj_style_gen.h **** }
 231:Drivers/lvgl/src/widgets/bar/../../core/lv_obj_style_gen.h **** 
 232:Drivers/lvgl/src/widgets/bar/../../core/lv_obj_style_gen.h **** static inline lv_opa_t lv_obj_get_style_bg_opa(const lv_obj_t * obj, lv_part_t part)
 233:Drivers/lvgl/src/widgets/bar/../../core/lv_obj_style_gen.h **** {
 234:Drivers/lvgl/src/widgets/bar/../../core/lv_obj_style_gen.h ****     lv_style_value_t v = lv_obj_get_style_prop(obj, part, LV_STYLE_BG_OPA);
 235:Drivers/lvgl/src/widgets/bar/../../core/lv_obj_style_gen.h ****     return (lv_opa_t)v.num;
 236:Drivers/lvgl/src/widgets/bar/../../core/lv_obj_style_gen.h **** }
 237:Drivers/lvgl/src/widgets/bar/../../core/lv_obj_style_gen.h **** 
 238:Drivers/lvgl/src/widgets/bar/../../core/lv_obj_style_gen.h **** static inline lv_color_t lv_obj_get_style_bg_grad_color(const lv_obj_t * obj, lv_part_t part)
 239:Drivers/lvgl/src/widgets/bar/../../core/lv_obj_style_gen.h **** {
 240:Drivers/lvgl/src/widgets/bar/../../core/lv_obj_style_gen.h ****     lv_style_value_t v = lv_obj_get_style_prop(obj, part, LV_STYLE_BG_GRAD_COLOR);
 241:Drivers/lvgl/src/widgets/bar/../../core/lv_obj_style_gen.h ****     return v.color;
 242:Drivers/lvgl/src/widgets/bar/../../core/lv_obj_style_gen.h **** }
 243:Drivers/lvgl/src/widgets/bar/../../core/lv_obj_style_gen.h **** 
 244:Drivers/lvgl/src/widgets/bar/../../core/lv_obj_style_gen.h **** static inline lv_color_t lv_obj_get_style_bg_grad_color_filtered(const lv_obj_t * obj, lv_part_t pa
 245:Drivers/lvgl/src/widgets/bar/../../core/lv_obj_style_gen.h **** {
 246:Drivers/lvgl/src/widgets/bar/../../core/lv_obj_style_gen.h ****     lv_style_value_t v = lv_obj_style_apply_color_filter(obj, part, lv_obj_get_style_prop(obj, part
 247:Drivers/lvgl/src/widgets/bar/../../core/lv_obj_style_gen.h ****                                                                                           LV_STYLE_
 248:Drivers/lvgl/src/widgets/bar/../../core/lv_obj_style_gen.h ****     return v.color;
 249:Drivers/lvgl/src/widgets/bar/../../core/lv_obj_style_gen.h **** }
 250:Drivers/lvgl/src/widgets/bar/../../core/lv_obj_style_gen.h **** 
 251:Drivers/lvgl/src/widgets/bar/../../core/lv_obj_style_gen.h **** static inline lv_grad_dir_t lv_obj_get_style_bg_grad_dir(const lv_obj_t * obj, lv_part_t part)
 252:Drivers/lvgl/src/widgets/bar/../../core/lv_obj_style_gen.h **** {
 253:Drivers/lvgl/src/widgets/bar/../../core/lv_obj_style_gen.h ****     lv_style_value_t v = lv_obj_get_style_prop(obj, part, LV_STYLE_BG_GRAD_DIR);
 254:Drivers/lvgl/src/widgets/bar/../../core/lv_obj_style_gen.h ****     return (lv_grad_dir_t)v.num;
 255:Drivers/lvgl/src/widgets/bar/../../core/lv_obj_style_gen.h **** }
 256:Drivers/lvgl/src/widgets/bar/../../core/lv_obj_style_gen.h **** 
 257:Drivers/lvgl/src/widgets/bar/../../core/lv_obj_style_gen.h **** static inline int32_t lv_obj_get_style_bg_main_stop(const lv_obj_t * obj, lv_part_t part)
 258:Drivers/lvgl/src/widgets/bar/../../core/lv_obj_style_gen.h **** {
 259:Drivers/lvgl/src/widgets/bar/../../core/lv_obj_style_gen.h ****     lv_style_value_t v = lv_obj_get_style_prop(obj, part, LV_STYLE_BG_MAIN_STOP);
 260:Drivers/lvgl/src/widgets/bar/../../core/lv_obj_style_gen.h ****     return (int32_t)v.num;
 261:Drivers/lvgl/src/widgets/bar/../../core/lv_obj_style_gen.h **** }
 262:Drivers/lvgl/src/widgets/bar/../../core/lv_obj_style_gen.h **** 
 263:Drivers/lvgl/src/widgets/bar/../../core/lv_obj_style_gen.h **** static inline int32_t lv_obj_get_style_bg_grad_stop(const lv_obj_t * obj, lv_part_t part)
 264:Drivers/lvgl/src/widgets/bar/../../core/lv_obj_style_gen.h **** {
 265:Drivers/lvgl/src/widgets/bar/../../core/lv_obj_style_gen.h ****     lv_style_value_t v = lv_obj_get_style_prop(obj, part, LV_STYLE_BG_GRAD_STOP);
 266:Drivers/lvgl/src/widgets/bar/../../core/lv_obj_style_gen.h ****     return (int32_t)v.num;
 267:Drivers/lvgl/src/widgets/bar/../../core/lv_obj_style_gen.h **** }
 268:Drivers/lvgl/src/widgets/bar/../../core/lv_obj_style_gen.h **** 
 269:Drivers/lvgl/src/widgets/bar/../../core/lv_obj_style_gen.h **** static inline lv_opa_t lv_obj_get_style_bg_main_opa(const lv_obj_t * obj, lv_part_t part)
 270:Drivers/lvgl/src/widgets/bar/../../core/lv_obj_style_gen.h **** {
 271:Drivers/lvgl/src/widgets/bar/../../core/lv_obj_style_gen.h ****     lv_style_value_t v = lv_obj_get_style_prop(obj, part, LV_STYLE_BG_MAIN_OPA);
 272:Drivers/lvgl/src/widgets/bar/../../core/lv_obj_style_gen.h ****     return (lv_opa_t)v.num;
 273:Drivers/lvgl/src/widgets/bar/../../core/lv_obj_style_gen.h **** }
 274:Drivers/lvgl/src/widgets/bar/../../core/lv_obj_style_gen.h **** 
 275:Drivers/lvgl/src/widgets/bar/../../core/lv_obj_style_gen.h **** static inline lv_opa_t lv_obj_get_style_bg_grad_opa(const lv_obj_t * obj, lv_part_t part)
 276:Drivers/lvgl/src/widgets/bar/../../core/lv_obj_style_gen.h **** {
 277:Drivers/lvgl/src/widgets/bar/../../core/lv_obj_style_gen.h ****     lv_style_value_t v = lv_obj_get_style_prop(obj, part, LV_STYLE_BG_GRAD_OPA);
 278:Drivers/lvgl/src/widgets/bar/../../core/lv_obj_style_gen.h ****     return (lv_opa_t)v.num;
 279:Drivers/lvgl/src/widgets/bar/../../core/lv_obj_style_gen.h **** }
 280:Drivers/lvgl/src/widgets/bar/../../core/lv_obj_style_gen.h **** 
 281:Drivers/lvgl/src/widgets/bar/../../core/lv_obj_style_gen.h **** static inline const lv_grad_dsc_t * lv_obj_get_style_bg_grad(const lv_obj_t * obj, lv_part_t part)
 282:Drivers/lvgl/src/widgets/bar/../../core/lv_obj_style_gen.h **** {
 283:Drivers/lvgl/src/widgets/bar/../../core/lv_obj_style_gen.h ****     lv_style_value_t v = lv_obj_get_style_prop(obj, part, LV_STYLE_BG_GRAD);
 284:Drivers/lvgl/src/widgets/bar/../../core/lv_obj_style_gen.h ****     return (const lv_grad_dsc_t *)v.ptr;
ARM GAS  /var/folders/qx/2_175_4n2s19vhvtspjhb3qh0000gn/T//cchuAKlx.s 			page 26


 285:Drivers/lvgl/src/widgets/bar/../../core/lv_obj_style_gen.h **** }
 286:Drivers/lvgl/src/widgets/bar/../../core/lv_obj_style_gen.h **** 
 287:Drivers/lvgl/src/widgets/bar/../../core/lv_obj_style_gen.h **** static inline const void * lv_obj_get_style_bg_image_src(const lv_obj_t * obj, lv_part_t part)
 288:Drivers/lvgl/src/widgets/bar/../../core/lv_obj_style_gen.h **** {
 289:Drivers/lvgl/src/widgets/bar/../../core/lv_obj_style_gen.h ****     lv_style_value_t v = lv_obj_get_style_prop(obj, part, LV_STYLE_BG_IMAGE_SRC);
 290:Drivers/lvgl/src/widgets/bar/../../core/lv_obj_style_gen.h ****     return (const void *)v.ptr;
 291:Drivers/lvgl/src/widgets/bar/../../core/lv_obj_style_gen.h **** }
 292:Drivers/lvgl/src/widgets/bar/../../core/lv_obj_style_gen.h **** 
 293:Drivers/lvgl/src/widgets/bar/../../core/lv_obj_style_gen.h **** static inline lv_opa_t lv_obj_get_style_bg_image_opa(const lv_obj_t * obj, lv_part_t part)
 294:Drivers/lvgl/src/widgets/bar/../../core/lv_obj_style_gen.h **** {
 295:Drivers/lvgl/src/widgets/bar/../../core/lv_obj_style_gen.h ****     lv_style_value_t v = lv_obj_get_style_prop(obj, part, LV_STYLE_BG_IMAGE_OPA);
 296:Drivers/lvgl/src/widgets/bar/../../core/lv_obj_style_gen.h ****     return (lv_opa_t)v.num;
 297:Drivers/lvgl/src/widgets/bar/../../core/lv_obj_style_gen.h **** }
 298:Drivers/lvgl/src/widgets/bar/../../core/lv_obj_style_gen.h **** 
 299:Drivers/lvgl/src/widgets/bar/../../core/lv_obj_style_gen.h **** static inline lv_color_t lv_obj_get_style_bg_image_recolor(const lv_obj_t * obj, lv_part_t part)
 300:Drivers/lvgl/src/widgets/bar/../../core/lv_obj_style_gen.h **** {
 301:Drivers/lvgl/src/widgets/bar/../../core/lv_obj_style_gen.h ****     lv_style_value_t v = lv_obj_get_style_prop(obj, part, LV_STYLE_BG_IMAGE_RECOLOR);
 302:Drivers/lvgl/src/widgets/bar/../../core/lv_obj_style_gen.h ****     return v.color;
 303:Drivers/lvgl/src/widgets/bar/../../core/lv_obj_style_gen.h **** }
 304:Drivers/lvgl/src/widgets/bar/../../core/lv_obj_style_gen.h **** 
 305:Drivers/lvgl/src/widgets/bar/../../core/lv_obj_style_gen.h **** static inline lv_color_t lv_obj_get_style_bg_image_recolor_filtered(const lv_obj_t * obj, lv_part_t
 306:Drivers/lvgl/src/widgets/bar/../../core/lv_obj_style_gen.h **** {
 307:Drivers/lvgl/src/widgets/bar/../../core/lv_obj_style_gen.h ****     lv_style_value_t v = lv_obj_style_apply_color_filter(obj, part, lv_obj_get_style_prop(obj, part
 308:Drivers/lvgl/src/widgets/bar/../../core/lv_obj_style_gen.h ****                                                                                           LV_STYLE_
 309:Drivers/lvgl/src/widgets/bar/../../core/lv_obj_style_gen.h ****     return v.color;
 310:Drivers/lvgl/src/widgets/bar/../../core/lv_obj_style_gen.h **** }
 311:Drivers/lvgl/src/widgets/bar/../../core/lv_obj_style_gen.h **** 
 312:Drivers/lvgl/src/widgets/bar/../../core/lv_obj_style_gen.h **** static inline lv_opa_t lv_obj_get_style_bg_image_recolor_opa(const lv_obj_t * obj, lv_part_t part)
 313:Drivers/lvgl/src/widgets/bar/../../core/lv_obj_style_gen.h **** {
 314:Drivers/lvgl/src/widgets/bar/../../core/lv_obj_style_gen.h ****     lv_style_value_t v = lv_obj_get_style_prop(obj, part, LV_STYLE_BG_IMAGE_RECOLOR_OPA);
 315:Drivers/lvgl/src/widgets/bar/../../core/lv_obj_style_gen.h ****     return (lv_opa_t)v.num;
 316:Drivers/lvgl/src/widgets/bar/../../core/lv_obj_style_gen.h **** }
 317:Drivers/lvgl/src/widgets/bar/../../core/lv_obj_style_gen.h **** 
 318:Drivers/lvgl/src/widgets/bar/../../core/lv_obj_style_gen.h **** static inline bool lv_obj_get_style_bg_image_tiled(const lv_obj_t * obj, lv_part_t part)
 319:Drivers/lvgl/src/widgets/bar/../../core/lv_obj_style_gen.h **** {
 320:Drivers/lvgl/src/widgets/bar/../../core/lv_obj_style_gen.h ****     lv_style_value_t v = lv_obj_get_style_prop(obj, part, LV_STYLE_BG_IMAGE_TILED);
 321:Drivers/lvgl/src/widgets/bar/../../core/lv_obj_style_gen.h ****     return (bool)v.num;
 322:Drivers/lvgl/src/widgets/bar/../../core/lv_obj_style_gen.h **** }
 323:Drivers/lvgl/src/widgets/bar/../../core/lv_obj_style_gen.h **** 
 324:Drivers/lvgl/src/widgets/bar/../../core/lv_obj_style_gen.h **** static inline lv_color_t lv_obj_get_style_border_color(const lv_obj_t * obj, lv_part_t part)
 325:Drivers/lvgl/src/widgets/bar/../../core/lv_obj_style_gen.h **** {
 326:Drivers/lvgl/src/widgets/bar/../../core/lv_obj_style_gen.h ****     lv_style_value_t v = lv_obj_get_style_prop(obj, part, LV_STYLE_BORDER_COLOR);
 327:Drivers/lvgl/src/widgets/bar/../../core/lv_obj_style_gen.h ****     return v.color;
 328:Drivers/lvgl/src/widgets/bar/../../core/lv_obj_style_gen.h **** }
 329:Drivers/lvgl/src/widgets/bar/../../core/lv_obj_style_gen.h **** 
 330:Drivers/lvgl/src/widgets/bar/../../core/lv_obj_style_gen.h **** static inline lv_color_t lv_obj_get_style_border_color_filtered(const lv_obj_t * obj, lv_part_t par
 331:Drivers/lvgl/src/widgets/bar/../../core/lv_obj_style_gen.h **** {
 332:Drivers/lvgl/src/widgets/bar/../../core/lv_obj_style_gen.h ****     lv_style_value_t v = lv_obj_style_apply_color_filter(obj, part, lv_obj_get_style_prop(obj, part
 333:Drivers/lvgl/src/widgets/bar/../../core/lv_obj_style_gen.h ****                                                                                           LV_STYLE_
 334:Drivers/lvgl/src/widgets/bar/../../core/lv_obj_style_gen.h ****     return v.color;
 335:Drivers/lvgl/src/widgets/bar/../../core/lv_obj_style_gen.h **** }
 336:Drivers/lvgl/src/widgets/bar/../../core/lv_obj_style_gen.h **** 
 337:Drivers/lvgl/src/widgets/bar/../../core/lv_obj_style_gen.h **** static inline lv_opa_t lv_obj_get_style_border_opa(const lv_obj_t * obj, lv_part_t part)
 338:Drivers/lvgl/src/widgets/bar/../../core/lv_obj_style_gen.h **** {
 339:Drivers/lvgl/src/widgets/bar/../../core/lv_obj_style_gen.h ****     lv_style_value_t v = lv_obj_get_style_prop(obj, part, LV_STYLE_BORDER_OPA);
 340:Drivers/lvgl/src/widgets/bar/../../core/lv_obj_style_gen.h ****     return (lv_opa_t)v.num;
 341:Drivers/lvgl/src/widgets/bar/../../core/lv_obj_style_gen.h **** }
ARM GAS  /var/folders/qx/2_175_4n2s19vhvtspjhb3qh0000gn/T//cchuAKlx.s 			page 27


 342:Drivers/lvgl/src/widgets/bar/../../core/lv_obj_style_gen.h **** 
 343:Drivers/lvgl/src/widgets/bar/../../core/lv_obj_style_gen.h **** static inline int32_t lv_obj_get_style_border_width(const lv_obj_t * obj, lv_part_t part)
 344:Drivers/lvgl/src/widgets/bar/../../core/lv_obj_style_gen.h **** {
 345:Drivers/lvgl/src/widgets/bar/../../core/lv_obj_style_gen.h ****     lv_style_value_t v = lv_obj_get_style_prop(obj, part, LV_STYLE_BORDER_WIDTH);
 346:Drivers/lvgl/src/widgets/bar/../../core/lv_obj_style_gen.h ****     return (int32_t)v.num;
 347:Drivers/lvgl/src/widgets/bar/../../core/lv_obj_style_gen.h **** }
 348:Drivers/lvgl/src/widgets/bar/../../core/lv_obj_style_gen.h **** 
 349:Drivers/lvgl/src/widgets/bar/../../core/lv_obj_style_gen.h **** static inline lv_border_side_t lv_obj_get_style_border_side(const lv_obj_t * obj, lv_part_t part)
 350:Drivers/lvgl/src/widgets/bar/../../core/lv_obj_style_gen.h **** {
 351:Drivers/lvgl/src/widgets/bar/../../core/lv_obj_style_gen.h ****     lv_style_value_t v = lv_obj_get_style_prop(obj, part, LV_STYLE_BORDER_SIDE);
 352:Drivers/lvgl/src/widgets/bar/../../core/lv_obj_style_gen.h ****     return (lv_border_side_t)v.num;
 353:Drivers/lvgl/src/widgets/bar/../../core/lv_obj_style_gen.h **** }
 354:Drivers/lvgl/src/widgets/bar/../../core/lv_obj_style_gen.h **** 
 355:Drivers/lvgl/src/widgets/bar/../../core/lv_obj_style_gen.h **** static inline bool lv_obj_get_style_border_post(const lv_obj_t * obj, lv_part_t part)
 356:Drivers/lvgl/src/widgets/bar/../../core/lv_obj_style_gen.h **** {
 357:Drivers/lvgl/src/widgets/bar/../../core/lv_obj_style_gen.h ****     lv_style_value_t v = lv_obj_get_style_prop(obj, part, LV_STYLE_BORDER_POST);
 358:Drivers/lvgl/src/widgets/bar/../../core/lv_obj_style_gen.h ****     return (bool)v.num;
 359:Drivers/lvgl/src/widgets/bar/../../core/lv_obj_style_gen.h **** }
 360:Drivers/lvgl/src/widgets/bar/../../core/lv_obj_style_gen.h **** 
 361:Drivers/lvgl/src/widgets/bar/../../core/lv_obj_style_gen.h **** static inline int32_t lv_obj_get_style_outline_width(const lv_obj_t * obj, lv_part_t part)
 362:Drivers/lvgl/src/widgets/bar/../../core/lv_obj_style_gen.h **** {
 363:Drivers/lvgl/src/widgets/bar/../../core/lv_obj_style_gen.h ****     lv_style_value_t v = lv_obj_get_style_prop(obj, part, LV_STYLE_OUTLINE_WIDTH);
 364:Drivers/lvgl/src/widgets/bar/../../core/lv_obj_style_gen.h ****     return (int32_t)v.num;
 365:Drivers/lvgl/src/widgets/bar/../../core/lv_obj_style_gen.h **** }
 366:Drivers/lvgl/src/widgets/bar/../../core/lv_obj_style_gen.h **** 
 367:Drivers/lvgl/src/widgets/bar/../../core/lv_obj_style_gen.h **** static inline lv_color_t lv_obj_get_style_outline_color(const lv_obj_t * obj, lv_part_t part)
 368:Drivers/lvgl/src/widgets/bar/../../core/lv_obj_style_gen.h **** {
 369:Drivers/lvgl/src/widgets/bar/../../core/lv_obj_style_gen.h ****     lv_style_value_t v = lv_obj_get_style_prop(obj, part, LV_STYLE_OUTLINE_COLOR);
 370:Drivers/lvgl/src/widgets/bar/../../core/lv_obj_style_gen.h ****     return v.color;
 371:Drivers/lvgl/src/widgets/bar/../../core/lv_obj_style_gen.h **** }
 372:Drivers/lvgl/src/widgets/bar/../../core/lv_obj_style_gen.h **** 
 373:Drivers/lvgl/src/widgets/bar/../../core/lv_obj_style_gen.h **** static inline lv_color_t lv_obj_get_style_outline_color_filtered(const lv_obj_t * obj, lv_part_t pa
 374:Drivers/lvgl/src/widgets/bar/../../core/lv_obj_style_gen.h **** {
 375:Drivers/lvgl/src/widgets/bar/../../core/lv_obj_style_gen.h ****     lv_style_value_t v = lv_obj_style_apply_color_filter(obj, part, lv_obj_get_style_prop(obj, part
 376:Drivers/lvgl/src/widgets/bar/../../core/lv_obj_style_gen.h ****                                                                                           LV_STYLE_
 377:Drivers/lvgl/src/widgets/bar/../../core/lv_obj_style_gen.h ****     return v.color;
 378:Drivers/lvgl/src/widgets/bar/../../core/lv_obj_style_gen.h **** }
 379:Drivers/lvgl/src/widgets/bar/../../core/lv_obj_style_gen.h **** 
 380:Drivers/lvgl/src/widgets/bar/../../core/lv_obj_style_gen.h **** static inline lv_opa_t lv_obj_get_style_outline_opa(const lv_obj_t * obj, lv_part_t part)
 381:Drivers/lvgl/src/widgets/bar/../../core/lv_obj_style_gen.h **** {
 382:Drivers/lvgl/src/widgets/bar/../../core/lv_obj_style_gen.h ****     lv_style_value_t v = lv_obj_get_style_prop(obj, part, LV_STYLE_OUTLINE_OPA);
 383:Drivers/lvgl/src/widgets/bar/../../core/lv_obj_style_gen.h ****     return (lv_opa_t)v.num;
 384:Drivers/lvgl/src/widgets/bar/../../core/lv_obj_style_gen.h **** }
 385:Drivers/lvgl/src/widgets/bar/../../core/lv_obj_style_gen.h **** 
 386:Drivers/lvgl/src/widgets/bar/../../core/lv_obj_style_gen.h **** static inline int32_t lv_obj_get_style_outline_pad(const lv_obj_t * obj, lv_part_t part)
 387:Drivers/lvgl/src/widgets/bar/../../core/lv_obj_style_gen.h **** {
 388:Drivers/lvgl/src/widgets/bar/../../core/lv_obj_style_gen.h ****     lv_style_value_t v = lv_obj_get_style_prop(obj, part, LV_STYLE_OUTLINE_PAD);
 389:Drivers/lvgl/src/widgets/bar/../../core/lv_obj_style_gen.h ****     return (int32_t)v.num;
 390:Drivers/lvgl/src/widgets/bar/../../core/lv_obj_style_gen.h **** }
 391:Drivers/lvgl/src/widgets/bar/../../core/lv_obj_style_gen.h **** 
 392:Drivers/lvgl/src/widgets/bar/../../core/lv_obj_style_gen.h **** static inline int32_t lv_obj_get_style_shadow_width(const lv_obj_t * obj, lv_part_t part)
 393:Drivers/lvgl/src/widgets/bar/../../core/lv_obj_style_gen.h **** {
 394:Drivers/lvgl/src/widgets/bar/../../core/lv_obj_style_gen.h ****     lv_style_value_t v = lv_obj_get_style_prop(obj, part, LV_STYLE_SHADOW_WIDTH);
 395:Drivers/lvgl/src/widgets/bar/../../core/lv_obj_style_gen.h ****     return (int32_t)v.num;
 396:Drivers/lvgl/src/widgets/bar/../../core/lv_obj_style_gen.h **** }
 397:Drivers/lvgl/src/widgets/bar/../../core/lv_obj_style_gen.h **** 
 398:Drivers/lvgl/src/widgets/bar/../../core/lv_obj_style_gen.h **** static inline int32_t lv_obj_get_style_shadow_offset_x(const lv_obj_t * obj, lv_part_t part)
ARM GAS  /var/folders/qx/2_175_4n2s19vhvtspjhb3qh0000gn/T//cchuAKlx.s 			page 28


 399:Drivers/lvgl/src/widgets/bar/../../core/lv_obj_style_gen.h **** {
 400:Drivers/lvgl/src/widgets/bar/../../core/lv_obj_style_gen.h ****     lv_style_value_t v = lv_obj_get_style_prop(obj, part, LV_STYLE_SHADOW_OFFSET_X);
 401:Drivers/lvgl/src/widgets/bar/../../core/lv_obj_style_gen.h ****     return (int32_t)v.num;
 402:Drivers/lvgl/src/widgets/bar/../../core/lv_obj_style_gen.h **** }
 403:Drivers/lvgl/src/widgets/bar/../../core/lv_obj_style_gen.h **** 
 404:Drivers/lvgl/src/widgets/bar/../../core/lv_obj_style_gen.h **** static inline int32_t lv_obj_get_style_shadow_offset_y(const lv_obj_t * obj, lv_part_t part)
 405:Drivers/lvgl/src/widgets/bar/../../core/lv_obj_style_gen.h **** {
 406:Drivers/lvgl/src/widgets/bar/../../core/lv_obj_style_gen.h ****     lv_style_value_t v = lv_obj_get_style_prop(obj, part, LV_STYLE_SHADOW_OFFSET_Y);
 407:Drivers/lvgl/src/widgets/bar/../../core/lv_obj_style_gen.h ****     return (int32_t)v.num;
 408:Drivers/lvgl/src/widgets/bar/../../core/lv_obj_style_gen.h **** }
 409:Drivers/lvgl/src/widgets/bar/../../core/lv_obj_style_gen.h **** 
 410:Drivers/lvgl/src/widgets/bar/../../core/lv_obj_style_gen.h **** static inline int32_t lv_obj_get_style_shadow_spread(const lv_obj_t * obj, lv_part_t part)
 411:Drivers/lvgl/src/widgets/bar/../../core/lv_obj_style_gen.h **** {
 412:Drivers/lvgl/src/widgets/bar/../../core/lv_obj_style_gen.h ****     lv_style_value_t v = lv_obj_get_style_prop(obj, part, LV_STYLE_SHADOW_SPREAD);
 413:Drivers/lvgl/src/widgets/bar/../../core/lv_obj_style_gen.h ****     return (int32_t)v.num;
 414:Drivers/lvgl/src/widgets/bar/../../core/lv_obj_style_gen.h **** }
 415:Drivers/lvgl/src/widgets/bar/../../core/lv_obj_style_gen.h **** 
 416:Drivers/lvgl/src/widgets/bar/../../core/lv_obj_style_gen.h **** static inline lv_color_t lv_obj_get_style_shadow_color(const lv_obj_t * obj, lv_part_t part)
 417:Drivers/lvgl/src/widgets/bar/../../core/lv_obj_style_gen.h **** {
 418:Drivers/lvgl/src/widgets/bar/../../core/lv_obj_style_gen.h ****     lv_style_value_t v = lv_obj_get_style_prop(obj, part, LV_STYLE_SHADOW_COLOR);
 419:Drivers/lvgl/src/widgets/bar/../../core/lv_obj_style_gen.h ****     return v.color;
 420:Drivers/lvgl/src/widgets/bar/../../core/lv_obj_style_gen.h **** }
 421:Drivers/lvgl/src/widgets/bar/../../core/lv_obj_style_gen.h **** 
 422:Drivers/lvgl/src/widgets/bar/../../core/lv_obj_style_gen.h **** static inline lv_color_t lv_obj_get_style_shadow_color_filtered(const lv_obj_t * obj, lv_part_t par
 423:Drivers/lvgl/src/widgets/bar/../../core/lv_obj_style_gen.h **** {
 424:Drivers/lvgl/src/widgets/bar/../../core/lv_obj_style_gen.h ****     lv_style_value_t v = lv_obj_style_apply_color_filter(obj, part, lv_obj_get_style_prop(obj, part
 425:Drivers/lvgl/src/widgets/bar/../../core/lv_obj_style_gen.h ****                                                                                           LV_STYLE_
 426:Drivers/lvgl/src/widgets/bar/../../core/lv_obj_style_gen.h ****     return v.color;
 427:Drivers/lvgl/src/widgets/bar/../../core/lv_obj_style_gen.h **** }
 428:Drivers/lvgl/src/widgets/bar/../../core/lv_obj_style_gen.h **** 
 429:Drivers/lvgl/src/widgets/bar/../../core/lv_obj_style_gen.h **** static inline lv_opa_t lv_obj_get_style_shadow_opa(const lv_obj_t * obj, lv_part_t part)
 430:Drivers/lvgl/src/widgets/bar/../../core/lv_obj_style_gen.h **** {
 431:Drivers/lvgl/src/widgets/bar/../../core/lv_obj_style_gen.h ****     lv_style_value_t v = lv_obj_get_style_prop(obj, part, LV_STYLE_SHADOW_OPA);
 432:Drivers/lvgl/src/widgets/bar/../../core/lv_obj_style_gen.h ****     return (lv_opa_t)v.num;
 433:Drivers/lvgl/src/widgets/bar/../../core/lv_obj_style_gen.h **** }
 434:Drivers/lvgl/src/widgets/bar/../../core/lv_obj_style_gen.h **** 
 435:Drivers/lvgl/src/widgets/bar/../../core/lv_obj_style_gen.h **** static inline lv_opa_t lv_obj_get_style_image_opa(const lv_obj_t * obj, lv_part_t part)
 436:Drivers/lvgl/src/widgets/bar/../../core/lv_obj_style_gen.h **** {
 437:Drivers/lvgl/src/widgets/bar/../../core/lv_obj_style_gen.h ****     lv_style_value_t v = lv_obj_get_style_prop(obj, part, LV_STYLE_IMAGE_OPA);
 438:Drivers/lvgl/src/widgets/bar/../../core/lv_obj_style_gen.h ****     return (lv_opa_t)v.num;
 439:Drivers/lvgl/src/widgets/bar/../../core/lv_obj_style_gen.h **** }
 440:Drivers/lvgl/src/widgets/bar/../../core/lv_obj_style_gen.h **** 
 441:Drivers/lvgl/src/widgets/bar/../../core/lv_obj_style_gen.h **** static inline lv_color_t lv_obj_get_style_image_recolor(const lv_obj_t * obj, lv_part_t part)
 442:Drivers/lvgl/src/widgets/bar/../../core/lv_obj_style_gen.h **** {
 443:Drivers/lvgl/src/widgets/bar/../../core/lv_obj_style_gen.h ****     lv_style_value_t v = lv_obj_get_style_prop(obj, part, LV_STYLE_IMAGE_RECOLOR);
 444:Drivers/lvgl/src/widgets/bar/../../core/lv_obj_style_gen.h ****     return v.color;
 445:Drivers/lvgl/src/widgets/bar/../../core/lv_obj_style_gen.h **** }
 446:Drivers/lvgl/src/widgets/bar/../../core/lv_obj_style_gen.h **** 
 447:Drivers/lvgl/src/widgets/bar/../../core/lv_obj_style_gen.h **** static inline lv_color_t lv_obj_get_style_image_recolor_filtered(const lv_obj_t * obj, lv_part_t pa
 448:Drivers/lvgl/src/widgets/bar/../../core/lv_obj_style_gen.h **** {
 449:Drivers/lvgl/src/widgets/bar/../../core/lv_obj_style_gen.h ****     lv_style_value_t v = lv_obj_style_apply_color_filter(obj, part, lv_obj_get_style_prop(obj, part
 450:Drivers/lvgl/src/widgets/bar/../../core/lv_obj_style_gen.h ****                                                                                           LV_STYLE_
 451:Drivers/lvgl/src/widgets/bar/../../core/lv_obj_style_gen.h ****     return v.color;
 452:Drivers/lvgl/src/widgets/bar/../../core/lv_obj_style_gen.h **** }
 453:Drivers/lvgl/src/widgets/bar/../../core/lv_obj_style_gen.h **** 
 454:Drivers/lvgl/src/widgets/bar/../../core/lv_obj_style_gen.h **** static inline lv_opa_t lv_obj_get_style_image_recolor_opa(const lv_obj_t * obj, lv_part_t part)
 455:Drivers/lvgl/src/widgets/bar/../../core/lv_obj_style_gen.h **** {
ARM GAS  /var/folders/qx/2_175_4n2s19vhvtspjhb3qh0000gn/T//cchuAKlx.s 			page 29


 456:Drivers/lvgl/src/widgets/bar/../../core/lv_obj_style_gen.h ****     lv_style_value_t v = lv_obj_get_style_prop(obj, part, LV_STYLE_IMAGE_RECOLOR_OPA);
 457:Drivers/lvgl/src/widgets/bar/../../core/lv_obj_style_gen.h ****     return (lv_opa_t)v.num;
 458:Drivers/lvgl/src/widgets/bar/../../core/lv_obj_style_gen.h **** }
 459:Drivers/lvgl/src/widgets/bar/../../core/lv_obj_style_gen.h **** 
 460:Drivers/lvgl/src/widgets/bar/../../core/lv_obj_style_gen.h **** static inline const lv_image_colorkey_t * lv_obj_get_style_image_colorkey(const lv_obj_t * obj, lv_
 461:Drivers/lvgl/src/widgets/bar/../../core/lv_obj_style_gen.h **** {
 462:Drivers/lvgl/src/widgets/bar/../../core/lv_obj_style_gen.h ****     lv_style_value_t v = lv_obj_get_style_prop(obj, part, LV_STYLE_IMAGE_COLORKEY);
 463:Drivers/lvgl/src/widgets/bar/../../core/lv_obj_style_gen.h ****     return (const lv_image_colorkey_t *)v.ptr;
 464:Drivers/lvgl/src/widgets/bar/../../core/lv_obj_style_gen.h **** }
 465:Drivers/lvgl/src/widgets/bar/../../core/lv_obj_style_gen.h **** 
 466:Drivers/lvgl/src/widgets/bar/../../core/lv_obj_style_gen.h **** static inline int32_t lv_obj_get_style_line_width(const lv_obj_t * obj, lv_part_t part)
 467:Drivers/lvgl/src/widgets/bar/../../core/lv_obj_style_gen.h **** {
 468:Drivers/lvgl/src/widgets/bar/../../core/lv_obj_style_gen.h ****     lv_style_value_t v = lv_obj_get_style_prop(obj, part, LV_STYLE_LINE_WIDTH);
 469:Drivers/lvgl/src/widgets/bar/../../core/lv_obj_style_gen.h ****     return (int32_t)v.num;
 470:Drivers/lvgl/src/widgets/bar/../../core/lv_obj_style_gen.h **** }
 471:Drivers/lvgl/src/widgets/bar/../../core/lv_obj_style_gen.h **** 
 472:Drivers/lvgl/src/widgets/bar/../../core/lv_obj_style_gen.h **** static inline int32_t lv_obj_get_style_line_dash_width(const lv_obj_t * obj, lv_part_t part)
 473:Drivers/lvgl/src/widgets/bar/../../core/lv_obj_style_gen.h **** {
 474:Drivers/lvgl/src/widgets/bar/../../core/lv_obj_style_gen.h ****     lv_style_value_t v = lv_obj_get_style_prop(obj, part, LV_STYLE_LINE_DASH_WIDTH);
 475:Drivers/lvgl/src/widgets/bar/../../core/lv_obj_style_gen.h ****     return (int32_t)v.num;
 476:Drivers/lvgl/src/widgets/bar/../../core/lv_obj_style_gen.h **** }
 477:Drivers/lvgl/src/widgets/bar/../../core/lv_obj_style_gen.h **** 
 478:Drivers/lvgl/src/widgets/bar/../../core/lv_obj_style_gen.h **** static inline int32_t lv_obj_get_style_line_dash_gap(const lv_obj_t * obj, lv_part_t part)
 479:Drivers/lvgl/src/widgets/bar/../../core/lv_obj_style_gen.h **** {
 480:Drivers/lvgl/src/widgets/bar/../../core/lv_obj_style_gen.h ****     lv_style_value_t v = lv_obj_get_style_prop(obj, part, LV_STYLE_LINE_DASH_GAP);
 481:Drivers/lvgl/src/widgets/bar/../../core/lv_obj_style_gen.h ****     return (int32_t)v.num;
 482:Drivers/lvgl/src/widgets/bar/../../core/lv_obj_style_gen.h **** }
 483:Drivers/lvgl/src/widgets/bar/../../core/lv_obj_style_gen.h **** 
 484:Drivers/lvgl/src/widgets/bar/../../core/lv_obj_style_gen.h **** static inline bool lv_obj_get_style_line_rounded(const lv_obj_t * obj, lv_part_t part)
 485:Drivers/lvgl/src/widgets/bar/../../core/lv_obj_style_gen.h **** {
 486:Drivers/lvgl/src/widgets/bar/../../core/lv_obj_style_gen.h ****     lv_style_value_t v = lv_obj_get_style_prop(obj, part, LV_STYLE_LINE_ROUNDED);
 487:Drivers/lvgl/src/widgets/bar/../../core/lv_obj_style_gen.h ****     return (bool)v.num;
 488:Drivers/lvgl/src/widgets/bar/../../core/lv_obj_style_gen.h **** }
 489:Drivers/lvgl/src/widgets/bar/../../core/lv_obj_style_gen.h **** 
 490:Drivers/lvgl/src/widgets/bar/../../core/lv_obj_style_gen.h **** static inline lv_color_t lv_obj_get_style_line_color(const lv_obj_t * obj, lv_part_t part)
 491:Drivers/lvgl/src/widgets/bar/../../core/lv_obj_style_gen.h **** {
 492:Drivers/lvgl/src/widgets/bar/../../core/lv_obj_style_gen.h ****     lv_style_value_t v = lv_obj_get_style_prop(obj, part, LV_STYLE_LINE_COLOR);
 493:Drivers/lvgl/src/widgets/bar/../../core/lv_obj_style_gen.h ****     return v.color;
 494:Drivers/lvgl/src/widgets/bar/../../core/lv_obj_style_gen.h **** }
 495:Drivers/lvgl/src/widgets/bar/../../core/lv_obj_style_gen.h **** 
 496:Drivers/lvgl/src/widgets/bar/../../core/lv_obj_style_gen.h **** static inline lv_color_t lv_obj_get_style_line_color_filtered(const lv_obj_t * obj, lv_part_t part)
 497:Drivers/lvgl/src/widgets/bar/../../core/lv_obj_style_gen.h **** {
 498:Drivers/lvgl/src/widgets/bar/../../core/lv_obj_style_gen.h ****     lv_style_value_t v = lv_obj_style_apply_color_filter(obj, part, lv_obj_get_style_prop(obj, part
 499:Drivers/lvgl/src/widgets/bar/../../core/lv_obj_style_gen.h ****     return v.color;
 500:Drivers/lvgl/src/widgets/bar/../../core/lv_obj_style_gen.h **** }
 501:Drivers/lvgl/src/widgets/bar/../../core/lv_obj_style_gen.h **** 
 502:Drivers/lvgl/src/widgets/bar/../../core/lv_obj_style_gen.h **** static inline lv_opa_t lv_obj_get_style_line_opa(const lv_obj_t * obj, lv_part_t part)
 503:Drivers/lvgl/src/widgets/bar/../../core/lv_obj_style_gen.h **** {
 504:Drivers/lvgl/src/widgets/bar/../../core/lv_obj_style_gen.h ****     lv_style_value_t v = lv_obj_get_style_prop(obj, part, LV_STYLE_LINE_OPA);
 505:Drivers/lvgl/src/widgets/bar/../../core/lv_obj_style_gen.h ****     return (lv_opa_t)v.num;
 506:Drivers/lvgl/src/widgets/bar/../../core/lv_obj_style_gen.h **** }
 507:Drivers/lvgl/src/widgets/bar/../../core/lv_obj_style_gen.h **** 
 508:Drivers/lvgl/src/widgets/bar/../../core/lv_obj_style_gen.h **** static inline int32_t lv_obj_get_style_arc_width(const lv_obj_t * obj, lv_part_t part)
 509:Drivers/lvgl/src/widgets/bar/../../core/lv_obj_style_gen.h **** {
 510:Drivers/lvgl/src/widgets/bar/../../core/lv_obj_style_gen.h ****     lv_style_value_t v = lv_obj_get_style_prop(obj, part, LV_STYLE_ARC_WIDTH);
 511:Drivers/lvgl/src/widgets/bar/../../core/lv_obj_style_gen.h ****     return (int32_t)v.num;
 512:Drivers/lvgl/src/widgets/bar/../../core/lv_obj_style_gen.h **** }
ARM GAS  /var/folders/qx/2_175_4n2s19vhvtspjhb3qh0000gn/T//cchuAKlx.s 			page 30


 513:Drivers/lvgl/src/widgets/bar/../../core/lv_obj_style_gen.h **** 
 514:Drivers/lvgl/src/widgets/bar/../../core/lv_obj_style_gen.h **** static inline bool lv_obj_get_style_arc_rounded(const lv_obj_t * obj, lv_part_t part)
 515:Drivers/lvgl/src/widgets/bar/../../core/lv_obj_style_gen.h **** {
 516:Drivers/lvgl/src/widgets/bar/../../core/lv_obj_style_gen.h ****     lv_style_value_t v = lv_obj_get_style_prop(obj, part, LV_STYLE_ARC_ROUNDED);
 517:Drivers/lvgl/src/widgets/bar/../../core/lv_obj_style_gen.h ****     return (bool)v.num;
 518:Drivers/lvgl/src/widgets/bar/../../core/lv_obj_style_gen.h **** }
 519:Drivers/lvgl/src/widgets/bar/../../core/lv_obj_style_gen.h **** 
 520:Drivers/lvgl/src/widgets/bar/../../core/lv_obj_style_gen.h **** static inline lv_color_t lv_obj_get_style_arc_color(const lv_obj_t * obj, lv_part_t part)
 521:Drivers/lvgl/src/widgets/bar/../../core/lv_obj_style_gen.h **** {
 522:Drivers/lvgl/src/widgets/bar/../../core/lv_obj_style_gen.h ****     lv_style_value_t v = lv_obj_get_style_prop(obj, part, LV_STYLE_ARC_COLOR);
 523:Drivers/lvgl/src/widgets/bar/../../core/lv_obj_style_gen.h ****     return v.color;
 524:Drivers/lvgl/src/widgets/bar/../../core/lv_obj_style_gen.h **** }
 525:Drivers/lvgl/src/widgets/bar/../../core/lv_obj_style_gen.h **** 
 526:Drivers/lvgl/src/widgets/bar/../../core/lv_obj_style_gen.h **** static inline lv_color_t lv_obj_get_style_arc_color_filtered(const lv_obj_t * obj, lv_part_t part)
 527:Drivers/lvgl/src/widgets/bar/../../core/lv_obj_style_gen.h **** {
 528:Drivers/lvgl/src/widgets/bar/../../core/lv_obj_style_gen.h ****     lv_style_value_t v = lv_obj_style_apply_color_filter(obj, part, lv_obj_get_style_prop(obj, part
 529:Drivers/lvgl/src/widgets/bar/../../core/lv_obj_style_gen.h ****     return v.color;
 530:Drivers/lvgl/src/widgets/bar/../../core/lv_obj_style_gen.h **** }
 531:Drivers/lvgl/src/widgets/bar/../../core/lv_obj_style_gen.h **** 
 532:Drivers/lvgl/src/widgets/bar/../../core/lv_obj_style_gen.h **** static inline lv_opa_t lv_obj_get_style_arc_opa(const lv_obj_t * obj, lv_part_t part)
 533:Drivers/lvgl/src/widgets/bar/../../core/lv_obj_style_gen.h **** {
 534:Drivers/lvgl/src/widgets/bar/../../core/lv_obj_style_gen.h ****     lv_style_value_t v = lv_obj_get_style_prop(obj, part, LV_STYLE_ARC_OPA);
 535:Drivers/lvgl/src/widgets/bar/../../core/lv_obj_style_gen.h ****     return (lv_opa_t)v.num;
 536:Drivers/lvgl/src/widgets/bar/../../core/lv_obj_style_gen.h **** }
 537:Drivers/lvgl/src/widgets/bar/../../core/lv_obj_style_gen.h **** 
 538:Drivers/lvgl/src/widgets/bar/../../core/lv_obj_style_gen.h **** static inline const void * lv_obj_get_style_arc_image_src(const lv_obj_t * obj, lv_part_t part)
 539:Drivers/lvgl/src/widgets/bar/../../core/lv_obj_style_gen.h **** {
 540:Drivers/lvgl/src/widgets/bar/../../core/lv_obj_style_gen.h ****     lv_style_value_t v = lv_obj_get_style_prop(obj, part, LV_STYLE_ARC_IMAGE_SRC);
 541:Drivers/lvgl/src/widgets/bar/../../core/lv_obj_style_gen.h ****     return (const void *)v.ptr;
 542:Drivers/lvgl/src/widgets/bar/../../core/lv_obj_style_gen.h **** }
 543:Drivers/lvgl/src/widgets/bar/../../core/lv_obj_style_gen.h **** 
 544:Drivers/lvgl/src/widgets/bar/../../core/lv_obj_style_gen.h **** static inline lv_color_t lv_obj_get_style_text_color(const lv_obj_t * obj, lv_part_t part)
 545:Drivers/lvgl/src/widgets/bar/../../core/lv_obj_style_gen.h **** {
 546:Drivers/lvgl/src/widgets/bar/../../core/lv_obj_style_gen.h ****     lv_style_value_t v = lv_obj_get_style_prop(obj, part, LV_STYLE_TEXT_COLOR);
 547:Drivers/lvgl/src/widgets/bar/../../core/lv_obj_style_gen.h ****     return v.color;
 548:Drivers/lvgl/src/widgets/bar/../../core/lv_obj_style_gen.h **** }
 549:Drivers/lvgl/src/widgets/bar/../../core/lv_obj_style_gen.h **** 
 550:Drivers/lvgl/src/widgets/bar/../../core/lv_obj_style_gen.h **** static inline lv_color_t lv_obj_get_style_text_color_filtered(const lv_obj_t * obj, lv_part_t part)
 551:Drivers/lvgl/src/widgets/bar/../../core/lv_obj_style_gen.h **** {
 552:Drivers/lvgl/src/widgets/bar/../../core/lv_obj_style_gen.h ****     lv_style_value_t v = lv_obj_style_apply_color_filter(obj, part, lv_obj_get_style_prop(obj, part
 553:Drivers/lvgl/src/widgets/bar/../../core/lv_obj_style_gen.h ****     return v.color;
 554:Drivers/lvgl/src/widgets/bar/../../core/lv_obj_style_gen.h **** }
 555:Drivers/lvgl/src/widgets/bar/../../core/lv_obj_style_gen.h **** 
 556:Drivers/lvgl/src/widgets/bar/../../core/lv_obj_style_gen.h **** static inline lv_opa_t lv_obj_get_style_text_opa(const lv_obj_t * obj, lv_part_t part)
 557:Drivers/lvgl/src/widgets/bar/../../core/lv_obj_style_gen.h **** {
 558:Drivers/lvgl/src/widgets/bar/../../core/lv_obj_style_gen.h ****     lv_style_value_t v = lv_obj_get_style_prop(obj, part, LV_STYLE_TEXT_OPA);
 559:Drivers/lvgl/src/widgets/bar/../../core/lv_obj_style_gen.h ****     return (lv_opa_t)v.num;
 560:Drivers/lvgl/src/widgets/bar/../../core/lv_obj_style_gen.h **** }
 561:Drivers/lvgl/src/widgets/bar/../../core/lv_obj_style_gen.h **** 
 562:Drivers/lvgl/src/widgets/bar/../../core/lv_obj_style_gen.h **** static inline const lv_font_t * lv_obj_get_style_text_font(const lv_obj_t * obj, lv_part_t part)
 563:Drivers/lvgl/src/widgets/bar/../../core/lv_obj_style_gen.h **** {
 564:Drivers/lvgl/src/widgets/bar/../../core/lv_obj_style_gen.h ****     lv_style_value_t v = lv_obj_get_style_prop(obj, part, LV_STYLE_TEXT_FONT);
 565:Drivers/lvgl/src/widgets/bar/../../core/lv_obj_style_gen.h ****     return (const lv_font_t *)v.ptr;
 566:Drivers/lvgl/src/widgets/bar/../../core/lv_obj_style_gen.h **** }
 567:Drivers/lvgl/src/widgets/bar/../../core/lv_obj_style_gen.h **** 
 568:Drivers/lvgl/src/widgets/bar/../../core/lv_obj_style_gen.h **** static inline int32_t lv_obj_get_style_text_letter_space(const lv_obj_t * obj, lv_part_t part)
 569:Drivers/lvgl/src/widgets/bar/../../core/lv_obj_style_gen.h **** {
ARM GAS  /var/folders/qx/2_175_4n2s19vhvtspjhb3qh0000gn/T//cchuAKlx.s 			page 31


 570:Drivers/lvgl/src/widgets/bar/../../core/lv_obj_style_gen.h ****     lv_style_value_t v = lv_obj_get_style_prop(obj, part, LV_STYLE_TEXT_LETTER_SPACE);
 571:Drivers/lvgl/src/widgets/bar/../../core/lv_obj_style_gen.h ****     return (int32_t)v.num;
 572:Drivers/lvgl/src/widgets/bar/../../core/lv_obj_style_gen.h **** }
 573:Drivers/lvgl/src/widgets/bar/../../core/lv_obj_style_gen.h **** 
 574:Drivers/lvgl/src/widgets/bar/../../core/lv_obj_style_gen.h **** static inline int32_t lv_obj_get_style_text_line_space(const lv_obj_t * obj, lv_part_t part)
 575:Drivers/lvgl/src/widgets/bar/../../core/lv_obj_style_gen.h **** {
 576:Drivers/lvgl/src/widgets/bar/../../core/lv_obj_style_gen.h ****     lv_style_value_t v = lv_obj_get_style_prop(obj, part, LV_STYLE_TEXT_LINE_SPACE);
 577:Drivers/lvgl/src/widgets/bar/../../core/lv_obj_style_gen.h ****     return (int32_t)v.num;
 578:Drivers/lvgl/src/widgets/bar/../../core/lv_obj_style_gen.h **** }
 579:Drivers/lvgl/src/widgets/bar/../../core/lv_obj_style_gen.h **** 
 580:Drivers/lvgl/src/widgets/bar/../../core/lv_obj_style_gen.h **** static inline lv_text_decor_t lv_obj_get_style_text_decor(const lv_obj_t * obj, lv_part_t part)
 581:Drivers/lvgl/src/widgets/bar/../../core/lv_obj_style_gen.h **** {
 582:Drivers/lvgl/src/widgets/bar/../../core/lv_obj_style_gen.h ****     lv_style_value_t v = lv_obj_get_style_prop(obj, part, LV_STYLE_TEXT_DECOR);
 583:Drivers/lvgl/src/widgets/bar/../../core/lv_obj_style_gen.h ****     return (lv_text_decor_t)v.num;
 584:Drivers/lvgl/src/widgets/bar/../../core/lv_obj_style_gen.h **** }
 585:Drivers/lvgl/src/widgets/bar/../../core/lv_obj_style_gen.h **** 
 586:Drivers/lvgl/src/widgets/bar/../../core/lv_obj_style_gen.h **** static inline lv_text_align_t lv_obj_get_style_text_align(const lv_obj_t * obj, lv_part_t part)
 587:Drivers/lvgl/src/widgets/bar/../../core/lv_obj_style_gen.h **** {
 588:Drivers/lvgl/src/widgets/bar/../../core/lv_obj_style_gen.h ****     lv_style_value_t v = lv_obj_get_style_prop(obj, part, LV_STYLE_TEXT_ALIGN);
 589:Drivers/lvgl/src/widgets/bar/../../core/lv_obj_style_gen.h ****     return (lv_text_align_t)v.num;
 590:Drivers/lvgl/src/widgets/bar/../../core/lv_obj_style_gen.h **** }
 591:Drivers/lvgl/src/widgets/bar/../../core/lv_obj_style_gen.h **** 
 592:Drivers/lvgl/src/widgets/bar/../../core/lv_obj_style_gen.h **** static inline lv_color_t lv_obj_get_style_text_outline_stroke_color(const lv_obj_t * obj, lv_part_t
 593:Drivers/lvgl/src/widgets/bar/../../core/lv_obj_style_gen.h **** {
 594:Drivers/lvgl/src/widgets/bar/../../core/lv_obj_style_gen.h ****     lv_style_value_t v = lv_obj_get_style_prop(obj, part, LV_STYLE_TEXT_OUTLINE_STROKE_COLOR);
 595:Drivers/lvgl/src/widgets/bar/../../core/lv_obj_style_gen.h ****     return v.color;
 596:Drivers/lvgl/src/widgets/bar/../../core/lv_obj_style_gen.h **** }
 597:Drivers/lvgl/src/widgets/bar/../../core/lv_obj_style_gen.h **** 
 598:Drivers/lvgl/src/widgets/bar/../../core/lv_obj_style_gen.h **** static inline lv_color_t lv_obj_get_style_text_outline_stroke_color_filtered(const lv_obj_t * obj, 
 599:Drivers/lvgl/src/widgets/bar/../../core/lv_obj_style_gen.h **** {
 600:Drivers/lvgl/src/widgets/bar/../../core/lv_obj_style_gen.h ****     lv_style_value_t v = lv_obj_style_apply_color_filter(obj, part, lv_obj_get_style_prop(obj, part
 601:Drivers/lvgl/src/widgets/bar/../../core/lv_obj_style_gen.h ****                                                                                           LV_STYLE_
 602:Drivers/lvgl/src/widgets/bar/../../core/lv_obj_style_gen.h ****     return v.color;
 603:Drivers/lvgl/src/widgets/bar/../../core/lv_obj_style_gen.h **** }
 604:Drivers/lvgl/src/widgets/bar/../../core/lv_obj_style_gen.h **** 
 605:Drivers/lvgl/src/widgets/bar/../../core/lv_obj_style_gen.h **** static inline int32_t lv_obj_get_style_text_outline_stroke_width(const lv_obj_t * obj, lv_part_t pa
 606:Drivers/lvgl/src/widgets/bar/../../core/lv_obj_style_gen.h **** {
 607:Drivers/lvgl/src/widgets/bar/../../core/lv_obj_style_gen.h ****     lv_style_value_t v = lv_obj_get_style_prop(obj, part, LV_STYLE_TEXT_OUTLINE_STROKE_WIDTH);
 608:Drivers/lvgl/src/widgets/bar/../../core/lv_obj_style_gen.h ****     return (int32_t)v.num;
 609:Drivers/lvgl/src/widgets/bar/../../core/lv_obj_style_gen.h **** }
 610:Drivers/lvgl/src/widgets/bar/../../core/lv_obj_style_gen.h **** 
 611:Drivers/lvgl/src/widgets/bar/../../core/lv_obj_style_gen.h **** static inline lv_opa_t lv_obj_get_style_text_outline_stroke_opa(const lv_obj_t * obj, lv_part_t par
 612:Drivers/lvgl/src/widgets/bar/../../core/lv_obj_style_gen.h **** {
 613:Drivers/lvgl/src/widgets/bar/../../core/lv_obj_style_gen.h ****     lv_style_value_t v = lv_obj_get_style_prop(obj, part, LV_STYLE_TEXT_OUTLINE_STROKE_OPA);
 614:Drivers/lvgl/src/widgets/bar/../../core/lv_obj_style_gen.h ****     return (lv_opa_t)v.num;
 615:Drivers/lvgl/src/widgets/bar/../../core/lv_obj_style_gen.h **** }
 616:Drivers/lvgl/src/widgets/bar/../../core/lv_obj_style_gen.h **** 
 617:Drivers/lvgl/src/widgets/bar/../../core/lv_obj_style_gen.h **** static inline int32_t lv_obj_get_style_radius(const lv_obj_t * obj, lv_part_t part)
 618:Drivers/lvgl/src/widgets/bar/../../core/lv_obj_style_gen.h **** {
 619:Drivers/lvgl/src/widgets/bar/../../core/lv_obj_style_gen.h ****     lv_style_value_t v = lv_obj_get_style_prop(obj, part, LV_STYLE_RADIUS);
 620:Drivers/lvgl/src/widgets/bar/../../core/lv_obj_style_gen.h ****     return (int32_t)v.num;
 621:Drivers/lvgl/src/widgets/bar/../../core/lv_obj_style_gen.h **** }
 622:Drivers/lvgl/src/widgets/bar/../../core/lv_obj_style_gen.h **** 
 623:Drivers/lvgl/src/widgets/bar/../../core/lv_obj_style_gen.h **** static inline int32_t lv_obj_get_style_radial_offset(const lv_obj_t * obj, lv_part_t part)
 624:Drivers/lvgl/src/widgets/bar/../../core/lv_obj_style_gen.h **** {
 625:Drivers/lvgl/src/widgets/bar/../../core/lv_obj_style_gen.h ****     lv_style_value_t v = lv_obj_get_style_prop(obj, part, LV_STYLE_RADIAL_OFFSET);
 626:Drivers/lvgl/src/widgets/bar/../../core/lv_obj_style_gen.h ****     return (int32_t)v.num;
ARM GAS  /var/folders/qx/2_175_4n2s19vhvtspjhb3qh0000gn/T//cchuAKlx.s 			page 32


 627:Drivers/lvgl/src/widgets/bar/../../core/lv_obj_style_gen.h **** }
 628:Drivers/lvgl/src/widgets/bar/../../core/lv_obj_style_gen.h **** 
 629:Drivers/lvgl/src/widgets/bar/../../core/lv_obj_style_gen.h **** static inline bool lv_obj_get_style_clip_corner(const lv_obj_t * obj, lv_part_t part)
 630:Drivers/lvgl/src/widgets/bar/../../core/lv_obj_style_gen.h **** {
 631:Drivers/lvgl/src/widgets/bar/../../core/lv_obj_style_gen.h ****     lv_style_value_t v = lv_obj_get_style_prop(obj, part, LV_STYLE_CLIP_CORNER);
 632:Drivers/lvgl/src/widgets/bar/../../core/lv_obj_style_gen.h ****     return (bool)v.num;
 633:Drivers/lvgl/src/widgets/bar/../../core/lv_obj_style_gen.h **** }
 634:Drivers/lvgl/src/widgets/bar/../../core/lv_obj_style_gen.h **** 
 635:Drivers/lvgl/src/widgets/bar/../../core/lv_obj_style_gen.h **** static inline lv_opa_t lv_obj_get_style_opa(const lv_obj_t * obj, lv_part_t part)
 636:Drivers/lvgl/src/widgets/bar/../../core/lv_obj_style_gen.h **** {
 637:Drivers/lvgl/src/widgets/bar/../../core/lv_obj_style_gen.h ****     lv_style_value_t v = lv_obj_get_style_prop(obj, part, LV_STYLE_OPA);
 638:Drivers/lvgl/src/widgets/bar/../../core/lv_obj_style_gen.h ****     return (lv_opa_t)v.num;
 639:Drivers/lvgl/src/widgets/bar/../../core/lv_obj_style_gen.h **** }
 640:Drivers/lvgl/src/widgets/bar/../../core/lv_obj_style_gen.h **** 
 641:Drivers/lvgl/src/widgets/bar/../../core/lv_obj_style_gen.h **** static inline lv_opa_t lv_obj_get_style_opa_layered(const lv_obj_t * obj, lv_part_t part)
 642:Drivers/lvgl/src/widgets/bar/../../core/lv_obj_style_gen.h **** {
 643:Drivers/lvgl/src/widgets/bar/../../core/lv_obj_style_gen.h ****     lv_style_value_t v = lv_obj_get_style_prop(obj, part, LV_STYLE_OPA_LAYERED);
 644:Drivers/lvgl/src/widgets/bar/../../core/lv_obj_style_gen.h ****     return (lv_opa_t)v.num;
 645:Drivers/lvgl/src/widgets/bar/../../core/lv_obj_style_gen.h **** }
 646:Drivers/lvgl/src/widgets/bar/../../core/lv_obj_style_gen.h **** 
 647:Drivers/lvgl/src/widgets/bar/../../core/lv_obj_style_gen.h **** static inline const lv_color_filter_dsc_t * lv_obj_get_style_color_filter_dsc(const lv_obj_t * obj,
 648:Drivers/lvgl/src/widgets/bar/../../core/lv_obj_style_gen.h **** {
 649:Drivers/lvgl/src/widgets/bar/../../core/lv_obj_style_gen.h ****     lv_style_value_t v = lv_obj_get_style_prop(obj, part, LV_STYLE_COLOR_FILTER_DSC);
 650:Drivers/lvgl/src/widgets/bar/../../core/lv_obj_style_gen.h ****     return (const lv_color_filter_dsc_t *)v.ptr;
 651:Drivers/lvgl/src/widgets/bar/../../core/lv_obj_style_gen.h **** }
 652:Drivers/lvgl/src/widgets/bar/../../core/lv_obj_style_gen.h **** 
 653:Drivers/lvgl/src/widgets/bar/../../core/lv_obj_style_gen.h **** static inline lv_opa_t lv_obj_get_style_color_filter_opa(const lv_obj_t * obj, lv_part_t part)
 654:Drivers/lvgl/src/widgets/bar/../../core/lv_obj_style_gen.h **** {
 655:Drivers/lvgl/src/widgets/bar/../../core/lv_obj_style_gen.h ****     lv_style_value_t v = lv_obj_get_style_prop(obj, part, LV_STYLE_COLOR_FILTER_OPA);
 656:Drivers/lvgl/src/widgets/bar/../../core/lv_obj_style_gen.h ****     return (lv_opa_t)v.num;
 657:Drivers/lvgl/src/widgets/bar/../../core/lv_obj_style_gen.h **** }
 658:Drivers/lvgl/src/widgets/bar/../../core/lv_obj_style_gen.h **** 
 659:Drivers/lvgl/src/widgets/bar/../../core/lv_obj_style_gen.h **** static inline lv_color_t lv_obj_get_style_recolor(const lv_obj_t * obj, lv_part_t part)
 660:Drivers/lvgl/src/widgets/bar/../../core/lv_obj_style_gen.h **** {
 661:Drivers/lvgl/src/widgets/bar/../../core/lv_obj_style_gen.h ****     lv_style_value_t v = lv_obj_get_style_prop(obj, part, LV_STYLE_RECOLOR);
 662:Drivers/lvgl/src/widgets/bar/../../core/lv_obj_style_gen.h ****     return v.color;
 663:Drivers/lvgl/src/widgets/bar/../../core/lv_obj_style_gen.h **** }
 664:Drivers/lvgl/src/widgets/bar/../../core/lv_obj_style_gen.h **** 
 665:Drivers/lvgl/src/widgets/bar/../../core/lv_obj_style_gen.h **** static inline lv_opa_t lv_obj_get_style_recolor_opa(const lv_obj_t * obj, lv_part_t part)
 666:Drivers/lvgl/src/widgets/bar/../../core/lv_obj_style_gen.h **** {
 667:Drivers/lvgl/src/widgets/bar/../../core/lv_obj_style_gen.h ****     lv_style_value_t v = lv_obj_get_style_prop(obj, part, LV_STYLE_RECOLOR_OPA);
 668:Drivers/lvgl/src/widgets/bar/../../core/lv_obj_style_gen.h ****     return (lv_opa_t)v.num;
 669:Drivers/lvgl/src/widgets/bar/../../core/lv_obj_style_gen.h **** }
 670:Drivers/lvgl/src/widgets/bar/../../core/lv_obj_style_gen.h **** 
 671:Drivers/lvgl/src/widgets/bar/../../core/lv_obj_style_gen.h **** static inline int32_t lv_obj_get_style_blur_radius(const lv_obj_t * obj, lv_part_t part)
 672:Drivers/lvgl/src/widgets/bar/../../core/lv_obj_style_gen.h **** {
 673:Drivers/lvgl/src/widgets/bar/../../core/lv_obj_style_gen.h ****     lv_style_value_t v = lv_obj_get_style_prop(obj, part, LV_STYLE_BLUR_RADIUS);
 674:Drivers/lvgl/src/widgets/bar/../../core/lv_obj_style_gen.h ****     return (int32_t)v.num;
 675:Drivers/lvgl/src/widgets/bar/../../core/lv_obj_style_gen.h **** }
 676:Drivers/lvgl/src/widgets/bar/../../core/lv_obj_style_gen.h **** 
 677:Drivers/lvgl/src/widgets/bar/../../core/lv_obj_style_gen.h **** static inline bool lv_obj_get_style_blur_backdrop(const lv_obj_t * obj, lv_part_t part)
 678:Drivers/lvgl/src/widgets/bar/../../core/lv_obj_style_gen.h **** {
 679:Drivers/lvgl/src/widgets/bar/../../core/lv_obj_style_gen.h ****     lv_style_value_t v = lv_obj_get_style_prop(obj, part, LV_STYLE_BLUR_BACKDROP);
 680:Drivers/lvgl/src/widgets/bar/../../core/lv_obj_style_gen.h ****     return (bool)v.num;
 681:Drivers/lvgl/src/widgets/bar/../../core/lv_obj_style_gen.h **** }
 682:Drivers/lvgl/src/widgets/bar/../../core/lv_obj_style_gen.h **** 
 683:Drivers/lvgl/src/widgets/bar/../../core/lv_obj_style_gen.h **** static inline lv_blur_quality_t lv_obj_get_style_blur_quality(const lv_obj_t * obj, lv_part_t part)
ARM GAS  /var/folders/qx/2_175_4n2s19vhvtspjhb3qh0000gn/T//cchuAKlx.s 			page 33


 684:Drivers/lvgl/src/widgets/bar/../../core/lv_obj_style_gen.h **** {
 685:Drivers/lvgl/src/widgets/bar/../../core/lv_obj_style_gen.h ****     lv_style_value_t v = lv_obj_get_style_prop(obj, part, LV_STYLE_BLUR_QUALITY);
 686:Drivers/lvgl/src/widgets/bar/../../core/lv_obj_style_gen.h ****     return (lv_blur_quality_t)v.num;
 687:Drivers/lvgl/src/widgets/bar/../../core/lv_obj_style_gen.h **** }
 688:Drivers/lvgl/src/widgets/bar/../../core/lv_obj_style_gen.h **** 
 689:Drivers/lvgl/src/widgets/bar/../../core/lv_obj_style_gen.h **** static inline const lv_anim_t * lv_obj_get_style_anim(const lv_obj_t * obj, lv_part_t part)
 690:Drivers/lvgl/src/widgets/bar/../../core/lv_obj_style_gen.h **** {
 691:Drivers/lvgl/src/widgets/bar/../../core/lv_obj_style_gen.h ****     lv_style_value_t v = lv_obj_get_style_prop(obj, part, LV_STYLE_ANIM);
 692:Drivers/lvgl/src/widgets/bar/../../core/lv_obj_style_gen.h ****     return (const lv_anim_t *)v.ptr;
 693:Drivers/lvgl/src/widgets/bar/../../core/lv_obj_style_gen.h **** }
 694:Drivers/lvgl/src/widgets/bar/../../core/lv_obj_style_gen.h **** 
 695:Drivers/lvgl/src/widgets/bar/../../core/lv_obj_style_gen.h **** static inline uint32_t lv_obj_get_style_anim_duration(const lv_obj_t * obj, lv_part_t part)
 297              		.loc 2 695 24 view .LVU77
 298              	.LBB47:
 696:Drivers/lvgl/src/widgets/bar/../../core/lv_obj_style_gen.h **** {
 697:Drivers/lvgl/src/widgets/bar/../../core/lv_obj_style_gen.h ****     lv_style_value_t v = lv_obj_get_style_prop(obj, part, LV_STYLE_ANIM_DURATION);
 299              		.loc 2 697 5 view .LVU78
 300              		.loc 2 697 26 is_stmt 0 view .LVU79
 301 0056 6722     		movs	r2, #103
 302 0058 0021     		movs	r1, #0
 303 005a 3046     		mov	r0, r6
 304 005c FFF7FEFF 		bl	lv_obj_get_style_prop
 305              	.LVL28:
 306 0060 0146     		mov	r1, r0
 307 0062 0190     		str	r0, [sp, #4]
 698:Drivers/lvgl/src/widgets/bar/../../core/lv_obj_style_gen.h ****     return (uint32_t)v.num;
 308              		.loc 2 698 5 is_stmt 1 view .LVU80
 309              	.LVL29:
 310              		.loc 2 698 5 is_stmt 0 view .LVU81
 311              	.LBE47:
 312              	.LBE46:
 776:Drivers/lvgl/src/widgets/bar/lv_bar.c ****         lv_anim_start(&a);
 313              		.loc 1 776 9 discriminator 1 view .LVU82
 314 0064 2846     		mov	r0, r5
 315 0066 FFF7FEFF 		bl	lv_anim_set_duration
 316              	.LVL30:
 777:Drivers/lvgl/src/widgets/bar/lv_bar.c ****     }
 317              		.loc 1 777 9 is_stmt 1 view .LVU83
 318 006a 2846     		mov	r0, r5
 319 006c FFF7FEFF 		bl	lv_anim_start
 320              	.LVL31:
 321              	.L12:
 777:Drivers/lvgl/src/widgets/bar/lv_bar.c ****     }
 322              		.loc 1 777 9 is_stmt 0 view .LVU84
 323              	.LBE45:
 779:Drivers/lvgl/src/widgets/bar/lv_bar.c **** 
 324              		.loc 1 779 1 view .LVU85
 325 0070 1BB0     		add	sp, sp, #108
 326              	.LCFI5:
 327              		.cfi_remember_state
 328              		.cfi_def_cfa_offset 20
 329              		@ sp needed
 330 0072 F0BD     		pop	{r4, r5, r6, r7, pc}
 331              	.LVL32:
 332              	.L18:
 333              	.LCFI6:
 334              		.cfi_restore_state
ARM GAS  /var/folders/qx/2_175_4n2s19vhvtspjhb3qh0000gn/T//cchuAKlx.s 			page 34


 745:Drivers/lvgl/src/widgets/bar/lv_bar.c ****         anim_info->anim_state = LV_BAR_ANIM_STATE_INV;
 335              		.loc 1 745 9 is_stmt 1 view .LVU86
 336 0074 0021     		movs	r1, #0
 337              	.LVL33:
 745:Drivers/lvgl/src/widgets/bar/lv_bar.c ****         anim_info->anim_state = LV_BAR_ANIM_STATE_INV;
 338              		.loc 1 745 9 is_stmt 0 view .LVU87
 339 0076 2046     		mov	r0, r4
 340              	.LVL34:
 745:Drivers/lvgl/src/widgets/bar/lv_bar.c ****         anim_info->anim_state = LV_BAR_ANIM_STATE_INV;
 341              		.loc 1 745 9 view .LVU88
 342 0078 FFF7FEFF 		bl	lv_anim_delete
 343              	.LVL35:
 746:Drivers/lvgl/src/widgets/bar/lv_bar.c ****         *value_ptr = new_value;
 344              		.loc 1 746 9 is_stmt 1 view .LVU89
 746:Drivers/lvgl/src/widgets/bar/lv_bar.c ****         *value_ptr = new_value;
 345              		.loc 1 746 31 is_stmt 0 view .LVU90
 346 007c 4FF0FF33 		mov	r3, #-1
 347 0080 E360     		str	r3, [r4, #12]
 747:Drivers/lvgl/src/widgets/bar/lv_bar.c ****         lv_obj_invalidate((lv_obj_t *)obj);
 348              		.loc 1 747 9 is_stmt 1 view .LVU91
 747:Drivers/lvgl/src/widgets/bar/lv_bar.c ****         lv_obj_invalidate((lv_obj_t *)obj);
 349              		.loc 1 747 20 is_stmt 0 view .LVU92
 350 0082 3D60     		str	r5, [r7]
 748:Drivers/lvgl/src/widgets/bar/lv_bar.c **** 
 351              		.loc 1 748 9 is_stmt 1 view .LVU93
 352 0084 3046     		mov	r0, r6
 353 0086 FFF7FEFF 		bl	lv_obj_invalidate
 354              	.LVL36:
 751:Drivers/lvgl/src/widgets/bar/lv_bar.c ****         /*Reset animation state*/
 355              		.loc 1 751 9 view .LVU94
 356 008a 0021     		movs	r1, #0
 357 008c 2046     		mov	r0, r4
 358 008e FFF7FEFF 		bl	lv_anim_delete
 359              	.LVL37:
 753:Drivers/lvgl/src/widgets/bar/lv_bar.c ****     }
 360              		.loc 1 753 9 view .LVU95
 361 0092 2146     		mov	r1, r4
 362 0094 3046     		mov	r0, r6
 363 0096 FFF7FEFF 		bl	lv_bar_init_anim
 364              	.LVL38:
 365 009a E9E7     		b	.L12
 366              	.LVL39:
 367              	.L19:
 368              	.LBB48:
 758:Drivers/lvgl/src/widgets/bar/lv_bar.c ****             anim_info->anim_end   = new_value;
 369              		.loc 1 758 13 view .LVU96
 758:Drivers/lvgl/src/widgets/bar/lv_bar.c ****             anim_info->anim_end   = new_value;
 370              		.loc 1 758 37 is_stmt 0 view .LVU97
 371 009c 1368     		ldr	r3, [r2]
 758:Drivers/lvgl/src/widgets/bar/lv_bar.c ****             anim_info->anim_end   = new_value;
 372              		.loc 1 758 35 view .LVU98
 373 009e 6360     		str	r3, [r4, #4]
 759:Drivers/lvgl/src/widgets/bar/lv_bar.c ****         }
 374              		.loc 1 759 13 is_stmt 1 view .LVU99
 759:Drivers/lvgl/src/widgets/bar/lv_bar.c ****         }
 375              		.loc 1 759 35 is_stmt 0 view .LVU100
 376 00a0 A160     		str	r1, [r4, #8]
ARM GAS  /var/folders/qx/2_175_4n2s19vhvtspjhb3qh0000gn/T//cchuAKlx.s 			page 35


 377 00a2 BDE7     		b	.L16
 378              	.L21:
 379              		.align	2
 380              	.L20:
 381 00a4 00000000 		.word	lv_bar_anim
 382 00a8 00000000 		.word	lv_bar_anim_completed
 383              	.LBE48:
 384              		.cfi_endproc
 385              	.LFE203:
 387              		.section	.text.lv_bar_create,"ax",%progbits
 388              		.align	1
 389              		.global	lv_bar_create
 390              		.syntax unified
 391              		.thumb
 392              		.thumb_func
 394              	lv_bar_create:
 395              	.LVL40:
 396              	.LFB181:
 131:Drivers/lvgl/src/widgets/bar/lv_bar.c ****     LV_LOG_INFO("begin");
 397              		.loc 1 131 1 is_stmt 1 view -0
 398              		.cfi_startproc
 399              		@ args = 0, pretend = 0, frame = 0
 400              		@ frame_needed = 0, uses_anonymous_args = 0
 131:Drivers/lvgl/src/widgets/bar/lv_bar.c ****     LV_LOG_INFO("begin");
 401              		.loc 1 131 1 is_stmt 0 view .LVU102
 402 0000 10B5     		push	{r4, lr}
 403              	.LCFI7:
 404              		.cfi_def_cfa_offset 8
 405              		.cfi_offset 4, -8
 406              		.cfi_offset 14, -4
 407 0002 0146     		mov	r1, r0
 132:Drivers/lvgl/src/widgets/bar/lv_bar.c ****     lv_obj_t * obj = lv_obj_class_create_obj(MY_CLASS, parent);
 408              		.loc 1 132 5 is_stmt 1 view .LVU103
 132:Drivers/lvgl/src/widgets/bar/lv_bar.c ****     lv_obj_t * obj = lv_obj_class_create_obj(MY_CLASS, parent);
 409              		.loc 1 132 5 view .LVU104
 132:Drivers/lvgl/src/widgets/bar/lv_bar.c ****     lv_obj_t * obj = lv_obj_class_create_obj(MY_CLASS, parent);
 410              		.loc 1 132 5 view .LVU105
 133:Drivers/lvgl/src/widgets/bar/lv_bar.c ****     lv_obj_class_init_obj(obj);
 411              		.loc 1 133 5 view .LVU106
 133:Drivers/lvgl/src/widgets/bar/lv_bar.c ****     lv_obj_class_init_obj(obj);
 412              		.loc 1 133 22 is_stmt 0 view .LVU107
 413 0004 0348     		ldr	r0, .L24
 414              	.LVL41:
 133:Drivers/lvgl/src/widgets/bar/lv_bar.c ****     lv_obj_class_init_obj(obj);
 415              		.loc 1 133 22 view .LVU108
 416 0006 FFF7FEFF 		bl	lv_obj_class_create_obj
 417              	.LVL42:
 133:Drivers/lvgl/src/widgets/bar/lv_bar.c ****     lv_obj_class_init_obj(obj);
 418              		.loc 1 133 22 view .LVU109
 419 000a 0446     		mov	r4, r0
 420              	.LVL43:
 134:Drivers/lvgl/src/widgets/bar/lv_bar.c ****     return obj;
 421              		.loc 1 134 5 is_stmt 1 view .LVU110
 422 000c FFF7FEFF 		bl	lv_obj_class_init_obj
 423              	.LVL44:
 135:Drivers/lvgl/src/widgets/bar/lv_bar.c **** }
 424              		.loc 1 135 5 view .LVU111
ARM GAS  /var/folders/qx/2_175_4n2s19vhvtspjhb3qh0000gn/T//cchuAKlx.s 			page 36


 136:Drivers/lvgl/src/widgets/bar/lv_bar.c **** 
 425              		.loc 1 136 1 is_stmt 0 view .LVU112
 426 0010 2046     		mov	r0, r4
 427 0012 10BD     		pop	{r4, pc}
 428              	.LVL45:
 429              	.L25:
 136:Drivers/lvgl/src/widgets/bar/lv_bar.c **** 
 430              		.loc 1 136 1 view .LVU113
 431              		.align	2
 432              	.L24:
 433 0014 00000000 		.word	lv_bar_class
 434              		.cfi_endproc
 435              	.LFE181:
 437              		.section	.text.lv_bar_set_value,"ax",%progbits
 438              		.align	1
 439              		.global	lv_bar_set_value
 440              		.syntax unified
 441              		.thumb
 442              		.thumb_func
 444              	lv_bar_set_value:
 445              	.LVL46:
 446              	.LFB182:
 143:Drivers/lvgl/src/widgets/bar/lv_bar.c ****     LV_ASSERT_OBJ(obj, MY_CLASS);
 447              		.loc 1 143 1 is_stmt 1 view -0
 448              		.cfi_startproc
 449              		@ args = 0, pretend = 0, frame = 0
 450              		@ frame_needed = 0, uses_anonymous_args = 0
 144:Drivers/lvgl/src/widgets/bar/lv_bar.c ****     lv_bar_t * bar = (lv_bar_t *)obj;
 451              		.loc 1 144 5 view .LVU115
 144:Drivers/lvgl/src/widgets/bar/lv_bar.c ****     lv_bar_t * bar = (lv_bar_t *)obj;
 452              		.loc 1 144 5 view .LVU116
 453 0000 00B3     		cbz	r0, .L28
 454 0002 8446     		mov	ip, r0
 144:Drivers/lvgl/src/widgets/bar/lv_bar.c ****     lv_bar_t * bar = (lv_bar_t *)obj;
 455              		.loc 1 144 5 view .LVU117
 144:Drivers/lvgl/src/widgets/bar/lv_bar.c ****     lv_bar_t * bar = (lv_bar_t *)obj;
 456              		.loc 1 144 33 view .LVU118
 145:Drivers/lvgl/src/widgets/bar/lv_bar.c **** 
 457              		.loc 1 145 5 view .LVU119
 458              	.LVL47:
 147:Drivers/lvgl/src/widgets/bar/lv_bar.c **** 
 459              		.loc 1 147 5 view .LVU120
 147:Drivers/lvgl/src/widgets/bar/lv_bar.c **** 
 460              		.loc 1 147 11 is_stmt 0 view .LVU121
 461 0004 C36A     		ldr	r3, [r0, #44]
 147:Drivers/lvgl/src/widgets/bar/lv_bar.c **** 
 462              		.loc 1 147 7 view .LVU122
 463 0006 8B42     		cmp	r3, r1
 464 0008 1DD0     		beq	.L31
 149:Drivers/lvgl/src/widgets/bar/lv_bar.c ****     value = value < bar->start_value ? bar->start_value : value; /*Can't be smaller than the left v
 465              		.loc 1 149 5 is_stmt 1 view .LVU123
 149:Drivers/lvgl/src/widgets/bar/lv_bar.c ****     value = value < bar->start_value ? bar->start_value : value; /*Can't be smaller than the left v
 466              		.loc 1 149 13 is_stmt 0 view .LVU124
 467 000a 406B     		ldr	r0, [r0, #52]
 468              	.LVL48:
 149:Drivers/lvgl/src/widgets/bar/lv_bar.c ****     value = value < bar->start_value ? bar->start_value : value; /*Can't be smaller than the left v
 469              		.loc 1 149 13 view .LVU125
ARM GAS  /var/folders/qx/2_175_4n2s19vhvtspjhb3qh0000gn/T//cchuAKlx.s 			page 37


 470 000c 8142     		cmp	r1, r0
 471 000e A8BF     		it	ge
 472 0010 0146     		movge	r1, r0
 473              	.LVL49:
 149:Drivers/lvgl/src/widgets/bar/lv_bar.c ****     value = value < bar->start_value ? bar->start_value : value; /*Can't be smaller than the left v
 474              		.loc 1 149 13 view .LVU126
 475 0012 DCF83000 		ldr	r0, [ip, #48]
 149:Drivers/lvgl/src/widgets/bar/lv_bar.c ****     value = value < bar->start_value ? bar->start_value : value; /*Can't be smaller than the left v
 476              		.loc 1 149 11 view .LVU127
 477 0016 8142     		cmp	r1, r0
 478 0018 B8BF     		it	lt
 479 001a 0146     		movlt	r1, r0
 480              	.LVL50:
 150:Drivers/lvgl/src/widgets/bar/lv_bar.c **** 
 481              		.loc 1 150 5 is_stmt 1 view .LVU128
 150:Drivers/lvgl/src/widgets/bar/lv_bar.c **** 
 482              		.loc 1 150 24 is_stmt 0 view .LVU129
 483 001c DCF83800 		ldr	r0, [ip, #56]
 150:Drivers/lvgl/src/widgets/bar/lv_bar.c **** 
 484              		.loc 1 150 11 view .LVU130
 485 0020 8142     		cmp	r1, r0
 486 0022 B8BF     		it	lt
 487 0024 0146     		movlt	r1, r0
 488              	.LVL51:
 152:Drivers/lvgl/src/widgets/bar/lv_bar.c **** 
 489              		.loc 1 152 5 is_stmt 1 view .LVU131
 152:Drivers/lvgl/src/widgets/bar/lv_bar.c **** 
 490              		.loc 1 152 7 is_stmt 0 view .LVU132
 491 0026 8B42     		cmp	r3, r1
 492 0028 0DD0     		beq	.L31
 143:Drivers/lvgl/src/widgets/bar/lv_bar.c ****     LV_ASSERT_OBJ(obj, MY_CLASS);
 493              		.loc 1 143 1 view .LVU133
 494 002a 00B5     		push	{lr}
 495              	.LCFI8:
 496              		.cfi_def_cfa_offset 4
 497              		.cfi_offset 14, -4
 498 002c 83B0     		sub	sp, sp, #12
 499              	.LCFI9:
 500              		.cfi_def_cfa_offset 16
 154:Drivers/lvgl/src/widgets/bar/lv_bar.c **** }
 501              		.loc 1 154 5 is_stmt 1 view .LVU134
 502 002e 0092     		str	r2, [sp]
 503 0030 0CF15003 		add	r3, ip, #80
 504 0034 0CF12C02 		add	r2, ip, #44
 505              	.LVL52:
 154:Drivers/lvgl/src/widgets/bar/lv_bar.c **** }
 506              		.loc 1 154 5 is_stmt 0 view .LVU135
 507 0038 6046     		mov	r0, ip
 508 003a FFF7FEFF 		bl	lv_bar_set_value_with_anim
 509              	.LVL53:
 155:Drivers/lvgl/src/widgets/bar/lv_bar.c **** 
 510              		.loc 1 155 1 view .LVU136
 511 003e 03B0     		add	sp, sp, #12
 512              	.LCFI10:
 513              		.cfi_def_cfa_offset 4
 514              		@ sp needed
 515 0040 5DF804FB 		ldr	pc, [sp], #4
ARM GAS  /var/folders/qx/2_175_4n2s19vhvtspjhb3qh0000gn/T//cchuAKlx.s 			page 38


 516              	.LVL54:
 517              	.L28:
 518              	.LCFI11:
 519              		.cfi_def_cfa_offset 0
 520              		.cfi_restore 14
 144:Drivers/lvgl/src/widgets/bar/lv_bar.c ****     lv_bar_t * bar = (lv_bar_t *)obj;
 521              		.loc 1 144 5 is_stmt 1 view .LVU137
 144:Drivers/lvgl/src/widgets/bar/lv_bar.c ****     lv_bar_t * bar = (lv_bar_t *)obj;
 522              		.loc 1 144 5 view .LVU138
 144:Drivers/lvgl/src/widgets/bar/lv_bar.c ****     lv_bar_t * bar = (lv_bar_t *)obj;
 523              		.loc 1 144 5 view .LVU139
 144:Drivers/lvgl/src/widgets/bar/lv_bar.c ****     lv_bar_t * bar = (lv_bar_t *)obj;
 524              		.loc 1 144 5 view .LVU140
 144:Drivers/lvgl/src/widgets/bar/lv_bar.c ****     lv_bar_t * bar = (lv_bar_t *)obj;
 525              		.loc 1 144 5 view .LVU141
 526 0044 FEE7     		b	.L28
 527              	.LVL55:
 528              	.L31:
 144:Drivers/lvgl/src/widgets/bar/lv_bar.c ****     lv_bar_t * bar = (lv_bar_t *)obj;
 529              		.loc 1 144 5 is_stmt 0 view .LVU142
 530 0046 7047     		bx	lr
 531              		.cfi_endproc
 532              	.LFE182:
 534              		.section	.text.lv_bar_constructor,"ax",%progbits
 535              		.align	1
 536              		.syntax unified
 537              		.thumb
 538              		.thumb_func
 540              	lv_bar_constructor:
 541              	.LVL56:
 542              	.LFB197:
 320:Drivers/lvgl/src/widgets/bar/lv_bar.c ****     LV_UNUSED(class_p);
 543              		.loc 1 320 1 is_stmt 1 view -0
 544              		.cfi_startproc
 545              		@ args = 0, pretend = 0, frame = 0
 546              		@ frame_needed = 0, uses_anonymous_args = 0
 320:Drivers/lvgl/src/widgets/bar/lv_bar.c ****     LV_UNUSED(class_p);
 547              		.loc 1 320 1 is_stmt 0 view .LVU144
 548 0000 38B5     		push	{r3, r4, r5, lr}
 549              	.LCFI12:
 550              		.cfi_def_cfa_offset 16
 551              		.cfi_offset 3, -16
 552              		.cfi_offset 4, -12
 553              		.cfi_offset 5, -8
 554              		.cfi_offset 14, -4
 555 0002 0C46     		mov	r4, r1
 321:Drivers/lvgl/src/widgets/bar/lv_bar.c ****     LV_TRACE_OBJ_CREATE("begin");
 556              		.loc 1 321 5 is_stmt 1 view .LVU145
 322:Drivers/lvgl/src/widgets/bar/lv_bar.c **** 
 557              		.loc 1 322 33 view .LVU146
 324:Drivers/lvgl/src/widgets/bar/lv_bar.c ****     bar->min_value = 0;
 558              		.loc 1 324 5 view .LVU147
 559              	.LVL57:
 325:Drivers/lvgl/src/widgets/bar/lv_bar.c ****     bar->max_value = 100;
 560              		.loc 1 325 5 view .LVU148
 325:Drivers/lvgl/src/widgets/bar/lv_bar.c ****     bar->max_value = 100;
 561              		.loc 1 325 20 is_stmt 0 view .LVU149
ARM GAS  /var/folders/qx/2_175_4n2s19vhvtspjhb3qh0000gn/T//cchuAKlx.s 			page 39


 562 0004 0025     		movs	r5, #0
 563 0006 0D63     		str	r5, [r1, #48]
 326:Drivers/lvgl/src/widgets/bar/lv_bar.c ****     bar->start_value = 0;
 564              		.loc 1 326 5 is_stmt 1 view .LVU150
 326:Drivers/lvgl/src/widgets/bar/lv_bar.c ****     bar->start_value = 0;
 565              		.loc 1 326 20 is_stmt 0 view .LVU151
 566 0008 6423     		movs	r3, #100
 567 000a 4B63     		str	r3, [r1, #52]
 327:Drivers/lvgl/src/widgets/bar/lv_bar.c ****     bar->cur_value = 0;
 568              		.loc 1 327 5 is_stmt 1 view .LVU152
 327:Drivers/lvgl/src/widgets/bar/lv_bar.c ****     bar->cur_value = 0;
 569              		.loc 1 327 22 is_stmt 0 view .LVU153
 570 000c 8D63     		str	r5, [r1, #56]
 328:Drivers/lvgl/src/widgets/bar/lv_bar.c ****     bar->indic_area.x1 = 0;
 571              		.loc 1 328 5 is_stmt 1 view .LVU154
 328:Drivers/lvgl/src/widgets/bar/lv_bar.c ****     bar->indic_area.x1 = 0;
 572              		.loc 1 328 20 is_stmt 0 view .LVU155
 573 000e CD62     		str	r5, [r1, #44]
 329:Drivers/lvgl/src/widgets/bar/lv_bar.c ****     bar->indic_area.x2 = 0;
 574              		.loc 1 329 5 is_stmt 1 view .LVU156
 329:Drivers/lvgl/src/widgets/bar/lv_bar.c ****     bar->indic_area.x2 = 0;
 575              		.loc 1 329 24 is_stmt 0 view .LVU157
 576 0010 CD63     		str	r5, [r1, #60]
 330:Drivers/lvgl/src/widgets/bar/lv_bar.c ****     bar->indic_area.y1 = 0;
 577              		.loc 1 330 5 is_stmt 1 view .LVU158
 330:Drivers/lvgl/src/widgets/bar/lv_bar.c ****     bar->indic_area.y1 = 0;
 578              		.loc 1 330 24 is_stmt 0 view .LVU159
 579 0012 4D64     		str	r5, [r1, #68]
 331:Drivers/lvgl/src/widgets/bar/lv_bar.c ****     bar->indic_area.y2 = 0;
 580              		.loc 1 331 5 is_stmt 1 view .LVU160
 331:Drivers/lvgl/src/widgets/bar/lv_bar.c ****     bar->indic_area.y2 = 0;
 581              		.loc 1 331 24 is_stmt 0 view .LVU161
 582 0014 0D64     		str	r5, [r1, #64]
 332:Drivers/lvgl/src/widgets/bar/lv_bar.c ****     bar->mode = LV_BAR_MODE_NORMAL;
 583              		.loc 1 332 5 is_stmt 1 view .LVU162
 332:Drivers/lvgl/src/widgets/bar/lv_bar.c ****     bar->mode = LV_BAR_MODE_NORMAL;
 584              		.loc 1 332 24 is_stmt 0 view .LVU163
 585 0016 8D64     		str	r5, [r1, #72]
 333:Drivers/lvgl/src/widgets/bar/lv_bar.c ****     bar->orientation = LV_BAR_ORIENTATION_AUTO;
 586              		.loc 1 333 5 is_stmt 1 view .LVU164
 333:Drivers/lvgl/src/widgets/bar/lv_bar.c ****     bar->orientation = LV_BAR_ORIENTATION_AUTO;
 587              		.loc 1 333 15 is_stmt 0 view .LVU165
 588 0018 91F87030 		ldrb	r3, [r1, #112]	@ zero_extendqisi2
 589 001c 65F30203 		bfi	r3, r5, #0, #3
 590 0020 81F87030 		strb	r3, [r1, #112]
 334:Drivers/lvgl/src/widgets/bar/lv_bar.c ****     bar->val_reversed = false;
 591              		.loc 1 334 5 is_stmt 1 view .LVU166
 334:Drivers/lvgl/src/widgets/bar/lv_bar.c ****     bar->val_reversed = false;
 592              		.loc 1 334 22 is_stmt 0 view .LVU167
 593 0024 DBB2     		uxtb	r3, r3
 594 0026 65F3C503 		bfi	r3, r5, #3, #3
 595 002a 81F87030 		strb	r3, [r1, #112]
 335:Drivers/lvgl/src/widgets/bar/lv_bar.c **** 
 596              		.loc 1 335 5 is_stmt 1 view .LVU168
 335:Drivers/lvgl/src/widgets/bar/lv_bar.c **** 
 597              		.loc 1 335 23 is_stmt 0 view .LVU169
 598 002e 81F84C50 		strb	r5, [r1, #76]
ARM GAS  /var/folders/qx/2_175_4n2s19vhvtspjhb3qh0000gn/T//cchuAKlx.s 			page 40


 337:Drivers/lvgl/src/widgets/bar/lv_bar.c ****     lv_bar_init_anim(obj, &bar->start_value_anim);
 599              		.loc 1 337 5 is_stmt 1 view .LVU170
 600 0032 5031     		adds	r1, r1, #80
 601              	.LVL58:
 337:Drivers/lvgl/src/widgets/bar/lv_bar.c ****     lv_bar_init_anim(obj, &bar->start_value_anim);
 602              		.loc 1 337 5 is_stmt 0 view .LVU171
 603 0034 2046     		mov	r0, r4
 604              	.LVL59:
 337:Drivers/lvgl/src/widgets/bar/lv_bar.c ****     lv_bar_init_anim(obj, &bar->start_value_anim);
 605              		.loc 1 337 5 view .LVU172
 606 0036 FFF7FEFF 		bl	lv_bar_init_anim
 607              	.LVL60:
 338:Drivers/lvgl/src/widgets/bar/lv_bar.c **** 
 608              		.loc 1 338 5 is_stmt 1 view .LVU173
 609 003a 04F16001 		add	r1, r4, #96
 610 003e 2046     		mov	r0, r4
 611 0040 FFF7FEFF 		bl	lv_bar_init_anim
 612              	.LVL61:
 340:Drivers/lvgl/src/widgets/bar/lv_bar.c ****     lv_obj_remove_flag(obj, LV_OBJ_FLAG_SCROLLABLE);
 613              		.loc 1 340 5 view .LVU174
 614 0044 0821     		movs	r1, #8
 615 0046 2046     		mov	r0, r4
 616 0048 FFF7FEFF 		bl	lv_obj_remove_flag
 617              	.LVL62:
 341:Drivers/lvgl/src/widgets/bar/lv_bar.c ****     lv_bar_set_value(obj, 0, LV_ANIM_OFF);
 618              		.loc 1 341 5 view .LVU175
 619 004c 1021     		movs	r1, #16
 620 004e 2046     		mov	r0, r4
 621 0050 FFF7FEFF 		bl	lv_obj_remove_flag
 622              	.LVL63:
 342:Drivers/lvgl/src/widgets/bar/lv_bar.c **** 
 623              		.loc 1 342 5 view .LVU176
 624 0054 2A46     		mov	r2, r5
 625 0056 2946     		mov	r1, r5
 626 0058 2046     		mov	r0, r4
 627 005a FFF7FEFF 		bl	lv_bar_set_value
 628              	.LVL64:
 344:Drivers/lvgl/src/widgets/bar/lv_bar.c **** }
 629              		.loc 1 344 36 view .LVU177
 345:Drivers/lvgl/src/widgets/bar/lv_bar.c **** 
 630              		.loc 1 345 1 is_stmt 0 view .LVU178
 631 005e 38BD     		pop	{r3, r4, r5, pc}
 345:Drivers/lvgl/src/widgets/bar/lv_bar.c **** 
 632              		.loc 1 345 1 view .LVU179
 633              		.cfi_endproc
 634              	.LFE197:
 636              		.section	.text.bar_value_observer_cb,"ax",%progbits
 637              		.align	1
 638              		.syntax unified
 639              		.thumb
 640              		.thumb_func
 642              	bar_value_observer_cb:
 643              	.LVL65:
 644              	.LFB205:
 788:Drivers/lvgl/src/widgets/bar/lv_bar.c **** 
 789:Drivers/lvgl/src/widgets/bar/lv_bar.c **** #if LV_USE_OBSERVER
 790:Drivers/lvgl/src/widgets/bar/lv_bar.c **** 
ARM GAS  /var/folders/qx/2_175_4n2s19vhvtspjhb3qh0000gn/T//cchuAKlx.s 			page 41


 791:Drivers/lvgl/src/widgets/bar/lv_bar.c **** static void bar_value_observer_cb(lv_observer_t * observer, lv_subject_t * subject)
 792:Drivers/lvgl/src/widgets/bar/lv_bar.c **** {
 645              		.loc 1 792 1 is_stmt 1 view -0
 646              		.cfi_startproc
 647              		@ args = 0, pretend = 0, frame = 0
 648              		@ frame_needed = 0, uses_anonymous_args = 0
 649              		.loc 1 792 1 is_stmt 0 view .LVU181
 650 0000 38B5     		push	{r3, r4, r5, lr}
 651              	.LCFI13:
 652              		.cfi_def_cfa_offset 16
 653              		.cfi_offset 3, -16
 654              		.cfi_offset 4, -12
 655              		.cfi_offset 5, -8
 656              		.cfi_offset 14, -4
 657 0002 0546     		mov	r5, r0
 658 0004 0C46     		mov	r4, r1
 793:Drivers/lvgl/src/widgets/bar/lv_bar.c ****     lv_obj_t * obj = lv_observer_get_target_obj(observer);
 659              		.loc 1 793 5 is_stmt 1 view .LVU182
 660              		.loc 1 793 22 is_stmt 0 view .LVU183
 661 0006 FFF7FEFF 		bl	lv_observer_get_target_obj
 662              	.LVL66:
 794:Drivers/lvgl/src/widgets/bar/lv_bar.c ****     /*If the bar is not rendered yet show the new state immediately*/
 795:Drivers/lvgl/src/widgets/bar/lv_bar.c ****     lv_anim_enable_t anim_on = obj->rendered ? LV_ANIM_ON : LV_ANIM_OFF;
 663              		.loc 1 795 5 is_stmt 1 view .LVU184
 664              		.loc 1 795 46 is_stmt 0 view .LVU185
 665 000a 90F82B20 		ldrb	r2, [r0, #43]	@ zero_extendqisi2
 666              	.LVL67:
 796:Drivers/lvgl/src/widgets/bar/lv_bar.c ****     if(subject->type == LV_SUBJECT_TYPE_INT) {
 667              		.loc 1 796 5 is_stmt 1 view .LVU186
 668              		.loc 1 796 22 is_stmt 0 view .LVU187
 669 000e 94F82030 		ldrb	r3, [r4, #32]	@ zero_extendqisi2
 670 0012 03F00F03 		and	r3, r3, #15
 671              		.loc 1 796 7 view .LVU188
 672 0016 022B     		cmp	r3, #2
 673 0018 00D0     		beq	.L39
 674              	.LVL68:
 675              	.L36:
 797:Drivers/lvgl/src/widgets/bar/lv_bar.c ****         lv_bar_set_value(observer->target, subject->value.num, anim_on);
 798:Drivers/lvgl/src/widgets/bar/lv_bar.c ****     }
 799:Drivers/lvgl/src/widgets/bar/lv_bar.c **** #if LV_USE_FLOAT
 800:Drivers/lvgl/src/widgets/bar/lv_bar.c ****     else {
 801:Drivers/lvgl/src/widgets/bar/lv_bar.c ****         lv_bar_set_value(observer->target, (int32_t)subject->value.float_v, anim_on);
 802:Drivers/lvgl/src/widgets/bar/lv_bar.c ****     }
 803:Drivers/lvgl/src/widgets/bar/lv_bar.c **** #endif
 804:Drivers/lvgl/src/widgets/bar/lv_bar.c **** }
 676              		.loc 1 804 1 view .LVU189
 677 001a 38BD     		pop	{r3, r4, r5, pc}
 678              	.LVL69:
 679              	.L39:
 680              		.loc 1 804 1 view .LVU190
 681 001c D209     		lsrs	r2, r2, #7
 682              	.LVL70:
 797:Drivers/lvgl/src/widgets/bar/lv_bar.c ****         lv_bar_set_value(observer->target, subject->value.num, anim_on);
 683              		.loc 1 797 9 is_stmt 1 view .LVU191
 684 001e E168     		ldr	r1, [r4, #12]
 685 0020 A868     		ldr	r0, [r5, #8]
 686              	.LVL71:
ARM GAS  /var/folders/qx/2_175_4n2s19vhvtspjhb3qh0000gn/T//cchuAKlx.s 			page 42


 797:Drivers/lvgl/src/widgets/bar/lv_bar.c ****         lv_bar_set_value(observer->target, subject->value.num, anim_on);
 687              		.loc 1 797 9 is_stmt 0 view .LVU192
 688 0022 FFF7FEFF 		bl	lv_bar_set_value
 689              	.LVL72:
 690              		.loc 1 804 1 view .LVU193
 691 0026 F8E7     		b	.L36
 692              		.cfi_endproc
 693              	.LFE205:
 695              		.section	.text.lv_bar_set_start_value,"ax",%progbits
 696              		.align	1
 697              		.global	lv_bar_set_start_value
 698              		.syntax unified
 699              		.thumb
 700              		.thumb_func
 702              	lv_bar_set_start_value:
 703              	.LVL73:
 704              	.LFB183:
 158:Drivers/lvgl/src/widgets/bar/lv_bar.c ****     LV_ASSERT_OBJ(obj, MY_CLASS);
 705              		.loc 1 158 1 is_stmt 1 view -0
 706              		.cfi_startproc
 707              		@ args = 0, pretend = 0, frame = 0
 708              		@ frame_needed = 0, uses_anonymous_args = 0
 159:Drivers/lvgl/src/widgets/bar/lv_bar.c **** 
 709              		.loc 1 159 5 view .LVU195
 159:Drivers/lvgl/src/widgets/bar/lv_bar.c **** 
 710              		.loc 1 159 5 view .LVU196
 711 0000 00B3     		cbz	r0, .L42
 159:Drivers/lvgl/src/widgets/bar/lv_bar.c **** 
 712              		.loc 1 159 5 view .LVU197
 159:Drivers/lvgl/src/widgets/bar/lv_bar.c **** 
 713              		.loc 1 159 33 view .LVU198
 161:Drivers/lvgl/src/widgets/bar/lv_bar.c **** 
 714              		.loc 1 161 5 view .LVU199
 715              	.LVL74:
 163:Drivers/lvgl/src/widgets/bar/lv_bar.c ****         return;
 716              		.loc 1 163 5 view .LVU200
 163:Drivers/lvgl/src/widgets/bar/lv_bar.c ****         return;
 717              		.loc 1 163 18 is_stmt 0 view .LVU201
 718 0002 90F87030 		ldrb	r3, [r0, #112]	@ zero_extendqisi2
 719 0006 03F00703 		and	r3, r3, #7
 163:Drivers/lvgl/src/widgets/bar/lv_bar.c ****         return;
 720              		.loc 1 163 7 view .LVU202
 721 000a 022B     		cmp	r3, #2
 722 000c 1BD1     		bne	.L45
 167:Drivers/lvgl/src/widgets/bar/lv_bar.c ****     value = value > bar->cur_value ? bar->cur_value : value; /*Can't be greater than the right valu
 723              		.loc 1 167 5 is_stmt 1 view .LVU203
 167:Drivers/lvgl/src/widgets/bar/lv_bar.c ****     value = value > bar->cur_value ? bar->cur_value : value; /*Can't be greater than the right valu
 724              		.loc 1 167 13 is_stmt 0 view .LVU204
 725 000e 436B     		ldr	r3, [r0, #52]
 726 0010 9942     		cmp	r1, r3
 727 0012 A8BF     		it	ge
 728 0014 1946     		movge	r1, r3
 729              	.LVL75:
 167:Drivers/lvgl/src/widgets/bar/lv_bar.c ****     value = value > bar->cur_value ? bar->cur_value : value; /*Can't be greater than the right valu
 730              		.loc 1 167 13 view .LVU205
 731 0016 036B     		ldr	r3, [r0, #48]
 167:Drivers/lvgl/src/widgets/bar/lv_bar.c ****     value = value > bar->cur_value ? bar->cur_value : value; /*Can't be greater than the right valu
ARM GAS  /var/folders/qx/2_175_4n2s19vhvtspjhb3qh0000gn/T//cchuAKlx.s 			page 43


 732              		.loc 1 167 11 view .LVU206
 733 0018 9942     		cmp	r1, r3
 734 001a B8BF     		it	lt
 735 001c 1946     		movlt	r1, r3
 736              	.LVL76:
 168:Drivers/lvgl/src/widgets/bar/lv_bar.c **** 
 737              		.loc 1 168 5 is_stmt 1 view .LVU207
 168:Drivers/lvgl/src/widgets/bar/lv_bar.c **** 
 738              		.loc 1 168 24 is_stmt 0 view .LVU208
 739 001e C36A     		ldr	r3, [r0, #44]
 168:Drivers/lvgl/src/widgets/bar/lv_bar.c **** 
 740              		.loc 1 168 11 view .LVU209
 741 0020 9942     		cmp	r1, r3
 742 0022 A8BF     		it	ge
 743 0024 1946     		movge	r1, r3
 744              	.LVL77:
 170:Drivers/lvgl/src/widgets/bar/lv_bar.c **** 
 745              		.loc 1 170 5 is_stmt 1 view .LVU210
 170:Drivers/lvgl/src/widgets/bar/lv_bar.c **** 
 746              		.loc 1 170 11 is_stmt 0 view .LVU211
 747 0026 836B     		ldr	r3, [r0, #56]
 170:Drivers/lvgl/src/widgets/bar/lv_bar.c **** 
 748              		.loc 1 170 7 view .LVU212
 749 0028 8B42     		cmp	r3, r1
 750 002a 0CD0     		beq	.L45
 158:Drivers/lvgl/src/widgets/bar/lv_bar.c ****     LV_ASSERT_OBJ(obj, MY_CLASS);
 751              		.loc 1 158 1 view .LVU213
 752 002c 00B5     		push	{lr}
 753              	.LCFI14:
 754              		.cfi_def_cfa_offset 4
 755              		.cfi_offset 14, -4
 756 002e 83B0     		sub	sp, sp, #12
 757              	.LCFI15:
 758              		.cfi_def_cfa_offset 16
 172:Drivers/lvgl/src/widgets/bar/lv_bar.c **** }
 759              		.loc 1 172 5 is_stmt 1 view .LVU214
 760 0030 0092     		str	r2, [sp]
 761 0032 00F16003 		add	r3, r0, #96
 762 0036 00F13802 		add	r2, r0, #56
 763              	.LVL78:
 172:Drivers/lvgl/src/widgets/bar/lv_bar.c **** }
 764              		.loc 1 172 5 is_stmt 0 view .LVU215
 765 003a FFF7FEFF 		bl	lv_bar_set_value_with_anim
 766              	.LVL79:
 173:Drivers/lvgl/src/widgets/bar/lv_bar.c **** 
 767              		.loc 1 173 1 view .LVU216
 768 003e 03B0     		add	sp, sp, #12
 769              	.LCFI16:
 770              		.cfi_def_cfa_offset 4
 771              		@ sp needed
 772 0040 5DF804FB 		ldr	pc, [sp], #4
 773              	.LVL80:
 774              	.L42:
 775              	.LCFI17:
 776              		.cfi_def_cfa_offset 0
 777              		.cfi_restore 14
 159:Drivers/lvgl/src/widgets/bar/lv_bar.c **** 
ARM GAS  /var/folders/qx/2_175_4n2s19vhvtspjhb3qh0000gn/T//cchuAKlx.s 			page 44


 778              		.loc 1 159 5 is_stmt 1 view .LVU217
 159:Drivers/lvgl/src/widgets/bar/lv_bar.c **** 
 779              		.loc 1 159 5 view .LVU218
 159:Drivers/lvgl/src/widgets/bar/lv_bar.c **** 
 780              		.loc 1 159 5 view .LVU219
 159:Drivers/lvgl/src/widgets/bar/lv_bar.c **** 
 781              		.loc 1 159 5 view .LVU220
 159:Drivers/lvgl/src/widgets/bar/lv_bar.c **** 
 782              		.loc 1 159 5 view .LVU221
 783 0044 FEE7     		b	.L42
 784              	.LVL81:
 785              	.L45:
 159:Drivers/lvgl/src/widgets/bar/lv_bar.c **** 
 786              		.loc 1 159 5 is_stmt 0 view .LVU222
 787 0046 7047     		bx	lr
 788              		.cfi_endproc
 789              	.LFE183:
 791              		.section	.text.lv_bar_set_mode,"ax",%progbits
 792              		.align	1
 793              		.global	lv_bar_set_mode
 794              		.syntax unified
 795              		.thumb
 796              		.thumb_func
 798              	lv_bar_set_mode:
 799              	.LVL82:
 800              	.LFB187:
 216:Drivers/lvgl/src/widgets/bar/lv_bar.c ****     LV_ASSERT_OBJ(obj, MY_CLASS);
 801              		.loc 1 216 1 is_stmt 1 view -0
 802              		.cfi_startproc
 803              		@ args = 0, pretend = 0, frame = 0
 804              		@ frame_needed = 0, uses_anonymous_args = 0
 217:Drivers/lvgl/src/widgets/bar/lv_bar.c ****     lv_bar_t * bar = (lv_bar_t *)obj;
 805              		.loc 1 217 5 view .LVU224
 217:Drivers/lvgl/src/widgets/bar/lv_bar.c ****     lv_bar_t * bar = (lv_bar_t *)obj;
 806              		.loc 1 217 5 view .LVU225
 807 0000 90B1     		cbz	r0, .L50
 216:Drivers/lvgl/src/widgets/bar/lv_bar.c ****     LV_ASSERT_OBJ(obj, MY_CLASS);
 808              		.loc 1 216 1 is_stmt 0 view .LVU226
 809 0002 08B5     		push	{r3, lr}
 810              	.LCFI18:
 811              		.cfi_def_cfa_offset 8
 812              		.cfi_offset 3, -8
 813              		.cfi_offset 14, -4
 814 0004 0346     		mov	r3, r0
 217:Drivers/lvgl/src/widgets/bar/lv_bar.c ****     lv_bar_t * bar = (lv_bar_t *)obj;
 815              		.loc 1 217 5 is_stmt 1 view .LVU227
 217:Drivers/lvgl/src/widgets/bar/lv_bar.c ****     lv_bar_t * bar = (lv_bar_t *)obj;
 816              		.loc 1 217 33 view .LVU228
 218:Drivers/lvgl/src/widgets/bar/lv_bar.c **** 
 817              		.loc 1 218 5 view .LVU229
 818              	.LVL83:
 220:Drivers/lvgl/src/widgets/bar/lv_bar.c ****     if(bar->mode != LV_BAR_MODE_RANGE) {
 819              		.loc 1 220 5 view .LVU230
 220:Drivers/lvgl/src/widgets/bar/lv_bar.c ****     if(bar->mode != LV_BAR_MODE_RANGE) {
 820              		.loc 1 220 15 is_stmt 0 view .LVU231
 821 0006 90F87020 		ldrb	r2, [r0, #112]	@ zero_extendqisi2
 822 000a 61F30202 		bfi	r2, r1, #0, #3
ARM GAS  /var/folders/qx/2_175_4n2s19vhvtspjhb3qh0000gn/T//cchuAKlx.s 			page 45


 823 000e 80F87020 		strb	r2, [r0, #112]
 221:Drivers/lvgl/src/widgets/bar/lv_bar.c ****         bar->start_value = bar->min_value;
 824              		.loc 1 221 5 is_stmt 1 view .LVU232
 221:Drivers/lvgl/src/widgets/bar/lv_bar.c ****         bar->start_value = bar->min_value;
 825              		.loc 1 221 18 is_stmt 0 view .LVU233
 826 0012 D2B2     		uxtb	r2, r2
 827 0014 02F00702 		and	r2, r2, #7
 221:Drivers/lvgl/src/widgets/bar/lv_bar.c ****         bar->start_value = bar->min_value;
 828              		.loc 1 221 7 view .LVU234
 829 0018 022A     		cmp	r2, #2
 830 001a 01D0     		beq	.L51
 222:Drivers/lvgl/src/widgets/bar/lv_bar.c ****     }
 831              		.loc 1 222 9 is_stmt 1 view .LVU235
 222:Drivers/lvgl/src/widgets/bar/lv_bar.c ****     }
 832              		.loc 1 222 31 is_stmt 0 view .LVU236
 833 001c 026B     		ldr	r2, [r0, #48]
 222:Drivers/lvgl/src/widgets/bar/lv_bar.c ****     }
 834              		.loc 1 222 26 view .LVU237
 835 001e 8263     		str	r2, [r0, #56]
 836              	.L51:
 225:Drivers/lvgl/src/widgets/bar/lv_bar.c **** }
 837              		.loc 1 225 5 is_stmt 1 view .LVU238
 838 0020 1846     		mov	r0, r3
 839              	.LVL84:
 225:Drivers/lvgl/src/widgets/bar/lv_bar.c **** }
 840              		.loc 1 225 5 is_stmt 0 view .LVU239
 841 0022 FFF7FEFF 		bl	lv_obj_invalidate
 842              	.LVL85:
 226:Drivers/lvgl/src/widgets/bar/lv_bar.c **** 
 843              		.loc 1 226 1 view .LVU240
 844 0026 08BD     		pop	{r3, pc}
 845              	.LVL86:
 846              	.L50:
 847              	.LCFI19:
 848              		.cfi_def_cfa_offset 0
 849              		.cfi_restore 3
 850              		.cfi_restore 14
 217:Drivers/lvgl/src/widgets/bar/lv_bar.c ****     lv_bar_t * bar = (lv_bar_t *)obj;
 851              		.loc 1 217 5 is_stmt 1 view .LVU241
 217:Drivers/lvgl/src/widgets/bar/lv_bar.c ****     lv_bar_t * bar = (lv_bar_t *)obj;
 852              		.loc 1 217 5 view .LVU242
 217:Drivers/lvgl/src/widgets/bar/lv_bar.c ****     lv_bar_t * bar = (lv_bar_t *)obj;
 853              		.loc 1 217 5 view .LVU243
 217:Drivers/lvgl/src/widgets/bar/lv_bar.c ****     lv_bar_t * bar = (lv_bar_t *)obj;
 854              		.loc 1 217 5 view .LVU244
 217:Drivers/lvgl/src/widgets/bar/lv_bar.c ****     lv_bar_t * bar = (lv_bar_t *)obj;
 855              		.loc 1 217 5 view .LVU245
 856 0028 FEE7     		b	.L50
 857              		.cfi_endproc
 858              	.LFE187:
 860              		.section	.text.lv_bar_set_orientation,"ax",%progbits
 861              		.align	1
 862              		.global	lv_bar_set_orientation
 863              		.syntax unified
 864              		.thumb
 865              		.thumb_func
 867              	lv_bar_set_orientation:
ARM GAS  /var/folders/qx/2_175_4n2s19vhvtspjhb3qh0000gn/T//cchuAKlx.s 			page 46


 868              	.LVL87:
 869              	.LFB188:
 229:Drivers/lvgl/src/widgets/bar/lv_bar.c ****     LV_ASSERT_OBJ(obj, MY_CLASS);
 870              		.loc 1 229 1 view -0
 871              		.cfi_startproc
 872              		@ args = 0, pretend = 0, frame = 0
 873              		@ frame_needed = 0, uses_anonymous_args = 0
 230:Drivers/lvgl/src/widgets/bar/lv_bar.c ****     lv_bar_t * bar = (lv_bar_t *)obj;
 874              		.loc 1 230 5 view .LVU247
 230:Drivers/lvgl/src/widgets/bar/lv_bar.c ****     lv_bar_t * bar = (lv_bar_t *)obj;
 875              		.loc 1 230 5 view .LVU248
 876 0000 48B1     		cbz	r0, .L56
 229:Drivers/lvgl/src/widgets/bar/lv_bar.c ****     LV_ASSERT_OBJ(obj, MY_CLASS);
 877              		.loc 1 229 1 is_stmt 0 view .LVU249
 878 0002 08B5     		push	{r3, lr}
 879              	.LCFI20:
 880              		.cfi_def_cfa_offset 8
 881              		.cfi_offset 3, -8
 882              		.cfi_offset 14, -4
 230:Drivers/lvgl/src/widgets/bar/lv_bar.c ****     lv_bar_t * bar = (lv_bar_t *)obj;
 883              		.loc 1 230 5 is_stmt 1 view .LVU250
 230:Drivers/lvgl/src/widgets/bar/lv_bar.c ****     lv_bar_t * bar = (lv_bar_t *)obj;
 884              		.loc 1 230 33 view .LVU251
 231:Drivers/lvgl/src/widgets/bar/lv_bar.c **** 
 885              		.loc 1 231 5 view .LVU252
 886              	.LVL88:
 233:Drivers/lvgl/src/widgets/bar/lv_bar.c ****     lv_obj_invalidate(obj);
 887              		.loc 1 233 5 view .LVU253
 233:Drivers/lvgl/src/widgets/bar/lv_bar.c ****     lv_obj_invalidate(obj);
 888              		.loc 1 233 22 is_stmt 0 view .LVU254
 889 0004 90F87020 		ldrb	r2, [r0, #112]	@ zero_extendqisi2
 890 0008 61F3C502 		bfi	r2, r1, #3, #3
 891 000c 80F87020 		strb	r2, [r0, #112]
 234:Drivers/lvgl/src/widgets/bar/lv_bar.c **** }
 892              		.loc 1 234 5 is_stmt 1 view .LVU255
 893 0010 FFF7FEFF 		bl	lv_obj_invalidate
 894              	.LVL89:
 235:Drivers/lvgl/src/widgets/bar/lv_bar.c **** 
 895              		.loc 1 235 1 is_stmt 0 view .LVU256
 896 0014 08BD     		pop	{r3, pc}
 897              	.LVL90:
 898              	.L56:
 899              	.LCFI21:
 900              		.cfi_def_cfa_offset 0
 901              		.cfi_restore 3
 902              		.cfi_restore 14
 230:Drivers/lvgl/src/widgets/bar/lv_bar.c ****     lv_bar_t * bar = (lv_bar_t *)obj;
 903              		.loc 1 230 5 is_stmt 1 view .LVU257
 230:Drivers/lvgl/src/widgets/bar/lv_bar.c ****     lv_bar_t * bar = (lv_bar_t *)obj;
 904              		.loc 1 230 5 view .LVU258
 230:Drivers/lvgl/src/widgets/bar/lv_bar.c ****     lv_bar_t * bar = (lv_bar_t *)obj;
 905              		.loc 1 230 5 view .LVU259
 230:Drivers/lvgl/src/widgets/bar/lv_bar.c ****     lv_bar_t * bar = (lv_bar_t *)obj;
 906              		.loc 1 230 5 view .LVU260
 230:Drivers/lvgl/src/widgets/bar/lv_bar.c ****     lv_bar_t * bar = (lv_bar_t *)obj;
 907              		.loc 1 230 5 view .LVU261
 908 0016 FEE7     		b	.L56
ARM GAS  /var/folders/qx/2_175_4n2s19vhvtspjhb3qh0000gn/T//cchuAKlx.s 			page 47


 909              		.cfi_endproc
 910              	.LFE188:
 912              		.section	.text.lv_bar_get_value,"ax",%progbits
 913              		.align	1
 914              		.global	lv_bar_get_value
 915              		.syntax unified
 916              		.thumb
 917              		.thumb_func
 919              	lv_bar_get_value:
 920              	.LVL91:
 921              	.LFB189:
 242:Drivers/lvgl/src/widgets/bar/lv_bar.c ****     LV_ASSERT_OBJ(obj, MY_CLASS);
 922              		.loc 1 242 1 view -0
 923              		.cfi_startproc
 924              		@ args = 0, pretend = 0, frame = 0
 925              		@ frame_needed = 0, uses_anonymous_args = 0
 926              		@ link register save eliminated.
 243:Drivers/lvgl/src/widgets/bar/lv_bar.c ****     lv_bar_t * bar = (lv_bar_t *)obj;
 927              		.loc 1 243 5 view .LVU263
 243:Drivers/lvgl/src/widgets/bar/lv_bar.c ****     lv_bar_t * bar = (lv_bar_t *)obj;
 928              		.loc 1 243 5 view .LVU264
 929 0000 28B1     		cbz	r0, .L61
 243:Drivers/lvgl/src/widgets/bar/lv_bar.c ****     lv_bar_t * bar = (lv_bar_t *)obj;
 930              		.loc 1 243 5 view .LVU265
 243:Drivers/lvgl/src/widgets/bar/lv_bar.c ****     lv_bar_t * bar = (lv_bar_t *)obj;
 931              		.loc 1 243 33 view .LVU266
 244:Drivers/lvgl/src/widgets/bar/lv_bar.c **** 
 932              		.loc 1 244 5 view .LVU267
 933              	.LVL92:
 246:Drivers/lvgl/src/widgets/bar/lv_bar.c **** }
 934              		.loc 1 246 5 view .LVU268
 246:Drivers/lvgl/src/widgets/bar/lv_bar.c **** }
 935              		.loc 1 246 12 is_stmt 0 view .LVU269
 936 0002 C26D     		ldr	r2, [r0, #92]
 937 0004 B2F1FF3F 		cmp	r2, #-1
 938 0008 02D0     		beq	.L62
 246:Drivers/lvgl/src/widgets/bar/lv_bar.c **** }
 939              		.loc 1 246 12 discriminator 1 view .LVU270
 940 000a 806D     		ldr	r0, [r0, #88]
 941              	.LVL93:
 246:Drivers/lvgl/src/widgets/bar/lv_bar.c **** }
 942              		.loc 1 246 12 discriminator 1 view .LVU271
 943 000c 7047     		bx	lr
 944              	.LVL94:
 945              	.L61:
 243:Drivers/lvgl/src/widgets/bar/lv_bar.c ****     lv_bar_t * bar = (lv_bar_t *)obj;
 946              		.loc 1 243 5 is_stmt 1 view .LVU272
 243:Drivers/lvgl/src/widgets/bar/lv_bar.c ****     lv_bar_t * bar = (lv_bar_t *)obj;
 947              		.loc 1 243 5 view .LVU273
 243:Drivers/lvgl/src/widgets/bar/lv_bar.c ****     lv_bar_t * bar = (lv_bar_t *)obj;
 948              		.loc 1 243 5 view .LVU274
 243:Drivers/lvgl/src/widgets/bar/lv_bar.c ****     lv_bar_t * bar = (lv_bar_t *)obj;
 949              		.loc 1 243 5 view .LVU275
 243:Drivers/lvgl/src/widgets/bar/lv_bar.c ****     lv_bar_t * bar = (lv_bar_t *)obj;
 950              		.loc 1 243 5 view .LVU276
 951 000e FEE7     		b	.L61
 952              	.LVL95:
ARM GAS  /var/folders/qx/2_175_4n2s19vhvtspjhb3qh0000gn/T//cchuAKlx.s 			page 48


 953              	.L62:
 246:Drivers/lvgl/src/widgets/bar/lv_bar.c **** }
 954              		.loc 1 246 12 is_stmt 0 discriminator 2 view .LVU277
 955 0010 C06A     		ldr	r0, [r0, #44]
 956              	.LVL96:
 247:Drivers/lvgl/src/widgets/bar/lv_bar.c **** 
 957              		.loc 1 247 1 view .LVU278
 958 0012 7047     		bx	lr
 959              		.cfi_endproc
 960              	.LFE189:
 962              		.section	.text.lv_bar_get_start_value,"ax",%progbits
 963              		.align	1
 964              		.global	lv_bar_get_start_value
 965              		.syntax unified
 966              		.thumb
 967              		.thumb_func
 969              	lv_bar_get_start_value:
 970              	.LVL97:
 971              	.LFB190:
 250:Drivers/lvgl/src/widgets/bar/lv_bar.c ****     LV_ASSERT_OBJ(obj, MY_CLASS);
 972              		.loc 1 250 1 is_stmt 1 view -0
 973              		.cfi_startproc
 974              		@ args = 0, pretend = 0, frame = 0
 975              		@ frame_needed = 0, uses_anonymous_args = 0
 976              		@ link register save eliminated.
 251:Drivers/lvgl/src/widgets/bar/lv_bar.c ****     lv_bar_t * bar = (lv_bar_t *)obj;
 977              		.loc 1 251 5 view .LVU280
 251:Drivers/lvgl/src/widgets/bar/lv_bar.c ****     lv_bar_t * bar = (lv_bar_t *)obj;
 978              		.loc 1 251 5 view .LVU281
 979 0000 38B1     		cbz	r0, .L66
 251:Drivers/lvgl/src/widgets/bar/lv_bar.c ****     lv_bar_t * bar = (lv_bar_t *)obj;
 980              		.loc 1 251 5 view .LVU282
 251:Drivers/lvgl/src/widgets/bar/lv_bar.c ****     lv_bar_t * bar = (lv_bar_t *)obj;
 981              		.loc 1 251 33 view .LVU283
 252:Drivers/lvgl/src/widgets/bar/lv_bar.c **** 
 982              		.loc 1 252 5 view .LVU284
 983              	.LVL98:
 254:Drivers/lvgl/src/widgets/bar/lv_bar.c **** 
 984              		.loc 1 254 5 view .LVU285
 254:Drivers/lvgl/src/widgets/bar/lv_bar.c **** 
 985              		.loc 1 254 18 is_stmt 0 view .LVU286
 986 0002 90F87030 		ldrb	r3, [r0, #112]	@ zero_extendqisi2
 987 0006 03F00703 		and	r3, r3, #7
 254:Drivers/lvgl/src/widgets/bar/lv_bar.c **** 
 988              		.loc 1 254 7 view .LVU287
 989 000a 022B     		cmp	r3, #2
 990 000c 02D0     		beq	.L67
 254:Drivers/lvgl/src/widgets/bar/lv_bar.c **** 
 991              		.loc 1 254 40 is_stmt 1 discriminator 1 view .LVU288
 254:Drivers/lvgl/src/widgets/bar/lv_bar.c **** 
 992              		.loc 1 254 50 is_stmt 0 discriminator 1 view .LVU289
 993 000e 006B     		ldr	r0, [r0, #48]
 994              	.LVL99:
 254:Drivers/lvgl/src/widgets/bar/lv_bar.c **** 
 995              		.loc 1 254 50 view .LVU290
 996 0010 7047     		bx	lr
 997              	.LVL100:
ARM GAS  /var/folders/qx/2_175_4n2s19vhvtspjhb3qh0000gn/T//cchuAKlx.s 			page 49


 998              	.L66:
 251:Drivers/lvgl/src/widgets/bar/lv_bar.c ****     lv_bar_t * bar = (lv_bar_t *)obj;
 999              		.loc 1 251 5 is_stmt 1 view .LVU291
 251:Drivers/lvgl/src/widgets/bar/lv_bar.c ****     lv_bar_t * bar = (lv_bar_t *)obj;
 1000              		.loc 1 251 5 view .LVU292
 251:Drivers/lvgl/src/widgets/bar/lv_bar.c ****     lv_bar_t * bar = (lv_bar_t *)obj;
 1001              		.loc 1 251 5 view .LVU293
 251:Drivers/lvgl/src/widgets/bar/lv_bar.c ****     lv_bar_t * bar = (lv_bar_t *)obj;
 1002              		.loc 1 251 5 view .LVU294
 251:Drivers/lvgl/src/widgets/bar/lv_bar.c ****     lv_bar_t * bar = (lv_bar_t *)obj;
 1003              		.loc 1 251 5 view .LVU295
 1004 0012 FEE7     		b	.L66
 1005              	.LVL101:
 1006              	.L67:
 256:Drivers/lvgl/src/widgets/bar/lv_bar.c **** }
 1007              		.loc 1 256 5 view .LVU296
 256:Drivers/lvgl/src/widgets/bar/lv_bar.c **** }
 1008              		.loc 1 256 12 is_stmt 0 view .LVU297
 1009 0014 C36E     		ldr	r3, [r0, #108]
 1010 0016 B3F1FF3F 		cmp	r3, #-1
 1011 001a 01D0     		beq	.L69
 256:Drivers/lvgl/src/widgets/bar/lv_bar.c **** }
 1012              		.loc 1 256 12 discriminator 1 view .LVU298
 1013 001c 806E     		ldr	r0, [r0, #104]
 1014              	.LVL102:
 256:Drivers/lvgl/src/widgets/bar/lv_bar.c **** }
 1015              		.loc 1 256 12 discriminator 1 view .LVU299
 1016 001e 7047     		bx	lr
 1017              	.LVL103:
 1018              	.L69:
 256:Drivers/lvgl/src/widgets/bar/lv_bar.c **** }
 1019              		.loc 1 256 12 discriminator 2 view .LVU300
 1020 0020 806B     		ldr	r0, [r0, #56]
 1021              	.LVL104:
 257:Drivers/lvgl/src/widgets/bar/lv_bar.c **** 
 1022              		.loc 1 257 1 view .LVU301
 1023 0022 7047     		bx	lr
 1024              		.cfi_endproc
 1025              	.LFE190:
 1027              		.section	.text.lv_bar_get_min_value,"ax",%progbits
 1028              		.align	1
 1029              		.global	lv_bar_get_min_value
 1030              		.syntax unified
 1031              		.thumb
 1032              		.thumb_func
 1034              	lv_bar_get_min_value:
 1035              	.LVL105:
 1036              	.LFB191:
 260:Drivers/lvgl/src/widgets/bar/lv_bar.c ****     LV_ASSERT_OBJ(obj, MY_CLASS);
 1037              		.loc 1 260 1 is_stmt 1 view -0
 1038              		.cfi_startproc
 1039              		@ args = 0, pretend = 0, frame = 0
 1040              		@ frame_needed = 0, uses_anonymous_args = 0
 1041              		@ link register save eliminated.
 261:Drivers/lvgl/src/widgets/bar/lv_bar.c ****     lv_bar_t * bar = (lv_bar_t *)obj;
 1042              		.loc 1 261 5 view .LVU303
 261:Drivers/lvgl/src/widgets/bar/lv_bar.c ****     lv_bar_t * bar = (lv_bar_t *)obj;
ARM GAS  /var/folders/qx/2_175_4n2s19vhvtspjhb3qh0000gn/T//cchuAKlx.s 			page 50


 1043              		.loc 1 261 5 view .LVU304
 1044 0000 20B1     		cbz	r0, .L72
 261:Drivers/lvgl/src/widgets/bar/lv_bar.c ****     lv_bar_t * bar = (lv_bar_t *)obj;
 1045              		.loc 1 261 5 view .LVU305
 261:Drivers/lvgl/src/widgets/bar/lv_bar.c ****     lv_bar_t * bar = (lv_bar_t *)obj;
 1046              		.loc 1 261 33 view .LVU306
 262:Drivers/lvgl/src/widgets/bar/lv_bar.c ****     return bar->val_reversed ? bar->max_value : bar->min_value;
 1047              		.loc 1 262 5 view .LVU307
 1048              	.LVL106:
 263:Drivers/lvgl/src/widgets/bar/lv_bar.c **** }
 1049              		.loc 1 263 5 view .LVU308
 263:Drivers/lvgl/src/widgets/bar/lv_bar.c **** }
 1050              		.loc 1 263 15 is_stmt 0 view .LVU309
 1051 0002 90F84C20 		ldrb	r2, [r0, #76]	@ zero_extendqisi2
 263:Drivers/lvgl/src/widgets/bar/lv_bar.c **** }
 1052              		.loc 1 263 47 view .LVU310
 1053 0006 12B1     		cbz	r2, .L73
 263:Drivers/lvgl/src/widgets/bar/lv_bar.c **** }
 1054              		.loc 1 263 47 discriminator 1 view .LVU311
 1055 0008 406B     		ldr	r0, [r0, #52]
 1056              	.LVL107:
 263:Drivers/lvgl/src/widgets/bar/lv_bar.c **** }
 1057              		.loc 1 263 47 discriminator 1 view .LVU312
 1058 000a 7047     		bx	lr
 1059              	.LVL108:
 1060              	.L72:
 261:Drivers/lvgl/src/widgets/bar/lv_bar.c ****     lv_bar_t * bar = (lv_bar_t *)obj;
 1061              		.loc 1 261 5 is_stmt 1 view .LVU313
 261:Drivers/lvgl/src/widgets/bar/lv_bar.c ****     lv_bar_t * bar = (lv_bar_t *)obj;
 1062              		.loc 1 261 5 view .LVU314
 261:Drivers/lvgl/src/widgets/bar/lv_bar.c ****     lv_bar_t * bar = (lv_bar_t *)obj;
 1063              		.loc 1 261 5 view .LVU315
 261:Drivers/lvgl/src/widgets/bar/lv_bar.c ****     lv_bar_t * bar = (lv_bar_t *)obj;
 1064              		.loc 1 261 5 view .LVU316
 261:Drivers/lvgl/src/widgets/bar/lv_bar.c ****     lv_bar_t * bar = (lv_bar_t *)obj;
 1065              		.loc 1 261 5 view .LVU317
 1066 000c FEE7     		b	.L72
 1067              	.LVL109:
 1068              	.L73:
 263:Drivers/lvgl/src/widgets/bar/lv_bar.c **** }
 1069              		.loc 1 263 47 is_stmt 0 discriminator 2 view .LVU318
 1070 000e 006B     		ldr	r0, [r0, #48]
 1071              	.LVL110:
 264:Drivers/lvgl/src/widgets/bar/lv_bar.c **** 
 1072              		.loc 1 264 1 view .LVU319
 1073 0010 7047     		bx	lr
 1074              		.cfi_endproc
 1075              	.LFE191:
 1077              		.section	.text.lv_bar_get_max_value,"ax",%progbits
 1078              		.align	1
 1079              		.global	lv_bar_get_max_value
 1080              		.syntax unified
 1081              		.thumb
 1082              		.thumb_func
 1084              	lv_bar_get_max_value:
 1085              	.LVL111:
 1086              	.LFB192:
ARM GAS  /var/folders/qx/2_175_4n2s19vhvtspjhb3qh0000gn/T//cchuAKlx.s 			page 51


 267:Drivers/lvgl/src/widgets/bar/lv_bar.c ****     LV_ASSERT_OBJ(obj, MY_CLASS);
 1087              		.loc 1 267 1 is_stmt 1 view -0
 1088              		.cfi_startproc
 1089              		@ args = 0, pretend = 0, frame = 0
 1090              		@ frame_needed = 0, uses_anonymous_args = 0
 1091              		@ link register save eliminated.
 268:Drivers/lvgl/src/widgets/bar/lv_bar.c ****     lv_bar_t * bar = (lv_bar_t *)obj;
 1092              		.loc 1 268 5 view .LVU321
 268:Drivers/lvgl/src/widgets/bar/lv_bar.c ****     lv_bar_t * bar = (lv_bar_t *)obj;
 1093              		.loc 1 268 5 view .LVU322
 1094 0000 20B1     		cbz	r0, .L77
 268:Drivers/lvgl/src/widgets/bar/lv_bar.c ****     lv_bar_t * bar = (lv_bar_t *)obj;
 1095              		.loc 1 268 5 view .LVU323
 268:Drivers/lvgl/src/widgets/bar/lv_bar.c ****     lv_bar_t * bar = (lv_bar_t *)obj;
 1096              		.loc 1 268 33 view .LVU324
 269:Drivers/lvgl/src/widgets/bar/lv_bar.c **** 
 1097              		.loc 1 269 5 view .LVU325
 1098              	.LVL112:
 271:Drivers/lvgl/src/widgets/bar/lv_bar.c **** }
 1099              		.loc 1 271 5 view .LVU326
 271:Drivers/lvgl/src/widgets/bar/lv_bar.c **** }
 1100              		.loc 1 271 15 is_stmt 0 view .LVU327
 1101 0002 90F84C20 		ldrb	r2, [r0, #76]	@ zero_extendqisi2
 271:Drivers/lvgl/src/widgets/bar/lv_bar.c **** }
 1102              		.loc 1 271 47 view .LVU328
 1103 0006 12B1     		cbz	r2, .L78
 271:Drivers/lvgl/src/widgets/bar/lv_bar.c **** }
 1104              		.loc 1 271 47 discriminator 1 view .LVU329
 1105 0008 006B     		ldr	r0, [r0, #48]
 1106              	.LVL113:
 271:Drivers/lvgl/src/widgets/bar/lv_bar.c **** }
 1107              		.loc 1 271 47 discriminator 1 view .LVU330
 1108 000a 7047     		bx	lr
 1109              	.LVL114:
 1110              	.L77:
 268:Drivers/lvgl/src/widgets/bar/lv_bar.c ****     lv_bar_t * bar = (lv_bar_t *)obj;
 1111              		.loc 1 268 5 is_stmt 1 view .LVU331
 268:Drivers/lvgl/src/widgets/bar/lv_bar.c ****     lv_bar_t * bar = (lv_bar_t *)obj;
 1112              		.loc 1 268 5 view .LVU332
 268:Drivers/lvgl/src/widgets/bar/lv_bar.c ****     lv_bar_t * bar = (lv_bar_t *)obj;
 1113              		.loc 1 268 5 view .LVU333
 268:Drivers/lvgl/src/widgets/bar/lv_bar.c ****     lv_bar_t * bar = (lv_bar_t *)obj;
 1114              		.loc 1 268 5 view .LVU334
 268:Drivers/lvgl/src/widgets/bar/lv_bar.c ****     lv_bar_t * bar = (lv_bar_t *)obj;
 1115              		.loc 1 268 5 view .LVU335
 1116 000c FEE7     		b	.L77
 1117              	.LVL115:
 1118              	.L78:
 271:Drivers/lvgl/src/widgets/bar/lv_bar.c **** }
 1119              		.loc 1 271 47 is_stmt 0 discriminator 2 view .LVU336
 1120 000e 406B     		ldr	r0, [r0, #52]
 1121              	.LVL116:
 272:Drivers/lvgl/src/widgets/bar/lv_bar.c **** 
 1122              		.loc 1 272 1 view .LVU337
 1123 0010 7047     		bx	lr
 1124              		.cfi_endproc
 1125              	.LFE192:
ARM GAS  /var/folders/qx/2_175_4n2s19vhvtspjhb3qh0000gn/T//cchuAKlx.s 			page 52


 1127              		.section	.text.lv_bar_get_mode,"ax",%progbits
 1128              		.align	1
 1129              		.global	lv_bar_get_mode
 1130              		.syntax unified
 1131              		.thumb
 1132              		.thumb_func
 1134              	lv_bar_get_mode:
 1135              	.LVL117:
 1136              	.LFB193:
 275:Drivers/lvgl/src/widgets/bar/lv_bar.c ****     LV_ASSERT_OBJ(obj, MY_CLASS);
 1137              		.loc 1 275 1 is_stmt 1 view -0
 1138              		.cfi_startproc
 1139              		@ args = 0, pretend = 0, frame = 0
 1140              		@ frame_needed = 0, uses_anonymous_args = 0
 1141              		@ link register save eliminated.
 276:Drivers/lvgl/src/widgets/bar/lv_bar.c ****     lv_bar_t * bar = (lv_bar_t *)obj;
 1142              		.loc 1 276 5 view .LVU339
 276:Drivers/lvgl/src/widgets/bar/lv_bar.c ****     lv_bar_t * bar = (lv_bar_t *)obj;
 1143              		.loc 1 276 5 view .LVU340
 1144 0000 20B1     		cbz	r0, .L82
 276:Drivers/lvgl/src/widgets/bar/lv_bar.c ****     lv_bar_t * bar = (lv_bar_t *)obj;
 1145              		.loc 1 276 5 view .LVU341
 276:Drivers/lvgl/src/widgets/bar/lv_bar.c ****     lv_bar_t * bar = (lv_bar_t *)obj;
 1146              		.loc 1 276 33 view .LVU342
 277:Drivers/lvgl/src/widgets/bar/lv_bar.c **** 
 1147              		.loc 1 277 5 view .LVU343
 1148              	.LVL118:
 279:Drivers/lvgl/src/widgets/bar/lv_bar.c **** }
 1149              		.loc 1 279 5 view .LVU344
 279:Drivers/lvgl/src/widgets/bar/lv_bar.c **** }
 1150              		.loc 1 279 15 is_stmt 0 view .LVU345
 1151 0002 90F87000 		ldrb	r0, [r0, #112]	@ zero_extendqisi2
 1152              	.LVL119:
 280:Drivers/lvgl/src/widgets/bar/lv_bar.c **** 
 1153              		.loc 1 280 1 view .LVU346
 1154 0006 00F00700 		and	r0, r0, #7
 1155 000a 7047     		bx	lr
 1156              	.LVL120:
 1157              	.L82:
 276:Drivers/lvgl/src/widgets/bar/lv_bar.c ****     lv_bar_t * bar = (lv_bar_t *)obj;
 1158              		.loc 1 276 5 is_stmt 1 view .LVU347
 276:Drivers/lvgl/src/widgets/bar/lv_bar.c ****     lv_bar_t * bar = (lv_bar_t *)obj;
 1159              		.loc 1 276 5 view .LVU348
 276:Drivers/lvgl/src/widgets/bar/lv_bar.c ****     lv_bar_t * bar = (lv_bar_t *)obj;
 1160              		.loc 1 276 5 view .LVU349
 276:Drivers/lvgl/src/widgets/bar/lv_bar.c ****     lv_bar_t * bar = (lv_bar_t *)obj;
 1161              		.loc 1 276 5 view .LVU350
 276:Drivers/lvgl/src/widgets/bar/lv_bar.c ****     lv_bar_t * bar = (lv_bar_t *)obj;
 1162              		.loc 1 276 5 view .LVU351
 1163 000c FEE7     		b	.L82
 1164              		.cfi_endproc
 1165              	.LFE193:
 1167              		.section	.text.lv_bar_set_range,"ax",%progbits
 1168              		.align	1
 1169              		.global	lv_bar_set_range
 1170              		.syntax unified
 1171              		.thumb
ARM GAS  /var/folders/qx/2_175_4n2s19vhvtspjhb3qh0000gn/T//cchuAKlx.s 			page 53


 1172              		.thumb_func
 1174              	lv_bar_set_range:
 1175              	.LVL121:
 1176              	.LFB184:
 176:Drivers/lvgl/src/widgets/bar/lv_bar.c ****     LV_ASSERT_OBJ(obj, MY_CLASS);
 1177              		.loc 1 176 1 view -0
 1178              		.cfi_startproc
 1179              		@ args = 0, pretend = 0, frame = 0
 1180              		@ frame_needed = 0, uses_anonymous_args = 0
 177:Drivers/lvgl/src/widgets/bar/lv_bar.c **** 
 1181              		.loc 1 177 5 view .LVU353
 177:Drivers/lvgl/src/widgets/bar/lv_bar.c **** 
 1182              		.loc 1 177 5 view .LVU354
 1183 0000 28B3     		cbz	r0, .L85
 176:Drivers/lvgl/src/widgets/bar/lv_bar.c ****     LV_ASSERT_OBJ(obj, MY_CLASS);
 1184              		.loc 1 176 1 is_stmt 0 view .LVU355
 1185 0002 70B5     		push	{r4, r5, r6, lr}
 1186              	.LCFI22:
 1187              		.cfi_def_cfa_offset 16
 1188              		.cfi_offset 4, -16
 1189              		.cfi_offset 5, -12
 1190              		.cfi_offset 6, -8
 1191              		.cfi_offset 14, -4
 1192 0004 1546     		mov	r5, r2
 1193 0006 0446     		mov	r4, r0
 177:Drivers/lvgl/src/widgets/bar/lv_bar.c **** 
 1194              		.loc 1 177 5 is_stmt 1 view .LVU356
 177:Drivers/lvgl/src/widgets/bar/lv_bar.c **** 
 1195              		.loc 1 177 33 view .LVU357
 179:Drivers/lvgl/src/widgets/bar/lv_bar.c **** 
 1196              		.loc 1 179 5 view .LVU358
 1197              	.LVL122:
 181:Drivers/lvgl/src/widgets/bar/lv_bar.c **** 
 1198              		.loc 1 181 5 view .LVU359
 1199 0008 9142     		cmp	r1, r2
 1200 000a CCBF     		ite	gt
 1201 000c 0123     		movgt	r3, #1
 1202 000e 0023     		movle	r3, #0
 181:Drivers/lvgl/src/widgets/bar/lv_bar.c **** 
 1203              		.loc 1 181 23 is_stmt 0 view .LVU360
 1204 0010 80F84C30 		strb	r3, [r0, #76]
 183:Drivers/lvgl/src/widgets/bar/lv_bar.c ****     int32_t real_max = bar->val_reversed ? min : max;
 1205              		.loc 1 183 5 is_stmt 1 view .LVU361
 183:Drivers/lvgl/src/widgets/bar/lv_bar.c ****     int32_t real_max = bar->val_reversed ? min : max;
 1206              		.loc 1 183 48 is_stmt 0 view .LVU362
 1207 0014 1CDD     		ble	.L93
 183:Drivers/lvgl/src/widgets/bar/lv_bar.c ****     int32_t real_max = bar->val_reversed ? min : max;
 1208              		.loc 1 183 48 discriminator 1 view .LVU363
 1209 0016 1646     		mov	r6, r2
 1210              	.L86:
 1211              	.LVL123:
 184:Drivers/lvgl/src/widgets/bar/lv_bar.c ****     if(bar->min_value == real_min && bar->max_value == real_max) return;
 1212              		.loc 1 184 5 is_stmt 1 view .LVU364
 184:Drivers/lvgl/src/widgets/bar/lv_bar.c ****     if(bar->min_value == real_min && bar->max_value == real_max) return;
 1213              		.loc 1 184 48 is_stmt 0 view .LVU365
 1214 0018 A942     		cmp	r1, r5
 1215 001a 00DD     		ble	.L87
ARM GAS  /var/folders/qx/2_175_4n2s19vhvtspjhb3qh0000gn/T//cchuAKlx.s 			page 54


 184:Drivers/lvgl/src/widgets/bar/lv_bar.c ****     if(bar->min_value == real_min && bar->max_value == real_max) return;
 1216              		.loc 1 184 48 discriminator 1 view .LVU366
 1217 001c 0D46     		mov	r5, r1
 1218              	.L87:
 1219              	.LVL124:
 185:Drivers/lvgl/src/widgets/bar/lv_bar.c **** 
 1220              		.loc 1 185 5 is_stmt 1 view .LVU367
 185:Drivers/lvgl/src/widgets/bar/lv_bar.c **** 
 1221              		.loc 1 185 11 is_stmt 0 view .LVU368
 1222 001e 236B     		ldr	r3, [r4, #48]
 185:Drivers/lvgl/src/widgets/bar/lv_bar.c **** 
 1223              		.loc 1 185 7 view .LVU369
 1224 0020 B342     		cmp	r3, r6
 1225 0022 02D1     		bne	.L88
 185:Drivers/lvgl/src/widgets/bar/lv_bar.c **** 
 1226              		.loc 1 185 41 discriminator 1 view .LVU370
 1227 0024 636B     		ldr	r3, [r4, #52]
 185:Drivers/lvgl/src/widgets/bar/lv_bar.c **** 
 1228              		.loc 1 185 35 discriminator 1 view .LVU371
 1229 0026 AB42     		cmp	r3, r5
 1230 0028 10D0     		beq	.L83
 1231              	.L88:
 187:Drivers/lvgl/src/widgets/bar/lv_bar.c ****     bar->min_value = real_min;
 1232              		.loc 1 187 5 is_stmt 1 view .LVU372
 187:Drivers/lvgl/src/widgets/bar/lv_bar.c ****     bar->min_value = real_min;
 1233              		.loc 1 187 20 is_stmt 0 view .LVU373
 1234 002a 6563     		str	r5, [r4, #52]
 188:Drivers/lvgl/src/widgets/bar/lv_bar.c **** 
 1235              		.loc 1 188 5 is_stmt 1 view .LVU374
 188:Drivers/lvgl/src/widgets/bar/lv_bar.c **** 
 1236              		.loc 1 188 20 is_stmt 0 view .LVU375
 1237 002c 2663     		str	r6, [r4, #48]
 190:Drivers/lvgl/src/widgets/bar/lv_bar.c ****         bar->start_value = real_min;
 1238              		.loc 1 190 5 is_stmt 1 view .LVU376
 190:Drivers/lvgl/src/widgets/bar/lv_bar.c ****         bar->start_value = real_min;
 1239              		.loc 1 190 8 is_stmt 0 view .LVU377
 1240 002e 2046     		mov	r0, r4
 1241              	.LVL125:
 190:Drivers/lvgl/src/widgets/bar/lv_bar.c ****         bar->start_value = real_min;
 1242              		.loc 1 190 8 view .LVU378
 1243 0030 FFF7FEFF 		bl	lv_bar_get_mode
 1244              	.LVL126:
 190:Drivers/lvgl/src/widgets/bar/lv_bar.c ****         bar->start_value = real_min;
 1245              		.loc 1 190 7 discriminator 1 view .LVU379
 1246 0034 0228     		cmp	r0, #2
 1247 0036 00D0     		beq	.L90
 191:Drivers/lvgl/src/widgets/bar/lv_bar.c **** 
 1248              		.loc 1 191 9 is_stmt 1 view .LVU380
 191:Drivers/lvgl/src/widgets/bar/lv_bar.c **** 
 1249              		.loc 1 191 26 is_stmt 0 view .LVU381
 1250 0038 A663     		str	r6, [r4, #56]
 1251              	.L90:
 193:Drivers/lvgl/src/widgets/bar/lv_bar.c ****         bar->cur_value = real_max;
 1252              		.loc 1 193 5 is_stmt 1 view .LVU382
 193:Drivers/lvgl/src/widgets/bar/lv_bar.c ****         bar->cur_value = real_max;
 1253              		.loc 1 193 11 is_stmt 0 view .LVU383
 1254 003a E36A     		ldr	r3, [r4, #44]
ARM GAS  /var/folders/qx/2_175_4n2s19vhvtspjhb3qh0000gn/T//cchuAKlx.s 			page 55


 193:Drivers/lvgl/src/widgets/bar/lv_bar.c ****         bar->cur_value = real_max;
 1255              		.loc 1 193 7 view .LVU384
 1256 003c AB42     		cmp	r3, r5
 1257 003e 09DC     		bgt	.L96
 1258              	.L91:
 197:Drivers/lvgl/src/widgets/bar/lv_bar.c ****         bar->cur_value = real_min;
 1259              		.loc 1 197 5 is_stmt 1 view .LVU385
 197:Drivers/lvgl/src/widgets/bar/lv_bar.c ****         bar->cur_value = real_min;
 1260              		.loc 1 197 11 is_stmt 0 view .LVU386
 1261 0040 E36A     		ldr	r3, [r4, #44]
 197:Drivers/lvgl/src/widgets/bar/lv_bar.c ****         bar->cur_value = real_min;
 1262              		.loc 1 197 7 view .LVU387
 1263 0042 B342     		cmp	r3, r6
 1264 0044 0DDB     		blt	.L97
 1265              	.L92:
 202:Drivers/lvgl/src/widgets/bar/lv_bar.c **** }
 1266              		.loc 1 202 5 is_stmt 1 view .LVU388
 1267 0046 2046     		mov	r0, r4
 1268 0048 FFF7FEFF 		bl	lv_obj_invalidate
 1269              	.LVL127:
 1270              	.L83:
 203:Drivers/lvgl/src/widgets/bar/lv_bar.c **** 
 1271              		.loc 1 203 1 is_stmt 0 view .LVU389
 1272 004c 70BD     		pop	{r4, r5, r6, pc}
 1273              	.LVL128:
 1274              	.L85:
 1275              	.LCFI23:
 1276              		.cfi_def_cfa_offset 0
 1277              		.cfi_restore 4
 1278              		.cfi_restore 5
 1279              		.cfi_restore 6
 1280              		.cfi_restore 14
 177:Drivers/lvgl/src/widgets/bar/lv_bar.c **** 
 1281              		.loc 1 177 5 is_stmt 1 view .LVU390
 177:Drivers/lvgl/src/widgets/bar/lv_bar.c **** 
 1282              		.loc 1 177 5 view .LVU391
 177:Drivers/lvgl/src/widgets/bar/lv_bar.c **** 
 1283              		.loc 1 177 5 view .LVU392
 177:Drivers/lvgl/src/widgets/bar/lv_bar.c **** 
 1284              		.loc 1 177 5 view .LVU393
 177:Drivers/lvgl/src/widgets/bar/lv_bar.c **** 
 1285              		.loc 1 177 5 view .LVU394
 1286 004e FEE7     		b	.L85
 1287              	.LVL129:
 1288              	.L93:
 1289              	.LCFI24:
 1290              		.cfi_def_cfa_offset 16
 1291              		.cfi_offset 4, -16
 1292              		.cfi_offset 5, -12
 1293              		.cfi_offset 6, -8
 1294              		.cfi_offset 14, -4
 183:Drivers/lvgl/src/widgets/bar/lv_bar.c ****     int32_t real_max = bar->val_reversed ? min : max;
 1295              		.loc 1 183 48 is_stmt 0 discriminator 2 view .LVU395
 1296 0050 0E46     		mov	r6, r1
 1297 0052 E1E7     		b	.L86
 1298              	.LVL130:
 1299              	.L96:
ARM GAS  /var/folders/qx/2_175_4n2s19vhvtspjhb3qh0000gn/T//cchuAKlx.s 			page 56


 194:Drivers/lvgl/src/widgets/bar/lv_bar.c ****         lv_bar_set_value(obj, bar->cur_value, LV_ANIM_OFF);
 1300              		.loc 1 194 9 is_stmt 1 view .LVU396
 194:Drivers/lvgl/src/widgets/bar/lv_bar.c ****         lv_bar_set_value(obj, bar->cur_value, LV_ANIM_OFF);
 1301              		.loc 1 194 24 is_stmt 0 view .LVU397
 1302 0054 E562     		str	r5, [r4, #44]
 195:Drivers/lvgl/src/widgets/bar/lv_bar.c ****     }
 1303              		.loc 1 195 9 is_stmt 1 view .LVU398
 1304 0056 0022     		movs	r2, #0
 1305 0058 2946     		mov	r1, r5
 1306 005a 2046     		mov	r0, r4
 1307 005c FFF7FEFF 		bl	lv_bar_set_value
 1308              	.LVL131:
 1309 0060 EEE7     		b	.L91
 1310              	.L97:
 198:Drivers/lvgl/src/widgets/bar/lv_bar.c ****         lv_bar_set_value(obj, bar->cur_value, LV_ANIM_OFF);
 1311              		.loc 1 198 9 view .LVU399
 198:Drivers/lvgl/src/widgets/bar/lv_bar.c ****         lv_bar_set_value(obj, bar->cur_value, LV_ANIM_OFF);
 1312              		.loc 1 198 24 is_stmt 0 view .LVU400
 1313 0062 E662     		str	r6, [r4, #44]
 199:Drivers/lvgl/src/widgets/bar/lv_bar.c ****     }
 1314              		.loc 1 199 9 is_stmt 1 view .LVU401
 1315 0064 0022     		movs	r2, #0
 1316 0066 3146     		mov	r1, r6
 1317 0068 2046     		mov	r0, r4
 1318 006a FFF7FEFF 		bl	lv_bar_set_value
 1319              	.LVL132:
 1320 006e EAE7     		b	.L92
 1321              		.cfi_endproc
 1322              	.LFE184:
 1324              		.section	.text.lv_bar_set_min_value,"ax",%progbits
 1325              		.align	1
 1326              		.global	lv_bar_set_min_value
 1327              		.syntax unified
 1328              		.thumb
 1329              		.thumb_func
 1331              	lv_bar_set_min_value:
 1332              	.LVL133:
 1333              	.LFB185:
 206:Drivers/lvgl/src/widgets/bar/lv_bar.c ****     lv_bar_set_range(obj, min, lv_bar_get_max_value(obj));
 1334              		.loc 1 206 1 view -0
 1335              		.cfi_startproc
 1336              		@ args = 0, pretend = 0, frame = 0
 1337              		@ frame_needed = 0, uses_anonymous_args = 0
 206:Drivers/lvgl/src/widgets/bar/lv_bar.c ****     lv_bar_set_range(obj, min, lv_bar_get_max_value(obj));
 1338              		.loc 1 206 1 is_stmt 0 view .LVU403
 1339 0000 38B5     		push	{r3, r4, r5, lr}
 1340              	.LCFI25:
 1341              		.cfi_def_cfa_offset 16
 1342              		.cfi_offset 3, -16
 1343              		.cfi_offset 4, -12
 1344              		.cfi_offset 5, -8
 1345              		.cfi_offset 14, -4
 1346 0002 0446     		mov	r4, r0
 1347 0004 0D46     		mov	r5, r1
 207:Drivers/lvgl/src/widgets/bar/lv_bar.c **** }
 1348              		.loc 1 207 5 is_stmt 1 view .LVU404
 1349 0006 FFF7FEFF 		bl	lv_bar_get_max_value
ARM GAS  /var/folders/qx/2_175_4n2s19vhvtspjhb3qh0000gn/T//cchuAKlx.s 			page 57


 1350              	.LVL134:
 207:Drivers/lvgl/src/widgets/bar/lv_bar.c **** }
 1351              		.loc 1 207 5 is_stmt 0 view .LVU405
 1352 000a 0246     		mov	r2, r0
 207:Drivers/lvgl/src/widgets/bar/lv_bar.c **** }
 1353              		.loc 1 207 5 discriminator 1 view .LVU406
 1354 000c 2946     		mov	r1, r5
 1355 000e 2046     		mov	r0, r4
 1356 0010 FFF7FEFF 		bl	lv_bar_set_range
 1357              	.LVL135:
 208:Drivers/lvgl/src/widgets/bar/lv_bar.c **** 
 1358              		.loc 1 208 1 view .LVU407
 1359 0014 38BD     		pop	{r3, r4, r5, pc}
 208:Drivers/lvgl/src/widgets/bar/lv_bar.c **** 
 1360              		.loc 1 208 1 view .LVU408
 1361              		.cfi_endproc
 1362              	.LFE185:
 1364              		.section	.text.lv_bar_set_max_value,"ax",%progbits
 1365              		.align	1
 1366              		.global	lv_bar_set_max_value
 1367              		.syntax unified
 1368              		.thumb
 1369              		.thumb_func
 1371              	lv_bar_set_max_value:
 1372              	.LVL136:
 1373              	.LFB186:
 211:Drivers/lvgl/src/widgets/bar/lv_bar.c ****     lv_bar_set_range(obj, lv_bar_get_min_value(obj), max);
 1374              		.loc 1 211 1 is_stmt 1 view -0
 1375              		.cfi_startproc
 1376              		@ args = 0, pretend = 0, frame = 0
 1377              		@ frame_needed = 0, uses_anonymous_args = 0
 211:Drivers/lvgl/src/widgets/bar/lv_bar.c ****     lv_bar_set_range(obj, lv_bar_get_min_value(obj), max);
 1378              		.loc 1 211 1 is_stmt 0 view .LVU410
 1379 0000 38B5     		push	{r3, r4, r5, lr}
 1380              	.LCFI26:
 1381              		.cfi_def_cfa_offset 16
 1382              		.cfi_offset 3, -16
 1383              		.cfi_offset 4, -12
 1384              		.cfi_offset 5, -8
 1385              		.cfi_offset 14, -4
 1386 0002 0446     		mov	r4, r0
 1387 0004 0D46     		mov	r5, r1
 212:Drivers/lvgl/src/widgets/bar/lv_bar.c **** }
 1388              		.loc 1 212 5 is_stmt 1 view .LVU411
 1389 0006 FFF7FEFF 		bl	lv_bar_get_min_value
 1390              	.LVL137:
 212:Drivers/lvgl/src/widgets/bar/lv_bar.c **** }
 1391              		.loc 1 212 5 is_stmt 0 view .LVU412
 1392 000a 0146     		mov	r1, r0
 212:Drivers/lvgl/src/widgets/bar/lv_bar.c **** }
 1393              		.loc 1 212 5 discriminator 1 view .LVU413
 1394 000c 2A46     		mov	r2, r5
 1395 000e 2046     		mov	r0, r4
 1396 0010 FFF7FEFF 		bl	lv_bar_set_range
 1397              	.LVL138:
 213:Drivers/lvgl/src/widgets/bar/lv_bar.c **** 
 1398              		.loc 1 213 1 view .LVU414
ARM GAS  /var/folders/qx/2_175_4n2s19vhvtspjhb3qh0000gn/T//cchuAKlx.s 			page 58


 1399 0014 38BD     		pop	{r3, r4, r5, pc}
 213:Drivers/lvgl/src/widgets/bar/lv_bar.c **** 
 1400              		.loc 1 213 1 view .LVU415
 1401              		.cfi_endproc
 1402              	.LFE186:
 1404              		.section	.text.lv_bar_get_orientation,"ax",%progbits
 1405              		.align	1
 1406              		.global	lv_bar_get_orientation
 1407              		.syntax unified
 1408              		.thumb
 1409              		.thumb_func
 1411              	lv_bar_get_orientation:
 1412              	.LVL139:
 1413              	.LFB194:
 283:Drivers/lvgl/src/widgets/bar/lv_bar.c ****     LV_ASSERT_OBJ(obj, MY_CLASS);
 1414              		.loc 1 283 1 is_stmt 1 view -0
 1415              		.cfi_startproc
 1416              		@ args = 0, pretend = 0, frame = 0
 1417              		@ frame_needed = 0, uses_anonymous_args = 0
 1418              		@ link register save eliminated.
 284:Drivers/lvgl/src/widgets/bar/lv_bar.c ****     lv_bar_t * bar = (lv_bar_t *)obj;
 1419              		.loc 1 284 5 view .LVU417
 284:Drivers/lvgl/src/widgets/bar/lv_bar.c ****     lv_bar_t * bar = (lv_bar_t *)obj;
 1420              		.loc 1 284 5 view .LVU418
 1421 0000 20B1     		cbz	r0, .L104
 284:Drivers/lvgl/src/widgets/bar/lv_bar.c ****     lv_bar_t * bar = (lv_bar_t *)obj;
 1422              		.loc 1 284 5 view .LVU419
 284:Drivers/lvgl/src/widgets/bar/lv_bar.c ****     lv_bar_t * bar = (lv_bar_t *)obj;
 1423              		.loc 1 284 33 view .LVU420
 285:Drivers/lvgl/src/widgets/bar/lv_bar.c **** 
 1424              		.loc 1 285 5 view .LVU421
 1425              	.LVL140:
 287:Drivers/lvgl/src/widgets/bar/lv_bar.c **** }
 1426              		.loc 1 287 5 view .LVU422
 287:Drivers/lvgl/src/widgets/bar/lv_bar.c **** }
 1427              		.loc 1 287 15 is_stmt 0 view .LVU423
 1428 0002 90F87000 		ldrb	r0, [r0, #112]	@ zero_extendqisi2
 1429              	.LVL141:
 288:Drivers/lvgl/src/widgets/bar/lv_bar.c **** 
 1430              		.loc 1 288 1 view .LVU424
 1431 0006 C0F3C200 		ubfx	r0, r0, #3, #3
 1432 000a 7047     		bx	lr
 1433              	.LVL142:
 1434              	.L104:
 284:Drivers/lvgl/src/widgets/bar/lv_bar.c ****     lv_bar_t * bar = (lv_bar_t *)obj;
 1435              		.loc 1 284 5 is_stmt 1 view .LVU425
 284:Drivers/lvgl/src/widgets/bar/lv_bar.c ****     lv_bar_t * bar = (lv_bar_t *)obj;
 1436              		.loc 1 284 5 view .LVU426
 284:Drivers/lvgl/src/widgets/bar/lv_bar.c ****     lv_bar_t * bar = (lv_bar_t *)obj;
 1437              		.loc 1 284 5 view .LVU427
 284:Drivers/lvgl/src/widgets/bar/lv_bar.c ****     lv_bar_t * bar = (lv_bar_t *)obj;
 1438              		.loc 1 284 5 view .LVU428
 284:Drivers/lvgl/src/widgets/bar/lv_bar.c ****     lv_bar_t * bar = (lv_bar_t *)obj;
 1439              		.loc 1 284 5 view .LVU429
 1440 000c FEE7     		b	.L104
 1441              		.cfi_endproc
 1442              	.LFE194:
ARM GAS  /var/folders/qx/2_175_4n2s19vhvtspjhb3qh0000gn/T//cchuAKlx.s 			page 59


 1444              		.section	.text.lv_bar_is_symmetrical,"ax",%progbits
 1445              		.align	1
 1446              		.global	lv_bar_is_symmetrical
 1447              		.syntax unified
 1448              		.thumb
 1449              		.thumb_func
 1451              	lv_bar_is_symmetrical:
 1452              	.LVL143:
 1453              	.LFB195:
 291:Drivers/lvgl/src/widgets/bar/lv_bar.c ****     LV_ASSERT_OBJ(obj, MY_CLASS);
 1454              		.loc 1 291 1 view -0
 1455              		.cfi_startproc
 1456              		@ args = 0, pretend = 0, frame = 0
 1457              		@ frame_needed = 0, uses_anonymous_args = 0
 1458              		@ link register save eliminated.
 292:Drivers/lvgl/src/widgets/bar/lv_bar.c ****     lv_bar_t * bar = (lv_bar_t *)obj;
 1459              		.loc 1 292 5 view .LVU431
 292:Drivers/lvgl/src/widgets/bar/lv_bar.c ****     lv_bar_t * bar = (lv_bar_t *)obj;
 1460              		.loc 1 292 5 view .LVU432
 1461 0000 38B1     		cbz	r0, .L107
 292:Drivers/lvgl/src/widgets/bar/lv_bar.c ****     lv_bar_t * bar = (lv_bar_t *)obj;
 1462              		.loc 1 292 5 view .LVU433
 292:Drivers/lvgl/src/widgets/bar/lv_bar.c ****     lv_bar_t * bar = (lv_bar_t *)obj;
 1463              		.loc 1 292 33 view .LVU434
 293:Drivers/lvgl/src/widgets/bar/lv_bar.c **** 
 1464              		.loc 1 293 5 view .LVU435
 1465              	.LVL144:
 295:Drivers/lvgl/src/widgets/bar/lv_bar.c ****             bar->start_value == bar->min_value;
 1466              		.loc 1 295 5 view .LVU436
 295:Drivers/lvgl/src/widgets/bar/lv_bar.c ****             bar->start_value == bar->min_value;
 1467              		.loc 1 295 23 is_stmt 0 view .LVU437
 1468 0002 90F87030 		ldrb	r3, [r0, #112]	@ zero_extendqisi2
 1469 0006 03F00703 		and	r3, r3, #7
 295:Drivers/lvgl/src/widgets/bar/lv_bar.c ****             bar->start_value == bar->min_value;
 1470              		.loc 1 295 94 view .LVU438
 1471 000a 012B     		cmp	r3, #1
 1472 000c 02D0     		beq	.L113
 295:Drivers/lvgl/src/widgets/bar/lv_bar.c ****             bar->start_value == bar->min_value;
 1473              		.loc 1 295 94 discriminator 8 view .LVU439
 1474 000e 0020     		movs	r0, #0
 1475              	.LVL145:
 295:Drivers/lvgl/src/widgets/bar/lv_bar.c ****             bar->start_value == bar->min_value;
 1476              		.loc 1 295 94 discriminator 8 view .LVU440
 1477 0010 7047     		bx	lr
 1478              	.LVL146:
 1479              	.L107:
 292:Drivers/lvgl/src/widgets/bar/lv_bar.c ****     lv_bar_t * bar = (lv_bar_t *)obj;
 1480              		.loc 1 292 5 is_stmt 1 view .LVU441
 292:Drivers/lvgl/src/widgets/bar/lv_bar.c ****     lv_bar_t * bar = (lv_bar_t *)obj;
 1481              		.loc 1 292 5 view .LVU442
 292:Drivers/lvgl/src/widgets/bar/lv_bar.c ****     lv_bar_t * bar = (lv_bar_t *)obj;
 1482              		.loc 1 292 5 view .LVU443
 292:Drivers/lvgl/src/widgets/bar/lv_bar.c ****     lv_bar_t * bar = (lv_bar_t *)obj;
 1483              		.loc 1 292 5 view .LVU444
 292:Drivers/lvgl/src/widgets/bar/lv_bar.c ****     lv_bar_t * bar = (lv_bar_t *)obj;
 1484              		.loc 1 292 5 view .LVU445
 1485 0012 FEE7     		b	.L107
ARM GAS  /var/folders/qx/2_175_4n2s19vhvtspjhb3qh0000gn/T//cchuAKlx.s 			page 60


 1486              	.LVL147:
 1487              	.L113:
 295:Drivers/lvgl/src/widgets/bar/lv_bar.c ****             bar->start_value == bar->min_value;
 1488              		.loc 1 295 56 is_stmt 0 discriminator 1 view .LVU446
 1489 0014 036B     		ldr	r3, [r0, #48]
 295:Drivers/lvgl/src/widgets/bar/lv_bar.c ****             bar->start_value == bar->min_value;
 1490              		.loc 1 295 50 discriminator 1 view .LVU447
 1491 0016 002B     		cmp	r3, #0
 1492 0018 01DB     		blt	.L114
 295:Drivers/lvgl/src/widgets/bar/lv_bar.c ****             bar->start_value == bar->min_value;
 1493              		.loc 1 295 94 discriminator 8 view .LVU448
 1494 001a 0020     		movs	r0, #0
 1495              	.LVL148:
 295:Drivers/lvgl/src/widgets/bar/lv_bar.c ****             bar->start_value == bar->min_value;
 1496              		.loc 1 295 94 discriminator 8 view .LVU449
 1497 001c 7047     		bx	lr
 1498              	.LVL149:
 1499              	.L114:
 295:Drivers/lvgl/src/widgets/bar/lv_bar.c ****             bar->start_value == bar->min_value;
 1500              		.loc 1 295 78 discriminator 3 view .LVU450
 1501 001e 416B     		ldr	r1, [r0, #52]
 295:Drivers/lvgl/src/widgets/bar/lv_bar.c ****             bar->start_value == bar->min_value;
 1502              		.loc 1 295 72 discriminator 3 view .LVU451
 1503 0020 0029     		cmp	r1, #0
 1504 0022 04DD     		ble	.L111
 296:Drivers/lvgl/src/widgets/bar/lv_bar.c **** }
 1505              		.loc 1 296 16 view .LVU452
 1506 0024 826B     		ldr	r2, [r0, #56]
 295:Drivers/lvgl/src/widgets/bar/lv_bar.c ****             bar->start_value == bar->min_value;
 1507              		.loc 1 295 94 discriminator 5 view .LVU453
 1508 0026 9342     		cmp	r3, r2
 1509 0028 03D0     		beq	.L112
 295:Drivers/lvgl/src/widgets/bar/lv_bar.c ****             bar->start_value == bar->min_value;
 1510              		.loc 1 295 94 discriminator 8 view .LVU454
 1511 002a 0020     		movs	r0, #0
 1512              	.LVL150:
 295:Drivers/lvgl/src/widgets/bar/lv_bar.c ****             bar->start_value == bar->min_value;
 1513              		.loc 1 295 94 discriminator 8 view .LVU455
 1514 002c 7047     		bx	lr
 1515              	.LVL151:
 1516              	.L111:
 295:Drivers/lvgl/src/widgets/bar/lv_bar.c ****             bar->start_value == bar->min_value;
 1517              		.loc 1 295 94 discriminator 8 view .LVU456
 1518 002e 0020     		movs	r0, #0
 1519              	.LVL152:
 295:Drivers/lvgl/src/widgets/bar/lv_bar.c ****             bar->start_value == bar->min_value;
 1520              		.loc 1 295 94 discriminator 8 view .LVU457
 1521 0030 7047     		bx	lr
 1522              	.LVL153:
 1523              	.L112:
 295:Drivers/lvgl/src/widgets/bar/lv_bar.c ****             bar->start_value == bar->min_value;
 1524              		.loc 1 295 94 discriminator 7 view .LVU458
 1525 0032 0120     		movs	r0, #1
 1526              	.LVL154:
 297:Drivers/lvgl/src/widgets/bar/lv_bar.c **** 
 1527              		.loc 1 297 1 view .LVU459
 1528 0034 7047     		bx	lr
ARM GAS  /var/folders/qx/2_175_4n2s19vhvtspjhb3qh0000gn/T//cchuAKlx.s 			page 61


 1529              		.cfi_endproc
 1530              	.LFE195:
 1532              		.section	.text.draw_indic,"ax",%progbits
 1533              		.align	1
 1534              		.syntax unified
 1535              		.thumb
 1536              		.thumb_func
 1538              	draw_indic:
 1539              	.LVL155:
 1540              	.LFB199:
 357:Drivers/lvgl/src/widgets/bar/lv_bar.c ****     lv_obj_t * obj = lv_event_get_current_target(e);
 1541              		.loc 1 357 1 is_stmt 1 view -0
 1542              		.cfi_startproc
 1543              		@ args = 0, pretend = 0, frame = 592
 1544              		@ frame_needed = 0, uses_anonymous_args = 0
 357:Drivers/lvgl/src/widgets/bar/lv_bar.c ****     lv_obj_t * obj = lv_event_get_current_target(e);
 1545              		.loc 1 357 1 is_stmt 0 view .LVU461
 1546 0000 2DE9F04F 		push	{r4, r5, r6, r7, r8, r9, r10, fp, lr}
 1547              	.LCFI27:
 1548              		.cfi_def_cfa_offset 36
 1549              		.cfi_offset 4, -36
 1550              		.cfi_offset 5, -32
 1551              		.cfi_offset 6, -28
 1552              		.cfi_offset 7, -24
 1553              		.cfi_offset 8, -20
 1554              		.cfi_offset 9, -16
 1555              		.cfi_offset 10, -12
 1556              		.cfi_offset 11, -8
 1557              		.cfi_offset 14, -4
 1558 0004 ADF5157D 		sub	sp, sp, #596
 1559              	.LCFI28:
 1560              		.cfi_def_cfa_offset 632
 1561 0008 0546     		mov	r5, r0
 358:Drivers/lvgl/src/widgets/bar/lv_bar.c ****     lv_bar_t * bar = (lv_bar_t *)obj;
 1562              		.loc 1 358 5 is_stmt 1 view .LVU462
 358:Drivers/lvgl/src/widgets/bar/lv_bar.c ****     lv_bar_t * bar = (lv_bar_t *)obj;
 1563              		.loc 1 358 22 is_stmt 0 view .LVU463
 1564 000a FFF7FEFF 		bl	lv_event_get_current_target
 1565              	.LVL156:
 358:Drivers/lvgl/src/widgets/bar/lv_bar.c ****     lv_bar_t * bar = (lv_bar_t *)obj;
 1566              		.loc 1 358 22 view .LVU464
 1567 000e 0446     		mov	r4, r0
 1568              	.LVL157:
 359:Drivers/lvgl/src/widgets/bar/lv_bar.c **** 
 1569              		.loc 1 359 5 is_stmt 1 view .LVU465
 361:Drivers/lvgl/src/widgets/bar/lv_bar.c **** 
 1570              		.loc 1 361 5 view .LVU466
 361:Drivers/lvgl/src/widgets/bar/lv_bar.c **** 
 1571              		.loc 1 361 26 is_stmt 0 view .LVU467
 1572 0010 2846     		mov	r0, r5
 1573              	.LVL158:
 361:Drivers/lvgl/src/widgets/bar/lv_bar.c **** 
 1574              		.loc 1 361 26 view .LVU468
 1575 0012 FFF7FEFF 		bl	lv_event_get_layer
 1576              	.LVL159:
 1577 0016 0090     		str	r0, [sp]
 1578              	.LVL160:
ARM GAS  /var/folders/qx/2_175_4n2s19vhvtspjhb3qh0000gn/T//cchuAKlx.s 			page 62


 363:Drivers/lvgl/src/widgets/bar/lv_bar.c ****     lv_obj_get_coords(obj, &bar_coords);
 1579              		.loc 1 363 5 is_stmt 1 view .LVU469
 364:Drivers/lvgl/src/widgets/bar/lv_bar.c **** 
 1580              		.loc 1 364 5 view .LVU470
 1581 0018 90AD     		add	r5, sp, #576
 1582              	.LVL161:
 364:Drivers/lvgl/src/widgets/bar/lv_bar.c **** 
 1583              		.loc 1 364 5 is_stmt 0 view .LVU471
 1584 001a 2946     		mov	r1, r5
 1585 001c 2046     		mov	r0, r4
 1586              	.LVL162:
 364:Drivers/lvgl/src/widgets/bar/lv_bar.c **** 
 1587              		.loc 1 364 5 view .LVU472
 1588 001e FFF7FEFF 		bl	lv_obj_get_coords
 1589              	.LVL163:
 366:Drivers/lvgl/src/widgets/bar/lv_bar.c ****     int32_t transf_h = lv_obj_get_style_transform_height(obj, LV_PART_MAIN);
 1590              		.loc 1 366 5 is_stmt 1 view .LVU473
 1591              	.LBB49:
 1592              	.LBI49:
  82:Drivers/lvgl/src/widgets/bar/../../core/lv_obj_style_gen.h **** {
 1593              		.loc 2 82 23 view .LVU474
 1594              	.LBB50:
  84:Drivers/lvgl/src/widgets/bar/../../core/lv_obj_style_gen.h ****     return (int32_t)v.num;
 1595              		.loc 2 84 5 view .LVU475
  84:Drivers/lvgl/src/widgets/bar/../../core/lv_obj_style_gen.h ****     return (int32_t)v.num;
 1596              		.loc 2 84 26 is_stmt 0 view .LVU476
 1597 0022 6A22     		movs	r2, #106
 1598 0024 0021     		movs	r1, #0
 1599 0026 2046     		mov	r0, r4
 1600 0028 FFF7FEFF 		bl	lv_obj_get_style_prop
 1601              	.LVL164:
 1602 002c 0646     		mov	r6, r0
 1603 002e 3890     		str	r0, [sp, #224]
  85:Drivers/lvgl/src/widgets/bar/../../core/lv_obj_style_gen.h **** }
 1604              		.loc 2 85 5 is_stmt 1 view .LVU477
 1605              	.LVL165:
  85:Drivers/lvgl/src/widgets/bar/../../core/lv_obj_style_gen.h **** }
 1606              		.loc 2 85 5 is_stmt 0 view .LVU478
 1607              	.LBE50:
 1608              	.LBE49:
 367:Drivers/lvgl/src/widgets/bar/lv_bar.c ****     lv_area_increase(&bar_coords, transf_w, transf_h);
 1609              		.loc 1 367 5 is_stmt 1 view .LVU479
 1610              	.LBB51:
 1611              	.LBI51:
  88:Drivers/lvgl/src/widgets/bar/../../core/lv_obj_style_gen.h **** {
 1612              		.loc 2 88 23 view .LVU480
 1613              	.LBB52:
  90:Drivers/lvgl/src/widgets/bar/../../core/lv_obj_style_gen.h ****     return (int32_t)v.num;
 1614              		.loc 2 90 5 view .LVU481
  90:Drivers/lvgl/src/widgets/bar/../../core/lv_obj_style_gen.h ****     return (int32_t)v.num;
 1615              		.loc 2 90 26 is_stmt 0 view .LVU482
 1616 0030 6B22     		movs	r2, #107
 1617 0032 0021     		movs	r1, #0
 1618 0034 2046     		mov	r0, r4
 1619              	.LVL166:
  90:Drivers/lvgl/src/widgets/bar/../../core/lv_obj_style_gen.h ****     return (int32_t)v.num;
 1620              		.loc 2 90 26 view .LVU483
ARM GAS  /var/folders/qx/2_175_4n2s19vhvtspjhb3qh0000gn/T//cchuAKlx.s 			page 63


 1621 0036 FFF7FEFF 		bl	lv_obj_get_style_prop
 1622              	.LVL167:
 1623 003a 0246     		mov	r2, r0
 1624 003c 3890     		str	r0, [sp, #224]
  91:Drivers/lvgl/src/widgets/bar/../../core/lv_obj_style_gen.h **** }
 1625              		.loc 2 91 5 is_stmt 1 view .LVU484
 1626              	.LVL168:
  91:Drivers/lvgl/src/widgets/bar/../../core/lv_obj_style_gen.h **** }
 1627              		.loc 2 91 5 is_stmt 0 view .LVU485
 1628              	.LBE52:
 1629              	.LBE51:
 368:Drivers/lvgl/src/widgets/bar/lv_bar.c ****     int32_t barw = lv_area_get_width(&bar_coords);
 1630              		.loc 1 368 5 is_stmt 1 view .LVU486
 1631 003e 3146     		mov	r1, r6
 1632 0040 2846     		mov	r0, r5
 1633              	.LVL169:
 368:Drivers/lvgl/src/widgets/bar/lv_bar.c ****     int32_t barw = lv_area_get_width(&bar_coords);
 1634              		.loc 1 368 5 is_stmt 0 view .LVU487
 1635 0042 FFF7FEFF 		bl	lv_area_increase
 1636              	.LVL170:
 369:Drivers/lvgl/src/widgets/bar/lv_bar.c ****     int32_t barh = lv_area_get_height(&bar_coords);
 1637              		.loc 1 369 5 is_stmt 1 view .LVU488
 369:Drivers/lvgl/src/widgets/bar/lv_bar.c ****     int32_t barh = lv_area_get_height(&bar_coords);
 1638              		.loc 1 369 20 is_stmt 0 view .LVU489
 1639 0046 2846     		mov	r0, r5
 1640 0048 FFF7FEFF 		bl	lv_area_get_width
 1641              	.LVL171:
 1642 004c 0590     		str	r0, [sp, #20]
 1643              	.LVL172:
 370:Drivers/lvgl/src/widgets/bar/lv_bar.c ****     int32_t range = bar->max_value - bar->min_value;
 1644              		.loc 1 370 5 is_stmt 1 view .LVU490
 370:Drivers/lvgl/src/widgets/bar/lv_bar.c ****     int32_t range = bar->max_value - bar->min_value;
 1645              		.loc 1 370 20 is_stmt 0 view .LVU491
 1646 004e 2846     		mov	r0, r5
 1647              	.LVL173:
 370:Drivers/lvgl/src/widgets/bar/lv_bar.c ****     int32_t range = bar->max_value - bar->min_value;
 1648              		.loc 1 370 20 view .LVU492
 1649 0050 FFF7FEFF 		bl	lv_area_get_height
 1650              	.LVL174:
 1651 0054 0690     		str	r0, [sp, #24]
 1652              	.LVL175:
 371:Drivers/lvgl/src/widgets/bar/lv_bar.c **** 
 1653              		.loc 1 371 5 is_stmt 1 view .LVU493
 371:Drivers/lvgl/src/widgets/bar/lv_bar.c **** 
 1654              		.loc 1 371 24 is_stmt 0 view .LVU494
 1655 0056 676B     		ldr	r7, [r4, #52]
 371:Drivers/lvgl/src/widgets/bar/lv_bar.c **** 
 1656              		.loc 1 371 41 view .LVU495
 1657 0058 236B     		ldr	r3, [r4, #48]
 1658              	.LVL176:
 374:Drivers/lvgl/src/widgets/bar/lv_bar.c ****         range = 1;
 1659              		.loc 1 374 5 is_stmt 1 view .LVU496
 374:Drivers/lvgl/src/widgets/bar/lv_bar.c ****         range = 1;
 1660              		.loc 1 374 7 is_stmt 0 view .LVU497
 1661 005a FF1A     		subs	r7, r7, r3
 1662              	.LVL177:
 374:Drivers/lvgl/src/widgets/bar/lv_bar.c ****         range = 1;
ARM GAS  /var/folders/qx/2_175_4n2s19vhvtspjhb3qh0000gn/T//cchuAKlx.s 			page 64


 1663              		.loc 1 374 7 view .LVU498
 1664 005c 00D1     		bne	.L116
 375:Drivers/lvgl/src/widgets/bar/lv_bar.c ****     }
 1665              		.loc 1 375 15 view .LVU499
 1666 005e 0127     		movs	r7, #1
 1667              	.LVL178:
 1668              	.L116:
 378:Drivers/lvgl/src/widgets/bar/lv_bar.c ****     switch(bar->orientation) {
 1669              		.loc 1 378 5 is_stmt 1 view .LVU500
 379:Drivers/lvgl/src/widgets/bar/lv_bar.c ****         case LV_BAR_ORIENTATION_HORIZONTAL:
 1670              		.loc 1 379 5 view .LVU501
 379:Drivers/lvgl/src/widgets/bar/lv_bar.c ****         case LV_BAR_ORIENTATION_HORIZONTAL:
 1671              		.loc 1 379 15 is_stmt 0 view .LVU502
 1672 0060 94F87030 		ldrb	r3, [r4, #112]	@ zero_extendqisi2
 1673 0064 C3F3C203 		ubfx	r3, r3, #3, #3
 379:Drivers/lvgl/src/widgets/bar/lv_bar.c ****         case LV_BAR_ORIENTATION_HORIZONTAL:
 1674              		.loc 1 379 5 view .LVU503
 1675 0068 012B     		cmp	r3, #1
 1676 006a 00F0A480 		beq	.L166
 1677 006e 022B     		cmp	r3, #2
 1678 0070 00F0A480 		beq	.L167
 388:Drivers/lvgl/src/widgets/bar/lv_bar.c ****             break;
 1679              		.loc 1 388 13 is_stmt 1 view .LVU504
 388:Drivers/lvgl/src/widgets/bar/lv_bar.c ****             break;
 1680              		.loc 1 388 17 is_stmt 0 view .LVU505
 1681 0074 059B     		ldr	r3, [sp, #20]
 1682 0076 069A     		ldr	r2, [sp, #24]
 1683 0078 9342     		cmp	r3, r2
 1684 007a B4BF     		ite	lt
 1685 007c 4FF00009 		movlt	r9, #0
 1686 0080 4FF00109 		movge	r9, #1
 1687              	.LVL179:
 389:Drivers/lvgl/src/widgets/bar/lv_bar.c ****     }
 1688              		.loc 1 389 13 is_stmt 1 view .LVU506
 1689              	.L117:
 392:Drivers/lvgl/src/widgets/bar/lv_bar.c **** 
 1690              		.loc 1 392 5 view .LVU507
 392:Drivers/lvgl/src/widgets/bar/lv_bar.c **** 
 1691              		.loc 1 392 16 is_stmt 0 view .LVU508
 1692 0084 2046     		mov	r0, r4
 1693              	.LVL180:
 392:Drivers/lvgl/src/widgets/bar/lv_bar.c **** 
 1694              		.loc 1 392 16 view .LVU509
 1695 0086 FFF7FEFF 		bl	lv_bar_is_symmetrical
 1696              	.LVL181:
 1697 008a 0890     		str	r0, [sp, #32]
 1698              	.LVL182:
 395:Drivers/lvgl/src/widgets/bar/lv_bar.c ****     int32_t bg_right = lv_obj_get_style_pad_right(obj,   LV_PART_MAIN);
 1699              		.loc 1 395 5 is_stmt 1 view .LVU510
 1700              	.LBB53:
 1701              	.LBI53:
 166:Drivers/lvgl/src/widgets/bar/../../core/lv_obj_style_gen.h **** {
 1702              		.loc 2 166 23 view .LVU511
 1703              	.LBB54:
 168:Drivers/lvgl/src/widgets/bar/../../core/lv_obj_style_gen.h ****     return (int32_t)v.num;
 1704              		.loc 2 168 5 view .LVU512
 168:Drivers/lvgl/src/widgets/bar/../../core/lv_obj_style_gen.h ****     return (int32_t)v.num;
ARM GAS  /var/folders/qx/2_175_4n2s19vhvtspjhb3qh0000gn/T//cchuAKlx.s 			page 65


 1705              		.loc 2 168 26 is_stmt 0 view .LVU513
 1706 008c 1222     		movs	r2, #18
 1707 008e 0021     		movs	r1, #0
 1708 0090 2046     		mov	r0, r4
 1709 0092 FFF7FEFF 		bl	lv_obj_get_style_prop
 1710              	.LVL183:
 1711 0096 0646     		mov	r6, r0
 1712              	.LVL184:
 168:Drivers/lvgl/src/widgets/bar/../../core/lv_obj_style_gen.h ****     return (int32_t)v.num;
 1713              		.loc 2 168 26 view .LVU514
 1714 0098 0790     		str	r0, [sp, #28]
 1715 009a 3890     		str	r0, [sp, #224]
 169:Drivers/lvgl/src/widgets/bar/../../core/lv_obj_style_gen.h **** }
 1716              		.loc 2 169 5 is_stmt 1 view .LVU515
 1717              	.LVL185:
 169:Drivers/lvgl/src/widgets/bar/../../core/lv_obj_style_gen.h **** }
 1718              		.loc 2 169 5 is_stmt 0 view .LVU516
 1719              	.LBE54:
 1720              	.LBE53:
 396:Drivers/lvgl/src/widgets/bar/lv_bar.c ****     int32_t bg_top = lv_obj_get_style_pad_top(obj,       LV_PART_MAIN);
 1721              		.loc 1 396 5 is_stmt 1 view .LVU517
 1722              	.LBB55:
 1723              	.LBI55:
 172:Drivers/lvgl/src/widgets/bar/../../core/lv_obj_style_gen.h **** {
 1724              		.loc 2 172 23 view .LVU518
 1725              	.LBB56:
 174:Drivers/lvgl/src/widgets/bar/../../core/lv_obj_style_gen.h ****     return (int32_t)v.num;
 1726              		.loc 2 174 5 view .LVU519
 174:Drivers/lvgl/src/widgets/bar/../../core/lv_obj_style_gen.h ****     return (int32_t)v.num;
 1727              		.loc 2 174 26 is_stmt 0 view .LVU520
 1728 009c 1322     		movs	r2, #19
 1729 009e 0021     		movs	r1, #0
 1730 00a0 2046     		mov	r0, r4
 1731              	.LVL186:
 174:Drivers/lvgl/src/widgets/bar/../../core/lv_obj_style_gen.h ****     return (int32_t)v.num;
 1732              		.loc 2 174 26 view .LVU521
 1733 00a2 FFF7FEFF 		bl	lv_obj_get_style_prop
 1734              	.LVL187:
 1735 00a6 0290     		str	r0, [sp, #8]
 1736 00a8 3890     		str	r0, [sp, #224]
 175:Drivers/lvgl/src/widgets/bar/../../core/lv_obj_style_gen.h **** }
 1737              		.loc 2 175 5 is_stmt 1 view .LVU522
 1738              	.LVL188:
 175:Drivers/lvgl/src/widgets/bar/../../core/lv_obj_style_gen.h **** }
 1739              		.loc 2 175 5 is_stmt 0 view .LVU523
 1740              	.LBE56:
 1741              	.LBE55:
 397:Drivers/lvgl/src/widgets/bar/lv_bar.c ****     int32_t bg_bottom = lv_obj_get_style_pad_bottom(obj, LV_PART_MAIN);
 1742              		.loc 1 397 5 is_stmt 1 view .LVU524
 1743              	.LBB57:
 1744              	.LBI57:
 154:Drivers/lvgl/src/widgets/bar/../../core/lv_obj_style_gen.h **** {
 1745              		.loc 2 154 23 view .LVU525
 1746              	.LBB58:
 156:Drivers/lvgl/src/widgets/bar/../../core/lv_obj_style_gen.h ****     return (int32_t)v.num;
 1747              		.loc 2 156 5 view .LVU526
 156:Drivers/lvgl/src/widgets/bar/../../core/lv_obj_style_gen.h ****     return (int32_t)v.num;
