ARM GAS  /var/folders/qx/2_175_4n2s19vhvtspjhb3qh0000gn/T//ccZZ70SA.s 			page 1


   1              		.cpu cortex-m4
   2              		.arch armv7e-m
   3              		.fpu fpv4-sp-d16
   4              		.eabi_attribute 27, 1
   5              		.eabi_attribute 28, 1
   6              		.eabi_attribute 20, 1
   7              		.eabi_attribute 21, 1
   8              		.eabi_attribute 23, 3
   9              		.eabi_attribute 24, 1
  10              		.eabi_attribute 25, 1
  11              		.eabi_attribute 26, 1
  12              		.eabi_attribute 30, 1
  13              		.eabi_attribute 34, 1
  14              		.eabi_attribute 18, 4
  15              		.file	"lv_calendar.c"
  16              		.text
  17              	.Ltext0:
  18              		.cfi_sections	.debug_frame
  19              		.file 1 "Drivers/lvgl/src/widgets/calendar/lv_calendar.c"
  20              		.section	.text.is_leap_year,"ax",%progbits
  21              		.align	1
  22              		.syntax unified
  23              		.thumb
  24              		.thumb_func
  26              	is_leap_year:
  27              	.LVL0:
  28              	.LFB221:
   1:Drivers/lvgl/src/widgets/calendar/lv_calendar.c **** /**
   2:Drivers/lvgl/src/widgets/calendar/lv_calendar.c ****  * @file lv_calendar.c
   3:Drivers/lvgl/src/widgets/calendar/lv_calendar.c ****  *
   4:Drivers/lvgl/src/widgets/calendar/lv_calendar.c ****  */
   5:Drivers/lvgl/src/widgets/calendar/lv_calendar.c **** 
   6:Drivers/lvgl/src/widgets/calendar/lv_calendar.c **** /*********************
   7:Drivers/lvgl/src/widgets/calendar/lv_calendar.c ****  *      INCLUDES
   8:Drivers/lvgl/src/widgets/calendar/lv_calendar.c ****  *********************/
   9:Drivers/lvgl/src/widgets/calendar/lv_calendar.c **** #include "lv_calendar_private.h"
  10:Drivers/lvgl/src/widgets/calendar/lv_calendar.c **** #include "../../draw/lv_draw_private.h"
  11:Drivers/lvgl/src/widgets/calendar/lv_calendar.c **** #include "../../core/lv_obj_class_private.h"
  12:Drivers/lvgl/src/widgets/calendar/lv_calendar.c **** #include "../../../lvgl.h"
  13:Drivers/lvgl/src/widgets/calendar/lv_calendar.c **** #if LV_USE_CALENDAR
  14:Drivers/lvgl/src/widgets/calendar/lv_calendar.c **** 
  15:Drivers/lvgl/src/widgets/calendar/lv_calendar.c **** #include "../../misc/lv_assert.h"
  16:Drivers/lvgl/src/widgets/calendar/lv_calendar.c **** 
  17:Drivers/lvgl/src/widgets/calendar/lv_calendar.c **** /*********************
  18:Drivers/lvgl/src/widgets/calendar/lv_calendar.c ****  *      DEFINES
  19:Drivers/lvgl/src/widgets/calendar/lv_calendar.c ****  *********************/
  20:Drivers/lvgl/src/widgets/calendar/lv_calendar.c **** #define LV_CALENDAR_CTRL_TODAY      LV_BUTTONMATRIX_CTRL_CUSTOM_1
  21:Drivers/lvgl/src/widgets/calendar/lv_calendar.c **** #define LV_CALENDAR_CTRL_HIGHLIGHT  LV_BUTTONMATRIX_CTRL_CUSTOM_2
  22:Drivers/lvgl/src/widgets/calendar/lv_calendar.c **** 
  23:Drivers/lvgl/src/widgets/calendar/lv_calendar.c **** #define MY_CLASS (&lv_calendar_class)
  24:Drivers/lvgl/src/widgets/calendar/lv_calendar.c **** 
  25:Drivers/lvgl/src/widgets/calendar/lv_calendar.c **** /**********************
  26:Drivers/lvgl/src/widgets/calendar/lv_calendar.c ****  *      TYPEDEFS
  27:Drivers/lvgl/src/widgets/calendar/lv_calendar.c ****  **********************/
  28:Drivers/lvgl/src/widgets/calendar/lv_calendar.c **** 
  29:Drivers/lvgl/src/widgets/calendar/lv_calendar.c **** /**********************
  30:Drivers/lvgl/src/widgets/calendar/lv_calendar.c ****  *  STATIC PROTOTYPES
ARM GAS  /var/folders/qx/2_175_4n2s19vhvtspjhb3qh0000gn/T//ccZZ70SA.s 			page 2


  31:Drivers/lvgl/src/widgets/calendar/lv_calendar.c ****  **********************/
  32:Drivers/lvgl/src/widgets/calendar/lv_calendar.c **** static void lv_calendar_constructor(const lv_obj_class_t * class_p, lv_obj_t * obj);
  33:Drivers/lvgl/src/widgets/calendar/lv_calendar.c **** static void draw_task_added_event_cb(lv_event_t * e);
  34:Drivers/lvgl/src/widgets/calendar/lv_calendar.c **** 
  35:Drivers/lvgl/src/widgets/calendar/lv_calendar.c **** static uint8_t get_day_of_week(uint32_t year, uint32_t month, uint32_t day);
  36:Drivers/lvgl/src/widgets/calendar/lv_calendar.c **** static uint8_t get_month_length(int32_t year, int32_t month);
  37:Drivers/lvgl/src/widgets/calendar/lv_calendar.c **** static uint8_t is_leap_year(uint32_t year);
  38:Drivers/lvgl/src/widgets/calendar/lv_calendar.c **** static void highlight_update(lv_obj_t * calendar);
  39:Drivers/lvgl/src/widgets/calendar/lv_calendar.c **** 
  40:Drivers/lvgl/src/widgets/calendar/lv_calendar.c **** #if LV_USE_CALENDAR_CHINESE
  41:Drivers/lvgl/src/widgets/calendar/lv_calendar.c **** static lv_calendar_date_t gregorian_get_last_month_time(lv_calendar_date_t * time);
  42:Drivers/lvgl/src/widgets/calendar/lv_calendar.c **** static lv_calendar_date_t gregorian_get_next_month_time(lv_calendar_date_t * time);
  43:Drivers/lvgl/src/widgets/calendar/lv_calendar.c **** static void chinese_calendar_set_day_name(lv_obj_t * calendar, uint8_t index, uint8_t day,
  44:Drivers/lvgl/src/widgets/calendar/lv_calendar.c ****                                           lv_calendar_date_t * gregorian_time);
  45:Drivers/lvgl/src/widgets/calendar/lv_calendar.c **** #endif
  46:Drivers/lvgl/src/widgets/calendar/lv_calendar.c **** 
  47:Drivers/lvgl/src/widgets/calendar/lv_calendar.c **** /**********************
  48:Drivers/lvgl/src/widgets/calendar/lv_calendar.c ****  *  STATIC VARIABLES
  49:Drivers/lvgl/src/widgets/calendar/lv_calendar.c ****  **********************/
  50:Drivers/lvgl/src/widgets/calendar/lv_calendar.c **** 
  51:Drivers/lvgl/src/widgets/calendar/lv_calendar.c **** const lv_obj_class_t lv_calendar_class = {
  52:Drivers/lvgl/src/widgets/calendar/lv_calendar.c ****     .constructor_cb = lv_calendar_constructor,
  53:Drivers/lvgl/src/widgets/calendar/lv_calendar.c ****     .width_def = (LV_DPI_DEF * 3) / 2,
  54:Drivers/lvgl/src/widgets/calendar/lv_calendar.c ****     .height_def = (LV_DPI_DEF * 3) / 2,
  55:Drivers/lvgl/src/widgets/calendar/lv_calendar.c ****     .group_def = LV_OBJ_CLASS_GROUP_DEF_TRUE,
  56:Drivers/lvgl/src/widgets/calendar/lv_calendar.c ****     .instance_size = sizeof(lv_calendar_t),
  57:Drivers/lvgl/src/widgets/calendar/lv_calendar.c ****     .base_class = &lv_obj_class,
  58:Drivers/lvgl/src/widgets/calendar/lv_calendar.c ****     .name = "lv_calendar",
  59:Drivers/lvgl/src/widgets/calendar/lv_calendar.c **** };
  60:Drivers/lvgl/src/widgets/calendar/lv_calendar.c **** 
  61:Drivers/lvgl/src/widgets/calendar/lv_calendar.c **** static const char * day_names_def[7] = LV_CALENDAR_DEFAULT_DAY_NAMES;
  62:Drivers/lvgl/src/widgets/calendar/lv_calendar.c **** 
  63:Drivers/lvgl/src/widgets/calendar/lv_calendar.c **** /**********************
  64:Drivers/lvgl/src/widgets/calendar/lv_calendar.c ****  *      MACROS
  65:Drivers/lvgl/src/widgets/calendar/lv_calendar.c ****  **********************/
  66:Drivers/lvgl/src/widgets/calendar/lv_calendar.c **** 
  67:Drivers/lvgl/src/widgets/calendar/lv_calendar.c **** /**********************
  68:Drivers/lvgl/src/widgets/calendar/lv_calendar.c ****  *   GLOBAL FUNCTIONS
  69:Drivers/lvgl/src/widgets/calendar/lv_calendar.c ****  **********************/
  70:Drivers/lvgl/src/widgets/calendar/lv_calendar.c **** 
  71:Drivers/lvgl/src/widgets/calendar/lv_calendar.c **** lv_obj_t * lv_calendar_create(lv_obj_t * parent)
  72:Drivers/lvgl/src/widgets/calendar/lv_calendar.c **** {
  73:Drivers/lvgl/src/widgets/calendar/lv_calendar.c ****     LV_LOG_INFO("begin");
  74:Drivers/lvgl/src/widgets/calendar/lv_calendar.c ****     lv_obj_t * obj = lv_obj_class_create_obj(&lv_calendar_class, parent);
  75:Drivers/lvgl/src/widgets/calendar/lv_calendar.c ****     lv_obj_class_init_obj(obj);
  76:Drivers/lvgl/src/widgets/calendar/lv_calendar.c ****     return obj;
  77:Drivers/lvgl/src/widgets/calendar/lv_calendar.c **** }
  78:Drivers/lvgl/src/widgets/calendar/lv_calendar.c **** 
  79:Drivers/lvgl/src/widgets/calendar/lv_calendar.c **** /*=====================
  80:Drivers/lvgl/src/widgets/calendar/lv_calendar.c ****  * Setter functions
  81:Drivers/lvgl/src/widgets/calendar/lv_calendar.c ****  *====================*/
  82:Drivers/lvgl/src/widgets/calendar/lv_calendar.c **** 
  83:Drivers/lvgl/src/widgets/calendar/lv_calendar.c **** void lv_calendar_set_day_names(lv_obj_t * obj, const char * day_names[])
  84:Drivers/lvgl/src/widgets/calendar/lv_calendar.c **** {
  85:Drivers/lvgl/src/widgets/calendar/lv_calendar.c ****     LV_ASSERT_OBJ(obj, MY_CLASS);
  86:Drivers/lvgl/src/widgets/calendar/lv_calendar.c ****     lv_calendar_t * calendar = (lv_calendar_t *)obj;
  87:Drivers/lvgl/src/widgets/calendar/lv_calendar.c **** 
ARM GAS  /var/folders/qx/2_175_4n2s19vhvtspjhb3qh0000gn/T//ccZZ70SA.s 			page 3


  88:Drivers/lvgl/src/widgets/calendar/lv_calendar.c ****     uint32_t i;
  89:Drivers/lvgl/src/widgets/calendar/lv_calendar.c ****     for(i = 0; i < 7; i++) {
  90:Drivers/lvgl/src/widgets/calendar/lv_calendar.c ****         calendar->map[i] = day_names[i];
  91:Drivers/lvgl/src/widgets/calendar/lv_calendar.c ****     }
  92:Drivers/lvgl/src/widgets/calendar/lv_calendar.c ****     lv_obj_invalidate(obj);
  93:Drivers/lvgl/src/widgets/calendar/lv_calendar.c **** }
  94:Drivers/lvgl/src/widgets/calendar/lv_calendar.c **** 
  95:Drivers/lvgl/src/widgets/calendar/lv_calendar.c **** void lv_calendar_set_today_date(lv_obj_t * obj, uint32_t year, uint32_t month, uint32_t day)
  96:Drivers/lvgl/src/widgets/calendar/lv_calendar.c **** {
  97:Drivers/lvgl/src/widgets/calendar/lv_calendar.c ****     LV_ASSERT_OBJ(obj, MY_CLASS);
  98:Drivers/lvgl/src/widgets/calendar/lv_calendar.c ****     lv_calendar_t * calendar = (lv_calendar_t *)obj;
  99:Drivers/lvgl/src/widgets/calendar/lv_calendar.c **** 
 100:Drivers/lvgl/src/widgets/calendar/lv_calendar.c ****     if(calendar->today.year == year && calendar->today.month == month
 101:Drivers/lvgl/src/widgets/calendar/lv_calendar.c ****        && calendar->today.day == day) return;
 102:Drivers/lvgl/src/widgets/calendar/lv_calendar.c **** 
 103:Drivers/lvgl/src/widgets/calendar/lv_calendar.c ****     calendar->today.year         = year;
 104:Drivers/lvgl/src/widgets/calendar/lv_calendar.c ****     calendar->today.month        = month;
 105:Drivers/lvgl/src/widgets/calendar/lv_calendar.c ****     calendar->today.day          = day;
 106:Drivers/lvgl/src/widgets/calendar/lv_calendar.c **** 
 107:Drivers/lvgl/src/widgets/calendar/lv_calendar.c ****     highlight_update(obj);
 108:Drivers/lvgl/src/widgets/calendar/lv_calendar.c **** }
 109:Drivers/lvgl/src/widgets/calendar/lv_calendar.c **** 
 110:Drivers/lvgl/src/widgets/calendar/lv_calendar.c **** void lv_calendar_set_today_year(lv_obj_t * obj, uint32_t year)
 111:Drivers/lvgl/src/widgets/calendar/lv_calendar.c **** {
 112:Drivers/lvgl/src/widgets/calendar/lv_calendar.c ****     LV_ASSERT_OBJ(obj, MY_CLASS);
 113:Drivers/lvgl/src/widgets/calendar/lv_calendar.c ****     lv_calendar_t * calendar = (lv_calendar_t *)obj;
 114:Drivers/lvgl/src/widgets/calendar/lv_calendar.c ****     lv_calendar_set_today_date(obj, year, calendar->today.month, calendar->today.day);
 115:Drivers/lvgl/src/widgets/calendar/lv_calendar.c **** 
 116:Drivers/lvgl/src/widgets/calendar/lv_calendar.c **** }
 117:Drivers/lvgl/src/widgets/calendar/lv_calendar.c **** 
 118:Drivers/lvgl/src/widgets/calendar/lv_calendar.c **** void lv_calendar_set_today_month(lv_obj_t * obj, uint32_t month)
 119:Drivers/lvgl/src/widgets/calendar/lv_calendar.c **** {
 120:Drivers/lvgl/src/widgets/calendar/lv_calendar.c ****     LV_ASSERT_OBJ(obj, MY_CLASS);
 121:Drivers/lvgl/src/widgets/calendar/lv_calendar.c ****     lv_calendar_t * calendar = (lv_calendar_t *)obj;
 122:Drivers/lvgl/src/widgets/calendar/lv_calendar.c ****     lv_calendar_set_today_date(obj, calendar->today.year, month, calendar->today.day);
 123:Drivers/lvgl/src/widgets/calendar/lv_calendar.c **** }
 124:Drivers/lvgl/src/widgets/calendar/lv_calendar.c **** 
 125:Drivers/lvgl/src/widgets/calendar/lv_calendar.c **** void lv_calendar_set_today_day(lv_obj_t * obj, uint32_t day)
 126:Drivers/lvgl/src/widgets/calendar/lv_calendar.c **** {
 127:Drivers/lvgl/src/widgets/calendar/lv_calendar.c ****     LV_ASSERT_OBJ(obj, MY_CLASS);
 128:Drivers/lvgl/src/widgets/calendar/lv_calendar.c ****     lv_calendar_t * calendar = (lv_calendar_t *)obj;
 129:Drivers/lvgl/src/widgets/calendar/lv_calendar.c ****     lv_calendar_set_today_date(obj, calendar->today.year, calendar->today.month, day);
 130:Drivers/lvgl/src/widgets/calendar/lv_calendar.c **** }
 131:Drivers/lvgl/src/widgets/calendar/lv_calendar.c **** 
 132:Drivers/lvgl/src/widgets/calendar/lv_calendar.c **** void lv_calendar_set_highlighted_dates(lv_obj_t * obj, lv_calendar_date_t highlighted[], size_t dat
 133:Drivers/lvgl/src/widgets/calendar/lv_calendar.c **** {
 134:Drivers/lvgl/src/widgets/calendar/lv_calendar.c ****     LV_ASSERT_NULL(highlighted);
 135:Drivers/lvgl/src/widgets/calendar/lv_calendar.c **** 
 136:Drivers/lvgl/src/widgets/calendar/lv_calendar.c ****     LV_ASSERT_OBJ(obj, MY_CLASS);
 137:Drivers/lvgl/src/widgets/calendar/lv_calendar.c ****     lv_calendar_t * calendar = (lv_calendar_t *)obj;
 138:Drivers/lvgl/src/widgets/calendar/lv_calendar.c **** 
 139:Drivers/lvgl/src/widgets/calendar/lv_calendar.c ****     calendar->highlighted_dates     = highlighted;
 140:Drivers/lvgl/src/widgets/calendar/lv_calendar.c ****     calendar->highlighted_dates_num = date_num;
 141:Drivers/lvgl/src/widgets/calendar/lv_calendar.c **** 
 142:Drivers/lvgl/src/widgets/calendar/lv_calendar.c ****     highlight_update(obj);
 143:Drivers/lvgl/src/widgets/calendar/lv_calendar.c **** }
 144:Drivers/lvgl/src/widgets/calendar/lv_calendar.c **** 
ARM GAS  /var/folders/qx/2_175_4n2s19vhvtspjhb3qh0000gn/T//ccZZ70SA.s 			page 4


 145:Drivers/lvgl/src/widgets/calendar/lv_calendar.c **** void lv_calendar_set_month_shown(lv_obj_t * obj, uint32_t year, uint32_t month)
 146:Drivers/lvgl/src/widgets/calendar/lv_calendar.c **** {
 147:Drivers/lvgl/src/widgets/calendar/lv_calendar.c ****     LV_ASSERT_OBJ(obj, MY_CLASS);
 148:Drivers/lvgl/src/widgets/calendar/lv_calendar.c ****     lv_calendar_t * calendar = (lv_calendar_t *)obj;
 149:Drivers/lvgl/src/widgets/calendar/lv_calendar.c **** 
 150:Drivers/lvgl/src/widgets/calendar/lv_calendar.c ****     /*Don't return if the new value is the same, as this function is also
 151:Drivers/lvgl/src/widgets/calendar/lv_calendar.c ****      *used the update the calendar e.g. when switching to Chinese mode*/
 152:Drivers/lvgl/src/widgets/calendar/lv_calendar.c **** 
 153:Drivers/lvgl/src/widgets/calendar/lv_calendar.c ****     calendar->showed_date.year   = year;
 154:Drivers/lvgl/src/widgets/calendar/lv_calendar.c ****     calendar->showed_date.month  = month;
 155:Drivers/lvgl/src/widgets/calendar/lv_calendar.c ****     calendar->showed_date.day    = 1;
 156:Drivers/lvgl/src/widgets/calendar/lv_calendar.c **** 
 157:Drivers/lvgl/src/widgets/calendar/lv_calendar.c ****     lv_calendar_date_t d;
 158:Drivers/lvgl/src/widgets/calendar/lv_calendar.c ****     d.year = calendar->showed_date.year;
 159:Drivers/lvgl/src/widgets/calendar/lv_calendar.c ****     d.month = calendar->showed_date.month;
 160:Drivers/lvgl/src/widgets/calendar/lv_calendar.c ****     d.day = calendar->showed_date.day;
 161:Drivers/lvgl/src/widgets/calendar/lv_calendar.c **** 
 162:Drivers/lvgl/src/widgets/calendar/lv_calendar.c ****     uint32_t i;
 163:Drivers/lvgl/src/widgets/calendar/lv_calendar.c **** 
 164:Drivers/lvgl/src/widgets/calendar/lv_calendar.c ****     /*Remove the disabled state but revert it for day names*/
 165:Drivers/lvgl/src/widgets/calendar/lv_calendar.c ****     lv_buttonmatrix_clear_button_ctrl_all(calendar->btnm, LV_BUTTONMATRIX_CTRL_DISABLED);
 166:Drivers/lvgl/src/widgets/calendar/lv_calendar.c ****     for(i = 0; i < 7; i++) {
 167:Drivers/lvgl/src/widgets/calendar/lv_calendar.c ****         lv_buttonmatrix_set_button_ctrl(calendar->btnm, i, LV_BUTTONMATRIX_CTRL_DISABLED);
 168:Drivers/lvgl/src/widgets/calendar/lv_calendar.c ****     }
 169:Drivers/lvgl/src/widgets/calendar/lv_calendar.c **** 
 170:Drivers/lvgl/src/widgets/calendar/lv_calendar.c ****     uint8_t act_mo_len = get_month_length(d.year, d.month);
 171:Drivers/lvgl/src/widgets/calendar/lv_calendar.c ****     uint8_t day_first = get_day_of_week(d.year, d.month, 1);
 172:Drivers/lvgl/src/widgets/calendar/lv_calendar.c ****     uint8_t c;
 173:Drivers/lvgl/src/widgets/calendar/lv_calendar.c **** 
 174:Drivers/lvgl/src/widgets/calendar/lv_calendar.c **** #if LV_USE_CALENDAR_CHINESE
 175:Drivers/lvgl/src/widgets/calendar/lv_calendar.c ****     lv_calendar_date_t gregorian_time;
 176:Drivers/lvgl/src/widgets/calendar/lv_calendar.c ****     gregorian_time = d;
 177:Drivers/lvgl/src/widgets/calendar/lv_calendar.c **** #endif
 178:Drivers/lvgl/src/widgets/calendar/lv_calendar.c **** 
 179:Drivers/lvgl/src/widgets/calendar/lv_calendar.c ****     for(i = day_first, c = 1; i < act_mo_len + day_first; i++, c++) {
 180:Drivers/lvgl/src/widgets/calendar/lv_calendar.c **** #if LV_USE_CALENDAR_CHINESE
 181:Drivers/lvgl/src/widgets/calendar/lv_calendar.c ****         if(calendar->use_chinese_calendar) {
 182:Drivers/lvgl/src/widgets/calendar/lv_calendar.c ****             gregorian_time.day = c;
 183:Drivers/lvgl/src/widgets/calendar/lv_calendar.c ****             chinese_calendar_set_day_name(obj, i, c, &gregorian_time);
 184:Drivers/lvgl/src/widgets/calendar/lv_calendar.c ****         }
 185:Drivers/lvgl/src/widgets/calendar/lv_calendar.c ****         else
 186:Drivers/lvgl/src/widgets/calendar/lv_calendar.c **** #endif
 187:Drivers/lvgl/src/widgets/calendar/lv_calendar.c ****             lv_snprintf(calendar->nums[i], sizeof(calendar->nums[0]), "%d", c);
 188:Drivers/lvgl/src/widgets/calendar/lv_calendar.c ****     }
 189:Drivers/lvgl/src/widgets/calendar/lv_calendar.c **** 
 190:Drivers/lvgl/src/widgets/calendar/lv_calendar.c ****     uint8_t prev_mo_len = get_month_length(d.year, d.month - 1);
 191:Drivers/lvgl/src/widgets/calendar/lv_calendar.c **** 
 192:Drivers/lvgl/src/widgets/calendar/lv_calendar.c **** #if LV_USE_CALENDAR_CHINESE
 193:Drivers/lvgl/src/widgets/calendar/lv_calendar.c ****     gregorian_time = gregorian_get_last_month_time(&d);
 194:Drivers/lvgl/src/widgets/calendar/lv_calendar.c **** #endif
 195:Drivers/lvgl/src/widgets/calendar/lv_calendar.c **** 
 196:Drivers/lvgl/src/widgets/calendar/lv_calendar.c ****     for(i = 0, c = prev_mo_len - day_first + 1; i < day_first; i++, c++) {
 197:Drivers/lvgl/src/widgets/calendar/lv_calendar.c **** #if LV_USE_CALENDAR_CHINESE
 198:Drivers/lvgl/src/widgets/calendar/lv_calendar.c ****         if(calendar->use_chinese_calendar) {
 199:Drivers/lvgl/src/widgets/calendar/lv_calendar.c ****             gregorian_time.day = c;
 200:Drivers/lvgl/src/widgets/calendar/lv_calendar.c ****             chinese_calendar_set_day_name(obj, i, c, &gregorian_time);
 201:Drivers/lvgl/src/widgets/calendar/lv_calendar.c ****         }
ARM GAS  /var/folders/qx/2_175_4n2s19vhvtspjhb3qh0000gn/T//ccZZ70SA.s 			page 5


 202:Drivers/lvgl/src/widgets/calendar/lv_calendar.c ****         else
 203:Drivers/lvgl/src/widgets/calendar/lv_calendar.c **** #endif
 204:Drivers/lvgl/src/widgets/calendar/lv_calendar.c ****             lv_snprintf(calendar->nums[i], sizeof(calendar->nums[0]), "%d", c);
 205:Drivers/lvgl/src/widgets/calendar/lv_calendar.c ****         lv_buttonmatrix_set_button_ctrl(calendar->btnm, i + 7, LV_BUTTONMATRIX_CTRL_DISABLED);
 206:Drivers/lvgl/src/widgets/calendar/lv_calendar.c ****     }
 207:Drivers/lvgl/src/widgets/calendar/lv_calendar.c **** 
 208:Drivers/lvgl/src/widgets/calendar/lv_calendar.c **** #if LV_USE_CALENDAR_CHINESE
 209:Drivers/lvgl/src/widgets/calendar/lv_calendar.c ****     gregorian_time = gregorian_get_next_month_time(&d);
 210:Drivers/lvgl/src/widgets/calendar/lv_calendar.c **** #endif
 211:Drivers/lvgl/src/widgets/calendar/lv_calendar.c **** 
 212:Drivers/lvgl/src/widgets/calendar/lv_calendar.c ****     for(i = day_first + act_mo_len, c = 1; i < 6 * 7; i++, c++) {
 213:Drivers/lvgl/src/widgets/calendar/lv_calendar.c **** #if LV_USE_CALENDAR_CHINESE
 214:Drivers/lvgl/src/widgets/calendar/lv_calendar.c ****         if(calendar->use_chinese_calendar) {
 215:Drivers/lvgl/src/widgets/calendar/lv_calendar.c ****             gregorian_time.day = c;
 216:Drivers/lvgl/src/widgets/calendar/lv_calendar.c ****             chinese_calendar_set_day_name(obj, i, c, &gregorian_time);
 217:Drivers/lvgl/src/widgets/calendar/lv_calendar.c ****         }
 218:Drivers/lvgl/src/widgets/calendar/lv_calendar.c ****         else
 219:Drivers/lvgl/src/widgets/calendar/lv_calendar.c **** #endif
 220:Drivers/lvgl/src/widgets/calendar/lv_calendar.c ****             lv_snprintf(calendar->nums[i], sizeof(calendar->nums[0]), "%d", c);
 221:Drivers/lvgl/src/widgets/calendar/lv_calendar.c ****         lv_buttonmatrix_set_button_ctrl(calendar->btnm, i + 7, LV_BUTTONMATRIX_CTRL_DISABLED);
 222:Drivers/lvgl/src/widgets/calendar/lv_calendar.c ****     }
 223:Drivers/lvgl/src/widgets/calendar/lv_calendar.c **** 
 224:Drivers/lvgl/src/widgets/calendar/lv_calendar.c ****     highlight_update(obj);
 225:Drivers/lvgl/src/widgets/calendar/lv_calendar.c **** 
 226:Drivers/lvgl/src/widgets/calendar/lv_calendar.c ****     /*Reset the focused button if the days changes*/
 227:Drivers/lvgl/src/widgets/calendar/lv_calendar.c ****     if(lv_buttonmatrix_get_selected_button(calendar->btnm) != LV_BUTTONMATRIX_BUTTON_NONE) {
 228:Drivers/lvgl/src/widgets/calendar/lv_calendar.c ****         lv_buttonmatrix_set_selected_button(calendar->btnm, day_first + 7);
 229:Drivers/lvgl/src/widgets/calendar/lv_calendar.c ****     }
 230:Drivers/lvgl/src/widgets/calendar/lv_calendar.c **** 
 231:Drivers/lvgl/src/widgets/calendar/lv_calendar.c ****     lv_obj_invalidate(obj);
 232:Drivers/lvgl/src/widgets/calendar/lv_calendar.c **** 
 233:Drivers/lvgl/src/widgets/calendar/lv_calendar.c ****     /* The children of the calendar are probably headers.
 234:Drivers/lvgl/src/widgets/calendar/lv_calendar.c ****      * Notify them to let the headers updated to the new date*/
 235:Drivers/lvgl/src/widgets/calendar/lv_calendar.c ****     uint32_t child_cnt = lv_obj_get_child_count(obj);
 236:Drivers/lvgl/src/widgets/calendar/lv_calendar.c ****     for(i = 0; i < child_cnt; i++) {
 237:Drivers/lvgl/src/widgets/calendar/lv_calendar.c ****         lv_obj_t * child = lv_obj_get_child(obj, i);
 238:Drivers/lvgl/src/widgets/calendar/lv_calendar.c ****         if(child == calendar->btnm) continue;
 239:Drivers/lvgl/src/widgets/calendar/lv_calendar.c ****         lv_obj_send_event(child, LV_EVENT_VALUE_CHANGED, obj);
 240:Drivers/lvgl/src/widgets/calendar/lv_calendar.c ****     }
 241:Drivers/lvgl/src/widgets/calendar/lv_calendar.c **** }
 242:Drivers/lvgl/src/widgets/calendar/lv_calendar.c **** 
 243:Drivers/lvgl/src/widgets/calendar/lv_calendar.c **** void lv_calendar_set_shown_year(lv_obj_t * obj, uint32_t year)
 244:Drivers/lvgl/src/widgets/calendar/lv_calendar.c **** {
 245:Drivers/lvgl/src/widgets/calendar/lv_calendar.c ****     LV_ASSERT_OBJ(obj, MY_CLASS);
 246:Drivers/lvgl/src/widgets/calendar/lv_calendar.c ****     lv_calendar_t * calendar = (lv_calendar_t *)obj;
 247:Drivers/lvgl/src/widgets/calendar/lv_calendar.c ****     lv_calendar_set_month_shown(obj, year, calendar->showed_date.month);
 248:Drivers/lvgl/src/widgets/calendar/lv_calendar.c **** 
 249:Drivers/lvgl/src/widgets/calendar/lv_calendar.c **** }
 250:Drivers/lvgl/src/widgets/calendar/lv_calendar.c **** 
 251:Drivers/lvgl/src/widgets/calendar/lv_calendar.c **** void lv_calendar_set_shown_month(lv_obj_t * obj, uint32_t month)
 252:Drivers/lvgl/src/widgets/calendar/lv_calendar.c **** {
 253:Drivers/lvgl/src/widgets/calendar/lv_calendar.c ****     LV_ASSERT_OBJ(obj, MY_CLASS);
 254:Drivers/lvgl/src/widgets/calendar/lv_calendar.c ****     lv_calendar_t * calendar = (lv_calendar_t *)obj;
 255:Drivers/lvgl/src/widgets/calendar/lv_calendar.c ****     lv_calendar_set_month_shown(obj, calendar->showed_date.year, month);
 256:Drivers/lvgl/src/widgets/calendar/lv_calendar.c **** }
 257:Drivers/lvgl/src/widgets/calendar/lv_calendar.c **** 
 258:Drivers/lvgl/src/widgets/calendar/lv_calendar.c **** /*=====================
ARM GAS  /var/folders/qx/2_175_4n2s19vhvtspjhb3qh0000gn/T//ccZZ70SA.s 			page 6


 259:Drivers/lvgl/src/widgets/calendar/lv_calendar.c ****  * Getter functions
 260:Drivers/lvgl/src/widgets/calendar/lv_calendar.c ****  *====================*/
 261:Drivers/lvgl/src/widgets/calendar/lv_calendar.c **** 
 262:Drivers/lvgl/src/widgets/calendar/lv_calendar.c **** lv_obj_t * lv_calendar_get_btnmatrix(const lv_obj_t * obj)
 263:Drivers/lvgl/src/widgets/calendar/lv_calendar.c **** {
 264:Drivers/lvgl/src/widgets/calendar/lv_calendar.c ****     LV_ASSERT_OBJ(obj, MY_CLASS);
 265:Drivers/lvgl/src/widgets/calendar/lv_calendar.c ****     const lv_calendar_t * calendar = (lv_calendar_t *)obj;
 266:Drivers/lvgl/src/widgets/calendar/lv_calendar.c ****     return calendar->btnm;
 267:Drivers/lvgl/src/widgets/calendar/lv_calendar.c **** }
 268:Drivers/lvgl/src/widgets/calendar/lv_calendar.c **** 
 269:Drivers/lvgl/src/widgets/calendar/lv_calendar.c **** const lv_calendar_date_t * lv_calendar_get_today_date(const lv_obj_t * obj)
 270:Drivers/lvgl/src/widgets/calendar/lv_calendar.c **** {
 271:Drivers/lvgl/src/widgets/calendar/lv_calendar.c ****     LV_ASSERT_OBJ(obj, MY_CLASS);
 272:Drivers/lvgl/src/widgets/calendar/lv_calendar.c ****     const lv_calendar_t * calendar = (lv_calendar_t *)obj;
 273:Drivers/lvgl/src/widgets/calendar/lv_calendar.c **** 
 274:Drivers/lvgl/src/widgets/calendar/lv_calendar.c ****     return &calendar->today;
 275:Drivers/lvgl/src/widgets/calendar/lv_calendar.c **** }
 276:Drivers/lvgl/src/widgets/calendar/lv_calendar.c **** 
 277:Drivers/lvgl/src/widgets/calendar/lv_calendar.c **** const lv_calendar_date_t * lv_calendar_get_showed_date(const lv_obj_t * obj)
 278:Drivers/lvgl/src/widgets/calendar/lv_calendar.c **** {
 279:Drivers/lvgl/src/widgets/calendar/lv_calendar.c ****     LV_ASSERT_OBJ(obj, MY_CLASS);
 280:Drivers/lvgl/src/widgets/calendar/lv_calendar.c ****     const lv_calendar_t * calendar = (lv_calendar_t *)obj;
 281:Drivers/lvgl/src/widgets/calendar/lv_calendar.c **** 
 282:Drivers/lvgl/src/widgets/calendar/lv_calendar.c ****     return &calendar->showed_date;
 283:Drivers/lvgl/src/widgets/calendar/lv_calendar.c **** }
 284:Drivers/lvgl/src/widgets/calendar/lv_calendar.c **** 
 285:Drivers/lvgl/src/widgets/calendar/lv_calendar.c **** lv_calendar_date_t * lv_calendar_get_highlighted_dates(const lv_obj_t * obj)
 286:Drivers/lvgl/src/widgets/calendar/lv_calendar.c **** {
 287:Drivers/lvgl/src/widgets/calendar/lv_calendar.c ****     LV_ASSERT_OBJ(obj, MY_CLASS);
 288:Drivers/lvgl/src/widgets/calendar/lv_calendar.c ****     lv_calendar_t * calendar = (lv_calendar_t *)obj;
 289:Drivers/lvgl/src/widgets/calendar/lv_calendar.c **** 
 290:Drivers/lvgl/src/widgets/calendar/lv_calendar.c ****     return calendar->highlighted_dates;
 291:Drivers/lvgl/src/widgets/calendar/lv_calendar.c **** }
 292:Drivers/lvgl/src/widgets/calendar/lv_calendar.c **** 
 293:Drivers/lvgl/src/widgets/calendar/lv_calendar.c **** size_t lv_calendar_get_highlighted_dates_num(const lv_obj_t * obj)
 294:Drivers/lvgl/src/widgets/calendar/lv_calendar.c **** {
 295:Drivers/lvgl/src/widgets/calendar/lv_calendar.c ****     LV_ASSERT_OBJ(obj, MY_CLASS);
 296:Drivers/lvgl/src/widgets/calendar/lv_calendar.c ****     lv_calendar_t * calendar = (lv_calendar_t *)obj;
 297:Drivers/lvgl/src/widgets/calendar/lv_calendar.c **** 
 298:Drivers/lvgl/src/widgets/calendar/lv_calendar.c ****     return calendar->highlighted_dates_num;
 299:Drivers/lvgl/src/widgets/calendar/lv_calendar.c **** }
 300:Drivers/lvgl/src/widgets/calendar/lv_calendar.c **** 
 301:Drivers/lvgl/src/widgets/calendar/lv_calendar.c **** lv_result_t lv_calendar_get_pressed_date(const lv_obj_t * obj, lv_calendar_date_t * date)
 302:Drivers/lvgl/src/widgets/calendar/lv_calendar.c **** {
 303:Drivers/lvgl/src/widgets/calendar/lv_calendar.c ****     LV_ASSERT_OBJ(obj, MY_CLASS);
 304:Drivers/lvgl/src/widgets/calendar/lv_calendar.c ****     lv_calendar_t * calendar = (lv_calendar_t *)obj;
 305:Drivers/lvgl/src/widgets/calendar/lv_calendar.c **** 
 306:Drivers/lvgl/src/widgets/calendar/lv_calendar.c ****     uint32_t d = lv_buttonmatrix_get_selected_button(calendar->btnm);
 307:Drivers/lvgl/src/widgets/calendar/lv_calendar.c ****     if(d == LV_BUTTONMATRIX_BUTTON_NONE) {
 308:Drivers/lvgl/src/widgets/calendar/lv_calendar.c ****         date->year = 0;
 309:Drivers/lvgl/src/widgets/calendar/lv_calendar.c ****         date->month = 0;
 310:Drivers/lvgl/src/widgets/calendar/lv_calendar.c ****         date->day = 0;
 311:Drivers/lvgl/src/widgets/calendar/lv_calendar.c ****         return LV_RESULT_INVALID;
 312:Drivers/lvgl/src/widgets/calendar/lv_calendar.c ****     }
 313:Drivers/lvgl/src/widgets/calendar/lv_calendar.c **** 
 314:Drivers/lvgl/src/widgets/calendar/lv_calendar.c ****     const char * txt = lv_buttonmatrix_get_button_text(calendar->btnm, lv_buttonmatrix_get_selected
 315:Drivers/lvgl/src/widgets/calendar/lv_calendar.c **** 
ARM GAS  /var/folders/qx/2_175_4n2s19vhvtspjhb3qh0000gn/T//ccZZ70SA.s 			page 7


 316:Drivers/lvgl/src/widgets/calendar/lv_calendar.c ****     if(txt[1] == 0) date->day = txt[0] - '0';
 317:Drivers/lvgl/src/widgets/calendar/lv_calendar.c ****     else date->day = (txt[0] - '0') * 10 + (txt[1] - '0');
 318:Drivers/lvgl/src/widgets/calendar/lv_calendar.c **** 
 319:Drivers/lvgl/src/widgets/calendar/lv_calendar.c ****     date->year = calendar->showed_date.year;
 320:Drivers/lvgl/src/widgets/calendar/lv_calendar.c ****     date->month = calendar->showed_date.month;
 321:Drivers/lvgl/src/widgets/calendar/lv_calendar.c **** 
 322:Drivers/lvgl/src/widgets/calendar/lv_calendar.c ****     return LV_RESULT_OK;
 323:Drivers/lvgl/src/widgets/calendar/lv_calendar.c **** }
 324:Drivers/lvgl/src/widgets/calendar/lv_calendar.c **** 
 325:Drivers/lvgl/src/widgets/calendar/lv_calendar.c **** /**********************
 326:Drivers/lvgl/src/widgets/calendar/lv_calendar.c ****  *  STATIC FUNCTIONS
 327:Drivers/lvgl/src/widgets/calendar/lv_calendar.c ****  **********************/
 328:Drivers/lvgl/src/widgets/calendar/lv_calendar.c **** 
 329:Drivers/lvgl/src/widgets/calendar/lv_calendar.c **** static void lv_calendar_constructor(const lv_obj_class_t * class_p, lv_obj_t * obj)
 330:Drivers/lvgl/src/widgets/calendar/lv_calendar.c **** {
 331:Drivers/lvgl/src/widgets/calendar/lv_calendar.c ****     LV_UNUSED(class_p);
 332:Drivers/lvgl/src/widgets/calendar/lv_calendar.c ****     lv_calendar_t * calendar = (lv_calendar_t *)obj;
 333:Drivers/lvgl/src/widgets/calendar/lv_calendar.c **** 
 334:Drivers/lvgl/src/widgets/calendar/lv_calendar.c ****     lv_memzero(calendar->nums, sizeof(calendar->nums));
 335:Drivers/lvgl/src/widgets/calendar/lv_calendar.c ****     uint8_t i;
 336:Drivers/lvgl/src/widgets/calendar/lv_calendar.c ****     uint8_t j = 0;
 337:Drivers/lvgl/src/widgets/calendar/lv_calendar.c ****     for(i = 0; i < 8 * 7; i++) {
 338:Drivers/lvgl/src/widgets/calendar/lv_calendar.c ****         /*Every 8th string is "\n"*/
 339:Drivers/lvgl/src/widgets/calendar/lv_calendar.c ****         if(i != 0 && (i + 1) % 8 == 0) {
 340:Drivers/lvgl/src/widgets/calendar/lv_calendar.c ****             calendar->map[i] = "\n";
 341:Drivers/lvgl/src/widgets/calendar/lv_calendar.c ****         }
 342:Drivers/lvgl/src/widgets/calendar/lv_calendar.c ****         else if(i < 7) {
 343:Drivers/lvgl/src/widgets/calendar/lv_calendar.c ****             calendar->map[i] = day_names_def[i];
 344:Drivers/lvgl/src/widgets/calendar/lv_calendar.c ****         }
 345:Drivers/lvgl/src/widgets/calendar/lv_calendar.c ****         else {
 346:Drivers/lvgl/src/widgets/calendar/lv_calendar.c ****             calendar->nums[j][0] = 'x';
 347:Drivers/lvgl/src/widgets/calendar/lv_calendar.c ****             calendar->map[i] = calendar->nums[j];
 348:Drivers/lvgl/src/widgets/calendar/lv_calendar.c ****             j++;
 349:Drivers/lvgl/src/widgets/calendar/lv_calendar.c ****         }
 350:Drivers/lvgl/src/widgets/calendar/lv_calendar.c ****     }
 351:Drivers/lvgl/src/widgets/calendar/lv_calendar.c ****     calendar->map[8 * 7 - 1] = "";
 352:Drivers/lvgl/src/widgets/calendar/lv_calendar.c **** 
 353:Drivers/lvgl/src/widgets/calendar/lv_calendar.c ****     calendar->btnm = lv_buttonmatrix_create(obj);
 354:Drivers/lvgl/src/widgets/calendar/lv_calendar.c ****     lv_buttonmatrix_set_map(calendar->btnm, calendar->map);
 355:Drivers/lvgl/src/widgets/calendar/lv_calendar.c ****     lv_buttonmatrix_set_button_ctrl_all(calendar->btnm, LV_BUTTONMATRIX_CTRL_CLICK_TRIG | LV_BUTTON
 356:Drivers/lvgl/src/widgets/calendar/lv_calendar.c ****     lv_obj_add_event_cb(calendar->btnm, draw_task_added_event_cb, LV_EVENT_DRAW_TASK_ADDED, NULL);
 357:Drivers/lvgl/src/widgets/calendar/lv_calendar.c ****     lv_obj_set_width(calendar->btnm, lv_pct(100));
 358:Drivers/lvgl/src/widgets/calendar/lv_calendar.c ****     lv_obj_add_flag(calendar->btnm, LV_OBJ_FLAG_EVENT_BUBBLE | LV_OBJ_FLAG_SEND_DRAW_TASK_EVENTS);
 359:Drivers/lvgl/src/widgets/calendar/lv_calendar.c **** 
 360:Drivers/lvgl/src/widgets/calendar/lv_calendar.c ****     lv_obj_set_flex_flow(obj, LV_FLEX_FLOW_COLUMN);
 361:Drivers/lvgl/src/widgets/calendar/lv_calendar.c ****     lv_obj_set_flex_grow(calendar->btnm, 1);
 362:Drivers/lvgl/src/widgets/calendar/lv_calendar.c **** 
 363:Drivers/lvgl/src/widgets/calendar/lv_calendar.c ****     lv_obj_set_style_text_align(calendar->btnm, LV_TEXT_ALIGN_CENTER, LV_PART_MAIN);
 364:Drivers/lvgl/src/widgets/calendar/lv_calendar.c **** 
 365:Drivers/lvgl/src/widgets/calendar/lv_calendar.c ****     lv_calendar_set_month_shown(obj, 2024, 1);
 366:Drivers/lvgl/src/widgets/calendar/lv_calendar.c ****     lv_calendar_set_today_date(obj, 2024, 1, 1);
 367:Drivers/lvgl/src/widgets/calendar/lv_calendar.c **** }
 368:Drivers/lvgl/src/widgets/calendar/lv_calendar.c **** 
 369:Drivers/lvgl/src/widgets/calendar/lv_calendar.c **** static void draw_task_added_event_cb(lv_event_t * e)
 370:Drivers/lvgl/src/widgets/calendar/lv_calendar.c **** {
 371:Drivers/lvgl/src/widgets/calendar/lv_calendar.c ****     lv_obj_t * obj = lv_event_get_current_target(e);
 372:Drivers/lvgl/src/widgets/calendar/lv_calendar.c ****     lv_draw_task_t * draw_task = lv_event_get_param(e);
ARM GAS  /var/folders/qx/2_175_4n2s19vhvtspjhb3qh0000gn/T//ccZZ70SA.s 			page 8


 373:Drivers/lvgl/src/widgets/calendar/lv_calendar.c ****     if(((lv_draw_dsc_base_t *)draw_task->draw_dsc)->part != LV_PART_ITEMS) return;
 374:Drivers/lvgl/src/widgets/calendar/lv_calendar.c **** 
 375:Drivers/lvgl/src/widgets/calendar/lv_calendar.c ****     lv_draw_fill_dsc_t * fill_draw_dsc = lv_draw_task_get_fill_dsc(draw_task);
 376:Drivers/lvgl/src/widgets/calendar/lv_calendar.c ****     lv_draw_border_dsc_t * border_draw_dsc = lv_draw_task_get_border_dsc(draw_task);
 377:Drivers/lvgl/src/widgets/calendar/lv_calendar.c **** 
 378:Drivers/lvgl/src/widgets/calendar/lv_calendar.c ****     if(!fill_draw_dsc && !border_draw_dsc) {
 379:Drivers/lvgl/src/widgets/calendar/lv_calendar.c ****         return;
 380:Drivers/lvgl/src/widgets/calendar/lv_calendar.c ****     }
 381:Drivers/lvgl/src/widgets/calendar/lv_calendar.c **** 
 382:Drivers/lvgl/src/widgets/calendar/lv_calendar.c ****     int32_t id = ((lv_draw_dsc_base_t *)draw_task->draw_dsc)->id1;
 383:Drivers/lvgl/src/widgets/calendar/lv_calendar.c **** 
 384:Drivers/lvgl/src/widgets/calendar/lv_calendar.c ****     /*Day name styles*/
 385:Drivers/lvgl/src/widgets/calendar/lv_calendar.c ****     if(id < 7) {
 386:Drivers/lvgl/src/widgets/calendar/lv_calendar.c ****         if(fill_draw_dsc) fill_draw_dsc->opa = LV_OPA_TRANSP;
 387:Drivers/lvgl/src/widgets/calendar/lv_calendar.c ****         if(border_draw_dsc) border_draw_dsc->opa = LV_OPA_TRANSP;
 388:Drivers/lvgl/src/widgets/calendar/lv_calendar.c ****     }
 389:Drivers/lvgl/src/widgets/calendar/lv_calendar.c ****     else if(lv_buttonmatrix_has_button_ctrl(obj, id, LV_BUTTONMATRIX_CTRL_DISABLED)) {
 390:Drivers/lvgl/src/widgets/calendar/lv_calendar.c ****         if(fill_draw_dsc) fill_draw_dsc->opa = LV_OPA_TRANSP;
 391:Drivers/lvgl/src/widgets/calendar/lv_calendar.c ****         if(border_draw_dsc) border_draw_dsc->opa = LV_OPA_TRANSP;
 392:Drivers/lvgl/src/widgets/calendar/lv_calendar.c ****     }
 393:Drivers/lvgl/src/widgets/calendar/lv_calendar.c **** 
 394:Drivers/lvgl/src/widgets/calendar/lv_calendar.c ****     if(lv_buttonmatrix_has_button_ctrl(obj, id, LV_CALENDAR_CTRL_HIGHLIGHT)) {
 395:Drivers/lvgl/src/widgets/calendar/lv_calendar.c ****         if(border_draw_dsc) border_draw_dsc->color = lv_theme_get_color_primary(obj);
 396:Drivers/lvgl/src/widgets/calendar/lv_calendar.c ****         if(fill_draw_dsc) fill_draw_dsc->opa = LV_OPA_40;
 397:Drivers/lvgl/src/widgets/calendar/lv_calendar.c ****         if(fill_draw_dsc) fill_draw_dsc->color = lv_theme_get_color_primary(obj);
 398:Drivers/lvgl/src/widgets/calendar/lv_calendar.c ****         if(lv_buttonmatrix_get_selected_button(obj) == (uint32_t)id) {
 399:Drivers/lvgl/src/widgets/calendar/lv_calendar.c ****             if(fill_draw_dsc) fill_draw_dsc->opa = LV_OPA_70;
 400:Drivers/lvgl/src/widgets/calendar/lv_calendar.c ****         }
 401:Drivers/lvgl/src/widgets/calendar/lv_calendar.c ****     }
 402:Drivers/lvgl/src/widgets/calendar/lv_calendar.c **** 
 403:Drivers/lvgl/src/widgets/calendar/lv_calendar.c ****     if(lv_buttonmatrix_has_button_ctrl(obj, id, LV_CALENDAR_CTRL_TODAY)) {
 404:Drivers/lvgl/src/widgets/calendar/lv_calendar.c ****         if(border_draw_dsc) border_draw_dsc->opa = LV_OPA_COVER;
 405:Drivers/lvgl/src/widgets/calendar/lv_calendar.c ****         if(border_draw_dsc) border_draw_dsc->color = lv_theme_get_color_primary(obj);
 406:Drivers/lvgl/src/widgets/calendar/lv_calendar.c ****         if(border_draw_dsc) border_draw_dsc->width += 1;
 407:Drivers/lvgl/src/widgets/calendar/lv_calendar.c ****     }
 408:Drivers/lvgl/src/widgets/calendar/lv_calendar.c **** }
 409:Drivers/lvgl/src/widgets/calendar/lv_calendar.c **** 
 410:Drivers/lvgl/src/widgets/calendar/lv_calendar.c **** /**
 411:Drivers/lvgl/src/widgets/calendar/lv_calendar.c ****  * Get the number of days in a month
 412:Drivers/lvgl/src/widgets/calendar/lv_calendar.c ****  * @param year a year
 413:Drivers/lvgl/src/widgets/calendar/lv_calendar.c ****  * @param month a month. The range is basically [1..12] but [-11..0] or [13..24] is also
 414:Drivers/lvgl/src/widgets/calendar/lv_calendar.c ****  *              supported to handle next/prev. year
 415:Drivers/lvgl/src/widgets/calendar/lv_calendar.c ****  * @return [28..31]
 416:Drivers/lvgl/src/widgets/calendar/lv_calendar.c ****  */
 417:Drivers/lvgl/src/widgets/calendar/lv_calendar.c **** static uint8_t get_month_length(int32_t year, int32_t month)
 418:Drivers/lvgl/src/widgets/calendar/lv_calendar.c **** {
 419:Drivers/lvgl/src/widgets/calendar/lv_calendar.c ****     month--;
 420:Drivers/lvgl/src/widgets/calendar/lv_calendar.c ****     if(month < 0) {
 421:Drivers/lvgl/src/widgets/calendar/lv_calendar.c ****         year--;             /*Already in the previous year (won't be less than -12 to skip a whole 
 422:Drivers/lvgl/src/widgets/calendar/lv_calendar.c ****         month = 12 + month; /*`month` is negative, the result will be < 12*/
 423:Drivers/lvgl/src/widgets/calendar/lv_calendar.c ****     }
 424:Drivers/lvgl/src/widgets/calendar/lv_calendar.c ****     if(month >= 12) {
 425:Drivers/lvgl/src/widgets/calendar/lv_calendar.c ****         year++;
 426:Drivers/lvgl/src/widgets/calendar/lv_calendar.c ****         month -= 12;
 427:Drivers/lvgl/src/widgets/calendar/lv_calendar.c ****     }
 428:Drivers/lvgl/src/widgets/calendar/lv_calendar.c **** 
 429:Drivers/lvgl/src/widgets/calendar/lv_calendar.c ****     /*month == 1 is february*/
ARM GAS  /var/folders/qx/2_175_4n2s19vhvtspjhb3qh0000gn/T//ccZZ70SA.s 			page 9


 430:Drivers/lvgl/src/widgets/calendar/lv_calendar.c ****     return (month == 1) ? (28 + is_leap_year(year)) : 31 - month % 7 % 2;
 431:Drivers/lvgl/src/widgets/calendar/lv_calendar.c **** }
 432:Drivers/lvgl/src/widgets/calendar/lv_calendar.c **** 
 433:Drivers/lvgl/src/widgets/calendar/lv_calendar.c **** /**
 434:Drivers/lvgl/src/widgets/calendar/lv_calendar.c ****  * Tells whether a year is leap year or not
 435:Drivers/lvgl/src/widgets/calendar/lv_calendar.c ****  * @param year a year
 436:Drivers/lvgl/src/widgets/calendar/lv_calendar.c ****  * @return 0: not leap year; 1: leap year
 437:Drivers/lvgl/src/widgets/calendar/lv_calendar.c ****  */
 438:Drivers/lvgl/src/widgets/calendar/lv_calendar.c **** static uint8_t is_leap_year(uint32_t year)
 439:Drivers/lvgl/src/widgets/calendar/lv_calendar.c **** {
  29              		.loc 1 439 1 view -0
  30              		.cfi_startproc
  31              		@ args = 0, pretend = 0, frame = 0
  32              		@ frame_needed = 0, uses_anonymous_args = 0
  33              		@ link register save eliminated.
 440:Drivers/lvgl/src/widgets/calendar/lv_calendar.c ****     return (year % 4) || ((year % 100 == 0) && (year % 400)) ? 0 : 1;
  34              		.loc 1 440 5 view .LVU1
  35              		.loc 1 440 66 is_stmt 0 view .LVU2
  36 0000 10F0030F 		tst	r0, #3
  37 0004 12D1     		bne	.L3
  38              		.loc 1 440 33 discriminator 1 view .LVU3
  39 0006 0C4B     		ldr	r3, .L6
  40 0008 A3FB0023 		umull	r2, r3, r3, r0
  41 000c 5B09     		lsrs	r3, r3, #5
  42 000e 6422     		movs	r2, #100
  43 0010 02FB1303 		mls	r3, r2, r3, r0
  44              		.loc 1 440 66 discriminator 1 view .LVU4
  45 0014 63B9     		cbnz	r3, .L4
  46              		.loc 1 440 54 discriminator 4 view .LVU5
  47 0016 084B     		ldr	r3, .L6
  48 0018 A3FB0023 		umull	r2, r3, r3, r0
  49 001c DB09     		lsrs	r3, r3, #7
  50 001e 4FF4C872 		mov	r2, #400
  51 0022 02FB1303 		mls	r3, r2, r3, r0
  52              		.loc 1 440 45 discriminator 4 view .LVU6
  53 0026 2BB1     		cbz	r3, .L5
  54              		.loc 1 440 66 discriminator 6 view .LVU7
  55 0028 0020     		movs	r0, #0
  56              	.LVL1:
  57              		.loc 1 440 66 discriminator 6 view .LVU8
  58 002a 7047     		bx	lr
  59              	.LVL2:
  60              	.L3:
  61              		.loc 1 440 66 discriminator 6 view .LVU9
  62 002c 0020     		movs	r0, #0
  63              	.LVL3:
  64              		.loc 1 440 66 discriminator 6 view .LVU10
  65 002e 7047     		bx	lr
  66              	.LVL4:
  67              	.L4:
  68              		.loc 1 440 66 discriminator 5 view .LVU11
  69 0030 0120     		movs	r0, #1
  70              	.LVL5:
  71              		.loc 1 440 66 discriminator 5 view .LVU12
  72 0032 7047     		bx	lr
  73              	.LVL6:
  74              	.L5:
ARM GAS  /var/folders/qx/2_175_4n2s19vhvtspjhb3qh0000gn/T//ccZZ70SA.s 			page 10


  75              		.loc 1 440 66 discriminator 5 view .LVU13
  76 0034 0120     		movs	r0, #1
  77              	.LVL7:
 441:Drivers/lvgl/src/widgets/calendar/lv_calendar.c **** }
  78              		.loc 1 441 1 view .LVU14
  79 0036 7047     		bx	lr
  80              	.L7:
  81              		.align	2
  82              	.L6:
  83 0038 1F85EB51 		.word	1374389535
  84              		.cfi_endproc
  85              	.LFE221:
  87              		.section	.text.get_month_length,"ax",%progbits
  88              		.align	1
  89              		.syntax unified
  90              		.thumb
  91              		.thumb_func
  93              	get_month_length:
  94              	.LVL8:
  95              	.LFB220:
 418:Drivers/lvgl/src/widgets/calendar/lv_calendar.c ****     month--;
  96              		.loc 1 418 1 is_stmt 1 view -0
  97              		.cfi_startproc
  98              		@ args = 0, pretend = 0, frame = 0
  99              		@ frame_needed = 0, uses_anonymous_args = 0
 418:Drivers/lvgl/src/widgets/calendar/lv_calendar.c ****     month--;
 100              		.loc 1 418 1 is_stmt 0 view .LVU16
 101 0000 08B5     		push	{r3, lr}
 102              	.LCFI0:
 103              		.cfi_def_cfa_offset 8
 104              		.cfi_offset 3, -8
 105              		.cfi_offset 14, -4
 419:Drivers/lvgl/src/widgets/calendar/lv_calendar.c ****     if(month < 0) {
 106              		.loc 1 419 5 is_stmt 1 view .LVU17
 107              	.LVL9:
 420:Drivers/lvgl/src/widgets/calendar/lv_calendar.c ****         year--;             /*Already in the previous year (won't be less than -12 to skip a whole 
 108              		.loc 1 420 5 view .LVU18
 420:Drivers/lvgl/src/widgets/calendar/lv_calendar.c ****         year--;             /*Already in the previous year (won't be less than -12 to skip a whole 
 109              		.loc 1 420 7 is_stmt 0 view .LVU19
 110 0002 4A1E     		subs	r2, r1, #1
 111              	.LVL10:
 420:Drivers/lvgl/src/widgets/calendar/lv_calendar.c ****         year--;             /*Already in the previous year (won't be less than -12 to skip a whole 
 112              		.loc 1 420 7 view .LVU20
 113 0004 18D4     		bmi	.L14
 114              	.LVL11:
 115              	.L9:
 424:Drivers/lvgl/src/widgets/calendar/lv_calendar.c ****         year++;
 116              		.loc 1 424 5 is_stmt 1 view .LVU21
 424:Drivers/lvgl/src/widgets/calendar/lv_calendar.c ****         year++;
 117              		.loc 1 424 7 is_stmt 0 view .LVU22
 118 0006 0B2A     		cmp	r2, #11
 119 0008 01DD     		ble	.L10
 425:Drivers/lvgl/src/widgets/calendar/lv_calendar.c ****         month -= 12;
 120              		.loc 1 425 9 is_stmt 1 view .LVU23
 425:Drivers/lvgl/src/widgets/calendar/lv_calendar.c ****         month -= 12;
 121              		.loc 1 425 13 is_stmt 0 view .LVU24
 122 000a 0130     		adds	r0, r0, #1
ARM GAS  /var/folders/qx/2_175_4n2s19vhvtspjhb3qh0000gn/T//ccZZ70SA.s 			page 11


 123              	.LVL12:
 426:Drivers/lvgl/src/widgets/calendar/lv_calendar.c ****     }
 124              		.loc 1 426 9 is_stmt 1 view .LVU25
 426:Drivers/lvgl/src/widgets/calendar/lv_calendar.c ****     }
 125              		.loc 1 426 15 is_stmt 0 view .LVU26
 126 000c 0C3A     		subs	r2, r2, #12
 127              	.LVL13:
 128              	.L10:
 430:Drivers/lvgl/src/widgets/calendar/lv_calendar.c **** }
 129              		.loc 1 430 5 is_stmt 1 view .LVU27
 430:Drivers/lvgl/src/widgets/calendar/lv_calendar.c **** }
 130              		.loc 1 430 53 is_stmt 0 view .LVU28
 131 000e 012A     		cmp	r2, #1
 132 0010 16D0     		beq	.L15
 430:Drivers/lvgl/src/widgets/calendar/lv_calendar.c **** }
 133              		.loc 1 430 66 discriminator 2 view .LVU29
 134 0012 0E49     		ldr	r1, .L16
 135 0014 81FB0231 		smull	r3, r1, r1, r2
 136 0018 1144     		add	r1, r1, r2
 137 001a D317     		asrs	r3, r2, #31
 138 001c C3EBA103 		rsb	r3, r3, r1, asr #2
 139 0020 C3EBC303 		rsb	r3, r3, r3, lsl #3
 430:Drivers/lvgl/src/widgets/calendar/lv_calendar.c **** }
 140              		.loc 1 430 70 discriminator 2 view .LVU30
 141 0024 D31A     		subs	r3, r2, r3
 142 0026 03F00103 		and	r3, r3, #1
 143 002a 48BF     		it	mi
 144 002c 5B42     		rsbmi	r3, r3, #0
 430:Drivers/lvgl/src/widgets/calendar/lv_calendar.c **** }
 145              		.loc 1 430 58 discriminator 2 view .LVU31
 146 002e D8B2     		uxtb	r0, r3
 147              	.LVL14:
 430:Drivers/lvgl/src/widgets/calendar/lv_calendar.c **** }
 148              		.loc 1 430 53 discriminator 2 view .LVU32
 149 0030 C0F11F00 		rsb	r0, r0, #31
 150 0034 C0B2     		uxtb	r0, r0
 151              	.LVL15:
 152              	.L12:
 431:Drivers/lvgl/src/widgets/calendar/lv_calendar.c **** 
 153              		.loc 1 431 1 view .LVU33
 154 0036 08BD     		pop	{r3, pc}
 155              	.LVL16:
 156              	.L14:
 421:Drivers/lvgl/src/widgets/calendar/lv_calendar.c ****         month = 12 + month; /*`month` is negative, the result will be < 12*/
 157              		.loc 1 421 9 is_stmt 1 view .LVU34
 421:Drivers/lvgl/src/widgets/calendar/lv_calendar.c ****         month = 12 + month; /*`month` is negative, the result will be < 12*/
 158              		.loc 1 421 13 is_stmt 0 view .LVU35
 159 0038 0138     		subs	r0, r0, #1
 160              	.LVL17:
 422:Drivers/lvgl/src/widgets/calendar/lv_calendar.c ****     }
 161              		.loc 1 422 9 is_stmt 1 view .LVU36
 422:Drivers/lvgl/src/widgets/calendar/lv_calendar.c ****     }
 162              		.loc 1 422 15 is_stmt 0 view .LVU37
 163 003a 01F10B02 		add	r2, r1, #11
 164              	.LVL18:
 422:Drivers/lvgl/src/widgets/calendar/lv_calendar.c ****     }
 165              		.loc 1 422 15 view .LVU38
ARM GAS  /var/folders/qx/2_175_4n2s19vhvtspjhb3qh0000gn/T//ccZZ70SA.s 			page 12


 166 003e E2E7     		b	.L9
 167              	.LVL19:
 168              	.L15:
 430:Drivers/lvgl/src/widgets/calendar/lv_calendar.c **** }
 169              		.loc 1 430 33 discriminator 1 view .LVU39
 170 0040 FFF7FEFF 		bl	is_leap_year
 171              	.LVL20:
 430:Drivers/lvgl/src/widgets/calendar/lv_calendar.c **** }
 172              		.loc 1 430 53 discriminator 1 view .LVU40
 173 0044 1C30     		adds	r0, r0, #28
 174 0046 C0B2     		uxtb	r0, r0
 175 0048 F5E7     		b	.L12
 176              	.L17:
 177 004a 00BF     		.align	2
 178              	.L16:
 179 004c 93244992 		.word	-1840700269
 180              		.cfi_endproc
 181              	.LFE220:
 183              		.section	.text.get_day_of_week,"ax",%progbits
 184              		.align	1
 185              		.syntax unified
 186              		.thumb
 187              		.thumb_func
 189              	get_day_of_week:
 190              	.LVL21:
 191              	.LFB222:
 442:Drivers/lvgl/src/widgets/calendar/lv_calendar.c **** 
 443:Drivers/lvgl/src/widgets/calendar/lv_calendar.c **** /**
 444:Drivers/lvgl/src/widgets/calendar/lv_calendar.c ****  * Get the day of the week
 445:Drivers/lvgl/src/widgets/calendar/lv_calendar.c ****  * @param year a year
 446:Drivers/lvgl/src/widgets/calendar/lv_calendar.c ****  * @param month a  month [1..12]
 447:Drivers/lvgl/src/widgets/calendar/lv_calendar.c ****  * @param day a day [1..32]
 448:Drivers/lvgl/src/widgets/calendar/lv_calendar.c ****  * @return [0..6] which means [Sun..Sat] or [Mon..Sun] depending on LV_CALENDAR_WEEK_STARTS_MONDAY
 449:Drivers/lvgl/src/widgets/calendar/lv_calendar.c ****  */
 450:Drivers/lvgl/src/widgets/calendar/lv_calendar.c **** static uint8_t get_day_of_week(uint32_t year, uint32_t month, uint32_t day)
 451:Drivers/lvgl/src/widgets/calendar/lv_calendar.c **** {
 192              		.loc 1 451 1 is_stmt 1 view -0
 193              		.cfi_startproc
 194              		@ args = 0, pretend = 0, frame = 0
 195              		@ frame_needed = 0, uses_anonymous_args = 0
 196              		@ link register save eliminated.
 452:Drivers/lvgl/src/widgets/calendar/lv_calendar.c ****     uint32_t a = month < 3 ? 1 : 0;
 197              		.loc 1 452 5 view .LVU42
 198              		.loc 1 452 32 is_stmt 0 view .LVU43
 199 0000 0229     		cmp	r1, #2
 200 0002 8CBF     		ite	hi
 201 0004 0023     		movhi	r3, #0
 202 0006 0123     		movls	r3, #1
 203              	.LVL22:
 453:Drivers/lvgl/src/widgets/calendar/lv_calendar.c ****     uint32_t b = year - a;
 204              		.loc 1 453 5 is_stmt 1 view .LVU44
 205              		.loc 1 453 14 is_stmt 0 view .LVU45
 206 0008 C01A     		subs	r0, r0, r3
 207              	.LVL23:
 454:Drivers/lvgl/src/widgets/calendar/lv_calendar.c **** 
 455:Drivers/lvgl/src/widgets/calendar/lv_calendar.c **** #if LV_CALENDAR_WEEK_STARTS_MONDAY
 456:Drivers/lvgl/src/widgets/calendar/lv_calendar.c ****     uint32_t day_of_week = (day + (31 * (month - 2 + 12 * a) / 12) + b + (b / 4) - (b / 100) + (b /
ARM GAS  /var/folders/qx/2_175_4n2s19vhvtspjhb3qh0000gn/T//ccZZ70SA.s 			page 13


 457:Drivers/lvgl/src/widgets/calendar/lv_calendar.c **** #else
 458:Drivers/lvgl/src/widgets/calendar/lv_calendar.c ****     uint32_t day_of_week = (day + (31 * (month - 2 + 12 * a) / 12) + b + (b / 4) - (b / 100) + (b /
 208              		.loc 1 458 5 is_stmt 1 view .LVU46
 209              		.loc 1 458 57 is_stmt 0 view .LVU47
 210 000a 5B42     		rsbs	r3, r3, #0
 211              	.LVL24:
 212              		.loc 1 458 57 view .LVU48
 213 000c 03F00C03 		and	r3, r3, #12
 214              	.LVL25:
 215              		.loc 1 458 52 view .LVU49
 216 0010 1944     		add	r1, r1, r3
 217              	.LVL26:
 218              		.loc 1 458 39 view .LVU50
 219 0012 C1EB4111 		rsb	r1, r1, r1, lsl #5
 220 0016 3E39     		subs	r1, r1, #62
 221              		.loc 1 458 62 view .LVU51
 222 0018 0D4B     		ldr	r3, .L19
 223 001a A3FB0131 		umull	r3, r1, r3, r1
 224              		.loc 1 458 33 view .LVU52
 225 001e 02EBD103 		add	r3, r2, r1, lsr #3
 226              		.loc 1 458 68 view .LVU53
 227 0022 0344     		add	r3, r3, r0
 228              		.loc 1 458 72 view .LVU54
 229 0024 03EB9003 		add	r3, r3, r0, lsr #2
 230              		.loc 1 458 87 view .LVU55
 231 0028 0A4A     		ldr	r2, .L19+4
 232              	.LVL27:
 233              		.loc 1 458 87 view .LVU56
 234 002a A2FB0020 		umull	r2, r0, r2, r0
 235              	.LVL28:
 236              		.loc 1 458 82 view .LVU57
 237 002e A3EB5013 		sub	r3, r3, r0, lsr #5
 238              		.loc 1 458 94 view .LVU58
 239 0032 03EBD013 		add	r3, r3, r0, lsr #7
 240              		.loc 1 458 14 view .LVU59
 241 0036 0848     		ldr	r0, .L19+8
 242 0038 A0FB0320 		umull	r2, r0, r0, r3
 243 003c 1A1A     		subs	r2, r3, r0
 244 003e 00EB5200 		add	r0, r0, r2, lsr #1
 245 0042 8008     		lsrs	r0, r0, #2
 246 0044 C0EBC000 		rsb	r0, r0, r0, lsl #3
 247 0048 181A     		subs	r0, r3, r0
 248              	.LVL29:
 459:Drivers/lvgl/src/widgets/calendar/lv_calendar.c **** #endif
 460:Drivers/lvgl/src/widgets/calendar/lv_calendar.c **** 
 461:Drivers/lvgl/src/widgets/calendar/lv_calendar.c ****     return day_of_week  ;
 249              		.loc 1 461 5 is_stmt 1 view .LVU60
 462:Drivers/lvgl/src/widgets/calendar/lv_calendar.c **** }
 250              		.loc 1 462 1 is_stmt 0 view .LVU61
 251 004a C0B2     		uxtb	r0, r0
 252              	.LVL30:
 253              		.loc 1 462 1 view .LVU62
 254 004c 7047     		bx	lr
 255              	.L20:
 256 004e 00BF     		.align	2
 257              	.L19:
 258 0050 ABAAAAAA 		.word	-1431655765
ARM GAS  /var/folders/qx/2_175_4n2s19vhvtspjhb3qh0000gn/T//ccZZ70SA.s 			page 14


 259 0054 1F85EB51 		.word	1374389535
 260 0058 25499224 		.word	613566757
 261              		.cfi_endproc
 262              	.LFE222:
 264              		.section	.text.draw_task_added_event_cb,"ax",%progbits
 265              		.align	1
 266              		.syntax unified
 267              		.thumb
 268              		.thumb_func
 270              	draw_task_added_event_cb:
 271              	.LVL31:
 272              	.LFB219:
 370:Drivers/lvgl/src/widgets/calendar/lv_calendar.c ****     lv_obj_t * obj = lv_event_get_current_target(e);
 273              		.loc 1 370 1 is_stmt 1 view -0
 274              		.cfi_startproc
 275              		@ args = 0, pretend = 0, frame = 0
 276              		@ frame_needed = 0, uses_anonymous_args = 0
 370:Drivers/lvgl/src/widgets/calendar/lv_calendar.c ****     lv_obj_t * obj = lv_event_get_current_target(e);
 277              		.loc 1 370 1 is_stmt 0 view .LVU64
 278 0000 F8B5     		push	{r3, r4, r5, r6, r7, lr}
 279              	.LCFI1:
 280              		.cfi_def_cfa_offset 24
 281              		.cfi_offset 3, -24
 282              		.cfi_offset 4, -20
 283              		.cfi_offset 5, -16
 284              		.cfi_offset 6, -12
 285              		.cfi_offset 7, -8
 286              		.cfi_offset 14, -4
 287 0002 0446     		mov	r4, r0
 371:Drivers/lvgl/src/widgets/calendar/lv_calendar.c ****     lv_draw_task_t * draw_task = lv_event_get_param(e);
 288              		.loc 1 371 5 is_stmt 1 view .LVU65
 371:Drivers/lvgl/src/widgets/calendar/lv_calendar.c ****     lv_draw_task_t * draw_task = lv_event_get_param(e);
 289              		.loc 1 371 22 is_stmt 0 view .LVU66
 290 0004 FFF7FEFF 		bl	lv_event_get_current_target
 291              	.LVL32:
 371:Drivers/lvgl/src/widgets/calendar/lv_calendar.c ****     lv_draw_task_t * draw_task = lv_event_get_param(e);
 292              		.loc 1 371 22 view .LVU67
 293 0008 0546     		mov	r5, r0
 294              	.LVL33:
 372:Drivers/lvgl/src/widgets/calendar/lv_calendar.c ****     if(((lv_draw_dsc_base_t *)draw_task->draw_dsc)->part != LV_PART_ITEMS) return;
 295              		.loc 1 372 5 is_stmt 1 view .LVU68
 372:Drivers/lvgl/src/widgets/calendar/lv_calendar.c ****     if(((lv_draw_dsc_base_t *)draw_task->draw_dsc)->part != LV_PART_ITEMS) return;
 296              		.loc 1 372 34 is_stmt 0 view .LVU69
 297 000a 2046     		mov	r0, r4
 298              	.LVL34:
 372:Drivers/lvgl/src/widgets/calendar/lv_calendar.c ****     if(((lv_draw_dsc_base_t *)draw_task->draw_dsc)->part != LV_PART_ITEMS) return;
 299              		.loc 1 372 34 view .LVU70
 300 000c FFF7FEFF 		bl	lv_event_get_param
 301              	.LVL35:
 373:Drivers/lvgl/src/widgets/calendar/lv_calendar.c **** 
 302              		.loc 1 373 5 is_stmt 1 view .LVU71
 373:Drivers/lvgl/src/widgets/calendar/lv_calendar.c **** 
 303              		.loc 1 373 40 is_stmt 0 view .LVU72
 304 0010 436D     		ldr	r3, [r0, #84]
 373:Drivers/lvgl/src/widgets/calendar/lv_calendar.c **** 
 305              		.loc 1 373 51 view .LVU73
 306 0012 5B68     		ldr	r3, [r3, #4]
ARM GAS  /var/folders/qx/2_175_4n2s19vhvtspjhb3qh0000gn/T//ccZZ70SA.s 			page 15


 373:Drivers/lvgl/src/widgets/calendar/lv_calendar.c **** 
 307              		.loc 1 373 7 view .LVU74
 308 0014 B3F5A02F 		cmp	r3, #327680
 309 0018 00D0     		beq	.L32
 310              	.LVL36:
 311              	.L21:
 408:Drivers/lvgl/src/widgets/calendar/lv_calendar.c **** 
 312              		.loc 1 408 1 view .LVU75
 313 001a F8BD     		pop	{r3, r4, r5, r6, r7, pc}
 314              	.LVL37:
 315              	.L32:
 408:Drivers/lvgl/src/widgets/calendar/lv_calendar.c **** 
 316              		.loc 1 408 1 view .LVU76
 317 001c 0446     		mov	r4, r0
 318              	.LVL38:
 375:Drivers/lvgl/src/widgets/calendar/lv_calendar.c ****     lv_draw_border_dsc_t * border_draw_dsc = lv_draw_task_get_border_dsc(draw_task);
 319              		.loc 1 375 5 is_stmt 1 view .LVU77
 375:Drivers/lvgl/src/widgets/calendar/lv_calendar.c ****     lv_draw_border_dsc_t * border_draw_dsc = lv_draw_task_get_border_dsc(draw_task);
 320              		.loc 1 375 42 is_stmt 0 view .LVU78
 321 001e FFF7FEFF 		bl	lv_draw_task_get_fill_dsc
 322              	.LVL39:
 375:Drivers/lvgl/src/widgets/calendar/lv_calendar.c ****     lv_draw_border_dsc_t * border_draw_dsc = lv_draw_task_get_border_dsc(draw_task);
 323              		.loc 1 375 42 view .LVU79
 324 0022 0746     		mov	r7, r0
 325              	.LVL40:
 376:Drivers/lvgl/src/widgets/calendar/lv_calendar.c **** 
 326              		.loc 1 376 5 is_stmt 1 view .LVU80
 376:Drivers/lvgl/src/widgets/calendar/lv_calendar.c **** 
 327              		.loc 1 376 46 is_stmt 0 view .LVU81
 328 0024 2046     		mov	r0, r4
 329              	.LVL41:
 376:Drivers/lvgl/src/widgets/calendar/lv_calendar.c **** 
 330              		.loc 1 376 46 view .LVU82
 331 0026 FFF7FEFF 		bl	lv_draw_task_get_border_dsc
 332              	.LVL42:
 333 002a 0646     		mov	r6, r0
 334              	.LVL43:
 378:Drivers/lvgl/src/widgets/calendar/lv_calendar.c ****         return;
 335              		.loc 1 378 5 is_stmt 1 view .LVU83
 378:Drivers/lvgl/src/widgets/calendar/lv_calendar.c ****         return;
 336              		.loc 1 378 7 is_stmt 0 view .LVU84
 337 002c 002F     		cmp	r7, #0
 338 002e 54D0     		beq	.L33
 339              	.L23:
 382:Drivers/lvgl/src/widgets/calendar/lv_calendar.c **** 
 340              		.loc 1 382 5 is_stmt 1 view .LVU85
 382:Drivers/lvgl/src/widgets/calendar/lv_calendar.c **** 
 341              		.loc 1 382 50 is_stmt 0 view .LVU86
 342 0030 636D     		ldr	r3, [r4, #84]
 382:Drivers/lvgl/src/widgets/calendar/lv_calendar.c **** 
 343              		.loc 1 382 61 view .LVU87
 344 0032 9C68     		ldr	r4, [r3, #8]
 345              	.LVL44:
 385:Drivers/lvgl/src/widgets/calendar/lv_calendar.c ****         if(fill_draw_dsc) fill_draw_dsc->opa = LV_OPA_TRANSP;
 346              		.loc 1 385 5 is_stmt 1 view .LVU88
 385:Drivers/lvgl/src/widgets/calendar/lv_calendar.c ****         if(fill_draw_dsc) fill_draw_dsc->opa = LV_OPA_TRANSP;
 347              		.loc 1 385 7 is_stmt 0 view .LVU89
ARM GAS  /var/folders/qx/2_175_4n2s19vhvtspjhb3qh0000gn/T//ccZZ70SA.s 			page 16


 348 0034 062C     		cmp	r4, #6
 349 0036 53DC     		bgt	.L24
 386:Drivers/lvgl/src/widgets/calendar/lv_calendar.c ****         if(border_draw_dsc) border_draw_dsc->opa = LV_OPA_TRANSP;
 350              		.loc 1 386 9 is_stmt 1 view .LVU90
 386:Drivers/lvgl/src/widgets/calendar/lv_calendar.c ****         if(border_draw_dsc) border_draw_dsc->opa = LV_OPA_TRANSP;
 351              		.loc 1 386 11 is_stmt 0 view .LVU91
 352 0038 17B1     		cbz	r7, .L25
 386:Drivers/lvgl/src/widgets/calendar/lv_calendar.c ****         if(border_draw_dsc) border_draw_dsc->opa = LV_OPA_TRANSP;
 353              		.loc 1 386 27 is_stmt 1 discriminator 1 view .LVU92
 386:Drivers/lvgl/src/widgets/calendar/lv_calendar.c ****         if(border_draw_dsc) border_draw_dsc->opa = LV_OPA_TRANSP;
 354              		.loc 1 386 46 is_stmt 0 discriminator 1 view .LVU93
 355 003a 0023     		movs	r3, #0
 356 003c 87F82030 		strb	r3, [r7, #32]
 357              	.L25:
 387:Drivers/lvgl/src/widgets/calendar/lv_calendar.c ****     }
 358              		.loc 1 387 9 is_stmt 1 view .LVU94
 387:Drivers/lvgl/src/widgets/calendar/lv_calendar.c ****     }
 359              		.loc 1 387 11 is_stmt 0 view .LVU95
 360 0040 16B1     		cbz	r6, .L26
 387:Drivers/lvgl/src/widgets/calendar/lv_calendar.c ****     }
 361              		.loc 1 387 29 is_stmt 1 discriminator 1 view .LVU96
 387:Drivers/lvgl/src/widgets/calendar/lv_calendar.c ****     }
 362              		.loc 1 387 50 is_stmt 0 discriminator 1 view .LVU97
 363 0042 0023     		movs	r3, #0
 364 0044 86F82830 		strb	r3, [r6, #40]
 365              	.LVL45:
 366              	.L26:
 394:Drivers/lvgl/src/widgets/calendar/lv_calendar.c ****         if(border_draw_dsc) border_draw_dsc->color = lv_theme_get_color_primary(obj);
 367              		.loc 1 394 5 is_stmt 1 view .LVU98
 394:Drivers/lvgl/src/widgets/calendar/lv_calendar.c ****         if(border_draw_dsc) border_draw_dsc->color = lv_theme_get_color_primary(obj);
 368              		.loc 1 394 8 is_stmt 0 view .LVU99
 369 0048 4FF40042 		mov	r2, #32768
 370 004c 2146     		mov	r1, r4
 371 004e 2846     		mov	r0, r5
 372 0050 FFF7FEFF 		bl	lv_buttonmatrix_has_button_ctrl
 373              	.LVL46:
 394:Drivers/lvgl/src/widgets/calendar/lv_calendar.c ****         if(border_draw_dsc) border_draw_dsc->color = lv_theme_get_color_primary(obj);
 374              		.loc 1 394 7 discriminator 1 view .LVU100
 375 0054 18B3     		cbz	r0, .L28
 395:Drivers/lvgl/src/widgets/calendar/lv_calendar.c ****         if(fill_draw_dsc) fill_draw_dsc->opa = LV_OPA_40;
 376              		.loc 1 395 9 is_stmt 1 view .LVU101
 395:Drivers/lvgl/src/widgets/calendar/lv_calendar.c ****         if(fill_draw_dsc) fill_draw_dsc->opa = LV_OPA_40;
 377              		.loc 1 395 11 is_stmt 0 view .LVU102
 378 0056 66B1     		cbz	r6, .L29
 395:Drivers/lvgl/src/widgets/calendar/lv_calendar.c ****         if(fill_draw_dsc) fill_draw_dsc->opa = LV_OPA_40;
 379              		.loc 1 395 29 is_stmt 1 discriminator 1 view .LVU103
 395:Drivers/lvgl/src/widgets/calendar/lv_calendar.c ****         if(fill_draw_dsc) fill_draw_dsc->opa = LV_OPA_40;
 380              		.loc 1 395 54 is_stmt 0 discriminator 1 view .LVU104
 381 0058 2846     		mov	r0, r5
 382 005a FFF7FEFF 		bl	lv_theme_get_color_primary
 383              	.LVL47:
 384 005e 86F82000 		strb	r0, [r6, #32]
 385 0062 C0F30723 		ubfx	r3, r0, #8, #8
 386 0066 86F82130 		strb	r3, [r6, #33]
 387 006a C0F30740 		ubfx	r0, r0, #16, #8
 388 006e 86F82200 		strb	r0, [r6, #34]
 389              	.L29:
ARM GAS  /var/folders/qx/2_175_4n2s19vhvtspjhb3qh0000gn/T//ccZZ70SA.s 			page 17


 396:Drivers/lvgl/src/widgets/calendar/lv_calendar.c ****         if(fill_draw_dsc) fill_draw_dsc->color = lv_theme_get_color_primary(obj);
 390              		.loc 1 396 9 is_stmt 1 view .LVU105
 396:Drivers/lvgl/src/widgets/calendar/lv_calendar.c ****         if(fill_draw_dsc) fill_draw_dsc->color = lv_theme_get_color_primary(obj);
 391              		.loc 1 396 11 is_stmt 0 view .LVU106
 392 0072 7FB1     		cbz	r7, .L30
 396:Drivers/lvgl/src/widgets/calendar/lv_calendar.c ****         if(fill_draw_dsc) fill_draw_dsc->color = lv_theme_get_color_primary(obj);
 393              		.loc 1 396 27 is_stmt 1 discriminator 1 view .LVU107
 396:Drivers/lvgl/src/widgets/calendar/lv_calendar.c ****         if(fill_draw_dsc) fill_draw_dsc->color = lv_theme_get_color_primary(obj);
 394              		.loc 1 396 46 is_stmt 0 discriminator 1 view .LVU108
 395 0074 6623     		movs	r3, #102
 396 0076 87F82030 		strb	r3, [r7, #32]
 397:Drivers/lvgl/src/widgets/calendar/lv_calendar.c ****         if(lv_buttonmatrix_get_selected_button(obj) == (uint32_t)id) {
 397              		.loc 1 397 9 is_stmt 1 view .LVU109
 397:Drivers/lvgl/src/widgets/calendar/lv_calendar.c ****         if(lv_buttonmatrix_get_selected_button(obj) == (uint32_t)id) {
 398              		.loc 1 397 27 discriminator 1 view .LVU110
 397:Drivers/lvgl/src/widgets/calendar/lv_calendar.c ****         if(lv_buttonmatrix_get_selected_button(obj) == (uint32_t)id) {
 399              		.loc 1 397 50 is_stmt 0 discriminator 1 view .LVU111
 400 007a 2846     		mov	r0, r5
 401 007c FFF7FEFF 		bl	lv_theme_get_color_primary
 402              	.LVL48:
 403 0080 87F82100 		strb	r0, [r7, #33]
 404 0084 C0F30723 		ubfx	r3, r0, #8, #8
 405 0088 87F82230 		strb	r3, [r7, #34]
 406 008c C0F30740 		ubfx	r0, r0, #16, #8
 407 0090 87F82300 		strb	r0, [r7, #35]
 408              	.L30:
 398:Drivers/lvgl/src/widgets/calendar/lv_calendar.c ****             if(fill_draw_dsc) fill_draw_dsc->opa = LV_OPA_70;
 409              		.loc 1 398 9 is_stmt 1 view .LVU112
 398:Drivers/lvgl/src/widgets/calendar/lv_calendar.c ****             if(fill_draw_dsc) fill_draw_dsc->opa = LV_OPA_70;
 410              		.loc 1 398 12 is_stmt 0 view .LVU113
 411 0094 2846     		mov	r0, r5
 412 0096 FFF7FEFF 		bl	lv_buttonmatrix_get_selected_button
 413              	.LVL49:
 398:Drivers/lvgl/src/widgets/calendar/lv_calendar.c ****             if(fill_draw_dsc) fill_draw_dsc->opa = LV_OPA_70;
 414              		.loc 1 398 11 discriminator 1 view .LVU114
 415 009a 8442     		cmp	r4, r0
 416 009c 31D0     		beq	.L34
 417              	.L28:
 403:Drivers/lvgl/src/widgets/calendar/lv_calendar.c ****         if(border_draw_dsc) border_draw_dsc->opa = LV_OPA_COVER;
 418              		.loc 1 403 5 is_stmt 1 view .LVU115
 403:Drivers/lvgl/src/widgets/calendar/lv_calendar.c ****         if(border_draw_dsc) border_draw_dsc->opa = LV_OPA_COVER;
 419              		.loc 1 403 8 is_stmt 0 view .LVU116
 420 009e 4FF48042 		mov	r2, #16384
 421 00a2 2146     		mov	r1, r4
 422 00a4 2846     		mov	r0, r5
 423 00a6 FFF7FEFF 		bl	lv_buttonmatrix_has_button_ctrl
 424              	.LVL50:
 403:Drivers/lvgl/src/widgets/calendar/lv_calendar.c ****         if(border_draw_dsc) border_draw_dsc->opa = LV_OPA_COVER;
 425              		.loc 1 403 7 discriminator 1 view .LVU117
 426 00aa 0028     		cmp	r0, #0
 427 00ac B5D0     		beq	.L21
 404:Drivers/lvgl/src/widgets/calendar/lv_calendar.c ****         if(border_draw_dsc) border_draw_dsc->color = lv_theme_get_color_primary(obj);
 428              		.loc 1 404 9 is_stmt 1 view .LVU118
 404:Drivers/lvgl/src/widgets/calendar/lv_calendar.c ****         if(border_draw_dsc) border_draw_dsc->color = lv_theme_get_color_primary(obj);
 429              		.loc 1 404 11 is_stmt 0 view .LVU119
 430 00ae 002E     		cmp	r6, #0
 431 00b0 B3D0     		beq	.L21
ARM GAS  /var/folders/qx/2_175_4n2s19vhvtspjhb3qh0000gn/T//ccZZ70SA.s 			page 18


 404:Drivers/lvgl/src/widgets/calendar/lv_calendar.c ****         if(border_draw_dsc) border_draw_dsc->color = lv_theme_get_color_primary(obj);
 432              		.loc 1 404 29 is_stmt 1 discriminator 1 view .LVU120
 404:Drivers/lvgl/src/widgets/calendar/lv_calendar.c ****         if(border_draw_dsc) border_draw_dsc->color = lv_theme_get_color_primary(obj);
 433              		.loc 1 404 50 is_stmt 0 discriminator 1 view .LVU121
 434 00b2 FF23     		movs	r3, #255
 435 00b4 86F82830 		strb	r3, [r6, #40]
 405:Drivers/lvgl/src/widgets/calendar/lv_calendar.c ****         if(border_draw_dsc) border_draw_dsc->width += 1;
 436              		.loc 1 405 9 is_stmt 1 view .LVU122
 405:Drivers/lvgl/src/widgets/calendar/lv_calendar.c ****         if(border_draw_dsc) border_draw_dsc->width += 1;
 437              		.loc 1 405 29 discriminator 1 view .LVU123
 405:Drivers/lvgl/src/widgets/calendar/lv_calendar.c ****         if(border_draw_dsc) border_draw_dsc->width += 1;
 438              		.loc 1 405 54 is_stmt 0 discriminator 1 view .LVU124
 439 00b8 2846     		mov	r0, r5
 440 00ba FFF7FEFF 		bl	lv_theme_get_color_primary
 441              	.LVL51:
 442 00be 86F82000 		strb	r0, [r6, #32]
 443 00c2 C0F30723 		ubfx	r3, r0, #8, #8
 444 00c6 86F82130 		strb	r3, [r6, #33]
 445 00ca C0F30740 		ubfx	r0, r0, #16, #8
 446 00ce 86F82200 		strb	r0, [r6, #34]
 406:Drivers/lvgl/src/widgets/calendar/lv_calendar.c ****     }
 447              		.loc 1 406 9 is_stmt 1 view .LVU125
 406:Drivers/lvgl/src/widgets/calendar/lv_calendar.c ****     }
 448              		.loc 1 406 29 discriminator 1 view .LVU126
 406:Drivers/lvgl/src/widgets/calendar/lv_calendar.c ****     }
 449              		.loc 1 406 44 is_stmt 0 discriminator 1 view .LVU127
 450 00d2 736A     		ldr	r3, [r6, #36]
 406:Drivers/lvgl/src/widgets/calendar/lv_calendar.c ****     }
 451              		.loc 1 406 52 discriminator 1 view .LVU128
 452 00d4 0133     		adds	r3, r3, #1
 453 00d6 7362     		str	r3, [r6, #36]
 454 00d8 9FE7     		b	.L21
 455              	.LVL52:
 456              	.L33:
 378:Drivers/lvgl/src/widgets/calendar/lv_calendar.c ****         return;
 457              		.loc 1 378 23 discriminator 1 view .LVU129
 458 00da 0028     		cmp	r0, #0
 459 00dc A8D1     		bne	.L23
 460 00de 9CE7     		b	.L21
 461              	.LVL53:
 462              	.L24:
 389:Drivers/lvgl/src/widgets/calendar/lv_calendar.c ****         if(fill_draw_dsc) fill_draw_dsc->opa = LV_OPA_TRANSP;
 463              		.loc 1 389 10 is_stmt 1 view .LVU130
 389:Drivers/lvgl/src/widgets/calendar/lv_calendar.c ****         if(fill_draw_dsc) fill_draw_dsc->opa = LV_OPA_TRANSP;
 464              		.loc 1 389 13 is_stmt 0 view .LVU131
 465 00e0 4022     		movs	r2, #64
 466 00e2 2146     		mov	r1, r4
 467 00e4 2846     		mov	r0, r5
 468              	.LVL54:
 389:Drivers/lvgl/src/widgets/calendar/lv_calendar.c ****         if(fill_draw_dsc) fill_draw_dsc->opa = LV_OPA_TRANSP;
 469              		.loc 1 389 13 view .LVU132
 470 00e6 FFF7FEFF 		bl	lv_buttonmatrix_has_button_ctrl
 471              	.LVL55:
 389:Drivers/lvgl/src/widgets/calendar/lv_calendar.c ****         if(fill_draw_dsc) fill_draw_dsc->opa = LV_OPA_TRANSP;
 472              		.loc 1 389 12 discriminator 1 view .LVU133
 473 00ea 0028     		cmp	r0, #0
 474 00ec ACD0     		beq	.L26
ARM GAS  /var/folders/qx/2_175_4n2s19vhvtspjhb3qh0000gn/T//ccZZ70SA.s 			page 19


 390:Drivers/lvgl/src/widgets/calendar/lv_calendar.c ****         if(border_draw_dsc) border_draw_dsc->opa = LV_OPA_TRANSP;
 475              		.loc 1 390 9 is_stmt 1 view .LVU134
 390:Drivers/lvgl/src/widgets/calendar/lv_calendar.c ****         if(border_draw_dsc) border_draw_dsc->opa = LV_OPA_TRANSP;
 476              		.loc 1 390 11 is_stmt 0 view .LVU135
 477 00ee 17B1     		cbz	r7, .L27
 390:Drivers/lvgl/src/widgets/calendar/lv_calendar.c ****         if(border_draw_dsc) border_draw_dsc->opa = LV_OPA_TRANSP;
 478              		.loc 1 390 27 is_stmt 1 discriminator 1 view .LVU136
 390:Drivers/lvgl/src/widgets/calendar/lv_calendar.c ****         if(border_draw_dsc) border_draw_dsc->opa = LV_OPA_TRANSP;
 479              		.loc 1 390 46 is_stmt 0 discriminator 1 view .LVU137
 480 00f0 0023     		movs	r3, #0
 481 00f2 87F82030 		strb	r3, [r7, #32]
 482              	.L27:
 391:Drivers/lvgl/src/widgets/calendar/lv_calendar.c ****     }
 483              		.loc 1 391 9 is_stmt 1 view .LVU138
 391:Drivers/lvgl/src/widgets/calendar/lv_calendar.c ****     }
 484              		.loc 1 391 11 is_stmt 0 view .LVU139
 485 00f6 002E     		cmp	r6, #0
 486 00f8 A6D0     		beq	.L26
 391:Drivers/lvgl/src/widgets/calendar/lv_calendar.c ****     }
 487              		.loc 1 391 29 is_stmt 1 discriminator 1 view .LVU140
 391:Drivers/lvgl/src/widgets/calendar/lv_calendar.c ****     }
 488              		.loc 1 391 50 is_stmt 0 discriminator 1 view .LVU141
 489 00fa 0023     		movs	r3, #0
 490 00fc 86F82830 		strb	r3, [r6, #40]
 491 0100 A2E7     		b	.L26
 492              	.L34:
 399:Drivers/lvgl/src/widgets/calendar/lv_calendar.c ****         }
 493              		.loc 1 399 13 is_stmt 1 view .LVU142
 399:Drivers/lvgl/src/widgets/calendar/lv_calendar.c ****         }
 494              		.loc 1 399 15 is_stmt 0 view .LVU143
 495 0102 002F     		cmp	r7, #0
 496 0104 CBD0     		beq	.L28
 399:Drivers/lvgl/src/widgets/calendar/lv_calendar.c ****         }
 497              		.loc 1 399 31 is_stmt 1 discriminator 1 view .LVU144
 399:Drivers/lvgl/src/widgets/calendar/lv_calendar.c ****         }
 498              		.loc 1 399 50 is_stmt 0 discriminator 1 view .LVU145
 499 0106 B223     		movs	r3, #178
 500 0108 87F82030 		strb	r3, [r7, #32]
 501 010c C7E7     		b	.L28
 502              		.cfi_endproc
 503              	.LFE219:
 505              		.section	.text.highlight_update,"ax",%progbits
 506              		.align	1
 507              		.syntax unified
 508              		.thumb
 509              		.thumb_func
 511              	highlight_update:
 512              	.LVL56:
 513              	.LFB223:
 463:Drivers/lvgl/src/widgets/calendar/lv_calendar.c **** 
 464:Drivers/lvgl/src/widgets/calendar/lv_calendar.c **** static void highlight_update(lv_obj_t * obj)
 465:Drivers/lvgl/src/widgets/calendar/lv_calendar.c **** {
 514              		.loc 1 465 1 is_stmt 1 view -0
 515              		.cfi_startproc
 516              		@ args = 0, pretend = 0, frame = 0
 517              		@ frame_needed = 0, uses_anonymous_args = 0
 518              		.loc 1 465 1 is_stmt 0 view .LVU147
ARM GAS  /var/folders/qx/2_175_4n2s19vhvtspjhb3qh0000gn/T//ccZZ70SA.s 			page 20


 519 0000 70B5     		push	{r4, r5, r6, lr}
 520              	.LCFI2:
 521              		.cfi_def_cfa_offset 16
 522              		.cfi_offset 4, -16
 523              		.cfi_offset 5, -12
 524              		.cfi_offset 6, -8
 525              		.cfi_offset 14, -4
 526 0002 0546     		mov	r5, r0
 466:Drivers/lvgl/src/widgets/calendar/lv_calendar.c ****     lv_calendar_t * calendar = (lv_calendar_t *)obj;
 527              		.loc 1 466 5 is_stmt 1 view .LVU148
 528              	.LVL57:
 467:Drivers/lvgl/src/widgets/calendar/lv_calendar.c ****     uint32_t i;
 529              		.loc 1 467 5 view .LVU149
 468:Drivers/lvgl/src/widgets/calendar/lv_calendar.c **** 
 469:Drivers/lvgl/src/widgets/calendar/lv_calendar.c ****     /*Clear all kind of selection*/
 470:Drivers/lvgl/src/widgets/calendar/lv_calendar.c ****     lv_buttonmatrix_clear_button_ctrl_all(calendar->btnm, LV_CALENDAR_CTRL_TODAY | LV_CALENDAR_CTRL
 530              		.loc 1 470 5 view .LVU150
 531 0004 4FF44041 		mov	r1, #49152
 532 0008 C06A     		ldr	r0, [r0, #44]
 533              	.LVL58:
 534              		.loc 1 470 5 is_stmt 0 view .LVU151
 535 000a FFF7FEFF 		bl	lv_buttonmatrix_clear_button_ctrl_all
 536              	.LVL59:
 471:Drivers/lvgl/src/widgets/calendar/lv_calendar.c **** 
 472:Drivers/lvgl/src/widgets/calendar/lv_calendar.c ****     uint8_t day_first = get_day_of_week(calendar->showed_date.year, calendar->showed_date.month, 1)
 537              		.loc 1 472 5 is_stmt 1 view .LVU152
 538              		.loc 1 472 25 is_stmt 0 view .LVU153
 539 000e 0122     		movs	r2, #1
 540 0010 95F83610 		ldrb	r1, [r5, #54]	@ zero_extendqisi2
 541 0014 A88E     		ldrh	r0, [r5, #52]
 542 0016 FFF7FEFF 		bl	get_day_of_week
 543              	.LVL60:
 544 001a 0646     		mov	r6, r0
 545              	.LVL61:
 473:Drivers/lvgl/src/widgets/calendar/lv_calendar.c ****     if(calendar->highlighted_dates) {
 546              		.loc 1 473 5 is_stmt 1 view .LVU154
 547              		.loc 1 473 16 is_stmt 0 view .LVU155
 548 001c AB6B     		ldr	r3, [r5, #56]
 549              		.loc 1 473 7 view .LVU156
 550 001e E3B1     		cbz	r3, .L37
 474:Drivers/lvgl/src/widgets/calendar/lv_calendar.c ****         for(i = 0; i < calendar->highlighted_dates_num; i++) {
 551              		.loc 1 474 15 view .LVU157
 552 0020 0024     		movs	r4, #0
 553 0022 00E0     		b	.L36
 554              	.LVL62:
 555              	.L38:
 556              		.loc 1 474 58 is_stmt 1 discriminator 2 view .LVU158
 557 0024 0134     		adds	r4, r4, #1
 558              	.LVL63:
 559              	.L36:
 560              		.loc 1 474 22 discriminator 1 view .LVU159
 561              		.loc 1 474 32 is_stmt 0 discriminator 1 view .LVU160
 562 0026 EB6B     		ldr	r3, [r5, #60]
 563              		.loc 1 474 22 discriminator 1 view .LVU161
 564 0028 A342     		cmp	r3, r4
 565 002a 16D9     		bls	.L37
 475:Drivers/lvgl/src/widgets/calendar/lv_calendar.c ****             if(calendar->highlighted_dates[i].year == calendar->showed_date.year &&
ARM GAS  /var/folders/qx/2_175_4n2s19vhvtspjhb3qh0000gn/T//ccZZ70SA.s 			page 21


 566              		.loc 1 475 13 is_stmt 1 view .LVU162
 567              		.loc 1 475 24 is_stmt 0 view .LVU163
 568 002c AB6B     		ldr	r3, [r5, #56]
 569              		.loc 1 475 43 view .LVU164
 570 002e 03EB8401 		add	r1, r3, r4, lsl #2
 571              		.loc 1 475 46 view .LVU165
 572 0032 33F82420 		ldrh	r2, [r3, r4, lsl #2]
 573              		.loc 1 475 76 view .LVU166
 574 0036 AB8E     		ldrh	r3, [r5, #52]
 575              		.loc 1 475 15 view .LVU167
 576 0038 9A42     		cmp	r2, r3
 577 003a F3D1     		bne	.L38
 476:Drivers/lvgl/src/widgets/calendar/lv_calendar.c ****                calendar->highlighted_dates[i].month == calendar->showed_date.month) {
 578              		.loc 1 476 46 view .LVU168
 579 003c 8A78     		ldrb	r2, [r1, #2]	@ zero_extendqisi2
 580              		.loc 1 476 77 view .LVU169
 581 003e 95F83630 		ldrb	r3, [r5, #54]	@ zero_extendqisi2
 475:Drivers/lvgl/src/widgets/calendar/lv_calendar.c ****             if(calendar->highlighted_dates[i].year == calendar->showed_date.year &&
 582              		.loc 1 475 82 discriminator 1 view .LVU170
 583 0042 9A42     		cmp	r2, r3
 584 0044 EED1     		bne	.L38
 477:Drivers/lvgl/src/widgets/calendar/lv_calendar.c ****                 lv_buttonmatrix_set_button_ctrl(calendar->btnm, calendar->highlighted_dates[i].day 
 585              		.loc 1 477 17 is_stmt 1 view .LVU171
 586              		.loc 1 477 95 is_stmt 0 view .LVU172
 587 0046 C978     		ldrb	r1, [r1, #3]	@ zero_extendqisi2
 588              		.loc 1 477 100 view .LVU173
 589 0048 0139     		subs	r1, r1, #1
 590              		.loc 1 477 104 view .LVU174
 591 004a 3144     		add	r1, r1, r6
 592              		.loc 1 477 17 view .LVU175
 593 004c 4FF40042 		mov	r2, #32768
 594 0050 0731     		adds	r1, r1, #7
 595 0052 E86A     		ldr	r0, [r5, #44]
 596 0054 FFF7FEFF 		bl	lv_buttonmatrix_set_button_ctrl
 597              	.LVL64:
 598 0058 E4E7     		b	.L38
 599              	.LVL65:
 600              	.L37:
 478:Drivers/lvgl/src/widgets/calendar/lv_calendar.c ****                                                 LV_CALENDAR_CTRL_HIGHLIGHT);
 479:Drivers/lvgl/src/widgets/calendar/lv_calendar.c ****             }
 480:Drivers/lvgl/src/widgets/calendar/lv_calendar.c ****         }
 481:Drivers/lvgl/src/widgets/calendar/lv_calendar.c ****     }
 482:Drivers/lvgl/src/widgets/calendar/lv_calendar.c **** 
 483:Drivers/lvgl/src/widgets/calendar/lv_calendar.c ****     if(calendar->showed_date.year == calendar->today.year && calendar->showed_date.month == calenda
 601              		.loc 1 483 5 is_stmt 1 view .LVU176
 602              		.loc 1 483 59 is_stmt 0 view .LVU177
 603 005a 6B6B     		ldr	r3, [r5, #52]
 604 005c 2A6B     		ldr	r2, [r5, #48]
 605              		.loc 1 483 7 view .LVU178
 606 005e 5340     		eors	r3, r3, r2
 607 0060 33F07F43 		bics	r3, r3, #-16777216
 608 0064 00D0     		beq	.L43
 609              	.L35:
 484:Drivers/lvgl/src/widgets/calendar/lv_calendar.c ****         lv_buttonmatrix_set_button_ctrl(calendar->btnm, calendar->today.day - 1 + day_first + 7, LV
 485:Drivers/lvgl/src/widgets/calendar/lv_calendar.c ****     }
 486:Drivers/lvgl/src/widgets/calendar/lv_calendar.c **** }
 610              		.loc 1 486 1 view .LVU179
ARM GAS  /var/folders/qx/2_175_4n2s19vhvtspjhb3qh0000gn/T//ccZZ70SA.s 			page 22


 611 0066 70BD     		pop	{r4, r5, r6, pc}
 612              	.LVL66:
 613              	.L43:
 484:Drivers/lvgl/src/widgets/calendar/lv_calendar.c ****         lv_buttonmatrix_set_button_ctrl(calendar->btnm, calendar->today.day - 1 + day_first + 7, LV
 614              		.loc 1 484 9 is_stmt 1 view .LVU180
 484:Drivers/lvgl/src/widgets/calendar/lv_calendar.c ****         lv_buttonmatrix_set_button_ctrl(calendar->btnm, calendar->today.day - 1 + day_first + 7, LV
 615              		.loc 1 484 72 is_stmt 0 view .LVU181
 616 0068 95F83330 		ldrb	r3, [r5, #51]	@ zero_extendqisi2
 484:Drivers/lvgl/src/widgets/calendar/lv_calendar.c ****         lv_buttonmatrix_set_button_ctrl(calendar->btnm, calendar->today.day - 1 + day_first + 7, LV
 617              		.loc 1 484 77 view .LVU182
 618 006c 013B     		subs	r3, r3, #1
 484:Drivers/lvgl/src/widgets/calendar/lv_calendar.c ****         lv_buttonmatrix_set_button_ctrl(calendar->btnm, calendar->today.day - 1 + day_first + 7, LV
 619              		.loc 1 484 81 view .LVU183
 620 006e F118     		adds	r1, r6, r3
 484:Drivers/lvgl/src/widgets/calendar/lv_calendar.c ****         lv_buttonmatrix_set_button_ctrl(calendar->btnm, calendar->today.day - 1 + day_first + 7, LV
 621              		.loc 1 484 9 view .LVU184
 622 0070 4FF48042 		mov	r2, #16384
 623 0074 0731     		adds	r1, r1, #7
 624 0076 E86A     		ldr	r0, [r5, #44]
 625 0078 FFF7FEFF 		bl	lv_buttonmatrix_set_button_ctrl
 626              	.LVL67:
 627              		.loc 1 486 1 view .LVU185
 628 007c F3E7     		b	.L35
 629              		.cfi_endproc
 630              	.LFE223:
 632              		.section	.text.lv_calendar_create,"ax",%progbits
 633              		.align	1
 634              		.global	lv_calendar_create
 635              		.syntax unified
 636              		.thumb
 637              		.thumb_func
 639              	lv_calendar_create:
 640              	.LVL68:
 641              	.LFB202:
  72:Drivers/lvgl/src/widgets/calendar/lv_calendar.c ****     LV_LOG_INFO("begin");
 642              		.loc 1 72 1 is_stmt 1 view -0
 643              		.cfi_startproc
 644              		@ args = 0, pretend = 0, frame = 0
 645              		@ frame_needed = 0, uses_anonymous_args = 0
  72:Drivers/lvgl/src/widgets/calendar/lv_calendar.c ****     LV_LOG_INFO("begin");
 646              		.loc 1 72 1 is_stmt 0 view .LVU187
 647 0000 10B5     		push	{r4, lr}
 648              	.LCFI3:
 649              		.cfi_def_cfa_offset 8
 650              		.cfi_offset 4, -8
 651              		.cfi_offset 14, -4
 652 0002 0146     		mov	r1, r0
  73:Drivers/lvgl/src/widgets/calendar/lv_calendar.c ****     lv_obj_t * obj = lv_obj_class_create_obj(&lv_calendar_class, parent);
 653              		.loc 1 73 5 is_stmt 1 view .LVU188
  73:Drivers/lvgl/src/widgets/calendar/lv_calendar.c ****     lv_obj_t * obj = lv_obj_class_create_obj(&lv_calendar_class, parent);
 654              		.loc 1 73 5 view .LVU189
  73:Drivers/lvgl/src/widgets/calendar/lv_calendar.c ****     lv_obj_t * obj = lv_obj_class_create_obj(&lv_calendar_class, parent);
 655              		.loc 1 73 5 view .LVU190
  74:Drivers/lvgl/src/widgets/calendar/lv_calendar.c ****     lv_obj_class_init_obj(obj);
 656              		.loc 1 74 5 view .LVU191
  74:Drivers/lvgl/src/widgets/calendar/lv_calendar.c ****     lv_obj_class_init_obj(obj);
 657              		.loc 1 74 22 is_stmt 0 view .LVU192
ARM GAS  /var/folders/qx/2_175_4n2s19vhvtspjhb3qh0000gn/T//ccZZ70SA.s 			page 23


 658 0004 0348     		ldr	r0, .L46
 659              	.LVL69:
  74:Drivers/lvgl/src/widgets/calendar/lv_calendar.c ****     lv_obj_class_init_obj(obj);
 660              		.loc 1 74 22 view .LVU193
 661 0006 FFF7FEFF 		bl	lv_obj_class_create_obj
 662              	.LVL70:
  74:Drivers/lvgl/src/widgets/calendar/lv_calendar.c ****     lv_obj_class_init_obj(obj);
 663              		.loc 1 74 22 view .LVU194
 664 000a 0446     		mov	r4, r0
 665              	.LVL71:
  75:Drivers/lvgl/src/widgets/calendar/lv_calendar.c ****     return obj;
 666              		.loc 1 75 5 is_stmt 1 view .LVU195
 667 000c FFF7FEFF 		bl	lv_obj_class_init_obj
 668              	.LVL72:
  76:Drivers/lvgl/src/widgets/calendar/lv_calendar.c **** }
 669              		.loc 1 76 5 view .LVU196
  77:Drivers/lvgl/src/widgets/calendar/lv_calendar.c **** 
 670              		.loc 1 77 1 is_stmt 0 view .LVU197
 671 0010 2046     		mov	r0, r4
 672 0012 10BD     		pop	{r4, pc}
 673              	.LVL73:
 674              	.L47:
  77:Drivers/lvgl/src/widgets/calendar/lv_calendar.c **** 
 675              		.loc 1 77 1 view .LVU198
 676              		.align	2
 677              	.L46:
 678 0014 00000000 		.word	lv_calendar_class
 679              		.cfi_endproc
 680              	.LFE202:
 682              		.section	.text.lv_calendar_set_day_names,"ax",%progbits
 683              		.align	1
 684              		.global	lv_calendar_set_day_names
 685              		.syntax unified
 686              		.thumb
 687              		.thumb_func
 689              	lv_calendar_set_day_names:
 690              	.LVL74:
 691              	.LFB203:
  84:Drivers/lvgl/src/widgets/calendar/lv_calendar.c ****     LV_ASSERT_OBJ(obj, MY_CLASS);
 692              		.loc 1 84 1 is_stmt 1 view -0
 693              		.cfi_startproc
 694              		@ args = 0, pretend = 0, frame = 0
 695              		@ frame_needed = 0, uses_anonymous_args = 0
  85:Drivers/lvgl/src/widgets/calendar/lv_calendar.c ****     lv_calendar_t * calendar = (lv_calendar_t *)obj;
 696              		.loc 1 85 5 view .LVU200
  85:Drivers/lvgl/src/widgets/calendar/lv_calendar.c ****     lv_calendar_t * calendar = (lv_calendar_t *)obj;
 697              		.loc 1 85 5 view .LVU201
 698 0000 18B1     		cbz	r0, .L50
  84:Drivers/lvgl/src/widgets/calendar/lv_calendar.c ****     LV_ASSERT_OBJ(obj, MY_CLASS);
 699              		.loc 1 84 1 is_stmt 0 view .LVU202
 700 0002 08B5     		push	{r3, lr}
 701              	.LCFI4:
 702              		.cfi_def_cfa_offset 8
 703              		.cfi_offset 3, -8
 704              		.cfi_offset 14, -4
 705 0004 8446     		mov	ip, r0
  89:Drivers/lvgl/src/widgets/calendar/lv_calendar.c ****         calendar->map[i] = day_names[i];
ARM GAS  /var/folders/qx/2_175_4n2s19vhvtspjhb3qh0000gn/T//ccZZ70SA.s 			page 24


 706              		.loc 1 89 11 view .LVU203
 707 0006 0023     		movs	r3, #0
 708 0008 07E0     		b	.L49
 709              	.L50:
 710              	.LCFI5:
 711              		.cfi_def_cfa_offset 0
 712              		.cfi_restore 3
 713              		.cfi_restore 14
  85:Drivers/lvgl/src/widgets/calendar/lv_calendar.c ****     lv_calendar_t * calendar = (lv_calendar_t *)obj;
 714              		.loc 1 85 5 is_stmt 1 view .LVU204
  85:Drivers/lvgl/src/widgets/calendar/lv_calendar.c ****     lv_calendar_t * calendar = (lv_calendar_t *)obj;
 715              		.loc 1 85 5 view .LVU205
  85:Drivers/lvgl/src/widgets/calendar/lv_calendar.c ****     lv_calendar_t * calendar = (lv_calendar_t *)obj;
 716              		.loc 1 85 5 view .LVU206
  85:Drivers/lvgl/src/widgets/calendar/lv_calendar.c ****     lv_calendar_t * calendar = (lv_calendar_t *)obj;
 717              		.loc 1 85 5 view .LVU207
  85:Drivers/lvgl/src/widgets/calendar/lv_calendar.c ****     lv_calendar_t * calendar = (lv_calendar_t *)obj;
 718              		.loc 1 85 5 view .LVU208
 719 000a FEE7     		b	.L50
 720              	.LVL75:
 721              	.L51:
 722              	.LCFI6:
 723              		.cfi_def_cfa_offset 8
 724              		.cfi_offset 3, -8
 725              		.cfi_offset 14, -4
  90:Drivers/lvgl/src/widgets/calendar/lv_calendar.c ****     }
 726              		.loc 1 90 9 view .LVU209
  90:Drivers/lvgl/src/widgets/calendar/lv_calendar.c ****     }
 727              		.loc 1 90 26 is_stmt 0 view .LVU210
 728 000c 03F11002 		add	r2, r3, #16
 729 0010 51F82300 		ldr	r0, [r1, r3, lsl #2]
 730 0014 4CF82200 		str	r0, [ip, r2, lsl #2]
  89:Drivers/lvgl/src/widgets/calendar/lv_calendar.c ****         calendar->map[i] = day_names[i];
 731              		.loc 1 89 24 is_stmt 1 discriminator 3 view .LVU211
 732 0018 0133     		adds	r3, r3, #1
 733              	.LVL76:
 734              	.L49:
  89:Drivers/lvgl/src/widgets/calendar/lv_calendar.c ****         calendar->map[i] = day_names[i];
 735              		.loc 1 89 18 discriminator 1 view .LVU212
 736 001a 062B     		cmp	r3, #6
 737 001c F6D9     		bls	.L51
  92:Drivers/lvgl/src/widgets/calendar/lv_calendar.c **** }
 738              		.loc 1 92 5 view .LVU213
 739 001e 6046     		mov	r0, ip
 740 0020 FFF7FEFF 		bl	lv_obj_invalidate
 741              	.LVL77:
  93:Drivers/lvgl/src/widgets/calendar/lv_calendar.c **** 
 742              		.loc 1 93 1 is_stmt 0 view .LVU214
 743 0024 08BD     		pop	{r3, pc}
 744              		.cfi_endproc
 745              	.LFE203:
 747              		.section	.text.lv_calendar_set_today_date,"ax",%progbits
 748              		.align	1
 749              		.global	lv_calendar_set_today_date
 750              		.syntax unified
 751              		.thumb
 752              		.thumb_func
ARM GAS  /var/folders/qx/2_175_4n2s19vhvtspjhb3qh0000gn/T//ccZZ70SA.s 			page 25


 754              	lv_calendar_set_today_date:
 755              	.LVL78:
 756              	.LFB204:
  96:Drivers/lvgl/src/widgets/calendar/lv_calendar.c ****     LV_ASSERT_OBJ(obj, MY_CLASS);
 757              		.loc 1 96 1 is_stmt 1 view -0
 758              		.cfi_startproc
 759              		@ args = 0, pretend = 0, frame = 0
 760              		@ frame_needed = 0, uses_anonymous_args = 0
  97:Drivers/lvgl/src/widgets/calendar/lv_calendar.c ****     lv_calendar_t * calendar = (lv_calendar_t *)obj;
 761              		.loc 1 97 5 view .LVU216
  97:Drivers/lvgl/src/widgets/calendar/lv_calendar.c ****     lv_calendar_t * calendar = (lv_calendar_t *)obj;
 762              		.loc 1 97 5 view .LVU217
 763 0000 90B1     		cbz	r0, .L57
 764 0002 8446     		mov	ip, r0
  97:Drivers/lvgl/src/widgets/calendar/lv_calendar.c ****     lv_calendar_t * calendar = (lv_calendar_t *)obj;
 765              		.loc 1 97 5 view .LVU218
  97:Drivers/lvgl/src/widgets/calendar/lv_calendar.c ****     lv_calendar_t * calendar = (lv_calendar_t *)obj;
 766              		.loc 1 97 33 view .LVU219
  98:Drivers/lvgl/src/widgets/calendar/lv_calendar.c **** 
 767              		.loc 1 98 5 view .LVU220
 768              	.LVL79:
 100:Drivers/lvgl/src/widgets/calendar/lv_calendar.c ****        && calendar->today.day == day) return;
 769              		.loc 1 100 5 view .LVU221
 100:Drivers/lvgl/src/widgets/calendar/lv_calendar.c ****        && calendar->today.day == day) return;
 770              		.loc 1 100 23 is_stmt 0 view .LVU222
 771 0004 008E     		ldrh	r0, [r0, #48]
 772              	.LVL80:
 100:Drivers/lvgl/src/widgets/calendar/lv_calendar.c ****        && calendar->today.day == day) return;
 773              		.loc 1 100 7 view .LVU223
 774 0006 8842     		cmp	r0, r1
 775 0008 03D1     		bne	.L58
 100:Drivers/lvgl/src/widgets/calendar/lv_calendar.c ****        && calendar->today.day == day) return;
 776              		.loc 1 100 55 discriminator 1 view .LVU224
 777 000a 9CF83200 		ldrb	r0, [ip, #50]	@ zero_extendqisi2
 100:Drivers/lvgl/src/widgets/calendar/lv_calendar.c ****        && calendar->today.day == day) return;
 778              		.loc 1 100 37 discriminator 1 view .LVU225
 779 000e 9042     		cmp	r0, r2
 780 0010 0BD0     		beq	.L63
 781              	.L58:
  96:Drivers/lvgl/src/widgets/calendar/lv_calendar.c ****     LV_ASSERT_OBJ(obj, MY_CLASS);
 782              		.loc 1 96 1 view .LVU226
 783 0012 08B5     		push	{r3, lr}
 784              	.LCFI7:
 785              		.cfi_def_cfa_offset 8
 786              		.cfi_offset 3, -8
 787              		.cfi_offset 14, -4
 103:Drivers/lvgl/src/widgets/calendar/lv_calendar.c ****     calendar->today.month        = month;
 788              		.loc 1 103 5 is_stmt 1 view .LVU227
 103:Drivers/lvgl/src/widgets/calendar/lv_calendar.c ****     calendar->today.month        = month;
 789              		.loc 1 103 34 is_stmt 0 view .LVU228
 790 0014 ACF83010 		strh	r1, [ip, #48]	@ movhi
 104:Drivers/lvgl/src/widgets/calendar/lv_calendar.c ****     calendar->today.day          = day;
 791              		.loc 1 104 5 is_stmt 1 view .LVU229
 104:Drivers/lvgl/src/widgets/calendar/lv_calendar.c ****     calendar->today.day          = day;
 792              		.loc 1 104 34 is_stmt 0 view .LVU230
 793 0018 8CF83220 		strb	r2, [ip, #50]
 105:Drivers/lvgl/src/widgets/calendar/lv_calendar.c **** 
ARM GAS  /var/folders/qx/2_175_4n2s19vhvtspjhb3qh0000gn/T//ccZZ70SA.s 			page 26


 794              		.loc 1 105 5 is_stmt 1 view .LVU231
 105:Drivers/lvgl/src/widgets/calendar/lv_calendar.c **** 
 795              		.loc 1 105 34 is_stmt 0 view .LVU232
 796 001c 8CF83330 		strb	r3, [ip, #51]
 107:Drivers/lvgl/src/widgets/calendar/lv_calendar.c **** }
 797              		.loc 1 107 5 is_stmt 1 view .LVU233
 798 0020 6046     		mov	r0, ip
 799 0022 FFF7FEFF 		bl	highlight_update
 800              	.LVL81:
 108:Drivers/lvgl/src/widgets/calendar/lv_calendar.c **** 
 801              		.loc 1 108 1 is_stmt 0 view .LVU234
 802 0026 08BD     		pop	{r3, pc}
 803              	.LVL82:
 804              	.L57:
 805              	.LCFI8:
 806              		.cfi_def_cfa_offset 0
 807              		.cfi_restore 3
 808              		.cfi_restore 14
  97:Drivers/lvgl/src/widgets/calendar/lv_calendar.c ****     lv_calendar_t * calendar = (lv_calendar_t *)obj;
 809              		.loc 1 97 5 is_stmt 1 view .LVU235
  97:Drivers/lvgl/src/widgets/calendar/lv_calendar.c ****     lv_calendar_t * calendar = (lv_calendar_t *)obj;
 810              		.loc 1 97 5 view .LVU236
  97:Drivers/lvgl/src/widgets/calendar/lv_calendar.c ****     lv_calendar_t * calendar = (lv_calendar_t *)obj;
 811              		.loc 1 97 5 view .LVU237
  97:Drivers/lvgl/src/widgets/calendar/lv_calendar.c ****     lv_calendar_t * calendar = (lv_calendar_t *)obj;
 812              		.loc 1 97 5 view .LVU238
  97:Drivers/lvgl/src/widgets/calendar/lv_calendar.c ****     lv_calendar_t * calendar = (lv_calendar_t *)obj;
 813              		.loc 1 97 5 view .LVU239
 814 0028 FEE7     		b	.L57
 815              	.LVL83:
 816              	.L63:
 101:Drivers/lvgl/src/widgets/calendar/lv_calendar.c **** 
 817              		.loc 1 101 26 is_stmt 0 view .LVU240
 818 002a 9CF83300 		ldrb	r0, [ip, #51]	@ zero_extendqisi2
 101:Drivers/lvgl/src/widgets/calendar/lv_calendar.c **** 
 819              		.loc 1 101 8 view .LVU241
 820 002e 9842     		cmp	r0, r3
 821 0030 EFD1     		bne	.L58
 822 0032 7047     		bx	lr
 823              		.cfi_endproc
 824              	.LFE204:
 826              		.section	.text.lv_calendar_set_today_year,"ax",%progbits
 827              		.align	1
 828              		.global	lv_calendar_set_today_year
 829              		.syntax unified
 830              		.thumb
 831              		.thumb_func
 833              	lv_calendar_set_today_year:
 834              	.LVL84:
 835              	.LFB205:
 111:Drivers/lvgl/src/widgets/calendar/lv_calendar.c ****     LV_ASSERT_OBJ(obj, MY_CLASS);
 836              		.loc 1 111 1 is_stmt 1 view -0
 837              		.cfi_startproc
 838              		@ args = 0, pretend = 0, frame = 0
 839              		@ frame_needed = 0, uses_anonymous_args = 0
 112:Drivers/lvgl/src/widgets/calendar/lv_calendar.c ****     lv_calendar_t * calendar = (lv_calendar_t *)obj;
 840              		.loc 1 112 5 view .LVU243
ARM GAS  /var/folders/qx/2_175_4n2s19vhvtspjhb3qh0000gn/T//ccZZ70SA.s 			page 27


 112:Drivers/lvgl/src/widgets/calendar/lv_calendar.c ****     lv_calendar_t * calendar = (lv_calendar_t *)obj;
 841              		.loc 1 112 5 view .LVU244
 842 0000 38B1     		cbz	r0, .L66
 111:Drivers/lvgl/src/widgets/calendar/lv_calendar.c ****     LV_ASSERT_OBJ(obj, MY_CLASS);
 843              		.loc 1 111 1 is_stmt 0 view .LVU245
 844 0002 08B5     		push	{r3, lr}
 845              	.LCFI9:
 846              		.cfi_def_cfa_offset 8
 847              		.cfi_offset 3, -8
 848              		.cfi_offset 14, -4
 112:Drivers/lvgl/src/widgets/calendar/lv_calendar.c ****     lv_calendar_t * calendar = (lv_calendar_t *)obj;
 849              		.loc 1 112 5 is_stmt 1 view .LVU246
 112:Drivers/lvgl/src/widgets/calendar/lv_calendar.c ****     lv_calendar_t * calendar = (lv_calendar_t *)obj;
 850              		.loc 1 112 33 view .LVU247
 113:Drivers/lvgl/src/widgets/calendar/lv_calendar.c ****     lv_calendar_set_today_date(obj, year, calendar->today.month, calendar->today.day);
 851              		.loc 1 113 5 view .LVU248
 852              	.LVL85:
 114:Drivers/lvgl/src/widgets/calendar/lv_calendar.c **** 
 853              		.loc 1 114 5 view .LVU249
 854 0004 90F83330 		ldrb	r3, [r0, #51]	@ zero_extendqisi2
 855 0008 90F83220 		ldrb	r2, [r0, #50]	@ zero_extendqisi2
 856 000c FFF7FEFF 		bl	lv_calendar_set_today_date
 857              	.LVL86:
 116:Drivers/lvgl/src/widgets/calendar/lv_calendar.c **** 
 858              		.loc 1 116 1 is_stmt 0 view .LVU250
 859 0010 08BD     		pop	{r3, pc}
 860              	.LVL87:
 861              	.L66:
 862              	.LCFI10:
 863              		.cfi_def_cfa_offset 0
 864              		.cfi_restore 3
 865              		.cfi_restore 14
 112:Drivers/lvgl/src/widgets/calendar/lv_calendar.c ****     lv_calendar_t * calendar = (lv_calendar_t *)obj;
 866              		.loc 1 112 5 is_stmt 1 view .LVU251
 112:Drivers/lvgl/src/widgets/calendar/lv_calendar.c ****     lv_calendar_t * calendar = (lv_calendar_t *)obj;
 867              		.loc 1 112 5 view .LVU252
 112:Drivers/lvgl/src/widgets/calendar/lv_calendar.c ****     lv_calendar_t * calendar = (lv_calendar_t *)obj;
 868              		.loc 1 112 5 view .LVU253
 112:Drivers/lvgl/src/widgets/calendar/lv_calendar.c ****     lv_calendar_t * calendar = (lv_calendar_t *)obj;
 869              		.loc 1 112 5 view .LVU254
 112:Drivers/lvgl/src/widgets/calendar/lv_calendar.c ****     lv_calendar_t * calendar = (lv_calendar_t *)obj;
 870              		.loc 1 112 5 view .LVU255
 871 0012 FEE7     		b	.L66
 872              		.cfi_endproc
 873              	.LFE205:
 875              		.section	.text.lv_calendar_set_today_month,"ax",%progbits
 876              		.align	1
 877              		.global	lv_calendar_set_today_month
 878              		.syntax unified
 879              		.thumb
 880              		.thumb_func
 882              	lv_calendar_set_today_month:
 883              	.LVL88:
 884              	.LFB206:
 119:Drivers/lvgl/src/widgets/calendar/lv_calendar.c ****     LV_ASSERT_OBJ(obj, MY_CLASS);
 885              		.loc 1 119 1 view -0
 886              		.cfi_startproc
ARM GAS  /var/folders/qx/2_175_4n2s19vhvtspjhb3qh0000gn/T//ccZZ70SA.s 			page 28


 887              		@ args = 0, pretend = 0, frame = 0
 888              		@ frame_needed = 0, uses_anonymous_args = 0
 120:Drivers/lvgl/src/widgets/calendar/lv_calendar.c ****     lv_calendar_t * calendar = (lv_calendar_t *)obj;
 889              		.loc 1 120 5 view .LVU257
 120:Drivers/lvgl/src/widgets/calendar/lv_calendar.c ****     lv_calendar_t * calendar = (lv_calendar_t *)obj;
 890              		.loc 1 120 5 view .LVU258
 891 0000 38B1     		cbz	r0, .L71
 119:Drivers/lvgl/src/widgets/calendar/lv_calendar.c ****     LV_ASSERT_OBJ(obj, MY_CLASS);
 892              		.loc 1 119 1 is_stmt 0 view .LVU259
 893 0002 08B5     		push	{r3, lr}
 894              	.LCFI11:
 895              		.cfi_def_cfa_offset 8
 896              		.cfi_offset 3, -8
 897              		.cfi_offset 14, -4
 898 0004 0A46     		mov	r2, r1
 120:Drivers/lvgl/src/widgets/calendar/lv_calendar.c ****     lv_calendar_t * calendar = (lv_calendar_t *)obj;
 899              		.loc 1 120 5 is_stmt 1 view .LVU260
 120:Drivers/lvgl/src/widgets/calendar/lv_calendar.c ****     lv_calendar_t * calendar = (lv_calendar_t *)obj;
 900              		.loc 1 120 33 view .LVU261
 121:Drivers/lvgl/src/widgets/calendar/lv_calendar.c ****     lv_calendar_set_today_date(obj, calendar->today.year, month, calendar->today.day);
 901              		.loc 1 121 5 view .LVU262
 902              	.LVL89:
 122:Drivers/lvgl/src/widgets/calendar/lv_calendar.c **** }
 903              		.loc 1 122 5 view .LVU263
 904 0006 90F83330 		ldrb	r3, [r0, #51]	@ zero_extendqisi2
 905 000a 018E     		ldrh	r1, [r0, #48]
 906              	.LVL90:
 122:Drivers/lvgl/src/widgets/calendar/lv_calendar.c **** }
 907              		.loc 1 122 5 is_stmt 0 view .LVU264
 908 000c FFF7FEFF 		bl	lv_calendar_set_today_date
 909              	.LVL91:
 123:Drivers/lvgl/src/widgets/calendar/lv_calendar.c **** 
 910              		.loc 1 123 1 view .LVU265
 911 0010 08BD     		pop	{r3, pc}
 912              	.LVL92:
 913              	.L71:
 914              	.LCFI12:
 915              		.cfi_def_cfa_offset 0
 916              		.cfi_restore 3
 917              		.cfi_restore 14
 120:Drivers/lvgl/src/widgets/calendar/lv_calendar.c ****     lv_calendar_t * calendar = (lv_calendar_t *)obj;
 918              		.loc 1 120 5 is_stmt 1 view .LVU266
 120:Drivers/lvgl/src/widgets/calendar/lv_calendar.c ****     lv_calendar_t * calendar = (lv_calendar_t *)obj;
 919              		.loc 1 120 5 view .LVU267
 120:Drivers/lvgl/src/widgets/calendar/lv_calendar.c ****     lv_calendar_t * calendar = (lv_calendar_t *)obj;
 920              		.loc 1 120 5 view .LVU268
 120:Drivers/lvgl/src/widgets/calendar/lv_calendar.c ****     lv_calendar_t * calendar = (lv_calendar_t *)obj;
 921              		.loc 1 120 5 view .LVU269
 120:Drivers/lvgl/src/widgets/calendar/lv_calendar.c ****     lv_calendar_t * calendar = (lv_calendar_t *)obj;
 922              		.loc 1 120 5 view .LVU270
 923 0012 FEE7     		b	.L71
 924              		.cfi_endproc
 925              	.LFE206:
 927              		.section	.text.lv_calendar_set_today_day,"ax",%progbits
 928              		.align	1
 929              		.global	lv_calendar_set_today_day
 930              		.syntax unified
ARM GAS  /var/folders/qx/2_175_4n2s19vhvtspjhb3qh0000gn/T//ccZZ70SA.s 			page 29


 931              		.thumb
 932              		.thumb_func
 934              	lv_calendar_set_today_day:
 935              	.LVL93:
 936              	.LFB207:
 126:Drivers/lvgl/src/widgets/calendar/lv_calendar.c ****     LV_ASSERT_OBJ(obj, MY_CLASS);
 937              		.loc 1 126 1 view -0
 938              		.cfi_startproc
 939              		@ args = 0, pretend = 0, frame = 0
 940              		@ frame_needed = 0, uses_anonymous_args = 0
 127:Drivers/lvgl/src/widgets/calendar/lv_calendar.c ****     lv_calendar_t * calendar = (lv_calendar_t *)obj;
 941              		.loc 1 127 5 view .LVU272
 127:Drivers/lvgl/src/widgets/calendar/lv_calendar.c ****     lv_calendar_t * calendar = (lv_calendar_t *)obj;
 942              		.loc 1 127 5 view .LVU273
 943 0000 38B1     		cbz	r0, .L76
 126:Drivers/lvgl/src/widgets/calendar/lv_calendar.c ****     LV_ASSERT_OBJ(obj, MY_CLASS);
 944              		.loc 1 126 1 is_stmt 0 view .LVU274
 945 0002 08B5     		push	{r3, lr}
 946              	.LCFI13:
 947              		.cfi_def_cfa_offset 8
 948              		.cfi_offset 3, -8
 949              		.cfi_offset 14, -4
 950 0004 0B46     		mov	r3, r1
 127:Drivers/lvgl/src/widgets/calendar/lv_calendar.c ****     lv_calendar_t * calendar = (lv_calendar_t *)obj;
 951              		.loc 1 127 5 is_stmt 1 view .LVU275
 127:Drivers/lvgl/src/widgets/calendar/lv_calendar.c ****     lv_calendar_t * calendar = (lv_calendar_t *)obj;
 952              		.loc 1 127 33 view .LVU276
 128:Drivers/lvgl/src/widgets/calendar/lv_calendar.c ****     lv_calendar_set_today_date(obj, calendar->today.year, calendar->today.month, day);
 953              		.loc 1 128 5 view .LVU277
 954              	.LVL94:
 129:Drivers/lvgl/src/widgets/calendar/lv_calendar.c **** }
 955              		.loc 1 129 5 view .LVU278
 956 0006 90F83220 		ldrb	r2, [r0, #50]	@ zero_extendqisi2
 957 000a 018E     		ldrh	r1, [r0, #48]
 958              	.LVL95:
 129:Drivers/lvgl/src/widgets/calendar/lv_calendar.c **** }
 959              		.loc 1 129 5 is_stmt 0 view .LVU279
 960 000c FFF7FEFF 		bl	lv_calendar_set_today_date
 961              	.LVL96:
 130:Drivers/lvgl/src/widgets/calendar/lv_calendar.c **** 
 962              		.loc 1 130 1 view .LVU280
 963 0010 08BD     		pop	{r3, pc}
 964              	.LVL97:
 965              	.L76:
 966              	.LCFI14:
 967              		.cfi_def_cfa_offset 0
 968              		.cfi_restore 3
 969              		.cfi_restore 14
 127:Drivers/lvgl/src/widgets/calendar/lv_calendar.c ****     lv_calendar_t * calendar = (lv_calendar_t *)obj;
 970              		.loc 1 127 5 is_stmt 1 view .LVU281
 127:Drivers/lvgl/src/widgets/calendar/lv_calendar.c ****     lv_calendar_t * calendar = (lv_calendar_t *)obj;
 971              		.loc 1 127 5 view .LVU282
 127:Drivers/lvgl/src/widgets/calendar/lv_calendar.c ****     lv_calendar_t * calendar = (lv_calendar_t *)obj;
 972              		.loc 1 127 5 view .LVU283
 127:Drivers/lvgl/src/widgets/calendar/lv_calendar.c ****     lv_calendar_t * calendar = (lv_calendar_t *)obj;
 973              		.loc 1 127 5 view .LVU284
 127:Drivers/lvgl/src/widgets/calendar/lv_calendar.c ****     lv_calendar_t * calendar = (lv_calendar_t *)obj;
ARM GAS  /var/folders/qx/2_175_4n2s19vhvtspjhb3qh0000gn/T//ccZZ70SA.s 			page 30


 974              		.loc 1 127 5 view .LVU285
 975 0012 FEE7     		b	.L76
 976              		.cfi_endproc
 977              	.LFE207:
 979              		.section	.text.lv_calendar_set_highlighted_dates,"ax",%progbits
 980              		.align	1
 981              		.global	lv_calendar_set_highlighted_dates
 982              		.syntax unified
 983              		.thumb
 984              		.thumb_func
 986              	lv_calendar_set_highlighted_dates:
 987              	.LVL98:
 988              	.LFB208:
 133:Drivers/lvgl/src/widgets/calendar/lv_calendar.c ****     LV_ASSERT_NULL(highlighted);
 989              		.loc 1 133 1 view -0
 990              		.cfi_startproc
 991              		@ args = 0, pretend = 0, frame = 0
 992              		@ frame_needed = 0, uses_anonymous_args = 0
 134:Drivers/lvgl/src/widgets/calendar/lv_calendar.c **** 
 993              		.loc 1 134 5 view .LVU287
 134:Drivers/lvgl/src/widgets/calendar/lv_calendar.c **** 
 994              		.loc 1 134 5 view .LVU288
 995 0000 31B1     		cbz	r1, .L81
 133:Drivers/lvgl/src/widgets/calendar/lv_calendar.c ****     LV_ASSERT_NULL(highlighted);
 996              		.loc 1 133 1 is_stmt 0 view .LVU289
 997 0002 08B5     		push	{r3, lr}
 998              	.LCFI15:
 999              		.cfi_def_cfa_offset 8
 1000              		.cfi_offset 3, -8
 1001              		.cfi_offset 14, -4
 134:Drivers/lvgl/src/widgets/calendar/lv_calendar.c **** 
 1002              		.loc 1 134 5 is_stmt 1 view .LVU290
 134:Drivers/lvgl/src/widgets/calendar/lv_calendar.c **** 
 1003              		.loc 1 134 32 view .LVU291
 136:Drivers/lvgl/src/widgets/calendar/lv_calendar.c ****     lv_calendar_t * calendar = (lv_calendar_t *)obj;
 1004              		.loc 1 136 5 view .LVU292
 136:Drivers/lvgl/src/widgets/calendar/lv_calendar.c ****     lv_calendar_t * calendar = (lv_calendar_t *)obj;
 1005              		.loc 1 136 5 view .LVU293
 1006 0004 28B1     		cbz	r0, .L83
 136:Drivers/lvgl/src/widgets/calendar/lv_calendar.c ****     lv_calendar_t * calendar = (lv_calendar_t *)obj;
 1007              		.loc 1 136 5 view .LVU294
 136:Drivers/lvgl/src/widgets/calendar/lv_calendar.c ****     lv_calendar_t * calendar = (lv_calendar_t *)obj;
 1008              		.loc 1 136 33 view .LVU295
 137:Drivers/lvgl/src/widgets/calendar/lv_calendar.c **** 
 1009              		.loc 1 137 5 view .LVU296
 1010              	.LVL99:
 139:Drivers/lvgl/src/widgets/calendar/lv_calendar.c ****     calendar->highlighted_dates_num = date_num;
 1011              		.loc 1 139 5 view .LVU297
 139:Drivers/lvgl/src/widgets/calendar/lv_calendar.c ****     calendar->highlighted_dates_num = date_num;
 1012              		.loc 1 139 37 is_stmt 0 view .LVU298
 1013 0006 8163     		str	r1, [r0, #56]
 140:Drivers/lvgl/src/widgets/calendar/lv_calendar.c **** 
 1014              		.loc 1 140 5 is_stmt 1 view .LVU299
 140:Drivers/lvgl/src/widgets/calendar/lv_calendar.c **** 
 1015              		.loc 1 140 37 is_stmt 0 view .LVU300
 1016 0008 C263     		str	r2, [r0, #60]
 142:Drivers/lvgl/src/widgets/calendar/lv_calendar.c **** }
ARM GAS  /var/folders/qx/2_175_4n2s19vhvtspjhb3qh0000gn/T//ccZZ70SA.s 			page 31


 1017              		.loc 1 142 5 is_stmt 1 view .LVU301
 1018 000a FFF7FEFF 		bl	highlight_update
 1019              	.LVL100:
 143:Drivers/lvgl/src/widgets/calendar/lv_calendar.c **** 
 1020              		.loc 1 143 1 is_stmt 0 view .LVU302
 1021 000e 08BD     		pop	{r3, pc}
 1022              	.LVL101:
 1023              	.L81:
 1024              	.LCFI16:
 1025              		.cfi_def_cfa_offset 0
 1026              		.cfi_restore 3
 1027              		.cfi_restore 14
 134:Drivers/lvgl/src/widgets/calendar/lv_calendar.c **** 
 1028              		.loc 1 134 5 is_stmt 1 view .LVU303
 134:Drivers/lvgl/src/widgets/calendar/lv_calendar.c **** 
 1029              		.loc 1 134 5 view .LVU304
 134:Drivers/lvgl/src/widgets/calendar/lv_calendar.c **** 
 1030              		.loc 1 134 5 view .LVU305
 134:Drivers/lvgl/src/widgets/calendar/lv_calendar.c **** 
 1031              		.loc 1 134 5 view .LVU306
 134:Drivers/lvgl/src/widgets/calendar/lv_calendar.c **** 
 1032              		.loc 1 134 5 view .LVU307
 1033 0010 FEE7     		b	.L81
 1034              	.L83:
 1035              	.LCFI17:
 1036              		.cfi_def_cfa_offset 8
 1037              		.cfi_offset 3, -8
 1038              		.cfi_offset 14, -4
 136:Drivers/lvgl/src/widgets/calendar/lv_calendar.c ****     lv_calendar_t * calendar = (lv_calendar_t *)obj;
 1039              		.loc 1 136 5 view .LVU308
 136:Drivers/lvgl/src/widgets/calendar/lv_calendar.c ****     lv_calendar_t * calendar = (lv_calendar_t *)obj;
 1040              		.loc 1 136 5 view .LVU309
 136:Drivers/lvgl/src/widgets/calendar/lv_calendar.c ****     lv_calendar_t * calendar = (lv_calendar_t *)obj;
 1041              		.loc 1 136 5 view .LVU310
 136:Drivers/lvgl/src/widgets/calendar/lv_calendar.c ****     lv_calendar_t * calendar = (lv_calendar_t *)obj;
 1042              		.loc 1 136 5 view .LVU311
 136:Drivers/lvgl/src/widgets/calendar/lv_calendar.c ****     lv_calendar_t * calendar = (lv_calendar_t *)obj;
 1043              		.loc 1 136 5 view .LVU312
 1044 0012 FEE7     		b	.L83
 1045              		.cfi_endproc
 1046              	.LFE208:
 1048              		.section	.rodata.lv_calendar_set_month_shown.str1.4,"aMS",%progbits,1
 1049              		.align	2
 1050              	.LC0:
 1051 0000 256400   		.ascii	"%d\000"
 1052              		.section	.text.lv_calendar_set_month_shown,"ax",%progbits
 1053              		.align	1
 1054              		.global	lv_calendar_set_month_shown
 1055              		.syntax unified
 1056              		.thumb
 1057              		.thumb_func
 1059              	lv_calendar_set_month_shown:
 1060              	.LVL102:
 1061              	.LFB209:
 146:Drivers/lvgl/src/widgets/calendar/lv_calendar.c ****     LV_ASSERT_OBJ(obj, MY_CLASS);
 1062              		.loc 1 146 1 view -0
 1063              		.cfi_startproc
ARM GAS  /var/folders/qx/2_175_4n2s19vhvtspjhb3qh0000gn/T//ccZZ70SA.s 			page 32


 1064              		@ args = 0, pretend = 0, frame = 8
 1065              		@ frame_needed = 0, uses_anonymous_args = 0
 147:Drivers/lvgl/src/widgets/calendar/lv_calendar.c ****     lv_calendar_t * calendar = (lv_calendar_t *)obj;
 1066              		.loc 1 147 5 view .LVU314
 147:Drivers/lvgl/src/widgets/calendar/lv_calendar.c ****     lv_calendar_t * calendar = (lv_calendar_t *)obj;
 1067              		.loc 1 147 5 view .LVU315
 1068 0000 C8B1     		cbz	r0, .L88
 146:Drivers/lvgl/src/widgets/calendar/lv_calendar.c ****     LV_ASSERT_OBJ(obj, MY_CLASS);
 1069              		.loc 1 146 1 is_stmt 0 view .LVU316
 1070 0002 2DE9F04F 		push	{r4, r5, r6, r7, r8, r9, r10, fp, lr}
 1071              	.LCFI18:
 1072              		.cfi_def_cfa_offset 36
 1073              		.cfi_offset 4, -36
 1074              		.cfi_offset 5, -32
 1075              		.cfi_offset 6, -28
 1076              		.cfi_offset 7, -24
 1077              		.cfi_offset 8, -20
 1078              		.cfi_offset 9, -16
 1079              		.cfi_offset 10, -12
 1080              		.cfi_offset 11, -8
 1081              		.cfi_offset 14, -4
 1082 0006 83B0     		sub	sp, sp, #12
 1083              	.LCFI19:
 1084              		.cfi_def_cfa_offset 48
 1085 0008 8A46     		mov	r10, r1
 1086 000a 9346     		mov	fp, r2
 1087 000c 0446     		mov	r4, r0
 147:Drivers/lvgl/src/widgets/calendar/lv_calendar.c ****     lv_calendar_t * calendar = (lv_calendar_t *)obj;
 1088              		.loc 1 147 5 is_stmt 1 view .LVU317
 147:Drivers/lvgl/src/widgets/calendar/lv_calendar.c ****     lv_calendar_t * calendar = (lv_calendar_t *)obj;
 1089              		.loc 1 147 33 view .LVU318
 148:Drivers/lvgl/src/widgets/calendar/lv_calendar.c **** 
 1090              		.loc 1 148 5 view .LVU319
 1091              	.LVL103:
 153:Drivers/lvgl/src/widgets/calendar/lv_calendar.c ****     calendar->showed_date.month  = month;
 1092              		.loc 1 153 5 view .LVU320
 153:Drivers/lvgl/src/widgets/calendar/lv_calendar.c ****     calendar->showed_date.month  = month;
 1093              		.loc 1 153 34 is_stmt 0 view .LVU321
 1094 000e 89B2     		uxth	r1, r1
 1095              	.LVL104:
 153:Drivers/lvgl/src/widgets/calendar/lv_calendar.c ****     calendar->showed_date.month  = month;
 1096              		.loc 1 153 34 view .LVU322
 1097 0010 8186     		strh	r1, [r0, #52]	@ movhi
 154:Drivers/lvgl/src/widgets/calendar/lv_calendar.c ****     calendar->showed_date.day    = 1;
 1098              		.loc 1 154 5 is_stmt 1 view .LVU323
 154:Drivers/lvgl/src/widgets/calendar/lv_calendar.c ****     calendar->showed_date.day    = 1;
 1099              		.loc 1 154 34 is_stmt 0 view .LVU324
 1100 0012 D2B2     		uxtb	r2, r2
 1101              	.LVL105:
 154:Drivers/lvgl/src/widgets/calendar/lv_calendar.c ****     calendar->showed_date.day    = 1;
 1102              		.loc 1 154 34 view .LVU325
 1103 0014 80F83620 		strb	r2, [r0, #54]
 155:Drivers/lvgl/src/widgets/calendar/lv_calendar.c **** 
 1104              		.loc 1 155 5 is_stmt 1 view .LVU326
 155:Drivers/lvgl/src/widgets/calendar/lv_calendar.c **** 
 1105              		.loc 1 155 34 is_stmt 0 view .LVU327
 1106 0018 0123     		movs	r3, #1
ARM GAS  /var/folders/qx/2_175_4n2s19vhvtspjhb3qh0000gn/T//ccZZ70SA.s 			page 33


 1107 001a 80F83730 		strb	r3, [r0, #55]
 157:Drivers/lvgl/src/widgets/calendar/lv_calendar.c ****     d.year = calendar->showed_date.year;
 1108              		.loc 1 157 5 is_stmt 1 view .LVU328
 158:Drivers/lvgl/src/widgets/calendar/lv_calendar.c ****     d.month = calendar->showed_date.month;
 1109              		.loc 1 158 5 view .LVU329
 158:Drivers/lvgl/src/widgets/calendar/lv_calendar.c ****     d.month = calendar->showed_date.month;
 1110              		.loc 1 158 12 is_stmt 0 view .LVU330
 1111 001e ADF80410 		strh	r1, [sp, #4]	@ movhi
 159:Drivers/lvgl/src/widgets/calendar/lv_calendar.c ****     d.day = calendar->showed_date.day;
 1112              		.loc 1 159 5 is_stmt 1 view .LVU331
 159:Drivers/lvgl/src/widgets/calendar/lv_calendar.c ****     d.day = calendar->showed_date.day;
 1113              		.loc 1 159 13 is_stmt 0 view .LVU332
 1114 0022 8DF80620 		strb	r2, [sp, #6]
 160:Drivers/lvgl/src/widgets/calendar/lv_calendar.c **** 
 1115              		.loc 1 160 5 is_stmt 1 view .LVU333
 160:Drivers/lvgl/src/widgets/calendar/lv_calendar.c **** 
 1116              		.loc 1 160 11 is_stmt 0 view .LVU334
 1117 0026 8DF80730 		strb	r3, [sp, #7]
 162:Drivers/lvgl/src/widgets/calendar/lv_calendar.c **** 
 1118              		.loc 1 162 5 is_stmt 1 view .LVU335
 165:Drivers/lvgl/src/widgets/calendar/lv_calendar.c ****     for(i = 0; i < 7; i++) {
 1119              		.loc 1 165 5 view .LVU336
 1120 002a 4021     		movs	r1, #64
 1121 002c C06A     		ldr	r0, [r0, #44]
 1122              	.LVL106:
 165:Drivers/lvgl/src/widgets/calendar/lv_calendar.c ****     for(i = 0; i < 7; i++) {
 1123              		.loc 1 165 5 is_stmt 0 view .LVU337
 1124 002e FFF7FEFF 		bl	lv_buttonmatrix_clear_button_ctrl_all
 1125              	.LVL107:
 166:Drivers/lvgl/src/widgets/calendar/lv_calendar.c ****         lv_buttonmatrix_set_button_ctrl(calendar->btnm, i, LV_BUTTONMATRIX_CTRL_DISABLED);
 1126              		.loc 1 166 5 is_stmt 1 view .LVU338
 166:Drivers/lvgl/src/widgets/calendar/lv_calendar.c ****         lv_buttonmatrix_set_button_ctrl(calendar->btnm, i, LV_BUTTONMATRIX_CTRL_DISABLED);
 1127              		.loc 1 166 11 is_stmt 0 view .LVU339
 1128 0032 0025     		movs	r5, #0
 166:Drivers/lvgl/src/widgets/calendar/lv_calendar.c ****         lv_buttonmatrix_set_button_ctrl(calendar->btnm, i, LV_BUTTONMATRIX_CTRL_DISABLED);
 1129              		.loc 1 166 5 view .LVU340
 1130 0034 06E0     		b	.L89
 1131              	.LVL108:
 1132              	.L88:
 1133              	.LCFI20:
 1134              		.cfi_def_cfa_offset 0
 1135              		.cfi_restore 4
 1136              		.cfi_restore 5
 1137              		.cfi_restore 6
 1138              		.cfi_restore 7
 1139              		.cfi_restore 8
 1140              		.cfi_restore 9
 1141              		.cfi_restore 10
 1142              		.cfi_restore 11
 1143              		.cfi_restore 14
 147:Drivers/lvgl/src/widgets/calendar/lv_calendar.c ****     lv_calendar_t * calendar = (lv_calendar_t *)obj;
 1144              		.loc 1 147 5 is_stmt 1 view .LVU341
 147:Drivers/lvgl/src/widgets/calendar/lv_calendar.c ****     lv_calendar_t * calendar = (lv_calendar_t *)obj;
 1145              		.loc 1 147 5 view .LVU342
 147:Drivers/lvgl/src/widgets/calendar/lv_calendar.c ****     lv_calendar_t * calendar = (lv_calendar_t *)obj;
 1146              		.loc 1 147 5 view .LVU343
 147:Drivers/lvgl/src/widgets/calendar/lv_calendar.c ****     lv_calendar_t * calendar = (lv_calendar_t *)obj;
ARM GAS  /var/folders/qx/2_175_4n2s19vhvtspjhb3qh0000gn/T//ccZZ70SA.s 			page 34


 1147              		.loc 1 147 5 view .LVU344
 147:Drivers/lvgl/src/widgets/calendar/lv_calendar.c ****     lv_calendar_t * calendar = (lv_calendar_t *)obj;
 1148              		.loc 1 147 5 view .LVU345
 1149 0036 FEE7     		b	.L88
 1150              	.LVL109:
 1151              	.L90:
 1152              	.LCFI21:
 1153              		.cfi_def_cfa_offset 48
 1154              		.cfi_offset 4, -36
 1155              		.cfi_offset 5, -32
 1156              		.cfi_offset 6, -28
 1157              		.cfi_offset 7, -24
 1158              		.cfi_offset 8, -20
 1159              		.cfi_offset 9, -16
 1160              		.cfi_offset 10, -12
 1161              		.cfi_offset 11, -8
 1162              		.cfi_offset 14, -4
 167:Drivers/lvgl/src/widgets/calendar/lv_calendar.c ****     }
 1163              		.loc 1 167 9 view .LVU346
 1164 0038 4022     		movs	r2, #64
 1165 003a 2946     		mov	r1, r5
 1166 003c E06A     		ldr	r0, [r4, #44]
 1167 003e FFF7FEFF 		bl	lv_buttonmatrix_set_button_ctrl
 1168              	.LVL110:
 166:Drivers/lvgl/src/widgets/calendar/lv_calendar.c ****         lv_buttonmatrix_set_button_ctrl(calendar->btnm, i, LV_BUTTONMATRIX_CTRL_DISABLED);
 1169              		.loc 1 166 24 discriminator 3 view .LVU347
 1170 0042 0135     		adds	r5, r5, #1
 1171              	.LVL111:
 1172              	.L89:
 166:Drivers/lvgl/src/widgets/calendar/lv_calendar.c ****         lv_buttonmatrix_set_button_ctrl(calendar->btnm, i, LV_BUTTONMATRIX_CTRL_DISABLED);
 1173              		.loc 1 166 18 discriminator 1 view .LVU348
 1174 0044 062D     		cmp	r5, #6
 1175 0046 F7D9     		bls	.L90
 170:Drivers/lvgl/src/widgets/calendar/lv_calendar.c ****     uint8_t day_first = get_day_of_week(d.year, d.month, 1);
 1176              		.loc 1 170 5 view .LVU349
 170:Drivers/lvgl/src/widgets/calendar/lv_calendar.c ****     uint8_t day_first = get_day_of_week(d.year, d.month, 1);
 1177              		.loc 1 170 26 is_stmt 0 view .LVU350
 1178 0048 1FFA8AFA 		uxth	r10, r10
 1179              	.LVL112:
 170:Drivers/lvgl/src/widgets/calendar/lv_calendar.c ****     uint8_t day_first = get_day_of_week(d.year, d.month, 1);
 1180              		.loc 1 170 26 view .LVU351
 1181 004c 5FFA8BFB 		uxtb	fp, fp
 1182              	.LVL113:
 170:Drivers/lvgl/src/widgets/calendar/lv_calendar.c ****     uint8_t day_first = get_day_of_week(d.year, d.month, 1);
 1183              		.loc 1 170 26 view .LVU352
 1184 0050 5946     		mov	r1, fp
 1185 0052 5046     		mov	r0, r10
 1186 0054 FFF7FEFF 		bl	get_month_length
 1187              	.LVL114:
 1188 0058 8146     		mov	r9, r0
 1189              	.LVL115:
 171:Drivers/lvgl/src/widgets/calendar/lv_calendar.c ****     uint8_t c;
 1190              		.loc 1 171 5 is_stmt 1 view .LVU353
 171:Drivers/lvgl/src/widgets/calendar/lv_calendar.c ****     uint8_t c;
 1191              		.loc 1 171 25 is_stmt 0 view .LVU354
 1192 005a 0122     		movs	r2, #1
 1193 005c 5946     		mov	r1, fp
ARM GAS  /var/folders/qx/2_175_4n2s19vhvtspjhb3qh0000gn/T//ccZZ70SA.s 			page 35


 1194 005e 5046     		mov	r0, r10
 1195 0060 FFF7FEFF 		bl	get_day_of_week
 1196              	.LVL116:
 1197 0064 0646     		mov	r6, r0
 1198              	.LVL117:
 172:Drivers/lvgl/src/widgets/calendar/lv_calendar.c **** 
 1199              		.loc 1 172 5 is_stmt 1 view .LVU355
 179:Drivers/lvgl/src/widgets/calendar/lv_calendar.c **** #if LV_USE_CALENDAR_CHINESE
 1200              		.loc 1 179 5 view .LVU356
 179:Drivers/lvgl/src/widgets/calendar/lv_calendar.c **** #if LV_USE_CALENDAR_CHINESE
 1201              		.loc 1 179 11 is_stmt 0 view .LVU357
 1202 0066 0746     		mov	r7, r0
 179:Drivers/lvgl/src/widgets/calendar/lv_calendar.c **** #if LV_USE_CALENDAR_CHINESE
 1203              		.loc 1 179 26 view .LVU358
 1204 0068 4FF00108 		mov	r8, #1
 179:Drivers/lvgl/src/widgets/calendar/lv_calendar.c **** #if LV_USE_CALENDAR_CHINESE
 1205              		.loc 1 179 5 view .LVU359
 1206 006c 10E0     		b	.L91
 1207              	.LVL118:
 1208              	.L92:
 187:Drivers/lvgl/src/widgets/calendar/lv_calendar.c ****     }
 1209              		.loc 1 187 13 is_stmt 1 view .LVU360
 187:Drivers/lvgl/src/widgets/calendar/lv_calendar.c ****     }
 1210              		.loc 1 187 39 is_stmt 0 view .LVU361
 1211 006e 07EB8700 		add	r0, r7, r7, lsl #2
 1212 0072 8000     		lsls	r0, r0, #2
 1213 0074 00F59070 		add	r0, r0, #288
 1214 0078 2044     		add	r0, r0, r4
 187:Drivers/lvgl/src/widgets/calendar/lv_calendar.c ****     }
 1215              		.loc 1 187 13 view .LVU362
 1216 007a 4346     		mov	r3, r8
 1217 007c 3B4A     		ldr	r2, .L105
 1218 007e 1421     		movs	r1, #20
 1219 0080 0130     		adds	r0, r0, #1
 1220 0082 FFF7FEFF 		bl	lv_snprintf
 1221              	.LVL119:
 179:Drivers/lvgl/src/widgets/calendar/lv_calendar.c **** #if LV_USE_CALENDAR_CHINESE
 1222              		.loc 1 179 62 is_stmt 1 discriminator 3 view .LVU363
 179:Drivers/lvgl/src/widgets/calendar/lv_calendar.c **** #if LV_USE_CALENDAR_CHINESE
 1223              		.loc 1 179 60 is_stmt 0 discriminator 3 view .LVU364
 1224 0086 0137     		adds	r7, r7, #1
 1225              	.LVL120:
 179:Drivers/lvgl/src/widgets/calendar/lv_calendar.c **** #if LV_USE_CALENDAR_CHINESE
 1226              		.loc 1 179 65 discriminator 3 view .LVU365
 1227 0088 08F10108 		add	r8, r8, #1
 1228              	.LVL121:
 179:Drivers/lvgl/src/widgets/calendar/lv_calendar.c **** #if LV_USE_CALENDAR_CHINESE
 1229              		.loc 1 179 65 discriminator 3 view .LVU366
 1230 008c 5FFA88F8 		uxtb	r8, r8
 1231              	.LVL122:
 1232              	.L91:
 179:Drivers/lvgl/src/widgets/calendar/lv_calendar.c **** #if LV_USE_CALENDAR_CHINESE
 1233              		.loc 1 179 33 is_stmt 1 discriminator 1 view .LVU367
 179:Drivers/lvgl/src/widgets/calendar/lv_calendar.c **** #if LV_USE_CALENDAR_CHINESE
 1234              		.loc 1 179 46 is_stmt 0 discriminator 1 view .LVU368
 1235 0090 09EB0605 		add	r5, r9, r6
 179:Drivers/lvgl/src/widgets/calendar/lv_calendar.c **** #if LV_USE_CALENDAR_CHINESE
ARM GAS  /var/folders/qx/2_175_4n2s19vhvtspjhb3qh0000gn/T//ccZZ70SA.s 			page 36


 1236              		.loc 1 179 33 discriminator 1 view .LVU369
 1237 0094 BD42     		cmp	r5, r7
 1238 0096 EAD8     		bhi	.L92
 190:Drivers/lvgl/src/widgets/calendar/lv_calendar.c **** 
 1239              		.loc 1 190 5 is_stmt 1 view .LVU370
 190:Drivers/lvgl/src/widgets/calendar/lv_calendar.c **** 
 1240              		.loc 1 190 27 is_stmt 0 view .LVU371
 1241 0098 0BF1FF31 		add	r1, fp, #-1
 1242 009c 5046     		mov	r0, r10
 1243 009e FFF7FEFF 		bl	get_month_length
 1244              	.LVL123:
 196:Drivers/lvgl/src/widgets/calendar/lv_calendar.c **** #if LV_USE_CALENDAR_CHINESE
 1245              		.loc 1 196 5 is_stmt 1 view .LVU372
 196:Drivers/lvgl/src/widgets/calendar/lv_calendar.c **** #if LV_USE_CALENDAR_CHINESE
 1246              		.loc 1 196 32 is_stmt 0 view .LVU373
 1247 00a2 A0EB0608 		sub	r8, r0, r6
 1248              	.LVL124:
 196:Drivers/lvgl/src/widgets/calendar/lv_calendar.c **** #if LV_USE_CALENDAR_CHINESE
 1249              		.loc 1 196 32 view .LVU374
 1250 00a6 5FFA88F8 		uxtb	r8, r8
 196:Drivers/lvgl/src/widgets/calendar/lv_calendar.c **** #if LV_USE_CALENDAR_CHINESE
 1251              		.loc 1 196 18 view .LVU375
 1252 00aa 08F10108 		add	r8, r8, #1
 1253 00ae 5FFA88F8 		uxtb	r8, r8
 1254              	.LVL125:
 196:Drivers/lvgl/src/widgets/calendar/lv_calendar.c **** #if LV_USE_CALENDAR_CHINESE
 1255              		.loc 1 196 11 view .LVU376
 1256 00b2 0027     		movs	r7, #0
 196:Drivers/lvgl/src/widgets/calendar/lv_calendar.c **** #if LV_USE_CALENDAR_CHINESE
 1257              		.loc 1 196 5 view .LVU377
 1258 00b4 15E0     		b	.L93
 1259              	.LVL126:
 1260              	.L94:
 204:Drivers/lvgl/src/widgets/calendar/lv_calendar.c ****         lv_buttonmatrix_set_button_ctrl(calendar->btnm, i + 7, LV_BUTTONMATRIX_CTRL_DISABLED);
 1261              		.loc 1 204 13 is_stmt 1 view .LVU378
 204:Drivers/lvgl/src/widgets/calendar/lv_calendar.c ****         lv_buttonmatrix_set_button_ctrl(calendar->btnm, i + 7, LV_BUTTONMATRIX_CTRL_DISABLED);
 1262              		.loc 1 204 39 is_stmt 0 view .LVU379
 1263 00b6 07EB8700 		add	r0, r7, r7, lsl #2
 1264 00ba 8000     		lsls	r0, r0, #2
 1265 00bc 00F59070 		add	r0, r0, #288
 1266 00c0 2044     		add	r0, r0, r4
 204:Drivers/lvgl/src/widgets/calendar/lv_calendar.c ****         lv_buttonmatrix_set_button_ctrl(calendar->btnm, i + 7, LV_BUTTONMATRIX_CTRL_DISABLED);
 1267              		.loc 1 204 13 view .LVU380
 1268 00c2 4346     		mov	r3, r8
 1269 00c4 294A     		ldr	r2, .L105
 1270 00c6 1421     		movs	r1, #20
 1271 00c8 0130     		adds	r0, r0, #1
 1272 00ca FFF7FEFF 		bl	lv_snprintf
 1273              	.LVL127:
 205:Drivers/lvgl/src/widgets/calendar/lv_calendar.c ****     }
 1274              		.loc 1 205 9 is_stmt 1 view .LVU381
 1275 00ce 4022     		movs	r2, #64
 1276 00d0 F91D     		adds	r1, r7, #7
 1277 00d2 E06A     		ldr	r0, [r4, #44]
 1278 00d4 FFF7FEFF 		bl	lv_buttonmatrix_set_button_ctrl
 1279              	.LVL128:
 196:Drivers/lvgl/src/widgets/calendar/lv_calendar.c **** #if LV_USE_CALENDAR_CHINESE
ARM GAS  /var/folders/qx/2_175_4n2s19vhvtspjhb3qh0000gn/T//ccZZ70SA.s 			page 37


 1280              		.loc 1 196 67 discriminator 3 view .LVU382
 196:Drivers/lvgl/src/widgets/calendar/lv_calendar.c **** #if LV_USE_CALENDAR_CHINESE
 1281              		.loc 1 196 65 is_stmt 0 discriminator 3 view .LVU383
 1282 00d8 0137     		adds	r7, r7, #1
 1283              	.LVL129:
 196:Drivers/lvgl/src/widgets/calendar/lv_calendar.c **** #if LV_USE_CALENDAR_CHINESE
 1284              		.loc 1 196 70 discriminator 3 view .LVU384
 1285 00da 08F10108 		add	r8, r8, #1
 1286              	.LVL130:
 196:Drivers/lvgl/src/widgets/calendar/lv_calendar.c **** #if LV_USE_CALENDAR_CHINESE
 1287              		.loc 1 196 70 discriminator 3 view .LVU385
 1288 00de 5FFA88F8 		uxtb	r8, r8
 1289              	.LVL131:
 1290              	.L93:
 196:Drivers/lvgl/src/widgets/calendar/lv_calendar.c **** #if LV_USE_CALENDAR_CHINESE
 1291              		.loc 1 196 51 is_stmt 1 discriminator 1 view .LVU386
 1292 00e2 B742     		cmp	r7, r6
 1293 00e4 E7D3     		bcc	.L94
 212:Drivers/lvgl/src/widgets/calendar/lv_calendar.c **** #if LV_USE_CALENDAR_CHINESE
 1294              		.loc 1 212 39 is_stmt 0 view .LVU387
 1295 00e6 0127     		movs	r7, #1
 1296              	.LVL132:
 212:Drivers/lvgl/src/widgets/calendar/lv_calendar.c **** #if LV_USE_CALENDAR_CHINESE
 1297              		.loc 1 212 39 view .LVU388
 1298 00e8 13E0     		b	.L95
 1299              	.LVL133:
 1300              	.L96:
 220:Drivers/lvgl/src/widgets/calendar/lv_calendar.c ****         lv_buttonmatrix_set_button_ctrl(calendar->btnm, i + 7, LV_BUTTONMATRIX_CTRL_DISABLED);
 1301              		.loc 1 220 13 is_stmt 1 view .LVU389
 220:Drivers/lvgl/src/widgets/calendar/lv_calendar.c ****         lv_buttonmatrix_set_button_ctrl(calendar->btnm, i + 7, LV_BUTTONMATRIX_CTRL_DISABLED);
 1302              		.loc 1 220 39 is_stmt 0 view .LVU390
 1303 00ea 05EB8500 		add	r0, r5, r5, lsl #2
 1304 00ee 8000     		lsls	r0, r0, #2
 1305 00f0 00F59070 		add	r0, r0, #288
 1306 00f4 2044     		add	r0, r0, r4
 220:Drivers/lvgl/src/widgets/calendar/lv_calendar.c ****         lv_buttonmatrix_set_button_ctrl(calendar->btnm, i + 7, LV_BUTTONMATRIX_CTRL_DISABLED);
 1307              		.loc 1 220 13 view .LVU391
 1308 00f6 3B46     		mov	r3, r7
 1309 00f8 1C4A     		ldr	r2, .L105
 1310 00fa 1421     		movs	r1, #20
 1311 00fc 0130     		adds	r0, r0, #1
 1312 00fe FFF7FEFF 		bl	lv_snprintf
 1313              	.LVL134:
 221:Drivers/lvgl/src/widgets/calendar/lv_calendar.c ****     }
 1314              		.loc 1 221 9 is_stmt 1 view .LVU392
 1315 0102 4022     		movs	r2, #64
 1316 0104 E91D     		adds	r1, r5, #7
 1317 0106 E06A     		ldr	r0, [r4, #44]
 1318 0108 FFF7FEFF 		bl	lv_buttonmatrix_set_button_ctrl
 1319              	.LVL135:
 212:Drivers/lvgl/src/widgets/calendar/lv_calendar.c **** #if LV_USE_CALENDAR_CHINESE
 1320              		.loc 1 212 58 discriminator 3 view .LVU393
 212:Drivers/lvgl/src/widgets/calendar/lv_calendar.c **** #if LV_USE_CALENDAR_CHINESE
 1321              		.loc 1 212 56 is_stmt 0 discriminator 3 view .LVU394
 1322 010c 0135     		adds	r5, r5, #1
 1323              	.LVL136:
 212:Drivers/lvgl/src/widgets/calendar/lv_calendar.c **** #if LV_USE_CALENDAR_CHINESE
ARM GAS  /var/folders/qx/2_175_4n2s19vhvtspjhb3qh0000gn/T//ccZZ70SA.s 			page 38


 1324              		.loc 1 212 61 discriminator 3 view .LVU395
 1325 010e 0137     		adds	r7, r7, #1
 1326              	.LVL137:
 212:Drivers/lvgl/src/widgets/calendar/lv_calendar.c **** #if LV_USE_CALENDAR_CHINESE
 1327              		.loc 1 212 61 discriminator 3 view .LVU396
 1328 0110 FFB2     		uxtb	r7, r7
 1329              	.LVL138:
 1330              	.L95:
 212:Drivers/lvgl/src/widgets/calendar/lv_calendar.c **** #if LV_USE_CALENDAR_CHINESE
 1331              		.loc 1 212 46 is_stmt 1 discriminator 1 view .LVU397
 1332 0112 292D     		cmp	r5, #41
 1333 0114 E9D9     		bls	.L96
 224:Drivers/lvgl/src/widgets/calendar/lv_calendar.c **** 
 1334              		.loc 1 224 5 view .LVU398
 1335 0116 2046     		mov	r0, r4
 1336 0118 FFF7FEFF 		bl	highlight_update
 1337              	.LVL139:
 227:Drivers/lvgl/src/widgets/calendar/lv_calendar.c ****         lv_buttonmatrix_set_selected_button(calendar->btnm, day_first + 7);
 1338              		.loc 1 227 5 view .LVU399
 227:Drivers/lvgl/src/widgets/calendar/lv_calendar.c ****         lv_buttonmatrix_set_selected_button(calendar->btnm, day_first + 7);
 1339              		.loc 1 227 8 is_stmt 0 view .LVU400
 1340 011c E06A     		ldr	r0, [r4, #44]
 1341 011e FFF7FEFF 		bl	lv_buttonmatrix_get_selected_button
 1342              	.LVL140:
 227:Drivers/lvgl/src/widgets/calendar/lv_calendar.c ****         lv_buttonmatrix_set_selected_button(calendar->btnm, day_first + 7);
 1343              		.loc 1 227 7 discriminator 1 view .LVU401
 1344 0122 4FF6FF73 		movw	r3, #65535
 1345 0126 9842     		cmp	r0, r3
 1346 0128 08D1     		bne	.L103
 1347              	.L97:
 231:Drivers/lvgl/src/widgets/calendar/lv_calendar.c **** 
 1348              		.loc 1 231 5 is_stmt 1 view .LVU402
 1349 012a 2046     		mov	r0, r4
 1350 012c FFF7FEFF 		bl	lv_obj_invalidate
 1351              	.LVL141:
 235:Drivers/lvgl/src/widgets/calendar/lv_calendar.c ****     for(i = 0; i < child_cnt; i++) {
 1352              		.loc 1 235 5 view .LVU403
 235:Drivers/lvgl/src/widgets/calendar/lv_calendar.c ****     for(i = 0; i < child_cnt; i++) {
 1353              		.loc 1 235 26 is_stmt 0 view .LVU404
 1354 0130 2046     		mov	r0, r4
 1355 0132 FFF7FEFF 		bl	lv_obj_get_child_count
 1356              	.LVL142:
 1357 0136 0646     		mov	r6, r0
 1358              	.LVL143:
 236:Drivers/lvgl/src/widgets/calendar/lv_calendar.c ****         lv_obj_t * child = lv_obj_get_child(obj, i);
 1359              		.loc 1 236 5 is_stmt 1 view .LVU405
 236:Drivers/lvgl/src/widgets/calendar/lv_calendar.c ****         lv_obj_t * child = lv_obj_get_child(obj, i);
 1360              		.loc 1 236 11 is_stmt 0 view .LVU406
 1361 0138 0025     		movs	r5, #0
 236:Drivers/lvgl/src/widgets/calendar/lv_calendar.c ****         lv_obj_t * child = lv_obj_get_child(obj, i);
 1362              		.loc 1 236 5 view .LVU407
 1363 013a 05E0     		b	.L98
 1364              	.LVL144:
 1365              	.L103:
 228:Drivers/lvgl/src/widgets/calendar/lv_calendar.c ****     }
 1366              		.loc 1 228 9 is_stmt 1 view .LVU408
 1367 013c F11D     		adds	r1, r6, #7
ARM GAS  /var/folders/qx/2_175_4n2s19vhvtspjhb3qh0000gn/T//ccZZ70SA.s 			page 39


 1368 013e E06A     		ldr	r0, [r4, #44]
 1369 0140 FFF7FEFF 		bl	lv_buttonmatrix_set_selected_button
 1370              	.LVL145:
 1371 0144 F1E7     		b	.L97
 1372              	.LVL146:
 1373              	.L99:
 236:Drivers/lvgl/src/widgets/calendar/lv_calendar.c ****         lv_obj_t * child = lv_obj_get_child(obj, i);
 1374              		.loc 1 236 32 discriminator 2 view .LVU409
 1375 0146 0135     		adds	r5, r5, #1
 1376              	.LVL147:
 1377              	.L98:
 236:Drivers/lvgl/src/widgets/calendar/lv_calendar.c ****         lv_obj_t * child = lv_obj_get_child(obj, i);
 1378              		.loc 1 236 18 discriminator 1 view .LVU410
 1379 0148 B542     		cmp	r5, r6
 1380 014a 0BD2     		bcs	.L104
 1381              	.LBB4:
 237:Drivers/lvgl/src/widgets/calendar/lv_calendar.c ****         if(child == calendar->btnm) continue;
 1382              		.loc 1 237 9 view .LVU411
 237:Drivers/lvgl/src/widgets/calendar/lv_calendar.c ****         if(child == calendar->btnm) continue;
 1383              		.loc 1 237 28 is_stmt 0 view .LVU412
 1384 014c 2946     		mov	r1, r5
 1385 014e 2046     		mov	r0, r4
 1386 0150 FFF7FEFF 		bl	lv_obj_get_child
 1387              	.LVL148:
 238:Drivers/lvgl/src/widgets/calendar/lv_calendar.c ****         lv_obj_send_event(child, LV_EVENT_VALUE_CHANGED, obj);
 1388              		.loc 1 238 9 is_stmt 1 view .LVU413
 238:Drivers/lvgl/src/widgets/calendar/lv_calendar.c ****         lv_obj_send_event(child, LV_EVENT_VALUE_CHANGED, obj);
 1389              		.loc 1 238 29 is_stmt 0 view .LVU414
 1390 0154 E36A     		ldr	r3, [r4, #44]
 238:Drivers/lvgl/src/widgets/calendar/lv_calendar.c ****         lv_obj_send_event(child, LV_EVENT_VALUE_CHANGED, obj);
 1391              		.loc 1 238 11 view .LVU415
 1392 0156 8342     		cmp	r3, r0
 1393 0158 F5D0     		beq	.L99
 239:Drivers/lvgl/src/widgets/calendar/lv_calendar.c ****     }
 1394              		.loc 1 239 9 is_stmt 1 view .LVU416
 1395 015a 2246     		mov	r2, r4
 1396 015c 2321     		movs	r1, #35
 1397 015e FFF7FEFF 		bl	lv_obj_send_event
 1398              	.LVL149:
 239:Drivers/lvgl/src/widgets/calendar/lv_calendar.c ****     }
 1399              		.loc 1 239 9 is_stmt 0 view .LVU417
 1400 0162 F0E7     		b	.L99
 1401              	.LVL150:
 1402              	.L104:
 239:Drivers/lvgl/src/widgets/calendar/lv_calendar.c ****     }
 1403              		.loc 1 239 9 view .LVU418
 1404              	.LBE4:
 241:Drivers/lvgl/src/widgets/calendar/lv_calendar.c **** 
 1405              		.loc 1 241 1 view .LVU419
 1406 0164 03B0     		add	sp, sp, #12
 1407              	.LCFI22:
 1408              		.cfi_def_cfa_offset 36
 1409              		@ sp needed
 1410 0166 BDE8F08F 		pop	{r4, r5, r6, r7, r8, r9, r10, fp, pc}
 1411              	.LVL151:
 1412              	.L106:
 241:Drivers/lvgl/src/widgets/calendar/lv_calendar.c **** 
ARM GAS  /var/folders/qx/2_175_4n2s19vhvtspjhb3qh0000gn/T//ccZZ70SA.s 			page 40


 1413              		.loc 1 241 1 view .LVU420
 1414 016a 00BF     		.align	2
 1415              	.L105:
 1416 016c 00000000 		.word	.LC0
 1417              		.cfi_endproc
 1418              	.LFE209:
 1420              		.section	.rodata.lv_calendar_constructor.str1.4,"aMS",%progbits,1
 1421              		.align	2
 1422              	.LC1:
 1423 0000 0A00     		.ascii	"\012\000"
 1424 0002 0000     		.align	2
 1425              	.LC2:
 1426 0004 00       		.ascii	"\000"
 1427              		.section	.text.lv_calendar_constructor,"ax",%progbits
 1428              		.align	1
 1429              		.syntax unified
 1430              		.thumb
 1431              		.thumb_func
 1433              	lv_calendar_constructor:
 1434              	.LVL152:
 1435              	.LFB218:
 330:Drivers/lvgl/src/widgets/calendar/lv_calendar.c ****     LV_UNUSED(class_p);
 1436              		.loc 1 330 1 is_stmt 1 view -0
 1437              		.cfi_startproc
 1438              		@ args = 0, pretend = 0, frame = 0
 1439              		@ frame_needed = 0, uses_anonymous_args = 0
 330:Drivers/lvgl/src/widgets/calendar/lv_calendar.c ****     LV_UNUSED(class_p);
 1440              		.loc 1 330 1 is_stmt 0 view .LVU422
 1441 0000 38B5     		push	{r3, r4, r5, lr}
 1442              	.LCFI23:
 1443              		.cfi_def_cfa_offset 16
 1444              		.cfi_offset 3, -16
 1445              		.cfi_offset 4, -12
 1446              		.cfi_offset 5, -8
 1447              		.cfi_offset 14, -4
 1448 0002 0C46     		mov	r4, r1
 331:Drivers/lvgl/src/widgets/calendar/lv_calendar.c ****     lv_calendar_t * calendar = (lv_calendar_t *)obj;
 1449              		.loc 1 331 5 is_stmt 1 view .LVU423
 332:Drivers/lvgl/src/widgets/calendar/lv_calendar.c **** 
 1450              		.loc 1 332 5 view .LVU424
 1451              	.LVL153:
 334:Drivers/lvgl/src/widgets/calendar/lv_calendar.c ****     uint8_t i;
 1452              		.loc 1 334 5 view .LVU425
 1453              	.LBB5:
 1454              	.LBI5:
 1455              		.file 2 "Drivers/lvgl/src/widgets/calendar/../../core/../misc/../font/../draw/../misc/../stdlib/lv
   1:Drivers/lvgl/src/widgets/calendar/../../core/../misc/../font/../draw/../misc/../stdlib/lv_string.h **** /**
   2:Drivers/lvgl/src/widgets/calendar/../../core/../misc/../font/../draw/../misc/../stdlib/lv_string.h ****  * @file lv_string.h
   3:Drivers/lvgl/src/widgets/calendar/../../core/../misc/../font/../draw/../misc/../stdlib/lv_string.h ****  *
   4:Drivers/lvgl/src/widgets/calendar/../../core/../misc/../font/../draw/../misc/../stdlib/lv_string.h ****  */
   5:Drivers/lvgl/src/widgets/calendar/../../core/../misc/../font/../draw/../misc/../stdlib/lv_string.h **** 
   6:Drivers/lvgl/src/widgets/calendar/../../core/../misc/../font/../draw/../misc/../stdlib/lv_string.h **** #ifndef LV_STRING_H
   7:Drivers/lvgl/src/widgets/calendar/../../core/../misc/../font/../draw/../misc/../stdlib/lv_string.h **** #define LV_STRING_H
   8:Drivers/lvgl/src/widgets/calendar/../../core/../misc/../font/../draw/../misc/../stdlib/lv_string.h **** 
   9:Drivers/lvgl/src/widgets/calendar/../../core/../misc/../font/../draw/../misc/../stdlib/lv_string.h **** #ifdef __cplusplus
  10:Drivers/lvgl/src/widgets/calendar/../../core/../misc/../font/../draw/../misc/../stdlib/lv_string.h **** extern "C" {
  11:Drivers/lvgl/src/widgets/calendar/../../core/../misc/../font/../draw/../misc/../stdlib/lv_string.h **** #endif
ARM GAS  /var/folders/qx/2_175_4n2s19vhvtspjhb3qh0000gn/T//ccZZ70SA.s 			page 41


  12:Drivers/lvgl/src/widgets/calendar/../../core/../misc/../font/../draw/../misc/../stdlib/lv_string.h **** 
  13:Drivers/lvgl/src/widgets/calendar/../../core/../misc/../font/../draw/../misc/../stdlib/lv_string.h **** /*********************
  14:Drivers/lvgl/src/widgets/calendar/../../core/../misc/../font/../draw/../misc/../stdlib/lv_string.h ****  *      INCLUDES
  15:Drivers/lvgl/src/widgets/calendar/../../core/../misc/../font/../draw/../misc/../stdlib/lv_string.h ****  *********************/
  16:Drivers/lvgl/src/widgets/calendar/../../core/../misc/../font/../draw/../misc/../stdlib/lv_string.h **** #include "../lv_conf_internal.h"
  17:Drivers/lvgl/src/widgets/calendar/../../core/../misc/../font/../draw/../misc/../stdlib/lv_string.h **** #include "../misc/lv_types.h"
  18:Drivers/lvgl/src/widgets/calendar/../../core/../misc/../font/../draw/../misc/../stdlib/lv_string.h **** 
  19:Drivers/lvgl/src/widgets/calendar/../../core/../misc/../font/../draw/../misc/../stdlib/lv_string.h **** /*********************
  20:Drivers/lvgl/src/widgets/calendar/../../core/../misc/../font/../draw/../misc/../stdlib/lv_string.h ****  *      DEFINES
  21:Drivers/lvgl/src/widgets/calendar/../../core/../misc/../font/../draw/../misc/../stdlib/lv_string.h ****  *********************/
  22:Drivers/lvgl/src/widgets/calendar/../../core/../misc/../font/../draw/../misc/../stdlib/lv_string.h **** 
  23:Drivers/lvgl/src/widgets/calendar/../../core/../misc/../font/../draw/../misc/../stdlib/lv_string.h **** /**********************
  24:Drivers/lvgl/src/widgets/calendar/../../core/../misc/../font/../draw/../misc/../stdlib/lv_string.h ****  *      TYPEDEFS
  25:Drivers/lvgl/src/widgets/calendar/../../core/../misc/../font/../draw/../misc/../stdlib/lv_string.h ****  **********************/
  26:Drivers/lvgl/src/widgets/calendar/../../core/../misc/../font/../draw/../misc/../stdlib/lv_string.h **** 
  27:Drivers/lvgl/src/widgets/calendar/../../core/../misc/../font/../draw/../misc/../stdlib/lv_string.h **** /**********************
  28:Drivers/lvgl/src/widgets/calendar/../../core/../misc/../font/../draw/../misc/../stdlib/lv_string.h ****  * GLOBAL PROTOTYPES
  29:Drivers/lvgl/src/widgets/calendar/../../core/../misc/../font/../draw/../misc/../stdlib/lv_string.h ****  **********************/
  30:Drivers/lvgl/src/widgets/calendar/../../core/../misc/../font/../draw/../misc/../stdlib/lv_string.h **** 
  31:Drivers/lvgl/src/widgets/calendar/../../core/../misc/../font/../draw/../misc/../stdlib/lv_string.h **** /**
  32:Drivers/lvgl/src/widgets/calendar/../../core/../misc/../font/../draw/../misc/../stdlib/lv_string.h ****  * @brief Copies a block of memory from a source address to a destination address.
  33:Drivers/lvgl/src/widgets/calendar/../../core/../misc/../font/../draw/../misc/../stdlib/lv_string.h ****  * @param dst Pointer to the destination array where the content is to be copied.
  34:Drivers/lvgl/src/widgets/calendar/../../core/../misc/../font/../draw/../misc/../stdlib/lv_string.h ****  * @param src Pointer to the source of data to be copied.
  35:Drivers/lvgl/src/widgets/calendar/../../core/../misc/../font/../draw/../misc/../stdlib/lv_string.h ****  * @param len Number of bytes to copy.
  36:Drivers/lvgl/src/widgets/calendar/../../core/../misc/../font/../draw/../misc/../stdlib/lv_string.h ****  * @return Pointer to the destination array.
  37:Drivers/lvgl/src/widgets/calendar/../../core/../misc/../font/../draw/../misc/../stdlib/lv_string.h ****  * @note The function does not check for any overlapping of the source and destination memory block
  38:Drivers/lvgl/src/widgets/calendar/../../core/../misc/../font/../draw/../misc/../stdlib/lv_string.h ****  */
  39:Drivers/lvgl/src/widgets/calendar/../../core/../misc/../font/../draw/../misc/../stdlib/lv_string.h **** void * lv_memcpy(void * dst, const void * src, size_t len);
  40:Drivers/lvgl/src/widgets/calendar/../../core/../misc/../font/../draw/../misc/../stdlib/lv_string.h **** 
  41:Drivers/lvgl/src/widgets/calendar/../../core/../misc/../font/../draw/../misc/../stdlib/lv_string.h **** /**
  42:Drivers/lvgl/src/widgets/calendar/../../core/../misc/../font/../draw/../misc/../stdlib/lv_string.h ****  * @brief Fills a block of memory with a specified value.
  43:Drivers/lvgl/src/widgets/calendar/../../core/../misc/../font/../draw/../misc/../stdlib/lv_string.h ****  * @param dst Pointer to the destination array to fill with the specified value.
  44:Drivers/lvgl/src/widgets/calendar/../../core/../misc/../font/../draw/../misc/../stdlib/lv_string.h ****  * @param v Value to be set. The value is passed as an int, but the function fills
  45:Drivers/lvgl/src/widgets/calendar/../../core/../misc/../font/../draw/../misc/../stdlib/lv_string.h ****  *          the block of memory using the unsigned char conversion of this value.
  46:Drivers/lvgl/src/widgets/calendar/../../core/../misc/../font/../draw/../misc/../stdlib/lv_string.h ****  * @param len Number of bytes to be set to the value.
  47:Drivers/lvgl/src/widgets/calendar/../../core/../misc/../font/../draw/../misc/../stdlib/lv_string.h ****  */
  48:Drivers/lvgl/src/widgets/calendar/../../core/../misc/../font/../draw/../misc/../stdlib/lv_string.h **** void lv_memset(void * dst, uint8_t v, size_t len);
  49:Drivers/lvgl/src/widgets/calendar/../../core/../misc/../font/../draw/../misc/../stdlib/lv_string.h **** 
  50:Drivers/lvgl/src/widgets/calendar/../../core/../misc/../font/../draw/../misc/../stdlib/lv_string.h **** /**
  51:Drivers/lvgl/src/widgets/calendar/../../core/../misc/../font/../draw/../misc/../stdlib/lv_string.h ****  * @brief Move a block of memory from source to destination
  52:Drivers/lvgl/src/widgets/calendar/../../core/../misc/../font/../draw/../misc/../stdlib/lv_string.h ****  * @param dst Pointer to the destination array where the content is to be copied.
  53:Drivers/lvgl/src/widgets/calendar/../../core/../misc/../font/../draw/../misc/../stdlib/lv_string.h ****  * @param src Pointer to the source of data to be copied.
  54:Drivers/lvgl/src/widgets/calendar/../../core/../misc/../font/../draw/../misc/../stdlib/lv_string.h ****  * @param len Number of bytes to copy
  55:Drivers/lvgl/src/widgets/calendar/../../core/../misc/../font/../draw/../misc/../stdlib/lv_string.h ****  * @return Pointer to the destination array.
  56:Drivers/lvgl/src/widgets/calendar/../../core/../misc/../font/../draw/../misc/../stdlib/lv_string.h ****  */
  57:Drivers/lvgl/src/widgets/calendar/../../core/../misc/../font/../draw/../misc/../stdlib/lv_string.h **** void * lv_memmove(void * dst, const void * src, size_t len);
  58:Drivers/lvgl/src/widgets/calendar/../../core/../misc/../font/../draw/../misc/../stdlib/lv_string.h **** 
  59:Drivers/lvgl/src/widgets/calendar/../../core/../misc/../font/../draw/../misc/../stdlib/lv_string.h **** /**
  60:Drivers/lvgl/src/widgets/calendar/../../core/../misc/../font/../draw/../misc/../stdlib/lv_string.h ****  * @brief This function will compare two memory blocks
  61:Drivers/lvgl/src/widgets/calendar/../../core/../misc/../font/../draw/../misc/../stdlib/lv_string.h ****  * @param p1 Pointer to the first memory block
  62:Drivers/lvgl/src/widgets/calendar/../../core/../misc/../font/../draw/../misc/../stdlib/lv_string.h ****  * @param p2 Pointer to the second memory block
  63:Drivers/lvgl/src/widgets/calendar/../../core/../misc/../font/../draw/../misc/../stdlib/lv_string.h ****  * @param len Number of bytes to compare
  64:Drivers/lvgl/src/widgets/calendar/../../core/../misc/../font/../draw/../misc/../stdlib/lv_string.h ****  * @return The difference between the value of the first unmatching byte.
  65:Drivers/lvgl/src/widgets/calendar/../../core/../misc/../font/../draw/../misc/../stdlib/lv_string.h ****  */
  66:Drivers/lvgl/src/widgets/calendar/../../core/../misc/../font/../draw/../misc/../stdlib/lv_string.h **** int lv_memcmp(const void * p1, const void * p2, size_t len);
  67:Drivers/lvgl/src/widgets/calendar/../../core/../misc/../font/../draw/../misc/../stdlib/lv_string.h **** 
  68:Drivers/lvgl/src/widgets/calendar/../../core/../misc/../font/../draw/../misc/../stdlib/lv_string.h **** /**
ARM GAS  /var/folders/qx/2_175_4n2s19vhvtspjhb3qh0000gn/T//ccZZ70SA.s 			page 42


  69:Drivers/lvgl/src/widgets/calendar/../../core/../misc/../font/../draw/../misc/../stdlib/lv_string.h ****  * Same as `memset(dst, 0x00, len)`.
  70:Drivers/lvgl/src/widgets/calendar/../../core/../misc/../font/../draw/../misc/../stdlib/lv_string.h ****  * @param dst pointer to the destination buffer
  71:Drivers/lvgl/src/widgets/calendar/../../core/../misc/../font/../draw/../misc/../stdlib/lv_string.h ****  * @param len number of byte to set
  72:Drivers/lvgl/src/widgets/calendar/../../core/../misc/../font/../draw/../misc/../stdlib/lv_string.h ****  */
  73:Drivers/lvgl/src/widgets/calendar/../../core/../misc/../font/../draw/../misc/../stdlib/lv_string.h **** static inline void lv_memzero(void * dst, size_t len)
 1456              		.loc 2 73 20 view .LVU426
 1457              	.LBB6:
  74:Drivers/lvgl/src/widgets/calendar/../../core/../misc/../font/../draw/../misc/../stdlib/lv_string.h **** {
  75:Drivers/lvgl/src/widgets/calendar/../../core/../misc/../font/../draw/../misc/../stdlib/lv_string.h ****     lv_memset(dst, 0x00, len);
 1458              		.loc 2 75 5 view .LVU427
 1459 0004 4FF45272 		mov	r2, #840
 1460 0008 0021     		movs	r1, #0
 1461              	.LVL154:
 1462              		.loc 2 75 5 is_stmt 0 view .LVU428
 1463 000a 04F22110 		addw	r0, r4, #289
 1464              	.LVL155:
 1465              		.loc 2 75 5 view .LVU429
 1466 000e FFF7FEFF 		bl	lv_memset
 1467              	.LVL156:
 1468              		.loc 2 75 5 view .LVU430
 1469              	.LBE6:
 1470              	.LBE5:
 335:Drivers/lvgl/src/widgets/calendar/lv_calendar.c ****     uint8_t j = 0;
 1471              		.loc 1 335 5 is_stmt 1 view .LVU431
 336:Drivers/lvgl/src/widgets/calendar/lv_calendar.c ****     for(i = 0; i < 8 * 7; i++) {
 1472              		.loc 1 336 5 view .LVU432
 337:Drivers/lvgl/src/widgets/calendar/lv_calendar.c ****         /*Every 8th string is "\n"*/
 1473              		.loc 1 337 5 view .LVU433
 336:Drivers/lvgl/src/widgets/calendar/lv_calendar.c ****     for(i = 0; i < 8 * 7; i++) {
 1474              		.loc 1 336 13 is_stmt 0 view .LVU434
 1475 0012 0021     		movs	r1, #0
 337:Drivers/lvgl/src/widgets/calendar/lv_calendar.c ****         /*Every 8th string is "\n"*/
 1476              		.loc 1 337 11 view .LVU435
 1477 0014 0B46     		mov	r3, r1
 337:Drivers/lvgl/src/widgets/calendar/lv_calendar.c ****         /*Every 8th string is "\n"*/
 1478              		.loc 1 337 5 view .LVU436
 1479 0016 1FE0     		b	.L108
 1480              	.LVL157:
 1481              	.L110:
 342:Drivers/lvgl/src/widgets/calendar/lv_calendar.c ****             calendar->map[i] = day_names_def[i];
 1482              		.loc 1 342 14 is_stmt 1 view .LVU437
 342:Drivers/lvgl/src/widgets/calendar/lv_calendar.c ****             calendar->map[i] = day_names_def[i];
 1483              		.loc 1 342 16 is_stmt 0 view .LVU438
 1484 0018 062B     		cmp	r3, #6
 1485 001a 14D9     		bls	.L109
 346:Drivers/lvgl/src/widgets/calendar/lv_calendar.c ****             calendar->map[i] = calendar->nums[j];
 1486              		.loc 1 346 13 is_stmt 1 view .LVU439
 346:Drivers/lvgl/src/widgets/calendar/lv_calendar.c ****             calendar->map[i] = calendar->nums[j];
 1487              		.loc 1 346 34 is_stmt 0 view .LVU440
 1488 001c 01EB8102 		add	r2, r1, r1, lsl #2
 1489 0020 04EB8202 		add	r2, r4, r2, lsl #2
 1490 0024 4FF0780C 		mov	ip, #120
 1491 0028 82F821C1 		strb	ip, [r2, #289]
 347:Drivers/lvgl/src/widgets/calendar/lv_calendar.c ****             j++;
 1492              		.loc 1 347 13 is_stmt 1 view .LVU441
 347:Drivers/lvgl/src/widgets/calendar/lv_calendar.c ****             j++;
 1493              		.loc 1 347 32 is_stmt 0 view .LVU442
ARM GAS  /var/folders/qx/2_175_4n2s19vhvtspjhb3qh0000gn/T//ccZZ70SA.s 			page 43


 1494 002c 01EB8102 		add	r2, r1, r1, lsl #2
 1495 0030 9200     		lsls	r2, r2, #2
 1496 0032 02F59072 		add	r2, r2, #288
 1497 0036 2244     		add	r2, r2, r4
 1498 0038 0132     		adds	r2, r2, #1
 347:Drivers/lvgl/src/widgets/calendar/lv_calendar.c ****             j++;
 1499              		.loc 1 347 30 view .LVU443
 1500 003a 1030     		adds	r0, r0, #16
 1501 003c 44F82020 		str	r2, [r4, r0, lsl #2]
 348:Drivers/lvgl/src/widgets/calendar/lv_calendar.c ****         }
 1502              		.loc 1 348 13 is_stmt 1 view .LVU444
 348:Drivers/lvgl/src/widgets/calendar/lv_calendar.c ****         }
 1503              		.loc 1 348 14 is_stmt 0 view .LVU445
 1504 0040 0131     		adds	r1, r1, #1
 1505              	.LVL158:
 348:Drivers/lvgl/src/widgets/calendar/lv_calendar.c ****         }
 1506              		.loc 1 348 14 view .LVU446
 1507 0042 C9B2     		uxtb	r1, r1
 1508 0044 06E0     		b	.L111
 1509              	.LVL159:
 1510              	.L109:
 343:Drivers/lvgl/src/widgets/calendar/lv_calendar.c ****         }
 1511              		.loc 1 343 13 is_stmt 1 view .LVU447
 343:Drivers/lvgl/src/widgets/calendar/lv_calendar.c ****         }
 1512              		.loc 1 343 45 is_stmt 0 view .LVU448
 1513 0046 2B4A     		ldr	r2, .L116
 1514 0048 52F82300 		ldr	r0, [r2, r3, lsl #2]
 343:Drivers/lvgl/src/widgets/calendar/lv_calendar.c ****         }
 1515              		.loc 1 343 30 view .LVU449
 1516 004c 03F11002 		add	r2, r3, #16
 1517 0050 44F82200 		str	r0, [r4, r2, lsl #2]
 1518              	.LVL160:
 1519              	.L111:
 337:Drivers/lvgl/src/widgets/calendar/lv_calendar.c ****         /*Every 8th string is "\n"*/
 1520              		.loc 1 337 28 is_stmt 1 discriminator 2 view .LVU450
 1521 0054 0133     		adds	r3, r3, #1
 1522              	.LVL161:
 337:Drivers/lvgl/src/widgets/calendar/lv_calendar.c ****         /*Every 8th string is "\n"*/
 1523              		.loc 1 337 28 is_stmt 0 discriminator 2 view .LVU451
 1524 0056 DBB2     		uxtb	r3, r3
 1525              	.LVL162:
 1526              	.L108:
 337:Drivers/lvgl/src/widgets/calendar/lv_calendar.c ****         /*Every 8th string is "\n"*/
 1527              		.loc 1 337 18 is_stmt 1 discriminator 1 view .LVU452
 1528 0058 372B     		cmp	r3, #55
 1529 005a 0CD8     		bhi	.L115
 339:Drivers/lvgl/src/widgets/calendar/lv_calendar.c ****             calendar->map[i] = "\n";
 1530              		.loc 1 339 9 view .LVU453
 339:Drivers/lvgl/src/widgets/calendar/lv_calendar.c ****             calendar->map[i] = "\n";
 1531              		.loc 1 339 11 is_stmt 0 view .LVU454
 1532 005c 002B     		cmp	r3, #0
 1533 005e F2D0     		beq	.L109
 339:Drivers/lvgl/src/widgets/calendar/lv_calendar.c ****             calendar->map[i] = "\n";
 1534              		.loc 1 339 25 discriminator 1 view .LVU455
 1535 0060 1846     		mov	r0, r3
 1536 0062 5A1C     		adds	r2, r3, #1
 339:Drivers/lvgl/src/widgets/calendar/lv_calendar.c ****             calendar->map[i] = "\n";
ARM GAS  /var/folders/qx/2_175_4n2s19vhvtspjhb3qh0000gn/T//ccZZ70SA.s 			page 44


 1537              		.loc 1 339 19 discriminator 1 view .LVU456
 1538 0064 12F0070F 		tst	r2, #7
 1539 0068 D6D1     		bne	.L110
 340:Drivers/lvgl/src/widgets/calendar/lv_calendar.c ****         }
 1540              		.loc 1 340 13 is_stmt 1 view .LVU457
 340:Drivers/lvgl/src/widgets/calendar/lv_calendar.c ****         }
 1541              		.loc 1 340 30 is_stmt 0 view .LVU458
 1542 006a 03F11002 		add	r2, r3, #16
 1543 006e 2248     		ldr	r0, .L116+4
 1544 0070 44F82200 		str	r0, [r4, r2, lsl #2]
 1545 0074 EEE7     		b	.L111
 1546              	.L115:
 351:Drivers/lvgl/src/widgets/calendar/lv_calendar.c **** 
 1547              		.loc 1 351 5 is_stmt 1 view .LVU459
 351:Drivers/lvgl/src/widgets/calendar/lv_calendar.c **** 
 1548              		.loc 1 351 30 is_stmt 0 view .LVU460
 1549 0076 214B     		ldr	r3, .L116+8
 1550              	.LVL163:
 351:Drivers/lvgl/src/widgets/calendar/lv_calendar.c **** 
 1551              		.loc 1 351 30 view .LVU461
 1552 0078 C4F81C31 		str	r3, [r4, #284]
 353:Drivers/lvgl/src/widgets/calendar/lv_calendar.c ****     lv_buttonmatrix_set_map(calendar->btnm, calendar->map);
 1553              		.loc 1 353 5 is_stmt 1 view .LVU462
 353:Drivers/lvgl/src/widgets/calendar/lv_calendar.c ****     lv_buttonmatrix_set_map(calendar->btnm, calendar->map);
 1554              		.loc 1 353 22 is_stmt 0 view .LVU463
 1555 007c 2046     		mov	r0, r4
 1556 007e FFF7FEFF 		bl	lv_buttonmatrix_create
 1557              	.LVL164:
 353:Drivers/lvgl/src/widgets/calendar/lv_calendar.c ****     lv_buttonmatrix_set_map(calendar->btnm, calendar->map);
 1558              		.loc 1 353 20 discriminator 1 view .LVU464
 1559 0082 E062     		str	r0, [r4, #44]
 354:Drivers/lvgl/src/widgets/calendar/lv_calendar.c ****     lv_buttonmatrix_set_button_ctrl_all(calendar->btnm, LV_BUTTONMATRIX_CTRL_CLICK_TRIG | LV_BUTTON
 1560              		.loc 1 354 5 is_stmt 1 view .LVU465
 1561 0084 04F14001 		add	r1, r4, #64
 1562 0088 FFF7FEFF 		bl	lv_buttonmatrix_set_map
 1563              	.LVL165:
 355:Drivers/lvgl/src/widgets/calendar/lv_calendar.c ****     lv_obj_add_event_cb(calendar->btnm, draw_task_added_event_cb, LV_EVENT_DRAW_TASK_ADDED, NULL);
 1564              		.loc 1 355 5 view .LVU466
 1565 008c 4FF40871 		mov	r1, #544
 1566 0090 E06A     		ldr	r0, [r4, #44]
 1567 0092 FFF7FEFF 		bl	lv_buttonmatrix_set_button_ctrl_all
 1568              	.LVL166:
 356:Drivers/lvgl/src/widgets/calendar/lv_calendar.c ****     lv_obj_set_width(calendar->btnm, lv_pct(100));
 1569              		.loc 1 356 5 view .LVU467
 1570 0096 0023     		movs	r3, #0
 1571 0098 2222     		movs	r2, #34
 1572 009a 1949     		ldr	r1, .L116+12
 1573 009c E06A     		ldr	r0, [r4, #44]
 1574 009e FFF7FEFF 		bl	lv_obj_add_event_cb
 1575              	.LVL167:
 357:Drivers/lvgl/src/widgets/calendar/lv_calendar.c ****     lv_obj_add_flag(calendar->btnm, LV_OBJ_FLAG_EVENT_BUBBLE | LV_OBJ_FLAG_SEND_DRAW_TASK_EVENTS);
 1576              		.loc 1 357 5 view .LVU468
 1577 00a2 E56A     		ldr	r5, [r4, #44]
 1578 00a4 6420     		movs	r0, #100
 1579 00a6 FFF7FEFF 		bl	lv_pct
 1580              	.LVL168:
 1581 00aa 0146     		mov	r1, r0
ARM GAS  /var/folders/qx/2_175_4n2s19vhvtspjhb3qh0000gn/T//ccZZ70SA.s 			page 45


 357:Drivers/lvgl/src/widgets/calendar/lv_calendar.c ****     lv_obj_add_flag(calendar->btnm, LV_OBJ_FLAG_EVENT_BUBBLE | LV_OBJ_FLAG_SEND_DRAW_TASK_EVENTS);
 1582              		.loc 1 357 5 is_stmt 0 discriminator 1 view .LVU469
 1583 00ac 2846     		mov	r0, r5
 1584 00ae FFF7FEFF 		bl	lv_obj_set_width
 1585              	.LVL169:
 358:Drivers/lvgl/src/widgets/calendar/lv_calendar.c **** 
 1586              		.loc 1 358 5 is_stmt 1 view .LVU470
 1587 00b2 4FF40421 		mov	r1, #540672
 1588 00b6 E06A     		ldr	r0, [r4, #44]
 1589 00b8 FFF7FEFF 		bl	lv_obj_add_flag
 1590              	.LVL170:
 360:Drivers/lvgl/src/widgets/calendar/lv_calendar.c ****     lv_obj_set_flex_grow(calendar->btnm, 1);
 1591              		.loc 1 360 5 view .LVU471
 1592 00bc 0121     		movs	r1, #1
 1593 00be 2046     		mov	r0, r4
 1594 00c0 FFF7FEFF 		bl	lv_obj_set_flex_flow
 1595              	.LVL171:
 361:Drivers/lvgl/src/widgets/calendar/lv_calendar.c **** 
 1596              		.loc 1 361 5 view .LVU472
 1597 00c4 0121     		movs	r1, #1
 1598 00c6 E06A     		ldr	r0, [r4, #44]
 1599 00c8 FFF7FEFF 		bl	lv_obj_set_flex_grow
 1600              	.LVL172:
 363:Drivers/lvgl/src/widgets/calendar/lv_calendar.c **** 
 1601              		.loc 1 363 5 view .LVU473
 1602 00cc 0022     		movs	r2, #0
 1603 00ce 0221     		movs	r1, #2
 1604 00d0 E06A     		ldr	r0, [r4, #44]
 1605 00d2 FFF7FEFF 		bl	lv_obj_set_style_text_align
 1606              	.LVL173:
 365:Drivers/lvgl/src/widgets/calendar/lv_calendar.c ****     lv_calendar_set_today_date(obj, 2024, 1, 1);
 1607              		.loc 1 365 5 view .LVU474
 1608 00d6 0122     		movs	r2, #1
 1609 00d8 4FF4FD61 		mov	r1, #2024
 1610 00dc 2046     		mov	r0, r4
 1611 00de FFF7FEFF 		bl	lv_calendar_set_month_shown
 1612              	.LVL174:
 366:Drivers/lvgl/src/widgets/calendar/lv_calendar.c **** }
 1613              		.loc 1 366 5 view .LVU475
 1614 00e2 0123     		movs	r3, #1
 1615 00e4 1A46     		mov	r2, r3
 1616 00e6 4FF4FD61 		mov	r1, #2024
 1617 00ea 2046     		mov	r0, r4
 1618 00ec FFF7FEFF 		bl	lv_calendar_set_today_date
 1619              	.LVL175:
 367:Drivers/lvgl/src/widgets/calendar/lv_calendar.c **** 
 1620              		.loc 1 367 1 is_stmt 0 view .LVU476
 1621 00f0 38BD     		pop	{r3, r4, r5, pc}
 1622              	.LVL176:
 1623              	.L117:
 367:Drivers/lvgl/src/widgets/calendar/lv_calendar.c **** 
 1624              		.loc 1 367 1 view .LVU477
 1625 00f2 00BF     		.align	2
 1626              	.L116:
 1627 00f4 00000000 		.word	day_names_def
 1628 00f8 00000000 		.word	.LC1
 1629 00fc 04000000 		.word	.LC2
ARM GAS  /var/folders/qx/2_175_4n2s19vhvtspjhb3qh0000gn/T//ccZZ70SA.s 			page 46


 1630 0100 00000000 		.word	draw_task_added_event_cb
 1631              		.cfi_endproc
 1632              	.LFE218:
 1634              		.section	.text.lv_calendar_set_shown_year,"ax",%progbits
 1635              		.align	1
 1636              		.global	lv_calendar_set_shown_year
 1637              		.syntax unified
 1638              		.thumb
 1639              		.thumb_func
 1641              	lv_calendar_set_shown_year:
 1642              	.LVL177:
 1643              	.LFB210:
 244:Drivers/lvgl/src/widgets/calendar/lv_calendar.c ****     LV_ASSERT_OBJ(obj, MY_CLASS);
 1644              		.loc 1 244 1 is_stmt 1 view -0
 1645              		.cfi_startproc
 1646              		@ args = 0, pretend = 0, frame = 0
 1647              		@ frame_needed = 0, uses_anonymous_args = 0
 245:Drivers/lvgl/src/widgets/calendar/lv_calendar.c ****     lv_calendar_t * calendar = (lv_calendar_t *)obj;
 1648              		.loc 1 245 5 view .LVU479
 245:Drivers/lvgl/src/widgets/calendar/lv_calendar.c ****     lv_calendar_t * calendar = (lv_calendar_t *)obj;
 1649              		.loc 1 245 5 view .LVU480
 1650 0000 28B1     		cbz	r0, .L120
 244:Drivers/lvgl/src/widgets/calendar/lv_calendar.c ****     LV_ASSERT_OBJ(obj, MY_CLASS);
 1651              		.loc 1 244 1 is_stmt 0 view .LVU481
 1652 0002 08B5     		push	{r3, lr}
 1653              	.LCFI24:
 1654              		.cfi_def_cfa_offset 8
 1655              		.cfi_offset 3, -8
 1656              		.cfi_offset 14, -4
 245:Drivers/lvgl/src/widgets/calendar/lv_calendar.c ****     lv_calendar_t * calendar = (lv_calendar_t *)obj;
 1657              		.loc 1 245 5 is_stmt 1 view .LVU482
 245:Drivers/lvgl/src/widgets/calendar/lv_calendar.c ****     lv_calendar_t * calendar = (lv_calendar_t *)obj;
 1658              		.loc 1 245 33 view .LVU483
 246:Drivers/lvgl/src/widgets/calendar/lv_calendar.c ****     lv_calendar_set_month_shown(obj, year, calendar->showed_date.month);
 1659              		.loc 1 246 5 view .LVU484
 1660              	.LVL178:
 247:Drivers/lvgl/src/widgets/calendar/lv_calendar.c **** 
 1661              		.loc 1 247 5 view .LVU485
 1662 0004 90F83620 		ldrb	r2, [r0, #54]	@ zero_extendqisi2
 1663 0008 FFF7FEFF 		bl	lv_calendar_set_month_shown
 1664              	.LVL179:
 249:Drivers/lvgl/src/widgets/calendar/lv_calendar.c **** 
 1665              		.loc 1 249 1 is_stmt 0 view .LVU486
 1666 000c 08BD     		pop	{r3, pc}
 1667              	.LVL180:
 1668              	.L120:
 1669              	.LCFI25:
 1670              		.cfi_def_cfa_offset 0
 1671              		.cfi_restore 3
 1672              		.cfi_restore 14
 245:Drivers/lvgl/src/widgets/calendar/lv_calendar.c ****     lv_calendar_t * calendar = (lv_calendar_t *)obj;
 1673              		.loc 1 245 5 is_stmt 1 view .LVU487
 245:Drivers/lvgl/src/widgets/calendar/lv_calendar.c ****     lv_calendar_t * calendar = (lv_calendar_t *)obj;
 1674              		.loc 1 245 5 view .LVU488
 245:Drivers/lvgl/src/widgets/calendar/lv_calendar.c ****     lv_calendar_t * calendar = (lv_calendar_t *)obj;
 1675              		.loc 1 245 5 view .LVU489
 245:Drivers/lvgl/src/widgets/calendar/lv_calendar.c ****     lv_calendar_t * calendar = (lv_calendar_t *)obj;
ARM GAS  /var/folders/qx/2_175_4n2s19vhvtspjhb3qh0000gn/T//ccZZ70SA.s 			page 47


 1676              		.loc 1 245 5 view .LVU490
 245:Drivers/lvgl/src/widgets/calendar/lv_calendar.c ****     lv_calendar_t * calendar = (lv_calendar_t *)obj;
 1677              		.loc 1 245 5 view .LVU491
 1678 000e FEE7     		b	.L120
 1679              		.cfi_endproc
 1680              	.LFE210:
 1682              		.section	.text.lv_calendar_set_shown_month,"ax",%progbits
 1683              		.align	1
 1684              		.global	lv_calendar_set_shown_month
 1685              		.syntax unified
 1686              		.thumb
 1687              		.thumb_func
 1689              	lv_calendar_set_shown_month:
 1690              	.LVL181:
 1691              	.LFB211:
 252:Drivers/lvgl/src/widgets/calendar/lv_calendar.c ****     LV_ASSERT_OBJ(obj, MY_CLASS);
 1692              		.loc 1 252 1 view -0
 1693              		.cfi_startproc
 1694              		@ args = 0, pretend = 0, frame = 0
 1695              		@ frame_needed = 0, uses_anonymous_args = 0
 253:Drivers/lvgl/src/widgets/calendar/lv_calendar.c ****     lv_calendar_t * calendar = (lv_calendar_t *)obj;
 1696              		.loc 1 253 5 view .LVU493
 253:Drivers/lvgl/src/widgets/calendar/lv_calendar.c ****     lv_calendar_t * calendar = (lv_calendar_t *)obj;
 1697              		.loc 1 253 5 view .LVU494
 1698 0000 28B1     		cbz	r0, .L125
 252:Drivers/lvgl/src/widgets/calendar/lv_calendar.c ****     LV_ASSERT_OBJ(obj, MY_CLASS);
 1699              		.loc 1 252 1 is_stmt 0 view .LVU495
 1700 0002 08B5     		push	{r3, lr}
 1701              	.LCFI26:
 1702              		.cfi_def_cfa_offset 8
 1703              		.cfi_offset 3, -8
 1704              		.cfi_offset 14, -4
 1705 0004 0A46     		mov	r2, r1
 253:Drivers/lvgl/src/widgets/calendar/lv_calendar.c ****     lv_calendar_t * calendar = (lv_calendar_t *)obj;
 1706              		.loc 1 253 5 is_stmt 1 view .LVU496
 253:Drivers/lvgl/src/widgets/calendar/lv_calendar.c ****     lv_calendar_t * calendar = (lv_calendar_t *)obj;
 1707              		.loc 1 253 33 view .LVU497
 254:Drivers/lvgl/src/widgets/calendar/lv_calendar.c ****     lv_calendar_set_month_shown(obj, calendar->showed_date.year, month);
 1708              		.loc 1 254 5 view .LVU498
 1709              	.LVL182:
 255:Drivers/lvgl/src/widgets/calendar/lv_calendar.c **** }
 1710              		.loc 1 255 5 view .LVU499
 1711 0006 818E     		ldrh	r1, [r0, #52]
 1712              	.LVL183:
 255:Drivers/lvgl/src/widgets/calendar/lv_calendar.c **** }
 1713              		.loc 1 255 5 is_stmt 0 view .LVU500
 1714 0008 FFF7FEFF 		bl	lv_calendar_set_month_shown
 1715              	.LVL184:
 256:Drivers/lvgl/src/widgets/calendar/lv_calendar.c **** 
 1716              		.loc 1 256 1 view .LVU501
 1717 000c 08BD     		pop	{r3, pc}
 1718              	.LVL185:
 1719              	.L125:
 1720              	.LCFI27:
 1721              		.cfi_def_cfa_offset 0
 1722              		.cfi_restore 3
 1723              		.cfi_restore 14
ARM GAS  /var/folders/qx/2_175_4n2s19vhvtspjhb3qh0000gn/T//ccZZ70SA.s 			page 48


 253:Drivers/lvgl/src/widgets/calendar/lv_calendar.c ****     lv_calendar_t * calendar = (lv_calendar_t *)obj;
 1724              		.loc 1 253 5 is_stmt 1 view .LVU502
 253:Drivers/lvgl/src/widgets/calendar/lv_calendar.c ****     lv_calendar_t * calendar = (lv_calendar_t *)obj;
 1725              		.loc 1 253 5 view .LVU503
 253:Drivers/lvgl/src/widgets/calendar/lv_calendar.c ****     lv_calendar_t * calendar = (lv_calendar_t *)obj;
 1726              		.loc 1 253 5 view .LVU504
 253:Drivers/lvgl/src/widgets/calendar/lv_calendar.c ****     lv_calendar_t * calendar = (lv_calendar_t *)obj;
 1727              		.loc 1 253 5 view .LVU505
 253:Drivers/lvgl/src/widgets/calendar/lv_calendar.c ****     lv_calendar_t * calendar = (lv_calendar_t *)obj;
 1728              		.loc 1 253 5 view .LVU506
 1729 000e FEE7     		b	.L125
 1730              		.cfi_endproc
 1731              	.LFE211:
 1733              		.section	.text.lv_calendar_get_btnmatrix,"ax",%progbits
 1734              		.align	1
 1735              		.global	lv_calendar_get_btnmatrix
 1736              		.syntax unified
 1737              		.thumb
 1738              		.thumb_func
 1740              	lv_calendar_get_btnmatrix:
 1741              	.LVL186:
 1742              	.LFB212:
 263:Drivers/lvgl/src/widgets/calendar/lv_calendar.c ****     LV_ASSERT_OBJ(obj, MY_CLASS);
 1743              		.loc 1 263 1 view -0
 1744              		.cfi_startproc
 1745              		@ args = 0, pretend = 0, frame = 0
 1746              		@ frame_needed = 0, uses_anonymous_args = 0
 1747              		@ link register save eliminated.
 264:Drivers/lvgl/src/widgets/calendar/lv_calendar.c ****     const lv_calendar_t * calendar = (lv_calendar_t *)obj;
 1748              		.loc 1 264 5 view .LVU508
 264:Drivers/lvgl/src/widgets/calendar/lv_calendar.c ****     const lv_calendar_t * calendar = (lv_calendar_t *)obj;
 1749              		.loc 1 264 5 view .LVU509
 1750 0000 08B1     		cbz	r0, .L130
 264:Drivers/lvgl/src/widgets/calendar/lv_calendar.c ****     const lv_calendar_t * calendar = (lv_calendar_t *)obj;
 1751              		.loc 1 264 5 view .LVU510
 264:Drivers/lvgl/src/widgets/calendar/lv_calendar.c ****     const lv_calendar_t * calendar = (lv_calendar_t *)obj;
 1752              		.loc 1 264 33 view .LVU511
 265:Drivers/lvgl/src/widgets/calendar/lv_calendar.c ****     return calendar->btnm;
 1753              		.loc 1 265 5 view .LVU512
 1754              	.LVL187:
 266:Drivers/lvgl/src/widgets/calendar/lv_calendar.c **** }
 1755              		.loc 1 266 5 view .LVU513
 267:Drivers/lvgl/src/widgets/calendar/lv_calendar.c **** 
 1756              		.loc 1 267 1 is_stmt 0 view .LVU514
 1757 0002 C06A     		ldr	r0, [r0, #44]
 1758              	.LVL188:
 267:Drivers/lvgl/src/widgets/calendar/lv_calendar.c **** 
 1759              		.loc 1 267 1 view .LVU515
 1760 0004 7047     		bx	lr
 1761              	.LVL189:
 1762              	.L130:
 264:Drivers/lvgl/src/widgets/calendar/lv_calendar.c ****     const lv_calendar_t * calendar = (lv_calendar_t *)obj;
 1763              		.loc 1 264 5 is_stmt 1 view .LVU516
 264:Drivers/lvgl/src/widgets/calendar/lv_calendar.c ****     const lv_calendar_t * calendar = (lv_calendar_t *)obj;
 1764              		.loc 1 264 5 view .LVU517
 264:Drivers/lvgl/src/widgets/calendar/lv_calendar.c ****     const lv_calendar_t * calendar = (lv_calendar_t *)obj;
 1765              		.loc 1 264 5 view .LVU518
ARM GAS  /var/folders/qx/2_175_4n2s19vhvtspjhb3qh0000gn/T//ccZZ70SA.s 			page 49


 264:Drivers/lvgl/src/widgets/calendar/lv_calendar.c ****     const lv_calendar_t * calendar = (lv_calendar_t *)obj;
 1766              		.loc 1 264 5 view .LVU519
 264:Drivers/lvgl/src/widgets/calendar/lv_calendar.c ****     const lv_calendar_t * calendar = (lv_calendar_t *)obj;
 1767              		.loc 1 264 5 view .LVU520
 1768 0006 FEE7     		b	.L130
 1769              		.cfi_endproc
 1770              	.LFE212:
 1772              		.section	.text.lv_calendar_get_today_date,"ax",%progbits
 1773              		.align	1
 1774              		.global	lv_calendar_get_today_date
 1775              		.syntax unified
 1776              		.thumb
 1777              		.thumb_func
 1779              	lv_calendar_get_today_date:
 1780              	.LVL190:
 1781              	.LFB213:
 270:Drivers/lvgl/src/widgets/calendar/lv_calendar.c ****     LV_ASSERT_OBJ(obj, MY_CLASS);
 1782              		.loc 1 270 1 view -0
 1783              		.cfi_startproc
 1784              		@ args = 0, pretend = 0, frame = 0
 1785              		@ frame_needed = 0, uses_anonymous_args = 0
 1786              		@ link register save eliminated.
 271:Drivers/lvgl/src/widgets/calendar/lv_calendar.c ****     const lv_calendar_t * calendar = (lv_calendar_t *)obj;
 1787              		.loc 1 271 5 view .LVU522
 271:Drivers/lvgl/src/widgets/calendar/lv_calendar.c ****     const lv_calendar_t * calendar = (lv_calendar_t *)obj;
 1788              		.loc 1 271 5 view .LVU523
 1789 0000 08B1     		cbz	r0, .L133
 271:Drivers/lvgl/src/widgets/calendar/lv_calendar.c ****     const lv_calendar_t * calendar = (lv_calendar_t *)obj;
 1790              		.loc 1 271 5 view .LVU524
 271:Drivers/lvgl/src/widgets/calendar/lv_calendar.c ****     const lv_calendar_t * calendar = (lv_calendar_t *)obj;
 1791              		.loc 1 271 33 view .LVU525
 272:Drivers/lvgl/src/widgets/calendar/lv_calendar.c **** 
 1792              		.loc 1 272 5 view .LVU526
 1793              	.LVL191:
 274:Drivers/lvgl/src/widgets/calendar/lv_calendar.c **** }
 1794              		.loc 1 274 5 view .LVU527
 275:Drivers/lvgl/src/widgets/calendar/lv_calendar.c **** 
 1795              		.loc 1 275 1 is_stmt 0 view .LVU528
 1796 0002 3030     		adds	r0, r0, #48
 1797              	.LVL192:
 275:Drivers/lvgl/src/widgets/calendar/lv_calendar.c **** 
 1798              		.loc 1 275 1 view .LVU529
 1799 0004 7047     		bx	lr
 1800              	.LVL193:
 1801              	.L133:
 271:Drivers/lvgl/src/widgets/calendar/lv_calendar.c ****     const lv_calendar_t * calendar = (lv_calendar_t *)obj;
 1802              		.loc 1 271 5 is_stmt 1 view .LVU530
 271:Drivers/lvgl/src/widgets/calendar/lv_calendar.c ****     const lv_calendar_t * calendar = (lv_calendar_t *)obj;
 1803              		.loc 1 271 5 view .LVU531
 271:Drivers/lvgl/src/widgets/calendar/lv_calendar.c ****     const lv_calendar_t * calendar = (lv_calendar_t *)obj;
 1804              		.loc 1 271 5 view .LVU532
 271:Drivers/lvgl/src/widgets/calendar/lv_calendar.c ****     const lv_calendar_t * calendar = (lv_calendar_t *)obj;
 1805              		.loc 1 271 5 view .LVU533
 271:Drivers/lvgl/src/widgets/calendar/lv_calendar.c ****     const lv_calendar_t * calendar = (lv_calendar_t *)obj;
 1806              		.loc 1 271 5 view .LVU534
 1807 0006 FEE7     		b	.L133
 1808              		.cfi_endproc
ARM GAS  /var/folders/qx/2_175_4n2s19vhvtspjhb3qh0000gn/T//ccZZ70SA.s 			page 50


 1809              	.LFE213:
 1811              		.section	.text.lv_calendar_get_showed_date,"ax",%progbits
 1812              		.align	1
 1813              		.global	lv_calendar_get_showed_date
 1814              		.syntax unified
 1815              		.thumb
 1816              		.thumb_func
 1818              	lv_calendar_get_showed_date:
 1819              	.LVL194:
 1820              	.LFB214:
 278:Drivers/lvgl/src/widgets/calendar/lv_calendar.c ****     LV_ASSERT_OBJ(obj, MY_CLASS);
 1821              		.loc 1 278 1 view -0
 1822              		.cfi_startproc
 1823              		@ args = 0, pretend = 0, frame = 0
 1824              		@ frame_needed = 0, uses_anonymous_args = 0
 1825              		@ link register save eliminated.
 279:Drivers/lvgl/src/widgets/calendar/lv_calendar.c ****     const lv_calendar_t * calendar = (lv_calendar_t *)obj;
 1826              		.loc 1 279 5 view .LVU536
 279:Drivers/lvgl/src/widgets/calendar/lv_calendar.c ****     const lv_calendar_t * calendar = (lv_calendar_t *)obj;
 1827              		.loc 1 279 5 view .LVU537
 1828 0000 08B1     		cbz	r0, .L136
 279:Drivers/lvgl/src/widgets/calendar/lv_calendar.c ****     const lv_calendar_t * calendar = (lv_calendar_t *)obj;
 1829              		.loc 1 279 5 view .LVU538
 279:Drivers/lvgl/src/widgets/calendar/lv_calendar.c ****     const lv_calendar_t * calendar = (lv_calendar_t *)obj;
 1830              		.loc 1 279 33 view .LVU539
 280:Drivers/lvgl/src/widgets/calendar/lv_calendar.c **** 
 1831              		.loc 1 280 5 view .LVU540
 1832              	.LVL195:
 282:Drivers/lvgl/src/widgets/calendar/lv_calendar.c **** }
 1833              		.loc 1 282 5 view .LVU541
 283:Drivers/lvgl/src/widgets/calendar/lv_calendar.c **** 
 1834              		.loc 1 283 1 is_stmt 0 view .LVU542
 1835 0002 3430     		adds	r0, r0, #52
 1836              	.LVL196:
 283:Drivers/lvgl/src/widgets/calendar/lv_calendar.c **** 
 1837              		.loc 1 283 1 view .LVU543
 1838 0004 7047     		bx	lr
 1839              	.LVL197:
 1840              	.L136:
 279:Drivers/lvgl/src/widgets/calendar/lv_calendar.c ****     const lv_calendar_t * calendar = (lv_calendar_t *)obj;
 1841              		.loc 1 279 5 is_stmt 1 view .LVU544
 279:Drivers/lvgl/src/widgets/calendar/lv_calendar.c ****     const lv_calendar_t * calendar = (lv_calendar_t *)obj;
 1842              		.loc 1 279 5 view .LVU545
 279:Drivers/lvgl/src/widgets/calendar/lv_calendar.c ****     const lv_calendar_t * calendar = (lv_calendar_t *)obj;
 1843              		.loc 1 279 5 view .LVU546
 279:Drivers/lvgl/src/widgets/calendar/lv_calendar.c ****     const lv_calendar_t * calendar = (lv_calendar_t *)obj;
 1844              		.loc 1 279 5 view .LVU547
 279:Drivers/lvgl/src/widgets/calendar/lv_calendar.c ****     const lv_calendar_t * calendar = (lv_calendar_t *)obj;
 1845              		.loc 1 279 5 view .LVU548
 1846 0006 FEE7     		b	.L136
 1847              		.cfi_endproc
 1848              	.LFE214:
 1850              		.section	.text.lv_calendar_get_highlighted_dates,"ax",%progbits
 1851              		.align	1
 1852              		.global	lv_calendar_get_highlighted_dates
 1853              		.syntax unified
 1854              		.thumb
ARM GAS  /var/folders/qx/2_175_4n2s19vhvtspjhb3qh0000gn/T//ccZZ70SA.s 			page 51


 1855              		.thumb_func
 1857              	lv_calendar_get_highlighted_dates:
 1858              	.LVL198:
 1859              	.LFB215:
 286:Drivers/lvgl/src/widgets/calendar/lv_calendar.c ****     LV_ASSERT_OBJ(obj, MY_CLASS);
 1860              		.loc 1 286 1 view -0
 1861              		.cfi_startproc
 1862              		@ args = 0, pretend = 0, frame = 0
 1863              		@ frame_needed = 0, uses_anonymous_args = 0
 1864              		@ link register save eliminated.
 287:Drivers/lvgl/src/widgets/calendar/lv_calendar.c ****     lv_calendar_t * calendar = (lv_calendar_t *)obj;
 1865              		.loc 1 287 5 view .LVU550
 287:Drivers/lvgl/src/widgets/calendar/lv_calendar.c ****     lv_calendar_t * calendar = (lv_calendar_t *)obj;
 1866              		.loc 1 287 5 view .LVU551
 1867 0000 08B1     		cbz	r0, .L139
 287:Drivers/lvgl/src/widgets/calendar/lv_calendar.c ****     lv_calendar_t * calendar = (lv_calendar_t *)obj;
 1868              		.loc 1 287 5 view .LVU552
 287:Drivers/lvgl/src/widgets/calendar/lv_calendar.c ****     lv_calendar_t * calendar = (lv_calendar_t *)obj;
 1869              		.loc 1 287 33 view .LVU553
 288:Drivers/lvgl/src/widgets/calendar/lv_calendar.c **** 
 1870              		.loc 1 288 5 view .LVU554
 1871              	.LVL199:
 290:Drivers/lvgl/src/widgets/calendar/lv_calendar.c **** }
 1872              		.loc 1 290 5 view .LVU555
 291:Drivers/lvgl/src/widgets/calendar/lv_calendar.c **** 
 1873              		.loc 1 291 1 is_stmt 0 view .LVU556
 1874 0002 806B     		ldr	r0, [r0, #56]
 1875              	.LVL200:
 291:Drivers/lvgl/src/widgets/calendar/lv_calendar.c **** 
 1876              		.loc 1 291 1 view .LVU557
 1877 0004 7047     		bx	lr
 1878              	.LVL201:
 1879              	.L139:
 287:Drivers/lvgl/src/widgets/calendar/lv_calendar.c ****     lv_calendar_t * calendar = (lv_calendar_t *)obj;
 1880              		.loc 1 287 5 is_stmt 1 view .LVU558
 287:Drivers/lvgl/src/widgets/calendar/lv_calendar.c ****     lv_calendar_t * calendar = (lv_calendar_t *)obj;
 1881              		.loc 1 287 5 view .LVU559
 287:Drivers/lvgl/src/widgets/calendar/lv_calendar.c ****     lv_calendar_t * calendar = (lv_calendar_t *)obj;
 1882              		.loc 1 287 5 view .LVU560
 287:Drivers/lvgl/src/widgets/calendar/lv_calendar.c ****     lv_calendar_t * calendar = (lv_calendar_t *)obj;
 1883              		.loc 1 287 5 view .LVU561
 287:Drivers/lvgl/src/widgets/calendar/lv_calendar.c ****     lv_calendar_t * calendar = (lv_calendar_t *)obj;
 1884              		.loc 1 287 5 view .LVU562
 1885 0006 FEE7     		b	.L139
 1886              		.cfi_endproc
 1887              	.LFE215:
 1889              		.section	.text.lv_calendar_get_highlighted_dates_num,"ax",%progbits
 1890              		.align	1
 1891              		.global	lv_calendar_get_highlighted_dates_num
 1892              		.syntax unified
 1893              		.thumb
 1894              		.thumb_func
 1896              	lv_calendar_get_highlighted_dates_num:
 1897              	.LVL202:
 1898              	.LFB216:
 294:Drivers/lvgl/src/widgets/calendar/lv_calendar.c ****     LV_ASSERT_OBJ(obj, MY_CLASS);
 1899              		.loc 1 294 1 view -0
ARM GAS  /var/folders/qx/2_175_4n2s19vhvtspjhb3qh0000gn/T//ccZZ70SA.s 			page 52


 1900              		.cfi_startproc
 1901              		@ args = 0, pretend = 0, frame = 0
 1902              		@ frame_needed = 0, uses_anonymous_args = 0
 1903              		@ link register save eliminated.
 295:Drivers/lvgl/src/widgets/calendar/lv_calendar.c ****     lv_calendar_t * calendar = (lv_calendar_t *)obj;
 1904              		.loc 1 295 5 view .LVU564
 295:Drivers/lvgl/src/widgets/calendar/lv_calendar.c ****     lv_calendar_t * calendar = (lv_calendar_t *)obj;
 1905              		.loc 1 295 5 view .LVU565
 1906 0000 08B1     		cbz	r0, .L142
 295:Drivers/lvgl/src/widgets/calendar/lv_calendar.c ****     lv_calendar_t * calendar = (lv_calendar_t *)obj;
 1907              		.loc 1 295 5 view .LVU566
 295:Drivers/lvgl/src/widgets/calendar/lv_calendar.c ****     lv_calendar_t * calendar = (lv_calendar_t *)obj;
 1908              		.loc 1 295 33 view .LVU567
 296:Drivers/lvgl/src/widgets/calendar/lv_calendar.c **** 
 1909              		.loc 1 296 5 view .LVU568
 1910              	.LVL203:
 298:Drivers/lvgl/src/widgets/calendar/lv_calendar.c **** }
 1911              		.loc 1 298 5 view .LVU569
 299:Drivers/lvgl/src/widgets/calendar/lv_calendar.c **** 
 1912              		.loc 1 299 1 is_stmt 0 view .LVU570
 1913 0002 C06B     		ldr	r0, [r0, #60]
 1914              	.LVL204:
 299:Drivers/lvgl/src/widgets/calendar/lv_calendar.c **** 
 1915              		.loc 1 299 1 view .LVU571
 1916 0004 7047     		bx	lr
 1917              	.LVL205:
 1918              	.L142:
 295:Drivers/lvgl/src/widgets/calendar/lv_calendar.c ****     lv_calendar_t * calendar = (lv_calendar_t *)obj;
 1919              		.loc 1 295 5 is_stmt 1 view .LVU572
 295:Drivers/lvgl/src/widgets/calendar/lv_calendar.c ****     lv_calendar_t * calendar = (lv_calendar_t *)obj;
 1920              		.loc 1 295 5 view .LVU573
 295:Drivers/lvgl/src/widgets/calendar/lv_calendar.c ****     lv_calendar_t * calendar = (lv_calendar_t *)obj;
 1921              		.loc 1 295 5 view .LVU574
 295:Drivers/lvgl/src/widgets/calendar/lv_calendar.c ****     lv_calendar_t * calendar = (lv_calendar_t *)obj;
 1922              		.loc 1 295 5 view .LVU575
 295:Drivers/lvgl/src/widgets/calendar/lv_calendar.c ****     lv_calendar_t * calendar = (lv_calendar_t *)obj;
 1923              		.loc 1 295 5 view .LVU576
 1924 0006 FEE7     		b	.L142
 1925              		.cfi_endproc
 1926              	.LFE216:
 1928              		.section	.text.lv_calendar_get_pressed_date,"ax",%progbits
 1929              		.align	1
 1930              		.global	lv_calendar_get_pressed_date
 1931              		.syntax unified
 1932              		.thumb
 1933              		.thumb_func
 1935              	lv_calendar_get_pressed_date:
 1936              	.LVL206:
 1937              	.LFB217:
 302:Drivers/lvgl/src/widgets/calendar/lv_calendar.c ****     LV_ASSERT_OBJ(obj, MY_CLASS);
 1938              		.loc 1 302 1 view -0
 1939              		.cfi_startproc
 1940              		@ args = 0, pretend = 0, frame = 0
 1941              		@ frame_needed = 0, uses_anonymous_args = 0
 303:Drivers/lvgl/src/widgets/calendar/lv_calendar.c ****     lv_calendar_t * calendar = (lv_calendar_t *)obj;
 1942              		.loc 1 303 5 view .LVU578
 303:Drivers/lvgl/src/widgets/calendar/lv_calendar.c ****     lv_calendar_t * calendar = (lv_calendar_t *)obj;
ARM GAS  /var/folders/qx/2_175_4n2s19vhvtspjhb3qh0000gn/T//ccZZ70SA.s 			page 53


 1943              		.loc 1 303 5 view .LVU579
 1944 0000 E8B1     		cbz	r0, .L145
 302:Drivers/lvgl/src/widgets/calendar/lv_calendar.c ****     LV_ASSERT_OBJ(obj, MY_CLASS);
 1945              		.loc 1 302 1 is_stmt 0 view .LVU580
 1946 0002 70B5     		push	{r4, r5, r6, lr}
 1947              	.LCFI28:
 1948              		.cfi_def_cfa_offset 16
 1949              		.cfi_offset 4, -16
 1950              		.cfi_offset 5, -12
 1951              		.cfi_offset 6, -8
 1952              		.cfi_offset 14, -4
 1953 0004 0C46     		mov	r4, r1
 1954 0006 0546     		mov	r5, r0
 303:Drivers/lvgl/src/widgets/calendar/lv_calendar.c ****     lv_calendar_t * calendar = (lv_calendar_t *)obj;
 1955              		.loc 1 303 5 is_stmt 1 view .LVU581
 303:Drivers/lvgl/src/widgets/calendar/lv_calendar.c ****     lv_calendar_t * calendar = (lv_calendar_t *)obj;
 1956              		.loc 1 303 33 view .LVU582
 304:Drivers/lvgl/src/widgets/calendar/lv_calendar.c **** 
 1957              		.loc 1 304 5 view .LVU583
 1958              	.LVL207:
 306:Drivers/lvgl/src/widgets/calendar/lv_calendar.c ****     if(d == LV_BUTTONMATRIX_BUTTON_NONE) {
 1959              		.loc 1 306 5 view .LVU584
 306:Drivers/lvgl/src/widgets/calendar/lv_calendar.c ****     if(d == LV_BUTTONMATRIX_BUTTON_NONE) {
 1960              		.loc 1 306 18 is_stmt 0 view .LVU585
 1961 0008 C06A     		ldr	r0, [r0, #44]
 1962              	.LVL208:
 306:Drivers/lvgl/src/widgets/calendar/lv_calendar.c ****     if(d == LV_BUTTONMATRIX_BUTTON_NONE) {
 1963              		.loc 1 306 18 view .LVU586
 1964 000a FFF7FEFF 		bl	lv_buttonmatrix_get_selected_button
 1965              	.LVL209:
 307:Drivers/lvgl/src/widgets/calendar/lv_calendar.c ****         date->year = 0;
 1966              		.loc 1 307 5 is_stmt 1 view .LVU587
 307:Drivers/lvgl/src/widgets/calendar/lv_calendar.c ****         date->year = 0;
 1967              		.loc 1 307 7 is_stmt 0 view .LVU588
 1968 000e 4FF6FF73 		movw	r3, #65535
 1969 0012 9842     		cmp	r0, r3
 1970 0014 14D0     		beq	.L152
 314:Drivers/lvgl/src/widgets/calendar/lv_calendar.c **** 
 1971              		.loc 1 314 5 is_stmt 1 view .LVU589
 314:Drivers/lvgl/src/widgets/calendar/lv_calendar.c **** 
 1972              		.loc 1 314 64 is_stmt 0 view .LVU590
 1973 0016 EE6A     		ldr	r6, [r5, #44]
 314:Drivers/lvgl/src/widgets/calendar/lv_calendar.c **** 
 1974              		.loc 1 314 24 view .LVU591
 1975 0018 3046     		mov	r0, r6
 1976              	.LVL210:
 314:Drivers/lvgl/src/widgets/calendar/lv_calendar.c **** 
 1977              		.loc 1 314 24 view .LVU592
 1978 001a FFF7FEFF 		bl	lv_buttonmatrix_get_selected_button
 1979              	.LVL211:
 1980 001e 0146     		mov	r1, r0
 314:Drivers/lvgl/src/widgets/calendar/lv_calendar.c **** 
 1981              		.loc 1 314 24 discriminator 1 view .LVU593
 1982 0020 3046     		mov	r0, r6
 1983 0022 FFF7FEFF 		bl	lv_buttonmatrix_get_button_text
 1984              	.LVL212:
 316:Drivers/lvgl/src/widgets/calendar/lv_calendar.c ****     else date->day = (txt[0] - '0') * 10 + (txt[1] - '0');
ARM GAS  /var/folders/qx/2_175_4n2s19vhvtspjhb3qh0000gn/T//ccZZ70SA.s 			page 54


 1985              		.loc 1 316 5 is_stmt 1 view .LVU594
 316:Drivers/lvgl/src/widgets/calendar/lv_calendar.c ****     else date->day = (txt[0] - '0') * 10 + (txt[1] - '0');
 1986              		.loc 1 316 11 is_stmt 0 view .LVU595
 1987 0026 4378     		ldrb	r3, [r0, #1]	@ zero_extendqisi2
 316:Drivers/lvgl/src/widgets/calendar/lv_calendar.c ****     else date->day = (txt[0] - '0') * 10 + (txt[1] - '0');
 1988              		.loc 1 316 7 view .LVU596
 1989 0028 7BB9     		cbnz	r3, .L148
 316:Drivers/lvgl/src/widgets/calendar/lv_calendar.c ****     else date->day = (txt[0] - '0') * 10 + (txt[1] - '0');
 1990              		.loc 1 316 21 is_stmt 1 discriminator 1 view .LVU597
 316:Drivers/lvgl/src/widgets/calendar/lv_calendar.c ****     else date->day = (txt[0] - '0') * 10 + (txt[1] - '0');
 1991              		.loc 1 316 36 is_stmt 0 discriminator 1 view .LVU598
 1992 002a 0378     		ldrb	r3, [r0]	@ zero_extendqisi2
 316:Drivers/lvgl/src/widgets/calendar/lv_calendar.c ****     else date->day = (txt[0] - '0') * 10 + (txt[1] - '0');
 1993              		.loc 1 316 40 discriminator 1 view .LVU599
 1994 002c 303B     		subs	r3, r3, #48
 316:Drivers/lvgl/src/widgets/calendar/lv_calendar.c ****     else date->day = (txt[0] - '0') * 10 + (txt[1] - '0');
 1995              		.loc 1 316 31 discriminator 1 view .LVU600
 1996 002e E370     		strb	r3, [r4, #3]
 1997              	.L149:
 319:Drivers/lvgl/src/widgets/calendar/lv_calendar.c ****     date->month = calendar->showed_date.month;
 1998              		.loc 1 319 5 is_stmt 1 view .LVU601
 319:Drivers/lvgl/src/widgets/calendar/lv_calendar.c ****     date->month = calendar->showed_date.month;
 1999              		.loc 1 319 39 is_stmt 0 view .LVU602
 2000 0030 AB8E     		ldrh	r3, [r5, #52]
 319:Drivers/lvgl/src/widgets/calendar/lv_calendar.c ****     date->month = calendar->showed_date.month;
 2001              		.loc 1 319 16 view .LVU603
 2002 0032 2380     		strh	r3, [r4]	@ movhi
 320:Drivers/lvgl/src/widgets/calendar/lv_calendar.c **** 
 2003              		.loc 1 320 5 is_stmt 1 view .LVU604
 320:Drivers/lvgl/src/widgets/calendar/lv_calendar.c **** 
 2004              		.loc 1 320 40 is_stmt 0 view .LVU605
 2005 0034 95F83630 		ldrb	r3, [r5, #54]	@ zero_extendqisi2
 320:Drivers/lvgl/src/widgets/calendar/lv_calendar.c **** 
 2006              		.loc 1 320 17 view .LVU606
 2007 0038 A370     		strb	r3, [r4, #2]
 322:Drivers/lvgl/src/widgets/calendar/lv_calendar.c **** }
 2008              		.loc 1 322 5 is_stmt 1 view .LVU607
 322:Drivers/lvgl/src/widgets/calendar/lv_calendar.c **** }
 2009              		.loc 1 322 12 is_stmt 0 view .LVU608
 2010 003a 0120     		movs	r0, #1
 2011              	.LVL213:
 2012              	.L147:
 323:Drivers/lvgl/src/widgets/calendar/lv_calendar.c **** 
 2013              		.loc 1 323 1 view .LVU609
 2014 003c 70BD     		pop	{r4, r5, r6, pc}
 2015              	.LVL214:
 2016              	.L145:
 2017              	.LCFI29:
 2018              		.cfi_def_cfa_offset 0
 2019              		.cfi_restore 4
 2020              		.cfi_restore 5
 2021              		.cfi_restore 6
 2022              		.cfi_restore 14
 303:Drivers/lvgl/src/widgets/calendar/lv_calendar.c ****     lv_calendar_t * calendar = (lv_calendar_t *)obj;
 2023              		.loc 1 303 5 is_stmt 1 view .LVU610
 303:Drivers/lvgl/src/widgets/calendar/lv_calendar.c ****     lv_calendar_t * calendar = (lv_calendar_t *)obj;
 2024              		.loc 1 303 5 view .LVU611
ARM GAS  /var/folders/qx/2_175_4n2s19vhvtspjhb3qh0000gn/T//ccZZ70SA.s 			page 55


 303:Drivers/lvgl/src/widgets/calendar/lv_calendar.c ****     lv_calendar_t * calendar = (lv_calendar_t *)obj;
 2025              		.loc 1 303 5 view .LVU612
 303:Drivers/lvgl/src/widgets/calendar/lv_calendar.c ****     lv_calendar_t * calendar = (lv_calendar_t *)obj;
 2026              		.loc 1 303 5 view .LVU613
 303:Drivers/lvgl/src/widgets/calendar/lv_calendar.c ****     lv_calendar_t * calendar = (lv_calendar_t *)obj;
 2027              		.loc 1 303 5 view .LVU614
 2028 003e FEE7     		b	.L145
 2029              	.LVL215:
 2030              	.L152:
 2031              	.LCFI30:
 2032              		.cfi_def_cfa_offset 16
 2033              		.cfi_offset 4, -16
 2034              		.cfi_offset 5, -12
 2035              		.cfi_offset 6, -8
 2036              		.cfi_offset 14, -4
 308:Drivers/lvgl/src/widgets/calendar/lv_calendar.c ****         date->month = 0;
 2037              		.loc 1 308 9 view .LVU615
 308:Drivers/lvgl/src/widgets/calendar/lv_calendar.c ****         date->month = 0;
 2038              		.loc 1 308 20 is_stmt 0 view .LVU616
 2039 0040 0020     		movs	r0, #0
 2040              	.LVL216:
 308:Drivers/lvgl/src/widgets/calendar/lv_calendar.c ****         date->month = 0;
 2041              		.loc 1 308 20 view .LVU617
 2042 0042 2080     		strh	r0, [r4]	@ movhi
 309:Drivers/lvgl/src/widgets/calendar/lv_calendar.c ****         date->day = 0;
 2043              		.loc 1 309 9 is_stmt 1 view .LVU618
 309:Drivers/lvgl/src/widgets/calendar/lv_calendar.c ****         date->day = 0;
 2044              		.loc 1 309 21 is_stmt 0 view .LVU619
 2045 0044 A070     		strb	r0, [r4, #2]
 310:Drivers/lvgl/src/widgets/calendar/lv_calendar.c ****         return LV_RESULT_INVALID;
 2046              		.loc 1 310 9 is_stmt 1 view .LVU620
 310:Drivers/lvgl/src/widgets/calendar/lv_calendar.c ****         return LV_RESULT_INVALID;
 2047              		.loc 1 310 19 is_stmt 0 view .LVU621
 2048 0046 E070     		strb	r0, [r4, #3]
 311:Drivers/lvgl/src/widgets/calendar/lv_calendar.c ****     }
 2049              		.loc 1 311 9 is_stmt 1 view .LVU622
 311:Drivers/lvgl/src/widgets/calendar/lv_calendar.c ****     }
 2050              		.loc 1 311 16 is_stmt 0 view .LVU623
 2051 0048 F8E7     		b	.L147
 2052              	.LVL217:
 2053              	.L148:
 317:Drivers/lvgl/src/widgets/calendar/lv_calendar.c **** 
 2054              		.loc 1 317 10 is_stmt 1 view .LVU624
 317:Drivers/lvgl/src/widgets/calendar/lv_calendar.c **** 
 2055              		.loc 1 317 26 is_stmt 0 view .LVU625
 2056 004a 0278     		ldrb	r2, [r0]	@ zero_extendqisi2
 317:Drivers/lvgl/src/widgets/calendar/lv_calendar.c **** 
 2057              		.loc 1 317 42 view .LVU626
 2058 004c 303A     		subs	r2, r2, #48
 2059 004e 02EB8202 		add	r2, r2, r2, lsl #2
 2060 0052 03EB4203 		add	r3, r3, r2, lsl #1
 2061 0056 303B     		subs	r3, r3, #48
 317:Drivers/lvgl/src/widgets/calendar/lv_calendar.c **** 
 2062              		.loc 1 317 20 view .LVU627
 2063 0058 E370     		strb	r3, [r4, #3]
 2064 005a E9E7     		b	.L149
 2065              		.cfi_endproc
ARM GAS  /var/folders/qx/2_175_4n2s19vhvtspjhb3qh0000gn/T//ccZZ70SA.s 			page 56


 2066              	.LFE217:
 2068              		.section	.rodata.str1.4,"aMS",%progbits,1
 2069              		.align	2
 2070              	.LC3:
 2071 0000 537500   		.ascii	"Su\000"
 2072 0003 00       		.align	2
 2073              	.LC4:
 2074 0004 4D6F00   		.ascii	"Mo\000"
 2075 0007 00       		.align	2
 2076              	.LC5:
 2077 0008 547500   		.ascii	"Tu\000"
 2078 000b 00       		.align	2
 2079              	.LC6:
 2080 000c 576500   		.ascii	"We\000"
 2081 000f 00       		.align	2
 2082              	.LC7:
 2083 0010 546800   		.ascii	"Th\000"
 2084 0013 00       		.align	2
 2085              	.LC8:
 2086 0014 467200   		.ascii	"Fr\000"
 2087 0017 00       		.align	2
 2088              	.LC9:
 2089 0018 536100   		.ascii	"Sa\000"
 2090              		.section	.rodata.day_names_def,"a"
 2091              		.align	2
 2094              	day_names_def:
 2095 0000 00000000 		.word	.LC3
 2096 0004 04000000 		.word	.LC4
 2097 0008 08000000 		.word	.LC5
 2098 000c 0C000000 		.word	.LC6
 2099 0010 10000000 		.word	.LC7
 2100 0014 14000000 		.word	.LC8
 2101 0018 18000000 		.word	.LC9
 2102              		.global	lv_calendar_class
 2103              		.section	.rodata.str1.4
 2104 001b 00       		.align	2
 2105              	.LC10:
 2106 001c 6C765F63 		.ascii	"lv_calendar\000"
 2106      616C656E 
 2106      64617200 
 2107              		.section	.rodata.lv_calendar_class,"a"
 2108              		.align	2
 2111              	lv_calendar_class:
 2112 0000 00000000 		.word	lv_obj_class
 2113 0004 00000000 		.word	lv_calendar_constructor
 2114 0008 00000000 		.space	12
 2114      00000000 
 2114      00000000 
 2115 0014 1C000000 		.word	.LC10
 2116 0018 C3000000 		.word	195
 2117 001c C3000000 		.word	195
 2118 0020 C4       		.byte	196
 2119 0021 46       		.byte	70
 2120 0022 00       		.byte	0
 2121 0023 00       		.space	1
 2122              		.text
 2123              	.Letext0:
ARM GAS  /var/folders/qx/2_175_4n2s19vhvtspjhb3qh0000gn/T//ccZZ70SA.s 			page 57


 2124              		.file 3 "/Applications/ArmGNUToolchain/14.3.rel1/arm-none-eabi/arm-none-eabi/include/machine/_defa
 2125              		.file 4 "/Applications/ArmGNUToolchain/14.3.rel1/arm-none-eabi/arm-none-eabi/include/sys/_stdint.h
 2126              		.file 5 "/Applications/ArmGNUToolchain/14.3.rel1/arm-none-eabi/lib/gcc/arm-none-eabi/14.3.1/includ
 2127              		.file 6 "Drivers/lvgl/src/widgets/calendar/../../core/../misc/lv_types.h"
 2128              		.file 7 "Drivers/lvgl/src/widgets/calendar/../../core/lv_obj_private.h"
 2129              		.file 8 "Drivers/lvgl/src/widgets/calendar/../../core/lv_obj_class_private.h"
 2130              		.file 9 "Drivers/lvgl/src/widgets/calendar/../../core/../draw/lv_draw.h"
 2131              		.file 10 "Drivers/lvgl/src/widgets/calendar/../../draw/lv_draw_private.h"
 2132              		.file 11 "Drivers/lvgl/src/widgets/calendar/lv_calendar_private.h"
 2133              		.file 12 "Drivers/lvgl/src/widgets/calendar/../../core/../display/../misc/lv_array.h"
 2134              		.file 13 "Drivers/lvgl/src/widgets/calendar/../../core/../misc/../font/../draw/lv_draw_buf.h"
 2135              		.file 14 "Drivers/lvgl/src/widgets/calendar/../../core/../misc/../font/../draw/../misc/lv_area.h"
 2136              		.file 15 "Drivers/lvgl/src/widgets/calendar/../../core/../misc/../font/../draw/../misc/lv_color.h"
 2137              		.file 16 "Drivers/lvgl/src/widgets/calendar/../../core/../misc/../font/../draw/lv_image_dsc.h"
 2138              		.file 17 "Drivers/lvgl/src/widgets/calendar/../../core/../misc/lv_text.h"
 2139              		.file 18 "Drivers/lvgl/src/widgets/calendar/../../core/../misc/lv_grad.h"
 2140              		.file 19 "Drivers/lvgl/src/widgets/calendar/../../core/../misc/../layouts/flex/lv_flex.h"
 2141              		.file 20 "Drivers/lvgl/src/widgets/calendar/../../core/../misc/lv_style.h"
 2142              		.file 21 "Drivers/lvgl/src/widgets/calendar/../../core/../display/../misc/lv_event.h"
 2143              		.file 22 "Drivers/lvgl/src/widgets/calendar/../../core/lv_obj_style.h"
 2144              		.file 23 "Drivers/lvgl/src/widgets/calendar/../../core/../draw/lv_draw_rect.h"
 2145              		.file 24 "Drivers/lvgl/src/widgets/calendar/../../core/lv_obj_class.h"
 2146              		.file 25 "Drivers/lvgl/src/widgets/calendar/../../core/../indev/lv_indev.h"
 2147              		.file 26 "Drivers/lvgl/src/widgets/calendar/../../core/lv_obj.h"
 2148              		.file 27 "Drivers/lvgl/src/widgets/calendar/../buttonmatrix/lv_buttonmatrix.h"
 2149              		.file 28 "Drivers/lvgl/src/widgets/calendar/lv_calendar.h"
 2150              		.file 29 "Drivers/lvgl/src/widgets/calendar/../../../src/widgets/bar/lv_bar.h"
 2151              		.file 30 "Drivers/lvgl/src/widgets/calendar/../../core/lv_obj_event.h"
 2152              		.file 31 "Drivers/lvgl/src/widgets/calendar/../../core/lv_obj_tree.h"
 2153              		.file 32 "Drivers/lvgl/src/widgets/calendar/../../core/../misc/../stdlib/lv_sprintf.h"
 2154              		.file 33 "Drivers/lvgl/src/widgets/calendar/../../core/lv_obj_pos.h"
 2155              		.file 34 "Drivers/lvgl/src/widgets/calendar/../../../src/themes/lv_theme.h"
 2156              		.file 35 "Drivers/lvgl/src/widgets/calendar/../../core/lv_obj_style_gen.h"
ARM GAS  /var/folders/qx/2_175_4n2s19vhvtspjhb3qh0000gn/T//ccZZ70SA.s 			page 58

