ARM GAS  /var/folders/qx/2_175_4n2s19vhvtspjhb3qh0000gn/T//cchK137x.s 			page 1


   1              		.cpu cortex-m4
   2              		.arch armv7e-m
   3              		.fpu fpv4-sp-d16
   4              		.eabi_attribute 27, 1
   5              		.eabi_attribute 28, 1
   6              		.eabi_attribute 20, 1
   7              		.eabi_attribute 21, 1
   8              		.eabi_attribute 23, 3
   9              		.eabi_attribute 24, 1
  10              		.eabi_attribute 25, 1
  11              		.eabi_attribute 26, 1
  12              		.eabi_attribute 30, 1
  13              		.eabi_attribute 34, 1
  14              		.eabi_attribute 18, 4
  15              		.file	"stm32f429i_discovery.c"
  16              		.text
  17              	.Ltext0:
  18              		.cfi_sections	.debug_frame
  19              		.file 1 "Drivers/BSP/STM32F429I-Discovery/stm32f429i_discovery.c"
  20              		.section	.text.SPIx_MspInit,"ax",%progbits
  21              		.align	1
  22              		.syntax unified
  23              		.thumb
  24              		.thumb_func
  26              	SPIx_MspInit:
  27              	.LVL0:
  28              	.LFB154:
   1:Drivers/BSP/STM32F429I-Discovery/stm32f429i_discovery.c **** /**
   2:Drivers/BSP/STM32F429I-Discovery/stm32f429i_discovery.c ****   ******************************************************************************
   3:Drivers/BSP/STM32F429I-Discovery/stm32f429i_discovery.c ****   * @file    stm32f429i_discovery.c
   4:Drivers/BSP/STM32F429I-Discovery/stm32f429i_discovery.c ****   * @author  MCD Application Team
   5:Drivers/BSP/STM32F429I-Discovery/stm32f429i_discovery.c ****   * @version V2.1.2
   6:Drivers/BSP/STM32F429I-Discovery/stm32f429i_discovery.c ****   * @date    02-March-2015
   7:Drivers/BSP/STM32F429I-Discovery/stm32f429i_discovery.c ****   * @brief   This file provides set of firmware functions to manage Leds and
   8:Drivers/BSP/STM32F429I-Discovery/stm32f429i_discovery.c ****   *          push-button available on STM32F429I-Discovery Kit from STMicroelectronics.
   9:Drivers/BSP/STM32F429I-Discovery/stm32f429i_discovery.c ****   ******************************************************************************
  10:Drivers/BSP/STM32F429I-Discovery/stm32f429i_discovery.c ****   * @attention
  11:Drivers/BSP/STM32F429I-Discovery/stm32f429i_discovery.c ****   *
  12:Drivers/BSP/STM32F429I-Discovery/stm32f429i_discovery.c ****   * <h2><center>&copy; COPYRIGHT(c) 2015 STMicroelectronics</center></h2>
  13:Drivers/BSP/STM32F429I-Discovery/stm32f429i_discovery.c ****   *
  14:Drivers/BSP/STM32F429I-Discovery/stm32f429i_discovery.c ****   * Redistribution and use in source and binary forms, with or without modification,
  15:Drivers/BSP/STM32F429I-Discovery/stm32f429i_discovery.c ****   * are permitted provided that the following conditions are met:
  16:Drivers/BSP/STM32F429I-Discovery/stm32f429i_discovery.c ****   *   1. Redistributions of source code must retain the above copyright notice,
  17:Drivers/BSP/STM32F429I-Discovery/stm32f429i_discovery.c ****   *      this list of conditions and the following disclaimer.
  18:Drivers/BSP/STM32F429I-Discovery/stm32f429i_discovery.c ****   *   2. Redistributions in binary form must reproduce the above copyright notice,
  19:Drivers/BSP/STM32F429I-Discovery/stm32f429i_discovery.c ****   *      this list of conditions and the following disclaimer in the documentation
  20:Drivers/BSP/STM32F429I-Discovery/stm32f429i_discovery.c ****   *      and/or other materials provided with the distribution.
  21:Drivers/BSP/STM32F429I-Discovery/stm32f429i_discovery.c ****   *   3. Neither the name of STMicroelectronics nor the names of its contributors
  22:Drivers/BSP/STM32F429I-Discovery/stm32f429i_discovery.c ****   *      may be used to endorse or promote products derived from this software
  23:Drivers/BSP/STM32F429I-Discovery/stm32f429i_discovery.c ****   *      without specific prior written permission.
  24:Drivers/BSP/STM32F429I-Discovery/stm32f429i_discovery.c ****   *
  25:Drivers/BSP/STM32F429I-Discovery/stm32f429i_discovery.c ****   * THIS SOFTWARE IS PROVIDED BY THE COPYRIGHT HOLDERS AND CONTRIBUTORS "AS IS"
  26:Drivers/BSP/STM32F429I-Discovery/stm32f429i_discovery.c ****   * AND ANY EXPRESS OR IMPLIED WARRANTIES, INCLUDING, BUT NOT LIMITED TO, THE
  27:Drivers/BSP/STM32F429I-Discovery/stm32f429i_discovery.c ****   * IMPLIED WARRANTIES OF MERCHANTABILITY AND FITNESS FOR A PARTICULAR PURPOSE ARE
  28:Drivers/BSP/STM32F429I-Discovery/stm32f429i_discovery.c ****   * DISCLAIMED. IN NO EVENT SHALL THE COPYRIGHT HOLDER OR CONTRIBUTORS BE LIABLE
  29:Drivers/BSP/STM32F429I-Discovery/stm32f429i_discovery.c ****   * FOR ANY DIRECT, INDIRECT, INCIDENTAL, SPECIAL, EXEMPLARY, OR CONSEQUENTIAL
  30:Drivers/BSP/STM32F429I-Discovery/stm32f429i_discovery.c ****   * DAMAGES (INCLUDING, BUT NOT LIMITED TO, PROCUREMENT OF SUBSTITUTE GOODS OR
ARM GAS  /var/folders/qx/2_175_4n2s19vhvtspjhb3qh0000gn/T//cchK137x.s 			page 2


  31:Drivers/BSP/STM32F429I-Discovery/stm32f429i_discovery.c ****   * SERVICES; LOSS OF USE, DATA, OR PROFITS; OR BUSINESS INTERRUPTION) HOWEVER
  32:Drivers/BSP/STM32F429I-Discovery/stm32f429i_discovery.c ****   * CAUSED AND ON ANY THEORY OF LIABILITY, WHETHER IN CONTRACT, STRICT LIABILITY,
  33:Drivers/BSP/STM32F429I-Discovery/stm32f429i_discovery.c ****   * OR TORT (INCLUDING NEGLIGENCE OR OTHERWISE) ARISING IN ANY WAY OUT OF THE USE
  34:Drivers/BSP/STM32F429I-Discovery/stm32f429i_discovery.c ****   * OF THIS SOFTWARE, EVEN IF ADVISED OF THE POSSIBILITY OF SUCH DAMAGE.
  35:Drivers/BSP/STM32F429I-Discovery/stm32f429i_discovery.c ****   *
  36:Drivers/BSP/STM32F429I-Discovery/stm32f429i_discovery.c ****   ******************************************************************************
  37:Drivers/BSP/STM32F429I-Discovery/stm32f429i_discovery.c ****   */  
  38:Drivers/BSP/STM32F429I-Discovery/stm32f429i_discovery.c ****   
  39:Drivers/BSP/STM32F429I-Discovery/stm32f429i_discovery.c **** /* Includes ------------------------------------------------------------------*/
  40:Drivers/BSP/STM32F429I-Discovery/stm32f429i_discovery.c **** #include "stm32f429i_discovery.h"
  41:Drivers/BSP/STM32F429I-Discovery/stm32f429i_discovery.c **** 
  42:Drivers/BSP/STM32F429I-Discovery/stm32f429i_discovery.c **** /** @addtogroup BSP
  43:Drivers/BSP/STM32F429I-Discovery/stm32f429i_discovery.c ****   * @{
  44:Drivers/BSP/STM32F429I-Discovery/stm32f429i_discovery.c ****   */ 
  45:Drivers/BSP/STM32F429I-Discovery/stm32f429i_discovery.c **** 
  46:Drivers/BSP/STM32F429I-Discovery/stm32f429i_discovery.c **** /** @addtogroup STM32F429I_DISCOVERY
  47:Drivers/BSP/STM32F429I-Discovery/stm32f429i_discovery.c ****   * @{
  48:Drivers/BSP/STM32F429I-Discovery/stm32f429i_discovery.c ****   */
  49:Drivers/BSP/STM32F429I-Discovery/stm32f429i_discovery.c ****       
  50:Drivers/BSP/STM32F429I-Discovery/stm32f429i_discovery.c **** /** @defgroup STM32F429I_DISCOVERY_LOW_LEVEL 
  51:Drivers/BSP/STM32F429I-Discovery/stm32f429i_discovery.c ****   * @brief This file provides set of firmware functions to manage Leds and push-button
  52:Drivers/BSP/STM32F429I-Discovery/stm32f429i_discovery.c ****   *        available on STM32F429I-Discovery Kit from STMicroelectronics.
  53:Drivers/BSP/STM32F429I-Discovery/stm32f429i_discovery.c ****   * @{
  54:Drivers/BSP/STM32F429I-Discovery/stm32f429i_discovery.c ****   */ 
  55:Drivers/BSP/STM32F429I-Discovery/stm32f429i_discovery.c **** 
  56:Drivers/BSP/STM32F429I-Discovery/stm32f429i_discovery.c **** /** @defgroup STM32F429I_DISCOVERY_LOW_LEVEL_Private_TypesDefinitions
  57:Drivers/BSP/STM32F429I-Discovery/stm32f429i_discovery.c ****   * @{
  58:Drivers/BSP/STM32F429I-Discovery/stm32f429i_discovery.c ****   */ 
  59:Drivers/BSP/STM32F429I-Discovery/stm32f429i_discovery.c **** /**
  60:Drivers/BSP/STM32F429I-Discovery/stm32f429i_discovery.c ****   * @}
  61:Drivers/BSP/STM32F429I-Discovery/stm32f429i_discovery.c ****   */ 
  62:Drivers/BSP/STM32F429I-Discovery/stm32f429i_discovery.c **** 
  63:Drivers/BSP/STM32F429I-Discovery/stm32f429i_discovery.c **** /** @defgroup STM32F429I_DISCOVERY_LOW_LEVEL_Private_Defines
  64:Drivers/BSP/STM32F429I-Discovery/stm32f429i_discovery.c ****   * @{
  65:Drivers/BSP/STM32F429I-Discovery/stm32f429i_discovery.c ****   */ 
  66:Drivers/BSP/STM32F429I-Discovery/stm32f429i_discovery.c ****   
  67:Drivers/BSP/STM32F429I-Discovery/stm32f429i_discovery.c ****   /**
  68:Drivers/BSP/STM32F429I-Discovery/stm32f429i_discovery.c ****   * @brief STM32F429I DISCO BSP Driver version number V2.1.0
  69:Drivers/BSP/STM32F429I-Discovery/stm32f429i_discovery.c ****   */
  70:Drivers/BSP/STM32F429I-Discovery/stm32f429i_discovery.c **** #define __STM32F429I_DISCO_BSP_VERSION_MAIN   (0x02) /*!< [31:24] main version */
  71:Drivers/BSP/STM32F429I-Discovery/stm32f429i_discovery.c **** #define __STM32F429I_DISCO_BSP_VERSION_SUB1   (0x01) /*!< [23:16] sub1 version */
  72:Drivers/BSP/STM32F429I-Discovery/stm32f429i_discovery.c **** #define __STM32F429I_DISCO_BSP_VERSION_SUB2   (0x02) /*!< [15:8]  sub2 version */
  73:Drivers/BSP/STM32F429I-Discovery/stm32f429i_discovery.c **** #define __STM32F429I_DISCO_BSP_VERSION_RC     (0x00) /*!< [7:0]  release candidate */ 
  74:Drivers/BSP/STM32F429I-Discovery/stm32f429i_discovery.c **** #define __STM32F429I_DISCO_BSP_VERSION        ((__STM32F429I_DISCO_BSP_VERSION_MAIN << 24)\
  75:Drivers/BSP/STM32F429I-Discovery/stm32f429i_discovery.c ****                                              |(__STM32F429I_DISCO_BSP_VERSION_SUB1 << 16)\
  76:Drivers/BSP/STM32F429I-Discovery/stm32f429i_discovery.c ****                                              |(__STM32F429I_DISCO_BSP_VERSION_SUB2 << 8 )\
  77:Drivers/BSP/STM32F429I-Discovery/stm32f429i_discovery.c ****                                              |(__STM32F429I_DISCO_BSP_VERSION_RC)) 
  78:Drivers/BSP/STM32F429I-Discovery/stm32f429i_discovery.c **** /**
  79:Drivers/BSP/STM32F429I-Discovery/stm32f429i_discovery.c ****   * @}
  80:Drivers/BSP/STM32F429I-Discovery/stm32f429i_discovery.c ****   */ 
  81:Drivers/BSP/STM32F429I-Discovery/stm32f429i_discovery.c **** 
  82:Drivers/BSP/STM32F429I-Discovery/stm32f429i_discovery.c **** /** @defgroup STM32F429I_DISCOVERY_LOW_LEVEL_Private_Macros
  83:Drivers/BSP/STM32F429I-Discovery/stm32f429i_discovery.c ****   * @{
  84:Drivers/BSP/STM32F429I-Discovery/stm32f429i_discovery.c ****   */ 
  85:Drivers/BSP/STM32F429I-Discovery/stm32f429i_discovery.c **** /**
  86:Drivers/BSP/STM32F429I-Discovery/stm32f429i_discovery.c ****   * @}
  87:Drivers/BSP/STM32F429I-Discovery/stm32f429i_discovery.c ****   */ 
ARM GAS  /var/folders/qx/2_175_4n2s19vhvtspjhb3qh0000gn/T//cchK137x.s 			page 3


  88:Drivers/BSP/STM32F429I-Discovery/stm32f429i_discovery.c **** 
  89:Drivers/BSP/STM32F429I-Discovery/stm32f429i_discovery.c **** /** @defgroup STM32F429I_DISCOVERY_LOW_LEVEL_Private_Variables
  90:Drivers/BSP/STM32F429I-Discovery/stm32f429i_discovery.c ****   * @{
  91:Drivers/BSP/STM32F429I-Discovery/stm32f429i_discovery.c ****   */ 
  92:Drivers/BSP/STM32F429I-Discovery/stm32f429i_discovery.c **** GPIO_TypeDef* GPIO_PORT[LEDn] = {LED3_GPIO_PORT, 
  93:Drivers/BSP/STM32F429I-Discovery/stm32f429i_discovery.c ****                                  LED4_GPIO_PORT};
  94:Drivers/BSP/STM32F429I-Discovery/stm32f429i_discovery.c **** 
  95:Drivers/BSP/STM32F429I-Discovery/stm32f429i_discovery.c **** const uint16_t GPIO_PIN[LEDn] = {LED3_PIN, 
  96:Drivers/BSP/STM32F429I-Discovery/stm32f429i_discovery.c ****                                  LED4_PIN};
  97:Drivers/BSP/STM32F429I-Discovery/stm32f429i_discovery.c **** 
  98:Drivers/BSP/STM32F429I-Discovery/stm32f429i_discovery.c **** GPIO_TypeDef* BUTTON_PORT[BUTTONn] = {KEY_BUTTON_GPIO_PORT}; 
  99:Drivers/BSP/STM32F429I-Discovery/stm32f429i_discovery.c **** const uint16_t BUTTON_PIN[BUTTONn] = {KEY_BUTTON_PIN}; 
 100:Drivers/BSP/STM32F429I-Discovery/stm32f429i_discovery.c **** const uint8_t BUTTON_IRQn[BUTTONn] = {KEY_BUTTON_EXTI_IRQn};
 101:Drivers/BSP/STM32F429I-Discovery/stm32f429i_discovery.c **** 
 102:Drivers/BSP/STM32F429I-Discovery/stm32f429i_discovery.c **** uint32_t I2cxTimeout = I2Cx_TIMEOUT_MAX; /*<! Value of Timeout when I2C communication fails */  
 103:Drivers/BSP/STM32F429I-Discovery/stm32f429i_discovery.c **** uint32_t SpixTimeout = SPIx_TIMEOUT_MAX; /*<! Value of Timeout when SPI communication fails */  
 104:Drivers/BSP/STM32F429I-Discovery/stm32f429i_discovery.c **** 
 105:Drivers/BSP/STM32F429I-Discovery/stm32f429i_discovery.c **** I2C_HandleTypeDef I2cHandle;
 106:Drivers/BSP/STM32F429I-Discovery/stm32f429i_discovery.c **** static SPI_HandleTypeDef SpiHandle;
 107:Drivers/BSP/STM32F429I-Discovery/stm32f429i_discovery.c **** static uint8_t Is_LCD_IO_Initialized = 0;
 108:Drivers/BSP/STM32F429I-Discovery/stm32f429i_discovery.c **** 
 109:Drivers/BSP/STM32F429I-Discovery/stm32f429i_discovery.c **** /**
 110:Drivers/BSP/STM32F429I-Discovery/stm32f429i_discovery.c ****   * @}
 111:Drivers/BSP/STM32F429I-Discovery/stm32f429i_discovery.c ****   */ 
 112:Drivers/BSP/STM32F429I-Discovery/stm32f429i_discovery.c **** 
 113:Drivers/BSP/STM32F429I-Discovery/stm32f429i_discovery.c **** /** @defgroup STM32F429I_DISCOVERY_LOW_LEVEL_Private_FunctionPrototypes
 114:Drivers/BSP/STM32F429I-Discovery/stm32f429i_discovery.c ****   * @{
 115:Drivers/BSP/STM32F429I-Discovery/stm32f429i_discovery.c ****   */ 
 116:Drivers/BSP/STM32F429I-Discovery/stm32f429i_discovery.c **** /* I2Cx bus function */
 117:Drivers/BSP/STM32F429I-Discovery/stm32f429i_discovery.c **** static void               I2Cx_Init(void);
 118:Drivers/BSP/STM32F429I-Discovery/stm32f429i_discovery.c **** static void               I2Cx_ITConfig(void);
 119:Drivers/BSP/STM32F429I-Discovery/stm32f429i_discovery.c **** static void               I2Cx_WriteData(uint8_t Addr, uint8_t Reg, uint8_t Value);
 120:Drivers/BSP/STM32F429I-Discovery/stm32f429i_discovery.c **** static void               I2Cx_WriteBuffer(uint8_t Addr, uint8_t Reg,  uint8_t *pBuffer, uint16_t L
 121:Drivers/BSP/STM32F429I-Discovery/stm32f429i_discovery.c **** static uint8_t            I2Cx_ReadData(uint8_t Addr, uint8_t Reg);
 122:Drivers/BSP/STM32F429I-Discovery/stm32f429i_discovery.c **** static uint8_t            I2Cx_ReadBuffer(uint8_t Addr, uint8_t Reg, uint8_t *pBuffer, uint16_t Len
 123:Drivers/BSP/STM32F429I-Discovery/stm32f429i_discovery.c **** static void               I2Cx_Error(void);
 124:Drivers/BSP/STM32F429I-Discovery/stm32f429i_discovery.c **** static void               I2Cx_MspInit(I2C_HandleTypeDef *hi2c);  
 125:Drivers/BSP/STM32F429I-Discovery/stm32f429i_discovery.c **** #ifdef EE_M24LR64
 126:Drivers/BSP/STM32F429I-Discovery/stm32f429i_discovery.c **** static HAL_StatusTypeDef  I2Cx_WriteBufferDMA(uint8_t Addr, uint16_t Reg,  uint8_t *pBuffer, uint16
 127:Drivers/BSP/STM32F429I-Discovery/stm32f429i_discovery.c **** static HAL_StatusTypeDef  I2Cx_ReadBufferDMA(uint8_t Addr, uint16_t Reg, uint8_t *pBuffer, uint16_t
 128:Drivers/BSP/STM32F429I-Discovery/stm32f429i_discovery.c **** static HAL_StatusTypeDef  I2Cx_IsDeviceReady(uint16_t DevAddress, uint32_t Trials);
 129:Drivers/BSP/STM32F429I-Discovery/stm32f429i_discovery.c **** #endif /* EE_M24LR64 */
 130:Drivers/BSP/STM32F429I-Discovery/stm32f429i_discovery.c **** 
 131:Drivers/BSP/STM32F429I-Discovery/stm32f429i_discovery.c **** /* SPIx bus function */
 132:Drivers/BSP/STM32F429I-Discovery/stm32f429i_discovery.c **** static void               SPIx_Init(void);
 133:Drivers/BSP/STM32F429I-Discovery/stm32f429i_discovery.c **** static void               SPIx_Write(uint16_t Value);
 134:Drivers/BSP/STM32F429I-Discovery/stm32f429i_discovery.c **** static uint32_t           SPIx_Read(uint8_t ReadSize);
 135:Drivers/BSP/STM32F429I-Discovery/stm32f429i_discovery.c **** static uint8_t            SPIx_WriteRead(uint8_t Byte);
 136:Drivers/BSP/STM32F429I-Discovery/stm32f429i_discovery.c **** static void               SPIx_Error(void);
 137:Drivers/BSP/STM32F429I-Discovery/stm32f429i_discovery.c **** static void               SPIx_MspInit(SPI_HandleTypeDef *hspi);
 138:Drivers/BSP/STM32F429I-Discovery/stm32f429i_discovery.c **** 
 139:Drivers/BSP/STM32F429I-Discovery/stm32f429i_discovery.c **** /* Link function for LCD peripheral */
 140:Drivers/BSP/STM32F429I-Discovery/stm32f429i_discovery.c **** void                      LCD_IO_Init(void);
 141:Drivers/BSP/STM32F429I-Discovery/stm32f429i_discovery.c **** void                      LCD_IO_WriteData(uint16_t RegValue);
 142:Drivers/BSP/STM32F429I-Discovery/stm32f429i_discovery.c **** void                      LCD_IO_WriteReg(uint8_t Reg);
 143:Drivers/BSP/STM32F429I-Discovery/stm32f429i_discovery.c **** uint32_t                  LCD_IO_ReadData(uint16_t RegValue, uint8_t ReadSize);
 144:Drivers/BSP/STM32F429I-Discovery/stm32f429i_discovery.c **** void                      LCD_Delay(uint32_t delay);
ARM GAS  /var/folders/qx/2_175_4n2s19vhvtspjhb3qh0000gn/T//cchK137x.s 			page 4


 145:Drivers/BSP/STM32F429I-Discovery/stm32f429i_discovery.c **** 
 146:Drivers/BSP/STM32F429I-Discovery/stm32f429i_discovery.c **** /* IOExpander IO functions */
 147:Drivers/BSP/STM32F429I-Discovery/stm32f429i_discovery.c **** void                      IOE_Init(void);
 148:Drivers/BSP/STM32F429I-Discovery/stm32f429i_discovery.c **** void                      IOE_ITConfig(void);
 149:Drivers/BSP/STM32F429I-Discovery/stm32f429i_discovery.c **** void                      IOE_Delay(uint32_t Delay);
 150:Drivers/BSP/STM32F429I-Discovery/stm32f429i_discovery.c **** void                      IOE_Write(uint8_t Addr, uint8_t Reg, uint8_t Value);
 151:Drivers/BSP/STM32F429I-Discovery/stm32f429i_discovery.c **** uint8_t                   IOE_Read(uint8_t Addr, uint8_t Reg);
 152:Drivers/BSP/STM32F429I-Discovery/stm32f429i_discovery.c **** uint16_t                  IOE_ReadMultiple(uint8_t Addr, uint8_t Reg, uint8_t *pBuffer, uint16_t Le
 153:Drivers/BSP/STM32F429I-Discovery/stm32f429i_discovery.c **** void                      IOE_WriteMultiple(uint8_t Addr, uint8_t Reg, uint8_t *pBuffer, uint16_t L
 154:Drivers/BSP/STM32F429I-Discovery/stm32f429i_discovery.c **** 
 155:Drivers/BSP/STM32F429I-Discovery/stm32f429i_discovery.c **** /* Link function for GYRO peripheral */
 156:Drivers/BSP/STM32F429I-Discovery/stm32f429i_discovery.c **** void                      GYRO_IO_Init(void);
 157:Drivers/BSP/STM32F429I-Discovery/stm32f429i_discovery.c **** void                      GYRO_IO_Write(uint8_t* pBuffer, uint8_t WriteAddr, uint16_t NumByteToWrit
 158:Drivers/BSP/STM32F429I-Discovery/stm32f429i_discovery.c **** void                      GYRO_IO_Read(uint8_t* pBuffer, uint8_t ReadAddr, uint16_t NumByteToRead);
 159:Drivers/BSP/STM32F429I-Discovery/stm32f429i_discovery.c **** 
 160:Drivers/BSP/STM32F429I-Discovery/stm32f429i_discovery.c **** #ifdef EE_M24LR64
 161:Drivers/BSP/STM32F429I-Discovery/stm32f429i_discovery.c **** /* Link function for I2C EEPROM peripheral */
 162:Drivers/BSP/STM32F429I-Discovery/stm32f429i_discovery.c **** void                      EEPROM_IO_Init(void);
 163:Drivers/BSP/STM32F429I-Discovery/stm32f429i_discovery.c **** HAL_StatusTypeDef         EEPROM_IO_WriteData(uint16_t DevAddress, uint16_t MemAddress, uint8_t* pB
 164:Drivers/BSP/STM32F429I-Discovery/stm32f429i_discovery.c **** HAL_StatusTypeDef         EEPROM_IO_ReadData(uint16_t DevAddress, uint16_t MemAddress, uint8_t* pBu
 165:Drivers/BSP/STM32F429I-Discovery/stm32f429i_discovery.c **** HAL_StatusTypeDef         EEPROM_IO_IsDeviceReady(uint16_t DevAddress, uint32_t Trials);
 166:Drivers/BSP/STM32F429I-Discovery/stm32f429i_discovery.c **** #endif /* EE_M24LR64 */
 167:Drivers/BSP/STM32F429I-Discovery/stm32f429i_discovery.c **** 
 168:Drivers/BSP/STM32F429I-Discovery/stm32f429i_discovery.c **** /**
 169:Drivers/BSP/STM32F429I-Discovery/stm32f429i_discovery.c ****   * @}
 170:Drivers/BSP/STM32F429I-Discovery/stm32f429i_discovery.c ****   */ 
 171:Drivers/BSP/STM32F429I-Discovery/stm32f429i_discovery.c **** 
 172:Drivers/BSP/STM32F429I-Discovery/stm32f429i_discovery.c **** /** @defgroup STM32F429I_DISCOVERY_LOW_LEVEL_Private_Functions
 173:Drivers/BSP/STM32F429I-Discovery/stm32f429i_discovery.c ****   * @{
 174:Drivers/BSP/STM32F429I-Discovery/stm32f429i_discovery.c ****   */ 
 175:Drivers/BSP/STM32F429I-Discovery/stm32f429i_discovery.c **** 
 176:Drivers/BSP/STM32F429I-Discovery/stm32f429i_discovery.c **** /**
 177:Drivers/BSP/STM32F429I-Discovery/stm32f429i_discovery.c ****   * @brief  This method returns the STM32F429I DISCO BSP Driver revision
 178:Drivers/BSP/STM32F429I-Discovery/stm32f429i_discovery.c ****   * @param  None
 179:Drivers/BSP/STM32F429I-Discovery/stm32f429i_discovery.c ****   * @retval version: 0xXYZR (8bits for each decimal, R for RC)
 180:Drivers/BSP/STM32F429I-Discovery/stm32f429i_discovery.c ****   */
 181:Drivers/BSP/STM32F429I-Discovery/stm32f429i_discovery.c **** uint32_t BSP_GetVersion(void)
 182:Drivers/BSP/STM32F429I-Discovery/stm32f429i_discovery.c **** {
 183:Drivers/BSP/STM32F429I-Discovery/stm32f429i_discovery.c ****   return __STM32F429I_DISCO_BSP_VERSION;
 184:Drivers/BSP/STM32F429I-Discovery/stm32f429i_discovery.c **** }
 185:Drivers/BSP/STM32F429I-Discovery/stm32f429i_discovery.c **** 
 186:Drivers/BSP/STM32F429I-Discovery/stm32f429i_discovery.c **** /**
 187:Drivers/BSP/STM32F429I-Discovery/stm32f429i_discovery.c ****   * @brief  Configures LED GPIO.
 188:Drivers/BSP/STM32F429I-Discovery/stm32f429i_discovery.c ****   * @param  Led: Specifies the Led to be configured. 
 189:Drivers/BSP/STM32F429I-Discovery/stm32f429i_discovery.c ****   *   This parameter can be one of following parameters:
 190:Drivers/BSP/STM32F429I-Discovery/stm32f429i_discovery.c ****   *     @arg LED3
 191:Drivers/BSP/STM32F429I-Discovery/stm32f429i_discovery.c ****   *     @arg LED4
 192:Drivers/BSP/STM32F429I-Discovery/stm32f429i_discovery.c ****   * @retval None
 193:Drivers/BSP/STM32F429I-Discovery/stm32f429i_discovery.c ****   */
 194:Drivers/BSP/STM32F429I-Discovery/stm32f429i_discovery.c **** void BSP_LED_Init(Led_TypeDef Led)
 195:Drivers/BSP/STM32F429I-Discovery/stm32f429i_discovery.c **** {
 196:Drivers/BSP/STM32F429I-Discovery/stm32f429i_discovery.c ****   GPIO_InitTypeDef  GPIO_InitStruct;
 197:Drivers/BSP/STM32F429I-Discovery/stm32f429i_discovery.c ****   
 198:Drivers/BSP/STM32F429I-Discovery/stm32f429i_discovery.c ****   /* Enable the GPIO_LED Clock */
 199:Drivers/BSP/STM32F429I-Discovery/stm32f429i_discovery.c ****   LEDx_GPIO_CLK_ENABLE(Led);
 200:Drivers/BSP/STM32F429I-Discovery/stm32f429i_discovery.c **** 
 201:Drivers/BSP/STM32F429I-Discovery/stm32f429i_discovery.c ****   /* Configure the GPIO_LED pin */
ARM GAS  /var/folders/qx/2_175_4n2s19vhvtspjhb3qh0000gn/T//cchK137x.s 			page 5


 202:Drivers/BSP/STM32F429I-Discovery/stm32f429i_discovery.c ****   GPIO_InitStruct.Pin = GPIO_PIN[Led];
 203:Drivers/BSP/STM32F429I-Discovery/stm32f429i_discovery.c ****   GPIO_InitStruct.Mode = GPIO_MODE_OUTPUT_PP;
 204:Drivers/BSP/STM32F429I-Discovery/stm32f429i_discovery.c ****   GPIO_InitStruct.Pull = GPIO_PULLUP;
 205:Drivers/BSP/STM32F429I-Discovery/stm32f429i_discovery.c ****   GPIO_InitStruct.Speed = GPIO_SPEED_FAST;
 206:Drivers/BSP/STM32F429I-Discovery/stm32f429i_discovery.c ****   
 207:Drivers/BSP/STM32F429I-Discovery/stm32f429i_discovery.c ****   HAL_GPIO_Init(GPIO_PORT[Led], &GPIO_InitStruct);
 208:Drivers/BSP/STM32F429I-Discovery/stm32f429i_discovery.c ****   
 209:Drivers/BSP/STM32F429I-Discovery/stm32f429i_discovery.c ****   HAL_GPIO_WritePin(GPIO_PORT[Led], GPIO_PIN[Led], GPIO_PIN_RESET); 
 210:Drivers/BSP/STM32F429I-Discovery/stm32f429i_discovery.c **** }
 211:Drivers/BSP/STM32F429I-Discovery/stm32f429i_discovery.c **** 
 212:Drivers/BSP/STM32F429I-Discovery/stm32f429i_discovery.c **** /**
 213:Drivers/BSP/STM32F429I-Discovery/stm32f429i_discovery.c ****   * @brief  Turns selected LED On.
 214:Drivers/BSP/STM32F429I-Discovery/stm32f429i_discovery.c ****   * @param  Led: Specifies the Led to be set on. 
 215:Drivers/BSP/STM32F429I-Discovery/stm32f429i_discovery.c ****   *   This parameter can be one of following parameters:
 216:Drivers/BSP/STM32F429I-Discovery/stm32f429i_discovery.c ****   *     @arg LED3
 217:Drivers/BSP/STM32F429I-Discovery/stm32f429i_discovery.c ****   *     @arg LED4 
 218:Drivers/BSP/STM32F429I-Discovery/stm32f429i_discovery.c ****   * @retval None
 219:Drivers/BSP/STM32F429I-Discovery/stm32f429i_discovery.c ****   */
 220:Drivers/BSP/STM32F429I-Discovery/stm32f429i_discovery.c **** void BSP_LED_On(Led_TypeDef Led)
 221:Drivers/BSP/STM32F429I-Discovery/stm32f429i_discovery.c **** {
 222:Drivers/BSP/STM32F429I-Discovery/stm32f429i_discovery.c ****   HAL_GPIO_WritePin(GPIO_PORT[Led], GPIO_PIN[Led], GPIO_PIN_SET); 
 223:Drivers/BSP/STM32F429I-Discovery/stm32f429i_discovery.c **** }
 224:Drivers/BSP/STM32F429I-Discovery/stm32f429i_discovery.c **** 
 225:Drivers/BSP/STM32F429I-Discovery/stm32f429i_discovery.c **** /**
 226:Drivers/BSP/STM32F429I-Discovery/stm32f429i_discovery.c ****   * @brief  Turns selected LED Off.
 227:Drivers/BSP/STM32F429I-Discovery/stm32f429i_discovery.c ****   * @param  Led: Specifies the Led to be set off. 
 228:Drivers/BSP/STM32F429I-Discovery/stm32f429i_discovery.c ****   *   This parameter can be one of following parameters:
 229:Drivers/BSP/STM32F429I-Discovery/stm32f429i_discovery.c ****   *     @arg LED3
 230:Drivers/BSP/STM32F429I-Discovery/stm32f429i_discovery.c ****   *     @arg LED4
 231:Drivers/BSP/STM32F429I-Discovery/stm32f429i_discovery.c ****   * @retval None
 232:Drivers/BSP/STM32F429I-Discovery/stm32f429i_discovery.c ****   */
 233:Drivers/BSP/STM32F429I-Discovery/stm32f429i_discovery.c **** void BSP_LED_Off(Led_TypeDef Led)
 234:Drivers/BSP/STM32F429I-Discovery/stm32f429i_discovery.c **** {
 235:Drivers/BSP/STM32F429I-Discovery/stm32f429i_discovery.c ****   HAL_GPIO_WritePin(GPIO_PORT[Led], GPIO_PIN[Led], GPIO_PIN_RESET); 
 236:Drivers/BSP/STM32F429I-Discovery/stm32f429i_discovery.c **** }
 237:Drivers/BSP/STM32F429I-Discovery/stm32f429i_discovery.c **** 
 238:Drivers/BSP/STM32F429I-Discovery/stm32f429i_discovery.c **** /**
 239:Drivers/BSP/STM32F429I-Discovery/stm32f429i_discovery.c ****   * @brief  Toggles the selected LED.
 240:Drivers/BSP/STM32F429I-Discovery/stm32f429i_discovery.c ****   * @param  Led: Specifies the Led to be toggled. 
 241:Drivers/BSP/STM32F429I-Discovery/stm32f429i_discovery.c ****   *   This parameter can be one of following parameters:
 242:Drivers/BSP/STM32F429I-Discovery/stm32f429i_discovery.c ****   *     @arg LED3
 243:Drivers/BSP/STM32F429I-Discovery/stm32f429i_discovery.c ****   *     @arg LED4  
 244:Drivers/BSP/STM32F429I-Discovery/stm32f429i_discovery.c ****   * @retval None
 245:Drivers/BSP/STM32F429I-Discovery/stm32f429i_discovery.c ****   */
 246:Drivers/BSP/STM32F429I-Discovery/stm32f429i_discovery.c **** void BSP_LED_Toggle(Led_TypeDef Led)
 247:Drivers/BSP/STM32F429I-Discovery/stm32f429i_discovery.c **** {
 248:Drivers/BSP/STM32F429I-Discovery/stm32f429i_discovery.c ****   HAL_GPIO_TogglePin(GPIO_PORT[Led], GPIO_PIN[Led]);
 249:Drivers/BSP/STM32F429I-Discovery/stm32f429i_discovery.c **** }
 250:Drivers/BSP/STM32F429I-Discovery/stm32f429i_discovery.c **** 
 251:Drivers/BSP/STM32F429I-Discovery/stm32f429i_discovery.c **** /**
 252:Drivers/BSP/STM32F429I-Discovery/stm32f429i_discovery.c ****   * @brief  Configures Button GPIO and EXTI Line.
 253:Drivers/BSP/STM32F429I-Discovery/stm32f429i_discovery.c ****   * @param  Button: Specifies the Button to be configured.
 254:Drivers/BSP/STM32F429I-Discovery/stm32f429i_discovery.c ****   *   This parameter should be: BUTTON_KEY
 255:Drivers/BSP/STM32F429I-Discovery/stm32f429i_discovery.c ****   * @param  Button_Mode: Specifies Button mode.
 256:Drivers/BSP/STM32F429I-Discovery/stm32f429i_discovery.c ****   *   This parameter can be one of following parameters:   
 257:Drivers/BSP/STM32F429I-Discovery/stm32f429i_discovery.c ****   *     @arg BUTTON_MODE_GPIO: Button will be used as simple IO 
 258:Drivers/BSP/STM32F429I-Discovery/stm32f429i_discovery.c ****   *     @arg BUTTON_MODE_EXTI: Button will be connected to EXTI line with interrupt
ARM GAS  /var/folders/qx/2_175_4n2s19vhvtspjhb3qh0000gn/T//cchK137x.s 			page 6


 259:Drivers/BSP/STM32F429I-Discovery/stm32f429i_discovery.c ****   *                            generation capability  
 260:Drivers/BSP/STM32F429I-Discovery/stm32f429i_discovery.c ****   * @retval None
 261:Drivers/BSP/STM32F429I-Discovery/stm32f429i_discovery.c ****   */
 262:Drivers/BSP/STM32F429I-Discovery/stm32f429i_discovery.c **** void BSP_PB_Init(Button_TypeDef Button, ButtonMode_TypeDef ButtonMode)
 263:Drivers/BSP/STM32F429I-Discovery/stm32f429i_discovery.c **** {
 264:Drivers/BSP/STM32F429I-Discovery/stm32f429i_discovery.c ****   GPIO_InitTypeDef GPIO_InitStruct;
 265:Drivers/BSP/STM32F429I-Discovery/stm32f429i_discovery.c ****   
 266:Drivers/BSP/STM32F429I-Discovery/stm32f429i_discovery.c ****   /* Enable the BUTTON Clock */
 267:Drivers/BSP/STM32F429I-Discovery/stm32f429i_discovery.c ****   BUTTONx_GPIO_CLK_ENABLE(Button);
 268:Drivers/BSP/STM32F429I-Discovery/stm32f429i_discovery.c ****   
 269:Drivers/BSP/STM32F429I-Discovery/stm32f429i_discovery.c ****   if (ButtonMode == BUTTON_MODE_GPIO)
 270:Drivers/BSP/STM32F429I-Discovery/stm32f429i_discovery.c ****   {
 271:Drivers/BSP/STM32F429I-Discovery/stm32f429i_discovery.c ****     /* Configure Button pin as input */
 272:Drivers/BSP/STM32F429I-Discovery/stm32f429i_discovery.c ****     GPIO_InitStruct.Pin = BUTTON_PIN[Button];
 273:Drivers/BSP/STM32F429I-Discovery/stm32f429i_discovery.c ****     GPIO_InitStruct.Mode = GPIO_MODE_INPUT;
 274:Drivers/BSP/STM32F429I-Discovery/stm32f429i_discovery.c ****     GPIO_InitStruct.Pull = GPIO_PULLDOWN;
 275:Drivers/BSP/STM32F429I-Discovery/stm32f429i_discovery.c ****     GPIO_InitStruct.Speed = GPIO_SPEED_FAST;
 276:Drivers/BSP/STM32F429I-Discovery/stm32f429i_discovery.c ****     HAL_GPIO_Init(BUTTON_PORT[Button], &GPIO_InitStruct);
 277:Drivers/BSP/STM32F429I-Discovery/stm32f429i_discovery.c ****   }
 278:Drivers/BSP/STM32F429I-Discovery/stm32f429i_discovery.c ****   
 279:Drivers/BSP/STM32F429I-Discovery/stm32f429i_discovery.c ****   if (ButtonMode == BUTTON_MODE_EXTI)
 280:Drivers/BSP/STM32F429I-Discovery/stm32f429i_discovery.c ****   {
 281:Drivers/BSP/STM32F429I-Discovery/stm32f429i_discovery.c ****     /* Configure Button pin as input with External interrupt */
 282:Drivers/BSP/STM32F429I-Discovery/stm32f429i_discovery.c ****     GPIO_InitStruct.Pin = BUTTON_PIN[Button];
 283:Drivers/BSP/STM32F429I-Discovery/stm32f429i_discovery.c ****     GPIO_InitStruct.Pull = GPIO_NOPULL;
 284:Drivers/BSP/STM32F429I-Discovery/stm32f429i_discovery.c ****     GPIO_InitStruct.Mode = GPIO_MODE_IT_RISING; 
 285:Drivers/BSP/STM32F429I-Discovery/stm32f429i_discovery.c ****     HAL_GPIO_Init(BUTTON_PORT[Button], &GPIO_InitStruct);
 286:Drivers/BSP/STM32F429I-Discovery/stm32f429i_discovery.c ****     
 287:Drivers/BSP/STM32F429I-Discovery/stm32f429i_discovery.c ****     /* Enable and set Button EXTI Interrupt to the lowest priority */
 288:Drivers/BSP/STM32F429I-Discovery/stm32f429i_discovery.c ****     HAL_NVIC_SetPriority((IRQn_Type)(BUTTON_IRQn[Button]), 0x0F, 0x00);
 289:Drivers/BSP/STM32F429I-Discovery/stm32f429i_discovery.c ****     HAL_NVIC_EnableIRQ((IRQn_Type)(BUTTON_IRQn[Button]));
 290:Drivers/BSP/STM32F429I-Discovery/stm32f429i_discovery.c ****   }
 291:Drivers/BSP/STM32F429I-Discovery/stm32f429i_discovery.c **** }
 292:Drivers/BSP/STM32F429I-Discovery/stm32f429i_discovery.c **** 
 293:Drivers/BSP/STM32F429I-Discovery/stm32f429i_discovery.c **** /**
 294:Drivers/BSP/STM32F429I-Discovery/stm32f429i_discovery.c ****   * @brief  Returns the selected Button state.
 295:Drivers/BSP/STM32F429I-Discovery/stm32f429i_discovery.c ****   * @param  Button: Specifies the Button to be checked.
 296:Drivers/BSP/STM32F429I-Discovery/stm32f429i_discovery.c ****   *   This parameter should be: BUTTON_KEY  
 297:Drivers/BSP/STM32F429I-Discovery/stm32f429i_discovery.c ****   * @retval The Button GPIO pin value.
 298:Drivers/BSP/STM32F429I-Discovery/stm32f429i_discovery.c ****   */
 299:Drivers/BSP/STM32F429I-Discovery/stm32f429i_discovery.c **** uint32_t BSP_PB_GetState(Button_TypeDef Button)
 300:Drivers/BSP/STM32F429I-Discovery/stm32f429i_discovery.c **** {
 301:Drivers/BSP/STM32F429I-Discovery/stm32f429i_discovery.c ****   return HAL_GPIO_ReadPin(BUTTON_PORT[Button], BUTTON_PIN[Button]);
 302:Drivers/BSP/STM32F429I-Discovery/stm32f429i_discovery.c **** }
 303:Drivers/BSP/STM32F429I-Discovery/stm32f429i_discovery.c **** 
 304:Drivers/BSP/STM32F429I-Discovery/stm32f429i_discovery.c **** /*******************************************************************************
 305:Drivers/BSP/STM32F429I-Discovery/stm32f429i_discovery.c ****                             BUS OPERATIONS
 306:Drivers/BSP/STM32F429I-Discovery/stm32f429i_discovery.c **** *******************************************************************************/
 307:Drivers/BSP/STM32F429I-Discovery/stm32f429i_discovery.c **** 
 308:Drivers/BSP/STM32F429I-Discovery/stm32f429i_discovery.c **** /******************************* I2C Routines *********************************/
 309:Drivers/BSP/STM32F429I-Discovery/stm32f429i_discovery.c **** 
 310:Drivers/BSP/STM32F429I-Discovery/stm32f429i_discovery.c **** /**
 311:Drivers/BSP/STM32F429I-Discovery/stm32f429i_discovery.c ****   * @brief  I2Cx MSP Initialization
 312:Drivers/BSP/STM32F429I-Discovery/stm32f429i_discovery.c ****   * @param  hi2c: I2C handle
 313:Drivers/BSP/STM32F429I-Discovery/stm32f429i_discovery.c ****   * @retval None
 314:Drivers/BSP/STM32F429I-Discovery/stm32f429i_discovery.c ****   */
 315:Drivers/BSP/STM32F429I-Discovery/stm32f429i_discovery.c **** static void I2Cx_MspInit(I2C_HandleTypeDef *hi2c)
ARM GAS  /var/folders/qx/2_175_4n2s19vhvtspjhb3qh0000gn/T//cchK137x.s 			page 7


 316:Drivers/BSP/STM32F429I-Discovery/stm32f429i_discovery.c **** {
 317:Drivers/BSP/STM32F429I-Discovery/stm32f429i_discovery.c ****   GPIO_InitTypeDef  GPIO_InitStruct;  
 318:Drivers/BSP/STM32F429I-Discovery/stm32f429i_discovery.c **** #ifdef EE_M24LR64
 319:Drivers/BSP/STM32F429I-Discovery/stm32f429i_discovery.c ****   static DMA_HandleTypeDef hdma_tx;
 320:Drivers/BSP/STM32F429I-Discovery/stm32f429i_discovery.c ****   static DMA_HandleTypeDef hdma_rx;
 321:Drivers/BSP/STM32F429I-Discovery/stm32f429i_discovery.c ****   
 322:Drivers/BSP/STM32F429I-Discovery/stm32f429i_discovery.c ****   I2C_HandleTypeDef* pI2cHandle;
 323:Drivers/BSP/STM32F429I-Discovery/stm32f429i_discovery.c ****   pI2cHandle = &I2cHandle;
 324:Drivers/BSP/STM32F429I-Discovery/stm32f429i_discovery.c **** #endif /* EE_M24LR64 */
 325:Drivers/BSP/STM32F429I-Discovery/stm32f429i_discovery.c **** 
 326:Drivers/BSP/STM32F429I-Discovery/stm32f429i_discovery.c ****   if (hi2c->Instance == DISCOVERY_I2Cx)
 327:Drivers/BSP/STM32F429I-Discovery/stm32f429i_discovery.c ****   {
 328:Drivers/BSP/STM32F429I-Discovery/stm32f429i_discovery.c ****     /* Configure the GPIOs ---------------------------------------------------*/ 
 329:Drivers/BSP/STM32F429I-Discovery/stm32f429i_discovery.c ****     /* Enable GPIO clock */
 330:Drivers/BSP/STM32F429I-Discovery/stm32f429i_discovery.c ****     DISCOVERY_I2Cx_SDA_GPIO_CLK_ENABLE();
 331:Drivers/BSP/STM32F429I-Discovery/stm32f429i_discovery.c ****     DISCOVERY_I2Cx_SCL_GPIO_CLK_ENABLE();
 332:Drivers/BSP/STM32F429I-Discovery/stm32f429i_discovery.c ****       
 333:Drivers/BSP/STM32F429I-Discovery/stm32f429i_discovery.c ****     /* Configure I2C Tx as alternate function  */
 334:Drivers/BSP/STM32F429I-Discovery/stm32f429i_discovery.c ****     GPIO_InitStruct.Pin       = DISCOVERY_I2Cx_SCL_PIN;
 335:Drivers/BSP/STM32F429I-Discovery/stm32f429i_discovery.c ****     GPIO_InitStruct.Mode      = GPIO_MODE_AF_OD;
 336:Drivers/BSP/STM32F429I-Discovery/stm32f429i_discovery.c ****     GPIO_InitStruct.Pull      = GPIO_NOPULL;
 337:Drivers/BSP/STM32F429I-Discovery/stm32f429i_discovery.c ****     GPIO_InitStruct.Speed     = GPIO_SPEED_FAST;
 338:Drivers/BSP/STM32F429I-Discovery/stm32f429i_discovery.c ****     GPIO_InitStruct.Alternate = DISCOVERY_I2Cx_SCL_SDA_AF;
 339:Drivers/BSP/STM32F429I-Discovery/stm32f429i_discovery.c ****     HAL_GPIO_Init(DISCOVERY_I2Cx_SCL_GPIO_PORT, &GPIO_InitStruct);
 340:Drivers/BSP/STM32F429I-Discovery/stm32f429i_discovery.c ****       
 341:Drivers/BSP/STM32F429I-Discovery/stm32f429i_discovery.c ****     /* Configure I2C Rx as alternate function  */
 342:Drivers/BSP/STM32F429I-Discovery/stm32f429i_discovery.c ****     GPIO_InitStruct.Pin = DISCOVERY_I2Cx_SDA_PIN;
 343:Drivers/BSP/STM32F429I-Discovery/stm32f429i_discovery.c ****     HAL_GPIO_Init(DISCOVERY_I2Cx_SDA_GPIO_PORT, &GPIO_InitStruct);
 344:Drivers/BSP/STM32F429I-Discovery/stm32f429i_discovery.c ****     
 345:Drivers/BSP/STM32F429I-Discovery/stm32f429i_discovery.c ****     
 346:Drivers/BSP/STM32F429I-Discovery/stm32f429i_discovery.c ****     /* Configure the Discovery I2Cx peripheral -------------------------------*/ 
 347:Drivers/BSP/STM32F429I-Discovery/stm32f429i_discovery.c ****     /* Enable I2C3 clock */
 348:Drivers/BSP/STM32F429I-Discovery/stm32f429i_discovery.c ****     DISCOVERY_I2Cx_CLOCK_ENABLE();
 349:Drivers/BSP/STM32F429I-Discovery/stm32f429i_discovery.c ****     
 350:Drivers/BSP/STM32F429I-Discovery/stm32f429i_discovery.c ****     /* Force the I2C Peripheral Clock Reset */  
 351:Drivers/BSP/STM32F429I-Discovery/stm32f429i_discovery.c ****     DISCOVERY_I2Cx_FORCE_RESET();
 352:Drivers/BSP/STM32F429I-Discovery/stm32f429i_discovery.c ****       
 353:Drivers/BSP/STM32F429I-Discovery/stm32f429i_discovery.c ****     /* Release the I2C Peripheral Clock Reset */  
 354:Drivers/BSP/STM32F429I-Discovery/stm32f429i_discovery.c ****     DISCOVERY_I2Cx_RELEASE_RESET(); 
 355:Drivers/BSP/STM32F429I-Discovery/stm32f429i_discovery.c ****     
 356:Drivers/BSP/STM32F429I-Discovery/stm32f429i_discovery.c ****     /* Enable and set Discovery I2Cx Interrupt to the highest priority */
 357:Drivers/BSP/STM32F429I-Discovery/stm32f429i_discovery.c ****     HAL_NVIC_SetPriority(DISCOVERY_I2Cx_EV_IRQn, 0x00, 0);
 358:Drivers/BSP/STM32F429I-Discovery/stm32f429i_discovery.c ****     HAL_NVIC_EnableIRQ(DISCOVERY_I2Cx_EV_IRQn);
 359:Drivers/BSP/STM32F429I-Discovery/stm32f429i_discovery.c ****     
 360:Drivers/BSP/STM32F429I-Discovery/stm32f429i_discovery.c ****     /* Enable and set Discovery I2Cx Interrupt to the highest priority */
 361:Drivers/BSP/STM32F429I-Discovery/stm32f429i_discovery.c ****     HAL_NVIC_SetPriority(DISCOVERY_I2Cx_ER_IRQn, 0x00, 0);
 362:Drivers/BSP/STM32F429I-Discovery/stm32f429i_discovery.c ****     HAL_NVIC_EnableIRQ(DISCOVERY_I2Cx_ER_IRQn);  
 363:Drivers/BSP/STM32F429I-Discovery/stm32f429i_discovery.c **** 
 364:Drivers/BSP/STM32F429I-Discovery/stm32f429i_discovery.c **** #ifdef EE_M24LR64
 365:Drivers/BSP/STM32F429I-Discovery/stm32f429i_discovery.c ****     /* I2C DMA TX and RX channels configuration */
 366:Drivers/BSP/STM32F429I-Discovery/stm32f429i_discovery.c ****     /* Enable the DMA clock */
 367:Drivers/BSP/STM32F429I-Discovery/stm32f429i_discovery.c ****     EEPROM_I2C_DMA_CLK_ENABLE();
 368:Drivers/BSP/STM32F429I-Discovery/stm32f429i_discovery.c ****     
 369:Drivers/BSP/STM32F429I-Discovery/stm32f429i_discovery.c ****     /* Configure the DMA stream for the EE I2C peripheral TX direction */
 370:Drivers/BSP/STM32F429I-Discovery/stm32f429i_discovery.c ****     /* Configure the DMA Stream */
 371:Drivers/BSP/STM32F429I-Discovery/stm32f429i_discovery.c ****     hdma_tx.Instance                  = EEPROM_I2C_DMA_STREAM_TX;
 372:Drivers/BSP/STM32F429I-Discovery/stm32f429i_discovery.c ****     /* Set the parameters to be configured */
ARM GAS  /var/folders/qx/2_175_4n2s19vhvtspjhb3qh0000gn/T//cchK137x.s 			page 8


 373:Drivers/BSP/STM32F429I-Discovery/stm32f429i_discovery.c ****     hdma_tx.Init.Channel              = EEPROM_I2C_DMA_CHANNEL;  
 374:Drivers/BSP/STM32F429I-Discovery/stm32f429i_discovery.c ****     hdma_tx.Init.Direction            = DMA_MEMORY_TO_PERIPH;
 375:Drivers/BSP/STM32F429I-Discovery/stm32f429i_discovery.c ****     hdma_tx.Init.PeriphInc            = DMA_PINC_DISABLE;
 376:Drivers/BSP/STM32F429I-Discovery/stm32f429i_discovery.c ****     hdma_tx.Init.MemInc               = DMA_MINC_ENABLE;
 377:Drivers/BSP/STM32F429I-Discovery/stm32f429i_discovery.c ****     hdma_tx.Init.PeriphDataAlignment  = DMA_PDATAALIGN_BYTE;
 378:Drivers/BSP/STM32F429I-Discovery/stm32f429i_discovery.c ****     hdma_tx.Init.MemDataAlignment     = DMA_MDATAALIGN_BYTE;
 379:Drivers/BSP/STM32F429I-Discovery/stm32f429i_discovery.c ****     hdma_tx.Init.Mode                 = DMA_NORMAL;
 380:Drivers/BSP/STM32F429I-Discovery/stm32f429i_discovery.c ****     hdma_tx.Init.Priority             = DMA_PRIORITY_VERY_HIGH;
 381:Drivers/BSP/STM32F429I-Discovery/stm32f429i_discovery.c ****     hdma_tx.Init.FIFOMode             = DMA_FIFOMODE_ENABLE;         
 382:Drivers/BSP/STM32F429I-Discovery/stm32f429i_discovery.c ****     hdma_tx.Init.FIFOThreshold        = DMA_FIFO_THRESHOLD_FULL;
 383:Drivers/BSP/STM32F429I-Discovery/stm32f429i_discovery.c ****     hdma_tx.Init.MemBurst             = DMA_MBURST_SINGLE;
 384:Drivers/BSP/STM32F429I-Discovery/stm32f429i_discovery.c ****     hdma_tx.Init.PeriphBurst          = DMA_PBURST_SINGLE; 
 385:Drivers/BSP/STM32F429I-Discovery/stm32f429i_discovery.c **** 
 386:Drivers/BSP/STM32F429I-Discovery/stm32f429i_discovery.c ****     /* Associate the initilalized hdma_tx handle to the the pI2cHandle handle */
 387:Drivers/BSP/STM32F429I-Discovery/stm32f429i_discovery.c ****     __HAL_LINKDMA(pI2cHandle, hdmatx, hdma_tx);
 388:Drivers/BSP/STM32F429I-Discovery/stm32f429i_discovery.c ****     
 389:Drivers/BSP/STM32F429I-Discovery/stm32f429i_discovery.c ****     /* Configure the DMA Stream */
 390:Drivers/BSP/STM32F429I-Discovery/stm32f429i_discovery.c ****     HAL_DMA_Init(&hdma_tx);
 391:Drivers/BSP/STM32F429I-Discovery/stm32f429i_discovery.c ****     
 392:Drivers/BSP/STM32F429I-Discovery/stm32f429i_discovery.c ****     /* Configure and enable I2C DMA TX Channel interrupt */
 393:Drivers/BSP/STM32F429I-Discovery/stm32f429i_discovery.c ****     HAL_NVIC_SetPriority((IRQn_Type)(EEPROM_I2C_DMA_TX_IRQn), EEPROM_I2C_DMA_PREPRIO, 0);
 394:Drivers/BSP/STM32F429I-Discovery/stm32f429i_discovery.c ****     HAL_NVIC_EnableIRQ((IRQn_Type)(EEPROM_I2C_DMA_TX_IRQn));
 395:Drivers/BSP/STM32F429I-Discovery/stm32f429i_discovery.c ****     
 396:Drivers/BSP/STM32F429I-Discovery/stm32f429i_discovery.c ****     /* Configure the DMA stream for the EE I2C peripheral TX direction */
 397:Drivers/BSP/STM32F429I-Discovery/stm32f429i_discovery.c ****     /* Configure the DMA Stream */
 398:Drivers/BSP/STM32F429I-Discovery/stm32f429i_discovery.c ****     hdma_rx.Instance                  = EEPROM_I2C_DMA_STREAM_RX;
 399:Drivers/BSP/STM32F429I-Discovery/stm32f429i_discovery.c ****     /* Set the parameters to be configured */
 400:Drivers/BSP/STM32F429I-Discovery/stm32f429i_discovery.c ****     hdma_rx.Init.Channel              = EEPROM_I2C_DMA_CHANNEL;  
 401:Drivers/BSP/STM32F429I-Discovery/stm32f429i_discovery.c ****     hdma_rx.Init.Direction            = DMA_PERIPH_TO_MEMORY;
 402:Drivers/BSP/STM32F429I-Discovery/stm32f429i_discovery.c ****     hdma_rx.Init.PeriphInc            = DMA_PINC_DISABLE;
 403:Drivers/BSP/STM32F429I-Discovery/stm32f429i_discovery.c ****     hdma_rx.Init.MemInc               = DMA_MINC_ENABLE;
 404:Drivers/BSP/STM32F429I-Discovery/stm32f429i_discovery.c ****     hdma_rx.Init.PeriphDataAlignment  = DMA_PDATAALIGN_BYTE;
 405:Drivers/BSP/STM32F429I-Discovery/stm32f429i_discovery.c ****     hdma_rx.Init.MemDataAlignment     = DMA_MDATAALIGN_BYTE;
 406:Drivers/BSP/STM32F429I-Discovery/stm32f429i_discovery.c ****     hdma_rx.Init.Mode                 = DMA_NORMAL;
 407:Drivers/BSP/STM32F429I-Discovery/stm32f429i_discovery.c ****     hdma_rx.Init.Priority             = DMA_PRIORITY_VERY_HIGH;
 408:Drivers/BSP/STM32F429I-Discovery/stm32f429i_discovery.c ****     hdma_rx.Init.FIFOMode             = DMA_FIFOMODE_ENABLE;         
 409:Drivers/BSP/STM32F429I-Discovery/stm32f429i_discovery.c ****     hdma_rx.Init.FIFOThreshold        = DMA_FIFO_THRESHOLD_FULL;
 410:Drivers/BSP/STM32F429I-Discovery/stm32f429i_discovery.c ****     hdma_rx.Init.MemBurst             = DMA_MBURST_SINGLE;
 411:Drivers/BSP/STM32F429I-Discovery/stm32f429i_discovery.c ****     hdma_rx.Init.PeriphBurst          = DMA_PBURST_SINGLE; 
 412:Drivers/BSP/STM32F429I-Discovery/stm32f429i_discovery.c **** 
 413:Drivers/BSP/STM32F429I-Discovery/stm32f429i_discovery.c ****     /* Associate the initilalized hdma_rx handle to the the pI2cHandle handle*/
 414:Drivers/BSP/STM32F429I-Discovery/stm32f429i_discovery.c ****     __HAL_LINKDMA(pI2cHandle, hdmarx, hdma_rx);
 415:Drivers/BSP/STM32F429I-Discovery/stm32f429i_discovery.c ****     
 416:Drivers/BSP/STM32F429I-Discovery/stm32f429i_discovery.c ****     /* Configure the DMA Stream */
 417:Drivers/BSP/STM32F429I-Discovery/stm32f429i_discovery.c ****     HAL_DMA_Init(&hdma_rx);
 418:Drivers/BSP/STM32F429I-Discovery/stm32f429i_discovery.c ****     
 419:Drivers/BSP/STM32F429I-Discovery/stm32f429i_discovery.c ****     /* Configure and enable I2C DMA RX Channel interrupt */
 420:Drivers/BSP/STM32F429I-Discovery/stm32f429i_discovery.c ****     HAL_NVIC_SetPriority((IRQn_Type)(EEPROM_I2C_DMA_RX_IRQn), EEPROM_I2C_DMA_PREPRIO, 0);
 421:Drivers/BSP/STM32F429I-Discovery/stm32f429i_discovery.c ****     HAL_NVIC_EnableIRQ((IRQn_Type)(EEPROM_I2C_DMA_RX_IRQn));
 422:Drivers/BSP/STM32F429I-Discovery/stm32f429i_discovery.c **** #endif /* EE_M24LR64 */
 423:Drivers/BSP/STM32F429I-Discovery/stm32f429i_discovery.c ****   }
 424:Drivers/BSP/STM32F429I-Discovery/stm32f429i_discovery.c **** }
 425:Drivers/BSP/STM32F429I-Discovery/stm32f429i_discovery.c **** 
 426:Drivers/BSP/STM32F429I-Discovery/stm32f429i_discovery.c **** /**
 427:Drivers/BSP/STM32F429I-Discovery/stm32f429i_discovery.c ****   * @brief  I2Cx Bus initialization.
 428:Drivers/BSP/STM32F429I-Discovery/stm32f429i_discovery.c ****   * @param  None
 429:Drivers/BSP/STM32F429I-Discovery/stm32f429i_discovery.c ****   * @retval None
ARM GAS  /var/folders/qx/2_175_4n2s19vhvtspjhb3qh0000gn/T//cchK137x.s 			page 9


 430:Drivers/BSP/STM32F429I-Discovery/stm32f429i_discovery.c ****   */
 431:Drivers/BSP/STM32F429I-Discovery/stm32f429i_discovery.c **** static void I2Cx_Init(void)
 432:Drivers/BSP/STM32F429I-Discovery/stm32f429i_discovery.c **** {
 433:Drivers/BSP/STM32F429I-Discovery/stm32f429i_discovery.c ****   if(HAL_I2C_GetState(&I2cHandle) == HAL_I2C_STATE_RESET)
 434:Drivers/BSP/STM32F429I-Discovery/stm32f429i_discovery.c ****   {
 435:Drivers/BSP/STM32F429I-Discovery/stm32f429i_discovery.c ****     I2cHandle.Instance              = DISCOVERY_I2Cx;
 436:Drivers/BSP/STM32F429I-Discovery/stm32f429i_discovery.c ****     I2cHandle.Init.ClockSpeed       = BSP_I2C_SPEED;
 437:Drivers/BSP/STM32F429I-Discovery/stm32f429i_discovery.c ****     I2cHandle.Init.DutyCycle        = I2C_DUTYCYCLE_2;
 438:Drivers/BSP/STM32F429I-Discovery/stm32f429i_discovery.c ****     I2cHandle.Init.OwnAddress1      = 0;
 439:Drivers/BSP/STM32F429I-Discovery/stm32f429i_discovery.c ****     I2cHandle.Init.AddressingMode   = I2C_ADDRESSINGMODE_7BIT;
 440:Drivers/BSP/STM32F429I-Discovery/stm32f429i_discovery.c ****     I2cHandle.Init.DualAddressMode  = I2C_DUALADDRESS_DISABLED;
 441:Drivers/BSP/STM32F429I-Discovery/stm32f429i_discovery.c ****     I2cHandle.Init.OwnAddress2      = 0;
 442:Drivers/BSP/STM32F429I-Discovery/stm32f429i_discovery.c ****     I2cHandle.Init.GeneralCallMode  = I2C_GENERALCALL_DISABLED;
 443:Drivers/BSP/STM32F429I-Discovery/stm32f429i_discovery.c ****     I2cHandle.Init.NoStretchMode    = I2C_NOSTRETCH_DISABLED;  
 444:Drivers/BSP/STM32F429I-Discovery/stm32f429i_discovery.c ****     
 445:Drivers/BSP/STM32F429I-Discovery/stm32f429i_discovery.c ****     /* Init the I2C */
 446:Drivers/BSP/STM32F429I-Discovery/stm32f429i_discovery.c ****     I2Cx_MspInit(&I2cHandle);
 447:Drivers/BSP/STM32F429I-Discovery/stm32f429i_discovery.c ****     HAL_I2C_Init(&I2cHandle);
 448:Drivers/BSP/STM32F429I-Discovery/stm32f429i_discovery.c ****   }
 449:Drivers/BSP/STM32F429I-Discovery/stm32f429i_discovery.c **** }
 450:Drivers/BSP/STM32F429I-Discovery/stm32f429i_discovery.c **** 
 451:Drivers/BSP/STM32F429I-Discovery/stm32f429i_discovery.c **** /**
 452:Drivers/BSP/STM32F429I-Discovery/stm32f429i_discovery.c ****   * @brief  Configures Interruption pin for I2C communication.
 453:Drivers/BSP/STM32F429I-Discovery/stm32f429i_discovery.c ****   * @param  None
 454:Drivers/BSP/STM32F429I-Discovery/stm32f429i_discovery.c ****   * @retval None
 455:Drivers/BSP/STM32F429I-Discovery/stm32f429i_discovery.c ****   */
 456:Drivers/BSP/STM32F429I-Discovery/stm32f429i_discovery.c **** static void I2Cx_ITConfig(void)
 457:Drivers/BSP/STM32F429I-Discovery/stm32f429i_discovery.c **** {
 458:Drivers/BSP/STM32F429I-Discovery/stm32f429i_discovery.c ****   GPIO_InitTypeDef  GPIO_InitStruct;
 459:Drivers/BSP/STM32F429I-Discovery/stm32f429i_discovery.c ****     
 460:Drivers/BSP/STM32F429I-Discovery/stm32f429i_discovery.c ****   /* Enable the GPIO EXTI Clock */
 461:Drivers/BSP/STM32F429I-Discovery/stm32f429i_discovery.c ****   STMPE811_INT_CLK_ENABLE();
 462:Drivers/BSP/STM32F429I-Discovery/stm32f429i_discovery.c ****   
 463:Drivers/BSP/STM32F429I-Discovery/stm32f429i_discovery.c ****   GPIO_InitStruct.Pin   = STMPE811_INT_PIN;
 464:Drivers/BSP/STM32F429I-Discovery/stm32f429i_discovery.c ****   GPIO_InitStruct.Pull  = GPIO_PULLUP;
 465:Drivers/BSP/STM32F429I-Discovery/stm32f429i_discovery.c ****   GPIO_InitStruct.Speed = GPIO_SPEED_LOW;
 466:Drivers/BSP/STM32F429I-Discovery/stm32f429i_discovery.c ****   GPIO_InitStruct.Mode  = GPIO_MODE_IT_FALLING;
 467:Drivers/BSP/STM32F429I-Discovery/stm32f429i_discovery.c ****   HAL_GPIO_Init(STMPE811_INT_GPIO_PORT, &GPIO_InitStruct);
 468:Drivers/BSP/STM32F429I-Discovery/stm32f429i_discovery.c ****     
 469:Drivers/BSP/STM32F429I-Discovery/stm32f429i_discovery.c ****   /* Enable and set GPIO EXTI Interrupt to the highest priority */
 470:Drivers/BSP/STM32F429I-Discovery/stm32f429i_discovery.c ****   HAL_NVIC_SetPriority((IRQn_Type)(STMPE811_INT_EXTI), 0x00, 0x00);
 471:Drivers/BSP/STM32F429I-Discovery/stm32f429i_discovery.c ****   HAL_NVIC_EnableIRQ((IRQn_Type)(STMPE811_INT_EXTI));
 472:Drivers/BSP/STM32F429I-Discovery/stm32f429i_discovery.c **** }
 473:Drivers/BSP/STM32F429I-Discovery/stm32f429i_discovery.c **** 
 474:Drivers/BSP/STM32F429I-Discovery/stm32f429i_discovery.c **** /**
 475:Drivers/BSP/STM32F429I-Discovery/stm32f429i_discovery.c ****   * @brief  Writes a value in a register of the device through BUS.
 476:Drivers/BSP/STM32F429I-Discovery/stm32f429i_discovery.c ****   * @param  Addr: Device address on BUS Bus.  
 477:Drivers/BSP/STM32F429I-Discovery/stm32f429i_discovery.c ****   * @param  Reg: The target register address to write
 478:Drivers/BSP/STM32F429I-Discovery/stm32f429i_discovery.c ****   * @param  Value: The target register value to be written 
 479:Drivers/BSP/STM32F429I-Discovery/stm32f429i_discovery.c ****   * @retval None
 480:Drivers/BSP/STM32F429I-Discovery/stm32f429i_discovery.c ****   */
 481:Drivers/BSP/STM32F429I-Discovery/stm32f429i_discovery.c **** static void I2Cx_WriteData(uint8_t Addr, uint8_t Reg, uint8_t Value)
 482:Drivers/BSP/STM32F429I-Discovery/stm32f429i_discovery.c ****   {
 483:Drivers/BSP/STM32F429I-Discovery/stm32f429i_discovery.c ****   HAL_StatusTypeDef status = HAL_OK;
 484:Drivers/BSP/STM32F429I-Discovery/stm32f429i_discovery.c ****   
 485:Drivers/BSP/STM32F429I-Discovery/stm32f429i_discovery.c ****   status = HAL_I2C_Mem_Write(&I2cHandle, Addr, (uint16_t)Reg, I2C_MEMADD_SIZE_8BIT, &Value, 1, I2cx
 486:Drivers/BSP/STM32F429I-Discovery/stm32f429i_discovery.c ****   
ARM GAS  /var/folders/qx/2_175_4n2s19vhvtspjhb3qh0000gn/T//cchK137x.s 			page 10


 487:Drivers/BSP/STM32F429I-Discovery/stm32f429i_discovery.c ****   /* Check the communication status */
 488:Drivers/BSP/STM32F429I-Discovery/stm32f429i_discovery.c ****   if(status != HAL_OK)
 489:Drivers/BSP/STM32F429I-Discovery/stm32f429i_discovery.c ****   {
 490:Drivers/BSP/STM32F429I-Discovery/stm32f429i_discovery.c ****     /* Re-Initialize the BUS */
 491:Drivers/BSP/STM32F429I-Discovery/stm32f429i_discovery.c ****     I2Cx_Error();
 492:Drivers/BSP/STM32F429I-Discovery/stm32f429i_discovery.c ****   }        
 493:Drivers/BSP/STM32F429I-Discovery/stm32f429i_discovery.c **** }
 494:Drivers/BSP/STM32F429I-Discovery/stm32f429i_discovery.c **** 
 495:Drivers/BSP/STM32F429I-Discovery/stm32f429i_discovery.c **** /**
 496:Drivers/BSP/STM32F429I-Discovery/stm32f429i_discovery.c ****   * @brief  Writes a value in a register of the device through BUS.
 497:Drivers/BSP/STM32F429I-Discovery/stm32f429i_discovery.c ****   * @param  Addr: Device address on BUS Bus.  
 498:Drivers/BSP/STM32F429I-Discovery/stm32f429i_discovery.c ****   * @param  Reg: The target register address to write
 499:Drivers/BSP/STM32F429I-Discovery/stm32f429i_discovery.c ****   * @param  pBuffer: The target register value to be written 
 500:Drivers/BSP/STM32F429I-Discovery/stm32f429i_discovery.c ****   * @param  Length: buffer size to be written
 501:Drivers/BSP/STM32F429I-Discovery/stm32f429i_discovery.c ****   * @retval None
 502:Drivers/BSP/STM32F429I-Discovery/stm32f429i_discovery.c ****   */
 503:Drivers/BSP/STM32F429I-Discovery/stm32f429i_discovery.c **** static void I2Cx_WriteBuffer(uint8_t Addr, uint8_t Reg,  uint8_t *pBuffer, uint16_t Length)
 504:Drivers/BSP/STM32F429I-Discovery/stm32f429i_discovery.c ****   {
 505:Drivers/BSP/STM32F429I-Discovery/stm32f429i_discovery.c ****   HAL_StatusTypeDef status = HAL_OK;
 506:Drivers/BSP/STM32F429I-Discovery/stm32f429i_discovery.c ****   
 507:Drivers/BSP/STM32F429I-Discovery/stm32f429i_discovery.c ****   status = HAL_I2C_Mem_Write(&I2cHandle, Addr, (uint16_t)Reg, I2C_MEMADD_SIZE_8BIT, pBuffer, Length
 508:Drivers/BSP/STM32F429I-Discovery/stm32f429i_discovery.c **** 
 509:Drivers/BSP/STM32F429I-Discovery/stm32f429i_discovery.c ****   /* Check the communication status */
 510:Drivers/BSP/STM32F429I-Discovery/stm32f429i_discovery.c ****   if(status != HAL_OK)
 511:Drivers/BSP/STM32F429I-Discovery/stm32f429i_discovery.c ****   {
 512:Drivers/BSP/STM32F429I-Discovery/stm32f429i_discovery.c ****     /* Re-Initialize the BUS */
 513:Drivers/BSP/STM32F429I-Discovery/stm32f429i_discovery.c ****     I2Cx_Error();
 514:Drivers/BSP/STM32F429I-Discovery/stm32f429i_discovery.c ****   }        
 515:Drivers/BSP/STM32F429I-Discovery/stm32f429i_discovery.c **** }
 516:Drivers/BSP/STM32F429I-Discovery/stm32f429i_discovery.c **** 
 517:Drivers/BSP/STM32F429I-Discovery/stm32f429i_discovery.c **** /**
 518:Drivers/BSP/STM32F429I-Discovery/stm32f429i_discovery.c ****   * @brief  Reads a register of the device through BUS.
 519:Drivers/BSP/STM32F429I-Discovery/stm32f429i_discovery.c ****   * @param  Addr: Device address on BUS Bus.  
 520:Drivers/BSP/STM32F429I-Discovery/stm32f429i_discovery.c ****   * @param  Reg: The target register address to write
 521:Drivers/BSP/STM32F429I-Discovery/stm32f429i_discovery.c ****   * @retval Data read at register address
 522:Drivers/BSP/STM32F429I-Discovery/stm32f429i_discovery.c ****   */
 523:Drivers/BSP/STM32F429I-Discovery/stm32f429i_discovery.c **** static uint8_t I2Cx_ReadData(uint8_t Addr, uint8_t Reg)
 524:Drivers/BSP/STM32F429I-Discovery/stm32f429i_discovery.c **** {
 525:Drivers/BSP/STM32F429I-Discovery/stm32f429i_discovery.c ****   HAL_StatusTypeDef status = HAL_OK;
 526:Drivers/BSP/STM32F429I-Discovery/stm32f429i_discovery.c ****   uint8_t value = 0;
 527:Drivers/BSP/STM32F429I-Discovery/stm32f429i_discovery.c ****   
 528:Drivers/BSP/STM32F429I-Discovery/stm32f429i_discovery.c ****   status = HAL_I2C_Mem_Read(&I2cHandle, Addr, Reg, I2C_MEMADD_SIZE_8BIT, &value, 1, I2cxTimeout);
 529:Drivers/BSP/STM32F429I-Discovery/stm32f429i_discovery.c ****  
 530:Drivers/BSP/STM32F429I-Discovery/stm32f429i_discovery.c ****   /* Check the communication status */
 531:Drivers/BSP/STM32F429I-Discovery/stm32f429i_discovery.c ****   if(status != HAL_OK)
 532:Drivers/BSP/STM32F429I-Discovery/stm32f429i_discovery.c ****   {
 533:Drivers/BSP/STM32F429I-Discovery/stm32f429i_discovery.c ****     /* Re-Initialize the BUS */
 534:Drivers/BSP/STM32F429I-Discovery/stm32f429i_discovery.c ****     I2Cx_Error();
 535:Drivers/BSP/STM32F429I-Discovery/stm32f429i_discovery.c ****   
 536:Drivers/BSP/STM32F429I-Discovery/stm32f429i_discovery.c ****   }
 537:Drivers/BSP/STM32F429I-Discovery/stm32f429i_discovery.c ****   return value;
 538:Drivers/BSP/STM32F429I-Discovery/stm32f429i_discovery.c **** }
 539:Drivers/BSP/STM32F429I-Discovery/stm32f429i_discovery.c **** 
 540:Drivers/BSP/STM32F429I-Discovery/stm32f429i_discovery.c **** /**
 541:Drivers/BSP/STM32F429I-Discovery/stm32f429i_discovery.c ****   * @brief  Reads multiple data on the BUS.
 542:Drivers/BSP/STM32F429I-Discovery/stm32f429i_discovery.c ****   * @param  Addr: I2C Address
 543:Drivers/BSP/STM32F429I-Discovery/stm32f429i_discovery.c ****   * @param  Reg: Reg Address 
ARM GAS  /var/folders/qx/2_175_4n2s19vhvtspjhb3qh0000gn/T//cchK137x.s 			page 11


 544:Drivers/BSP/STM32F429I-Discovery/stm32f429i_discovery.c ****   * @param  pBuffer: pointer to read data buffer
 545:Drivers/BSP/STM32F429I-Discovery/stm32f429i_discovery.c ****   * @param  Length: length of the data
 546:Drivers/BSP/STM32F429I-Discovery/stm32f429i_discovery.c ****   * @retval 0 if no problems to read multiple data
 547:Drivers/BSP/STM32F429I-Discovery/stm32f429i_discovery.c ****   */
 548:Drivers/BSP/STM32F429I-Discovery/stm32f429i_discovery.c **** static uint8_t I2Cx_ReadBuffer(uint8_t Addr, uint8_t Reg, uint8_t *pBuffer, uint16_t Length)
 549:Drivers/BSP/STM32F429I-Discovery/stm32f429i_discovery.c **** {
 550:Drivers/BSP/STM32F429I-Discovery/stm32f429i_discovery.c ****   HAL_StatusTypeDef status = HAL_OK;
 551:Drivers/BSP/STM32F429I-Discovery/stm32f429i_discovery.c **** 
 552:Drivers/BSP/STM32F429I-Discovery/stm32f429i_discovery.c ****   status = HAL_I2C_Mem_Read(&I2cHandle, Addr, (uint16_t)Reg, I2C_MEMADD_SIZE_8BIT, pBuffer, Length,
 553:Drivers/BSP/STM32F429I-Discovery/stm32f429i_discovery.c ****   
 554:Drivers/BSP/STM32F429I-Discovery/stm32f429i_discovery.c ****   /* Check the communication status */
 555:Drivers/BSP/STM32F429I-Discovery/stm32f429i_discovery.c ****   if(status == HAL_OK)
 556:Drivers/BSP/STM32F429I-Discovery/stm32f429i_discovery.c ****   {
 557:Drivers/BSP/STM32F429I-Discovery/stm32f429i_discovery.c ****     return 0;
 558:Drivers/BSP/STM32F429I-Discovery/stm32f429i_discovery.c ****   }
 559:Drivers/BSP/STM32F429I-Discovery/stm32f429i_discovery.c ****   else
 560:Drivers/BSP/STM32F429I-Discovery/stm32f429i_discovery.c ****   {
 561:Drivers/BSP/STM32F429I-Discovery/stm32f429i_discovery.c ****     /* Re-Initialize the BUS */
 562:Drivers/BSP/STM32F429I-Discovery/stm32f429i_discovery.c ****     I2Cx_Error();
 563:Drivers/BSP/STM32F429I-Discovery/stm32f429i_discovery.c **** 
 564:Drivers/BSP/STM32F429I-Discovery/stm32f429i_discovery.c ****     return 1;
 565:Drivers/BSP/STM32F429I-Discovery/stm32f429i_discovery.c ****   }
 566:Drivers/BSP/STM32F429I-Discovery/stm32f429i_discovery.c **** }
 567:Drivers/BSP/STM32F429I-Discovery/stm32f429i_discovery.c **** 
 568:Drivers/BSP/STM32F429I-Discovery/stm32f429i_discovery.c **** #ifdef EE_M24LR64
 569:Drivers/BSP/STM32F429I-Discovery/stm32f429i_discovery.c **** /**
 570:Drivers/BSP/STM32F429I-Discovery/stm32f429i_discovery.c ****   * @brief  Writes a value in a register of the device through BUS in using DMA mode.
 571:Drivers/BSP/STM32F429I-Discovery/stm32f429i_discovery.c ****   * @param  Addr: Device address on BUS Bus.  
 572:Drivers/BSP/STM32F429I-Discovery/stm32f429i_discovery.c ****   * @param  Reg: The target register address to write
 573:Drivers/BSP/STM32F429I-Discovery/stm32f429i_discovery.c ****   * @param  pBuffer: The target register value to be written 
 574:Drivers/BSP/STM32F429I-Discovery/stm32f429i_discovery.c ****   * @param  Length: buffer size to be written
 575:Drivers/BSP/STM32F429I-Discovery/stm32f429i_discovery.c ****   * @retval HAL status
 576:Drivers/BSP/STM32F429I-Discovery/stm32f429i_discovery.c ****   */
 577:Drivers/BSP/STM32F429I-Discovery/stm32f429i_discovery.c **** static HAL_StatusTypeDef I2Cx_WriteBufferDMA(uint8_t Addr, uint16_t Reg,  uint8_t *pBuffer, uint16_
 578:Drivers/BSP/STM32F429I-Discovery/stm32f429i_discovery.c ****   {
 579:Drivers/BSP/STM32F429I-Discovery/stm32f429i_discovery.c ****   HAL_StatusTypeDef status = HAL_OK;
 580:Drivers/BSP/STM32F429I-Discovery/stm32f429i_discovery.c ****   
 581:Drivers/BSP/STM32F429I-Discovery/stm32f429i_discovery.c ****   status = HAL_I2C_Mem_Write_DMA(&I2cHandle, Addr, Reg, I2C_MEMADD_SIZE_16BIT, pBuffer, Length);
 582:Drivers/BSP/STM32F429I-Discovery/stm32f429i_discovery.c **** 
 583:Drivers/BSP/STM32F429I-Discovery/stm32f429i_discovery.c ****   /* Check the communication status */
 584:Drivers/BSP/STM32F429I-Discovery/stm32f429i_discovery.c ****   if(status != HAL_OK)
 585:Drivers/BSP/STM32F429I-Discovery/stm32f429i_discovery.c ****   {
 586:Drivers/BSP/STM32F429I-Discovery/stm32f429i_discovery.c ****     /* Re-Initialize the BUS */
 587:Drivers/BSP/STM32F429I-Discovery/stm32f429i_discovery.c ****     I2Cx_Error();
 588:Drivers/BSP/STM32F429I-Discovery/stm32f429i_discovery.c ****   }
 589:Drivers/BSP/STM32F429I-Discovery/stm32f429i_discovery.c **** 
 590:Drivers/BSP/STM32F429I-Discovery/stm32f429i_discovery.c ****   return status;
 591:Drivers/BSP/STM32F429I-Discovery/stm32f429i_discovery.c **** }
 592:Drivers/BSP/STM32F429I-Discovery/stm32f429i_discovery.c **** 
 593:Drivers/BSP/STM32F429I-Discovery/stm32f429i_discovery.c **** /**
 594:Drivers/BSP/STM32F429I-Discovery/stm32f429i_discovery.c ****   * @brief  Reads multiple data on the BUS in using DMA mode.
 595:Drivers/BSP/STM32F429I-Discovery/stm32f429i_discovery.c ****   * @param  Addr: I2C Address
 596:Drivers/BSP/STM32F429I-Discovery/stm32f429i_discovery.c ****   * @param  Reg: Reg Address 
 597:Drivers/BSP/STM32F429I-Discovery/stm32f429i_discovery.c ****   * @param  pBuffer: pointer to read data buffer
 598:Drivers/BSP/STM32F429I-Discovery/stm32f429i_discovery.c ****   * @param  Length: length of the data
 599:Drivers/BSP/STM32F429I-Discovery/stm32f429i_discovery.c ****   * @retval HAL status
 600:Drivers/BSP/STM32F429I-Discovery/stm32f429i_discovery.c ****   */
ARM GAS  /var/folders/qx/2_175_4n2s19vhvtspjhb3qh0000gn/T//cchK137x.s 			page 12


 601:Drivers/BSP/STM32F429I-Discovery/stm32f429i_discovery.c **** static HAL_StatusTypeDef I2Cx_ReadBufferDMA(uint8_t Addr, uint16_t Reg, uint8_t *pBuffer, uint16_t 
 602:Drivers/BSP/STM32F429I-Discovery/stm32f429i_discovery.c **** {
 603:Drivers/BSP/STM32F429I-Discovery/stm32f429i_discovery.c ****   HAL_StatusTypeDef status = HAL_OK;
 604:Drivers/BSP/STM32F429I-Discovery/stm32f429i_discovery.c **** 
 605:Drivers/BSP/STM32F429I-Discovery/stm32f429i_discovery.c ****   status = HAL_I2C_Mem_Read_DMA(&I2cHandle, Addr, Reg, I2C_MEMADD_SIZE_16BIT, pBuffer, Length);
 606:Drivers/BSP/STM32F429I-Discovery/stm32f429i_discovery.c ****   
 607:Drivers/BSP/STM32F429I-Discovery/stm32f429i_discovery.c ****   /* Check the communication status */
 608:Drivers/BSP/STM32F429I-Discovery/stm32f429i_discovery.c ****   if(status != HAL_OK)
 609:Drivers/BSP/STM32F429I-Discovery/stm32f429i_discovery.c ****   {
 610:Drivers/BSP/STM32F429I-Discovery/stm32f429i_discovery.c ****     /* Re-Initialize the BUS */
 611:Drivers/BSP/STM32F429I-Discovery/stm32f429i_discovery.c ****     I2Cx_Error();
 612:Drivers/BSP/STM32F429I-Discovery/stm32f429i_discovery.c ****   }
 613:Drivers/BSP/STM32F429I-Discovery/stm32f429i_discovery.c ****   
 614:Drivers/BSP/STM32F429I-Discovery/stm32f429i_discovery.c ****   return status;
 615:Drivers/BSP/STM32F429I-Discovery/stm32f429i_discovery.c **** }
 616:Drivers/BSP/STM32F429I-Discovery/stm32f429i_discovery.c **** 
 617:Drivers/BSP/STM32F429I-Discovery/stm32f429i_discovery.c **** /**
 618:Drivers/BSP/STM32F429I-Discovery/stm32f429i_discovery.c **** * @brief  Checks if target device is ready for communication. 
 619:Drivers/BSP/STM32F429I-Discovery/stm32f429i_discovery.c **** * @note   This function is used with Memory devices
 620:Drivers/BSP/STM32F429I-Discovery/stm32f429i_discovery.c **** * @param  DevAddress: Target device address
 621:Drivers/BSP/STM32F429I-Discovery/stm32f429i_discovery.c **** * @param  Trials: Number of trials
 622:Drivers/BSP/STM32F429I-Discovery/stm32f429i_discovery.c **** * @retval HAL status
 623:Drivers/BSP/STM32F429I-Discovery/stm32f429i_discovery.c **** */
 624:Drivers/BSP/STM32F429I-Discovery/stm32f429i_discovery.c **** static HAL_StatusTypeDef I2Cx_IsDeviceReady(uint16_t DevAddress, uint32_t Trials)
 625:Drivers/BSP/STM32F429I-Discovery/stm32f429i_discovery.c **** { 
 626:Drivers/BSP/STM32F429I-Discovery/stm32f429i_discovery.c ****   return (HAL_I2C_IsDeviceReady(&I2cHandle, DevAddress, Trials, I2cxTimeout));
 627:Drivers/BSP/STM32F429I-Discovery/stm32f429i_discovery.c **** }
 628:Drivers/BSP/STM32F429I-Discovery/stm32f429i_discovery.c **** #endif /* EE_M24LR64 */
 629:Drivers/BSP/STM32F429I-Discovery/stm32f429i_discovery.c **** 
 630:Drivers/BSP/STM32F429I-Discovery/stm32f429i_discovery.c **** /**
 631:Drivers/BSP/STM32F429I-Discovery/stm32f429i_discovery.c ****   * @brief  I2Cx error treatment function
 632:Drivers/BSP/STM32F429I-Discovery/stm32f429i_discovery.c ****   * @param  None
 633:Drivers/BSP/STM32F429I-Discovery/stm32f429i_discovery.c ****   * @retval None
 634:Drivers/BSP/STM32F429I-Discovery/stm32f429i_discovery.c ****   */
 635:Drivers/BSP/STM32F429I-Discovery/stm32f429i_discovery.c **** static void I2Cx_Error(void)
 636:Drivers/BSP/STM32F429I-Discovery/stm32f429i_discovery.c **** {
 637:Drivers/BSP/STM32F429I-Discovery/stm32f429i_discovery.c ****   /* De-initialize the SPI communication BUS */
 638:Drivers/BSP/STM32F429I-Discovery/stm32f429i_discovery.c ****   HAL_I2C_DeInit(&I2cHandle);
 639:Drivers/BSP/STM32F429I-Discovery/stm32f429i_discovery.c ****   
 640:Drivers/BSP/STM32F429I-Discovery/stm32f429i_discovery.c ****   /* Re-Initialize the SPI communication BUS */
 641:Drivers/BSP/STM32F429I-Discovery/stm32f429i_discovery.c ****   I2Cx_Init();
 642:Drivers/BSP/STM32F429I-Discovery/stm32f429i_discovery.c **** }
 643:Drivers/BSP/STM32F429I-Discovery/stm32f429i_discovery.c **** 
 644:Drivers/BSP/STM32F429I-Discovery/stm32f429i_discovery.c **** /******************************* SPI Routines *********************************/
 645:Drivers/BSP/STM32F429I-Discovery/stm32f429i_discovery.c **** 
 646:Drivers/BSP/STM32F429I-Discovery/stm32f429i_discovery.c **** /**
 647:Drivers/BSP/STM32F429I-Discovery/stm32f429i_discovery.c ****   * @brief  SPIx Bus initialization
 648:Drivers/BSP/STM32F429I-Discovery/stm32f429i_discovery.c ****   * @param  None
 649:Drivers/BSP/STM32F429I-Discovery/stm32f429i_discovery.c ****   * @retval None
 650:Drivers/BSP/STM32F429I-Discovery/stm32f429i_discovery.c ****   */
 651:Drivers/BSP/STM32F429I-Discovery/stm32f429i_discovery.c **** static void SPIx_Init(void)
 652:Drivers/BSP/STM32F429I-Discovery/stm32f429i_discovery.c **** {
 653:Drivers/BSP/STM32F429I-Discovery/stm32f429i_discovery.c ****   if(HAL_SPI_GetState(&SpiHandle) == HAL_SPI_STATE_RESET)
 654:Drivers/BSP/STM32F429I-Discovery/stm32f429i_discovery.c ****   {
 655:Drivers/BSP/STM32F429I-Discovery/stm32f429i_discovery.c ****     /* SPI configuration -----------------------------------------------------*/
 656:Drivers/BSP/STM32F429I-Discovery/stm32f429i_discovery.c ****     SpiHandle.Instance = DISCOVERY_SPIx;
 657:Drivers/BSP/STM32F429I-Discovery/stm32f429i_discovery.c ****     /* SPI baudrate is set to 5.6 MHz (PCLK2/SPI_BaudRatePrescaler = 90/16 = 5.625 MHz) 
ARM GAS  /var/folders/qx/2_175_4n2s19vhvtspjhb3qh0000gn/T//cchK137x.s 			page 13


 658:Drivers/BSP/STM32F429I-Discovery/stm32f429i_discovery.c ****        to verify these constraints:
 659:Drivers/BSP/STM32F429I-Discovery/stm32f429i_discovery.c ****        - ILI9341 LCD SPI interface max baudrate is 10MHz for write and 6.66MHz for read
 660:Drivers/BSP/STM32F429I-Discovery/stm32f429i_discovery.c ****        - l3gd20 SPI interface max baudrate is 10MHz for write/read
 661:Drivers/BSP/STM32F429I-Discovery/stm32f429i_discovery.c ****        - PCLK2 frequency is set to 90 MHz 
 662:Drivers/BSP/STM32F429I-Discovery/stm32f429i_discovery.c ****     */  
 663:Drivers/BSP/STM32F429I-Discovery/stm32f429i_discovery.c ****     SpiHandle.Init.BaudRatePrescaler = SPI_BAUDRATEPRESCALER_16;
 664:Drivers/BSP/STM32F429I-Discovery/stm32f429i_discovery.c **** 
 665:Drivers/BSP/STM32F429I-Discovery/stm32f429i_discovery.c ****     /* On STM32F429I-Discovery, LCD ID cannot be read then keep a common configuration */
 666:Drivers/BSP/STM32F429I-Discovery/stm32f429i_discovery.c ****     /* for LCD and GYRO (SPI_DIRECTION_2LINES) */
 667:Drivers/BSP/STM32F429I-Discovery/stm32f429i_discovery.c ****     /* Note: To read a register a LCD, SPI_DIRECTION_1LINE should be set */
 668:Drivers/BSP/STM32F429I-Discovery/stm32f429i_discovery.c ****     SpiHandle.Init.Direction      = SPI_DIRECTION_2LINES;
 669:Drivers/BSP/STM32F429I-Discovery/stm32f429i_discovery.c ****     SpiHandle.Init.CLKPhase       = SPI_PHASE_1EDGE;
 670:Drivers/BSP/STM32F429I-Discovery/stm32f429i_discovery.c ****     SpiHandle.Init.CLKPolarity    = SPI_POLARITY_LOW;
 671:Drivers/BSP/STM32F429I-Discovery/stm32f429i_discovery.c ****     SpiHandle.Init.CRCCalculation = SPI_CRCCALCULATION_DISABLED;
 672:Drivers/BSP/STM32F429I-Discovery/stm32f429i_discovery.c ****     SpiHandle.Init.CRCPolynomial  = 7;
 673:Drivers/BSP/STM32F429I-Discovery/stm32f429i_discovery.c ****     SpiHandle.Init.DataSize       = SPI_DATASIZE_8BIT;
 674:Drivers/BSP/STM32F429I-Discovery/stm32f429i_discovery.c ****     SpiHandle.Init.FirstBit       = SPI_FIRSTBIT_MSB;
 675:Drivers/BSP/STM32F429I-Discovery/stm32f429i_discovery.c ****     SpiHandle.Init.NSS            = SPI_NSS_SOFT;
 676:Drivers/BSP/STM32F429I-Discovery/stm32f429i_discovery.c ****     SpiHandle.Init.TIMode         = SPI_TIMODE_DISABLED;
 677:Drivers/BSP/STM32F429I-Discovery/stm32f429i_discovery.c ****     SpiHandle.Init.Mode           = SPI_MODE_MASTER;
 678:Drivers/BSP/STM32F429I-Discovery/stm32f429i_discovery.c ****   
 679:Drivers/BSP/STM32F429I-Discovery/stm32f429i_discovery.c ****     SPIx_MspInit(&SpiHandle);
 680:Drivers/BSP/STM32F429I-Discovery/stm32f429i_discovery.c ****     HAL_SPI_Init(&SpiHandle);
 681:Drivers/BSP/STM32F429I-Discovery/stm32f429i_discovery.c ****   } 
 682:Drivers/BSP/STM32F429I-Discovery/stm32f429i_discovery.c **** }
 683:Drivers/BSP/STM32F429I-Discovery/stm32f429i_discovery.c **** 
 684:Drivers/BSP/STM32F429I-Discovery/stm32f429i_discovery.c **** /**
 685:Drivers/BSP/STM32F429I-Discovery/stm32f429i_discovery.c ****   * @brief  Reads 4 bytes from device.
 686:Drivers/BSP/STM32F429I-Discovery/stm32f429i_discovery.c ****   * @param  ReadSize: Number of bytes to read (max 4 bytes)
 687:Drivers/BSP/STM32F429I-Discovery/stm32f429i_discovery.c ****   * @retval Value read on the SPI
 688:Drivers/BSP/STM32F429I-Discovery/stm32f429i_discovery.c ****   */
 689:Drivers/BSP/STM32F429I-Discovery/stm32f429i_discovery.c **** static uint32_t SPIx_Read(uint8_t ReadSize)
 690:Drivers/BSP/STM32F429I-Discovery/stm32f429i_discovery.c **** {
 691:Drivers/BSP/STM32F429I-Discovery/stm32f429i_discovery.c ****   HAL_StatusTypeDef status = HAL_OK;
 692:Drivers/BSP/STM32F429I-Discovery/stm32f429i_discovery.c ****   uint32_t readvalue;
 693:Drivers/BSP/STM32F429I-Discovery/stm32f429i_discovery.c ****   
 694:Drivers/BSP/STM32F429I-Discovery/stm32f429i_discovery.c ****   status = HAL_SPI_Receive(&SpiHandle, (uint8_t*) &readvalue, ReadSize, SpixTimeout);
 695:Drivers/BSP/STM32F429I-Discovery/stm32f429i_discovery.c ****   
 696:Drivers/BSP/STM32F429I-Discovery/stm32f429i_discovery.c ****   /* Check the communication status */
 697:Drivers/BSP/STM32F429I-Discovery/stm32f429i_discovery.c ****   if(status != HAL_OK)
 698:Drivers/BSP/STM32F429I-Discovery/stm32f429i_discovery.c ****   {
 699:Drivers/BSP/STM32F429I-Discovery/stm32f429i_discovery.c ****     /* Re-Initialize the BUS */
 700:Drivers/BSP/STM32F429I-Discovery/stm32f429i_discovery.c ****     SPIx_Error();
 701:Drivers/BSP/STM32F429I-Discovery/stm32f429i_discovery.c ****   }
 702:Drivers/BSP/STM32F429I-Discovery/stm32f429i_discovery.c ****   
 703:Drivers/BSP/STM32F429I-Discovery/stm32f429i_discovery.c ****   return readvalue;
 704:Drivers/BSP/STM32F429I-Discovery/stm32f429i_discovery.c **** }
 705:Drivers/BSP/STM32F429I-Discovery/stm32f429i_discovery.c **** 
 706:Drivers/BSP/STM32F429I-Discovery/stm32f429i_discovery.c **** /**
 707:Drivers/BSP/STM32F429I-Discovery/stm32f429i_discovery.c ****   * @brief  Writes a byte to device.
 708:Drivers/BSP/STM32F429I-Discovery/stm32f429i_discovery.c ****   * @param  Value: value to be written
 709:Drivers/BSP/STM32F429I-Discovery/stm32f429i_discovery.c ****   * @retval None
 710:Drivers/BSP/STM32F429I-Discovery/stm32f429i_discovery.c ****   */
 711:Drivers/BSP/STM32F429I-Discovery/stm32f429i_discovery.c **** static void SPIx_Write(uint16_t Value)
 712:Drivers/BSP/STM32F429I-Discovery/stm32f429i_discovery.c **** {
 713:Drivers/BSP/STM32F429I-Discovery/stm32f429i_discovery.c ****   HAL_StatusTypeDef status = HAL_OK;
 714:Drivers/BSP/STM32F429I-Discovery/stm32f429i_discovery.c ****   
ARM GAS  /var/folders/qx/2_175_4n2s19vhvtspjhb3qh0000gn/T//cchK137x.s 			page 14


 715:Drivers/BSP/STM32F429I-Discovery/stm32f429i_discovery.c ****   status = HAL_SPI_Transmit(&SpiHandle, (uint8_t*) &Value, 1, SpixTimeout);
 716:Drivers/BSP/STM32F429I-Discovery/stm32f429i_discovery.c ****   
 717:Drivers/BSP/STM32F429I-Discovery/stm32f429i_discovery.c ****   /* Check the communication status */
 718:Drivers/BSP/STM32F429I-Discovery/stm32f429i_discovery.c ****   if(status != HAL_OK)
 719:Drivers/BSP/STM32F429I-Discovery/stm32f429i_discovery.c ****   {
 720:Drivers/BSP/STM32F429I-Discovery/stm32f429i_discovery.c ****     /* Re-Initialize the BUS */
 721:Drivers/BSP/STM32F429I-Discovery/stm32f429i_discovery.c ****     SPIx_Error();
 722:Drivers/BSP/STM32F429I-Discovery/stm32f429i_discovery.c ****   }
 723:Drivers/BSP/STM32F429I-Discovery/stm32f429i_discovery.c **** }
 724:Drivers/BSP/STM32F429I-Discovery/stm32f429i_discovery.c **** 
 725:Drivers/BSP/STM32F429I-Discovery/stm32f429i_discovery.c **** /**
 726:Drivers/BSP/STM32F429I-Discovery/stm32f429i_discovery.c ****   * @brief  Sends a Byte through the SPI interface and return the Byte received 
 727:Drivers/BSP/STM32F429I-Discovery/stm32f429i_discovery.c ****   *         from the SPI bus.
 728:Drivers/BSP/STM32F429I-Discovery/stm32f429i_discovery.c ****   * @param  Byte: Byte send.
 729:Drivers/BSP/STM32F429I-Discovery/stm32f429i_discovery.c ****   * @retval The received byte value
 730:Drivers/BSP/STM32F429I-Discovery/stm32f429i_discovery.c ****   */
 731:Drivers/BSP/STM32F429I-Discovery/stm32f429i_discovery.c **** static uint8_t SPIx_WriteRead(uint8_t Byte)
 732:Drivers/BSP/STM32F429I-Discovery/stm32f429i_discovery.c **** {
 733:Drivers/BSP/STM32F429I-Discovery/stm32f429i_discovery.c ****   uint8_t receivedbyte = 0;
 734:Drivers/BSP/STM32F429I-Discovery/stm32f429i_discovery.c ****   
 735:Drivers/BSP/STM32F429I-Discovery/stm32f429i_discovery.c ****   /* Send a Byte through the SPI peripheral */
 736:Drivers/BSP/STM32F429I-Discovery/stm32f429i_discovery.c ****   /* Read byte from the SPI bus */
 737:Drivers/BSP/STM32F429I-Discovery/stm32f429i_discovery.c ****   if(HAL_SPI_TransmitReceive(&SpiHandle, (uint8_t*) &Byte, (uint8_t*) &receivedbyte, 1, SpixTimeout
 738:Drivers/BSP/STM32F429I-Discovery/stm32f429i_discovery.c ****   {
 739:Drivers/BSP/STM32F429I-Discovery/stm32f429i_discovery.c ****     SPIx_Error();
 740:Drivers/BSP/STM32F429I-Discovery/stm32f429i_discovery.c ****   }
 741:Drivers/BSP/STM32F429I-Discovery/stm32f429i_discovery.c ****   
 742:Drivers/BSP/STM32F429I-Discovery/stm32f429i_discovery.c ****   return receivedbyte;
 743:Drivers/BSP/STM32F429I-Discovery/stm32f429i_discovery.c **** }
 744:Drivers/BSP/STM32F429I-Discovery/stm32f429i_discovery.c **** 
 745:Drivers/BSP/STM32F429I-Discovery/stm32f429i_discovery.c **** /**
 746:Drivers/BSP/STM32F429I-Discovery/stm32f429i_discovery.c ****   * @brief  SPIx error treatment function.
 747:Drivers/BSP/STM32F429I-Discovery/stm32f429i_discovery.c ****   * @param  None
 748:Drivers/BSP/STM32F429I-Discovery/stm32f429i_discovery.c ****   * @retval None
 749:Drivers/BSP/STM32F429I-Discovery/stm32f429i_discovery.c ****   */
 750:Drivers/BSP/STM32F429I-Discovery/stm32f429i_discovery.c **** static void SPIx_Error(void)
 751:Drivers/BSP/STM32F429I-Discovery/stm32f429i_discovery.c **** {
 752:Drivers/BSP/STM32F429I-Discovery/stm32f429i_discovery.c ****   /* De-initialize the SPI communication BUS */
 753:Drivers/BSP/STM32F429I-Discovery/stm32f429i_discovery.c ****   HAL_SPI_DeInit(&SpiHandle);
 754:Drivers/BSP/STM32F429I-Discovery/stm32f429i_discovery.c ****   
 755:Drivers/BSP/STM32F429I-Discovery/stm32f429i_discovery.c ****   /* Re- Initialize the SPI communication BUS */
 756:Drivers/BSP/STM32F429I-Discovery/stm32f429i_discovery.c ****   SPIx_Init();
 757:Drivers/BSP/STM32F429I-Discovery/stm32f429i_discovery.c **** }
 758:Drivers/BSP/STM32F429I-Discovery/stm32f429i_discovery.c **** 
 759:Drivers/BSP/STM32F429I-Discovery/stm32f429i_discovery.c **** /**
 760:Drivers/BSP/STM32F429I-Discovery/stm32f429i_discovery.c ****   * @brief  SPI MSP Init.
 761:Drivers/BSP/STM32F429I-Discovery/stm32f429i_discovery.c ****   * @param  hspi: SPI handle
 762:Drivers/BSP/STM32F429I-Discovery/stm32f429i_discovery.c ****   * @retval None
 763:Drivers/BSP/STM32F429I-Discovery/stm32f429i_discovery.c ****   */
 764:Drivers/BSP/STM32F429I-Discovery/stm32f429i_discovery.c **** static void SPIx_MspInit(SPI_HandleTypeDef *hspi)
 765:Drivers/BSP/STM32F429I-Discovery/stm32f429i_discovery.c **** {
  29              		.loc 1 765 1 view -0
  30              		.cfi_startproc
  31              		@ args = 0, pretend = 0, frame = 32
  32              		@ frame_needed = 0, uses_anonymous_args = 0
  33              		.loc 1 765 1 is_stmt 0 view .LVU1
  34 0000 00B5     		push	{lr}
ARM GAS  /var/folders/qx/2_175_4n2s19vhvtspjhb3qh0000gn/T//cchK137x.s 			page 15


  35              	.LCFI0:
  36              		.cfi_def_cfa_offset 4
  37              		.cfi_offset 14, -4
  38 0002 89B0     		sub	sp, sp, #36
  39              	.LCFI1:
  40              		.cfi_def_cfa_offset 40
 766:Drivers/BSP/STM32F429I-Discovery/stm32f429i_discovery.c ****   GPIO_InitTypeDef   GPIO_InitStructure;
  41              		.loc 1 766 3 is_stmt 1 view .LVU2
 767:Drivers/BSP/STM32F429I-Discovery/stm32f429i_discovery.c **** 
 768:Drivers/BSP/STM32F429I-Discovery/stm32f429i_discovery.c ****   /* Enable SPIx clock */
 769:Drivers/BSP/STM32F429I-Discovery/stm32f429i_discovery.c ****   DISCOVERY_SPIx_CLK_ENABLE();
  42              		.loc 1 769 3 view .LVU3
  43              	.LBB2:
  44              		.loc 1 769 3 view .LVU4
  45 0004 0021     		movs	r1, #0
  46 0006 0191     		str	r1, [sp, #4]
  47              		.loc 1 769 3 view .LVU5
  48 0008 124B     		ldr	r3, .L3
  49 000a 5A6C     		ldr	r2, [r3, #68]
  50 000c 42F48012 		orr	r2, r2, #1048576
  51 0010 5A64     		str	r2, [r3, #68]
  52              		.loc 1 769 3 view .LVU6
  53 0012 5A6C     		ldr	r2, [r3, #68]
  54 0014 02F48012 		and	r2, r2, #1048576
  55 0018 0192     		str	r2, [sp, #4]
  56              		.loc 1 769 3 view .LVU7
  57 001a 019A     		ldr	r2, [sp, #4]
  58              	.LBE2:
  59              		.loc 1 769 3 view .LVU8
 770:Drivers/BSP/STM32F429I-Discovery/stm32f429i_discovery.c **** 
 771:Drivers/BSP/STM32F429I-Discovery/stm32f429i_discovery.c ****   /* Enable DISCOVERY_SPI GPIO clock */
 772:Drivers/BSP/STM32F429I-Discovery/stm32f429i_discovery.c ****   DISCOVERY_SPIx_GPIO_CLK_ENABLE();
  60              		.loc 1 772 3 view .LVU9
  61              	.LBB3:
  62              		.loc 1 772 3 view .LVU10
  63 001c 0291     		str	r1, [sp, #8]
  64              		.loc 1 772 3 view .LVU11
  65 001e 1A6B     		ldr	r2, [r3, #48]
  66 0020 42F02002 		orr	r2, r2, #32
  67 0024 1A63     		str	r2, [r3, #48]
  68              		.loc 1 772 3 view .LVU12
  69 0026 1B6B     		ldr	r3, [r3, #48]
  70 0028 03F02003 		and	r3, r3, #32
  71 002c 0293     		str	r3, [sp, #8]
  72              		.loc 1 772 3 view .LVU13
  73 002e 029B     		ldr	r3, [sp, #8]
  74              	.LBE3:
  75              		.loc 1 772 3 view .LVU14
 773:Drivers/BSP/STM32F429I-Discovery/stm32f429i_discovery.c **** 
 774:Drivers/BSP/STM32F429I-Discovery/stm32f429i_discovery.c ****   /* configure SPI SCK, MOSI and MISO */    
 775:Drivers/BSP/STM32F429I-Discovery/stm32f429i_discovery.c ****   GPIO_InitStructure.Pin    = (DISCOVERY_SPIx_SCK_PIN | DISCOVERY_SPIx_MOSI_PIN | DISCOVERY_SPIx_MI
  76              		.loc 1 775 3 view .LVU15
  77              		.loc 1 775 29 is_stmt 0 view .LVU16
  78 0030 4FF46073 		mov	r3, #896
  79 0034 0393     		str	r3, [sp, #12]
 776:Drivers/BSP/STM32F429I-Discovery/stm32f429i_discovery.c ****   GPIO_InitStructure.Mode   = GPIO_MODE_AF_PP;
  80              		.loc 1 776 3 is_stmt 1 view .LVU17
ARM GAS  /var/folders/qx/2_175_4n2s19vhvtspjhb3qh0000gn/T//cchK137x.s 			page 16


  81              		.loc 1 776 29 is_stmt 0 view .LVU18
  82 0036 0223     		movs	r3, #2
  83 0038 0493     		str	r3, [sp, #16]
 777:Drivers/BSP/STM32F429I-Discovery/stm32f429i_discovery.c ****   GPIO_InitStructure.Pull   = GPIO_PULLDOWN;
  84              		.loc 1 777 3 is_stmt 1 view .LVU19
  85              		.loc 1 777 29 is_stmt 0 view .LVU20
  86 003a 0593     		str	r3, [sp, #20]
 778:Drivers/BSP/STM32F429I-Discovery/stm32f429i_discovery.c ****   GPIO_InitStructure.Speed  = GPIO_SPEED_MEDIUM;
  87              		.loc 1 778 3 is_stmt 1 view .LVU21
  88              		.loc 1 778 29 is_stmt 0 view .LVU22
  89 003c 0123     		movs	r3, #1
  90 003e 0693     		str	r3, [sp, #24]
 779:Drivers/BSP/STM32F429I-Discovery/stm32f429i_discovery.c ****   GPIO_InitStructure.Alternate = DISCOVERY_SPIx_AF;
  91              		.loc 1 779 3 is_stmt 1 view .LVU23
  92              		.loc 1 779 32 is_stmt 0 view .LVU24
  93 0040 0523     		movs	r3, #5
  94 0042 0793     		str	r3, [sp, #28]
 780:Drivers/BSP/STM32F429I-Discovery/stm32f429i_discovery.c ****   HAL_GPIO_Init(DISCOVERY_SPIx_GPIO_PORT, &GPIO_InitStructure);      
  95              		.loc 1 780 3 is_stmt 1 view .LVU25
  96 0044 03A9     		add	r1, sp, #12
  97 0046 0448     		ldr	r0, .L3+4
  98              	.LVL1:
  99              		.loc 1 780 3 is_stmt 0 view .LVU26
 100 0048 FFF7FEFF 		bl	HAL_GPIO_Init
 101              	.LVL2:
 781:Drivers/BSP/STM32F429I-Discovery/stm32f429i_discovery.c **** }
 102              		.loc 1 781 1 view .LVU27
 103 004c 09B0     		add	sp, sp, #36
 104              	.LCFI2:
 105              		.cfi_def_cfa_offset 4
 106              		@ sp needed
 107 004e 5DF804FB 		ldr	pc, [sp], #4
 108              	.L4:
 109 0052 00BF     		.align	2
 110              	.L3:
 111 0054 00380240 		.word	1073887232
 112 0058 00140240 		.word	1073878016
 113              		.cfi_endproc
 114              	.LFE154:
 116              		.section	.text.I2Cx_MspInit,"ax",%progbits
 117              		.align	1
 118              		.syntax unified
 119              		.thumb
 120              		.thumb_func
 122              	I2Cx_MspInit:
 123              	.LVL3:
 124              	.LFB141:
 316:Drivers/BSP/STM32F429I-Discovery/stm32f429i_discovery.c ****   GPIO_InitTypeDef  GPIO_InitStruct;  
 125              		.loc 1 316 1 is_stmt 1 view -0
 126              		.cfi_startproc
 127              		@ args = 0, pretend = 0, frame = 32
 128              		@ frame_needed = 0, uses_anonymous_args = 0
 317:Drivers/BSP/STM32F429I-Discovery/stm32f429i_discovery.c **** #ifdef EE_M24LR64
 129              		.loc 1 317 3 view .LVU29
 326:Drivers/BSP/STM32F429I-Discovery/stm32f429i_discovery.c ****   {
 130              		.loc 1 326 3 view .LVU30
 326:Drivers/BSP/STM32F429I-Discovery/stm32f429i_discovery.c ****   {
ARM GAS  /var/folders/qx/2_175_4n2s19vhvtspjhb3qh0000gn/T//cchK137x.s 			page 17


 131              		.loc 1 326 11 is_stmt 0 view .LVU31
 132 0000 0268     		ldr	r2, [r0]
 326:Drivers/BSP/STM32F429I-Discovery/stm32f429i_discovery.c ****   {
 133              		.loc 1 326 6 view .LVU32
 134 0002 2B4B     		ldr	r3, .L12
 135 0004 9A42     		cmp	r2, r3
 136 0006 00D0     		beq	.L11
 137 0008 7047     		bx	lr
 138              	.L11:
 316:Drivers/BSP/STM32F429I-Discovery/stm32f429i_discovery.c ****   GPIO_InitTypeDef  GPIO_InitStruct;  
 139              		.loc 1 316 1 view .LVU33
 140 000a 70B5     		push	{r4, r5, r6, lr}
 141              	.LCFI3:
 142              		.cfi_def_cfa_offset 16
 143              		.cfi_offset 4, -16
 144              		.cfi_offset 5, -12
 145              		.cfi_offset 6, -8
 146              		.cfi_offset 14, -4
 147 000c 88B0     		sub	sp, sp, #32
 148              	.LCFI4:
 149              		.cfi_def_cfa_offset 48
 330:Drivers/BSP/STM32F429I-Discovery/stm32f429i_discovery.c ****     DISCOVERY_I2Cx_SCL_GPIO_CLK_ENABLE();
 150              		.loc 1 330 5 is_stmt 1 view .LVU34
 151              	.LBB4:
 330:Drivers/BSP/STM32F429I-Discovery/stm32f429i_discovery.c ****     DISCOVERY_I2Cx_SCL_GPIO_CLK_ENABLE();
 152              		.loc 1 330 5 view .LVU35
 153 000e 0025     		movs	r5, #0
 154 0010 0095     		str	r5, [sp]
 330:Drivers/BSP/STM32F429I-Discovery/stm32f429i_discovery.c ****     DISCOVERY_I2Cx_SCL_GPIO_CLK_ENABLE();
 155              		.loc 1 330 5 view .LVU36
 156 0012 284C     		ldr	r4, .L12+4
 157 0014 236B     		ldr	r3, [r4, #48]
 158 0016 43F00403 		orr	r3, r3, #4
 159 001a 2363     		str	r3, [r4, #48]
 330:Drivers/BSP/STM32F429I-Discovery/stm32f429i_discovery.c ****     DISCOVERY_I2Cx_SCL_GPIO_CLK_ENABLE();
 160              		.loc 1 330 5 view .LVU37
 161 001c 236B     		ldr	r3, [r4, #48]
 162 001e 03F00403 		and	r3, r3, #4
 163 0022 0093     		str	r3, [sp]
 330:Drivers/BSP/STM32F429I-Discovery/stm32f429i_discovery.c ****     DISCOVERY_I2Cx_SCL_GPIO_CLK_ENABLE();
 164              		.loc 1 330 5 view .LVU38
 165 0024 009B     		ldr	r3, [sp]
 166              	.LBE4:
 330:Drivers/BSP/STM32F429I-Discovery/stm32f429i_discovery.c ****     DISCOVERY_I2Cx_SCL_GPIO_CLK_ENABLE();
 167              		.loc 1 330 5 view .LVU39
 331:Drivers/BSP/STM32F429I-Discovery/stm32f429i_discovery.c ****       
 168              		.loc 1 331 5 view .LVU40
 169              	.LBB5:
 331:Drivers/BSP/STM32F429I-Discovery/stm32f429i_discovery.c ****       
 170              		.loc 1 331 5 view .LVU41
 171 0026 0195     		str	r5, [sp, #4]
 331:Drivers/BSP/STM32F429I-Discovery/stm32f429i_discovery.c ****       
 172              		.loc 1 331 5 view .LVU42
 173 0028 236B     		ldr	r3, [r4, #48]
 174 002a 43F00103 		orr	r3, r3, #1
 175 002e 2363     		str	r3, [r4, #48]
 331:Drivers/BSP/STM32F429I-Discovery/stm32f429i_discovery.c ****       
ARM GAS  /var/folders/qx/2_175_4n2s19vhvtspjhb3qh0000gn/T//cchK137x.s 			page 18


 176              		.loc 1 331 5 view .LVU43
 177 0030 236B     		ldr	r3, [r4, #48]
 178 0032 03F00103 		and	r3, r3, #1
 179 0036 0193     		str	r3, [sp, #4]
 331:Drivers/BSP/STM32F429I-Discovery/stm32f429i_discovery.c ****       
 180              		.loc 1 331 5 view .LVU44
 181 0038 019B     		ldr	r3, [sp, #4]
 182              	.LBE5:
 331:Drivers/BSP/STM32F429I-Discovery/stm32f429i_discovery.c ****       
 183              		.loc 1 331 5 view .LVU45
 334:Drivers/BSP/STM32F429I-Discovery/stm32f429i_discovery.c ****     GPIO_InitStruct.Mode      = GPIO_MODE_AF_OD;
 184              		.loc 1 334 5 view .LVU46
 334:Drivers/BSP/STM32F429I-Discovery/stm32f429i_discovery.c ****     GPIO_InitStruct.Mode      = GPIO_MODE_AF_OD;
 185              		.loc 1 334 31 is_stmt 0 view .LVU47
 186 003a 4FF48073 		mov	r3, #256
 187 003e 0393     		str	r3, [sp, #12]
 335:Drivers/BSP/STM32F429I-Discovery/stm32f429i_discovery.c ****     GPIO_InitStruct.Pull      = GPIO_NOPULL;
 188              		.loc 1 335 5 is_stmt 1 view .LVU48
 335:Drivers/BSP/STM32F429I-Discovery/stm32f429i_discovery.c ****     GPIO_InitStruct.Pull      = GPIO_NOPULL;
 189              		.loc 1 335 31 is_stmt 0 view .LVU49
 190 0040 1223     		movs	r3, #18
 191 0042 0493     		str	r3, [sp, #16]
 336:Drivers/BSP/STM32F429I-Discovery/stm32f429i_discovery.c ****     GPIO_InitStruct.Speed     = GPIO_SPEED_FAST;
 192              		.loc 1 336 5 is_stmt 1 view .LVU50
 336:Drivers/BSP/STM32F429I-Discovery/stm32f429i_discovery.c ****     GPIO_InitStruct.Speed     = GPIO_SPEED_FAST;
 193              		.loc 1 336 31 is_stmt 0 view .LVU51
 194 0044 0595     		str	r5, [sp, #20]
 337:Drivers/BSP/STM32F429I-Discovery/stm32f429i_discovery.c ****     GPIO_InitStruct.Alternate = DISCOVERY_I2Cx_SCL_SDA_AF;
 195              		.loc 1 337 5 is_stmt 1 view .LVU52
 337:Drivers/BSP/STM32F429I-Discovery/stm32f429i_discovery.c ****     GPIO_InitStruct.Alternate = DISCOVERY_I2Cx_SCL_SDA_AF;
 196              		.loc 1 337 31 is_stmt 0 view .LVU53
 197 0046 0223     		movs	r3, #2
 198 0048 0693     		str	r3, [sp, #24]
 338:Drivers/BSP/STM32F429I-Discovery/stm32f429i_discovery.c ****     HAL_GPIO_Init(DISCOVERY_I2Cx_SCL_GPIO_PORT, &GPIO_InitStruct);
 199              		.loc 1 338 5 is_stmt 1 view .LVU54
 338:Drivers/BSP/STM32F429I-Discovery/stm32f429i_discovery.c ****     HAL_GPIO_Init(DISCOVERY_I2Cx_SCL_GPIO_PORT, &GPIO_InitStruct);
 200              		.loc 1 338 31 is_stmt 0 view .LVU55
 201 004a 0423     		movs	r3, #4
 202 004c 0793     		str	r3, [sp, #28]
 339:Drivers/BSP/STM32F429I-Discovery/stm32f429i_discovery.c ****       
 203              		.loc 1 339 5 is_stmt 1 view .LVU56
 204 004e 03AE     		add	r6, sp, #12
 205 0050 3146     		mov	r1, r6
 206 0052 1948     		ldr	r0, .L12+8
 207              	.LVL4:
 339:Drivers/BSP/STM32F429I-Discovery/stm32f429i_discovery.c ****       
 208              		.loc 1 339 5 is_stmt 0 view .LVU57
 209 0054 FFF7FEFF 		bl	HAL_GPIO_Init
 210              	.LVL5:
 342:Drivers/BSP/STM32F429I-Discovery/stm32f429i_discovery.c ****     HAL_GPIO_Init(DISCOVERY_I2Cx_SDA_GPIO_PORT, &GPIO_InitStruct);
 211              		.loc 1 342 5 is_stmt 1 view .LVU58
 342:Drivers/BSP/STM32F429I-Discovery/stm32f429i_discovery.c ****     HAL_GPIO_Init(DISCOVERY_I2Cx_SDA_GPIO_PORT, &GPIO_InitStruct);
 212              		.loc 1 342 25 is_stmt 0 view .LVU59
 213 0058 4FF40073 		mov	r3, #512
 214 005c 0393     		str	r3, [sp, #12]
 343:Drivers/BSP/STM32F429I-Discovery/stm32f429i_discovery.c ****     
 215              		.loc 1 343 5 is_stmt 1 view .LVU60
ARM GAS  /var/folders/qx/2_175_4n2s19vhvtspjhb3qh0000gn/T//cchK137x.s 			page 19


 216 005e 3146     		mov	r1, r6
 217 0060 1648     		ldr	r0, .L12+12
 218 0062 FFF7FEFF 		bl	HAL_GPIO_Init
 219              	.LVL6:
 348:Drivers/BSP/STM32F429I-Discovery/stm32f429i_discovery.c ****     
 220              		.loc 1 348 5 view .LVU61
 221              	.LBB6:
 348:Drivers/BSP/STM32F429I-Discovery/stm32f429i_discovery.c ****     
 222              		.loc 1 348 5 view .LVU62
 223 0066 0295     		str	r5, [sp, #8]
 348:Drivers/BSP/STM32F429I-Discovery/stm32f429i_discovery.c ****     
 224              		.loc 1 348 5 view .LVU63
 225 0068 236C     		ldr	r3, [r4, #64]
 226 006a 43F40003 		orr	r3, r3, #8388608
 227 006e 2364     		str	r3, [r4, #64]
 348:Drivers/BSP/STM32F429I-Discovery/stm32f429i_discovery.c ****     
 228              		.loc 1 348 5 view .LVU64
 229 0070 236C     		ldr	r3, [r4, #64]
 230 0072 03F40003 		and	r3, r3, #8388608
 231 0076 0293     		str	r3, [sp, #8]
 348:Drivers/BSP/STM32F429I-Discovery/stm32f429i_discovery.c ****     
 232              		.loc 1 348 5 view .LVU65
 233 0078 029B     		ldr	r3, [sp, #8]
 234              	.LBE6:
 348:Drivers/BSP/STM32F429I-Discovery/stm32f429i_discovery.c ****     
 235              		.loc 1 348 5 view .LVU66
 351:Drivers/BSP/STM32F429I-Discovery/stm32f429i_discovery.c ****       
 236              		.loc 1 351 5 view .LVU67
 237 007a 236A     		ldr	r3, [r4, #32]
 238 007c 43F40003 		orr	r3, r3, #8388608
 239 0080 2362     		str	r3, [r4, #32]
 354:Drivers/BSP/STM32F429I-Discovery/stm32f429i_discovery.c ****     
 240              		.loc 1 354 5 view .LVU68
 241 0082 236A     		ldr	r3, [r4, #32]
 242 0084 23F40003 		bic	r3, r3, #8388608
 243 0088 2362     		str	r3, [r4, #32]
 357:Drivers/BSP/STM32F429I-Discovery/stm32f429i_discovery.c ****     HAL_NVIC_EnableIRQ(DISCOVERY_I2Cx_EV_IRQn);
 244              		.loc 1 357 5 view .LVU69
 245 008a 2A46     		mov	r2, r5
 246 008c 2946     		mov	r1, r5
 247 008e 4820     		movs	r0, #72
 248 0090 FFF7FEFF 		bl	HAL_NVIC_SetPriority
 249              	.LVL7:
 358:Drivers/BSP/STM32F429I-Discovery/stm32f429i_discovery.c ****     
 250              		.loc 1 358 5 view .LVU70
 251 0094 4820     		movs	r0, #72
 252 0096 FFF7FEFF 		bl	HAL_NVIC_EnableIRQ
 253              	.LVL8:
 361:Drivers/BSP/STM32F429I-Discovery/stm32f429i_discovery.c ****     HAL_NVIC_EnableIRQ(DISCOVERY_I2Cx_ER_IRQn);  
 254              		.loc 1 361 5 view .LVU71
 255 009a 2A46     		mov	r2, r5
 256 009c 2946     		mov	r1, r5
 257 009e 4920     		movs	r0, #73
 258 00a0 FFF7FEFF 		bl	HAL_NVIC_SetPriority
 259              	.LVL9:
 362:Drivers/BSP/STM32F429I-Discovery/stm32f429i_discovery.c **** 
 260              		.loc 1 362 5 view .LVU72
ARM GAS  /var/folders/qx/2_175_4n2s19vhvtspjhb3qh0000gn/T//cchK137x.s 			page 20


 261 00a4 4920     		movs	r0, #73
 262 00a6 FFF7FEFF 		bl	HAL_NVIC_EnableIRQ
 263              	.LVL10:
 424:Drivers/BSP/STM32F429I-Discovery/stm32f429i_discovery.c **** 
 264              		.loc 1 424 1 is_stmt 0 view .LVU73
 265 00aa 08B0     		add	sp, sp, #32
 266              	.LCFI5:
 267              		.cfi_def_cfa_offset 16
 268              		@ sp needed
 269 00ac 70BD     		pop	{r4, r5, r6, pc}
 270              	.L13:
 271 00ae 00BF     		.align	2
 272              	.L12:
 273 00b0 005C0040 		.word	1073765376
 274 00b4 00380240 		.word	1073887232
 275 00b8 00000240 		.word	1073872896
 276 00bc 00080240 		.word	1073874944
 277              		.cfi_endproc
 278              	.LFE141:
 280              		.section	.text.I2Cx_ITConfig,"ax",%progbits
 281              		.align	1
 282              		.syntax unified
 283              		.thumb
 284              		.thumb_func
 286              	I2Cx_ITConfig:
 287              	.LFB143:
 457:Drivers/BSP/STM32F429I-Discovery/stm32f429i_discovery.c ****   GPIO_InitTypeDef  GPIO_InitStruct;
 288              		.loc 1 457 1 is_stmt 1 view -0
 289              		.cfi_startproc
 290              		@ args = 0, pretend = 0, frame = 24
 291              		@ frame_needed = 0, uses_anonymous_args = 0
 292 0000 10B5     		push	{r4, lr}
 293              	.LCFI6:
 294              		.cfi_def_cfa_offset 8
 295              		.cfi_offset 4, -8
 296              		.cfi_offset 14, -4
 297 0002 86B0     		sub	sp, sp, #24
 298              	.LCFI7:
 299              		.cfi_def_cfa_offset 32
 458:Drivers/BSP/STM32F429I-Discovery/stm32f429i_discovery.c ****     
 300              		.loc 1 458 3 view .LVU75
 461:Drivers/BSP/STM32F429I-Discovery/stm32f429i_discovery.c ****   
 301              		.loc 1 461 3 view .LVU76
 302              	.LBB7:
 461:Drivers/BSP/STM32F429I-Discovery/stm32f429i_discovery.c ****   
 303              		.loc 1 461 3 view .LVU77
 304 0004 0024     		movs	r4, #0
 305 0006 0094     		str	r4, [sp]
 461:Drivers/BSP/STM32F429I-Discovery/stm32f429i_discovery.c ****   
 306              		.loc 1 461 3 view .LVU78
 307 0008 104B     		ldr	r3, .L16
 308 000a 1A6B     		ldr	r2, [r3, #48]
 309 000c 42F00102 		orr	r2, r2, #1
 310 0010 1A63     		str	r2, [r3, #48]
 461:Drivers/BSP/STM32F429I-Discovery/stm32f429i_discovery.c ****   
 311              		.loc 1 461 3 view .LVU79
 312 0012 1B6B     		ldr	r3, [r3, #48]
ARM GAS  /var/folders/qx/2_175_4n2s19vhvtspjhb3qh0000gn/T//cchK137x.s 			page 21


 313 0014 03F00103 		and	r3, r3, #1
 314 0018 0093     		str	r3, [sp]
 461:Drivers/BSP/STM32F429I-Discovery/stm32f429i_discovery.c ****   
 315              		.loc 1 461 3 view .LVU80
 316 001a 009B     		ldr	r3, [sp]
 317              	.LBE7:
 461:Drivers/BSP/STM32F429I-Discovery/stm32f429i_discovery.c ****   
 318              		.loc 1 461 3 view .LVU81
 463:Drivers/BSP/STM32F429I-Discovery/stm32f429i_discovery.c ****   GPIO_InitStruct.Pull  = GPIO_PULLUP;
 319              		.loc 1 463 3 view .LVU82
 463:Drivers/BSP/STM32F429I-Discovery/stm32f429i_discovery.c ****   GPIO_InitStruct.Pull  = GPIO_PULLUP;
 320              		.loc 1 463 25 is_stmt 0 view .LVU83
 321 001c 4FF40043 		mov	r3, #32768
 322 0020 0193     		str	r3, [sp, #4]
 464:Drivers/BSP/STM32F429I-Discovery/stm32f429i_discovery.c ****   GPIO_InitStruct.Speed = GPIO_SPEED_LOW;
 323              		.loc 1 464 3 is_stmt 1 view .LVU84
 464:Drivers/BSP/STM32F429I-Discovery/stm32f429i_discovery.c ****   GPIO_InitStruct.Speed = GPIO_SPEED_LOW;
 324              		.loc 1 464 25 is_stmt 0 view .LVU85
 325 0022 0123     		movs	r3, #1
 326 0024 0393     		str	r3, [sp, #12]
 465:Drivers/BSP/STM32F429I-Discovery/stm32f429i_discovery.c ****   GPIO_InitStruct.Mode  = GPIO_MODE_IT_FALLING;
 327              		.loc 1 465 3 is_stmt 1 view .LVU86
 465:Drivers/BSP/STM32F429I-Discovery/stm32f429i_discovery.c ****   GPIO_InitStruct.Mode  = GPIO_MODE_IT_FALLING;
 328              		.loc 1 465 25 is_stmt 0 view .LVU87
 329 0026 0494     		str	r4, [sp, #16]
 466:Drivers/BSP/STM32F429I-Discovery/stm32f429i_discovery.c ****   HAL_GPIO_Init(STMPE811_INT_GPIO_PORT, &GPIO_InitStruct);
 330              		.loc 1 466 3 is_stmt 1 view .LVU88
 466:Drivers/BSP/STM32F429I-Discovery/stm32f429i_discovery.c ****   HAL_GPIO_Init(STMPE811_INT_GPIO_PORT, &GPIO_InitStruct);
 331              		.loc 1 466 25 is_stmt 0 view .LVU89
 332 0028 4FF40413 		mov	r3, #2162688
 333 002c 0293     		str	r3, [sp, #8]
 467:Drivers/BSP/STM32F429I-Discovery/stm32f429i_discovery.c ****     
 334              		.loc 1 467 3 is_stmt 1 view .LVU90
 335 002e 01A9     		add	r1, sp, #4
 336 0030 0748     		ldr	r0, .L16+4
 337 0032 FFF7FEFF 		bl	HAL_GPIO_Init
 338              	.LVL11:
 470:Drivers/BSP/STM32F429I-Discovery/stm32f429i_discovery.c ****   HAL_NVIC_EnableIRQ((IRQn_Type)(STMPE811_INT_EXTI));
 339              		.loc 1 470 3 view .LVU91
 340 0036 2246     		mov	r2, r4
 341 0038 2146     		mov	r1, r4
 342 003a 2820     		movs	r0, #40
 343 003c FFF7FEFF 		bl	HAL_NVIC_SetPriority
 344              	.LVL12:
 471:Drivers/BSP/STM32F429I-Discovery/stm32f429i_discovery.c **** }
 345              		.loc 1 471 3 view .LVU92
 346 0040 2820     		movs	r0, #40
 347 0042 FFF7FEFF 		bl	HAL_NVIC_EnableIRQ
 348              	.LVL13:
 472:Drivers/BSP/STM32F429I-Discovery/stm32f429i_discovery.c **** 
 349              		.loc 1 472 1 is_stmt 0 view .LVU93
 350 0046 06B0     		add	sp, sp, #24
 351              	.LCFI8:
 352              		.cfi_def_cfa_offset 8
 353              		@ sp needed
 354 0048 10BD     		pop	{r4, pc}
 355              	.L17:
ARM GAS  /var/folders/qx/2_175_4n2s19vhvtspjhb3qh0000gn/T//cchK137x.s 			page 22


 356 004a 00BF     		.align	2
 357              	.L16:
 358 004c 00380240 		.word	1073887232
 359 0050 00000240 		.word	1073872896
 360              		.cfi_endproc
 361              	.LFE143:
 363              		.section	.text.SPIx_Init,"ax",%progbits
 364              		.align	1
 365              		.syntax unified
 366              		.thumb
 367              		.thumb_func
 369              	SPIx_Init:
 370              	.LFB149:
 652:Drivers/BSP/STM32F429I-Discovery/stm32f429i_discovery.c ****   if(HAL_SPI_GetState(&SpiHandle) == HAL_SPI_STATE_RESET)
 371              		.loc 1 652 1 is_stmt 1 view -0
 372              		.cfi_startproc
 373              		@ args = 0, pretend = 0, frame = 0
 374              		@ frame_needed = 0, uses_anonymous_args = 0
 375 0000 10B5     		push	{r4, lr}
 376              	.LCFI9:
 377              		.cfi_def_cfa_offset 8
 378              		.cfi_offset 4, -8
 379              		.cfi_offset 14, -4
 653:Drivers/BSP/STM32F429I-Discovery/stm32f429i_discovery.c ****   {
 380              		.loc 1 653 3 view .LVU95
 653:Drivers/BSP/STM32F429I-Discovery/stm32f429i_discovery.c ****   {
 381              		.loc 1 653 6 is_stmt 0 view .LVU96
 382 0002 1048     		ldr	r0, .L22
 383 0004 FFF7FEFF 		bl	HAL_SPI_GetState
 384              	.LVL14:
 653:Drivers/BSP/STM32F429I-Discovery/stm32f429i_discovery.c ****   {
 385              		.loc 1 653 5 discriminator 1 view .LVU97
 386 0008 00B1     		cbz	r0, .L21
 387              	.L18:
 682:Drivers/BSP/STM32F429I-Discovery/stm32f429i_discovery.c **** 
 388              		.loc 1 682 1 view .LVU98
 389 000a 10BD     		pop	{r4, pc}
 390              	.L21:
 656:Drivers/BSP/STM32F429I-Discovery/stm32f429i_discovery.c ****     /* SPI baudrate is set to 5.6 MHz (PCLK2/SPI_BaudRatePrescaler = 90/16 = 5.625 MHz) 
 391              		.loc 1 656 5 is_stmt 1 view .LVU99
 656:Drivers/BSP/STM32F429I-Discovery/stm32f429i_discovery.c ****     /* SPI baudrate is set to 5.6 MHz (PCLK2/SPI_BaudRatePrescaler = 90/16 = 5.625 MHz) 
 392              		.loc 1 656 24 is_stmt 0 view .LVU100
 393 000c 0D4C     		ldr	r4, .L22
 394 000e 0E4B     		ldr	r3, .L22+4
 395 0010 2360     		str	r3, [r4]
 663:Drivers/BSP/STM32F429I-Discovery/stm32f429i_discovery.c **** 
 396              		.loc 1 663 5 is_stmt 1 view .LVU101
 663:Drivers/BSP/STM32F429I-Discovery/stm32f429i_discovery.c **** 
 397              		.loc 1 663 38 is_stmt 0 view .LVU102
 398 0012 1823     		movs	r3, #24
 399 0014 E361     		str	r3, [r4, #28]
 668:Drivers/BSP/STM32F429I-Discovery/stm32f429i_discovery.c ****     SpiHandle.Init.CLKPhase       = SPI_PHASE_1EDGE;
 400              		.loc 1 668 5 is_stmt 1 view .LVU103
 668:Drivers/BSP/STM32F429I-Discovery/stm32f429i_discovery.c ****     SpiHandle.Init.CLKPhase       = SPI_PHASE_1EDGE;
 401              		.loc 1 668 35 is_stmt 0 view .LVU104
 402 0016 0023     		movs	r3, #0
 403 0018 A360     		str	r3, [r4, #8]
ARM GAS  /var/folders/qx/2_175_4n2s19vhvtspjhb3qh0000gn/T//cchK137x.s 			page 23


 669:Drivers/BSP/STM32F429I-Discovery/stm32f429i_discovery.c ****     SpiHandle.Init.CLKPolarity    = SPI_POLARITY_LOW;
 404              		.loc 1 669 5 is_stmt 1 view .LVU105
 669:Drivers/BSP/STM32F429I-Discovery/stm32f429i_discovery.c ****     SpiHandle.Init.CLKPolarity    = SPI_POLARITY_LOW;
 405              		.loc 1 669 35 is_stmt 0 view .LVU106
 406 001a 6361     		str	r3, [r4, #20]
 670:Drivers/BSP/STM32F429I-Discovery/stm32f429i_discovery.c ****     SpiHandle.Init.CRCCalculation = SPI_CRCCALCULATION_DISABLED;
 407              		.loc 1 670 5 is_stmt 1 view .LVU107
 670:Drivers/BSP/STM32F429I-Discovery/stm32f429i_discovery.c ****     SpiHandle.Init.CRCCalculation = SPI_CRCCALCULATION_DISABLED;
 408              		.loc 1 670 35 is_stmt 0 view .LVU108
 409 001c 2361     		str	r3, [r4, #16]
 671:Drivers/BSP/STM32F429I-Discovery/stm32f429i_discovery.c ****     SpiHandle.Init.CRCPolynomial  = 7;
 410              		.loc 1 671 5 is_stmt 1 view .LVU109
 671:Drivers/BSP/STM32F429I-Discovery/stm32f429i_discovery.c ****     SpiHandle.Init.CRCPolynomial  = 7;
 411              		.loc 1 671 35 is_stmt 0 view .LVU110
 412 001e A362     		str	r3, [r4, #40]
 672:Drivers/BSP/STM32F429I-Discovery/stm32f429i_discovery.c ****     SpiHandle.Init.DataSize       = SPI_DATASIZE_8BIT;
 413              		.loc 1 672 5 is_stmt 1 view .LVU111
 672:Drivers/BSP/STM32F429I-Discovery/stm32f429i_discovery.c ****     SpiHandle.Init.DataSize       = SPI_DATASIZE_8BIT;
 414              		.loc 1 672 35 is_stmt 0 view .LVU112
 415 0020 0722     		movs	r2, #7
 416 0022 E262     		str	r2, [r4, #44]
 673:Drivers/BSP/STM32F429I-Discovery/stm32f429i_discovery.c ****     SpiHandle.Init.FirstBit       = SPI_FIRSTBIT_MSB;
 417              		.loc 1 673 5 is_stmt 1 view .LVU113
 673:Drivers/BSP/STM32F429I-Discovery/stm32f429i_discovery.c ****     SpiHandle.Init.FirstBit       = SPI_FIRSTBIT_MSB;
 418              		.loc 1 673 35 is_stmt 0 view .LVU114
 419 0024 E360     		str	r3, [r4, #12]
 674:Drivers/BSP/STM32F429I-Discovery/stm32f429i_discovery.c ****     SpiHandle.Init.NSS            = SPI_NSS_SOFT;
 420              		.loc 1 674 5 is_stmt 1 view .LVU115
 674:Drivers/BSP/STM32F429I-Discovery/stm32f429i_discovery.c ****     SpiHandle.Init.NSS            = SPI_NSS_SOFT;
 421              		.loc 1 674 35 is_stmt 0 view .LVU116
 422 0026 2362     		str	r3, [r4, #32]
 675:Drivers/BSP/STM32F429I-Discovery/stm32f429i_discovery.c ****     SpiHandle.Init.TIMode         = SPI_TIMODE_DISABLED;
 423              		.loc 1 675 5 is_stmt 1 view .LVU117
 675:Drivers/BSP/STM32F429I-Discovery/stm32f429i_discovery.c ****     SpiHandle.Init.TIMode         = SPI_TIMODE_DISABLED;
 424              		.loc 1 675 35 is_stmt 0 view .LVU118
 425 0028 4FF40072 		mov	r2, #512
 426 002c A261     		str	r2, [r4, #24]
 676:Drivers/BSP/STM32F429I-Discovery/stm32f429i_discovery.c ****     SpiHandle.Init.Mode           = SPI_MODE_MASTER;
 427              		.loc 1 676 5 is_stmt 1 view .LVU119
 676:Drivers/BSP/STM32F429I-Discovery/stm32f429i_discovery.c ****     SpiHandle.Init.Mode           = SPI_MODE_MASTER;
 428              		.loc 1 676 35 is_stmt 0 view .LVU120
 429 002e 6362     		str	r3, [r4, #36]
 677:Drivers/BSP/STM32F429I-Discovery/stm32f429i_discovery.c ****   
 430              		.loc 1 677 5 is_stmt 1 view .LVU121
 677:Drivers/BSP/STM32F429I-Discovery/stm32f429i_discovery.c ****   
 431              		.loc 1 677 35 is_stmt 0 view .LVU122
 432 0030 4FF48273 		mov	r3, #260
 433 0034 6360     		str	r3, [r4, #4]
 679:Drivers/BSP/STM32F429I-Discovery/stm32f429i_discovery.c ****     HAL_SPI_Init(&SpiHandle);
 434              		.loc 1 679 5 is_stmt 1 view .LVU123
 435 0036 2046     		mov	r0, r4
 436 0038 FFF7FEFF 		bl	SPIx_MspInit
 437              	.LVL15:
 680:Drivers/BSP/STM32F429I-Discovery/stm32f429i_discovery.c ****   } 
 438              		.loc 1 680 5 view .LVU124
 439 003c 2046     		mov	r0, r4
 440 003e FFF7FEFF 		bl	HAL_SPI_Init
ARM GAS  /var/folders/qx/2_175_4n2s19vhvtspjhb3qh0000gn/T//cchK137x.s 			page 24


 441              	.LVL16:
 682:Drivers/BSP/STM32F429I-Discovery/stm32f429i_discovery.c **** 
 442              		.loc 1 682 1 is_stmt 0 view .LVU125
 443 0042 E2E7     		b	.L18
 444              	.L23:
 445              		.align	2
 446              	.L22:
 447 0044 00000000 		.word	SpiHandle
 448 0048 00500140 		.word	1073827840
 449              		.cfi_endproc
 450              	.LFE149:
 452              		.section	.text.SPIx_Error,"ax",%progbits
 453              		.align	1
 454              		.syntax unified
 455              		.thumb
 456              		.thumb_func
 458              	SPIx_Error:
 459              	.LFB153:
 751:Drivers/BSP/STM32F429I-Discovery/stm32f429i_discovery.c ****   /* De-initialize the SPI communication BUS */
 460              		.loc 1 751 1 is_stmt 1 view -0
 461              		.cfi_startproc
 462              		@ args = 0, pretend = 0, frame = 0
 463              		@ frame_needed = 0, uses_anonymous_args = 0
 464 0000 08B5     		push	{r3, lr}
 465              	.LCFI10:
 466              		.cfi_def_cfa_offset 8
 467              		.cfi_offset 3, -8
 468              		.cfi_offset 14, -4
 753:Drivers/BSP/STM32F429I-Discovery/stm32f429i_discovery.c ****   
 469              		.loc 1 753 3 view .LVU127
 470 0002 0348     		ldr	r0, .L26
 471 0004 FFF7FEFF 		bl	HAL_SPI_DeInit
 472              	.LVL17:
 756:Drivers/BSP/STM32F429I-Discovery/stm32f429i_discovery.c **** }
 473              		.loc 1 756 3 view .LVU128
 474 0008 FFF7FEFF 		bl	SPIx_Init
 475              	.LVL18:
 757:Drivers/BSP/STM32F429I-Discovery/stm32f429i_discovery.c **** 
 476              		.loc 1 757 1 is_stmt 0 view .LVU129
 477 000c 08BD     		pop	{r3, pc}
 478              	.L27:
 479 000e 00BF     		.align	2
 480              	.L26:
 481 0010 00000000 		.word	SpiHandle
 482              		.cfi_endproc
 483              	.LFE153:
 485              		.section	.text.SPIx_Write,"ax",%progbits
 486              		.align	1
 487              		.syntax unified
 488              		.thumb
 489              		.thumb_func
 491              	SPIx_Write:
 492              	.LVL19:
 493              	.LFB151:
 712:Drivers/BSP/STM32F429I-Discovery/stm32f429i_discovery.c ****   HAL_StatusTypeDef status = HAL_OK;
 494              		.loc 1 712 1 is_stmt 1 view -0
 495              		.cfi_startproc
ARM GAS  /var/folders/qx/2_175_4n2s19vhvtspjhb3qh0000gn/T//cchK137x.s 			page 25


 496              		@ args = 0, pretend = 0, frame = 8
 497              		@ frame_needed = 0, uses_anonymous_args = 0
 712:Drivers/BSP/STM32F429I-Discovery/stm32f429i_discovery.c ****   HAL_StatusTypeDef status = HAL_OK;
 498              		.loc 1 712 1 is_stmt 0 view .LVU131
 499 0000 00B5     		push	{lr}
 500              	.LCFI11:
 501              		.cfi_def_cfa_offset 4
 502              		.cfi_offset 14, -4
 503 0002 83B0     		sub	sp, sp, #12
 504              	.LCFI12:
 505              		.cfi_def_cfa_offset 16
 506 0004 ADF80600 		strh	r0, [sp, #6]	@ movhi
 713:Drivers/BSP/STM32F429I-Discovery/stm32f429i_discovery.c ****   
 507              		.loc 1 713 3 is_stmt 1 view .LVU132
 508              	.LVL20:
 715:Drivers/BSP/STM32F429I-Discovery/stm32f429i_discovery.c ****   
 509              		.loc 1 715 3 view .LVU133
 715:Drivers/BSP/STM32F429I-Discovery/stm32f429i_discovery.c ****   
 510              		.loc 1 715 12 is_stmt 0 view .LVU134
 511 0008 074B     		ldr	r3, .L32
 512 000a 1B68     		ldr	r3, [r3]
 513 000c 0122     		movs	r2, #1
 514 000e 0DF10601 		add	r1, sp, #6
 515 0012 0648     		ldr	r0, .L32+4
 516              	.LVL21:
 715:Drivers/BSP/STM32F429I-Discovery/stm32f429i_discovery.c ****   
 517              		.loc 1 715 12 view .LVU135
 518 0014 FFF7FEFF 		bl	HAL_SPI_Transmit
 519              	.LVL22:
 718:Drivers/BSP/STM32F429I-Discovery/stm32f429i_discovery.c ****   {
 520              		.loc 1 718 3 is_stmt 1 view .LVU136
 718:Drivers/BSP/STM32F429I-Discovery/stm32f429i_discovery.c ****   {
 521              		.loc 1 718 5 is_stmt 0 view .LVU137
 522 0018 10B9     		cbnz	r0, .L31
 523              	.LVL23:
 524              	.L28:
 723:Drivers/BSP/STM32F429I-Discovery/stm32f429i_discovery.c **** 
 525              		.loc 1 723 1 view .LVU138
 526 001a 03B0     		add	sp, sp, #12
 527              	.LCFI13:
 528              		.cfi_remember_state
 529              		.cfi_def_cfa_offset 4
 530              		@ sp needed
 531 001c 5DF804FB 		ldr	pc, [sp], #4
 532              	.LVL24:
 533              	.L31:
 534              	.LCFI14:
 535              		.cfi_restore_state
 721:Drivers/BSP/STM32F429I-Discovery/stm32f429i_discovery.c ****   }
 536              		.loc 1 721 5 is_stmt 1 view .LVU139
 537 0020 FFF7FEFF 		bl	SPIx_Error
 538              	.LVL25:
 723:Drivers/BSP/STM32F429I-Discovery/stm32f429i_discovery.c **** 
 539              		.loc 1 723 1 is_stmt 0 view .LVU140
 540 0024 F9E7     		b	.L28
 541              	.L33:
 542 0026 00BF     		.align	2
ARM GAS  /var/folders/qx/2_175_4n2s19vhvtspjhb3qh0000gn/T//cchK137x.s 			page 26


 543              	.L32:
 544 0028 00000000 		.word	SpixTimeout
 545 002c 00000000 		.word	SpiHandle
 546              		.cfi_endproc
 547              	.LFE151:
 549              		.section	.text.SPIx_Read,"ax",%progbits
 550              		.align	1
 551              		.syntax unified
 552              		.thumb
 553              		.thumb_func
 555              	SPIx_Read:
 556              	.LVL26:
 557              	.LFB150:
 690:Drivers/BSP/STM32F429I-Discovery/stm32f429i_discovery.c ****   HAL_StatusTypeDef status = HAL_OK;
 558              		.loc 1 690 1 is_stmt 1 view -0
 559              		.cfi_startproc
 560              		@ args = 0, pretend = 0, frame = 8
 561              		@ frame_needed = 0, uses_anonymous_args = 0
 690:Drivers/BSP/STM32F429I-Discovery/stm32f429i_discovery.c ****   HAL_StatusTypeDef status = HAL_OK;
 562              		.loc 1 690 1 is_stmt 0 view .LVU142
 563 0000 00B5     		push	{lr}
 564              	.LCFI15:
 565              		.cfi_def_cfa_offset 4
 566              		.cfi_offset 14, -4
 567 0002 83B0     		sub	sp, sp, #12
 568              	.LCFI16:
 569              		.cfi_def_cfa_offset 16
 570 0004 0246     		mov	r2, r0
 691:Drivers/BSP/STM32F429I-Discovery/stm32f429i_discovery.c ****   uint32_t readvalue;
 571              		.loc 1 691 3 is_stmt 1 view .LVU143
 572              	.LVL27:
 692:Drivers/BSP/STM32F429I-Discovery/stm32f429i_discovery.c ****   
 573              		.loc 1 692 3 view .LVU144
 694:Drivers/BSP/STM32F429I-Discovery/stm32f429i_discovery.c ****   
 574              		.loc 1 694 3 view .LVU145
 694:Drivers/BSP/STM32F429I-Discovery/stm32f429i_discovery.c ****   
 575              		.loc 1 694 12 is_stmt 0 view .LVU146
 576 0006 074B     		ldr	r3, .L38
 577 0008 1B68     		ldr	r3, [r3]
 578 000a 01A9     		add	r1, sp, #4
 579 000c 0648     		ldr	r0, .L38+4
 580              	.LVL28:
 694:Drivers/BSP/STM32F429I-Discovery/stm32f429i_discovery.c ****   
 581              		.loc 1 694 12 view .LVU147
 582 000e FFF7FEFF 		bl	HAL_SPI_Receive
 583              	.LVL29:
 697:Drivers/BSP/STM32F429I-Discovery/stm32f429i_discovery.c ****   {
 584              		.loc 1 697 3 is_stmt 1 view .LVU148
 697:Drivers/BSP/STM32F429I-Discovery/stm32f429i_discovery.c ****   {
 585              		.loc 1 697 5 is_stmt 0 view .LVU149
 586 0012 18B9     		cbnz	r0, .L37
 587              	.LVL30:
 588              	.L35:
 703:Drivers/BSP/STM32F429I-Discovery/stm32f429i_discovery.c **** }
 589              		.loc 1 703 3 is_stmt 1 view .LVU150
 704:Drivers/BSP/STM32F429I-Discovery/stm32f429i_discovery.c **** 
 590              		.loc 1 704 1 is_stmt 0 view .LVU151
ARM GAS  /var/folders/qx/2_175_4n2s19vhvtspjhb3qh0000gn/T//cchK137x.s 			page 27


 591 0014 0198     		ldr	r0, [sp, #4]
 592 0016 03B0     		add	sp, sp, #12
 593              	.LCFI17:
 594              		.cfi_remember_state
 595              		.cfi_def_cfa_offset 4
 596              		@ sp needed
 597 0018 5DF804FB 		ldr	pc, [sp], #4
 598              	.LVL31:
 599              	.L37:
 600              	.LCFI18:
 601              		.cfi_restore_state
 700:Drivers/BSP/STM32F429I-Discovery/stm32f429i_discovery.c ****   }
 602              		.loc 1 700 5 is_stmt 1 view .LVU152
 603 001c FFF7FEFF 		bl	SPIx_Error
 604              	.LVL32:
 700:Drivers/BSP/STM32F429I-Discovery/stm32f429i_discovery.c ****   }
 605              		.loc 1 700 5 is_stmt 0 view .LVU153
 606 0020 F8E7     		b	.L35
 607              	.L39:
 608 0022 00BF     		.align	2
 609              	.L38:
 610 0024 00000000 		.word	SpixTimeout
 611 0028 00000000 		.word	SpiHandle
 612              		.cfi_endproc
 613              	.LFE150:
 615              		.section	.text.I2Cx_Init,"ax",%progbits
 616              		.align	1
 617              		.syntax unified
 618              		.thumb
 619              		.thumb_func
 621              	I2Cx_Init:
 622              	.LFB142:
 432:Drivers/BSP/STM32F429I-Discovery/stm32f429i_discovery.c ****   if(HAL_I2C_GetState(&I2cHandle) == HAL_I2C_STATE_RESET)
 623              		.loc 1 432 1 is_stmt 1 view -0
 624              		.cfi_startproc
 625              		@ args = 0, pretend = 0, frame = 0
 626              		@ frame_needed = 0, uses_anonymous_args = 0
 627 0000 10B5     		push	{r4, lr}
 628              	.LCFI19:
 629              		.cfi_def_cfa_offset 8
 630              		.cfi_offset 4, -8
 631              		.cfi_offset 14, -4
 433:Drivers/BSP/STM32F429I-Discovery/stm32f429i_discovery.c ****   {
 632              		.loc 1 433 3 view .LVU155
 433:Drivers/BSP/STM32F429I-Discovery/stm32f429i_discovery.c ****   {
 633              		.loc 1 433 6 is_stmt 0 view .LVU156
 634 0002 0D48     		ldr	r0, .L44
 635 0004 FFF7FEFF 		bl	HAL_I2C_GetState
 636              	.LVL33:
 433:Drivers/BSP/STM32F429I-Discovery/stm32f429i_discovery.c ****   {
 637              		.loc 1 433 5 discriminator 1 view .LVU157
 638 0008 00B1     		cbz	r0, .L43
 639              	.L40:
 449:Drivers/BSP/STM32F429I-Discovery/stm32f429i_discovery.c **** 
 640              		.loc 1 449 1 view .LVU158
 641 000a 10BD     		pop	{r4, pc}
 642              	.L43:
ARM GAS  /var/folders/qx/2_175_4n2s19vhvtspjhb3qh0000gn/T//cchK137x.s 			page 28


 435:Drivers/BSP/STM32F429I-Discovery/stm32f429i_discovery.c ****     I2cHandle.Init.ClockSpeed       = BSP_I2C_SPEED;
 643              		.loc 1 435 5 is_stmt 1 view .LVU159
 435:Drivers/BSP/STM32F429I-Discovery/stm32f429i_discovery.c ****     I2cHandle.Init.ClockSpeed       = BSP_I2C_SPEED;
 644              		.loc 1 435 37 is_stmt 0 view .LVU160
 645 000c 0A4C     		ldr	r4, .L44
 646 000e 0B4B     		ldr	r3, .L44+4
 647 0010 2360     		str	r3, [r4]
 436:Drivers/BSP/STM32F429I-Discovery/stm32f429i_discovery.c ****     I2cHandle.Init.DutyCycle        = I2C_DUTYCYCLE_2;
 648              		.loc 1 436 5 is_stmt 1 view .LVU161
 436:Drivers/BSP/STM32F429I-Discovery/stm32f429i_discovery.c ****     I2cHandle.Init.DutyCycle        = I2C_DUTYCYCLE_2;
 649              		.loc 1 436 37 is_stmt 0 view .LVU162
 650 0012 0B4B     		ldr	r3, .L44+8
 651 0014 6360     		str	r3, [r4, #4]
 437:Drivers/BSP/STM32F429I-Discovery/stm32f429i_discovery.c ****     I2cHandle.Init.OwnAddress1      = 0;
 652              		.loc 1 437 5 is_stmt 1 view .LVU163
 437:Drivers/BSP/STM32F429I-Discovery/stm32f429i_discovery.c ****     I2cHandle.Init.OwnAddress1      = 0;
 653              		.loc 1 437 37 is_stmt 0 view .LVU164
 654 0016 0023     		movs	r3, #0
 655 0018 A360     		str	r3, [r4, #8]
 438:Drivers/BSP/STM32F429I-Discovery/stm32f429i_discovery.c ****     I2cHandle.Init.AddressingMode   = I2C_ADDRESSINGMODE_7BIT;
 656              		.loc 1 438 5 is_stmt 1 view .LVU165
 438:Drivers/BSP/STM32F429I-Discovery/stm32f429i_discovery.c ****     I2cHandle.Init.AddressingMode   = I2C_ADDRESSINGMODE_7BIT;
 657              		.loc 1 438 37 is_stmt 0 view .LVU166
 658 001a E360     		str	r3, [r4, #12]
 439:Drivers/BSP/STM32F429I-Discovery/stm32f429i_discovery.c ****     I2cHandle.Init.DualAddressMode  = I2C_DUALADDRESS_DISABLED;
 659              		.loc 1 439 5 is_stmt 1 view .LVU167
 439:Drivers/BSP/STM32F429I-Discovery/stm32f429i_discovery.c ****     I2cHandle.Init.DualAddressMode  = I2C_DUALADDRESS_DISABLED;
 660              		.loc 1 439 37 is_stmt 0 view .LVU168
 661 001c 4FF48042 		mov	r2, #16384
 662 0020 2261     		str	r2, [r4, #16]
 440:Drivers/BSP/STM32F429I-Discovery/stm32f429i_discovery.c ****     I2cHandle.Init.OwnAddress2      = 0;
 663              		.loc 1 440 5 is_stmt 1 view .LVU169
 440:Drivers/BSP/STM32F429I-Discovery/stm32f429i_discovery.c ****     I2cHandle.Init.OwnAddress2      = 0;
 664              		.loc 1 440 37 is_stmt 0 view .LVU170
 665 0022 6361     		str	r3, [r4, #20]
 441:Drivers/BSP/STM32F429I-Discovery/stm32f429i_discovery.c ****     I2cHandle.Init.GeneralCallMode  = I2C_GENERALCALL_DISABLED;
 666              		.loc 1 441 5 is_stmt 1 view .LVU171
 441:Drivers/BSP/STM32F429I-Discovery/stm32f429i_discovery.c ****     I2cHandle.Init.GeneralCallMode  = I2C_GENERALCALL_DISABLED;
 667              		.loc 1 441 37 is_stmt 0 view .LVU172
 668 0024 A361     		str	r3, [r4, #24]
 442:Drivers/BSP/STM32F429I-Discovery/stm32f429i_discovery.c ****     I2cHandle.Init.NoStretchMode    = I2C_NOSTRETCH_DISABLED;  
 669              		.loc 1 442 5 is_stmt 1 view .LVU173
 442:Drivers/BSP/STM32F429I-Discovery/stm32f429i_discovery.c ****     I2cHandle.Init.NoStretchMode    = I2C_NOSTRETCH_DISABLED;  
 670              		.loc 1 442 37 is_stmt 0 view .LVU174
 671 0026 E361     		str	r3, [r4, #28]
 443:Drivers/BSP/STM32F429I-Discovery/stm32f429i_discovery.c ****     
 672              		.loc 1 443 5 is_stmt 1 view .LVU175
 443:Drivers/BSP/STM32F429I-Discovery/stm32f429i_discovery.c ****     
 673              		.loc 1 443 37 is_stmt 0 view .LVU176
 674 0028 2362     		str	r3, [r4, #32]
 446:Drivers/BSP/STM32F429I-Discovery/stm32f429i_discovery.c ****     HAL_I2C_Init(&I2cHandle);
 675              		.loc 1 446 5 is_stmt 1 view .LVU177
 676 002a 2046     		mov	r0, r4
 677 002c FFF7FEFF 		bl	I2Cx_MspInit
 678              	.LVL34:
 447:Drivers/BSP/STM32F429I-Discovery/stm32f429i_discovery.c ****   }
 679              		.loc 1 447 5 view .LVU178
ARM GAS  /var/folders/qx/2_175_4n2s19vhvtspjhb3qh0000gn/T//cchK137x.s 			page 29


 680 0030 2046     		mov	r0, r4
 681 0032 FFF7FEFF 		bl	HAL_I2C_Init
 682              	.LVL35:
 449:Drivers/BSP/STM32F429I-Discovery/stm32f429i_discovery.c **** 
 683              		.loc 1 449 1 is_stmt 0 view .LVU179
 684 0036 E8E7     		b	.L40
 685              	.L45:
 686              		.align	2
 687              	.L44:
 688 0038 00000000 		.word	I2cHandle
 689 003c 005C0040 		.word	1073765376
 690 0040 A0860100 		.word	100000
 691              		.cfi_endproc
 692              	.LFE142:
 694              		.section	.text.I2Cx_Error,"ax",%progbits
 695              		.align	1
 696              		.syntax unified
 697              		.thumb
 698              		.thumb_func
 700              	I2Cx_Error:
 701              	.LFB148:
 636:Drivers/BSP/STM32F429I-Discovery/stm32f429i_discovery.c ****   /* De-initialize the SPI communication BUS */
 702              		.loc 1 636 1 is_stmt 1 view -0
 703              		.cfi_startproc
 704              		@ args = 0, pretend = 0, frame = 0
 705              		@ frame_needed = 0, uses_anonymous_args = 0
 706 0000 08B5     		push	{r3, lr}
 707              	.LCFI20:
 708              		.cfi_def_cfa_offset 8
 709              		.cfi_offset 3, -8
 710              		.cfi_offset 14, -4
 638:Drivers/BSP/STM32F429I-Discovery/stm32f429i_discovery.c ****   
 711              		.loc 1 638 3 view .LVU181
 712 0002 0348     		ldr	r0, .L48
 713 0004 FFF7FEFF 		bl	HAL_I2C_DeInit
 714              	.LVL36:
 641:Drivers/BSP/STM32F429I-Discovery/stm32f429i_discovery.c **** }
 715              		.loc 1 641 3 view .LVU182
 716 0008 FFF7FEFF 		bl	I2Cx_Init
 717              	.LVL37:
 642:Drivers/BSP/STM32F429I-Discovery/stm32f429i_discovery.c **** 
 718              		.loc 1 642 1 is_stmt 0 view .LVU183
 719 000c 08BD     		pop	{r3, pc}
 720              	.L49:
 721 000e 00BF     		.align	2
 722              	.L48:
 723 0010 00000000 		.word	I2cHandle
 724              		.cfi_endproc
 725              	.LFE148:
 727              		.section	.text.I2Cx_WriteData,"ax",%progbits
 728              		.align	1
 729              		.syntax unified
 730              		.thumb
 731              		.thumb_func
 733              	I2Cx_WriteData:
 734              	.LVL38:
 735              	.LFB144:
ARM GAS  /var/folders/qx/2_175_4n2s19vhvtspjhb3qh0000gn/T//cchK137x.s 			page 30


 482:Drivers/BSP/STM32F429I-Discovery/stm32f429i_discovery.c ****   HAL_StatusTypeDef status = HAL_OK;
 736              		.loc 1 482 3 is_stmt 1 view -0
 737              		.cfi_startproc
 738              		@ args = 0, pretend = 0, frame = 8
 739              		@ frame_needed = 0, uses_anonymous_args = 0
 482:Drivers/BSP/STM32F429I-Discovery/stm32f429i_discovery.c ****   HAL_StatusTypeDef status = HAL_OK;
 740              		.loc 1 482 3 is_stmt 0 view .LVU185
 741 0000 00B5     		push	{lr}
 742              	.LCFI21:
 743              		.cfi_def_cfa_offset 4
 744              		.cfi_offset 14, -4
 745 0002 87B0     		sub	sp, sp, #28
 746              	.LCFI22:
 747              		.cfi_def_cfa_offset 32
 748 0004 8DF81720 		strb	r2, [sp, #23]
 483:Drivers/BSP/STM32F429I-Discovery/stm32f429i_discovery.c ****   
 749              		.loc 1 483 3 is_stmt 1 view .LVU186
 750              	.LVL39:
 485:Drivers/BSP/STM32F429I-Discovery/stm32f429i_discovery.c ****   
 751              		.loc 1 485 3 view .LVU187
 485:Drivers/BSP/STM32F429I-Discovery/stm32f429i_discovery.c ****   
 752              		.loc 1 485 12 is_stmt 0 view .LVU188
 753 0008 094B     		ldr	r3, .L54
 754 000a 1B68     		ldr	r3, [r3]
 755 000c 0293     		str	r3, [sp, #8]
 756 000e 0123     		movs	r3, #1
 757 0010 0193     		str	r3, [sp, #4]
 758 0012 0DF11702 		add	r2, sp, #23
 759              	.LVL40:
 485:Drivers/BSP/STM32F429I-Discovery/stm32f429i_discovery.c ****   
 760              		.loc 1 485 12 view .LVU189
 761 0016 0092     		str	r2, [sp]
 762 0018 0A46     		mov	r2, r1
 763              	.LVL41:
 485:Drivers/BSP/STM32F429I-Discovery/stm32f429i_discovery.c ****   
 764              		.loc 1 485 12 view .LVU190
 765 001a 0146     		mov	r1, r0
 766              	.LVL42:
 485:Drivers/BSP/STM32F429I-Discovery/stm32f429i_discovery.c ****   
 767              		.loc 1 485 12 view .LVU191
 768 001c 0548     		ldr	r0, .L54+4
 769              	.LVL43:
 485:Drivers/BSP/STM32F429I-Discovery/stm32f429i_discovery.c ****   
 770              		.loc 1 485 12 view .LVU192
 771 001e FFF7FEFF 		bl	HAL_I2C_Mem_Write
 772              	.LVL44:
 488:Drivers/BSP/STM32F429I-Discovery/stm32f429i_discovery.c ****   {
 773              		.loc 1 488 3 is_stmt 1 view .LVU193
 488:Drivers/BSP/STM32F429I-Discovery/stm32f429i_discovery.c ****   {
 774              		.loc 1 488 5 is_stmt 0 view .LVU194
 775 0022 10B9     		cbnz	r0, .L53
 776              	.LVL45:
 777              	.L50:
 493:Drivers/BSP/STM32F429I-Discovery/stm32f429i_discovery.c **** 
 778              		.loc 1 493 1 view .LVU195
 779 0024 07B0     		add	sp, sp, #28
 780              	.LCFI23:
ARM GAS  /var/folders/qx/2_175_4n2s19vhvtspjhb3qh0000gn/T//cchK137x.s 			page 31


 781              		.cfi_remember_state
 782              		.cfi_def_cfa_offset 4
 783              		@ sp needed
 784 0026 5DF804FB 		ldr	pc, [sp], #4
 785              	.LVL46:
 786              	.L53:
 787              	.LCFI24:
 788              		.cfi_restore_state
 491:Drivers/BSP/STM32F429I-Discovery/stm32f429i_discovery.c ****   }        
 789              		.loc 1 491 5 is_stmt 1 view .LVU196
 790 002a FFF7FEFF 		bl	I2Cx_Error
 791              	.LVL47:
 493:Drivers/BSP/STM32F429I-Discovery/stm32f429i_discovery.c **** 
 792              		.loc 1 493 1 is_stmt 0 view .LVU197
 793 002e F9E7     		b	.L50
 794              	.L55:
 795              		.align	2
 796              	.L54:
 797 0030 00000000 		.word	I2cxTimeout
 798 0034 00000000 		.word	I2cHandle
 799              		.cfi_endproc
 800              	.LFE144:
 802              		.section	.text.I2Cx_WriteBuffer,"ax",%progbits
 803              		.align	1
 804              		.syntax unified
 805              		.thumb
 806              		.thumb_func
 808              	I2Cx_WriteBuffer:
 809              	.LVL48:
 810              	.LFB145:
 504:Drivers/BSP/STM32F429I-Discovery/stm32f429i_discovery.c ****   HAL_StatusTypeDef status = HAL_OK;
 811              		.loc 1 504 3 is_stmt 1 view -0
 812              		.cfi_startproc
 813              		@ args = 0, pretend = 0, frame = 0
 814              		@ frame_needed = 0, uses_anonymous_args = 0
 504:Drivers/BSP/STM32F429I-Discovery/stm32f429i_discovery.c ****   HAL_StatusTypeDef status = HAL_OK;
 815              		.loc 1 504 3 is_stmt 0 view .LVU199
 816 0000 10B5     		push	{r4, lr}
 817              	.LCFI25:
 818              		.cfi_def_cfa_offset 8
 819              		.cfi_offset 4, -8
 820              		.cfi_offset 14, -4
 821 0002 84B0     		sub	sp, sp, #16
 822              	.LCFI26:
 823              		.cfi_def_cfa_offset 24
 505:Drivers/BSP/STM32F429I-Discovery/stm32f429i_discovery.c ****   
 824              		.loc 1 505 3 is_stmt 1 view .LVU200
 825              	.LVL49:
 507:Drivers/BSP/STM32F429I-Discovery/stm32f429i_discovery.c **** 
 826              		.loc 1 507 3 view .LVU201
 507:Drivers/BSP/STM32F429I-Discovery/stm32f429i_discovery.c **** 
 827              		.loc 1 507 12 is_stmt 0 view .LVU202
 828 0004 084C     		ldr	r4, .L60
 829 0006 2468     		ldr	r4, [r4]
 830 0008 0294     		str	r4, [sp, #8]
 831 000a 0193     		str	r3, [sp, #4]
 832 000c 0092     		str	r2, [sp]
ARM GAS  /var/folders/qx/2_175_4n2s19vhvtspjhb3qh0000gn/T//cchK137x.s 			page 32


 833 000e 0123     		movs	r3, #1
 834              	.LVL50:
 507:Drivers/BSP/STM32F429I-Discovery/stm32f429i_discovery.c **** 
 835              		.loc 1 507 12 view .LVU203
 836 0010 0A46     		mov	r2, r1
 837              	.LVL51:
 507:Drivers/BSP/STM32F429I-Discovery/stm32f429i_discovery.c **** 
 838              		.loc 1 507 12 view .LVU204
 839 0012 0146     		mov	r1, r0
 840              	.LVL52:
 507:Drivers/BSP/STM32F429I-Discovery/stm32f429i_discovery.c **** 
 841              		.loc 1 507 12 view .LVU205
 842 0014 0548     		ldr	r0, .L60+4
 843              	.LVL53:
 507:Drivers/BSP/STM32F429I-Discovery/stm32f429i_discovery.c **** 
 844              		.loc 1 507 12 view .LVU206
 845 0016 FFF7FEFF 		bl	HAL_I2C_Mem_Write
 846              	.LVL54:
 510:Drivers/BSP/STM32F429I-Discovery/stm32f429i_discovery.c ****   {
 847              		.loc 1 510 3 is_stmt 1 view .LVU207
 510:Drivers/BSP/STM32F429I-Discovery/stm32f429i_discovery.c ****   {
 848              		.loc 1 510 5 is_stmt 0 view .LVU208
 849 001a 08B9     		cbnz	r0, .L59
 850              	.LVL55:
 851              	.L56:
 515:Drivers/BSP/STM32F429I-Discovery/stm32f429i_discovery.c **** 
 852              		.loc 1 515 1 view .LVU209
 853 001c 04B0     		add	sp, sp, #16
 854              	.LCFI27:
 855              		.cfi_remember_state
 856              		.cfi_def_cfa_offset 8
 857              		@ sp needed
 858 001e 10BD     		pop	{r4, pc}
 859              	.LVL56:
 860              	.L59:
 861              	.LCFI28:
 862              		.cfi_restore_state
 513:Drivers/BSP/STM32F429I-Discovery/stm32f429i_discovery.c ****   }        
 863              		.loc 1 513 5 is_stmt 1 view .LVU210
 864 0020 FFF7FEFF 		bl	I2Cx_Error
 865              	.LVL57:
 515:Drivers/BSP/STM32F429I-Discovery/stm32f429i_discovery.c **** 
 866              		.loc 1 515 1 is_stmt 0 view .LVU211
 867 0024 FAE7     		b	.L56
 868              	.L61:
 869 0026 00BF     		.align	2
 870              	.L60:
 871 0028 00000000 		.word	I2cxTimeout
 872 002c 00000000 		.word	I2cHandle
 873              		.cfi_endproc
 874              	.LFE145:
 876              		.section	.text.I2Cx_ReadData,"ax",%progbits
 877              		.align	1
 878              		.syntax unified
 879              		.thumb
 880              		.thumb_func
 882              	I2Cx_ReadData:
ARM GAS  /var/folders/qx/2_175_4n2s19vhvtspjhb3qh0000gn/T//cchK137x.s 			page 33


 883              	.LVL58:
 884              	.LFB146:
 524:Drivers/BSP/STM32F429I-Discovery/stm32f429i_discovery.c ****   HAL_StatusTypeDef status = HAL_OK;
 885              		.loc 1 524 1 is_stmt 1 view -0
 886              		.cfi_startproc
 887              		@ args = 0, pretend = 0, frame = 8
 888              		@ frame_needed = 0, uses_anonymous_args = 0
 524:Drivers/BSP/STM32F429I-Discovery/stm32f429i_discovery.c ****   HAL_StatusTypeDef status = HAL_OK;
 889              		.loc 1 524 1 is_stmt 0 view .LVU213
 890 0000 00B5     		push	{lr}
 891              	.LCFI29:
 892              		.cfi_def_cfa_offset 4
 893              		.cfi_offset 14, -4
 894 0002 87B0     		sub	sp, sp, #28
 895              	.LCFI30:
 896              		.cfi_def_cfa_offset 32
 897 0004 0A46     		mov	r2, r1
 525:Drivers/BSP/STM32F429I-Discovery/stm32f429i_discovery.c ****   uint8_t value = 0;
 898              		.loc 1 525 3 is_stmt 1 view .LVU214
 899              	.LVL59:
 526:Drivers/BSP/STM32F429I-Discovery/stm32f429i_discovery.c ****   
 900              		.loc 1 526 3 view .LVU215
 526:Drivers/BSP/STM32F429I-Discovery/stm32f429i_discovery.c ****   
 901              		.loc 1 526 11 is_stmt 0 view .LVU216
 902 0006 0023     		movs	r3, #0
 903 0008 8DF81730 		strb	r3, [sp, #23]
 528:Drivers/BSP/STM32F429I-Discovery/stm32f429i_discovery.c ****  
 904              		.loc 1 528 3 is_stmt 1 view .LVU217
 528:Drivers/BSP/STM32F429I-Discovery/stm32f429i_discovery.c ****  
 905              		.loc 1 528 12 is_stmt 0 view .LVU218
 906 000c 0A4B     		ldr	r3, .L66
 907 000e 1B68     		ldr	r3, [r3]
 908 0010 0293     		str	r3, [sp, #8]
 909 0012 0123     		movs	r3, #1
 910 0014 0193     		str	r3, [sp, #4]
 911 0016 0DF11701 		add	r1, sp, #23
 912              	.LVL60:
 528:Drivers/BSP/STM32F429I-Discovery/stm32f429i_discovery.c ****  
 913              		.loc 1 528 12 view .LVU219
 914 001a 0091     		str	r1, [sp]
 915 001c 0146     		mov	r1, r0
 916 001e 0748     		ldr	r0, .L66+4
 917              	.LVL61:
 528:Drivers/BSP/STM32F429I-Discovery/stm32f429i_discovery.c ****  
 918              		.loc 1 528 12 view .LVU220
 919 0020 FFF7FEFF 		bl	HAL_I2C_Mem_Read
 920              	.LVL62:
 531:Drivers/BSP/STM32F429I-Discovery/stm32f429i_discovery.c ****   {
 921              		.loc 1 531 3 is_stmt 1 view .LVU221
 531:Drivers/BSP/STM32F429I-Discovery/stm32f429i_discovery.c ****   {
 922              		.loc 1 531 5 is_stmt 0 view .LVU222
 923 0024 20B9     		cbnz	r0, .L65
 924              	.LVL63:
 925              	.L63:
 537:Drivers/BSP/STM32F429I-Discovery/stm32f429i_discovery.c **** }
 926              		.loc 1 537 3 is_stmt 1 view .LVU223
 538:Drivers/BSP/STM32F429I-Discovery/stm32f429i_discovery.c **** 
ARM GAS  /var/folders/qx/2_175_4n2s19vhvtspjhb3qh0000gn/T//cchK137x.s 			page 34


 927              		.loc 1 538 1 is_stmt 0 view .LVU224
 928 0026 9DF81700 		ldrb	r0, [sp, #23]	@ zero_extendqisi2
 929 002a 07B0     		add	sp, sp, #28
 930              	.LCFI31:
 931              		.cfi_remember_state
 932              		.cfi_def_cfa_offset 4
 933              		@ sp needed
 934 002c 5DF804FB 		ldr	pc, [sp], #4
 935              	.LVL64:
 936              	.L65:
 937              	.LCFI32:
 938              		.cfi_restore_state
 534:Drivers/BSP/STM32F429I-Discovery/stm32f429i_discovery.c ****   
 939              		.loc 1 534 5 is_stmt 1 view .LVU225
 940 0030 FFF7FEFF 		bl	I2Cx_Error
 941              	.LVL65:
 534:Drivers/BSP/STM32F429I-Discovery/stm32f429i_discovery.c ****   
 942              		.loc 1 534 5 is_stmt 0 view .LVU226
 943 0034 F7E7     		b	.L63
 944              	.L67:
 945 0036 00BF     		.align	2
 946              	.L66:
 947 0038 00000000 		.word	I2cxTimeout
 948 003c 00000000 		.word	I2cHandle
 949              		.cfi_endproc
 950              	.LFE146:
 952              		.section	.text.I2Cx_ReadBuffer,"ax",%progbits
 953              		.align	1
 954              		.syntax unified
 955              		.thumb
 956              		.thumb_func
 958              	I2Cx_ReadBuffer:
 959              	.LVL66:
 960              	.LFB147:
 549:Drivers/BSP/STM32F429I-Discovery/stm32f429i_discovery.c ****   HAL_StatusTypeDef status = HAL_OK;
 961              		.loc 1 549 1 is_stmt 1 view -0
 962              		.cfi_startproc
 963              		@ args = 0, pretend = 0, frame = 0
 964              		@ frame_needed = 0, uses_anonymous_args = 0
 549:Drivers/BSP/STM32F429I-Discovery/stm32f429i_discovery.c ****   HAL_StatusTypeDef status = HAL_OK;
 965              		.loc 1 549 1 is_stmt 0 view .LVU228
 966 0000 10B5     		push	{r4, lr}
 967              	.LCFI33:
 968              		.cfi_def_cfa_offset 8
 969              		.cfi_offset 4, -8
 970              		.cfi_offset 14, -4
 971 0002 84B0     		sub	sp, sp, #16
 972              	.LCFI34:
 973              		.cfi_def_cfa_offset 24
 550:Drivers/BSP/STM32F429I-Discovery/stm32f429i_discovery.c **** 
 974              		.loc 1 550 3 is_stmt 1 view .LVU229
 975              	.LVL67:
 552:Drivers/BSP/STM32F429I-Discovery/stm32f429i_discovery.c ****   
 976              		.loc 1 552 3 view .LVU230
 552:Drivers/BSP/STM32F429I-Discovery/stm32f429i_discovery.c ****   
 977              		.loc 1 552 12 is_stmt 0 view .LVU231
 978 0004 084C     		ldr	r4, .L72
ARM GAS  /var/folders/qx/2_175_4n2s19vhvtspjhb3qh0000gn/T//cchK137x.s 			page 35


 979 0006 2468     		ldr	r4, [r4]
 980 0008 0294     		str	r4, [sp, #8]
 981 000a 0193     		str	r3, [sp, #4]
 982 000c 0092     		str	r2, [sp]
 983 000e 0123     		movs	r3, #1
 984              	.LVL68:
 552:Drivers/BSP/STM32F429I-Discovery/stm32f429i_discovery.c ****   
 985              		.loc 1 552 12 view .LVU232
 986 0010 0A46     		mov	r2, r1
 987              	.LVL69:
 552:Drivers/BSP/STM32F429I-Discovery/stm32f429i_discovery.c ****   
 988              		.loc 1 552 12 view .LVU233
 989 0012 0146     		mov	r1, r0
 990              	.LVL70:
 552:Drivers/BSP/STM32F429I-Discovery/stm32f429i_discovery.c ****   
 991              		.loc 1 552 12 view .LVU234
 992 0014 0548     		ldr	r0, .L72+4
 993              	.LVL71:
 552:Drivers/BSP/STM32F429I-Discovery/stm32f429i_discovery.c ****   
 994              		.loc 1 552 12 view .LVU235
 995 0016 FFF7FEFF 		bl	HAL_I2C_Mem_Read
 996              	.LVL72:
 555:Drivers/BSP/STM32F429I-Discovery/stm32f429i_discovery.c ****   {
 997              		.loc 1 555 3 is_stmt 1 view .LVU236
 555:Drivers/BSP/STM32F429I-Discovery/stm32f429i_discovery.c ****   {
 998              		.loc 1 555 5 is_stmt 0 view .LVU237
 999 001a 08B9     		cbnz	r0, .L71
 1000              	.L69:
 566:Drivers/BSP/STM32F429I-Discovery/stm32f429i_discovery.c **** 
 1001              		.loc 1 566 1 view .LVU238
 1002 001c 04B0     		add	sp, sp, #16
 1003              	.LCFI35:
 1004              		.cfi_remember_state
 1005              		.cfi_def_cfa_offset 8
 1006              		@ sp needed
 1007 001e 10BD     		pop	{r4, pc}
 1008              	.L71:
 1009              	.LCFI36:
 1010              		.cfi_restore_state
 562:Drivers/BSP/STM32F429I-Discovery/stm32f429i_discovery.c **** 
 1011              		.loc 1 562 5 is_stmt 1 view .LVU239
 1012 0020 FFF7FEFF 		bl	I2Cx_Error
 1013              	.LVL73:
 564:Drivers/BSP/STM32F429I-Discovery/stm32f429i_discovery.c ****   }
 1014              		.loc 1 564 5 view .LVU240
 564:Drivers/BSP/STM32F429I-Discovery/stm32f429i_discovery.c ****   }
 1015              		.loc 1 564 12 is_stmt 0 view .LVU241
 1016 0024 0120     		movs	r0, #1
 1017              	.LVL74:
 564:Drivers/BSP/STM32F429I-Discovery/stm32f429i_discovery.c ****   }
 1018              		.loc 1 564 12 view .LVU242
 1019 0026 F9E7     		b	.L69
 1020              	.L73:
 1021              		.align	2
 1022              	.L72:
 1023 0028 00000000 		.word	I2cxTimeout
 1024 002c 00000000 		.word	I2cHandle
ARM GAS  /var/folders/qx/2_175_4n2s19vhvtspjhb3qh0000gn/T//cchK137x.s 			page 36


 1025              		.cfi_endproc
 1026              	.LFE147:
 1028              		.section	.text.SPIx_WriteRead,"ax",%progbits
 1029              		.align	1
 1030              		.syntax unified
 1031              		.thumb
 1032              		.thumb_func
 1034              	SPIx_WriteRead:
 1035              	.LVL75:
 1036              	.LFB152:
 732:Drivers/BSP/STM32F429I-Discovery/stm32f429i_discovery.c ****   uint8_t receivedbyte = 0;
 1037              		.loc 1 732 1 is_stmt 1 view -0
 1038              		.cfi_startproc
 1039              		@ args = 0, pretend = 0, frame = 16
 1040              		@ frame_needed = 0, uses_anonymous_args = 0
 732:Drivers/BSP/STM32F429I-Discovery/stm32f429i_discovery.c ****   uint8_t receivedbyte = 0;
 1041              		.loc 1 732 1 is_stmt 0 view .LVU244
 1042 0000 00B5     		push	{lr}
 1043              	.LCFI37:
 1044              		.cfi_def_cfa_offset 4
 1045              		.cfi_offset 14, -4
 1046 0002 87B0     		sub	sp, sp, #28
 1047              	.LCFI38:
 1048              		.cfi_def_cfa_offset 32
 1049 0004 8DF80F00 		strb	r0, [sp, #15]
 733:Drivers/BSP/STM32F429I-Discovery/stm32f429i_discovery.c ****   
 1050              		.loc 1 733 3 is_stmt 1 view .LVU245
 733:Drivers/BSP/STM32F429I-Discovery/stm32f429i_discovery.c ****   
 1051              		.loc 1 733 11 is_stmt 0 view .LVU246
 1052 0008 0023     		movs	r3, #0
 1053 000a 8DF81730 		strb	r3, [sp, #23]
 737:Drivers/BSP/STM32F429I-Discovery/stm32f429i_discovery.c ****   {
 1054              		.loc 1 737 3 is_stmt 1 view .LVU247
 737:Drivers/BSP/STM32F429I-Discovery/stm32f429i_discovery.c ****   {
 1055              		.loc 1 737 6 is_stmt 0 view .LVU248
 1056 000e 0A4B     		ldr	r3, .L78
 1057 0010 1B68     		ldr	r3, [r3]
 1058 0012 0093     		str	r3, [sp]
 1059 0014 0123     		movs	r3, #1
 1060 0016 0DF11702 		add	r2, sp, #23
 1061 001a 0DF10F01 		add	r1, sp, #15
 1062 001e 0748     		ldr	r0, .L78+4
 1063              	.LVL76:
 737:Drivers/BSP/STM32F429I-Discovery/stm32f429i_discovery.c ****   {
 1064              		.loc 1 737 6 view .LVU249
 1065 0020 FFF7FEFF 		bl	HAL_SPI_TransmitReceive
 1066              	.LVL77:
 737:Drivers/BSP/STM32F429I-Discovery/stm32f429i_discovery.c ****   {
 1067              		.loc 1 737 5 discriminator 1 view .LVU250
 1068 0024 20B9     		cbnz	r0, .L77
 1069              	.L75:
 742:Drivers/BSP/STM32F429I-Discovery/stm32f429i_discovery.c **** }
 1070              		.loc 1 742 3 is_stmt 1 view .LVU251
 743:Drivers/BSP/STM32F429I-Discovery/stm32f429i_discovery.c **** 
 1071              		.loc 1 743 1 is_stmt 0 view .LVU252
 1072 0026 9DF81700 		ldrb	r0, [sp, #23]	@ zero_extendqisi2
 1073 002a 07B0     		add	sp, sp, #28
ARM GAS  /var/folders/qx/2_175_4n2s19vhvtspjhb3qh0000gn/T//cchK137x.s 			page 37


 1074              	.LCFI39:
 1075              		.cfi_remember_state
 1076              		.cfi_def_cfa_offset 4
 1077              		@ sp needed
 1078 002c 5DF804FB 		ldr	pc, [sp], #4
 1079              	.L77:
 1080              	.LCFI40:
 1081              		.cfi_restore_state
 739:Drivers/BSP/STM32F429I-Discovery/stm32f429i_discovery.c ****   }
 1082              		.loc 1 739 5 is_stmt 1 view .LVU253
 1083 0030 FFF7FEFF 		bl	SPIx_Error
 1084              	.LVL78:
 1085 0034 F7E7     		b	.L75
 1086              	.L79:
 1087 0036 00BF     		.align	2
 1088              	.L78:
 1089 0038 00000000 		.word	SpixTimeout
 1090 003c 00000000 		.word	SpiHandle
 1091              		.cfi_endproc
 1092              	.LFE152:
 1094              		.section	.text.BSP_GetVersion,"ax",%progbits
 1095              		.align	1
 1096              		.global	BSP_GetVersion
 1097              		.syntax unified
 1098              		.thumb
 1099              		.thumb_func
 1101              	BSP_GetVersion:
 1102              	.LFB134:
 182:Drivers/BSP/STM32F429I-Discovery/stm32f429i_discovery.c ****   return __STM32F429I_DISCO_BSP_VERSION;
 1103              		.loc 1 182 1 view -0
 1104              		.cfi_startproc
 1105              		@ args = 0, pretend = 0, frame = 0
 1106              		@ frame_needed = 0, uses_anonymous_args = 0
 1107              		@ link register save eliminated.
 183:Drivers/BSP/STM32F429I-Discovery/stm32f429i_discovery.c **** }
 1108              		.loc 1 183 3 view .LVU255
 184:Drivers/BSP/STM32F429I-Discovery/stm32f429i_discovery.c **** 
 1109              		.loc 1 184 1 is_stmt 0 view .LVU256
 1110 0000 0048     		ldr	r0, .L81
 1111 0002 7047     		bx	lr
 1112              	.L82:
 1113              		.align	2
 1114              	.L81:
 1115 0004 00020102 		.word	33620480
 1116              		.cfi_endproc
 1117              	.LFE134:
 1119              		.section	.text.BSP_LED_Init,"ax",%progbits
 1120              		.align	1
 1121              		.global	BSP_LED_Init
 1122              		.syntax unified
 1123              		.thumb
 1124              		.thumb_func
 1126              	BSP_LED_Init:
 1127              	.LVL79:
 1128              	.LFB135:
 195:Drivers/BSP/STM32F429I-Discovery/stm32f429i_discovery.c ****   GPIO_InitTypeDef  GPIO_InitStruct;
 1129              		.loc 1 195 1 is_stmt 1 view -0
ARM GAS  /var/folders/qx/2_175_4n2s19vhvtspjhb3qh0000gn/T//cchK137x.s 			page 38


 1130              		.cfi_startproc
 1131              		@ args = 0, pretend = 0, frame = 32
 1132              		@ frame_needed = 0, uses_anonymous_args = 0
 195:Drivers/BSP/STM32F429I-Discovery/stm32f429i_discovery.c ****   GPIO_InitTypeDef  GPIO_InitStruct;
 1133              		.loc 1 195 1 is_stmt 0 view .LVU258
 1134 0000 70B5     		push	{r4, r5, r6, lr}
 1135              	.LCFI41:
 1136              		.cfi_def_cfa_offset 16
 1137              		.cfi_offset 4, -16
 1138              		.cfi_offset 5, -12
 1139              		.cfi_offset 6, -8
 1140              		.cfi_offset 14, -4
 1141 0002 88B0     		sub	sp, sp, #32
 1142              	.LCFI42:
 1143              		.cfi_def_cfa_offset 48
 196:Drivers/BSP/STM32F429I-Discovery/stm32f429i_discovery.c ****   
 1144              		.loc 1 196 3 is_stmt 1 view .LVU259
 199:Drivers/BSP/STM32F429I-Discovery/stm32f429i_discovery.c **** 
 1145              		.loc 1 199 3 view .LVU260
 199:Drivers/BSP/STM32F429I-Discovery/stm32f429i_discovery.c **** 
 1146              		.loc 1 199 3 view .LVU261
 1147 0004 0446     		mov	r4, r0
 1148 0006 10BB     		cbnz	r0, .L84
 199:Drivers/BSP/STM32F429I-Discovery/stm32f429i_discovery.c **** 
 1149              		.loc 1 199 3 discriminator 1 view .LVU262
 1150              	.LBB8:
 199:Drivers/BSP/STM32F429I-Discovery/stm32f429i_discovery.c **** 
 1151              		.loc 1 199 3 discriminator 1 view .LVU263
 1152 0008 0023     		movs	r3, #0
 1153 000a 0193     		str	r3, [sp, #4]
 199:Drivers/BSP/STM32F429I-Discovery/stm32f429i_discovery.c **** 
 1154              		.loc 1 199 3 view .LVU264
 199:Drivers/BSP/STM32F429I-Discovery/stm32f429i_discovery.c **** 
 1155              		.loc 1 199 3 is_stmt 0 discriminator 1 view .LVU265
 1156 000c 174B     		ldr	r3, .L87
 1157 000e 1A6B     		ldr	r2, [r3, #48]
 1158 0010 42F04002 		orr	r2, r2, #64
 1159 0014 1A63     		str	r2, [r3, #48]
 199:Drivers/BSP/STM32F429I-Discovery/stm32f429i_discovery.c **** 
 1160              		.loc 1 199 3 is_stmt 1 view .LVU266
 199:Drivers/BSP/STM32F429I-Discovery/stm32f429i_discovery.c **** 
 1161              		.loc 1 199 3 is_stmt 0 discriminator 1 view .LVU267
 1162 0016 1B6B     		ldr	r3, [r3, #48]
 1163 0018 03F04003 		and	r3, r3, #64
 1164 001c 0193     		str	r3, [sp, #4]
 199:Drivers/BSP/STM32F429I-Discovery/stm32f429i_discovery.c **** 
 1165              		.loc 1 199 3 is_stmt 1 view .LVU268
 199:Drivers/BSP/STM32F429I-Discovery/stm32f429i_discovery.c **** 
 1166              		.loc 1 199 3 is_stmt 0 discriminator 1 view .LVU269
 1167 001e 019B     		ldr	r3, [sp, #4]
 1168              	.LBE8:
 199:Drivers/BSP/STM32F429I-Discovery/stm32f429i_discovery.c **** 
 1169              		.loc 1 199 3 is_stmt 1 view .LVU270
 1170              	.L85:
 199:Drivers/BSP/STM32F429I-Discovery/stm32f429i_discovery.c **** 
 1171              		.loc 1 199 3 view .LVU271
 199:Drivers/BSP/STM32F429I-Discovery/stm32f429i_discovery.c **** 
ARM GAS  /var/folders/qx/2_175_4n2s19vhvtspjhb3qh0000gn/T//cchK137x.s 			page 39


 1172              		.loc 1 199 3 view .LVU272
 202:Drivers/BSP/STM32F429I-Discovery/stm32f429i_discovery.c ****   GPIO_InitStruct.Mode = GPIO_MODE_OUTPUT_PP;
 1173              		.loc 1 202 3 view .LVU273
 202:Drivers/BSP/STM32F429I-Discovery/stm32f429i_discovery.c ****   GPIO_InitStruct.Mode = GPIO_MODE_OUTPUT_PP;
 1174              		.loc 1 202 33 is_stmt 0 view .LVU274
 1175 0020 134B     		ldr	r3, .L87+4
 1176 0022 33F81460 		ldrh	r6, [r3, r4, lsl #1]
 202:Drivers/BSP/STM32F429I-Discovery/stm32f429i_discovery.c ****   GPIO_InitStruct.Mode = GPIO_MODE_OUTPUT_PP;
 1177              		.loc 1 202 23 view .LVU275
 1178 0026 0396     		str	r6, [sp, #12]
 203:Drivers/BSP/STM32F429I-Discovery/stm32f429i_discovery.c ****   GPIO_InitStruct.Pull = GPIO_PULLUP;
 1179              		.loc 1 203 3 is_stmt 1 view .LVU276
 203:Drivers/BSP/STM32F429I-Discovery/stm32f429i_discovery.c ****   GPIO_InitStruct.Pull = GPIO_PULLUP;
 1180              		.loc 1 203 24 is_stmt 0 view .LVU277
 1181 0028 0123     		movs	r3, #1
 1182 002a 0493     		str	r3, [sp, #16]
 204:Drivers/BSP/STM32F429I-Discovery/stm32f429i_discovery.c ****   GPIO_InitStruct.Speed = GPIO_SPEED_FAST;
 1183              		.loc 1 204 3 is_stmt 1 view .LVU278
 204:Drivers/BSP/STM32F429I-Discovery/stm32f429i_discovery.c ****   GPIO_InitStruct.Speed = GPIO_SPEED_FAST;
 1184              		.loc 1 204 24 is_stmt 0 view .LVU279
 1185 002c 0593     		str	r3, [sp, #20]
 205:Drivers/BSP/STM32F429I-Discovery/stm32f429i_discovery.c ****   
 1186              		.loc 1 205 3 is_stmt 1 view .LVU280
 205:Drivers/BSP/STM32F429I-Discovery/stm32f429i_discovery.c ****   
 1187              		.loc 1 205 25 is_stmt 0 view .LVU281
 1188 002e 0223     		movs	r3, #2
 1189 0030 0693     		str	r3, [sp, #24]
 207:Drivers/BSP/STM32F429I-Discovery/stm32f429i_discovery.c ****   
 1190              		.loc 1 207 3 is_stmt 1 view .LVU282
 1191 0032 104D     		ldr	r5, .L87+8
 1192 0034 03A9     		add	r1, sp, #12
 1193 0036 55F82400 		ldr	r0, [r5, r4, lsl #2]
 1194              	.LVL80:
 207:Drivers/BSP/STM32F429I-Discovery/stm32f429i_discovery.c ****   
 1195              		.loc 1 207 3 is_stmt 0 view .LVU283
 1196 003a FFF7FEFF 		bl	HAL_GPIO_Init
 1197              	.LVL81:
 209:Drivers/BSP/STM32F429I-Discovery/stm32f429i_discovery.c **** }
 1198              		.loc 1 209 3 is_stmt 1 view .LVU284
 1199 003e 0022     		movs	r2, #0
 1200 0040 3146     		mov	r1, r6
 1201 0042 55F82400 		ldr	r0, [r5, r4, lsl #2]
 1202 0046 FFF7FEFF 		bl	HAL_GPIO_WritePin
 1203              	.LVL82:
 210:Drivers/BSP/STM32F429I-Discovery/stm32f429i_discovery.c **** 
 1204              		.loc 1 210 1 is_stmt 0 view .LVU285
 1205 004a 08B0     		add	sp, sp, #32
 1206              	.LCFI43:
 1207              		.cfi_remember_state
 1208              		.cfi_def_cfa_offset 16
 1209              		@ sp needed
 1210 004c 70BD     		pop	{r4, r5, r6, pc}
 1211              	.LVL83:
 1212              	.L84:
 1213              	.LCFI44:
 1214              		.cfi_restore_state
 199:Drivers/BSP/STM32F429I-Discovery/stm32f429i_discovery.c **** 
ARM GAS  /var/folders/qx/2_175_4n2s19vhvtspjhb3qh0000gn/T//cchK137x.s 			page 40


 1215              		.loc 1 199 3 is_stmt 1 discriminator 2 view .LVU286
 1216 004e 0128     		cmp	r0, #1
 1217 0050 E6D1     		bne	.L85
 199:Drivers/BSP/STM32F429I-Discovery/stm32f429i_discovery.c **** 
 1218              		.loc 1 199 3 discriminator 3 view .LVU287
 1219              	.LBB9:
 199:Drivers/BSP/STM32F429I-Discovery/stm32f429i_discovery.c **** 
 1220              		.loc 1 199 3 discriminator 3 view .LVU288
 1221 0052 0023     		movs	r3, #0
 1222 0054 0293     		str	r3, [sp, #8]
 199:Drivers/BSP/STM32F429I-Discovery/stm32f429i_discovery.c **** 
 1223              		.loc 1 199 3 view .LVU289
 199:Drivers/BSP/STM32F429I-Discovery/stm32f429i_discovery.c **** 
 1224              		.loc 1 199 3 is_stmt 0 discriminator 3 view .LVU290
 1225 0056 054B     		ldr	r3, .L87
 1226 0058 1A6B     		ldr	r2, [r3, #48]
 1227 005a 42F04002 		orr	r2, r2, #64
 1228 005e 1A63     		str	r2, [r3, #48]
 199:Drivers/BSP/STM32F429I-Discovery/stm32f429i_discovery.c **** 
 1229              		.loc 1 199 3 is_stmt 1 view .LVU291
 199:Drivers/BSP/STM32F429I-Discovery/stm32f429i_discovery.c **** 
 1230              		.loc 1 199 3 is_stmt 0 discriminator 3 view .LVU292
 1231 0060 1B6B     		ldr	r3, [r3, #48]
 1232 0062 03F04003 		and	r3, r3, #64
 1233 0066 0293     		str	r3, [sp, #8]
 199:Drivers/BSP/STM32F429I-Discovery/stm32f429i_discovery.c **** 
 1234              		.loc 1 199 3 is_stmt 1 view .LVU293
 199:Drivers/BSP/STM32F429I-Discovery/stm32f429i_discovery.c **** 
 1235              		.loc 1 199 3 is_stmt 0 discriminator 3 view .LVU294
 1236 0068 029B     		ldr	r3, [sp, #8]
 1237 006a D9E7     		b	.L85
 1238              	.L88:
 1239              		.align	2
 1240              	.L87:
 1241 006c 00380240 		.word	1073887232
 1242 0070 00000000 		.word	GPIO_PIN
 1243 0074 00000000 		.word	GPIO_PORT
 1244              	.LBE9:
 1245              		.cfi_endproc
 1246              	.LFE135:
 1248              		.section	.text.BSP_LED_On,"ax",%progbits
 1249              		.align	1
 1250              		.global	BSP_LED_On
 1251              		.syntax unified
 1252              		.thumb
 1253              		.thumb_func
 1255              	BSP_LED_On:
 1256              	.LVL84:
 1257              	.LFB136:
 221:Drivers/BSP/STM32F429I-Discovery/stm32f429i_discovery.c ****   HAL_GPIO_WritePin(GPIO_PORT[Led], GPIO_PIN[Led], GPIO_PIN_SET); 
 1258              		.loc 1 221 1 is_stmt 1 view -0
 1259              		.cfi_startproc
 1260              		@ args = 0, pretend = 0, frame = 0
 1261              		@ frame_needed = 0, uses_anonymous_args = 0
 221:Drivers/BSP/STM32F429I-Discovery/stm32f429i_discovery.c ****   HAL_GPIO_WritePin(GPIO_PORT[Led], GPIO_PIN[Led], GPIO_PIN_SET); 
 1262              		.loc 1 221 1 is_stmt 0 view .LVU296
 1263 0000 08B5     		push	{r3, lr}
ARM GAS  /var/folders/qx/2_175_4n2s19vhvtspjhb3qh0000gn/T//cchK137x.s 			page 41


 1264              	.LCFI45:
 1265              		.cfi_def_cfa_offset 8
 1266              		.cfi_offset 3, -8
 1267              		.cfi_offset 14, -4
 222:Drivers/BSP/STM32F429I-Discovery/stm32f429i_discovery.c **** }
 1268              		.loc 1 222 3 is_stmt 1 view .LVU297
 1269 0002 0122     		movs	r2, #1
 1270 0004 044B     		ldr	r3, .L91
 1271 0006 33F81010 		ldrh	r1, [r3, r0, lsl #1]
 1272 000a 044B     		ldr	r3, .L91+4
 1273 000c 53F82000 		ldr	r0, [r3, r0, lsl #2]
 1274              	.LVL85:
 222:Drivers/BSP/STM32F429I-Discovery/stm32f429i_discovery.c **** }
 1275              		.loc 1 222 3 is_stmt 0 view .LVU298
 1276 0010 FFF7FEFF 		bl	HAL_GPIO_WritePin
 1277              	.LVL86:
 223:Drivers/BSP/STM32F429I-Discovery/stm32f429i_discovery.c **** 
 1278              		.loc 1 223 1 view .LVU299
 1279 0014 08BD     		pop	{r3, pc}
 1280              	.L92:
 1281 0016 00BF     		.align	2
 1282              	.L91:
 1283 0018 00000000 		.word	GPIO_PIN
 1284 001c 00000000 		.word	GPIO_PORT
 1285              		.cfi_endproc
 1286              	.LFE136:
 1288              		.section	.text.BSP_LED_Off,"ax",%progbits
 1289              		.align	1
 1290              		.global	BSP_LED_Off
 1291              		.syntax unified
 1292              		.thumb
 1293              		.thumb_func
 1295              	BSP_LED_Off:
 1296              	.LVL87:
 1297              	.LFB137:
 234:Drivers/BSP/STM32F429I-Discovery/stm32f429i_discovery.c ****   HAL_GPIO_WritePin(GPIO_PORT[Led], GPIO_PIN[Led], GPIO_PIN_RESET); 
 1298              		.loc 1 234 1 is_stmt 1 view -0
 1299              		.cfi_startproc
 1300              		@ args = 0, pretend = 0, frame = 0
 1301              		@ frame_needed = 0, uses_anonymous_args = 0
 234:Drivers/BSP/STM32F429I-Discovery/stm32f429i_discovery.c ****   HAL_GPIO_WritePin(GPIO_PORT[Led], GPIO_PIN[Led], GPIO_PIN_RESET); 
 1302              		.loc 1 234 1 is_stmt 0 view .LVU301
 1303 0000 08B5     		push	{r3, lr}
 1304              	.LCFI46:
 1305              		.cfi_def_cfa_offset 8
 1306              		.cfi_offset 3, -8
 1307              		.cfi_offset 14, -4
 235:Drivers/BSP/STM32F429I-Discovery/stm32f429i_discovery.c **** }
 1308              		.loc 1 235 3 is_stmt 1 view .LVU302
 1309 0002 0022     		movs	r2, #0
 1310 0004 044B     		ldr	r3, .L95
 1311 0006 33F81010 		ldrh	r1, [r3, r0, lsl #1]
 1312 000a 044B     		ldr	r3, .L95+4
 1313 000c 53F82000 		ldr	r0, [r3, r0, lsl #2]
 1314              	.LVL88:
 235:Drivers/BSP/STM32F429I-Discovery/stm32f429i_discovery.c **** }
 1315              		.loc 1 235 3 is_stmt 0 view .LVU303
ARM GAS  /var/folders/qx/2_175_4n2s19vhvtspjhb3qh0000gn/T//cchK137x.s 			page 42


 1316 0010 FFF7FEFF 		bl	HAL_GPIO_WritePin
 1317              	.LVL89:
 236:Drivers/BSP/STM32F429I-Discovery/stm32f429i_discovery.c **** 
 1318              		.loc 1 236 1 view .LVU304
 1319 0014 08BD     		pop	{r3, pc}
 1320              	.L96:
 1321 0016 00BF     		.align	2
 1322              	.L95:
 1323 0018 00000000 		.word	GPIO_PIN
 1324 001c 00000000 		.word	GPIO_PORT
 1325              		.cfi_endproc
 1326              	.LFE137:
 1328              		.section	.text.BSP_LED_Toggle,"ax",%progbits
 1329              		.align	1
 1330              		.global	BSP_LED_Toggle
 1331              		.syntax unified
 1332              		.thumb
 1333              		.thumb_func
 1335              	BSP_LED_Toggle:
 1336              	.LVL90:
 1337              	.LFB138:
 247:Drivers/BSP/STM32F429I-Discovery/stm32f429i_discovery.c ****   HAL_GPIO_TogglePin(GPIO_PORT[Led], GPIO_PIN[Led]);
 1338              		.loc 1 247 1 is_stmt 1 view -0
 1339              		.cfi_startproc
 1340              		@ args = 0, pretend = 0, frame = 0
 1341              		@ frame_needed = 0, uses_anonymous_args = 0
 247:Drivers/BSP/STM32F429I-Discovery/stm32f429i_discovery.c ****   HAL_GPIO_TogglePin(GPIO_PORT[Led], GPIO_PIN[Led]);
 1342              		.loc 1 247 1 is_stmt 0 view .LVU306
 1343 0000 08B5     		push	{r3, lr}
 1344              	.LCFI47:
 1345              		.cfi_def_cfa_offset 8
 1346              		.cfi_offset 3, -8
 1347              		.cfi_offset 14, -4
 248:Drivers/BSP/STM32F429I-Discovery/stm32f429i_discovery.c **** }
 1348              		.loc 1 248 3 is_stmt 1 view .LVU307
 1349 0002 044B     		ldr	r3, .L99
 1350 0004 33F81010 		ldrh	r1, [r3, r0, lsl #1]
 1351 0008 034B     		ldr	r3, .L99+4
 1352 000a 53F82000 		ldr	r0, [r3, r0, lsl #2]
 1353              	.LVL91:
 248:Drivers/BSP/STM32F429I-Discovery/stm32f429i_discovery.c **** }
 1354              		.loc 1 248 3 is_stmt 0 view .LVU308
 1355 000e FFF7FEFF 		bl	HAL_GPIO_TogglePin
 1356              	.LVL92:
 249:Drivers/BSP/STM32F429I-Discovery/stm32f429i_discovery.c **** 
 1357              		.loc 1 249 1 view .LVU309
 1358 0012 08BD     		pop	{r3, pc}
 1359              	.L100:
 1360              		.align	2
 1361              	.L99:
 1362 0014 00000000 		.word	GPIO_PIN
 1363 0018 00000000 		.word	GPIO_PORT
 1364              		.cfi_endproc
 1365              	.LFE138:
 1367              		.section	.text.BSP_PB_Init,"ax",%progbits
 1368              		.align	1
 1369              		.global	BSP_PB_Init
ARM GAS  /var/folders/qx/2_175_4n2s19vhvtspjhb3qh0000gn/T//cchK137x.s 			page 43


 1370              		.syntax unified
 1371              		.thumb
 1372              		.thumb_func
 1374              	BSP_PB_Init:
 1375              	.LVL93:
 1376              	.LFB139:
 263:Drivers/BSP/STM32F429I-Discovery/stm32f429i_discovery.c ****   GPIO_InitTypeDef GPIO_InitStruct;
 1377              		.loc 1 263 1 is_stmt 1 view -0
 1378              		.cfi_startproc
 1379              		@ args = 0, pretend = 0, frame = 24
 1380              		@ frame_needed = 0, uses_anonymous_args = 0
 263:Drivers/BSP/STM32F429I-Discovery/stm32f429i_discovery.c ****   GPIO_InitTypeDef GPIO_InitStruct;
 1381              		.loc 1 263 1 is_stmt 0 view .LVU311
 1382 0000 30B5     		push	{r4, r5, lr}
 1383              	.LCFI48:
 1384              		.cfi_def_cfa_offset 12
 1385              		.cfi_offset 4, -12
 1386              		.cfi_offset 5, -8
 1387              		.cfi_offset 14, -4
 1388 0002 87B0     		sub	sp, sp, #28
 1389              	.LCFI49:
 1390              		.cfi_def_cfa_offset 40
 1391 0004 0C46     		mov	r4, r1
 264:Drivers/BSP/STM32F429I-Discovery/stm32f429i_discovery.c ****   
 1392              		.loc 1 264 3 is_stmt 1 view .LVU312
 267:Drivers/BSP/STM32F429I-Discovery/stm32f429i_discovery.c ****   
 1393              		.loc 1 267 3 view .LVU313
 267:Drivers/BSP/STM32F429I-Discovery/stm32f429i_discovery.c ****   
 1394              		.loc 1 267 3 view .LVU314
 1395 0006 0546     		mov	r5, r0
 1396 0008 58B9     		cbnz	r0, .L102
 267:Drivers/BSP/STM32F429I-Discovery/stm32f429i_discovery.c ****   
 1397              		.loc 1 267 3 discriminator 1 view .LVU315
 1398              	.LBB10:
 267:Drivers/BSP/STM32F429I-Discovery/stm32f429i_discovery.c ****   
 1399              		.loc 1 267 3 discriminator 1 view .LVU316
 1400 000a 0023     		movs	r3, #0
 1401 000c 0093     		str	r3, [sp]
 267:Drivers/BSP/STM32F429I-Discovery/stm32f429i_discovery.c ****   
 1402              		.loc 1 267 3 view .LVU317
 267:Drivers/BSP/STM32F429I-Discovery/stm32f429i_discovery.c ****   
 1403              		.loc 1 267 3 is_stmt 0 discriminator 1 view .LVU318
 1404 000e 194B     		ldr	r3, .L108
 1405 0010 1A6B     		ldr	r2, [r3, #48]
 1406 0012 42F00102 		orr	r2, r2, #1
 1407 0016 1A63     		str	r2, [r3, #48]
 267:Drivers/BSP/STM32F429I-Discovery/stm32f429i_discovery.c ****   
 1408              		.loc 1 267 3 is_stmt 1 view .LVU319
 267:Drivers/BSP/STM32F429I-Discovery/stm32f429i_discovery.c ****   
 1409              		.loc 1 267 3 is_stmt 0 discriminator 1 view .LVU320
 1410 0018 1B6B     		ldr	r3, [r3, #48]
 1411 001a 03F00103 		and	r3, r3, #1
 1412 001e 0093     		str	r3, [sp]
 267:Drivers/BSP/STM32F429I-Discovery/stm32f429i_discovery.c ****   
 1413              		.loc 1 267 3 is_stmt 1 view .LVU321
 267:Drivers/BSP/STM32F429I-Discovery/stm32f429i_discovery.c ****   
 1414              		.loc 1 267 3 is_stmt 0 discriminator 1 view .LVU322
ARM GAS  /var/folders/qx/2_175_4n2s19vhvtspjhb3qh0000gn/T//cchK137x.s 			page 44


 1415 0020 009B     		ldr	r3, [sp]
 1416              	.L102:
 1417              	.LBE10:
 267:Drivers/BSP/STM32F429I-Discovery/stm32f429i_discovery.c ****   
 1418              		.loc 1 267 3 is_stmt 1 view .LVU323
 267:Drivers/BSP/STM32F429I-Discovery/stm32f429i_discovery.c ****   
 1419              		.loc 1 267 3 view .LVU324
 269:Drivers/BSP/STM32F429I-Discovery/stm32f429i_discovery.c ****   {
 1420              		.loc 1 269 3 view .LVU325
 269:Drivers/BSP/STM32F429I-Discovery/stm32f429i_discovery.c ****   {
 1421              		.loc 1 269 6 is_stmt 0 view .LVU326
 1422 0022 1CB1     		cbz	r4, .L106
 1423              	.LVL94:
 1424              	.L103:
 279:Drivers/BSP/STM32F429I-Discovery/stm32f429i_discovery.c ****   {
 1425              		.loc 1 279 3 is_stmt 1 view .LVU327
 279:Drivers/BSP/STM32F429I-Discovery/stm32f429i_discovery.c ****   {
 1426              		.loc 1 279 6 is_stmt 0 view .LVU328
 1427 0024 012C     		cmp	r4, #1
 1428 0026 0FD0     		beq	.L107
 1429              	.LVL95:
 1430              	.L101:
 291:Drivers/BSP/STM32F429I-Discovery/stm32f429i_discovery.c **** 
 1431              		.loc 1 291 1 view .LVU329
 1432 0028 07B0     		add	sp, sp, #28
 1433              	.LCFI50:
 1434              		.cfi_remember_state
 1435              		.cfi_def_cfa_offset 12
 1436              		@ sp needed
 1437 002a 30BD     		pop	{r4, r5, pc}
 1438              	.LVL96:
 1439              	.L106:
 1440              	.LCFI51:
 1441              		.cfi_restore_state
 272:Drivers/BSP/STM32F429I-Discovery/stm32f429i_discovery.c ****     GPIO_InitStruct.Mode = GPIO_MODE_INPUT;
 1442              		.loc 1 272 5 is_stmt 1 view .LVU330
 272:Drivers/BSP/STM32F429I-Discovery/stm32f429i_discovery.c ****     GPIO_InitStruct.Mode = GPIO_MODE_INPUT;
 1443              		.loc 1 272 25 is_stmt 0 view .LVU331
 1444 002c 0123     		movs	r3, #1
 1445 002e 0193     		str	r3, [sp, #4]
 273:Drivers/BSP/STM32F429I-Discovery/stm32f429i_discovery.c ****     GPIO_InitStruct.Pull = GPIO_PULLDOWN;
 1446              		.loc 1 273 5 is_stmt 1 view .LVU332
 273:Drivers/BSP/STM32F429I-Discovery/stm32f429i_discovery.c ****     GPIO_InitStruct.Pull = GPIO_PULLDOWN;
 1447              		.loc 1 273 26 is_stmt 0 view .LVU333
 1448 0030 0023     		movs	r3, #0
 1449 0032 0293     		str	r3, [sp, #8]
 274:Drivers/BSP/STM32F429I-Discovery/stm32f429i_discovery.c ****     GPIO_InitStruct.Speed = GPIO_SPEED_FAST;
 1450              		.loc 1 274 5 is_stmt 1 view .LVU334
 274:Drivers/BSP/STM32F429I-Discovery/stm32f429i_discovery.c ****     GPIO_InitStruct.Speed = GPIO_SPEED_FAST;
 1451              		.loc 1 274 26 is_stmt 0 view .LVU335
 1452 0034 0223     		movs	r3, #2
 1453 0036 0393     		str	r3, [sp, #12]
 275:Drivers/BSP/STM32F429I-Discovery/stm32f429i_discovery.c ****     HAL_GPIO_Init(BUTTON_PORT[Button], &GPIO_InitStruct);
 1454              		.loc 1 275 5 is_stmt 1 view .LVU336
 275:Drivers/BSP/STM32F429I-Discovery/stm32f429i_discovery.c ****     HAL_GPIO_Init(BUTTON_PORT[Button], &GPIO_InitStruct);
 1455              		.loc 1 275 27 is_stmt 0 view .LVU337
 1456 0038 0493     		str	r3, [sp, #16]
ARM GAS  /var/folders/qx/2_175_4n2s19vhvtspjhb3qh0000gn/T//cchK137x.s 			page 45


 276:Drivers/BSP/STM32F429I-Discovery/stm32f429i_discovery.c ****   }
 1457              		.loc 1 276 5 is_stmt 1 view .LVU338
 1458 003a 01A9     		add	r1, sp, #4
 1459              	.LVL97:
 276:Drivers/BSP/STM32F429I-Discovery/stm32f429i_discovery.c ****   }
 1460              		.loc 1 276 5 is_stmt 0 view .LVU339
 1461 003c 0E4B     		ldr	r3, .L108+4
 1462 003e 53F82500 		ldr	r0, [r3, r5, lsl #2]
 1463              	.LVL98:
 276:Drivers/BSP/STM32F429I-Discovery/stm32f429i_discovery.c ****   }
 1464              		.loc 1 276 5 view .LVU340
 1465 0042 FFF7FEFF 		bl	HAL_GPIO_Init
 1466              	.LVL99:
 1467 0046 EDE7     		b	.L103
 1468              	.L107:
 282:Drivers/BSP/STM32F429I-Discovery/stm32f429i_discovery.c ****     GPIO_InitStruct.Pull = GPIO_NOPULL;
 1469              		.loc 1 282 5 is_stmt 1 view .LVU341
 282:Drivers/BSP/STM32F429I-Discovery/stm32f429i_discovery.c ****     GPIO_InitStruct.Pull = GPIO_NOPULL;
 1470              		.loc 1 282 25 is_stmt 0 view .LVU342
 1471 0048 0123     		movs	r3, #1
 1472 004a 0193     		str	r3, [sp, #4]
 283:Drivers/BSP/STM32F429I-Discovery/stm32f429i_discovery.c ****     GPIO_InitStruct.Mode = GPIO_MODE_IT_RISING; 
 1473              		.loc 1 283 5 is_stmt 1 view .LVU343
 283:Drivers/BSP/STM32F429I-Discovery/stm32f429i_discovery.c ****     GPIO_InitStruct.Mode = GPIO_MODE_IT_RISING; 
 1474              		.loc 1 283 26 is_stmt 0 view .LVU344
 1475 004c 0024     		movs	r4, #0
 1476              	.LVL100:
 283:Drivers/BSP/STM32F429I-Discovery/stm32f429i_discovery.c ****     GPIO_InitStruct.Mode = GPIO_MODE_IT_RISING; 
 1477              		.loc 1 283 26 view .LVU345
 1478 004e 0394     		str	r4, [sp, #12]
 284:Drivers/BSP/STM32F429I-Discovery/stm32f429i_discovery.c ****     HAL_GPIO_Init(BUTTON_PORT[Button], &GPIO_InitStruct);
 1479              		.loc 1 284 5 is_stmt 1 view .LVU346
 284:Drivers/BSP/STM32F429I-Discovery/stm32f429i_discovery.c ****     HAL_GPIO_Init(BUTTON_PORT[Button], &GPIO_InitStruct);
 1480              		.loc 1 284 26 is_stmt 0 view .LVU347
 1481 0050 4FF48813 		mov	r3, #1114112
 1482 0054 0293     		str	r3, [sp, #8]
 285:Drivers/BSP/STM32F429I-Discovery/stm32f429i_discovery.c ****     
 1483              		.loc 1 285 5 is_stmt 1 view .LVU348
 1484 0056 01A9     		add	r1, sp, #4
 1485 0058 074B     		ldr	r3, .L108+4
 1486 005a 53F82500 		ldr	r0, [r3, r5, lsl #2]
 1487 005e FFF7FEFF 		bl	HAL_GPIO_Init
 1488              	.LVL101:
 288:Drivers/BSP/STM32F429I-Discovery/stm32f429i_discovery.c ****     HAL_NVIC_EnableIRQ((IRQn_Type)(BUTTON_IRQn[Button]));
 1489              		.loc 1 288 5 view .LVU349
 1490 0062 2246     		mov	r2, r4
 1491 0064 0F21     		movs	r1, #15
 1492 0066 0620     		movs	r0, #6
 1493 0068 FFF7FEFF 		bl	HAL_NVIC_SetPriority
 1494              	.LVL102:
 289:Drivers/BSP/STM32F429I-Discovery/stm32f429i_discovery.c ****   }
 1495              		.loc 1 289 5 view .LVU350
 1496 006c 0620     		movs	r0, #6
 1497 006e FFF7FEFF 		bl	HAL_NVIC_EnableIRQ
 1498              	.LVL103:
 291:Drivers/BSP/STM32F429I-Discovery/stm32f429i_discovery.c **** 
 1499              		.loc 1 291 1 is_stmt 0 view .LVU351
ARM GAS  /var/folders/qx/2_175_4n2s19vhvtspjhb3qh0000gn/T//cchK137x.s 			page 46


 1500 0072 D9E7     		b	.L101
 1501              	.L109:
 1502              		.align	2
 1503              	.L108:
 1504 0074 00380240 		.word	1073887232
 1505 0078 00000000 		.word	BUTTON_PORT
 1506              		.cfi_endproc
 1507              	.LFE139:
 1509              		.section	.text.BSP_PB_GetState,"ax",%progbits
 1510              		.align	1
 1511              		.global	BSP_PB_GetState
 1512              		.syntax unified
 1513              		.thumb
 1514              		.thumb_func
 1516              	BSP_PB_GetState:
 1517              	.LVL104:
 1518              	.LFB140:
 300:Drivers/BSP/STM32F429I-Discovery/stm32f429i_discovery.c ****   return HAL_GPIO_ReadPin(BUTTON_PORT[Button], BUTTON_PIN[Button]);
 1519              		.loc 1 300 1 is_stmt 1 view -0
 1520              		.cfi_startproc
 1521              		@ args = 0, pretend = 0, frame = 0
 1522              		@ frame_needed = 0, uses_anonymous_args = 0
 300:Drivers/BSP/STM32F429I-Discovery/stm32f429i_discovery.c ****   return HAL_GPIO_ReadPin(BUTTON_PORT[Button], BUTTON_PIN[Button]);
 1523              		.loc 1 300 1 is_stmt 0 view .LVU353
 1524 0000 08B5     		push	{r3, lr}
 1525              	.LCFI52:
 1526              		.cfi_def_cfa_offset 8
 1527              		.cfi_offset 3, -8
 1528              		.cfi_offset 14, -4
 301:Drivers/BSP/STM32F429I-Discovery/stm32f429i_discovery.c **** }
 1529              		.loc 1 301 3 is_stmt 1 view .LVU354
 301:Drivers/BSP/STM32F429I-Discovery/stm32f429i_discovery.c **** }
 1530              		.loc 1 301 10 is_stmt 0 view .LVU355
 1531 0002 0121     		movs	r1, #1
 1532 0004 024B     		ldr	r3, .L112
 1533 0006 53F82000 		ldr	r0, [r3, r0, lsl #2]
 1534              	.LVL105:
 301:Drivers/BSP/STM32F429I-Discovery/stm32f429i_discovery.c **** }
 1535              		.loc 1 301 10 view .LVU356
 1536 000a FFF7FEFF 		bl	HAL_GPIO_ReadPin
 1537              	.LVL106:
 302:Drivers/BSP/STM32F429I-Discovery/stm32f429i_discovery.c **** 
 1538              		.loc 1 302 1 view .LVU357
 1539 000e 08BD     		pop	{r3, pc}
 1540              	.L113:
 1541              		.align	2
 1542              	.L112:
 1543 0010 00000000 		.word	BUTTON_PORT
 1544              		.cfi_endproc
 1545              	.LFE140:
 1547              		.section	.text.LCD_IO_Init,"ax",%progbits
 1548              		.align	1
 1549              		.global	LCD_IO_Init
 1550              		.syntax unified
 1551              		.thumb
 1552              		.thumb_func
 1554              	LCD_IO_Init:
ARM GAS  /var/folders/qx/2_175_4n2s19vhvtspjhb3qh0000gn/T//cchK137x.s 			page 47


 1555              	.LFB155:
 782:Drivers/BSP/STM32F429I-Discovery/stm32f429i_discovery.c **** 
 783:Drivers/BSP/STM32F429I-Discovery/stm32f429i_discovery.c **** /********************************* LINK LCD ***********************************/
 784:Drivers/BSP/STM32F429I-Discovery/stm32f429i_discovery.c **** 
 785:Drivers/BSP/STM32F429I-Discovery/stm32f429i_discovery.c **** /**
 786:Drivers/BSP/STM32F429I-Discovery/stm32f429i_discovery.c ****   * @brief  Configures the LCD_SPI interface.
 787:Drivers/BSP/STM32F429I-Discovery/stm32f429i_discovery.c ****   * @param  None
 788:Drivers/BSP/STM32F429I-Discovery/stm32f429i_discovery.c ****   * @retval None
 789:Drivers/BSP/STM32F429I-Discovery/stm32f429i_discovery.c ****   */
 790:Drivers/BSP/STM32F429I-Discovery/stm32f429i_discovery.c **** void LCD_IO_Init(void)
 791:Drivers/BSP/STM32F429I-Discovery/stm32f429i_discovery.c **** {
 1556              		.loc 1 791 1 is_stmt 1 view -0
 1557              		.cfi_startproc
 1558              		@ args = 0, pretend = 0, frame = 32
 1559              		@ frame_needed = 0, uses_anonymous_args = 0
 792:Drivers/BSP/STM32F429I-Discovery/stm32f429i_discovery.c ****   GPIO_InitTypeDef GPIO_InitStructure;
 1560              		.loc 1 792 3 view .LVU359
 793:Drivers/BSP/STM32F429I-Discovery/stm32f429i_discovery.c ****   
 794:Drivers/BSP/STM32F429I-Discovery/stm32f429i_discovery.c ****   if(Is_LCD_IO_Initialized == 0)
 1561              		.loc 1 794 3 view .LVU360
 1562              		.loc 1 794 28 is_stmt 0 view .LVU361
 1563 0000 2F4B     		ldr	r3, .L121
 1564 0002 1B78     		ldrb	r3, [r3]	@ zero_extendqisi2
 1565              		.loc 1 794 5 view .LVU362
 1566 0004 03B1     		cbz	r3, .L120
 1567 0006 7047     		bx	lr
 1568              	.L120:
 791:Drivers/BSP/STM32F429I-Discovery/stm32f429i_discovery.c ****   GPIO_InitTypeDef GPIO_InitStructure;
 1569              		.loc 1 791 1 view .LVU363
 1570 0008 2DE9F043 		push	{r4, r5, r6, r7, r8, r9, lr}
 1571              	.LCFI53:
 1572              		.cfi_def_cfa_offset 28
 1573              		.cfi_offset 4, -28
 1574              		.cfi_offset 5, -24
 1575              		.cfi_offset 6, -20
 1576              		.cfi_offset 7, -16
 1577              		.cfi_offset 8, -12
 1578              		.cfi_offset 9, -8
 1579              		.cfi_offset 14, -4
 1580 000c 89B0     		sub	sp, sp, #36
 1581              	.LCFI54:
 1582              		.cfi_def_cfa_offset 64
 795:Drivers/BSP/STM32F429I-Discovery/stm32f429i_discovery.c ****   {
 796:Drivers/BSP/STM32F429I-Discovery/stm32f429i_discovery.c ****     Is_LCD_IO_Initialized = 1; 
 1583              		.loc 1 796 5 is_stmt 1 view .LVU364
 1584              		.loc 1 796 27 is_stmt 0 view .LVU365
 1585 000e 0126     		movs	r6, #1
 1586 0010 2B4B     		ldr	r3, .L121
 1587 0012 1E70     		strb	r6, [r3]
 797:Drivers/BSP/STM32F429I-Discovery/stm32f429i_discovery.c ****     
 798:Drivers/BSP/STM32F429I-Discovery/stm32f429i_discovery.c ****     /* Configure NCS in Output Push-Pull mode */
 799:Drivers/BSP/STM32F429I-Discovery/stm32f429i_discovery.c ****     LCD_WRX_GPIO_CLK_ENABLE();
 1588              		.loc 1 799 5 is_stmt 1 view .LVU366
 1589              	.LBB11:
 1590              		.loc 1 799 5 view .LVU367
 1591 0014 0025     		movs	r5, #0
 1592 0016 0095     		str	r5, [sp]
ARM GAS  /var/folders/qx/2_175_4n2s19vhvtspjhb3qh0000gn/T//cchK137x.s 			page 48


 1593              		.loc 1 799 5 view .LVU368
 1594 0018 2A4C     		ldr	r4, .L121+4
 1595 001a 236B     		ldr	r3, [r4, #48]
 1596 001c 43F00803 		orr	r3, r3, #8
 1597 0020 2363     		str	r3, [r4, #48]
 1598              		.loc 1 799 5 view .LVU369
 1599 0022 236B     		ldr	r3, [r4, #48]
 1600 0024 03F00803 		and	r3, r3, #8
 1601 0028 0093     		str	r3, [sp]
 1602              		.loc 1 799 5 view .LVU370
 1603 002a 009B     		ldr	r3, [sp]
 1604              	.LBE11:
 1605              		.loc 1 799 5 view .LVU371
 800:Drivers/BSP/STM32F429I-Discovery/stm32f429i_discovery.c ****     GPIO_InitStructure.Pin     = LCD_WRX_PIN;
 1606              		.loc 1 800 5 view .LVU372
 1607              		.loc 1 800 32 is_stmt 0 view .LVU373
 1608 002c 4FF40053 		mov	r3, #8192
 1609 0030 0393     		str	r3, [sp, #12]
 801:Drivers/BSP/STM32F429I-Discovery/stm32f429i_discovery.c ****     GPIO_InitStructure.Mode    = GPIO_MODE_OUTPUT_PP;
 1610              		.loc 1 801 5 is_stmt 1 view .LVU374
 1611              		.loc 1 801 32 is_stmt 0 view .LVU375
 1612 0032 0496     		str	r6, [sp, #16]
 802:Drivers/BSP/STM32F429I-Discovery/stm32f429i_discovery.c ****     GPIO_InitStructure.Pull    = GPIO_NOPULL;
 1613              		.loc 1 802 5 is_stmt 1 view .LVU376
 1614              		.loc 1 802 32 is_stmt 0 view .LVU377
 1615 0034 0595     		str	r5, [sp, #20]
 803:Drivers/BSP/STM32F429I-Discovery/stm32f429i_discovery.c ****     GPIO_InitStructure.Speed   = GPIO_SPEED_FAST;
 1616              		.loc 1 803 5 is_stmt 1 view .LVU378
 1617              		.loc 1 803 32 is_stmt 0 view .LVU379
 1618 0036 4FF00209 		mov	r9, #2
 1619 003a CDF81890 		str	r9, [sp, #24]
 804:Drivers/BSP/STM32F429I-Discovery/stm32f429i_discovery.c ****     HAL_GPIO_Init(LCD_WRX_GPIO_PORT, &GPIO_InitStructure);
 1620              		.loc 1 804 5 is_stmt 1 view .LVU380
 1621 003e 0DF10C08 		add	r8, sp, #12
 1622 0042 214F     		ldr	r7, .L121+8
 1623 0044 4146     		mov	r1, r8
 1624 0046 3846     		mov	r0, r7
 1625 0048 FFF7FEFF 		bl	HAL_GPIO_Init
 1626              	.LVL107:
 805:Drivers/BSP/STM32F429I-Discovery/stm32f429i_discovery.c ****     
 806:Drivers/BSP/STM32F429I-Discovery/stm32f429i_discovery.c ****     LCD_RDX_GPIO_CLK_ENABLE();
 1627              		.loc 1 806 5 view .LVU381
 1628              	.LBB12:
 1629              		.loc 1 806 5 view .LVU382
 1630 004c 0195     		str	r5, [sp, #4]
 1631              		.loc 1 806 5 view .LVU383
 1632 004e 236B     		ldr	r3, [r4, #48]
 1633 0050 43F00803 		orr	r3, r3, #8
 1634 0054 2363     		str	r3, [r4, #48]
 1635              		.loc 1 806 5 view .LVU384
 1636 0056 236B     		ldr	r3, [r4, #48]
 1637 0058 03F00803 		and	r3, r3, #8
 1638 005c 0193     		str	r3, [sp, #4]
 1639              		.loc 1 806 5 view .LVU385
 1640 005e 019B     		ldr	r3, [sp, #4]
 1641              	.LBE12:
 1642              		.loc 1 806 5 view .LVU386
ARM GAS  /var/folders/qx/2_175_4n2s19vhvtspjhb3qh0000gn/T//cchK137x.s 			page 49


 807:Drivers/BSP/STM32F429I-Discovery/stm32f429i_discovery.c ****     GPIO_InitStructure.Pin     = LCD_RDX_PIN;
 1643              		.loc 1 807 5 view .LVU387
 1644              		.loc 1 807 32 is_stmt 0 view .LVU388
 1645 0060 4FF48053 		mov	r3, #4096
 1646 0064 0393     		str	r3, [sp, #12]
 808:Drivers/BSP/STM32F429I-Discovery/stm32f429i_discovery.c ****     GPIO_InitStructure.Mode    = GPIO_MODE_OUTPUT_PP;
 1647              		.loc 1 808 5 is_stmt 1 view .LVU389
 1648              		.loc 1 808 32 is_stmt 0 view .LVU390
 1649 0066 0496     		str	r6, [sp, #16]
 809:Drivers/BSP/STM32F429I-Discovery/stm32f429i_discovery.c ****     GPIO_InitStructure.Pull    = GPIO_NOPULL;
 1650              		.loc 1 809 5 is_stmt 1 view .LVU391
 1651              		.loc 1 809 32 is_stmt 0 view .LVU392
 1652 0068 0595     		str	r5, [sp, #20]
 810:Drivers/BSP/STM32F429I-Discovery/stm32f429i_discovery.c ****     GPIO_InitStructure.Speed   = GPIO_SPEED_FAST;
 1653              		.loc 1 810 5 is_stmt 1 view .LVU393
 1654              		.loc 1 810 32 is_stmt 0 view .LVU394
 1655 006a CDF81890 		str	r9, [sp, #24]
 811:Drivers/BSP/STM32F429I-Discovery/stm32f429i_discovery.c ****     HAL_GPIO_Init(LCD_RDX_GPIO_PORT, &GPIO_InitStructure);
 1656              		.loc 1 811 5 is_stmt 1 view .LVU395
 1657 006e 4146     		mov	r1, r8
 1658 0070 3846     		mov	r0, r7
 1659 0072 FFF7FEFF 		bl	HAL_GPIO_Init
 1660              	.LVL108:
 812:Drivers/BSP/STM32F429I-Discovery/stm32f429i_discovery.c ****     
 813:Drivers/BSP/STM32F429I-Discovery/stm32f429i_discovery.c ****     /* Configure the LCD Control pins ----------------------------------------*/
 814:Drivers/BSP/STM32F429I-Discovery/stm32f429i_discovery.c ****     LCD_NCS_GPIO_CLK_ENABLE();
 1661              		.loc 1 814 5 view .LVU396
 1662              	.LBB13:
 1663              		.loc 1 814 5 view .LVU397
 1664 0076 0295     		str	r5, [sp, #8]
 1665              		.loc 1 814 5 view .LVU398
 1666 0078 236B     		ldr	r3, [r4, #48]
 1667 007a 43F00403 		orr	r3, r3, #4
 1668 007e 2363     		str	r3, [r4, #48]
 1669              		.loc 1 814 5 view .LVU399
 1670 0080 236B     		ldr	r3, [r4, #48]
 1671 0082 03F00403 		and	r3, r3, #4
 1672 0086 0293     		str	r3, [sp, #8]
 1673              		.loc 1 814 5 view .LVU400
 1674 0088 029B     		ldr	r3, [sp, #8]
 1675              	.LBE13:
 1676              		.loc 1 814 5 view .LVU401
 815:Drivers/BSP/STM32F429I-Discovery/stm32f429i_discovery.c ****     
 816:Drivers/BSP/STM32F429I-Discovery/stm32f429i_discovery.c ****     /* Configure NCS in Output Push-Pull mode */
 817:Drivers/BSP/STM32F429I-Discovery/stm32f429i_discovery.c ****     GPIO_InitStructure.Pin     = LCD_NCS_PIN;
 1677              		.loc 1 817 5 view .LVU402
 1678              		.loc 1 817 32 is_stmt 0 view .LVU403
 1679 008a 0427     		movs	r7, #4
 1680 008c 0397     		str	r7, [sp, #12]
 818:Drivers/BSP/STM32F429I-Discovery/stm32f429i_discovery.c ****     GPIO_InitStructure.Mode    = GPIO_MODE_OUTPUT_PP;
 1681              		.loc 1 818 5 is_stmt 1 view .LVU404
 1682              		.loc 1 818 32 is_stmt 0 view .LVU405
 1683 008e 0496     		str	r6, [sp, #16]
 819:Drivers/BSP/STM32F429I-Discovery/stm32f429i_discovery.c ****     GPIO_InitStructure.Pull    = GPIO_NOPULL;
 1684              		.loc 1 819 5 is_stmt 1 view .LVU406
 1685              		.loc 1 819 32 is_stmt 0 view .LVU407
 1686 0090 0595     		str	r5, [sp, #20]
ARM GAS  /var/folders/qx/2_175_4n2s19vhvtspjhb3qh0000gn/T//cchK137x.s 			page 50


 820:Drivers/BSP/STM32F429I-Discovery/stm32f429i_discovery.c ****     GPIO_InitStructure.Speed   = GPIO_SPEED_FAST;
 1687              		.loc 1 820 5 is_stmt 1 view .LVU408
 1688              		.loc 1 820 32 is_stmt 0 view .LVU409
 1689 0092 CDF81890 		str	r9, [sp, #24]
 821:Drivers/BSP/STM32F429I-Discovery/stm32f429i_discovery.c ****     HAL_GPIO_Init(LCD_NCS_GPIO_PORT, &GPIO_InitStructure);
 1690              		.loc 1 821 5 is_stmt 1 view .LVU410
 1691 0096 A4F54054 		sub	r4, r4, #12288
 1692 009a 4146     		mov	r1, r8
 1693 009c 2046     		mov	r0, r4
 1694 009e FFF7FEFF 		bl	HAL_GPIO_Init
 1695              	.LVL109:
 822:Drivers/BSP/STM32F429I-Discovery/stm32f429i_discovery.c ****     
 823:Drivers/BSP/STM32F429I-Discovery/stm32f429i_discovery.c ****     /* Set or Reset the control line */
 824:Drivers/BSP/STM32F429I-Discovery/stm32f429i_discovery.c ****     LCD_CS_LOW();
 1696              		.loc 1 824 5 view .LVU411
 1697 00a2 2A46     		mov	r2, r5
 1698 00a4 3946     		mov	r1, r7
 1699 00a6 2046     		mov	r0, r4
 1700 00a8 FFF7FEFF 		bl	HAL_GPIO_WritePin
 1701              	.LVL110:
 825:Drivers/BSP/STM32F429I-Discovery/stm32f429i_discovery.c ****     LCD_CS_HIGH();
 1702              		.loc 1 825 5 view .LVU412
 1703 00ac 3246     		mov	r2, r6
 1704 00ae 3946     		mov	r1, r7
 1705 00b0 2046     		mov	r0, r4
 1706 00b2 FFF7FEFF 		bl	HAL_GPIO_WritePin
 1707              	.LVL111:
 826:Drivers/BSP/STM32F429I-Discovery/stm32f429i_discovery.c ****     
 827:Drivers/BSP/STM32F429I-Discovery/stm32f429i_discovery.c ****     SPIx_Init();
 1708              		.loc 1 827 5 view .LVU413
 1709 00b6 FFF7FEFF 		bl	SPIx_Init
 1710              	.LVL112:
 828:Drivers/BSP/STM32F429I-Discovery/stm32f429i_discovery.c ****   }
 829:Drivers/BSP/STM32F429I-Discovery/stm32f429i_discovery.c **** }
 1711              		.loc 1 829 1 is_stmt 0 view .LVU414
 1712 00ba 09B0     		add	sp, sp, #36
 1713              	.LCFI55:
 1714              		.cfi_def_cfa_offset 28
 1715              		@ sp needed
 1716 00bc BDE8F083 		pop	{r4, r5, r6, r7, r8, r9, pc}
 1717              	.L122:
 1718              		.align	2
 1719              	.L121:
 1720 00c0 00000000 		.word	Is_LCD_IO_Initialized
 1721 00c4 00380240 		.word	1073887232
 1722 00c8 000C0240 		.word	1073875968
 1723              		.cfi_endproc
 1724              	.LFE155:
 1726              		.section	.text.LCD_IO_WriteData,"ax",%progbits
 1727              		.align	1
 1728              		.global	LCD_IO_WriteData
 1729              		.syntax unified
 1730              		.thumb
 1731              		.thumb_func
 1733              	LCD_IO_WriteData:
 1734              	.LVL113:
 1735              	.LFB156:
ARM GAS  /var/folders/qx/2_175_4n2s19vhvtspjhb3qh0000gn/T//cchK137x.s 			page 51


 830:Drivers/BSP/STM32F429I-Discovery/stm32f429i_discovery.c **** 
 831:Drivers/BSP/STM32F429I-Discovery/stm32f429i_discovery.c **** /**
 832:Drivers/BSP/STM32F429I-Discovery/stm32f429i_discovery.c ****   * @brief  Writes register value.
 833:Drivers/BSP/STM32F429I-Discovery/stm32f429i_discovery.c ****   * @param  None
 834:Drivers/BSP/STM32F429I-Discovery/stm32f429i_discovery.c ****   * @retval None
 835:Drivers/BSP/STM32F429I-Discovery/stm32f429i_discovery.c ****   */
 836:Drivers/BSP/STM32F429I-Discovery/stm32f429i_discovery.c **** void LCD_IO_WriteData(uint16_t RegValue) 
 837:Drivers/BSP/STM32F429I-Discovery/stm32f429i_discovery.c **** {
 1736              		.loc 1 837 1 is_stmt 1 view -0
 1737              		.cfi_startproc
 1738              		@ args = 0, pretend = 0, frame = 0
 1739              		@ frame_needed = 0, uses_anonymous_args = 0
 1740              		.loc 1 837 1 is_stmt 0 view .LVU416
 1741 0000 38B5     		push	{r3, r4, r5, lr}
 1742              	.LCFI56:
 1743              		.cfi_def_cfa_offset 16
 1744              		.cfi_offset 3, -16
 1745              		.cfi_offset 4, -12
 1746              		.cfi_offset 5, -8
 1747              		.cfi_offset 14, -4
 1748 0002 0446     		mov	r4, r0
 838:Drivers/BSP/STM32F429I-Discovery/stm32f429i_discovery.c ****   /* Set WRX to send data */
 839:Drivers/BSP/STM32F429I-Discovery/stm32f429i_discovery.c ****   LCD_WRX_HIGH();
 1749              		.loc 1 839 3 is_stmt 1 view .LVU417
 1750 0004 0122     		movs	r2, #1
 1751 0006 4FF40051 		mov	r1, #8192
 1752 000a 0948     		ldr	r0, .L125
 1753              	.LVL114:
 1754              		.loc 1 839 3 is_stmt 0 view .LVU418
 1755 000c FFF7FEFF 		bl	HAL_GPIO_WritePin
 1756              	.LVL115:
 840:Drivers/BSP/STM32F429I-Discovery/stm32f429i_discovery.c ****   
 841:Drivers/BSP/STM32F429I-Discovery/stm32f429i_discovery.c ****   /* Reset LCD control line(/CS) and Send data */  
 842:Drivers/BSP/STM32F429I-Discovery/stm32f429i_discovery.c ****   LCD_CS_LOW();
 1757              		.loc 1 842 3 is_stmt 1 view .LVU419
 1758 0010 084D     		ldr	r5, .L125+4
 1759 0012 0022     		movs	r2, #0
 1760 0014 0421     		movs	r1, #4
 1761 0016 2846     		mov	r0, r5
 1762 0018 FFF7FEFF 		bl	HAL_GPIO_WritePin
 1763              	.LVL116:
 843:Drivers/BSP/STM32F429I-Discovery/stm32f429i_discovery.c ****   SPIx_Write(RegValue);
 1764              		.loc 1 843 3 view .LVU420
 1765 001c 2046     		mov	r0, r4
 1766 001e FFF7FEFF 		bl	SPIx_Write
 1767              	.LVL117:
 844:Drivers/BSP/STM32F429I-Discovery/stm32f429i_discovery.c ****   
 845:Drivers/BSP/STM32F429I-Discovery/stm32f429i_discovery.c ****   /* Deselect: Chip Select high */
 846:Drivers/BSP/STM32F429I-Discovery/stm32f429i_discovery.c ****   LCD_CS_HIGH();
 1768              		.loc 1 846 3 view .LVU421
 1769 0022 0122     		movs	r2, #1
 1770 0024 0421     		movs	r1, #4
 1771 0026 2846     		mov	r0, r5
 1772 0028 FFF7FEFF 		bl	HAL_GPIO_WritePin
 1773              	.LVL118:
 847:Drivers/BSP/STM32F429I-Discovery/stm32f429i_discovery.c **** }
 1774              		.loc 1 847 1 is_stmt 0 view .LVU422
ARM GAS  /var/folders/qx/2_175_4n2s19vhvtspjhb3qh0000gn/T//cchK137x.s 			page 52


 1775 002c 38BD     		pop	{r3, r4, r5, pc}
 1776              	.LVL119:
 1777              	.L126:
 1778              		.loc 1 847 1 view .LVU423
 1779 002e 00BF     		.align	2
 1780              	.L125:
 1781 0030 000C0240 		.word	1073875968
 1782 0034 00080240 		.word	1073874944
 1783              		.cfi_endproc
 1784              	.LFE156:
 1786              		.section	.text.LCD_IO_WriteReg,"ax",%progbits
 1787              		.align	1
 1788              		.global	LCD_IO_WriteReg
 1789              		.syntax unified
 1790              		.thumb
 1791              		.thumb_func
 1793              	LCD_IO_WriteReg:
 1794              	.LVL120:
 1795              	.LFB157:
 848:Drivers/BSP/STM32F429I-Discovery/stm32f429i_discovery.c **** 
 849:Drivers/BSP/STM32F429I-Discovery/stm32f429i_discovery.c **** /**
 850:Drivers/BSP/STM32F429I-Discovery/stm32f429i_discovery.c ****   * @brief  Writes register address.
 851:Drivers/BSP/STM32F429I-Discovery/stm32f429i_discovery.c ****   * @param  None
 852:Drivers/BSP/STM32F429I-Discovery/stm32f429i_discovery.c ****   * @retval None
 853:Drivers/BSP/STM32F429I-Discovery/stm32f429i_discovery.c ****   */
 854:Drivers/BSP/STM32F429I-Discovery/stm32f429i_discovery.c **** void LCD_IO_WriteReg(uint8_t Reg) 
 855:Drivers/BSP/STM32F429I-Discovery/stm32f429i_discovery.c **** {
 1796              		.loc 1 855 1 is_stmt 1 view -0
 1797              		.cfi_startproc
 1798              		@ args = 0, pretend = 0, frame = 0
 1799              		@ frame_needed = 0, uses_anonymous_args = 0
 1800              		.loc 1 855 1 is_stmt 0 view .LVU425
 1801 0000 38B5     		push	{r3, r4, r5, lr}
 1802              	.LCFI57:
 1803              		.cfi_def_cfa_offset 16
 1804              		.cfi_offset 3, -16
 1805              		.cfi_offset 4, -12
 1806              		.cfi_offset 5, -8
 1807              		.cfi_offset 14, -4
 1808 0002 0446     		mov	r4, r0
 856:Drivers/BSP/STM32F429I-Discovery/stm32f429i_discovery.c ****   /* Reset WRX to send command */
 857:Drivers/BSP/STM32F429I-Discovery/stm32f429i_discovery.c ****   LCD_WRX_LOW();
 1809              		.loc 1 857 3 is_stmt 1 view .LVU426
 1810 0004 0022     		movs	r2, #0
 1811 0006 4FF40051 		mov	r1, #8192
 1812 000a 0948     		ldr	r0, .L129
 1813              	.LVL121:
 1814              		.loc 1 857 3 is_stmt 0 view .LVU427
 1815 000c FFF7FEFF 		bl	HAL_GPIO_WritePin
 1816              	.LVL122:
 858:Drivers/BSP/STM32F429I-Discovery/stm32f429i_discovery.c ****   
 859:Drivers/BSP/STM32F429I-Discovery/stm32f429i_discovery.c ****   /* Reset LCD control line(/CS) and Send command */
 860:Drivers/BSP/STM32F429I-Discovery/stm32f429i_discovery.c ****   LCD_CS_LOW();
 1817              		.loc 1 860 3 is_stmt 1 view .LVU428
 1818 0010 084D     		ldr	r5, .L129+4
 1819 0012 0022     		movs	r2, #0
 1820 0014 0421     		movs	r1, #4
ARM GAS  /var/folders/qx/2_175_4n2s19vhvtspjhb3qh0000gn/T//cchK137x.s 			page 53


 1821 0016 2846     		mov	r0, r5
 1822 0018 FFF7FEFF 		bl	HAL_GPIO_WritePin
 1823              	.LVL123:
 861:Drivers/BSP/STM32F429I-Discovery/stm32f429i_discovery.c ****   SPIx_Write(Reg);
 1824              		.loc 1 861 3 view .LVU429
 1825 001c 2046     		mov	r0, r4
 1826 001e FFF7FEFF 		bl	SPIx_Write
 1827              	.LVL124:
 862:Drivers/BSP/STM32F429I-Discovery/stm32f429i_discovery.c ****   
 863:Drivers/BSP/STM32F429I-Discovery/stm32f429i_discovery.c ****   /* Deselect: Chip Select high */
 864:Drivers/BSP/STM32F429I-Discovery/stm32f429i_discovery.c ****   LCD_CS_HIGH();
 1828              		.loc 1 864 3 view .LVU430
 1829 0022 0122     		movs	r2, #1
 1830 0024 0421     		movs	r1, #4
 1831 0026 2846     		mov	r0, r5
 1832 0028 FFF7FEFF 		bl	HAL_GPIO_WritePin
 1833              	.LVL125:
 865:Drivers/BSP/STM32F429I-Discovery/stm32f429i_discovery.c **** }
 1834              		.loc 1 865 1 is_stmt 0 view .LVU431
 1835 002c 38BD     		pop	{r3, r4, r5, pc}
 1836              	.LVL126:
 1837              	.L130:
 1838              		.loc 1 865 1 view .LVU432
 1839 002e 00BF     		.align	2
 1840              	.L129:
 1841 0030 000C0240 		.word	1073875968
 1842 0034 00080240 		.word	1073874944
 1843              		.cfi_endproc
 1844              	.LFE157:
 1846              		.section	.text.LCD_IO_ReadData,"ax",%progbits
 1847              		.align	1
 1848              		.global	LCD_IO_ReadData
 1849              		.syntax unified
 1850              		.thumb
 1851              		.thumb_func
 1853              	LCD_IO_ReadData:
 1854              	.LVL127:
 1855              	.LFB158:
 866:Drivers/BSP/STM32F429I-Discovery/stm32f429i_discovery.c **** 
 867:Drivers/BSP/STM32F429I-Discovery/stm32f429i_discovery.c **** /**
 868:Drivers/BSP/STM32F429I-Discovery/stm32f429i_discovery.c ****   * @brief  Reads register value.
 869:Drivers/BSP/STM32F429I-Discovery/stm32f429i_discovery.c ****   * @param  RegValue Address of the register to read
 870:Drivers/BSP/STM32F429I-Discovery/stm32f429i_discovery.c ****   * @param  ReadSize Number of bytes to read
 871:Drivers/BSP/STM32F429I-Discovery/stm32f429i_discovery.c ****   * @retval Content of the register value
 872:Drivers/BSP/STM32F429I-Discovery/stm32f429i_discovery.c ****   */
 873:Drivers/BSP/STM32F429I-Discovery/stm32f429i_discovery.c **** uint32_t LCD_IO_ReadData(uint16_t RegValue, uint8_t ReadSize) 
 874:Drivers/BSP/STM32F429I-Discovery/stm32f429i_discovery.c **** {
 1856              		.loc 1 874 1 is_stmt 1 view -0
 1857              		.cfi_startproc
 1858              		@ args = 0, pretend = 0, frame = 0
 1859              		@ frame_needed = 0, uses_anonymous_args = 0
 1860              		.loc 1 874 1 is_stmt 0 view .LVU434
 1861 0000 F8B5     		push	{r3, r4, r5, r6, r7, lr}
 1862              	.LCFI58:
 1863              		.cfi_def_cfa_offset 24
 1864              		.cfi_offset 3, -24
 1865              		.cfi_offset 4, -20
ARM GAS  /var/folders/qx/2_175_4n2s19vhvtspjhb3qh0000gn/T//cchK137x.s 			page 54


 1866              		.cfi_offset 5, -16
 1867              		.cfi_offset 6, -12
 1868              		.cfi_offset 7, -8
 1869              		.cfi_offset 14, -4
 1870 0002 0546     		mov	r5, r0
 1871 0004 0C46     		mov	r4, r1
 875:Drivers/BSP/STM32F429I-Discovery/stm32f429i_discovery.c ****   uint32_t readvalue = 0;
 1872              		.loc 1 875 3 is_stmt 1 view .LVU435
 1873              	.LVL128:
 876:Drivers/BSP/STM32F429I-Discovery/stm32f429i_discovery.c **** 
 877:Drivers/BSP/STM32F429I-Discovery/stm32f429i_discovery.c ****   /* Select: Chip Select low */
 878:Drivers/BSP/STM32F429I-Discovery/stm32f429i_discovery.c ****   LCD_CS_LOW();
 1874              		.loc 1 878 3 view .LVU436
 1875 0006 104E     		ldr	r6, .L133
 1876 0008 0022     		movs	r2, #0
 1877 000a 0421     		movs	r1, #4
 1878              	.LVL129:
 1879              		.loc 1 878 3 is_stmt 0 view .LVU437
 1880 000c 3046     		mov	r0, r6
 1881              	.LVL130:
 1882              		.loc 1 878 3 view .LVU438
 1883 000e FFF7FEFF 		bl	HAL_GPIO_WritePin
 1884              	.LVL131:
 879:Drivers/BSP/STM32F429I-Discovery/stm32f429i_discovery.c **** 
 880:Drivers/BSP/STM32F429I-Discovery/stm32f429i_discovery.c ****   /* Reset WRX to send command */
 881:Drivers/BSP/STM32F429I-Discovery/stm32f429i_discovery.c ****   LCD_WRX_LOW();
 1885              		.loc 1 881 3 is_stmt 1 view .LVU439
 1886 0012 0E4F     		ldr	r7, .L133+4
 1887 0014 0022     		movs	r2, #0
 1888 0016 4FF40051 		mov	r1, #8192
 1889 001a 3846     		mov	r0, r7
 1890 001c FFF7FEFF 		bl	HAL_GPIO_WritePin
 1891              	.LVL132:
 882:Drivers/BSP/STM32F429I-Discovery/stm32f429i_discovery.c ****   
 883:Drivers/BSP/STM32F429I-Discovery/stm32f429i_discovery.c ****   SPIx_Write(RegValue);
 1892              		.loc 1 883 3 view .LVU440
 1893 0020 2846     		mov	r0, r5
 1894 0022 FFF7FEFF 		bl	SPIx_Write
 1895              	.LVL133:
 884:Drivers/BSP/STM32F429I-Discovery/stm32f429i_discovery.c ****   
 885:Drivers/BSP/STM32F429I-Discovery/stm32f429i_discovery.c ****   readvalue = SPIx_Read(ReadSize);
 1896              		.loc 1 885 3 view .LVU441
 1897              		.loc 1 885 15 is_stmt 0 view .LVU442
 1898 0026 2046     		mov	r0, r4
 1899 0028 FFF7FEFF 		bl	SPIx_Read
 1900              	.LVL134:
 1901 002c 0446     		mov	r4, r0
 1902              	.LVL135:
 886:Drivers/BSP/STM32F429I-Discovery/stm32f429i_discovery.c **** 
 887:Drivers/BSP/STM32F429I-Discovery/stm32f429i_discovery.c ****   /* Set WRX to send data */
 888:Drivers/BSP/STM32F429I-Discovery/stm32f429i_discovery.c ****   LCD_WRX_HIGH();
 1903              		.loc 1 888 3 is_stmt 1 view .LVU443
 1904 002e 0122     		movs	r2, #1
 1905 0030 4FF40051 		mov	r1, #8192
 1906 0034 3846     		mov	r0, r7
 1907              	.LVL136:
 1908              		.loc 1 888 3 is_stmt 0 view .LVU444
ARM GAS  /var/folders/qx/2_175_4n2s19vhvtspjhb3qh0000gn/T//cchK137x.s 			page 55


 1909 0036 FFF7FEFF 		bl	HAL_GPIO_WritePin
 1910              	.LVL137:
 889:Drivers/BSP/STM32F429I-Discovery/stm32f429i_discovery.c **** 
 890:Drivers/BSP/STM32F429I-Discovery/stm32f429i_discovery.c ****   /* Deselect: Chip Select high */
 891:Drivers/BSP/STM32F429I-Discovery/stm32f429i_discovery.c ****   LCD_CS_HIGH();
 1911              		.loc 1 891 3 is_stmt 1 view .LVU445
 1912 003a 0122     		movs	r2, #1
 1913 003c 0421     		movs	r1, #4
 1914 003e 3046     		mov	r0, r6
 1915 0040 FFF7FEFF 		bl	HAL_GPIO_WritePin
 1916              	.LVL138:
 892:Drivers/BSP/STM32F429I-Discovery/stm32f429i_discovery.c ****   
 893:Drivers/BSP/STM32F429I-Discovery/stm32f429i_discovery.c ****   return readvalue;
 1917              		.loc 1 893 3 view .LVU446
 894:Drivers/BSP/STM32F429I-Discovery/stm32f429i_discovery.c **** }
 1918              		.loc 1 894 1 is_stmt 0 view .LVU447
 1919 0044 2046     		mov	r0, r4
 1920 0046 F8BD     		pop	{r3, r4, r5, r6, r7, pc}
 1921              	.LVL139:
 1922              	.L134:
 1923              		.loc 1 894 1 view .LVU448
 1924              		.align	2
 1925              	.L133:
 1926 0048 00080240 		.word	1073874944
 1927 004c 000C0240 		.word	1073875968
 1928              		.cfi_endproc
 1929              	.LFE158:
 1931              		.section	.text.LCD_Delay,"ax",%progbits
 1932              		.align	1
 1933              		.global	LCD_Delay
 1934              		.syntax unified
 1935              		.thumb
 1936              		.thumb_func
 1938              	LCD_Delay:
 1939              	.LVL140:
 1940              	.LFB159:
 895:Drivers/BSP/STM32F429I-Discovery/stm32f429i_discovery.c **** 
 896:Drivers/BSP/STM32F429I-Discovery/stm32f429i_discovery.c **** /**
 897:Drivers/BSP/STM32F429I-Discovery/stm32f429i_discovery.c ****   * @brief  Wait for loop in ms.
 898:Drivers/BSP/STM32F429I-Discovery/stm32f429i_discovery.c ****   * @param  Delay in ms.
 899:Drivers/BSP/STM32F429I-Discovery/stm32f429i_discovery.c ****   * @retval None
 900:Drivers/BSP/STM32F429I-Discovery/stm32f429i_discovery.c ****   */
 901:Drivers/BSP/STM32F429I-Discovery/stm32f429i_discovery.c **** void LCD_Delay(uint32_t Delay)
 902:Drivers/BSP/STM32F429I-Discovery/stm32f429i_discovery.c **** {
 1941              		.loc 1 902 1 is_stmt 1 view -0
 1942              		.cfi_startproc
 1943              		@ args = 0, pretend = 0, frame = 0
 1944              		@ frame_needed = 0, uses_anonymous_args = 0
 1945              		.loc 1 902 1 is_stmt 0 view .LVU450
 1946 0000 08B5     		push	{r3, lr}
 1947              	.LCFI59:
 1948              		.cfi_def_cfa_offset 8
 1949              		.cfi_offset 3, -8
 1950              		.cfi_offset 14, -4
 903:Drivers/BSP/STM32F429I-Discovery/stm32f429i_discovery.c ****   HAL_Delay(Delay);
 1951              		.loc 1 903 3 is_stmt 1 view .LVU451
 1952 0002 FFF7FEFF 		bl	HAL_Delay
ARM GAS  /var/folders/qx/2_175_4n2s19vhvtspjhb3qh0000gn/T//cchK137x.s 			page 56


 1953              	.LVL141:
 904:Drivers/BSP/STM32F429I-Discovery/stm32f429i_discovery.c **** }
 1954              		.loc 1 904 1 is_stmt 0 view .LVU452
 1955 0006 08BD     		pop	{r3, pc}
 1956              		.cfi_endproc
 1957              	.LFE159:
 1959              		.section	.text.IOE_Init,"ax",%progbits
 1960              		.align	1
 1961              		.global	IOE_Init
 1962              		.syntax unified
 1963              		.thumb
 1964              		.thumb_func
 1966              	IOE_Init:
 1967              	.LFB160:
 905:Drivers/BSP/STM32F429I-Discovery/stm32f429i_discovery.c **** 
 906:Drivers/BSP/STM32F429I-Discovery/stm32f429i_discovery.c **** /*******************************************************************************
 907:Drivers/BSP/STM32F429I-Discovery/stm32f429i_discovery.c ****                             LINK OPERATIONS
 908:Drivers/BSP/STM32F429I-Discovery/stm32f429i_discovery.c **** *******************************************************************************/
 909:Drivers/BSP/STM32F429I-Discovery/stm32f429i_discovery.c **** 
 910:Drivers/BSP/STM32F429I-Discovery/stm32f429i_discovery.c **** /********************************* LINK IOE ***********************************/
 911:Drivers/BSP/STM32F429I-Discovery/stm32f429i_discovery.c **** 
 912:Drivers/BSP/STM32F429I-Discovery/stm32f429i_discovery.c **** /**
 913:Drivers/BSP/STM32F429I-Discovery/stm32f429i_discovery.c ****   * @brief  IOE Low Level Initialization.
 914:Drivers/BSP/STM32F429I-Discovery/stm32f429i_discovery.c ****   * @param  None
 915:Drivers/BSP/STM32F429I-Discovery/stm32f429i_discovery.c ****   * @retval None
 916:Drivers/BSP/STM32F429I-Discovery/stm32f429i_discovery.c ****   */
 917:Drivers/BSP/STM32F429I-Discovery/stm32f429i_discovery.c **** void IOE_Init(void) 
 918:Drivers/BSP/STM32F429I-Discovery/stm32f429i_discovery.c **** {
 1968              		.loc 1 918 1 is_stmt 1 view -0
 1969              		.cfi_startproc
 1970              		@ args = 0, pretend = 0, frame = 0
 1971              		@ frame_needed = 0, uses_anonymous_args = 0
 1972 0000 08B5     		push	{r3, lr}
 1973              	.LCFI60:
 1974              		.cfi_def_cfa_offset 8
 1975              		.cfi_offset 3, -8
 1976              		.cfi_offset 14, -4
 919:Drivers/BSP/STM32F429I-Discovery/stm32f429i_discovery.c ****   I2Cx_Init();
 1977              		.loc 1 919 3 view .LVU454
 1978 0002 FFF7FEFF 		bl	I2Cx_Init
 1979              	.LVL142:
 920:Drivers/BSP/STM32F429I-Discovery/stm32f429i_discovery.c **** }
 1980              		.loc 1 920 1 is_stmt 0 view .LVU455
 1981 0006 08BD     		pop	{r3, pc}
 1982              		.cfi_endproc
 1983              	.LFE160:
 1985              		.section	.text.IOE_ITConfig,"ax",%progbits
 1986              		.align	1
 1987              		.global	IOE_ITConfig
 1988              		.syntax unified
 1989              		.thumb
 1990              		.thumb_func
 1992              	IOE_ITConfig:
 1993              	.LFB161:
 921:Drivers/BSP/STM32F429I-Discovery/stm32f429i_discovery.c **** 
 922:Drivers/BSP/STM32F429I-Discovery/stm32f429i_discovery.c **** /**
 923:Drivers/BSP/STM32F429I-Discovery/stm32f429i_discovery.c ****   * @brief  IOE Low Level Interrupt configuration.
ARM GAS  /var/folders/qx/2_175_4n2s19vhvtspjhb3qh0000gn/T//cchK137x.s 			page 57


 924:Drivers/BSP/STM32F429I-Discovery/stm32f429i_discovery.c ****   * @param  None
 925:Drivers/BSP/STM32F429I-Discovery/stm32f429i_discovery.c ****   * @retval None
 926:Drivers/BSP/STM32F429I-Discovery/stm32f429i_discovery.c ****   */
 927:Drivers/BSP/STM32F429I-Discovery/stm32f429i_discovery.c **** void IOE_ITConfig(void)
 928:Drivers/BSP/STM32F429I-Discovery/stm32f429i_discovery.c **** {
 1994              		.loc 1 928 1 is_stmt 1 view -0
 1995              		.cfi_startproc
 1996              		@ args = 0, pretend = 0, frame = 0
 1997              		@ frame_needed = 0, uses_anonymous_args = 0
 1998 0000 08B5     		push	{r3, lr}
 1999              	.LCFI61:
 2000              		.cfi_def_cfa_offset 8
 2001              		.cfi_offset 3, -8
 2002              		.cfi_offset 14, -4
 929:Drivers/BSP/STM32F429I-Discovery/stm32f429i_discovery.c ****   I2Cx_ITConfig();
 2003              		.loc 1 929 3 view .LVU457
 2004 0002 FFF7FEFF 		bl	I2Cx_ITConfig
 2005              	.LVL143:
 930:Drivers/BSP/STM32F429I-Discovery/stm32f429i_discovery.c **** }
 2006              		.loc 1 930 1 is_stmt 0 view .LVU458
 2007 0006 08BD     		pop	{r3, pc}
 2008              		.cfi_endproc
 2009              	.LFE161:
 2011              		.section	.text.IOE_Write,"ax",%progbits
 2012              		.align	1
 2013              		.global	IOE_Write
 2014              		.syntax unified
 2015              		.thumb
 2016              		.thumb_func
 2018              	IOE_Write:
 2019              	.LVL144:
 2020              	.LFB162:
 931:Drivers/BSP/STM32F429I-Discovery/stm32f429i_discovery.c **** 
 932:Drivers/BSP/STM32F429I-Discovery/stm32f429i_discovery.c **** /**
 933:Drivers/BSP/STM32F429I-Discovery/stm32f429i_discovery.c ****   * @brief  IOE Writes single data operation.
 934:Drivers/BSP/STM32F429I-Discovery/stm32f429i_discovery.c ****   * @param  Addr: I2C Address
 935:Drivers/BSP/STM32F429I-Discovery/stm32f429i_discovery.c ****   * @param  Reg: Reg Address 
 936:Drivers/BSP/STM32F429I-Discovery/stm32f429i_discovery.c ****   * @param  Value: Data to be written
 937:Drivers/BSP/STM32F429I-Discovery/stm32f429i_discovery.c ****   * @retval None
 938:Drivers/BSP/STM32F429I-Discovery/stm32f429i_discovery.c ****   */
 939:Drivers/BSP/STM32F429I-Discovery/stm32f429i_discovery.c **** void IOE_Write(uint8_t Addr, uint8_t Reg, uint8_t Value)
 940:Drivers/BSP/STM32F429I-Discovery/stm32f429i_discovery.c **** {
 2021              		.loc 1 940 1 is_stmt 1 view -0
 2022              		.cfi_startproc
 2023              		@ args = 0, pretend = 0, frame = 0
 2024              		@ frame_needed = 0, uses_anonymous_args = 0
 2025              		.loc 1 940 1 is_stmt 0 view .LVU460
 2026 0000 08B5     		push	{r3, lr}
 2027              	.LCFI62:
 2028              		.cfi_def_cfa_offset 8
 2029              		.cfi_offset 3, -8
 2030              		.cfi_offset 14, -4
 941:Drivers/BSP/STM32F429I-Discovery/stm32f429i_discovery.c ****   I2Cx_WriteData(Addr, Reg, Value);
 2031              		.loc 1 941 3 is_stmt 1 view .LVU461
 2032 0002 FFF7FEFF 		bl	I2Cx_WriteData
 2033              	.LVL145:
 942:Drivers/BSP/STM32F429I-Discovery/stm32f429i_discovery.c **** }
ARM GAS  /var/folders/qx/2_175_4n2s19vhvtspjhb3qh0000gn/T//cchK137x.s 			page 58


 2034              		.loc 1 942 1 is_stmt 0 view .LVU462
 2035 0006 08BD     		pop	{r3, pc}
 2036              		.cfi_endproc
 2037              	.LFE162:
 2039              		.section	.text.IOE_Read,"ax",%progbits
 2040              		.align	1
 2041              		.global	IOE_Read
 2042              		.syntax unified
 2043              		.thumb
 2044              		.thumb_func
 2046              	IOE_Read:
 2047              	.LVL146:
 2048              	.LFB163:
 943:Drivers/BSP/STM32F429I-Discovery/stm32f429i_discovery.c **** 
 944:Drivers/BSP/STM32F429I-Discovery/stm32f429i_discovery.c **** /**
 945:Drivers/BSP/STM32F429I-Discovery/stm32f429i_discovery.c ****   * @brief  IOE Reads single data.
 946:Drivers/BSP/STM32F429I-Discovery/stm32f429i_discovery.c ****   * @param  Addr: I2C Address
 947:Drivers/BSP/STM32F429I-Discovery/stm32f429i_discovery.c ****   * @param  Reg: Reg Address 
 948:Drivers/BSP/STM32F429I-Discovery/stm32f429i_discovery.c ****   * @retval The read data
 949:Drivers/BSP/STM32F429I-Discovery/stm32f429i_discovery.c ****   */
 950:Drivers/BSP/STM32F429I-Discovery/stm32f429i_discovery.c **** uint8_t IOE_Read(uint8_t Addr, uint8_t Reg)
 951:Drivers/BSP/STM32F429I-Discovery/stm32f429i_discovery.c **** {
 2049              		.loc 1 951 1 is_stmt 1 view -0
 2050              		.cfi_startproc
 2051              		@ args = 0, pretend = 0, frame = 0
 2052              		@ frame_needed = 0, uses_anonymous_args = 0
 2053              		.loc 1 951 1 is_stmt 0 view .LVU464
 2054 0000 08B5     		push	{r3, lr}
 2055              	.LCFI63:
 2056              		.cfi_def_cfa_offset 8
 2057              		.cfi_offset 3, -8
 2058              		.cfi_offset 14, -4
 952:Drivers/BSP/STM32F429I-Discovery/stm32f429i_discovery.c ****   return I2Cx_ReadData(Addr, Reg);
 2059              		.loc 1 952 3 is_stmt 1 view .LVU465
 2060              		.loc 1 952 10 is_stmt 0 view .LVU466
 2061 0002 FFF7FEFF 		bl	I2Cx_ReadData
 2062              	.LVL147:
 953:Drivers/BSP/STM32F429I-Discovery/stm32f429i_discovery.c **** }
 2063              		.loc 1 953 1 view .LVU467
 2064 0006 08BD     		pop	{r3, pc}
 2065              		.cfi_endproc
 2066              	.LFE163:
 2068              		.section	.text.IOE_WriteMultiple,"ax",%progbits
 2069              		.align	1
 2070              		.global	IOE_WriteMultiple
 2071              		.syntax unified
 2072              		.thumb
 2073              		.thumb_func
 2075              	IOE_WriteMultiple:
 2076              	.LVL148:
 2077              	.LFB164:
 954:Drivers/BSP/STM32F429I-Discovery/stm32f429i_discovery.c **** 
 955:Drivers/BSP/STM32F429I-Discovery/stm32f429i_discovery.c **** /**
 956:Drivers/BSP/STM32F429I-Discovery/stm32f429i_discovery.c ****   * @brief  IOE Writes multiple data.
 957:Drivers/BSP/STM32F429I-Discovery/stm32f429i_discovery.c ****   * @param  Addr: I2C Address
 958:Drivers/BSP/STM32F429I-Discovery/stm32f429i_discovery.c ****   * @param  Reg: Reg Address 
 959:Drivers/BSP/STM32F429I-Discovery/stm32f429i_discovery.c ****   * @param  pBuffer: pointer to data buffer
ARM GAS  /var/folders/qx/2_175_4n2s19vhvtspjhb3qh0000gn/T//cchK137x.s 			page 59


 960:Drivers/BSP/STM32F429I-Discovery/stm32f429i_discovery.c ****   * @param  Length: length of the data
 961:Drivers/BSP/STM32F429I-Discovery/stm32f429i_discovery.c ****   * @retval None
 962:Drivers/BSP/STM32F429I-Discovery/stm32f429i_discovery.c ****   */
 963:Drivers/BSP/STM32F429I-Discovery/stm32f429i_discovery.c **** void IOE_WriteMultiple(uint8_t Addr, uint8_t Reg, uint8_t *pBuffer, uint16_t Length)
 964:Drivers/BSP/STM32F429I-Discovery/stm32f429i_discovery.c **** {
 2078              		.loc 1 964 1 is_stmt 1 view -0
 2079              		.cfi_startproc
 2080              		@ args = 0, pretend = 0, frame = 0
 2081              		@ frame_needed = 0, uses_anonymous_args = 0
 2082              		.loc 1 964 1 is_stmt 0 view .LVU469
 2083 0000 08B5     		push	{r3, lr}
 2084              	.LCFI64:
 2085              		.cfi_def_cfa_offset 8
 2086              		.cfi_offset 3, -8
 2087              		.cfi_offset 14, -4
 965:Drivers/BSP/STM32F429I-Discovery/stm32f429i_discovery.c ****   I2Cx_WriteBuffer(Addr, Reg, pBuffer, Length);
 2088              		.loc 1 965 3 is_stmt 1 view .LVU470
 2089 0002 FFF7FEFF 		bl	I2Cx_WriteBuffer
 2090              	.LVL149:
 966:Drivers/BSP/STM32F429I-Discovery/stm32f429i_discovery.c **** }
 2091              		.loc 1 966 1 is_stmt 0 view .LVU471
 2092 0006 08BD     		pop	{r3, pc}
 2093              		.cfi_endproc
 2094              	.LFE164:
 2096              		.section	.text.IOE_ReadMultiple,"ax",%progbits
 2097              		.align	1
 2098              		.global	IOE_ReadMultiple
 2099              		.syntax unified
 2100              		.thumb
 2101              		.thumb_func
 2103              	IOE_ReadMultiple:
 2104              	.LVL150:
 2105              	.LFB165:
 967:Drivers/BSP/STM32F429I-Discovery/stm32f429i_discovery.c **** 
 968:Drivers/BSP/STM32F429I-Discovery/stm32f429i_discovery.c **** /**
 969:Drivers/BSP/STM32F429I-Discovery/stm32f429i_discovery.c ****   * @brief  IOE Reads multiple data.
 970:Drivers/BSP/STM32F429I-Discovery/stm32f429i_discovery.c ****   * @param  Addr: I2C Address
 971:Drivers/BSP/STM32F429I-Discovery/stm32f429i_discovery.c ****   * @param  Reg: Reg Address 
 972:Drivers/BSP/STM32F429I-Discovery/stm32f429i_discovery.c ****   * @param  pBuffer: pointer to data buffer
 973:Drivers/BSP/STM32F429I-Discovery/stm32f429i_discovery.c ****   * @param  Length: length of the data
 974:Drivers/BSP/STM32F429I-Discovery/stm32f429i_discovery.c ****   * @retval 0 if no problems to read multiple data
 975:Drivers/BSP/STM32F429I-Discovery/stm32f429i_discovery.c ****   */
 976:Drivers/BSP/STM32F429I-Discovery/stm32f429i_discovery.c **** uint16_t IOE_ReadMultiple(uint8_t Addr, uint8_t Reg, uint8_t *pBuffer, uint16_t Length)
 977:Drivers/BSP/STM32F429I-Discovery/stm32f429i_discovery.c **** {
 2106              		.loc 1 977 1 is_stmt 1 view -0
 2107              		.cfi_startproc
 2108              		@ args = 0, pretend = 0, frame = 0
 2109              		@ frame_needed = 0, uses_anonymous_args = 0
 2110              		.loc 1 977 1 is_stmt 0 view .LVU473
 2111 0000 08B5     		push	{r3, lr}
 2112              	.LCFI65:
 2113              		.cfi_def_cfa_offset 8
 2114              		.cfi_offset 3, -8
 2115              		.cfi_offset 14, -4
 978:Drivers/BSP/STM32F429I-Discovery/stm32f429i_discovery.c ****  return I2Cx_ReadBuffer(Addr, Reg, pBuffer, Length);
 2116              		.loc 1 978 2 is_stmt 1 view .LVU474
 2117              		.loc 1 978 9 is_stmt 0 view .LVU475
ARM GAS  /var/folders/qx/2_175_4n2s19vhvtspjhb3qh0000gn/T//cchK137x.s 			page 60


 2118 0002 FFF7FEFF 		bl	I2Cx_ReadBuffer
 2119              	.LVL151:
 979:Drivers/BSP/STM32F429I-Discovery/stm32f429i_discovery.c **** }
 2120              		.loc 1 979 1 view .LVU476
 2121 0006 08BD     		pop	{r3, pc}
 2122              		.cfi_endproc
 2123              	.LFE165:
 2125              		.section	.text.IOE_Delay,"ax",%progbits
 2126              		.align	1
 2127              		.global	IOE_Delay
 2128              		.syntax unified
 2129              		.thumb
 2130              		.thumb_func
 2132              	IOE_Delay:
 2133              	.LVL152:
 2134              	.LFB166:
 980:Drivers/BSP/STM32F429I-Discovery/stm32f429i_discovery.c **** 
 981:Drivers/BSP/STM32F429I-Discovery/stm32f429i_discovery.c **** /**
 982:Drivers/BSP/STM32F429I-Discovery/stm32f429i_discovery.c ****   * @brief  IOE Delay.
 983:Drivers/BSP/STM32F429I-Discovery/stm32f429i_discovery.c ****   * @param  Delay in ms
 984:Drivers/BSP/STM32F429I-Discovery/stm32f429i_discovery.c ****   * @retval None
 985:Drivers/BSP/STM32F429I-Discovery/stm32f429i_discovery.c ****   */
 986:Drivers/BSP/STM32F429I-Discovery/stm32f429i_discovery.c **** void IOE_Delay(uint32_t Delay)
 987:Drivers/BSP/STM32F429I-Discovery/stm32f429i_discovery.c **** {
 2135              		.loc 1 987 1 is_stmt 1 view -0
 2136              		.cfi_startproc
 2137              		@ args = 0, pretend = 0, frame = 0
 2138              		@ frame_needed = 0, uses_anonymous_args = 0
 2139              		.loc 1 987 1 is_stmt 0 view .LVU478
 2140 0000 08B5     		push	{r3, lr}
 2141              	.LCFI66:
 2142              		.cfi_def_cfa_offset 8
 2143              		.cfi_offset 3, -8
 2144              		.cfi_offset 14, -4
 988:Drivers/BSP/STM32F429I-Discovery/stm32f429i_discovery.c ****   HAL_Delay(Delay);
 2145              		.loc 1 988 3 is_stmt 1 view .LVU479
 2146 0002 FFF7FEFF 		bl	HAL_Delay
 2147              	.LVL153:
 989:Drivers/BSP/STM32F429I-Discovery/stm32f429i_discovery.c **** }
 2148              		.loc 1 989 1 is_stmt 0 view .LVU480
 2149 0006 08BD     		pop	{r3, pc}
 2150              		.cfi_endproc
 2151              	.LFE166:
 2153              		.section	.text.GYRO_IO_Init,"ax",%progbits
 2154              		.align	1
 2155              		.global	GYRO_IO_Init
 2156              		.syntax unified
 2157              		.thumb
 2158              		.thumb_func
 2160              	GYRO_IO_Init:
 2161              	.LFB167:
 990:Drivers/BSP/STM32F429I-Discovery/stm32f429i_discovery.c **** 
 991:Drivers/BSP/STM32F429I-Discovery/stm32f429i_discovery.c **** /********************************* LINK GYROSCOPE *****************************/
 992:Drivers/BSP/STM32F429I-Discovery/stm32f429i_discovery.c **** 
 993:Drivers/BSP/STM32F429I-Discovery/stm32f429i_discovery.c **** /**
 994:Drivers/BSP/STM32F429I-Discovery/stm32f429i_discovery.c ****   * @brief  Configures the Gyroscope SPI interface.
 995:Drivers/BSP/STM32F429I-Discovery/stm32f429i_discovery.c ****   * @param  None
ARM GAS  /var/folders/qx/2_175_4n2s19vhvtspjhb3qh0000gn/T//cchK137x.s 			page 61


 996:Drivers/BSP/STM32F429I-Discovery/stm32f429i_discovery.c ****   * @retval None
 997:Drivers/BSP/STM32F429I-Discovery/stm32f429i_discovery.c ****   */
 998:Drivers/BSP/STM32F429I-Discovery/stm32f429i_discovery.c **** void GYRO_IO_Init(void)
 999:Drivers/BSP/STM32F429I-Discovery/stm32f429i_discovery.c **** {
 2162              		.loc 1 999 1 is_stmt 1 view -0
 2163              		.cfi_startproc
 2164              		@ args = 0, pretend = 0, frame = 32
 2165              		@ frame_needed = 0, uses_anonymous_args = 0
 2166 0000 2DE9F043 		push	{r4, r5, r6, r7, r8, r9, lr}
 2167              	.LCFI67:
 2168              		.cfi_def_cfa_offset 28
 2169              		.cfi_offset 4, -28
 2170              		.cfi_offset 5, -24
 2171              		.cfi_offset 6, -20
 2172              		.cfi_offset 7, -16
 2173              		.cfi_offset 8, -12
 2174              		.cfi_offset 9, -8
 2175              		.cfi_offset 14, -4
 2176 0004 89B0     		sub	sp, sp, #36
 2177              	.LCFI68:
 2178              		.cfi_def_cfa_offset 64
1000:Drivers/BSP/STM32F429I-Discovery/stm32f429i_discovery.c ****   GPIO_InitTypeDef GPIO_InitStructure;
 2179              		.loc 1 1000 3 view .LVU482
1001:Drivers/BSP/STM32F429I-Discovery/stm32f429i_discovery.c ****   
1002:Drivers/BSP/STM32F429I-Discovery/stm32f429i_discovery.c ****   /* Configure the Gyroscope Control pins ------------------------------------*/
1003:Drivers/BSP/STM32F429I-Discovery/stm32f429i_discovery.c ****   /* Enable CS GPIO clock and Configure GPIO PIN for Gyroscope Chip select */  
1004:Drivers/BSP/STM32F429I-Discovery/stm32f429i_discovery.c ****   GYRO_CS_GPIO_CLK_ENABLE();  
 2180              		.loc 1 1004 3 view .LVU483
 2181              	.LBB14:
 2182              		.loc 1 1004 3 view .LVU484
 2183 0006 0025     		movs	r5, #0
 2184 0008 0195     		str	r5, [sp, #4]
 2185              		.loc 1 1004 3 view .LVU485
 2186 000a 1B4C     		ldr	r4, .L153
 2187 000c 236B     		ldr	r3, [r4, #48]
 2188 000e 43F00403 		orr	r3, r3, #4
 2189 0012 2363     		str	r3, [r4, #48]
 2190              		.loc 1 1004 3 view .LVU486
 2191 0014 236B     		ldr	r3, [r4, #48]
 2192 0016 03F00403 		and	r3, r3, #4
 2193 001a 0193     		str	r3, [sp, #4]
 2194              		.loc 1 1004 3 view .LVU487
 2195 001c 019B     		ldr	r3, [sp, #4]
 2196              	.LBE14:
 2197              		.loc 1 1004 3 view .LVU488
1005:Drivers/BSP/STM32F429I-Discovery/stm32f429i_discovery.c ****   GPIO_InitStructure.Pin = GYRO_CS_PIN;
 2198              		.loc 1 1005 3 view .LVU489
 2199              		.loc 1 1005 26 is_stmt 0 view .LVU490
 2200 001e 0226     		movs	r6, #2
 2201 0020 0396     		str	r6, [sp, #12]
1006:Drivers/BSP/STM32F429I-Discovery/stm32f429i_discovery.c ****   GPIO_InitStructure.Mode = GPIO_MODE_OUTPUT_PP;
 2202              		.loc 1 1006 3 is_stmt 1 view .LVU491
 2203              		.loc 1 1006 27 is_stmt 0 view .LVU492
 2204 0022 4FF00108 		mov	r8, #1
 2205 0026 CDF81080 		str	r8, [sp, #16]
1007:Drivers/BSP/STM32F429I-Discovery/stm32f429i_discovery.c ****   GPIO_InitStructure.Pull  = GPIO_NOPULL;
 2206              		.loc 1 1007 3 is_stmt 1 view .LVU493
ARM GAS  /var/folders/qx/2_175_4n2s19vhvtspjhb3qh0000gn/T//cchK137x.s 			page 62


 2207              		.loc 1 1007 28 is_stmt 0 view .LVU494
 2208 002a 0595     		str	r5, [sp, #20]
1008:Drivers/BSP/STM32F429I-Discovery/stm32f429i_discovery.c ****   GPIO_InitStructure.Speed = GPIO_SPEED_MEDIUM;
 2209              		.loc 1 1008 3 is_stmt 1 view .LVU495
 2210              		.loc 1 1008 28 is_stmt 0 view .LVU496
 2211 002c CDF81880 		str	r8, [sp, #24]
1009:Drivers/BSP/STM32F429I-Discovery/stm32f429i_discovery.c ****   HAL_GPIO_Init(GYRO_CS_GPIO_PORT, &GPIO_InitStructure);
 2212              		.loc 1 1009 3 is_stmt 1 view .LVU497
 2213 0030 03AF     		add	r7, sp, #12
 2214 0032 DFF84C90 		ldr	r9, .L153+8
 2215 0036 3946     		mov	r1, r7
 2216 0038 4846     		mov	r0, r9
 2217 003a FFF7FEFF 		bl	HAL_GPIO_Init
 2218              	.LVL154:
1010:Drivers/BSP/STM32F429I-Discovery/stm32f429i_discovery.c ****   
1011:Drivers/BSP/STM32F429I-Discovery/stm32f429i_discovery.c ****   /* Deselect: Chip Select high */
1012:Drivers/BSP/STM32F429I-Discovery/stm32f429i_discovery.c ****   GYRO_CS_HIGH();
 2219              		.loc 1 1012 3 view .LVU498
 2220 003e 4246     		mov	r2, r8
 2221 0040 3146     		mov	r1, r6
 2222 0042 4846     		mov	r0, r9
 2223 0044 FFF7FEFF 		bl	HAL_GPIO_WritePin
 2224              	.LVL155:
1013:Drivers/BSP/STM32F429I-Discovery/stm32f429i_discovery.c ****   
1014:Drivers/BSP/STM32F429I-Discovery/stm32f429i_discovery.c ****   /* Enable INT1, INT2 GPIO clock and Configure GPIO PINs to detect Interrupts */
1015:Drivers/BSP/STM32F429I-Discovery/stm32f429i_discovery.c ****   GYRO_INT_GPIO_CLK_ENABLE();
 2225              		.loc 1 1015 3 view .LVU499
 2226              	.LBB15:
 2227              		.loc 1 1015 3 view .LVU500
 2228 0048 0295     		str	r5, [sp, #8]
 2229              		.loc 1 1015 3 view .LVU501
 2230 004a 236B     		ldr	r3, [r4, #48]
 2231 004c 43EA0803 		orr	r3, r3, r8
 2232 0050 2363     		str	r3, [r4, #48]
 2233              		.loc 1 1015 3 view .LVU502
 2234 0052 236B     		ldr	r3, [r4, #48]
 2235 0054 03EA0803 		and	r3, r3, r8
 2236 0058 0293     		str	r3, [sp, #8]
 2237              		.loc 1 1015 3 view .LVU503
 2238 005a 029B     		ldr	r3, [sp, #8]
 2239              	.LBE15:
 2240              		.loc 1 1015 3 view .LVU504
1016:Drivers/BSP/STM32F429I-Discovery/stm32f429i_discovery.c ****   GPIO_InitStructure.Pin = GYRO_INT1_PIN | GYRO_INT2_PIN;
 2241              		.loc 1 1016 3 view .LVU505
 2242              		.loc 1 1016 26 is_stmt 0 view .LVU506
 2243 005c 0623     		movs	r3, #6
 2244 005e 0393     		str	r3, [sp, #12]
1017:Drivers/BSP/STM32F429I-Discovery/stm32f429i_discovery.c ****   GPIO_InitStructure.Mode = GPIO_MODE_INPUT;
 2245              		.loc 1 1017 3 is_stmt 1 view .LVU507
 2246              		.loc 1 1017 27 is_stmt 0 view .LVU508
 2247 0060 0495     		str	r5, [sp, #16]
1018:Drivers/BSP/STM32F429I-Discovery/stm32f429i_discovery.c ****   GPIO_InitStructure.Speed = GPIO_SPEED_FAST;
 2248              		.loc 1 1018 3 is_stmt 1 view .LVU509
 2249              		.loc 1 1018 28 is_stmt 0 view .LVU510
 2250 0062 0696     		str	r6, [sp, #24]
1019:Drivers/BSP/STM32F429I-Discovery/stm32f429i_discovery.c ****   GPIO_InitStructure.Pull= GPIO_NOPULL;
 2251              		.loc 1 1019 3 is_stmt 1 view .LVU511
ARM GAS  /var/folders/qx/2_175_4n2s19vhvtspjhb3qh0000gn/T//cchK137x.s 			page 63


 2252              		.loc 1 1019 26 is_stmt 0 view .LVU512
 2253 0064 0595     		str	r5, [sp, #20]
1020:Drivers/BSP/STM32F429I-Discovery/stm32f429i_discovery.c ****   HAL_GPIO_Init(GYRO_INT_GPIO_PORT, &GPIO_InitStructure);
 2254              		.loc 1 1020 3 is_stmt 1 view .LVU513
 2255 0066 3946     		mov	r1, r7
 2256 0068 0448     		ldr	r0, .L153+4
 2257 006a FFF7FEFF 		bl	HAL_GPIO_Init
 2258              	.LVL156:
1021:Drivers/BSP/STM32F429I-Discovery/stm32f429i_discovery.c **** 
1022:Drivers/BSP/STM32F429I-Discovery/stm32f429i_discovery.c ****   SPIx_Init();
 2259              		.loc 1 1022 3 view .LVU514
 2260 006e FFF7FEFF 		bl	SPIx_Init
 2261              	.LVL157:
1023:Drivers/BSP/STM32F429I-Discovery/stm32f429i_discovery.c **** }
 2262              		.loc 1 1023 1 is_stmt 0 view .LVU515
 2263 0072 09B0     		add	sp, sp, #36
 2264              	.LCFI69:
 2265              		.cfi_def_cfa_offset 28
 2266              		@ sp needed
 2267 0074 BDE8F083 		pop	{r4, r5, r6, r7, r8, r9, pc}
 2268              	.L154:
 2269              		.align	2
 2270              	.L153:
 2271 0078 00380240 		.word	1073887232
 2272 007c 00000240 		.word	1073872896
 2273 0080 00080240 		.word	1073874944
 2274              		.cfi_endproc
 2275              	.LFE167:
 2277              		.section	.text.GYRO_IO_Write,"ax",%progbits
 2278              		.align	1
 2279              		.global	GYRO_IO_Write
 2280              		.syntax unified
 2281              		.thumb
 2282              		.thumb_func
 2284              	GYRO_IO_Write:
 2285              	.LVL158:
 2286              	.LFB168:
1024:Drivers/BSP/STM32F429I-Discovery/stm32f429i_discovery.c **** 
1025:Drivers/BSP/STM32F429I-Discovery/stm32f429i_discovery.c **** /**
1026:Drivers/BSP/STM32F429I-Discovery/stm32f429i_discovery.c ****   * @brief  Writes one byte to the Gyroscope.
1027:Drivers/BSP/STM32F429I-Discovery/stm32f429i_discovery.c ****   * @param  pBuffer: Pointer to the buffer containing the data to be written to the Gyroscope.
1028:Drivers/BSP/STM32F429I-Discovery/stm32f429i_discovery.c ****   * @param  WriteAdd: Gyroscope's internal address to write to.
1029:Drivers/BSP/STM32F429I-Discovery/stm32f429i_discovery.c ****   * @param  NumByteToWrite: Number of bytes to write.
1030:Drivers/BSP/STM32F429I-Discovery/stm32f429i_discovery.c ****   * @retval None
1031:Drivers/BSP/STM32F429I-Discovery/stm32f429i_discovery.c ****   */
1032:Drivers/BSP/STM32F429I-Discovery/stm32f429i_discovery.c **** void GYRO_IO_Write(uint8_t* pBuffer, uint8_t WriteAddr, uint16_t NumByteToWrite)
1033:Drivers/BSP/STM32F429I-Discovery/stm32f429i_discovery.c **** {
 2287              		.loc 1 1033 1 is_stmt 1 view -0
 2288              		.cfi_startproc
 2289              		@ args = 0, pretend = 0, frame = 0
 2290              		@ frame_needed = 0, uses_anonymous_args = 0
 2291              		.loc 1 1033 1 is_stmt 0 view .LVU517
 2292 0000 70B5     		push	{r4, r5, r6, lr}
 2293              	.LCFI70:
 2294              		.cfi_def_cfa_offset 16
 2295              		.cfi_offset 4, -16
 2296              		.cfi_offset 5, -12
ARM GAS  /var/folders/qx/2_175_4n2s19vhvtspjhb3qh0000gn/T//cchK137x.s 			page 64


 2297              		.cfi_offset 6, -8
 2298              		.cfi_offset 14, -4
 2299 0002 0546     		mov	r5, r0
 2300 0004 0E46     		mov	r6, r1
 2301 0006 1446     		mov	r4, r2
1034:Drivers/BSP/STM32F429I-Discovery/stm32f429i_discovery.c ****   /* Configure the MS bit: 
1035:Drivers/BSP/STM32F429I-Discovery/stm32f429i_discovery.c ****        - When 0, the address will remain unchanged in multiple read/write commands.
1036:Drivers/BSP/STM32F429I-Discovery/stm32f429i_discovery.c ****        - When 1, the address will be auto incremented in multiple read/write commands.
1037:Drivers/BSP/STM32F429I-Discovery/stm32f429i_discovery.c ****   */
1038:Drivers/BSP/STM32F429I-Discovery/stm32f429i_discovery.c ****   if(NumByteToWrite > 0x01)
 2302              		.loc 1 1038 3 is_stmt 1 view .LVU518
 2303              		.loc 1 1038 5 is_stmt 0 view .LVU519
 2304 0008 012A     		cmp	r2, #1
 2305 000a 01D9     		bls	.L156
1039:Drivers/BSP/STM32F429I-Discovery/stm32f429i_discovery.c ****   {
1040:Drivers/BSP/STM32F429I-Discovery/stm32f429i_discovery.c ****     WriteAddr |= (uint8_t)MULTIPLEBYTE_CMD;
 2306              		.loc 1 1040 5 is_stmt 1 view .LVU520
 2307              		.loc 1 1040 15 is_stmt 0 view .LVU521
 2308 000c 41F04006 		orr	r6, r1, #64
 2309              	.L156:
 2310              	.LVL159:
1041:Drivers/BSP/STM32F429I-Discovery/stm32f429i_discovery.c ****   }
1042:Drivers/BSP/STM32F429I-Discovery/stm32f429i_discovery.c ****   /* Set chip select Low at the start of the transmission */
1043:Drivers/BSP/STM32F429I-Discovery/stm32f429i_discovery.c ****   GYRO_CS_LOW();
 2311              		.loc 1 1043 3 is_stmt 1 view .LVU522
 2312 0010 0022     		movs	r2, #0
 2313              	.LVL160:
 2314              		.loc 1 1043 3 is_stmt 0 view .LVU523
 2315 0012 0221     		movs	r1, #2
 2316 0014 0A48     		ldr	r0, .L160
 2317              	.LVL161:
 2318              		.loc 1 1043 3 view .LVU524
 2319 0016 FFF7FEFF 		bl	HAL_GPIO_WritePin
 2320              	.LVL162:
1044:Drivers/BSP/STM32F429I-Discovery/stm32f429i_discovery.c ****   
1045:Drivers/BSP/STM32F429I-Discovery/stm32f429i_discovery.c ****   /* Send the Address of the indexed register */
1046:Drivers/BSP/STM32F429I-Discovery/stm32f429i_discovery.c ****   SPIx_WriteRead(WriteAddr);
 2321              		.loc 1 1046 3 is_stmt 1 view .LVU525
 2322 001a 3046     		mov	r0, r6
 2323 001c FFF7FEFF 		bl	SPIx_WriteRead
 2324              	.LVL163:
1047:Drivers/BSP/STM32F429I-Discovery/stm32f429i_discovery.c ****   
1048:Drivers/BSP/STM32F429I-Discovery/stm32f429i_discovery.c ****   /* Send the data that will be written into the device (MSB First) */
1049:Drivers/BSP/STM32F429I-Discovery/stm32f429i_discovery.c ****   while(NumByteToWrite >= 0x01)
 2325              		.loc 1 1049 3 view .LVU526
 2326              		.loc 1 1049 8 is_stmt 0 view .LVU527
 2327 0020 05E0     		b	.L157
 2328              	.L158:
1050:Drivers/BSP/STM32F429I-Discovery/stm32f429i_discovery.c ****   {
1051:Drivers/BSP/STM32F429I-Discovery/stm32f429i_discovery.c ****     SPIx_WriteRead(*pBuffer);
 2329              		.loc 1 1051 5 is_stmt 1 view .LVU528
 2330 0022 15F8010B 		ldrb	r0, [r5], #1	@ zero_extendqisi2
 2331              	.LVL164:
 2332              		.loc 1 1051 5 is_stmt 0 view .LVU529
 2333 0026 FFF7FEFF 		bl	SPIx_WriteRead
 2334              	.LVL165:
1052:Drivers/BSP/STM32F429I-Discovery/stm32f429i_discovery.c ****     NumByteToWrite--;
ARM GAS  /var/folders/qx/2_175_4n2s19vhvtspjhb3qh0000gn/T//cchK137x.s 			page 65


 2335              		.loc 1 1052 5 is_stmt 1 view .LVU530
 2336              		.loc 1 1052 19 is_stmt 0 view .LVU531
 2337 002a 013C     		subs	r4, r4, #1
 2338              	.LVL166:
 2339              		.loc 1 1052 19 view .LVU532
 2340 002c A4B2     		uxth	r4, r4
 2341              	.LVL167:
1053:Drivers/BSP/STM32F429I-Discovery/stm32f429i_discovery.c ****     pBuffer++;
 2342              		.loc 1 1053 5 is_stmt 1 view .LVU533
 2343              	.L157:
1049:Drivers/BSP/STM32F429I-Discovery/stm32f429i_discovery.c ****   {
 2344              		.loc 1 1049 24 view .LVU534
 2345 002e 002C     		cmp	r4, #0
 2346 0030 F7D1     		bne	.L158
1054:Drivers/BSP/STM32F429I-Discovery/stm32f429i_discovery.c ****   }
1055:Drivers/BSP/STM32F429I-Discovery/stm32f429i_discovery.c ****   
1056:Drivers/BSP/STM32F429I-Discovery/stm32f429i_discovery.c ****   /* Set chip select High at the end of the transmission */ 
1057:Drivers/BSP/STM32F429I-Discovery/stm32f429i_discovery.c ****   GYRO_CS_HIGH();
 2347              		.loc 1 1057 3 view .LVU535
 2348 0032 0122     		movs	r2, #1
 2349 0034 0221     		movs	r1, #2
 2350 0036 0248     		ldr	r0, .L160
 2351 0038 FFF7FEFF 		bl	HAL_GPIO_WritePin
 2352              	.LVL168:
1058:Drivers/BSP/STM32F429I-Discovery/stm32f429i_discovery.c **** }
 2353              		.loc 1 1058 1 is_stmt 0 view .LVU536
 2354 003c 70BD     		pop	{r4, r5, r6, pc}
 2355              	.LVL169:
 2356              	.L161:
 2357              		.loc 1 1058 1 view .LVU537
 2358 003e 00BF     		.align	2
 2359              	.L160:
 2360 0040 00080240 		.word	1073874944
 2361              		.cfi_endproc
 2362              	.LFE168:
 2364              		.section	.text.GYRO_IO_Read,"ax",%progbits
 2365              		.align	1
 2366              		.global	GYRO_IO_Read
 2367              		.syntax unified
 2368              		.thumb
 2369              		.thumb_func
 2371              	GYRO_IO_Read:
 2372              	.LVL170:
 2373              	.LFB169:
1059:Drivers/BSP/STM32F429I-Discovery/stm32f429i_discovery.c **** 
1060:Drivers/BSP/STM32F429I-Discovery/stm32f429i_discovery.c **** /**
1061:Drivers/BSP/STM32F429I-Discovery/stm32f429i_discovery.c ****   * @brief  Reads a block of data from the Gyroscope.
1062:Drivers/BSP/STM32F429I-Discovery/stm32f429i_discovery.c ****   * @param  pBuffer: Pointer to the buffer that receives the data read from the Gyroscope.
1063:Drivers/BSP/STM32F429I-Discovery/stm32f429i_discovery.c ****   * @param  ReadAddr: Gyroscope's internal address to read from.
1064:Drivers/BSP/STM32F429I-Discovery/stm32f429i_discovery.c ****   * @param  NumByteToRead: Number of bytes to read from the Gyroscope.
1065:Drivers/BSP/STM32F429I-Discovery/stm32f429i_discovery.c ****   * @retval None
1066:Drivers/BSP/STM32F429I-Discovery/stm32f429i_discovery.c ****   */
1067:Drivers/BSP/STM32F429I-Discovery/stm32f429i_discovery.c **** void GYRO_IO_Read(uint8_t* pBuffer, uint8_t ReadAddr, uint16_t NumByteToRead)
1068:Drivers/BSP/STM32F429I-Discovery/stm32f429i_discovery.c **** {  
 2374              		.loc 1 1068 1 is_stmt 1 view -0
 2375              		.cfi_startproc
 2376              		@ args = 0, pretend = 0, frame = 0
ARM GAS  /var/folders/qx/2_175_4n2s19vhvtspjhb3qh0000gn/T//cchK137x.s 			page 66


 2377              		@ frame_needed = 0, uses_anonymous_args = 0
 2378              		.loc 1 1068 1 is_stmt 0 view .LVU539
 2379 0000 70B5     		push	{r4, r5, r6, lr}
 2380              	.LCFI71:
 2381              		.cfi_def_cfa_offset 16
 2382              		.cfi_offset 4, -16
 2383              		.cfi_offset 5, -12
 2384              		.cfi_offset 6, -8
 2385              		.cfi_offset 14, -4
 2386 0002 0546     		mov	r5, r0
 2387 0004 1446     		mov	r4, r2
1069:Drivers/BSP/STM32F429I-Discovery/stm32f429i_discovery.c ****   if(NumByteToRead > 0x01)
 2388              		.loc 1 1069 3 is_stmt 1 view .LVU540
 2389              		.loc 1 1069 5 is_stmt 0 view .LVU541
 2390 0006 012A     		cmp	r2, #1
 2391 0008 0AD9     		bls	.L163
1070:Drivers/BSP/STM32F429I-Discovery/stm32f429i_discovery.c ****   {
1071:Drivers/BSP/STM32F429I-Discovery/stm32f429i_discovery.c ****     ReadAddr |= (uint8_t)(READWRITE_CMD | MULTIPLEBYTE_CMD);
 2392              		.loc 1 1071 5 is_stmt 1 view .LVU542
 2393              		.loc 1 1071 14 is_stmt 0 view .LVU543
 2394 000a 41F0C006 		orr	r6, r1, #192
 2395              	.LVL171:
 2396              	.L164:
1072:Drivers/BSP/STM32F429I-Discovery/stm32f429i_discovery.c ****   }
1073:Drivers/BSP/STM32F429I-Discovery/stm32f429i_discovery.c ****   else
1074:Drivers/BSP/STM32F429I-Discovery/stm32f429i_discovery.c ****   {
1075:Drivers/BSP/STM32F429I-Discovery/stm32f429i_discovery.c ****     ReadAddr |= (uint8_t)READWRITE_CMD;
1076:Drivers/BSP/STM32F429I-Discovery/stm32f429i_discovery.c ****   }
1077:Drivers/BSP/STM32F429I-Discovery/stm32f429i_discovery.c ****   /* Set chip select Low at the start of the transmission */
1078:Drivers/BSP/STM32F429I-Discovery/stm32f429i_discovery.c ****   GYRO_CS_LOW();
 2397              		.loc 1 1078 3 is_stmt 1 view .LVU544
 2398 000e 0022     		movs	r2, #0
 2399              	.LVL172:
 2400              		.loc 1 1078 3 is_stmt 0 view .LVU545
 2401 0010 0221     		movs	r1, #2
 2402 0012 0C48     		ldr	r0, .L168
 2403              	.LVL173:
 2404              		.loc 1 1078 3 view .LVU546
 2405 0014 FFF7FEFF 		bl	HAL_GPIO_WritePin
 2406              	.LVL174:
1079:Drivers/BSP/STM32F429I-Discovery/stm32f429i_discovery.c ****   
1080:Drivers/BSP/STM32F429I-Discovery/stm32f429i_discovery.c ****   /* Send the Address of the indexed register */
1081:Drivers/BSP/STM32F429I-Discovery/stm32f429i_discovery.c ****   SPIx_WriteRead(ReadAddr);
 2407              		.loc 1 1081 3 is_stmt 1 view .LVU547
 2408 0018 3046     		mov	r0, r6
 2409 001a FFF7FEFF 		bl	SPIx_WriteRead
 2410              	.LVL175:
1082:Drivers/BSP/STM32F429I-Discovery/stm32f429i_discovery.c ****   
1083:Drivers/BSP/STM32F429I-Discovery/stm32f429i_discovery.c ****   /* Receive the data that will be read from the device (MSB First) */
1084:Drivers/BSP/STM32F429I-Discovery/stm32f429i_discovery.c ****   while(NumByteToRead > 0x00)
 2411              		.loc 1 1084 3 view .LVU548
 2412              		.loc 1 1084 8 is_stmt 0 view .LVU549
 2413 001e 09E0     		b	.L165
 2414              	.LVL176:
 2415              	.L163:
1075:Drivers/BSP/STM32F429I-Discovery/stm32f429i_discovery.c ****   }
 2416              		.loc 1 1075 5 is_stmt 1 view .LVU550
ARM GAS  /var/folders/qx/2_175_4n2s19vhvtspjhb3qh0000gn/T//cchK137x.s 			page 67


1075:Drivers/BSP/STM32F429I-Discovery/stm32f429i_discovery.c ****   }
 2417              		.loc 1 1075 14 is_stmt 0 view .LVU551
 2418 0020 41F08006 		orr	r6, r1, #128
 2419 0024 F3E7     		b	.L164
 2420              	.LVL177:
 2421              	.L166:
1085:Drivers/BSP/STM32F429I-Discovery/stm32f429i_discovery.c ****   {
1086:Drivers/BSP/STM32F429I-Discovery/stm32f429i_discovery.c ****     /* Send dummy byte (0x00) to generate the SPI clock to Gyroscope (Slave device) */
1087:Drivers/BSP/STM32F429I-Discovery/stm32f429i_discovery.c ****     *pBuffer = SPIx_WriteRead(DUMMY_BYTE);
 2422              		.loc 1 1087 5 is_stmt 1 view .LVU552
 2423              		.loc 1 1087 16 is_stmt 0 view .LVU553
 2424 0026 0020     		movs	r0, #0
 2425 0028 FFF7FEFF 		bl	SPIx_WriteRead
 2426              	.LVL178:
 2427              		.loc 1 1087 14 discriminator 1 view .LVU554
 2428 002c 05F8010B 		strb	r0, [r5], #1
 2429              	.LVL179:
1088:Drivers/BSP/STM32F429I-Discovery/stm32f429i_discovery.c ****     NumByteToRead--;
 2430              		.loc 1 1088 5 is_stmt 1 view .LVU555
 2431              		.loc 1 1088 18 is_stmt 0 view .LVU556
 2432 0030 013C     		subs	r4, r4, #1
 2433              	.LVL180:
 2434              		.loc 1 1088 18 view .LVU557
 2435 0032 A4B2     		uxth	r4, r4
 2436              	.LVL181:
1089:Drivers/BSP/STM32F429I-Discovery/stm32f429i_discovery.c ****     pBuffer++;
 2437              		.loc 1 1089 5 is_stmt 1 view .LVU558
 2438              	.L165:
1084:Drivers/BSP/STM32F429I-Discovery/stm32f429i_discovery.c ****   {
 2439              		.loc 1 1084 23 view .LVU559
 2440 0034 002C     		cmp	r4, #0
 2441 0036 F6D1     		bne	.L166
1090:Drivers/BSP/STM32F429I-Discovery/stm32f429i_discovery.c ****   }
1091:Drivers/BSP/STM32F429I-Discovery/stm32f429i_discovery.c ****   
1092:Drivers/BSP/STM32F429I-Discovery/stm32f429i_discovery.c ****   /* Set chip select High at the end of the transmission */ 
1093:Drivers/BSP/STM32F429I-Discovery/stm32f429i_discovery.c ****   GYRO_CS_HIGH();
 2442              		.loc 1 1093 3 view .LVU560
 2443 0038 0122     		movs	r2, #1
 2444 003a 0221     		movs	r1, #2
 2445 003c 0148     		ldr	r0, .L168
 2446 003e FFF7FEFF 		bl	HAL_GPIO_WritePin
 2447              	.LVL182:
1094:Drivers/BSP/STM32F429I-Discovery/stm32f429i_discovery.c **** }  
 2448              		.loc 1 1094 1 is_stmt 0 view .LVU561
 2449 0042 70BD     		pop	{r4, r5, r6, pc}
 2450              	.LVL183:
 2451              	.L169:
 2452              		.loc 1 1094 1 view .LVU562
 2453              		.align	2
 2454              	.L168:
 2455 0044 00080240 		.word	1073874944
 2456              		.cfi_endproc
 2457              	.LFE169:
 2459              		.section	.bss.Is_LCD_IO_Initialized,"aw",%nobits
 2462              	Is_LCD_IO_Initialized:
 2463 0000 00       		.space	1
 2464              		.section	.bss.SpiHandle,"aw",%nobits
ARM GAS  /var/folders/qx/2_175_4n2s19vhvtspjhb3qh0000gn/T//cchK137x.s 			page 68


 2465              		.align	2
 2468              	SpiHandle:
 2469 0000 00000000 		.space	88
 2469      00000000 
 2469      00000000 
 2469      00000000 
 2469      00000000 
 2470              		.global	I2cHandle
 2471              		.section	.bss.I2cHandle,"aw",%nobits
 2472              		.align	2
 2475              	I2cHandle:
 2476 0000 00000000 		.space	84
 2476      00000000 
 2476      00000000 
 2476      00000000 
 2476      00000000 
 2477              		.global	SpixTimeout
 2478              		.section	.data.SpixTimeout,"aw"
 2479              		.align	2
 2482              	SpixTimeout:
 2483 0000 00100000 		.word	4096
 2484              		.global	I2cxTimeout
 2485              		.section	.data.I2cxTimeout,"aw"
 2486              		.align	2
 2489              	I2cxTimeout:
 2490 0000 00300000 		.word	12288
 2491              		.global	BUTTON_IRQn
 2492              		.section	.rodata.BUTTON_IRQn,"a"
 2493              		.align	2
 2496              	BUTTON_IRQn:
 2497 0000 06       		.ascii	"\006"
 2498              		.global	BUTTON_PIN
 2499              		.section	.rodata.BUTTON_PIN,"a"
 2500              		.align	2
 2503              	BUTTON_PIN:
 2504 0000 0100     		.short	1
 2505              		.global	BUTTON_PORT
 2506              		.section	.data.BUTTON_PORT,"aw"
 2507              		.align	2
 2510              	BUTTON_PORT:
 2511 0000 00000240 		.word	1073872896
 2512              		.global	GPIO_PIN
 2513              		.section	.rodata.GPIO_PIN,"a"
 2514              		.align	2
 2517              	GPIO_PIN:
 2518 0000 0020     		.short	8192
 2519 0002 0040     		.short	16384
 2520              		.global	GPIO_PORT
 2521              		.section	.data.GPIO_PORT,"aw"
 2522              		.align	2
 2525              	GPIO_PORT:
 2526 0000 00180240 		.word	1073879040
 2527 0004 00180240 		.word	1073879040
 2528              		.text
 2529              	.Letext0:
 2530              		.file 2 "Drivers/CMSIS/Device/ST/STM32F4xx/Include/stm32f429xx.h"
 2531              		.file 3 "/Applications/ArmGNUToolchain/14.3.rel1/arm-none-eabi/arm-none-eabi/include/machine/_defa
ARM GAS  /var/folders/qx/2_175_4n2s19vhvtspjhb3qh0000gn/T//cchK137x.s 			page 69


 2532              		.file 4 "/Applications/ArmGNUToolchain/14.3.rel1/arm-none-eabi/arm-none-eabi/include/sys/_stdint.h
 2533              		.file 5 "Drivers/STM32F4xx_HAL_Driver/Inc/stm32f4xx_hal_def.h"
 2534              		.file 6 "Drivers/STM32F4xx_HAL_Driver/Inc/stm32f4xx_hal_gpio.h"
 2535              		.file 7 "Drivers/STM32F4xx_HAL_Driver/Inc/stm32f4xx_hal_dma.h"
 2536              		.file 8 "Drivers/STM32F4xx_HAL_Driver/Inc/stm32f4xx_hal_i2c.h"
 2537              		.file 9 "Drivers/STM32F4xx_HAL_Driver/Inc/stm32f4xx_hal_spi.h"
 2538              		.file 10 "Drivers/BSP/STM32F429I-Discovery/stm32f429i_discovery.h"
 2539              		.file 11 "Drivers/STM32F4xx_HAL_Driver/Inc/stm32f4xx_hal.h"
 2540              		.file 12 "Drivers/STM32F4xx_HAL_Driver/Inc/stm32f4xx_hal_cortex.h"
ARM GAS  /var/folders/qx/2_175_4n2s19vhvtspjhb3qh0000gn/T//cchK137x.s 			page 70

